ARM GAS  C:\Users\jo\AppData\Local\Temp\ccDsJqTW.s 			page 1


   1              		.syntax unified
   2              		.cpu cortex-m4
   3              		.fpu softvfp
   4              		.eabi_attribute 20, 1
   5              		.eabi_attribute 21, 1
   6              		.eabi_attribute 23, 3
   7              		.eabi_attribute 24, 1
   8              		.eabi_attribute 25, 1
   9              		.eabi_attribute 26, 1
  10              		.eabi_attribute 30, 2
  11              		.eabi_attribute 34, 1
  12              		.eabi_attribute 18, 4
  13              		.thumb
  14              		.file	"sha256.c"
  15              		.text
  16              	.Ltext0:
  17              		.cfi_sections	.debug_frame
  18              		.section	.text.sha256_init,"ax",%progbits
  19              		.align	2
  20              		.p2align 4,,15
  21              		.global	sha256_init
  22              		.thumb
  23              		.thumb_func
  24              		.type	sha256_init, %function
  25              	sha256_init:
  26              	.LFB1:
  27              		.file 1 "../../../ext/mbedtls-1.3.11/library/sha256.c"
  28              		.loc 1 84 0
  29              		.cfi_startproc
  30              		@ args = 0, pretend = 0, frame = 0
  31              		@ frame_needed = 0, uses_anonymous_args = 0
  32              		@ link register save eliminated.
  33              	.LVL0:
  34              		.loc 1 85 0
  35 0000 0021     		movs	r1, #0
  36 0002 EC22     		movs	r2, #236
  37 0004 FFF7FEBF 		b	memset
  38              	.LVL1:
  39              		.cfi_endproc
  40              	.LFE1:
  41              		.size	sha256_init, .-sha256_init
  42 0008 AFF30080 		.section	.text.sha256_free,"ax",%progbits
  42      AFF30080 
  43              		.align	2
  44              		.p2align 4,,15
  45              		.global	sha256_free
  46              		.thumb
  47              		.thumb_func
  48              		.type	sha256_free, %function
  49              	sha256_free:
  50              	.LFB2:
  51              		.loc 1 89 0
  52              		.cfi_startproc
  53              		@ args = 0, pretend = 0, frame = 0
  54              		@ frame_needed = 0, uses_anonymous_args = 0
  55              		@ link register save eliminated.
  56              	.LVL2:
ARM GAS  C:\Users\jo\AppData\Local\Temp\ccDsJqTW.s 			page 2


  57              		.loc 1 90 0
  58 0000 30B1     		cbz	r0, .L2
  59 0002 00F1EC02 		add	r2, r0, #236
  60              	.LBB74:
  61              	.LBB75:
  62              		.loc 1 55 0
  63 0006 0023     		movs	r3, #0
  64              	.LVL3:
  65              	.L4:
  66 0008 0370     		strb	r3, [r0]
  67              	.LVL4:
  68 000a 0130     		adds	r0, r0, #1
  69              	.LVL5:
  70 000c 9042     		cmp	r0, r2
  71 000e FBD1     		bne	.L4
  72              	.LVL6:
  73              	.L2:
  74 0010 7047     		bx	lr
  75              	.LBE75:
  76              	.LBE74:
  77              		.cfi_endproc
  78              	.LFE2:
  79              		.size	sha256_free, .-sha256_free
  80 0012 00BFAFF3 		.section	.text.sha256_starts,"ax",%progbits
  80      0080AFF3 
  80      0080AFF3 
  80      0080
  81              		.align	2
  82              		.p2align 4,,15
  83              		.global	sha256_starts
  84              		.thumb
  85              		.thumb_func
  86              		.type	sha256_starts, %function
  87              	sha256_starts:
  88              	.LFB3:
  89              		.loc 1 100 0
  90              		.cfi_startproc
  91              		@ args = 0, pretend = 0, frame = 0
  92              		@ frame_needed = 0, uses_anonymous_args = 0
  93              	.LVL7:
  94              		.loc 1 101 0
  95 0000 0023     		movs	r3, #0
  96              		.loc 1 100 0
  97 0002 F0B5     		push	{r4, r5, r6, r7, lr}
  98              		.cfi_def_cfa_offset 20
  99              		.cfi_offset 4, -20
 100              		.cfi_offset 5, -16
 101              		.cfi_offset 6, -12
 102              		.cfi_offset 7, -8
 103              		.cfi_offset 14, -4
 104              		.loc 1 101 0
 105 0004 0360     		str	r3, [r0]
 106              		.loc 1 102 0
 107 0006 4360     		str	r3, [r0, #4]
 108              		.loc 1 104 0
 109 0008 B1B1     		cbz	r1, .L13
 110              		.loc 1 119 0
ARM GAS  C:\Users\jo\AppData\Local\Temp\ccDsJqTW.s 			page 3


 111 000a DFF874C0 		ldr	ip, .L14+48
 112              		.loc 1 120 0
 113 000e DFF874E0 		ldr	lr, .L14+52
 114              		.loc 1 121 0
 115 0012 0F4F     		ldr	r7, .L14
 116              		.loc 1 122 0
 117 0014 0F4E     		ldr	r6, .L14+4
 118              		.loc 1 123 0
 119 0016 104D     		ldr	r5, .L14+8
 120              		.loc 1 124 0
 121 0018 104C     		ldr	r4, .L14+12
 122              		.loc 1 125 0
 123 001a 114A     		ldr	r2, .L14+16
 124              		.loc 1 126 0
 125 001c 114B     		ldr	r3, .L14+20
 126              	.L12:
 127              		.loc 1 119 0
 128 001e C0F808C0 		str	ip, [r0, #8]
 129              		.loc 1 120 0
 130 0022 C0F80CE0 		str	lr, [r0, #12]
 131              		.loc 1 121 0
 132 0026 0761     		str	r7, [r0, #16]
 133              		.loc 1 122 0
 134 0028 4661     		str	r6, [r0, #20]
 135              		.loc 1 123 0
 136 002a 8561     		str	r5, [r0, #24]
 137              		.loc 1 124 0
 138 002c C461     		str	r4, [r0, #28]
 139              		.loc 1 125 0
 140 002e 0262     		str	r2, [r0, #32]
 141              		.loc 1 126 0
 142 0030 4362     		str	r3, [r0, #36]
 143              		.loc 1 129 0
 144 0032 C0F8E810 		str	r1, [r0, #232]
 145 0036 F0BD     		pop	{r4, r5, r6, r7, pc}
 146              	.L13:
 147              		.loc 1 107 0
 148 0038 DFF84CC0 		ldr	ip, .L14+56
 149              		.loc 1 108 0
 150 003c DFF84CE0 		ldr	lr, .L14+60
 151              		.loc 1 109 0
 152 0040 094F     		ldr	r7, .L14+24
 153              		.loc 1 110 0
 154 0042 0A4E     		ldr	r6, .L14+28
 155              		.loc 1 111 0
 156 0044 0A4D     		ldr	r5, .L14+32
 157              		.loc 1 112 0
 158 0046 0B4C     		ldr	r4, .L14+36
 159              		.loc 1 113 0
 160 0048 0B4A     		ldr	r2, .L14+40
 161              		.loc 1 114 0
 162 004a 0C4B     		ldr	r3, .L14+44
 163 004c E7E7     		b	.L12
 164              	.L15:
 165 004e 00BF     		.align	2
 166              	.L14:
 167 0050 17DD7030 		.word	812702999
ARM GAS  C:\Users\jo\AppData\Local\Temp\ccDsJqTW.s 			page 4


 168 0054 39590EF7 		.word	-150054599
 169 0058 310BC0FF 		.word	-4191439
 170 005c 11155868 		.word	1750603025
 171 0060 A78FF964 		.word	1694076839
 172 0064 A44FFABE 		.word	-1090891868
 173 0068 72F36E3C 		.word	1013904242
 174 006c 3AF54FA5 		.word	-1521486534
 175 0070 7F520E51 		.word	1359893119
 176 0074 8C68059B 		.word	-1694144372
 177 0078 ABD9831F 		.word	528734635
 178 007c 19CDE05B 		.word	1541459225
 179 0080 D89E05C1 		.word	-1056596264
 180 0084 07D57C36 		.word	914150663
 181 0088 67E6096A 		.word	1779033703
 182 008c 85AE67BB 		.word	-1150833019
 183              		.cfi_endproc
 184              	.LFE3:
 185              		.size	sha256_starts, .-sha256_starts
 186              		.section	.text.sha256_process,"ax",%progbits
 187              		.align	2
 188              		.p2align 4,,15
 189              		.global	sha256_process
 190              		.thumb
 191              		.thumb_func
 192              		.type	sha256_process, %function
 193              	sha256_process:
 194              	.LFB4:
 195              		.loc 1 133 0
 196              		.cfi_startproc
 197              		@ args = 0, pretend = 0, frame = 256
 198              		@ frame_needed = 0, uses_anonymous_args = 0
 199              	.LVL8:
 200 0000 2DE9F04F 		push	{r4, r5, r6, r7, r8, r9, r10, fp, lr}
 201              		.cfi_def_cfa_offset 36
 202              		.cfi_offset 4, -36
 203              		.cfi_offset 5, -32
 204              		.cfi_offset 6, -28
 205              		.cfi_offset 7, -24
 206              		.cfi_offset 8, -20
 207              		.cfi_offset 9, -16
 208              		.cfi_offset 10, -12
 209              		.cfi_offset 11, -8
 210              		.cfi_offset 14, -4
 211 0004 C1B0     		sub	sp, sp, #260
 212              		.cfi_def_cfa_offset 296
 213              		.loc 1 137 0
 214 0006 4C78     		ldrb	r4, [r1, #1]	@ zero_extendqisi2
 215 0008 0194     		str	r4, [sp, #4]
 216              		.loc 1 140 0
 217 000a CC7B     		ldrb	r4, [r1, #15]	@ zero_extendqisi2
 218 000c 0394     		str	r4, [sp, #12]
 219 000e 8C7B     		ldrb	r4, [r1, #14]	@ zero_extendqisi2
 220 0010 0494     		str	r4, [sp, #16]
 221              		.loc 1 141 0
 222 0012 0C7C     		ldrb	r4, [r1, #16]	@ zero_extendqisi2
 223 0014 0594     		str	r4, [sp, #20]
 224 0016 4C7C     		ldrb	r4, [r1, #17]	@ zero_extendqisi2
ARM GAS  C:\Users\jo\AppData\Local\Temp\ccDsJqTW.s 			page 5


 225 0018 0694     		str	r4, [sp, #24]
 226 001a CC7C     		ldrb	r4, [r1, #19]	@ zero_extendqisi2
 227 001c 0794     		str	r4, [sp, #28]
 228 001e 8C7C     		ldrb	r4, [r1, #18]	@ zero_extendqisi2
 229 0020 0894     		str	r4, [sp, #32]
 230              		.loc 1 142 0
 231 0022 0C7D     		ldrb	r4, [r1, #20]	@ zero_extendqisi2
 232              		.loc 1 140 0
 233 0024 0B7B     		ldrb	r3, [r1, #12]	@ zero_extendqisi2
 234              		.loc 1 142 0
 235 0026 0994     		str	r4, [sp, #36]
 236 0028 4C7D     		ldrb	r4, [r1, #21]	@ zero_extendqisi2
 237              		.loc 1 137 0
 238 002a 91F800B0 		ldrb	fp, [r1]	@ zero_extendqisi2
 239 002e CF78     		ldrb	r7, [r1, #3]	@ zero_extendqisi2
 240              		.loc 1 138 0
 241 0030 91F80490 		ldrb	r9, [r1, #4]	@ zero_extendqisi2
 242 0034 CE79     		ldrb	r6, [r1, #7]	@ zero_extendqisi2
 243              		.loc 1 139 0
 244 0036 91F808C0 		ldrb	ip, [r1, #8]	@ zero_extendqisi2
 245 003a CD7A     		ldrb	r5, [r1, #11]	@ zero_extendqisi2
 246              		.loc 1 133 0
 247 003c 1A90     		str	r0, [sp, #104]
 248              		.loc 1 137 0
 249 003e 91F802A0 		ldrb	r10, [r1, #2]	@ zero_extendqisi2
 250              		.loc 1 138 0
 251 0042 4879     		ldrb	r0, [r1, #5]	@ zero_extendqisi2
 252              	.LVL9:
 253 0044 91F80680 		ldrb	r8, [r1, #6]	@ zero_extendqisi2
 254              		.loc 1 139 0
 255 0048 4A7A     		ldrb	r2, [r1, #9]	@ zero_extendqisi2
 256 004a 91F80AE0 		ldrb	lr, [r1, #10]	@ zero_extendqisi2
 257              		.loc 1 140 0
 258 004e 0293     		str	r3, [sp, #8]
 259 0050 4B7B     		ldrb	r3, [r1, #13]	@ zero_extendqisi2
 260              		.loc 1 142 0
 261 0052 0A94     		str	r4, [sp, #40]
 262 0054 CC7D     		ldrb	r4, [r1, #23]	@ zero_extendqisi2
 263 0056 0B94     		str	r4, [sp, #44]
 264 0058 8C7D     		ldrb	r4, [r1, #22]	@ zero_extendqisi2
 265 005a 0E94     		str	r4, [sp, #56]
 266              		.loc 1 143 0
 267 005c 0C7E     		ldrb	r4, [r1, #24]	@ zero_extendqisi2
 268 005e 1094     		str	r4, [sp, #64]
 269 0060 4C7E     		ldrb	r4, [r1, #25]	@ zero_extendqisi2
 270 0062 1194     		str	r4, [sp, #68]
 271 0064 CC7E     		ldrb	r4, [r1, #27]	@ zero_extendqisi2
 272 0066 1294     		str	r4, [sp, #72]
 273 0068 8C7E     		ldrb	r4, [r1, #26]	@ zero_extendqisi2
 274 006a 1394     		str	r4, [sp, #76]
 275              		.loc 1 144 0
 276 006c 0C7F     		ldrb	r4, [r1, #28]	@ zero_extendqisi2
 277 006e 1494     		str	r4, [sp, #80]
 278 0070 4C7F     		ldrb	r4, [r1, #29]	@ zero_extendqisi2
 279 0072 1B94     		str	r4, [sp, #108]
 280 0074 CC7F     		ldrb	r4, [r1, #31]	@ zero_extendqisi2
 281 0076 1E94     		str	r4, [sp, #120]
ARM GAS  C:\Users\jo\AppData\Local\Temp\ccDsJqTW.s 			page 6


 282 0078 8C7F     		ldrb	r4, [r1, #30]	@ zero_extendqisi2
 283 007a 1F94     		str	r4, [sp, #124]
 284              		.loc 1 145 0
 285 007c 91F82040 		ldrb	r4, [r1, #32]	@ zero_extendqisi2
 286 0080 2094     		str	r4, [sp, #128]
 287 0082 91F82140 		ldrb	r4, [r1, #33]	@ zero_extendqisi2
 288 0086 2194     		str	r4, [sp, #132]
 289 0088 91F82340 		ldrb	r4, [r1, #35]	@ zero_extendqisi2
 290 008c 2294     		str	r4, [sp, #136]
 291 008e 91F82240 		ldrb	r4, [r1, #34]	@ zero_extendqisi2
 292 0092 2394     		str	r4, [sp, #140]
 293              		.loc 1 146 0
 294 0094 91F82440 		ldrb	r4, [r1, #36]	@ zero_extendqisi2
 295 0098 2494     		str	r4, [sp, #144]
 296              		.loc 1 138 0
 297 009a 0004     		lsls	r0, r0, #16
 298              		.loc 1 146 0
 299 009c 91F82540 		ldrb	r4, [r1, #37]	@ zero_extendqisi2
 300 00a0 2594     		str	r4, [sp, #148]
 301              		.loc 1 138 0
 302 00a2 40EA0960 		orr	r0, r0, r9, lsl #24
 303              		.loc 1 137 0
 304 00a6 019C     		ldr	r4, [sp, #4]
 305 00a8 3043     		orrs	r0, r0, r6
 306              		.loc 1 138 0
 307 00aa 40EA0828 		orr	r8, r0, r8, lsl #8
 308              		.loc 1 137 0
 309 00ae 2404     		lsls	r4, r4, #16
 310 00b0 44EA0B64 		orr	r4, r4, fp, lsl #24
 311              		.loc 1 146 0
 312 00b4 91F827B0 		ldrb	fp, [r1, #39]	@ zero_extendqisi2
 313              	.LVL10:
 314              		.loc 1 138 0
 315 00b8 CDF80480 		str	r8, [sp, #4]
 316              	.LVL11:
 317              		.loc 1 148 0
 318 00bc 91F82E80 		ldrb	r8, [r1, #46]	@ zero_extendqisi2
 319              		.loc 1 147 0
 320 00c0 91F82B90 		ldrb	r9, [r1, #43]	@ zero_extendqisi2
 321              		.loc 1 148 0
 322 00c4 CDF8BC80 		str	r8, [sp, #188]
 323              		.loc 1 139 0
 324 00c8 1204     		lsls	r2, r2, #16
 325              		.loc 1 149 0
 326 00ca 91F83080 		ldrb	r8, [r1, #48]	@ zero_extendqisi2
 327              		.loc 1 146 0
 328 00ce CDF898B0 		str	fp, [sp, #152]
 329              		.loc 1 147 0
 330 00d2 CDF8A890 		str	r9, [sp, #168]
 331              		.loc 1 146 0
 332 00d6 91F826B0 		ldrb	fp, [r1, #38]	@ zero_extendqisi2
 333              		.loc 1 147 0
 334 00da 91F82A90 		ldrb	r9, [r1, #42]	@ zero_extendqisi2
 335              		.loc 1 149 0
 336 00de CDF8C080 		str	r8, [sp, #192]
 337              		.loc 1 139 0
 338 00e2 42EA0C62 		orr	r2, r2, ip, lsl #24
ARM GAS  C:\Users\jo\AppData\Local\Temp\ccDsJqTW.s 			page 7


 339              		.loc 1 149 0
 340 00e6 91F83180 		ldrb	r8, [r1, #49]	@ zero_extendqisi2
 341              		.loc 1 150 0
 342 00ea 91F834C0 		ldrb	ip, [r1, #52]	@ zero_extendqisi2
 343              		.loc 1 146 0
 344 00ee CDF89CB0 		str	fp, [sp, #156]
 345 00f2 3C43     		orrs	r4, r4, r7
 346              		.loc 1 147 0
 347 00f4 91F828B0 		ldrb	fp, [r1, #40]	@ zero_extendqisi2
 348 00f8 CDF8AC90 		str	r9, [sp, #172]
 349              		.loc 1 149 0
 350 00fc CDF8C480 		str	r8, [sp, #196]
 351              		.loc 1 148 0
 352 0100 91F82C90 		ldrb	r9, [r1, #44]	@ zero_extendqisi2
 353              		.loc 1 149 0
 354 0104 91F83380 		ldrb	r8, [r1, #51]	@ zero_extendqisi2
 355              		.loc 1 148 0
 356 0108 91F82F00 		ldrb	r0, [r1, #47]	@ zero_extendqisi2
 357              		.loc 1 147 0
 358 010c CDF8A0B0 		str	fp, [sp, #160]
 359 0110 2A43     		orrs	r2, r2, r5
 360 0112 91F829B0 		ldrb	fp, [r1, #41]	@ zero_extendqisi2
 361              		.loc 1 148 0
 362 0116 CDF8B090 		str	r9, [sp, #176]
 363              		.loc 1 137 0
 364 011a 44EA0A2A 		orr	r10, r4, r10, lsl #8
 365              		.loc 1 148 0
 366 011e 91F82D90 		ldrb	r9, [r1, #45]	@ zero_extendqisi2
 367              		.loc 1 149 0
 368 0122 CDF8C880 		str	r8, [sp, #200]
 369              		.loc 1 150 0
 370 0126 CDF8D0C0 		str	ip, [sp, #208]
 371              		.loc 1 149 0
 372 012a 91F83280 		ldrb	r8, [r1, #50]	@ zero_extendqisi2
 373              		.loc 1 150 0
 374 012e 91F835C0 		ldrb	ip, [r1, #53]	@ zero_extendqisi2
 375              		.loc 1 147 0
 376 0132 CDF8A4B0 		str	fp, [sp, #164]
 377              		.loc 1 139 0
 378 0136 42EA0E2E 		orr	lr, r2, lr, lsl #8
 379              		.loc 1 137 0
 380 013a CDF834A0 		str	r10, [sp, #52]
 381              	.LVL12:
 382              		.loc 1 148 0
 383 013e CDF8B490 		str	r9, [sp, #180]
 384 0142 2E90     		str	r0, [sp, #184]
 385              		.loc 1 149 0
 386 0144 CDF8CC80 		str	r8, [sp, #204]
 387              		.loc 1 150 0
 388 0148 CDF8D4C0 		str	ip, [sp, #212]
 389              	.LVL13:
 390              		.loc 1 139 0
 391 014c CDF830E0 		str	lr, [sp, #48]
 392              	.LVL14:
 393              		.loc 1 151 0
 394 0150 91F838E0 		ldrb	lr, [r1, #56]	@ zero_extendqisi2
 395 0154 CDF8E0E0 		str	lr, [sp, #224]
ARM GAS  C:\Users\jo\AppData\Local\Temp\ccDsJqTW.s 			page 8


 396 0158 91F839E0 		ldrb	lr, [r1, #57]	@ zero_extendqisi2
 397 015c CDF8E4E0 		str	lr, [sp, #228]
 398 0160 91F83BE0 		ldrb	lr, [r1, #59]	@ zero_extendqisi2
 399 0164 CDF8E8E0 		str	lr, [sp, #232]
 400 0168 91F83AE0 		ldrb	lr, [r1, #58]	@ zero_extendqisi2
 401 016c CDF8ECE0 		str	lr, [sp, #236]
 402              		.loc 1 152 0
 403 0170 91F83CE0 		ldrb	lr, [r1, #60]	@ zero_extendqisi2
 404 0174 CDF8F0E0 		str	lr, [sp, #240]
 405 0178 91F83DE0 		ldrb	lr, [r1, #61]	@ zero_extendqisi2
 406              		.loc 1 150 0
 407 017c 91F837C0 		ldrb	ip, [r1, #55]	@ zero_extendqisi2
 408              		.loc 1 152 0
 409 0180 CDF8F4E0 		str	lr, [sp, #244]
 410 0184 91F83FE0 		ldrb	lr, [r1, #63]	@ zero_extendqisi2
 411              		.loc 1 150 0
 412 0188 CDF8D8C0 		str	ip, [sp, #216]
 413              		.loc 1 152 0
 414 018c CDF8F8E0 		str	lr, [sp, #248]
 415              		.loc 1 150 0
 416 0190 91F836C0 		ldrb	ip, [r1, #54]	@ zero_extendqisi2
 417              		.loc 1 152 0
 418 0194 91F83EE0 		ldrb	lr, [r1, #62]	@ zero_extendqisi2
 419              		.loc 1 179 0
 420 0198 1A99     		ldr	r1, [sp, #104]
 421              	.LVL15:
 422              		.loc 1 140 0
 423 019a 029E     		ldr	r6, [sp, #8]
 424              		.loc 1 179 0
 425 019c 8A68     		ldr	r2, [r1, #8]
 426              		.loc 1 152 0
 427 019e CDF8FCE0 		str	lr, [sp, #252]
 428              		.loc 1 140 0
 429 01a2 1B04     		lsls	r3, r3, #16
 430 01a4 43EA0663 		orr	r3, r3, r6, lsl #24
 431 01a8 039E     		ldr	r6, [sp, #12]
 432              		.loc 1 141 0
 433 01aa 059F     		ldr	r7, [sp, #20]
 434              		.loc 1 150 0
 435 01ac CDF8DCC0 		str	ip, [sp, #220]
 436              		.loc 1 179 0
 437 01b0 1046     		mov	r0, r2
 438              		.loc 1 180 0
 439 01b2 0A46     		mov	r2, r1
 440 01b4 C968     		ldr	r1, [r1, #12]
 441 01b6 3343     		orrs	r3, r3, r6
 442              		.loc 1 140 0
 443 01b8 049E     		ldr	r6, [sp, #16]
 444              		.loc 1 180 0
 445 01ba 0D46     		mov	r5, r1
 446              		.loc 1 181 0
 447 01bc 1169     		ldr	r1, [r2, #16]
 448 01be 1991     		str	r1, [sp, #100]
 449              		.loc 1 140 0
 450 01c0 43EA062E 		orr	lr, r3, r6, lsl #8
 451              		.loc 1 183 0
 452 01c4 1146     		mov	r1, r2
ARM GAS  C:\Users\jo\AppData\Local\Temp\ccDsJqTW.s 			page 9


 453 01c6 9369     		ldr	r3, [r2, #24]
 454              		.loc 1 141 0
 455 01c8 069A     		ldr	r2, [sp, #24]
 456              		.loc 1 140 0
 457 01ca CDF83CE0 		str	lr, [sp, #60]
 458              	.LVL16:
 459              		.loc 1 141 0
 460 01ce 1404     		lsls	r4, r2, #16
 461              		.loc 1 185 0
 462 01d0 0A46     		mov	r2, r1
 463              		.loc 1 141 0
 464 01d2 44EA0764 		orr	r4, r4, r7, lsl #24
 465 01d6 079F     		ldr	r7, [sp, #28]
 466              	.LVL17:
 467              		.loc 1 185 0
 468 01d8 096A     		ldr	r1, [r1, #32]
 469 01da 1791     		str	r1, [sp, #92]
 470              		.loc 1 184 0
 471 01dc D169     		ldr	r1, [r2, #28]
 472              		.loc 1 188 0
 473 01de 1895     		str	r5, [sp, #96]
 474 01e0 3C43     		orrs	r4, r4, r7
 475              		.loc 1 184 0
 476 01e2 0F46     		mov	r7, r1
 477              	.LVL18:
 478              		.loc 1 141 0
 479 01e4 0899     		ldr	r1, [sp, #32]
 480              		.loc 1 188 0
 481 01e6 1697     		str	r7, [sp, #88]
 482              		.loc 1 141 0
 483 01e8 44EA012E 		orr	lr, r4, r1, lsl #8
 484              		.loc 1 186 0
 485 01ec 1146     		mov	r1, r2
 486 01ee 526A     		ldr	r2, [r2, #36]
 487              		.loc 1 141 0
 488 01f0 CDF818E0 		str	lr, [sp, #24]
 489              	.LVL19:
 490              		.loc 1 183 0
 491 01f4 1E46     		mov	r6, r3
 492              		.loc 1 186 0
 493 01f6 1446     		mov	r4, r2
 494              		.loc 1 188 0
 495 01f8 4FEAB613 		ror	r3, r6, #6
 496 01fc DB4A     		ldr	r2, .L18
 497 01fe 1D94     		str	r4, [sp, #116]
 498 0200 83EAF623 		eor	r3, r3, r6, ror #11
 499 0204 2244     		add	r2, r2, r4
 500 0206 83EA7663 		eor	r3, r3, r6, ror #25
 501 020a 1344     		add	r3, r3, r2
 502              		.loc 1 142 0
 503 020c 0A9A     		ldr	r2, [sp, #40]
 504 020e 0E9C     		ldr	r4, [sp, #56]
 505              		.loc 1 189 0
 506 0210 1596     		str	r6, [sp, #84]
 507              		.loc 1 142 0
 508 0212 4FEA024A 		lsl	r10, r2, #16
 509 0216 099A     		ldr	r2, [sp, #36]
ARM GAS  C:\Users\jo\AppData\Local\Temp\ccDsJqTW.s 			page 10


 510 0218 4AEA026A 		orr	r10, r10, r2, lsl #24
 511              		.loc 1 188 0
 512 021c 179A     		ldr	r2, [sp, #92]
 513 021e 5740     		eors	r7, r7, r2
 514 0220 3740     		ands	r7, r7, r6
 515 0222 5740     		eors	r7, r7, r2
 516 0224 1F44     		add	r7, r7, r3
 517 0226 0D9B     		ldr	r3, [sp, #52]
 518 0228 1F44     		add	r7, r7, r3
 519              	.LVL20:
 520 022a 0B9B     		ldr	r3, [sp, #44]
 521 022c 4AEA030A 		orr	r10, r10, r3
 522 0230 199B     		ldr	r3, [sp, #100]
 523 0232 45EA0002 		orr	r2, r5, r0
 524              		.loc 1 142 0
 525 0236 4AEA042E 		orr	lr, r10, r4, lsl #8
 526              		.loc 1 188 0
 527 023a 1A40     		ands	r2, r2, r3
 528 023c 4FEAB003 		ror	r3, r0, #2
 529              		.loc 1 142 0
 530 0240 CDF81CE0 		str	lr, [sp, #28]
 531              	.LVL21:
 532              		.loc 1 188 0
 533 0244 83EA7033 		eor	r3, r3, r0, ror #13
 534 0248 AE46     		mov	lr, r5
 535 024a 0446     		mov	r4, r0
 536 024c 83EAB053 		eor	r3, r3, r0, ror #22
 537 0250 0EEA0000 		and	r0, lr, r0
 538 0254 1043     		orrs	r0, r0, r2
 539              		.loc 1 182 0
 540 0256 4A69     		ldr	r2, [r1, #20]
 541              		.loc 1 188 0
 542 0258 1C92     		str	r2, [sp, #112]
 543 025a 1844     		add	r0, r0, r3
 544 025c 3844     		add	r0, r0, r7
 545 025e C44B     		ldr	r3, .L18+4
 546              		.loc 1 143 0
 547 0260 119D     		ldr	r5, [sp, #68]
 548              		.loc 1 188 0
 549 0262 1744     		add	r7, r7, r2
 550 0264 179A     		ldr	r2, [sp, #92]
 551 0266 1344     		add	r3, r3, r2
 552 0268 019A     		ldr	r2, [sp, #4]
 553 026a 9918     		adds	r1, r3, r2
 554              		.loc 1 143 0
 555 026c 109B     		ldr	r3, [sp, #64]
 556 026e 2A04     		lsls	r2, r5, #16
 557 0270 42EA0362 		orr	r2, r2, r3, lsl #24
 558              		.loc 1 189 0
 559 0274 169B     		ldr	r3, [sp, #88]
 560 0276 83EA060E 		eor	lr, r3, r6
 561 027a 07EA0E0E 		and	lr, r7, lr
 562 027e 129E     		ldr	r6, [sp, #72]
 563 0280 8EEA030E 		eor	lr, lr, r3
 564 0284 1D46     		mov	r5, r3
 565 0286 3243     		orrs	r2, r2, r6
 566 0288 01EB0E03 		add	r3, r1, lr
ARM GAS  C:\Users\jo\AppData\Local\Temp\ccDsJqTW.s 			page 11


 567 028c 189E     		ldr	r6, [sp, #96]
 568 028e 4FEAB71E 		ror	lr, r7, #6
 569 0292 40EA0401 		orr	r1, r0, r4
 570 0296 8EEAF72E 		eor	lr, lr, r7, ror #11
 571 029a 3140     		ands	r1, r1, r6
 572 029c 8EEA776E 		eor	lr, lr, r7, ror #25
 573              		.loc 1 143 0
 574 02a0 139E     		ldr	r6, [sp, #76]
 575              		.loc 1 189 0
 576 02a2 9E44     		add	lr, lr, r3
 577 02a4 4FEAB003 		ror	r3, r0, #2
 578              		.loc 1 143 0
 579 02a8 42EA062C 		orr	ip, r2, r6, lsl #8
 580              		.loc 1 189 0
 581 02ac 83EA7033 		eor	r3, r3, r0, ror #13
 582 02b0 00EA0406 		and	r6, r0, r4
 583 02b4 83EAB053 		eor	r3, r3, r0, ror #22
 584 02b8 0E43     		orrs	r6, r6, r1
 585 02ba 1E44     		add	r6, r6, r3
 586 02bc 199B     		ldr	r3, [sp, #100]
 587 02be 0C9A     		ldr	r2, [sp, #48]
 588              		.loc 1 144 0
 589 02c0 1B99     		ldr	r1, [sp, #108]
 590              		.loc 1 143 0
 591 02c2 CDF84CC0 		str	ip, [sp, #76]
 592              	.LVL22:
 593              		.loc 1 189 0
 594 02c6 06EB0E0A 		add	r10, r6, lr
 595 02ca 9E44     		add	lr, lr, r3
 596 02cc A94B     		ldr	r3, .L18+8
 597 02ce 2B44     		add	r3, r3, r5
 598 02d0 1344     		add	r3, r3, r2
 599              		.loc 1 144 0
 600 02d2 0A04     		lsls	r2, r1, #16
 601 02d4 1499     		ldr	r1, [sp, #80]
 602              	.LVL23:
 603              		.loc 1 190 0
 604 02d6 159E     		ldr	r6, [sp, #84]
 605              		.loc 1 144 0
 606 02d8 1F9D     		ldr	r5, [sp, #124]
 607 02da 42EA0162 		orr	r2, r2, r1, lsl #24
 608              		.loc 1 190 0
 609 02de 87EA0601 		eor	r1, r7, r6
 610 02e2 0EEA0101 		and	r1, lr, r1
 611 02e6 7140     		eors	r1, r1, r6
 612 02e8 0B44     		add	r3, r3, r1
 613 02ea 4FEABE11 		ror	r1, lr, #6
 614 02ee 81EAFE21 		eor	r1, r1, lr, ror #11
 615 02f2 81EA7E61 		eor	r1, r1, lr, ror #25
 616 02f6 1944     		add	r1, r1, r3
 617 02f8 4AEA0003 		orr	r3, r10, r0
 618 02fc 2646     		mov	r6, r4
 619 02fe 2340     		ands	r3, r3, r4
 620 0300 1E9C     		ldr	r4, [sp, #120]
 621              		.loc 1 191 0
 622 0302 1B96     		str	r6, [sp, #108]
 623 0304 2243     		orrs	r2, r2, r4
ARM GAS  C:\Users\jo\AppData\Local\Temp\ccDsJqTW.s 			page 12


 624              		.loc 1 190 0
 625 0306 4FEABA04 		ror	r4, r10, #2
 626              		.loc 1 144 0
 627 030a 42EA052C 		orr	ip, r2, r5, lsl #8
 628              		.loc 1 190 0
 629 030e 84EA7A34 		eor	r4, r4, r10, ror #13
 630 0312 0AEA0005 		and	r5, r10, r0
 631 0316 84EABA54 		eor	r4, r4, r10, ror #22
 632 031a 1D43     		orrs	r5, r5, r3
 633 031c 189B     		ldr	r3, [sp, #96]
 634 031e 159A     		ldr	r2, [sp, #84]
 635              		.loc 1 144 0
 636 0320 CDF820C0 		str	ip, [sp, #32]
 637              	.LVL24:
 638              		.loc 1 190 0
 639 0324 2544     		add	r5, r5, r4
 640 0326 0D44     		add	r5, r5, r1
 641 0328 1944     		add	r1, r1, r3
 642 032a 934B     		ldr	r3, .L18+12
 643 032c 0F9C     		ldr	r4, [sp, #60]
 644              		.loc 1 191 0
 645 032e 8EEA070C 		eor	ip, lr, r7
 646 0332 1344     		add	r3, r3, r2
 647 0334 01EA0C0C 		and	ip, r1, ip
 648 0338 1A19     		adds	r2, r3, r4
 649 033a 8CEA070C 		eor	ip, ip, r7
 650 033e 02EB0C03 		add	r3, r2, ip
 651              		.loc 1 145 0
 652 0342 219C     		ldr	r4, [sp, #132]
 653              		.loc 1 191 0
 654 0344 4FEAB11C 		ror	ip, r1, #6
 655 0348 8CEAF12C 		eor	ip, ip, r1, ror #11
 656              		.loc 1 145 0
 657 034c 4FEA0448 		lsl	r8, r4, #16
 658              		.loc 1 191 0
 659 0350 8CEA716C 		eor	ip, ip, r1, ror #25
 660              		.loc 1 145 0
 661 0354 209C     		ldr	r4, [sp, #128]
 662              		.loc 1 191 0
 663 0356 9C44     		add	ip, ip, r3
 664 0358 229B     		ldr	r3, [sp, #136]
 665              		.loc 1 145 0
 666 035a 48EA0468 		orr	r8, r8, r4, lsl #24
 667              		.loc 1 191 0
 668 035e 45EA0A04 		orr	r4, r5, r10
 669 0362 0440     		ands	r4, r4, r0
 670 0364 4FEAB502 		ror	r2, r5, #2
 671 0368 48EA0308 		orr	r8, r8, r3
 672 036c 05EA0A03 		and	r3, r5, r10
 673 0370 82EA7532 		eor	r2, r2, r5, ror #13
 674 0374 2343     		orrs	r3, r3, r4
 675              		.loc 1 145 0
 676 0376 239C     		ldr	r4, [sp, #140]
 677              		.loc 1 191 0
 678 0378 82EAB552 		eor	r2, r2, r5, ror #22
 679              		.loc 1 145 0
 680 037c 48EA0428 		orr	r8, r8, r4, lsl #8
ARM GAS  C:\Users\jo\AppData\Local\Temp\ccDsJqTW.s 			page 13


 681              		.loc 1 191 0
 682 0380 1344     		add	r3, r3, r2
 683 0382 069C     		ldr	r4, [sp, #24]
 684 0384 7D4A     		ldr	r2, .L18+16
 685              		.loc 1 145 0
 686 0386 CDF85080 		str	r8, [sp, #80]
 687 038a 2244     		add	r2, r2, r4
 688              		.loc 1 191 0
 689 038c 6344     		add	r3, r3, ip
 690 038e 1744     		add	r7, r7, r2
 691 0390 B444     		add	ip, ip, r6
 692              		.loc 1 192 0
 693 0392 81EA0E02 		eor	r2, r1, lr
 694 0396 0CEA0202 		and	r2, ip, r2
 695 039a 82EA0E04 		eor	r4, r2, lr
 696 039e 3A19     		adds	r2, r7, r4
 697 03a0 43EA0509 		orr	r9, r3, r5
 698 03a4 4FEABC1B 		ror	fp, ip, #6
 699 03a8 4FEAB304 		ror	r4, r3, #2
 700 03ac 09EA0A09 		and	r9, r9, r10
 701 03b0 03EA0508 		and	r8, r3, r5
 702 03b4 8BEAFC2B 		eor	fp, fp, ip, ror #11
 703 03b8 84EA7334 		eor	r4, r4, r3, ror #13
 704              		.loc 1 146 0
 705 03bc 259E     		ldr	r6, [sp, #148]
 706              		.loc 1 192 0
 707 03be 8BEA7C6B 		eor	fp, fp, ip, ror #25
 708 03c2 84EAB354 		eor	r4, r4, r3, ror #22
 709 03c6 49EA0808 		orr	r8, r9, r8
 710 03ca 02EB0B07 		add	r7, r2, fp
 711 03ce 08EB040B 		add	fp, r8, r4
 712 03d2 BB44     		add	fp, fp, r7
 713 03d4 3844     		add	r0, r0, r7
 714              		.loc 1 146 0
 715 03d6 3204     		lsls	r2, r6, #16
 716 03d8 079F     		ldr	r7, [sp, #28]
 717 03da 249E     		ldr	r6, [sp, #144]
 718 03dc 684C     		ldr	r4, .L18+20
 719 03de 42EA0662 		orr	r2, r2, r6, lsl #24
 720 03e2 3C44     		add	r4, r4, r7
 721 03e4 269E     		ldr	r6, [sp, #152]
 722 03e6 A644     		add	lr, lr, r4
 723              		.loc 1 193 0
 724 03e8 8CEA0104 		eor	r4, ip, r1
 725 03ec 42EA0608 		orr	r8, r2, r6
 726 03f0 0440     		ands	r4, r4, r0
 727 03f2 4FEAB012 		ror	r2, r0, #6
 728 03f6 4C40     		eors	r4, r4, r1
 729 03f8 82EAF022 		eor	r2, r2, r0, ror #11
 730 03fc 82EA7062 		eor	r2, r2, r0, ror #25
 731 0400 7444     		add	r4, r4, lr
 732 0402 04EB020E 		add	lr, r4, r2
 733              		.loc 1 146 0
 734 0406 279C     		ldr	r4, [sp, #156]
 735              		.loc 1 193 0
 736 0408 0AEB0E07 		add	r7, r10, lr
 737 040c 3E46     		mov	r6, r7
ARM GAS  C:\Users\jo\AppData\Local\Temp\ccDsJqTW.s 			page 14


 738              		.loc 1 146 0
 739 040e 48EA0428 		orr	r8, r8, r4, lsl #8
 740              		.loc 1 193 0
 741 0412 4BEA0307 		orr	r7, fp, r3
 742 0416 4FEABB04 		ror	r4, fp, #2
 743 041a 2F40     		ands	r7, r7, r5
 744 041c 0BEA0302 		and	r2, fp, r3
 745 0420 84EA7B34 		eor	r4, r4, fp, ror #13
 746 0424 84EABB54 		eor	r4, r4, fp, ror #22
 747 0428 3A43     		orrs	r2, r2, r7
 748 042a 2244     		add	r2, r2, r4
 749 042c 139F     		ldr	r7, [sp, #76]
 750 042e 554C     		ldr	r4, .L18+24
 751              		.loc 1 146 0
 752 0430 CDF80C80 		str	r8, [sp, #12]
 753 0434 3C44     		add	r4, r4, r7
 754 0436 2144     		add	r1, r1, r4
 755              		.loc 1 194 0
 756 0438 80EA0C04 		eor	r4, r0, ip
 757 043c 3440     		ands	r4, r4, r6
 758 043e 84EA0C04 		eor	r4, r4, ip
 759 0442 0C44     		add	r4, r4, r1
 760              		.loc 1 147 0
 761 0444 2999     		ldr	r1, [sp, #164]
 762              		.loc 1 194 0
 763 0446 0296     		str	r6, [sp, #8]
 764 0448 4FEAB618 		ror	r8, r6, #6
 765              		.loc 1 193 0
 766 044c 7244     		add	r2, r2, lr
 767              		.loc 1 194 0
 768 044e 88EAF628 		eor	r8, r8, r6, ror #11
 769              		.loc 1 147 0
 770 0452 4FEA014E 		lsl	lr, r1, #16
 771 0456 2899     		ldr	r1, [sp, #160]
 772              		.loc 1 194 0
 773 0458 88EA7668 		eor	r8, r8, r6, ror #25
 774 045c 42EA0B07 		orr	r7, r2, fp
 775              		.loc 1 147 0
 776 0460 4EEA016E 		orr	lr, lr, r1, lsl #24
 777              		.loc 1 194 0
 778 0464 04EB0801 		add	r1, r4, r8
 779 0468 4FEAB204 		ror	r4, r2, #2
 780 046c 1F40     		ands	r7, r7, r3
 781 046e 02EA0B08 		and	r8, r2, fp
 782 0472 84EA7234 		eor	r4, r4, r2, ror #13
 783 0476 84EAB254 		eor	r4, r4, r2, ror #22
 784 047a 47EA0808 		orr	r8, r7, r8
 785 047e A044     		add	r8, r8, r4
 786 0480 8844     		add	r8, r8, r1
 787 0482 0D44     		add	r5, r5, r1
 788 0484 089C     		ldr	r4, [sp, #32]
 789 0486 4049     		ldr	r1, .L18+28
 790 0488 2A9E     		ldr	r6, [sp, #168]
 791 048a 2144     		add	r1, r1, r4
 792              		.loc 1 195 0
 793 048c 029C     		ldr	r4, [sp, #8]
 794 048e 8C44     		add	ip, ip, r1
ARM GAS  C:\Users\jo\AppData\Local\Temp\ccDsJqTW.s 			page 15


 795 0490 84EA0001 		eor	r1, r4, r0
 796 0494 4EEA060E 		orr	lr, lr, r6
 797 0498 2940     		ands	r1, r1, r5
 798              		.loc 1 147 0
 799 049a 2B9E     		ldr	r6, [sp, #172]
 800              		.loc 1 195 0
 801 049c 4FEAB51A 		ror	r10, r5, #6
 802 04a0 4140     		eors	r1, r1, r0
 803 04a2 8AEAF52A 		eor	r10, r10, r5, ror #11
 804              		.loc 1 147 0
 805 04a6 4EEA062E 		orr	lr, lr, r6, lsl #8
 806              		.loc 1 195 0
 807 04aa 8AEA756A 		eor	r10, r10, r5, ror #25
 808 04ae 6144     		add	r1, r1, ip
 809 04b0 01EB0A0C 		add	ip, r1, r10
 810              		.loc 1 147 0
 811 04b4 CDF828E0 		str	lr, [sp, #40]
 812              		.loc 1 195 0
 813 04b8 4FEAB801 		ror	r1, r8, #2
 814 04bc 48EA020E 		orr	lr, r8, r2
 815 04c0 0EEA0B0E 		and	lr, lr, fp
 816 04c4 08EA0204 		and	r4, r8, r2
 817 04c8 81EA7831 		eor	r1, r1, r8, ror #13
 818 04cc 81EAB851 		eor	r1, r1, r8, ror #22
 819 04d0 4EEA0404 		orr	r4, lr, r4
 820              		.loc 1 148 0
 821 04d4 2D9E     		ldr	r6, [sp, #180]
 822              		.loc 1 195 0
 823 04d6 04EB010A 		add	r10, r4, r1
 824 04da 149C     		ldr	r4, [sp, #80]
 825 04dc 2B49     		ldr	r1, .L18+32
 826              		.loc 1 148 0
 827 04de 3704     		lsls	r7, r6, #16
 828 04e0 2144     		add	r1, r1, r4
 829 04e2 2C9E     		ldr	r6, [sp, #176]
 830              		.loc 1 196 0
 831 04e4 029C     		ldr	r4, [sp, #8]
 832              		.loc 1 195 0
 833 04e6 6344     		add	r3, r3, ip
 834 04e8 0844     		add	r0, r0, r1
 835              		.loc 1 196 0
 836 04ea 85EA0401 		eor	r1, r5, r4
 837 04ee 1940     		ands	r1, r1, r3
 838              		.loc 1 195 0
 839 04f0 E244     		add	r10, r10, ip
 840              		.loc 1 196 0
 841 04f2 6140     		eors	r1, r1, r4
 842 04f4 4AEA080E 		orr	lr, r10, r8
 843 04f8 0844     		add	r0, r0, r1
 844 04fa 4FEAB319 		ror	r9, r3, #6
 845 04fe 4FEABA01 		ror	r1, r10, #2
 846 0502 0EEA020E 		and	lr, lr, r2
 847 0506 0AEA0804 		and	r4, r10, r8
 848 050a 89EAF329 		eor	r9, r9, r3, ror #11
 849 050e 81EA7A31 		eor	r1, r1, r10, ror #13
 850 0512 89EA7369 		eor	r9, r9, r3, ror #25
 851 0516 81EABA51 		eor	r1, r1, r10, ror #22
ARM GAS  C:\Users\jo\AppData\Local\Temp\ccDsJqTW.s 			page 16


 852 051a 4EEA0404 		orr	r4, lr, r4
 853              		.loc 1 148 0
 854 051e 47EA0667 		orr	r7, r7, r6, lsl #24
 855 0522 2E9E     		ldr	r6, [sp, #184]
 856              		.loc 1 196 0
 857 0524 4844     		add	r0, r0, r9
 858 0526 04EB0109 		add	r9, r4, r1
 859 052a 8144     		add	r9, r9, r0
 860 052c 8344     		add	fp, fp, r0
 861 052e 3743     		orrs	r7, r7, r6
 862 0530 0398     		ldr	r0, [sp, #12]
 863              		.loc 1 148 0
 864 0532 2F9E     		ldr	r6, [sp, #188]
 865 0534 1649     		ldr	r1, .L18+36
 866 0536 329C     		ldr	r4, [sp, #200]
 867 0538 47EA062C 		orr	ip, r7, r6, lsl #8
 868 053c 0144     		add	r1, r1, r0
 869              		.loc 1 197 0
 870 053e 83EA0506 		eor	r6, r3, r5
 871 0542 0298     		ldr	r0, [sp, #8]
 872              		.loc 1 148 0
 873 0544 CDF82CC0 		str	ip, [sp, #44]
 874              		.loc 1 197 0
 875 0548 0BEA0606 		and	r6, fp, r6
 876 054c 4FEABB1E 		ror	lr, fp, #6
 877 0550 0144     		add	r1, r1, r0
 878 0552 8EEAFB2E 		eor	lr, lr, fp, ror #11
 879 0556 86EA0500 		eor	r0, r6, r5
 880 055a 0E18     		adds	r6, r1, r0
 881 055c 8EEA7B6E 		eor	lr, lr, fp, ror #25
 882 0560 06EB0E01 		add	r1, r6, lr
 883              		.loc 1 149 0
 884 0564 319E     		ldr	r6, [sp, #196]
 885 0566 3098     		ldr	r0, [sp, #192]
 886 0568 3604     		lsls	r6, r6, #16
 887 056a 13E0     		b	.L19
 888              	.L20:
 889              		.align	2
 890              	.L18:
 891 056c 982F8A42 		.word	1116352408
 892 0570 91443771 		.word	1899447441
 893 0574 CFFBC0B5 		.word	-1245643825
 894 0578 A5DBB5E9 		.word	-373957723
 895 057c 5BC25639 		.word	961987163
 896 0580 F111F159 		.word	1508970993
 897 0584 A4823F92 		.word	-1841331548
 898 0588 D55E1CAB 		.word	-1424204075
 899 058c 98AA07D8 		.word	-670586216
 900 0590 015B8312 		.word	310598401
 901              	.L19:
 902              		.loc 1 197 0
 903 0594 49EA0A07 		orr	r7, r9, r10
 904              		.loc 1 149 0
 905 0598 46EA0066 		orr	r6, r6, r0, lsl #24
 906              		.loc 1 197 0
 907 059c 4FEAB900 		ror	r0, r9, #2
 908 05a0 07EA0807 		and	r7, r7, r8
ARM GAS  C:\Users\jo\AppData\Local\Temp\ccDsJqTW.s 			page 17


 909 05a4 2643     		orrs	r6, r6, r4
 910 05a6 80EA7930 		eor	r0, r0, r9, ror #13
 911 05aa 09EA0A04 		and	r4, r9, r10
 912 05ae 80EAB950 		eor	r0, r0, r9, ror #22
 913 05b2 3C43     		orrs	r4, r4, r7
 914 05b4 04EB000E 		add	lr, r4, r0
 915 05b8 8E44     		add	lr, lr, r1
 916 05ba 0A44     		add	r2, r2, r1
 917 05bc 0A9C     		ldr	r4, [sp, #40]
 918 05be E249     		ldr	r1, .L21
 919              		.loc 1 149 0
 920 05c0 3398     		ldr	r0, [sp, #204]
 921 05c2 2144     		add	r1, r1, r4
 922 05c4 0D44     		add	r5, r5, r1
 923              		.loc 1 198 0
 924 05c6 8BEA0301 		eor	r1, fp, r3
 925 05ca 1140     		ands	r1, r1, r2
 926 05cc 5940     		eors	r1, r1, r3
 927              		.loc 1 149 0
 928 05ce 46EA002C 		orr	ip, r6, r0, lsl #8
 929 05d2 0D44     		add	r5, r5, r1
 930              		.loc 1 198 0
 931 05d4 4EEA0906 		orr	r6, lr, r9
 932 05d8 4FEAB211 		ror	r1, r2, #6
 933 05dc 4FEABE00 		ror	r0, lr, #2
 934 05e0 06EA0A06 		and	r6, r6, r10
 935 05e4 0EEA0904 		and	r4, lr, r9
 936 05e8 81EAF221 		eor	r1, r1, r2, ror #11
 937 05ec 80EA7E30 		eor	r0, r0, lr, ror #13
 938 05f0 80EABE50 		eor	r0, r0, lr, ror #22
 939 05f4 3443     		orrs	r4, r4, r6
 940 05f6 81EA7261 		eor	r1, r1, r2, ror #25
 941 05fa 2944     		add	r1, r1, r5
 942 05fc 2518     		adds	r5, r4, r0
 943 05fe 0D44     		add	r5, r5, r1
 944 0600 8844     		add	r8, r8, r1
 945 0602 0B9E     		ldr	r6, [sp, #44]
 946 0604 D149     		ldr	r1, .L21+4
 947              		.loc 1 150 0
 948 0606 3598     		ldr	r0, [sp, #212]
 949              		.loc 1 149 0
 950 0608 CDF844C0 		str	ip, [sp, #68]
 951 060c 3144     		add	r1, r1, r6
 952 060e 0B44     		add	r3, r3, r1
 953              		.loc 1 199 0
 954 0610 82EA0B01 		eor	r1, r2, fp
 955 0614 08EA0101 		and	r1, r8, r1
 956 0618 81EA0B01 		eor	r1, r1, fp
 957 061c 1944     		add	r1, r1, r3
 958 061e 4FEAB813 		ror	r3, r8, #6
 959              		.loc 1 150 0
 960 0622 0704     		lsls	r7, r0, #16
 961              		.loc 1 199 0
 962 0624 83EAF823 		eor	r3, r3, r8, ror #11
 963              		.loc 1 150 0
 964 0628 3498     		ldr	r0, [sp, #208]
 965 062a 369E     		ldr	r6, [sp, #216]
ARM GAS  C:\Users\jo\AppData\Local\Temp\ccDsJqTW.s 			page 18


 966              		.loc 1 199 0
 967 062c 83EA7863 		eor	r3, r3, r8, ror #25
 968 0630 CC18     		adds	r4, r1, r3
 969              		.loc 1 150 0
 970 0632 47EA0067 		orr	r7, r7, r0, lsl #24
 971              		.loc 1 199 0
 972 0636 4FEAB501 		ror	r1, r5, #2
 973 063a 45EA0E00 		orr	r0, r5, lr
 974 063e 00EA0900 		and	r0, r0, r9
 975 0642 05EA0E03 		and	r3, r5, lr
 976 0646 81EA7531 		eor	r1, r1, r5, ror #13
 977 064a 81EAB551 		eor	r1, r1, r5, ror #22
 978 064e 0343     		orrs	r3, r3, r0
 979 0650 0B44     		add	r3, r3, r1
 980 0652 1198     		ldr	r0, [sp, #68]
 981 0654 BE49     		ldr	r1, .L21+8
 982 0656 0144     		add	r1, r1, r0
 983 0658 A244     		add	r10, r10, r4
 984 065a 8B44     		add	fp, fp, r1
 985              		.loc 1 200 0
 986 065c 88EA0201 		eor	r1, r8, r2
 987 0660 0AEA0101 		and	r1, r10, r1
 988 0664 3743     		orrs	r7, r7, r6
 989 0666 5140     		eors	r1, r1, r2
 990              		.loc 1 150 0
 991 0668 379E     		ldr	r6, [sp, #220]
 992              		.loc 1 151 0
 993 066a 3898     		ldr	r0, [sp, #224]
 994 066c 5944     		add	r1, r1, fp
 995              		.loc 1 200 0
 996 066e 4FEABA1B 		ror	fp, r10, #6
 997              		.loc 1 150 0
 998 0672 47EA062C 		orr	ip, r7, r6, lsl #8
 999              		.loc 1 200 0
 1000 0676 8BEAFA2B 		eor	fp, fp, r10, ror #11
 1001              		.loc 1 151 0
 1002 067a 399E     		ldr	r6, [sp, #228]
 1003              		.loc 1 150 0
 1004 067c CDF848C0 		str	ip, [sp, #72]
 1005              		.loc 1 199 0
 1006 0680 2344     		add	r3, r3, r4
 1007              		.loc 1 200 0
 1008 0682 8BEA7A6B 		eor	fp, fp, r10, ror #25
 1009 0686 01EB0B04 		add	r4, r1, fp
 1010 068a 43EA0507 		orr	r7, r3, r5
 1011 068e 4FEAB301 		ror	r1, r3, #2
 1012              		.loc 1 151 0
 1013 0692 3604     		lsls	r6, r6, #16
 1014              		.loc 1 200 0
 1015 0694 07EA0E07 		and	r7, r7, lr
 1016 0698 81EA7331 		eor	r1, r1, r3, ror #13
 1017              		.loc 1 151 0
 1018 069c 46EA0066 		orr	r6, r6, r0, lsl #24
 1019              		.loc 1 200 0
 1020 06a0 03EA0500 		and	r0, r3, r5
 1021 06a4 81EAB351 		eor	r1, r1, r3, ror #22
 1022 06a8 3843     		orrs	r0, r0, r7
ARM GAS  C:\Users\jo\AppData\Local\Temp\ccDsJqTW.s 			page 19


 1023 06aa 00EB010B 		add	fp, r0, r1
 1024 06ae 129F     		ldr	r7, [sp, #72]
 1025 06b0 A849     		ldr	r1, .L21+12
 1026 06b2 3A98     		ldr	r0, [sp, #232]
 1027 06b4 3944     		add	r1, r1, r7
 1028 06b6 A144     		add	r9, r9, r4
 1029 06b8 0A44     		add	r2, r2, r1
 1030              		.loc 1 201 0
 1031 06ba 8AEA0801 		eor	r1, r10, r8
 1032 06be 09EA0101 		and	r1, r9, r1
 1033 06c2 81EA0801 		eor	r1, r1, r8
 1034 06c6 0643     		orrs	r6, r6, r0
 1035 06c8 0A44     		add	r2, r2, r1
 1036              		.loc 1 151 0
 1037 06ca 3B98     		ldr	r0, [sp, #236]
 1038              		.loc 1 201 0
 1039 06cc 4FEAB911 		ror	r1, r9, #6
 1040              		.loc 1 200 0
 1041 06d0 A344     		add	fp, fp, r4
 1042              		.loc 1 201 0
 1043 06d2 81EAF921 		eor	r1, r1, r9, ror #11
 1044              		.loc 1 151 0
 1045 06d6 46EA002C 		orr	ip, r6, r0, lsl #8
 1046              		.loc 1 201 0
 1047 06da 4BEA0304 		orr	r4, fp, r3
 1048 06de 81EA7961 		eor	r1, r1, r9, ror #25
 1049 06e2 4FEABB00 		ror	r0, fp, #2
 1050 06e6 1144     		add	r1, r1, r2
 1051 06e8 2C40     		ands	r4, r4, r5
 1052 06ea 0BEA0302 		and	r2, fp, r3
 1053 06ee 80EA7B30 		eor	r0, r0, fp, ror #13
 1054 06f2 80EABB50 		eor	r0, r0, fp, ror #22
 1055 06f6 2243     		orrs	r2, r2, r4
 1056 06f8 0244     		add	r2, r2, r0
 1057 06fa 0A44     		add	r2, r2, r1
 1058 06fc 8E44     		add	lr, lr, r1
 1059 06fe 9649     		ldr	r1, .L21+16
 1060              		.loc 1 152 0
 1061 0700 3D98     		ldr	r0, [sp, #244]
 1062 0702 CDF810C0 		str	ip, [sp, #16]
 1063 0706 6144     		add	r1, r1, ip
 1064 0708 8844     		add	r8, r8, r1
 1065              		.loc 1 202 0
 1066 070a 89EA0A01 		eor	r1, r9, r10
 1067 070e 0EEA0101 		and	r1, lr, r1
 1068 0712 81EA0A06 		eor	r6, r1, r10
 1069              		.loc 1 152 0
 1070 0716 3C99     		ldr	r1, [sp, #240]
 1071 0718 0004     		lsls	r0, r0, #16
 1072 071a 40EA0160 		orr	r0, r0, r1, lsl #24
 1073 071e 08EB0601 		add	r1, r8, r6
 1074 0722 3E9E     		ldr	r6, [sp, #248]
 1075              		.loc 1 202 0
 1076 0724 4FEAB208 		ror	r8, r2, #2
 1077 0728 42EA0B07 		orr	r7, r2, fp
 1078 072c 88EA7238 		eor	r8, r8, r2, ror #13
 1079 0730 1F40     		ands	r7, r7, r3
ARM GAS  C:\Users\jo\AppData\Local\Temp\ccDsJqTW.s 			page 20


 1080 0732 3043     		orrs	r0, r0, r6
 1081 0734 4FEABE14 		ror	r4, lr, #6
 1082 0738 88EAB256 		eor	r6, r8, r2, ror #22
 1083 073c 02EA0B08 		and	r8, r2, fp
 1084 0740 84EAFE24 		eor	r4, r4, lr, ror #11
 1085 0744 47EA0808 		orr	r8, r7, r8
 1086 0748 84EA7E64 		eor	r4, r4, lr, ror #25
 1087 074c B044     		add	r8, r8, r6
 1088              		.loc 1 152 0
 1089 074e 3F9E     		ldr	r6, [sp, #252]
 1090              		.loc 1 202 0
 1091 0750 0C44     		add	r4, r4, r1
 1092 0752 8249     		ldr	r1, .L21+20
 1093 0754 2544     		add	r5, r5, r4
 1094              		.loc 1 152 0
 1095 0756 40EA062C 		orr	ip, r0, r6, lsl #8
 1096              	.LVL25:
 1097              		.loc 1 203 0
 1098 075a 8EEA0906 		eor	r6, lr, r9
 1099              		.loc 1 202 0
 1100 075e A044     		add	r8, r8, r4
 1101              	.LVL26:
 1102 0760 6144     		add	r1, r1, ip
 1103              		.loc 1 204 0
 1104 0762 049C     		ldr	r4, [sp, #16]
 1105              	.LVL27:
 1106 0764 CDF814C0 		str	ip, [sp, #20]
 1107              		.loc 1 203 0
 1108 0768 2E40     		ands	r6, r6, r5
 1109 076a 4FEAB510 		ror	r0, r5, #6
 1110 076e 8A44     		add	r10, r10, r1
 1111              	.LVL28:
 1112 0770 0995     		str	r5, [sp, #36]
 1113 0772 86EA0901 		eor	r1, r6, r9
 1114 0776 80EAF520 		eor	r0, r0, r5, ror #11
 1115 077a 039E     		ldr	r6, [sp, #12]
 1116 077c 0D9D     		ldr	r5, [sp, #52]
 1117              	.LVL29:
 1118              		.loc 1 204 0
 1119 077e 4FEA7447 		ror	r7, r4, #17
 1120              	.LVL30:
 1121 0782 A446     		mov	ip, r4
 1122 0784 87EAF447 		eor	r7, r7, r4, ror #19
 1123 0788 7419     		adds	r4, r6, r5
 1124              		.loc 1 203 0
 1125 078a 099D     		ldr	r5, [sp, #36]
 1126 078c 80EA7560 		eor	r0, r0, r5, ror #25
 1127              		.loc 1 204 0
 1128 0790 019D     		ldr	r5, [sp, #4]
 1129 0792 87EA9C27 		eor	r7, r7, ip, lsr #10
 1130 0796 3C44     		add	r4, r4, r7
 1131 0798 4FEAF517 		ror	r7, r5, #7
 1132 079c 87EAB547 		eor	r7, r7, r5, ror #18
 1133 07a0 5144     		add	r1, r1, r10
 1134 07a2 87EAD507 		eor	r7, r7, r5, lsr #3
 1135              		.loc 1 203 0
 1136 07a6 4FEAB80C 		ror	ip, r8, #2
ARM GAS  C:\Users\jo\AppData\Local\Temp\ccDsJqTW.s 			page 21


 1137 07aa 0844     		add	r0, r0, r1
 1138              	.LVL31:
 1139 07ac 48EA0206 		orr	r6, r8, r2
 1140              		.loc 1 204 0
 1141 07b0 E119     		adds	r1, r4, r7
 1142              		.loc 1 203 0
 1143 07b2 8CEA783C 		eor	ip, ip, r8, ror #13
 1144 07b6 8CEAB85A 		eor	r10, ip, r8, ror #22
 1145              		.loc 1 204 0
 1146 07ba 0D46     		mov	r5, r1
 1147              		.loc 1 203 0
 1148 07bc 06EA0B06 		and	r6, r6, fp
 1149 07c0 08EA020C 		and	ip, r8, r2
 1150              		.loc 1 204 0
 1151 07c4 0999     		ldr	r1, [sp, #36]
 1152              		.loc 1 205 0
 1153 07c6 059C     		ldr	r4, [sp, #20]
 1154 07c8 0D95     		str	r5, [sp, #52]
 1155              		.loc 1 203 0
 1156 07ca 46EA0C0C 		orr	ip, r6, ip
 1157 07ce 644E     		ldr	r6, .L21+24
 1158 07d0 0344     		add	r3, r3, r0
 1159              	.LVL32:
 1160              		.loc 1 204 0
 1161 07d2 81EA0E01 		eor	r1, r1, lr
 1162 07d6 2E44     		add	r6, r6, r5
 1163              		.loc 1 203 0
 1164 07d8 D444     		add	ip, ip, r10
 1165              	.LVL33:
 1166              		.loc 1 204 0
 1167 07da 1940     		ands	r1, r1, r3
 1168              		.loc 1 203 0
 1169 07dc 8444     		add	ip, ip, r0
 1170              	.LVL34:
 1171 07de 019D     		ldr	r5, [sp, #4]
 1172 07e0 0A98     		ldr	r0, [sp, #40]
 1173              	.LVL35:
 1174              		.loc 1 204 0
 1175 07e2 81EA0E01 		eor	r1, r1, lr
 1176              		.loc 1 205 0
 1177 07e6 4FEA7447 		ror	r7, r4, #17
 1178 07ea B144     		add	r9, r9, r6
 1179              	.LVL36:
 1180 07ec A246     		mov	r10, r4
 1181 07ee 87EAF447 		eor	r7, r7, r4, ror #19
 1182 07f2 8944     		add	r9, r9, r1
 1183 07f4 0C99     		ldr	r1, [sp, #48]
 1184 07f6 87EA9A27 		eor	r7, r7, r10, lsr #10
 1185 07fa 2844     		add	r0, r0, r5
 1186 07fc 3844     		add	r0, r0, r7
 1187 07fe 4FEAF117 		ror	r7, r1, #7
 1188              		.loc 1 204 0
 1189 0802 4CEA0806 		orr	r6, ip, r8
 1190 0806 4FEAB314 		ror	r4, r3, #6
 1191 080a 4FEABC0A 		ror	r10, ip, #2
 1192              		.loc 1 205 0
 1193 080e 87EAB147 		eor	r7, r7, r1, ror #18
ARM GAS  C:\Users\jo\AppData\Local\Temp\ccDsJqTW.s 			page 22


 1194              		.loc 1 204 0
 1195 0812 1640     		ands	r6, r6, r2
 1196              		.loc 1 205 0
 1197 0814 87EAD107 		eor	r7, r7, r1, lsr #3
 1198              		.loc 1 204 0
 1199 0818 84EAF324 		eor	r4, r4, r3, ror #11
 1200 081c 0CEA0801 		and	r1, ip, r8
 1201 0820 8AEA7C3A 		eor	r10, r10, ip, ror #13
 1202 0824 84EA7364 		eor	r4, r4, r3, ror #25
 1203 0828 3143     		orrs	r1, r1, r6
 1204 082a 8AEABC5A 		eor	r10, r10, ip, ror #22
 1205 082e A144     		add	r9, r9, r4
 1206              	.LVL37:
 1207 0830 8A44     		add	r10, r10, r1
 1208              	.LVL38:
 1209 0832 0AEB0905 		add	r5, r10, r9
 1210 0836 0295     		str	r5, [sp, #8]
 1211              		.loc 1 205 0
 1212 0838 099D     		ldr	r5, [sp, #36]
 1213 083a 4A4E     		ldr	r6, .L21+28
 1214              		.loc 1 206 0
 1215 083c 0F99     		ldr	r1, [sp, #60]
 1216              		.loc 1 205 0
 1217 083e C419     		adds	r4, r0, r7
 1218              		.loc 1 204 0
 1219 0840 CB44     		add	fp, fp, r9
 1220              	.LVL39:
 1221              		.loc 1 205 0
 1222 0842 2046     		mov	r0, r4
 1223 0844 83EA0507 		eor	r7, r3, r5
 1224 0848 0644     		add	r6, r6, r0
 1225 084a 0BEA0707 		and	r7, fp, r7
 1226 084e 0E90     		str	r0, [sp, #56]
 1227 0850 6F40     		eors	r7, r7, r5
 1228 0852 B644     		add	lr, lr, r6
 1229              	.LVL40:
 1230 0854 4FEABB10 		ror	r0, fp, #6
 1231 0858 0B9E     		ldr	r6, [sp, #44]
 1232 085a 0C9D     		ldr	r5, [sp, #48]
 1233              		.loc 1 206 0
 1234 085c 4FEAF114 		ror	r4, r1, #7
 1235              		.loc 1 205 0
 1236 0860 80EAFB20 		eor	r0, r0, fp, ror #11
 1237 0864 BE44     		add	lr, lr, r7
 1238 0866 029F     		ldr	r7, [sp, #8]
 1239 0868 80EA7B60 		eor	r0, r0, fp, ror #25
 1240              		.loc 1 206 0
 1241 086c 84EAB144 		eor	r4, r4, r1, ror #18
 1242 0870 0F99     		ldr	r1, [sp, #60]
 1243 0872 06EB050A 		add	r10, r6, r5
 1244              	.LVL41:
 1245              		.loc 1 205 0
 1246 0876 8644     		add	lr, lr, r0
 1247              	.LVL42:
 1248              		.loc 1 206 0
 1249 0878 0D9D     		ldr	r5, [sp, #52]
 1250              		.loc 1 205 0
ARM GAS  C:\Users\jo\AppData\Local\Temp\ccDsJqTW.s 			page 23


 1251 087a 0298     		ldr	r0, [sp, #8]
 1252 087c 4FEAB706 		ror	r6, r7, #2
 1253 0880 47EA0C09 		orr	r9, r7, ip
 1254              		.loc 1 206 0
 1255 0884 84EAD104 		eor	r4, r4, r1, lsr #3
 1256              		.loc 1 205 0
 1257 0888 86EA7736 		eor	r6, r6, r7, ror #13
 1258 088c 09EA0809 		and	r9, r9, r8
 1259 0890 86EAB756 		eor	r6, r6, r7, ror #22
 1260 0894 5444     		add	r4, r4, r10
 1261 0896 00EA0C07 		and	r7, r0, ip
 1262              		.loc 1 206 0
 1263 089a 4FEA754A 		ror	r10, r5, #17
 1264 089e 8AEAF54A 		eor	r10, r10, r5, ror #19
 1265              		.loc 1 205 0
 1266 08a2 49EA0707 		orr	r7, r9, r7
 1267              		.loc 1 206 0
 1268 08a6 8AEA952A 		eor	r10, r10, r5, lsr #10
 1269              		.loc 1 205 0
 1270 08aa 3744     		add	r7, r7, r6
 1271              	.LVL43:
 1272 08ac 2E4E     		ldr	r6, .L21+32
 1273 08ae 099D     		ldr	r5, [sp, #36]
 1274              		.loc 1 206 0
 1275 08b0 04EB0A09 		add	r9, r4, r10
 1276 08b4 4E44     		add	r6, r6, r9
 1277 08b6 3544     		add	r5, r5, r6
 1278 08b8 029E     		ldr	r6, [sp, #8]
 1279 08ba CDF83C90 		str	r9, [sp, #60]
 1280              		.loc 1 205 0
 1281 08be 7744     		add	r7, r7, lr
 1282              	.LVL44:
 1283              		.loc 1 206 0
 1284 08c0 47EA0609 		orr	r9, r7, r6
 1285 08c4 119E     		ldr	r6, [sp, #68]
 1286              		.loc 1 205 0
 1287 08c6 7244     		add	r2, r2, lr
 1288              	.LVL45:
 1289              		.loc 1 206 0
 1290 08c8 8BEA0304 		eor	r4, fp, r3
 1291 08cc 06EB010A 		add	r10, r6, r1
 1292 08d0 1440     		ands	r4, r4, r2
 1293              		.loc 1 207 0
 1294 08d2 0699     		ldr	r1, [sp, #24]
 1295              		.loc 1 206 0
 1296 08d4 4FEAB210 		ror	r0, r2, #6
 1297 08d8 5C40     		eors	r4, r4, r3
 1298 08da 80EAF220 		eor	r0, r0, r2, ror #11
 1299 08de 2544     		add	r5, r5, r4
 1300 08e0 80EA7260 		eor	r0, r0, r2, ror #25
 1301              		.loc 1 207 0
 1302 08e4 4FEAF114 		ror	r4, r1, #7
 1303              		.loc 1 206 0
 1304 08e8 2844     		add	r0, r0, r5
 1305              	.LVL46:
 1306 08ea 4FEAB706 		ror	r6, r7, #2
 1307 08ee 029D     		ldr	r5, [sp, #8]
ARM GAS  C:\Users\jo\AppData\Local\Temp\ccDsJqTW.s 			page 24


 1308              		.loc 1 207 0
 1309 08f0 84EAB144 		eor	r4, r4, r1, ror #18
 1310              		.loc 1 206 0
 1311 08f4 86EA7736 		eor	r6, r6, r7, ror #13
 1312              		.loc 1 207 0
 1313 08f8 84EAD104 		eor	r4, r4, r1, lsr #3
 1314 08fc 0E99     		ldr	r1, [sp, #56]
 1315              		.loc 1 206 0
 1316 08fe 86EAB75E 		eor	lr, r6, r7, ror #22
 1317 0902 09EA0C09 		and	r9, r9, ip
 1318 0906 07EA0506 		and	r6, r7, r5
 1319 090a 49EA0606 		orr	r6, r9, r6
 1320              		.loc 1 207 0
 1321 090e 4FEA7149 		ror	r9, r1, #17
 1322 0912 89EAF149 		eor	r9, r9, r1, ror #19
 1323 0916 5444     		add	r4, r4, r10
 1324 0918 89EA9129 		eor	r9, r9, r1, lsr #10
 1325 091c 134D     		ldr	r5, .L21+36
 1326 091e 0299     		ldr	r1, [sp, #8]
 1327 0920 A144     		add	r9, r9, r4
 1328              		.loc 1 206 0
 1329 0922 7644     		add	r6, r6, lr
 1330              	.LVL47:
 1331 0924 0644     		add	r6, r6, r0
 1332              	.LVL48:
 1333 0926 4D44     		add	r5, r5, r9
 1334 0928 2B44     		add	r3, r3, r5
 1335              	.LVL49:
 1336              		.loc 1 207 0
 1337 092a 46EA0705 		orr	r5, r6, r7
 1338 092e 0D40     		ands	r5, r5, r1
 1339 0930 1299     		ldr	r1, [sp, #72]
 1340 0932 8E46     		mov	lr, r1
 1341 0934 0699     		ldr	r1, [sp, #24]
 1342              		.loc 1 206 0
 1343 0936 8044     		add	r8, r8, r0
 1344              	.LVL50:
 1345              		.loc 1 207 0
 1346 0938 82EA0B04 		eor	r4, r2, fp
 1347 093c 0EEB010A 		add	r10, lr, r1
 1348 0940 08EA0404 		and	r4, r8, r4
 1349 0944 14E0     		b	.L22
 1350              	.L23:
 1351 0946 00BF     		.align	2
 1352              	.L21:
 1353 0948 BE853124 		.word	607225278
 1354 094c C37D0C55 		.word	1426881987
 1355 0950 745DBE72 		.word	1925078388
 1356 0954 FEB1DE80 		.word	-2132889090
 1357 0958 A706DC9B 		.word	-1680079193
 1358 095c 74F19BC1 		.word	-1046744716
 1359 0960 C1699BE4 		.word	-459576895
 1360 0964 8647BEEF 		.word	-272742522
 1361 0968 C69DC10F 		.word	264347078
 1362 096c CCA10C24 		.word	604807628
 1363              	.L22:
 1364              		.loc 1 208 0
ARM GAS  C:\Users\jo\AppData\Local\Temp\ccDsJqTW.s 			page 25


 1365 0970 0799     		ldr	r1, [sp, #28]
 1366              		.loc 1 207 0
 1367 0972 84EA0B04 		eor	r4, r4, fp
 1368 0976 4FEAB810 		ror	r0, r8, #6
 1369              	.LVL51:
 1370 097a 2344     		add	r3, r3, r4
 1371 097c 80EAF820 		eor	r0, r0, r8, ror #11
 1372              		.loc 1 208 0
 1373 0980 4FEAF114 		ror	r4, r1, #7
 1374              		.loc 1 207 0
 1375 0984 4FEAB60E 		ror	lr, r6, #2
 1376              		.loc 1 208 0
 1377 0988 84EAB144 		eor	r4, r4, r1, ror #18
 1378              		.loc 1 207 0
 1379 098c 80EA7860 		eor	r0, r0, r8, ror #25
 1380 0990 1844     		add	r0, r0, r3
 1381              	.LVL52:
 1382 0992 8EEA763E 		eor	lr, lr, r6, ror #13
 1383 0996 06EA0703 		and	r3, r6, r7
 1384              		.loc 1 208 0
 1385 099a 84EAD104 		eor	r4, r4, r1, lsr #3
 1386 099e 0F99     		ldr	r1, [sp, #60]
 1387              		.loc 1 207 0
 1388 09a0 8EEAB65E 		eor	lr, lr, r6, ror #22
 1389 09a4 1D43     		orrs	r5, r5, r3
 1390 09a6 7544     		add	r5, r5, lr
 1391              	.LVL53:
 1392              		.loc 1 208 0
 1393 09a8 4FEA714E 		ror	lr, r1, #17
 1394 09ac 8EEAF14E 		eor	lr, lr, r1, ror #19
 1395 09b0 5444     		add	r4, r4, r10
 1396 09b2 8EEA912E 		eor	lr, lr, r1, lsr #10
 1397 09b6 E14B     		ldr	r3, .L24
 1398 09b8 A644     		add	lr, r4, lr
 1399              		.loc 1 207 0
 1400 09ba 2918     		adds	r1, r5, r0
 1401 09bc 7344     		add	r3, r3, lr
 1402 09be CDF818E0 		str	lr, [sp, #24]
 1403 09c2 9B44     		add	fp, fp, r3
 1404              	.LVL54:
 1405              		.loc 1 208 0
 1406 09c4 0191     		str	r1, [sp, #4]
 1407 09c6 0B46     		mov	r3, r1
 1408 09c8 049D     		ldr	r5, [sp, #16]
 1409              	.LVL55:
 1410 09ca 0799     		ldr	r1, [sp, #28]
 1411              		.loc 1 207 0
 1412 09cc 8444     		add	ip, ip, r0
 1413              	.LVL56:
 1414              		.loc 1 208 0
 1415 09ce 88EA0200 		eor	r0, r8, r2
 1416              	.LVL57:
 1417 09d2 05EB010A 		add	r10, r5, r1
 1418 09d6 0CEA0000 		and	r0, ip, r0
 1419 09da 019D     		ldr	r5, [sp, #4]
 1420 09dc 0199     		ldr	r1, [sp, #4]
 1421 09de 5040     		eors	r0, r0, r2
ARM GAS  C:\Users\jo\AppData\Local\Temp\ccDsJqTW.s 			page 26


 1422 09e0 5844     		add	r0, r0, fp
 1423 09e2 4FEAB50B 		ror	fp, r5, #2
 1424 09e6 8BEA753B 		eor	fp, fp, r5, ror #13
 1425              		.loc 1 209 0
 1426 09ea 139D     		ldr	r5, [sp, #76]
 1427 09ec 4FEAF51E 		ror	lr, r5, #7
 1428              		.loc 1 208 0
 1429 09f0 4FEABC14 		ror	r4, ip, #6
 1430              		.loc 1 209 0
 1431 09f4 8EEAB54E 		eor	lr, lr, r5, ror #18
 1432 09f8 8EEAD50E 		eor	lr, lr, r5, lsr #3
 1433              		.loc 1 208 0
 1434 09fc 84EAFC24 		eor	r4, r4, ip, ror #11
 1435 0a00 019D     		ldr	r5, [sp, #4]
 1436 0a02 84EA7C64 		eor	r4, r4, ip, ror #25
 1437 0a06 0444     		add	r4, r4, r0
 1438              	.LVL58:
 1439 0a08 3343     		orrs	r3, r3, r6
 1440 0a0a 2846     		mov	r0, r5
 1441 0a0c 3040     		ands	r0, r0, r6
 1442 0a0e 3B40     		ands	r3, r3, r7
 1443 0a10 8BEAB15B 		eor	fp, fp, r1, ror #22
 1444 0a14 0343     		orrs	r3, r3, r0
 1445 0a16 5B44     		add	r3, r3, fp
 1446              	.LVL59:
 1447              		.loc 1 209 0
 1448 0a18 4FEA794B 		ror	fp, r9, #17
 1449 0a1c 8BEAF94B 		eor	fp, fp, r9, ror #19
 1450 0a20 8BEA992B 		eor	fp, fp, r9, lsr #10
 1451              		.loc 1 208 0
 1452 0a24 0299     		ldr	r1, [sp, #8]
 1453 0a26 C648     		ldr	r0, .L24+4
 1454 0a28 F244     		add	r10, r10, lr
 1455              		.loc 1 209 0
 1456 0a2a DA44     		add	r10, r10, fp
 1457              		.loc 1 208 0
 1458 0a2c 2344     		add	r3, r3, r4
 1459              	.LVL60:
 1460 0a2e 2144     		add	r1, r1, r4
 1461 0a30 5044     		add	r0, r0, r10
 1462 0a32 8E46     		mov	lr, r1
 1463              	.LVL61:
 1464              		.loc 1 209 0
 1465 0a34 8CEA0804 		eor	r4, ip, r8
 1466              	.LVL62:
 1467 0a38 8118     		adds	r1, r0, r2
 1468              	.LVL63:
 1469 0a3a 43EA050B 		orr	fp, r3, r5
 1470 0a3e 139A     		ldr	r2, [sp, #76]
 1471              	.LVL64:
 1472 0a40 059D     		ldr	r5, [sp, #20]
 1473              	.LVL65:
 1474 0a42 CDF840A0 		str	r10, [sp, #64]
 1475 0a46 0EEA0404 		and	r4, lr, r4
 1476 0a4a 4FEABE1A 		ror	r10, lr, #6
 1477 0a4e 84EA0804 		eor	r4, r4, r8
 1478 0a52 8AEAFE20 		eor	r0, r10, lr, ror #11
ARM GAS  C:\Users\jo\AppData\Local\Temp\ccDsJqTW.s 			page 27


 1479 0a56 AA18     		adds	r2, r5, r2
 1480              		.loc 1 210 0
 1481 0a58 089D     		ldr	r5, [sp, #32]
 1482 0a5a 2144     		add	r1, r1, r4
 1483              		.loc 1 209 0
 1484 0a5c 80EA7E60 		eor	r0, r0, lr, ror #25
 1485 0a60 0844     		add	r0, r0, r1
 1486              	.LVL66:
 1487              		.loc 1 210 0
 1488 0a62 4FEAF514 		ror	r4, r5, #7
 1489              		.loc 1 209 0
 1490 0a66 0199     		ldr	r1, [sp, #4]
 1491 0a68 4FEAB30A 		ror	r10, r3, #2
 1492              		.loc 1 210 0
 1493 0a6c 84EAB544 		eor	r4, r4, r5, ror #18
 1494              		.loc 1 209 0
 1495 0a70 0BEA060B 		and	fp, fp, r6
 1496 0a74 8AEA733A 		eor	r10, r10, r3, ror #13
 1497              		.loc 1 210 0
 1498 0a78 84EAD504 		eor	r4, r4, r5, lsr #3
 1499              		.loc 1 209 0
 1500 0a7c 1940     		ands	r1, r1, r3
 1501              		.loc 1 210 0
 1502 0a7e 069D     		ldr	r5, [sp, #24]
 1503              		.loc 1 209 0
 1504 0a80 4BEA0101 		orr	r1, fp, r1
 1505 0a84 8AEAB35A 		eor	r10, r10, r3, ror #22
 1506 0a88 8A44     		add	r10, r10, r1
 1507              	.LVL67:
 1508              		.loc 1 210 0
 1509 0a8a 4FEA7541 		ror	r1, r5, #17
 1510 0a8e 81EAF541 		eor	r1, r1, r5, ror #19
 1511 0a92 81EA952B 		eor	fp, r1, r5, lsr #10
 1512 0a96 1444     		add	r4, r4, r2
 1513              		.loc 1 209 0
 1514 0a98 0744     		add	r7, r7, r0
 1515              	.LVL68:
 1516 0a9a AA4A     		ldr	r2, .L24+8
 1517              		.loc 1 211 0
 1518 0a9c 149D     		ldr	r5, [sp, #80]
 1519              		.loc 1 209 0
 1520 0a9e 5044     		add	r0, r0, r10
 1521              	.LVL69:
 1522              		.loc 1 210 0
 1523 0aa0 04EB0B0A 		add	r10, r4, fp
 1524              	.LVL70:
 1525 0aa4 5446     		mov	r4, r10
 1526 0aa6 8EEA0C0A 		eor	r10, lr, ip
 1527 0aaa 2244     		add	r2, r2, r4
 1528 0aac 07EA0A0A 		and	r10, r7, r10
 1529 0ab0 0794     		str	r4, [sp, #28]
 1530 0ab2 8AEA0C0A 		eor	r10, r10, ip
 1531 0ab6 019C     		ldr	r4, [sp, #4]
 1532 0ab8 4244     		add	r2, r2, r8
 1533 0aba 5244     		add	r2, r2, r10
 1534              		.loc 1 211 0
 1535 0abc 4FEAF511 		ror	r1, r5, #7
ARM GAS  C:\Users\jo\AppData\Local\Temp\ccDsJqTW.s 			page 28


 1536              		.loc 1 210 0
 1537 0ac0 40EA030A 		orr	r10, r0, r3
 1538 0ac4 0AEA040A 		and	r10, r10, r4
 1539              		.loc 1 211 0
 1540 0ac8 81EAB541 		eor	r1, r1, r5, ror #18
 1541 0acc 089C     		ldr	r4, [sp, #32]
 1542 0ace 81EAD501 		eor	r1, r1, r5, lsr #3
 1543              		.loc 1 210 0
 1544 0ad2 4FEAB718 		ror	r8, r7, #6
 1545              	.LVL71:
 1546 0ad6 2144     		add	r1, r1, r4
 1547 0ad8 4FEAB004 		ror	r4, r0, #2
 1548              		.loc 1 211 0
 1549 0adc 109D     		ldr	r5, [sp, #64]
 1550              		.loc 1 210 0
 1551 0ade 88EAF72B 		eor	fp, r8, r7, ror #11
 1552 0ae2 84EA7034 		eor	r4, r4, r0, ror #13
 1553 0ae6 8BEA7768 		eor	r8, fp, r7, ror #25
 1554 0aea 84EAB05B 		eor	fp, r4, r0, ror #22
 1555 0aee 00EA0304 		and	r4, r0, r3
 1556 0af2 4AEA0404 		orr	r4, r10, r4
 1557              		.loc 1 211 0
 1558 0af6 4FEA754A 		ror	r10, r5, #17
 1559              		.loc 1 210 0
 1560 0afa 9044     		add	r8, r8, r2
 1561              	.LVL72:
 1562              		.loc 1 211 0
 1563 0afc 8AEAF542 		eor	r2, r10, r5, ror #19
 1564 0b00 82EA952A 		eor	r10, r2, r5, lsr #10
 1565 0b04 0D9A     		ldr	r2, [sp, #52]
 1566              		.loc 1 212 0
 1567 0b06 039D     		ldr	r5, [sp, #12]
 1568              		.loc 1 210 0
 1569 0b08 5C44     		add	r4, r4, fp
 1570              	.LVL73:
 1571 0b0a 4644     		add	r6, r6, r8
 1572              	.LVL74:
 1573 0b0c 1144     		add	r1, r1, r2
 1574 0b0e A044     		add	r8, r4, r8
 1575              	.LVL75:
 1576 0b10 CDF83080 		str	r8, [sp, #48]
 1577              	.LVL76:
 1578 0b14 8C4A     		ldr	r2, .L24+12
 1579              		.loc 1 211 0
 1580 0b16 01EB0A08 		add	r8, r1, r10
 1581 0b1a 4446     		mov	r4, r8
 1582              	.LVL77:
 1583 0b1c 87EA0E01 		eor	r1, r7, lr
 1584 0b20 2244     		add	r2, r2, r4
 1585 0b22 0894     		str	r4, [sp, #32]
 1586 0b24 3140     		ands	r1, r1, r6
 1587 0b26 0C9C     		ldr	r4, [sp, #48]
 1588 0b28 6244     		add	r2, r2, ip
 1589 0b2a 4FEAB61C 		ror	ip, r6, #6
 1590              	.LVL78:
 1591 0b2e 81EA0E01 		eor	r1, r1, lr
 1592 0b32 8CEAF62A 		eor	r10, ip, r6, ror #11
ARM GAS  C:\Users\jo\AppData\Local\Temp\ccDsJqTW.s 			page 29


 1593              		.loc 1 212 0
 1594 0b36 4FEAF518 		ror	r8, r5, #7
 1595 0b3a 0A44     		add	r2, r2, r1
 1596              		.loc 1 211 0
 1597 0b3c 8AEA766C 		eor	ip, r10, r6, ror #25
 1598 0b40 1499     		ldr	r1, [sp, #80]
 1599              		.loc 1 212 0
 1600 0b42 88EAB548 		eor	r8, r8, r5, ror #18
 1601              		.loc 1 211 0
 1602 0b46 4FEAB40A 		ror	r10, r4, #2
 1603 0b4a 44EA000B 		orr	fp, r4, r0
 1604 0b4e 8AEA743A 		eor	r10, r10, r4, ror #13
 1605              		.loc 1 212 0
 1606 0b52 88EAD508 		eor	r8, r8, r5, lsr #3
 1607 0b56 079D     		ldr	r5, [sp, #28]
 1608              		.loc 1 211 0
 1609 0b58 0BEA030B 		and	fp, fp, r3
 1610 0b5c 8844     		add	r8, r8, r1
 1611 0b5e 8AEAB451 		eor	r1, r10, r4, ror #22
 1612 0b62 04EA000A 		and	r10, r4, r0
 1613 0b66 4BEA0A0A 		orr	r10, fp, r10
 1614              		.loc 1 212 0
 1615 0b6a 4FEA754B 		ror	fp, r5, #17
 1616              		.loc 1 211 0
 1617 0b6e 9444     		add	ip, ip, r2
 1618              	.LVL79:
 1619 0b70 8A44     		add	r10, r10, r1
 1620              	.LVL80:
 1621              		.loc 1 212 0
 1622 0b72 8BEAF542 		eor	r2, fp, r5, ror #19
 1623 0b76 0E99     		ldr	r1, [sp, #56]
 1624              		.loc 1 213 0
 1625 0b78 0A9C     		ldr	r4, [sp, #40]
 1626              		.loc 1 212 0
 1627 0b7a 82EA952B 		eor	fp, r2, r5, lsr #10
 1628              		.loc 1 211 0
 1629 0b7e 019D     		ldr	r5, [sp, #4]
 1630              		.loc 1 213 0
 1631 0b80 0A9A     		ldr	r2, [sp, #40]
 1632 0b82 8844     		add	r8, r8, r1
 1633 0b84 7149     		ldr	r1, .L24+16
 1634              		.loc 1 211 0
 1635 0b86 6544     		add	r5, r5, ip
 1636              	.LVL81:
 1637              		.loc 1 212 0
 1638 0b88 D844     		add	r8, r8, fp
 1639              		.loc 1 211 0
 1640 0b8a D444     		add	ip, ip, r10
 1641              	.LVL82:
 1642              		.loc 1 212 0
 1643 0b8c 86EA070A 		eor	r10, r6, r7
 1644              	.LVL83:
 1645 0b90 4144     		add	r1, r1, r8
 1646 0b92 05EA0A0A 		and	r10, r5, r10
 1647              		.loc 1 213 0
 1648 0b96 4FEAF212 		ror	r2, r2, #7
 1649              		.loc 1 212 0
ARM GAS  C:\Users\jo\AppData\Local\Temp\ccDsJqTW.s 			page 30


 1650 0b9a 8AEA070A 		eor	r10, r10, r7
 1651              		.loc 1 213 0
 1652 0b9e 82EAB442 		eor	r2, r2, r4, ror #18
 1653 0ba2 7144     		add	r1, r1, lr
 1654 0ba4 01EB0A0E 		add	lr, r1, r10
 1655              	.LVL84:
 1656 0ba8 CDF80480 		str	r8, [sp, #4]
 1657              		.loc 1 212 0
 1658 0bac 0C99     		ldr	r1, [sp, #48]
 1659 0bae 4FEAB518 		ror	r8, r5, #6
 1660              		.loc 1 213 0
 1661 0bb2 82EAD402 		eor	r2, r2, r4, lsr #3
 1662 0bb6 039C     		ldr	r4, [sp, #12]
 1663              		.loc 1 212 0
 1664 0bb8 88EAF528 		eor	r8, r8, r5, ror #11
 1665 0bbc 4CEA010B 		orr	fp, ip, r1
 1666 0bc0 2244     		add	r2, r2, r4
 1667 0bc2 88EA7561 		eor	r1, r8, r5, ror #25
 1668 0bc6 0C9C     		ldr	r4, [sp, #48]
 1669 0bc8 4FEABC08 		ror	r8, ip, #2
 1670 0bcc 88EA7C38 		eor	r8, r8, ip, ror #13
 1671 0bd0 88EABC5A 		eor	r10, r8, ip, ror #22
 1672 0bd4 0CEA0408 		and	r8, ip, r4
 1673              		.loc 1 213 0
 1674 0bd8 089C     		ldr	r4, [sp, #32]
 1675              		.loc 1 212 0
 1676 0bda 0BEA000B 		and	fp, fp, r0
 1677 0bde 4BEA0808 		orr	r8, fp, r8
 1678              		.loc 1 213 0
 1679 0be2 4FEA744B 		ror	fp, r4, #17
 1680              		.loc 1 212 0
 1681 0be6 7144     		add	r1, r1, lr
 1682              	.LVL85:
 1683              		.loc 1 213 0
 1684 0be8 8BEAF44E 		eor	lr, fp, r4, ror #19
 1685 0bec 8EEA942B 		eor	fp, lr, r4, lsr #10
 1686 0bf0 0F9C     		ldr	r4, [sp, #60]
 1687 0bf2 2244     		add	r2, r2, r4
 1688              		.loc 1 212 0
 1689 0bf4 D044     		add	r8, r8, r10
 1690              		.loc 1 213 0
 1691 0bf6 02EB0B0E 		add	lr, r2, fp
 1692 0bfa DFF854A1 		ldr	r10, .L24+20
 1693              		.loc 1 214 0
 1694 0bfe 0B9C     		ldr	r4, [sp, #44]
 1695              		.loc 1 213 0
 1696 0c00 7246     		mov	r2, lr
 1697              		.loc 1 212 0
 1698 0c02 0B44     		add	r3, r3, r1
 1699              	.LVL86:
 1700 0c04 0992     		str	r2, [sp, #36]
 1701 0c06 4144     		add	r1, r1, r8
 1702              	.LVL87:
 1703 0c08 9244     		add	r10, r10, r2
 1704              		.loc 1 213 0
 1705 0c0a 0C9A     		ldr	r2, [sp, #48]
 1706 0c0c 41EA0C0B 		orr	fp, r1, ip
ARM GAS  C:\Users\jo\AppData\Local\Temp\ccDsJqTW.s 			page 31


 1707              		.loc 1 214 0
 1708 0c10 4FEAF41E 		ror	lr, r4, #7
 1709              		.loc 1 213 0
 1710 0c14 0BEA020B 		and	fp, fp, r2
 1711              		.loc 1 214 0
 1712 0c18 8EEAB44E 		eor	lr, lr, r4, ror #18
 1713 0c1c 0A9A     		ldr	r2, [sp, #40]
 1714              		.loc 1 213 0
 1715 0c1e 85EA0608 		eor	r8, r5, r6
 1716              		.loc 1 214 0
 1717 0c22 8EEAD40E 		eor	lr, lr, r4, lsr #3
 1718              		.loc 1 213 0
 1719 0c26 03EA0808 		and	r8, r3, r8
 1720 0c2a 9644     		add	lr, lr, r2
 1721 0c2c 4FEAB102 		ror	r2, r1, #2
 1722              		.loc 1 214 0
 1723 0c30 019C     		ldr	r4, [sp, #4]
 1724              		.loc 1 213 0
 1725 0c32 88EA0608 		eor	r8, r8, r6
 1726 0c36 82EA7132 		eor	r2, r2, r1, ror #13
 1727 0c3a 5744     		add	r7, r7, r10
 1728              	.LVL88:
 1729 0c3c 4FEAB31A 		ror	r10, r3, #6
 1730 0c40 8AEAF32A 		eor	r10, r10, r3, ror #11
 1731 0c44 4744     		add	r7, r7, r8
 1732 0c46 82EAB158 		eor	r8, r2, r1, ror #22
 1733 0c4a 01EA0C02 		and	r2, r1, ip
 1734 0c4e 8AEA736A 		eor	r10, r10, r3, ror #25
 1735 0c52 4BEA0202 		orr	r2, fp, r2
 1736              		.loc 1 214 0
 1737 0c56 4FEA744B 		ror	fp, r4, #17
 1738              		.loc 1 213 0
 1739 0c5a 5744     		add	r7, r7, r10
 1740              	.LVL89:
 1741              		.loc 1 214 0
 1742 0c5c 8BEAF44A 		eor	r10, fp, r4, ror #19
 1743 0c60 8AEA942B 		eor	fp, r10, r4, lsr #10
 1744              		.loc 1 213 0
 1745 0c64 C419     		adds	r4, r0, r7
 1746 0c66 0294     		str	r4, [sp, #8]
 1747              	.LVL90:
 1748              		.loc 1 214 0
 1749 0c68 0298     		ldr	r0, [sp, #8]
 1750              		.loc 1 215 0
 1751 0c6a 119C     		ldr	r4, [sp, #68]
 1752              		.loc 1 214 0
 1753 0c6c 83EA050A 		eor	r10, r3, r5
 1754              		.loc 1 213 0
 1755 0c70 4244     		add	r2, r2, r8
 1756              	.LVL91:
 1757 0c72 CE44     		add	lr, lr, r9
 1758 0c74 DFF8DC80 		ldr	r8, .L24+24
 1759              		.loc 1 214 0
 1760 0c78 DE44     		add	lr, lr, fp
 1761 0c7a 00EA0A0A 		and	r10, r0, r10
 1762 0c7e 0298     		ldr	r0, [sp, #8]
 1763 0c80 CDF80CE0 		str	lr, [sp, #12]
ARM GAS  C:\Users\jo\AppData\Local\Temp\ccDsJqTW.s 			page 32


 1764 0c84 F044     		add	r8, r8, lr
 1765              		.loc 1 213 0
 1766 0c86 3A44     		add	r2, r2, r7
 1767              	.LVL92:
 1768 0c88 4644     		add	r6, r6, r8
 1769              	.LVL93:
 1770              		.loc 1 215 0
 1771 0c8a 4FEAF417 		ror	r7, r4, #7
 1772              	.LVL94:
 1773              		.loc 1 214 0
 1774 0c8e 4FEAB018 		ror	r8, r0, #6
 1775              		.loc 1 215 0
 1776 0c92 87EAB447 		eor	r7, r7, r4, ror #18
 1777              		.loc 1 214 0
 1778 0c96 88EAF028 		eor	r8, r8, r0, ror #11
 1779 0c9a 0B98     		ldr	r0, [sp, #44]
 1780              		.loc 1 215 0
 1781 0c9c 87EAD407 		eor	r7, r7, r4, lsr #3
 1782              		.loc 1 214 0
 1783 0ca0 029C     		ldr	r4, [sp, #8]
 1784 0ca2 0744     		add	r7, r7, r0
 1785 0ca4 4FEAB20E 		ror	lr, r2, #2
 1786 0ca8 0698     		ldr	r0, [sp, #24]
 1787 0caa 8AEA050A 		eor	r10, r10, r5
 1788 0cae 42EA010B 		orr	fp, r2, r1
 1789 0cb2 88EA7468 		eor	r8, r8, r4, ror #25
 1790 0cb6 8EEA723E 		eor	lr, lr, r2, ror #13
 1791              		.loc 1 215 0
 1792 0cba 099C     		ldr	r4, [sp, #36]
 1793              		.loc 1 214 0
 1794 0cbc 0BEA0C0B 		and	fp, fp, ip
 1795 0cc0 0744     		add	r7, r7, r0
 1796 0cc2 5644     		add	r6, r6, r10
 1797 0cc4 0C98     		ldr	r0, [sp, #48]
 1798 0cc6 8EEAB25A 		eor	r10, lr, r2, ror #22
 1799 0cca 02EA010E 		and	lr, r2, r1
 1800 0cce 4644     		add	r6, r6, r8
 1801              	.LVL95:
 1802 0cd0 4BEA0E0E 		orr	lr, fp, lr
 1803              		.loc 1 215 0
 1804 0cd4 4FEA744B 		ror	fp, r4, #17
 1805 0cd8 8BEAF448 		eor	r8, fp, r4, ror #19
 1806              		.loc 1 214 0
 1807 0cdc 3044     		add	r0, r0, r6
 1808 0cde D644     		add	lr, lr, r10
 1809              	.LVL96:
 1810 0ce0 B644     		add	lr, lr, r6
 1811              	.LVL97:
 1812              		.loc 1 215 0
 1813 0ce2 88EA942B 		eor	fp, r8, r4, lsr #10
 1814 0ce6 029E     		ldr	r6, [sp, #8]
 1815              	.LVL98:
 1816 0ce8 DFF86CA0 		ldr	r10, .L24+28
 1817              		.loc 1 214 0
 1818 0cec 0446     		mov	r4, r0
 1819              	.LVL99:
 1820              		.loc 1 216 0
ARM GAS  C:\Users\jo\AppData\Local\Temp\ccDsJqTW.s 			page 33


 1821 0cee 1298     		ldr	r0, [sp, #72]
 1822              	.LVL100:
 1823              		.loc 1 215 0
 1824 0cf0 07EB0B08 		add	r8, r7, fp
 1825 0cf4 4746     		mov	r7, r8
 1826 0cf6 86EA0308 		eor	r8, r6, r3
 1827              		.loc 1 216 0
 1828 0cfa 4FEAF016 		ror	r6, r0, #7
 1829 0cfe 0A97     		str	r7, [sp, #40]
 1830 0d00 BA44     		add	r10, r10, r7
 1831 0d02 86EAB046 		eor	r6, r6, r0, ror #18
 1832 0d06 119F     		ldr	r7, [sp, #68]
 1833 0d08 86EAD006 		eor	r6, r6, r0, lsr #3
 1834              		.loc 1 215 0
 1835 0d0c 04EA0808 		and	r8, r4, r8
 1836 0d10 3E44     		add	r6, r6, r7
 1837 0d12 4FEABE07 		ror	r7, lr, #2
 1838              		.loc 1 216 0
 1839 0d16 0398     		ldr	r0, [sp, #12]
 1840              		.loc 1 215 0
 1841 0d18 88EA0308 		eor	r8, r8, r3
 1842 0d1c 4EEA020B 		orr	fp, lr, r2
 1843 0d20 87EA7E37 		eor	r7, r7, lr, ror #13
 1844 0d24 5544     		add	r5, r5, r10
 1845              	.LVL101:
 1846 0d26 4FEAB41A 		ror	r10, r4, #6
 1847 0d2a 0BEA010B 		and	fp, fp, r1
 1848 0d2e 8AEAF42A 		eor	r10, r10, r4, ror #11
 1849 0d32 4544     		add	r5, r5, r8
 1850 0d34 87EABE58 		eor	r8, r7, lr, ror #22
 1851 0d38 10E0     		b	.L25
 1852              	.L26:
 1853 0d3a 00BF     		.align	2
 1854              	.L24:
 1855 0d3c 6F2CE92D 		.word	770255983
 1856 0d40 AA84744A 		.word	1249150122
 1857 0d44 DCA9B05C 		.word	1555081692
 1858 0d48 DA88F976 		.word	1996064986
 1859 0d4c 52513E98 		.word	-1740746414
 1860 0d50 6DC631A8 		.word	-1473132947
 1861 0d54 C82703B0 		.word	-1341970488
 1862 0d58 C77F59BF 		.word	-1084653625
 1863              	.L25:
 1864 0d5c 0EEA0207 		and	r7, lr, r2
 1865 0d60 8AEA746A 		eor	r10, r10, r4, ror #25
 1866 0d64 4BEA0707 		orr	r7, fp, r7
 1867              		.loc 1 216 0
 1868 0d68 4FEA704B 		ror	fp, r0, #17
 1869              		.loc 1 215 0
 1870 0d6c 5544     		add	r5, r5, r10
 1871              	.LVL102:
 1872              		.loc 1 216 0
 1873 0d6e 8BEAF04A 		eor	r10, fp, r0, ror #19
 1874 0d72 8AEA902B 		eor	fp, r10, r0, lsr #10
 1875 0d76 1098     		ldr	r0, [sp, #64]
 1876              		.loc 1 215 0
 1877 0d78 4744     		add	r7, r7, r8
ARM GAS  C:\Users\jo\AppData\Local\Temp\ccDsJqTW.s 			page 34


 1878              	.LVL103:
 1879 0d7a 0644     		add	r6, r6, r0
 1880 0d7c AC44     		add	ip, ip, r5
 1881              	.LVL104:
 1882              		.loc 1 216 0
 1883 0d7e 06EB0B0A 		add	r10, r6, fp
 1884              		.loc 1 215 0
 1885 0d82 3D44     		add	r5, r5, r7
 1886              	.LVL105:
 1887              		.loc 1 217 0
 1888 0d84 049E     		ldr	r6, [sp, #16]
 1889              		.loc 1 216 0
 1890 0d86 029F     		ldr	r7, [sp, #8]
 1891              	.LVL106:
 1892 0d88 DFF88084 		ldr	r8, .L27+32
 1893 0d8c 1395     		str	r5, [sp, #76]
 1894 0d8e 5046     		mov	r0, r10
 1895 0d90 84EA070A 		eor	r10, r4, r7
 1896              		.loc 1 217 0
 1897 0d94 4FEAF617 		ror	r7, r6, #7
 1898 0d98 0B90     		str	r0, [sp, #44]
 1899 0d9a 8044     		add	r8, r8, r0
 1900 0d9c 87EAB647 		eor	r7, r7, r6, ror #18
 1901 0da0 3046     		mov	r0, r6
 1902              		.loc 1 216 0
 1903 0da2 029E     		ldr	r6, [sp, #8]
 1904 0da4 0CEA0A0A 		and	r10, ip, r10
 1905 0da8 8AEA060A 		eor	r10, r10, r6
 1906 0dac 129E     		ldr	r6, [sp, #72]
 1907              		.loc 1 217 0
 1908 0dae 87EAD007 		eor	r7, r7, r0, lsr #3
 1909 0db2 3744     		add	r7, r7, r6
 1910              		.loc 1 216 0
 1911 0db4 4FEAB506 		ror	r6, r5, #2
 1912 0db8 86EA7536 		eor	r6, r6, r5, ror #13
 1913 0dbc 4344     		add	r3, r3, r8
 1914              	.LVL107:
 1915 0dbe 45EA0E0B 		orr	fp, r5, lr
 1916 0dc2 4FEABC18 		ror	r8, ip, #6
 1917 0dc6 5344     		add	r3, r3, r10
 1918 0dc8 86EAB55A 		eor	r10, r6, r5, ror #22
 1919 0dcc 05EA0E06 		and	r6, r5, lr
 1920              		.loc 1 217 0
 1921 0dd0 0A9D     		ldr	r5, [sp, #40]
 1922              	.LVL108:
 1923 0dd2 0798     		ldr	r0, [sp, #28]
 1924              		.loc 1 216 0
 1925 0dd4 0BEA020B 		and	fp, fp, r2
 1926 0dd8 88EAFC28 		eor	r8, r8, ip, ror #11
 1927 0ddc 88EA7C68 		eor	r8, r8, ip, ror #25
 1928 0de0 4BEA0606 		orr	r6, fp, r6
 1929              		.loc 1 217 0
 1930 0de4 4FEA754B 		ror	fp, r5, #17
 1931              		.loc 1 216 0
 1932 0de8 4344     		add	r3, r3, r8
 1933              	.LVL109:
 1934              		.loc 1 217 0
ARM GAS  C:\Users\jo\AppData\Local\Temp\ccDsJqTW.s 			page 35


 1935 0dea 8BEAF548 		eor	r8, fp, r5, ror #19
 1936 0dee 88EA952B 		eor	fp, r8, r5, lsr #10
 1937 0df2 0744     		add	r7, r7, r0
 1938 0df4 07EB0B08 		add	r8, r7, fp
 1939              		.loc 1 216 0
 1940 0df8 5644     		add	r6, r6, r10
 1941 0dfa DFF814A4 		ldr	r10, .L27+36
 1942              		.loc 1 218 0
 1943 0dfe 059D     		ldr	r5, [sp, #20]
 1944 0e00 CDF83080 		str	r8, [sp, #48]
 1945              		.loc 1 216 0
 1946 0e04 1944     		add	r1, r1, r3
 1947              	.LVL110:
 1948 0e06 0298     		ldr	r0, [sp, #8]
 1949              		.loc 1 217 0
 1950 0e08 8CEA0407 		eor	r7, ip, r4
 1951 0e0c C244     		add	r10, r10, r8
 1952 0e0e 0F40     		ands	r7, r7, r1
 1953 0e10 6740     		eors	r7, r7, r4
 1954 0e12 5044     		add	r0, r0, r10
 1955 0e14 3844     		add	r0, r0, r7
 1956 0e16 4FEAB11A 		ror	r10, r1, #6
 1957 0e1a 139F     		ldr	r7, [sp, #76]
 1958              		.loc 1 216 0
 1959 0e1c 3344     		add	r3, r3, r6
 1960              	.LVL111:
 1961              		.loc 1 217 0
 1962 0e1e 8AEAF12B 		eor	fp, r10, r1, ror #11
 1963              		.loc 1 218 0
 1964 0e22 4FEAF516 		ror	r6, r5, #7
 1965              		.loc 1 217 0
 1966 0e26 8BEA716A 		eor	r10, fp, r1, ror #25
 1967 0e2a 43EA0708 		orr	r8, r3, r7
 1968              		.loc 1 218 0
 1969 0e2e 86EAB546 		eor	r6, r6, r5, ror #18
 1970 0e32 049F     		ldr	r7, [sp, #16]
 1971              		.loc 1 217 0
 1972 0e34 0493     		str	r3, [sp, #16]
 1973 0e36 4FEAB30B 		ror	fp, r3, #2
 1974 0e3a 8BEA733B 		eor	fp, fp, r3, ror #13
 1975              		.loc 1 218 0
 1976 0e3e 86EAD506 		eor	r6, r6, r5, lsr #3
 1977 0e42 3E44     		add	r6, r6, r7
 1978              		.loc 1 217 0
 1979 0e44 1D46     		mov	r5, r3
 1980 0e46 8BEAB357 		eor	r7, fp, r3, ror #22
 1981 0e4a 139B     		ldr	r3, [sp, #76]
 1982              	.LVL112:
 1983 0e4c 08EA0E08 		and	r8, r8, lr
 1984 0e50 05EA030B 		and	fp, r5, r3
 1985              		.loc 1 218 0
 1986 0e54 0B9B     		ldr	r3, [sp, #44]
 1987              		.loc 1 219 0
 1988 0e56 0D9D     		ldr	r5, [sp, #52]
 1989              	.LVL113:
 1990              		.loc 1 217 0
 1991 0e58 48EA0B0B 		orr	fp, r8, fp
ARM GAS  C:\Users\jo\AppData\Local\Temp\ccDsJqTW.s 			page 36


 1992 0e5c BB44     		add	fp, fp, r7
 1993              		.loc 1 218 0
 1994 0e5e 4FEA7348 		ror	r8, r3, #17
 1995 0e62 089F     		ldr	r7, [sp, #32]
 1996 0e64 88EAF348 		eor	r8, r8, r3, ror #19
 1997              		.loc 1 217 0
 1998 0e68 5044     		add	r0, r0, r10
 1999              	.LVL114:
 2000 0e6a 3E44     		add	r6, r6, r7
 2001              		.loc 1 218 0
 2002 0e6c 88EA9328 		eor	r8, r8, r3, lsr #10
 2003 0e70 DE4F     		ldr	r7, .L27
 2004 0e72 049B     		ldr	r3, [sp, #16]
 2005              		.loc 1 217 0
 2006 0e74 0244     		add	r2, r2, r0
 2007              	.LVL115:
 2008              		.loc 1 218 0
 2009 0e76 B044     		add	r8, r6, r8
 2010 0e78 81EA0C06 		eor	r6, r1, ip
 2011              		.loc 1 217 0
 2012 0e7c 8344     		add	fp, fp, r0
 2013              	.LVL116:
 2014 0e7e 4744     		add	r7, r7, r8
 2015              		.loc 1 219 0
 2016 0e80 4FEAF510 		ror	r0, r5, #7
 2017              	.LVL117:
 2018              		.loc 1 218 0
 2019 0e84 1640     		ands	r6, r6, r2
 2020 0e86 86EA0C06 		eor	r6, r6, ip
 2021              		.loc 1 219 0
 2022 0e8a 80EAB540 		eor	r0, r0, r5, ror #18
 2023 0e8e 3C44     		add	r4, r4, r7
 2024              	.LVL118:
 2025 0e90 CDF84480 		str	r8, [sp, #68]
 2026 0e94 80EAD500 		eor	r0, r0, r5, lsr #3
 2027 0e98 3444     		add	r4, r4, r6
 2028 0e9a 059D     		ldr	r5, [sp, #20]
 2029              		.loc 1 218 0
 2030 0e9c 139E     		ldr	r6, [sp, #76]
 2031 0e9e 4FEABB08 		ror	r8, fp, #2
 2032 0ea2 4BEA030A 		orr	r10, fp, r3
 2033 0ea6 88EA7B38 		eor	r8, r8, fp, ror #13
 2034 0eaa 0AEA060A 		and	r10, r10, r6
 2035 0eae 4FEAB217 		ror	r7, r2, #6
 2036 0eb2 88EABB56 		eor	r6, r8, fp, ror #22
 2037 0eb6 2844     		add	r0, r0, r5
 2038 0eb8 0BEA0308 		and	r8, fp, r3
 2039              		.loc 1 219 0
 2040 0ebc 0C9D     		ldr	r5, [sp, #48]
 2041              		.loc 1 218 0
 2042 0ebe 87EAF227 		eor	r7, r7, r2, ror #11
 2043 0ec2 4AEA0808 		orr	r8, r10, r8
 2044 0ec6 87EA7267 		eor	r7, r7, r2, ror #25
 2045              		.loc 1 219 0
 2046 0eca 4FEA754A 		ror	r10, r5, #17
 2047              		.loc 1 218 0
 2048 0ece B044     		add	r8, r8, r6
ARM GAS  C:\Users\jo\AppData\Local\Temp\ccDsJqTW.s 			page 37


 2049 0ed0 019E     		ldr	r6, [sp, #4]
 2050 0ed2 3C44     		add	r4, r4, r7
 2051              	.LVL119:
 2052              		.loc 1 219 0
 2053 0ed4 8AEAF547 		eor	r7, r10, r5, ror #19
 2054 0ed8 87EA952A 		eor	r10, r7, r5, lsr #10
 2055 0edc 3044     		add	r0, r0, r6
 2056              		.loc 1 218 0
 2057 0ede A644     		add	lr, lr, r4
 2058              	.LVL120:
 2059              		.loc 1 220 0
 2060 0ee0 0E9D     		ldr	r5, [sp, #56]
 2061 0ee2 C34F     		ldr	r7, .L27+4
 2062              		.loc 1 218 0
 2063 0ee4 4444     		add	r4, r4, r8
 2064              	.LVL121:
 2065              		.loc 1 219 0
 2066 0ee6 00EB0A08 		add	r8, r0, r10
 2067              	.LVL122:
 2068 0eea 4346     		mov	r3, r8
 2069 0eec 82EA0108 		eor	r8, r2, r1
 2070 0ef0 1F44     		add	r7, r7, r3
 2071              		.loc 1 220 0
 2072 0ef2 4FEAF516 		ror	r6, r5, #7
 2073              		.loc 1 219 0
 2074 0ef6 0EEA0808 		and	r8, lr, r8
 2075 0efa 0498     		ldr	r0, [sp, #16]
 2076 0efc 1293     		str	r3, [sp, #72]
 2077 0efe 88EA0108 		eor	r8, r8, r1
 2078              		.loc 1 220 0
 2079 0f02 86EAB546 		eor	r6, r6, r5, ror #18
 2080 0f06 BC44     		add	ip, ip, r7
 2081              	.LVL123:
 2082 0f08 86EAD506 		eor	r6, r6, r5, lsr #3
 2083 0f0c C444     		add	ip, ip, r8
 2084 0f0e 0D9D     		ldr	r5, [sp, #52]
 2085              		.loc 1 219 0
 2086 0f10 44EA0B08 		orr	r8, r4, fp
 2087 0f14 08EA0008 		and	r8, r8, r0
 2088 0f18 4FEAB400 		ror	r0, r4, #2
 2089 0f1c 80EA7430 		eor	r0, r0, r4, ror #13
 2090 0f20 4FEABE17 		ror	r7, lr, #6
 2091 0f24 2E44     		add	r6, r6, r5
 2092              		.loc 1 220 0
 2093 0f26 119D     		ldr	r5, [sp, #68]
 2094              		.loc 1 219 0
 2095 0f28 80EAB45A 		eor	r10, r0, r4, ror #22
 2096 0f2c 87EAFE27 		eor	r7, r7, lr, ror #11
 2097 0f30 04EA0B00 		and	r0, r4, fp
 2098 0f34 87EA7E67 		eor	r7, r7, lr, ror #25
 2099 0f38 48EA0000 		orr	r0, r8, r0
 2100              		.loc 1 220 0
 2101 0f3c 4FEA7548 		ror	r8, r5, #17
 2102              		.loc 1 219 0
 2103 0f40 BC44     		add	ip, ip, r7
 2104              	.LVL124:
 2105              		.loc 1 220 0
ARM GAS  C:\Users\jo\AppData\Local\Temp\ccDsJqTW.s 			page 38


 2106 0f42 88EAF547 		eor	r7, r8, r5, ror #19
 2107 0f46 87EA9528 		eor	r8, r7, r5, lsr #10
 2108              		.loc 1 219 0
 2109 0f4a 139D     		ldr	r5, [sp, #76]
 2110 0f4c 099F     		ldr	r7, [sp, #36]
 2111 0f4e 6544     		add	r5, r5, ip
 2112 0f50 0295     		str	r5, [sp, #8]
 2113              	.LVL125:
 2114              		.loc 1 221 0
 2115 0f52 0F9D     		ldr	r5, [sp, #60]
 2116              		.loc 1 220 0
 2117 0f54 029B     		ldr	r3, [sp, #8]
 2118              		.loc 1 219 0
 2119 0f56 5044     		add	r0, r0, r10
 2120              	.LVL126:
 2121 0f58 3E44     		add	r6, r6, r7
 2122 0f5a A64F     		ldr	r7, .L27+8
 2123 0f5c 8444     		add	ip, ip, r0
 2124              	.LVL127:
 2125              		.loc 1 220 0
 2126 0f5e B044     		add	r8, r6, r8
 2127              		.loc 1 221 0
 2128 0f60 4FEAF510 		ror	r0, r5, #7
 2129              	.LVL128:
 2130              		.loc 1 220 0
 2131 0f64 8EEA0206 		eor	r6, lr, r2
 2132 0f68 4744     		add	r7, r7, r8
 2133 0f6a 1E40     		ands	r6, r6, r3
 2134              		.loc 1 221 0
 2135 0f6c 80EAB540 		eor	r0, r0, r5, ror #18
 2136 0f70 2B46     		mov	r3, r5
 2137              		.loc 1 220 0
 2138 0f72 029D     		ldr	r5, [sp, #8]
 2139 0f74 CDF84C80 		str	r8, [sp, #76]
 2140 0f78 5640     		eors	r6, r6, r2
 2141 0f7a 3944     		add	r1, r1, r7
 2142              	.LVL129:
 2143 0f7c 3144     		add	r1, r1, r6
 2144 0f7e 4FEAB517 		ror	r7, r5, #6
 2145 0f82 029E     		ldr	r6, [sp, #8]
 2146 0f84 87EAF527 		eor	r7, r7, r5, ror #11
 2147 0f88 87EA7667 		eor	r7, r7, r6, ror #25
 2148 0f8c 4FEABC0A 		ror	r10, ip, #2
 2149 0f90 0E9E     		ldr	r6, [sp, #56]
 2150              		.loc 1 221 0
 2151 0f92 129D     		ldr	r5, [sp, #72]
 2152              		.loc 1 220 0
 2153 0f94 4CEA0408 		orr	r8, ip, r4
 2154 0f98 8AEA7C3A 		eor	r10, r10, ip, ror #13
 2155              		.loc 1 221 0
 2156 0f9c 80EAD300 		eor	r0, r0, r3, lsr #3
 2157              		.loc 1 220 0
 2158 0fa0 08EA0B08 		and	r8, r8, fp
 2159 0fa4 3044     		add	r0, r0, r6
 2160 0fa6 8AEABC56 		eor	r6, r10, ip, ror #22
 2161 0faa 0CEA040A 		and	r10, ip, r4
 2162 0fae 48EA0A0A 		orr	r10, r8, r10
ARM GAS  C:\Users\jo\AppData\Local\Temp\ccDsJqTW.s 			page 39


 2163 0fb2 B244     		add	r10, r10, r6
 2164              		.loc 1 221 0
 2165 0fb4 4FEA7548 		ror	r8, r5, #17
 2166 0fb8 039E     		ldr	r6, [sp, #12]
 2167              		.loc 1 220 0
 2168 0fba 049B     		ldr	r3, [sp, #16]
 2169 0fbc 3944     		add	r1, r1, r7
 2170              	.LVL130:
 2171              		.loc 1 221 0
 2172 0fbe 88EAF547 		eor	r7, r8, r5, ror #19
 2173 0fc2 87EA9528 		eor	r8, r7, r5, lsr #10
 2174 0fc6 3044     		add	r0, r0, r6
 2175 0fc8 8B4F     		ldr	r7, .L27+12
 2176 0fca 029D     		ldr	r5, [sp, #8]
 2177 0fcc 8044     		add	r8, r0, r8
 2178              		.loc 1 220 0
 2179 0fce 0B44     		add	r3, r3, r1
 2180              	.LVL131:
 2181 0fd0 4744     		add	r7, r7, r8
 2182 0fd2 5144     		add	r1, r1, r10
 2183              	.LVL132:
 2184 0fd4 3A44     		add	r2, r2, r7
 2185              	.LVL133:
 2186              		.loc 1 222 0
 2187 0fd6 4FEAF91A 		ror	r10, r9, #7
 2188              	.LVL134:
 2189              		.loc 1 221 0
 2190 0fda 4FEAB317 		ror	r7, r3, #6
 2191 0fde 85EA0E00 		eor	r0, r5, lr
 2192 0fe2 CDF83480 		str	r8, [sp, #52]
 2193              		.loc 1 222 0
 2194 0fe6 8AEAB94A 		eor	r10, r10, r9, ror #18
 2195 0fea 0F9D     		ldr	r5, [sp, #60]
 2196              		.loc 1 221 0
 2197 0fec 87EAF328 		eor	r8, r7, r3, ror #11
 2198 0ff0 88EA7367 		eor	r7, r8, r3, ror #25
 2199 0ff4 1840     		ands	r0, r0, r3
 2200              		.loc 1 222 0
 2201 0ff6 8AEAD90A 		eor	r10, r10, r9, lsr #3
 2202              		.loc 1 221 0
 2203 0ffa 4FEAB108 		ror	r8, r1, #2
 2204 0ffe 80EA0E00 		eor	r0, r0, lr
 2205 1002 41EA0C06 		orr	r6, r1, ip
 2206 1006 88EA7138 		eor	r8, r8, r1, ror #13
 2207 100a AA44     		add	r10, r10, r5
 2208              		.loc 1 222 0
 2209 100c 139D     		ldr	r5, [sp, #76]
 2210              		.loc 1 221 0
 2211 100e 2640     		ands	r6, r6, r4
 2212 1010 0244     		add	r2, r2, r0
 2213 1012 88EAB150 		eor	r0, r8, r1, ror #22
 2214 1016 01EA0C08 		and	r8, r1, ip
 2215 101a 3A44     		add	r2, r2, r7
 2216              	.LVL135:
 2217 101c 46EA0808 		orr	r8, r6, r8
 2218              		.loc 1 222 0
 2219 1020 4FEA7547 		ror	r7, r5, #17
ARM GAS  C:\Users\jo\AppData\Local\Temp\ccDsJqTW.s 			page 40


 2220 1024 0A9E     		ldr	r6, [sp, #40]
 2221 1026 87EAF547 		eor	r7, r7, r5, ror #19
 2222              		.loc 1 221 0
 2223 102a 8044     		add	r8, r8, r0
 2224              	.LVL136:
 2225              		.loc 1 222 0
 2226 102c 87EA9527 		eor	r7, r7, r5, lsr #10
 2227 1030 0298     		ldr	r0, [sp, #8]
 2228 1032 B244     		add	r10, r10, r6
 2229              		.loc 1 221 0
 2230 1034 9344     		add	fp, fp, r2
 2231              	.LVL137:
 2232 1036 4244     		add	r2, r2, r8
 2233              	.LVL138:
 2234              		.loc 1 222 0
 2235 1038 0AEB0708 		add	r8, r10, r7
 2236              	.LVL139:
 2237 103c 4546     		mov	r5, r8
 2238 103e 6F4E     		ldr	r6, .L27+16
 2239 1040 0495     		str	r5, [sp, #16]
 2240 1042 83EA0008 		eor	r8, r3, r0
 2241              		.loc 1 223 0
 2242 1046 0698     		ldr	r0, [sp, #24]
 2243 1048 2E44     		add	r6, r6, r5
 2244 104a 4FEAF017 		ror	r7, r0, #7
 2245 104e 87EAB047 		eor	r7, r7, r0, ror #18
 2246 1052 B644     		add	lr, lr, r6
 2247              	.LVL140:
 2248              		.loc 1 222 0
 2249 1054 029E     		ldr	r6, [sp, #8]
 2250 1056 0B9D     		ldr	r5, [sp, #44]
 2251 1058 0BEA0808 		and	r8, fp, r8
 2252              		.loc 1 223 0
 2253 105c 87EAD007 		eor	r7, r7, r0, lsr #3
 2254              		.loc 1 222 0
 2255 1060 4FEAB200 		ror	r0, r2, #2
 2256 1064 88EA0608 		eor	r8, r8, r6
 2257 1068 80EA7230 		eor	r0, r0, r2, ror #13
 2258 106c 42EA0106 		orr	r6, r2, r1
 2259 1070 06EA0C06 		and	r6, r6, ip
 2260 1074 4F44     		add	r7, r7, r9
 2261 1076 80EAB259 		eor	r9, r0, r2, ror #22
 2262 107a 02EA0100 		and	r0, r2, r1
 2263 107e 4FEABB1A 		ror	r10, fp, #6
 2264 1082 3043     		orrs	r0, r0, r6
 2265              		.loc 1 223 0
 2266 1084 0D9E     		ldr	r6, [sp, #52]
 2267              		.loc 1 222 0
 2268 1086 8AEAFB2A 		eor	r10, r10, fp, ror #11
 2269 108a 8AEA7B6A 		eor	r10, r10, fp, ror #25
 2270 108e C644     		add	lr, lr, r8
 2271              		.loc 1 223 0
 2272 1090 4FEA7648 		ror	r8, r6, #17
 2273              		.loc 1 222 0
 2274 1094 D644     		add	lr, lr, r10
 2275              	.LVL141:
 2276              		.loc 1 223 0
ARM GAS  C:\Users\jo\AppData\Local\Temp\ccDsJqTW.s 			page 41


 2277 1096 88EAF648 		eor	r8, r8, r6, ror #19
 2278              		.loc 1 222 0
 2279 109a 4844     		add	r0, r0, r9
 2280              	.LVL142:
 2281 109c 2F44     		add	r7, r7, r5
 2282              		.loc 1 223 0
 2283 109e 88EA9629 		eor	r9, r8, r6, lsr #10
 2284              		.loc 1 222 0
 2285 10a2 7444     		add	r4, r4, lr
 2286 10a4 0594     		str	r4, [sp, #20]
 2287              	.LVL143:
 2288              		.loc 1 223 0
 2289 10a6 07EB0908 		add	r8, r7, r9
 2290 10aa 554E     		ldr	r6, .L27+20
 2291              		.loc 1 224 0
 2292 10ac 109F     		ldr	r7, [sp, #64]
 2293              		.loc 1 223 0
 2294 10ae 059C     		ldr	r4, [sp, #20]
 2295 10b0 029D     		ldr	r5, [sp, #8]
 2296 10b2 CDF83880 		str	r8, [sp, #56]
 2297              		.loc 1 222 0
 2298 10b6 8644     		add	lr, lr, r0
 2299              	.LVL144:
 2300 10b8 4644     		add	r6, r6, r8
 2301              		.loc 1 224 0
 2302 10ba 4FEAF710 		ror	r0, r7, #7
 2303              	.LVL145:
 2304 10be 80EAB740 		eor	r0, r0, r7, ror #18
 2305 10c2 3544     		add	r5, r5, r6
 2306              		.loc 1 223 0
 2307 10c4 4FEAB41A 		ror	r10, r4, #6
 2308 10c8 069E     		ldr	r6, [sp, #24]
 2309 10ca 4FEABE08 		ror	r8, lr, #2
 2310 10ce 8BEA0309 		eor	r9, fp, r3
 2311 10d2 88EA7E38 		eor	r8, r8, lr, ror #13
 2312 10d6 8AEAF42A 		eor	r10, r10, r4, ror #11
 2313              		.loc 1 224 0
 2314 10da 80EAD700 		eor	r0, r0, r7, lsr #3
 2315              		.loc 1 223 0
 2316 10de 4EEA0207 		orr	r7, lr, r2
 2317 10e2 0F40     		ands	r7, r7, r1
 2318 10e4 8AEA746A 		eor	r10, r10, r4, ror #25
 2319 10e8 04EA0909 		and	r9, r4, r9
 2320 10ec 3044     		add	r0, r0, r6
 2321              		.loc 1 224 0
 2322 10ee 049C     		ldr	r4, [sp, #16]
 2323              		.loc 1 223 0
 2324 10f0 88EABE56 		eor	r6, r8, lr, ror #22
 2325 10f4 0EEA0208 		and	r8, lr, r2
 2326 10f8 47EA0808 		orr	r8, r7, r8
 2327 10fc B044     		add	r8, r8, r6
 2328              		.loc 1 224 0
 2329 10fe 4FEA7447 		ror	r7, r4, #17
 2330 1102 0C9E     		ldr	r6, [sp, #48]
 2331 1104 87EAF447 		eor	r7, r7, r4, ror #19
 2332              		.loc 1 223 0
 2333 1108 89EA0309 		eor	r9, r9, r3
ARM GAS  C:\Users\jo\AppData\Local\Temp\ccDsJqTW.s 			page 42


 2334 110c 3044     		add	r0, r0, r6
 2335              		.loc 1 224 0
 2336 110e 87EA9427 		eor	r7, r7, r4, lsr #10
 2337 1112 C719     		adds	r7, r0, r7
 2338 1114 4D44     		add	r5, r5, r9
 2339 1116 0598     		ldr	r0, [sp, #20]
 2340 1118 3A4E     		ldr	r6, .L27+24
 2341 111a 3C46     		mov	r4, r7
 2342              		.loc 1 223 0
 2343 111c 5544     		add	r5, r5, r10
 2344              	.LVL146:
 2345              		.loc 1 225 0
 2346 111e 079F     		ldr	r7, [sp, #28]
 2347 1120 0F94     		str	r4, [sp, #60]
 2348              		.loc 1 223 0
 2349 1122 AC44     		add	ip, ip, r5
 2350              	.LVL147:
 2351              		.loc 1 224 0
 2352 1124 80EA0B00 		eor	r0, r0, fp
 2353              		.loc 1 223 0
 2354 1128 4544     		add	r5, r5, r8
 2355              	.LVL148:
 2356 112a 2644     		add	r6, r6, r4
 2357              		.loc 1 225 0
 2358 112c 4FEAF71A 		ror	r10, r7, #7
 2359              	.LVL149:
 2360              		.loc 1 224 0
 2361 1130 0CEA0000 		and	r0, ip, r0
 2362              		.loc 1 225 0
 2363 1134 3C46     		mov	r4, r7
 2364              		.loc 1 224 0
 2365 1136 80EA0B00 		eor	r0, r0, fp
 2366              		.loc 1 225 0
 2367 113a 8AEAB74A 		eor	r10, r10, r7, ror #18
 2368 113e 3344     		add	r3, r3, r6
 2369              	.LVL150:
 2370              		.loc 1 224 0
 2371 1140 4FEAB509 		ror	r9, r5, #2
 2372              	.LVL151:
 2373 1144 109E     		ldr	r6, [sp, #64]
 2374 1146 45EA0E08 		orr	r8, r5, lr
 2375              	.LVL152:
 2376 114a 89EA7539 		eor	r9, r9, r5, ror #13
 2377 114e 4FEABC17 		ror	r7, ip, #6
 2378              		.loc 1 225 0
 2379 1152 8AEAD40A 		eor	r10, r10, r4, lsr #3
 2380 1156 0344     		add	r3, r3, r0
 2381 1158 0E98     		ldr	r0, [sp, #56]
 2382              		.loc 1 224 0
 2383 115a 08EA0208 		and	r8, r8, r2
 2384 115e 87EAFC27 		eor	r7, r7, ip, ror #11
 2385 1162 B244     		add	r10, r10, r6
 2386 1164 89EAB556 		eor	r6, r9, r5, ror #22
 2387 1168 05EA0E09 		and	r9, r5, lr
 2388 116c 87EA7C67 		eor	r7, r7, ip, ror #25
 2389 1170 48EA0909 		orr	r9, r8, r9
 2390              		.loc 1 225 0
ARM GAS  C:\Users\jo\AppData\Local\Temp\ccDsJqTW.s 			page 43


 2391 1174 4FEA7048 		ror	r8, r0, #17
 2392              		.loc 1 224 0
 2393 1178 3B44     		add	r3, r3, r7
 2394              	.LVL153:
 2395              		.loc 1 225 0
 2396 117a 88EAF047 		eor	r7, r8, r0, ror #19
 2397 117e 87EA9028 		eor	r8, r7, r0, lsr #10
 2398 1182 1198     		ldr	r0, [sp, #68]
 2399 1184 059F     		ldr	r7, [sp, #20]
 2400 1186 8244     		add	r10, r10, r0
 2401              		.loc 1 226 0
 2402 1188 0898     		ldr	r0, [sp, #32]
 2403              		.loc 1 224 0
 2404 118a B144     		add	r9, r9, r6
 2405              	.LVL154:
 2406              		.loc 1 225 0
 2407 118c D044     		add	r8, r10, r8
 2408 118e 1E4E     		ldr	r6, .L27+28
 2409 1190 4446     		mov	r4, r8
 2410 1192 8CEA0708 		eor	r8, ip, r7
 2411              		.loc 1 226 0
 2412 1196 4FEAF017 		ror	r7, r0, #7
 2413              		.loc 1 224 0
 2414 119a 1944     		add	r1, r1, r3
 2415              	.LVL155:
 2416 119c 1094     		str	r4, [sp, #64]
 2417 119e 4B44     		add	r3, r3, r9
 2418              	.LVL156:
 2419 11a0 2644     		add	r6, r6, r4
 2420              		.loc 1 226 0
 2421 11a2 87EAB047 		eor	r7, r7, r0, ror #18
 2422 11a6 0446     		mov	r4, r0
 2423              		.loc 1 225 0
 2424 11a8 0598     		ldr	r0, [sp, #20]
 2425 11aa B344     		add	fp, fp, r6
 2426              	.LVL157:
 2427 11ac 01EA0808 		and	r8, r1, r8
 2428 11b0 079E     		ldr	r6, [sp, #28]
 2429 11b2 4FEAB309 		ror	r9, r3, #2
 2430              	.LVL158:
 2431 11b6 89EA7339 		eor	r9, r9, r3, ror #13
 2432 11ba 88EA0008 		eor	r8, r8, r0
 2433              		.loc 1 226 0
 2434 11be 87EAD407 		eor	r7, r7, r4, lsr #3
 2435              		.loc 1 225 0
 2436 11c2 43EA0500 		orr	r0, r3, r5
 2437 11c6 00EA0E00 		and	r0, r0, lr
 2438 11ca 4FEAB11A 		ror	r10, r1, #6
 2439 11ce 3744     		add	r7, r7, r6
 2440 11d0 89EAB356 		eor	r6, r9, r3, ror #22
 2441 11d4 03EA0509 		and	r9, r3, r5
 2442 11d8 8AEAF12A 		eor	r10, r10, r1, ror #11
 2443 11dc 40EA0909 		orr	r9, r0, r9
 2444              		.loc 1 226 0
 2445 11e0 0F98     		ldr	r0, [sp, #60]
 2446 11e2 D844     		add	r8, r8, fp
 2447              		.loc 1 225 0
ARM GAS  C:\Users\jo\AppData\Local\Temp\ccDsJqTW.s 			page 44


 2448 11e4 8AEA716A 		eor	r10, r10, r1, ror #25
 2449 11e8 C244     		add	r10, r10, r8
 2450 11ea 13E0     		b	.L28
 2451              	.L29:
 2452              		.align	2
 2453              	.L27:
 2454 11ec 5163CA06 		.word	113926993
 2455 11f0 67292914 		.word	338241895
 2456 11f4 850AB727 		.word	666307205
 2457 11f8 38211B2E 		.word	773529912
 2458 11fc FC6D2C4D 		.word	1294757372
 2459 1200 130D3853 		.word	1396182291
 2460 1204 54730A65 		.word	1695183700
 2461 1208 BB0A6A76 		.word	1986661051
 2462 120c F30BE0C6 		.word	-958395405
 2463 1210 4791A7D5 		.word	-710438585
 2464              	.L28:
 2465              	.LVL159:
 2466              		.loc 1 226 0
 2467 1214 4FEA7048 		ror	r8, r0, #17
 2468 1218 88EAF048 		eor	r8, r8, r0, ror #19
 2469              		.loc 1 225 0
 2470 121c B144     		add	r9, r9, r6
 2471              	.LVL160:
 2472              		.loc 1 226 0
 2473 121e 88EA9026 		eor	r6, r8, r0, lsr #10
 2474 1222 1298     		ldr	r0, [sp, #72]
 2475 1224 0744     		add	r7, r7, r0
 2476 1226 3744     		add	r7, r7, r6
 2477 1228 3C46     		mov	r4, r7
 2478 122a DB48     		ldr	r0, .L30
 2479              		.loc 1 227 0
 2480 122c 019F     		ldr	r7, [sp, #4]
 2481 122e 0694     		str	r4, [sp, #24]
 2482              		.loc 1 225 0
 2483 1230 D144     		add	r9, r9, r10
 2484              	.LVL161:
 2485 1232 5244     		add	r2, r2, r10
 2486              	.LVL162:
 2487              		.loc 1 226 0
 2488 1234 81EA0C06 		eor	r6, r1, ip
 2489 1238 2044     		add	r0, r0, r4
 2490              		.loc 1 227 0
 2491 123a 4FEAF71A 		ror	r10, r7, #7
 2492              	.LVL163:
 2493 123e 019F     		ldr	r7, [sp, #4]
 2494 1240 059C     		ldr	r4, [sp, #20]
 2495              		.loc 1 226 0
 2496 1242 1640     		ands	r6, r6, r2
 2497              		.loc 1 227 0
 2498 1244 B846     		mov	r8, r7
 2499              		.loc 1 226 0
 2500 1246 86EA0C06 		eor	r6, r6, ip
 2501              		.loc 1 227 0
 2502 124a 8AEAB74A 		eor	r10, r10, r7, ror #18
 2503 124e 0444     		add	r4, r4, r0
 2504              		.loc 1 226 0
ARM GAS  C:\Users\jo\AppData\Local\Temp\ccDsJqTW.s 			page 45


 2505 1250 4FEAB90B 		ror	fp, r9, #2
 2506              	.LVL164:
 2507 1254 0898     		ldr	r0, [sp, #32]
 2508 1256 8BEA793B 		eor	fp, fp, r9, ror #13
 2509 125a 4FEAB217 		ror	r7, r2, #6
 2510              		.loc 1 227 0
 2511 125e 8AEAD80A 		eor	r10, r10, r8, lsr #3
 2512 1262 3444     		add	r4, r4, r6
 2513              		.loc 1 226 0
 2514 1264 49EA0308 		orr	r8, r9, r3
 2515              		.loc 1 227 0
 2516 1268 109E     		ldr	r6, [sp, #64]
 2517              		.loc 1 226 0
 2518 126a 08EA0508 		and	r8, r8, r5
 2519 126e 87EAF227 		eor	r7, r7, r2, ror #11
 2520 1272 8244     		add	r10, r10, r0
 2521 1274 8BEAB950 		eor	r0, fp, r9, ror #22
 2522 1278 09EA030B 		and	fp, r9, r3
 2523 127c 87EA7267 		eor	r7, r7, r2, ror #25
 2524 1280 48EA0B0B 		orr	fp, r8, fp
 2525              		.loc 1 227 0
 2526 1284 4FEA7648 		ror	r8, r6, #17
 2527              		.loc 1 226 0
 2528 1288 3C44     		add	r4, r4, r7
 2529              	.LVL165:
 2530              		.loc 1 227 0
 2531 128a 88EAF647 		eor	r7, r8, r6, ror #19
 2532 128e 87EA9628 		eor	r8, r7, r6, lsr #10
 2533 1292 139F     		ldr	r7, [sp, #76]
 2534 1294 C14E     		ldr	r6, .L30+4
 2535              		.loc 1 226 0
 2536 1296 8344     		add	fp, fp, r0
 2537              	.LVL166:
 2538 1298 BA44     		add	r10, r10, r7
 2539 129a 04EB0E00 		add	r0, r4, lr
 2540              	.LVL167:
 2541 129e 04EB0B07 		add	r7, r4, fp
 2542              		.loc 1 227 0
 2543 12a2 0AEB080E 		add	lr, r10, r8
 2544              		.loc 1 226 0
 2545 12a6 0597     		str	r7, [sp, #20]
 2546              	.LVL168:
 2547              		.loc 1 227 0
 2548 12a8 7446     		mov	r4, lr
 2549              	.LVL169:
 2550              		.loc 1 228 0
 2551 12aa 099F     		ldr	r7, [sp, #36]
 2552 12ac 0794     		str	r4, [sp, #28]
 2553 12ae 2644     		add	r6, r6, r4
 2554 12b0 099C     		ldr	r4, [sp, #36]
 2555 12b2 4FEAF71B 		ror	fp, r7, #7
 2556              	.LVL170:
 2557 12b6 8BEAB44B 		eor	fp, fp, r4, ror #18
 2558 12ba 8BEAD40B 		eor	fp, fp, r4, lsr #3
 2559              		.loc 1 227 0
 2560 12be 059C     		ldr	r4, [sp, #20]
 2561 12c0 B444     		add	ip, ip, r6
ARM GAS  C:\Users\jo\AppData\Local\Temp\ccDsJqTW.s 			page 46


 2562              	.LVL171:
 2563 12c2 4FEAB407 		ror	r7, r4, #2
 2564 12c6 019E     		ldr	r6, [sp, #4]
 2565 12c8 82EA010E 		eor	lr, r2, r1
 2566 12cc 87EA7437 		eor	r7, r7, r4, ror #13
 2567 12d0 44EA090A 		orr	r10, r4, r9
 2568 12d4 00EA0E0E 		and	lr, r0, lr
 2569 12d8 B344     		add	fp, fp, r6
 2570 12da 87EAB456 		eor	r6, r7, r4, ror #22
 2571 12de 04EA0907 		and	r7, r4, r9
 2572              		.loc 1 228 0
 2573 12e2 069C     		ldr	r4, [sp, #24]
 2574              		.loc 1 227 0
 2575 12e4 8EEA010E 		eor	lr, lr, r1
 2576 12e8 F444     		add	ip, ip, lr
 2577              		.loc 1 228 0
 2578 12ea 4FEA744E 		ror	lr, r4, #17
 2579 12ee 8EEAF44E 		eor	lr, lr, r4, ror #19
 2580 12f2 8EEA942E 		eor	lr, lr, r4, lsr #10
 2581 12f6 0D9C     		ldr	r4, [sp, #52]
 2582              		.loc 1 227 0
 2583 12f8 4FEAB018 		ror	r8, r0, #6
 2584 12fc A344     		add	fp, fp, r4
 2585 12fe 0AEA030A 		and	r10, r10, r3
 2586              		.loc 1 229 0
 2587 1302 039C     		ldr	r4, [sp, #12]
 2588              		.loc 1 228 0
 2589 1304 DE44     		add	lr, fp, lr
 2590              		.loc 1 227 0
 2591 1306 88EAF028 		eor	r8, r8, r0, ror #11
 2592              		.loc 1 228 0
 2593 130a CDF820E0 		str	lr, [sp, #32]
 2594              		.loc 1 227 0
 2595 130e 88EA7068 		eor	r8, r8, r0, ror #25
 2596 1312 4AEA0707 		orr	r7, r10, r7
 2597 1316 C444     		add	ip, ip, r8
 2598              	.LVL172:
 2599 1318 3744     		add	r7, r7, r6
 2600              	.LVL173:
 2601              		.loc 1 229 0
 2602 131a 4FEAF41B 		ror	fp, r4, #7
 2603 131e A04E     		ldr	r6, .L30+8
 2604 1320 089C     		ldr	r4, [sp, #32]
 2605              		.loc 1 227 0
 2606 1322 6544     		add	r5, r5, ip
 2607              	.LVL174:
 2608 1324 BC44     		add	ip, ip, r7
 2609              	.LVL175:
 2610              		.loc 1 228 0
 2611 1326 80EA0207 		eor	r7, r0, r2
 2612              	.LVL176:
 2613 132a 2644     		add	r6, r6, r4
 2614 132c 2F40     		ands	r7, r7, r5
 2615              		.loc 1 229 0
 2616 132e 039C     		ldr	r4, [sp, #12]
 2617              		.loc 1 228 0
 2618 1330 5740     		eors	r7, r7, r2
ARM GAS  C:\Users\jo\AppData\Local\Temp\ccDsJqTW.s 			page 47


 2619 1332 3144     		add	r1, r1, r6
 2620              	.LVL177:
 2621 1334 3944     		add	r1, r1, r7
 2622 1336 059F     		ldr	r7, [sp, #20]
 2623 1338 099E     		ldr	r6, [sp, #36]
 2624              		.loc 1 229 0
 2625 133a 8BEAB44B 		eor	fp, fp, r4, ror #18
 2626              		.loc 1 228 0
 2627 133e 4FEABC0A 		ror	r10, ip, #2
 2628 1342 4CEA0708 		orr	r8, ip, r7
 2629 1346 8AEA7C3A 		eor	r10, r10, ip, ror #13
 2630              		.loc 1 229 0
 2631 134a 8BEAD40B 		eor	fp, fp, r4, lsr #3
 2632              		.loc 1 228 0
 2633 134e 08EA0908 		and	r8, r8, r9
 2634              		.loc 1 229 0
 2635 1352 079C     		ldr	r4, [sp, #28]
 2636              		.loc 1 228 0
 2637 1354 4FEAB51E 		ror	lr, r5, #6
 2638 1358 B344     		add	fp, fp, r6
 2639 135a 8AEABC56 		eor	r6, r10, ip, ror #22
 2640 135e 0CEA070A 		and	r10, ip, r7
 2641 1362 8EEAF52E 		eor	lr, lr, r5, ror #11
 2642 1366 48EA0A0A 		orr	r10, r8, r10
 2643 136a 8EEA756E 		eor	lr, lr, r5, ror #25
 2644              		.loc 1 229 0
 2645 136e 4FEA7448 		ror	r8, r4, #17
 2646              		.loc 1 228 0
 2647 1372 B244     		add	r10, r10, r6
 2648 1374 049E     		ldr	r6, [sp, #16]
 2649 1376 7144     		add	r1, r1, lr
 2650              	.LVL178:
 2651              		.loc 1 229 0
 2652 1378 88EAF44E 		eor	lr, r8, r4, ror #19
 2653 137c 8EEA9428 		eor	r8, lr, r4, lsr #10
 2654 1380 B344     		add	fp, fp, r6
 2655 1382 0BEB080E 		add	lr, fp, r8
 2656              		.loc 1 230 0
 2657 1386 0A9C     		ldr	r4, [sp, #40]
 2658              		.loc 1 229 0
 2659 1388 CDF804E0 		str	lr, [sp, #4]
 2660              		.loc 1 230 0
 2661 138c 4FEAF41B 		ror	fp, r4, #7
 2662 1390 844E     		ldr	r6, .L30+12
 2663 1392 019C     		ldr	r4, [sp, #4]
 2664 1394 2644     		add	r6, r6, r4
 2665 1396 0A9C     		ldr	r4, [sp, #40]
 2666 1398 8BEAB44B 		eor	fp, fp, r4, ror #18
 2667              		.loc 1 228 0
 2668 139c 0B44     		add	r3, r3, r1
 2669              	.LVL179:
 2670              		.loc 1 229 0
 2671 139e 85EA0007 		eor	r7, r5, r0
 2672              		.loc 1 228 0
 2673 13a2 5144     		add	r1, r1, r10
 2674              	.LVL180:
 2675 13a4 3244     		add	r2, r2, r6
ARM GAS  C:\Users\jo\AppData\Local\Temp\ccDsJqTW.s 			page 48


 2676              	.LVL181:
 2677              		.loc 1 230 0
 2678 13a6 8BEAD40B 		eor	fp, fp, r4, lsr #3
 2679              		.loc 1 229 0
 2680 13aa 059E     		ldr	r6, [sp, #20]
 2681 13ac 039C     		ldr	r4, [sp, #12]
 2682 13ae 41EA0C0A 		orr	r10, r1, ip
 2683              	.LVL182:
 2684 13b2 1F40     		ands	r7, r7, r3
 2685 13b4 4FEAB31E 		ror	lr, r3, #6
 2686 13b8 4740     		eors	r7, r7, r0
 2687 13ba 0AEA060A 		and	r10, r10, r6
 2688 13be 8EEAF32E 		eor	lr, lr, r3, ror #11
 2689 13c2 A344     		add	fp, fp, r4
 2690 13c4 4FEAB106 		ror	r6, r1, #2
 2691              		.loc 1 230 0
 2692 13c8 089C     		ldr	r4, [sp, #32]
 2693              		.loc 1 229 0
 2694 13ca 8EEA736E 		eor	lr, lr, r3, ror #25
 2695 13ce 86EA7136 		eor	r6, r6, r1, ror #13
 2696 13d2 3A44     		add	r2, r2, r7
 2697 13d4 86EAB158 		eor	r8, r6, r1, ror #22
 2698 13d8 0E9F     		ldr	r7, [sp, #56]
 2699 13da 7244     		add	r2, r2, lr
 2700              	.LVL183:
 2701 13dc 01EA0C06 		and	r6, r1, ip
 2702              		.loc 1 230 0
 2703 13e0 4FEA744E 		ror	lr, r4, #17
 2704 13e4 8EEAF44E 		eor	lr, lr, r4, ror #19
 2705              		.loc 1 229 0
 2706 13e8 4AEA0606 		orr	r6, r10, r6
 2707 13ec 4644     		add	r6, r6, r8
 2708              	.LVL184:
 2709 13ee BB44     		add	fp, fp, r7
 2710              		.loc 1 230 0
 2711 13f0 8EEA9428 		eor	r8, lr, r4, lsr #10
 2712 13f4 0BEB080E 		add	lr, fp, r8
 2713              		.loc 1 231 0
 2714 13f8 0B9C     		ldr	r4, [sp, #44]
 2715              		.loc 1 230 0
 2716 13fa CDF808E0 		str	lr, [sp, #8]
 2717              		.loc 1 231 0
 2718 13fe 4FEAF41B 		ror	fp, r4, #7
 2719 1402 694F     		ldr	r7, .L30+16
 2720 1404 029C     		ldr	r4, [sp, #8]
 2721 1406 2744     		add	r7, r7, r4
 2722 1408 0B9C     		ldr	r4, [sp, #44]
 2723 140a 8BEAB44B 		eor	fp, fp, r4, ror #18
 2724 140e 8BEAD40B 		eor	fp, fp, r4, lsr #3
 2725 1412 0A9C     		ldr	r4, [sp, #40]
 2726              		.loc 1 229 0
 2727 1414 9144     		add	r9, r9, r2
 2728              	.LVL185:
 2729 1416 3244     		add	r2, r2, r6
 2730              	.LVL186:
 2731              		.loc 1 230 0
 2732 1418 83EA0506 		eor	r6, r3, r5
ARM GAS  C:\Users\jo\AppData\Local\Temp\ccDsJqTW.s 			page 49


 2733              	.LVL187:
 2734 141c 09EA0606 		and	r6, r9, r6
 2735 1420 A344     		add	fp, fp, r4
 2736              		.loc 1 231 0
 2737 1422 019C     		ldr	r4, [sp, #4]
 2738 1424 07EB000E 		add	lr, r7, r0
 2739              		.loc 1 230 0
 2740 1428 6E40     		eors	r6, r6, r5
 2741 142a 4FEAB20A 		ror	r10, r2, #2
 2742 142e 42EA0100 		orr	r0, r2, r1
 2743              	.LVL188:
 2744 1432 8AEA723A 		eor	r10, r10, r2, ror #13
 2745 1436 4FEAB918 		ror	r8, r9, #6
 2746 143a 7644     		add	r6, r6, lr
 2747              		.loc 1 231 0
 2748 143c 4FEA744E 		ror	lr, r4, #17
 2749              		.loc 1 230 0
 2750 1440 8AEAB257 		eor	r7, r10, r2, ror #22
 2751 1444 00EA0C00 		and	r0, r0, ip
 2752 1448 02EA010A 		and	r10, r2, r1
 2753 144c 88EAF928 		eor	r8, r8, r9, ror #11
 2754              		.loc 1 231 0
 2755 1450 8EEAF44E 		eor	lr, lr, r4, ror #19
 2756              		.loc 1 230 0
 2757 1454 88EA7968 		eor	r8, r8, r9, ror #25
 2758 1458 40EA0A0A 		orr	r10, r0, r10
 2759              		.loc 1 231 0
 2760 145c 8EEA942E 		eor	lr, lr, r4, lsr #10
 2761              		.loc 1 230 0
 2762 1460 059C     		ldr	r4, [sp, #20]
 2763 1462 5248     		ldr	r0, .L30+20
 2764 1464 4644     		add	r6, r6, r8
 2765              	.LVL189:
 2766 1466 BA44     		add	r10, r10, r7
 2767              	.LVL190:
 2768 1468 0F9F     		ldr	r7, [sp, #60]
 2769 146a 0AEB0608 		add	r8, r10, r6
 2770              	.LVL191:
 2771 146e 3444     		add	r4, r4, r6
 2772              		.loc 1 232 0
 2773 1470 0C9E     		ldr	r6, [sp, #48]
 2774              	.LVL192:
 2775              		.loc 1 230 0
 2776 1472 0394     		str	r4, [sp, #12]
 2777              	.LVL193:
 2778 1474 BB44     		add	fp, fp, r7
 2779              		.loc 1 231 0
 2780 1476 DE44     		add	lr, fp, lr
 2781              		.loc 1 232 0
 2782 1478 4FEAF61B 		ror	fp, r6, #7
 2783              		.loc 1 231 0
 2784 147c 039E     		ldr	r6, [sp, #12]
 2785 147e 89EA0307 		eor	r7, r9, r3
 2786 1482 7446     		mov	r4, lr
 2787 1484 3740     		ands	r7, r7, r6
 2788 1486 039E     		ldr	r6, [sp, #12]
 2789 1488 0994     		str	r4, [sp, #36]
ARM GAS  C:\Users\jo\AppData\Local\Temp\ccDsJqTW.s 			page 50


 2790 148a 2044     		add	r0, r0, r4
 2791 148c 0544     		add	r5, r5, r0
 2792              	.LVL194:
 2793              		.loc 1 232 0
 2794 148e 0C9C     		ldr	r4, [sp, #48]
 2795              		.loc 1 231 0
 2796 1490 4FEAB610 		ror	r0, r6, #6
 2797 1494 80EAF62A 		eor	r10, r0, r6, ror #11
 2798              	.LVL195:
 2799 1498 8AEA7660 		eor	r0, r10, r6, ror #25
 2800              		.loc 1 232 0
 2801 149c 8BEAB44B 		eor	fp, fp, r4, ror #18
 2802 14a0 0B9E     		ldr	r6, [sp, #44]
 2803 14a2 8BEAD40B 		eor	fp, fp, r4, lsr #3
 2804 14a6 B344     		add	fp, fp, r6
 2805              		.loc 1 231 0
 2806 14a8 4FEAB806 		ror	r6, r8, #2
 2807              		.loc 1 232 0
 2808 14ac 029C     		ldr	r4, [sp, #8]
 2809              		.loc 1 231 0
 2810 14ae 5F40     		eors	r7, r7, r3
 2811 14b0 48EA020E 		orr	lr, r8, r2
 2812 14b4 86EA7836 		eor	r6, r6, r8, ror #13
 2813 14b8 0EEA010E 		and	lr, lr, r1
 2814 14bc 3D44     		add	r5, r5, r7
 2815 14be 86EAB857 		eor	r7, r6, r8, ror #22
 2816 14c2 08EA0206 		and	r6, r8, r2
 2817 14c6 4EEA0606 		orr	r6, lr, r6
 2818              		.loc 1 232 0
 2819 14ca 4FEA744E 		ror	lr, r4, #17
 2820              		.loc 1 231 0
 2821 14ce 0544     		add	r5, r5, r0
 2822              	.LVL196:
 2823 14d0 3E44     		add	r6, r6, r7
 2824              	.LVL197:
 2825              		.loc 1 232 0
 2826 14d2 8EEAF440 		eor	r0, lr, r4, ror #19
 2827 14d6 109F     		ldr	r7, [sp, #64]
 2828 14d8 80EA942E 		eor	lr, r0, r4, lsr #10
 2829 14dc 0398     		ldr	r0, [sp, #12]
 2830 14de BB44     		add	fp, fp, r7
 2831              		.loc 1 231 0
 2832 14e0 2E44     		add	r6, r6, r5
 2833              	.LVL198:
 2834 14e2 AC44     		add	ip, ip, r5
 2835              	.LVL199:
 2836              		.loc 1 232 0
 2837 14e4 0BEB0E05 		add	r5, fp, lr
 2838              	.LVL200:
 2839 14e8 80EA090E 		eor	lr, r0, r9
 2840              		.loc 1 233 0
 2841 14ec 1198     		ldr	r0, [sp, #68]
 2842 14ee 304F     		ldr	r7, .L30+24
 2843              		.loc 1 232 0
 2844 14f0 2C46     		mov	r4, r5
 2845              		.loc 1 233 0
 2846 14f2 4FEAF01B 		ror	fp, r0, #7
ARM GAS  C:\Users\jo\AppData\Local\Temp\ccDsJqTW.s 			page 51


 2847 14f6 2744     		add	r7, r7, r4
 2848              		.loc 1 232 0
 2849 14f8 0CEA0E0E 		and	lr, ip, lr
 2850              		.loc 1 233 0
 2851 14fc 8BEAB04B 		eor	fp, fp, r0, ror #18
 2852              		.loc 1 232 0
 2853 1500 8EEA090E 		eor	lr, lr, r9
 2854 1504 3B44     		add	r3, r3, r7
 2855              	.LVL201:
 2856              		.loc 1 233 0
 2857 1506 8BEAD00B 		eor	fp, fp, r0, lsr #3
 2858              		.loc 1 232 0
 2859 150a 4FEAB605 		ror	r5, r6, #2
 2860 150e 0C98     		ldr	r0, [sp, #48]
 2861 1510 0B94     		str	r4, [sp, #44]
 2862 1512 85EA7635 		eor	r5, r5, r6, ror #13
 2863 1516 7344     		add	r3, r3, lr
 2864 1518 46EA080E 		orr	lr, r6, r8
 2865              		.loc 1 233 0
 2866 151c 099C     		ldr	r4, [sp, #36]
 2867              		.loc 1 232 0
 2868 151e 0EEA020E 		and	lr, lr, r2
 2869 1522 8344     		add	fp, fp, r0
 2870 1524 85EAB650 		eor	r0, r5, r6, ror #22
 2871 1528 06EA0805 		and	r5, r6, r8
 2872 152c 4FEABC1A 		ror	r10, ip, #6
 2873 1530 4EEA0505 		orr	r5, lr, r5
 2874 1534 8AEAFC2A 		eor	r10, r10, ip, ror #11
 2875              		.loc 1 233 0
 2876 1538 4FEA744E 		ror	lr, r4, #17
 2877              		.loc 1 232 0
 2878 153c 0544     		add	r5, r5, r0
 2879 153e 0698     		ldr	r0, [sp, #24]
 2880 1540 8AEA7C6A 		eor	r10, r10, ip, ror #25
 2881              		.loc 1 233 0
 2882 1544 8EEAF447 		eor	r7, lr, r4, ror #19
 2883              		.loc 1 232 0
 2884 1548 5344     		add	r3, r3, r10
 2885              	.LVL202:
 2886              		.loc 1 233 0
 2887 154a 87EA942E 		eor	lr, r7, r4, lsr #10
 2888 154e 8344     		add	fp, fp, r0
 2889 1550 1848     		ldr	r0, .L30+28
 2890              		.loc 1 234 0
 2891 1552 129C     		ldr	r4, [sp, #72]
 2892              		.loc 1 233 0
 2893 1554 DE44     		add	lr, fp, lr
 2894              		.loc 1 232 0
 2895 1556 1944     		add	r1, r1, r3
 2896 1558 0591     		str	r1, [sp, #20]
 2897              	.LVL203:
 2898 155a 7044     		add	r0, r0, lr
 2899 155c 8144     		add	r9, r9, r0
 2900              	.LVL204:
 2901              		.loc 1 233 0
 2902 155e 0598     		ldr	r0, [sp, #20]
 2903 1560 0599     		ldr	r1, [sp, #20]
ARM GAS  C:\Users\jo\AppData\Local\Temp\ccDsJqTW.s 			page 52


 2904 1562 CDF828E0 		str	lr, [sp, #40]
 2905              		.loc 1 232 0
 2906 1566 1D44     		add	r5, r5, r3
 2907              	.LVL205:
 2908              		.loc 1 233 0
 2909 1568 039B     		ldr	r3, [sp, #12]
 2910              	.LVL206:
 2911 156a 4FEAB01E 		ror	lr, r0, #6
 2912 156e 8CEA0307 		eor	r7, ip, r3
 2913 1572 8EEAF02E 		eor	lr, lr, r0, ror #11
 2914              		.loc 1 234 0
 2915 1576 4FEAF413 		ror	r3, r4, #7
 2916              		.loc 1 233 0
 2917 157a 0F40     		ands	r7, r7, r1
 2918              		.loc 1 234 0
 2919 157c 83EAB443 		eor	r3, r3, r4, ror #18
 2920 1580 2146     		mov	r1, r4
 2921              		.loc 1 233 0
 2922 1582 8EEA706E 		eor	lr, lr, r0, ror #25
 2923 1586 1198     		ldr	r0, [sp, #68]
 2924 1588 039C     		ldr	r4, [sp, #12]
 2925              		.loc 1 234 0
 2926 158a 83EAD103 		eor	r3, r3, r1, lsr #3
 2927 158e 0344     		add	r3, r3, r0
 2928              		.loc 1 233 0
 2929 1590 4FEAB500 		ror	r0, r5, #2
 2930 1594 6740     		eors	r7, r7, r4
 2931 1596 0FE0     		b	.L31
 2932              	.L32:
 2933              		.align	2
 2934              	.L30:
 2935 1598 2EC9C281 		.word	-2117940946
 2936 159c 852C7292 		.word	-1838011259
 2937 15a0 A1E8BFA2 		.word	-1564481375
 2938 15a4 4B661AA8 		.word	-1474664885
 2939 15a8 708B4BC2 		.word	-1035236496
 2940 15ac A3516CC7 		.word	-949202525
 2941 15b0 19E892D1 		.word	-778901479
 2942 15b4 240699D6 		.word	-694614492
 2943              	.L31:
 2944 15b8 45EA060A 		orr	r10, r5, r6
 2945 15bc 80EA7530 		eor	r0, r0, r5, ror #13
 2946              		.loc 1 234 0
 2947 15c0 0B99     		ldr	r1, [sp, #44]
 2948              		.loc 1 235 0
 2949 15c2 139C     		ldr	r4, [sp, #76]
 2950 15c4 B944     		add	r9, r9, r7
 2951              		.loc 1 233 0
 2952 15c6 0AEA080A 		and	r10, r10, r8
 2953 15ca 80EAB557 		eor	r7, r0, r5, ror #22
 2954 15ce 05EA0600 		and	r0, r5, r6
 2955 15d2 4AEA0000 		orr	r0, r10, r0
 2956 15d6 3844     		add	r0, r0, r7
 2957              		.loc 1 234 0
 2958 15d8 4FEA714A 		ror	r10, r1, #17
 2959 15dc 079F     		ldr	r7, [sp, #28]
 2960              		.loc 1 233 0
ARM GAS  C:\Users\jo\AppData\Local\Temp\ccDsJqTW.s 			page 53


 2961 15de CE44     		add	lr, lr, r9
 2962              	.LVL207:
 2963              		.loc 1 234 0
 2964 15e0 8AEAF149 		eor	r9, r10, r1, ror #19
 2965 15e4 89EA912A 		eor	r10, r9, r1, lsr #10
 2966 15e8 3B44     		add	r3, r3, r7
 2967              		.loc 1 233 0
 2968 15ea 0EEB0209 		add	r9, lr, r2
 2969              	.LVL208:
 2970 15ee 7044     		add	r0, r0, lr
 2971              	.LVL209:
 2972              		.loc 1 234 0
 2973 15f0 03EB0A0E 		add	lr, r3, r10
 2974              	.LVL210:
 2975 15f4 059B     		ldr	r3, [sp, #20]
 2976 15f6 E34F     		ldr	r7, .L33
 2977 15f8 CDF830E0 		str	lr, [sp, #48]
 2978              		.loc 1 235 0
 2979 15fc 4FEAF412 		ror	r2, r4, #7
 2980 1600 2146     		mov	r1, r4
 2981              		.loc 1 234 0
 2982 1602 83EA0C03 		eor	r3, r3, ip
 2983              		.loc 1 235 0
 2984 1606 82EAB442 		eor	r2, r2, r4, ror #18
 2985 160a 039C     		ldr	r4, [sp, #12]
 2986 160c 7744     		add	r7, r7, lr
 2987              		.loc 1 234 0
 2988 160e 09EA0303 		and	r3, r9, r3
 2989 1612 83EA0C03 		eor	r3, r3, ip
 2990 1616 3C44     		add	r4, r4, r7
 2991 1618 4FEAB91B 		ror	fp, r9, #6
 2992 161c E718     		adds	r7, r4, r3
 2993 161e 8BEAF92B 		eor	fp, fp, r9, ror #11
 2994 1622 129B     		ldr	r3, [sp, #72]
 2995 1624 4FEAB00A 		ror	r10, r0, #2
 2996 1628 40EA050E 		orr	lr, r0, r5
 2997 162c 8BEA7964 		eor	r4, fp, r9, ror #25
 2998 1630 8AEA703A 		eor	r10, r10, r0, ror #13
 2999              		.loc 1 235 0
 3000 1634 82EAD102 		eor	r2, r2, r1, lsr #3
 3001              		.loc 1 234 0
 3002 1638 3C44     		add	r4, r4, r7
 3003              	.LVL211:
 3004 163a 0EEA060E 		and	lr, lr, r6
 3005              		.loc 1 235 0
 3006 163e 0A9F     		ldr	r7, [sp, #40]
 3007 1640 1A44     		add	r2, r2, r3
 3008              		.loc 1 234 0
 3009 1642 8AEAB053 		eor	r3, r10, r0, ror #22
 3010 1646 00EA050A 		and	r10, r0, r5
 3011 164a 4EEA0A0A 		orr	r10, lr, r10
 3012 164e 9A44     		add	r10, r10, r3
 3013              	.LVL212:
 3014              		.loc 1 235 0
 3015 1650 4FEA774E 		ror	lr, r7, #17
 3016 1654 089B     		ldr	r3, [sp, #32]
 3017 1656 3946     		mov	r1, r7
ARM GAS  C:\Users\jo\AppData\Local\Temp\ccDsJqTW.s 			page 54


 3018 1658 8EEAF747 		eor	r7, lr, r7, ror #19
 3019              		.loc 1 234 0
 3020 165c A244     		add	r10, r10, r4
 3021              	.LVL213:
 3022              		.loc 1 235 0
 3023 165e 87EA912E 		eor	lr, r7, r1, lsr #10
 3024 1662 1A44     		add	r2, r2, r3
 3025              		.loc 1 234 0
 3026 1664 04EB0803 		add	r3, r4, r8
 3027              	.LVL214:
 3028              		.loc 1 236 0
 3029 1668 0D9C     		ldr	r4, [sp, #52]
 3030              	.LVL215:
 3031 166a C74F     		ldr	r7, .L33+4
 3032              		.loc 1 235 0
 3033 166c 9644     		add	lr, r2, lr
 3034 166e 059A     		ldr	r2, [sp, #20]
 3035 1670 7146     		mov	r1, lr
 3036              		.loc 1 236 0
 3037 1672 4FEAF418 		ror	r8, r4, #7
 3038 1676 0391     		str	r1, [sp, #12]
 3039              	.LVL216:
 3040 1678 0F44     		add	r7, r7, r1
 3041              		.loc 1 235 0
 3042 167a 89EA0202 		eor	r2, r9, r2
 3043              		.loc 1 236 0
 3044 167e 2146     		mov	r1, r4
 3045 1680 88EAB448 		eor	r8, r8, r4, ror #18
 3046              		.loc 1 235 0
 3047 1684 059C     		ldr	r4, [sp, #20]
 3048 1686 1A40     		ands	r2, r2, r3
 3049 1688 BC44     		add	ip, ip, r7
 3050              	.LVL217:
 3051 168a 4FEAB317 		ror	r7, r3, #6
 3052 168e 6240     		eors	r2, r2, r4
 3053 1690 4FEABA0E 		ror	lr, r10, #2
 3054 1694 87EAF324 		eor	r4, r7, r3, ror #11
 3055 1698 84EA7367 		eor	r7, r4, r3, ror #25
 3056 169c 4AEA000B 		orr	fp, r10, r0
 3057 16a0 8EEA7A3E 		eor	lr, lr, r10, ror #13
 3058 16a4 9444     		add	ip, ip, r2
 3059 16a6 139C     		ldr	r4, [sp, #76]
 3060 16a8 8EEABA52 		eor	r2, lr, r10, ror #22
 3061 16ac BC44     		add	ip, ip, r7
 3062              	.LVL218:
 3063 16ae 0BEA050B 		and	fp, fp, r5
 3064              		.loc 1 236 0
 3065 16b2 0C9F     		ldr	r7, [sp, #48]
 3066              		.loc 1 235 0
 3067 16b4 0AEA000E 		and	lr, r10, r0
 3068              		.loc 1 236 0
 3069 16b8 88EAD108 		eor	r8, r8, r1, lsr #3
 3070              		.loc 1 235 0
 3071 16bc 4BEA0E0E 		orr	lr, fp, lr
 3072 16c0 A044     		add	r8, r8, r4
 3073 16c2 9644     		add	lr, lr, r2
 3074              	.LVL219:
ARM GAS  C:\Users\jo\AppData\Local\Temp\ccDsJqTW.s 			page 55


 3075              		.loc 1 236 0
 3076 16c4 4FEA7744 		ror	r4, r7, #17
 3077 16c8 019A     		ldr	r2, [sp, #4]
 3078 16ca 84EAF744 		eor	r4, r4, r7, ror #19
 3079 16ce 84EA9724 		eor	r4, r4, r7, lsr #10
 3080 16d2 9044     		add	r8, r8, r2
 3081              		.loc 1 235 0
 3082 16d4 E644     		add	lr, lr, ip
 3083              	.LVL220:
 3084 16d6 6644     		add	r6, r6, ip
 3085              	.LVL221:
 3086              		.loc 1 237 0
 3087 16d8 049F     		ldr	r7, [sp, #16]
 3088 16da AC4A     		ldr	r2, .L33+8
 3089              		.loc 1 236 0
 3090 16dc 08EB040C 		add	ip, r8, r4
 3091              	.LVL222:
 3092 16e0 6146     		mov	r1, ip
 3093 16e2 1191     		str	r1, [sp, #68]
 3094 16e4 83EA090C 		eor	ip, r3, r9
 3095 16e8 0A44     		add	r2, r2, r1
 3096              		.loc 1 237 0
 3097 16ea 4FEAF718 		ror	r8, r7, #7
 3098 16ee 0599     		ldr	r1, [sp, #20]
 3099 16f0 3C46     		mov	r4, r7
 3100              		.loc 1 236 0
 3101 16f2 06EA0C0C 		and	ip, r6, ip
 3102              		.loc 1 237 0
 3103 16f6 88EAB748 		eor	r8, r8, r7, ror #18
 3104              		.loc 1 236 0
 3105 16fa 4FEAB617 		ror	r7, r6, #6
 3106 16fe 8CEA090C 		eor	ip, ip, r9
 3107 1702 1144     		add	r1, r1, r2
 3108 1704 87EAF627 		eor	r7, r7, r6, ror #11
 3109 1708 01EB0C02 		add	r2, r1, ip
 3110 170c 87EA7667 		eor	r7, r7, r6, ror #25
 3111 1710 1744     		add	r7, r7, r2
 3112              	.LVL223:
 3113              		.loc 1 237 0
 3114 1712 88EAD408 		eor	r8, r8, r4, lsr #3
 3115 1716 039A     		ldr	r2, [sp, #12]
 3116 1718 0D9C     		ldr	r4, [sp, #52]
 3117              		.loc 1 236 0
 3118 171a 4FEABE01 		ror	r1, lr, #2
 3119 171e 4EEA0A0B 		orr	fp, lr, r10
 3120 1722 81EA7E31 		eor	r1, r1, lr, ror #13
 3121 1726 A044     		add	r8, r8, r4
 3122              		.loc 1 237 0
 3123 1728 4FEA7244 		ror	r4, r2, #17
 3124              		.loc 1 236 0
 3125 172c 81EABE5C 		eor	ip, r1, lr, ror #22
 3126 1730 0BEA000B 		and	fp, fp, r0
 3127 1734 0EEA0A01 		and	r1, lr, r10
 3128              		.loc 1 237 0
 3129 1738 84EAF244 		eor	r4, r4, r2, ror #19
 3130              		.loc 1 236 0
 3131 173c 4BEA0101 		orr	r1, fp, r1
ARM GAS  C:\Users\jo\AppData\Local\Temp\ccDsJqTW.s 			page 56


 3132              		.loc 1 237 0
 3133 1740 84EA922B 		eor	fp, r4, r2, lsr #10
 3134 1744 029A     		ldr	r2, [sp, #8]
 3135              		.loc 1 238 0
 3136 1746 0E9C     		ldr	r4, [sp, #56]
 3137 1748 9044     		add	r8, r8, r2
 3138              		.loc 1 236 0
 3139 174a 7A19     		adds	r2, r7, r5
 3140              	.LVL224:
 3141              		.loc 1 237 0
 3142 174c 08EB0B05 		add	r5, r8, fp
 3143 1750 0595     		str	r5, [sp, #20]
 3144 1752 059D     		ldr	r5, [sp, #20]
 3145              		.loc 1 236 0
 3146 1754 6144     		add	r1, r1, ip
 3147              	.LVL225:
 3148 1756 DFF84CC2 		ldr	ip, .L33+32
 3149 175a 3944     		add	r1, r1, r7
 3150              	.LVL226:
 3151              		.loc 1 237 0
 3152 175c 86EA0308 		eor	r8, r6, r3
 3153              		.loc 1 238 0
 3154 1760 4FEAF417 		ror	r7, r4, #7
 3155              	.LVL227:
 3156              		.loc 1 237 0
 3157 1764 02EA0808 		and	r8, r2, r8
 3158 1768 AC44     		add	ip, ip, r5
 3159              		.loc 1 238 0
 3160 176a 87EAB447 		eor	r7, r7, r4, ror #18
 3161 176e CC44     		add	ip, ip, r9
 3162              		.loc 1 237 0
 3163 1770 88EA030B 		eor	fp, r8, r3
 3164              		.loc 1 238 0
 3165 1774 87EAD407 		eor	r7, r7, r4, lsr #3
 3166 1778 049C     		ldr	r4, [sp, #16]
 3167 177a 0CEB0B08 		add	r8, ip, fp
 3168              		.loc 1 237 0
 3169 177e 4FEAB219 		ror	r9, r2, #6
 3170              	.LVL228:
 3171 1782 4FEAB10C 		ror	ip, r1, #2
 3172 1786 41EA0E05 		orr	r5, r1, lr
 3173 178a 2744     		add	r7, r7, r4
 3174 178c 8CEA713C 		eor	ip, ip, r1, ror #13
 3175              		.loc 1 238 0
 3176 1790 119C     		ldr	r4, [sp, #68]
 3177              		.loc 1 237 0
 3178 1792 89EAF229 		eor	r9, r9, r2, ror #11
 3179 1796 8CEAB15B 		eor	fp, ip, r1, ror #22
 3180 179a 05EA0A05 		and	r5, r5, r10
 3181 179e 01EA0E0C 		and	ip, r1, lr
 3182 17a2 89EA7269 		eor	r9, r9, r2, ror #25
 3183 17a6 C144     		add	r9, r9, r8
 3184              	.LVL229:
 3185 17a8 45EA0C0C 		orr	ip, r5, ip
 3186              		.loc 1 238 0
 3187 17ac 4FEA7448 		ror	r8, r4, #17
 3188 17b0 099D     		ldr	r5, [sp, #36]
ARM GAS  C:\Users\jo\AppData\Local\Temp\ccDsJqTW.s 			page 57


 3189 17b2 88EAF448 		eor	r8, r8, r4, ror #19
 3190 17b6 7D19     		adds	r5, r7, r5
 3191 17b8 88EA9428 		eor	r8, r8, r4, lsr #10
 3192 17bc 05EB0804 		add	r4, r5, r8
 3193 17c0 0D94     		str	r4, [sp, #52]
 3194              		.loc 1 239 0
 3195 17c2 0F9D     		ldr	r5, [sp, #60]
 3196 17c4 0D9C     		ldr	r4, [sp, #52]
 3197 17c6 724F     		ldr	r7, .L33+12
 3198              		.loc 1 237 0
 3199 17c8 DC44     		add	ip, ip, fp
 3200              	.LVL230:
 3201 17ca 4844     		add	r0, r0, r9
 3202              	.LVL231:
 3203 17cc CC44     		add	ip, ip, r9
 3204              	.LVL232:
 3205              		.loc 1 239 0
 3206 17ce 4FEAF51B 		ror	fp, r5, #7
 3207              		.loc 1 238 0
 3208 17d2 82EA0609 		eor	r9, r2, r6
 3209              	.LVL233:
 3210 17d6 2744     		add	r7, r7, r4
 3211              		.loc 1 239 0
 3212 17d8 8BEAB54B 		eor	fp, fp, r5, ror #18
 3213 17dc 0E9C     		ldr	r4, [sp, #56]
 3214              		.loc 1 238 0
 3215 17de 00EA0909 		and	r9, r0, r9
 3216 17e2 4FEAB018 		ror	r8, r0, #6
 3217 17e6 89EA0609 		eor	r9, r9, r6
 3218 17ea 3B44     		add	r3, r3, r7
 3219              	.LVL234:
 3220 17ec 88EAF028 		eor	r8, r8, r0, ror #11
 3221              		.loc 1 239 0
 3222 17f0 8BEAD507 		eor	r7, fp, r5, lsr #3
 3223 17f4 4B44     		add	r3, r3, r9
 3224              		.loc 1 238 0
 3225 17f6 4CEA010B 		orr	fp, ip, r1
 3226 17fa 88EA7068 		eor	r8, r8, r0, ror #25
 3227 17fe 2744     		add	r7, r7, r4
 3228              		.loc 1 239 0
 3229 1800 059C     		ldr	r4, [sp, #20]
 3230 1802 0B9D     		ldr	r5, [sp, #44]
 3231              		.loc 1 238 0
 3232 1804 9844     		add	r8, r8, r3
 3233              	.LVL235:
 3234 1806 0BEA0E0B 		and	fp, fp, lr
 3235 180a 0CEA0103 		and	r3, ip, r1
 3236 180e 4FEABC09 		ror	r9, ip, #2
 3237 1812 89EA7C39 		eor	r9, r9, ip, ror #13
 3238 1816 4BEA030B 		orr	fp, fp, r3
 3239              		.loc 1 239 0
 3240 181a 4FEA7443 		ror	r3, r4, #17
 3241              		.loc 1 238 0
 3242 181e 89EABC59 		eor	r9, r9, ip, ror #22
 3243              		.loc 1 239 0
 3244 1822 83EAF443 		eor	r3, r3, r4, ror #19
 3245              		.loc 1 238 0
ARM GAS  C:\Users\jo\AppData\Local\Temp\ccDsJqTW.s 			page 58


 3246 1826 CB44     		add	fp, fp, r9
 3247              	.LVL236:
 3248              		.loc 1 239 0
 3249 1828 83EA9429 		eor	r9, r3, r4, lsr #10
 3250              		.loc 1 240 0
 3251 182c 109C     		ldr	r4, [sp, #64]
 3252 182e 594B     		ldr	r3, .L33+16
 3253 1830 2F44     		add	r7, r7, r5
 3254              		.loc 1 238 0
 3255 1832 C244     		add	r10, r10, r8
 3256              	.LVL237:
 3257 1834 C344     		add	fp, fp, r8
 3258              	.LVL238:
 3259              		.loc 1 239 0
 3260 1836 07EB0908 		add	r8, r7, r9
 3261              	.LVL239:
 3262              		.loc 1 240 0
 3263 183a 4FEAF417 		ror	r7, r4, #7
 3264              		.loc 1 239 0
 3265 183e 80EA0209 		eor	r9, r0, r2
 3266              		.loc 1 240 0
 3267 1842 87EAB447 		eor	r7, r7, r4, ror #18
 3268 1846 CDF83880 		str	r8, [sp, #56]
 3269 184a 4344     		add	r3, r3, r8
 3270              		.loc 1 239 0
 3271 184c 0AEA0909 		and	r9, r10, r9
 3272 1850 4FEABA18 		ror	r8, r10, #6
 3273              		.loc 1 240 0
 3274 1854 87EAD407 		eor	r7, r7, r4, lsr #3
 3275 1858 0F9C     		ldr	r4, [sp, #60]
 3276 185a 0A9D     		ldr	r5, [sp, #40]
 3277 185c 1E44     		add	r6, r6, r3
 3278              	.LVL240:
 3279              		.loc 1 239 0
 3280 185e 89EA0203 		eor	r3, r9, r2
 3281 1862 88EAFA29 		eor	r9, r8, r10, ror #11
 3282 1866 3344     		add	r3, r3, r6
 3283 1868 89EA7A68 		eor	r8, r9, r10, ror #25
 3284 186c 4BEA0C06 		orr	r6, fp, ip
 3285 1870 2744     		add	r7, r7, r4
 3286              		.loc 1 240 0
 3287 1872 0D9C     		ldr	r4, [sp, #52]
 3288              		.loc 1 239 0
 3289 1874 9844     		add	r8, r8, r3
 3290              	.LVL241:
 3291 1876 0E40     		ands	r6, r6, r1
 3292 1878 0BEA0C03 		and	r3, fp, ip
 3293 187c 4FEABB09 		ror	r9, fp, #2
 3294 1880 89EA7B39 		eor	r9, r9, fp, ror #13
 3295 1884 1E43     		orrs	r6, r6, r3
 3296              		.loc 1 240 0
 3297 1886 4FEA7443 		ror	r3, r4, #17
 3298              		.loc 1 239 0
 3299 188a 89EABB59 		eor	r9, r9, fp, ror #22
 3300              		.loc 1 240 0
 3301 188e 83EAF443 		eor	r3, r3, r4, ror #19
 3302 1892 2F44     		add	r7, r7, r5
ARM GAS  C:\Users\jo\AppData\Local\Temp\ccDsJqTW.s 			page 59


 3303              		.loc 1 239 0
 3304 1894 4E44     		add	r6, r6, r9
 3305              	.LVL242:
 3306              		.loc 1 240 0
 3307 1896 83EA9429 		eor	r9, r3, r4, lsr #10
 3308              		.loc 1 239 0
 3309 189a 4644     		add	r6, r6, r8
 3310              	.LVL243:
 3311 189c C644     		add	lr, lr, r8
 3312              	.LVL244:
 3313 189e 3E4B     		ldr	r3, .L33+20
 3314              		.loc 1 241 0
 3315 18a0 069C     		ldr	r4, [sp, #24]
 3316              		.loc 1 240 0
 3317 18a2 07EB0908 		add	r8, r7, r9
 3318              	.LVL245:
 3319 18a6 4546     		mov	r5, r8
 3320 18a8 8AEA0008 		eor	r8, r10, r0
 3321 18ac 2B44     		add	r3, r3, r5
 3322 18ae 0EEA0808 		and	r8, lr, r8
 3323 18b2 4FEABE19 		ror	r9, lr, #6
 3324 18b6 88EA0008 		eor	r8, r8, r0
 3325 18ba 1344     		add	r3, r3, r2
 3326 18bc 89EAFE29 		eor	r9, r9, lr, ror #11
 3327 18c0 0F95     		str	r5, [sp, #60]
 3328 18c2 03EB0802 		add	r2, r3, r8
 3329              	.LVL246:
 3330              		.loc 1 241 0
 3331 18c6 0E9D     		ldr	r5, [sp, #56]
 3332              		.loc 1 240 0
 3333 18c8 46EA0B03 		orr	r3, r6, fp
 3334 18cc 89EA7E69 		eor	r9, r9, lr, ror #25
 3335 18d0 9144     		add	r9, r9, r2
 3336              	.LVL247:
 3337              		.loc 1 241 0
 3338 18d2 4FEAF417 		ror	r7, r4, #7
 3339              		.loc 1 240 0
 3340 18d6 06EA0B02 		and	r2, r6, fp
 3341 18da 03EA0C03 		and	r3, r3, ip
 3342 18de 4FEAB608 		ror	r8, r6, #2
 3343              		.loc 1 241 0
 3344 18e2 87EAB447 		eor	r7, r7, r4, ror #18
 3345              		.loc 1 240 0
 3346 18e6 88EA7638 		eor	r8, r8, r6, ror #13
 3347 18ea 1343     		orrs	r3, r3, r2
 3348              		.loc 1 241 0
 3349 18ec 4FEA7542 		ror	r2, r5, #17
 3350              		.loc 1 240 0
 3351 18f0 88EAB658 		eor	r8, r8, r6, ror #22
 3352              		.loc 1 241 0
 3353 18f4 82EAF542 		eor	r2, r2, r5, ror #19
 3354 18f8 87EAD407 		eor	r7, r7, r4, lsr #3
 3355 18fc 109C     		ldr	r4, [sp, #64]
 3356              		.loc 1 240 0
 3357 18fe 4344     		add	r3, r3, r8
 3358              	.LVL248:
 3359              		.loc 1 241 0
ARM GAS  C:\Users\jo\AppData\Local\Temp\ccDsJqTW.s 			page 60


 3360 1900 82EA9528 		eor	r8, r2, r5, lsr #10
 3361 1904 0C9D     		ldr	r5, [sp, #48]
 3362 1906 254A     		ldr	r2, .L33+24
 3363 1908 2744     		add	r7, r7, r4
 3364 190a 2F44     		add	r7, r7, r5
 3365 190c B844     		add	r8, r7, r8
 3366              		.loc 1 242 0
 3367 190e 079C     		ldr	r4, [sp, #28]
 3368              		.loc 1 241 0
 3369 1910 4546     		mov	r5, r8
 3370              		.loc 1 240 0
 3371 1912 4944     		add	r1, r1, r9
 3372              	.LVL249:
 3373 1914 1095     		str	r5, [sp, #64]
 3374              		.loc 1 241 0
 3375 1916 8EEA0A07 		eor	r7, lr, r10
 3376 191a 2A44     		add	r2, r2, r5
 3377              		.loc 1 242 0
 3378 191c 079D     		ldr	r5, [sp, #28]
 3379              		.loc 1 240 0
 3380 191e 4B44     		add	r3, r3, r9
 3381              	.LVL250:
 3382              		.loc 1 242 0
 3383 1920 4FEAF418 		ror	r8, r4, #7
 3384              		.loc 1 241 0
 3385 1924 0F40     		ands	r7, r7, r1
 3386 1926 4FEAB119 		ror	r9, r1, #6
 3387              	.LVL251:
 3388 192a 87EA0A07 		eor	r7, r7, r10
 3389              		.loc 1 242 0
 3390 192e 88EAB548 		eor	r8, r8, r5, ror #18
 3391 1932 0244     		add	r2, r2, r0
 3392              		.loc 1 241 0
 3393 1934 89EAF129 		eor	r9, r9, r1, ror #11
 3394 1938 D019     		adds	r0, r2, r7
 3395              	.LVL252:
 3396              		.loc 1 242 0
 3397 193a 88EAD508 		eor	r8, r8, r5, lsr #3
 3398              		.loc 1 241 0
 3399 193e 43EA0602 		orr	r2, r3, r6
 3400              		.loc 1 242 0
 3401 1942 0F9D     		ldr	r5, [sp, #60]
 3402 1944 069C     		ldr	r4, [sp, #24]
 3403              		.loc 1 241 0
 3404 1946 89EA7169 		eor	r9, r9, r1, ror #25
 3405 194a 8144     		add	r9, r9, r0
 3406              	.LVL253:
 3407 194c 02EA0B02 		and	r2, r2, fp
 3408 1950 03EA0600 		and	r0, r3, r6
 3409 1954 4FEAB307 		ror	r7, r3, #2
 3410 1958 87EA7337 		eor	r7, r7, r3, ror #13
 3411 195c 0243     		orrs	r2, r2, r0
 3412              		.loc 1 242 0
 3413 195e 4FEA7540 		ror	r0, r5, #17
 3414              		.loc 1 241 0
 3415 1962 87EAB357 		eor	r7, r7, r3, ror #22
 3416              		.loc 1 242 0
ARM GAS  C:\Users\jo\AppData\Local\Temp\ccDsJqTW.s 			page 61


 3417 1966 80EAF540 		eor	r0, r0, r5, ror #19
 3418              		.loc 1 241 0
 3419 196a 3A44     		add	r2, r2, r7
 3420              	.LVL254:
 3421              		.loc 1 242 0
 3422 196c 80EA9527 		eor	r7, r0, r5, lsr #10
 3423 1970 0398     		ldr	r0, [sp, #12]
 3424 1972 A044     		add	r8, r8, r4
 3425 1974 8044     		add	r8, r8, r0
 3426 1976 B844     		add	r8, r8, r7
 3427 1978 0948     		ldr	r0, .L33+28
 3428              		.loc 1 243 0
 3429 197a 089C     		ldr	r4, [sp, #32]
 3430              		.loc 1 241 0
 3431 197c CC44     		add	ip, ip, r9
 3432              	.LVL255:
 3433              		.loc 1 242 0
 3434 197e 4546     		mov	r5, r8
 3435 1980 12E0     		b	.L34
 3436              	.L35:
 3437 1982 00BF     		.align	2
 3438              	.L33:
 3439 1984 85350EF4 		.word	-200395387
 3440 1988 70A06A10 		.word	275423344
 3441 198c 16C1A419 		.word	430227734
 3442 1990 4C774827 		.word	659060556
 3443 1994 B5BCB034 		.word	883997877
 3444 1998 B30C1C39 		.word	958139571
 3445 199c 4AAAD84E 		.word	1322822218
 3446 19a0 4FCA9C5B 		.word	1537002063
 3447 19a4 086C371E 		.word	506948616
 3448              	.L34:
 3449 19a8 81EA0E08 		eor	r8, r1, lr
 3450              		.loc 1 241 0
 3451 19ac 4A44     		add	r2, r2, r9
 3452              	.LVL256:
 3453 19ae 2844     		add	r0, r0, r5
 3454              		.loc 1 242 0
 3455 19b0 0CEA0808 		and	r8, ip, r8
 3456 19b4 4FEABC19 		ror	r9, ip, #6
 3457              	.LVL257:
 3458 19b8 88EA0E08 		eor	r8, r8, lr
 3459 19bc 5044     		add	r0, r0, r10
 3460 19be 89EAFC29 		eor	r9, r9, ip, ror #11
 3461 19c2 1295     		str	r5, [sp, #72]
 3462 19c4 00EB080A 		add	r10, r0, r8
 3463              	.LVL258:
 3464              		.loc 1 243 0
 3465 19c8 109D     		ldr	r5, [sp, #64]
 3466              		.loc 1 242 0
 3467 19ca 42EA0300 		orr	r0, r2, r3
 3468 19ce 89EA7C69 		eor	r9, r9, ip, ror #25
 3469 19d2 D144     		add	r9, r9, r10
 3470              	.LVL259:
 3471              		.loc 1 243 0
 3472 19d4 4FEAF417 		ror	r7, r4, #7
 3473              		.loc 1 242 0
ARM GAS  C:\Users\jo\AppData\Local\Temp\ccDsJqTW.s 			page 62


 3474 19d8 02EA030A 		and	r10, r2, r3
 3475 19dc 3040     		ands	r0, r0, r6
 3476 19de 4FEAB208 		ror	r8, r2, #2
 3477              		.loc 1 243 0
 3478 19e2 87EAB447 		eor	r7, r7, r4, ror #18
 3479              		.loc 1 242 0
 3480 19e6 88EA7238 		eor	r8, r8, r2, ror #13
 3481 19ea 40EA0A00 		orr	r0, r0, r10
 3482              		.loc 1 243 0
 3483 19ee 4FEA754A 		ror	r10, r5, #17
 3484              		.loc 1 242 0
 3485 19f2 88EAB258 		eor	r8, r8, r2, ror #22
 3486              		.loc 1 243 0
 3487 19f6 8AEAF54A 		eor	r10, r10, r5, ror #19
 3488 19fa 87EAD407 		eor	r7, r7, r4, lsr #3
 3489 19fe 079C     		ldr	r4, [sp, #28]
 3490              		.loc 1 242 0
 3491 1a00 4044     		add	r0, r0, r8
 3492              	.LVL260:
 3493              		.loc 1 243 0
 3494 1a02 8AEA9528 		eor	r8, r10, r5, lsr #10
 3495 1a06 119D     		ldr	r5, [sp, #68]
 3496 1a08 DFF8E4A3 		ldr	r10, .L36+24
 3497 1a0c 2744     		add	r7, r7, r4
 3498 1a0e 2F44     		add	r7, r7, r5
 3499 1a10 B844     		add	r8, r7, r8
 3500              		.loc 1 242 0
 3501 1a12 CB44     		add	fp, fp, r9
 3502              	.LVL261:
 3503              		.loc 1 243 0
 3504 1a14 4546     		mov	r5, r8
 3505              		.loc 1 244 0
 3506 1a16 019C     		ldr	r4, [sp, #4]
 3507 1a18 0795     		str	r5, [sp, #28]
 3508              		.loc 1 243 0
 3509 1a1a 8CEA0107 		eor	r7, ip, r1
 3510              		.loc 1 242 0
 3511 1a1e 4844     		add	r0, r0, r9
 3512              	.LVL262:
 3513 1a20 AA44     		add	r10, r10, r5
 3514              		.loc 1 243 0
 3515 1a22 0BEA0707 		and	r7, fp, r7
 3516              		.loc 1 244 0
 3517 1a26 019D     		ldr	r5, [sp, #4]
 3518              		.loc 1 243 0
 3519 1a28 4FEABB19 		ror	r9, fp, #6
 3520              	.LVL263:
 3521 1a2c 4F40     		eors	r7, r7, r1
 3522              		.loc 1 244 0
 3523 1a2e 4FEAF418 		ror	r8, r4, #7
 3524 1a32 D644     		add	lr, lr, r10
 3525              	.LVL264:
 3526              		.loc 1 243 0
 3527 1a34 89EAFB29 		eor	r9, r9, fp, ror #11
 3528 1a38 0EEB070A 		add	r10, lr, r7
 3529              		.loc 1 244 0
 3530 1a3c 88EAB548 		eor	r8, r8, r5, ror #18
ARM GAS  C:\Users\jo\AppData\Local\Temp\ccDsJqTW.s 			page 63


 3531              		.loc 1 243 0
 3532 1a40 40EA020E 		orr	lr, r0, r2
 3533 1a44 89EA7B69 		eor	r9, r9, fp, ror #25
 3534 1a48 4FEAB007 		ror	r7, r0, #2
 3535 1a4c D144     		add	r9, r9, r10
 3536              	.LVL265:
 3537              		.loc 1 244 0
 3538 1a4e 88EAD508 		eor	r8, r8, r5, lsr #3
 3539              		.loc 1 243 0
 3540 1a52 00EA020A 		and	r10, r0, r2
 3541              		.loc 1 244 0
 3542 1a56 129D     		ldr	r5, [sp, #72]
 3543 1a58 089C     		ldr	r4, [sp, #32]
 3544              		.loc 1 243 0
 3545 1a5a 0EEA030E 		and	lr, lr, r3
 3546 1a5e 87EA7037 		eor	r7, r7, r0, ror #13
 3547 1a62 87EAB057 		eor	r7, r7, r0, ror #22
 3548 1a66 4EEA0A0E 		orr	lr, lr, r10
 3549 1a6a BE44     		add	lr, lr, r7
 3550              	.LVL266:
 3551              		.loc 1 244 0
 3552 1a6c 4FEA754A 		ror	r10, r5, #17
 3553 1a70 059F     		ldr	r7, [sp, #20]
 3554 1a72 A044     		add	r8, r8, r4
 3555 1a74 8AEAF54A 		eor	r10, r10, r5, ror #19
 3556 1a78 B844     		add	r8, r8, r7
 3557 1a7a 8AEA952A 		eor	r10, r10, r5, lsr #10
 3558              		.loc 1 243 0
 3559 1a7e 4E44     		add	r6, r6, r9
 3560 1a80 CE44     		add	lr, lr, r9
 3561              	.LVL267:
 3562 1a82 0496     		str	r6, [sp, #16]
 3563              	.LVL268:
 3564              		.loc 1 245 0
 3565 1a84 029D     		ldr	r5, [sp, #8]
 3566 1a86 D44F     		ldr	r7, .L36
 3567 1a88 D44C     		ldr	r4, .L36+4
 3568              		.loc 1 243 0
 3569 1a8a 7646     		mov	r6, lr
 3570              	.LVL269:
 3571              		.loc 1 244 0
 3572 1a8c 08EB0A0E 		add	lr, r8, r10
 3573 1a90 CDF818E0 		str	lr, [sp, #24]
 3574              		.loc 1 245 0
 3575 1a94 4FEAF51E 		ror	lr, r5, #7
 3576 1a98 069D     		ldr	r5, [sp, #24]
 3577              		.loc 1 244 0
 3578 1a9a 0896     		str	r6, [sp, #32]
 3579 1a9c 2F44     		add	r7, r7, r5
 3580 1a9e 049D     		ldr	r5, [sp, #16]
 3581 1aa0 8BEA0C08 		eor	r8, fp, ip
 3582 1aa4 05EA0808 		and	r8, r5, r8
 3583              		.loc 1 245 0
 3584 1aa8 029D     		ldr	r5, [sp, #8]
 3585 1aaa A946     		mov	r9, r5
 3586              	.LVL270:
 3587 1aac 8EEAB54E 		eor	lr, lr, r5, ror #18
ARM GAS  C:\Users\jo\AppData\Local\Temp\ccDsJqTW.s 			page 64


 3588              		.loc 1 244 0
 3589 1ab0 049D     		ldr	r5, [sp, #16]
 3590 1ab2 4FEAB51A 		ror	r10, r5, #6
 3591 1ab6 3944     		add	r1, r1, r7
 3592              	.LVL271:
 3593 1ab8 8AEAF52A 		eor	r10, r10, r5, ror #11
 3594 1abc 2F46     		mov	r7, r5
 3595 1abe 8AEA776A 		eor	r10, r10, r7, ror #25
 3596 1ac2 019F     		ldr	r7, [sp, #4]
 3597              		.loc 1 245 0
 3598 1ac4 079D     		ldr	r5, [sp, #28]
 3599 1ac6 8EEAD90E 		eor	lr, lr, r9, lsr #3
 3600              		.loc 1 244 0
 3601 1aca 88EA0C08 		eor	r8, r8, ip
 3602 1ace BE44     		add	lr, lr, r7
 3603 1ad0 4FEAB607 		ror	r7, r6, #2
 3604 1ad4 87EA7637 		eor	r7, r7, r6, ror #13
 3605 1ad8 4144     		add	r1, r1, r8
 3606 1ada 46EA0008 		orr	r8, r6, r0
 3607 1ade 87EAB659 		eor	r9, r7, r6, ror #22
 3608 1ae2 08EA0208 		and	r8, r8, r2
 3609 1ae6 06EA0007 		and	r7, r6, r0
 3610 1aea 48EA0707 		orr	r7, r8, r7
 3611              		.loc 1 245 0
 3612 1aee 4FEA7548 		ror	r8, r5, #17
 3613              		.loc 1 244 0
 3614 1af2 5144     		add	r1, r1, r10
 3615              	.LVL272:
 3616              		.loc 1 245 0
 3617 1af4 2E46     		mov	r6, r5
 3618              	.LVL273:
 3619              		.loc 1 244 0
 3620 1af6 4F44     		add	r7, r7, r9
 3621              	.LVL274:
 3622              		.loc 1 245 0
 3623 1af8 88EAF548 		eor	r8, r8, r5, ror #19
 3624 1afc 0D9D     		ldr	r5, [sp, #52]
 3625              		.loc 1 244 0
 3626 1afe 0B44     		add	r3, r3, r1
 3627              	.LVL275:
 3628 1b00 7918     		adds	r1, r7, r1
 3629              	.LVL276:
 3630              		.loc 1 245 0
 3631 1b02 88EA9628 		eor	r8, r8, r6, lsr #10
 3632 1b06 7544     		add	r5, r5, lr
 3633              		.loc 1 244 0
 3634 1b08 0E46     		mov	r6, r1
 3635              	.LVL277:
 3636              		.loc 1 245 0
 3637 1b0a 0499     		ldr	r1, [sp, #16]
 3638              	.LVL278:
 3639              		.loc 1 246 0
 3640 1b0c 099F     		ldr	r7, [sp, #36]
 3641              	.LVL279:
 3642              		.loc 1 245 0
 3643 1b0e 0596     		str	r6, [sp, #20]
 3644 1b10 4544     		add	r5, r5, r8
ARM GAS  C:\Users\jo\AppData\Local\Temp\ccDsJqTW.s 			page 65


 3645 1b12 B046     		mov	r8, r6
 3646 1b14 089E     		ldr	r6, [sp, #32]
 3647              	.LVL280:
 3648 1b16 81EA0B01 		eor	r1, r1, fp
 3649 1b1a 2C44     		add	r4, r4, r5
 3650 1b1c 1940     		ands	r1, r1, r3
 3651 1b1e 48EA0609 		orr	r9, r8, r6
 3652              		.loc 1 246 0
 3653 1b22 4FEAF71E 		ror	lr, r7, #7
 3654              		.loc 1 245 0
 3655 1b26 4646     		mov	r6, r8
 3656 1b28 4FEAB808 		ror	r8, r8, #2
 3657              	.LVL281:
 3658              		.loc 1 246 0
 3659 1b2c 8EEAB74E 		eor	lr, lr, r7, ror #18
 3660              		.loc 1 245 0
 3661 1b30 88EA7638 		eor	r8, r8, r6, ror #13
 3662 1b34 04EB0C07 		add	r7, r4, ip
 3663 1b38 81EA0B04 		eor	r4, r1, fp
 3664 1b3c B446     		mov	ip, r6
 3665              	.LVL282:
 3666              		.loc 1 246 0
 3667 1b3e 0999     		ldr	r1, [sp, #36]
 3668              		.loc 1 245 0
 3669 1b40 089E     		ldr	r6, [sp, #32]
 3670              	.LVL283:
 3671 1b42 09EA0009 		and	r9, r9, r0
 3672              		.loc 1 246 0
 3673 1b46 8EEAD10E 		eor	lr, lr, r1, lsr #3
 3674              		.loc 1 245 0
 3675 1b4a 0CEA0601 		and	r1, ip, r6
 3676 1b4e 059E     		ldr	r6, [sp, #20]
 3677 1b50 49EA0109 		orr	r9, r9, r1
 3678              		.loc 1 246 0
 3679 1b54 0699     		ldr	r1, [sp, #24]
 3680              		.loc 1 245 0
 3681 1b56 88EAB658 		eor	r8, r8, r6, ror #22
 3682              		.loc 1 246 0
 3683 1b5a 069E     		ldr	r6, [sp, #24]
 3684 1b5c 3C44     		add	r4, r4, r7
 3685 1b5e 4FEA7147 		ror	r7, r1, #17
 3686 1b62 87EAF647 		eor	r7, r7, r6, ror #19
 3687              		.loc 1 245 0
 3688 1b66 4FEAB31A 		ror	r10, r3, #6
 3689              		.loc 1 246 0
 3690 1b6a 87EA9627 		eor	r7, r7, r6, lsr #10
 3691 1b6e 9C4E     		ldr	r6, .L36+8
 3692 1b70 0D96     		str	r6, [sp, #52]
 3693              		.loc 1 245 0
 3694 1b72 8AEAF32A 		eor	r10, r10, r3, ror #11
 3695 1b76 9B4E     		ldr	r6, .L36+12
 3696 1b78 0299     		ldr	r1, [sp, #8]
 3697 1b7a 8AEA736C 		eor	ip, r10, r3, ror #25
 3698              	.LVL284:
 3699 1b7e A444     		add	ip, ip, r4
 3700              	.LVL285:
 3701 1b80 0E9C     		ldr	r4, [sp, #56]
ARM GAS  C:\Users\jo\AppData\Local\Temp\ccDsJqTW.s 			page 66


 3702 1b82 0E96     		str	r6, [sp, #56]
 3703 1b84 06F19C56 		add	r6, r6, #327155712
 3704 1b88 8E44     		add	lr, lr, r1
 3705 1b8a 06F58B16 		add	r6, r6, #1138688
 3706 1b8e 09EB0801 		add	r1, r9, r8
 3707              	.LVL286:
 3708 1b92 A644     		add	lr, lr, r4
 3709 1b94 6144     		add	r1, r1, ip
 3710              	.LVL287:
 3711 1b96 06F6F146 		addw	r6, r6, #3313
 3712 1b9a 934C     		ldr	r4, .L36+16
 3713 1b9c 0191     		str	r1, [sp, #4]
 3714              		.loc 1 246 0
 3715 1b9e 7744     		add	r7, r7, lr
 3716              		.loc 1 247 0
 3717 1ba0 0B99     		ldr	r1, [sp, #44]
 3718 1ba2 1396     		str	r6, [sp, #76]
 3719              		.loc 1 246 0
 3720 1ba4 049E     		ldr	r6, [sp, #16]
 3721 1ba6 3C44     		add	r4, r4, r7
 3722              		.loc 1 245 0
 3723 1ba8 6244     		add	r2, r2, ip
 3724              	.LVL288:
 3725              		.loc 1 246 0
 3726 1baa 83EA0609 		eor	r9, r3, r6
 3727 1bae 04EB0B08 		add	r8, r4, fp
 3728              		.loc 1 247 0
 3729 1bb2 4FEAF11E 		ror	lr, r1, #7
 3730              		.loc 1 246 0
 3731 1bb6 049C     		ldr	r4, [sp, #16]
 3732 1bb8 089E     		ldr	r6, [sp, #32]
 3733 1bba 02EA090A 		and	r10, r2, r9
 3734              		.loc 1 247 0
 3735 1bbe 8EEAB14E 		eor	lr, lr, r1, ror #18
 3736              		.loc 1 246 0
 3737 1bc2 8AEA0409 		eor	r9, r10, r4
 3738              		.loc 1 247 0
 3739 1bc6 8EEAD10E 		eor	lr, lr, r1, lsr #3
 3740              		.loc 1 246 0
 3741 1bca 019C     		ldr	r4, [sp, #4]
 3742 1bcc 0599     		ldr	r1, [sp, #20]
 3743 1bce 44EA010B 		orr	fp, r4, r1
 3744              	.LVL289:
 3745 1bd2 099C     		ldr	r4, [sp, #36]
 3746 1bd4 A644     		add	lr, lr, r4
 3747 1bd6 019C     		ldr	r4, [sp, #4]
 3748 1bd8 4FEAB21C 		ror	ip, r2, #6
 3749              	.LVL290:
 3750 1bdc C144     		add	r9, r9, r8
 3751 1bde 4FEAB408 		ror	r8, r4, #2
 3752 1be2 8CEAF22A 		eor	r10, ip, r2, ror #11
 3753 1be6 88EA7438 		eor	r8, r8, r4, ror #13
 3754 1bea 8AEA726C 		eor	ip, r10, r2, ror #25
 3755 1bee 88EAB45A 		eor	r10, r8, r4, ror #22
 3756 1bf2 0C46     		mov	r4, r1
 3757 1bf4 0199     		ldr	r1, [sp, #4]
 3758 1bf6 0BEA060B 		and	fp, fp, r6
ARM GAS  C:\Users\jo\AppData\Local\Temp\ccDsJqTW.s 			page 67


 3759 1bfa 0F9E     		ldr	r6, [sp, #60]
 3760 1bfc CC44     		add	ip, ip, r9
 3761              	.LVL291:
 3762 1bfe 01EA0408 		and	r8, r1, r4
 3763              		.loc 1 247 0
 3764 1c02 4FEA7544 		ror	r4, r5, #17
 3765 1c06 B644     		add	lr, lr, r6
 3766 1c08 84EAF544 		eor	r4, r4, r5, ror #19
 3767              		.loc 1 246 0
 3768 1c0c 00EB0C06 		add	r6, r0, ip
 3769 1c10 0296     		str	r6, [sp, #8]
 3770              	.LVL292:
 3771              		.loc 1 247 0
 3772 1c12 84EA9524 		eor	r4, r4, r5, lsr #10
 3773 1c16 0D9E     		ldr	r6, [sp, #52]
 3774 1c18 0198     		ldr	r0, [sp, #4]
 3775 1c1a 04EB0E01 		add	r1, r4, lr
 3776              		.loc 1 246 0
 3777 1c1e 4BEA0808 		orr	r8, fp, r8
 3778 1c22 D044     		add	r8, r8, r10
 3779 1c24 0E44     		add	r6, r6, r1
 3780 1c26 C444     		add	ip, r8, ip
 3781              	.LVL293:
 3782 1c28 0D96     		str	r6, [sp, #52]
 3783              		.loc 1 247 0
 3784 1c2a 4CEA000A 		orr	r10, ip, r0
 3785 1c2e 0D98     		ldr	r0, [sp, #52]
 3786 1c30 029E     		ldr	r6, [sp, #8]
 3787              		.loc 1 248 0
 3788 1c32 0A9C     		ldr	r4, [sp, #40]
 3789 1c34 0F91     		str	r1, [sp, #60]
 3790 1c36 8146     		mov	r9, r0
 3791              	.LVL294:
 3792 1c38 0498     		ldr	r0, [sp, #16]
 3793              		.loc 1 247 0
 3794 1c3a 82EA0305 		eor	r5, r2, r3
 3795 1c3e 4844     		add	r0, r0, r9
 3796 1c40 3540     		ands	r5, r5, r6
 3797 1c42 4FEAB61E 		ror	lr, r6, #6
 3798 1c46 0646     		mov	r6, r0
 3799 1c48 0298     		ldr	r0, [sp, #8]
 3800 1c4a 8EEAF02E 		eor	lr, lr, r0, ror #11
 3801 1c4e 0598     		ldr	r0, [sp, #20]
 3802 1c50 5D40     		eors	r5, r5, r3
 3803              		.loc 1 248 0
 3804 1c52 4FEAF418 		ror	r8, r4, #7
 3805              		.loc 1 247 0
 3806 1c56 0AEA000A 		and	r10, r10, r0
 3807              		.loc 1 248 0
 3808 1c5a 88EAB448 		eor	r8, r8, r4, ror #18
 3809              		.loc 1 247 0
 3810 1c5e 0198     		ldr	r0, [sp, #4]
 3811 1c60 2E44     		add	r6, r6, r5
 3812 1c62 0B9D     		ldr	r5, [sp, #44]
 3813 1c64 6146     		mov	r1, ip
 3814              		.loc 1 248 0
 3815 1c66 88EAD408 		eor	r8, r8, r4, lsr #3
ARM GAS  C:\Users\jo\AppData\Local\Temp\ccDsJqTW.s 			page 68


 3816              		.loc 1 247 0
 3817 1c6a 4FEAB10C 		ror	ip, r1, #2
 3818              	.LVL295:
 3819 1c6e 029C     		ldr	r4, [sp, #8]
 3820              		.loc 1 248 0
 3821 1c70 0991     		str	r1, [sp, #36]
 3822 1c72 A844     		add	r8, r8, r5
 3823 1c74 109D     		ldr	r5, [sp, #64]
 3824              		.loc 1 247 0
 3825 1c76 01EA0009 		and	r9, r1, r0
 3826 1c7a 8CEA713C 		eor	ip, ip, r1, ror #13
 3827              		.loc 1 248 0
 3828 1c7e 4FEA774B 		ror	fp, r7, #17
 3829              		.loc 1 247 0
 3830 1c82 8EEA746E 		eor	lr, lr, r4, ror #25
 3831 1c86 8CEAB15C 		eor	ip, ip, r1, ror #22
 3832 1c8a A844     		add	r8, r8, r5
 3833 1c8c 4AEA0909 		orr	r9, r10, r9
 3834 1c90 089D     		ldr	r5, [sp, #32]
 3835              		.loc 1 248 0
 3836 1c92 8BEAF74B 		eor	fp, fp, r7, ror #19
 3837              		.loc 1 247 0
 3838 1c96 7644     		add	r6, r6, lr
 3839              	.LVL296:
 3840 1c98 E144     		add	r9, r9, ip
 3841              	.LVL297:
 3842              		.loc 1 248 0
 3843 1c9a 8BEA972B 		eor	fp, fp, r7, lsr #10
 3844              		.loc 1 247 0
 3845 1c9e 06EB050E 		add	lr, r6, r5
 3846              	.LVL298:
 3847              		.loc 1 248 0
 3848 1ca2 08EB0B0C 		add	ip, r8, fp
 3849              		.loc 1 247 0
 3850 1ca6 09EB0605 		add	r5, r9, r6
 3851              	.LVL299:
 3852 1caa 0E9E     		ldr	r6, [sp, #56]
 3853              	.LVL300:
 3854              		.loc 1 248 0
 3855 1cac 0495     		str	r5, [sp, #16]
 3856              	.LVL301:
 3857 1cae 6046     		mov	r0, ip
 3858 1cb0 8619     		adds	r6, r0, r6
 3859 1cb2 0E96     		str	r6, [sp, #56]
 3860 1cb4 0B90     		str	r0, [sp, #44]
 3861 1cb6 0E98     		ldr	r0, [sp, #56]
 3862 1cb8 84EA0208 		eor	r8, r4, r2
 3863 1cbc 0344     		add	r3, r3, r0
 3864              	.LVL302:
 3865              		.loc 1 249 0
 3866 1cbe 0C9C     		ldr	r4, [sp, #48]
 3867              		.loc 1 248 0
 3868 1cc0 0498     		ldr	r0, [sp, #16]
 3869 1cc2 0EEA0808 		and	r8, lr, r8
 3870 1cc6 4FEABE16 		ror	r6, lr, #6
 3871 1cca 00EA010B 		and	fp, r0, r1
 3872 1cce 45EA010A 		orr	r10, r5, r1
ARM GAS  C:\Users\jo\AppData\Local\Temp\ccDsJqTW.s 			page 69


 3873              		.loc 1 249 0
 3874 1cd2 4FEAF41C 		ror	ip, r4, #7
 3875              		.loc 1 248 0
 3876 1cd6 0199     		ldr	r1, [sp, #4]
 3877              	.LVL303:
 3878 1cd8 88EA0208 		eor	r8, r8, r2
 3879 1cdc 86EAFE26 		eor	r6, r6, lr, ror #11
 3880 1ce0 86EA7E66 		eor	r6, r6, lr, ror #25
 3881 1ce4 4FEAB507 		ror	r7, r5, #2
 3882              		.loc 1 249 0
 3883 1ce8 8CEAB44C 		eor	ip, ip, r4, ror #18
 3884 1cec 2546     		mov	r5, r4
 3885              	.LVL304:
 3886 1cee 9844     		add	r8, r8, r3
 3887 1cf0 0A9C     		ldr	r4, [sp, #40]
 3888              		.loc 1 248 0
 3889 1cf2 B044     		add	r8, r8, r6
 3890              	.LVL305:
 3891 1cf4 0AEA010A 		and	r10, r10, r1
 3892 1cf8 129E     		ldr	r6, [sp, #72]
 3893              		.loc 1 249 0
 3894 1cfa 0F99     		ldr	r1, [sp, #60]
 3895 1cfc 8CEAD50C 		eor	ip, ip, r5, lsr #3
 3896 1d00 A444     		add	ip, ip, r4
 3897 1d02 4FEA7149 		ror	r9, r1, #17
 3898              	.LVL306:
 3899 1d06 B444     		add	ip, ip, r6
 3900              		.loc 1 248 0
 3901 1d08 059E     		ldr	r6, [sp, #20]
 3902 1d0a 87EA7037 		eor	r7, r7, r0, ror #13
 3903              		.loc 1 249 0
 3904 1d0e 89EAF149 		eor	r9, r9, r1, ror #19
 3905              		.loc 1 248 0
 3906 1d12 08EB0604 		add	r4, r8, r6
 3907 1d16 87EAB057 		eor	r7, r7, r0, ror #22
 3908              		.loc 1 249 0
 3909 1d1a 89EA9129 		eor	r9, r9, r1, lsr #10
 3910              		.loc 1 248 0
 3911 1d1e 4AEA0B0A 		orr	r10, r10, fp
 3912              		.loc 1 249 0
 3913 1d22 CC44     		add	ip, ip, r9
 3914              		.loc 1 248 0
 3915 1d24 BA44     		add	r10, r10, r7
 3916 1d26 2746     		mov	r7, r4
 3917 1d28 139C     		ldr	r4, [sp, #76]
 3918 1d2a CDF820C0 		str	ip, [sp, #32]
 3919 1d2e 0546     		mov	r5, r0
 3920              	.LVL307:
 3921              		.loc 1 249 0
 3922 1d30 6646     		mov	r6, ip
 3923 1d32 0298     		ldr	r0, [sp, #8]
 3924              	.LVL308:
 3925 1d34 3419     		adds	r4, r6, r4
 3926              		.loc 1 248 0
 3927 1d36 0AEB0803 		add	r3, r10, r8
 3928              	.LVL309:
 3929              		.loc 1 249 0
ARM GAS  C:\Users\jo\AppData\Local\Temp\ccDsJqTW.s 			page 70


 3930 1d3a 8EEA0008 		eor	r8, lr, r0
 3931              	.LVL310:
 3932 1d3e 2046     		mov	r0, r4
 3933 1d40 0244     		add	r2, r2, r0
 3934              	.LVL311:
 3935 1d42 0298     		ldr	r0, [sp, #8]
 3936 1d44 294E     		ldr	r6, .L36+20
 3937 1d46 DFF8ACA0 		ldr	r10, .L36+28
 3938              	.LVL312:
 3939 1d4a 07EA0808 		and	r8, r7, r8
 3940 1d4e 88EA0008 		eor	r8, r8, r0
 3941 1d52 0498     		ldr	r0, [sp, #16]
 3942 1d54 3946     		mov	r1, r7
 3943 1d56 4FEAB71C 		ror	ip, r7, #6
 3944              		.loc 1 250 0
 3945 1d5a 039F     		ldr	r7, [sp, #12]
 3946              	.LVL313:
 3947              		.loc 1 249 0
 3948 1d5c 0591     		str	r1, [sp, #20]
 3949 1d5e 03EA000B 		and	fp, r3, r0
 3950              	.LVL314:
 3951 1d62 0998     		ldr	r0, [sp, #36]
 3952 1d64 43EA0509 		orr	r9, r3, r5
 3953 1d68 3546     		mov	r5, r6
 3954              	.LVL315:
 3955              		.loc 1 250 0
 3956 1d6a 4FEAF716 		ror	r6, r7, #7
 3957              		.loc 1 249 0
 3958 1d6e 4FEAB304 		ror	r4, r3, #2
 3959 1d72 09EA0009 		and	r9, r9, r0
 3960              		.loc 1 250 0
 3961 1d76 86EAB746 		eor	r6, r6, r7, ror #18
 3962 1d7a 3846     		mov	r0, r7
 3963 1d7c 0C9F     		ldr	r7, [sp, #48]
 3964              		.loc 1 249 0
 3965 1d7e 8CEAF12C 		eor	ip, ip, r1, ror #11
 3966 1d82 84EA7334 		eor	r4, r4, r3, ror #13
 3967 1d86 8CEA716C 		eor	ip, ip, r1, ror #25
 3968 1d8a 49EA0B09 		orr	r9, r9, fp
 3969 1d8e BA44     		add	r10, r10, r7
 3970 1d90 0199     		ldr	r1, [sp, #4]
 3971              	.LVL316:
 3972              		.loc 1 250 0
 3973 1d92 0B9F     		ldr	r7, [sp, #44]
 3974 1d94 4244     		add	r2, r2, r8
 3975              		.loc 1 249 0
 3976 1d96 84EAB354 		eor	r4, r4, r3, ror #22
 3977 1d9a 6244     		add	r2, r2, ip
 3978              	.LVL317:
 3979 1d9c 4C44     		add	r4, r4, r9
 3980              	.LVL318:
 3981 1d9e 1144     		add	r1, r1, r2
 3982              	.LVL319:
 3983              		.loc 1 250 0
 3984 1da0 4FEA7748 		ror	r8, r7, #17
 3985              		.loc 1 249 0
 3986 1da4 2244     		add	r2, r2, r4
ARM GAS  C:\Users\jo\AppData\Local\Temp\ccDsJqTW.s 			page 71


 3987              	.LVL320:
 3988              		.loc 1 250 0
 3989 1da6 86EAD006 		eor	r6, r6, r0, lsr #3
 3990 1daa 079C     		ldr	r4, [sp, #28]
 3991              	.LVL321:
 3992 1dac 0498     		ldr	r0, [sp, #16]
 3993 1dae 88EAF74B 		eor	fp, r8, r7, ror #19
 3994 1db2 5644     		add	r6, r6, r10
 3995 1db4 06EB040A 		add	r10, r6, r4
 3996 1db8 8BEA9728 		eor	r8, fp, r7, lsr #10
 3997 1dbc 4FEAB204 		ror	r4, r2, #2
 3998 1dc0 059E     		ldr	r6, [sp, #20]
 3999 1dc2 D044     		add	r8, r8, r10
 4000 1dc4 84EA723A 		eor	r10, r4, r2, ror #13
 4001 1dc8 029C     		ldr	r4, [sp, #8]
 4002              		.loc 1 251 0
 4003 1dca 119F     		ldr	r7, [sp, #68]
 4004              		.loc 1 250 0
 4005 1dcc 42EA0309 		orr	r9, r2, r3
 4006 1dd0 4444     		add	r4, r4, r8
 4007 1dd2 86EA0E06 		eor	r6, r6, lr
 4008 1dd6 0FE0     		b	.L37
 4009              	.L38:
 4010              		.align	2
 4011              	.L36:
 4012 1dd8 EE828F74 		.word	1955562222
 4013 1ddc 6F63A578 		.word	2024104815
 4014 1de0 0802C78C 		.word	-1933114872
 4015 1de4 FAFFBE90 		.word	-1866530822
 4016 1de8 1478C884 		.word	-2067236844
 4017 1dec F27871C6 		.word	-965641998
 4018 1df0 F36F2E68 		.word	1747873779
 4019 1df4 F7A3F9BE 		.word	-1090935817
 4020              	.L37:
 4021 1df8 09EA000B 		and	fp, r9, r0
 4022 1dfc 0E40     		ands	r6, r6, r1
 4023 1dfe 2046     		mov	r0, r4
 4024              		.loc 1 251 0
 4025 1e00 4FEAF714 		ror	r4, r7, #7
 4026              		.loc 1 250 0
 4027 1e04 86EA0E06 		eor	r6, r6, lr
 4028 1e08 4FEAB11C 		ror	ip, r1, #6
 4029              		.loc 1 251 0
 4030 1e0c 84EAB744 		eor	r4, r4, r7, ror #18
 4031 1e10 84EAD704 		eor	r4, r4, r7, lsr #3
 4032              		.loc 1 250 0
 4033 1e14 8CEAF12C 		eor	ip, ip, r1, ror #11
 4034              		.loc 1 251 0
 4035 1e18 089F     		ldr	r7, [sp, #32]
 4036 1e1a 3044     		add	r0, r0, r6
 4037 1e1c 039E     		ldr	r6, [sp, #12]
 4038              		.loc 1 250 0
 4039 1e1e 8CEA716C 		eor	ip, ip, r1, ror #25
 4040 1e22 02EA0309 		and	r9, r2, r3
 4041 1e26 6044     		add	r0, r0, ip
 4042              	.LVL322:
 4043 1e28 7519     		adds	r5, r6, r5
ARM GAS  C:\Users\jo\AppData\Local\Temp\ccDsJqTW.s 			page 72


 4044              		.loc 1 251 0
 4045 1e2a 4FEA774C 		ror	ip, r7, #17
 4046              		.loc 1 250 0
 4047 1e2e 8AEAB25A 		eor	r10, r10, r2, ror #22
 4048 1e32 05EB0408 		add	r8, r5, r4
 4049 1e36 4BEA0909 		orr	r9, fp, r9
 4050 1e3a 099C     		ldr	r4, [sp, #36]
 4051              		.loc 1 251 0
 4052 1e3c 059D     		ldr	r5, [sp, #20]
 4053 1e3e 8CEAF74C 		eor	ip, ip, r7, ror #19
 4054 1e42 069F     		ldr	r7, [sp, #24]
 4055              		.loc 1 250 0
 4056 1e44 D144     		add	r9, r9, r10
 4057              	.LVL323:
 4058 1e46 09EB000B 		add	fp, r9, r0
 4059 1e4a B844     		add	r8, r8, r7
 4060 1e4c 2044     		add	r0, r0, r4
 4061              	.LVL324:
 4062              		.loc 1 251 0
 4063 1e4e 089F     		ldr	r7, [sp, #32]
 4064 1e50 059C     		ldr	r4, [sp, #20]
 4065 1e52 8CEA972C 		eor	ip, ip, r7, lsr #10
 4066 1e56 81EA0406 		eor	r6, r1, r4
 4067              	.LVL325:
 4068 1e5a 159F     		ldr	r7, [sp, #84]
 4069 1e5c 0640     		ands	r6, r6, r0
 4070 1e5e 4BEA0204 		orr	r4, fp, r2
 4071 1e62 4FEABB0A 		ror	r10, fp, #2
 4072 1e66 6E40     		eors	r6, r6, r5
 4073 1e68 3D46     		mov	r5, r7
 4074 1e6a 049F     		ldr	r7, [sp, #16]
 4075 1e6c 0BEA0209 		and	r9, fp, r2
 4076              	.LVL326:
 4077 1e70 1C40     		ands	r4, r4, r3
 4078 1e72 8AEA7B3A 		eor	r10, r10, fp, ror #13
 4079 1e76 E044     		add	r8, r8, ip
 4080 1e78 F044     		add	r8, r8, lr
 4081 1e7a 44EA0904 		orr	r4, r4, r9
 4082 1e7e 8AEABB5A 		eor	r10, r10, fp, ror #22
 4083 1e82 BE46     		mov	lr, r7
 4084              	.LVL327:
 4085 1e84 1B9F     		ldr	r7, [sp, #108]
 4086 1e86 5444     		add	r4, r4, r10
 4087 1e88 3C44     		add	r4, r4, r7
 4088              		.loc 1 260 0
 4089 1e8a 1D9F     		ldr	r7, [sp, #116]
 4090 1e8c AE44     		add	lr, lr, r5
 4091 1e8e 7546     		mov	r5, lr
 4092              		.loc 1 251 0
 4093 1e90 4FEAB01C 		ror	ip, r0, #6
 4094              		.loc 1 260 0
 4095 1e94 BE46     		mov	lr, r7
 4096 1e96 059F     		ldr	r7, [sp, #20]
 4097              		.loc 1 251 0
 4098 1e98 8CEAF02C 		eor	ip, ip, r0, ror #11
 4099 1e9c 8CEA706C 		eor	ip, ip, r0, ror #25
 4100              		.loc 1 260 0
ARM GAS  C:\Users\jo\AppData\Local\Temp\ccDsJqTW.s 			page 73


 4101 1ea0 7744     		add	r7, r7, lr
 4102 1ea2 4644     		add	r6, r6, r8
 4103              		.loc 1 251 0
 4104 1ea4 6644     		add	r6, r6, ip
 4105              	.LVL328:
 4106              		.loc 1 260 0
 4107 1ea6 BC46     		mov	ip, r7
 4108              		.loc 1 256 0
 4109 1ea8 1C9F     		ldr	r7, [sp, #112]
 4110 1eaa 3B44     		add	r3, r3, r7
 4111              	.LVL329:
 4112              		.loc 1 259 0
 4113 1eac 179F     		ldr	r7, [sp, #92]
 4114 1eae 3944     		add	r1, r1, r7
 4115              	.LVL330:
 4116 1eb0 BE46     		mov	lr, r7
 4117              		.loc 1 255 0
 4118 1eb2 199F     		ldr	r7, [sp, #100]
 4119 1eb4 02EB0709 		add	r9, r2, r7
 4120              		.loc 1 258 0
 4121 1eb8 169F     		ldr	r7, [sp, #88]
 4122              		.loc 1 254 0
 4123 1eba 189A     		ldr	r2, [sp, #96]
 4124              	.LVL331:
 4125              		.loc 1 258 0
 4126 1ebc 3844     		add	r0, r0, r7
 4127              	.LVL332:
 4128              		.loc 1 260 0
 4129 1ebe 1A9F     		ldr	r7, [sp, #104]
 4130              		.loc 1 253 0
 4131 1ec0 3444     		add	r4, r4, r6
 4132              		.loc 1 254 0
 4133 1ec2 5A44     		add	r2, fp, r2
 4134              		.loc 1 257 0
 4135 1ec4 2E44     		add	r6, r6, r5
 4136              	.LVL333:
 4137              		.loc 1 260 0
 4138 1ec6 C7F824C0 		str	ip, [r7, #36]
 4139              	.LVL334:
 4140              		.loc 1 256 0
 4141 1eca 7B61     		str	r3, [r7, #20]
 4142              		.loc 1 259 0
 4143 1ecc 3962     		str	r1, [r7, #32]
 4144              		.loc 1 255 0
 4145 1ece C7F81090 		str	r9, [r7, #16]
 4146              		.loc 1 254 0
 4147 1ed2 FA60     		str	r2, [r7, #12]
 4148              		.loc 1 258 0
 4149 1ed4 F861     		str	r0, [r7, #28]
 4150              		.loc 1 253 0
 4151 1ed6 BC60     		str	r4, [r7, #8]
 4152              		.loc 1 257 0
 4153 1ed8 BE61     		str	r6, [r7, #24]
 4154              		.loc 1 261 0
 4155 1eda 41B0     		add	sp, sp, #260
 4156              		.cfi_def_cfa_offset 36
 4157              		@ sp needed
ARM GAS  C:\Users\jo\AppData\Local\Temp\ccDsJqTW.s 			page 74


 4158 1edc BDE8F08F 		pop	{r4, r5, r6, r7, r8, r9, r10, fp, pc}
 4159              		.cfi_endproc
 4160              	.LFE4:
 4161              		.size	sha256_process, .-sha256_process
 4162              		.section	.text.sha256_update.part.0,"ax",%progbits
 4163              		.align	2
 4164              		.p2align 4,,15
 4165              		.thumb
 4166              		.thumb_func
 4167              		.type	sha256_update.part.0, %function
 4168              	sha256_update.part.0:
 4169              	.LFB15:
 4170              		.loc 1 266 0
 4171              		.cfi_startproc
 4172              		@ args = 0, pretend = 0, frame = 0
 4173              		@ frame_needed = 0, uses_anonymous_args = 0
 4174              	.LVL335:
 4175 0000 2DE9F843 		push	{r3, r4, r5, r6, r7, r8, r9, lr}
 4176              		.cfi_def_cfa_offset 32
 4177              		.cfi_offset 3, -32
 4178              		.cfi_offset 4, -28
 4179              		.cfi_offset 5, -24
 4180              		.cfi_offset 6, -20
 4181              		.cfi_offset 7, -16
 4182              		.cfi_offset 8, -12
 4183              		.cfi_offset 9, -8
 4184              		.cfi_offset 14, -4
 4185              		.loc 1 266 0
 4186 0004 0646     		mov	r6, r0
 4187              		.loc 1 275 0
 4188 0006 0068     		ldr	r0, [r0]
 4189              	.LVL336:
 4190              		.loc 1 278 0
 4191 0008 1318     		adds	r3, r2, r0
 4192              		.loc 1 281 0
 4193 000a 9A42     		cmp	r2, r3
 4194              		.loc 1 266 0
 4195 000c 1746     		mov	r7, r2
 4196 000e 8946     		mov	r9, r1
 4197              		.loc 1 278 0
 4198 0010 3360     		str	r3, [r6]
 4199              		.loc 1 275 0
 4200 0012 00F03F08 		and	r8, r0, #63
 4201              	.LVL337:
 4202              		.loc 1 281 0
 4203 0016 02D9     		bls	.L40
 4204              		.loc 1 282 0
 4205 0018 7368     		ldr	r3, [r6, #4]
 4206 001a 0133     		adds	r3, r3, #1
 4207 001c 7360     		str	r3, [r6, #4]
 4208              	.L40:
 4209              		.loc 1 284 0
 4210 001e B8F1000F 		cmp	r8, #0
 4211 0022 16D0     		beq	.L41
 4212              		.loc 1 276 0
 4213 0024 C8F14004 		rsb	r4, r8, #64
 4214              		.loc 1 284 0
ARM GAS  C:\Users\jo\AppData\Local\Temp\ccDsJqTW.s 			page 75


 4215 0028 BC42     		cmp	r4, r7
 4216 002a 02D9     		bls	.L51
 4217              	.LVL338:
 4218              	.L43:
 4219              		.loc 1 300 0
 4220 002c 47BB     		cbnz	r7, .L52
 4221              	.LVL339:
 4222              	.L39:
 4223 002e BDE8F883 		pop	{r3, r4, r5, r6, r7, r8, r9, pc}
 4224              	.LVL340:
 4225              	.L51:
 4226              		.loc 1 286 0
 4227 0032 08F12800 		add	r0, r8, #40
 4228 0036 4946     		mov	r1, r9
 4229              	.LVL341:
 4230 0038 2246     		mov	r2, r4
 4231              	.LVL342:
 4232 003a 3044     		add	r0, r0, r6
 4233 003c FFF7FEFF 		bl	memcpy
 4234              	.LVL343:
 4235              		.loc 1 287 0
 4236 0040 3046     		mov	r0, r6
 4237 0042 06F12801 		add	r1, r6, #40
 4238 0046 FFF7FEFF 		bl	sha256_process
 4239              	.LVL344:
 4240              		.loc 1 289 0
 4241 004a 3F1B     		subs	r7, r7, r4
 4242              	.LVL345:
 4243              		.loc 1 288 0
 4244 004c A144     		add	r9, r9, r4
 4245              	.LVL346:
 4246              		.loc 1 290 0
 4247 004e 4FF00008 		mov	r8, #0
 4248              	.LVL347:
 4249              	.L41:
 4250              		.loc 1 293 0
 4251 0052 3F2F     		cmp	r7, #63
 4252 0054 EAD9     		bls	.L43
 4253 0056 3D46     		mov	r5, r7
 4254 0058 4C46     		mov	r4, r9
 4255              	.LVL348:
 4256              	.L44:
 4257              		.loc 1 295 0
 4258 005a 2146     		mov	r1, r4
 4259              		.loc 1 297 0
 4260 005c 403D     		subs	r5, r5, #64
 4261              	.LVL349:
 4262              		.loc 1 295 0
 4263 005e 3046     		mov	r0, r6
 4264 0060 FFF7FEFF 		bl	sha256_process
 4265              	.LVL350:
 4266              		.loc 1 293 0
 4267 0064 3F2D     		cmp	r5, #63
 4268              		.loc 1 296 0
 4269 0066 04F14004 		add	r4, r4, #64
 4270              	.LVL351:
 4271              		.loc 1 293 0
ARM GAS  C:\Users\jo\AppData\Local\Temp\ccDsJqTW.s 			page 76


 4272 006a F6D8     		bhi	.L44
 4273 006c A7F14003 		sub	r3, r7, #64
 4274 0070 23F03F03 		bic	r3, r3, #63
 4275 0074 4033     		adds	r3, r3, #64
 4276 0076 07F03F07 		and	r7, r7, #63
 4277 007a 9944     		add	r9, r9, r3
 4278              		.loc 1 300 0
 4279 007c 002F     		cmp	r7, #0
 4280 007e D6D0     		beq	.L39
 4281              	.LVL352:
 4282              	.L52:
 4283              		.loc 1 301 0
 4284 0080 08F12800 		add	r0, r8, #40
 4285 0084 3044     		add	r0, r0, r6
 4286 0086 4946     		mov	r1, r9
 4287 0088 3A46     		mov	r2, r7
 4288              		.loc 1 302 0
 4289 008a BDE8F843 		pop	{r3, r4, r5, r6, r7, r8, r9, lr}
 4290              		.cfi_restore 14
 4291              		.cfi_restore 9
 4292              		.cfi_restore 8
 4293              		.cfi_restore 7
 4294              		.cfi_restore 6
 4295              		.cfi_restore 5
 4296              		.cfi_restore 4
 4297              		.cfi_restore 3
 4298              		.cfi_def_cfa_offset 0
 4299              	.LVL353:
 4300              		.loc 1 301 0
 4301 008e FFF7FEBF 		b	memcpy
 4302              	.LVL354:
 4303              		.cfi_endproc
 4304              	.LFE15:
 4305              		.size	sha256_update.part.0, .-sha256_update.part.0
 4306 0092 00BFAFF3 		.section	.text.sha256_update,"ax",%progbits
 4306      0080AFF3 
 4306      0080AFF3 
 4306      0080
 4307              		.align	2
 4308              		.p2align 4,,15
 4309              		.global	sha256_update
 4310              		.thumb
 4311              		.thumb_func
 4312              		.type	sha256_update, %function
 4313              	sha256_update:
 4314              	.LFB5:
 4315              		.loc 1 268 0
 4316              		.cfi_startproc
 4317              		@ args = 0, pretend = 0, frame = 0
 4318              		@ frame_needed = 0, uses_anonymous_args = 0
 4319              		@ link register save eliminated.
 4320              	.LVL355:
 4321              		.loc 1 272 0
 4322 0000 0AB1     		cbz	r2, .L53
 4323 0002 FFF7FEBF 		b	sha256_update.part.0
 4324              	.LVL356:
 4325              	.L53:
ARM GAS  C:\Users\jo\AppData\Local\Temp\ccDsJqTW.s 			page 77


 4326 0006 7047     		bx	lr
 4327              		.cfi_endproc
 4328              	.LFE5:
 4329              		.size	sha256_update, .-sha256_update
 4330 0008 AFF30080 		.section	.text.sha256_finish,"ax",%progbits
 4330      AFF30080 
 4331              		.align	2
 4332              		.p2align 4,,15
 4333              		.global	sha256_finish
 4334              		.thumb
 4335              		.thumb_func
 4336              		.type	sha256_finish, %function
 4337              	sha256_finish:
 4338              	.LFB6:
 4339              		.loc 1 316 0
 4340              		.cfi_startproc
 4341              		@ args = 0, pretend = 0, frame = 8
 4342              		@ frame_needed = 0, uses_anonymous_args = 0
 4343              	.LVL357:
 4344 0000 2DE9F041 		push	{r4, r5, r6, r7, r8, lr}
 4345              		.cfi_def_cfa_offset 24
 4346              		.cfi_offset 4, -24
 4347              		.cfi_offset 5, -20
 4348              		.cfi_offset 6, -16
 4349              		.cfi_offset 7, -12
 4350              		.cfi_offset 8, -8
 4351              		.cfi_offset 14, -4
 4352              		.loc 1 321 0
 4353 0004 0268     		ldr	r2, [r0]
 4354              		.loc 1 316 0
 4355 0006 0D46     		mov	r5, r1
 4356              		.loc 1 322 0
 4357 0008 4168     		ldr	r1, [r0, #4]
 4358              	.LVL358:
 4359              		.loc 1 321 0
 4360 000a 530F     		lsrs	r3, r2, #29
 4361              		.loc 1 316 0
 4362 000c 82B0     		sub	sp, sp, #8
 4363              		.cfi_def_cfa_offset 32
 4364              		.loc 1 321 0
 4365 000e 43EAC103 		orr	r3, r3, r1, lsl #3
 4366              	.LVL359:
 4367              		.loc 1 323 0
 4368 0012 D100     		lsls	r1, r2, #3
 4369              	.LVL360:
 4370              		.loc 1 328 0
 4371 0014 02F03F02 		and	r2, r2, #63
 4372              	.LVL361:
 4373              		.loc 1 316 0
 4374 0018 0446     		mov	r4, r0
 4375              		.loc 1 329 0
 4376 001a 372A     		cmp	r2, #55
 4377              		.loc 1 326 0
 4378 001c 4FEA1120 		lsr	r0, r1, #8
 4379              	.LVL362:
 4380              		.loc 1 325 0
 4381 0020 4FEA1368 		lsr	r8, r3, #24
ARM GAS  C:\Users\jo\AppData\Local\Temp\ccDsJqTW.s 			page 78


 4382 0024 4FEA134C 		lsr	ip, r3, #16
 4383 0028 4FEA132E 		lsr	lr, r3, #8
 4384              		.loc 1 329 0
 4385 002c 94BF     		ite	ls
 4386 002e C2F13802 		rsbls	r2, r2, #56
 4387              	.LVL363:
 4388 0032 C2F17802 		rsbhi	r2, r2, #120
 4389              	.LVL364:
 4390              		.loc 1 326 0
 4391 0036 0F0E     		lsrs	r7, r1, #24
 4392 0038 0E0C     		lsrs	r6, r1, #16
 4393 003a 8DF80710 		strb	r1, [sp, #7]
 4394 003e 8DF80600 		strb	r0, [sp, #6]
 4395              	.LBB76:
 4396              	.LBB77:
 4397 0042 3249     		ldr	r1, .L60
 4398              	.LVL365:
 4399              	.LBE77:
 4400              	.LBE76:
 4401              		.loc 1 325 0
 4402 0044 8DF80330 		strb	r3, [sp, #3]
 4403              	.LBB80:
 4404              	.LBB78:
 4405 0048 2046     		mov	r0, r4
 4406              	.LBE78:
 4407              	.LBE80:
 4408 004a 8DF801C0 		strb	ip, [sp, #1]
 4409 004e 8DF802E0 		strb	lr, [sp, #2]
 4410 0052 8DF80080 		strb	r8, [sp]
 4411              		.loc 1 326 0
 4412 0056 8DF80470 		strb	r7, [sp, #4]
 4413 005a 8DF80560 		strb	r6, [sp, #5]
 4414              	.LBB81:
 4415              	.LBB79:
 4416 005e FFF7FEFF 		bl	sha256_update.part.0
 4417              	.LVL366:
 4418              	.LBE79:
 4419              	.LBE81:
 4420              	.LBB82:
 4421              	.LBB83:
 4422 0062 2046     		mov	r0, r4
 4423 0064 6946     		mov	r1, sp
 4424 0066 0822     		movs	r2, #8
 4425 0068 FFF7FEFF 		bl	sha256_update.part.0
 4426              	.LVL367:
 4427              	.LBE83:
 4428              	.LBE82:
 4429              		.loc 1 334 0
 4430 006c E37A     		ldrb	r3, [r4, #11]	@ zero_extendqisi2
 4431 006e 2B70     		strb	r3, [r5]
 4432 0070 6389     		ldrh	r3, [r4, #10]
 4433 0072 6B70     		strb	r3, [r5, #1]
 4434 0074 A368     		ldr	r3, [r4, #8]
 4435 0076 1B0A     		lsrs	r3, r3, #8
 4436 0078 AB70     		strb	r3, [r5, #2]
 4437 007a A368     		ldr	r3, [r4, #8]
 4438 007c EB70     		strb	r3, [r5, #3]
ARM GAS  C:\Users\jo\AppData\Local\Temp\ccDsJqTW.s 			page 79


 4439              		.loc 1 335 0
 4440 007e E37B     		ldrb	r3, [r4, #15]	@ zero_extendqisi2
 4441 0080 2B71     		strb	r3, [r5, #4]
 4442 0082 E389     		ldrh	r3, [r4, #14]
 4443 0084 6B71     		strb	r3, [r5, #5]
 4444 0086 E368     		ldr	r3, [r4, #12]
 4445 0088 1B0A     		lsrs	r3, r3, #8
 4446 008a AB71     		strb	r3, [r5, #6]
 4447 008c E368     		ldr	r3, [r4, #12]
 4448 008e EB71     		strb	r3, [r5, #7]
 4449              		.loc 1 336 0
 4450 0090 E37C     		ldrb	r3, [r4, #19]	@ zero_extendqisi2
 4451 0092 2B72     		strb	r3, [r5, #8]
 4452 0094 638A     		ldrh	r3, [r4, #18]
 4453 0096 6B72     		strb	r3, [r5, #9]
 4454 0098 2369     		ldr	r3, [r4, #16]
 4455 009a 1B0A     		lsrs	r3, r3, #8
 4456 009c AB72     		strb	r3, [r5, #10]
 4457 009e 2369     		ldr	r3, [r4, #16]
 4458 00a0 EB72     		strb	r3, [r5, #11]
 4459              		.loc 1 337 0
 4460 00a2 E37D     		ldrb	r3, [r4, #23]	@ zero_extendqisi2
 4461 00a4 2B73     		strb	r3, [r5, #12]
 4462 00a6 E38A     		ldrh	r3, [r4, #22]
 4463 00a8 6B73     		strb	r3, [r5, #13]
 4464 00aa 6369     		ldr	r3, [r4, #20]
 4465 00ac 1B0A     		lsrs	r3, r3, #8
 4466 00ae AB73     		strb	r3, [r5, #14]
 4467 00b0 6369     		ldr	r3, [r4, #20]
 4468 00b2 EB73     		strb	r3, [r5, #15]
 4469              		.loc 1 338 0
 4470 00b4 E37E     		ldrb	r3, [r4, #27]	@ zero_extendqisi2
 4471 00b6 2B74     		strb	r3, [r5, #16]
 4472 00b8 638B     		ldrh	r3, [r4, #26]
 4473 00ba 6B74     		strb	r3, [r5, #17]
 4474 00bc A369     		ldr	r3, [r4, #24]
 4475 00be 1B0A     		lsrs	r3, r3, #8
 4476 00c0 AB74     		strb	r3, [r5, #18]
 4477 00c2 A369     		ldr	r3, [r4, #24]
 4478 00c4 EB74     		strb	r3, [r5, #19]
 4479              		.loc 1 339 0
 4480 00c6 E37F     		ldrb	r3, [r4, #31]	@ zero_extendqisi2
 4481 00c8 2B75     		strb	r3, [r5, #20]
 4482 00ca E38B     		ldrh	r3, [r4, #30]
 4483 00cc 6B75     		strb	r3, [r5, #21]
 4484 00ce E369     		ldr	r3, [r4, #28]
 4485 00d0 1B0A     		lsrs	r3, r3, #8
 4486 00d2 AB75     		strb	r3, [r5, #22]
 4487 00d4 E369     		ldr	r3, [r4, #28]
 4488 00d6 EB75     		strb	r3, [r5, #23]
 4489              		.loc 1 340 0
 4490 00d8 94F82330 		ldrb	r3, [r4, #35]	@ zero_extendqisi2
 4491 00dc 2B76     		strb	r3, [r5, #24]
 4492 00de 638C     		ldrh	r3, [r4, #34]
 4493 00e0 6B76     		strb	r3, [r5, #25]
 4494 00e2 236A     		ldr	r3, [r4, #32]
 4495 00e4 1B0A     		lsrs	r3, r3, #8
ARM GAS  C:\Users\jo\AppData\Local\Temp\ccDsJqTW.s 			page 80


 4496 00e6 AB76     		strb	r3, [r5, #26]
 4497 00e8 236A     		ldr	r3, [r4, #32]
 4498 00ea EB76     		strb	r3, [r5, #27]
 4499              		.loc 1 342 0
 4500 00ec D4F8E830 		ldr	r3, [r4, #232]
 4501 00f0 4BB9     		cbnz	r3, .L55
 4502              		.loc 1 343 0
 4503 00f2 94F82730 		ldrb	r3, [r4, #39]	@ zero_extendqisi2
 4504 00f6 2B77     		strb	r3, [r5, #28]
 4505 00f8 E38C     		ldrh	r3, [r4, #38]
 4506 00fa 6B77     		strb	r3, [r5, #29]
 4507 00fc 636A     		ldr	r3, [r4, #36]
 4508 00fe 1B0A     		lsrs	r3, r3, #8
 4509 0100 AB77     		strb	r3, [r5, #30]
 4510 0102 636A     		ldr	r3, [r4, #36]
 4511 0104 EB77     		strb	r3, [r5, #31]
 4512              	.L55:
 4513              		.loc 1 344 0
 4514 0106 02B0     		add	sp, sp, #8
 4515              		.cfi_def_cfa_offset 24
 4516              	.LVL368:
 4517              		@ sp needed
 4518 0108 BDE8F081 		pop	{r4, r5, r6, r7, r8, pc}
 4519              	.LVL369:
 4520              	.L61:
 4521              		.align	2
 4522              	.L60:
 4523 010c 00000000 		.word	.LANCHOR0
 4524              		.cfi_endproc
 4525              	.LFE6:
 4526              		.size	sha256_finish, .-sha256_finish
 4527              		.section	.text.sha256,"ax",%progbits
 4528              		.align	2
 4529              		.p2align 4,,15
 4530              		.global	sha256
 4531              		.thumb
 4532              		.thumb_func
 4533              		.type	sha256, %function
 4534              	sha256:
 4535              	.LFB7:
 4536              		.loc 1 353 0
 4537              		.cfi_startproc
 4538              		@ args = 0, pretend = 0, frame = 240
 4539              		@ frame_needed = 0, uses_anonymous_args = 0
 4540              	.LVL370:
 4541 0000 2DE9F043 		push	{r4, r5, r6, r7, r8, r9, lr}
 4542              		.cfi_def_cfa_offset 28
 4543              		.cfi_offset 4, -28
 4544              		.cfi_offset 5, -24
 4545              		.cfi_offset 6, -20
 4546              		.cfi_offset 7, -16
 4547              		.cfi_offset 8, -12
 4548              		.cfi_offset 9, -8
 4549              		.cfi_offset 14, -4
 4550 0004 BDB0     		sub	sp, sp, #244
 4551              		.cfi_def_cfa_offset 272
 4552              	.LVL371:
ARM GAS  C:\Users\jo\AppData\Local\Temp\ccDsJqTW.s 			page 81


 4553              		.loc 1 353 0
 4554 0006 0746     		mov	r7, r0
 4555 0008 0D46     		mov	r5, r1
 4556 000a 1646     		mov	r6, r2
 4557 000c 1C46     		mov	r4, r3
 4558              	.LBB84:
 4559              	.LBB85:
 4560              		.loc 1 85 0
 4561 000e 01A8     		add	r0, sp, #4
 4562              	.LVL372:
 4563 0010 0021     		movs	r1, #0
 4564              	.LVL373:
 4565 0012 EC22     		movs	r2, #236
 4566              	.LVL374:
 4567 0014 FFF7FEFF 		bl	memset
 4568              	.LVL375:
 4569              	.LBE85:
 4570              	.LBE84:
 4571              	.LBB86:
 4572              	.LBB87:
 4573              		.loc 1 104 0
 4574 0018 3CBB     		cbnz	r4, .L63
 4575              		.loc 1 107 0
 4576 001a DFF89490 		ldr	r9, .L74+32
 4577              		.loc 1 108 0
 4578 001e DFF89480 		ldr	r8, .L74+36
 4579              		.loc 1 109 0
 4580 0022 DFF894C0 		ldr	ip, .L74+40
 4581              		.loc 1 110 0
 4582 0026 DFF894E0 		ldr	lr, .L74+44
 4583              		.loc 1 111 0
 4584 002a 1948     		ldr	r0, .L74
 4585              		.loc 1 112 0
 4586 002c 1949     		ldr	r1, .L74+4
 4587              		.loc 1 113 0
 4588 002e 1A4A     		ldr	r2, .L74+8
 4589              		.loc 1 114 0
 4590 0030 1A4B     		ldr	r3, .L74+12
 4591              	.L72:
 4592              		.loc 1 119 0
 4593 0032 CDF80C90 		str	r9, [sp, #12]
 4594              		.loc 1 120 0
 4595 0036 CDF81080 		str	r8, [sp, #16]
 4596              		.loc 1 121 0
 4597 003a CDF814C0 		str	ip, [sp, #20]
 4598              		.loc 1 122 0
 4599 003e CDF818E0 		str	lr, [sp, #24]
 4600              		.loc 1 123 0
 4601 0042 0790     		str	r0, [sp, #28]
 4602              		.loc 1 124 0
 4603 0044 0891     		str	r1, [sp, #32]
 4604              		.loc 1 125 0
 4605 0046 0992     		str	r2, [sp, #36]
 4606              		.loc 1 126 0
 4607 0048 0A93     		str	r3, [sp, #40]
 4608              		.loc 1 129 0
 4609 004a 3B94     		str	r4, [sp, #236]
ARM GAS  C:\Users\jo\AppData\Local\Temp\ccDsJqTW.s 			page 82


 4610              	.LVL376:
 4611              	.LBE87:
 4612              	.LBE86:
 4613              	.LBB89:
 4614              	.LBB90:
 4615              		.loc 1 272 0
 4616 004c D5B9     		cbnz	r5, .L73
 4617              	.L65:
 4618              	.LBE90:
 4619              	.LBE89:
 4620              		.loc 1 359 0
 4621 004e 3146     		mov	r1, r6
 4622 0050 01A8     		add	r0, sp, #4
 4623              	.LVL377:
 4624 0052 FFF7FEFF 		bl	sha256_finish
 4625              	.LVL378:
 4626 0056 01AB     		add	r3, sp, #4
 4627              	.LVL379:
 4628              	.LBB92:
 4629              	.LBB93:
 4630              	.LBB94:
 4631              		.loc 1 55 0
 4632 0058 0022     		movs	r2, #0
 4633              	.LVL380:
 4634              	.L66:
 4635 005a 1A70     		strb	r2, [r3]
 4636              	.LVL381:
 4637 005c 3CA9     		add	r1, sp, #240
 4638 005e 0133     		adds	r3, r3, #1
 4639              	.LVL382:
 4640 0060 8B42     		cmp	r3, r1
 4641 0062 FAD1     		bne	.L66
 4642              	.LBE94:
 4643              	.LBE93:
 4644              	.LBE92:
 4645              		.loc 1 361 0
 4646 0064 3DB0     		add	sp, sp, #244
 4647              		.cfi_remember_state
 4648              		.cfi_def_cfa_offset 28
 4649              		@ sp needed
 4650 0066 BDE8F083 		pop	{r4, r5, r6, r7, r8, r9, pc}
 4651              	.LVL383:
 4652              	.L63:
 4653              		.cfi_restore_state
 4654              	.LBB95:
 4655              	.LBB88:
 4656              		.loc 1 119 0
 4657 006a DFF85490 		ldr	r9, .L74+48
 4658              		.loc 1 120 0
 4659 006e DFF85480 		ldr	r8, .L74+52
 4660              		.loc 1 121 0
 4661 0072 DFF854C0 		ldr	ip, .L74+56
 4662              		.loc 1 122 0
 4663 0076 DFF854E0 		ldr	lr, .L74+60
 4664              		.loc 1 123 0
 4665 007a 0948     		ldr	r0, .L74+16
 4666              		.loc 1 124 0
ARM GAS  C:\Users\jo\AppData\Local\Temp\ccDsJqTW.s 			page 83


 4667 007c 0949     		ldr	r1, .L74+20
 4668              		.loc 1 125 0
 4669 007e 0A4A     		ldr	r2, .L74+24
 4670              		.loc 1 126 0
 4671 0080 0A4B     		ldr	r3, .L74+28
 4672 0082 D6E7     		b	.L72
 4673              	.LVL384:
 4674              	.L73:
 4675              	.LBE88:
 4676              	.LBE95:
 4677              	.LBB96:
 4678              	.LBB91:
 4679 0084 3946     		mov	r1, r7
 4680 0086 2A46     		mov	r2, r5
 4681 0088 01A8     		add	r0, sp, #4
 4682              	.LVL385:
 4683 008a FFF7FEFF 		bl	sha256_update.part.0
 4684              	.LVL386:
 4685 008e DEE7     		b	.L65
 4686              	.L75:
 4687              		.align	2
 4688              	.L74:
 4689 0090 7F520E51 		.word	1359893119
 4690 0094 8C68059B 		.word	-1694144372
 4691 0098 ABD9831F 		.word	528734635
 4692 009c 19CDE05B 		.word	1541459225
 4693 00a0 310BC0FF 		.word	-4191439
 4694 00a4 11155868 		.word	1750603025
 4695 00a8 A78FF964 		.word	1694076839
 4696 00ac A44FFABE 		.word	-1090891868
 4697 00b0 67E6096A 		.word	1779033703
 4698 00b4 85AE67BB 		.word	-1150833019
 4699 00b8 72F36E3C 		.word	1013904242
 4700 00bc 3AF54FA5 		.word	-1521486534
 4701 00c0 D89E05C1 		.word	-1056596264
 4702 00c4 07D57C36 		.word	914150663
 4703 00c8 17DD7030 		.word	812702999
 4704 00cc 39590EF7 		.word	-150054599
 4705              	.LBE91:
 4706              	.LBE96:
 4707              		.cfi_endproc
 4708              	.LFE7:
 4709              		.size	sha256, .-sha256
 4710              		.section	.text.sha256_file,"ax",%progbits
 4711              		.align	2
 4712              		.p2align 4,,15
 4713              		.global	sha256_file
 4714              		.thumb
 4715              		.thumb_func
 4716              		.type	sha256_file, %function
 4717              	sha256_file:
 4718              	.LFB8:
 4719              		.loc 1 368 0
 4720              		.cfi_startproc
 4721              		@ args = 0, pretend = 0, frame = 1264
 4722              		@ frame_needed = 0, uses_anonymous_args = 0
 4723              	.LVL387:
ARM GAS  C:\Users\jo\AppData\Local\Temp\ccDsJqTW.s 			page 84


 4724 0000 2DE9F041 		push	{r4, r5, r6, r7, r8, lr}
 4725              		.cfi_def_cfa_offset 24
 4726              		.cfi_offset 4, -24
 4727              		.cfi_offset 5, -20
 4728              		.cfi_offset 6, -16
 4729              		.cfi_offset 7, -12
 4730              		.cfi_offset 8, -8
 4731              		.cfi_offset 14, -4
 4732 0004 0F46     		mov	r7, r1
 4733 0006 ADF59E6D 		sub	sp, sp, #1264
 4734              		.cfi_def_cfa_offset 1288
 4735              		.loc 1 374 0
 4736 000a 2F49     		ldr	r1, .L91
 4737              	.LVL388:
 4738              		.loc 1 368 0
 4739 000c 1446     		mov	r4, r2
 4740              		.loc 1 374 0
 4741 000e FFF7FEFF 		bl	fopen
 4742              	.LVL389:
 4743 0012 0646     		mov	r6, r0
 4744 0014 0028     		cmp	r0, #0
 4745 0016 54D0     		beq	.L84
 4746              	.LVL390:
 4747              	.LBB97:
 4748              	.LBB98:
 4749              		.loc 1 85 0
 4750 0018 01A8     		add	r0, sp, #4
 4751              	.LVL391:
 4752 001a 0021     		movs	r1, #0
 4753 001c EC22     		movs	r2, #236
 4754 001e FFF7FEFF 		bl	memset
 4755              	.LVL392:
 4756              	.LBE98:
 4757              	.LBE97:
 4758              	.LBB99:
 4759              	.LBB100:
 4760              		.loc 1 104 0
 4761 0022 34B3     		cbz	r4, .L88
 4762              		.loc 1 119 0
 4763 0024 DFF8CC80 		ldr	r8, .L91+44
 4764              		.loc 1 120 0
 4765 0028 DFF8CCC0 		ldr	ip, .L91+48
 4766              		.loc 1 121 0
 4767 002c DFF8CCE0 		ldr	lr, .L91+52
 4768              		.loc 1 122 0
 4769 0030 264D     		ldr	r5, .L91+4
 4770              		.loc 1 123 0
 4771 0032 2748     		ldr	r0, .L91+8
 4772              		.loc 1 124 0
 4773 0034 2749     		ldr	r1, .L91+12
 4774              		.loc 1 125 0
 4775 0036 284A     		ldr	r2, .L91+16
 4776              		.loc 1 126 0
 4777 0038 284B     		ldr	r3, .L91+20
 4778              	.L87:
 4779              		.loc 1 122 0
 4780 003a 0695     		str	r5, [sp, #24]
ARM GAS  C:\Users\jo\AppData\Local\Temp\ccDsJqTW.s 			page 85


 4781              		.loc 1 119 0
 4782 003c CDF80C80 		str	r8, [sp, #12]
 4783              		.loc 1 120 0
 4784 0040 CDF810C0 		str	ip, [sp, #16]
 4785              		.loc 1 121 0
 4786 0044 CDF814E0 		str	lr, [sp, #20]
 4787              		.loc 1 123 0
 4788 0048 0790     		str	r0, [sp, #28]
 4789              		.loc 1 124 0
 4790 004a 0891     		str	r1, [sp, #32]
 4791              		.loc 1 125 0
 4792 004c 0992     		str	r2, [sp, #36]
 4793              		.loc 1 126 0
 4794 004e 0A93     		str	r3, [sp, #40]
 4795              		.loc 1 129 0
 4796 0050 3B94     		str	r4, [sp, #236]
 4797 0052 3CAD     		add	r5, sp, #240
 4798              	.LVL393:
 4799              	.L80:
 4800              	.LBE100:
 4801              	.LBE99:
 4802              		.loc 1 380 0
 4803 0054 0121     		movs	r1, #1
 4804 0056 4FF48062 		mov	r2, #1024
 4805 005a 2846     		mov	r0, r5
 4806 005c 3346     		mov	r3, r6
 4807 005e FFF7FEFF 		bl	fread
 4808              	.LVL394:
 4809              	.LBB102:
 4810              	.LBB103:
 4811 0062 2946     		mov	r1, r5
 4812              	.LBE103:
 4813              	.LBE102:
 4814 0064 0446     		mov	r4, r0
 4815              	.LVL395:
 4816              	.LBB106:
 4817              	.LBB104:
 4818 0066 0246     		mov	r2, r0
 4819              	.LBE104:
 4820              	.LBE106:
 4821 0068 78B1     		cbz	r0, .L89
 4822              	.LVL396:
 4823              	.LBB107:
 4824              	.LBB105:
 4825 006a 01A8     		add	r0, sp, #4
 4826              	.LVL397:
 4827 006c FFF7FEFF 		bl	sha256_update.part.0
 4828              	.LVL398:
 4829 0070 F0E7     		b	.L80
 4830              	.LVL399:
 4831              	.L88:
 4832              	.LBE105:
 4833              	.LBE107:
 4834              	.LBB108:
 4835              	.LBB101:
 4836              		.loc 1 107 0
 4837 0072 DFF88C80 		ldr	r8, .L91+56
ARM GAS  C:\Users\jo\AppData\Local\Temp\ccDsJqTW.s 			page 86


 4838              		.loc 1 108 0
 4839 0076 DFF88CC0 		ldr	ip, .L91+60
 4840              		.loc 1 109 0
 4841 007a DFF88CE0 		ldr	lr, .L91+64
 4842              		.loc 1 110 0
 4843 007e 184D     		ldr	r5, .L91+24
 4844              		.loc 1 111 0
 4845 0080 1848     		ldr	r0, .L91+28
 4846              		.loc 1 112 0
 4847 0082 1949     		ldr	r1, .L91+32
 4848              		.loc 1 113 0
 4849 0084 194A     		ldr	r2, .L91+36
 4850              		.loc 1 114 0
 4851 0086 1A4B     		ldr	r3, .L91+40
 4852 0088 D7E7     		b	.L87
 4853              	.LVL400:
 4854              	.L89:
 4855              	.LBE101:
 4856              	.LBE108:
 4857              		.loc 1 383 0
 4858 008a 01A8     		add	r0, sp, #4
 4859              	.LVL401:
 4860 008c 3946     		mov	r1, r7
 4861              	.LVL402:
 4862 008e FFF7FEFF 		bl	sha256_finish
 4863              	.LVL403:
 4864 0092 01AB     		add	r3, sp, #4
 4865              	.LVL404:
 4866              	.LBB109:
 4867              	.LBB110:
 4868              	.LBB111:
 4869              		.loc 1 55 0
 4870 0094 2046     		mov	r0, r4
 4871              	.LVL405:
 4872              	.L82:
 4873 0096 1870     		strb	r0, [r3]
 4874              	.LVL406:
 4875 0098 0133     		adds	r3, r3, #1
 4876              	.LVL407:
 4877 009a AB42     		cmp	r3, r5
 4878 009c FBD1     		bne	.L82
 4879              	.LBE111:
 4880              	.LBE110:
 4881              	.LBE109:
 4882              		.loc 1 386 0
 4883 009e B489     		ldrh	r4, [r6, #12]
 4884 00a0 04F04004 		and	r4, r4, #64
 4885 00a4 A4B2     		uxth	r4, r4
 4886              		.loc 1 388 0
 4887 00a6 3046     		mov	r0, r6
 4888              	.LVL408:
 4889              		.loc 1 386 0
 4890 00a8 34B9     		cbnz	r4, .L90
 4891              	.LVL409:
 4892              		.loc 1 392 0
 4893 00aa FFF7FEFF 		bl	fclose
 4894              	.LVL410:
ARM GAS  C:\Users\jo\AppData\Local\Temp\ccDsJqTW.s 			page 87


 4895              		.loc 1 393 0
 4896 00ae 2046     		mov	r0, r4
 4897              	.LVL411:
 4898              	.L77:
 4899              		.loc 1 394 0
 4900 00b0 0DF59E6D 		add	sp, sp, #1264
 4901              		.cfi_remember_state
 4902              		.cfi_def_cfa_offset 24
 4903              		@ sp needed
 4904 00b4 BDE8F081 		pop	{r4, r5, r6, r7, r8, pc}
 4905              	.LVL412:
 4906              	.L90:
 4907              		.cfi_restore_state
 4908              		.loc 1 388 0
 4909 00b8 FFF7FEFF 		bl	fclose
 4910              	.LVL413:
 4911              		.loc 1 389 0
 4912 00bc 6FF07700 		mvn	r0, #119
 4913 00c0 F6E7     		b	.L77
 4914              	.LVL414:
 4915              	.L84:
 4916              		.loc 1 375 0
 4917 00c2 6FF07700 		mvn	r0, #119
 4918              	.LVL415:
 4919 00c6 F3E7     		b	.L77
 4920              	.L92:
 4921              		.align	2
 4922              	.L91:
 4923 00c8 00000000 		.word	.LC0
 4924 00cc 39590EF7 		.word	-150054599
 4925 00d0 310BC0FF 		.word	-4191439
 4926 00d4 11155868 		.word	1750603025
 4927 00d8 A78FF964 		.word	1694076839
 4928 00dc A44FFABE 		.word	-1090891868
 4929 00e0 3AF54FA5 		.word	-1521486534
 4930 00e4 7F520E51 		.word	1359893119
 4931 00e8 8C68059B 		.word	-1694144372
 4932 00ec ABD9831F 		.word	528734635
 4933 00f0 19CDE05B 		.word	1541459225
 4934 00f4 D89E05C1 		.word	-1056596264
 4935 00f8 07D57C36 		.word	914150663
 4936 00fc 17DD7030 		.word	812702999
 4937 0100 67E6096A 		.word	1779033703
 4938 0104 85AE67BB 		.word	-1150833019
 4939 0108 72F36E3C 		.word	1013904242
 4940              		.cfi_endproc
 4941              	.LFE8:
 4942              		.size	sha256_file, .-sha256_file
 4943 010c AFF30080 		.section	.text.sha256_hmac_starts,"ax",%progbits
 4944              		.align	2
 4945              		.p2align 4,,15
 4946              		.global	sha256_hmac_starts
 4947              		.thumb
 4948              		.thumb_func
 4949              		.type	sha256_hmac_starts, %function
 4950              	sha256_hmac_starts:
 4951              	.LFB9:
ARM GAS  C:\Users\jo\AppData\Local\Temp\ccDsJqTW.s 			page 88


 4952              		.loc 1 402 0
 4953              		.cfi_startproc
 4954              		@ args = 0, pretend = 0, frame = 32
 4955              		@ frame_needed = 0, uses_anonymous_args = 0
 4956              	.LVL416:
 4957 0000 2DE9F047 		push	{r4, r5, r6, r7, r8, r9, r10, lr}
 4958              		.cfi_def_cfa_offset 32
 4959              		.cfi_offset 4, -32
 4960              		.cfi_offset 5, -28
 4961              		.cfi_offset 6, -24
 4962              		.cfi_offset 7, -20
 4963              		.cfi_offset 8, -16
 4964              		.cfi_offset 9, -12
 4965              		.cfi_offset 10, -8
 4966              		.cfi_offset 14, -4
 4967              		.loc 1 406 0
 4968 0004 402A     		cmp	r2, #64
 4969              		.loc 1 402 0
 4970 0006 88B0     		sub	sp, sp, #32
 4971              		.cfi_def_cfa_offset 64
 4972              		.loc 1 402 0
 4973 0008 1546     		mov	r5, r2
 4974 000a 0646     		mov	r6, r0
 4975 000c 8A46     		mov	r10, r1
 4976 000e 1F46     		mov	r7, r3
 4977              		.loc 1 406 0
 4978 0010 5DD8     		bhi	.L111
 4979              		.loc 1 413 0
 4980 0012 00F16808 		add	r8, r0, #104
 4981 0016 3621     		movs	r1, #54
 4982              	.LVL417:
 4983 0018 4022     		movs	r2, #64
 4984              	.LVL418:
 4985 001a 4046     		mov	r0, r8
 4986              	.LVL419:
 4987              		.loc 1 414 0
 4988 001c 06F1A809 		add	r9, r6, #168
 4989              		.loc 1 413 0
 4990 0020 FFF7FEFF 		bl	memset
 4991              	.LVL420:
 4992              		.loc 1 414 0
 4993 0024 4846     		mov	r0, r9
 4994 0026 5C21     		movs	r1, #92
 4995 0028 4022     		movs	r2, #64
 4996 002a FFF7FEFF 		bl	memset
 4997              	.LVL421:
 4998 002e 6C46     		mov	r4, sp
 4999              		.loc 1 416 0
 5000 0030 BDB1     		cbz	r5, .L97
 5001              	.L102:
 5002 0032 06F1670E 		add	lr, r6, #103
 5003 0036 5146     		mov	r1, r10
 5004 0038 4846     		mov	r0, r9
 5005              		.loc 1 414 0 discriminator 3
 5006 003a F446     		mov	ip, lr
 5007 003c 0022     		movs	r2, #0
 5008              	.LVL422:
ARM GAS  C:\Users\jo\AppData\Local\Temp\ccDsJqTW.s 			page 89


 5009              	.L98:
 5010              		.loc 1 418 0 discriminator 3
 5011 003e 91F80090 		ldrb	r9, [r1]	@ zero_extendqisi2
 5012 0042 1CF8013F 		ldrb	r3, [ip, #1]!	@ zero_extendqisi2
 5013 0046 89EA0303 		eor	r3, r9, r3
 5014 004a 0EF8013F 		strb	r3, [lr, #1]!
 5015              		.loc 1 419 0 discriminator 3
 5016 004e 11F8019B 		ldrb	r9, [r1], #1	@ zero_extendqisi2
 5017 0052 0378     		ldrb	r3, [r0]	@ zero_extendqisi2
 5018              		.loc 1 416 0 discriminator 3
 5019 0054 0132     		adds	r2, r2, #1
 5020              	.LVL423:
 5021              		.loc 1 419 0 discriminator 3
 5022 0056 89EA0303 		eor	r3, r9, r3
 5023              		.loc 1 416 0 discriminator 3
 5024 005a AA42     		cmp	r2, r5
 5025              		.loc 1 419 0 discriminator 3
 5026 005c 00F8013B 		strb	r3, [r0], #1
 5027              		.loc 1 416 0 discriminator 3
 5028 0060 EDD3     		bcc	.L98
 5029              	.LVL424:
 5030              	.L97:
 5031              	.LBB112:
 5032              	.LBB113:
 5033              		.loc 1 101 0
 5034 0062 0023     		movs	r3, #0
 5035 0064 3360     		str	r3, [r6]
 5036              		.loc 1 102 0
 5037 0066 7360     		str	r3, [r6, #4]
 5038              		.loc 1 104 0
 5039 0068 2FBB     		cbnz	r7, .L99
 5040              		.loc 1 107 0
 5041 006a DFF8C490 		ldr	r9, .L112+40
 5042              		.loc 1 108 0
 5043 006e DFF8C4C0 		ldr	ip, .L112+44
 5044              		.loc 1 109 0
 5045 0072 DFF8C4E0 		ldr	lr, .L112+48
 5046              		.loc 1 110 0
 5047 0076 244D     		ldr	r5, .L112
 5048              	.LVL425:
 5049              		.loc 1 111 0
 5050 0078 2448     		ldr	r0, .L112+4
 5051              		.loc 1 112 0
 5052 007a 2549     		ldr	r1, .L112+8
 5053              		.loc 1 113 0
 5054 007c 254A     		ldr	r2, .L112+12
 5055              		.loc 1 114 0
 5056 007e 264B     		ldr	r3, .L112+16
 5057              	.L110:
 5058              		.loc 1 123 0
 5059 0080 B061     		str	r0, [r6, #24]
 5060              		.loc 1 124 0
 5061 0082 F161     		str	r1, [r6, #28]
 5062              		.loc 1 125 0
 5063 0084 3262     		str	r2, [r6, #32]
 5064              		.loc 1 126 0
 5065 0086 7362     		str	r3, [r6, #36]
ARM GAS  C:\Users\jo\AppData\Local\Temp\ccDsJqTW.s 			page 90


 5066              		.loc 1 119 0
 5067 0088 C6F80890 		str	r9, [r6, #8]
 5068              		.loc 1 120 0
 5069 008c C6F80CC0 		str	ip, [r6, #12]
 5070              		.loc 1 121 0
 5071 0090 C6F810E0 		str	lr, [r6, #16]
 5072              		.loc 1 122 0
 5073 0094 7561     		str	r5, [r6, #20]
 5074              		.loc 1 129 0
 5075 0096 C6F8E870 		str	r7, [r6, #232]
 5076              	.LVL426:
 5077              	.LBE113:
 5078              	.LBE112:
 5079              	.LBB115:
 5080              	.LBB116:
 5081 009a 3046     		mov	r0, r6
 5082 009c 4146     		mov	r1, r8
 5083 009e 4022     		movs	r2, #64
 5084 00a0 FFF7FEFF 		bl	sha256_update.part.0
 5085              	.LVL427:
 5086              	.LBE116:
 5087              	.LBE115:
 5088              	.LBB117:
 5089              	.LBB118:
 5090              		.loc 1 55 0
 5091 00a4 0023     		movs	r3, #0
 5092              	.LVL428:
 5093              	.L101:
 5094 00a6 2370     		strb	r3, [r4]
 5095              	.LVL429:
 5096 00a8 08AA     		add	r2, sp, #32
 5097 00aa 0134     		adds	r4, r4, #1
 5098              	.LVL430:
 5099 00ac 9442     		cmp	r4, r2
 5100 00ae FAD1     		bne	.L101
 5101              	.LBE118:
 5102              	.LBE117:
 5103              		.loc 1 426 0
 5104 00b0 08B0     		add	sp, sp, #32
 5105              		.cfi_remember_state
 5106              		.cfi_def_cfa_offset 32
 5107              		@ sp needed
 5108 00b2 BDE8F087 		pop	{r4, r5, r6, r7, r8, r9, r10, pc}
 5109              	.LVL431:
 5110              	.L99:
 5111              		.cfi_restore_state
 5112              	.LBB119:
 5113              	.LBB114:
 5114              		.loc 1 119 0
 5115 00b6 DFF88490 		ldr	r9, .L112+52
 5116              		.loc 1 120 0
 5117 00ba DFF884C0 		ldr	ip, .L112+56
 5118              		.loc 1 121 0
 5119 00be DFF884E0 		ldr	lr, .L112+60
 5120              		.loc 1 122 0
 5121 00c2 164D     		ldr	r5, .L112+20
 5122              	.LVL432:
ARM GAS  C:\Users\jo\AppData\Local\Temp\ccDsJqTW.s 			page 91


 5123              		.loc 1 123 0
 5124 00c4 1648     		ldr	r0, .L112+24
 5125              		.loc 1 124 0
 5126 00c6 1749     		ldr	r1, .L112+28
 5127              		.loc 1 125 0
 5128 00c8 174A     		ldr	r2, .L112+32
 5129              		.loc 1 126 0
 5130 00ca 184B     		ldr	r3, .L112+36
 5131 00cc D8E7     		b	.L110
 5132              	.LVL433:
 5133              	.L111:
 5134              	.LBE114:
 5135              	.LBE119:
 5136              		.loc 1 408 0
 5137 00ce 0846     		mov	r0, r1
 5138              	.LVL434:
 5139              		.loc 1 413 0
 5140 00d0 06F16808 		add	r8, r6, #104
 5141              		.loc 1 408 0
 5142 00d4 1146     		mov	r1, r2
 5143              	.LVL435:
 5144 00d6 6A46     		mov	r2, sp
 5145              	.LVL436:
 5146 00d8 FFF7FEFF 		bl	sha256
 5147              	.LVL437:
 5148              		.loc 1 414 0
 5149 00dc 06F1A809 		add	r9, r6, #168
 5150              		.loc 1 409 0
 5151 00e0 002F     		cmp	r7, #0
 5152              		.loc 1 413 0
 5153 00e2 4FF03601 		mov	r1, #54
 5154 00e6 4FF04002 		mov	r2, #64
 5155 00ea 4046     		mov	r0, r8
 5156              		.loc 1 409 0
 5157 00ec 14BF     		ite	ne
 5158 00ee 1C25     		movne	r5, #28
 5159              	.LVL438:
 5160 00f0 2025     		moveq	r5, #32
 5161              	.LVL439:
 5162              		.loc 1 413 0
 5163 00f2 FFF7FEFF 		bl	memset
 5164              	.LVL440:
 5165              		.loc 1 414 0
 5166 00f6 4846     		mov	r0, r9
 5167 00f8 5C21     		movs	r1, #92
 5168 00fa 4022     		movs	r2, #64
 5169              		.loc 1 408 0
 5170 00fc 6C46     		mov	r4, sp
 5171              		.loc 1 414 0
 5172 00fe FFF7FEFF 		bl	memset
 5173              	.LVL441:
 5174 0102 EA46     		mov	r10, sp
 5175 0104 95E7     		b	.L102
 5176              	.L113:
 5177 0106 00BF     		.align	2
 5178              	.L112:
 5179 0108 3AF54FA5 		.word	-1521486534
ARM GAS  C:\Users\jo\AppData\Local\Temp\ccDsJqTW.s 			page 92


 5180 010c 7F520E51 		.word	1359893119
 5181 0110 8C68059B 		.word	-1694144372
 5182 0114 ABD9831F 		.word	528734635
 5183 0118 19CDE05B 		.word	1541459225
 5184 011c 39590EF7 		.word	-150054599
 5185 0120 310BC0FF 		.word	-4191439
 5186 0124 11155868 		.word	1750603025
 5187 0128 A78FF964 		.word	1694076839
 5188 012c A44FFABE 		.word	-1090891868
 5189 0130 67E6096A 		.word	1779033703
 5190 0134 85AE67BB 		.word	-1150833019
 5191 0138 72F36E3C 		.word	1013904242
 5192 013c D89E05C1 		.word	-1056596264
 5193 0140 07D57C36 		.word	914150663
 5194 0144 17DD7030 		.word	812702999
 5195              		.cfi_endproc
 5196              	.LFE9:
 5197              		.size	sha256_hmac_starts, .-sha256_hmac_starts
 5198 0148 AFF30080 		.section	.text.sha256_hmac_update,"ax",%progbits
 5198      AFF30080 
 5199              		.align	2
 5200              		.p2align 4,,15
 5201              		.global	sha256_hmac_update
 5202              		.thumb
 5203              		.thumb_func
 5204              		.type	sha256_hmac_update, %function
 5205              	sha256_hmac_update:
 5206              	.LFB10:
 5207              		.loc 1 433 0
 5208              		.cfi_startproc
 5209              		@ args = 0, pretend = 0, frame = 0
 5210              		@ frame_needed = 0, uses_anonymous_args = 0
 5211              		@ link register save eliminated.
 5212              	.LVL442:
 5213              	.LBB120:
 5214              	.LBB121:
 5215              		.loc 1 272 0
 5216 0000 02B9     		cbnz	r2, .L116
 5217 0002 7047     		bx	lr
 5218              	.L116:
 5219 0004 FFF7FEBF 		b	sha256_update.part.0
 5220              	.LVL443:
 5221              	.LBE121:
 5222              	.LBE120:
 5223              		.cfi_endproc
 5224              	.LFE10:
 5225              		.size	sha256_hmac_update, .-sha256_hmac_update
 5226 0008 AFF30080 		.section	.text.sha256_hmac_finish,"ax",%progbits
 5226      AFF30080 
 5227              		.align	2
 5228              		.p2align 4,,15
 5229              		.global	sha256_hmac_finish
 5230              		.thumb
 5231              		.thumb_func
 5232              		.type	sha256_hmac_finish, %function
 5233              	sha256_hmac_finish:
 5234              	.LFB11:
ARM GAS  C:\Users\jo\AppData\Local\Temp\ccDsJqTW.s 			page 93


 5235              		.loc 1 441 0
 5236              		.cfi_startproc
 5237              		@ args = 0, pretend = 0, frame = 32
 5238              		@ frame_needed = 0, uses_anonymous_args = 0
 5239              	.LVL444:
 5240 0000 2DE9F047 		push	{r4, r5, r6, r7, r8, r9, r10, lr}
 5241              		.cfi_def_cfa_offset 32
 5242              		.cfi_offset 4, -32
 5243              		.cfi_offset 5, -28
 5244              		.cfi_offset 6, -24
 5245              		.cfi_offset 7, -20
 5246              		.cfi_offset 8, -16
 5247              		.cfi_offset 9, -12
 5248              		.cfi_offset 10, -8
 5249              		.cfi_offset 14, -4
 5250              		.loc 1 445 0
 5251 0004 D0F8E860 		ldr	r6, [r0, #232]
 5252              	.LVL445:
 5253              		.loc 1 441 0
 5254 0008 88B0     		sub	sp, sp, #32
 5255              		.cfi_def_cfa_offset 64
 5256              		.loc 1 441 0
 5257 000a 0546     		mov	r5, r0
 5258 000c 8846     		mov	r8, r1
 5259              		.loc 1 446 0
 5260 000e 002E     		cmp	r6, #0
 5261 0010 37D1     		bne	.L128
 5262              	.LVL446:
 5263              		.loc 1 448 0
 5264 0012 6946     		mov	r1, sp
 5265              	.LVL447:
 5266 0014 FFF7FEFF 		bl	sha256_finish
 5267              	.LVL448:
 5268              	.LBB122:
 5269              	.LBB123:
 5270              		.loc 1 110 0
 5271 0018 2A4F     		ldr	r7, .L129
 5272              		.loc 1 107 0
 5273 001a DFF8CC90 		ldr	r9, .L129+36
 5274              		.loc 1 108 0
 5275 001e DFF8CCC0 		ldr	ip, .L129+40
 5276              		.loc 1 109 0
 5277 0022 DFF8CCE0 		ldr	lr, .L129+44
 5278              		.loc 1 111 0
 5279 0026 2848     		ldr	r0, .L129+4
 5280              		.loc 1 112 0
 5281 0028 2849     		ldr	r1, .L129+8
 5282              		.loc 1 113 0
 5283 002a 294A     		ldr	r2, .L129+12
 5284              		.loc 1 114 0
 5285 002c 294B     		ldr	r3, .L129+16
 5286              		.loc 1 110 0
 5287 002e 6F61     		str	r7, [r5, #20]
 5288              	.LBE123:
 5289              	.LBE122:
 5290              		.loc 1 448 0
 5291 0030 6C46     		mov	r4, sp
ARM GAS  C:\Users\jo\AppData\Local\Temp\ccDsJqTW.s 			page 94


 5292              	.LBB128:
 5293              	.LBB124:
 5294              		.loc 1 101 0
 5295 0032 2E60     		str	r6, [r5]
 5296              		.loc 1 102 0
 5297 0034 6E60     		str	r6, [r5, #4]
 5298              		.loc 1 107 0
 5299 0036 C5F80890 		str	r9, [r5, #8]
 5300              		.loc 1 108 0
 5301 003a C5F80CC0 		str	ip, [r5, #12]
 5302              		.loc 1 109 0
 5303 003e C5F810E0 		str	lr, [r5, #16]
 5304              		.loc 1 111 0
 5305 0042 A861     		str	r0, [r5, #24]
 5306              		.loc 1 112 0
 5307 0044 E961     		str	r1, [r5, #28]
 5308              		.loc 1 113 0
 5309 0046 2A62     		str	r2, [r5, #32]
 5310              		.loc 1 114 0
 5311 0048 6B62     		str	r3, [r5, #36]
 5312 004a 2027     		movs	r7, #32
 5313              	.LVL449:
 5314              	.L121:
 5315              	.LBE124:
 5316              	.LBE128:
 5317              	.LBB129:
 5318              	.LBB130:
 5319 004c 2846     		mov	r0, r5
 5320 004e 05F1A801 		add	r1, r5, #168
 5321 0052 4022     		movs	r2, #64
 5322              	.LBE130:
 5323              	.LBE129:
 5324              	.LBB132:
 5325              	.LBB125:
 5326              		.loc 1 129 0
 5327 0054 C5F8E860 		str	r6, [r5, #232]
 5328              	.LVL450:
 5329              	.LBE125:
 5330              	.LBE132:
 5331              	.LBB133:
 5332              	.LBB131:
 5333 0058 FFF7FEFF 		bl	sha256_update.part.0
 5334              	.LVL451:
 5335              	.LBE131:
 5336              	.LBE133:
 5337              	.LBB134:
 5338              	.LBB135:
 5339 005c 2846     		mov	r0, r5
 5340 005e 2146     		mov	r1, r4
 5341 0060 3A46     		mov	r2, r7
 5342 0062 FFF7FEFF 		bl	sha256_update.part.0
 5343              	.LVL452:
 5344              	.LBE135:
 5345              	.LBE134:
 5346              		.loc 1 452 0
 5347 0066 4146     		mov	r1, r8
 5348 0068 2846     		mov	r0, r5
ARM GAS  C:\Users\jo\AppData\Local\Temp\ccDsJqTW.s 			page 95


 5349 006a FFF7FEFF 		bl	sha256_finish
 5350              	.LVL453:
 5351              	.LBB136:
 5352              	.LBB137:
 5353              		.loc 1 55 0
 5354 006e 2146     		mov	r1, r4
 5355 0070 0023     		movs	r3, #0
 5356              	.LVL454:
 5357              	.L120:
 5358 0072 0B70     		strb	r3, [r1]
 5359              	.LVL455:
 5360 0074 08AA     		add	r2, sp, #32
 5361 0076 0131     		adds	r1, r1, #1
 5362              	.LVL456:
 5363 0078 9142     		cmp	r1, r2
 5364 007a FAD1     		bne	.L120
 5365              	.LBE137:
 5366              	.LBE136:
 5367              		.loc 1 455 0
 5368 007c 08B0     		add	sp, sp, #32
 5369              		.cfi_remember_state
 5370              		.cfi_def_cfa_offset 32
 5371              	.LVL457:
 5372              		@ sp needed
 5373 007e BDE8F087 		pop	{r4, r5, r6, r7, r8, r9, r10, pc}
 5374              	.LVL458:
 5375              	.L128:
 5376              		.cfi_restore_state
 5377              		.loc 1 448 0
 5378 0082 6946     		mov	r1, sp
 5379              	.LVL459:
 5380 0084 FFF7FEFF 		bl	sha256_finish
 5381              	.LVL460:
 5382              	.LBB138:
 5383              	.LBB126:
 5384              		.loc 1 123 0
 5385 0088 134F     		ldr	r7, .L129+20
 5386              		.loc 1 119 0
 5387 008a DFF868A0 		ldr	r10, .L129+48
 5388              		.loc 1 120 0
 5389 008e DFF86890 		ldr	r9, .L129+52
 5390              		.loc 1 121 0
 5391 0092 DFF868C0 		ldr	ip, .L129+56
 5392              		.loc 1 122 0
 5393 0096 DFF868E0 		ldr	lr, .L129+60
 5394              		.loc 1 124 0
 5395 009a 1048     		ldr	r0, .L129+24
 5396              		.loc 1 125 0
 5397 009c 1049     		ldr	r1, .L129+28
 5398              		.loc 1 126 0
 5399 009e 114A     		ldr	r2, .L129+32
 5400              		.loc 1 123 0
 5401 00a0 AF61     		str	r7, [r5, #24]
 5402              		.loc 1 101 0
 5403 00a2 0023     		movs	r3, #0
 5404              	.LBE126:
 5405              	.LBE138:
ARM GAS  C:\Users\jo\AppData\Local\Temp\ccDsJqTW.s 			page 96


 5406              		.loc 1 448 0
 5407 00a4 6C46     		mov	r4, sp
 5408              	.LBB139:
 5409              	.LBB127:
 5410              		.loc 1 101 0
 5411 00a6 2B60     		str	r3, [r5]
 5412              		.loc 1 102 0
 5413 00a8 6B60     		str	r3, [r5, #4]
 5414              		.loc 1 119 0
 5415 00aa C5F808A0 		str	r10, [r5, #8]
 5416              		.loc 1 120 0
 5417 00ae C5F80C90 		str	r9, [r5, #12]
 5418              		.loc 1 121 0
 5419 00b2 C5F810C0 		str	ip, [r5, #16]
 5420              		.loc 1 122 0
 5421 00b6 C5F814E0 		str	lr, [r5, #20]
 5422              		.loc 1 124 0
 5423 00ba E861     		str	r0, [r5, #28]
 5424              		.loc 1 125 0
 5425 00bc 2962     		str	r1, [r5, #32]
 5426              		.loc 1 126 0
 5427 00be 6A62     		str	r2, [r5, #36]
 5428 00c0 1C27     		movs	r7, #28
 5429 00c2 C3E7     		b	.L121
 5430              	.L130:
 5431              		.align	2
 5432              	.L129:
 5433 00c4 3AF54FA5 		.word	-1521486534
 5434 00c8 7F520E51 		.word	1359893119
 5435 00cc 8C68059B 		.word	-1694144372
 5436 00d0 ABD9831F 		.word	528734635
 5437 00d4 19CDE05B 		.word	1541459225
 5438 00d8 310BC0FF 		.word	-4191439
 5439 00dc 11155868 		.word	1750603025
 5440 00e0 A78FF964 		.word	1694076839
 5441 00e4 A44FFABE 		.word	-1090891868
 5442 00e8 67E6096A 		.word	1779033703
 5443 00ec 85AE67BB 		.word	-1150833019
 5444 00f0 72F36E3C 		.word	1013904242
 5445 00f4 D89E05C1 		.word	-1056596264
 5446 00f8 07D57C36 		.word	914150663
 5447 00fc 17DD7030 		.word	812702999
 5448 0100 39590EF7 		.word	-150054599
 5449              	.LBE127:
 5450              	.LBE139:
 5451              		.cfi_endproc
 5452              	.LFE11:
 5453              		.size	sha256_hmac_finish, .-sha256_hmac_finish
 5454 0104 AFF30080 		.section	.text.sha256_hmac_reset,"ax",%progbits
 5454      AFF30080 
 5454      AFF30080 
 5455              		.align	2
 5456              		.p2align 4,,15
 5457              		.global	sha256_hmac_reset
 5458              		.thumb
 5459              		.thumb_func
 5460              		.type	sha256_hmac_reset, %function
ARM GAS  C:\Users\jo\AppData\Local\Temp\ccDsJqTW.s 			page 97


 5461              	sha256_hmac_reset:
 5462              	.LFB12:
 5463              		.loc 1 461 0
 5464              		.cfi_startproc
 5465              		@ args = 0, pretend = 0, frame = 0
 5466              		@ frame_needed = 0, uses_anonymous_args = 0
 5467              	.LVL461:
 5468              		.loc 1 462 0
 5469 0000 D0F8E830 		ldr	r3, [r0, #232]
 5470              	.LVL462:
 5471              	.LBB140:
 5472              	.LBB141:
 5473              		.loc 1 101 0
 5474 0004 0022     		movs	r2, #0
 5475              	.LBE141:
 5476              	.LBE140:
 5477              		.loc 1 461 0
 5478 0006 F0B5     		push	{r4, r5, r6, r7, lr}
 5479              		.cfi_def_cfa_offset 20
 5480              		.cfi_offset 4, -20
 5481              		.cfi_offset 5, -16
 5482              		.cfi_offset 6, -12
 5483              		.cfi_offset 7, -8
 5484              		.cfi_offset 14, -4
 5485              	.LBB144:
 5486              	.LBB142:
 5487              		.loc 1 101 0
 5488 0008 0260     		str	r2, [r0]
 5489              		.loc 1 102 0
 5490 000a 4260     		str	r2, [r0, #4]
 5491              		.loc 1 104 0
 5492 000c E3B1     		cbz	r3, .L136
 5493              		.loc 1 119 0
 5494 000e DFF880C0 		ldr	ip, .L137+48
 5495              		.loc 1 120 0
 5496 0012 DFF880E0 		ldr	lr, .L137+52
 5497              		.loc 1 121 0
 5498 0016 124F     		ldr	r7, .L137
 5499              		.loc 1 122 0
 5500 0018 124E     		ldr	r6, .L137+4
 5501              		.loc 1 123 0
 5502 001a 134D     		ldr	r5, .L137+8
 5503              		.loc 1 124 0
 5504 001c 134C     		ldr	r4, .L137+12
 5505              		.loc 1 125 0
 5506 001e 1449     		ldr	r1, .L137+16
 5507              		.loc 1 126 0
 5508 0020 144A     		ldr	r2, .L137+20
 5509              	.L135:
 5510              		.loc 1 120 0
 5511 0022 C0F80CE0 		str	lr, [r0, #12]
 5512              		.loc 1 121 0
 5513 0026 0761     		str	r7, [r0, #16]
 5514              		.loc 1 122 0
 5515 0028 4661     		str	r6, [r0, #20]
 5516              		.loc 1 123 0
 5517 002a 8561     		str	r5, [r0, #24]
ARM GAS  C:\Users\jo\AppData\Local\Temp\ccDsJqTW.s 			page 98


 5518              		.loc 1 124 0
 5519 002c C461     		str	r4, [r0, #28]
 5520              		.loc 1 125 0
 5521 002e 0162     		str	r1, [r0, #32]
 5522              		.loc 1 126 0
 5523 0030 4262     		str	r2, [r0, #36]
 5524              		.loc 1 119 0
 5525 0032 C0F808C0 		str	ip, [r0, #8]
 5526              		.loc 1 129 0
 5527 0036 C0F8E830 		str	r3, [r0, #232]
 5528              	.LVL463:
 5529              	.LBE142:
 5530              	.LBE144:
 5531              	.LBB145:
 5532              	.LBB146:
 5533 003a 00F16801 		add	r1, r0, #104
 5534              	.LVL464:
 5535 003e 4022     		movs	r2, #64
 5536              	.LBE146:
 5537              	.LBE145:
 5538              		.loc 1 464 0
 5539 0040 BDE8F040 		pop	{r4, r5, r6, r7, lr}
 5540              		.cfi_remember_state
 5541              		.cfi_restore 14
 5542              		.cfi_restore 7
 5543              		.cfi_restore 6
 5544              		.cfi_restore 5
 5545              		.cfi_restore 4
 5546              		.cfi_def_cfa_offset 0
 5547              	.LBB148:
 5548              	.LBB147:
 5549 0044 FFF7FEBF 		b	sha256_update.part.0
 5550              	.LVL465:
 5551              	.L136:
 5552              		.cfi_restore_state
 5553              	.LBE147:
 5554              	.LBE148:
 5555              	.LBB149:
 5556              	.LBB143:
 5557              		.loc 1 107 0
 5558 0048 DFF84CC0 		ldr	ip, .L137+56
 5559              		.loc 1 108 0
 5560 004c DFF84CE0 		ldr	lr, .L137+60
 5561              		.loc 1 109 0
 5562 0050 094F     		ldr	r7, .L137+24
 5563              		.loc 1 110 0
 5564 0052 0A4E     		ldr	r6, .L137+28
 5565              		.loc 1 111 0
 5566 0054 0A4D     		ldr	r5, .L137+32
 5567              		.loc 1 112 0
 5568 0056 0B4C     		ldr	r4, .L137+36
 5569              		.loc 1 113 0
 5570 0058 0B49     		ldr	r1, .L137+40
 5571              		.loc 1 114 0
 5572 005a 0C4A     		ldr	r2, .L137+44
 5573 005c E1E7     		b	.L135
 5574              	.L138:
ARM GAS  C:\Users\jo\AppData\Local\Temp\ccDsJqTW.s 			page 99


 5575 005e 00BF     		.align	2
 5576              	.L137:
 5577 0060 17DD7030 		.word	812702999
 5578 0064 39590EF7 		.word	-150054599
 5579 0068 310BC0FF 		.word	-4191439
 5580 006c 11155868 		.word	1750603025
 5581 0070 A78FF964 		.word	1694076839
 5582 0074 A44FFABE 		.word	-1090891868
 5583 0078 72F36E3C 		.word	1013904242
 5584 007c 3AF54FA5 		.word	-1521486534
 5585 0080 7F520E51 		.word	1359893119
 5586 0084 8C68059B 		.word	-1694144372
 5587 0088 ABD9831F 		.word	528734635
 5588 008c 19CDE05B 		.word	1541459225
 5589 0090 D89E05C1 		.word	-1056596264
 5590 0094 07D57C36 		.word	914150663
 5591 0098 67E6096A 		.word	1779033703
 5592 009c 85AE67BB 		.word	-1150833019
 5593              	.LBE143:
 5594              	.LBE149:
 5595              		.cfi_endproc
 5596              	.LFE12:
 5597              		.size	sha256_hmac_reset, .-sha256_hmac_reset
 5598              		.section	.text.sha256_hmac,"ax",%progbits
 5599              		.align	2
 5600              		.p2align 4,,15
 5601              		.global	sha256_hmac
 5602              		.thumb
 5603              		.thumb_func
 5604              		.type	sha256_hmac, %function
 5605              	sha256_hmac:
 5606              	.LFB13:
 5607              		.loc 1 472 0
 5608              		.cfi_startproc
 5609              		@ args = 8, pretend = 0, frame = 240
 5610              		@ frame_needed = 0, uses_anonymous_args = 0
 5611              	.LVL466:
 5612 0000 F0B5     		push	{r4, r5, r6, r7, lr}
 5613              		.cfi_def_cfa_offset 20
 5614              		.cfi_offset 4, -20
 5615              		.cfi_offset 5, -16
 5616              		.cfi_offset 6, -12
 5617              		.cfi_offset 7, -8
 5618              		.cfi_offset 14, -4
 5619 0002 BDB0     		sub	sp, sp, #244
 5620              		.cfi_def_cfa_offset 264
 5621              	.LVL467:
 5622              		.loc 1 472 0
 5623 0004 0646     		mov	r6, r0
 5624 0006 0D46     		mov	r5, r1
 5625 0008 1746     		mov	r7, r2
 5626              	.LBB150:
 5627              	.LBB151:
 5628              		.loc 1 85 0
 5629 000a 0021     		movs	r1, #0
 5630              	.LVL468:
 5631 000c EC22     		movs	r2, #236
ARM GAS  C:\Users\jo\AppData\Local\Temp\ccDsJqTW.s 			page 100


 5632              	.LVL469:
 5633 000e 01A8     		add	r0, sp, #4
 5634              	.LVL470:
 5635              	.LBE151:
 5636              	.LBE150:
 5637              		.loc 1 472 0
 5638 0010 1C46     		mov	r4, r3
 5639              	.LBB153:
 5640              	.LBB152:
 5641              		.loc 1 85 0
 5642 0012 FFF7FEFF 		bl	memset
 5643              	.LVL471:
 5644              	.LBE152:
 5645              	.LBE153:
 5646              		.loc 1 476 0
 5647 0016 01A8     		add	r0, sp, #4
 5648              	.LVL472:
 5649 0018 3146     		mov	r1, r6
 5650 001a 2A46     		mov	r2, r5
 5651 001c 439B     		ldr	r3, [sp, #268]
 5652 001e FFF7FEFF 		bl	sha256_hmac_starts
 5653              	.LVL473:
 5654              	.LBB154:
 5655              	.LBB155:
 5656              	.LBB156:
 5657              		.loc 1 272 0
 5658 0022 64B9     		cbnz	r4, .L147
 5659              	.L140:
 5660              	.LBE156:
 5661              	.LBE155:
 5662              	.LBE154:
 5663              		.loc 1 478 0
 5664 0024 01A8     		add	r0, sp, #4
 5665              	.LVL474:
 5666 0026 4299     		ldr	r1, [sp, #264]
 5667 0028 FFF7FEFF 		bl	sha256_hmac_finish
 5668              	.LVL475:
 5669 002c 01AB     		add	r3, sp, #4
 5670              	.LVL476:
 5671              	.LBB159:
 5672              	.LBB160:
 5673              	.LBB161:
 5674              		.loc 1 55 0
 5675 002e 0022     		movs	r2, #0
 5676              	.LVL477:
 5677              	.L141:
 5678 0030 1A70     		strb	r2, [r3]
 5679              	.LVL478:
 5680 0032 3CA9     		add	r1, sp, #240
 5681 0034 0133     		adds	r3, r3, #1
 5682              	.LVL479:
 5683 0036 8B42     		cmp	r3, r1
 5684 0038 FAD1     		bne	.L141
 5685              	.LBE161:
 5686              	.LBE160:
 5687              	.LBE159:
 5688              		.loc 1 480 0
ARM GAS  C:\Users\jo\AppData\Local\Temp\ccDsJqTW.s 			page 101


 5689 003a 3DB0     		add	sp, sp, #244
 5690              		.cfi_remember_state
 5691              		.cfi_def_cfa_offset 20
 5692              		@ sp needed
 5693 003c F0BD     		pop	{r4, r5, r6, r7, pc}
 5694              	.LVL480:
 5695              	.L147:
 5696              		.cfi_restore_state
 5697              	.LBB162:
 5698              	.LBB158:
 5699              	.LBB157:
 5700 003e 3946     		mov	r1, r7
 5701 0040 2246     		mov	r2, r4
 5702 0042 01A8     		add	r0, sp, #4
 5703              	.LVL481:
 5704 0044 FFF7FEFF 		bl	sha256_update.part.0
 5705              	.LVL482:
 5706 0048 ECE7     		b	.L140
 5707              	.LBE157:
 5708              	.LBE158:
 5709              	.LBE162:
 5710              		.cfi_endproc
 5711              	.LFE13:
 5712              		.size	sha256_hmac, .-sha256_hmac
 5713 004a 00BFAFF3 		.section	.text.sha256_self_test,"ax",%progbits
 5713      0080
 5714              		.align	2
 5715              		.p2align 4,,15
 5716              		.global	sha256_self_test
 5717              		.thumb
 5718              		.thumb_func
 5719              		.type	sha256_self_test, %function
 5720              	sha256_self_test:
 5721              	.LFB14:
 5722              		.loc 1 649 0
 5723              		.cfi_startproc
 5724              		@ args = 0, pretend = 0, frame = 1304
 5725              		@ frame_needed = 0, uses_anonymous_args = 0
 5726              	.LVL483:
 5727 0000 2DE9F04F 		push	{r4, r5, r6, r7, r8, r9, r10, fp, lr}
 5728              		.cfi_def_cfa_offset 36
 5729              		.cfi_offset 4, -36
 5730              		.cfi_offset 5, -32
 5731              		.cfi_offset 6, -28
 5732              		.cfi_offset 7, -24
 5733              		.cfi_offset 8, -20
 5734              		.cfi_offset 9, -16
 5735              		.cfi_offset 10, -12
 5736              		.cfi_offset 11, -8
 5737              		.cfi_offset 14, -4
 5738 0004 ADF21C5D 		subw	sp, sp, #1308
 5739              		.cfi_def_cfa_offset 1344
 5740              	.LVL484:
 5741              		.loc 1 649 0
 5742 0008 0646     		mov	r6, r0
 5743              	.LBB163:
 5744              	.LBB164:
ARM GAS  C:\Users\jo\AppData\Local\Temp\ccDsJqTW.s 			page 102


 5745              		.loc 1 85 0
 5746 000a 0021     		movs	r1, #0
 5747 000c 0BA8     		add	r0, sp, #44
 5748              	.LVL485:
 5749 000e EC22     		movs	r2, #236
 5750 0010 FFF7FEFF 		bl	memset
 5751              	.LVL486:
 5752 0014 954F     		ldr	r7, .L209
 5753              	.LBE164:
 5754              	.LBE163:
 5755              		.loc 1 659 0
 5756 0016 DFF8B092 		ldr	r9, .L209+92
 5757              	.LBB165:
 5758              	.LBB166:
 5759              		.loc 1 120 0
 5760 001a DFF8B0B2 		ldr	fp, .L209+96
 5761              	.LBE166:
 5762              	.LBE165:
 5763              		.loc 1 657 0
 5764 001e 0025     		movs	r5, #0
 5765 0020 46AC     		add	r4, sp, #280
 5766              	.LVL487:
 5767              	.L160:
 5768              		.loc 1 659 0
 5769 0022 89FB0538 		smull	r3, r8, r9, r5
 5770              		.loc 1 660 0
 5771 0026 022D     		cmp	r5, #2
 5772              		.loc 1 659 0
 5773 0028 A8EBE578 		sub	r8, r8, r5, asr #31
 5774 002c 08EB4808 		add	r8, r8, r8, lsl #1
 5775              		.loc 1 660 0
 5776 0030 CCBF     		ite	gt
 5777 0032 0023     		movgt	r3, #0
 5778 0034 0123     		movle	r3, #1
 5779              		.loc 1 659 0
 5780 0036 C8EB0508 		rsb	r8, r8, r5
 5781              	.LVL488:
 5782              		.loc 1 663 0
 5783 003a C3F1080A 		rsb	r10, r3, #8
 5784              		.loc 1 662 0
 5785 003e 002E     		cmp	r6, #0
 5786 0040 40F0E180 		bne	.L198
 5787              	.LVL489:
 5788              	.L150:
 5789              	.LBB171:
 5790              	.LBB167:
 5791              		.loc 1 101 0
 5792 0044 0022     		movs	r2, #0
 5793 0046 0B92     		str	r2, [sp, #44]
 5794              		.loc 1 102 0
 5795 0048 0C92     		str	r2, [sp, #48]
 5796              		.loc 1 104 0
 5797 004a 002B     		cmp	r3, #0
 5798 004c 40F0A380 		bne	.L151
 5799              		.loc 1 108 0
 5800 0050 8748     		ldr	r0, .L209+4
 5801              		.loc 1 107 0
ARM GAS  C:\Users\jo\AppData\Local\Temp\ccDsJqTW.s 			page 103


 5802 0052 8849     		ldr	r1, .L209+8
 5803              		.loc 1 109 0
 5804 0054 884A     		ldr	r2, .L209+12
 5805              		.loc 1 108 0
 5806 0056 0E90     		str	r0, [sp, #56]
 5807              		.loc 1 114 0
 5808 0058 A0F1BF40 		sub	r0, r0, #1602224128
 5809 005c A0F5DC20 		sub	r0, r0, #450560
 5810              		.loc 1 107 0
 5811 0060 0D91     		str	r1, [sp, #52]
 5812              		.loc 1 109 0
 5813 0062 0F92     		str	r2, [sp, #60]
 5814              		.loc 1 110 0
 5815 0064 8549     		ldr	r1, .L209+16
 5816              		.loc 1 111 0
 5817 0066 864A     		ldr	r2, .L209+20
 5818              		.loc 1 110 0
 5819 0068 1091     		str	r1, [sp, #64]
 5820              		.loc 1 114 0
 5821 006a A0F5B670 		sub	r0, r0, #364
 5822              		.loc 1 112 0
 5823 006e 8549     		ldr	r1, .L209+24
 5824              		.loc 1 111 0
 5825 0070 1192     		str	r2, [sp, #68]
 5826              	.LBE167:
 5827              	.LBE171:
 5828              		.loc 1 667 0
 5829 0072 B8F1020F 		cmp	r8, #2
 5830              	.LBB172:
 5831              	.LBB168:
 5832              		.loc 1 113 0
 5833 0076 844A     		ldr	r2, .L209+28
 5834              		.loc 1 114 0
 5835 0078 1490     		str	r0, [sp, #80]
 5836              		.loc 1 112 0
 5837 007a 1291     		str	r1, [sp, #72]
 5838              		.loc 1 113 0
 5839 007c 1392     		str	r2, [sp, #76]
 5840              		.loc 1 129 0
 5841 007e 4593     		str	r3, [sp, #276]
 5842              	.LBE168:
 5843              	.LBE172:
 5844              		.loc 1 667 0
 5845 0080 00F0A280 		beq	.L199
 5846              	.L153:
 5847              		.loc 1 676 0
 5848 0084 814B     		ldr	r3, .L209+32
 5849              	.LVL490:
 5850              		.loc 1 675 0
 5851 0086 53F82820 		ldr	r2, [r3, r8, lsl #2]
 5852              	.LVL491:
 5853              	.LBB173:
 5854              	.LBB174:
 5855              		.loc 1 272 0
 5856 008a 002A     		cmp	r2, #0
 5857 008c 40F0C980 		bne	.L200
 5858              	.LVL492:
ARM GAS  C:\Users\jo\AppData\Local\Temp\ccDsJqTW.s 			page 104


 5859              	.L155:
 5860              	.LBE174:
 5861              	.LBE173:
 5862              		.loc 1 678 0
 5863 0090 0BA8     		add	r0, sp, #44
 5864              	.LVL493:
 5865 0092 03A9     		add	r1, sp, #12
 5866 0094 FFF7FEFF 		bl	sha256_finish
 5867              	.LVL494:
 5868              		.loc 1 680 0
 5869 0098 03A8     		add	r0, sp, #12
 5870 009a 3946     		mov	r1, r7
 5871 009c 4FEA8A02 		lsl	r2, r10, #2
 5872 00a0 FFF7FEFF 		bl	memcmp
 5873              	.LVL495:
 5874 00a4 0028     		cmp	r0, #0
 5875 00a6 40F0C680 		bne	.L167
 5876              		.loc 1 689 0
 5877 00aa 002E     		cmp	r6, #0
 5878 00ac 40F0B580 		bne	.L201
 5879              	.L159:
 5880              		.loc 1 657 0 discriminator 2
 5881 00b0 0135     		adds	r5, r5, #1
 5882              	.LVL496:
 5883 00b2 062D     		cmp	r5, #6
 5884 00b4 07F12007 		add	r7, r7, #32
 5885 00b8 B3D1     		bne	.L160
 5886              		.loc 1 693 0
 5887 00ba 002E     		cmp	r6, #0
 5888 00bc 40F0C780 		bne	.L202
 5889              	.L161:
 5890              	.LVL497:
 5891 00c0 DFF80C82 		ldr	r8, .L209+100
 5892 00c4 DFF80CA2 		ldr	r10, .L209+104
 5893              		.loc 1 698 0 discriminator 1
 5894 00c8 DFF80C92 		ldr	r9, .L209+108
 5895              		.loc 1 669 0 discriminator 1
 5896 00cc 4FF0000B 		mov	fp, #0
 5897 00d0 2BE0     		b	.L169
 5898              	.LVL498:
 5899              	.L162:
 5900              		.loc 1 704 0
 5901 00d2 6B1F     		subs	r3, r5, #5
 5902 00d4 012B     		cmp	r3, #1
 5903 00d6 45D9     		bls	.L203
 5904              	.L163:
 5905              		.loc 1 711 0
 5906 00d8 6D4B     		ldr	r3, .L209+36
 5907              		.loc 1 710 0
 5908 00da 53F82520 		ldr	r2, [r3, r5, lsl #2]
 5909 00de 6D4B     		ldr	r3, .L209+40
 5910 00e0 1A21     		movs	r1, #26
 5911 00e2 01FB0531 		mla	r1, r1, r5, r3
 5912 00e6 0BA8     		add	r0, sp, #44
 5913              	.LVL499:
 5914 00e8 3B46     		mov	r3, r7
 5915 00ea FFF7FEFF 		bl	sha256_hmac_starts
ARM GAS  C:\Users\jo\AppData\Local\Temp\ccDsJqTW.s 			page 105


 5916              	.LVL500:
 5917              		.loc 1 713 0
 5918 00ee 5AF82520 		ldr	r2, [r10, r5, lsl #2]
 5919              	.LVL501:
 5920              	.LBB176:
 5921              	.LBB177:
 5922              	.LBB178:
 5923              		.loc 1 272 0
 5924 00f2 002A     		cmp	r2, #0
 5925 00f4 45D1     		bne	.L204
 5926              	.LVL502:
 5927              	.L165:
 5928              	.LBE178:
 5929              	.LBE177:
 5930              	.LBE176:
 5931              		.loc 1 716 0
 5932 00f6 0BA8     		add	r0, sp, #44
 5933              	.LVL503:
 5934 00f8 03A9     		add	r1, sp, #12
 5935 00fa FFF7FEFF 		bl	sha256_hmac_finish
 5936              	.LVL504:
 5937              		.loc 1 718 0
 5938 00fe 042D     		cmp	r5, #4
 5939 0100 1ABF     		itte	ne
 5940 0102 C7F10802 		rsbne	r2, r7, #8
 5941 0106 9200     		lslne	r2, r2, #2
 5942 0108 1022     		moveq	r2, #16
 5943              		.loc 1 720 0
 5944 010a 03A8     		add	r0, sp, #12
 5945 010c 4146     		mov	r1, r8
 5946 010e FFF7FEFF 		bl	memcmp
 5947              	.LVL505:
 5948 0112 0028     		cmp	r0, #0
 5949 0114 40F08F80 		bne	.L167
 5950              		.loc 1 729 0
 5951 0118 002E     		cmp	r6, #0
 5952 011a 67D1     		bne	.L205
 5953              		.loc 1 696 0 discriminator 2
 5954 011c 0BF1010B 		add	fp, fp, #1
 5955              	.LVL506:
 5956 0120 BBF10E0F 		cmp	fp, #14
 5957 0124 08F12008 		add	r8, r8, #32
 5958 0128 6AD0     		beq	.L206
 5959              	.LVL507:
 5960              	.L169:
 5961              		.loc 1 698 0
 5962 012a 8BFB0923 		smull	r2, r3, fp, r9
 5963 012e 0BEB0305 		add	r5, fp, r3
 5964 0132 4FEAEB73 		asr	r3, fp, #31
 5965 0136 C3EBA505 		rsb	r5, r3, r5, asr #2
 5966              		.loc 1 699 0
 5967 013a BBF1060F 		cmp	fp, #6
 5968              		.loc 1 698 0
 5969 013e C5EBC505 		rsb	r5, r5, r5, lsl #3
 5970 0142 C5EB0B05 		rsb	r5, r5, fp
 5971              	.LVL508:
 5972              		.loc 1 699 0
ARM GAS  C:\Users\jo\AppData\Local\Temp\ccDsJqTW.s 			page 106


 5973 0146 CCBF     		ite	gt
 5974 0148 0027     		movgt	r7, #0
 5975 014a 0127     		movle	r7, #1
 5976              	.LVL509:
 5977              		.loc 1 701 0
 5978 014c 002E     		cmp	r6, #0
 5979 014e C0D0     		beq	.L162
 5980              		.loc 1 702 0
 5981 0150 C7F10801 		rsb	r1, r7, #8
 5982 0154 4901     		lsls	r1, r1, #5
 5983 0156 5048     		ldr	r0, .L209+44
 5984 0158 6A1C     		adds	r2, r5, #1
 5985 015a FFF7FEFF 		bl	printf
 5986              	.LVL510:
 5987              		.loc 1 704 0
 5988 015e 6B1F     		subs	r3, r5, #5
 5989 0160 012B     		cmp	r3, #1
 5990 0162 B9D8     		bhi	.L163
 5991              	.L203:
 5992              	.LVL511:
 5993              		.loc 1 706 0
 5994 0164 AA21     		movs	r1, #170
 5995 0166 8322     		movs	r2, #131
 5996 0168 2046     		mov	r0, r4
 5997 016a FFF7FEFF 		bl	memset
 5998              	.LVL512:
 5999              		.loc 1 707 0
 6000 016e 8322     		movs	r2, #131
 6001 0170 0BA8     		add	r0, sp, #44
 6002              	.LVL513:
 6003 0172 2146     		mov	r1, r4
 6004 0174 3B46     		mov	r3, r7
 6005 0176 FFF7FEFF 		bl	sha256_hmac_starts
 6006              	.LVL514:
 6007              		.loc 1 713 0
 6008 017a 5AF82520 		ldr	r2, [r10, r5, lsl #2]
 6009              	.LVL515:
 6010              	.LBB183:
 6011              	.LBB181:
 6012              	.LBB179:
 6013              		.loc 1 272 0
 6014 017e 002A     		cmp	r2, #0
 6015 0180 B9D0     		beq	.L165
 6016              	.LVL516:
 6017              	.L204:
 6018              	.LBE179:
 6019              	.LBE181:
 6020              	.LBE183:
 6021              		.loc 1 713 0
 6022 0182 05EBC503 		add	r3, r5, r5, lsl #3
 6023 0186 4549     		ldr	r1, .L209+48
 6024 0188 03EB0313 		add	r3, r3, r3, lsl #4
 6025              	.LBB184:
 6026              	.LBB182:
 6027              	.LBB180:
 6028 018c 1944     		add	r1, r1, r3
 6029 018e 0BA8     		add	r0, sp, #44
ARM GAS  C:\Users\jo\AppData\Local\Temp\ccDsJqTW.s 			page 107


 6030              	.LVL517:
 6031 0190 FFF7FEFF 		bl	sha256_update.part.0
 6032              	.LVL518:
 6033 0194 AFE7     		b	.L165
 6034              	.LVL519:
 6035              	.L151:
 6036              	.LBE180:
 6037              	.LBE182:
 6038              	.LBE184:
 6039              	.LBB185:
 6040              	.LBB169:
 6041              		.loc 1 121 0
 6042 0196 4248     		ldr	r0, .L209+52
 6043              		.loc 1 119 0
 6044 0198 424A     		ldr	r2, .L209+56
 6045              		.loc 1 121 0
 6046 019a 0F90     		str	r0, [sp, #60]
 6047              		.loc 1 124 0
 6048 019c 00F13720 		add	r0, r0, #922760960
 6049              		.loc 1 122 0
 6050 01a0 4149     		ldr	r1, .L209+60
 6051              		.loc 1 119 0
 6052 01a2 0D92     		str	r2, [sp, #52]
 6053              		.loc 1 124 0
 6054 01a4 00F56700 		add	r0, r0, #15138816
 6055              		.loc 1 123 0
 6056 01a8 404A     		ldr	r2, .L209+64
 6057              		.loc 1 122 0
 6058 01aa 1091     		str	r1, [sp, #64]
 6059              		.loc 1 124 0
 6060 01ac FA30     		adds	r0, r0, #250
 6061              		.loc 1 125 0
 6062 01ae 4049     		ldr	r1, .L209+68
 6063              		.loc 1 123 0
 6064 01b0 1192     		str	r2, [sp, #68]
 6065              	.LBE169:
 6066              	.LBE185:
 6067              		.loc 1 667 0
 6068 01b2 B8F1020F 		cmp	r8, #2
 6069              	.LBB186:
 6070              	.LBB170:
 6071              		.loc 1 126 0
 6072 01b6 3F4A     		ldr	r2, .L209+72
 6073              		.loc 1 120 0
 6074 01b8 CDF838B0 		str	fp, [sp, #56]
 6075              		.loc 1 124 0
 6076 01bc 1290     		str	r0, [sp, #72]
 6077              		.loc 1 125 0
 6078 01be 1391     		str	r1, [sp, #76]
 6079              		.loc 1 126 0
 6080 01c0 1492     		str	r2, [sp, #80]
 6081              		.loc 1 129 0
 6082 01c2 4593     		str	r3, [sp, #276]
 6083              	.LBE170:
 6084              	.LBE186:
 6085              		.loc 1 667 0
 6086 01c4 7FF45EAF 		bne	.L153
ARM GAS  C:\Users\jo\AppData\Local\Temp\ccDsJqTW.s 			page 108


 6087              	.L199:
 6088              	.LVL520:
 6089              		.loc 1 669 0
 6090 01c8 2046     		mov	r0, r4
 6091 01ca 6121     		movs	r1, #97
 6092 01cc 4FF47A72 		mov	r2, #1000
 6093 01d0 FFF7FEFF 		bl	memset
 6094              	.LVL521:
 6095 01d4 4FF47A78 		mov	r8, #1000
 6096              	.LVL522:
 6097              	.L154:
 6098              	.LBB187:
 6099              	.LBB188:
 6100 01d8 0BA8     		add	r0, sp, #44
 6101              	.LVL523:
 6102 01da 2146     		mov	r1, r4
 6103 01dc 4FF47A72 		mov	r2, #1000
 6104 01e0 FFF7FEFF 		bl	sha256_update.part.0
 6105              	.LVL524:
 6106              	.LBE188:
 6107              	.LBE187:
 6108              		.loc 1 671 0 discriminator 3
 6109 01e4 B8F10108 		subs	r8, r8, #1
 6110              	.LVL525:
 6111 01e8 F6D1     		bne	.L154
 6112 01ea 51E7     		b	.L155
 6113              	.LVL526:
 6114              	.L205:
 6115              		.loc 1 730 0
 6116 01ec 3248     		ldr	r0, .L209+76
 6117              		.loc 1 696 0
 6118 01ee 0BF1010B 		add	fp, fp, #1
 6119              	.LVL527:
 6120              		.loc 1 730 0
 6121 01f2 FFF7FEFF 		bl	puts
 6122              	.LVL528:
 6123              		.loc 1 696 0
 6124 01f6 BBF10E0F 		cmp	fp, #14
 6125 01fa 08F12008 		add	r8, r8, #32
 6126 01fe 94D1     		bne	.L169
 6127              	.L206:
 6128              		.loc 1 733 0
 6129 0200 76BB     		cbnz	r6, .L207
 6130              		.loc 1 650 0
 6131 0202 3046     		mov	r0, r6
 6132 0204 19E0     		b	.L158
 6133              	.LVL529:
 6134              	.L198:
 6135              		.loc 1 663 0
 6136 0206 4FEA4A11 		lsl	r1, r10, #5
 6137 020a 2C48     		ldr	r0, .L209+80
 6138 020c 0193     		str	r3, [sp, #4]
 6139 020e 08F10102 		add	r2, r8, #1
 6140 0212 FFF7FEFF 		bl	printf
 6141              	.LVL530:
 6142 0216 019B     		ldr	r3, [sp, #4]
 6143 0218 14E7     		b	.L150
ARM GAS  C:\Users\jo\AppData\Local\Temp\ccDsJqTW.s 			page 109


 6144              	.LVL531:
 6145              	.L201:
 6146              		.loc 1 690 0
 6147 021a 2748     		ldr	r0, .L209+76
 6148 021c FFF7FEFF 		bl	puts
 6149              	.LVL532:
 6150 0220 46E7     		b	.L159
 6151              	.LVL533:
 6152              	.L200:
 6153              		.loc 1 675 0
 6154 0222 C8EBC803 		rsb	r3, r8, r8, lsl #3
 6155 0226 2649     		ldr	r1, .L209+84
 6156 0228 08EBC308 		add	r8, r8, r3, lsl #3
 6157              	.LVL534:
 6158              	.LBB189:
 6159              	.LBB175:
 6160 022c 4144     		add	r1, r1, r8
 6161 022e 0BA8     		add	r0, sp, #44
 6162              	.LVL535:
 6163 0230 FFF7FEFF 		bl	sha256_update.part.0
 6164              	.LVL536:
 6165 0234 2CE7     		b	.L155
 6166              	.LVL537:
 6167              	.L167:
 6168              	.LBE175:
 6169              	.LBE189:
 6170              		.loc 1 685 0
 6171 0236 0120     		movs	r0, #1
 6172              		.loc 1 682 0
 6173 0238 6EB9     		cbnz	r6, .L208
 6174              	.L158:
 6175              	.LVL538:
 6176 023a 0BAB     		add	r3, sp, #44
 6177              	.LVL539:
 6178              	.LBB190:
 6179              	.LBB191:
 6180              	.LBB192:
 6181              		.loc 1 55 0
 6182 023c 0022     		movs	r2, #0
 6183              	.LVL540:
 6184              	.L170:
 6185 023e 1A70     		strb	r2, [r3]
 6186              	.LVL541:
 6187 0240 0133     		adds	r3, r3, #1
 6188              	.LVL542:
 6189 0242 A342     		cmp	r3, r4
 6190 0244 FBD1     		bne	.L170
 6191              	.LBE192:
 6192              	.LBE191:
 6193              	.LBE190:
 6194              		.loc 1 740 0
 6195 0246 0DF21C5D 		addw	sp, sp, #1308
 6196              		.cfi_remember_state
 6197              		.cfi_def_cfa_offset 36
 6198              		@ sp needed
 6199 024a BDE8F08F 		pop	{r4, r5, r6, r7, r8, r9, r10, fp, pc}
 6200              	.LVL543:
ARM GAS  C:\Users\jo\AppData\Local\Temp\ccDsJqTW.s 			page 110


 6201              	.L202:
 6202              		.cfi_restore_state
 6203              		.loc 1 694 0
 6204 024e 0A20     		movs	r0, #10
 6205 0250 FFF7FEFF 		bl	putchar
 6206              	.LVL544:
 6207 0254 34E7     		b	.L161
 6208              	.LVL545:
 6209              	.L208:
 6210              		.loc 1 683 0
 6211 0256 1B48     		ldr	r0, .L209+88
 6212 0258 FFF7FEFF 		bl	puts
 6213              	.LVL546:
 6214              		.loc 1 685 0
 6215 025c 0120     		movs	r0, #1
 6216 025e ECE7     		b	.L158
 6217              	.LVL547:
 6218              	.L207:
 6219              		.loc 1 734 0
 6220 0260 0A20     		movs	r0, #10
 6221 0262 FFF7FEFF 		bl	putchar
 6222              	.LVL548:
 6223              		.loc 1 650 0
 6224 0266 0020     		movs	r0, #0
 6225 0268 E7E7     		b	.L158
 6226              	.L210:
 6227 026a 00BF     		.align	2
 6228              	.L209:
 6229 026c 00000000 		.word	.LANCHOR1
 6230 0270 85AE67BB 		.word	-1150833019
 6231 0274 67E6096A 		.word	1779033703
 6232 0278 72F36E3C 		.word	1013904242
 6233 027c 3AF54FA5 		.word	-1521486534
 6234 0280 7F520E51 		.word	1359893119
 6235 0284 8C68059B 		.word	-1694144372
 6236 0288 ABD9831F 		.word	528734635
 6237 028c 00000000 		.word	.LANCHOR2
 6238 0290 00000000 		.word	.LANCHOR6
 6239 0294 00000000 		.word	.LANCHOR5
 6240 0298 28000000 		.word	.LC4
 6241 029c 00000000 		.word	.LANCHOR8
 6242 02a0 17DD7030 		.word	812702999
 6243 02a4 D89E05C1 		.word	-1056596264
 6244 02a8 39590EF7 		.word	-150054599
 6245 02ac 310BC0FF 		.word	-4191439
 6246 02b0 A78FF964 		.word	1694076839
 6247 02b4 A44FFABE 		.word	-1090891868
 6248 02b8 20000000 		.word	.LC3
 6249 02bc 04000000 		.word	.LC1
 6250 02c0 00000000 		.word	.LANCHOR3
 6251 02c4 18000000 		.word	.LC2
 6252 02c8 56555555 		.word	1431655766
 6253 02cc 07D57C36 		.word	914150663
 6254 02d0 00000000 		.word	.LANCHOR4
 6255 02d4 00000000 		.word	.LANCHOR7
 6256 02d8 93244992 		.word	-1840700269
 6257              		.cfi_endproc
ARM GAS  C:\Users\jo\AppData\Local\Temp\ccDsJqTW.s 			page 111


 6258              	.LFE14:
 6259              		.size	sha256_self_test, .-sha256_self_test
 6260 02dc AFF30080 		.section	.rodata.sha256_padding,"a",%progbits
 6261              		.align	2
 6262              		.set	.LANCHOR0,. + 0
 6263              		.type	sha256_padding, %object
 6264              		.size	sha256_padding, 64
 6265              	sha256_padding:
 6266 0000 80       		.byte	-128
 6267 0001 00       		.byte	0
 6268 0002 00       		.byte	0
 6269 0003 00       		.byte	0
 6270 0004 00       		.byte	0
 6271 0005 00       		.byte	0
 6272 0006 00       		.byte	0
 6273 0007 00       		.byte	0
 6274 0008 00       		.byte	0
 6275 0009 00       		.byte	0
 6276 000a 00       		.byte	0
 6277 000b 00       		.byte	0
 6278 000c 00       		.byte	0
 6279 000d 00       		.byte	0
 6280 000e 00       		.byte	0
 6281 000f 00       		.byte	0
 6282 0010 00       		.byte	0
 6283 0011 00       		.byte	0
 6284 0012 00       		.byte	0
 6285 0013 00       		.byte	0
 6286 0014 00       		.byte	0
 6287 0015 00       		.byte	0
 6288 0016 00       		.byte	0
 6289 0017 00       		.byte	0
 6290 0018 00       		.byte	0
 6291 0019 00       		.byte	0
 6292 001a 00       		.byte	0
 6293 001b 00       		.byte	0
 6294 001c 00       		.byte	0
 6295 001d 00       		.byte	0
 6296 001e 00       		.byte	0
 6297 001f 00       		.byte	0
 6298 0020 00       		.byte	0
 6299 0021 00       		.byte	0
 6300 0022 00       		.byte	0
 6301 0023 00       		.byte	0
 6302 0024 00       		.byte	0
 6303 0025 00       		.byte	0
 6304 0026 00       		.byte	0
 6305 0027 00       		.byte	0
 6306 0028 00       		.byte	0
 6307 0029 00       		.byte	0
 6308 002a 00       		.byte	0
 6309 002b 00       		.byte	0
 6310 002c 00       		.byte	0
 6311 002d 00       		.byte	0
 6312 002e 00       		.byte	0
 6313 002f 00       		.byte	0
 6314 0030 00       		.byte	0
ARM GAS  C:\Users\jo\AppData\Local\Temp\ccDsJqTW.s 			page 112


 6315 0031 00       		.byte	0
 6316 0032 00       		.byte	0
 6317 0033 00       		.byte	0
 6318 0034 00       		.byte	0
 6319 0035 00       		.byte	0
 6320 0036 00       		.byte	0
 6321 0037 00       		.byte	0
 6322 0038 00       		.byte	0
 6323 0039 00       		.byte	0
 6324 003a 00       		.byte	0
 6325 003b 00       		.byte	0
 6326 003c 00       		.byte	0
 6327 003d 00       		.byte	0
 6328 003e 00       		.byte	0
 6329 003f 00       		.byte	0
 6330              		.section	.rodata.sha256_test_sum,"a",%progbits
 6331              		.align	2
 6332              		.set	.LANCHOR1,. + 0
 6333              		.type	sha256_test_sum, %object
 6334              		.size	sha256_test_sum, 192
 6335              	sha256_test_sum:
 6336 0000 23       		.byte	35
 6337 0001 09       		.byte	9
 6338 0002 7D       		.byte	125
 6339 0003 22       		.byte	34
 6340 0004 34       		.byte	52
 6341 0005 05       		.byte	5
 6342 0006 D8       		.byte	-40
 6343 0007 22       		.byte	34
 6344 0008 86       		.byte	-122
 6345 0009 42       		.byte	66
 6346 000a A4       		.byte	-92
 6347 000b 77       		.byte	119
 6348 000c BD       		.byte	-67
 6349 000d A2       		.byte	-94
 6350 000e 55       		.byte	85
 6351 000f B3       		.byte	-77
 6352 0010 2A       		.byte	42
 6353 0011 AD       		.byte	-83
 6354 0012 BC       		.byte	-68
 6355 0013 E4       		.byte	-28
 6356 0014 BD       		.byte	-67
 6357 0015 A0       		.byte	-96
 6358 0016 B3       		.byte	-77
 6359 0017 F7       		.byte	-9
 6360 0018 E3       		.byte	-29
 6361 0019 6C       		.byte	108
 6362 001a 9D       		.byte	-99
 6363 001b A7       		.byte	-89
 6364 001c 00000000 		.space	4
 6365 0020 75       		.byte	117
 6366 0021 38       		.byte	56
 6367 0022 8B       		.byte	-117
 6368 0023 16       		.byte	22
 6369 0024 51       		.byte	81
 6370 0025 27       		.byte	39
 6371 0026 76       		.byte	118
ARM GAS  C:\Users\jo\AppData\Local\Temp\ccDsJqTW.s 			page 113


 6372 0027 CC       		.byte	-52
 6373 0028 5D       		.byte	93
 6374 0029 BA       		.byte	-70
 6375 002a 5D       		.byte	93
 6376 002b A1       		.byte	-95
 6377 002c FD       		.byte	-3
 6378 002d 89       		.byte	-119
 6379 002e 01       		.byte	1
 6380 002f 50       		.byte	80
 6381 0030 B0       		.byte	-80
 6382 0031 C6       		.byte	-58
 6383 0032 45       		.byte	69
 6384 0033 5C       		.byte	92
 6385 0034 B4       		.byte	-76
 6386 0035 F5       		.byte	-11
 6387 0036 8B       		.byte	-117
 6388 0037 19       		.byte	25
 6389 0038 52       		.byte	82
 6390 0039 52       		.byte	82
 6391 003a 25       		.byte	37
 6392 003b 25       		.byte	37
 6393 003c 00000000 		.space	4
 6394 0040 20       		.byte	32
 6395 0041 79       		.byte	121
 6396 0042 46       		.byte	70
 6397 0043 55       		.byte	85
 6398 0044 98       		.byte	-104
 6399 0045 0C       		.byte	12
 6400 0046 91       		.byte	-111
 6401 0047 D8       		.byte	-40
 6402 0048 BB       		.byte	-69
 6403 0049 B4       		.byte	-76
 6404 004a C1       		.byte	-63
 6405 004b EA       		.byte	-22
 6406 004c 97       		.byte	-105
 6407 004d 61       		.byte	97
 6408 004e 8A       		.byte	-118
 6409 004f 4B       		.byte	75
 6410 0050 F0       		.byte	-16
 6411 0051 3F       		.byte	63
 6412 0052 42       		.byte	66
 6413 0053 58       		.byte	88
 6414 0054 19       		.byte	25
 6415 0055 48       		.byte	72
 6416 0056 B2       		.byte	-78
 6417 0057 EE       		.byte	-18
 6418 0058 4E       		.byte	78
 6419 0059 E7       		.byte	-25
 6420 005a AD       		.byte	-83
 6421 005b 67       		.byte	103
 6422 005c 00000000 		.space	4
 6423 0060 BA       		.byte	-70
 6424 0061 78       		.byte	120
 6425 0062 16       		.byte	22
 6426 0063 BF       		.byte	-65
 6427 0064 8F       		.byte	-113
 6428 0065 01       		.byte	1
ARM GAS  C:\Users\jo\AppData\Local\Temp\ccDsJqTW.s 			page 114


 6429 0066 CF       		.byte	-49
 6430 0067 EA       		.byte	-22
 6431 0068 41       		.byte	65
 6432 0069 41       		.byte	65
 6433 006a 40       		.byte	64
 6434 006b DE       		.byte	-34
 6435 006c 5D       		.byte	93
 6436 006d AE       		.byte	-82
 6437 006e 22       		.byte	34
 6438 006f 23       		.byte	35
 6439 0070 B0       		.byte	-80
 6440 0071 03       		.byte	3
 6441 0072 61       		.byte	97
 6442 0073 A3       		.byte	-93
 6443 0074 96       		.byte	-106
 6444 0075 17       		.byte	23
 6445 0076 7A       		.byte	122
 6446 0077 9C       		.byte	-100
 6447 0078 B4       		.byte	-76
 6448 0079 10       		.byte	16
 6449 007a FF       		.byte	-1
 6450 007b 61       		.byte	97
 6451 007c F2       		.byte	-14
 6452 007d 00       		.byte	0
 6453 007e 15       		.byte	21
 6454 007f AD       		.byte	-83
 6455 0080 24       		.byte	36
 6456 0081 8D       		.byte	-115
 6457 0082 6A       		.byte	106
 6458 0083 61       		.byte	97
 6459 0084 D2       		.byte	-46
 6460 0085 06       		.byte	6
 6461 0086 38       		.byte	56
 6462 0087 B8       		.byte	-72
 6463 0088 E5       		.byte	-27
 6464 0089 C0       		.byte	-64
 6465 008a 26       		.byte	38
 6466 008b 93       		.byte	-109
 6467 008c 0C       		.byte	12
 6468 008d 3E       		.byte	62
 6469 008e 60       		.byte	96
 6470 008f 39       		.byte	57
 6471 0090 A3       		.byte	-93
 6472 0091 3C       		.byte	60
 6473 0092 E4       		.byte	-28
 6474 0093 59       		.byte	89
 6475 0094 64       		.byte	100
 6476 0095 FF       		.byte	-1
 6477 0096 21       		.byte	33
 6478 0097 67       		.byte	103
 6479 0098 F6       		.byte	-10
 6480 0099 EC       		.byte	-20
 6481 009a ED       		.byte	-19
 6482 009b D4       		.byte	-44
 6483 009c 19       		.byte	25
 6484 009d DB       		.byte	-37
 6485 009e 06       		.byte	6
ARM GAS  C:\Users\jo\AppData\Local\Temp\ccDsJqTW.s 			page 115


 6486 009f C1       		.byte	-63
 6487 00a0 CD       		.byte	-51
 6488 00a1 C7       		.byte	-57
 6489 00a2 6E       		.byte	110
 6490 00a3 5C       		.byte	92
 6491 00a4 99       		.byte	-103
 6492 00a5 14       		.byte	20
 6493 00a6 FB       		.byte	-5
 6494 00a7 92       		.byte	-110
 6495 00a8 81       		.byte	-127
 6496 00a9 A1       		.byte	-95
 6497 00aa C7       		.byte	-57
 6498 00ab E2       		.byte	-30
 6499 00ac 84       		.byte	-124
 6500 00ad D7       		.byte	-41
 6501 00ae 3E       		.byte	62
 6502 00af 67       		.byte	103
 6503 00b0 F1       		.byte	-15
 6504 00b1 80       		.byte	-128
 6505 00b2 9A       		.byte	-102
 6506 00b3 48       		.byte	72
 6507 00b4 A4       		.byte	-92
 6508 00b5 97       		.byte	-105
 6509 00b6 20       		.byte	32
 6510 00b7 0E       		.byte	14
 6511 00b8 04       		.byte	4
 6512 00b9 6D       		.byte	109
 6513 00ba 39       		.byte	57
 6514 00bb CC       		.byte	-52
 6515 00bc C7       		.byte	-57
 6516 00bd 11       		.byte	17
 6517 00be 2C       		.byte	44
 6518 00bf D0       		.byte	-48
 6519              		.section	.rodata.sha256_test_buf,"a",%progbits
 6520              		.align	2
 6521              		.set	.LANCHOR3,. + 0
 6522              		.type	sha256_test_buf, %object
 6523              		.size	sha256_test_buf, 171
 6524              	sha256_test_buf:
 6525 0000 61626300 		.ascii	"abc\000"
 6526 0004 00000000 		.space	53
 6526      00000000 
 6526      00000000 
 6526      00000000 
 6526      00000000 
 6527 0039 61626364 		.ascii	"abcdbcdecdefdefgefghfghighijhijkijkljklmklmnlmnomno"
 6527      62636465 
 6527      63646566 
 6527      64656667 
 6527      65666768 
 6528 006c 706E6F70 		.ascii	"pnopq\000"
 6528      7100
 6529 0072 00       		.ascii	"\000"
 6530 0073 00000000 		.space	56
 6530      00000000 
 6530      00000000 
 6530      00000000 
ARM GAS  C:\Users\jo\AppData\Local\Temp\ccDsJqTW.s 			page 116


 6530      00000000 
 6531 00ab 00       		.section	.rodata.sha256_hmac_test_sum,"a",%progbits
 6532              		.align	2
 6533              		.set	.LANCHOR4,. + 0
 6534              		.type	sha256_hmac_test_sum, %object
 6535              		.size	sha256_hmac_test_sum, 448
 6536              	sha256_hmac_test_sum:
 6537 0000 89       		.byte	-119
 6538 0001 6F       		.byte	111
 6539 0002 B1       		.byte	-79
 6540 0003 12       		.byte	18
 6541 0004 8A       		.byte	-118
 6542 0005 BB       		.byte	-69
 6543 0006 DF       		.byte	-33
 6544 0007 19       		.byte	25
 6545 0008 68       		.byte	104
 6546 0009 32       		.byte	50
 6547 000a 10       		.byte	16
 6548 000b 7C       		.byte	124
 6549 000c D4       		.byte	-44
 6550 000d 9D       		.byte	-99
 6551 000e F3       		.byte	-13
 6552 000f 3F       		.byte	63
 6553 0010 47       		.byte	71
 6554 0011 B4       		.byte	-76
 6555 0012 B1       		.byte	-79
 6556 0013 16       		.byte	22
 6557 0014 99       		.byte	-103
 6558 0015 12       		.byte	18
 6559 0016 BA       		.byte	-70
 6560 0017 4F       		.byte	79
 6561 0018 53       		.byte	83
 6562 0019 68       		.byte	104
 6563 001a 4B       		.byte	75
 6564 001b 22       		.byte	34
 6565 001c 00000000 		.space	4
 6566 0020 A3       		.byte	-93
 6567 0021 0E       		.byte	14
 6568 0022 01       		.byte	1
 6569 0023 09       		.byte	9
 6570 0024 8B       		.byte	-117
 6571 0025 C6       		.byte	-58
 6572 0026 DB       		.byte	-37
 6573 0027 BF       		.byte	-65
 6574 0028 45       		.byte	69
 6575 0029 69       		.byte	105
 6576 002a 0F       		.byte	15
 6577 002b 3A       		.byte	58
 6578 002c 7E       		.byte	126
 6579 002d 9E       		.byte	-98
 6580 002e 6D       		.byte	109
 6581 002f 0F       		.byte	15
 6582 0030 8B       		.byte	-117
 6583 0031 BE       		.byte	-66
 6584 0032 A2       		.byte	-94
 6585 0033 A3       		.byte	-93
 6586 0034 9E       		.byte	-98
ARM GAS  C:\Users\jo\AppData\Local\Temp\ccDsJqTW.s 			page 117


 6587 0035 61       		.byte	97
 6588 0036 48       		.byte	72
 6589 0037 00       		.byte	0
 6590 0038 8F       		.byte	-113
 6591 0039 D0       		.byte	-48
 6592 003a 5E       		.byte	94
 6593 003b 44       		.byte	68
 6594 003c 00000000 		.space	4
 6595 0040 7F       		.byte	127
 6596 0041 B3       		.byte	-77
 6597 0042 CB       		.byte	-53
 6598 0043 35       		.byte	53
 6599 0044 88       		.byte	-120
 6600 0045 C6       		.byte	-58
 6601 0046 C1       		.byte	-63
 6602 0047 F6       		.byte	-10
 6603 0048 FF       		.byte	-1
 6604 0049 A9       		.byte	-87
 6605 004a 69       		.byte	105
 6606 004b 4D       		.byte	77
 6607 004c 7D       		.byte	125
 6608 004d 6A       		.byte	106
 6609 004e D2       		.byte	-46
 6610 004f 64       		.byte	100
 6611 0050 93       		.byte	-109
 6612 0051 65       		.byte	101
 6613 0052 B0       		.byte	-80
 6614 0053 C1       		.byte	-63
 6615 0054 F6       		.byte	-10
 6616 0055 5D       		.byte	93
 6617 0056 69       		.byte	105
 6618 0057 D1       		.byte	-47
 6619 0058 EC       		.byte	-20
 6620 0059 83       		.byte	-125
 6621 005a 33       		.byte	51
 6622 005b EA       		.byte	-22
 6623 005c 00000000 		.space	4
 6624 0060 6C       		.byte	108
 6625 0061 11       		.byte	17
 6626 0062 50       		.byte	80
 6627 0063 68       		.byte	104
 6628 0064 74       		.byte	116
 6629 0065 01       		.byte	1
 6630 0066 3C       		.byte	60
 6631 0067 AC       		.byte	-84
 6632 0068 6A       		.byte	106
 6633 0069 2A       		.byte	42
 6634 006a BC       		.byte	-68
 6635 006b 1B       		.byte	27
 6636 006c B3       		.byte	-77
 6637 006d 82       		.byte	-126
 6638 006e 62       		.byte	98
 6639 006f 7C       		.byte	124
 6640 0070 EC       		.byte	-20
 6641 0071 6A       		.byte	106
 6642 0072 90       		.byte	-112
 6643 0073 D8       		.byte	-40
ARM GAS  C:\Users\jo\AppData\Local\Temp\ccDsJqTW.s 			page 118


 6644 0074 6E       		.byte	110
