ARM GAS  C:\Users\jo\AppData\Local\Temp\ccyP7UZh.s 			page 1


   1              		.syntax unified
   2              		.cpu cortex-m4
   3              		.fpu softvfp
   4              		.eabi_attribute 20, 1
   5              		.eabi_attribute 21, 1
   6              		.eabi_attribute 23, 3
   7              		.eabi_attribute 24, 1
   8              		.eabi_attribute 25, 1
   9              		.eabi_attribute 26, 1
  10              		.eabi_attribute 30, 2
  11              		.eabi_attribute 34, 1
  12              		.eabi_attribute 18, 4
  13              		.thumb
  14              		.file	"sha512.c"
  15              		.text
  16              	.Ltext0:
  17              		.cfi_sections	.debug_frame
  18              		.section	.text.sha512_init,"ax",%progbits
  19              		.align	2
  20              		.p2align 4,,15
  21              		.global	sha512_init
  22              		.thumb
  23              		.thumb_func
  24              		.type	sha512_init, %function
  25              	sha512_init:
  26              	.LFB1:
  27              		.file 1 "../../../ext/mbedtls-1.3.11/library/sha512.c"
  28              		.loc 1 145 0
  29              		.cfi_startproc
  30              		@ args = 0, pretend = 0, frame = 0
  31              		@ frame_needed = 0, uses_anonymous_args = 0
  32              		@ link register save eliminated.
  33              	.LVL0:
  34              		.loc 1 146 0
  35 0000 0021     		movs	r1, #0
  36 0002 4FF4EC72 		mov	r2, #472
  37 0006 FFF7FEBF 		b	memset
  38              	.LVL1:
  39              		.cfi_endproc
  40              	.LFE1:
  41              		.size	sha512_init, .-sha512_init
  42              		.section	.text.sha512_free,"ax",%progbits
  43              		.align	2
  44              		.p2align 4,,15
  45              		.global	sha512_free
  46              		.thumb
  47              		.thumb_func
  48              		.type	sha512_free, %function
  49              	sha512_free:
  50              	.LFB2:
  51              		.loc 1 150 0
  52              		.cfi_startproc
  53              		@ args = 0, pretend = 0, frame = 0
  54              		@ frame_needed = 0, uses_anonymous_args = 0
  55              		@ link register save eliminated.
  56              	.LVL2:
  57              		.loc 1 151 0
ARM GAS  C:\Users\jo\AppData\Local\Temp\ccyP7UZh.s 			page 2


  58 0000 30B1     		cbz	r0, .L2
  59 0002 00F5EC72 		add	r2, r0, #472
  60              	.LBB62:
  61              	.LBB63:
  62              		.loc 1 61 0
  63 0006 0023     		movs	r3, #0
  64              	.LVL3:
  65              	.L4:
  66 0008 0370     		strb	r3, [r0]
  67              	.LVL4:
  68 000a 0130     		adds	r0, r0, #1
  69              	.LVL5:
  70 000c 9042     		cmp	r0, r2
  71 000e FBD1     		bne	.L4
  72              	.LVL6:
  73              	.L2:
  74 0010 7047     		bx	lr
  75              	.LBE63:
  76              	.LBE62:
  77              		.cfi_endproc
  78              	.LFE2:
  79              		.size	sha512_free, .-sha512_free
  80 0012 00BFAFF3 		.section	.text.sha512_starts,"ax",%progbits
  80      0080AFF3 
  80      0080AFF3 
  80      0080
  81              		.align	2
  82              		.p2align 4,,15
  83              		.global	sha512_starts
  84              		.thumb
  85              		.thumb_func
  86              		.type	sha512_starts, %function
  87              	sha512_starts:
  88              	.LFB3:
  89              		.loc 1 161 0
  90              		.cfi_startproc
  91              		@ args = 0, pretend = 0, frame = 0
  92              		@ frame_needed = 0, uses_anonymous_args = 0
  93              	.LVL7:
  94              		.loc 1 162 0
  95 0000 0022     		movs	r2, #0
  96 0002 0023     		movs	r3, #0
  97              		.loc 1 161 0
  98 0004 2DE9F04F 		push	{r4, r5, r6, r7, r8, r9, r10, fp, lr}
  99              		.cfi_def_cfa_offset 36
 100              		.cfi_offset 4, -36
 101              		.cfi_offset 5, -32
 102              		.cfi_offset 6, -28
 103              		.cfi_offset 7, -24
 104              		.cfi_offset 8, -20
 105              		.cfi_offset 9, -16
 106              		.cfi_offset 10, -12
 107              		.cfi_offset 11, -8
 108              		.cfi_offset 14, -4
 109              		.loc 1 165 0
 110 0008 8C46     		mov	ip, r1
 111              		.loc 1 161 0
ARM GAS  C:\Users\jo\AppData\Local\Temp\ccyP7UZh.s 			page 3


 112 000a 8646     		mov	lr, r0
 113              		.loc 1 162 0
 114 000c C0E90023 		strd	r2, [r0]
 115              		.loc 1 163 0
 116 0010 C0E90223 		strd	r2, [r0, #8]
 117              		.loc 1 165 0
 118 0014 0029     		cmp	r1, #0
 119 0016 2FD0     		beq	.L12
 120              		.loc 1 180 0
 121 0018 0FF2BC0B 		adr	fp, .L13
 122 001c DBE900AB 		ldrd	r10, [fp]
 123              		.loc 1 181 0
 124 0020 0FF2BC09 		adr	r9, .L13+8
 125 0024 D9E90089 		ldrd	r8, [r9]
 126              		.loc 1 182 0
 127 0028 2FA7     		adr	r7, .L13+16
 128 002a D7E90067 		ldrd	r6, [r7]
 129              		.loc 1 183 0
 130 002e 30A5     		adr	r5, .L13+24
 131 0030 D5E90045 		ldrd	r4, [r5]
 132              		.loc 1 184 0
 133 0034 30A3     		adr	r3, .L13+32
 134 0036 D3E90023 		ldrd	r2, [r3]
 135              		.loc 1 185 0
 136 003a 31A1     		adr	r1, .L13+40
 137 003c D1E90001 		ldrd	r0, [r1]
 138              	.LVL8:
 139              		.loc 1 180 0
 140 0040 CEE904AB 		strd	r10, [lr, #16]
 141              		.loc 1 181 0
 142 0044 CEE90689 		strd	r8, [lr, #24]
 143              		.loc 1 186 0
 144 0048 0FF2BC0B 		adr	fp, .L13+48
 145 004c DBE900AB 		ldrd	r10, [fp]
 146              		.loc 1 187 0
 147 0050 0FF2BC09 		adr	r9, .L13+56
 148 0054 D9E90089 		ldrd	r8, [r9]
 149              		.loc 1 182 0
 150 0058 CEE90867 		strd	r6, [lr, #32]
 151              		.loc 1 183 0
 152 005c CEE90A45 		strd	r4, [lr, #40]
 153              		.loc 1 184 0
 154 0060 CEE90C23 		strd	r2, [lr, #48]
 155              		.loc 1 185 0
 156 0064 CEE90E01 		strd	r0, [lr, #56]
 157              		.loc 1 186 0
 158 0068 CEE910AB 		strd	r10, [lr, #64]
 159              		.loc 1 187 0
 160 006c CEE91289 		strd	r8, [lr, #72]
 161              		.loc 1 190 0
 162 0070 CEF8D0C1 		str	ip, [lr, #464]
 163 0074 BDE8F08F 		pop	{r4, r5, r6, r7, r8, r9, r10, fp, pc}
 164              	.LVL9:
 165              	.L12:
 166              		.loc 1 168 0
 167 0078 27A5     		adr	r5, .L13+64
 168 007a D5E90045 		ldrd	r4, [r5]
ARM GAS  C:\Users\jo\AppData\Local\Temp\ccyP7UZh.s 			page 4


 169              		.loc 1 169 0
 170 007e 28A1     		adr	r1, .L13+72
 171 0080 D1E90001 		ldrd	r0, [r1]
 172              	.LVL10:
 173              		.loc 1 170 0
 174 0084 28A3     		adr	r3, .L13+80
 175 0086 D3E90023 		ldrd	r2, [r3]
 176              		.loc 1 171 0
 177 008a 29A7     		adr	r7, .L13+88
 178 008c D7E90067 		ldrd	r6, [r7]
 179              		.loc 1 172 0
 180 0090 0FF2A409 		adr	r9, .L13+96
 181 0094 D9E90089 		ldrd	r8, [r9]
 182              		.loc 1 173 0
 183 0098 0FF2A40B 		adr	fp, .L13+104
 184 009c DBE900AB 		ldrd	r10, [fp]
 185              		.loc 1 168 0
 186 00a0 CEE90445 		strd	r4, [lr, #16]
 187              		.loc 1 169 0
 188 00a4 CEE90601 		strd	r0, [lr, #24]
 189              		.loc 1 174 0
 190 00a8 27A5     		adr	r5, .L13+112
 191 00aa D5E90045 		ldrd	r4, [r5]
 192              		.loc 1 175 0
 193 00ae 28A1     		adr	r1, .L13+120
 194 00b0 D1E90001 		ldrd	r0, [r1]
 195              		.loc 1 170 0
 196 00b4 CEE90823 		strd	r2, [lr, #32]
 197              		.loc 1 171 0
 198 00b8 CEE90A67 		strd	r6, [lr, #40]
 199              		.loc 1 172 0
 200 00bc CEE90C89 		strd	r8, [lr, #48]
 201              		.loc 1 173 0
 202 00c0 CEE90EAB 		strd	r10, [lr, #56]
 203              		.loc 1 174 0
 204 00c4 CEE91045 		strd	r4, [lr, #64]
 205              		.loc 1 175 0
 206 00c8 CEE91201 		strd	r0, [lr, #72]
 207              		.loc 1 190 0
 208 00cc CEF8D0C1 		str	ip, [lr, #464]
 209 00d0 BDE8F08F 		pop	{r4, r5, r6, r7, r8, r9, r10, fp, pc}
 210              	.L14:
 211 00d4 AFF30080 		.align	3
 212              	.L13:
 213 00d8 D89E05C1 		.word	-1056596264
 214 00dc 5D9DBBCB 		.word	-876896931
 215 00e0 07D57C36 		.word	914150663
 216 00e4 2A299A62 		.word	1654270250
 217 00e8 17DD7030 		.word	812702999
 218 00ec 5A015991 		.word	-1856437926
 219 00f0 39590EF7 		.word	-150054599
 220 00f4 D8EC2F15 		.word	355462360
 221 00f8 310BC0FF 		.word	-4191439
 222 00fc 67263367 		.word	1731405415
 223 0100 11155868 		.word	1750603025
 224 0104 874AB48E 		.word	-1900787065
 225 0108 A78FF964 		.word	1694076839
ARM GAS  C:\Users\jo\AppData\Local\Temp\ccyP7UZh.s 			page 5


 226 010c 0D2E0CDB 		.word	-619958771
 227 0110 A44FFABE 		.word	-1090891868
 228 0114 1D48B547 		.word	1203062813
 229 0118 08C9BCF3 		.word	-205731576
 230 011c 67E6096A 		.word	1779033703
 231 0120 3BA7CA84 		.word	-2067093701
 232 0124 85AE67BB 		.word	-1150833019
 233 0128 2BF894FE 		.word	-23791573
 234 012c 72F36E3C 		.word	1013904242
 235 0130 F1361D5F 		.word	1595750129
 236 0134 3AF54FA5 		.word	-1521486534
 237 0138 D182E6AD 		.word	-1377402159
 238 013c 7F520E51 		.word	1359893119
 239 0140 1F6C3E2B 		.word	725511199
 240 0144 8C68059B 		.word	-1694144372
 241 0148 6BBD41FB 		.word	-79577749
 242 014c ABD9831F 		.word	528734635
 243 0150 79217E13 		.word	327033209
 244 0154 19CDE05B 		.word	1541459225
 245              		.cfi_endproc
 246              	.LFE3:
 247              		.size	sha512_starts, .-sha512_starts
 248 0158 AFF30080 		.section	.text.sha512_process,"ax",%progbits
 248      AFF30080 
 249              		.align	2
 250              		.p2align 4,,15
 251              		.global	sha512_process
 252              		.thumb
 253              		.thumb_func
 254              		.type	sha512_process, %function
 255              	sha512_process:
 256              	.LFB4:
 257              		.loc 1 194 0
 258              		.cfi_startproc
 259              		@ args = 0, pretend = 0, frame = 1184
 260              		@ frame_needed = 0, uses_anonymous_args = 0
 261              	.LVL11:
 262 0000 2DE9F04F 		push	{r4, r5, r6, r7, r8, r9, r10, fp, lr}
 263              		.cfi_def_cfa_offset 36
 264              		.cfi_offset 4, -36
 265              		.cfi_offset 5, -32
 266              		.cfi_offset 6, -28
 267              		.cfi_offset 7, -24
 268              		.cfi_offset 8, -20
 269              		.cfi_offset 9, -16
 270              		.cfi_offset 10, -12
 271              		.cfi_offset 11, -8
 272              		.cfi_offset 14, -4
 273 0004 ADF2A44D 		subw	sp, sp, #1188
 274              		.cfi_def_cfa_offset 1224
 275              		.loc 1 194 0
 276 0008 8E46     		mov	lr, r1
 277              		.loc 1 218 0
 278 000a 74A9     		add	r1, sp, #464
 279              	.LVL12:
 280 000c C1E900AB 		strd	r10, [r1]
 281 0010 CDE90823 		strd	r2, [sp, #32]
ARM GAS  C:\Users\jo\AppData\Local\Temp\ccyP7UZh.s 			page 6


 282              		.loc 1 194 0
 283 0014 7F90     		str	r0, [sp, #508]
 284 0016 86AD     		add	r5, sp, #536
 285              		.loc 1 218 0
 286 0018 0024     		movs	r4, #0
 287              	.LVL13:
 288              	.L16:
 289              		.loc 1 220 0 discriminator 3
 290 001a 0EEBC401 		add	r1, lr, r4, lsl #3
 291 001e 1EF83460 		ldrb	r6, [lr, r4, lsl #3]	@ zero_extendqisi2
 292 0022 4A78     		ldrb	r2, [r1, #1]	@ zero_extendqisi2
 293 0024 91F807A0 		ldrb	r10, [r1, #7]	@ zero_extendqisi2
 294 0028 4FF00008 		mov	r8, #0
 295 002c 1304     		lsls	r3, r2, #16
 296 002e 4FEA0669 		lsl	r9, r6, #24
 297 0032 8E78     		ldrb	r6, [r1, #2]	@ zero_extendqisi2
 298 0034 0F93     		str	r3, [sp, #60]
 299 0036 CDF83880 		str	r8, [sp, #56]
 300 003a 3002     		lsls	r0, r6, #8
 301 003c DDE90E67 		ldrd	r6, [sp, #56]
 302 0040 4AEA0802 		orr	r2, r10, r8
 303 0044 4FF0000B 		mov	fp, #0
 304 0048 CB78     		ldrb	r3, [r1, #3]	@ zero_extendqisi2
 305 004a 1190     		str	r0, [sp, #68]
 306 004c CDF84080 		str	r8, [sp, #64]
 307 0050 1393     		str	r3, [sp, #76]
 308 0052 1643     		orrs	r6, r6, r2
 309 0054 4BEA0903 		orr	r3, fp, r9
 310 0058 DDE910AB 		ldrd	r10, [sp, #64]
 311 005c 3246     		mov	r2, r6
 312 005e 1F43     		orrs	r7, r7, r3
 313 0060 0E79     		ldrb	r6, [r1, #4]	@ zero_extendqisi2
 314 0062 CDF84880 		str	r8, [sp, #72]
 315 0066 3B46     		mov	r3, r7
 316 0068 300A     		lsrs	r0, r6, #8
 317 006a 4AEA020A 		orr	r10, r10, r2
 318 006e 4BEA030B 		orr	fp, fp, r3
 319 0072 5246     		mov	r2, r10
 320 0074 5B46     		mov	r3, fp
 321 0076 0B90     		str	r0, [sp, #44]
 322 0078 DDE912AB 		ldrd	r10, [sp, #72]
 323 007c 3006     		lsls	r0, r6, #24
 324 007e 4E79     		ldrb	r6, [r1, #5]	@ zero_extendqisi2
 325 0080 0A90     		str	r0, [sp, #40]
 326 0082 300C     		lsrs	r0, r6, #16
 327 0084 4AEA020A 		orr	r10, r10, r2
 328 0088 4BEA030B 		orr	fp, fp, r3
 329 008c 0D90     		str	r0, [sp, #52]
 330 008e 8879     		ldrb	r0, [r1, #6]	@ zero_extendqisi2
 331 0090 5246     		mov	r2, r10
 332 0092 5B46     		mov	r3, fp
 333 0094 3604     		lsls	r6, r6, #16
 334 0096 DDE90AAB 		ldrd	r10, [sp, #40]
 335 009a 0C96     		str	r6, [sp, #48]
 336 009c 060E     		lsrs	r6, r0, #24
 337 009e 0996     		str	r6, [sp, #36]
 338 00a0 DDE90C67 		ldrd	r6, [sp, #48]
ARM GAS  C:\Users\jo\AppData\Local\Temp\ccyP7UZh.s 			page 7


 339 00a4 4BEA030B 		orr	fp, fp, r3
 340 00a8 5B46     		mov	r3, fp
 341 00aa 1F43     		orrs	r7, r7, r3
 342 00ac 4AEA020A 		orr	r10, r10, r2
 343 00b0 0302     		lsls	r3, r0, #8
 344 00b2 5246     		mov	r2, r10
 345 00b4 0893     		str	r3, [sp, #32]
 346 00b6 1643     		orrs	r6, r6, r2
 347 00b8 DDE90823 		ldrd	r2, [sp, #32]
 348              		.loc 1 218 0 discriminator 3
 349 00bc 0134     		adds	r4, r4, #1
 350              	.LVL14:
 351              		.loc 1 220 0 discriminator 3
 352 00be 3243     		orrs	r2, r2, r6
 353 00c0 3B43     		orrs	r3, r3, r7
 354              		.loc 1 218 0 discriminator 3
 355 00c2 102C     		cmp	r4, #16
 356              		.loc 1 220 0 discriminator 3
 357 00c4 E5E90223 		strd	r2, [r5, #8]!
 358              		.loc 1 218 0 discriminator 3
 359 00c8 A7D1     		bne	.L16
 360 00ca 0DF5087E 		add	lr, sp, #544
 361              	.LVL15:
 362 00ce 98AB     		add	r3, sp, #608
 363 00d0 0DF52679 		add	r9, sp, #664
 364              		.loc 1 218 0 is_stmt 0
 365 00d4 4FF04008 		mov	r8, #64
 366 00d8 CDF840E0 		str	lr, [sp, #64]
 367 00dc 0DF5227C 		add	ip, sp, #648
 368 00e0 0893     		str	r3, [sp, #32]
 369 00e2 CDF82890 		str	r9, [sp, #40]
 370 00e6 CDF83080 		str	r8, [sp, #48]
 371              	.LVL16:
 372              	.L17:
 373              		.loc 1 225 0 is_stmt 1 discriminator 2
 374 00ea 5CF8082F 		ldr	r2, [ip, #8]!
 375              		.loc 1 226 0 discriminator 2
 376 00ee DEF80800 		ldr	r0, [lr, #8]
 377              		.loc 1 225 0 discriminator 2
 378 00f2 DCF80430 		ldr	r3, [ip, #4]
 379              		.loc 1 226 0 discriminator 2
 380 00f6 DEF80C10 		ldr	r1, [lr, #12]
 381              		.loc 1 225 0 discriminator 2
 382 00fa D40C     		lsrs	r4, r2, #19
 383 00fc 44EA4334 		orr	r4, r4, r3, lsl #13
 384 0100 DD00     		lsls	r5, r3, #3
 385 0102 45EA5275 		orr	r5, r5, r2, lsr #29
 386 0106 0294     		str	r4, [sp, #8]
 387 0108 DC0C     		lsrs	r4, r3, #19
 388 010a 4FEA921A 		lsr	r10, r2, #6
 389 010e 0195     		str	r5, [sp, #4]
 390 0110 D500     		lsls	r5, r2, #3
 391 0112 44EA4232 		orr	r2, r4, r2, lsl #13
 392 0116 0392     		str	r2, [sp, #12]
 393 0118 089A     		ldr	r2, [sp, #32]
 394 011a 45EA5375 		orr	r5, r5, r3, lsr #29
 395 011e 0095     		str	r5, [sp]
ARM GAS  C:\Users\jo\AppData\Local\Temp\ccyP7UZh.s 			page 8


 396 0120 F2E90245 		ldrd	r4, [r2, #8]!
 397 0124 DDE90289 		ldrd	r8, [sp, #8]
 398 0128 4AEA836A 		orr	r10, r10, r3, lsl #26
 399 012c 4FEA931B 		lsr	fp, r3, #6
 400 0130 0892     		str	r2, [sp, #32]
 401 0132 DDE90023 		ldrd	r2, [sp]
 402 0136 CDE90E45 		strd	r4, [sp, #56]
 403 013a 83EA0903 		eor	r3, r3, r9
 404              		.loc 1 226 0 discriminator 2
 405 013e 040A     		lsrs	r4, r0, #8
 406              		.loc 1 225 0 discriminator 2
 407 0140 9946     		mov	r9, r3
 408              		.loc 1 226 0 discriminator 2
 409 0142 44EA0163 		orr	r3, r4, r1, lsl #24
 410 0146 4408     		lsrs	r4, r0, #1
 411 0148 0493     		str	r3, [sp, #16]
 412 014a 44EAC173 		orr	r3, r4, r1, lsl #31
 413 014e 0C0A     		lsrs	r4, r1, #8
 414 0150 44EA0065 		orr	r5, r4, r0, lsl #24
 415 0154 0595     		str	r5, [sp, #20]
 416 0156 DDE90E45 		ldrd	r4, [sp, #56]
 417              		.loc 1 225 0 discriminator 2
 418 015a 82EA0802 		eor	r2, r2, r8
 419 015e 82EA0A02 		eor	r2, r2, r10
 420 0162 A418     		adds	r4, r4, r2
 421 0164 2246     		mov	r2, r4
 422              		.loc 1 226 0 discriminator 2
 423 0166 4FEA5104 		lsr	r4, r1, #1
 424 016a 4FEAD016 		lsr	r6, r0, #7
 425 016e 0693     		str	r3, [sp, #24]
 426 0170 44EAC070 		orr	r0, r4, r0, lsl #31
 427              		.loc 1 225 0 discriminator 2
 428 0174 89EA0B03 		eor	r3, r9, fp
 429 0178 5D41     		adcs	r5, r5, r3
 430              		.loc 1 226 0 discriminator 2
 431 017a 0790     		str	r0, [sp, #28]
 432 017c 2B46     		mov	r3, r5
 433 017e 46EA4166 		orr	r6, r6, r1, lsl #25
 434 0182 DDE90645 		ldrd	r4, [sp, #24]
 435 0186 CF09     		lsrs	r7, r1, #7
 436 0188 DDE90401 		ldrd	r0, [sp, #16]
 437 018c FEE80289 		ldrd	r8, [lr], #8
 438 0190 6040     		eors	r0, r0, r4
 439 0192 6940     		eors	r1, r1, r5
 440 0194 12EB0804 		adds	r4, r2, r8
 441 0198 80EA0600 		eor	r0, r0, r6
 442 019c 43EB0905 		adc	r5, r3, r9
 443 01a0 7940     		eors	r1, r1, r7
 444 01a2 2218     		adds	r2, r4, r0
 445 01a4 45EB0103 		adc	r3, r5, r1
 446              		.loc 1 225 0 discriminator 2
 447 01a8 0A99     		ldr	r1, [sp, #40]
 448 01aa E1E90223 		strd	r2, [r1, #8]!
 449              		.loc 1 223 0 discriminator 2
 450 01ae 0C9B     		ldr	r3, [sp, #48]
 451              		.loc 1 225 0 discriminator 2
 452 01b0 0A91     		str	r1, [sp, #40]
ARM GAS  C:\Users\jo\AppData\Local\Temp\ccyP7UZh.s 			page 9


 453              	.LVL17:
 454              		.loc 1 223 0 discriminator 2
 455 01b2 013B     		subs	r3, r3, #1
 456 01b4 0C93     		str	r3, [sp, #48]
 457              	.LVL18:
 458 01b6 98D1     		bne	.L17
 459              	.LVL19:
 460              		.loc 1 229 0
 461 01b8 7F9A     		ldr	r2, [sp, #508]
 462 01ba D2E90401 		ldrd	r0, [r2, #16]
 463 01be 76AB     		add	r3, sp, #472
 464              	.LVL20:
 465 01c0 C3E90001 		strd	r0, [r3]
 466              	.LVL21:
 467              		.loc 1 230 0
 468 01c4 D2E90645 		ldrd	r4, [r2, #24]
 469 01c8 1346     		mov	r3, r2
 470              		.loc 1 231 0
 471 01ca D3E90867 		ldrd	r6, [r3, #32]
 472              		.loc 1 230 0
 473 01ce 80AA     		add	r2, sp, #512
 474 01d0 C2E90045 		strd	r4, [r2]
 475              	.LVL22:
 476              		.loc 1 231 0
 477 01d4 82AA     		add	r2, sp, #520
 478 01d6 1946     		mov	r1, r3
 479 01d8 C2E90067 		strd	r6, [r2]
 480              	.LVL23:
 481              		.loc 1 232 0
 482 01dc D3E90A23 		ldrd	r2, [r3, #40]
 483              		.loc 1 234 0
 484 01e0 D1E90EAB 		ldrd	r10, [r1, #56]
 485              		.loc 1 233 0
 486 01e4 D1E90C89 		ldrd	r8, [r1, #48]
 487              		.loc 1 232 0
 488 01e8 78A8     		add	r0, sp, #480
 489              	.LVL24:
 490 01ea C0E90023 		strd	r2, [r0]
 491              	.LVL25:
 492              		.loc 1 233 0
 493 01ee 84AB     		add	r3, sp, #528
 494              		.loc 1 234 0
 495 01f0 86AA     		add	r2, sp, #536
 496 01f2 C2E900AB 		strd	r10, [r2]
 497              		.loc 1 233 0
 498 01f6 C3E90089 		strd	r8, [r3]
 499              	.LVL26:
 500              		.loc 1 235 0
 501 01fa D1E91023 		ldrd	r2, [r1, #64]
 502 01fe 7AA8     		add	r0, sp, #488
 503              	.LVL27:
 504 0200 C0E90023 		strd	r2, [r0]
 505              	.LVL28:
 506              		.loc 1 236 0
 507 0204 D1E91223 		ldrd	r2, [r1, #72]
 508 0208 7CA9     		add	r1, sp, #496
 509              	.LVL29:
ARM GAS  C:\Users\jo\AppData\Local\Temp\ccyP7UZh.s 			page 10


 510 020a C1E90023 		strd	r2, [r1]
 511              	.LVL30:
 512              		.loc 1 229 0
 513 020e 76AA     		add	r2, sp, #472
 514 0210 D2E90001 		ldrd	r0, [r2]
 515              		.loc 1 232 0
 516 0214 78AA     		add	r2, sp, #480
 517              		.loc 1 230 0
 518 0216 CDE90245 		strd	r4, [sp, #8]
 519              		.loc 1 232 0
 520 021a D2E90045 		ldrd	r4, [r2]
 521              	.LVL31:
 522              		.loc 1 235 0
 523 021e 7AAA     		add	r2, sp, #488
 524              		.loc 1 232 0
 525 0220 CDE90C45 		strd	r4, [sp, #48]
 526              		.loc 1 234 0
 527 0224 5446     		mov	r4, r10
 528 0226 5D46     		mov	r5, fp
 529              		.loc 1 235 0
 530 0228 D2E900AB 		ldrd	r10, [r2]
 531              	.LVL32:
 532              		.loc 1 236 0
 533 022c 7CAA     		add	r2, sp, #496
 534              		.loc 1 234 0
 535 022e CDE90E45 		strd	r4, [sp, #56]
 536              		.loc 1 236 0
 537 0232 D2E90045 		ldrd	r4, [r2]
 538              		.loc 1 231 0
 539 0236 CDE90867 		strd	r6, [sp, #32]
 540              		.loc 1 233 0
 541 023a CDE90689 		strd	r8, [sp, #24]
 542              		.loc 1 236 0
 543 023e CDE90445 		strd	r4, [sp, #16]
 544 0242 CDE90AAB 		strd	r10, [sp, #40]
 545 0246 CDE90001 		strd	r0, [sp]
 546 024a 014B     		ldr	r3, .L23
 547 024c 109A     		ldr	r2, [sp, #64]
 548 024e 01E0     		b	.L24
 549              	.L25:
 550              		.align	2
 551              	.L23:
 552 0250 00000000 		.word	.LANCHOR0
 553              	.L24:
 554              	.LVL33:
 555              	.L18:
 556              		.loc 1 241 0 discriminator 1
 557 0254 DDE906AB 		ldrd	r10, [sp, #24]
 558 0258 5146     		mov	r1, r10
 559 025a 880C     		lsrs	r0, r1, #18
 560 025c 890B     		lsrs	r1, r1, #14
 561 025e 41EA8B41 		orr	r1, r1, fp, lsl #18
 562 0262 40EA8B30 		orr	r0, r0, fp, lsl #14
 563 0266 1691     		str	r1, [sp, #88]
 564 0268 5946     		mov	r1, fp
 565 026a 1490     		str	r0, [sp, #80]
 566 026c 5C46     		mov	r4, fp
ARM GAS  C:\Users\jo\AppData\Local\Temp\ccyP7UZh.s 			page 11


 567 026e 5846     		mov	r0, fp
 568 0270 C905     		lsls	r1, r1, #23
 569 0272 5546     		mov	r5, r10
 570 0274 41EA5A21 		orr	r1, r1, r10, lsr #9
 571 0278 A40C     		lsrs	r4, r4, #18
 572 027a 800B     		lsrs	r0, r0, #14
 573 027c 44EA8A34 		orr	r4, r4, r10, lsl #14
 574 0280 40EA8A40 		orr	r0, r0, r10, lsl #18
 575 0284 1991     		str	r1, [sp, #100]
 576 0286 E905     		lsls	r1, r5, #23
 577 0288 1594     		str	r4, [sp, #84]
 578 028a 1790     		str	r0, [sp, #92]
 579 028c 41EA5B21 		orr	r1, r1, fp, lsr #9
 580 0290 DDE91645 		ldrd	r4, [sp, #88]
 581 0294 DDE91467 		ldrd	r6, [sp, #80]
 582 0298 1891     		str	r1, [sp, #96]
 583 029a DDE91889 		ldrd	r8, [sp, #96]
 584 029e 6640     		eors	r6, r6, r4
 585 02a0 6F40     		eors	r7, r7, r5
 586 02a2 88EA0608 		eor	r8, r8, r6
 587 02a6 89EA0709 		eor	r9, r9, r7
 588 02aa CDE91089 		strd	r8, [sp, #64]
 589 02ae D2E90067 		ldrd	r6, [r2]
 590 02b2 D3E90089 		ldrd	r8, [r3]
 591 02b6 DDE90E45 		ldrd	r4, [sp, #56]
 592 02ba DDE90A01 		ldrd	r0, [sp, #40]
 593 02be 16EB0806 		adds	r6, r6, r8
 594 02c2 47EB0907 		adc	r7, r7, r9
 595 02c6 6040     		eors	r0, r0, r4
 596 02c8 6940     		eors	r1, r1, r5
 597 02ca B046     		mov	r8, r6
 598 02cc B946     		mov	r9, r7
 599 02ce 5646     		mov	r6, r10
 600 02d0 5F46     		mov	r7, fp
 601 02d2 0640     		ands	r6, r6, r0
 602 02d4 0F40     		ands	r7, r7, r1
 603 02d6 3046     		mov	r0, r6
 604 02d8 3946     		mov	r1, r7
 605 02da DDE91067 		ldrd	r6, [sp, #64]
 606 02de 019C     		ldr	r4, [sp, #4]
 607 02e0 DDE900AB 		ldrd	r10, [sp]
 608 02e4 16EB0806 		adds	r6, r6, r8
 609 02e8 4FEA8475 		lsl	r5, r4, #30
 610 02ec 009C     		ldr	r4, [sp]
 611 02ee 47EB0907 		adc	r7, r7, r9
 612 02f2 DDE90A89 		ldrd	r8, [sp, #40]
 613 02f6 45EA9A05 		orr	r5, r5, r10, lsr #2
 614 02fa 240F     		lsrs	r4, r4, #28
 615 02fc 1B95     		str	r5, [sp, #108]
 616 02fe 4FEA8A7E 		lsl	lr, r10, #30
 617 0302 44EA0B15 		orr	r5, r4, fp, lsl #4
 618 0306 5C46     		mov	r4, fp
 619 0308 1C95     		str	r5, [sp, #112]
 620 030a 89EA0109 		eor	r9, r9, r1
 621 030e 250F     		lsrs	r5, r4, #28
 622 0310 4EEA9B01 		orr	r1, lr, fp, lsr #2
 623 0314 1A91     		str	r1, [sp, #104]
ARM GAS  C:\Users\jo\AppData\Local\Temp\ccyP7UZh.s 			page 12


 624 0316 6406     		lsls	r4, r4, #25
 625 0318 45EA0A11 		orr	r1, r5, r10, lsl #4
 626 031c 1D91     		str	r1, [sp, #116]
 627 031e 4FEA4A6E 		lsl	lr, r10, #25
 628 0322 44EADA11 		orr	r1, r4, r10, lsr #7
 629 0326 DDE902AB 		ldrd	r10, [sp, #8]
 630 032a 88EA0008 		eor	r8, r8, r0
 631 032e 1F91     		str	r1, [sp, #124]
 632 0330 DDE90001 		ldrd	r0, [sp]
 633 0334 5446     		mov	r4, r10
 634 0336 5D46     		mov	r5, fp
 635 0338 2043     		orrs	r0, r0, r4
 636 033a 0446     		mov	r4, r0
 637 033c 2943     		orrs	r1, r1, r5
 638 033e 18EB0600 		adds	r0, r8, r6
 639 0342 0D46     		mov	r5, r1
 640 0344 49EB0701 		adc	r1, r9, r7
 641 0348 DDE91C67 		ldrd	r6, [sp, #112]
 642 034c DDE91A89 		ldrd	r8, [sp, #104]
 643 0350 88EA0608 		eor	r8, r8, r6
 644 0354 019E     		ldr	r6, [sp, #4]
 645 0356 89EA0709 		eor	r9, r9, r7
 646 035a 4EEAD617 		orr	r7, lr, r6, lsr #7
 647 035e 1E97     		str	r7, [sp, #120]
 648 0360 DDE90867 		ldrd	r6, [sp, #32]
 649 0364 2640     		ands	r6, r6, r4
 650 0366 2F40     		ands	r7, r7, r5
 651 0368 3446     		mov	r4, r6
 652 036a 3D46     		mov	r5, r7
 653 036c 5646     		mov	r6, r10
 654 036e 5F46     		mov	r7, fp
 655 0370 DDE900AB 		ldrd	r10, [sp]
 656 0374 0AEA060A 		and	r10, r10, r6
 657 0378 0BEA070B 		and	fp, fp, r7
 658 037c 5646     		mov	r6, r10
 659 037e 5F46     		mov	r7, fp
 660 0380 DDE904AB 		ldrd	r10, [sp, #16]
 661 0384 1AEB000A 		adds	r10, r10, r0
 662 0388 4BEB010B 		adc	fp, fp, r1
 663 038c 5046     		mov	r0, r10
 664 038e 5946     		mov	r1, fp
 665              	.LVL34:
 666 0390 DDE91EAB 		ldrd	r10, [sp, #120]
 667 0394 8AEA080A 		eor	r10, r10, r8
 668 0398 8BEA090B 		eor	fp, fp, r9
 669 039c DDE90C89 		ldrd	r8, [sp, #48]
 670 03a0 18EB0008 		adds	r8, r8, r0
 671 03a4 CDE904AB 		strd	r10, [sp, #16]
 672              	.LVL35:
 673 03a8 49EB0109 		adc	r9, r9, r1
 674 03ac C246     		mov	r10, r8
 675 03ae CB46     		mov	fp, r9
 676              	.LVL36:
 677 03b0 DDE90489 		ldrd	r8, [sp, #16]
 678 03b4 3443     		orrs	r4, r4, r6
 679 03b6 18EB0408 		adds	r8, r8, r4
 680 03ba 45EA0705 		orr	r5, r5, r7
ARM GAS  C:\Users\jo\AppData\Local\Temp\ccyP7UZh.s 			page 13


 681              		.loc 1 242 0 discriminator 1
 682 03be CDE904AB 		strd	r10, [sp, #16]
 683              		.loc 1 241 0 discriminator 1
 684 03c2 49EB0509 		adc	r9, r9, r5
 685 03c6 18EB0006 		adds	r6, r8, r0
 686 03ca 49EB0107 		adc	r7, r9, r1
 687              		.loc 1 242 0 discriminator 1
 688 03ce DDE90489 		ldrd	r8, [sp, #16]
 689 03d2 5446     		mov	r4, r10
 690 03d4 A50C     		lsrs	r5, r4, #18
 691 03d6 45EA8931 		orr	r1, r5, r9, lsl #14
 692 03da 2091     		str	r1, [sp, #128]
 693 03dc A40B     		lsrs	r4, r4, #14
 694 03de 4946     		mov	r1, r9
 695              		.loc 1 241 0 discriminator 1
 696 03e0 B246     		mov	r10, r6
 697              	.LVL37:
 698              		.loc 1 242 0 discriminator 1
 699 03e2 8E0C     		lsrs	r6, r1, #18
 700 03e4 44EA8941 		orr	r1, r4, r9, lsl #18
 701 03e8 2291     		str	r1, [sp, #136]
 702 03ea 4946     		mov	r1, r9
 703              		.loc 1 241 0 discriminator 1
 704 03ec BB46     		mov	fp, r7
 705              	.LVL38:
 706              		.loc 1 242 0 discriminator 1
 707 03ee BC07     		lsls	r4, r7, #30
 708 03f0 8D0B     		lsrs	r5, r1, #14
 709 03f2 46EA8837 		orr	r7, r6, r8, lsl #14
 710 03f6 2197     		str	r7, [sp, #132]
 711 03f8 45EA8845 		orr	r5, r5, r8, lsl #18
 712 03fc DDE90E67 		ldrd	r6, [sp, #56]
 713 0400 DDE90689 		ldrd	r8, [sp, #24]
 714              	.LVL39:
 715 0404 88EA0608 		eor	r8, r8, r6
 716 0408 89EA0709 		eor	r9, r9, r7
 717 040c DDE90467 		ldrd	r6, [sp, #16]
 718 0410 2395     		str	r5, [sp, #140]
 719 0412 44EA9A05 		orr	r5, r4, r10, lsr #2
 720 0416 2795     		str	r5, [sp, #156]
 721 0418 06EA0804 		and	r4, r6, r8
 722 041c 07EA0905 		and	r5, r7, r9
 723 0420 CDE91045 		strd	r4, [sp, #64]
 724 0424 D2E90289 		ldrd	r8, [r2, #8]
 725 0428 D3E90245 		ldrd	r4, [r3, #8]
 726 042c C805     		lsls	r0, r1, #23
 727              	.LVL40:
 728 042e 5146     		mov	r1, r10
 729 0430 090F     		lsrs	r1, r1, #28
 730 0432 14EB0804 		adds	r4, r4, r8
 731 0436 41EA0B11 		orr	r1, r1, fp, lsl #4
 732 043a 45EB0905 		adc	r5, r5, r9
 733 043e 2891     		str	r1, [sp, #160]
 734 0440 5146     		mov	r1, r10
 735 0442 CDE90C45 		strd	r4, [sp, #48]
 736 0446 8907     		lsls	r1, r1, #30
 737 0448 5C46     		mov	r4, fp
ARM GAS  C:\Users\jo\AppData\Local\Temp\ccyP7UZh.s 			page 14


 738 044a 40EA5620 		orr	r0, r0, r6, lsr #9
 739 044e 250F     		lsrs	r5, r4, #28
 740 0450 41EA9B01 		orr	r1, r1, fp, lsr #2
 741 0454 2590     		str	r0, [sp, #148]
 742 0456 6406     		lsls	r4, r4, #25
 743 0458 F005     		lsls	r0, r6, #23
 744 045a 2691     		str	r1, [sp, #152]
 745 045c 45EA0A11 		orr	r1, r5, r10, lsl #4
 746 0460 40EA5720 		orr	r0, r0, r7, lsr #9
 747 0464 2991     		str	r1, [sp, #164]
 748 0466 44EADA11 		orr	r1, r4, r10, lsr #7
 749 046a DDE92289 		ldrd	r8, [sp, #136]
 750 046e 2490     		str	r0, [sp, #144]
 751 0470 2B91     		str	r1, [sp, #172]
 752 0472 DDE92001 		ldrd	r0, [sp, #128]
 753 0476 DDE90E45 		ldrd	r4, [sp, #56]
 754 047a 80EA0800 		eor	r0, r0, r8
 755 047e 81EA0901 		eor	r1, r1, r9
 756 0482 DDE91089 		ldrd	r8, [sp, #64]
 757 0486 DDE90C67 		ldrd	r6, [sp, #48]
 758 048a 88EA0408 		eor	r8, r8, r4
 759 048e 89EA0509 		eor	r9, r9, r5
 760 0492 DDE90A45 		ldrd	r4, [sp, #40]
 761 0496 3619     		adds	r6, r6, r4
 762 0498 6F41     		adcs	r7, r7, r5
 763 049a 3446     		mov	r4, r6
 764 049c 3D46     		mov	r5, r7
 765 049e DDE90067 		ldrd	r6, [sp]
 766 04a2 CDE90A45 		strd	r4, [sp, #40]
 767              	.LVL41:
 768 04a6 5D46     		mov	r5, fp
 769 04a8 4FEA4A6E 		lsl	lr, r10, #25
 770 04ac 5446     		mov	r4, r10
 771 04ae 2F43     		orrs	r7, r7, r5
 772 04b0 3D46     		mov	r5, r7
 773 04b2 2643     		orrs	r6, r6, r4
 774 04b4 4EEADB17 		orr	r7, lr, fp, lsr #7
 775 04b8 2A97     		str	r7, [sp, #168]
 776 04ba 3446     		mov	r4, r6
 777 04bc DDE92467 		ldrd	r6, [sp, #144]
 778 04c0 4640     		eors	r6, r6, r0
 779 04c2 4F40     		eors	r7, r7, r1
 780 04c4 DDE90A01 		ldrd	r0, [sp, #40]
 781 04c8 10EB0800 		adds	r0, r0, r8
 782 04cc 41EB0901 		adc	r1, r1, r9
 783 04d0 CDE91067 		strd	r6, [sp, #64]
 784 04d4 DDE92889 		ldrd	r8, [sp, #160]
 785 04d8 0646     		mov	r6, r0
 786 04da 0F46     		mov	r7, r1
 787 04dc DDE92601 		ldrd	r0, [sp, #152]
 788 04e0 80EA0800 		eor	r0, r0, r8
 789 04e4 81EA0901 		eor	r1, r1, r9
 790 04e8 DDE90289 		ldrd	r8, [sp, #8]
 791 04ec 08EA0408 		and	r8, r8, r4
 792 04f0 09EA0509 		and	r9, r9, r5
 793 04f4 DDE90045 		ldrd	r4, [sp]
 794 04f8 04EA0A04 		and	r4, r4, r10
ARM GAS  C:\Users\jo\AppData\Local\Temp\ccyP7UZh.s 			page 15


 795 04fc 05EA0B05 		and	r5, r5, fp
 796 0500 CDE90A89 		strd	r8, [sp, #40]
 797 0504 A046     		mov	r8, r4
 798 0506 A946     		mov	r9, r5
 799 0508 DDE91045 		ldrd	r4, [sp, #64]
 800 050c A419     		adds	r4, r4, r6
 801 050e 7D41     		adcs	r5, r5, r7
 802 0510 2646     		mov	r6, r4
 803 0512 2F46     		mov	r7, r5
 804              	.LVL42:
 805 0514 DDE92A45 		ldrd	r4, [sp, #168]
 806 0518 4440     		eors	r4, r4, r0
 807 051a 4D40     		eors	r5, r5, r1
 808 051c DDE90801 		ldrd	r0, [sp, #32]
 809 0520 CDE90CAB 		strd	r10, [sp, #48]
 810              	.LVL43:
 811 0524 A246     		mov	r10, r4
 812              	.LVL44:
 813 0526 AB46     		mov	fp, r5
 814 0528 DDE90A45 		ldrd	r4, [sp, #40]
 815 052c 8019     		adds	r0, r0, r6
 816 052e 7941     		adcs	r1, r1, r7
 817 0530 44EA0804 		orr	r4, r4, r8
 818 0534 8046     		mov	r8, r0
 819 0536 45EA0905 		orr	r5, r5, r9
 820 053a 1AEB0400 		adds	r0, r10, r4
 821 053e 8946     		mov	r9, r1
 822              	.LVL45:
 823              		.loc 1 243 0 discriminator 1
 824 0540 4446     		mov	r4, r8
 825 0542 C246     		mov	r10, r8
 826              		.loc 1 242 0 discriminator 1
 827 0544 4BEB0501 		adc	r1, fp, r5
 828              		.loc 1 243 0 discriminator 1
 829 0548 CB46     		mov	fp, r9
 830 054a A50C     		lsrs	r5, r4, #18
 831 054c 4446     		mov	r4, r8
 832              		.loc 1 242 0 discriminator 1
 833 054e 10EB0608 		adds	r8, r0, r6
 834              	.LVL46:
 835 0552 41EB0709 		adc	r9, r1, r7
 836              	.LVL47:
 837              		.loc 1 243 0 discriminator 1
 838 0556 45EA8B31 		orr	r1, r5, fp, lsl #14
 839 055a A40B     		lsrs	r4, r4, #14
 840 055c 2C91     		str	r1, [sp, #176]
 841 055e 5946     		mov	r1, fp
 842 0560 8E0C     		lsrs	r6, r1, #18
 843              	.LVL48:
 844 0562 44EA8B41 		orr	r1, r4, fp, lsl #18
 845 0566 2E91     		str	r1, [sp, #184]
 846 0568 5946     		mov	r1, fp
 847 056a 46EA8A37 		orr	r7, r6, r10, lsl #14
 848 056e 8D0B     		lsrs	r5, r1, #14
 849 0570 C805     		lsls	r0, r1, #23
 850 0572 4946     		mov	r1, r9
 851 0574 CDE90889 		strd	r8, [sp, #32]
ARM GAS  C:\Users\jo\AppData\Local\Temp\ccyP7UZh.s 			page 16


 852 0578 8C07     		lsls	r4, r1, #30
 853 057a 2D97     		str	r7, [sp, #180]
 854 057c 4146     		mov	r1, r8
 855 057e DDE90467 		ldrd	r6, [sp, #16]
 856 0582 DDE90689 		ldrd	r8, [sp, #24]
 857              	.LVL49:
 858 0586 88EA0608 		eor	r8, r8, r6
 859 058a 89EA0709 		eor	r9, r9, r7
 860 058e DDE90867 		ldrd	r6, [sp, #32]
 861 0592 45EA8A45 		orr	r5, r5, r10, lsl #18
 862 0596 40EA5A20 		orr	r0, r0, r10, lsr #9
 863 059a 2F95     		str	r5, [sp, #188]
 864 059c 5546     		mov	r5, r10
 865 059e 3190     		str	r0, [sp, #196]
 866 05a0 E805     		lsls	r0, r5, #23
 867 05a2 44EA9605 		orr	r5, r4, r6, lsr #2
 868 05a6 3395     		str	r5, [sp, #204]
 869 05a8 0AEA0804 		and	r4, r10, r8
 870 05ac 0BEA0905 		and	r5, fp, r9
 871 05b0 CDE90AAB 		strd	r10, [sp, #40]
 872 05b4 A046     		mov	r8, r4
 873 05b6 D2E904AB 		ldrd	r10, [r2, #16]
 874 05ba A946     		mov	r9, r5
 875 05bc D3E90445 		ldrd	r4, [r3, #16]
 876 05c0 090F     		lsrs	r1, r1, #28
 877 05c2 14EB0A04 		adds	r4, r4, r10
 878 05c6 41EA0711 		orr	r1, r1, r7, lsl #4
 879 05ca 45EB0B05 		adc	r5, r5, fp
 880 05ce 3491     		str	r1, [sp, #208]
 881 05d0 BB46     		mov	fp, r7
 882 05d2 B107     		lsls	r1, r6, #30
 883 05d4 B246     		mov	r10, r6
 884 05d6 CDE90845 		strd	r4, [sp, #32]
 885              	.LVL50:
 886 05da 0B9E     		ldr	r6, [sp, #44]
 887              	.LVL51:
 888 05dc 3D0F     		lsrs	r5, r7, #28
 889 05de 41EA9B01 		orr	r1, r1, fp, lsr #2
 890 05e2 7C06     		lsls	r4, r7, #25
 891 05e4 3291     		str	r1, [sp, #200]
 892 05e6 45EA0A11 		orr	r1, r5, r10, lsl #4
 893 05ea 40EA5620 		orr	r0, r0, r6, lsr #9
 894 05ee 3591     		str	r1, [sp, #212]
 895 05f0 44EADA11 		orr	r1, r4, r10, lsr #7
 896 05f4 3090     		str	r0, [sp, #192]
 897 05f6 3791     		str	r1, [sp, #220]
 898 05f8 DDE92C01 		ldrd	r0, [sp, #176]
 899 05fc DDE90645 		ldrd	r4, [sp, #24]
 900 0600 5646     		mov	r6, r10
 901 0602 5F46     		mov	r7, fp
 902 0604 4FEA4A6E 		lsl	lr, r10, #25
 903 0608 DDE92EAB 		ldrd	r10, [sp, #184]
 904 060c 84EA0804 		eor	r4, r4, r8
 905 0610 85EA0905 		eor	r5, r5, r9
 906 0614 80EA0A00 		eor	r0, r0, r10
 907 0618 81EA0B01 		eor	r1, r1, fp
 908 061c A046     		mov	r8, r4
ARM GAS  C:\Users\jo\AppData\Local\Temp\ccyP7UZh.s 			page 17


 909 061e DDE908AB 		ldrd	r10, [sp, #32]
 910 0622 A946     		mov	r9, r5
 911 0624 DDE90E45 		ldrd	r4, [sp, #56]
 912 0628 1AEB040A 		adds	r10, r10, r4
 913 062c 4BEB050B 		adc	fp, fp, r5
 914 0630 5446     		mov	r4, r10
 915 0632 5D46     		mov	r5, fp
 916 0634 DDE90CAB 		ldrd	r10, [sp, #48]
 917 0638 CDE90E45 		strd	r4, [sp, #56]
 918              	.LVL52:
 919 063c 5D46     		mov	r5, fp
 920 063e CDE90867 		strd	r6, [sp, #32]
 921 0642 3D43     		orrs	r5, r5, r7
 922 0644 5446     		mov	r4, r10
 923 0646 4EEAD717 		orr	r7, lr, r7, lsr #7
 924 064a 3443     		orrs	r4, r4, r6
 925 064c 3697     		str	r7, [sp, #216]
 926 064e DDE93067 		ldrd	r6, [sp, #192]
 927 0652 4640     		eors	r6, r6, r0
 928 0654 4F40     		eors	r7, r7, r1
 929 0656 CDE91067 		strd	r6, [sp, #64]
 930 065a DDE90E67 		ldrd	r6, [sp, #56]
 931 065e 16EB0806 		adds	r6, r6, r8
 932 0662 47EB0907 		adc	r7, r7, r9
 933 0666 DDE93201 		ldrd	r0, [sp, #200]
 934 066a DDE93489 		ldrd	r8, [sp, #208]
 935 066e 80EA0800 		eor	r0, r0, r8
 936 0672 81EA0901 		eor	r1, r1, r9
 937 0676 DDE90089 		ldrd	r8, [sp]
 938 067a 08EA0408 		and	r8, r8, r4
 939 067e 09EA0509 		and	r9, r9, r5
 940 0682 DDE90845 		ldrd	r4, [sp, #32]
 941 0686 CDE90E89 		strd	r8, [sp, #56]
 942 068a 0AEA0408 		and	r8, r10, r4
 943 068e 0BEA0509 		and	r9, fp, r5
 944 0692 DDE910AB 		ldrd	r10, [sp, #64]
 945 0696 1AEB060A 		adds	r10, r10, r6
 946 069a 4BEB070B 		adc	fp, fp, r7
 947 069e 5646     		mov	r6, r10
 948 06a0 5F46     		mov	r7, fp
 949              	.LVL53:
 950 06a2 DDE936AB 		ldrd	r10, [sp, #216]
 951 06a6 8AEA000A 		eor	r10, r10, r0
 952 06aa 8BEA010B 		eor	fp, fp, r1
 953 06ae DDE90201 		ldrd	r0, [sp, #8]
 954 06b2 8019     		adds	r0, r0, r6
 955 06b4 CDE910AB 		strd	r10, [sp, #64]
 956 06b8 7941     		adcs	r1, r1, r7
 957 06ba DDE90E45 		ldrd	r4, [sp, #56]
 958              	.LVL54:
 959 06be 8246     		mov	r10, r0
 960 06c0 8B46     		mov	fp, r1
 961              	.LVL55:
 962 06c2 DDE91001 		ldrd	r0, [sp, #64]
 963 06c6 44EA0804 		orr	r4, r4, r8
 964 06ca 0019     		adds	r0, r0, r4
 965 06cc 45EA0905 		orr	r5, r5, r9
ARM GAS  C:\Users\jo\AppData\Local\Temp\ccyP7UZh.s 			page 18


 966 06d0 6941     		adcs	r1, r1, r5
 967 06d2 10EB0608 		adds	r8, r0, r6
 968              		.loc 1 244 0 discriminator 1
 969 06d6 CDE902AB 		strd	r10, [sp, #8]
 970              		.loc 1 243 0 discriminator 1
 971 06da 41EB0709 		adc	r9, r1, r7
 972 06de CB46     		mov	fp, r9
 973              		.loc 1 244 0 discriminator 1
 974 06e0 5446     		mov	r4, r10
 975              		.loc 1 243 0 discriminator 1
 976 06e2 C246     		mov	r10, r8
 977              	.LVL56:
 978              		.loc 1 244 0 discriminator 1
 979 06e4 DDE90289 		ldrd	r8, [sp, #8]
 980 06e8 A50C     		lsrs	r5, r4, #18
 981 06ea 45EA8931 		orr	r1, r5, r9, lsl #14
 982 06ee A40B     		lsrs	r4, r4, #14
 983 06f0 3891     		str	r1, [sp, #224]
 984 06f2 4946     		mov	r1, r9
 985 06f4 8E0C     		lsrs	r6, r1, #18
 986              	.LVL57:
 987 06f6 44EA8941 		orr	r1, r4, r9, lsl #18
 988 06fa 3A91     		str	r1, [sp, #232]
 989 06fc 4946     		mov	r1, r9
 990 06fe 46EA8837 		orr	r7, r6, r8, lsl #14
 991 0702 8D0B     		lsrs	r5, r1, #14
 992 0704 45EA8845 		orr	r5, r5, r8, lsl #18
 993 0708 3997     		str	r7, [sp, #228]
 994 070a DDE90A89 		ldrd	r8, [sp, #40]
 995 070e DDE90467 		ldrd	r6, [sp, #16]
 996 0712 88EA0608 		eor	r8, r8, r6
 997 0716 89EA0709 		eor	r9, r9, r7
 998 071a DDE90267 		ldrd	r6, [sp, #8]
 999 071e C805     		lsls	r0, r1, #23
 1000 0720 5946     		mov	r1, fp
 1001 0722 8C07     		lsls	r4, r1, #30
 1002 0724 40EA5620 		orr	r0, r0, r6, lsr #9
 1003 0728 3B95     		str	r5, [sp, #236]
 1004 072a 3D90     		str	r0, [sp, #244]
 1005 072c 44EA9A05 		orr	r5, r4, r10, lsr #2
 1006 0730 F005     		lsls	r0, r6, #23
 1007 0732 07EA0907 		and	r7, r7, r9
 1008 0736 06EA0806 		and	r6, r6, r8
 1009 073a 3F95     		str	r5, [sp, #252]
 1010 073c B046     		mov	r8, r6
 1011 073e D3E90645 		ldrd	r4, [r3, #24]
 1012 0742 B946     		mov	r9, r7
 1013 0744 D2E90667 		ldrd	r6, [r2, #24]
 1014 0748 5146     		mov	r1, r10
 1015 074a 090F     		lsrs	r1, r1, #28
 1016 074c A419     		adds	r4, r4, r6
 1017 074e 41EA0B11 		orr	r1, r1, fp, lsl #4
 1018 0752 7D41     		adcs	r5, r5, r7
 1019 0754 4091     		str	r1, [sp, #256]
 1020 0756 5146     		mov	r1, r10
 1021 0758 CDE90E45 		strd	r4, [sp, #56]
 1022 075c 8907     		lsls	r1, r1, #30
ARM GAS  C:\Users\jo\AppData\Local\Temp\ccyP7UZh.s 			page 19


 1023 075e 5C46     		mov	r4, fp
 1024 0760 250F     		lsrs	r5, r4, #28
 1025 0762 039E     		ldr	r6, [sp, #12]
 1026 0764 41EA9B01 		orr	r1, r1, fp, lsr #2
 1027 0768 3E91     		str	r1, [sp, #248]
 1028 076a 6406     		lsls	r4, r4, #25
 1029 076c 45EA0A11 		orr	r1, r5, r10, lsl #4
 1030 0770 40EA5620 		orr	r0, r0, r6, lsr #9
 1031 0774 4191     		str	r1, [sp, #260]
 1032 0776 44EADA11 		orr	r1, r4, r10, lsr #7
 1033 077a 3C90     		str	r0, [sp, #240]
 1034 077c DDE93A45 		ldrd	r4, [sp, #232]
 1035 0780 4391     		str	r1, [sp, #268]
 1036 0782 DDE93801 		ldrd	r0, [sp, #224]
 1037 0786 6040     		eors	r0, r0, r4
 1038 0788 6940     		eors	r1, r1, r5
 1039 078a DDE90445 		ldrd	r4, [sp, #16]
 1040 078e 84EA0804 		eor	r4, r4, r8
 1041 0792 85EA0905 		eor	r5, r5, r9
 1042 0796 DDE90667 		ldrd	r6, [sp, #24]
 1043 079a A046     		mov	r8, r4
 1044 079c A946     		mov	r9, r5
 1045 079e DDE90E45 		ldrd	r4, [sp, #56]
 1046 07a2 A419     		adds	r4, r4, r6
 1047 07a4 7D41     		adcs	r5, r5, r7
 1048 07a6 2646     		mov	r6, r4
 1049 07a8 2F46     		mov	r7, r5
 1050 07aa DDE90845 		ldrd	r4, [sp, #32]
 1051 07ae CDE90667 		strd	r6, [sp, #24]
 1052              	.LVL58:
 1053 07b2 4FEA4A6E 		lsl	lr, r10, #25
 1054 07b6 5F46     		mov	r7, fp
 1055 07b8 5646     		mov	r6, r10
 1056 07ba 3D43     		orrs	r5, r5, r7
 1057 07bc 4EEAD717 		orr	r7, lr, r7, lsr #7
 1058 07c0 3443     		orrs	r4, r4, r6
 1059 07c2 4297     		str	r7, [sp, #264]
 1060 07c4 DDE93C67 		ldrd	r6, [sp, #240]
 1061 07c8 4640     		eors	r6, r6, r0
 1062 07ca 4F40     		eors	r7, r7, r1
 1063 07cc CDE91067 		strd	r6, [sp, #64]
 1064 07d0 DDE90667 		ldrd	r6, [sp, #24]
 1065 07d4 0DF5807E 		add	lr, sp, #256
 1066 07d8 16EB0806 		adds	r6, r6, r8
 1067 07dc 47EB0907 		adc	r7, r7, r9
 1068 07e0 DDE93E01 		ldrd	r0, [sp, #248]
 1069 07e4 DEE90089 		ldrd	r8, [lr]
 1070 07e8 80EA0800 		eor	r0, r0, r8
 1071 07ec 81EA0901 		eor	r1, r1, r9
 1072 07f0 DDE90889 		ldrd	r8, [sp, #32]
 1073 07f4 CDE90EAB 		strd	r10, [sp, #56]
 1074 07f8 08EA0A08 		and	r8, r8, r10
 1075 07fc 09EA0B09 		and	r9, r9, fp
 1076 0800 DDE90CAB 		ldrd	r10, [sp, #48]
 1077              	.LVL59:
 1078 0804 0AEA040A 		and	r10, r10, r4
 1079 0808 0BEA050B 		and	fp, fp, r5
ARM GAS  C:\Users\jo\AppData\Local\Temp\ccyP7UZh.s 			page 20


 1080 080c DDE91045 		ldrd	r4, [sp, #64]
 1081 0810 A419     		adds	r4, r4, r6
 1082 0812 2646     		mov	r6, r4
 1083 0814 7D41     		adcs	r5, r5, r7
 1084 0816 42AC     		add	r4, sp, #264
 1085 0818 2F46     		mov	r7, r5
 1086              	.LVL60:
 1087 081a D4E90045 		ldrd	r4, [r4]
 1088 081e 4440     		eors	r4, r4, r0
 1089 0820 4D40     		eors	r5, r5, r1
 1090 0822 DDE90001 		ldrd	r0, [sp]
 1091 0826 8019     		adds	r0, r0, r6
 1092 0828 CDE90645 		strd	r4, [sp, #24]
 1093 082c 7941     		adcs	r1, r1, r7
 1094 082e 4AEA0804 		orr	r4, r10, r8
 1095 0832 4BEA0905 		orr	r5, fp, r9
 1096 0836 8046     		mov	r8, r0
 1097 0838 8946     		mov	r9, r1
 1098              	.LVL61:
 1099 083a DDE90601 		ldrd	r0, [sp, #24]
 1100 083e 0019     		adds	r0, r0, r4
 1101              		.loc 1 245 0 discriminator 1
 1102 0840 4446     		mov	r4, r8
 1103              		.loc 1 244 0 discriminator 1
 1104 0842 6941     		adcs	r1, r1, r5
 1105 0844 10EB060A 		adds	r10, r0, r6
 1106              		.loc 1 245 0 discriminator 1
 1107 0848 4FEA9445 		lsr	r5, r4, #18
 1108              		.loc 1 244 0 discriminator 1
 1109 084c 41EB070B 		adc	fp, r1, r7
 1110              	.LVL62:
 1111              		.loc 1 245 0 discriminator 1
 1112 0850 45EA8931 		orr	r1, r5, r9, lsl #14
 1113 0854 4491     		str	r1, [sp, #272]
 1114 0856 4946     		mov	r1, r9
 1115 0858 8E0C     		lsrs	r6, r1, #18
 1116              	.LVL63:
 1117 085a A40B     		lsrs	r4, r4, #14
 1118 085c 44EA8941 		orr	r1, r4, r9, lsl #18
 1119 0860 46EA8837 		orr	r7, r6, r8, lsl #14
 1120 0864 CDE900AB 		strd	r10, [sp]
 1121 0868 4691     		str	r1, [sp, #280]
 1122 086a 4597     		str	r7, [sp, #276]
 1123 086c DDE90A67 		ldrd	r6, [sp, #40]
 1124 0870 4946     		mov	r1, r9
 1125 0872 8D0B     		lsrs	r5, r1, #14
 1126 0874 CDE90689 		strd	r8, [sp, #24]
 1127 0878 45EA8845 		orr	r5, r5, r8, lsl #18
 1128 087c CDE91067 		strd	r6, [sp, #64]
 1129 0880 B046     		mov	r8, r6
 1130              	.LVL64:
 1131 0882 B946     		mov	r9, r7
 1132 0884 DDE90267 		ldrd	r6, [sp, #8]
 1133 0888 CC05     		lsls	r4, r1, #23
 1134 088a 88EA0608 		eor	r8, r8, r6
 1135 088e 5946     		mov	r1, fp
 1136 0890 89EA0709 		eor	r9, r9, r7
ARM GAS  C:\Users\jo\AppData\Local\Temp\ccyP7UZh.s 			page 21


 1137 0894 8807     		lsls	r0, r1, #30
 1138 0896 CB46     		mov	fp, r9
 1139 0898 5146     		mov	r1, r10
 1140 089a C246     		mov	r10, r8
 1141              	.LVL65:
 1142 089c DDE90089 		ldrd	r8, [sp]
 1143 08a0 DDE90667 		ldrd	r6, [sp, #24]
 1144 08a4 090F     		lsrs	r1, r1, #28
 1145 08a6 40EA9807 		orr	r7, r0, r8, lsr #2
 1146 08aa 41EA0911 		orr	r1, r1, r9, lsl #4
 1147 08ae 4795     		str	r5, [sp, #284]
 1148 08b0 4B97     		str	r7, [sp, #300]
 1149 08b2 44EA5625 		orr	r5, r4, r6, lsr #9
 1150 08b6 4F46     		mov	r7, r9
 1151 08b8 4446     		mov	r4, r8
 1152 08ba 4C91     		str	r1, [sp, #304]
 1153 08bc D3E90889 		ldrd	r8, [r3, #32]
 1154 08c0 D2E90801 		ldrd	r0, [r2, #32]
 1155 08c4 10EB0800 		adds	r0, r0, r8
 1156 08c8 41EB0901 		adc	r1, r1, r9
 1157 08cc CDE90A01 		strd	r0, [sp, #40]
 1158 08d0 4995     		str	r5, [sp, #292]
 1159 08d2 380F     		lsrs	r0, r7, #28
 1160 08d4 F505     		lsls	r5, r6, #23
 1161 08d6 7906     		lsls	r1, r7, #25
 1162 08d8 DDE90667 		ldrd	r6, [sp, #24]
 1163 08dc 0AEA0608 		and	r8, r10, r6
 1164 08e0 0BEA0709 		and	r9, fp, r7
 1165 08e4 45EA5725 		orr	r5, r5, r7, lsr #9
 1166 08e8 DDE90067 		ldrd	r6, [sp]
 1167 08ec A407     		lsls	r4, r4, #30
 1168 08ee 4895     		str	r5, [sp, #288]
 1169 08f0 44EA9705 		orr	r5, r4, r7, lsr #2
 1170 08f4 41EAD611 		orr	r1, r1, r6, lsr #7
 1171 08f8 4A95     		str	r5, [sp, #296]
 1172 08fa 40EA0615 		orr	r5, r0, r6, lsl #4
 1173 08fe 4D95     		str	r5, [sp, #308]
 1174 0900 4F91     		str	r1, [sp, #316]
 1175 0902 DDE90A45 		ldrd	r4, [sp, #40]
 1176 0906 DDE90401 		ldrd	r0, [sp, #16]
 1177 090a 0019     		adds	r0, r0, r4
 1178 090c 6941     		adcs	r1, r1, r5
 1179 090e CDE91201 		strd	r0, [sp, #72]
 1180 0912 DDE91001 		ldrd	r0, [sp, #64]
 1181 0916 CDE90A01 		strd	r0, [sp, #40]
 1182 091a 80EA0800 		eor	r0, r0, r8
 1183 091e 81EA0901 		eor	r1, r1, r9
 1184 0922 CDE90401 		strd	r0, [sp, #16]
 1185              	.LVL66:
 1186 0926 44A9     		add	r1, sp, #272
 1187 0928 D1E90045 		ldrd	r4, [r1]
 1188 092c 46A9     		add	r1, sp, #280
 1189 092e D1E90001 		ldrd	r0, [r1]
 1190 0932 DDE90EAB 		ldrd	r10, [sp, #56]
 1191 0936 4FEA466E 		lsl	lr, r6, #25
 1192 093a 4D40     		eors	r5, r5, r1
 1193 093c 2946     		mov	r1, r5
ARM GAS  C:\Users\jo\AppData\Local\Temp\ccyP7UZh.s 			page 22


 1194 093e 4440     		eors	r4, r4, r0
 1195 0940 4EEAD715 		orr	r5, lr, r7, lsr #7
 1196 0944 2046     		mov	r0, r4
 1197 0946 46EA0A08 		orr	r8, r6, r10
 1198 094a 47EA0B09 		orr	r9, r7, fp
 1199 094e 4E95     		str	r5, [sp, #312]
 1200 0950 DDE90467 		ldrd	r6, [sp, #16]
 1201 0954 DDE91245 		ldrd	r4, [sp, #72]
 1202 0958 3619     		adds	r6, r6, r4
 1203 095a 6F41     		adcs	r7, r7, r5
 1204 095c 3446     		mov	r4, r6
 1205 095e 3D46     		mov	r5, r7
 1206 0960 CDE90445 		strd	r4, [sp, #16]
 1207 0964 48AC     		add	r4, sp, #288
 1208 0966 D4E90067 		ldrd	r6, [r4]
 1209 096a 4F40     		eors	r7, r7, r1
 1210 096c 4AA9     		add	r1, sp, #296
 1211 096e D1E90045 		ldrd	r4, [r1]
 1212 0972 4CA9     		add	r1, sp, #304
 1213 0974 4640     		eors	r6, r6, r0
 1214 0976 D1E90001 		ldrd	r0, [r1]
 1215 097a 4440     		eors	r4, r4, r0
 1216 097c 4D40     		eors	r5, r5, r1
 1217 097e 2046     		mov	r0, r4
 1218 0980 2946     		mov	r1, r5
 1219 0982 5446     		mov	r4, r10
 1220 0984 5D46     		mov	r5, fp
 1221 0986 DDE900AB 		ldrd	r10, [sp]
 1222 098a 0AEA040A 		and	r10, r10, r4
 1223 098e 0BEA050B 		and	fp, fp, r5
 1224 0992 DDE90845 		ldrd	r4, [sp, #32]
 1225 0996 08EA0408 		and	r8, r8, r4
 1226 099a 09EA0509 		and	r9, r9, r5
 1227 099e 4446     		mov	r4, r8
 1228 09a0 4D46     		mov	r5, r9
 1229 09a2 DDE90489 		ldrd	r8, [sp, #16]
 1230 09a6 18EB0608 		adds	r8, r8, r6
 1231 09aa 49EB0709 		adc	r9, r9, r7
 1232 09ae 0DF59C7E 		add	lr, sp, #312
 1233 09b2 4646     		mov	r6, r8
 1234 09b4 4F46     		mov	r7, r9
 1235              	.LVL67:
 1236 09b6 DEE90089 		ldrd	r8, [lr]
 1237 09ba 88EA0008 		eor	r8, r8, r0
 1238 09be 89EA0109 		eor	r9, r9, r1
 1239 09c2 5046     		mov	r0, r10
 1240 09c4 5946     		mov	r1, fp
 1241 09c6 2043     		orrs	r0, r0, r4
 1242 09c8 2943     		orrs	r1, r1, r5
 1243 09ca 0446     		mov	r4, r0
 1244 09cc 0D46     		mov	r5, r1
 1245 09ce DDE90C01 		ldrd	r0, [sp, #48]
 1246 09d2 8019     		adds	r0, r0, r6
 1247 09d4 8246     		mov	r10, r0
 1248 09d6 7941     		adcs	r1, r1, r7
 1249 09d8 18EB0400 		adds	r0, r8, r4
 1250 09dc 8B46     		mov	fp, r1
ARM GAS  C:\Users\jo\AppData\Local\Temp\ccyP7UZh.s 			page 23


 1251              	.LVL68:
 1252 09de 49EB0501 		adc	r1, r9, r5
 1253 09e2 10EB0608 		adds	r8, r0, r6
 1254 09e6 41EB0709 		adc	r9, r1, r7
 1255              	.LVL69:
 1256              		.loc 1 246 0 discriminator 1
 1257 09ea 5046     		mov	r0, r10
 1258 09ec 5146     		mov	r1, r10
 1259 09ee 850B     		lsrs	r5, r0, #14
 1260 09f0 4846     		mov	r0, r9
 1261 09f2 8407     		lsls	r4, r0, #30
 1262 09f4 890C     		lsrs	r1, r1, #18
 1263 09f6 4046     		mov	r0, r8
 1264 09f8 5E46     		mov	r6, fp
 1265              	.LVL70:
 1266 09fa 41EA8B31 		orr	r1, r1, fp, lsl #14
 1267 09fe 000F     		lsrs	r0, r0, #28
 1268 0a00 40EA0917 		orr	r7, r0, r9, lsl #4
 1269 0a04 5091     		str	r1, [sp, #320]
 1270 0a06 B10C     		lsrs	r1, r6, #18
 1271 0a08 B60B     		lsrs	r6, r6, #14
 1272 0a0a 5897     		str	r7, [sp, #352]
 1273 0a0c 46EA8A47 		orr	r7, r6, r10, lsl #18
 1274 0a10 45EA8B45 		orr	r5, r5, fp, lsl #18
 1275 0a14 41EA8A31 		orr	r1, r1, r10, lsl #14
 1276 0a18 CDE904AB 		strd	r10, [sp, #16]
 1277 0a1c 5846     		mov	r0, fp
 1278 0a1e 5397     		str	r7, [sp, #332]
 1279 0a20 DDE906AB 		ldrd	r10, [sp, #24]
 1280              	.LVL71:
 1281 0a24 DDE90267 		ldrd	r6, [sp, #8]
 1282 0a28 8AEA060A 		eor	r10, r10, r6
 1283 0a2c 8BEA070B 		eor	fp, fp, r7
 1284 0a30 CDE91067 		strd	r6, [sp, #64]
 1285 0a34 5295     		str	r5, [sp, #328]
 1286 0a36 5646     		mov	r6, r10
 1287 0a38 44EA9805 		orr	r5, r4, r8, lsr #2
 1288 0a3c 5F46     		mov	r7, fp
 1289 0a3e 4446     		mov	r4, r8
 1290 0a40 CDE90C67 		strd	r6, [sp, #48]
 1291 0a44 5795     		str	r5, [sp, #348]
 1292 0a46 DDE90467 		ldrd	r6, [sp, #16]
 1293 0a4a A507     		lsls	r5, r4, #30
 1294 0a4c 5191     		str	r1, [sp, #324]
 1295 0a4e 4C46     		mov	r4, r9
 1296 0a50 4946     		mov	r1, r9
 1297 0a52 45EA9905 		orr	r5, r5, r9, lsr #2
 1298 0a56 240F     		lsrs	r4, r4, #28
 1299 0a58 4906     		lsls	r1, r1, #25
 1300 0a5a 41EAD811 		orr	r1, r1, r8, lsr #7
 1301 0a5e C005     		lsls	r0, r0, #23
 1302 0a60 5695     		str	r5, [sp, #344]
 1303 0a62 44EA0815 		orr	r5, r4, r8, lsl #4
 1304 0a66 BB46     		mov	fp, r7
 1305 0a68 3446     		mov	r4, r6
 1306 0a6a 4FEAC65C 		lsl	ip, r6, #23
 1307 0a6e 5995     		str	r5, [sp, #356]
ARM GAS  C:\Users\jo\AppData\Local\Temp\ccyP7UZh.s 			page 24


 1308 0a70 5B91     		str	r1, [sp, #364]
 1309 0a72 40EA5625 		orr	r5, r0, r6, lsr #9
 1310 0a76 D3E90A67 		ldrd	r6, [r3, #40]
 1311 0a7a D2E90A01 		ldrd	r0, [r2, #40]
 1312 0a7e 8019     		adds	r0, r0, r6
 1313 0a80 7941     		adcs	r1, r1, r7
 1314 0a82 DDE90C67 		ldrd	r6, [sp, #48]
 1315 0a86 5595     		str	r5, [sp, #340]
 1316 0a88 2640     		ands	r6, r6, r4
 1317 0a8a DDE90045 		ldrd	r4, [sp]
 1318 0a8e CDE90C89 		strd	r8, [sp, #48]
 1319 0a92 4FEA486E 		lsl	lr, r8, #25
 1320 0a96 44EA0804 		orr	r4, r4, r8
 1321 0a9a 45EA0905 		orr	r5, r5, r9
 1322 0a9e DDE90C89 		ldrd	r8, [sp, #48]
 1323 0aa2 CDE90201 		strd	r0, [sp, #8]
 1324              	.LVL72:
 1325 0aa6 5946     		mov	r1, fp
 1326 0aa8 0F40     		ands	r7, r7, r1
 1327 0aaa 4CEA5B21 		orr	r1, ip, fp, lsr #9
 1328 0aae 5491     		str	r1, [sp, #336]
 1329 0ab0 4EEAD911 		orr	r1, lr, r9, lsr #7
 1330 0ab4 5A91     		str	r1, [sp, #360]
 1331 0ab6 DDE90A01 		ldrd	r0, [sp, #40]
 1332 0aba DDE902AB 		ldrd	r10, [sp, #8]
 1333 0abe 1AEB000A 		adds	r10, r10, r0
 1334 0ac2 4BEB010B 		adc	fp, fp, r1
 1335 0ac6 5046     		mov	r0, r10
 1336 0ac8 5946     		mov	r1, fp
 1337 0aca CDE90A01 		strd	r0, [sp, #40]
 1338 0ace DDE91001 		ldrd	r0, [sp, #64]
 1339 0ad2 CDE90201 		strd	r0, [sp, #8]
 1340 0ad6 7940     		eors	r1, r1, r7
 1341 0ad8 0F46     		mov	r7, r1
 1342 0ada 7040     		eors	r0, r0, r6
 1343 0adc 0DF5A47E 		add	lr, sp, #328
 1344 0ae0 50A9     		add	r1, sp, #320
 1345 0ae2 DEE900AB 		ldrd	r10, [lr]
 1346 0ae6 0646     		mov	r6, r0
 1347 0ae8 D1E90001 		ldrd	r0, [r1]
 1348 0aec 80EA0A00 		eor	r0, r0, r10
 1349 0af0 81EA0B01 		eor	r1, r1, fp
 1350 0af4 CDE90C01 		strd	r0, [sp, #48]
 1351 0af8 56A9     		add	r1, sp, #344
 1352 0afa D1E900AB 		ldrd	r10, [r1]
 1353 0afe 58A9     		add	r1, sp, #352
 1354 0b00 D1E90001 		ldrd	r0, [r1]
 1355 0b04 8AEA000A 		eor	r10, r10, r0
 1356 0b08 8BEA010B 		eor	fp, fp, r1
 1357 0b0c 5046     		mov	r0, r10
 1358 0b0e 5946     		mov	r1, fp
 1359 0b10 DDE90EAB 		ldrd	r10, [sp, #56]
 1360 0b14 0AEA040A 		and	r10, r10, r4
 1361 0b18 0BEA050B 		and	fp, fp, r5
 1362 0b1c DDE90A45 		ldrd	r4, [sp, #40]
 1363 0b20 A419     		adds	r4, r4, r6
 1364 0b22 7D41     		adcs	r5, r5, r7
ARM GAS  C:\Users\jo\AppData\Local\Temp\ccyP7UZh.s 			page 25


 1365 0b24 DDE90067 		ldrd	r6, [sp]
 1366 0b28 CDE910AB 		strd	r10, [sp, #64]
 1367              	.LVL73:
 1368 0b2c A246     		mov	r10, r4
 1369 0b2e 54AC     		add	r4, sp, #336
 1370 0b30 AB46     		mov	fp, r5
 1371 0b32 06EA0806 		and	r6, r6, r8
 1372 0b36 07EA0907 		and	r7, r7, r9
 1373 0b3a CDE90A89 		strd	r8, [sp, #40]
 1374 0b3e D4E90089 		ldrd	r8, [r4]
 1375              	.LVL74:
 1376 0b42 DDE90C45 		ldrd	r4, [sp, #48]
 1377 0b46 88EA0408 		eor	r8, r8, r4
 1378 0b4a 5AAC     		add	r4, sp, #360
 1379 0b4c 89EA0509 		eor	r9, r9, r5
 1380 0b50 D4E90045 		ldrd	r4, [r4]
 1381 0b54 4440     		eors	r4, r4, r0
 1382 0b56 4D40     		eors	r5, r5, r1
 1383 0b58 CDE90C45 		strd	r4, [sp, #48]
 1384 0b5c DDE91045 		ldrd	r4, [sp, #64]
 1385 0b60 1AEB0800 		adds	r0, r10, r8
 1386 0b64 4BEB0901 		adc	r1, fp, r9
 1387              	.LVL75:
 1388 0b68 DDE90C89 		ldrd	r8, [sp, #48]
 1389 0b6c 3443     		orrs	r4, r4, r6
 1390 0b6e 3D43     		orrs	r5, r5, r7
 1391 0b70 DDE90867 		ldrd	r6, [sp, #32]
 1392 0b74 18EB0408 		adds	r8, r8, r4
 1393 0b78 49EB0509 		adc	r9, r9, r5
 1394 0b7c 4446     		mov	r4, r8
 1395 0b7e 3618     		adds	r6, r6, r0
 1396 0b80 B046     		mov	r8, r6
 1397 0b82 4F41     		adcs	r7, r7, r1
 1398 0b84 4D46     		mov	r5, r9
 1399 0b86 2618     		adds	r6, r4, r0
 1400 0b88 B946     		mov	r9, r7
 1401              	.LVL76:
 1402              		.loc 1 247 0 discriminator 1
 1403 0b8a 4046     		mov	r0, r8
 1404              	.LVL77:
 1405              		.loc 1 246 0 discriminator 1
 1406 0b8c 45EB0107 		adc	r7, r5, r1
 1407              	.LVL78:
 1408              		.loc 1 247 0 discriminator 1
 1409 0b90 BB46     		mov	fp, r7
 1410 0b92 4146     		mov	r1, r8
 1411 0b94 850B     		lsrs	r5, r0, #14
 1412 0b96 300F     		lsrs	r0, r6, #28
 1413 0b98 CDE90889 		strd	r8, [sp, #32]
 1414 0b9c BC07     		lsls	r4, r7, #30
 1415 0b9e 890C     		lsrs	r1, r1, #18
 1416 0ba0 40EA0B17 		orr	r7, r0, fp, lsl #4
 1417 0ba4 B246     		mov	r10, r6
 1418 0ba6 41EA8931 		orr	r1, r1, r9, lsl #14
 1419 0baa 4E46     		mov	r6, r9
 1420              	.LVL79:
 1421 0bac 6497     		str	r7, [sp, #400]
ARM GAS  C:\Users\jo\AppData\Local\Temp\ccyP7UZh.s 			page 26


 1422 0bae 089F     		ldr	r7, [sp, #32]
 1423 0bb0 5C91     		str	r1, [sp, #368]
 1424 0bb2 B10C     		lsrs	r1, r6, #18
 1425 0bb4 B60B     		lsrs	r6, r6, #14
 1426 0bb6 45EA8945 		orr	r5, r5, r9, lsl #18
 1427 0bba 46EA8747 		orr	r7, r6, r7, lsl #18
 1428 0bbe 44EA9A04 		orr	r4, r4, r10, lsr #2
 1429 0bc2 41EA8831 		orr	r1, r1, r8, lsl #14
 1430 0bc6 5E95     		str	r5, [sp, #376]
 1431 0bc8 4846     		mov	r0, r9
 1432 0bca 5546     		mov	r5, r10
 1433 0bcc DDE90689 		ldrd	r8, [sp, #24]
 1434              	.LVL80:
 1435 0bd0 5F97     		str	r7, [sp, #380]
 1436 0bd2 DDE90467 		ldrd	r6, [sp, #16]
 1437 0bd6 6394     		str	r4, [sp, #396]
 1438 0bd8 AD07     		lsls	r5, r5, #30
 1439 0bda 5C46     		mov	r4, fp
 1440 0bdc 45EA9B05 		orr	r5, r5, fp, lsr #2
 1441 0be0 240F     		lsrs	r4, r4, #28
 1442 0be2 6295     		str	r5, [sp, #392]
 1443 0be4 88EA0608 		eor	r8, r8, r6
 1444 0be8 44EA0A15 		orr	r5, r4, r10, lsl #4
 1445 0bec 89EA0709 		eor	r9, r9, r7
 1446 0bf0 4646     		mov	r6, r8
 1447 0bf2 4F46     		mov	r7, r9
 1448 0bf4 5D91     		str	r1, [sp, #372]
 1449 0bf6 6595     		str	r5, [sp, #404]
 1450 0bf8 DDE90889 		ldrd	r8, [sp, #32]
 1451 0bfc 5946     		mov	r1, fp
 1452 0bfe C005     		lsls	r0, r0, #23
 1453 0c00 4906     		lsls	r1, r1, #25
 1454 0c02 40EA5825 		orr	r5, r0, r8, lsr #9
 1455 0c06 41EADA11 		orr	r1, r1, r10, lsr #7
 1456 0c0a 6195     		str	r5, [sp, #388]
 1457 0c0c 6791     		str	r1, [sp, #412]
 1458 0c0e D3E90C45 		ldrd	r4, [r3, #48]
 1459 0c12 D2E90C01 		ldrd	r0, [r2, #48]
 1460 0c16 0019     		adds	r0, r0, r4
 1461 0c18 CDE908AB 		strd	r10, [sp, #32]
 1462              	.LVL81:
 1463 0c1c 6941     		adcs	r1, r1, r5
 1464 0c1e 4FEA4A6E 		lsl	lr, r10, #25
 1465 0c22 4446     		mov	r4, r8
 1466 0c24 DDE90AAB 		ldrd	r10, [sp, #40]
 1467 0c28 4D46     		mov	r5, r9
 1468 0c2a 3440     		ands	r4, r4, r6
 1469 0c2c 3D40     		ands	r5, r5, r7
 1470 0c2e DDE90867 		ldrd	r6, [sp, #32]
 1471 0c32 CDE90C45 		strd	r4, [sp, #48]
 1472 0c36 5446     		mov	r4, r10
 1473 0c38 4FEAC85C 		lsl	ip, r8, #23
 1474 0c3c 3443     		orrs	r4, r4, r6
 1475 0c3e 5D46     		mov	r5, fp
 1476 0c40 099E     		ldr	r6, [sp, #36]
 1477 0c42 3D43     		orrs	r5, r5, r7
 1478 0c44 4CEA5927 		orr	r7, ip, r9, lsr #9
ARM GAS  C:\Users\jo\AppData\Local\Temp\ccyP7UZh.s 			page 27


 1479 0c48 6097     		str	r7, [sp, #384]
 1480 0c4a 4EEAD617 		orr	r7, lr, r6, lsr #7
 1481 0c4e 6697     		str	r7, [sp, #408]
 1482 0c50 DDE90267 		ldrd	r6, [sp, #8]
 1483 0c54 3618     		adds	r6, r6, r0
 1484 0c56 4F41     		adcs	r7, r7, r1
 1485 0c58 CDE90267 		strd	r6, [sp, #8]
 1486              	.LVL82:
 1487 0c5c DDE90601 		ldrd	r0, [sp, #24]
 1488 0c60 DDE90C67 		ldrd	r6, [sp, #48]
 1489 0c64 0DF5BC7E 		add	lr, sp, #376
 1490 0c68 4F40     		eors	r7, r7, r1
 1491 0c6a 5CA9     		add	r1, sp, #368
 1492 0c6c 4640     		eors	r6, r6, r0
 1493 0c6e CDE90A89 		strd	r8, [sp, #40]
 1494              	.LVL83:
 1495 0c72 D1E90001 		ldrd	r0, [r1]
 1496 0c76 DEE90089 		ldrd	r8, [lr]
 1497              	.LVL84:
 1498 0c7a 80EA0800 		eor	r0, r0, r8
 1499 0c7e 81EA0901 		eor	r1, r1, r9
 1500 0c82 CDE91001 		strd	r0, [sp, #64]
 1501 0c86 0DF5C87E 		add	lr, sp, #400
 1502 0c8a 62A9     		add	r1, sp, #392
 1503 0c8c DEE90089 		ldrd	r8, [lr]
 1504 0c90 D1E90001 		ldrd	r0, [r1]
 1505 0c94 80EA0800 		eor	r0, r0, r8
 1506 0c98 81EA0901 		eor	r1, r1, r9
 1507 0c9c 8046     		mov	r8, r0
 1508 0c9e 8946     		mov	r9, r1
 1509 0ca0 DDE90001 		ldrd	r0, [sp]
 1510 0ca4 2040     		ands	r0, r0, r4
 1511 0ca6 2940     		ands	r1, r1, r5
 1512 0ca8 DDE90245 		ldrd	r4, [sp, #8]
 1513 0cac A419     		adds	r4, r4, r6
 1514 0cae 7D41     		adcs	r5, r5, r7
 1515 0cb0 CDE91201 		strd	r0, [sp, #72]
 1516 0cb4 2046     		mov	r0, r4
 1517 0cb6 2946     		mov	r1, r5
 1518 0cb8 DDE90845 		ldrd	r4, [sp, #32]
 1519 0cbc 5646     		mov	r6, r10
 1520 0cbe 2640     		ands	r6, r6, r4
 1521 0cc0 5F46     		mov	r7, fp
 1522 0cc2 60AC     		add	r4, sp, #384
 1523 0cc4 2F40     		ands	r7, r7, r5
 1524 0cc6 CDE90CAB 		strd	r10, [sp, #48]
 1525 0cca D4E90045 		ldrd	r4, [r4]
 1526 0cce DDE910AB 		ldrd	r10, [sp, #64]
 1527              	.LVL85:
 1528 0cd2 84EA0A04 		eor	r4, r4, r10
 1529 0cd6 A246     		mov	r10, r4
 1530 0cd8 85EA0B05 		eor	r5, r5, fp
 1531 0cdc 66AC     		add	r4, sp, #408
 1532 0cde AB46     		mov	fp, r5
 1533 0ce0 D4E90045 		ldrd	r4, [r4]
 1534 0ce4 84EA0804 		eor	r4, r4, r8
 1535 0ce8 85EA0905 		eor	r5, r5, r9
ARM GAS  C:\Users\jo\AppData\Local\Temp\ccyP7UZh.s 			page 28


 1536 0cec A046     		mov	r8, r4
 1537 0cee A946     		mov	r9, r5
 1538 0cf0 DDE91245 		ldrd	r4, [sp, #72]
 1539 0cf4 3443     		orrs	r4, r4, r6
 1540 0cf6 1AEB0006 		adds	r6, r10, r0
 1541 0cfa 45EA0705 		orr	r5, r5, r7
 1542 0cfe 4BEB0107 		adc	r7, fp, r1
 1543 0d02 DDE90EAB 		ldrd	r10, [sp, #56]
 1544 0d06 3046     		mov	r0, r6
 1545 0d08 18EB0406 		adds	r6, r8, r4
 1546 0d0c 3946     		mov	r1, r7
 1547              	.LVL86:
 1548 0d0e 49EB0507 		adc	r7, r9, r5
 1549 0d12 1AEB000A 		adds	r10, r10, r0
 1550 0d16 4BEB010B 		adc	fp, fp, r1
 1551 0d1a 3618     		adds	r6, r6, r0
 1552 0d1c 4F41     		adcs	r7, r7, r1
 1553              		.loc 1 248 0 discriminator 1
 1554 0d1e 5046     		mov	r0, r10
 1555              	.LVL87:
 1556 0d20 5146     		mov	r1, r10
 1557 0d22 850B     		lsrs	r5, r0, #14
 1558 0d24 890C     		lsrs	r1, r1, #18
 1559              		.loc 1 247 0 discriminator 1
 1560 0d26 B046     		mov	r8, r6
 1561              		.loc 1 248 0 discriminator 1
 1562 0d28 BC07     		lsls	r4, r7, #30
 1563 0d2a 41EA8B31 		orr	r1, r1, fp, lsl #14
 1564 0d2e 45EA8B45 		orr	r5, r5, fp, lsl #18
 1565              		.loc 1 247 0 discriminator 1
 1566 0d32 B946     		mov	r9, r7
 1567              		.loc 1 248 0 discriminator 1
 1568 0d34 300F     		lsrs	r0, r6, #28
 1569              		.loc 1 247 0 discriminator 1
 1570 0d36 CDE90EAB 		strd	r10, [sp, #56]
 1571              	.LVL88:
 1572              		.loc 1 248 0 discriminator 1
 1573 0d3a 5E46     		mov	r6, fp
 1574 0d3c 6891     		str	r1, [sp, #416]
 1575 0d3e 6A95     		str	r5, [sp, #424]
 1576 0d40 44EA9805 		orr	r5, r4, r8, lsr #2
 1577 0d44 4446     		mov	r4, r8
 1578 0d46 40EA0917 		orr	r7, r0, r9, lsl #4
 1579 0d4a 6F95     		str	r5, [sp, #444]
 1580 0d4c B10C     		lsrs	r1, r6, #18
 1581 0d4e A507     		lsls	r5, r4, #30
 1582 0d50 B60B     		lsrs	r6, r6, #14
 1583 0d52 CDE90289 		strd	r8, [sp, #8]
 1584 0d56 7097     		str	r7, [sp, #448]
 1585 0d58 41EA8A31 		orr	r1, r1, r10, lsl #14
 1586 0d5c 46EA8A47 		orr	r7, r6, r10, lsl #18
 1587 0d60 45EA9905 		orr	r5, r5, r9, lsr #2
 1588 0d64 6991     		str	r1, [sp, #420]
 1589 0d66 6B97     		str	r7, [sp, #428]
 1590 0d68 6E95     		str	r5, [sp, #440]
 1591 0d6a DDE90467 		ldrd	r6, [sp, #16]
 1592 0d6e 4C46     		mov	r4, r9
ARM GAS  C:\Users\jo\AppData\Local\Temp\ccyP7UZh.s 			page 29


 1593 0d70 4946     		mov	r1, r9
 1594 0d72 029D     		ldr	r5, [sp, #8]
 1595 0d74 DDE90A89 		ldrd	r8, [sp, #40]
 1596              	.LVL89:
 1597 0d78 240F     		lsrs	r4, r4, #28
 1598 0d7a 5846     		mov	r0, fp
 1599 0d7c 44EA0515 		orr	r5, r4, r5, lsl #4
 1600 0d80 C005     		lsls	r0, r0, #23
 1601 0d82 86EA0806 		eor	r6, r6, r8
 1602 0d86 87EA0907 		eor	r7, r7, r9
 1603 0d8a 7195     		str	r5, [sp, #452]
 1604 0d8c D946     		mov	r9, fp
 1605 0d8e 40EA5A25 		orr	r5, r0, r10, lsr #9
 1606 0d92 D046     		mov	r8, r10
 1607 0d94 4FEACA5C 		lsl	ip, r10, #23
 1608 0d98 DDE902AB 		ldrd	r10, [sp, #8]
 1609              	.LVL90:
 1610 0d9c 4906     		lsls	r1, r1, #25
 1611 0d9e 41EADA11 		orr	r1, r1, r10, lsr #7
 1612 0da2 6D95     		str	r5, [sp, #436]
 1613 0da4 7391     		str	r1, [sp, #460]
 1614 0da6 D3E90E45 		ldrd	r4, [r3, #56]
 1615 0daa D2E90E01 		ldrd	r0, [r2, #56]
 1616 0dae 0019     		adds	r0, r0, r4
 1617 0db0 6941     		adcs	r1, r1, r5
 1618 0db2 4446     		mov	r4, r8
 1619 0db4 4D46     		mov	r5, r9
 1620 0db6 3440     		ands	r4, r4, r6
 1621 0db8 3D40     		ands	r5, r5, r7
 1622 0dba 2646     		mov	r6, r4
 1623 0dbc 2F46     		mov	r7, r5
 1624 0dbe DDE90845 		ldrd	r4, [sp, #32]
 1625 0dc2 CDE91001 		strd	r0, [sp, #64]
 1626 0dc6 5946     		mov	r1, fp
 1627 0dc8 4FEA4A6E 		lsl	lr, r10, #25
 1628 0dcc 0D43     		orrs	r5, r5, r1
 1629 0dce 4CEA5921 		orr	r1, ip, r9, lsr #9
 1630 0dd2 5046     		mov	r0, r10
 1631 0dd4 6C91     		str	r1, [sp, #432]
 1632 0dd6 4EEADB11 		orr	r1, lr, fp, lsr #7
 1633 0dda DDE91089 		ldrd	r8, [sp, #64]
 1634 0dde 0443     		orrs	r4, r4, r0
 1635 0de0 7291     		str	r1, [sp, #456]
 1636 0de2 DDE90601 		ldrd	r0, [sp, #24]
 1637 0de6 18EB0008 		adds	r8, r8, r0
 1638 0dea 49EB0109 		adc	r9, r9, r1
 1639 0dee DDE90401 		ldrd	r0, [sp, #16]
 1640 0df2 7940     		eors	r1, r1, r7
 1641 0df4 0F46     		mov	r7, r1
 1642 0df6 68A9     		add	r1, sp, #416
 1643 0df8 CDE90689 		strd	r8, [sp, #24]
 1644              	.LVL91:
 1645 0dfc 7040     		eors	r0, r0, r6
 1646 0dfe D1E90089 		ldrd	r8, [r1]
 1647 0e02 6AA9     		add	r1, sp, #424
 1648 0e04 0646     		mov	r6, r0
 1649 0e06 D1E90001 		ldrd	r0, [r1]
ARM GAS  C:\Users\jo\AppData\Local\Temp\ccyP7UZh.s 			page 30


 1650 0e0a 0DF5E07E 		add	lr, sp, #448
 1651 0e0e 88EA0008 		eor	r8, r8, r0
 1652 0e12 89EA0109 		eor	r9, r9, r1
 1653 0e16 6EA9     		add	r1, sp, #440
 1654 0e18 D1E90001 		ldrd	r0, [r1]
 1655 0e1c CDE91089 		strd	r8, [sp, #64]
 1656 0e20 DEE90089 		ldrd	r8, [lr]
 1657 0e24 0DF5E87E 		add	lr, sp, #464
 1658 0e28 80EA0800 		eor	r0, r0, r8
 1659 0e2c 81EA0901 		eor	r1, r1, r9
 1660 0e30 CEE90001 		strd	r0, [lr]
 1661 0e34 DDE90C01 		ldrd	r0, [sp, #48]
 1662 0e38 2040     		ands	r0, r0, r4
 1663 0e3a 2940     		ands	r1, r1, r5
 1664 0e3c DDE90645 		ldrd	r4, [sp, #24]
 1665 0e40 A419     		adds	r4, r4, r6
 1666 0e42 7D41     		adcs	r5, r5, r7
 1667 0e44 CDE91201 		strd	r0, [sp, #72]
 1668 0e48 DDE90867 		ldrd	r6, [sp, #32]
 1669 0e4c 2046     		mov	r0, r4
 1670 0e4e 5446     		mov	r4, r10
 1671 0e50 2946     		mov	r1, r5
 1672 0e52 2640     		ands	r6, r6, r4
 1673 0e54 5D46     		mov	r5, fp
 1674 0e56 6CAC     		add	r4, sp, #432
 1675 0e58 2F40     		ands	r7, r7, r5
 1676 0e5a DDE91089 		ldrd	r8, [sp, #64]
 1677 0e5e D4E90045 		ldrd	r4, [r4]
 1678 0e62 88EA0408 		eor	r8, r8, r4
 1679 0e66 72AC     		add	r4, sp, #456
 1680 0e68 DEE900AB 		ldrd	r10, [lr]
 1681 0e6c 89EA0509 		eor	r9, r9, r5
 1682 0e70 D4E90045 		ldrd	r4, [r4]
 1683 0e74 84EA0A04 		eor	r4, r4, r10
 1684 0e78 85EA0B05 		eor	r5, r5, fp
 1685 0e7c A246     		mov	r10, r4
 1686 0e7e AB46     		mov	fp, r5
 1687 0e80 DDE91245 		ldrd	r4, [sp, #72]
 1688 0e84 3443     		orrs	r4, r4, r6
 1689 0e86 18EB0006 		adds	r6, r8, r0
 1690 0e8a 45EA0705 		orr	r5, r5, r7
 1691 0e8e 49EB0107 		adc	r7, r9, r1
 1692              	.LVL92:
 1693 0e92 1AEB0400 		adds	r0, r10, r4
 1694 0e96 4BEB0501 		adc	r1, fp, r5
 1695 0e9a 0446     		mov	r4, r0
 1696 0e9c 0D46     		mov	r5, r1
 1697 0e9e DDE90001 		ldrd	r0, [sp]
 1698 0ea2 8019     		adds	r0, r0, r6
 1699 0ea4 7941     		adcs	r1, r1, r7
 1700 0ea6 CDE90601 		strd	r0, [sp, #24]
 1701              	.LVL93:
 1702 0eaa A019     		adds	r0, r4, r6
 1703              	.LVL94:
 1704 0eac 45EB0701 		adc	r1, r5, r7
 1705 0eb0 CDE90001 		strd	r0, [sp]
 1706              	.LVL95:
ARM GAS  C:\Users\jo\AppData\Local\Temp\ccyP7UZh.s 			page 31


 1707              		.loc 1 250 0 discriminator 1
 1708 0eb4 3649     		ldr	r1, .L26
 1709 0eb6 4033     		adds	r3, r3, #64
 1710 0eb8 8B42     		cmp	r3, r1
 1711 0eba 02F14002 		add	r2, r2, #64
 1712 0ebe 7FF4C9A9 		bne	.L18
 1713              		.loc 1 252 0
 1714 0ec2 76A9     		add	r1, sp, #472
 1715 0ec4 DDE90023 		ldrd	r2, [sp]
 1716 0ec8 D1E90001 		ldrd	r0, [r1]
 1717              	.LVL96:
 1718 0ecc 1218     		adds	r2, r2, r0
 1719              	.LVL97:
 1720 0ece 4B41     		adcs	r3, r3, r1
 1721 0ed0 CDE90023 		strd	r2, [sp]
 1722              	.LVL98:
 1723              		.loc 1 253 0
 1724 0ed4 80AB     		add	r3, sp, #512
 1725 0ed6 D3E90045 		ldrd	r4, [r3]
 1726 0eda DDE90201 		ldrd	r0, [sp, #8]
 1727              		.loc 1 254 0
 1728 0ede 82AB     		add	r3, sp, #520
 1729              		.loc 1 253 0
 1730 0ee0 0019     		adds	r0, r0, r4
 1731              		.loc 1 254 0
 1732 0ee2 D3E90067 		ldrd	r6, [r3]
 1733              	.LVL99:
 1734              		.loc 1 253 0
 1735 0ee6 6941     		adcs	r1, r1, r5
 1736              		.loc 1 254 0
 1737 0ee8 DDE90845 		ldrd	r4, [sp, #32]
 1738              		.loc 1 255 0
 1739 0eec 78AB     		add	r3, sp, #480
 1740              		.loc 1 254 0
 1741 0eee A419     		adds	r4, r4, r6
 1742              		.loc 1 255 0
 1743 0ef0 D3E90089 		ldrd	r8, [r3]
 1744              		.loc 1 254 0
 1745 0ef4 7D41     		adcs	r5, r5, r7
 1746              		.loc 1 255 0
 1747 0ef6 DDE90C67 		ldrd	r6, [sp, #48]
 1748              		.loc 1 256 0
 1749 0efa 84AB     		add	r3, sp, #528
 1750              		.loc 1 255 0
 1751 0efc 16EB0806 		adds	r6, r6, r8
 1752              		.loc 1 256 0
 1753 0f00 D3E90023 		ldrd	r2, [r3]
 1754              		.loc 1 255 0
 1755 0f04 47EB0907 		adc	r7, r7, r9
 1756              		.loc 1 256 0
 1757 0f08 DDE90689 		ldrd	r8, [sp, #24]
 1758 0f0c 18EB0208 		adds	r8, r8, r2
 1759 0f10 49EB0309 		adc	r9, r9, r3
 1760              		.loc 1 257 0
 1761 0f14 86AB     		add	r3, sp, #536
 1762 0f16 D3E90023 		ldrd	r2, [r3]
 1763              		.loc 1 254 0
ARM GAS  C:\Users\jo\AppData\Local\Temp\ccyP7UZh.s 			page 32


 1764 0f1a CDE90845 		strd	r4, [sp, #32]
 1765              	.LVL100:
 1766              		.loc 1 257 0
 1767 0f1e DDE90E45 		ldrd	r4, [sp, #56]
 1768 0f22 A418     		adds	r4, r4, r2
 1769 0f24 5D41     		adcs	r5, r5, r3
 1770              		.loc 1 258 0
 1771 0f26 7AAB     		add	r3, sp, #488
 1772 0f28 DDE90AAB 		ldrd	r10, [sp, #40]
 1773              		.loc 1 253 0
 1774 0f2c CDE90201 		strd	r0, [sp, #8]
 1775              	.LVL101:
 1776              		.loc 1 258 0
 1777 0f30 D3E90001 		ldrd	r0, [r3]
 1778              		.loc 1 259 0
 1779 0f34 0DF5F87E 		add	lr, sp, #496
 1780              		.loc 1 258 0
 1781 0f38 10EB0A00 		adds	r0, r0, r10
 1782 0f3c 41EB0B01 		adc	r1, r1, fp
 1783              		.loc 1 259 0
 1784 0f40 DDE90423 		ldrd	r2, [sp, #16]
 1785 0f44 DEE900AB 		ldrd	r10, [lr]
 1786 0f48 12EB0A02 		adds	r2, r2, r10
 1787 0f4c 43EB0B03 		adc	r3, r3, fp
 1788              		.loc 1 252 0
 1789 0f50 DDE900AB 		ldrd	r10, [sp]
 1790              		.loc 1 259 0
 1791 0f54 CDE90423 		strd	r2, [sp, #16]
 1792              	.LVL102:
 1793              		.loc 1 252 0
 1794 0f58 7F9A     		ldr	r2, [sp, #508]
 1795 0f5a C2E904AB 		strd	r10, [r2, #16]
 1796              		.loc 1 253 0
 1797 0f5e DDE902AB 		ldrd	r10, [sp, #8]
 1798              		.loc 1 258 0
 1799 0f62 C2E91001 		strd	r0, [r2, #64]
 1800              		.loc 1 253 0
 1801 0f66 C2E906AB 		strd	r10, [r2, #24]
 1802              		.loc 1 259 0
 1803 0f6a DDE90401 		ldrd	r0, [sp, #16]
 1804              		.loc 1 254 0
 1805 0f6e DDE908AB 		ldrd	r10, [sp, #32]
 1806              		.loc 1 255 0
 1807 0f72 C2E90A67 		strd	r6, [r2, #40]
 1808              		.loc 1 254 0
 1809 0f76 C2E908AB 		strd	r10, [r2, #32]
 1810              		.loc 1 256 0
 1811 0f7a C2E90C89 		strd	r8, [r2, #48]
 1812              		.loc 1 257 0
 1813 0f7e C2E90E45 		strd	r4, [r2, #56]
 1814              		.loc 1 259 0
 1815 0f82 C2E91201 		strd	r0, [r2, #72]
 1816              		.loc 1 260 0
 1817 0f86 0DF2A44D 		addw	sp, sp, #1188
 1818              		.cfi_def_cfa_offset 36
 1819              		@ sp needed
 1820 0f8a BDE8F08F 		pop	{r4, r5, r6, r7, r8, r9, r10, fp, pc}
ARM GAS  C:\Users\jo\AppData\Local\Temp\ccyP7UZh.s 			page 33


 1821              	.LVL103:
 1822              	.L27:
 1823 0f8e 00BF     		.align	2
 1824              	.L26:
 1825 0f90 80020000 		.word	.LANCHOR0+640
 1826              		.cfi_endproc
 1827              	.LFE4:
 1828              		.size	sha512_process, .-sha512_process
 1829 0f94 AFF30080 		.section	.text.sha512_update.part.0,"ax",%progbits
 1829      AFF30080 
 1829      AFF30080 
 1830              		.align	2
 1831              		.p2align 4,,15
 1832              		.thumb
 1833              		.thumb_func
 1834              		.type	sha512_update.part.0, %function
 1835              	sha512_update.part.0:
 1836              	.LFB15:
 1837              		.loc 1 265 0
 1838              		.cfi_startproc
 1839              		@ args = 0, pretend = 0, frame = 0
 1840              		@ frame_needed = 0, uses_anonymous_args = 0
 1841              	.LVL104:
 1842 0000 2DE9F843 		push	{r3, r4, r5, r6, r7, r8, r9, lr}
 1843              		.cfi_def_cfa_offset 32
 1844              		.cfi_offset 3, -32
 1845              		.cfi_offset 4, -28
 1846              		.cfi_offset 5, -24
 1847              		.cfi_offset 6, -20
 1848              		.cfi_offset 7, -16
 1849              		.cfi_offset 8, -12
 1850              		.cfi_offset 9, -8
 1851              		.cfi_offset 14, -4
 1852              		.loc 1 274 0
 1853 0004 D0E90089 		ldrd	r8, [r0]
 1854              		.loc 1 265 0
 1855 0008 1746     		mov	r7, r2
 1856              		.loc 1 277 0
 1857 000a 17EB0804 		adds	r4, r7, r8
 1858 000e 4FF00003 		mov	r3, #0
 1859 0012 43EB0905 		adc	r5, r3, r9
 1860              		.loc 1 279 0
 1861 0016 9D42     		cmp	r5, r3
 1862 0018 08BF     		it	eq
 1863 001a BC42     		cmpeq	r4, r7
 1864              		.loc 1 265 0
 1865 001c 0646     		mov	r6, r0
 1866 001e 8946     		mov	r9, r1
 1867              		.loc 1 277 0
 1868 0020 C0E90045 		strd	r4, [r0]
 1869              		.loc 1 274 0
 1870 0024 08F07F08 		and	r8, r8, #127
 1871              	.LVL105:
 1872              		.loc 1 279 0
 1873 0028 06D2     		bcs	.L29
 1874              		.loc 1 280 0
 1875 002a D0E90223 		ldrd	r2, [r0, #8]
ARM GAS  C:\Users\jo\AppData\Local\Temp\ccyP7UZh.s 			page 34


 1876              	.LVL106:
 1877 002e 0132     		adds	r2, r2, #1
 1878 0030 43F10003 		adc	r3, r3, #0
 1879 0034 C0E90223 		strd	r2, [r0, #8]
 1880              	.L29:
 1881              		.loc 1 282 0
 1882 0038 B8F1000F 		cmp	r8, #0
 1883 003c 16D0     		beq	.L30
 1884              		.loc 1 275 0
 1885 003e C8F18004 		rsb	r4, r8, #128
 1886              		.loc 1 282 0
 1887 0042 BC42     		cmp	r4, r7
 1888 0044 02D9     		bls	.L40
 1889              	.LVL107:
 1890              	.L32:
 1891              		.loc 1 298 0
 1892 0046 47BB     		cbnz	r7, .L41
 1893              	.LVL108:
 1894              	.L28:
 1895 0048 BDE8F883 		pop	{r3, r4, r5, r6, r7, r8, r9, pc}
 1896              	.LVL109:
 1897              	.L40:
 1898              		.loc 1 284 0
 1899 004c 08F15000 		add	r0, r8, #80
 1900              	.LVL110:
 1901 0050 4946     		mov	r1, r9
 1902              	.LVL111:
 1903 0052 2246     		mov	r2, r4
 1904 0054 3044     		add	r0, r0, r6
 1905 0056 FFF7FEFF 		bl	memcpy
 1906              	.LVL112:
 1907              		.loc 1 285 0
 1908 005a 3046     		mov	r0, r6
 1909 005c 06F15001 		add	r1, r6, #80
 1910 0060 FFF7FEFF 		bl	sha512_process
 1911              	.LVL113:
 1912              		.loc 1 287 0
 1913 0064 3F1B     		subs	r7, r7, r4
 1914              	.LVL114:
 1915              		.loc 1 286 0
 1916 0066 A144     		add	r9, r9, r4
 1917              	.LVL115:
 1918              		.loc 1 288 0
 1919 0068 4FF00008 		mov	r8, #0
 1920              	.LVL116:
 1921              	.L30:
 1922              		.loc 1 291 0
 1923 006c 7F2F     		cmp	r7, #127
 1924 006e EAD9     		bls	.L32
 1925 0070 3D46     		mov	r5, r7
 1926 0072 4C46     		mov	r4, r9
 1927              	.LVL117:
 1928              	.L33:
 1929              		.loc 1 293 0
 1930 0074 2146     		mov	r1, r4
 1931              		.loc 1 295 0
 1932 0076 803D     		subs	r5, r5, #128
ARM GAS  C:\Users\jo\AppData\Local\Temp\ccyP7UZh.s 			page 35


 1933              	.LVL118:
 1934              		.loc 1 293 0
 1935 0078 3046     		mov	r0, r6
 1936 007a FFF7FEFF 		bl	sha512_process
 1937              	.LVL119:
 1938              		.loc 1 291 0
 1939 007e 7F2D     		cmp	r5, #127
 1940              		.loc 1 294 0
 1941 0080 04F18004 		add	r4, r4, #128
 1942              	.LVL120:
 1943              		.loc 1 291 0
 1944 0084 F6D8     		bhi	.L33
 1945 0086 A7F18003 		sub	r3, r7, #128
 1946 008a 23F07F03 		bic	r3, r3, #127
 1947 008e 8033     		adds	r3, r3, #128
 1948 0090 07F07F07 		and	r7, r7, #127
 1949 0094 9944     		add	r9, r9, r3
 1950              		.loc 1 298 0
 1951 0096 002F     		cmp	r7, #0
 1952 0098 D6D0     		beq	.L28
 1953              	.LVL121:
 1954              	.L41:
 1955              		.loc 1 299 0
 1956 009a 08F15000 		add	r0, r8, #80
 1957 009e 3044     		add	r0, r0, r6
 1958 00a0 4946     		mov	r1, r9
 1959 00a2 3A46     		mov	r2, r7
 1960              		.loc 1 300 0
 1961 00a4 BDE8F843 		pop	{r3, r4, r5, r6, r7, r8, r9, lr}
 1962              		.cfi_restore 14
 1963              		.cfi_restore 9
 1964              		.cfi_restore 8
 1965              		.cfi_restore 7
 1966              		.cfi_restore 6
 1967              		.cfi_restore 5
 1968              		.cfi_restore 4
 1969              		.cfi_restore 3
 1970              		.cfi_def_cfa_offset 0
 1971              	.LVL122:
 1972              		.loc 1 299 0
 1973 00a8 FFF7FEBF 		b	memcpy
 1974              	.LVL123:
 1975              		.cfi_endproc
 1976              	.LFE15:
 1977              		.size	sha512_update.part.0, .-sha512_update.part.0
 1978 00ac AFF30080 		.section	.text.sha512_update,"ax",%progbits
 1979              		.align	2
 1980              		.p2align 4,,15
 1981              		.global	sha512_update
 1982              		.thumb
 1983              		.thumb_func
 1984              		.type	sha512_update, %function
 1985              	sha512_update:
 1986              	.LFB5:
 1987              		.loc 1 267 0
 1988              		.cfi_startproc
 1989              		@ args = 0, pretend = 0, frame = 0
ARM GAS  C:\Users\jo\AppData\Local\Temp\ccyP7UZh.s 			page 36


 1990              		@ frame_needed = 0, uses_anonymous_args = 0
 1991              		@ link register save eliminated.
 1992              	.LVL124:
 1993              		.loc 1 271 0
 1994 0000 0AB1     		cbz	r2, .L42
 1995 0002 FFF7FEBF 		b	sha512_update.part.0
 1996              	.LVL125:
 1997              	.L42:
 1998 0006 7047     		bx	lr
 1999              		.cfi_endproc
 2000              	.LFE5:
 2001              		.size	sha512_update, .-sha512_update
 2002 0008 AFF30080 		.section	.text.sha512_finish,"ax",%progbits
 2002      AFF30080 
 2003              		.align	2
 2004              		.p2align 4,,15
 2005              		.global	sha512_finish
 2006              		.thumb
 2007              		.thumb_func
 2008              		.type	sha512_finish, %function
 2009              	sha512_finish:
 2010              	.LFB6:
 2011              		.loc 1 318 0
 2012              		.cfi_startproc
 2013              		@ args = 0, pretend = 0, frame = 24
 2014              		@ frame_needed = 0, uses_anonymous_args = 0
 2015              	.LVL126:
 2016 0000 2DE9F04F 		push	{r4, r5, r6, r7, r8, r9, r10, fp, lr}
 2017              		.cfi_def_cfa_offset 36
 2018              		.cfi_offset 4, -36
 2019              		.cfi_offset 5, -32
 2020              		.cfi_offset 6, -28
 2021              		.cfi_offset 7, -24
 2022              		.cfi_offset 8, -20
 2023              		.cfi_offset 9, -16
 2024              		.cfi_offset 10, -12
 2025              		.cfi_offset 11, -8
 2026              		.cfi_offset 14, -4
 2027 0004 0446     		mov	r4, r0
 2028              		.loc 1 323 0
 2029 0006 94E80C00 		ldmia	r4, {r2, r3}
 2030              		.loc 1 324 0
 2031 000a C568     		ldr	r5, [r0, #12]
 2032 000c 8068     		ldr	r0, [r0, #8]
 2033              	.LVL127:
 2034              		.loc 1 323 0
 2035 000e 4FEA5378 		lsr	r8, r3, #29
 2036              		.loc 1 324 0
 2037 0012 EF00     		lsls	r7, r5, #3
 2038              		.loc 1 325 0
 2039 0014 DB00     		lsls	r3, r3, #3
 2040              		.loc 1 318 0
 2041 0016 87B0     		sub	sp, sp, #28
 2042              		.cfi_def_cfa_offset 64
 2043              		.loc 1 325 0
 2044 0018 43EA5273 		orr	r3, r3, r2, lsr #29
 2045              		.loc 1 324 0
ARM GAS  C:\Users\jo\AppData\Local\Temp\ccyP7UZh.s 			page 37


 2046 001c 47EA5077 		orr	r7, r7, r0, lsr #29
 2047              		.loc 1 323 0
 2048 0020 4FF00009 		mov	r9, #0
 2049 0024 47EA0907 		orr	r7, r7, r9
 2050              		.loc 1 328 0
 2051 0028 1D0E     		lsrs	r5, r3, #24
 2052              		.loc 1 324 0
 2053 002a C600     		lsls	r6, r0, #3
 2054              		.loc 1 325 0
 2055 002c D000     		lsls	r0, r2, #3
 2056              		.loc 1 330 0
 2057 002e 02F07F02 		and	r2, r2, #127
 2058              		.loc 1 323 0
 2059 0032 46EA0806 		orr	r6, r6, r8
 2060              	.LVL128:
 2061              		.loc 1 331 0
 2062 0036 6F2A     		cmp	r2, #111
 2063              		.loc 1 327 0
 2064 0038 4FEA174A 		lsr	r10, r7, #16
 2065 003c 4FEA1729 		lsr	r9, r7, #8
 2066              		.loc 1 328 0
 2067 0040 0195     		str	r5, [sp, #4]
 2068              		.loc 1 318 0
 2069 0042 0D46     		mov	r5, r1
 2070              		.loc 1 328 0
 2071 0044 4FEA1321 		lsr	r1, r3, #8
 2072              	.LVL129:
 2073              		.loc 1 327 0
 2074 0048 4FEA164C 		lsr	ip, r6, #16
 2075 004c 4FEA162E 		lsr	lr, r6, #8
 2076              		.loc 1 331 0
 2077 0050 94BF     		ite	ls
 2078 0052 C2F17002 		rsbls	r2, r2, #112
 2079              	.LVL130:
 2080 0056 C2F1F002 		rsbhi	r2, r2, #240
 2081              	.LVL131:
 2082              		.loc 1 327 0
 2083 005a 4FEA176B 		lsr	fp, r7, #24
 2084 005e 4FEA1668 		lsr	r8, r6, #24
 2085 0062 8DF80B70 		strb	r7, [sp, #11]
 2086 0066 8DF80F60 		strb	r6, [sp, #15]
 2087              		.loc 1 328 0
 2088 006a 070E     		lsrs	r7, r0, #24
 2089 006c 1E0C     		lsrs	r6, r3, #16
 2090              	.LVL132:
 2091              		.loc 1 327 0
 2092 006e 8DF809A0 		strb	r10, [sp, #9]
 2093 0072 8DF80A90 		strb	r9, [sp, #10]
 2094              		.loc 1 328 0
 2095 0076 4FEA104A 		lsr	r10, r0, #16
 2096 007a 4FEA1029 		lsr	r9, r0, #8
 2097 007e 8DF81330 		strb	r3, [sp, #19]
 2098 0082 8DF81210 		strb	r1, [sp, #18]
 2099 0086 9DF80430 		ldrb	r3, [sp, #4]	@ zero_extendqisi2
 2100              	.LVL133:
 2101 008a 8DF81700 		strb	r0, [sp, #23]
 2102              	.LBB64:
ARM GAS  C:\Users\jo\AppData\Local\Temp\ccyP7UZh.s 			page 38


 2103              	.LBB65:
 2104 008e 7149     		ldr	r1, .L49
 2105              	.LBE65:
 2106              	.LBE64:
 2107 0090 8DF81030 		strb	r3, [sp, #16]
 2108              	.LBB68:
 2109              	.LBB66:
 2110 0094 2046     		mov	r0, r4
 2111              	.LVL134:
 2112              	.LBE66:
 2113              	.LBE68:
 2114              		.loc 1 327 0
 2115 0096 8DF80DC0 		strb	ip, [sp, #13]
 2116 009a 8DF80EE0 		strb	lr, [sp, #14]
 2117 009e 8DF808B0 		strb	fp, [sp, #8]
 2118 00a2 8DF80C80 		strb	r8, [sp, #12]
 2119              		.loc 1 328 0
 2120 00a6 8DF81160 		strb	r6, [sp, #17]
 2121 00aa 8DF81470 		strb	r7, [sp, #20]
 2122 00ae 8DF815A0 		strb	r10, [sp, #21]
 2123 00b2 8DF81690 		strb	r9, [sp, #22]
 2124              	.LBB69:
 2125              	.LBB67:
 2126 00b6 FFF7FEFF 		bl	sha512_update.part.0
 2127              	.LVL135:
 2128              	.LBE67:
 2129              	.LBE69:
 2130              	.LBB70:
 2131              	.LBB71:
 2132 00ba 2046     		mov	r0, r4
 2133 00bc 02A9     		add	r1, sp, #8
 2134              	.LVL136:
 2135 00be 1022     		movs	r2, #16
 2136 00c0 FFF7FEFF 		bl	sha512_update.part.0
 2137              	.LVL137:
 2138              	.LBE71:
 2139              	.LBE70:
 2140              		.loc 1 336 0
 2141 00c4 E37D     		ldrb	r3, [r4, #23]	@ zero_extendqisi2
 2142 00c6 2B70     		strb	r3, [r5]
 2143 00c8 E38A     		ldrh	r3, [r4, #22]
 2144 00ca 6B70     		strb	r3, [r5, #1]
 2145 00cc 6369     		ldr	r3, [r4, #20]
 2146 00ce 1B0A     		lsrs	r3, r3, #8
 2147 00d0 AB70     		strb	r3, [r5, #2]
 2148 00d2 6369     		ldr	r3, [r4, #20]
 2149 00d4 EB70     		strb	r3, [r5, #3]
 2150 00d6 E37C     		ldrb	r3, [r4, #19]	@ zero_extendqisi2
 2151 00d8 2B71     		strb	r3, [r5, #4]
 2152 00da 638A     		ldrh	r3, [r4, #18]
 2153 00dc 6B71     		strb	r3, [r5, #5]
 2154 00de 2369     		ldr	r3, [r4, #16]
 2155 00e0 1B0A     		lsrs	r3, r3, #8
 2156 00e2 AB71     		strb	r3, [r5, #6]
 2157 00e4 2369     		ldr	r3, [r4, #16]
 2158 00e6 EB71     		strb	r3, [r5, #7]
 2159              		.loc 1 337 0
ARM GAS  C:\Users\jo\AppData\Local\Temp\ccyP7UZh.s 			page 39


 2160 00e8 E37F     		ldrb	r3, [r4, #31]	@ zero_extendqisi2
 2161 00ea 2B72     		strb	r3, [r5, #8]
 2162 00ec E38B     		ldrh	r3, [r4, #30]
 2163 00ee 6B72     		strb	r3, [r5, #9]
 2164 00f0 E369     		ldr	r3, [r4, #28]
 2165 00f2 1B0A     		lsrs	r3, r3, #8
 2166 00f4 AB72     		strb	r3, [r5, #10]
 2167 00f6 E369     		ldr	r3, [r4, #28]
 2168 00f8 EB72     		strb	r3, [r5, #11]
 2169 00fa E37E     		ldrb	r3, [r4, #27]	@ zero_extendqisi2
 2170 00fc 2B73     		strb	r3, [r5, #12]
 2171 00fe 638B     		ldrh	r3, [r4, #26]
 2172 0100 6B73     		strb	r3, [r5, #13]
 2173 0102 A369     		ldr	r3, [r4, #24]
 2174 0104 1B0A     		lsrs	r3, r3, #8
 2175 0106 AB73     		strb	r3, [r5, #14]
 2176 0108 A369     		ldr	r3, [r4, #24]
 2177 010a EB73     		strb	r3, [r5, #15]
 2178              		.loc 1 338 0
 2179 010c 94F82730 		ldrb	r3, [r4, #39]	@ zero_extendqisi2
 2180 0110 2B74     		strb	r3, [r5, #16]
 2181 0112 E38C     		ldrh	r3, [r4, #38]
 2182 0114 6B74     		strb	r3, [r5, #17]
 2183 0116 636A     		ldr	r3, [r4, #36]
 2184 0118 1B0A     		lsrs	r3, r3, #8
 2185 011a AB74     		strb	r3, [r5, #18]
 2186 011c 636A     		ldr	r3, [r4, #36]
 2187 011e EB74     		strb	r3, [r5, #19]
 2188 0120 94F82330 		ldrb	r3, [r4, #35]	@ zero_extendqisi2
 2189 0124 2B75     		strb	r3, [r5, #20]
 2190 0126 638C     		ldrh	r3, [r4, #34]
 2191 0128 6B75     		strb	r3, [r5, #21]
 2192 012a 236A     		ldr	r3, [r4, #32]
 2193 012c 1B0A     		lsrs	r3, r3, #8
 2194 012e AB75     		strb	r3, [r5, #22]
 2195 0130 236A     		ldr	r3, [r4, #32]
 2196 0132 EB75     		strb	r3, [r5, #23]
 2197              		.loc 1 339 0
 2198 0134 94F82F30 		ldrb	r3, [r4, #47]	@ zero_extendqisi2
 2199 0138 2B76     		strb	r3, [r5, #24]
 2200 013a E38D     		ldrh	r3, [r4, #46]
 2201 013c 6B76     		strb	r3, [r5, #25]
 2202 013e E36A     		ldr	r3, [r4, #44]
 2203 0140 1B0A     		lsrs	r3, r3, #8
 2204 0142 AB76     		strb	r3, [r5, #26]
 2205 0144 E36A     		ldr	r3, [r4, #44]
 2206 0146 EB76     		strb	r3, [r5, #27]
 2207 0148 94F82B30 		ldrb	r3, [r4, #43]	@ zero_extendqisi2
 2208 014c 2B77     		strb	r3, [r5, #28]
 2209 014e 638D     		ldrh	r3, [r4, #42]
 2210 0150 6B77     		strb	r3, [r5, #29]
 2211 0152 A36A     		ldr	r3, [r4, #40]
 2212 0154 1B0A     		lsrs	r3, r3, #8
 2213 0156 AB77     		strb	r3, [r5, #30]
 2214 0158 A36A     		ldr	r3, [r4, #40]
 2215 015a EB77     		strb	r3, [r5, #31]
 2216              		.loc 1 340 0
ARM GAS  C:\Users\jo\AppData\Local\Temp\ccyP7UZh.s 			page 40


 2217 015c 94F83730 		ldrb	r3, [r4, #55]	@ zero_extendqisi2
 2218 0160 85F82030 		strb	r3, [r5, #32]
 2219 0164 E38E     		ldrh	r3, [r4, #54]
 2220 0166 85F82130 		strb	r3, [r5, #33]
 2221 016a 636B     		ldr	r3, [r4, #52]
 2222 016c 1B0A     		lsrs	r3, r3, #8
 2223 016e 85F82230 		strb	r3, [r5, #34]
 2224 0172 636B     		ldr	r3, [r4, #52]
 2225 0174 85F82330 		strb	r3, [r5, #35]
 2226 0178 94F83330 		ldrb	r3, [r4, #51]	@ zero_extendqisi2
 2227 017c 85F82430 		strb	r3, [r5, #36]
 2228 0180 638E     		ldrh	r3, [r4, #50]
 2229 0182 85F82530 		strb	r3, [r5, #37]
 2230 0186 236B     		ldr	r3, [r4, #48]
 2231 0188 1B0A     		lsrs	r3, r3, #8
 2232 018a 85F82630 		strb	r3, [r5, #38]
 2233 018e 236B     		ldr	r3, [r4, #48]
 2234 0190 85F82730 		strb	r3, [r5, #39]
 2235              		.loc 1 341 0
 2236 0194 94F83F30 		ldrb	r3, [r4, #63]	@ zero_extendqisi2
 2237 0198 85F82830 		strb	r3, [r5, #40]
 2238 019c E38F     		ldrh	r3, [r4, #62]
 2239 019e 85F82930 		strb	r3, [r5, #41]
 2240 01a2 E36B     		ldr	r3, [r4, #60]
 2241 01a4 1B0A     		lsrs	r3, r3, #8
 2242 01a6 85F82A30 		strb	r3, [r5, #42]
 2243 01aa E36B     		ldr	r3, [r4, #60]
 2244 01ac 85F82B30 		strb	r3, [r5, #43]
 2245 01b0 94F83B30 		ldrb	r3, [r4, #59]	@ zero_extendqisi2
 2246 01b4 85F82C30 		strb	r3, [r5, #44]
 2247 01b8 638F     		ldrh	r3, [r4, #58]
 2248 01ba 85F82D30 		strb	r3, [r5, #45]
 2249 01be A36B     		ldr	r3, [r4, #56]
 2250 01c0 1B0A     		lsrs	r3, r3, #8
 2251 01c2 85F82E30 		strb	r3, [r5, #46]
 2252 01c6 A36B     		ldr	r3, [r4, #56]
 2253 01c8 85F82F30 		strb	r3, [r5, #47]
 2254              		.loc 1 343 0
 2255 01cc D4F8D031 		ldr	r3, [r4, #464]
 2256 01d0 002B     		cmp	r3, #0
 2257 01d2 3BD1     		bne	.L44
 2258              		.loc 1 345 0
 2259 01d4 94F84730 		ldrb	r3, [r4, #71]	@ zero_extendqisi2
 2260 01d8 85F83030 		strb	r3, [r5, #48]
 2261 01dc B4F84630 		ldrh	r3, [r4, #70]
 2262 01e0 85F83130 		strb	r3, [r5, #49]
 2263 01e4 636C     		ldr	r3, [r4, #68]
 2264 01e6 1B0A     		lsrs	r3, r3, #8
 2265 01e8 85F83230 		strb	r3, [r5, #50]
 2266 01ec 636C     		ldr	r3, [r4, #68]
 2267 01ee 85F83330 		strb	r3, [r5, #51]
 2268 01f2 94F84330 		ldrb	r3, [r4, #67]	@ zero_extendqisi2
 2269 01f6 85F83430 		strb	r3, [r5, #52]
 2270 01fa B4F84230 		ldrh	r3, [r4, #66]
 2271 01fe 85F83530 		strb	r3, [r5, #53]
 2272 0202 236C     		ldr	r3, [r4, #64]
 2273 0204 1B0A     		lsrs	r3, r3, #8
ARM GAS  C:\Users\jo\AppData\Local\Temp\ccyP7UZh.s 			page 41


 2274 0206 85F83630 		strb	r3, [r5, #54]
 2275 020a 236C     		ldr	r3, [r4, #64]
 2276 020c 85F83730 		strb	r3, [r5, #55]
 2277              		.loc 1 346 0
 2278 0210 94F84F30 		ldrb	r3, [r4, #79]	@ zero_extendqisi2
 2279 0214 85F83830 		strb	r3, [r5, #56]
 2280 0218 B4F84E30 		ldrh	r3, [r4, #78]
 2281 021c 85F83930 		strb	r3, [r5, #57]
 2282 0220 E36C     		ldr	r3, [r4, #76]
 2283 0222 1B0A     		lsrs	r3, r3, #8
 2284 0224 85F83A30 		strb	r3, [r5, #58]
 2285 0228 E36C     		ldr	r3, [r4, #76]
 2286 022a 85F83B30 		strb	r3, [r5, #59]
 2287 022e 94F84B30 		ldrb	r3, [r4, #75]	@ zero_extendqisi2
 2288 0232 85F83C30 		strb	r3, [r5, #60]
 2289 0236 B4F84A30 		ldrh	r3, [r4, #74]
 2290 023a 85F83D30 		strb	r3, [r5, #61]
 2291 023e A36C     		ldr	r3, [r4, #72]
 2292 0240 1B0A     		lsrs	r3, r3, #8
 2293 0242 85F83E30 		strb	r3, [r5, #62]
 2294 0246 A36C     		ldr	r3, [r4, #72]
 2295 0248 85F83F30 		strb	r3, [r5, #63]
 2296              	.L44:
 2297              		.loc 1 348 0
 2298 024c 07B0     		add	sp, sp, #28
 2299              		.cfi_def_cfa_offset 36
 2300              		@ sp needed
 2301 024e BDE8F08F 		pop	{r4, r5, r6, r7, r8, r9, r10, fp, pc}
 2302              	.LVL138:
 2303              	.L50:
 2304 0252 00BF     		.align	2
 2305              	.L49:
 2306 0254 00000000 		.word	.LANCHOR1
 2307              		.cfi_endproc
 2308              	.LFE6:
 2309              		.size	sha512_finish, .-sha512_finish
 2310 0258 AFF30080 		.section	.text.sha512,"ax",%progbits
 2310      AFF30080 
 2311              		.align	2
 2312              		.p2align 4,,15
 2313              		.global	sha512
 2314              		.thumb
 2315              		.thumb_func
 2316              		.type	sha512, %function
 2317              	sha512:
 2318              	.LFB7:
 2319              		.loc 1 357 0
 2320              		.cfi_startproc
 2321              		@ args = 0, pretend = 0, frame = 472
 2322              		@ frame_needed = 0, uses_anonymous_args = 0
 2323              	.LVL139:
 2324 0000 F0B5     		push	{r4, r5, r6, r7, lr}
 2325              		.cfi_def_cfa_offset 20
 2326              		.cfi_offset 4, -20
 2327              		.cfi_offset 5, -16
 2328              		.cfi_offset 6, -12
 2329              		.cfi_offset 7, -8
ARM GAS  C:\Users\jo\AppData\Local\Temp\ccyP7UZh.s 			page 42


 2330              		.cfi_offset 14, -4
 2331 0002 F7B0     		sub	sp, sp, #476
 2332              		.cfi_def_cfa_offset 496
 2333              	.LVL140:
 2334              		.loc 1 357 0
 2335 0004 0C46     		mov	r4, r1
 2336 0006 1E46     		mov	r6, r3
 2337              	.LBB72:
 2338              	.LBB73:
 2339              		.loc 1 146 0
 2340 0008 0021     		movs	r1, #0
 2341              	.LVL141:
 2342              	.LBE73:
 2343              	.LBE72:
 2344              		.loc 1 357 0
 2345 000a 0746     		mov	r7, r0
 2346 000c 1546     		mov	r5, r2
 2347              	.LBB75:
 2348              	.LBB74:
 2349              		.loc 1 146 0
 2350 000e 6846     		mov	r0, sp
 2351              	.LVL142:
 2352 0010 4FF4EC72 		mov	r2, #472
 2353              	.LVL143:
 2354 0014 FFF7FEFF 		bl	memset
 2355              	.LVL144:
 2356              	.LBE74:
 2357              	.LBE75:
 2358              		.loc 1 361 0
 2359 0018 6846     		mov	r0, sp
 2360 001a 3146     		mov	r1, r6
 2361 001c FFF7FEFF 		bl	sha512_starts
 2362              	.LVL145:
 2363              	.LBB76:
 2364              	.LBB77:
 2365              		.loc 1 271 0
 2366 0020 64B9     		cbnz	r4, .L59
 2367              	.L52:
 2368              	.LBE77:
 2369              	.LBE76:
 2370              		.loc 1 363 0
 2371 0022 2946     		mov	r1, r5
 2372 0024 6846     		mov	r0, sp
 2373 0026 FFF7FEFF 		bl	sha512_finish
 2374              	.LVL146:
 2375 002a 6B46     		mov	r3, sp
 2376              	.LBB79:
 2377              	.LBB80:
 2378              	.LBB81:
 2379              		.loc 1 61 0
 2380 002c 0022     		movs	r2, #0
 2381              	.LVL147:
 2382              	.L53:
 2383 002e 1A70     		strb	r2, [r3]
 2384              	.LVL148:
 2385 0030 76A9     		add	r1, sp, #472
 2386 0032 0133     		adds	r3, r3, #1
ARM GAS  C:\Users\jo\AppData\Local\Temp\ccyP7UZh.s 			page 43


 2387              	.LVL149:
 2388 0034 8B42     		cmp	r3, r1
 2389 0036 FAD1     		bne	.L53
 2390              	.LBE81:
 2391              	.LBE80:
 2392              	.LBE79:
 2393              		.loc 1 365 0
 2394 0038 77B0     		add	sp, sp, #476
 2395              		.cfi_remember_state
 2396              		.cfi_def_cfa_offset 20
 2397              	.LVL150:
 2398              		@ sp needed
 2399 003a F0BD     		pop	{r4, r5, r6, r7, pc}
 2400              	.LVL151:
 2401              	.L59:
 2402              		.cfi_restore_state
 2403              	.LBB82:
 2404              	.LBB78:
 2405 003c 3946     		mov	r1, r7
 2406 003e 2246     		mov	r2, r4
 2407 0040 6846     		mov	r0, sp
 2408 0042 FFF7FEFF 		bl	sha512_update.part.0
 2409              	.LVL152:
 2410 0046 ECE7     		b	.L52
 2411              	.LBE78:
 2412              	.LBE82:
 2413              		.cfi_endproc
 2414              	.LFE7:
 2415              		.size	sha512, .-sha512
 2416 0048 AFF30080 		.section	.text.sha512_file,"ax",%progbits
 2416      AFF30080 
 2417              		.align	2
 2418              		.p2align 4,,15
 2419              		.global	sha512_file
 2420              		.thumb
 2421              		.thumb_func
 2422              		.type	sha512_file, %function
 2423              	sha512_file:
 2424              	.LFB8:
 2425              		.loc 1 372 0
 2426              		.cfi_startproc
 2427              		@ args = 0, pretend = 0, frame = 1496
 2428              		@ frame_needed = 0, uses_anonymous_args = 0
 2429              	.LVL153:
 2430 0000 F0B5     		push	{r4, r5, r6, r7, lr}
 2431              		.cfi_def_cfa_offset 20
 2432              		.cfi_offset 4, -20
 2433              		.cfi_offset 5, -16
 2434              		.cfi_offset 6, -12
 2435              		.cfi_offset 7, -8
 2436              		.cfi_offset 14, -4
 2437 0002 0F46     		mov	r7, r1
 2438 0004 ADF2DC5D 		subw	sp, sp, #1500
 2439              		.cfi_def_cfa_offset 1520
 2440              		.loc 1 378 0
 2441 0008 1E49     		ldr	r1, .L71
 2442              	.LVL154:
ARM GAS  C:\Users\jo\AppData\Local\Temp\ccyP7UZh.s 			page 44


 2443              		.loc 1 372 0
 2444 000a 1446     		mov	r4, r2
 2445              		.loc 1 378 0
 2446 000c FFF7FEFF 		bl	fopen
 2447              	.LVL155:
 2448 0010 0646     		mov	r6, r0
 2449 0012 A0B3     		cbz	r0, .L66
 2450              	.LVL156:
 2451              	.LBB83:
 2452              	.LBB84:
 2453              		.loc 1 146 0
 2454 0014 0021     		movs	r1, #0
 2455 0016 4FF4EC72 		mov	r2, #472
 2456 001a 6846     		mov	r0, sp
 2457              	.LVL157:
 2458 001c FFF7FEFF 		bl	memset
 2459              	.LVL158:
 2460              	.LBE84:
 2461              	.LBE83:
 2462              		.loc 1 382 0
 2463 0020 6846     		mov	r0, sp
 2464 0022 2146     		mov	r1, r4
 2465 0024 FFF7FEFF 		bl	sha512_starts
 2466              	.LVL159:
 2467 0028 76AD     		add	r5, sp, #472
 2468              	.LVL160:
 2469              	.L62:
 2470              		.loc 1 384 0
 2471 002a 0121     		movs	r1, #1
 2472 002c 4FF48062 		mov	r2, #1024
 2473 0030 2846     		mov	r0, r5
 2474 0032 3346     		mov	r3, r6
 2475 0034 FFF7FEFF 		bl	fread
 2476              	.LVL161:
 2477              	.LBB85:
 2478              	.LBB86:
 2479 0038 2946     		mov	r1, r5
 2480              	.LBE86:
 2481              	.LBE85:
 2482 003a 0446     		mov	r4, r0
 2483              	.LVL162:
 2484              	.LBB89:
 2485              	.LBB87:
 2486 003c 0246     		mov	r2, r0
 2487              	.LBE87:
 2488              	.LBE89:
 2489 003e 18B1     		cbz	r0, .L69
 2490              	.LVL163:
 2491              	.LBB90:
 2492              	.LBB88:
 2493 0040 6846     		mov	r0, sp
 2494              	.LVL164:
 2495 0042 FFF7FEFF 		bl	sha512_update.part.0
 2496              	.LVL165:
 2497 0046 F0E7     		b	.L62
 2498              	.LVL166:
 2499              	.L69:
ARM GAS  C:\Users\jo\AppData\Local\Temp\ccyP7UZh.s 			page 45


 2500              	.LBE88:
 2501              	.LBE90:
 2502              		.loc 1 387 0
 2503 0048 6846     		mov	r0, sp
 2504              	.LVL167:
 2505 004a 3946     		mov	r1, r7
 2506              	.LVL168:
 2507 004c FFF7FEFF 		bl	sha512_finish
 2508              	.LVL169:
 2509 0050 6B46     		mov	r3, sp
 2510              	.LBB91:
 2511              	.LBB92:
 2512              	.LBB93:
 2513              		.loc 1 61 0
 2514 0052 2046     		mov	r0, r4
 2515              	.LVL170:
 2516              	.L64:
 2517 0054 1870     		strb	r0, [r3]
 2518              	.LVL171:
 2519 0056 0133     		adds	r3, r3, #1
 2520              	.LVL172:
 2521 0058 AB42     		cmp	r3, r5
 2522 005a FBD1     		bne	.L64
 2523              	.LBE93:
 2524              	.LBE92:
 2525              	.LBE91:
 2526              		.loc 1 390 0
 2527 005c B489     		ldrh	r4, [r6, #12]
 2528 005e 04F04004 		and	r4, r4, #64
 2529 0062 A4B2     		uxth	r4, r4
 2530              		.loc 1 392 0
 2531 0064 3046     		mov	r0, r6
 2532              	.LVL173:
 2533              		.loc 1 390 0
 2534 0066 2CB9     		cbnz	r4, .L70
 2535              	.LVL174:
 2536              		.loc 1 396 0
 2537 0068 FFF7FEFF 		bl	fclose
 2538              	.LVL175:
 2539              		.loc 1 397 0
 2540 006c 2046     		mov	r0, r4
 2541              	.LVL176:
 2542              	.L61:
 2543              		.loc 1 398 0
 2544 006e 0DF2DC5D 		addw	sp, sp, #1500
 2545              		.cfi_remember_state
 2546              		.cfi_def_cfa_offset 20
 2547              		@ sp needed
 2548 0072 F0BD     		pop	{r4, r5, r6, r7, pc}
 2549              	.LVL177:
 2550              	.L70:
 2551              		.cfi_restore_state
 2552              		.loc 1 392 0
 2553 0074 FFF7FEFF 		bl	fclose
 2554              	.LVL178:
 2555              		.loc 1 393 0
 2556 0078 6FF07900 		mvn	r0, #121
ARM GAS  C:\Users\jo\AppData\Local\Temp\ccyP7UZh.s 			page 46


 2557 007c F7E7     		b	.L61
 2558              	.LVL179:
 2559              	.L66:
 2560              		.loc 1 379 0
 2561 007e 6FF07900 		mvn	r0, #121
 2562              	.LVL180:
 2563 0082 F4E7     		b	.L61
 2564              	.L72:
 2565              		.align	2
 2566              	.L71:
 2567 0084 00000000 		.word	.LC0
 2568              		.cfi_endproc
 2569              	.LFE8:
 2570              		.size	sha512_file, .-sha512_file
 2571 0088 AFF30080 		.section	.text.sha512_hmac_starts,"ax",%progbits
 2571      AFF30080 
 2572              		.align	2
 2573              		.p2align 4,,15
 2574              		.global	sha512_hmac_starts
 2575              		.thumb
 2576              		.thumb_func
 2577              		.type	sha512_hmac_starts, %function
 2578              	sha512_hmac_starts:
 2579              	.LFB9:
 2580              		.loc 1 406 0
 2581              		.cfi_startproc
 2582              		@ args = 0, pretend = 0, frame = 64
 2583              		@ frame_needed = 0, uses_anonymous_args = 0
 2584              	.LVL181:
 2585 0000 2DE9F047 		push	{r4, r5, r6, r7, r8, r9, r10, lr}
 2586              		.cfi_def_cfa_offset 32
 2587              		.cfi_offset 4, -32
 2588              		.cfi_offset 5, -28
 2589              		.cfi_offset 6, -24
 2590              		.cfi_offset 7, -20
 2591              		.cfi_offset 8, -16
 2592              		.cfi_offset 9, -12
 2593              		.cfi_offset 10, -8
 2594              		.cfi_offset 14, -4
 2595              		.loc 1 410 0
 2596 0004 802A     		cmp	r2, #128
 2597              		.loc 1 406 0
 2598 0006 90B0     		sub	sp, sp, #64
 2599              		.cfi_def_cfa_offset 96
 2600              		.loc 1 406 0
 2601 0008 1546     		mov	r5, r2
 2602 000a 0646     		mov	r6, r0
 2603 000c 8A46     		mov	r10, r1
 2604 000e 9846     		mov	r8, r3
 2605              		.loc 1 410 0
 2606 0010 39D8     		bhi	.L88
 2607              		.loc 1 417 0
 2608 0012 00F1D007 		add	r7, r0, #208
 2609 0016 3621     		movs	r1, #54
 2610              	.LVL182:
 2611 0018 8022     		movs	r2, #128
 2612              	.LVL183:
ARM GAS  C:\Users\jo\AppData\Local\Temp\ccyP7UZh.s 			page 47


 2613 001a 3846     		mov	r0, r7
 2614              	.LVL184:
 2615              		.loc 1 418 0
 2616 001c 06F5A879 		add	r9, r6, #336
 2617              		.loc 1 417 0
 2618 0020 FFF7FEFF 		bl	memset
 2619              	.LVL185:
 2620              		.loc 1 418 0
 2621 0024 4846     		mov	r0, r9
 2622 0026 5C21     		movs	r1, #92
 2623 0028 8022     		movs	r2, #128
 2624 002a FFF7FEFF 		bl	memset
 2625              	.LVL186:
 2626 002e 6C46     		mov	r4, sp
 2627              		.loc 1 420 0
 2628 0030 BDB1     		cbz	r5, .L77
 2629              	.L80:
 2630 0032 06F1CF0E 		add	lr, r6, #207
 2631 0036 5146     		mov	r1, r10
 2632 0038 4846     		mov	r0, r9
 2633              		.loc 1 418 0 discriminator 3
 2634 003a F446     		mov	ip, lr
 2635 003c 0022     		movs	r2, #0
 2636              	.LVL187:
 2637              	.L78:
 2638              		.loc 1 422 0 discriminator 3
 2639 003e 91F80090 		ldrb	r9, [r1]	@ zero_extendqisi2
 2640 0042 1CF8013F 		ldrb	r3, [ip, #1]!	@ zero_extendqisi2
 2641 0046 89EA0303 		eor	r3, r9, r3
 2642 004a 0EF8013F 		strb	r3, [lr, #1]!
 2643              		.loc 1 423 0 discriminator 3
 2644 004e 11F8019B 		ldrb	r9, [r1], #1	@ zero_extendqisi2
 2645 0052 0378     		ldrb	r3, [r0]	@ zero_extendqisi2
 2646              		.loc 1 420 0 discriminator 3
 2647 0054 0132     		adds	r2, r2, #1
 2648              	.LVL188:
 2649              		.loc 1 423 0 discriminator 3
 2650 0056 89EA0303 		eor	r3, r9, r3
 2651              		.loc 1 420 0 discriminator 3
 2652 005a AA42     		cmp	r2, r5
 2653              		.loc 1 423 0 discriminator 3
 2654 005c 00F8013B 		strb	r3, [r0], #1
 2655              		.loc 1 420 0 discriminator 3
 2656 0060 EDD3     		bcc	.L78
 2657              	.LVL189:
 2658              	.L77:
 2659              		.loc 1 426 0
 2660 0062 4146     		mov	r1, r8
 2661 0064 3046     		mov	r0, r6
 2662 0066 FFF7FEFF 		bl	sha512_starts
 2663              	.LVL190:
 2664              	.LBB94:
 2665              	.LBB95:
 2666 006a 3046     		mov	r0, r6
 2667 006c 3946     		mov	r1, r7
 2668 006e 8022     		movs	r2, #128
 2669 0070 FFF7FEFF 		bl	sha512_update.part.0
ARM GAS  C:\Users\jo\AppData\Local\Temp\ccyP7UZh.s 			page 48


 2670              	.LVL191:
 2671              	.LBE95:
 2672              	.LBE94:
 2673              	.LBB96:
 2674              	.LBB97:
 2675              		.loc 1 61 0
 2676 0074 0023     		movs	r3, #0
 2677              	.LVL192:
 2678              	.L79:
 2679 0076 2370     		strb	r3, [r4]
 2680              	.LVL193:
 2681 0078 10AA     		add	r2, sp, #64
 2682 007a 0134     		adds	r4, r4, #1
 2683              	.LVL194:
 2684 007c 9442     		cmp	r4, r2
 2685 007e FAD1     		bne	.L79
 2686              	.LBE97:
 2687              	.LBE96:
 2688              		.loc 1 430 0
 2689 0080 10B0     		add	sp, sp, #64
 2690              		.cfi_remember_state
 2691              		.cfi_def_cfa_offset 32
 2692              		@ sp needed
 2693 0082 BDE8F087 		pop	{r4, r5, r6, r7, r8, r9, r10, pc}
 2694              	.LVL195:
 2695              	.L88:
 2696              		.cfi_restore_state
 2697              		.loc 1 412 0
 2698 0086 0846     		mov	r0, r1
 2699              	.LVL196:
 2700              		.loc 1 417 0
 2701 0088 06F1D007 		add	r7, r6, #208
 2702              		.loc 1 412 0
 2703 008c 1146     		mov	r1, r2
 2704              	.LVL197:
 2705 008e 6A46     		mov	r2, sp
 2706              	.LVL198:
 2707 0090 FFF7FEFF 		bl	sha512
 2708              	.LVL199:
 2709              		.loc 1 418 0
 2710 0094 06F5A879 		add	r9, r6, #336
 2711              		.loc 1 413 0
 2712 0098 B8F1000F 		cmp	r8, #0
 2713              		.loc 1 417 0
 2714 009c 4FF03601 		mov	r1, #54
 2715 00a0 4FF08002 		mov	r2, #128
 2716 00a4 3846     		mov	r0, r7
 2717              		.loc 1 413 0
 2718 00a6 14BF     		ite	ne
 2719 00a8 3025     		movne	r5, #48
 2720              	.LVL200:
 2721 00aa 4025     		moveq	r5, #64
 2722              	.LVL201:
 2723              		.loc 1 417 0
 2724 00ac FFF7FEFF 		bl	memset
 2725              	.LVL202:
 2726              		.loc 1 418 0
ARM GAS  C:\Users\jo\AppData\Local\Temp\ccyP7UZh.s 			page 49


 2727 00b0 4846     		mov	r0, r9
 2728 00b2 5C21     		movs	r1, #92
 2729 00b4 8022     		movs	r2, #128
 2730              		.loc 1 412 0
 2731 00b6 6C46     		mov	r4, sp
 2732              		.loc 1 418 0
 2733 00b8 FFF7FEFF 		bl	memset
 2734              	.LVL203:
 2735 00bc EA46     		mov	r10, sp
 2736 00be B8E7     		b	.L80
 2737              		.cfi_endproc
 2738              	.LFE9:
 2739              		.size	sha512_hmac_starts, .-sha512_hmac_starts
 2740              		.section	.text.sha512_hmac_update,"ax",%progbits
 2741              		.align	2
 2742              		.p2align 4,,15
 2743              		.global	sha512_hmac_update
 2744              		.thumb
 2745              		.thumb_func
 2746              		.type	sha512_hmac_update, %function
 2747              	sha512_hmac_update:
 2748              	.LFB10:
 2749              		.loc 1 437 0
 2750              		.cfi_startproc
 2751              		@ args = 0, pretend = 0, frame = 0
 2752              		@ frame_needed = 0, uses_anonymous_args = 0
 2753              		@ link register save eliminated.
 2754              	.LVL204:
 2755              	.LBB98:
 2756              	.LBB99:
 2757              		.loc 1 271 0
 2758 0000 02B9     		cbnz	r2, .L91
 2759 0002 7047     		bx	lr
 2760              	.L91:
 2761 0004 FFF7FEBF 		b	sha512_update.part.0
 2762              	.LVL205:
 2763              	.LBE99:
 2764              	.LBE98:
 2765              		.cfi_endproc
 2766              	.LFE10:
 2767              		.size	sha512_hmac_update, .-sha512_hmac_update
 2768 0008 AFF30080 		.section	.text.sha512_hmac_finish,"ax",%progbits
 2768      AFF30080 
 2769              		.align	2
 2770              		.p2align 4,,15
 2771              		.global	sha512_hmac_finish
 2772              		.thumb
 2773              		.thumb_func
 2774              		.type	sha512_hmac_finish, %function
 2775              	sha512_hmac_finish:
 2776              	.LFB11:
 2777              		.loc 1 445 0
 2778              		.cfi_startproc
 2779              		@ args = 0, pretend = 0, frame = 64
 2780              		@ frame_needed = 0, uses_anonymous_args = 0
 2781              	.LVL206:
 2782 0000 F0B5     		push	{r4, r5, r6, r7, lr}
ARM GAS  C:\Users\jo\AppData\Local\Temp\ccyP7UZh.s 			page 50


 2783              		.cfi_def_cfa_offset 20
 2784              		.cfi_offset 4, -20
 2785              		.cfi_offset 5, -16
 2786              		.cfi_offset 6, -12
 2787              		.cfi_offset 7, -8
 2788              		.cfi_offset 14, -4
 2789              		.loc 1 449 0
 2790 0002 D0F8D051 		ldr	r5, [r0, #464]
 2791              	.LVL207:
 2792              		.loc 1 445 0
 2793 0006 91B0     		sub	sp, sp, #68
 2794              		.cfi_def_cfa_offset 88
 2795              		.loc 1 450 0
 2796 0008 002D     		cmp	r5, #0
 2797              		.loc 1 445 0
 2798 000a 0446     		mov	r4, r0
 2799 000c 0E46     		mov	r6, r1
 2800              		.loc 1 452 0
 2801 000e 6946     		mov	r1, sp
 2802              	.LVL208:
 2803              		.loc 1 450 0
 2804 0010 0CBF     		ite	eq
 2805 0012 4027     		moveq	r7, #64
 2806 0014 3027     		movne	r7, #48
 2807              		.loc 1 452 0
 2808 0016 FFF7FEFF 		bl	sha512_finish
 2809              	.LVL209:
 2810              		.loc 1 453 0
 2811 001a 2046     		mov	r0, r4
 2812 001c 2946     		mov	r1, r5
 2813 001e FFF7FEFF 		bl	sha512_starts
 2814              	.LVL210:
 2815              	.LBB100:
 2816              	.LBB101:
 2817 0022 2046     		mov	r0, r4
 2818 0024 04F5A871 		add	r1, r4, #336
 2819              	.LVL211:
 2820 0028 8022     		movs	r2, #128
 2821 002a FFF7FEFF 		bl	sha512_update.part.0
 2822              	.LVL212:
 2823              	.LBE101:
 2824              	.LBE100:
 2825              	.LBB102:
 2826              	.LBB103:
 2827 002e 3A46     		mov	r2, r7
 2828 0030 2046     		mov	r0, r4
 2829 0032 6946     		mov	r1, sp
 2830 0034 FFF7FEFF 		bl	sha512_update.part.0
 2831              	.LVL213:
 2832              	.LBE103:
 2833              	.LBE102:
 2834              		.loc 1 456 0
 2835 0038 2046     		mov	r0, r4
 2836 003a 3146     		mov	r1, r6
 2837 003c FFF7FEFF 		bl	sha512_finish
 2838              	.LVL214:
 2839              	.LBB104:
ARM GAS  C:\Users\jo\AppData\Local\Temp\ccyP7UZh.s 			page 51


 2840              	.LBB105:
 2841              		.loc 1 61 0
 2842 0040 6B46     		mov	r3, sp
 2843 0042 0022     		movs	r2, #0
 2844              	.LVL215:
 2845              	.L94:
 2846 0044 1A70     		strb	r2, [r3]
 2847              	.LVL216:
 2848 0046 10A9     		add	r1, sp, #64
 2849 0048 0133     		adds	r3, r3, #1
 2850              	.LVL217:
 2851 004a 8B42     		cmp	r3, r1
 2852 004c FAD1     		bne	.L94
 2853              	.LBE105:
 2854              	.LBE104:
 2855              		.loc 1 459 0
 2856 004e 11B0     		add	sp, sp, #68
 2857              		.cfi_def_cfa_offset 20
 2858              	.LVL218:
 2859              		@ sp needed
 2860 0050 F0BD     		pop	{r4, r5, r6, r7, pc}
 2861              		.cfi_endproc
 2862              	.LFE11:
 2863              		.size	sha512_hmac_finish, .-sha512_hmac_finish
 2864 0052 00BFAFF3 		.section	.text.sha512_hmac_reset,"ax",%progbits
 2864      0080AFF3 
 2864      0080AFF3 
 2864      0080
 2865              		.align	2
 2866              		.p2align 4,,15
 2867              		.global	sha512_hmac_reset
 2868              		.thumb
 2869              		.thumb_func
 2870              		.type	sha512_hmac_reset, %function
 2871              	sha512_hmac_reset:
 2872              	.LFB12:
 2873              		.loc 1 465 0
 2874              		.cfi_startproc
 2875              		@ args = 0, pretend = 0, frame = 0
 2876              		@ frame_needed = 0, uses_anonymous_args = 0
 2877              	.LVL219:
 2878 0000 10B5     		push	{r4, lr}
 2879              		.cfi_def_cfa_offset 8
 2880              		.cfi_offset 4, -8
 2881              		.cfi_offset 14, -4
 2882              		.loc 1 466 0
 2883 0002 D0F8D011 		ldr	r1, [r0, #464]
 2884              		.loc 1 465 0
 2885 0006 0446     		mov	r4, r0
 2886              		.loc 1 466 0
 2887 0008 FFF7FEFF 		bl	sha512_starts
 2888              	.LVL220:
 2889              	.LBB106:
 2890              	.LBB107:
 2891 000c 2046     		mov	r0, r4
 2892 000e 04F1D001 		add	r1, r4, #208
 2893              	.LVL221:
ARM GAS  C:\Users\jo\AppData\Local\Temp\ccyP7UZh.s 			page 52


 2894 0012 8022     		movs	r2, #128
 2895              	.LBE107:
 2896              	.LBE106:
 2897              		.loc 1 468 0
 2898 0014 BDE81040 		pop	{r4, lr}
 2899              		.cfi_restore 14
 2900              		.cfi_restore 4
 2901              		.cfi_def_cfa_offset 0
 2902              	.LVL222:
 2903              	.LBB109:
 2904              	.LBB108:
 2905 0018 FFF7FEBF 		b	sha512_update.part.0
 2906              	.LVL223:
 2907              	.LBE108:
 2908              	.LBE109:
 2909              		.cfi_endproc
 2910              	.LFE12:
 2911              		.size	sha512_hmac_reset, .-sha512_hmac_reset
 2912 001c AFF30080 		.section	.text.sha512_hmac,"ax",%progbits
 2913              		.align	2
 2914              		.p2align 4,,15
 2915              		.global	sha512_hmac
 2916              		.thumb
 2917              		.thumb_func
 2918              		.type	sha512_hmac, %function
 2919              	sha512_hmac:
 2920              	.LFB13:
 2921              		.loc 1 476 0
 2922              		.cfi_startproc
 2923              		@ args = 8, pretend = 0, frame = 472
 2924              		@ frame_needed = 0, uses_anonymous_args = 0
 2925              	.LVL224:
 2926 0000 F0B5     		push	{r4, r5, r6, r7, lr}
 2927              		.cfi_def_cfa_offset 20
 2928              		.cfi_offset 4, -20
 2929              		.cfi_offset 5, -16
 2930              		.cfi_offset 6, -12
 2931              		.cfi_offset 7, -8
 2932              		.cfi_offset 14, -4
 2933 0002 F7B0     		sub	sp, sp, #476
 2934              		.cfi_def_cfa_offset 496
 2935              	.LVL225:
 2936              		.loc 1 476 0
 2937 0004 0646     		mov	r6, r0
 2938 0006 0D46     		mov	r5, r1
 2939 0008 1746     		mov	r7, r2
 2940              	.LBB110:
 2941              	.LBB111:
 2942              		.loc 1 146 0
 2943 000a 0021     		movs	r1, #0
 2944              	.LVL226:
 2945 000c 4FF4EC72 		mov	r2, #472
 2946              	.LVL227:
 2947 0010 6846     		mov	r0, sp
 2948              	.LVL228:
 2949              	.LBE111:
 2950              	.LBE110:
ARM GAS  C:\Users\jo\AppData\Local\Temp\ccyP7UZh.s 			page 53


 2951              		.loc 1 476 0
 2952 0012 1C46     		mov	r4, r3
 2953              	.LBB113:
 2954              	.LBB112:
 2955              		.loc 1 146 0
 2956 0014 FFF7FEFF 		bl	memset
 2957              	.LVL229:
 2958              	.LBE112:
 2959              	.LBE113:
 2960              		.loc 1 480 0
 2961 0018 6846     		mov	r0, sp
 2962 001a 3146     		mov	r1, r6
 2963 001c 2A46     		mov	r2, r5
 2964 001e 7D9B     		ldr	r3, [sp, #500]
 2965 0020 FFF7FEFF 		bl	sha512_hmac_starts
 2966              	.LVL230:
 2967              	.LBB114:
 2968              	.LBB115:
 2969              	.LBB116:
 2970              		.loc 1 271 0
 2971 0024 64B9     		cbnz	r4, .L108
 2972              	.L101:
 2973              	.LBE116:
 2974              	.LBE115:
 2975              	.LBE114:
 2976              		.loc 1 482 0
 2977 0026 6846     		mov	r0, sp
 2978 0028 7C99     		ldr	r1, [sp, #496]
 2979 002a FFF7FEFF 		bl	sha512_hmac_finish
 2980              	.LVL231:
 2981 002e 6B46     		mov	r3, sp
 2982              	.LBB119:
 2983              	.LBB120:
 2984              	.LBB121:
 2985              		.loc 1 61 0
 2986 0030 0022     		movs	r2, #0
 2987              	.LVL232:
 2988              	.L102:
 2989 0032 1A70     		strb	r2, [r3]
 2990              	.LVL233:
 2991 0034 76A9     		add	r1, sp, #472
 2992 0036 0133     		adds	r3, r3, #1
 2993              	.LVL234:
 2994 0038 8B42     		cmp	r3, r1
 2995 003a FAD1     		bne	.L102
 2996              	.LBE121:
 2997              	.LBE120:
 2998              	.LBE119:
 2999              		.loc 1 484 0
 3000 003c 77B0     		add	sp, sp, #476
 3001              		.cfi_remember_state
 3002              		.cfi_def_cfa_offset 20
 3003              	.LVL235:
 3004              		@ sp needed
 3005 003e F0BD     		pop	{r4, r5, r6, r7, pc}
 3006              	.LVL236:
 3007              	.L108:
ARM GAS  C:\Users\jo\AppData\Local\Temp\ccyP7UZh.s 			page 54


 3008              		.cfi_restore_state
 3009              	.LBB122:
 3010              	.LBB118:
 3011              	.LBB117:
 3012 0040 3946     		mov	r1, r7
 3013 0042 2246     		mov	r2, r4
 3014 0044 6846     		mov	r0, sp
 3015 0046 FFF7FEFF 		bl	sha512_update.part.0
 3016              	.LVL237:
 3017 004a ECE7     		b	.L101
 3018              	.LBE117:
 3019              	.LBE118:
 3020              	.LBE122:
 3021              		.cfi_endproc
 3022              	.LFE13:
 3023              		.size	sha512_hmac, .-sha512_hmac
 3024 004c AFF30080 		.section	.text.sha512_self_test,"ax",%progbits
 3025              		.align	2
 3026              		.p2align 4,,15
 3027              		.global	sha512_self_test
 3028              		.thumb
 3029              		.thumb_func
 3030              		.type	sha512_self_test, %function
 3031              	sha512_self_test:
 3032              	.LFB14:
 3033              		.loc 1 709 0
 3034              		.cfi_startproc
 3035              		@ args = 0, pretend = 0, frame = 1568
 3036              		@ frame_needed = 0, uses_anonymous_args = 0
 3037              	.LVL238:
 3038 0000 2DE9F04F 		push	{r4, r5, r6, r7, r8, r9, r10, fp, lr}
 3039              		.cfi_def_cfa_offset 36
 3040              		.cfi_offset 4, -36
 3041              		.cfi_offset 5, -32
 3042              		.cfi_offset 6, -28
 3043              		.cfi_offset 7, -24
 3044              		.cfi_offset 8, -20
 3045              		.cfi_offset 9, -16
 3046              		.cfi_offset 10, -12
 3047              		.cfi_offset 11, -8
 3048              		.cfi_offset 14, -4
 3049 0004 ADF2246D 		subw	sp, sp, #1572
 3050              		.cfi_def_cfa_offset 1608
 3051              	.LVL239:
 3052              		.loc 1 709 0
 3053 0008 0746     		mov	r7, r0
 3054              	.LBB123:
 3055              	.LBB124:
 3056              		.loc 1 146 0
 3057 000a 0021     		movs	r1, #0
 3058 000c 12A8     		add	r0, sp, #72
 3059              	.LVL240:
 3060 000e 4FF4EC72 		mov	r2, #472
 3061 0012 FFF7FEFF 		bl	memset
 3062              	.LVL241:
 3063 0016 DFF81882 		ldr	r8, .L167+32
 3064              	.LBE124:
ARM GAS  C:\Users\jo\AppData\Local\Temp\ccyP7UZh.s 			page 55


 3065              	.LBE123:
 3066              		.loc 1 719 0
 3067 001a DFF818A2 		ldr	r10, .L167+36
 3068              		.loc 1 736 0
 3069 001e DFF818B2 		ldr	fp, .L167+40
 3070              		.loc 1 717 0
 3071 0022 0026     		movs	r6, #0
 3072 0024 88AD     		add	r5, sp, #544
 3073              	.LVL242:
 3074              	.L119:
 3075              		.loc 1 719 0
 3076 0026 8AFB0634 		smull	r3, r4, r10, r6
 3077              		.loc 1 720 0
 3078 002a 022E     		cmp	r6, #2
 3079              		.loc 1 719 0
 3080 002c A4EBE674 		sub	r4, r4, r6, asr #31
 3081 0030 04EB4404 		add	r4, r4, r4, lsl #1
 3082              		.loc 1 720 0
 3083 0034 CCBF     		ite	gt
 3084 0036 0023     		movgt	r3, #0
 3085 0038 0123     		movle	r3, #1
 3086              		.loc 1 719 0
 3087 003a 341B     		subs	r4, r6, r4
 3088              	.LVL243:
 3089              		.loc 1 723 0
 3090 003c C3F10409 		rsb	r9, r3, #4
 3091              		.loc 1 722 0
 3092 0040 002F     		cmp	r7, #0
 3093 0042 40F09C80 		bne	.L156
 3094              		.loc 1 725 0
 3095 0046 1946     		mov	r1, r3
 3096 0048 12A8     		add	r0, sp, #72
 3097              	.LVL244:
 3098 004a FFF7FEFF 		bl	sha512_starts
 3099              	.LVL245:
 3100              		.loc 1 727 0
 3101 004e 022C     		cmp	r4, #2
 3102 0050 00F0A480 		beq	.L157
 3103              	.L112:
 3104              		.loc 1 735 0
 3105 0054 5BF82420 		ldr	r2, [fp, r4, lsl #2]
 3106              	.LVL246:
 3107              	.LBB125:
 3108              	.LBB126:
 3109              		.loc 1 271 0
 3110 0058 002A     		cmp	r2, #0
 3111 005a 40F0B480 		bne	.L158
 3112              	.LVL247:
 3113              	.L114:
 3114              	.LBE126:
 3115              	.LBE125:
 3116              		.loc 1 738 0
 3117 005e 12A8     		add	r0, sp, #72
 3118              	.LVL248:
 3119 0060 02A9     		add	r1, sp, #8
 3120 0062 FFF7FEFF 		bl	sha512_finish
 3121              	.LVL249:
ARM GAS  C:\Users\jo\AppData\Local\Temp\ccyP7UZh.s 			page 56


 3122              		.loc 1 740 0
 3123 0066 02A8     		add	r0, sp, #8
 3124 0068 4146     		mov	r1, r8
 3125 006a 4FEA0912 		lsl	r2, r9, #4
 3126 006e FFF7FEFF 		bl	memcmp
 3127              	.LVL250:
 3128 0072 0028     		cmp	r0, #0
 3129 0074 40F0B180 		bne	.L126
 3130              		.loc 1 749 0
 3131 0078 002F     		cmp	r7, #0
 3132 007a 40F0A080 		bne	.L159
 3133              	.L118:
 3134              		.loc 1 717 0 discriminator 2
 3135 007e 0136     		adds	r6, r6, #1
 3136              	.LVL251:
 3137 0080 062E     		cmp	r6, #6
 3138 0082 08F14008 		add	r8, r8, #64
 3139 0086 CED1     		bne	.L119
 3140              		.loc 1 753 0
 3141 0088 002F     		cmp	r7, #0
 3142 008a 40F0B280 		bne	.L160
 3143              	.L120:
 3144              	.LVL252:
 3145 008e DFF8AC81 		ldr	r8, .L167+44
 3146 0092 DFF8ACA1 		ldr	r10, .L167+48
 3147              		.loc 1 758 0 discriminator 1
 3148 0096 DFF8AC91 		ldr	r9, .L167+52
 3149              		.loc 1 729 0 discriminator 1
 3150 009a 4FF0000B 		mov	fp, #0
 3151 009e 2AE0     		b	.L128
 3152              	.LVL253:
 3153              	.L121:
 3154              		.loc 1 764 0
 3155 00a0 631F     		subs	r3, r4, #5
 3156 00a2 012B     		cmp	r3, #1
 3157 00a4 44D9     		bls	.L161
 3158              	.L122:
 3159              		.loc 1 771 0
 3160 00a6 5A4B     		ldr	r3, .L167
 3161              		.loc 1 770 0
 3162 00a8 53F82420 		ldr	r2, [r3, r4, lsl #2]
 3163 00ac 594B     		ldr	r3, .L167+4
 3164 00ae 1A21     		movs	r1, #26
 3165 00b0 01FB0431 		mla	r1, r1, r4, r3
 3166 00b4 12A8     		add	r0, sp, #72
 3167              	.LVL254:
 3168 00b6 3346     		mov	r3, r6
 3169 00b8 FFF7FEFF 		bl	sha512_hmac_starts
 3170              	.LVL255:
 3171              		.loc 1 773 0
 3172 00bc 5AF82420 		ldr	r2, [r10, r4, lsl #2]
 3173              	.LVL256:
 3174              	.LBB128:
 3175              	.LBB129:
 3176              	.LBB130:
 3177              		.loc 1 271 0
 3178 00c0 002A     		cmp	r2, #0
ARM GAS  C:\Users\jo\AppData\Local\Temp\ccyP7UZh.s 			page 57


 3179 00c2 44D1     		bne	.L162
 3180              	.LVL257:
 3181              	.L124:
 3182              	.LBE130:
 3183              	.LBE129:
 3184              	.LBE128:
 3185              		.loc 1 776 0
 3186 00c4 12A8     		add	r0, sp, #72
 3187              	.LVL258:
 3188 00c6 02A9     		add	r1, sp, #8
 3189 00c8 FFF7FEFF 		bl	sha512_hmac_finish
 3190              	.LVL259:
 3191              		.loc 1 778 0
 3192 00cc 042C     		cmp	r4, #4
 3193 00ce 1ABF     		itte	ne
 3194 00d0 C6F10402 		rsbne	r2, r6, #4
 3195 00d4 1201     		lslne	r2, r2, #4
 3196 00d6 1022     		moveq	r2, #16
 3197              		.loc 1 780 0
 3198 00d8 02A8     		add	r0, sp, #8
 3199 00da 4146     		mov	r1, r8
 3200 00dc FFF7FEFF 		bl	memcmp
 3201              	.LVL260:
 3202 00e0 0028     		cmp	r0, #0
 3203 00e2 7AD1     		bne	.L126
 3204              		.loc 1 789 0
 3205 00e4 002F     		cmp	r7, #0
 3206 00e6 3CD1     		bne	.L163
 3207              		.loc 1 756 0 discriminator 2
 3208 00e8 0BF1010B 		add	fp, fp, #1
 3209              	.LVL261:
 3210 00ec BBF10E0F 		cmp	fp, #14
 3211 00f0 08F14008 		add	r8, r8, #64
 3212 00f4 3FD0     		beq	.L164
 3213              	.LVL262:
 3214              	.L128:
 3215              		.loc 1 758 0
 3216 00f6 8BFB0923 		smull	r2, r3, fp, r9
 3217 00fa 0BEB0304 		add	r4, fp, r3
 3218 00fe 4FEAEB73 		asr	r3, fp, #31
 3219 0102 C3EBA404 		rsb	r4, r3, r4, asr #2
 3220              		.loc 1 759 0
 3221 0106 BBF1060F 		cmp	fp, #6
 3222              		.loc 1 758 0
 3223 010a C4EBC404 		rsb	r4, r4, r4, lsl #3
 3224 010e C4EB0B04 		rsb	r4, r4, fp
 3225              	.LVL263:
 3226              		.loc 1 759 0
 3227 0112 CCBF     		ite	gt
 3228 0114 0026     		movgt	r6, #0
 3229 0116 0126     		movle	r6, #1
 3230              	.LVL264:
 3231              		.loc 1 761 0
 3232 0118 002F     		cmp	r7, #0
 3233 011a C1D0     		beq	.L121
 3234              		.loc 1 762 0
 3235 011c C6F10401 		rsb	r1, r6, #4
ARM GAS  C:\Users\jo\AppData\Local\Temp\ccyP7UZh.s 			page 58


 3236 0120 C901     		lsls	r1, r1, #7
 3237 0122 3D48     		ldr	r0, .L167+8
 3238 0124 621C     		adds	r2, r4, #1
 3239 0126 FFF7FEFF 		bl	printf
 3240              	.LVL265:
 3241              		.loc 1 764 0
 3242 012a 631F     		subs	r3, r4, #5
 3243 012c 012B     		cmp	r3, #1
 3244 012e BAD8     		bhi	.L122
 3245              	.L161:
 3246              	.LVL266:
 3247              		.loc 1 766 0
 3248 0130 AA21     		movs	r1, #170
 3249 0132 8322     		movs	r2, #131
 3250 0134 2846     		mov	r0, r5
 3251 0136 FFF7FEFF 		bl	memset
 3252              	.LVL267:
 3253              		.loc 1 767 0
 3254 013a 8322     		movs	r2, #131
 3255 013c 12A8     		add	r0, sp, #72
 3256              	.LVL268:
 3257 013e 2946     		mov	r1, r5
 3258 0140 3346     		mov	r3, r6
 3259 0142 FFF7FEFF 		bl	sha512_hmac_starts
 3260              	.LVL269:
 3261              		.loc 1 773 0
 3262 0146 5AF82420 		ldr	r2, [r10, r4, lsl #2]
 3263              	.LVL270:
 3264              	.LBB135:
 3265              	.LBB133:
 3266              	.LBB131:
 3267              		.loc 1 271 0
 3268 014a 002A     		cmp	r2, #0
 3269 014c BAD0     		beq	.L124
 3270              	.LVL271:
 3271              	.L162:
 3272              	.LBE131:
 3273              	.LBE133:
 3274              	.LBE135:
 3275              		.loc 1 773 0
 3276 014e 04EBC403 		add	r3, r4, r4, lsl #3
 3277 0152 3248     		ldr	r0, .L167+12
 3278 0154 03EB0311 		add	r1, r3, r3, lsl #4
 3279              	.LBB136:
 3280              	.LBB134:
 3281              	.LBB132:
 3282 0158 0144     		add	r1, r1, r0
 3283 015a 12A8     		add	r0, sp, #72
 3284              	.LVL272:
 3285 015c FFF7FEFF 		bl	sha512_update.part.0
 3286              	.LVL273:
 3287 0160 B0E7     		b	.L124
 3288              	.L163:
 3289              	.LBE132:
 3290              	.LBE134:
 3291              	.LBE136:
 3292              		.loc 1 790 0
ARM GAS  C:\Users\jo\AppData\Local\Temp\ccyP7UZh.s 			page 59


 3293 0162 2F48     		ldr	r0, .L167+16
 3294              		.loc 1 756 0
 3295 0164 0BF1010B 		add	fp, fp, #1
 3296              	.LVL274:
 3297              		.loc 1 790 0
 3298 0168 FFF7FEFF 		bl	puts
 3299              	.LVL275:
 3300              		.loc 1 756 0
 3301 016c BBF10E0F 		cmp	fp, #14
 3302 0170 08F14008 		add	r8, r8, #64
 3303 0174 BFD1     		bne	.L128
 3304              	.L164:
 3305              		.loc 1 793 0
 3306 0176 002F     		cmp	r7, #0
 3307 0178 44D1     		bne	.L165
 3308              		.loc 1 710 0
 3309 017a 3846     		mov	r0, r7
 3310 017c 2FE0     		b	.L117
 3311              	.LVL276:
 3312              	.L156:
 3313              		.loc 1 723 0
 3314 017e 4FEAC911 		lsl	r1, r9, #7
 3315 0182 621C     		adds	r2, r4, #1
 3316 0184 2748     		ldr	r0, .L167+20
 3317 0186 0193     		str	r3, [sp, #4]
 3318 0188 FFF7FEFF 		bl	printf
 3319              	.LVL277:
 3320 018c 019B     		ldr	r3, [sp, #4]
 3321              		.loc 1 725 0
 3322 018e 12A8     		add	r0, sp, #72
 3323              	.LVL278:
 3324 0190 1946     		mov	r1, r3
 3325 0192 FFF7FEFF 		bl	sha512_starts
 3326              	.LVL279:
 3327              		.loc 1 727 0
 3328 0196 022C     		cmp	r4, #2
 3329 0198 7FF45CAF 		bne	.L112
 3330              	.LVL280:
 3331              	.L157:
 3332              		.loc 1 729 0
 3333 019c 2846     		mov	r0, r5
 3334 019e 6121     		movs	r1, #97
 3335 01a0 4FF47A72 		mov	r2, #1000
 3336 01a4 FFF7FEFF 		bl	memset
 3337              	.LVL281:
 3338 01a8 4FF47A74 		mov	r4, #1000
 3339              	.LVL282:
 3340              	.L113:
 3341              	.LBB137:
 3342              	.LBB138:
 3343 01ac 12A8     		add	r0, sp, #72
 3344              	.LVL283:
 3345 01ae 2946     		mov	r1, r5
 3346 01b0 4FF47A72 		mov	r2, #1000
 3347 01b4 FFF7FEFF 		bl	sha512_update.part.0
 3348              	.LVL284:
 3349              	.LBE138:
ARM GAS  C:\Users\jo\AppData\Local\Temp\ccyP7UZh.s 			page 60


 3350              	.LBE137:
 3351              		.loc 1 731 0 discriminator 3
 3352 01b8 013C     		subs	r4, r4, #1
 3353              	.LVL285:
 3354 01ba F7D1     		bne	.L113
 3355 01bc 4FE7     		b	.L114
 3356              	.LVL286:
 3357              	.L159:
 3358              		.loc 1 750 0
 3359 01be 1848     		ldr	r0, .L167+16
 3360 01c0 FFF7FEFF 		bl	puts
 3361              	.LVL287:
 3362 01c4 5BE7     		b	.L118
 3363              	.LVL288:
 3364              	.L158:
 3365              		.loc 1 735 0
 3366 01c6 C4EBC403 		rsb	r3, r4, r4, lsl #3
 3367 01ca 1749     		ldr	r1, .L167+24
 3368 01cc 04EB0314 		add	r4, r4, r3, lsl #4
 3369              	.LVL289:
 3370              	.LBB139:
 3371              	.LBB127:
 3372 01d0 2144     		add	r1, r1, r4
 3373 01d2 12A8     		add	r0, sp, #72
 3374              	.LVL290:
 3375 01d4 FFF7FEFF 		bl	sha512_update.part.0
 3376              	.LVL291:
 3377 01d8 41E7     		b	.L114
 3378              	.LVL292:
 3379              	.L126:
 3380              	.LBE127:
 3381              	.LBE139:
 3382              		.loc 1 745 0
 3383 01da 0120     		movs	r0, #1
 3384              		.loc 1 742 0
 3385 01dc 6FB9     		cbnz	r7, .L166
 3386              	.L117:
 3387              	.LVL293:
 3388 01de 12AB     		add	r3, sp, #72
 3389              	.LVL294:
 3390              	.LBB140:
 3391              	.LBB141:
 3392              	.LBB142:
 3393              		.loc 1 61 0
 3394 01e0 0022     		movs	r2, #0
 3395              	.LVL295:
 3396              	.L129:
 3397 01e2 1A70     		strb	r2, [r3]
 3398              	.LVL296:
 3399 01e4 0133     		adds	r3, r3, #1
 3400              	.LVL297:
 3401 01e6 AB42     		cmp	r3, r5
 3402 01e8 FBD1     		bne	.L129
 3403              	.LBE142:
 3404              	.LBE141:
 3405              	.LBE140:
 3406              		.loc 1 800 0
ARM GAS  C:\Users\jo\AppData\Local\Temp\ccyP7UZh.s 			page 61


 3407 01ea 0DF2246D 		addw	sp, sp, #1572
 3408              		.cfi_remember_state
 3409              		.cfi_def_cfa_offset 36
 3410              		@ sp needed
 3411 01ee BDE8F08F 		pop	{r4, r5, r6, r7, r8, r9, r10, fp, pc}
 3412              	.LVL298:
 3413              	.L160:
 3414              		.cfi_restore_state
 3415              		.loc 1 754 0
 3416 01f2 0A20     		movs	r0, #10
 3417 01f4 FFF7FEFF 		bl	putchar
 3418              	.LVL299:
 3419 01f8 49E7     		b	.L120
 3420              	.LVL300:
 3421              	.L166:
 3422              		.loc 1 743 0
 3423 01fa 0C48     		ldr	r0, .L167+28
 3424 01fc FFF7FEFF 		bl	puts
 3425              	.LVL301:
 3426              		.loc 1 745 0
 3427 0200 0120     		movs	r0, #1
 3428 0202 ECE7     		b	.L117
 3429              	.LVL302:
 3430              	.L165:
 3431              		.loc 1 794 0
 3432 0204 0A20     		movs	r0, #10
 3433 0206 FFF7FEFF 		bl	putchar
 3434              	.LVL303:
 3435              		.loc 1 710 0
 3436 020a 0020     		movs	r0, #0
 3437 020c E7E7     		b	.L117
 3438              	.L168:
 3439 020e 00BF     		.align	2
 3440              	.L167:
 3441 0210 00000000 		.word	.LANCHOR7
 3442 0214 00000000 		.word	.LANCHOR6
 3443 0218 28000000 		.word	.LC4
 3444 021c 00000000 		.word	.LANCHOR9
 3445 0220 20000000 		.word	.LC3
 3446 0224 04000000 		.word	.LC1
 3447 0228 00000000 		.word	.LANCHOR4
 3448 022c 18000000 		.word	.LC2
 3449 0230 00000000 		.word	.LANCHOR2
 3450 0234 56555555 		.word	1431655766
 3451 0238 00000000 		.word	.LANCHOR3
 3452 023c 00000000 		.word	.LANCHOR5
 3453 0240 00000000 		.word	.LANCHOR8
 3454 0244 93244992 		.word	-1840700269
 3455              		.cfi_endproc
 3456              	.LFE14:
 3457              		.size	sha512_self_test, .-sha512_self_test
 3458 0248 AFF30080 		.section	.rodata.sha512_test_buflen,"a",%progbits
 3458      AFF30080 
 3459              		.align	2
 3460              		.set	.LANCHOR3,. + 0
 3461              		.type	sha512_test_buflen, %object
 3462              		.size	sha512_test_buflen, 12
ARM GAS  C:\Users\jo\AppData\Local\Temp\ccyP7UZh.s 			page 62


 3463              	sha512_test_buflen:
 3464 0000 03000000 		.word	3
 3465 0004 70000000 		.word	112
 3466 0008 E8030000 		.word	1000
 3467              		.section	.rodata.sha512_test_sum,"a",%progbits
 3468              		.align	2
 3469              		.set	.LANCHOR2,. + 0
 3470              		.type	sha512_test_sum, %object
 3471              		.size	sha512_test_sum, 384
 3472              	sha512_test_sum:
 3473 0000 CB       		.byte	-53
 3474 0001 00       		.byte	0
 3475 0002 75       		.byte	117
 3476 0003 3F       		.byte	63
 3477 0004 45       		.byte	69
 3478 0005 A3       		.byte	-93
 3479 0006 5E       		.byte	94
 3480 0007 8B       		.byte	-117
 3481 0008 B5       		.byte	-75
 3482 0009 A0       		.byte	-96
 3483 000a 3D       		.byte	61
 3484 000b 69       		.byte	105
 3485 000c 9A       		.byte	-102
 3486 000d C6       		.byte	-58
 3487 000e 50       		.byte	80
 3488 000f 07       		.byte	7
 3489 0010 27       		.byte	39
 3490 0011 2C       		.byte	44
 3491 0012 32       		.byte	50
 3492 0013 AB       		.byte	-85
 3493 0014 0E       		.byte	14
 3494 0015 DE       		.byte	-34
 3495 0016 D1       		.byte	-47
 3496 0017 63       		.byte	99
 3497 0018 1A       		.byte	26
 3498 0019 8B       		.byte	-117
 3499 001a 60       		.byte	96
 3500 001b 5A       		.byte	90
 3501 001c 43       		.byte	67
 3502 001d FF       		.byte	-1
 3503 001e 5B       		.byte	91
 3504 001f ED       		.byte	-19
 3505 0020 80       		.byte	-128
 3506 0021 86       		.byte	-122
 3507 0022 07       		.byte	7
 3508 0023 2B       		.byte	43
 3509 0024 A1       		.byte	-95
 3510 0025 E7       		.byte	-25
 3511 0026 CC       		.byte	-52
 3512 0027 23       		.byte	35
 3513 0028 58       		.byte	88
 3514 0029 BA       		.byte	-70
 3515 002a EC       		.byte	-20
 3516 002b A1       		.byte	-95
 3517 002c 34       		.byte	52
 3518 002d C8       		.byte	-56
 3519 002e 25       		.byte	37
ARM GAS  C:\Users\jo\AppData\Local\Temp\ccyP7UZh.s 			page 63


 3520 002f A7       		.byte	-89
 3521 0030 00000000 		.space	16
 3521      00000000 
 3521      00000000 
 3521      00000000 
 3522 0040 09       		.byte	9
 3523 0041 33       		.byte	51
 3524 0042 0C       		.byte	12
 3525 0043 33       		.byte	51
 3526 0044 F7       		.byte	-9
 3527 0045 11       		.byte	17
 3528 0046 47       		.byte	71
 3529 0047 E8       		.byte	-24
 3530 0048 3D       		.byte	61
 3531 0049 19       		.byte	25
 3532 004a 2F       		.byte	47
 3533 004b C7       		.byte	-57
 3534 004c 82       		.byte	-126
 3535 004d CD       		.byte	-51
 3536 004e 1B       		.byte	27
 3537 004f 47       		.byte	71
 3538 0050 53       		.byte	83
 3539 0051 11       		.byte	17
 3540 0052 1B       		.byte	27
 3541 0053 17       		.byte	23
 3542 0054 3B       		.byte	59
 3543 0055 3B       		.byte	59
 3544 0056 05       		.byte	5
 3545 0057 D2       		.byte	-46
 3546 0058 2F       		.byte	47
 3547 0059 A0       		.byte	-96
 3548 005a 80       		.byte	-128
 3549 005b 86       		.byte	-122
 3550 005c E3       		.byte	-29
 3551 005d B0       		.byte	-80
 3552 005e F7       		.byte	-9
 3553 005f 12       		.byte	18
 3554 0060 FC       		.byte	-4
 3555 0061 C7       		.byte	-57
 3556 0062 C7       		.byte	-57
 3557 0063 1A       		.byte	26
 3558 0064 55       		.byte	85
 3559 0065 7E       		.byte	126
 3560 0066 2D       		.byte	45
 3561 0067 B9       		.byte	-71
 3562 0068 66       		.byte	102
 3563 0069 C3       		.byte	-61
 3564 006a E9       		.byte	-23
 3565 006b FA       		.byte	-6
 3566 006c 91       		.byte	-111
 3567 006d 74       		.byte	116
 3568 006e 60       		.byte	96
 3569 006f 39       		.byte	57
 3570 0070 00000000 		.space	16
 3570      00000000 
 3570      00000000 
 3570      00000000 
ARM GAS  C:\Users\jo\AppData\Local\Temp\ccyP7UZh.s 			page 64


 3571 0080 9D       		.byte	-99
 3572 0081 0E       		.byte	14
 3573 0082 18       		.byte	24
 3574 0083 09       		.byte	9
 3575 0084 71       		.byte	113
 3576 0085 64       		.byte	100
 3577 0086 74       		.byte	116
 3578 0087 CB       		.byte	-53
 3579 0088 08       		.byte	8
 3580 0089 6E       		.byte	110
 3581 008a 83       		.byte	-125
 3582 008b 4E       		.byte	78
 3583 008c 31       		.byte	49
 3584 008d 0A       		.byte	10
 3585 008e 4A       		.byte	74
 3586 008f 1C       		.byte	28
 3587 0090 ED       		.byte	-19
 3588 0091 14       		.byte	20
 3589 0092 9E       		.byte	-98
 3590 0093 9C       		.byte	-100
 3591 0094 00       		.byte	0
 3592 0095 F2       		.byte	-14
 3593 0096 48       		.byte	72
 3594 0097 52       		.byte	82
 3595 0098 79       		.byte	121
 3596 0099 72       		.byte	114
 3597 009a CE       		.byte	-50
 3598 009b C5       		.byte	-59
 3599 009c 70       		.byte	112
 3600 009d 4C       		.byte	76
 3601 009e 2A       		.byte	42
 3602 009f 5B       		.byte	91
 3603 00a0 07       		.byte	7
 3604 00a1 B8       		.byte	-72
 3605 00a2 B3       		.byte	-77
 3606 00a3 DC       		.byte	-36
 3607 00a4 38       		.byte	56
 3608 00a5 EC       		.byte	-20
 3609 00a6 C4       		.byte	-60
 3610 00a7 EB       		.byte	-21
 3611 00a8 AE       		.byte	-82
 3612 00a9 97       		.byte	-105
 3613 00aa DD       		.byte	-35
 3614 00ab D8       		.byte	-40
 3615 00ac 7F       		.byte	127
 3616 00ad 3D       		.byte	61
 3617 00ae 89       		.byte	-119
 3618 00af 85       		.byte	-123
 3619 00b0 00000000 		.space	16
 3619      00000000 
 3619      00000000 
 3619      00000000 
 3620 00c0 DD       		.byte	-35
 3621 00c1 AF       		.byte	-81
 3622 00c2 35       		.byte	53
 3623 00c3 A1       		.byte	-95
 3624 00c4 93       		.byte	-109
ARM GAS  C:\Users\jo\AppData\Local\Temp\ccyP7UZh.s 			page 65


 3625 00c5 61       		.byte	97
 3626 00c6 7A       		.byte	122
 3627 00c7 BA       		.byte	-70
 3628 00c8 CC       		.byte	-52
 3629 00c9 41       		.byte	65
 3630 00ca 73       		.byte	115
 3631 00cb 49       		.byte	73
 3632 00cc AE       		.byte	-82
 3633 00cd 20       		.byte	32
 3634 00ce 41       		.byte	65
 3635 00cf 31       		.byte	49
 3636 00d0 12       		.byte	18
 3637 00d1 E6       		.byte	-26
 3638 00d2 FA       		.byte	-6
 3639 00d3 4E       		.byte	78
 3640 00d4 89       		.byte	-119
 3641 00d5 A9       		.byte	-87
 3642 00d6 7E       		.byte	126
 3643 00d7 A2       		.byte	-94
 3644 00d8 0A       		.byte	10
 3645 00d9 9E       		.byte	-98
 3646 00da EE       		.byte	-18
 3647 00db E6       		.byte	-26
 3648 00dc 4B       		.byte	75
 3649 00dd 55       		.byte	85
 3650 00de D3       		.byte	-45
 3651 00df 9A       		.byte	-102
 3652 00e0 21       		.byte	33
 3653 00e1 92       		.byte	-110
 3654 00e2 99       		.byte	-103
 3655 00e3 2A       		.byte	42
 3656 00e4 27       		.byte	39
 3657 00e5 4F       		.byte	79
 3658 00e6 C1       		.byte	-63
 3659 00e7 A8       		.byte	-88
 3660 00e8 36       		.byte	54
 3661 00e9 BA       		.byte	-70
 3662 00ea 3C       		.byte	60
 3663 00eb 23       		.byte	35
 3664 00ec A3       		.byte	-93
 3665 00ed FE       		.byte	-2
 3666 00ee EB       		.byte	-21
 3667 00ef BD       		.byte	-67
 3668 00f0 45       		.byte	69
 3669 00f1 4D       		.byte	77
 3670 00f2 44       		.byte	68
 3671 00f3 23       		.byte	35
 3672 00f4 64       		.byte	100
 3673 00f5 3C       		.byte	60
 3674 00f6 E8       		.byte	-24
 3675 00f7 0E       		.byte	14
 3676 00f8 2A       		.byte	42
 3677 00f9 9A       		.byte	-102
 3678 00fa C9       		.byte	-55
 3679 00fb 4F       		.byte	79
 3680 00fc A5       		.byte	-91
 3681 00fd 4C       		.byte	76
ARM GAS  C:\Users\jo\AppData\Local\Temp\ccyP7UZh.s 			page 66


 3682 00fe A4       		.byte	-92
 3683 00ff 9F       		.byte	-97
 3684 0100 8E       		.byte	-114
 3685 0101 95       		.byte	-107
 3686 0102 9B       		.byte	-101
 3687 0103 75       		.byte	117
 3688 0104 DA       		.byte	-38
 3689 0105 E3       		.byte	-29
 3690 0106 13       		.byte	19
 3691 0107 DA       		.byte	-38
 3692 0108 8C       		.byte	-116
 3693 0109 F4       		.byte	-12
 3694 010a F7       		.byte	-9
 3695 010b 28       		.byte	40
 3696 010c 14       		.byte	20
 3697 010d FC       		.byte	-4
 3698 010e 14       		.byte	20
 3699 010f 3F       		.byte	63
 3700 0110 8F       		.byte	-113
 3701 0111 77       		.byte	119
 3702 0112 79       		.byte	121
 3703 0113 C6       		.byte	-58
 3704 0114 EB       		.byte	-21
 3705 0115 9F       		.byte	-97
 3706 0116 7F       		.byte	127
 3707 0117 A1       		.byte	-95
 3708 0118 72       		.byte	114
 3709 0119 99       		.byte	-103
 3710 011a AE       		.byte	-82
 3711 011b AD       		.byte	-83
 3712 011c B6       		.byte	-74
 3713 011d 88       		.byte	-120
 3714 011e 90       		.byte	-112
 3715 011f 18       		.byte	24
 3716 0120 50       		.byte	80
 3717 0121 1D       		.byte	29
 3718 0122 28       		.byte	40
 3719 0123 9E       		.byte	-98
 3720 0124 49       		.byte	73
 3721 0125 00       		.byte	0
 3722 0126 F7       		.byte	-9
 3723 0127 E4       		.byte	-28
 3724 0128 33       		.byte	51
 3725 0129 1B       		.byte	27
 3726 012a 99       		.byte	-103
 3727 012b DE       		.byte	-34
 3728 012c C4       		.byte	-60
 3729 012d B5       		.byte	-75
 3730 012e 43       		.byte	67
 3731 012f 3A       		.byte	58
 3732 0130 C7       		.byte	-57
 3733 0131 D3       		.byte	-45
 3734 0132 29       		.byte	41
 3735 0133 EE       		.byte	-18
 3736 0134 B6       		.byte	-74
 3737 0135 DD       		.byte	-35
 3738 0136 26       		.byte	38
ARM GAS  C:\Users\jo\AppData\Local\Temp\ccyP7UZh.s 			page 67


 3739 0137 54       		.byte	84
 3740 0138 5E       		.byte	94
 3741 0139 96       		.byte	-106
 3742 013a E5       		.byte	-27
 3743 013b 5B       		.byte	91
 3744 013c 87       		.byte	-121
 3745 013d 4B       		.byte	75
 3746 013e E9       		.byte	-23
 3747 013f 09       		.byte	9
 3748 0140 E7       		.byte	-25
 3749 0141 18       		.byte	24
 3750 0142 48       		.byte	72
 3751 0143 3D       		.byte	61
 3752 0144 0C       		.byte	12
 3753 0145 E7       		.byte	-25
 3754 0146 69       		.byte	105
 3755 0147 64       		.byte	100
 3756 0148 4E       		.byte	78
 3757 0149 2E       		.byte	46
 3758 014a 42       		.byte	66
 3759 014b C7       		.byte	-57
 3760 014c BC       		.byte	-68
 3761 014d 15       		.byte	21
 3762 014e B4       		.byte	-76
 3763 014f 63       		.byte	99
 3764 0150 8E       		.byte	-114
 3765 0151 1F       		.byte	31
 3766 0152 98       		.byte	-104
 3767 0153 B1       		.byte	-79
 3768 0154 3B       		.byte	59
 3769 0155 20       		.byte	32
 3770 0156 44       		.byte	68
 3771 0157 28       		.byte	40
 3772 0158 56       		.byte	86
 3773 0159 32       		.byte	50
 3774 015a A8       		.byte	-88
 3775 015b 03       		.byte	3
 3776 015c AF       		.byte	-81
 3777 015d A9       		.byte	-87
 3778 015e 73       		.byte	115
 3779 015f EB       		.byte	-21
 3780 0160 DE       		.byte	-34
 3781 0161 0F       		.byte	15
 3782 0162 F2       		.byte	-14
 3783 0163 44       		.byte	68
 3784 0164 87       		.byte	-121
 3785 0165 7E       		.byte	126
 3786 0166 A6       		.byte	-90
 3787 0167 0A       		.byte	10
 3788 0168 4C       		.byte	76
 3789 0169 B0       		.byte	-80
 3790 016a 43       		.byte	67
 3791 016b 2C       		.byte	44
 3792 016c E5       		.byte	-27
 3793 016d 77       		.byte	119
 3794 016e C3       		.byte	-61
 3795 016f 1B       		.byte	27
ARM GAS  C:\Users\jo\AppData\Local\Temp\ccyP7UZh.s 			page 68


 3796 0170 EB       		.byte	-21
 3797 0171 00       		.byte	0
 3798 0172 9C       		.byte	-100
 3799 0173 5C       		.byte	92
 3800 0174 2C       		.byte	44
 3801 0175 49       		.byte	73
 3802 0176 AA       		.byte	-86
 3803 0177 2E       		.byte	46
 3804 0178 4E       		.byte	78
 3805 0179 AD       		.byte	-83
 3806 017a B2       		.byte	-78
 3807 017b 17       		.byte	23
 3808 017c AD       		.byte	-83
 3809 017d 8C       		.byte	-116
 3810 017e C0       		.byte	-64
 3811 017f 9B       		.byte	-101
 3812              		.section	.rodata.sha512_test_buf,"a",%progbits
 3813              		.align	2
 3814              		.set	.LANCHOR4,. + 0
 3815              		.type	sha512_test_buf, %object
 3816              		.size	sha512_test_buf, 339
 3817              	sha512_test_buf:
 3818 0000 61626300 		.ascii	"abc\000"
 3819 0004 00000000 		.space	109
 3819      00000000 
 3819      00000000 
 3819      00000000 
 3819      00000000 
 3820 0071 61626364 		.ascii	"abcdefghbcdefghicdefghijdefghijkefghijklfghijklmghi"
 3820      65666768 
 3820      62636465 
 3820      66676869 
 3820      63646566 
 3821 00a4 6A6B6C6D 		.ascii	"jklmnhijklmnoijklmnopjklmnopqklmnopqrlmnopqrsmnopqr"
 3821      6E68696A 
 3821      6B6C6D6E 
 3821      6F696A6B 
 3821      6C6D6E6F 
 3822 00d7 73746E6F 		.ascii	"stnopqrstu\000"
 3822      70717273 
 3822      747500
 3823 00e2 00       		.ascii	"\000"
 3824 00e3 00000000 		.space	112
 3824      00000000 
 3824      00000000 
 3824      00000000 
 3824      00000000 
 3825 0153 00       		.section	.rodata.sha512_padding,"a",%progbits
 3826              		.align	2
 3827              		.set	.LANCHOR1,. + 0
 3828              		.type	sha512_padding, %object
 3829              		.size	sha512_padding, 128
 3830              	sha512_padding:
 3831 0000 80       		.byte	-128
 3832 0001 00       		.byte	0
 3833 0002 00       		.byte	0
 3834 0003 00       		.byte	0
ARM GAS  C:\Users\jo\AppData\Local\Temp\ccyP7UZh.s 			page 69


 3835 0004 00       		.byte	0
 3836 0005 00       		.byte	0
 3837 0006 00       		.byte	0
 3838 0007 00       		.byte	0
 3839 0008 00       		.byte	0
 3840 0009 00       		.byte	0
 3841 000a 00       		.byte	0
 3842 000b 00       		.byte	0
 3843 000c 00       		.byte	0
 3844 000d 00       		.byte	0
 3845 000e 00       		.byte	0
 3846 000f 00       		.byte	0
 3847 0010 00       		.byte	0
 3848 0011 00       		.byte	0
 3849 0012 00       		.byte	0
 3850 0013 00       		.byte	0
 3851 0014 00       		.byte	0
 3852 0015 00       		.byte	0
 3853 0016 00       		.byte	0
 3854 0017 00       		.byte	0
 3855 0018 00       		.byte	0
 3856 0019 00       		.byte	0
 3857 001a 00       		.byte	0
 3858 001b 00       		.byte	0
 3859 001c 00       		.byte	0
 3860 001d 00       		.byte	0
 3861 001e 00       		.byte	0
 3862 001f 00       		.byte	0
 3863 0020 00       		.byte	0
 3864 0021 00       		.byte	0
 3865 0022 00       		.byte	0
 3866 0023 00       		.byte	0
 3867 0024 00       		.byte	0
 3868 0025 00       		.byte	0
 3869 0026 00       		.byte	0
 3870 0027 00       		.byte	0
 3871 0028 00       		.byte	0
 3872 0029 00       		.byte	0
 3873 002a 00       		.byte	0
 3874 002b 00       		.byte	0
 3875 002c 00       		.byte	0
 3876 002d 00       		.byte	0
 3877 002e 00       		.byte	0
 3878 002f 00       		.byte	0
 3879 0030 00       		.byte	0
 3880 0031 00       		.byte	0
 3881 0032 00       		.byte	0
 3882 0033 00       		.byte	0
 3883 0034 00       		.byte	0
 3884 0035 00       		.byte	0
 3885 0036 00       		.byte	0
 3886 0037 00       		.byte	0
 3887 0038 00       		.byte	0
 3888 0039 00       		.byte	0
 3889 003a 00       		.byte	0
 3890 003b 00       		.byte	0
 3891 003c 00       		.byte	0
ARM GAS  C:\Users\jo\AppData\Local\Temp\ccyP7UZh.s 			page 70


 3892 003d 00       		.byte	0
 3893 003e 00       		.byte	0
 3894 003f 00       		.byte	0
 3895 0040 00       		.byte	0
 3896 0041 00       		.byte	0
 3897 0042 00       		.byte	0
 3898 0043 00       		.byte	0
 3899 0044 00       		.byte	0
 3900 0045 00       		.byte	0
 3901 0046 00       		.byte	0
 3902 0047 00       		.byte	0
 3903 0048 00       		.byte	0
 3904 0049 00       		.byte	0
 3905 004a 00       		.byte	0
 3906 004b 00       		.byte	0
 3907 004c 00       		.byte	0
 3908 004d 00       		.byte	0
 3909 004e 00       		.byte	0
 3910 004f 00       		.byte	0
 3911 0050 00       		.byte	0
 3912 0051 00       		.byte	0
 3913 0052 00       		.byte	0
 3914 0053 00       		.byte	0
 3915 0054 00       		.byte	0
 3916 0055 00       		.byte	0
 3917 0056 00       		.byte	0
 3918 0057 00       		.byte	0
 3919 0058 00       		.byte	0
 3920 0059 00       		.byte	0
 3921 005a 00       		.byte	0
 3922 005b 00       		.byte	0
 3923 005c 00       		.byte	0
 3924 005d 00       		.byte	0
 3925 005e 00       		.byte	0
 3926 005f 00       		.byte	0
 3927 0060 00       		.byte	0
 3928 0061 00       		.byte	0
 3929 0062 00       		.byte	0
 3930 0063 00       		.byte	0
 3931 0064 00       		.byte	0
 3932 0065 00       		.byte	0
 3933 0066 00       		.byte	0
 3934 0067 00       		.byte	0
 3935 0068 00       		.byte	0
 3936 0069 00       		.byte	0
 3937 006a 00       		.byte	0
 3938 006b 00       		.byte	0
 3939 006c 00       		.byte	0
 3940 006d 00       		.byte	0
 3941 006e 00       		.byte	0
 3942 006f 00       		.byte	0
 3943 0070 00       		.byte	0
 3944 0071 00       		.byte	0
 3945 0072 00       		.byte	0
 3946 0073 00       		.byte	0
 3947 0074 00       		.byte	0
 3948 0075 00       		.byte	0
ARM GAS  C:\Users\jo\AppData\Local\Temp\ccyP7UZh.s 			page 71


 3949 0076 00       		.byte	0
 3950 0077 00       		.byte	0
 3951 0078 00       		.byte	0
 3952 0079 00       		.byte	0
 3953 007a 00       		.byte	0
 3954 007b 00       		.byte	0
 3955 007c 00       		.byte	0
 3956 007d 00       		.byte	0
 3957 007e 00       		.byte	0
 3958 007f 00       		.byte	0
 3959              		.section	.rodata.sha512_hmac_test_keylen,"a",%progbits
 3960              		.align	2
 3961              		.set	.LANCHOR7,. + 0
 3962              		.type	sha512_hmac_test_keylen, %object
 3963              		.size	sha512_hmac_test_keylen, 28
 3964              	sha512_hmac_test_keylen:
 3965 0000 14000000 		.word	20
 3966 0004 04000000 		.word	4
 3967 0008 14000000 		.word	20
 3968 000c 19000000 		.word	25
 3969 0010 14000000 		.word	20
 3970 0014 83000000 		.word	131
 3971 0018 83000000 		.word	131
 3972              		.section	.rodata.sha512_hmac_test_sum,"a",%progbits
 3973              		.align	2
 3974              		.set	.LANCHOR5,. + 0
 3975              		.type	sha512_hmac_test_sum, %object
 3976              		.size	sha512_hmac_test_sum, 896
 3977              	sha512_hmac_test_sum:
 3978 0000 AF       		.byte	-81
 3979 0001 D0       		.byte	-48
 3980 0002 39       		.byte	57
 3981 0003 44       		.byte	68
 3982 0004 D8       		.byte	-40
 3983 0005 48       		.byte	72
 3984 0006 95       		.byte	-107
 3985 0007 62       		.byte	98
 3986 0008 6B       		.byte	107
 3987 0009 08       		.byte	8
 3988 000a 25       		.byte	37
 3989 000b F4       		.byte	-12
 3990 000c AB       		.byte	-85
 3991 000d 46       		.byte	70
 3992 000e 90       		.byte	-112
 3993 000f 7F       		.byte	127
 3994 0010 15       		.byte	21
 3995 0011 F9       		.byte	-7
 3996 0012 DA       		.byte	-38
 3997 0013 DB       		.byte	-37
 3998 0014 E4       		.byte	-28
 3999 0015 10       		.byte	16
 4000 0016 1E       		.byte	30
 4001 0017 C6       		.byte	-58
 4002 0018 82       		.byte	-126
 4003 0019 AA       		.byte	-86
 4004 001a 03       		.byte	3
 4005 001b 4C       		.byte	76
ARM GAS  C:\Users\jo\AppData\Local\Temp\ccyP7UZh.s 			page 72


 4006 001c 7C       		.byte	124
 4007 001d EB       		.byte	-21
 4008 001e C5       		.byte	-59
 4009 001f 9C       		.byte	-100
 4010 0020 FA       		.byte	-6
 4011 0021 EA       		.byte	-22
 4012 0022 9E       		.byte	-98
 4013 0023 A9       		.byte	-87
 4014 0024 07       		.byte	7
 4015 0025 6E       		.byte	110
 4016 0026 DE       		.byte	-34
 4017 0027 7F       		.byte	127
 4018 0028 4A       		.byte	74
 4019 0029 F1       		.byte	-15
 4020 002a 52       		.byte	82
 4021 002b E8       		.byte	-24
 4022 002c B2       		.byte	-78
 4023 002d FA       		.byte	-6
 4024 002e 9C       		.byte	-100
 4025 002f B6       		.byte	-74
 4026 0030 00000000 		.space	16
 4026      00000000 
 4026      00000000 
 4026      00000000 
 4027 0040 AF       		.byte	-81
 4028 0041 45       		.byte	69
 4029 0042 D2       		.byte	-46
 4030 0043 E3       		.byte	-29
 4031 0044 76       		.byte	118
 4032 0045 48       		.byte	72
 4033 0046 40       		.byte	64
 4034 0047 31       		.byte	49
 4035 0048 61       		.byte	97
 4036 0049 7F       		.byte	127
 4037 004a 78       		.byte	120
 4038 004b D2       		.byte	-46
 4039 004c B5       		.byte	-75
 4040 004d 8A       		.byte	-118
 4041 004e 6B       		.byte	107
 4042 004f 1B       		.byte	27
 4043 0050 9C       		.byte	-100
 4044 0051 7E       		.byte	126
 4045 0052 F4       		.byte	-12
 4046 0053 64       		.byte	100
 4047 0054 F5       		.byte	-11
 4048 0055 A0       		.byte	-96
 4049 0056 1B       		.byte	27
 4050 0057 47       		.byte	71
 4051 0058 E4       		.byte	-28
 4052 0059 2E       		.byte	46
 4053 005a C3       		.byte	-61
 4054 005b 73       		.byte	115
 4055 005c 63       		.byte	99
 4056 005d 22       		.byte	34
 4057 005e 44       		.byte	68
 4058 005f 5E       		.byte	94
 4059 0060 8E       		.byte	-114
ARM GAS  C:\Users\jo\AppData\Local\Temp\ccyP7UZh.s 			page 73


 4060 0061 22       		.byte	34
 4061 0062 40       		.byte	64
 4062 0063 CA       		.byte	-54
 4063 0064 5E       		.byte	94
 4064 0065 69       		.byte	105
 4065 0066 E2       		.byte	-30
 4066 0067 C7       		.byte	-57
 4067 0068 8B       		.byte	-117
 4068 0069 32       		.byte	50
 4069 006a 39       		.byte	57
 4070 006b EC       		.byte	-20
 4071 006c FA       		.byte	-6
 4072 006d B2       		.byte	-78
 4073 006e 16       		.byte	22
 4074 006f 49       		.byte	73
 4075 0070 00000000 		.space	16
 4075      00000000 
 4075      00000000 
 4075      00000000 
 4076 0080 88       		.byte	-120
 4077 0081 06       		.byte	6
 4078 0082 26       		.byte	38
 4079 0083 08       		.byte	8
 4080 0084 D3       		.byte	-45
 4081 0085 E6       		.byte	-26
 4082 0086 AD       		.byte	-83
 4083 0087 8A       		.byte	-118
 4084 0088 0A       		.byte	10
 4085 0089 A2       		.byte	-94
 4086 008a AC       		.byte	-84
 4087 008b E0       		.byte	-32
 4088 008c 14       		.byte	20
 4089 008d C8       		.byte	-56
 4090 008e A8       		.byte	-88
 4091 008f 6F       		.byte	111
 4092 0090 0A       		.byte	10
 4093 0091 A6       		.byte	-90
 4094 0092 35       		.byte	53
 4095 0093 D9       		.byte	-39
 4096 0094 47       		.byte	71
 4097 0095 AC       		.byte	-84
 4098 0096 9F       		.byte	-97
 4099 0097 EB       		.byte	-21
 4100 0098 E8       		.byte	-24
 4101 0099 3E       		.byte	62
 4102 009a F4       		.byte	-12
 4103 009b E5       		.byte	-27
 4104 009c 59       		.byte	89
 4105 009d 66       		.byte	102
 4106 009e 14       		.byte	20
 4107 009f 4B       		.byte	75
 4108 00a0 2A       		.byte	42
 4109 00a1 5A       		.byte	90
 4110 00a2 B3       		.byte	-77
 4111 00a3 9D       		.byte	-99
 4112 00a4 C1       		.byte	-63
 4113 00a5 38       		.byte	56
ARM GAS  C:\Users\jo\AppData\Local\Temp\ccyP7UZh.s 			page 74


 4114 00a6 14       		.byte	20
 4115 00a7 B9       		.byte	-71
 4116 00a8 4E       		.byte	78
 4117 00a9 3A       		.byte	58
 4118 00aa B6       		.byte	-74
 4119 00ab E1       		.byte	-31
 4120 00ac 01       		.byte	1
 4121 00ad A3       		.byte	-93
 4122 00ae 4F       		.byte	79
 4123 00af 27       		.byte	39
 4124 00b0 00000000 		.space	16
 4124      00000000 
 4124      00000000 
 4124      00000000 
 4125 00c0 3E       		.byte	62
 4126 00c1 8A       		.byte	-118
 4127 00c2 69       		.byte	105
 4128 00c3 B7       		.byte	-73
 4129 00c4 78       		.byte	120
 4130 00c5 3C       		.byte	60
 4131 00c6 25       		.byte	37
 4132 00c7 85       		.byte	-123
 4133 00c8 19       		.byte	25
 4134 00c9 33       		.byte	51
 4135 00ca AB       		.byte	-85
 4136 00cb 62       		.byte	98
 4137 00cc 90       		.byte	-112
 4138 00cd AF       		.byte	-81
 4139 00ce 6C       		.byte	108
 4140 00cf A7       		.byte	-89
 4141 00d0 7A       		.byte	122
 4142 00d1 99       		.byte	-103
 4143 00d2 81       		.byte	-127
 4144 00d3 48       		.byte	72
 4145 00d4 08       		.byte	8
 4146 00d5 50       		.byte	80
 4147 00d6 00       		.byte	0
 4148 00d7 9C       		.byte	-100
 4149 00d8 C5       		.byte	-59
 4150 00d9 57       		.byte	87
 4151 00da 7C       		.byte	124
 4152 00db 6E       		.byte	110
 4153 00dc 1F       		.byte	31
 4154 00dd 57       		.byte	87
 4155 00de 3B       		.byte	59
 4156 00df 4E       		.byte	78
 4157 00e0 68       		.byte	104
 4158 00e1 01       		.byte	1
 4159 00e2 DD       		.byte	-35
 4160 00e3 23       		.byte	35
 4161 00e4 C4       		.byte	-60
 4162 00e5 A7       		.byte	-89
 4163 00e6 D6       		.byte	-42
 4164 00e7 79       		.byte	121
 4165 00e8 CC       		.byte	-52
 4166 00e9 F8       		.byte	-8
 4167 00ea A3       		.byte	-93
ARM GAS  C:\Users\jo\AppData\Local\Temp\ccyP7UZh.s 			page 75


 4168 00eb 86       		.byte	-122
 4169 00ec C6       		.byte	-58
 4170 00ed 74       		.byte	116
 4171 00ee CF       		.byte	-49
 4172 00ef FB       		.byte	-5
 4173 00f0 00000000 		.space	16
 4173      00000000 
 4173      00000000 
 4173      00000000 
 4174 0100 3A       		.byte	58
 4175 0101 BF       		.byte	-65
 4176 0102 34       		.byte	52
 4177 0103 C3       		.byte	-61
 4178 0104 50       		.byte	80
 4179 0105 3B       		.byte	59
 4180 0106 2A       		.byte	42
 4181 0107 23       		.byte	35
 4182 0108 A4       		.byte	-92
 4183 0109 6E       		.byte	110
 4184 010a FC       		.byte	-4
 4185 010b 61       		.byte	97
 4186 010c 9B       		.byte	-101
 4187 010d AE       		.byte	-82
 4188 010e F8       		.byte	-8
 4189 010f 97       		.byte	-105
 4190 0110 00000000 		.space	48
 4190      00000000 
 4190      00000000 
 4190      00000000 
 4190      00000000 
 4191 0140 4E       		.byte	78
 4192 0141 CE       		.byte	-50
 4193 0142 08       		.byte	8
 4194 0143 44       		.byte	68
 4195 0144 85       		.byte	-123
 4196 0145 81       		.byte	-127
 4197 0146 3E       		.byte	62
 4198 0147 90       		.byte	-112
 4199 0148 88       		.byte	-120
 4200 0149 D2       		.byte	-46
 4201 014a C6       		.byte	-58
 4202 014b 3A       		.byte	58
 4203 014c 04       		.byte	4
 4204 014d 1B       		.byte	27
 4205 014e C5       		.byte	-59
 4206 014f B4       		.byte	-76
 4207 0150 4F       		.byte	79
 4208 0151 9E       		.byte	-98
 4209 0152 F1       		.byte	-15
 4210 0153 01       		.byte	1
 4211 0154 2A       		.byte	42
 4212 0155 2B       		.byte	43
 4213 0156 58       		.byte	88
 4214 0157 8F       		.byte	-113
 4215 0158 3C       		.byte	60
 4216 0159 D1       		.byte	-47
 4217 015a 1F       		.byte	31
ARM GAS  C:\Users\jo\AppData\Local\Temp\ccyP7UZh.s 			page 76


 4218 015b 05       		.byte	5
 4219 015c 03       		.byte	3
 4220 015d 3A       		.byte	58
 4221 015e C4       		.byte	-60
 4222 015f C6       		.byte	-58
 4223 0160 0C       		.byte	12
 4224 0161 2E       		.byte	46
 4225 0162 F6       		.byte	-10
 4226 0163 AB       		.byte	-85
 4227 0164 40       		.byte	64
 4228 0165 30       		.byte	48
 4229 0166 FE       		.byte	-2
 4230 0167 82       		.byte	-126
 4231 0168 96       		.byte	-106
 4232 0169 24       		.byte	36
 4233 016a 8D       		.byte	-115
 4234 016b F1       		.byte	-15
 4235 016c 63       		.byte	99
 4236 016d F4       		.byte	-12
 4237 016e 49       		.byte	73
 4238 016f 52       		.byte	82
 4239 0170 00000000 		.space	16
 4239      00000000 
 4239      00000000 
 4239      00000000 
 4240 0180 66       		.byte	102
 4241 0181 17       		.byte	23
 4242 0182 17       		.byte	23
 4243 0183 8E       		.byte	-114
 4244 0184 94       		.byte	-108
 4245 0185 1F       		.byte	31
 4246 0186 02       		.byte	2
 4247 0187 0D       		.byte	13
 4248 0188 35       		.byte	53
 4249 0189 1E       		.byte	30
 4250 018a 2F       		.byte	47
 4251 018b 25       		.byte	37
 4252 018c 4E       		.byte	78
 4253 018d 8F       		.byte	-113
 4254 018e D3       		.byte	-45
 4255 018f 2C       		.byte	44
 4256 0190 60       		.byte	96
 4257 0191 24       		.byte	36
 4258 0192 20       		.byte	32
 4259 0193 FE       		.byte	-2
 4260 0194 B0       		.byte	-80
 4261 0195 B8       		.byte	-72
 4262 0196 FB       		.byte	-5
 4263 0197 9A       		.byte	-102
 4264 0198 DC       		.byte	-36
 4265 0199 CE       		.byte	-50
 4266 019a BB       		.byte	-69
 4267 019b 82       		.byte	-126
 4268 019c 46       		.byte	70
 4269 019d 1E       		.byte	30
 4270 019e 99       		.byte	-103
 4271 019f C5       		.byte	-59
ARM GAS  C:\Users\jo\AppData\Local\Temp\ccyP7UZh.s 			page 77


 4272 01a0 A6       		.byte	-90
 4273 01a1 78       		.byte	120
 4274 01a2 CC       		.byte	-52
 4275 01a3 31       		.byte	49
 4276 01a4 E7       		.byte	-25
 4277 01a5 99       		.byte	-103
 4278 01a6 17       		.byte	23
 4279 01a7 6D       		.byte	109
 4280 01a8 38       		.byte	56
 4281 01a9 60       		.byte	96
 4282 01aa E6       		.byte	-26
 4283 01ab 11       		.byte	17
 4284 01ac 0C       		.byte	12
 4285 01ad 46       		.byte	70
 4286 01ae 52       		.byte	82
 4287 01af 3E       		.byte	62
 4288 01b0 00000000 		.space	16
 4288      00000000 
 4288      00000000 
 4288      00000000 
 4289 01c0 87       		.byte	-121
 4290 01c1 AA       		.byte	-86
 4291 01c2 7C       		.byte	124
 4292 01c3 DE       		.byte	-34
 4293 01c4 A5       		.byte	-91
 4294 01c5 EF       		.byte	-17
 4295 01c6 61       		.byte	97
 4296 01c7 9D       		.byte	-99
 4297 01c8 4F       		.byte	79
 4298 01c9 F0       		.byte	-16
 4299 01ca B4       		.byte	-76
 4300 01cb 24       		.byte	36
 4301 01cc 1A       		.byte	26
 4302 01cd 1D       		.byte	29
 4303 01ce 6C       		.byte	108
 4304 01cf B0       		.byte	-80
 4305 01d0 23       		.byte	35
 4306 01d1 79       		.byte	121
 4307 01d2 F4       		.byte	-12
 4308 01d3 E2       		.byte	-30
 4309 01d4 CE       		.byte	-50
 4310 01d5 4E       		.byte	78
 4311 01d6 C2       		.byte	-62
 4312 01d7 78       		.byte	120
 4313 01d8 7A       		.byte	122
 4314 01d9 D0       		.byte	-48
 4315 01da B3       		.byte	-77
 4316 01db 05       		.byte	5
 4317 01dc 45       		.byte	69
 4318 01dd E1       		.byte	-31
 4319 01de 7C       		.byte	124
 4320 01df DE       		.byte	-34
 4321 01e0 DA       		.byte	-38
 4322 01e1 A8       		.byte	-88
 4323 01e2 33       		.byte	51
 4324 01e3 B7       		.byte	-73
 4325 01e4 D6       		.byte	-42
ARM GAS  C:\Users\jo\AppData\Local\Temp\ccyP7UZh.s 			page 78


 4326 01e5 B8       		.byte	-72
 4327 01e6 A7       		.byte	-89
 4328 01e7 02       		.byte	2
 4329 01e8 03       		.byte	3
 4330 01e9 8B       		.byte	-117
 4331 01ea 27       		.byte	39
 4332 01eb 4E       		.byte	78
 4333 01ec AE       		.byte	-82
 4334 01ed A3       		.byte	-93
 4335 01ee F4       		.byte	-12
 4336 01ef E4       		.byte	-28
 4337 01f0 BE       		.byte	-66
 4338 01f1 9D       		.byte	-99
 4339 01f2 91       		.byte	-111
 4340 01f3 4E       		.byte	78
 4341 01f4 EB       		.byte	-21
 4342 01f5 61       		.byte	97
 4343 01f6 F1       		.byte	-15
 4344 01f7 70       		.byte	112
 4345 01f8 2E       		.byte	46
 4346 01f9 69       		.byte	105
 4347 01fa 6C       		.byte	108
 4348 01fb 20       		.byte	32
 4349 01fc 3A       		.byte	58
 4350 01fd 12       		.byte	18
 4351 01fe 68       		.byte	104
 4352 01ff 54       		.byte	84
 4353 0200 16       		.byte	22
 4354 0201 4B       		.byte	75
 4355 0202 7A       		.byte	122
 4356 0203 7B       		.byte	123
 4357 0204 FC       		.byte	-4
 4358 0205 F8       		.byte	-8
 4359 0206 19       		.byte	25
 4360 0207 E2       		.byte	-30
 4361 0208 E3       		.byte	-29
 4362 0209 95       		.byte	-107
 4363 020a FB       		.byte	-5
 4364 020b E7       		.byte	-25
 4365 020c 3B       		.byte	59
 4366 020d 56       		.byte	86
 4367 020e E0       		.byte	-32
 4368 020f A3       		.byte	-93
 4369 0210 87       		.byte	-121
 4370 0211 BD       		.byte	-67
 4371 0212 64       		.byte	100
 4372 0213 22       		.byte	34
 4373 0214 2E       		.byte	46
 4374 0215 83       		.byte	-125
 4375 0216 1F       		.byte	31
 4376 0217 D6       		.byte	-42
 4377 0218 10       		.byte	16
 4378 0219 27       		.byte	39
 4379 021a 0C       		.byte	12
 4380 021b D7       		.byte	-41
 4381 021c EA       		.byte	-22
 4382 021d 25       		.byte	37
ARM GAS  C:\Users\jo\AppData\Local\Temp\ccyP7UZh.s 			page 79


 4383 021e 05       		.byte	5
 4384 021f 54       		.byte	84
 4385 0220 97       		.byte	-105
 4386 0221 58       		.byte	88
 4387 0222 BF       		.byte	-65
 4388 0223 75       		.byte	117
 4389 0224 C0       		.byte	-64
 4390 0225 5A       		.byte	90
 4391 0226 99       		.byte	-103
 4392 0227 4A       		.byte	74
 4393 0228 6D       		.byte	109
 4394 0229 03       		.byte	3
 4395 022a 4F       		.byte	79
 4396 022b 65       		.byte	101
 4397 022c F8       		.byte	-8
 4398 022d F0       		.byte	-16
 4399 022e E6       		.byte	-26
 4400 022f FD       		.byte	-3
 4401 0230 CA       		.byte	-54
 4402 0231 EA       		.byte	-22
 4403 0232 B1       		.byte	-79
 4404 0233 A3       		.byte	-93
 4405 0234 4D       		.byte	77
 4406 0235 4A       		.byte	74
 4407 0236 6B       		.byte	107
 4408 0237 4B       		.byte	75
 4409 0238 63       		.byte	99
 4410 0239 6E       		.byte	110
 4411 023a 07       		.byte	7
 4412 023b 0A       		.byte	10
 4413 023c 38       		.byte	56
 4414 023d BC       		.byte	-68
 4415 023e E7       		.byte	-25
 4416 023f 37       		.byte	55
 4417 0240 FA       		.byte	-6
 4418 0241 73       		.byte	115
 4419 0242 B0       		.byte	-80
 4420 0243 08       		.byte	8
 4421 0244 9D       		.byte	-99
 4422 0245 56       		.byte	86
 4423 0246 A2       		.byte	-94
 4424 0247 84       		.byte	-124
 4425 0248 EF       		.byte	-17
 4426 0249 B0       		.byte	-80
 4427 024a F0       		.byte	-16
 4428 024b 75       		.byte	117
 4429 024c 6C       		.byte	108
 4430 024d 89       		.byte	-119
 4431 024e 0B       		.byte	11
 4432 024f E9       		.byte	-23
 4433 0250 B1       		.byte	-79
 4434 0251 B5       		.byte	-75
 4435 0252 DB       		.byte	-37
 4436 0253 DD       		.byte	-35
 4437 0254 8E       		.byte	-114
 4438 0255 E8       		.byte	-24
 4439 0256 1A       		.byte	26
ARM GAS  C:\Users\jo\AppData\Local\Temp\ccyP7UZh.s 			page 80


 4440 0257 36       		.byte	54
 4441 0258 55       		.byte	85
 4442 0259 F8       		.byte	-8
 4443 025a 3E       		.byte	62
 4444 025b 33       		.byte	51
 4445 025c B2       		.byte	-78
 4446 025d 27       		.byte	39
 4447 025e 9D       		.byte	-99
 4448 025f 39       		.byte	57
 4449 0260 BF       		.byte	-65
 4450 0261 3E       		.byte	62
 4451 0262 84       		.byte	-124
 4452 0263 82       		.byte	-126
 4453 0264 79       		.byte	121
 4454 0265 A7       		.byte	-89
 4455 0266 22       		.byte	34
 4456 0267 C8       		.byte	-56
 4457 0268 06       		.byte	6
 4458 0269 B4       		.byte	-76
 4459 026a 85       		.byte	-123
 4460 026b A4       		.byte	-92
 4461 026c 7E       		.byte	126
 4462 026d 67       		.byte	103
 4463 026e C8       		.byte	-56
 4464 026f 07       		.byte	7
 4465 0270 B9       		.byte	-71
 4466 0271 46       		.byte	70
 4467 0272 A3       		.byte	-93
 4468 0273 37       		.byte	55
 4469 0274 BE       		.byte	-66
 4470 0275 E8       		.byte	-24
 4471 0276 94       		.byte	-108
 4472 0277 26       		.byte	38
 4473 0278 74       		.byte	116
 4474 0279 27       		.byte	39
 4475 027a 88       		.byte	-120
 4476 027b 59       		.byte	89
 4477 027c E1       		.byte	-31
 4478 027d 32       		.byte	50
 4479 027e 92       		.byte	-110
 4480 027f FB       		.byte	-5
 4481 0280 B0       		.byte	-80
 4482 0281 BA       		.byte	-70
 4483 0282 46       		.byte	70
 4484 0283 56       		.byte	86
 4485 0284 37       		.byte	55
 4486 0285 45       		.byte	69
 4487 0286 8C       		.byte	-116
 4488 0287 69       		.byte	105
 4489 0288 90       		.byte	-112
 4490 0289 E5       		.byte	-27
 4491 028a A8       		.byte	-88
 4492 028b C5       		.byte	-59
 4493 028c F6       		.byte	-10
 4494 028d 1D       		.byte	29
 4495 028e 4A       		.byte	74
 4496 028f F7       		.byte	-9
ARM GAS  C:\Users\jo\AppData\Local\Temp\ccyP7UZh.s 			page 81


 4497 0290 E5       		.byte	-27
 4498 0291 76       		.byte	118
 4499 0292 D9       		.byte	-39
 4500 0293 7F       		.byte	127
 4501 0294 F9       		.byte	-7
 4502 0295 4B       		.byte	75
 4503 0296 87       		.byte	-121
 4504 0297 2D       		.byte	45
 4505 0298 E7       		.byte	-25
 4506 0299 6F       		.byte	111
 4507 029a 80       		.byte	-128
 4508 029b 50       		.byte	80
 4509 029c 36       		.byte	54
 4510 029d 1E       		.byte	30
 4511 029e E3       		.byte	-29
 4512 029f DB       		.byte	-37
 4513 02a0 A9       		.byte	-87
 4514 02a1 1C       		.byte	28
 4515 02a2 A5       		.byte	-91
 4516 02a3 C1       		.byte	-63
 4517 02a4 1A       		.byte	26
 4518 02a5 A2       		.byte	-94
 4519 02a6 5E       		.byte	94
 4520 02a7 B4       		.byte	-76
 4521 02a8 D6       		.byte	-42
 4522 02a9 79       		.byte	121
 4523 02aa 27       		.byte	39
 4524 02ab 5C       		.byte	92
 4525 02ac C5       		.byte	-59
 4526 02ad 78       		.byte	120
 4527 02ae 80       		.byte	-128
 4528 02af 63       		.byte	99
 4529 02b0 A5       		.byte	-91
 4530 02b1 F1       		.byte	-15
 4531 02b2 97       		.byte	-105
 4532 02b3 41       		.byte	65
 4533 02b4 12       		.byte	18
 4534 02b5 0C       		.byte	12
 4535 02b6 4F       		.byte	79
 4536 02b7 2D       		.byte	45
 4537 02b8 E2       		.byte	-30
 4538 02b9 AD       		.byte	-83
 4539 02ba EB       		.byte	-21
 4540 02bb EB       		.byte	-21
 4541 02bc 10       		.byte	16
 4542 02bd A2       		.byte	-94
 4543 02be 98       		.byte	-104
 4544 02bf DD       		.byte	-35
 4545 02c0 41       		.byte	65
 4546 02c1 5F       		.byte	95
 4547 02c2 AD       		.byte	-83
 4548 02c3 62       		.byte	98
 4549 02c4 71       		.byte	113
 4550 02c5 58       		.byte	88
 4551 02c6 0A       		.byte	10
 4552 02c7 53       		.byte	83
 4553 02c8 1D       		.byte	29
ARM GAS  C:\Users\jo\AppData\Local\Temp\ccyP7UZh.s 			page 82


 4554 02c9 41       		.byte	65
 4555 02ca 79       		.byte	121
 4556 02cb BC       		.byte	-68
 4557 02cc 89       		.byte	-119
 4558 02cd 1D       		.byte	29
 4559 02ce 87       		.byte	-121
 4560 02cf A6       		.byte	-90
 4561 02d0 00000000 		.space	48
 4561      00000000 
 4561      00000000 
 4561      00000000 
 4561      00000000 
 4562 0300 80       		.byte	-128
 4563 0301 B2       		.byte	-78
 4564 0302 42       		.byte	66
 4565 0303 63       		.byte	99
 4566 0304 C7       		.byte	-57
 4567 0305 C1       		.byte	-63
 4568 0306 A3       		.byte	-93
 4569 0307 EB       		.byte	-21
 4570 0308 B7       		.byte	-73
 4571 0309 14       		.byte	20
 4572 030a 93       		.byte	-109
 4573 030b C1       		.byte	-63
 4574 030c DD       		.byte	-35
 4575 030d 7B       		.byte	123
 4576 030e E8       		.byte	-24
 4577 030f B4       		.byte	-76
 4578 0310 9B       		.byte	-101
 4579 0311 46       		.byte	70
 4580 0312 D1       		.byte	-47
 4581 0313 F4       		.byte	-12
 4582 0314 1B       		.byte	27
 4583 0315 4A       		.byte	74
 4584 0316 EE       		.byte	-18
 4585 0317 C1       		.byte	-63
 4586 0318 12       		.byte	18
 4587 0319 1B       		.byte	27
 4588 031a 01       		.byte	1
 4589 031b 37       		.byte	55
 4590 031c 83       		.byte	-125
 4591 031d F8       		.byte	-8
 4592 031e F3       		.byte	-13
 4593 031f 52       		.byte	82
 4594 0320 6B       		.byte	107
 4595 0321 56       		.byte	86
 4596 0322 D0       		.byte	-48
 4597 0323 37       		.byte	55
 4598 0324 E0       		.byte	-32
 4599 0325 5F       		.byte	95
 4600 0326 25       		.byte	37
 4601 0327 98       		.byte	-104
 4602 0328 BD       		.byte	-67
 4603 0329 0F       		.byte	15
 4604 032a D2       		.byte	-46
 4605 032b 21       		.byte	33
 4606 032c 5D       		.byte	93
ARM GAS  C:\Users\jo\AppData\Local\Temp\ccyP7UZh.s 			page 83


 4607 032d 6A       		.byte	106
 4608 032e 1E       		.byte	30
 4609 032f 52       		.byte	82
 4610 0330 95       		.byte	-107
 4611 0331 E6       		.byte	-26
 4612 0332 4F       		.byte	79
 4613 0333 73       		.byte	115
 4614 0334 F6       		.byte	-10
 4615 0335 3F       		.byte	63
 4616 0336 0A       		.byte	10
 4617 0337 EC       		.byte	-20
 4618 0338 8B       		.byte	-117
 4619 0339 91       		.byte	-111
 4620 033a 5A       		.byte	90
 4621 033b 98       		.byte	-104
 4622 033c 5D       		.byte	93
 4623 033d 78       		.byte	120
 4624 033e 65       		.byte	101
 4625 033f 98       		.byte	-104
 4626 0340 E3       		.byte	-29
 4627 0341 7B       		.byte	123
 4628 0342 6A       		.byte	106
 4629 0343 77       		.byte	119
 4630 0344 5D       		.byte	93
 4631 0345 C8       		.byte	-56
 4632 0346 7D       		.byte	125
 4633 0347 BA       		.byte	-70
 4634 0348 A4       		.byte	-92
 4635 0349 DF       		.byte	-33
 4636 034a A9       		.byte	-87
 4637 034b F9       		.byte	-7
 4638 034c 6E       		.byte	110
 4639 034d 5E       		.byte	94
 4640 034e 3F       		.byte	63
 4641 034f FD       		.byte	-3
 4642 0350 DE       		.byte	-34
 4643 0351 BD       		.byte	-67
 4644 0352 71       		.byte	113
 4645 0353 F8       		.byte	-8
 4646 0354 86       		.byte	-122
 4647 0355 72       		.byte	114
 4648 0356 89       		.byte	-119
 4649 0357 86       		.byte	-122
 4650 0358 5D       		.byte	93
 4651 0359 F5       		.byte	-11
 4652 035a A3       		.byte	-93
 4653 035b 2D       		.byte	45
 4654 035c 20       		.byte	32
 4655 035d CD       		.byte	-51
 4656 035e C9       		.byte	-55
 4657 035f 44       		.byte	68
 4658 0360 B6       		.byte	-74
 4659 0361 02       		.byte	2
 4660 0362 2C       		.byte	44
 4661 0363 AC       		.byte	-84
 4662 0364 3C       		.byte	60
 4663 0365 49       		.byte	73
ARM GAS  C:\Users\jo\AppData\Local\Temp\ccyP7UZh.s 			page 84


 4664 0366 82       		.byte	-126
 4665 0367 B1       		.byte	-79
 4666 0368 0D       		.byte	13
 4667 0369 5E       		.byte	94
 4668 036a EB       		.byte	-21
 4669 036b 55       		.byte	85
 4670 036c C3       		.byte	-61
 4671 036d E4       		.byte	-28
 4672 036e DE       		.byte	-34
 4673 036f 15       		.byte	21
 4674 0370 13       		.byte	19
 4675 0371 46       		.byte	70
 4676 0372 76       		.byte	118
 4677 0373 FB       		.byte	-5
 4678 0374 6D       		.byte	109
 4679 0375 E0       		.byte	-32
 4680 0376 44       		.byte	68
 4681 0377 60       		.byte	96
 4682 0378 65       		.byte	101
 4683 0379 C9       		.byte	-55
 4684 037a 74       		.byte	116
 4685 037b 40       		.byte	64
 4686 037c FA       		.byte	-6
 4687 037d 8C       		.byte	-116
 4688 037e 6A       		.byte	106
 4689 037f 58       		.byte	88
 4690              		.section	.rodata.str1.4,"aMS",%progbits,1
 4691              		.align	2
 4692              	.LC0:
 4693 0000 726200   		.ascii	"rb\000"
 4694 0003 00       		.space	1
 4695              	.LC1:
 4696 0004 20205348 		.ascii	"  SHA-%d test #%d: \000"
 4696      412D2564 
 4696      20746573 
 4696      74202325 
 4696      643A2000 
 4697              	.LC2:
 4698 0018 6661696C 		.ascii	"failed\000"
 4698      656400
 4699 001f 00       		.space	1
 4700              	.LC3:
 4701 0020 70617373 		.ascii	"passed\000"
 4701      656400
 4702 0027 00       		.space	1
 4703              	.LC4:
 4704 0028 2020484D 		.ascii	"  HMAC-SHA-%d test #%d: \000"
 4704      41432D53 
 4704      48412D25 
 4704      64207465 
 4704      73742023 
 4705 0041 000000   		.section	.rodata.sha512_hmac_test_buf,"a",%progbits
 4706              		.align	2
 4707              		.set	.LANCHOR9,. + 0
 4708              		.type	sha512_hmac_test_buf, %object
 4709              		.size	sha512_hmac_test_buf, 1071
 4710              	sha512_hmac_test_buf:
ARM GAS  C:\Users\jo\AppData\Local\Temp\ccyP7UZh.s 			page 85


 4711 0000 48692054 		.ascii	"Hi There\000"
 4711      68657265 
 4711      00
 4712 0009 00000000 		.space	144
 4712      00000000 
 4712      00000000 
 4712      00000000 
 4712      00000000 
 4713 0099 77686174 		.ascii	"what do ya want for nothing?\000"
 4713      20646F20 
 4713      79612077 
 4713      616E7420 
 4713      666F7220 
 4714 00b6 00000000 		.space	124
 4714      00000000 
 4714      00000000 
 4714      00000000 
 4714      00000000 
 4715 0132 DDDDDDDD 		.ascii	"\335\335\335\335\335\335\335\335\335\335\335\335\335"
 4715      DDDDDDDD 
 4715      DDDDDDDD 
 4715      DD
 4716 013f DDDDDDDD 		.ascii	"\335\335\335\335\335\335\335\335\335\335\335\335\335"
 4716      DDDDDDDD 
 4716      DDDDDDDD 
 4716      DD
 4717 014c DDDDDDDD 		.ascii	"\335\335\335\335\335\335\335\335\335\335\335\335\335"
 4717      DDDDDDDD 
 4717      DDDDDDDD 
 4717      DD
 4718 0159 DDDDDDDD 		.ascii	"\335\335\335\335\335\335\335\335\335\335\335\000"
 4718      DDDDDDDD 
 4718      DDDDDD00 
 4719 0165 00000000 		.space	102
 4719      00000000 
 4719      00000000 
 4719      00000000 
 4719      00000000 
 4720 01cb CDCDCDCD 		.ascii	"\315\315\315\315\315\315\315\315\315\315\315\315\315"
 4720      CDCDCDCD 
 4720      CDCDCDCD 
 4720      CD
 4721 01d8 CDCDCDCD 		.ascii	"\315\315\315\315\315\315\315\315\315\315\315\315\315"
 4721      CDCDCDCD 
 4721      CDCDCDCD 
 4721      CD
 4722 01e5 CDCDCDCD 		.ascii	"\315\315\315\315\315\315\315\315\315\315\315\315\315"
 4722      CDCDCDCD 
 4722      CDCDCDCD 
 4722      CD
 4723 01f2 CDCDCDCD 		.ascii	"\315\315\315\315\315\315\315\315\315\315\315\000"
 4723      CDCDCDCD 
 4723      CDCDCD00 
 4724 01fe 00000000 		.space	102
 4724      00000000 
 4724      00000000 
 4724      00000000 
ARM GAS  C:\Users\jo\AppData\Local\Temp\ccyP7UZh.s 			page 86


 4724      00000000 
 4725 0264 54657374 		.ascii	"Test With Truncation\000"
 4725      20576974 
 4725      68205472 
 4725      756E6361 
 4725      74696F6E 
 4726 0279 00000000 		.space	132
 4726      00000000 
 4726      00000000 
 4726      00000000 
 4726      00000000 
 4727 02fd 54657374 		.ascii	"Test Using Larger Than Block-Size Key - Hash Key Fi"
 4727      20557369 
 4727      6E67204C 
 4727      61726765 
 4727      72205468 
 4728 0330 72737400 		.ascii	"rst\000"
 4729 0334 00000000 		.space	98
 4729      00000000 
 4729      00000000 
 4729      00000000 
 4729      00000000 
 4730 0396 54686973 		.ascii	"This is a test using a larger than block-size key a"
 4730      20697320 
 4730      61207465 
 4730      73742075 
 4730      73696E67 
 4731 03c9 6E642061 		.ascii	"nd a larger than block-size data. The key needs to "
 4731      206C6172 
 4731      67657220 
 4731      7468616E 
 4731      20626C6F 
 4732 03fc 62652068 		.ascii	"be hashed before being used by the HMAC algorithm.\000"
 4732      61736865 
 4732      64206265 
 4732      666F7265 
 4732      20626569 
 4733 042f 00       		.section	.rodata.sha512_hmac_test_buflen,"a",%progbits
 4734              		.align	2
 4735              		.set	.LANCHOR8,. + 0
 4736              		.type	sha512_hmac_test_buflen, %object
 4737              		.size	sha512_hmac_test_buflen, 28
 4738              	sha512_hmac_test_buflen:
 4739 0000 08000000 		.word	8
 4740 0004 1C000000 		.word	28
 4741 0008 32000000 		.word	50
 4742 000c 32000000 		.word	50
 4743 0010 14000000 		.word	20
 4744 0014 36000000 		.word	54
 4745 0018 98000000 		.word	152
 4746              		.section	.rodata.sha512_hmac_test_key,"a",%progbits
 4747              		.align	2
 4748              		.set	.LANCHOR6,. + 0
 4749              		.type	sha512_hmac_test_key, %object
 4750              		.size	sha512_hmac_test_key, 182
 4751              	sha512_hmac_test_key:
 4752 0000 0B0B0B0B 		.ascii	"\013\013\013\013\013\013\013\013\013\013\013\013\013"
ARM GAS  C:\Users\jo\AppData\Local\Temp\ccyP7UZh.s 			page 87


 4752      0B0B0B0B 
 4752      0B0B0B0B 
 4752      0B
 4753 000d 0B0B0B0B 		.ascii	"\013\013\013\013\013\013\013\000"
 4753      0B0B0B00 
 4754 0015 00000000 		.space	5
 4754      00
 4755 001a 4A656665 		.ascii	"Jefe\000"
 4755      00
 4756 001f 00000000 		.space	21
 4756      00000000 
 4756      00000000 
 4756      00000000 
 4756      00000000 
 4757 0034 AAAAAAAA 		.ascii	"\252\252\252\252\252\252\252\252\252\252\252\252\252"
 4757      AAAAAAAA 
 4757      AAAAAAAA 
 4757      AA
 4758 0041 AAAAAAAA 		.ascii	"\252\252\252\252\252\252\252\000"
 4758      AAAAAA00 
 4759 0049 00000000 		.space	5
 4759      00
 4760 004e 01020304 		.ascii	"\001\002\003\004\005\006\007\010\011\012\013\014\015"
 4760      05060708 
 4760      090A0B0C 
 4760      0D
 4761 005b 0E0F1011 		.ascii	"\016\017\020\021\022\023\024\025\026\027\030\031\000"
 4761      12131415 
 4761      16171819 
 4761      00
 4762 0068 0C0C0C0C 		.ascii	"\014\014\014\014\014\014\014\014\014\014\014\014\014"
 4762      0C0C0C0C 
 4762      0C0C0C0C 
 4762      0C
 4763 0075 0C0C0C0C 		.ascii	"\014\014\014\014\014\014\014\000"
 4763      0C0C0C00 
 4764 007d 00000000 		.space	5
 4764      00
 4765 0082 00       		.ascii	"\000"
 4766 0083 00000000 		.space	25
 4766      00000000 
 4766      00000000 
 4766      00000000 
 4766      00000000 
 4767 009c 00       		.ascii	"\000"
 4768 009d 00000000 		.space	25
 4768      00000000 
 4768      00000000 
 4768      00000000 
 4768      00000000 
 4769 00b6 0000     		.section	.rodata.K,"a",%progbits
 4770              		.align	3
 4771              		.set	.LANCHOR0,. + 0
 4772              		.type	K, %object
 4773              		.size	K, 640
 4774              	K:
 4775 0000 22AE28D7 		.word	-685199838
ARM GAS  C:\Users\jo\AppData\Local\Temp\ccyP7UZh.s 			page 88


 4776 0004 982F8A42 		.word	1116352408
 4777 0008 CD65EF23 		.word	602891725
 4778 000c 91443771 		.word	1899447441
 4779 0010 2F3B4DEC 		.word	-330482897
 4780 0014 CFFBC0B5 		.word	-1245643825
 4781 0018 BCDB8981 		.word	-2121671748
 4782 001c A5DBB5E9 		.word	-373957723
 4783 0020 38B548F3 		.word	-213338824
 4784 0024 5BC25639 		.word	961987163
 4785 0028 19D005B6 		.word	-1241133031
 4786 002c F111F159 		.word	1508970993
 4787 0030 9B4F19AF 		.word	-1357295717
 4788 0034 A4823F92 		.word	-1841331548
 4789 0038 18816DDA 		.word	-630357736
 4790 003c D55E1CAB 		.word	-1424204075
 4791 0040 420203A3 		.word	-1560083902
 4792 0044 98AA07D8 		.word	-670586216
 4793 0048 BE6F7045 		.word	1164996542
 4794 004c 015B8312 		.word	310598401
 4795 0050 8CB2E44E 		.word	1323610764
 4796 0054 BE853124 		.word	607225278
 4797 0058 E2B4FFD5 		.word	-704662302
 4798 005c C37D0C55 		.word	1426881987
 4799 0060 6F897BF2 		.word	-226784913
 4800 0064 745DBE72 		.word	1925078388
 4801 0068 B196163B 		.word	991336113
 4802 006c FEB1DE80 		.word	-2132889090
 4803 0070 3512C725 		.word	633803317
 4804 0074 A706DC9B 		.word	-1680079193
 4805 0078 942669CF 		.word	-815192428
 4806 007c 74F19BC1 		.word	-1046744716
 4807 0080 D24AF19E 		.word	-1628353838
 4808 0084 C1699BE4 		.word	-459576895
 4809 0088 E3254F38 		.word	944711139
 4810 008c 8647BEEF 		.word	-272742522
 4811 0090 B5D58C8B 		.word	-1953704523
 4812 0094 C69DC10F 		.word	264347078
 4813 0098 659CAC77 		.word	2007800933
 4814 009c CCA10C24 		.word	604807628
 4815 00a0 75022B59 		.word	1495990901
 4816 00a4 6F2CE92D 		.word	770255983
 4817 00a8 83E4A66E 		.word	1856431235
 4818 00ac AA84744A 		.word	1249150122
 4819 00b0 D4FB41BD 		.word	-1119749164
 4820 00b4 DCA9B05C 		.word	1555081692
 4821 00b8 B5531183 		.word	-2096016459
 4822 00bc DA88F976 		.word	1996064986
 4823 00c0 ABDF66EE 		.word	-295247957
 4824 00c4 52513E98 		.word	-1740746414
 4825 00c8 1032B42D 		.word	766784016
 4826 00cc 6DC631A8 		.word	-1473132947
 4827 00d0 3F21FB98 		.word	-1728372417
 4828 00d4 C82703B0 		.word	-1341970488
 4829 00d8 E40EEFBE 		.word	-1091629340
 4830 00dc C77F59BF 		.word	-1084653625
 4831 00e0 C28FA83D 		.word	1034457026
 4832 00e4 F30BE0C6 		.word	-958395405
ARM GAS  C:\Users\jo\AppData\Local\Temp\ccyP7UZh.s 			page 89


 4833 00e8 25A70A93 		.word	-1828018395
 4834 00ec 4791A7D5 		.word	-710438585
 4835 00f0 6F8203E0 		.word	-536640913
 4836 00f4 5163CA06 		.word	113926993
 4837 00f8 706E0E0A 		.word	168717936
 4838 00fc 67292914 		.word	338241895
 4839 0100 FC2FD246 		.word	1188179964
 4840 0104 850AB727 		.word	666307205
 4841 0108 26C9265C 		.word	1546045734
 4842 010c 38211B2E 		.word	773529912
 4843 0110 ED2AC45A 		.word	1522805485
 4844 0114 FC6D2C4D 		.word	1294757372
 4845 0118 DFB3959D 		.word	-1651133473
 4846 011c 130D3853 		.word	1396182291
 4847 0120 DE63AF8B 		.word	-1951439906
 4848 0124 54730A65 		.word	1695183700
 4849 0128 A8B2773C 		.word	1014477480
 4850 012c BB0A6A76 		.word	1986661051
 4851 0130 E6AEED47 		.word	1206759142
 4852 0134 2EC9C281 		.word	-2117940946
 4853 0138 3B358214 		.word	344077627
 4854 013c 852C7292 		.word	-1838011259
 4855 0140 6403F14C 		.word	1290863460
 4856 0144 A1E8BFA2 		.word	-1564481375
 4857 0148 013042BC 		.word	-1136513023
 4858 014c 4B661AA8 		.word	-1474664885
 4859 0150 9197F8D0 		.word	-789014639
 4860 0154 708B4BC2 		.word	-1035236496
 4861 0158 30BE5406 		.word	106217008
 4862 015c A3516CC7 		.word	-949202525
 4863 0160 1852EFD6 		.word	-688958952
 4864 0164 19E892D1 		.word	-778901479
 4865 0168 10A96555 		.word	1432725776
 4866 016c 240699D6 		.word	-694614492
 4867 0170 2A207157 		.word	1467031594
 4868 0174 85350EF4 		.word	-200395387
 4869 0178 B8D1BB32 		.word	851169720
 4870 017c 70A06A10 		.word	275423344
 4871 0180 C8D0D2B8 		.word	-1194143544
 4872 0184 16C1A419 		.word	430227734
 4873 0188 53AB4151 		.word	1363258195
 4874 018c 086C371E 		.word	506948616
 4875 0190 99EB8EDF 		.word	-544281703
 4876 0194 4C774827 		.word	659060556
 4877 0198 A8489BE1 		.word	-509917016
 4878 019c B5BCB034 		.word	883997877
 4879 01a0 635AC9C5 		.word	-976659869
 4880 01a4 B30C1C39 		.word	958139571
 4881 01a8 CB8A41E3 		.word	-482243893
 4882 01ac 4AAAD84E 		.word	1322822218
 4883 01b0 73E36377 		.word	2003034995
 4884 01b4 4FCA9C5B 		.word	1537002063
 4885 01b8 A3B8B2D6 		.word	-692930397
 4886 01bc F36F2E68 		.word	1747873779
 4887 01c0 FCB2EF5D 		.word	1575990012
 4888 01c4 EE828F74 		.word	1955562222
 4889 01c8 602F1743 		.word	1125592928
ARM GAS  C:\Users\jo\AppData\Local\Temp\ccyP7UZh.s 			page 90


 4890 01cc 6F63A578 		.word	2024104815
 4891 01d0 72ABF0A1 		.word	-1578062990
 4892 01d4 1478C884 		.word	-2067236844
 4893 01d8 EC39641A 		.word	442776044
 4894 01dc 0802C78C 		.word	-1933114872
 4895 01e0 281E6323 		.word	593698344
 4896 01e4 FAFFBE90 		.word	-1866530822
 4897 01e8 E9BD82DE 		.word	-561857047
 4898 01ec EB6C50A4 		.word	-1538233109
 4899 01f0 1579C6B2 		.word	-1295615723
 4900 01f4 F7A3F9BE 		.word	-1090935817
 4901 01f8 2B5372E3 		.word	-479046869
 4902 01fc F27871C6 		.word	-965641998
 4903 0200 9C6126EA 		.word	-366583396
 4904 0204 CE3E27CA 		.word	-903397682
 4905 0208 07C2C021 		.word	566280711
 4906 020c C7B886D1 		.word	-779700025
 4907 0210 1EEBE0CD 		.word	-840897762
 4908 0214 D67DDAEA 		.word	-354779690
 4909 0218 78D16EEE 		.word	-294727304
 4910 021c 7F4F7DF5 		.word	-176337025
 4911 0220 BA6F1772 		.word	1914138554
 4912 0224 AA67F006 		.word	116418474
 4913 0228 A698C8A2 		.word	-1563912026
 4914 022c C57D630A 		.word	174292421
 4915 0230 AE0DF9BE 		.word	-1090974290
 4916 0234 04983F11 		.word	289380356
 4917 0238 1B471C13 		.word	320620315
 4918 023c 350B711B 		.word	460393269
 4919 0240 847D0423 		.word	587496836
 4920 0244 F577DB28 		.word	685471733
 4921 0248 9324C740 		.word	1086792851
 4922 024c 7BABCA32 		.word	852142971
 4923 0250 BCBEC915 		.word	365543100
 4924 0254 0ABE9E3C 		.word	1017036298
 4925 0258 4C0D109C 		.word	-1676669620
 4926 025c C4671D43 		.word	1126000580
 4927 0260 B6423ECB 		.word	-885112138
 4928 0264 BED4C54C 		.word	1288033470
 4929 0268 2A7E65FC 		.word	-60457430
 4930 026c 9C297F59 		.word	1501505948
 4931 0270 ECFAD63A 		.word	987167468
 4932 0274 AB6FCB5F 		.word	1607167915
 4933 0278 1758474A 		.word	1246189591
 4934 027c 8C19446C 		.word	1816402316
 4935              		.text
 4936              	.Letext0:
 4937              		.file 2 "c:\\program files\\gnu tools arm embedded\\4.9 2014q4\\lib\\gcc\\arm-none-eabi\\4.9.3\\in
 4938              		.file 3 "c:\\program files\\gnu tools arm embedded\\4.9 2014q4\\arm-none-eabi\\include\\machine\\_
 4939              		.file 4 "c:\\program files\\gnu tools arm embedded\\4.9 2014q4\\arm-none-eabi\\include\\stdint.h"
 4940              		.file 5 "../../../ext/mbedtls-1.3.11/library/../include/polarssl/sha512.h"
 4941              		.file 6 "c:\\program files\\gnu tools arm embedded\\4.9 2014q4\\arm-none-eabi\\include\\sys\\lock.
 4942              		.file 7 "c:\\program files\\gnu tools arm embedded\\4.9 2014q4\\arm-none-eabi\\include\\sys\\_type
 4943              		.file 8 "c:\\program files\\gnu tools arm embedded\\4.9 2014q4\\arm-none-eabi\\include\\sys\\reent
 4944              		.file 9 "c:\\program files\\gnu tools arm embedded\\4.9 2014q4\\arm-none-eabi\\include\\stdio.h"
 4945              		.file 10 "c:\\program files\\gnu tools arm embedded\\4.9 2014q4\\arm-none-eabi\\include\\string.h"
 4946              		.file 11 "<built-in>"
ARM GAS  C:\Users\jo\AppData\Local\Temp\ccyP7UZh.s 			page 91


 4947              		.section	.debug_info,"",%progbits
 4948              	.Ldebug_info0:
 4949 0000 D21E0000 		.4byte	0x1ed2
 4950 0004 0400     		.2byte	0x4
 4951 0006 00000000 		.4byte	.Ldebug_abbrev0
 4952 000a 04       		.byte	0x4
 4953 000b 01       		.uleb128 0x1
 4954 000c D5030000 		.4byte	.LASF178
 4955 0010 01       		.byte	0x1
 4956 0011 20000000 		.4byte	.LASF179
 4957 0015 2F010000 		.4byte	.LASF180
 4958 0019 F0000000 		.4byte	.Ldebug_ranges0+0xf0
 4959 001d 00000000 		.4byte	0
 4960 0021 00000000 		.4byte	.Ldebug_line0
 4961 0025 02       		.uleb128 0x2
 4962 0026 08       		.byte	0x8
 4963 0027 07       		.byte	0x7
 4964 0028 C8000000 		.4byte	.LASF0
 4965 002c 03       		.uleb128 0x3
 4966 002d 04       		.byte	0x4
 4967 002e 05       		.byte	0x5
 4968 002f 696E7400 		.ascii	"int\000"
 4969 0033 02       		.uleb128 0x2
 4970 0034 04       		.byte	0x4
 4971 0035 07       		.byte	0x7
 4972 0036 E5020000 		.4byte	.LASF1
 4973 003a 04       		.uleb128 0x4
 4974 003b 5A000000 		.4byte	.LASF9
 4975 003f 02       		.byte	0x2
 4976 0040 D4       		.byte	0xd4
 4977 0041 33000000 		.4byte	0x33
 4978 0045 02       		.uleb128 0x2
 4979 0046 01       		.byte	0x1
 4980 0047 06       		.byte	0x6
 4981 0048 8B010000 		.4byte	.LASF2
 4982 004c 02       		.uleb128 0x2
 4983 004d 01       		.byte	0x1
 4984 004e 08       		.byte	0x8
 4985 004f A9050000 		.4byte	.LASF3
 4986 0053 02       		.uleb128 0x2
 4987 0054 02       		.byte	0x2
 4988 0055 05       		.byte	0x5
 4989 0056 C5050000 		.4byte	.LASF4
 4990 005a 02       		.uleb128 0x2
 4991 005b 02       		.byte	0x2
 4992 005c 07       		.byte	0x7
 4993 005d 5D030000 		.4byte	.LASF5
 4994 0061 02       		.uleb128 0x2
 4995 0062 04       		.byte	0x4
 4996 0063 05       		.byte	0x5
 4997 0064 DD010000 		.4byte	.LASF6
 4998 0068 02       		.uleb128 0x2
 4999 0069 04       		.byte	0x4
 5000 006a 07       		.byte	0x7
 5001 006b 17030000 		.4byte	.LASF7
 5002 006f 02       		.uleb128 0x2
 5003 0070 08       		.byte	0x8
ARM GAS  C:\Users\jo\AppData\Local\Temp\ccyP7UZh.s 			page 92


 5004 0071 05       		.byte	0x5
 5005 0072 7D010000 		.4byte	.LASF8
 5006 0076 04       		.uleb128 0x4
 5007 0077 5F050000 		.4byte	.LASF10
 5008 007b 03       		.byte	0x3
 5009 007c 5B       		.byte	0x5b
 5010 007d 25000000 		.4byte	0x25
 5011 0081 04       		.uleb128 0x4
 5012 0082 7A000000 		.4byte	.LASF11
 5013 0086 04       		.byte	0x4
 5014 0087 39       		.byte	0x39
 5015 0088 76000000 		.4byte	0x76
 5016 008c 05       		.uleb128 0x5
 5017 008d D801     		.2byte	0x1d8
 5018 008f 05       		.byte	0x5
 5019 0090 36       		.byte	0x36
 5020 0091 E0000000 		.4byte	0xe0
 5021 0095 06       		.uleb128 0x6
 5022 0096 CF030000 		.4byte	.LASF12
 5023 009a 05       		.byte	0x5
 5024 009b 38       		.byte	0x38
 5025 009c E0000000 		.4byte	0xe0
 5026 00a0 00       		.byte	0
 5027 00a1 06       		.uleb128 0x6
 5028 00a2 D7010000 		.4byte	.LASF13
 5029 00a6 05       		.byte	0x5
 5030 00a7 39       		.byte	0x39
 5031 00a8 F7000000 		.4byte	0xf7
 5032 00ac 10       		.byte	0x10
 5033 00ad 06       		.uleb128 0x6
 5034 00ae D3060000 		.4byte	.LASF14
 5035 00b2 05       		.byte	0x5
 5036 00b3 3A       		.byte	0x3a
 5037 00b4 07010000 		.4byte	0x107
 5038 00b8 50       		.byte	0x50
 5039 00b9 06       		.uleb128 0x6
 5040 00ba 98050000 		.4byte	.LASF15
 5041 00be 05       		.byte	0x5
 5042 00bf 3C       		.byte	0x3c
 5043 00c0 07010000 		.4byte	0x107
 5044 00c4 D0       		.byte	0xd0
 5045 00c5 07       		.uleb128 0x7
 5046 00c6 16080000 		.4byte	.LASF16
 5047 00ca 05       		.byte	0x5
 5048 00cb 3D       		.byte	0x3d
 5049 00cc 07010000 		.4byte	0x107
 5050 00d0 5001     		.2byte	0x150
 5051 00d2 07       		.uleb128 0x7
 5052 00d3 61000000 		.4byte	.LASF17
 5053 00d7 05       		.byte	0x5
 5054 00d8 3E       		.byte	0x3e
 5055 00d9 2C000000 		.4byte	0x2c
 5056 00dd D001     		.2byte	0x1d0
 5057 00df 00       		.byte	0
 5058 00e0 08       		.uleb128 0x8
 5059 00e1 81000000 		.4byte	0x81
 5060 00e5 F0000000 		.4byte	0xf0
ARM GAS  C:\Users\jo\AppData\Local\Temp\ccyP7UZh.s 			page 93


 5061 00e9 09       		.uleb128 0x9
 5062 00ea F0000000 		.4byte	0xf0
 5063 00ee 01       		.byte	0x1
 5064 00ef 00       		.byte	0
 5065 00f0 02       		.uleb128 0x2
 5066 00f1 04       		.byte	0x4
 5067 00f2 07       		.byte	0x7
 5068 00f3 D3040000 		.4byte	.LASF18
 5069 00f7 08       		.uleb128 0x8
 5070 00f8 81000000 		.4byte	0x81
 5071 00fc 07010000 		.4byte	0x107
 5072 0100 09       		.uleb128 0x9
 5073 0101 F0000000 		.4byte	0xf0
 5074 0105 07       		.byte	0x7
 5075 0106 00       		.byte	0
 5076 0107 08       		.uleb128 0x8
 5077 0108 4C000000 		.4byte	0x4c
 5078 010c 17010000 		.4byte	0x117
 5079 0110 09       		.uleb128 0x9
 5080 0111 F0000000 		.4byte	0xf0
 5081 0115 7F       		.byte	0x7f
 5082 0116 00       		.byte	0
 5083 0117 04       		.uleb128 0x4
 5084 0118 DC040000 		.4byte	.LASF19
 5085 011c 05       		.byte	0x5
 5086 011d 40       		.byte	0x40
 5087 011e 8C000000 		.4byte	0x8c
 5088 0122 04       		.uleb128 0x4
 5089 0123 86050000 		.4byte	.LASF20
 5090 0127 06       		.byte	0x6
 5091 0128 07       		.byte	0x7
 5092 0129 2C000000 		.4byte	0x2c
 5093 012d 04       		.uleb128 0x4
 5094 012e 39050000 		.4byte	.LASF21
 5095 0132 07       		.byte	0x7
 5096 0133 10       		.byte	0x10
 5097 0134 61000000 		.4byte	0x61
 5098 0138 04       		.uleb128 0x4
 5099 0139 A8060000 		.4byte	.LASF22
 5100 013d 07       		.byte	0x7
 5101 013e 27       		.byte	0x27
 5102 013f 61000000 		.4byte	0x61
 5103 0143 0A       		.uleb128 0xa
 5104 0144 AC030000 		.4byte	.LASF23
 5105 0148 02       		.byte	0x2
 5106 0149 6101     		.2byte	0x161
 5107 014b 33000000 		.4byte	0x33
 5108 014f 0B       		.uleb128 0xb
 5109 0150 04       		.byte	0x4
 5110 0151 07       		.byte	0x7
 5111 0152 4A       		.byte	0x4a
 5112 0153 6E010000 		.4byte	0x16e
 5113 0157 0C       		.uleb128 0xc
 5114 0158 A6030000 		.4byte	.LASF24
 5115 015c 07       		.byte	0x7
 5116 015d 4C       		.byte	0x4c
 5117 015e 43010000 		.4byte	0x143
ARM GAS  C:\Users\jo\AppData\Local\Temp\ccyP7UZh.s 			page 94


 5118 0162 0C       		.uleb128 0xc
 5119 0163 F2020000 		.4byte	.LASF25
 5120 0167 07       		.byte	0x7
 5121 0168 4D       		.byte	0x4d
 5122 0169 6E010000 		.4byte	0x16e
 5123 016d 00       		.byte	0
 5124 016e 08       		.uleb128 0x8
 5125 016f 4C000000 		.4byte	0x4c
 5126 0173 7E010000 		.4byte	0x17e
 5127 0177 09       		.uleb128 0x9
 5128 0178 F0000000 		.4byte	0xf0
 5129 017c 03       		.byte	0x3
 5130 017d 00       		.byte	0
 5131 017e 0D       		.uleb128 0xd
 5132 017f 08       		.byte	0x8
 5133 0180 07       		.byte	0x7
 5134 0181 47       		.byte	0x47
 5135 0182 9F010000 		.4byte	0x19f
 5136 0186 06       		.uleb128 0x6
 5137 0187 92060000 		.4byte	.LASF26
 5138 018b 07       		.byte	0x7
 5139 018c 49       		.byte	0x49
 5140 018d 2C000000 		.4byte	0x2c
 5141 0191 00       		.byte	0
 5142 0192 06       		.uleb128 0x6
 5143 0193 9A060000 		.4byte	.LASF27
 5144 0197 07       		.byte	0x7
 5145 0198 4E       		.byte	0x4e
 5146 0199 4F010000 		.4byte	0x14f
 5147 019d 04       		.byte	0x4
 5148 019e 00       		.byte	0
 5149 019f 04       		.uleb128 0x4
 5150 01a0 01060000 		.4byte	.LASF28
 5151 01a4 07       		.byte	0x7
 5152 01a5 4F       		.byte	0x4f
 5153 01a6 7E010000 		.4byte	0x17e
 5154 01aa 04       		.uleb128 0x4
 5155 01ab 97020000 		.4byte	.LASF29
 5156 01af 07       		.byte	0x7
 5157 01b0 53       		.byte	0x53
 5158 01b1 22010000 		.4byte	0x122
 5159 01b5 0E       		.uleb128 0xe
 5160 01b6 04       		.byte	0x4
 5161 01b7 04       		.uleb128 0x4
 5162 01b8 08070000 		.4byte	.LASF30
 5163 01bc 08       		.byte	0x8
 5164 01bd 16       		.byte	0x16
 5165 01be 68000000 		.4byte	0x68
 5166 01c2 0F       		.uleb128 0xf
 5167 01c3 A8020000 		.4byte	.LASF35
 5168 01c7 18       		.byte	0x18
 5169 01c8 08       		.byte	0x8
 5170 01c9 2D       		.byte	0x2d
 5171 01ca 15020000 		.4byte	0x215
 5172 01ce 06       		.uleb128 0x6
 5173 01cf E7060000 		.4byte	.LASF31
 5174 01d3 08       		.byte	0x8
ARM GAS  C:\Users\jo\AppData\Local\Temp\ccyP7UZh.s 			page 95


 5175 01d4 2F       		.byte	0x2f
 5176 01d5 15020000 		.4byte	0x215
 5177 01d9 00       		.byte	0
 5178 01da 10       		.uleb128 0x10
 5179 01db 5F6B00   		.ascii	"_k\000"
 5180 01de 08       		.byte	0x8
 5181 01df 30       		.byte	0x30
 5182 01e0 2C000000 		.4byte	0x2c
 5183 01e4 04       		.byte	0x4
 5184 01e5 06       		.uleb128 0x6
 5185 01e6 7D060000 		.4byte	.LASF32
 5186 01ea 08       		.byte	0x8
 5187 01eb 30       		.byte	0x30
 5188 01ec 2C000000 		.4byte	0x2c
 5189 01f0 08       		.byte	0x8
 5190 01f1 06       		.uleb128 0x6
 5191 01f2 91020000 		.4byte	.LASF33
 5192 01f6 08       		.byte	0x8
 5193 01f7 30       		.byte	0x30
 5194 01f8 2C000000 		.4byte	0x2c
 5195 01fc 0C       		.byte	0xc
 5196 01fd 06       		.uleb128 0x6
 5197 01fe 63070000 		.4byte	.LASF34
 5198 0202 08       		.byte	0x8
 5199 0203 30       		.byte	0x30
 5200 0204 2C000000 		.4byte	0x2c
 5201 0208 10       		.byte	0x10
 5202 0209 10       		.uleb128 0x10
 5203 020a 5F7800   		.ascii	"_x\000"
 5204 020d 08       		.byte	0x8
 5205 020e 31       		.byte	0x31
 5206 020f 1B020000 		.4byte	0x21b
 5207 0213 14       		.byte	0x14
 5208 0214 00       		.byte	0
 5209 0215 11       		.uleb128 0x11
 5210 0216 04       		.byte	0x4
 5211 0217 C2010000 		.4byte	0x1c2
 5212 021b 08       		.uleb128 0x8
 5213 021c B7010000 		.4byte	0x1b7
 5214 0220 2B020000 		.4byte	0x22b
 5215 0224 09       		.uleb128 0x9
 5216 0225 F0000000 		.4byte	0xf0
 5217 0229 00       		.byte	0
 5218 022a 00       		.byte	0
 5219 022b 0F       		.uleb128 0xf
 5220 022c E0020000 		.4byte	.LASF36
 5221 0230 24       		.byte	0x24
 5222 0231 08       		.byte	0x8
 5223 0232 35       		.byte	0x35
 5224 0233 A4020000 		.4byte	0x2a4
 5225 0237 06       		.uleb128 0x6
 5226 0238 5A070000 		.4byte	.LASF37
 5227 023c 08       		.byte	0x8
 5228 023d 37       		.byte	0x37
 5229 023e 2C000000 		.4byte	0x2c
 5230 0242 00       		.byte	0
 5231 0243 06       		.uleb128 0x6
ARM GAS  C:\Users\jo\AppData\Local\Temp\ccyP7UZh.s 			page 96


 5232 0244 C2060000 		.4byte	.LASF38
 5233 0248 08       		.byte	0x8
 5234 0249 38       		.byte	0x38
 5235 024a 2C000000 		.4byte	0x2c
 5236 024e 04       		.byte	0x4
 5237 024f 06       		.uleb128 0x6
 5238 0250 A3010000 		.4byte	.LASF39
 5239 0254 08       		.byte	0x8
 5240 0255 39       		.byte	0x39
 5241 0256 2C000000 		.4byte	0x2c
 5242 025a 08       		.byte	0x8
 5243 025b 06       		.uleb128 0x6
 5244 025c 2A080000 		.4byte	.LASF40
 5245 0260 08       		.byte	0x8
 5246 0261 3A       		.byte	0x3a
 5247 0262 2C000000 		.4byte	0x2c
 5248 0266 0C       		.byte	0xc
 5249 0267 06       		.uleb128 0x6
 5250 0268 1D050000 		.4byte	.LASF41
 5251 026c 08       		.byte	0x8
 5252 026d 3B       		.byte	0x3b
 5253 026e 2C000000 		.4byte	0x2c
 5254 0272 10       		.byte	0x10
 5255 0273 06       		.uleb128 0x6
 5256 0274 B6040000 		.4byte	.LASF42
 5257 0278 08       		.byte	0x8
 5258 0279 3C       		.byte	0x3c
 5259 027a 2C000000 		.4byte	0x2c
 5260 027e 14       		.byte	0x14
 5261 027f 06       		.uleb128 0x6
 5262 0280 68070000 		.4byte	.LASF43
 5263 0284 08       		.byte	0x8
 5264 0285 3D       		.byte	0x3d
 5265 0286 2C000000 		.4byte	0x2c
 5266 028a 18       		.byte	0x18
 5267 028b 06       		.uleb128 0x6
 5268 028c CF050000 		.4byte	.LASF44
 5269 0290 08       		.byte	0x8
 5270 0291 3E       		.byte	0x3e
 5271 0292 2C000000 		.4byte	0x2c
 5272 0296 1C       		.byte	0x1c
 5273 0297 06       		.uleb128 0x6
 5274 0298 CA070000 		.4byte	.LASF45
 5275 029c 08       		.byte	0x8
 5276 029d 3F       		.byte	0x3f
 5277 029e 2C000000 		.4byte	0x2c
 5278 02a2 20       		.byte	0x20
 5279 02a3 00       		.byte	0
 5280 02a4 12       		.uleb128 0x12
 5281 02a5 B2010000 		.4byte	.LASF46
 5282 02a9 0801     		.2byte	0x108
 5283 02ab 08       		.byte	0x8
 5284 02ac 48       		.byte	0x48
 5285 02ad E4020000 		.4byte	0x2e4
 5286 02b1 06       		.uleb128 0x6
 5287 02b2 7D020000 		.4byte	.LASF47
 5288 02b6 08       		.byte	0x8
ARM GAS  C:\Users\jo\AppData\Local\Temp\ccyP7UZh.s 			page 97


 5289 02b7 49       		.byte	0x49
 5290 02b8 E4020000 		.4byte	0x2e4
 5291 02bc 00       		.byte	0
 5292 02bd 06       		.uleb128 0x6
 5293 02be 00000000 		.4byte	.LASF48
 5294 02c2 08       		.byte	0x8
 5295 02c3 4A       		.byte	0x4a
 5296 02c4 E4020000 		.4byte	0x2e4
 5297 02c8 80       		.byte	0x80
 5298 02c9 07       		.uleb128 0x7
 5299 02ca FA060000 		.4byte	.LASF49
 5300 02ce 08       		.byte	0x8
 5301 02cf 4C       		.byte	0x4c
 5302 02d0 B7010000 		.4byte	0x1b7
 5303 02d4 0001     		.2byte	0x100
 5304 02d6 07       		.uleb128 0x7
 5305 02d7 ED010000 		.4byte	.LASF50
 5306 02db 08       		.byte	0x8
 5307 02dc 4F       		.byte	0x4f
 5308 02dd B7010000 		.4byte	0x1b7
 5309 02e1 0401     		.2byte	0x104
 5310 02e3 00       		.byte	0
 5311 02e4 08       		.uleb128 0x8
 5312 02e5 B5010000 		.4byte	0x1b5
 5313 02e9 F4020000 		.4byte	0x2f4
 5314 02ed 09       		.uleb128 0x9
 5315 02ee F0000000 		.4byte	0xf0
 5316 02f2 1F       		.byte	0x1f
 5317 02f3 00       		.byte	0
 5318 02f4 12       		.uleb128 0x12
 5319 02f5 26050000 		.4byte	.LASF51
 5320 02f9 9001     		.2byte	0x190
 5321 02fb 08       		.byte	0x8
 5322 02fc 5B       		.byte	0x5b
 5323 02fd 32030000 		.4byte	0x332
 5324 0301 06       		.uleb128 0x6
 5325 0302 E7060000 		.4byte	.LASF31
 5326 0306 08       		.byte	0x8
 5327 0307 5C       		.byte	0x5c
 5328 0308 32030000 		.4byte	0x332
 5329 030c 00       		.byte	0
 5330 030d 06       		.uleb128 0x6
 5331 030e 3A060000 		.4byte	.LASF52
 5332 0312 08       		.byte	0x8
 5333 0313 5D       		.byte	0x5d
 5334 0314 2C000000 		.4byte	0x2c
 5335 0318 04       		.byte	0x4
 5336 0319 06       		.uleb128 0x6
 5337 031a 8C020000 		.4byte	.LASF53
 5338 031e 08       		.byte	0x8
 5339 031f 5F       		.byte	0x5f
 5340 0320 38030000 		.4byte	0x338
 5341 0324 08       		.byte	0x8
 5342 0325 06       		.uleb128 0x6
 5343 0326 B2010000 		.4byte	.LASF46
 5344 032a 08       		.byte	0x8
 5345 032b 60       		.byte	0x60
ARM GAS  C:\Users\jo\AppData\Local\Temp\ccyP7UZh.s 			page 98


 5346 032c A4020000 		.4byte	0x2a4
 5347 0330 88       		.byte	0x88
 5348 0331 00       		.byte	0
 5349 0332 11       		.uleb128 0x11
 5350 0333 04       		.byte	0x4
 5351 0334 F4020000 		.4byte	0x2f4
 5352 0338 08       		.uleb128 0x8
 5353 0339 48030000 		.4byte	0x348
 5354 033d 48030000 		.4byte	0x348
 5355 0341 09       		.uleb128 0x9
 5356 0342 F0000000 		.4byte	0xf0
 5357 0346 1F       		.byte	0x1f
 5358 0347 00       		.byte	0
 5359 0348 11       		.uleb128 0x11
 5360 0349 04       		.byte	0x4
 5361 034a 4E030000 		.4byte	0x34e
 5362 034e 13       		.uleb128 0x13
 5363 034f 0F       		.uleb128 0xf
 5364 0350 E7050000 		.4byte	.LASF54
 5365 0354 08       		.byte	0x8
 5366 0355 08       		.byte	0x8
 5367 0356 73       		.byte	0x73
 5368 0357 74030000 		.4byte	0x374
 5369 035b 06       		.uleb128 0x6
 5370 035c 9D010000 		.4byte	.LASF55
 5371 0360 08       		.byte	0x8
 5372 0361 74       		.byte	0x74
 5373 0362 74030000 		.4byte	0x374
 5374 0366 00       		.byte	0
 5375 0367 06       		.uleb128 0x6
 5376 0368 4D000000 		.4byte	.LASF56
 5377 036c 08       		.byte	0x8
 5378 036d 75       		.byte	0x75
 5379 036e 2C000000 		.4byte	0x2c
 5380 0372 04       		.byte	0x4
 5381 0373 00       		.byte	0
 5382 0374 11       		.uleb128 0x11
 5383 0375 04       		.byte	0x4
 5384 0376 4C000000 		.4byte	0x4c
 5385 037a 0F       		.uleb128 0xf
 5386 037b 0C060000 		.4byte	.LASF57
 5387 037f 68       		.byte	0x68
 5388 0380 08       		.byte	0x8
 5389 0381 B3       		.byte	0xb3
 5390 0382 A4040000 		.4byte	0x4a4
 5391 0386 10       		.uleb128 0x10
 5392 0387 5F7000   		.ascii	"_p\000"
 5393 038a 08       		.byte	0x8
 5394 038b B4       		.byte	0xb4
 5395 038c 74030000 		.4byte	0x374
 5396 0390 00       		.byte	0
 5397 0391 10       		.uleb128 0x10
 5398 0392 5F7200   		.ascii	"_r\000"
 5399 0395 08       		.byte	0x8
 5400 0396 B5       		.byte	0xb5
 5401 0397 2C000000 		.4byte	0x2c
 5402 039b 04       		.byte	0x4
ARM GAS  C:\Users\jo\AppData\Local\Temp\ccyP7UZh.s 			page 99


 5403 039c 10       		.uleb128 0x10
 5404 039d 5F7700   		.ascii	"_w\000"
 5405 03a0 08       		.byte	0x8
 5406 03a1 B6       		.byte	0xb6
 5407 03a2 2C000000 		.4byte	0x2c
 5408 03a6 08       		.byte	0x8
 5409 03a7 06       		.uleb128 0x6
 5410 03a8 E6010000 		.4byte	.LASF58
 5411 03ac 08       		.byte	0x8
 5412 03ad B7       		.byte	0xb7
 5413 03ae 53000000 		.4byte	0x53
 5414 03b2 0C       		.byte	0xc
 5415 03b3 06       		.uleb128 0x6
 5416 03b4 29030000 		.4byte	.LASF59
 5417 03b8 08       		.byte	0x8
 5418 03b9 B8       		.byte	0xb8
 5419 03ba 53000000 		.4byte	0x53
 5420 03be 0E       		.byte	0xe
 5421 03bf 10       		.uleb128 0x10
 5422 03c0 5F626600 		.ascii	"_bf\000"
 5423 03c4 08       		.byte	0x8
 5424 03c5 B9       		.byte	0xb9
 5425 03c6 4F030000 		.4byte	0x34f
 5426 03ca 10       		.byte	0x10
 5427 03cb 06       		.uleb128 0x6
 5428 03cc DF000000 		.4byte	.LASF60
 5429 03d0 08       		.byte	0x8
 5430 03d1 BA       		.byte	0xba
 5431 03d2 2C000000 		.4byte	0x2c
 5432 03d6 18       		.byte	0x18
 5433 03d7 06       		.uleb128 0x6
 5434 03d8 C7010000 		.4byte	.LASF61
 5435 03dc 08       		.byte	0x8
 5436 03dd C1       		.byte	0xc1
 5437 03de B5010000 		.4byte	0x1b5
 5438 03e2 1C       		.byte	0x1c
 5439 03e3 06       		.uleb128 0x6
 5440 03e4 D0020000 		.4byte	.LASF62
 5441 03e8 08       		.byte	0x8
 5442 03e9 C3       		.byte	0xc3
 5443 03ea 07060000 		.4byte	0x607
 5444 03ee 20       		.byte	0x20
 5445 03ef 06       		.uleb128 0x6
 5446 03f0 AF040000 		.4byte	.LASF63
 5447 03f4 08       		.byte	0x8
 5448 03f5 C5       		.byte	0xc5
 5449 03f6 36060000 		.4byte	0x636
 5450 03fa 24       		.byte	0x24
 5451 03fb 06       		.uleb128 0x6
 5452 03fc A2060000 		.4byte	.LASF64
 5453 0400 08       		.byte	0x8
 5454 0401 C8       		.byte	0xc8
 5455 0402 5A060000 		.4byte	0x65a
 5456 0406 28       		.byte	0x28
 5457 0407 06       		.uleb128 0x6
 5458 0408 E4070000 		.4byte	.LASF65
 5459 040c 08       		.byte	0x8
ARM GAS  C:\Users\jo\AppData\Local\Temp\ccyP7UZh.s 			page 100


 5460 040d C9       		.byte	0xc9
 5461 040e 74060000 		.4byte	0x674
 5462 0412 2C       		.byte	0x2c
 5463 0413 10       		.uleb128 0x10
 5464 0414 5F756200 		.ascii	"_ub\000"
 5465 0418 08       		.byte	0x8
 5466 0419 CC       		.byte	0xcc
 5467 041a 4F030000 		.4byte	0x34f
 5468 041e 30       		.byte	0x30
 5469 041f 10       		.uleb128 0x10
 5470 0420 5F757000 		.ascii	"_up\000"
 5471 0424 08       		.byte	0x8
 5472 0425 CD       		.byte	0xcd
 5473 0426 74030000 		.4byte	0x374
 5474 042a 38       		.byte	0x38
 5475 042b 10       		.uleb128 0x10
 5476 042c 5F757200 		.ascii	"_ur\000"
 5477 0430 08       		.byte	0x8
 5478 0431 CE       		.byte	0xce
 5479 0432 2C000000 		.4byte	0x2c
 5480 0436 3C       		.byte	0x3c
 5481 0437 06       		.uleb128 0x6
 5482 0438 97010000 		.4byte	.LASF66
 5483 043c 08       		.byte	0x8
 5484 043d D1       		.byte	0xd1
 5485 043e 7A060000 		.4byte	0x67a
 5486 0442 40       		.byte	0x40
 5487 0443 06       		.uleb128 0x6
 5488 0444 AD070000 		.4byte	.LASF67
 5489 0448 08       		.byte	0x8
 5490 0449 D2       		.byte	0xd2
 5491 044a 8A060000 		.4byte	0x68a
 5492 044e 43       		.byte	0x43
 5493 044f 10       		.uleb128 0x10
 5494 0450 5F6C6200 		.ascii	"_lb\000"
 5495 0454 08       		.byte	0x8
 5496 0455 D5       		.byte	0xd5
 5497 0456 4F030000 		.4byte	0x34f
 5498 045a 44       		.byte	0x44
 5499 045b 06       		.uleb128 0x6
 5500 045c 0B020000 		.4byte	.LASF68
 5501 0460 08       		.byte	0x8
 5502 0461 D8       		.byte	0xd8
 5503 0462 2C000000 		.4byte	0x2c
 5504 0466 4C       		.byte	0x4c
 5505 0467 06       		.uleb128 0x6
 5506 0468 2E020000 		.4byte	.LASF69
 5507 046c 08       		.byte	0x8
 5508 046d D9       		.byte	0xd9
 5509 046e 2D010000 		.4byte	0x12d
 5510 0472 50       		.byte	0x50
 5511 0473 06       		.uleb128 0x6
 5512 0474 96000000 		.4byte	.LASF70
 5513 0478 08       		.byte	0x8
 5514 0479 DC       		.byte	0xdc
 5515 047a C2040000 		.4byte	0x4c2
 5516 047e 54       		.byte	0x54
ARM GAS  C:\Users\jo\AppData\Local\Temp\ccyP7UZh.s 			page 101


 5517 047f 06       		.uleb128 0x6
 5518 0480 B3030000 		.4byte	.LASF71
 5519 0484 08       		.byte	0x8
 5520 0485 E0       		.byte	0xe0
 5521 0486 AA010000 		.4byte	0x1aa
 5522 048a 58       		.byte	0x58
 5523 048b 06       		.uleb128 0x6
 5524 048c 14060000 		.4byte	.LASF72
 5525 0490 08       		.byte	0x8
 5526 0491 E2       		.byte	0xe2
 5527 0492 9F010000 		.4byte	0x19f
 5528 0496 5C       		.byte	0x5c
 5529 0497 06       		.uleb128 0x6
 5530 0498 C7030000 		.4byte	.LASF73
 5531 049c 08       		.byte	0x8
 5532 049d E3       		.byte	0xe3
 5533 049e 2C000000 		.4byte	0x2c
 5534 04a2 64       		.byte	0x64
 5535 04a3 00       		.byte	0
 5536 04a4 14       		.uleb128 0x14
 5537 04a5 2C000000 		.4byte	0x2c
 5538 04a9 C2040000 		.4byte	0x4c2
 5539 04ad 15       		.uleb128 0x15
 5540 04ae C2040000 		.4byte	0x4c2
 5541 04b2 15       		.uleb128 0x15
 5542 04b3 B5010000 		.4byte	0x1b5
 5543 04b7 15       		.uleb128 0x15
 5544 04b8 FA050000 		.4byte	0x5fa
 5545 04bc 15       		.uleb128 0x15
 5546 04bd 2C000000 		.4byte	0x2c
 5547 04c1 00       		.byte	0
 5548 04c2 11       		.uleb128 0x11
 5549 04c3 04       		.byte	0x4
 5550 04c4 C8040000 		.4byte	0x4c8
 5551 04c8 16       		.uleb128 0x16
 5552 04c9 85060000 		.4byte	.LASF74
 5553 04cd 2804     		.2byte	0x428
 5554 04cf 08       		.byte	0x8
 5555 04d0 3902     		.2byte	0x239
 5556 04d2 FA050000 		.4byte	0x5fa
 5557 04d6 17       		.uleb128 0x17
 5558 04d7 B6060000 		.4byte	.LASF75
 5559 04db 08       		.byte	0x8
 5560 04dc 3B02     		.2byte	0x23b
 5561 04de 2C000000 		.4byte	0x2c
 5562 04e2 00       		.byte	0
 5563 04e3 17       		.uleb128 0x17
 5564 04e4 F5010000 		.4byte	.LASF76
 5565 04e8 08       		.byte	0x8
 5566 04e9 4002     		.2byte	0x240
 5567 04eb E1060000 		.4byte	0x6e1
 5568 04ef 04       		.byte	0x4
 5569 04f0 17       		.uleb128 0x17
 5570 04f1 07030000 		.4byte	.LASF77
 5571 04f5 08       		.byte	0x8
 5572 04f6 4002     		.2byte	0x240
 5573 04f8 E1060000 		.4byte	0x6e1
ARM GAS  C:\Users\jo\AppData\Local\Temp\ccyP7UZh.s 			page 102


 5574 04fc 08       		.byte	0x8
 5575 04fd 17       		.uleb128 0x17
 5576 04fe A0020000 		.4byte	.LASF78
 5577 0502 08       		.byte	0x8
 5578 0503 4002     		.2byte	0x240
 5579 0505 E1060000 		.4byte	0x6e1
 5580 0509 0C       		.byte	0xc
 5581 050a 17       		.uleb128 0x17
 5582 050b 35060000 		.4byte	.LASF79
 5583 050f 08       		.byte	0x8
 5584 0510 4202     		.2byte	0x242
 5585 0512 2C000000 		.4byte	0x2c
 5586 0516 10       		.byte	0x10
 5587 0517 17       		.uleb128 0x17
 5588 0518 6F000000 		.4byte	.LASF80
 5589 051c 08       		.byte	0x8
 5590 051d 4302     		.2byte	0x243
 5591 051f C3080000 		.4byte	0x8c3
 5592 0523 14       		.byte	0x14
 5593 0524 17       		.uleb128 0x17
 5594 0525 1D070000 		.4byte	.LASF81
 5595 0529 08       		.byte	0x8
 5596 052a 4502     		.2byte	0x245
 5597 052c 2C000000 		.4byte	0x2c
 5598 0530 30       		.byte	0x30
 5599 0531 17       		.uleb128 0x17
 5600 0532 3F060000 		.4byte	.LASF82
 5601 0536 08       		.byte	0x8
 5602 0537 4602     		.2byte	0x246
 5603 0539 2B060000 		.4byte	0x62b
 5604 053d 34       		.byte	0x34
 5605 053e 17       		.uleb128 0x17
 5606 053f 2E050000 		.4byte	.LASF83
 5607 0543 08       		.byte	0x8
 5608 0544 4802     		.2byte	0x248
 5609 0546 2C000000 		.4byte	0x2c
 5610 054a 38       		.byte	0x38
 5611 054b 17       		.uleb128 0x17
 5612 054c 67060000 		.4byte	.LASF84
 5613 0550 08       		.byte	0x8
 5614 0551 4A02     		.2byte	0x24a
 5615 0553 DE080000 		.4byte	0x8de
 5616 0557 3C       		.byte	0x3c
 5617 0558 17       		.uleb128 0x17
 5618 0559 9E030000 		.4byte	.LASF85
 5619 055d 08       		.byte	0x8
 5620 055e 4D02     		.2byte	0x24d
 5621 0560 15020000 		.4byte	0x215
 5622 0564 40       		.byte	0x40
 5623 0565 17       		.uleb128 0x17
 5624 0566 D6020000 		.4byte	.LASF86
 5625 056a 08       		.byte	0x8
 5626 056b 4E02     		.2byte	0x24e
 5627 056d 2C000000 		.4byte	0x2c
 5628 0571 44       		.byte	0x44
 5629 0572 17       		.uleb128 0x17
 5630 0573 11080000 		.4byte	.LASF87
ARM GAS  C:\Users\jo\AppData\Local\Temp\ccyP7UZh.s 			page 103


 5631 0577 08       		.byte	0x8
 5632 0578 4F02     		.2byte	0x24f
 5633 057a 15020000 		.4byte	0x215
 5634 057e 48       		.byte	0x48
 5635 057f 17       		.uleb128 0x17
 5636 0580 7C050000 		.4byte	.LASF88
 5637 0584 08       		.byte	0x8
 5638 0585 5002     		.2byte	0x250
 5639 0587 E4080000 		.4byte	0x8e4
 5640 058b 4C       		.byte	0x4c
 5641 058c 17       		.uleb128 0x17
 5642 058d 0F030000 		.4byte	.LASF89
 5643 0591 08       		.byte	0x8
 5644 0592 5302     		.2byte	0x253
 5645 0594 2C000000 		.4byte	0x2c
 5646 0598 50       		.byte	0x50
 5647 0599 17       		.uleb128 0x17
 5648 059a 26020000 		.4byte	.LASF90
 5649 059e 08       		.byte	0x8
 5650 059f 5402     		.2byte	0x254
 5651 05a1 FA050000 		.4byte	0x5fa
 5652 05a5 54       		.byte	0x54
 5653 05a6 17       		.uleb128 0x17
 5654 05a7 B7050000 		.4byte	.LASF91
 5655 05ab 08       		.byte	0x8
 5656 05ac 7702     		.2byte	0x277
 5657 05ae A1080000 		.4byte	0x8a1
 5658 05b2 58       		.byte	0x58
 5659 05b3 18       		.uleb128 0x18
 5660 05b4 26050000 		.4byte	.LASF51
 5661 05b8 08       		.byte	0x8
 5662 05b9 7B02     		.2byte	0x27b
 5663 05bb 32030000 		.4byte	0x332
 5664 05bf 4801     		.2byte	0x148
 5665 05c1 18       		.uleb128 0x18
 5666 05c2 77030000 		.4byte	.LASF92
 5667 05c6 08       		.byte	0x8
 5668 05c7 7C02     		.2byte	0x27c
 5669 05c9 F4020000 		.4byte	0x2f4
 5670 05cd 4C01     		.2byte	0x14c
 5671 05cf 18       		.uleb128 0x18
 5672 05d0 90070000 		.4byte	.LASF93
 5673 05d4 08       		.byte	0x8
 5674 05d5 8002     		.2byte	0x280
 5675 05d7 F5080000 		.4byte	0x8f5
 5676 05db DC02     		.2byte	0x2dc
 5677 05dd 18       		.uleb128 0x18
 5678 05de CF010000 		.4byte	.LASF94
 5679 05e2 08       		.byte	0x8
 5680 05e3 8502     		.2byte	0x285
 5681 05e5 A6060000 		.4byte	0x6a6
 5682 05e9 E002     		.2byte	0x2e0
 5683 05eb 18       		.uleb128 0x18
 5684 05ec AD010000 		.4byte	.LASF95
 5685 05f0 08       		.byte	0x8
 5686 05f1 8602     		.2byte	0x286
 5687 05f3 01090000 		.4byte	0x901
ARM GAS  C:\Users\jo\AppData\Local\Temp\ccyP7UZh.s 			page 104


 5688 05f7 EC02     		.2byte	0x2ec
 5689 05f9 00       		.byte	0
 5690 05fa 11       		.uleb128 0x11
 5691 05fb 04       		.byte	0x4
 5692 05fc 00060000 		.4byte	0x600
 5693 0600 02       		.uleb128 0x2
 5694 0601 01       		.byte	0x1
 5695 0602 08       		.byte	0x8
 5696 0603 BD060000 		.4byte	.LASF96
 5697 0607 11       		.uleb128 0x11
 5698 0608 04       		.byte	0x4
 5699 0609 A4040000 		.4byte	0x4a4
 5700 060d 14       		.uleb128 0x14
 5701 060e 2C000000 		.4byte	0x2c
 5702 0612 2B060000 		.4byte	0x62b
 5703 0616 15       		.uleb128 0x15
 5704 0617 C2040000 		.4byte	0x4c2
 5705 061b 15       		.uleb128 0x15
 5706 061c B5010000 		.4byte	0x1b5
 5707 0620 15       		.uleb128 0x15
 5708 0621 2B060000 		.4byte	0x62b
 5709 0625 15       		.uleb128 0x15
 5710 0626 2C000000 		.4byte	0x2c
 5711 062a 00       		.byte	0
 5712 062b 11       		.uleb128 0x11
 5713 062c 04       		.byte	0x4
 5714 062d 31060000 		.4byte	0x631
 5715 0631 19       		.uleb128 0x19
 5716 0632 00060000 		.4byte	0x600
 5717 0636 11       		.uleb128 0x11
 5718 0637 04       		.byte	0x4
 5719 0638 0D060000 		.4byte	0x60d
 5720 063c 14       		.uleb128 0x14
 5721 063d 38010000 		.4byte	0x138
 5722 0641 5A060000 		.4byte	0x65a
 5723 0645 15       		.uleb128 0x15
 5724 0646 C2040000 		.4byte	0x4c2
 5725 064a 15       		.uleb128 0x15
 5726 064b B5010000 		.4byte	0x1b5
 5727 064f 15       		.uleb128 0x15
 5728 0650 38010000 		.4byte	0x138
 5729 0654 15       		.uleb128 0x15
 5730 0655 2C000000 		.4byte	0x2c
 5731 0659 00       		.byte	0
 5732 065a 11       		.uleb128 0x11
 5733 065b 04       		.byte	0x4
 5734 065c 3C060000 		.4byte	0x63c
 5735 0660 14       		.uleb128 0x14
 5736 0661 2C000000 		.4byte	0x2c
 5737 0665 74060000 		.4byte	0x674
 5738 0669 15       		.uleb128 0x15
 5739 066a C2040000 		.4byte	0x4c2
 5740 066e 15       		.uleb128 0x15
 5741 066f B5010000 		.4byte	0x1b5
 5742 0673 00       		.byte	0
 5743 0674 11       		.uleb128 0x11
 5744 0675 04       		.byte	0x4
ARM GAS  C:\Users\jo\AppData\Local\Temp\ccyP7UZh.s 			page 105


 5745 0676 60060000 		.4byte	0x660
 5746 067a 08       		.uleb128 0x8
 5747 067b 4C000000 		.4byte	0x4c
 5748 067f 8A060000 		.4byte	0x68a
 5749 0683 09       		.uleb128 0x9
 5750 0684 F0000000 		.4byte	0xf0
 5751 0688 02       		.byte	0x2
 5752 0689 00       		.byte	0
 5753 068a 08       		.uleb128 0x8
 5754 068b 4C000000 		.4byte	0x4c
 5755 068f 9A060000 		.4byte	0x69a
 5756 0693 09       		.uleb128 0x9
 5757 0694 F0000000 		.4byte	0xf0
 5758 0698 00       		.byte	0
 5759 0699 00       		.byte	0
 5760 069a 0A       		.uleb128 0xa
 5761 069b FA050000 		.4byte	.LASF97
 5762 069f 08       		.byte	0x8
 5763 06a0 1D01     		.2byte	0x11d
 5764 06a2 7A030000 		.4byte	0x37a
 5765 06a6 1A       		.uleb128 0x1a
 5766 06a7 72070000 		.4byte	.LASF98
 5767 06ab 0C       		.byte	0xc
 5768 06ac 08       		.byte	0x8
 5769 06ad 2101     		.2byte	0x121
 5770 06af DB060000 		.4byte	0x6db
 5771 06b3 17       		.uleb128 0x17
 5772 06b4 E7060000 		.4byte	.LASF31
 5773 06b8 08       		.byte	0x8
 5774 06b9 2301     		.2byte	0x123
 5775 06bb DB060000 		.4byte	0x6db
 5776 06bf 00       		.byte	0
 5777 06c0 17       		.uleb128 0x17
 5778 06c1 51030000 		.4byte	.LASF99
 5779 06c5 08       		.byte	0x8
 5780 06c6 2401     		.2byte	0x124
 5781 06c8 2C000000 		.4byte	0x2c
 5782 06cc 04       		.byte	0x4
 5783 06cd 17       		.uleb128 0x17
 5784 06ce F4050000 		.4byte	.LASF100
 5785 06d2 08       		.byte	0x8
 5786 06d3 2501     		.2byte	0x125
 5787 06d5 E1060000 		.4byte	0x6e1
 5788 06d9 08       		.byte	0x8
 5789 06da 00       		.byte	0
 5790 06db 11       		.uleb128 0x11
 5791 06dc 04       		.byte	0x4
 5792 06dd A6060000 		.4byte	0x6a6
 5793 06e1 11       		.uleb128 0x11
 5794 06e2 04       		.byte	0x4
 5795 06e3 9A060000 		.4byte	0x69a
 5796 06e7 1A       		.uleb128 0x1a
 5797 06e8 67000000 		.4byte	.LASF101
 5798 06ec 0E       		.byte	0xe
 5799 06ed 08       		.byte	0x8
 5800 06ee 3D01     		.2byte	0x13d
 5801 06f0 1C070000 		.4byte	0x71c
ARM GAS  C:\Users\jo\AppData\Local\Temp\ccyP7UZh.s 			page 106


 5802 06f4 17       		.uleb128 0x17
 5803 06f5 8C060000 		.4byte	.LASF102
 5804 06f9 08       		.byte	0x8
 5805 06fa 3E01     		.2byte	0x13e
 5806 06fc 1C070000 		.4byte	0x71c
 5807 0700 00       		.byte	0
 5808 0701 17       		.uleb128 0x17
 5809 0702 DA060000 		.4byte	.LASF103
 5810 0706 08       		.byte	0x8
 5811 0707 3F01     		.2byte	0x13f
 5812 0709 1C070000 		.4byte	0x71c
 5813 070d 06       		.byte	0x6
 5814 070e 17       		.uleb128 0x17
 5815 070f 03070000 		.4byte	.LASF104
 5816 0713 08       		.byte	0x8
 5817 0714 4001     		.2byte	0x140
 5818 0716 5A000000 		.4byte	0x5a
 5819 071a 0C       		.byte	0xc
 5820 071b 00       		.byte	0
 5821 071c 08       		.uleb128 0x8
 5822 071d 5A000000 		.4byte	0x5a
 5823 0721 2C070000 		.4byte	0x72c
 5824 0725 09       		.uleb128 0x9
 5825 0726 F0000000 		.4byte	0xf0
 5826 072a 02       		.byte	0x2
 5827 072b 00       		.byte	0
 5828 072c 1B       		.uleb128 0x1b
 5829 072d D0       		.byte	0xd0
 5830 072e 08       		.byte	0x8
 5831 072f 5802     		.2byte	0x258
 5832 0731 2D080000 		.4byte	0x82d
 5833 0735 17       		.uleb128 0x17
 5834 0736 36070000 		.4byte	.LASF105
 5835 073a 08       		.byte	0x8
 5836 073b 5A02     		.2byte	0x25a
 5837 073d 33000000 		.4byte	0x33
 5838 0741 00       		.byte	0
 5839 0742 17       		.uleb128 0x17
 5840 0743 ED060000 		.4byte	.LASF106
 5841 0747 08       		.byte	0x8
 5842 0748 5B02     		.2byte	0x25b
 5843 074a FA050000 		.4byte	0x5fa
 5844 074e 04       		.byte	0x4
 5845 074f 17       		.uleb128 0x17
 5846 0750 8C030000 		.4byte	.LASF107
 5847 0754 08       		.byte	0x8
 5848 0755 5C02     		.2byte	0x25c
 5849 0757 2D080000 		.4byte	0x82d
 5850 075b 08       		.byte	0x8
 5851 075c 17       		.uleb128 0x17
 5852 075d D5070000 		.4byte	.LASF108
 5853 0761 08       		.byte	0x8
 5854 0762 5D02     		.2byte	0x25d
 5855 0764 2B020000 		.4byte	0x22b
 5856 0768 24       		.byte	0x24
 5857 0769 17       		.uleb128 0x17
 5858 076a B0020000 		.4byte	.LASF109
ARM GAS  C:\Users\jo\AppData\Local\Temp\ccyP7UZh.s 			page 107


 5859 076e 08       		.byte	0x8
 5860 076f 5E02     		.2byte	0x25e
 5861 0771 2C000000 		.4byte	0x2c
 5862 0775 48       		.byte	0x48
 5863 0776 17       		.uleb128 0x17
 5864 0777 1D060000 		.4byte	.LASF110
 5865 077b 08       		.byte	0x8
 5866 077c 5F02     		.2byte	0x25f
 5867 077e 25000000 		.4byte	0x25
 5868 0782 50       		.byte	0x50
 5869 0783 17       		.uleb128 0x17
 5870 0784 EB070000 		.4byte	.LASF111
 5871 0788 08       		.byte	0x8
 5872 0789 6002     		.2byte	0x260
 5873 078b E7060000 		.4byte	0x6e7
 5874 078f 58       		.byte	0x58
 5875 0790 17       		.uleb128 0x17
 5876 0791 28060000 		.4byte	.LASF112
 5877 0795 08       		.byte	0x8
 5878 0796 6102     		.2byte	0x261
 5879 0798 9F010000 		.4byte	0x19f
 5880 079c 68       		.byte	0x68
 5881 079d 17       		.uleb128 0x17
 5882 079e 03080000 		.4byte	.LASF113
 5883 07a2 08       		.byte	0x8
 5884 07a3 6202     		.2byte	0x262
 5885 07a5 9F010000 		.4byte	0x19f
 5886 07a9 70       		.byte	0x70
 5887 07aa 17       		.uleb128 0x17
 5888 07ab 21010000 		.4byte	.LASF114
 5889 07af 08       		.byte	0x8
 5890 07b0 6302     		.2byte	0x263
 5891 07b2 9F010000 		.4byte	0x19f
 5892 07b6 78       		.byte	0x78
 5893 07b7 17       		.uleb128 0x17
 5894 07b8 86070000 		.4byte	.LASF115
 5895 07bc 08       		.byte	0x8
 5896 07bd 6402     		.2byte	0x264
 5897 07bf 3D080000 		.4byte	0x83d
 5898 07c3 80       		.byte	0x80
 5899 07c4 17       		.uleb128 0x17
 5900 07c5 80030000 		.4byte	.LASF116
 5901 07c9 08       		.byte	0x8
 5902 07ca 6502     		.2byte	0x265
 5903 07cc 4D080000 		.4byte	0x84d
 5904 07d0 88       		.byte	0x88
 5905 07d1 17       		.uleb128 0x17
 5906 07d2 10070000 		.4byte	.LASF117
 5907 07d6 08       		.byte	0x8
 5908 07d7 6602     		.2byte	0x266
 5909 07d9 2C000000 		.4byte	0x2c
 5910 07dd A0       		.byte	0xa0
 5911 07de 17       		.uleb128 0x17
 5912 07df 6F020000 		.4byte	.LASF118
 5913 07e3 08       		.byte	0x8
 5914 07e4 6702     		.2byte	0x267
 5915 07e6 9F010000 		.4byte	0x19f
ARM GAS  C:\Users\jo\AppData\Local\Temp\ccyP7UZh.s 			page 108


 5916 07ea A4       		.byte	0xa4
 5917 07eb 17       		.uleb128 0x17
 5918 07ec FD000000 		.4byte	.LASF119
 5919 07f0 08       		.byte	0x8
 5920 07f1 6802     		.2byte	0x268
 5921 07f3 9F010000 		.4byte	0x19f
 5922 07f7 AC       		.byte	0xac
 5923 07f8 17       		.uleb128 0x17
 5924 07f9 46020000 		.4byte	.LASF120
 5925 07fd 08       		.byte	0x8
 5926 07fe 6902     		.2byte	0x269
 5927 0800 9F010000 		.4byte	0x19f
 5928 0804 B4       		.byte	0xb4
 5929 0805 17       		.uleb128 0x17
 5930 0806 A1000000 		.4byte	.LASF121
 5931 080a 08       		.byte	0x8
 5932 080b 6A02     		.2byte	0x26a
 5933 080d 9F010000 		.4byte	0x19f
 5934 0811 BC       		.byte	0xbc
 5935 0812 17       		.uleb128 0x17
 5936 0813 B0000000 		.4byte	.LASF122
 5937 0817 08       		.byte	0x8
 5938 0818 6B02     		.2byte	0x26b
 5939 081a 9F010000 		.4byte	0x19f
 5940 081e C4       		.byte	0xc4
 5941 081f 17       		.uleb128 0x17
 5942 0820 BC050000 		.4byte	.LASF123
 5943 0824 08       		.byte	0x8
 5944 0825 6C02     		.2byte	0x26c
 5945 0827 2C000000 		.4byte	0x2c
 5946 082b CC       		.byte	0xcc
 5947 082c 00       		.byte	0
 5948 082d 08       		.uleb128 0x8
 5949 082e 00060000 		.4byte	0x600
 5950 0832 3D080000 		.4byte	0x83d
 5951 0836 09       		.uleb128 0x9
 5952 0837 F0000000 		.4byte	0xf0
 5953 083b 19       		.byte	0x19
 5954 083c 00       		.byte	0
 5955 083d 08       		.uleb128 0x8
 5956 083e 00060000 		.4byte	0x600
 5957 0842 4D080000 		.4byte	0x84d
 5958 0846 09       		.uleb128 0x9
 5959 0847 F0000000 		.4byte	0xf0
 5960 084b 07       		.byte	0x7
 5961 084c 00       		.byte	0
 5962 084d 08       		.uleb128 0x8
 5963 084e 00060000 		.4byte	0x600
 5964 0852 5D080000 		.4byte	0x85d
 5965 0856 09       		.uleb128 0x9
 5966 0857 F0000000 		.4byte	0xf0
 5967 085b 17       		.byte	0x17
 5968 085c 00       		.byte	0
 5969 085d 1B       		.uleb128 0x1b
 5970 085e F0       		.byte	0xf0
 5971 085f 08       		.byte	0x8
 5972 0860 7102     		.2byte	0x271
ARM GAS  C:\Users\jo\AppData\Local\Temp\ccyP7UZh.s 			page 109


 5973 0862 81080000 		.4byte	0x881
 5974 0866 17       		.uleb128 0x17
 5975 0867 16050000 		.4byte	.LASF124
 5976 086b 08       		.byte	0x8
 5977 086c 7402     		.2byte	0x274
 5978 086e 81080000 		.4byte	0x881
 5979 0872 00       		.byte	0
 5980 0873 17       		.uleb128 0x17
 5981 0874 7D070000 		.4byte	.LASF125
 5982 0878 08       		.byte	0x8
 5983 0879 7502     		.2byte	0x275
 5984 087b 91080000 		.4byte	0x891
 5985 087f 78       		.byte	0x78
 5986 0880 00       		.byte	0
 5987 0881 08       		.uleb128 0x8
 5988 0882 74030000 		.4byte	0x374
 5989 0886 91080000 		.4byte	0x891
 5990 088a 09       		.uleb128 0x9
 5991 088b F0000000 		.4byte	0xf0
 5992 088f 1D       		.byte	0x1d
 5993 0890 00       		.byte	0
 5994 0891 08       		.uleb128 0x8
 5995 0892 33000000 		.4byte	0x33
 5996 0896 A1080000 		.4byte	0x8a1
 5997 089a 09       		.uleb128 0x9
 5998 089b F0000000 		.4byte	0xf0
 5999 089f 1D       		.byte	0x1d
 6000 08a0 00       		.byte	0
 6001 08a1 1C       		.uleb128 0x1c
 6002 08a2 F0       		.byte	0xf0
 6003 08a3 08       		.byte	0x8
 6004 08a4 5602     		.2byte	0x256
 6005 08a6 C3080000 		.4byte	0x8c3
 6006 08aa 1D       		.uleb128 0x1d
 6007 08ab 85060000 		.4byte	.LASF74
 6008 08af 08       		.byte	0x8
 6009 08b0 6D02     		.2byte	0x26d
 6010 08b2 2C070000 		.4byte	0x72c
 6011 08b6 1D       		.uleb128 0x1d
 6012 08b7 B3070000 		.4byte	.LASF126
 6013 08bb 08       		.byte	0x8
 6014 08bc 7602     		.2byte	0x276
 6015 08be 5D080000 		.4byte	0x85d
 6016 08c2 00       		.byte	0
 6017 08c3 08       		.uleb128 0x8
 6018 08c4 00060000 		.4byte	0x600
 6019 08c8 D3080000 		.4byte	0x8d3
 6020 08cc 09       		.uleb128 0x9
 6021 08cd F0000000 		.4byte	0xf0
 6022 08d1 18       		.byte	0x18
 6023 08d2 00       		.byte	0
 6024 08d3 1E       		.uleb128 0x1e
 6025 08d4 DE080000 		.4byte	0x8de
 6026 08d8 15       		.uleb128 0x15
 6027 08d9 C2040000 		.4byte	0x4c2
 6028 08dd 00       		.byte	0
 6029 08de 11       		.uleb128 0x11
ARM GAS  C:\Users\jo\AppData\Local\Temp\ccyP7UZh.s 			page 110


 6030 08df 04       		.byte	0x4
 6031 08e0 D3080000 		.4byte	0x8d3
 6032 08e4 11       		.uleb128 0x11
 6033 08e5 04       		.byte	0x4
 6034 08e6 15020000 		.4byte	0x215
 6035 08ea 1E       		.uleb128 0x1e
 6036 08eb F5080000 		.4byte	0x8f5
 6037 08ef 15       		.uleb128 0x15
 6038 08f0 2C000000 		.4byte	0x2c
 6039 08f4 00       		.byte	0
 6040 08f5 11       		.uleb128 0x11
 6041 08f6 04       		.byte	0x4
 6042 08f7 FB080000 		.4byte	0x8fb
 6043 08fb 11       		.uleb128 0x11
 6044 08fc 04       		.byte	0x4
 6045 08fd EA080000 		.4byte	0x8ea
 6046 0901 08       		.uleb128 0x8
 6047 0902 9A060000 		.4byte	0x69a
 6048 0906 11090000 		.4byte	0x911
 6049 090a 09       		.uleb128 0x9
 6050 090b F0000000 		.4byte	0xf0
 6051 090f 02       		.byte	0x2
 6052 0910 00       		.byte	0
 6053 0911 04       		.uleb128 0x4
 6054 0912 71060000 		.4byte	.LASF127
 6055 0916 09       		.byte	0x9
 6056 0917 34       		.byte	0x34
 6057 0918 9A060000 		.4byte	0x69a
 6058 091c 11       		.uleb128 0x11
 6059 091d 04       		.byte	0x4
 6060 091e 22090000 		.4byte	0x922
 6061 0922 1F       		.uleb128 0x1f
 6062 0923 20       		.uleb128 0x20
 6063 0924 BF020000 		.4byte	.LASF181
 6064 0928 01       		.byte	0x1
 6065 0929 3C       		.byte	0x3c
 6066 092a 01       		.byte	0x1
 6067 092b 4B090000 		.4byte	0x94b
 6068 092f 21       		.uleb128 0x21
 6069 0930 7600     		.ascii	"v\000"
 6070 0932 01       		.byte	0x1
 6071 0933 3C       		.byte	0x3c
 6072 0934 B5010000 		.4byte	0x1b5
 6073 0938 21       		.uleb128 0x21
 6074 0939 6E00     		.ascii	"n\000"
 6075 093b 01       		.byte	0x1
 6076 093c 3C       		.byte	0x3c
 6077 093d 3A000000 		.4byte	0x3a
 6078 0941 22       		.uleb128 0x22
 6079 0942 7000     		.ascii	"p\000"
 6080 0944 01       		.byte	0x1
 6081 0945 3D       		.byte	0x3d
 6082 0946 4B090000 		.4byte	0x94b
 6083 094a 00       		.byte	0
 6084 094b 11       		.uleb128 0x11
 6085 094c 04       		.byte	0x4
 6086 094d 51090000 		.4byte	0x951
ARM GAS  C:\Users\jo\AppData\Local\Temp\ccyP7UZh.s 			page 111


 6087 0951 23       		.uleb128 0x23
 6088 0952 4C000000 		.4byte	0x4c
 6089 0956 24       		.uleb128 0x24
 6090 0957 B9030000 		.4byte	.LASF132
 6091 095b 01       		.byte	0x1
 6092 095c 0901     		.2byte	0x109
 6093 095e 01       		.byte	0x1
 6094 095f A0090000 		.4byte	0x9a0
 6095 0963 25       		.uleb128 0x25
 6096 0964 63747800 		.ascii	"ctx\000"
 6097 0968 01       		.byte	0x1
 6098 0969 0901     		.2byte	0x109
 6099 096b A0090000 		.4byte	0x9a0
 6100 096f 26       		.uleb128 0x26
 6101 0970 61060000 		.4byte	.LASF128
 6102 0974 01       		.byte	0x1
 6103 0975 0901     		.2byte	0x109
 6104 0977 A6090000 		.4byte	0x9a6
 6105 097b 26       		.uleb128 0x26
 6106 097c 78070000 		.4byte	.LASF129
 6107 0980 01       		.byte	0x1
 6108 0981 0A01     		.2byte	0x10a
 6109 0983 3A000000 		.4byte	0x3a
 6110 0987 27       		.uleb128 0x27
 6111 0988 9D050000 		.4byte	.LASF130
 6112 098c 01       		.byte	0x1
 6113 098d 0C01     		.2byte	0x10c
 6114 098f 3A000000 		.4byte	0x3a
 6115 0993 27       		.uleb128 0x27
 6116 0994 20080000 		.4byte	.LASF131
 6117 0998 01       		.byte	0x1
 6118 0999 0D01     		.2byte	0x10d
 6119 099b 33000000 		.4byte	0x33
 6120 099f 00       		.byte	0
 6121 09a0 11       		.uleb128 0x11
 6122 09a1 04       		.byte	0x4
 6123 09a2 17010000 		.4byte	0x117
 6124 09a6 11       		.uleb128 0x11
 6125 09a7 04       		.byte	0x4
 6126 09a8 AC090000 		.4byte	0x9ac
 6127 09ac 19       		.uleb128 0x19
 6128 09ad 4C000000 		.4byte	0x4c
 6129 09b1 28       		.uleb128 0x28
 6130 09b2 34080000 		.4byte	.LASF133
 6131 09b6 01       		.byte	0x1
 6132 09b7 90       		.byte	0x90
 6133 09b8 01       		.byte	0x1
 6134 09b9 C9090000 		.4byte	0x9c9
 6135 09bd 21       		.uleb128 0x21
 6136 09be 63747800 		.ascii	"ctx\000"
 6137 09c2 01       		.byte	0x1
 6138 09c3 90       		.byte	0x90
 6139 09c4 A0090000 		.4byte	0x9a0
 6140 09c8 00       		.byte	0
 6141 09c9 28       		.uleb128 0x28
 6142 09ca 4F060000 		.4byte	.LASF134
 6143 09ce 01       		.byte	0x1
ARM GAS  C:\Users\jo\AppData\Local\Temp\ccyP7UZh.s 			page 112


 6144 09cf 95       		.byte	0x95
 6145 09d0 01       		.byte	0x1
 6146 09d1 E1090000 		.4byte	0x9e1
 6147 09d5 21       		.uleb128 0x21
 6148 09d6 63747800 		.ascii	"ctx\000"
 6149 09da 01       		.byte	0x1
 6150 09db 95       		.byte	0x95
 6151 09dc A0090000 		.4byte	0x9a0
 6152 09e0 00       		.byte	0
 6153 09e1 24       		.uleb128 0x24
 6154 09e2 F0070000 		.4byte	.LASF135
 6155 09e6 01       		.byte	0x1
 6156 09e7 B301     		.2byte	0x1b3
 6157 09e9 01       		.byte	0x1
 6158 09ea 130A0000 		.4byte	0xa13
 6159 09ee 25       		.uleb128 0x25
 6160 09ef 63747800 		.ascii	"ctx\000"
 6161 09f3 01       		.byte	0x1
 6162 09f4 B301     		.2byte	0x1b3
 6163 09f6 A0090000 		.4byte	0x9a0
 6164 09fa 26       		.uleb128 0x26
 6165 09fb 61060000 		.4byte	.LASF128
 6166 09ff 01       		.byte	0x1
 6167 0a00 B401     		.2byte	0x1b4
 6168 0a02 A6090000 		.4byte	0x9a6
 6169 0a06 26       		.uleb128 0x26
 6170 0a07 78070000 		.4byte	.LASF129
 6171 0a0b 01       		.byte	0x1
 6172 0a0c B401     		.2byte	0x1b4
 6173 0a0e 3A000000 		.4byte	0x3a
 6174 0a12 00       		.byte	0
 6175 0a13 29       		.uleb128 0x29
 6176 0a14 B1090000 		.4byte	0x9b1
 6177 0a18 00000000 		.4byte	.LFB1
 6178 0a1c 0A000000 		.4byte	.LFE1-.LFB1
 6179 0a20 01       		.uleb128 0x1
 6180 0a21 9C       		.byte	0x9c
 6181 0a22 4D0A0000 		.4byte	0xa4d
 6182 0a26 2A       		.uleb128 0x2a
 6183 0a27 BD090000 		.4byte	0x9bd
 6184 0a2b 00000000 		.4byte	.LLST0
 6185 0a2f 2B       		.uleb128 0x2b
 6186 0a30 0A000000 		.4byte	.LVL1
 6187 0a34 C61D0000 		.4byte	0x1dc6
 6188 0a38 2C       		.uleb128 0x2c
 6189 0a39 01       		.uleb128 0x1
 6190 0a3a 52       		.byte	0x52
 6191 0a3b 03       		.uleb128 0x3
 6192 0a3c 0A       		.byte	0xa
 6193 0a3d D801     		.2byte	0x1d8
 6194 0a3f 2C       		.uleb128 0x2c
 6195 0a40 01       		.uleb128 0x1
 6196 0a41 51       		.byte	0x51
 6197 0a42 01       		.uleb128 0x1
 6198 0a43 30       		.byte	0x30
 6199 0a44 2C       		.uleb128 0x2c
 6200 0a45 01       		.uleb128 0x1
ARM GAS  C:\Users\jo\AppData\Local\Temp\ccyP7UZh.s 			page 113


 6201 0a46 50       		.byte	0x50
 6202 0a47 03       		.uleb128 0x3
 6203 0a48 F3       		.byte	0xf3
 6204 0a49 01       		.uleb128 0x1
 6205 0a4a 50       		.byte	0x50
 6206 0a4b 00       		.byte	0
 6207 0a4c 00       		.byte	0
 6208 0a4d 29       		.uleb128 0x29
 6209 0a4e C9090000 		.4byte	0x9c9
 6210 0a52 00000000 		.4byte	.LFB2
 6211 0a56 12000000 		.4byte	.LFE2-.LFB2
 6212 0a5a 01       		.uleb128 0x1
 6213 0a5b 9C       		.byte	0x9c
 6214 0a5c 9B0A0000 		.4byte	0xa9b
 6215 0a60 2A       		.uleb128 0x2a
 6216 0a61 D5090000 		.4byte	0x9d5
 6217 0a65 21000000 		.4byte	.LLST1
 6218 0a69 2D       		.uleb128 0x2d
 6219 0a6a 23090000 		.4byte	0x923
 6220 0a6e 06000000 		.4byte	.LBB62
 6221 0a72 0C000000 		.4byte	.LBE62-.LBB62
 6222 0a76 01       		.byte	0x1
 6223 0a77 9A       		.byte	0x9a
 6224 0a78 2A       		.uleb128 0x2a
 6225 0a79 38090000 		.4byte	0x938
 6226 0a7d 50000000 		.4byte	.LLST2
 6227 0a81 2E       		.uleb128 0x2e
 6228 0a82 2F090000 		.4byte	0x92f
 6229 0a86 2F       		.uleb128 0x2f
 6230 0a87 06000000 		.4byte	.LBB63
 6231 0a8b 0C000000 		.4byte	.LBE63-.LBB63
 6232 0a8f 30       		.uleb128 0x30
 6233 0a90 41090000 		.4byte	0x941
 6234 0a94 66000000 		.4byte	.LLST3
 6235 0a98 00       		.byte	0
 6236 0a99 00       		.byte	0
 6237 0a9a 00       		.byte	0
 6238 0a9b 31       		.uleb128 0x31
 6239 0a9c F9020000 		.4byte	.LASF136
 6240 0aa0 01       		.byte	0x1
 6241 0aa1 A0       		.byte	0xa0
 6242 0aa2 00000000 		.4byte	.LFB3
 6243 0aa6 58010000 		.4byte	.LFE3-.LFB3
 6244 0aaa 01       		.uleb128 0x1
 6245 0aab 9C       		.byte	0x9c
 6246 0aac CD0A0000 		.4byte	0xacd
 6247 0ab0 32       		.uleb128 0x32
 6248 0ab1 63747800 		.ascii	"ctx\000"
 6249 0ab5 01       		.byte	0x1
 6250 0ab6 A0       		.byte	0xa0
 6251 0ab7 A0090000 		.4byte	0x9a0
 6252 0abb 86000000 		.4byte	.LLST4
 6253 0abf 33       		.uleb128 0x33
 6254 0ac0 61000000 		.4byte	.LASF17
 6255 0ac4 01       		.byte	0x1
 6256 0ac5 A0       		.byte	0xa0
 6257 0ac6 2C000000 		.4byte	0x2c
ARM GAS  C:\Users\jo\AppData\Local\Temp\ccyP7UZh.s 			page 114


 6258 0aca 01       		.uleb128 0x1
 6259 0acb 51       		.byte	0x51
 6260 0acc 00       		.byte	0
 6261 0acd 31       		.uleb128 0x31
 6262 0ace BB070000 		.4byte	.LASF137
 6263 0ad2 01       		.byte	0x1
 6264 0ad3 C1       		.byte	0xc1
 6265 0ad4 00000000 		.4byte	.LFB4
 6266 0ad8 940F0000 		.4byte	.LFE4-.LFB4
 6267 0adc 01       		.uleb128 0x1
 6268 0add 9C       		.byte	0x9c
 6269 0ade A10B0000 		.4byte	0xba1
 6270 0ae2 32       		.uleb128 0x32
 6271 0ae3 63747800 		.ascii	"ctx\000"
 6272 0ae7 01       		.byte	0x1
 6273 0ae8 C1       		.byte	0xc1
 6274 0ae9 A0090000 		.4byte	0x9a0
 6275 0aed BA000000 		.4byte	.LLST5
 6276 0af1 34       		.uleb128 0x34
 6277 0af2 58030000 		.4byte	.LASF138
 6278 0af6 01       		.byte	0x1
 6279 0af7 C1       		.byte	0xc1
 6280 0af8 A6090000 		.4byte	0x9a6
 6281 0afc E7000000 		.4byte	.LLST6
 6282 0b00 35       		.uleb128 0x35
 6283 0b01 6900     		.ascii	"i\000"
 6284 0b03 01       		.byte	0x1
 6285 0b04 C3       		.byte	0xc3
 6286 0b05 2C000000 		.4byte	0x2c
 6287 0b09 13010000 		.4byte	.LLST7
 6288 0b0d 36       		.uleb128 0x36
 6289 0b0e B0060000 		.4byte	.LASF139
 6290 0b12 01       		.byte	0x1
 6291 0b13 C4       		.byte	0xc4
 6292 0b14 81000000 		.4byte	0x81
 6293 0b18 84010000 		.4byte	.LLST8
 6294 0b1c 36       		.uleb128 0x36
 6295 0b1d EE050000 		.4byte	.LASF140
 6296 0b21 01       		.byte	0x1
 6297 0b22 C4       		.byte	0xc4
 6298 0b23 81000000 		.4byte	0x81
 6299 0b27 0C020000 		.4byte	.LLST9
 6300 0b2b 37       		.uleb128 0x37
 6301 0b2c 5700     		.ascii	"W\000"
 6302 0b2e 01       		.byte	0x1
 6303 0b2f C4       		.byte	0xc4
 6304 0b30 A10B0000 		.4byte	0xba1
 6305 0b34 03       		.uleb128 0x3
 6306 0b35 91       		.byte	0x91
 6307 0b36 D87A     		.sleb128 -680
 6308 0b38 35       		.uleb128 0x35
 6309 0b39 4100     		.ascii	"A\000"
 6310 0b3b 01       		.byte	0x1
 6311 0b3c C5       		.byte	0xc5
 6312 0b3d 81000000 		.4byte	0x81
 6313 0b41 43060000 		.4byte	.LLST10
 6314 0b45 35       		.uleb128 0x35
ARM GAS  C:\Users\jo\AppData\Local\Temp\ccyP7UZh.s 			page 115


 6315 0b46 4200     		.ascii	"B\000"
 6316 0b48 01       		.byte	0x1
 6317 0b49 C5       		.byte	0xc5
 6318 0b4a 81000000 		.4byte	0x81
 6319 0b4e B9060000 		.4byte	.LLST11
 6320 0b52 35       		.uleb128 0x35
 6321 0b53 4300     		.ascii	"C\000"
 6322 0b55 01       		.byte	0x1
 6323 0b56 C5       		.byte	0xc5
 6324 0b57 81000000 		.4byte	0x81
 6325 0b5b 32070000 		.4byte	.LLST12
 6326 0b5f 35       		.uleb128 0x35
 6327 0b60 4400     		.ascii	"D\000"
 6328 0b62 01       		.byte	0x1
 6329 0b63 C5       		.byte	0xc5
 6330 0b64 81000000 		.4byte	0x81
 6331 0b68 77070000 		.4byte	.LLST13
 6332 0b6c 35       		.uleb128 0x35
 6333 0b6d 4500     		.ascii	"E\000"
 6334 0b6f 01       		.byte	0x1
 6335 0b70 C5       		.byte	0xc5
 6336 0b71 81000000 		.4byte	0x81
 6337 0b75 19080000 		.4byte	.LLST14
 6338 0b79 35       		.uleb128 0x35
 6339 0b7a 4600     		.ascii	"F\000"
 6340 0b7c 01       		.byte	0x1
 6341 0b7d C5       		.byte	0xc5
 6342 0b7e 81000000 		.4byte	0x81
 6343 0b82 84080000 		.4byte	.LLST15
 6344 0b86 35       		.uleb128 0x35
 6345 0b87 4700     		.ascii	"G\000"
 6346 0b89 01       		.byte	0x1
 6347 0b8a C5       		.byte	0xc5
 6348 0b8b 81000000 		.4byte	0x81
 6349 0b8f FD080000 		.4byte	.LLST16
 6350 0b93 35       		.uleb128 0x35
 6351 0b94 4800     		.ascii	"H\000"
 6352 0b96 01       		.byte	0x1
 6353 0b97 C5       		.byte	0xc5
 6354 0b98 81000000 		.4byte	0x81
 6355 0b9c 9F090000 		.4byte	.LLST17
 6356 0ba0 00       		.byte	0
 6357 0ba1 08       		.uleb128 0x8
 6358 0ba2 81000000 		.4byte	0x81
 6359 0ba6 B10B0000 		.4byte	0xbb1
 6360 0baa 09       		.uleb128 0x9
 6361 0bab F0000000 		.4byte	0xf0
 6362 0baf 4F       		.byte	0x4f
 6363 0bb0 00       		.byte	0
 6364 0bb1 29       		.uleb128 0x29
 6365 0bb2 56090000 		.4byte	0x956
 6366 0bb6 00000000 		.4byte	.LFB15
 6367 0bba AC000000 		.4byte	.LFE15-.LFB15
 6368 0bbe 01       		.uleb128 0x1
 6369 0bbf 9C       		.byte	0x9c
 6370 0bc0 550C0000 		.4byte	0xc55
 6371 0bc4 2A       		.uleb128 0x2a
ARM GAS  C:\Users\jo\AppData\Local\Temp\ccyP7UZh.s 			page 116


 6372 0bc5 63090000 		.4byte	0x963
 6373 0bc9 070A0000 		.4byte	.LLST18
 6374 0bcd 2A       		.uleb128 0x2a
 6375 0bce 6F090000 		.4byte	0x96f
 6376 0bd2 490A0000 		.4byte	.LLST19
 6377 0bd6 2A       		.uleb128 0x2a
 6378 0bd7 7B090000 		.4byte	0x97b
 6379 0bdb 880A0000 		.4byte	.LLST20
 6380 0bdf 30       		.uleb128 0x30
 6381 0be0 87090000 		.4byte	0x987
 6382 0be4 EE0A0000 		.4byte	.LLST21
 6383 0be8 30       		.uleb128 0x30
 6384 0be9 93090000 		.4byte	0x993
 6385 0bed 160B0000 		.4byte	.LLST22
 6386 0bf1 38       		.uleb128 0x38
 6387 0bf2 5A000000 		.4byte	.LVL112
 6388 0bf6 E31D0000 		.4byte	0x1de3
 6389 0bfa 160C0000 		.4byte	0xc16
 6390 0bfe 2C       		.uleb128 0x2c
 6391 0bff 01       		.uleb128 0x1
 6392 0c00 52       		.byte	0x52
 6393 0c01 02       		.uleb128 0x2
 6394 0c02 74       		.byte	0x74
 6395 0c03 00       		.sleb128 0
 6396 0c04 2C       		.uleb128 0x2c
 6397 0c05 01       		.uleb128 0x1
 6398 0c06 51       		.byte	0x51
 6399 0c07 02       		.uleb128 0x2
 6400 0c08 79       		.byte	0x79
 6401 0c09 00       		.sleb128 0
 6402 0c0a 2C       		.uleb128 0x2c
 6403 0c0b 01       		.uleb128 0x1
 6404 0c0c 50       		.byte	0x50
 6405 0c0d 07       		.uleb128 0x7
 6406 0c0e 76       		.byte	0x76
 6407 0c0f 00       		.sleb128 0
 6408 0c10 78       		.byte	0x78
 6409 0c11 00       		.sleb128 0
 6410 0c12 22       		.byte	0x22
 6411 0c13 23       		.byte	0x23
 6412 0c14 50       		.uleb128 0x50
 6413 0c15 00       		.byte	0
 6414 0c16 38       		.uleb128 0x38
 6415 0c17 64000000 		.4byte	.LVL113
 6416 0c1b CD0A0000 		.4byte	0xacd
 6417 0c1f 310C0000 		.4byte	0xc31
 6418 0c23 2C       		.uleb128 0x2c
 6419 0c24 01       		.uleb128 0x1
 6420 0c25 51       		.byte	0x51
 6421 0c26 03       		.uleb128 0x3
 6422 0c27 76       		.byte	0x76
 6423 0c28 D000     		.sleb128 80
 6424 0c2a 2C       		.uleb128 0x2c
 6425 0c2b 01       		.uleb128 0x1
 6426 0c2c 50       		.byte	0x50
 6427 0c2d 02       		.uleb128 0x2
 6428 0c2e 76       		.byte	0x76
ARM GAS  C:\Users\jo\AppData\Local\Temp\ccyP7UZh.s 			page 117


 6429 0c2f 00       		.sleb128 0
 6430 0c30 00       		.byte	0
 6431 0c31 38       		.uleb128 0x38
 6432 0c32 7E000000 		.4byte	.LVL119
 6433 0c36 CD0A0000 		.4byte	0xacd
 6434 0c3a 4B0C0000 		.4byte	0xc4b
 6435 0c3e 2C       		.uleb128 0x2c
 6436 0c3f 01       		.uleb128 0x1
 6437 0c40 51       		.byte	0x51
 6438 0c41 02       		.uleb128 0x2
 6439 0c42 74       		.byte	0x74
 6440 0c43 00       		.sleb128 0
 6441 0c44 2C       		.uleb128 0x2c
 6442 0c45 01       		.uleb128 0x1
 6443 0c46 50       		.byte	0x50
 6444 0c47 02       		.uleb128 0x2
 6445 0c48 76       		.byte	0x76
 6446 0c49 00       		.sleb128 0
 6447 0c4a 00       		.byte	0
 6448 0c4b 39       		.uleb128 0x39
 6449 0c4c AC000000 		.4byte	.LVL123
 6450 0c50 E31D0000 		.4byte	0x1de3
 6451 0c54 00       		.byte	0
 6452 0c55 29       		.uleb128 0x29
 6453 0c56 56090000 		.4byte	0x956
 6454 0c5a 00000000 		.4byte	.LFB5
 6455 0c5e 08000000 		.4byte	.LFE5-.LFB5
 6456 0c62 01       		.uleb128 0x1
 6457 0c63 9C       		.byte	0x9c
 6458 0c64 AD0C0000 		.4byte	0xcad
 6459 0c68 2A       		.uleb128 0x2a
 6460 0c69 63090000 		.4byte	0x963
 6461 0c6d 4B0B0000 		.4byte	.LLST23
 6462 0c71 2A       		.uleb128 0x2a
 6463 0c72 6F090000 		.4byte	0x96f
 6464 0c76 770B0000 		.4byte	.LLST24
 6465 0c7a 2A       		.uleb128 0x2a
 6466 0c7b 7B090000 		.4byte	0x97b
 6467 0c7f A30B0000 		.4byte	.LLST25
 6468 0c83 3A       		.uleb128 0x3a
 6469 0c84 87090000 		.4byte	0x987
 6470 0c88 3A       		.uleb128 0x3a
 6471 0c89 93090000 		.4byte	0x993
 6472 0c8d 2B       		.uleb128 0x2b
 6473 0c8e 06000000 		.4byte	.LVL125
 6474 0c92 B10B0000 		.4byte	0xbb1
 6475 0c96 2C       		.uleb128 0x2c
 6476 0c97 01       		.uleb128 0x1
 6477 0c98 52       		.byte	0x52
 6478 0c99 03       		.uleb128 0x3
 6479 0c9a F3       		.byte	0xf3
 6480 0c9b 01       		.uleb128 0x1
 6481 0c9c 52       		.byte	0x52
 6482 0c9d 2C       		.uleb128 0x2c
 6483 0c9e 01       		.uleb128 0x1
 6484 0c9f 51       		.byte	0x51
 6485 0ca0 03       		.uleb128 0x3
ARM GAS  C:\Users\jo\AppData\Local\Temp\ccyP7UZh.s 			page 118


 6486 0ca1 F3       		.byte	0xf3
 6487 0ca2 01       		.uleb128 0x1
 6488 0ca3 51       		.byte	0x51
 6489 0ca4 2C       		.uleb128 0x2c
 6490 0ca5 01       		.uleb128 0x1
 6491 0ca6 50       		.byte	0x50
 6492 0ca7 03       		.uleb128 0x3
 6493 0ca8 F3       		.byte	0xf3
 6494 0ca9 01       		.uleb128 0x1
 6495 0caa 50       		.byte	0x50
 6496 0cab 00       		.byte	0
 6497 0cac 00       		.byte	0
 6498 0cad 3B       		.uleb128 0x3b
 6499 0cae D9050000 		.4byte	.LASF141
 6500 0cb2 01       		.byte	0x1
 6501 0cb3 3D01     		.2byte	0x13d
 6502 0cb5 00000000 		.4byte	.LFB6
 6503 0cb9 58020000 		.4byte	.LFE6-.LFB6
 6504 0cbd 01       		.uleb128 0x1
 6505 0cbe 9C       		.byte	0x9c
 6506 0cbf E70D0000 		.4byte	0xde7
 6507 0cc3 3C       		.uleb128 0x3c
 6508 0cc4 63747800 		.ascii	"ctx\000"
 6509 0cc8 01       		.byte	0x1
 6510 0cc9 3D01     		.2byte	0x13d
 6511 0ccb A0090000 		.4byte	0x9a0
 6512 0ccf CF0B0000 		.4byte	.LLST26
 6513 0cd3 3D       		.uleb128 0x3d
 6514 0cd4 C0040000 		.4byte	.LASF142
 6515 0cd8 01       		.byte	0x1
 6516 0cd9 3D01     		.2byte	0x13d
 6517 0cdb 74030000 		.4byte	0x374
 6518 0cdf FB0B0000 		.4byte	.LLST27
 6519 0ce3 3E       		.uleb128 0x3e
 6520 0ce4 99030000 		.4byte	.LASF143
 6521 0ce8 01       		.byte	0x1
 6522 0ce9 3F01     		.2byte	0x13f
 6523 0ceb 3A000000 		.4byte	0x3a
 6524 0cef 270C0000 		.4byte	.LLST28
 6525 0cf3 3E       		.uleb128 0x3e
 6526 0cf4 25080000 		.4byte	.LASF144
 6527 0cf8 01       		.byte	0x1
 6528 0cf9 3F01     		.2byte	0x13f
 6529 0cfb 3A000000 		.4byte	0x3a
 6530 0cff 4B0C0000 		.4byte	.LLST29
 6531 0d03 3E       		.uleb128 0x3e
 6532 0d04 FC040000 		.4byte	.LASF145
 6533 0d08 01       		.byte	0x1
 6534 0d09 4001     		.2byte	0x140
 6535 0d0b 81000000 		.4byte	0x81
 6536 0d0f 5E0C0000 		.4byte	.LLST30
 6537 0d13 3F       		.uleb128 0x3f
 6538 0d14 6C6F7700 		.ascii	"low\000"
 6539 0d18 01       		.byte	0x1
 6540 0d19 4001     		.2byte	0x140
 6541 0d1b 81000000 		.4byte	0x81
 6542 0d1f 760C0000 		.4byte	.LLST31
ARM GAS  C:\Users\jo\AppData\Local\Temp\ccyP7UZh.s 			page 119


 6543 0d23 40       		.uleb128 0x40
 6544 0d24 58050000 		.4byte	.LASF146
 6545 0d28 01       		.byte	0x1
 6546 0d29 4101     		.2byte	0x141
 6547 0d2b E70D0000 		.4byte	0xde7
 6548 0d2f 02       		.uleb128 0x2
 6549 0d30 91       		.byte	0x91
 6550 0d31 48       		.sleb128 -56
 6551 0d32 41       		.uleb128 0x41
 6552 0d33 56090000 		.4byte	0x956
 6553 0d37 8E000000 		.4byte	.LBB64
 6554 0d3b 00000000 		.4byte	.Ldebug_ranges0+0
 6555 0d3f 01       		.byte	0x1
 6556 0d40 4D01     		.2byte	0x14d
 6557 0d42 8E0D0000 		.4byte	0xd8e
 6558 0d46 2A       		.uleb128 0x2a
 6559 0d47 7B090000 		.4byte	0x97b
 6560 0d4b 4B0C0000 		.4byte	.LLST29
 6561 0d4f 42       		.uleb128 0x42
 6562 0d50 6F090000 		.4byte	0x96f
 6563 0d54 06       		.uleb128 0x6
 6564 0d55 03       		.byte	0x3
 6565 0d56 00000000 		.4byte	sha512_padding
 6566 0d5a 9F       		.byte	0x9f
 6567 0d5b 2A       		.uleb128 0x2a
 6568 0d5c 63090000 		.4byte	0x963
 6569 0d60 8E0C0000 		.4byte	.LLST33
 6570 0d64 43       		.uleb128 0x43
 6571 0d65 00000000 		.4byte	.Ldebug_ranges0+0
 6572 0d69 3A       		.uleb128 0x3a
 6573 0d6a 87090000 		.4byte	0x987
 6574 0d6e 3A       		.uleb128 0x3a
 6575 0d6f 93090000 		.4byte	0x993
 6576 0d73 44       		.uleb128 0x44
 6577 0d74 BA000000 		.4byte	.LVL135
 6578 0d78 B10B0000 		.4byte	0xbb1
 6579 0d7c 2C       		.uleb128 0x2c
 6580 0d7d 01       		.uleb128 0x1
 6581 0d7e 51       		.byte	0x51
 6582 0d7f 05       		.uleb128 0x5
 6583 0d80 03       		.byte	0x3
 6584 0d81 00000000 		.4byte	.LANCHOR1
 6585 0d85 2C       		.uleb128 0x2c
 6586 0d86 01       		.uleb128 0x1
 6587 0d87 50       		.byte	0x50
 6588 0d88 02       		.uleb128 0x2
 6589 0d89 74       		.byte	0x74
 6590 0d8a 00       		.sleb128 0
 6591 0d8b 00       		.byte	0
 6592 0d8c 00       		.byte	0
 6593 0d8d 00       		.byte	0
 6594 0d8e 45       		.uleb128 0x45
 6595 0d8f 56090000 		.4byte	0x956
 6596 0d93 BA000000 		.4byte	.LBB70
 6597 0d97 0A000000 		.4byte	.LBE70-.LBB70
 6598 0d9b 01       		.byte	0x1
 6599 0d9c 4E01     		.2byte	0x14e
ARM GAS  C:\Users\jo\AppData\Local\Temp\ccyP7UZh.s 			page 120


 6600 0d9e 46       		.uleb128 0x46
 6601 0d9f 7B090000 		.4byte	0x97b
 6602 0da3 10       		.byte	0x10
 6603 0da4 2A       		.uleb128 0x2a
 6604 0da5 6F090000 		.4byte	0x96f
 6605 0da9 AF0C0000 		.4byte	.LLST34
 6606 0dad 2A       		.uleb128 0x2a
 6607 0dae 63090000 		.4byte	0x963
 6608 0db2 E90C0000 		.4byte	.LLST35
 6609 0db6 2F       		.uleb128 0x2f
 6610 0db7 BA000000 		.4byte	.LBB71
 6611 0dbb 0A000000 		.4byte	.LBE71-.LBB71
 6612 0dbf 3A       		.uleb128 0x3a
 6613 0dc0 87090000 		.4byte	0x987
 6614 0dc4 3A       		.uleb128 0x3a
 6615 0dc5 93090000 		.4byte	0x993
 6616 0dc9 44       		.uleb128 0x44
 6617 0dca C4000000 		.4byte	.LVL137
 6618 0dce B10B0000 		.4byte	0xbb1
 6619 0dd2 2C       		.uleb128 0x2c
 6620 0dd3 01       		.uleb128 0x1
 6621 0dd4 52       		.byte	0x52
 6622 0dd5 01       		.uleb128 0x1
 6623 0dd6 40       		.byte	0x40
 6624 0dd7 2C       		.uleb128 0x2c
 6625 0dd8 01       		.uleb128 0x1
 6626 0dd9 51       		.byte	0x51
 6627 0dda 02       		.uleb128 0x2
 6628 0ddb 91       		.byte	0x91
 6629 0ddc 48       		.sleb128 -56
 6630 0ddd 2C       		.uleb128 0x2c
 6631 0dde 01       		.uleb128 0x1
 6632 0ddf 50       		.byte	0x50
 6633 0de0 02       		.uleb128 0x2
 6634 0de1 74       		.byte	0x74
 6635 0de2 00       		.sleb128 0
 6636 0de3 00       		.byte	0
 6637 0de4 00       		.byte	0
 6638 0de5 00       		.byte	0
 6639 0de6 00       		.byte	0
 6640 0de7 08       		.uleb128 0x8
 6641 0de8 4C000000 		.4byte	0x4c
 6642 0dec F70D0000 		.4byte	0xdf7
 6643 0df0 09       		.uleb128 0x9
 6644 0df1 F0000000 		.4byte	0xf0
 6645 0df5 0F       		.byte	0xf
 6646 0df6 00       		.byte	0
 6647 0df7 3B       		.uleb128 0x3b
 6648 0df8 A2050000 		.4byte	.LASF147
 6649 0dfc 01       		.byte	0x1
 6650 0dfd 6301     		.2byte	0x163
 6651 0dff 00000000 		.4byte	.LFB7
 6652 0e03 48000000 		.4byte	.LFE7-.LFB7
 6653 0e07 01       		.uleb128 0x1
 6654 0e08 9C       		.byte	0x9c
 6655 0e09 6F0F0000 		.4byte	0xf6f
 6656 0e0d 3D       		.uleb128 0x3d
ARM GAS  C:\Users\jo\AppData\Local\Temp\ccyP7UZh.s 			page 121


 6657 0e0e 61060000 		.4byte	.LASF128
 6658 0e12 01       		.byte	0x1
 6659 0e13 6301     		.2byte	0x163
 6660 0e15 A6090000 		.4byte	0x9a6
 6661 0e19 0A0D0000 		.4byte	.LLST36
 6662 0e1d 3D       		.uleb128 0x3d
 6663 0e1e 78070000 		.4byte	.LASF129
 6664 0e22 01       		.byte	0x1
 6665 0e23 6301     		.2byte	0x163
 6666 0e25 3A000000 		.4byte	0x3a
 6667 0e29 280D0000 		.4byte	.LLST37
 6668 0e2d 3D       		.uleb128 0x3d
 6669 0e2e C0040000 		.4byte	.LASF142
 6670 0e32 01       		.byte	0x1
 6671 0e33 6401     		.2byte	0x164
 6672 0e35 74030000 		.4byte	0x374
 6673 0e39 460D0000 		.4byte	.LLST38
 6674 0e3d 3D       		.uleb128 0x3d
 6675 0e3e 61000000 		.4byte	.LASF17
 6676 0e42 01       		.byte	0x1
 6677 0e43 6401     		.2byte	0x164
 6678 0e45 2C000000 		.4byte	0x2c
 6679 0e49 640D0000 		.4byte	.LLST39
 6680 0e4d 47       		.uleb128 0x47
 6681 0e4e 63747800 		.ascii	"ctx\000"
 6682 0e52 01       		.byte	0x1
 6683 0e53 6601     		.2byte	0x166
 6684 0e55 17010000 		.4byte	0x117
 6685 0e59 03       		.uleb128 0x3
 6686 0e5a 91       		.byte	0x91
 6687 0e5b 907C     		.sleb128 -496
 6688 0e5d 41       		.uleb128 0x41
 6689 0e5e B1090000 		.4byte	0x9b1
 6690 0e62 08000000 		.4byte	.LBB72
 6691 0e66 20000000 		.4byte	.Ldebug_ranges0+0x20
 6692 0e6a 01       		.byte	0x1
 6693 0e6b 6801     		.2byte	0x168
 6694 0e6d 970E0000 		.4byte	0xe97
 6695 0e71 2A       		.uleb128 0x2a
 6696 0e72 BD090000 		.4byte	0x9bd
 6697 0e76 820D0000 		.4byte	.LLST40
 6698 0e7a 44       		.uleb128 0x44
 6699 0e7b 18000000 		.4byte	.LVL144
 6700 0e7f C61D0000 		.4byte	0x1dc6
 6701 0e83 2C       		.uleb128 0x2c
 6702 0e84 01       		.uleb128 0x1
 6703 0e85 52       		.byte	0x52
 6704 0e86 03       		.uleb128 0x3
 6705 0e87 0A       		.byte	0xa
 6706 0e88 D801     		.2byte	0x1d8
 6707 0e8a 2C       		.uleb128 0x2c
 6708 0e8b 01       		.uleb128 0x1
 6709 0e8c 51       		.byte	0x51
 6710 0e8d 01       		.uleb128 0x1
 6711 0e8e 30       		.byte	0x30
 6712 0e8f 2C       		.uleb128 0x2c
 6713 0e90 01       		.uleb128 0x1
ARM GAS  C:\Users\jo\AppData\Local\Temp\ccyP7UZh.s 			page 122


 6714 0e91 50       		.byte	0x50
 6715 0e92 02       		.uleb128 0x2
 6716 0e93 7D       		.byte	0x7d
 6717 0e94 00       		.sleb128 0
 6718 0e95 00       		.byte	0
 6719 0e96 00       		.byte	0
 6720 0e97 41       		.uleb128 0x41
 6721 0e98 56090000 		.4byte	0x956
 6722 0e9c 20000000 		.4byte	.LBB76
 6723 0ea0 38000000 		.4byte	.Ldebug_ranges0+0x38
 6724 0ea4 01       		.byte	0x1
 6725 0ea5 6A01     		.2byte	0x16a
 6726 0ea7 EF0E0000 		.4byte	0xeef
 6727 0eab 42       		.uleb128 0x42
 6728 0eac 7B090000 		.4byte	0x97b
 6729 0eb0 01       		.uleb128 0x1
 6730 0eb1 54       		.byte	0x54
 6731 0eb2 42       		.uleb128 0x42
 6732 0eb3 6F090000 		.4byte	0x96f
 6733 0eb7 01       		.uleb128 0x1
 6734 0eb8 57       		.byte	0x57
 6735 0eb9 2A       		.uleb128 0x2a
 6736 0eba 63090000 		.4byte	0x963
 6737 0ebe AE0D0000 		.4byte	.LLST41
 6738 0ec2 43       		.uleb128 0x43
 6739 0ec3 38000000 		.4byte	.Ldebug_ranges0+0x38
 6740 0ec7 3A       		.uleb128 0x3a
 6741 0ec8 87090000 		.4byte	0x987
 6742 0ecc 3A       		.uleb128 0x3a
 6743 0ecd 93090000 		.4byte	0x993
 6744 0ed1 44       		.uleb128 0x44
 6745 0ed2 46000000 		.4byte	.LVL152
 6746 0ed6 B10B0000 		.4byte	0xbb1
 6747 0eda 2C       		.uleb128 0x2c
 6748 0edb 01       		.uleb128 0x1
 6749 0edc 52       		.byte	0x52
 6750 0edd 02       		.uleb128 0x2
 6751 0ede 74       		.byte	0x74
 6752 0edf 00       		.sleb128 0
 6753 0ee0 2C       		.uleb128 0x2c
 6754 0ee1 01       		.uleb128 0x1
 6755 0ee2 51       		.byte	0x51
 6756 0ee3 02       		.uleb128 0x2
 6757 0ee4 77       		.byte	0x77
 6758 0ee5 00       		.sleb128 0
 6759 0ee6 2C       		.uleb128 0x2c
 6760 0ee7 01       		.uleb128 0x1
 6761 0ee8 50       		.byte	0x50
 6762 0ee9 02       		.uleb128 0x2
 6763 0eea 7D       		.byte	0x7d
 6764 0eeb 00       		.sleb128 0
 6765 0eec 00       		.byte	0
 6766 0eed 00       		.byte	0
 6767 0eee 00       		.byte	0
 6768 0eef 48       		.uleb128 0x48
 6769 0ef0 C9090000 		.4byte	0x9c9
 6770 0ef4 2C000000 		.4byte	.LBB79
ARM GAS  C:\Users\jo\AppData\Local\Temp\ccyP7UZh.s 			page 123


 6771 0ef8 0C000000 		.4byte	.LBE79-.LBB79
 6772 0efc 01       		.byte	0x1
 6773 0efd 6C01     		.2byte	0x16c
 6774 0eff 3E0F0000 		.4byte	0xf3e
 6775 0f03 2A       		.uleb128 0x2a
 6776 0f04 D5090000 		.4byte	0x9d5
 6777 0f08 DA0D0000 		.4byte	.LLST42
 6778 0f0c 2D       		.uleb128 0x2d
 6779 0f0d 23090000 		.4byte	0x923
 6780 0f11 2C000000 		.4byte	.LBB80
 6781 0f15 0C000000 		.4byte	.LBE80-.LBB80
 6782 0f19 01       		.byte	0x1
 6783 0f1a 9A       		.byte	0x9a
 6784 0f1b 2A       		.uleb128 0x2a
 6785 0f1c 38090000 		.4byte	0x938
 6786 0f20 FB0D0000 		.4byte	.LLST43
 6787 0f24 2E       		.uleb128 0x2e
 6788 0f25 2F090000 		.4byte	0x92f
 6789 0f29 2F       		.uleb128 0x2f
 6790 0f2a 2C000000 		.4byte	.LBB81
 6791 0f2e 0C000000 		.4byte	.LBE81-.LBB81
 6792 0f32 30       		.uleb128 0x30
 6793 0f33 41090000 		.4byte	0x941
 6794 0f37 470E0000 		.4byte	.LLST44
 6795 0f3b 00       		.byte	0
 6796 0f3c 00       		.byte	0
 6797 0f3d 00       		.byte	0
 6798 0f3e 38       		.uleb128 0x38
 6799 0f3f 20000000 		.4byte	.LVL145
 6800 0f43 9B0A0000 		.4byte	0xa9b
 6801 0f47 580F0000 		.4byte	0xf58
 6802 0f4b 2C       		.uleb128 0x2c
 6803 0f4c 01       		.uleb128 0x1
 6804 0f4d 51       		.byte	0x51
 6805 0f4e 02       		.uleb128 0x2
 6806 0f4f 76       		.byte	0x76
 6807 0f50 00       		.sleb128 0
 6808 0f51 2C       		.uleb128 0x2c
 6809 0f52 01       		.uleb128 0x1
 6810 0f53 50       		.byte	0x50
 6811 0f54 02       		.uleb128 0x2
 6812 0f55 7D       		.byte	0x7d
 6813 0f56 00       		.sleb128 0
 6814 0f57 00       		.byte	0
 6815 0f58 44       		.uleb128 0x44
 6816 0f59 2A000000 		.4byte	.LVL146
 6817 0f5d AD0C0000 		.4byte	0xcad
 6818 0f61 2C       		.uleb128 0x2c
 6819 0f62 01       		.uleb128 0x1
 6820 0f63 51       		.byte	0x51
 6821 0f64 02       		.uleb128 0x2
 6822 0f65 75       		.byte	0x75
 6823 0f66 00       		.sleb128 0
 6824 0f67 2C       		.uleb128 0x2c
 6825 0f68 01       		.uleb128 0x1
 6826 0f69 50       		.byte	0x50
 6827 0f6a 02       		.uleb128 0x2
ARM GAS  C:\Users\jo\AppData\Local\Temp\ccyP7UZh.s 			page 124


 6828 0f6b 7D       		.byte	0x7d
 6829 0f6c 00       		.sleb128 0
 6830 0f6d 00       		.byte	0
 6831 0f6e 00       		.byte	0
 6832 0f6f 49       		.uleb128 0x49
 6833 0f70 6A050000 		.4byte	.LASF156
 6834 0f74 01       		.byte	0x1
 6835 0f75 7301     		.2byte	0x173
 6836 0f77 2C000000 		.4byte	0x2c
 6837 0f7b 00000000 		.4byte	.LFB8
 6838 0f7f 88000000 		.4byte	.LFE8-.LFB8
 6839 0f83 01       		.uleb128 0x1
 6840 0f84 9C       		.byte	0x9c
 6841 0f85 70110000 		.4byte	0x1170
 6842 0f89 3D       		.uleb128 0x3d
 6843 0f8a 9C000000 		.4byte	.LASF148
 6844 0f8e 01       		.byte	0x1
 6845 0f8f 7301     		.2byte	0x173
 6846 0f91 2B060000 		.4byte	0x62b
 6847 0f95 720E0000 		.4byte	.LLST45
 6848 0f99 3D       		.uleb128 0x3d
 6849 0f9a C0040000 		.4byte	.LASF142
 6850 0f9e 01       		.byte	0x1
 6851 0f9f 7301     		.2byte	0x173
 6852 0fa1 74030000 		.4byte	0x374
 6853 0fa5 930E0000 		.4byte	.LLST46
 6854 0fa9 3D       		.uleb128 0x3d
 6855 0faa 61000000 		.4byte	.LASF17
 6856 0fae 01       		.byte	0x1
 6857 0faf 7301     		.2byte	0x173
 6858 0fb1 2C000000 		.4byte	0x2c
 6859 0fb5 B10E0000 		.4byte	.LLST47
 6860 0fb9 3F       		.uleb128 0x3f
 6861 0fba 6600     		.ascii	"f\000"
 6862 0fbc 01       		.byte	0x1
 6863 0fbd 7501     		.2byte	0x175
 6864 0fbf 70110000 		.4byte	0x1170
 6865 0fc3 E80E0000 		.4byte	.LLST48
 6866 0fc7 3F       		.uleb128 0x3f
 6867 0fc8 6E00     		.ascii	"n\000"
 6868 0fca 01       		.byte	0x1
 6869 0fcb 7601     		.2byte	0x176
 6870 0fcd 3A000000 		.4byte	0x3a
 6871 0fd1 480F0000 		.4byte	.LLST49
 6872 0fd5 47       		.uleb128 0x47
 6873 0fd6 63747800 		.ascii	"ctx\000"
 6874 0fda 01       		.byte	0x1
 6875 0fdb 7701     		.2byte	0x177
 6876 0fdd 17010000 		.4byte	0x117
 6877 0fe1 03       		.uleb128 0x3
 6878 0fe2 91       		.byte	0x91
 6879 0fe3 9074     		.sleb128 -1520
 6880 0fe5 47       		.uleb128 0x47
 6881 0fe6 62756600 		.ascii	"buf\000"
 6882 0fea 01       		.byte	0x1
 6883 0feb 7801     		.2byte	0x178
 6884 0fed 76110000 		.4byte	0x1176
ARM GAS  C:\Users\jo\AppData\Local\Temp\ccyP7UZh.s 			page 125


 6885 0ff1 03       		.uleb128 0x3
 6886 0ff2 91       		.byte	0x91
 6887 0ff3 E877     		.sleb128 -1048
 6888 0ff5 48       		.uleb128 0x48
 6889 0ff6 B1090000 		.4byte	0x9b1
 6890 0ffa 14000000 		.4byte	.LBB83
 6891 0ffe 0C000000 		.4byte	.LBE83-.LBB83
 6892 1002 01       		.byte	0x1
 6893 1003 7D01     		.2byte	0x17d
 6894 1005 2F100000 		.4byte	0x102f
 6895 1009 2A       		.uleb128 0x2a
 6896 100a BD090000 		.4byte	0x9bd
 6897 100e 9D0F0000 		.4byte	.LLST50
 6898 1012 44       		.uleb128 0x44
 6899 1013 20000000 		.4byte	.LVL158
 6900 1017 C61D0000 		.4byte	0x1dc6
 6901 101b 2C       		.uleb128 0x2c
 6902 101c 01       		.uleb128 0x1
 6903 101d 52       		.byte	0x52
 6904 101e 03       		.uleb128 0x3
 6905 101f 0A       		.byte	0xa
 6906 1020 D801     		.2byte	0x1d8
 6907 1022 2C       		.uleb128 0x2c
 6908 1023 01       		.uleb128 0x1
 6909 1024 51       		.byte	0x51
 6910 1025 01       		.uleb128 0x1
 6911 1026 30       		.byte	0x30
 6912 1027 2C       		.uleb128 0x2c
 6913 1028 01       		.uleb128 0x1
 6914 1029 50       		.byte	0x50
 6915 102a 02       		.uleb128 0x2
 6916 102b 7D       		.byte	0x7d
 6917 102c 00       		.sleb128 0
 6918 102d 00       		.byte	0
 6919 102e 00       		.byte	0
 6920 102f 41       		.uleb128 0x41
 6921 1030 56090000 		.4byte	0x956
 6922 1034 38000000 		.4byte	.LBB85
 6923 1038 50000000 		.4byte	.Ldebug_ranges0+0x50
 6924 103c 01       		.byte	0x1
 6925 103d 8101     		.2byte	0x181
 6926 103f 8B100000 		.4byte	0x108b
 6927 1043 2A       		.uleb128 0x2a
 6928 1044 7B090000 		.4byte	0x97b
 6929 1048 BB0F0000 		.4byte	.LLST51
 6930 104c 2A       		.uleb128 0x2a
 6931 104d 6F090000 		.4byte	0x96f
 6932 1051 10100000 		.4byte	.LLST52
 6933 1055 2A       		.uleb128 0x2a
 6934 1056 63090000 		.4byte	0x963
 6935 105a 5A100000 		.4byte	.LLST53
 6936 105e 43       		.uleb128 0x43
 6937 105f 50000000 		.4byte	.Ldebug_ranges0+0x50
 6938 1063 3A       		.uleb128 0x3a
 6939 1064 87090000 		.4byte	0x987
 6940 1068 3A       		.uleb128 0x3a
 6941 1069 93090000 		.4byte	0x993
ARM GAS  C:\Users\jo\AppData\Local\Temp\ccyP7UZh.s 			page 126


 6942 106d 44       		.uleb128 0x44
 6943 106e 46000000 		.4byte	.LVL165
 6944 1072 B10B0000 		.4byte	0xbb1
 6945 1076 2C       		.uleb128 0x2c
 6946 1077 01       		.uleb128 0x1
 6947 1078 52       		.byte	0x52
 6948 1079 02       		.uleb128 0x2
 6949 107a 74       		.byte	0x74
 6950 107b 00       		.sleb128 0
 6951 107c 2C       		.uleb128 0x2c
 6952 107d 01       		.uleb128 0x1
 6953 107e 51       		.byte	0x51
 6954 107f 02       		.uleb128 0x2
 6955 1080 75       		.byte	0x75
 6956 1081 00       		.sleb128 0
 6957 1082 2C       		.uleb128 0x2c
 6958 1083 01       		.uleb128 0x1
 6959 1084 50       		.byte	0x50
 6960 1085 02       		.uleb128 0x2
 6961 1086 7D       		.byte	0x7d
 6962 1087 00       		.sleb128 0
 6963 1088 00       		.byte	0
 6964 1089 00       		.byte	0
 6965 108a 00       		.byte	0
 6966 108b 48       		.uleb128 0x48
 6967 108c C9090000 		.4byte	0x9c9
 6968 1090 52000000 		.4byte	.LBB91
 6969 1094 0A000000 		.4byte	.LBE91-.LBB91
 6970 1098 01       		.byte	0x1
 6971 1099 8401     		.2byte	0x184
 6972 109b DA100000 		.4byte	0x10da
 6973 109f 2A       		.uleb128 0x2a
 6974 10a0 D5090000 		.4byte	0x9d5
 6975 10a4 78100000 		.4byte	.LLST54
 6976 10a8 2D       		.uleb128 0x2d
 6977 10a9 23090000 		.4byte	0x923
 6978 10ad 52000000 		.4byte	.LBB92
 6979 10b1 0A000000 		.4byte	.LBE92-.LBB92
 6980 10b5 01       		.byte	0x1
 6981 10b6 9A       		.byte	0x9a
 6982 10b7 2A       		.uleb128 0x2a
 6983 10b8 38090000 		.4byte	0x938
 6984 10bc 96100000 		.4byte	.LLST55
 6985 10c0 2E       		.uleb128 0x2e
 6986 10c1 2F090000 		.4byte	0x92f
 6987 10c5 2F       		.uleb128 0x2f
 6988 10c6 52000000 		.4byte	.LBB93
 6989 10ca 0A000000 		.4byte	.LBE93-.LBB93
 6990 10ce 30       		.uleb128 0x30
 6991 10cf 41090000 		.4byte	0x941
 6992 10d3 FC100000 		.4byte	.LLST56
 6993 10d7 00       		.byte	0
 6994 10d8 00       		.byte	0
 6995 10d9 00       		.byte	0
 6996 10da 38       		.uleb128 0x38
 6997 10db 10000000 		.4byte	.LVL155
 6998 10df 001E0000 		.4byte	0x1e00
ARM GAS  C:\Users\jo\AppData\Local\Temp\ccyP7UZh.s 			page 127


 6999 10e3 F8100000 		.4byte	0x10f8
 7000 10e7 2C       		.uleb128 0x2c
 7001 10e8 01       		.uleb128 0x1
 7002 10e9 51       		.byte	0x51
 7003 10ea 05       		.uleb128 0x5
 7004 10eb 03       		.byte	0x3
 7005 10ec 00000000 		.4byte	.LC0
 7006 10f0 2C       		.uleb128 0x2c
 7007 10f1 01       		.uleb128 0x1
 7008 10f2 50       		.byte	0x50
 7009 10f3 03       		.uleb128 0x3
 7010 10f4 F3       		.byte	0xf3
 7011 10f5 01       		.uleb128 0x1
 7012 10f6 50       		.byte	0x50
 7013 10f7 00       		.byte	0
 7014 10f8 38       		.uleb128 0x38
 7015 10f9 28000000 		.4byte	.LVL159
 7016 10fd 9B0A0000 		.4byte	0xa9b
 7017 1101 12110000 		.4byte	0x1112
 7018 1105 2C       		.uleb128 0x2c
 7019 1106 01       		.uleb128 0x1
 7020 1107 51       		.byte	0x51
 7021 1108 02       		.uleb128 0x2
 7022 1109 74       		.byte	0x74
 7023 110a 00       		.sleb128 0
 7024 110b 2C       		.uleb128 0x2c
 7025 110c 01       		.uleb128 0x1
 7026 110d 50       		.byte	0x50
 7027 110e 02       		.uleb128 0x2
 7028 110f 7D       		.byte	0x7d
 7029 1110 00       		.sleb128 0
 7030 1111 00       		.byte	0
 7031 1112 38       		.uleb128 0x38
 7032 1113 38000000 		.4byte	.LVL161
 7033 1117 1A1E0000 		.4byte	0x1e1a
 7034 111b 38110000 		.4byte	0x1138
 7035 111f 2C       		.uleb128 0x2c
 7036 1120 01       		.uleb128 0x1
 7037 1121 53       		.byte	0x53
 7038 1122 02       		.uleb128 0x2
 7039 1123 76       		.byte	0x76
 7040 1124 00       		.sleb128 0
 7041 1125 2C       		.uleb128 0x2c
 7042 1126 01       		.uleb128 0x1
 7043 1127 52       		.byte	0x52
 7044 1128 03       		.uleb128 0x3
 7045 1129 0A       		.byte	0xa
 7046 112a 0004     		.2byte	0x400
 7047 112c 2C       		.uleb128 0x2c
 7048 112d 01       		.uleb128 0x1
 7049 112e 51       		.byte	0x51
 7050 112f 01       		.uleb128 0x1
 7051 1130 31       		.byte	0x31
 7052 1131 2C       		.uleb128 0x2c
 7053 1132 01       		.uleb128 0x1
 7054 1133 50       		.byte	0x50
 7055 1134 02       		.uleb128 0x2
ARM GAS  C:\Users\jo\AppData\Local\Temp\ccyP7UZh.s 			page 128


 7056 1135 75       		.byte	0x75
 7057 1136 00       		.sleb128 0
 7058 1137 00       		.byte	0
 7059 1138 38       		.uleb128 0x38
 7060 1139 50000000 		.4byte	.LVL169
 7061 113d AD0C0000 		.4byte	0xcad
 7062 1141 52110000 		.4byte	0x1152
 7063 1145 2C       		.uleb128 0x2c
 7064 1146 01       		.uleb128 0x1
 7065 1147 51       		.byte	0x51
 7066 1148 02       		.uleb128 0x2
 7067 1149 77       		.byte	0x77
 7068 114a 00       		.sleb128 0
 7069 114b 2C       		.uleb128 0x2c
 7070 114c 01       		.uleb128 0x1
 7071 114d 50       		.byte	0x50
 7072 114e 02       		.uleb128 0x2
 7073 114f 7D       		.byte	0x7d
 7074 1150 00       		.sleb128 0
 7075 1151 00       		.byte	0
 7076 1152 38       		.uleb128 0x38
 7077 1153 6C000000 		.4byte	.LVL175
 7078 1157 3E1E0000 		.4byte	0x1e3e
 7079 115b 66110000 		.4byte	0x1166
 7080 115f 2C       		.uleb128 0x2c
 7081 1160 01       		.uleb128 0x1
 7082 1161 50       		.byte	0x50
 7083 1162 02       		.uleb128 0x2
 7084 1163 76       		.byte	0x76
 7085 1164 00       		.sleb128 0
 7086 1165 00       		.byte	0
 7087 1166 4A       		.uleb128 0x4a
 7088 1167 78000000 		.4byte	.LVL178
 7089 116b 3E1E0000 		.4byte	0x1e3e
 7090 116f 00       		.byte	0
 7091 1170 11       		.uleb128 0x11
 7092 1171 04       		.byte	0x4
 7093 1172 11090000 		.4byte	0x911
 7094 1176 08       		.uleb128 0x8
 7095 1177 4C000000 		.4byte	0x4c
 7096 117b 87110000 		.4byte	0x1187
 7097 117f 4B       		.uleb128 0x4b
 7098 1180 F0000000 		.4byte	0xf0
 7099 1184 FF03     		.2byte	0x3ff
 7100 1186 00       		.byte	0
 7101 1187 3B       		.uleb128 0x3b
 7102 1188 40080000 		.4byte	.LASF149
 7103 118c 01       		.byte	0x1
 7104 118d 9401     		.2byte	0x194
 7105 118f 00000000 		.4byte	.LFB9
 7106 1193 C0000000 		.4byte	.LFE9-.LFB9
 7107 1197 01       		.uleb128 0x1
 7108 1198 9C       		.byte	0x9c
 7109 1199 48130000 		.4byte	0x1348
 7110 119d 3C       		.uleb128 0x3c
 7111 119e 63747800 		.ascii	"ctx\000"
 7112 11a2 01       		.byte	0x1
ARM GAS  C:\Users\jo\AppData\Local\Temp\ccyP7UZh.s 			page 129


 7113 11a3 9401     		.2byte	0x194
 7114 11a5 A0090000 		.4byte	0x9a0
 7115 11a9 32110000 		.4byte	.LLST57
 7116 11ad 3C       		.uleb128 0x3c
 7117 11ae 6B657900 		.ascii	"key\000"
 7118 11b2 01       		.byte	0x1
 7119 11b3 9401     		.2byte	0x194
 7120 11b5 A6090000 		.4byte	0x9a6
 7121 11b9 66110000 		.4byte	.LLST58
 7122 11bd 3D       		.uleb128 0x3d
 7123 11be 76060000 		.4byte	.LASF150
 7124 11c2 01       		.byte	0x1
 7125 11c3 9501     		.2byte	0x195
 7126 11c5 3A000000 		.4byte	0x3a
 7127 11c9 A5110000 		.4byte	.LLST59
 7128 11cd 3D       		.uleb128 0x3d
 7129 11ce 61000000 		.4byte	.LASF17
 7130 11d2 01       		.byte	0x1
 7131 11d3 9501     		.2byte	0x195
 7132 11d5 2C000000 		.4byte	0x2c
 7133 11d9 F2110000 		.4byte	.LLST60
 7134 11dd 3F       		.uleb128 0x3f
 7135 11de 6900     		.ascii	"i\000"
 7136 11e0 01       		.byte	0x1
 7137 11e1 9701     		.2byte	0x197
 7138 11e3 3A000000 		.4byte	0x3a
 7139 11e7 26120000 		.4byte	.LLST61
 7140 11eb 47       		.uleb128 0x47
 7141 11ec 73756D00 		.ascii	"sum\000"
 7142 11f0 01       		.byte	0x1
 7143 11f1 9801     		.2byte	0x198
 7144 11f3 48130000 		.4byte	0x1348
 7145 11f7 03       		.uleb128 0x3
 7146 11f8 91       		.byte	0x91
 7147 11f9 A07F     		.sleb128 -96
 7148 11fb 48       		.uleb128 0x48
 7149 11fc 56090000 		.4byte	0x956
 7150 1200 6A000000 		.4byte	.LBB94
 7151 1204 0A000000 		.4byte	.LBE94-.LBB94
 7152 1208 01       		.byte	0x1
 7153 1209 AB01     		.2byte	0x1ab
 7154 120b 5B120000 		.4byte	0x125b
 7155 120f 2A       		.uleb128 0x2a
 7156 1210 7B090000 		.4byte	0x97b
 7157 1214 51120000 		.4byte	.LLST62
 7158 1218 2A       		.uleb128 0x2a
 7159 1219 6F090000 		.4byte	0x96f
 7160 121d 66120000 		.4byte	.LLST63
 7161 1221 2A       		.uleb128 0x2a
 7162 1222 63090000 		.4byte	0x963
 7163 1226 79120000 		.4byte	.LLST64
 7164 122a 2F       		.uleb128 0x2f
 7165 122b 6A000000 		.4byte	.LBB95
 7166 122f 0A000000 		.4byte	.LBE95-.LBB95
 7167 1233 3A       		.uleb128 0x3a
 7168 1234 87090000 		.4byte	0x987
 7169 1238 3A       		.uleb128 0x3a
ARM GAS  C:\Users\jo\AppData\Local\Temp\ccyP7UZh.s 			page 130


 7170 1239 93090000 		.4byte	0x993
 7171 123d 44       		.uleb128 0x44
 7172 123e 74000000 		.4byte	.LVL191
 7173 1242 B10B0000 		.4byte	0xbb1
 7174 1246 2C       		.uleb128 0x2c
 7175 1247 01       		.uleb128 0x1
 7176 1248 52       		.byte	0x52
 7177 1249 02       		.uleb128 0x2
 7178 124a 08       		.byte	0x8
 7179 124b 80       		.byte	0x80
 7180 124c 2C       		.uleb128 0x2c
 7181 124d 01       		.uleb128 0x1
 7182 124e 51       		.byte	0x51
 7183 124f 02       		.uleb128 0x2
 7184 1250 77       		.byte	0x77
 7185 1251 00       		.sleb128 0
 7186 1252 2C       		.uleb128 0x2c
 7187 1253 01       		.uleb128 0x1
 7188 1254 50       		.byte	0x50
 7189 1255 02       		.uleb128 0x2
 7190 1256 76       		.byte	0x76
 7191 1257 00       		.sleb128 0
 7192 1258 00       		.byte	0
 7193 1259 00       		.byte	0
 7194 125a 00       		.byte	0
 7195 125b 48       		.uleb128 0x48
 7196 125c 23090000 		.4byte	0x923
 7197 1260 74000000 		.4byte	.LBB96
 7198 1264 0C000000 		.4byte	.LBE96-.LBB96
 7199 1268 01       		.byte	0x1
 7200 1269 AD01     		.2byte	0x1ad
 7201 126b 91120000 		.4byte	0x1291
 7202 126f 2A       		.uleb128 0x2a
 7203 1270 38090000 		.4byte	0x938
 7204 1274 8C120000 		.4byte	.LLST65
 7205 1278 2E       		.uleb128 0x2e
 7206 1279 2F090000 		.4byte	0x92f
 7207 127d 2F       		.uleb128 0x2f
 7208 127e 74000000 		.4byte	.LBB97
 7209 1282 0C000000 		.4byte	.LBE97-.LBB97
 7210 1286 30       		.uleb128 0x30
 7211 1287 41090000 		.4byte	0x941
 7212 128b DA120000 		.4byte	.LLST66
 7213 128f 00       		.byte	0
 7214 1290 00       		.byte	0
 7215 1291 38       		.uleb128 0x38
 7216 1292 24000000 		.4byte	.LVL185
 7217 1296 531E0000 		.4byte	0x1e53
 7218 129a B1120000 		.4byte	0x12b1
 7219 129e 2C       		.uleb128 0x2c
 7220 129f 01       		.uleb128 0x1
 7221 12a0 52       		.byte	0x52
 7222 12a1 02       		.uleb128 0x2
 7223 12a2 08       		.byte	0x8
 7224 12a3 80       		.byte	0x80
 7225 12a4 2C       		.uleb128 0x2c
 7226 12a5 01       		.uleb128 0x1
ARM GAS  C:\Users\jo\AppData\Local\Temp\ccyP7UZh.s 			page 131


 7227 12a6 51       		.byte	0x51
 7228 12a7 02       		.uleb128 0x2
 7229 12a8 08       		.byte	0x8
 7230 12a9 36       		.byte	0x36
 7231 12aa 2C       		.uleb128 0x2c
 7232 12ab 01       		.uleb128 0x1
 7233 12ac 50       		.byte	0x50
 7234 12ad 02       		.uleb128 0x2
 7235 12ae 77       		.byte	0x77
 7236 12af 00       		.sleb128 0
 7237 12b0 00       		.byte	0
 7238 12b1 38       		.uleb128 0x38
 7239 12b2 2E000000 		.4byte	.LVL186
 7240 12b6 531E0000 		.4byte	0x1e53
 7241 12ba D1120000 		.4byte	0x12d1
 7242 12be 2C       		.uleb128 0x2c
 7243 12bf 01       		.uleb128 0x1
 7244 12c0 52       		.byte	0x52
 7245 12c1 02       		.uleb128 0x2
 7246 12c2 08       		.byte	0x8
 7247 12c3 80       		.byte	0x80
 7248 12c4 2C       		.uleb128 0x2c
 7249 12c5 01       		.uleb128 0x1
 7250 12c6 51       		.byte	0x51
 7251 12c7 02       		.uleb128 0x2
 7252 12c8 08       		.byte	0x8
 7253 12c9 5C       		.byte	0x5c
 7254 12ca 2C       		.uleb128 0x2c
 7255 12cb 01       		.uleb128 0x1
 7256 12cc 50       		.byte	0x50
 7257 12cd 02       		.uleb128 0x2
 7258 12ce 79       		.byte	0x79
 7259 12cf 00       		.sleb128 0
 7260 12d0 00       		.byte	0
 7261 12d1 38       		.uleb128 0x38
 7262 12d2 6A000000 		.4byte	.LVL190
 7263 12d6 9B0A0000 		.4byte	0xa9b
 7264 12da EB120000 		.4byte	0x12eb
 7265 12de 2C       		.uleb128 0x2c
 7266 12df 01       		.uleb128 0x1
 7267 12e0 51       		.byte	0x51
 7268 12e1 02       		.uleb128 0x2
 7269 12e2 78       		.byte	0x78
 7270 12e3 00       		.sleb128 0
 7271 12e4 2C       		.uleb128 0x2c
 7272 12e5 01       		.uleb128 0x1
 7273 12e6 50       		.byte	0x50
 7274 12e7 02       		.uleb128 0x2
 7275 12e8 76       		.byte	0x76
 7276 12e9 00       		.sleb128 0
 7277 12ea 00       		.byte	0
 7278 12eb 38       		.uleb128 0x38
 7279 12ec 94000000 		.4byte	.LVL199
 7280 12f0 F70D0000 		.4byte	0xdf7
 7281 12f4 0B130000 		.4byte	0x130b
 7282 12f8 2C       		.uleb128 0x2c
 7283 12f9 01       		.uleb128 0x1
ARM GAS  C:\Users\jo\AppData\Local\Temp\ccyP7UZh.s 			page 132


 7284 12fa 52       		.byte	0x52
 7285 12fb 02       		.uleb128 0x2
 7286 12fc 7D       		.byte	0x7d
 7287 12fd 00       		.sleb128 0
 7288 12fe 2C       		.uleb128 0x2c
 7289 12ff 01       		.uleb128 0x1
 7290 1300 51       		.byte	0x51
 7291 1301 02       		.uleb128 0x2
 7292 1302 75       		.byte	0x75
 7293 1303 00       		.sleb128 0
 7294 1304 2C       		.uleb128 0x2c
 7295 1305 01       		.uleb128 0x1
 7296 1306 50       		.byte	0x50
 7297 1307 02       		.uleb128 0x2
 7298 1308 7A       		.byte	0x7a
 7299 1309 00       		.sleb128 0
 7300 130a 00       		.byte	0
 7301 130b 38       		.uleb128 0x38
 7302 130c B0000000 		.4byte	.LVL202
 7303 1310 531E0000 		.4byte	0x1e53
 7304 1314 2B130000 		.4byte	0x132b
 7305 1318 2C       		.uleb128 0x2c
 7306 1319 01       		.uleb128 0x1
 7307 131a 52       		.byte	0x52
 7308 131b 02       		.uleb128 0x2
 7309 131c 08       		.byte	0x8
 7310 131d 80       		.byte	0x80
 7311 131e 2C       		.uleb128 0x2c
 7312 131f 01       		.uleb128 0x1
 7313 1320 51       		.byte	0x51
 7314 1321 02       		.uleb128 0x2
 7315 1322 08       		.byte	0x8
 7316 1323 36       		.byte	0x36
 7317 1324 2C       		.uleb128 0x2c
 7318 1325 01       		.uleb128 0x1
 7319 1326 50       		.byte	0x50
 7320 1327 02       		.uleb128 0x2
 7321 1328 77       		.byte	0x77
 7322 1329 00       		.sleb128 0
 7323 132a 00       		.byte	0
 7324 132b 44       		.uleb128 0x44
 7325 132c BC000000 		.4byte	.LVL203
 7326 1330 531E0000 		.4byte	0x1e53
 7327 1334 2C       		.uleb128 0x2c
 7328 1335 01       		.uleb128 0x1
 7329 1336 52       		.byte	0x52
 7330 1337 02       		.uleb128 0x2
 7331 1338 08       		.byte	0x8
 7332 1339 80       		.byte	0x80
 7333 133a 2C       		.uleb128 0x2c
 7334 133b 01       		.uleb128 0x1
 7335 133c 51       		.byte	0x51
 7336 133d 02       		.uleb128 0x2
 7337 133e 08       		.byte	0x8
 7338 133f 5C       		.byte	0x5c
 7339 1340 2C       		.uleb128 0x2c
 7340 1341 01       		.uleb128 0x1
ARM GAS  C:\Users\jo\AppData\Local\Temp\ccyP7UZh.s 			page 133


 7341 1342 50       		.byte	0x50
 7342 1343 02       		.uleb128 0x2
 7343 1344 79       		.byte	0x79
 7344 1345 00       		.sleb128 0
 7345 1346 00       		.byte	0
 7346 1347 00       		.byte	0
 7347 1348 08       		.uleb128 0x8
 7348 1349 4C000000 		.4byte	0x4c
 7349 134d 58130000 		.4byte	0x1358
 7350 1351 09       		.uleb128 0x9
 7351 1352 F0000000 		.4byte	0xf0
 7352 1356 3F       		.byte	0x3f
 7353 1357 00       		.byte	0
 7354 1358 29       		.uleb128 0x29
 7355 1359 E1090000 		.4byte	0x9e1
 7356 135d 00000000 		.4byte	.LFB10
 7357 1361 08000000 		.4byte	.LFE10-.LFB10
 7358 1365 01       		.uleb128 0x1
 7359 1366 9C       		.byte	0x9c
 7360 1367 D0130000 		.4byte	0x13d0
 7361 136b 2A       		.uleb128 0x2a
 7362 136c EE090000 		.4byte	0x9ee
 7363 1370 05130000 		.4byte	.LLST67
 7364 1374 2A       		.uleb128 0x2a
 7365 1375 FA090000 		.4byte	0x9fa
 7366 1379 26130000 		.4byte	.LLST68
 7367 137d 2A       		.uleb128 0x2a
 7368 137e 060A0000 		.4byte	0xa06
 7369 1382 47130000 		.4byte	.LLST69
 7370 1386 45       		.uleb128 0x45
 7371 1387 56090000 		.4byte	0x956
 7372 138b 00000000 		.4byte	.LBB98
 7373 138f 08000000 		.4byte	.LBE98-.LBB98
 7374 1393 01       		.byte	0x1
 7375 1394 B601     		.2byte	0x1b6
 7376 1396 2A       		.uleb128 0x2a
 7377 1397 7B090000 		.4byte	0x97b
 7378 139b 47130000 		.4byte	.LLST69
 7379 139f 2A       		.uleb128 0x2a
 7380 13a0 6F090000 		.4byte	0x96f
 7381 13a4 26130000 		.4byte	.LLST68
 7382 13a8 2A       		.uleb128 0x2a
 7383 13a9 63090000 		.4byte	0x963
 7384 13ad 05130000 		.4byte	.LLST67
 7385 13b1 2F       		.uleb128 0x2f
 7386 13b2 00000000 		.4byte	.LBB99
 7387 13b6 08000000 		.4byte	.LBE99-.LBB99
 7388 13ba 3A       		.uleb128 0x3a
 7389 13bb 87090000 		.4byte	0x987
 7390 13bf 3A       		.uleb128 0x3a
 7391 13c0 93090000 		.4byte	0x993
 7392 13c4 39       		.uleb128 0x39
 7393 13c5 08000000 		.4byte	.LVL205
 7394 13c9 B10B0000 		.4byte	0xbb1
 7395 13cd 00       		.byte	0
 7396 13ce 00       		.byte	0
 7397 13cf 00       		.byte	0
ARM GAS  C:\Users\jo\AppData\Local\Temp\ccyP7UZh.s 			page 134


 7398 13d0 3B       		.uleb128 0x3b
 7399 13d1 9A070000 		.4byte	.LASF151
 7400 13d5 01       		.byte	0x1
 7401 13d6 BC01     		.2byte	0x1bc
 7402 13d8 00000000 		.4byte	.LFB11
 7403 13dc 52000000 		.4byte	.LFE11-.LFB11
 7404 13e0 01       		.uleb128 0x1
 7405 13e1 9C       		.byte	0x9c
 7406 13e2 6D150000 		.4byte	0x156d
 7407 13e6 3C       		.uleb128 0x3c
 7408 13e7 63747800 		.ascii	"ctx\000"
 7409 13eb 01       		.byte	0x1
 7410 13ec BC01     		.2byte	0x1bc
 7411 13ee A0090000 		.4byte	0x9a0
 7412 13f2 68130000 		.4byte	.LLST73
 7413 13f6 3D       		.uleb128 0x3d
 7414 13f7 C0040000 		.4byte	.LASF142
 7415 13fb 01       		.byte	0x1
 7416 13fc BC01     		.2byte	0x1bc
 7417 13fe 74030000 		.4byte	0x374
 7418 1402 86130000 		.4byte	.LLST74
 7419 1406 40       		.uleb128 0x40
 7420 1407 61000000 		.4byte	.LASF17
 7421 140b 01       		.byte	0x1
 7422 140c BE01     		.2byte	0x1be
 7423 140e 2C000000 		.4byte	0x2c
 7424 1412 01       		.uleb128 0x1
 7425 1413 55       		.byte	0x55
 7426 1414 27       		.uleb128 0x27
 7427 1415 1B000000 		.4byte	.LASF152
 7428 1419 01       		.byte	0x1
 7429 141a BE01     		.2byte	0x1be
 7430 141c 2C000000 		.4byte	0x2c
 7431 1420 40       		.uleb128 0x40
 7432 1421 C0010000 		.4byte	.LASF153
 7433 1425 01       		.byte	0x1
 7434 1426 BF01     		.2byte	0x1bf
 7435 1428 48130000 		.4byte	0x1348
 7436 142c 03       		.uleb128 0x3
 7437 142d 91       		.byte	0x91
 7438 142e A87F     		.sleb128 -88
 7439 1430 48       		.uleb128 0x48
 7440 1431 56090000 		.4byte	0x956
 7441 1435 22000000 		.4byte	.LBB100
 7442 1439 0C000000 		.4byte	.LBE100-.LBB100
 7443 143d 01       		.byte	0x1
 7444 143e C601     		.2byte	0x1c6
 7445 1440 8C140000 		.4byte	0x148c
 7446 1444 46       		.uleb128 0x46
 7447 1445 7B090000 		.4byte	0x97b
 7448 1449 80       		.byte	0x80
 7449 144a 2A       		.uleb128 0x2a
 7450 144b 6F090000 		.4byte	0x96f
 7451 144f A4130000 		.4byte	.LLST75
 7452 1453 42       		.uleb128 0x42
 7453 1454 63090000 		.4byte	0x963
 7454 1458 01       		.uleb128 0x1
ARM GAS  C:\Users\jo\AppData\Local\Temp\ccyP7UZh.s 			page 135


 7455 1459 54       		.byte	0x54
 7456 145a 2F       		.uleb128 0x2f
 7457 145b 22000000 		.4byte	.LBB101
 7458 145f 0C000000 		.4byte	.LBE101-.LBB101
 7459 1463 3A       		.uleb128 0x3a
 7460 1464 87090000 		.4byte	0x987
 7461 1468 3A       		.uleb128 0x3a
 7462 1469 93090000 		.4byte	0x993
 7463 146d 44       		.uleb128 0x44
 7464 146e 2E000000 		.4byte	.LVL212
 7465 1472 B10B0000 		.4byte	0xbb1
 7466 1476 2C       		.uleb128 0x2c
 7467 1477 01       		.uleb128 0x1
 7468 1478 52       		.byte	0x52
 7469 1479 02       		.uleb128 0x2
 7470 147a 08       		.byte	0x8
 7471 147b 80       		.byte	0x80
 7472 147c 2C       		.uleb128 0x2c
 7473 147d 01       		.uleb128 0x1
 7474 147e 51       		.byte	0x51
 7475 147f 03       		.uleb128 0x3
 7476 1480 74       		.byte	0x74
 7477 1481 D002     		.sleb128 336
 7478 1483 2C       		.uleb128 0x2c
 7479 1484 01       		.uleb128 0x1
 7480 1485 50       		.byte	0x50
 7481 1486 02       		.uleb128 0x2
 7482 1487 74       		.byte	0x74
 7483 1488 00       		.sleb128 0
 7484 1489 00       		.byte	0
 7485 148a 00       		.byte	0
 7486 148b 00       		.byte	0
 7487 148c 48       		.uleb128 0x48
 7488 148d 56090000 		.4byte	0x956
 7489 1491 2E000000 		.4byte	.LBB102
 7490 1495 0A000000 		.4byte	.LBE102-.LBB102
 7491 1499 01       		.byte	0x1
 7492 149a C701     		.2byte	0x1c7
 7493 149c E8140000 		.4byte	0x14e8
 7494 14a0 42       		.uleb128 0x42
 7495 14a1 7B090000 		.4byte	0x97b
 7496 14a5 01       		.uleb128 0x1
 7497 14a6 57       		.byte	0x57
 7498 14a7 2A       		.uleb128 0x2a
 7499 14a8 6F090000 		.4byte	0x96f
 7500 14ac D3130000 		.4byte	.LLST76
 7501 14b0 42       		.uleb128 0x42
 7502 14b1 63090000 		.4byte	0x963
 7503 14b5 01       		.uleb128 0x1
 7504 14b6 54       		.byte	0x54
 7505 14b7 2F       		.uleb128 0x2f
 7506 14b8 2E000000 		.4byte	.LBB103
 7507 14bc 0A000000 		.4byte	.LBE103-.LBB103
 7508 14c0 3A       		.uleb128 0x3a
 7509 14c1 87090000 		.4byte	0x987
 7510 14c5 3A       		.uleb128 0x3a
 7511 14c6 93090000 		.4byte	0x993
ARM GAS  C:\Users\jo\AppData\Local\Temp\ccyP7UZh.s 			page 136


 7512 14ca 44       		.uleb128 0x44
 7513 14cb 38000000 		.4byte	.LVL213
 7514 14cf B10B0000 		.4byte	0xbb1
 7515 14d3 2C       		.uleb128 0x2c
 7516 14d4 01       		.uleb128 0x1
 7517 14d5 52       		.byte	0x52
 7518 14d6 02       		.uleb128 0x2
 7519 14d7 77       		.byte	0x77
 7520 14d8 00       		.sleb128 0
 7521 14d9 2C       		.uleb128 0x2c
 7522 14da 01       		.uleb128 0x1
 7523 14db 51       		.byte	0x51
 7524 14dc 02       		.uleb128 0x2
 7525 14dd 7D       		.byte	0x7d
 7526 14de 00       		.sleb128 0
 7527 14df 2C       		.uleb128 0x2c
 7528 14e0 01       		.uleb128 0x1
 7529 14e1 50       		.byte	0x50
 7530 14e2 02       		.uleb128 0x2
 7531 14e3 74       		.byte	0x74
 7532 14e4 00       		.sleb128 0
 7533 14e5 00       		.byte	0
 7534 14e6 00       		.byte	0
 7535 14e7 00       		.byte	0
 7536 14e8 48       		.uleb128 0x48
 7537 14e9 23090000 		.4byte	0x923
 7538 14ed 40000000 		.4byte	.LBB104
 7539 14f1 0E000000 		.4byte	.LBE104-.LBB104
 7540 14f5 01       		.byte	0x1
 7541 14f6 CA01     		.2byte	0x1ca
 7542 14f8 22150000 		.4byte	0x1522
 7543 14fc 2A       		.uleb128 0x2a
 7544 14fd 38090000 		.4byte	0x938
 7545 1501 F4130000 		.4byte	.LLST77
 7546 1505 2A       		.uleb128 0x2a
 7547 1506 2F090000 		.4byte	0x92f
 7548 150a 3F140000 		.4byte	.LLST78
 7549 150e 2F       		.uleb128 0x2f
 7550 150f 40000000 		.4byte	.LBB105
 7551 1513 0E000000 		.4byte	.LBE105-.LBB105
 7552 1517 30       		.uleb128 0x30
 7553 1518 41090000 		.4byte	0x941
 7554 151c 60140000 		.4byte	.LLST79
 7555 1520 00       		.byte	0
 7556 1521 00       		.byte	0
 7557 1522 38       		.uleb128 0x38
 7558 1523 1A000000 		.4byte	.LVL209
 7559 1527 AD0C0000 		.4byte	0xcad
 7560 152b 3C150000 		.4byte	0x153c
 7561 152f 2C       		.uleb128 0x2c
 7562 1530 01       		.uleb128 0x1
 7563 1531 51       		.byte	0x51
 7564 1532 02       		.uleb128 0x2
 7565 1533 7D       		.byte	0x7d
 7566 1534 00       		.sleb128 0
 7567 1535 2C       		.uleb128 0x2c
 7568 1536 01       		.uleb128 0x1
ARM GAS  C:\Users\jo\AppData\Local\Temp\ccyP7UZh.s 			page 137


 7569 1537 50       		.byte	0x50
 7570 1538 02       		.uleb128 0x2
 7571 1539 74       		.byte	0x74
 7572 153a 00       		.sleb128 0
 7573 153b 00       		.byte	0
 7574 153c 38       		.uleb128 0x38
 7575 153d 22000000 		.4byte	.LVL210
 7576 1541 9B0A0000 		.4byte	0xa9b
 7577 1545 56150000 		.4byte	0x1556
 7578 1549 2C       		.uleb128 0x2c
 7579 154a 01       		.uleb128 0x1
 7580 154b 51       		.byte	0x51
 7581 154c 02       		.uleb128 0x2
 7582 154d 75       		.byte	0x75
 7583 154e 00       		.sleb128 0
 7584 154f 2C       		.uleb128 0x2c
 7585 1550 01       		.uleb128 0x1
 7586 1551 50       		.byte	0x50
 7587 1552 02       		.uleb128 0x2
 7588 1553 74       		.byte	0x74
 7589 1554 00       		.sleb128 0
 7590 1555 00       		.byte	0
 7591 1556 44       		.uleb128 0x44
 7592 1557 40000000 		.4byte	.LVL214
 7593 155b AD0C0000 		.4byte	0xcad
 7594 155f 2C       		.uleb128 0x2c
 7595 1560 01       		.uleb128 0x1
 7596 1561 51       		.byte	0x51
 7597 1562 02       		.uleb128 0x2
 7598 1563 76       		.byte	0x76
 7599 1564 00       		.sleb128 0
 7600 1565 2C       		.uleb128 0x2c
 7601 1566 01       		.uleb128 0x1
 7602 1567 50       		.byte	0x50
 7603 1568 02       		.uleb128 0x2
 7604 1569 74       		.byte	0x74
 7605 156a 00       		.sleb128 0
 7606 156b 00       		.byte	0
 7607 156c 00       		.byte	0
 7608 156d 3B       		.uleb128 0x3b
 7609 156e 48070000 		.4byte	.LASF154
 7610 1572 01       		.byte	0x1
 7611 1573 D001     		.2byte	0x1d0
 7612 1575 00000000 		.4byte	.LFB12
 7613 1579 1C000000 		.4byte	.LFE12-.LFB12
 7614 157d 01       		.uleb128 0x1
 7615 157e 9C       		.byte	0x9c
 7616 157f 02160000 		.4byte	0x1602
 7617 1583 3C       		.uleb128 0x3c
 7618 1584 63747800 		.ascii	"ctx\000"
 7619 1588 01       		.byte	0x1
 7620 1589 D001     		.2byte	0x1d0
 7621 158b A0090000 		.4byte	0x9a0
 7622 158f 8B140000 		.4byte	.LLST80
 7623 1593 41       		.uleb128 0x41
 7624 1594 56090000 		.4byte	0x956
 7625 1598 0C000000 		.4byte	.LBB106
ARM GAS  C:\Users\jo\AppData\Local\Temp\ccyP7UZh.s 			page 138


 7626 159c 70000000 		.4byte	.Ldebug_ranges0+0x70
 7627 15a0 01       		.byte	0x1
 7628 15a1 D301     		.2byte	0x1d3
 7629 15a3 F1150000 		.4byte	0x15f1
 7630 15a7 46       		.uleb128 0x46
 7631 15a8 7B090000 		.4byte	0x97b
 7632 15ac 80       		.byte	0x80
 7633 15ad 2A       		.uleb128 0x2a
 7634 15ae 6F090000 		.4byte	0x96f
 7635 15b2 C2140000 		.4byte	.LLST81
 7636 15b6 2A       		.uleb128 0x2a
 7637 15b7 63090000 		.4byte	0x963
 7638 15bb F4140000 		.4byte	.LLST82
 7639 15bf 43       		.uleb128 0x43
 7640 15c0 70000000 		.4byte	.Ldebug_ranges0+0x70
 7641 15c4 3A       		.uleb128 0x3a
 7642 15c5 87090000 		.4byte	0x987
 7643 15c9 3A       		.uleb128 0x3a
 7644 15ca 93090000 		.4byte	0x993
 7645 15ce 2B       		.uleb128 0x2b
 7646 15cf 1C000000 		.4byte	.LVL223
 7647 15d3 B10B0000 		.4byte	0xbb1
 7648 15d7 2C       		.uleb128 0x2c
 7649 15d8 01       		.uleb128 0x1
 7650 15d9 52       		.byte	0x52
 7651 15da 02       		.uleb128 0x2
 7652 15db 08       		.byte	0x8
 7653 15dc 80       		.byte	0x80
 7654 15dd 2C       		.uleb128 0x2c
 7655 15de 01       		.uleb128 0x1
 7656 15df 51       		.byte	0x51
 7657 15e0 06       		.uleb128 0x6
 7658 15e1 F3       		.byte	0xf3
 7659 15e2 01       		.uleb128 0x1
 7660 15e3 50       		.byte	0x50
 7661 15e4 23       		.byte	0x23
 7662 15e5 D001     		.uleb128 0xd0
 7663 15e7 2C       		.uleb128 0x2c
 7664 15e8 01       		.uleb128 0x1
 7665 15e9 50       		.byte	0x50
 7666 15ea 03       		.uleb128 0x3
 7667 15eb F3       		.byte	0xf3
 7668 15ec 01       		.uleb128 0x1
 7669 15ed 50       		.byte	0x50
 7670 15ee 00       		.byte	0
 7671 15ef 00       		.byte	0
 7672 15f0 00       		.byte	0
 7673 15f1 44       		.uleb128 0x44
 7674 15f2 0C000000 		.4byte	.LVL220
 7675 15f6 9B0A0000 		.4byte	0xa9b
 7676 15fa 2C       		.uleb128 0x2c
 7677 15fb 01       		.uleb128 0x1
 7678 15fc 50       		.byte	0x50
 7679 15fd 02       		.uleb128 0x2
 7680 15fe 74       		.byte	0x74
 7681 15ff 00       		.sleb128 0
 7682 1600 00       		.byte	0
ARM GAS  C:\Users\jo\AppData\Local\Temp\ccyP7UZh.s 			page 139


 7683 1601 00       		.byte	0
 7684 1602 3B       		.uleb128 0x3b
 7685 1603 C7040000 		.4byte	.LASF155
 7686 1607 01       		.byte	0x1
 7687 1608 D901     		.2byte	0x1d9
 7688 160a 00000000 		.4byte	.LFB13
 7689 160e 4C000000 		.4byte	.LFE13-.LFB13
 7690 1612 01       		.uleb128 0x1
 7691 1613 9C       		.byte	0x9c
 7692 1614 D0170000 		.4byte	0x17d0
 7693 1618 3C       		.uleb128 0x3c
 7694 1619 6B657900 		.ascii	"key\000"
 7695 161d 01       		.byte	0x1
 7696 161e D901     		.2byte	0x1d9
 7697 1620 A6090000 		.4byte	0x9a6
 7698 1624 20150000 		.4byte	.LLST83
 7699 1628 3D       		.uleb128 0x3d
 7700 1629 76060000 		.4byte	.LASF150
 7701 162d 01       		.byte	0x1
 7702 162e D901     		.2byte	0x1d9
 7703 1630 3A000000 		.4byte	0x3a
 7704 1634 3E150000 		.4byte	.LLST84
 7705 1638 3D       		.uleb128 0x3d
 7706 1639 61060000 		.4byte	.LASF128
 7707 163d 01       		.byte	0x1
 7708 163e DA01     		.2byte	0x1da
 7709 1640 A6090000 		.4byte	0x9a6
 7710 1644 5C150000 		.4byte	.LLST85
 7711 1648 3D       		.uleb128 0x3d
 7712 1649 78070000 		.4byte	.LASF129
 7713 164d 01       		.byte	0x1
 7714 164e DA01     		.2byte	0x1da
 7715 1650 3A000000 		.4byte	0x3a
 7716 1654 7A150000 		.4byte	.LLST86
 7717 1658 3D       		.uleb128 0x3d
 7718 1659 C0040000 		.4byte	.LASF142
 7719 165d 01       		.byte	0x1
 7720 165e DB01     		.2byte	0x1db
 7721 1660 74030000 		.4byte	0x374
 7722 1664 98150000 		.4byte	.LLST87
 7723 1668 3D       		.uleb128 0x3d
 7724 1669 61000000 		.4byte	.LASF17
 7725 166d 01       		.byte	0x1
 7726 166e DB01     		.2byte	0x1db
 7727 1670 2C000000 		.4byte	0x2c
 7728 1674 B8150000 		.4byte	.LLST88
 7729 1678 47       		.uleb128 0x47
 7730 1679 63747800 		.ascii	"ctx\000"
 7731 167d 01       		.byte	0x1
 7732 167e DD01     		.2byte	0x1dd
 7733 1680 17010000 		.4byte	0x117
 7734 1684 03       		.uleb128 0x3
 7735 1685 91       		.byte	0x91
 7736 1686 907C     		.sleb128 -496
 7737 1688 41       		.uleb128 0x41
 7738 1689 B1090000 		.4byte	0x9b1
 7739 168d 0A000000 		.4byte	.LBB110
ARM GAS  C:\Users\jo\AppData\Local\Temp\ccyP7UZh.s 			page 140


 7740 1691 88000000 		.4byte	.Ldebug_ranges0+0x88
 7741 1695 01       		.byte	0x1
 7742 1696 DF01     		.2byte	0x1df
 7743 1698 C2160000 		.4byte	0x16c2
 7744 169c 2A       		.uleb128 0x2a
 7745 169d BD090000 		.4byte	0x9bd
 7746 16a1 D8150000 		.4byte	.LLST89
 7747 16a5 44       		.uleb128 0x44
 7748 16a6 18000000 		.4byte	.LVL229
 7749 16aa C61D0000 		.4byte	0x1dc6
 7750 16ae 2C       		.uleb128 0x2c
 7751 16af 01       		.uleb128 0x1
 7752 16b0 52       		.byte	0x52
 7753 16b1 03       		.uleb128 0x3
 7754 16b2 0A       		.byte	0xa
 7755 16b3 D801     		.2byte	0x1d8
 7756 16b5 2C       		.uleb128 0x2c
 7757 16b6 01       		.uleb128 0x1
 7758 16b7 51       		.byte	0x51
 7759 16b8 01       		.uleb128 0x1
 7760 16b9 30       		.byte	0x30
 7761 16ba 2C       		.uleb128 0x2c
 7762 16bb 01       		.uleb128 0x1
 7763 16bc 50       		.byte	0x50
 7764 16bd 02       		.uleb128 0x2
 7765 16be 7D       		.byte	0x7d
 7766 16bf 00       		.sleb128 0
 7767 16c0 00       		.byte	0
 7768 16c1 00       		.byte	0
 7769 16c2 41       		.uleb128 0x41
 7770 16c3 E1090000 		.4byte	0x9e1
 7771 16c7 24000000 		.4byte	.LBB114
 7772 16cb A0000000 		.4byte	.Ldebug_ranges0+0xa0
 7773 16cf 01       		.byte	0x1
 7774 16d0 E101     		.2byte	0x1e1
 7775 16d2 42170000 		.4byte	0x1742
 7776 16d6 42       		.uleb128 0x42
 7777 16d7 060A0000 		.4byte	0xa06
 7778 16db 01       		.uleb128 0x1
 7779 16dc 54       		.byte	0x54
 7780 16dd 42       		.uleb128 0x42
 7781 16de FA090000 		.4byte	0x9fa
 7782 16e2 01       		.uleb128 0x1
 7783 16e3 57       		.byte	0x57
 7784 16e4 2A       		.uleb128 0x2a
 7785 16e5 EE090000 		.4byte	0x9ee
 7786 16e9 04160000 		.4byte	.LLST90
 7787 16ed 4C       		.uleb128 0x4c
 7788 16ee 56090000 		.4byte	0x956
 7789 16f2 24000000 		.4byte	.LBB115
 7790 16f6 A0000000 		.4byte	.Ldebug_ranges0+0xa0
 7791 16fa 01       		.byte	0x1
 7792 16fb B601     		.2byte	0x1b6
 7793 16fd 42       		.uleb128 0x42
 7794 16fe 7B090000 		.4byte	0x97b
 7795 1702 01       		.uleb128 0x1
 7796 1703 54       		.byte	0x54
ARM GAS  C:\Users\jo\AppData\Local\Temp\ccyP7UZh.s 			page 141


 7797 1704 42       		.uleb128 0x42
 7798 1705 6F090000 		.4byte	0x96f
 7799 1709 01       		.uleb128 0x1
 7800 170a 57       		.byte	0x57
 7801 170b 2A       		.uleb128 0x2a
 7802 170c 63090000 		.4byte	0x963
 7803 1710 04160000 		.4byte	.LLST90
 7804 1714 43       		.uleb128 0x43
 7805 1715 A0000000 		.4byte	.Ldebug_ranges0+0xa0
 7806 1719 3A       		.uleb128 0x3a
 7807 171a 87090000 		.4byte	0x987
 7808 171e 3A       		.uleb128 0x3a
 7809 171f 93090000 		.4byte	0x993
 7810 1723 44       		.uleb128 0x44
 7811 1724 4A000000 		.4byte	.LVL237
 7812 1728 B10B0000 		.4byte	0xbb1
 7813 172c 2C       		.uleb128 0x2c
 7814 172d 01       		.uleb128 0x1
 7815 172e 52       		.byte	0x52
 7816 172f 02       		.uleb128 0x2
 7817 1730 74       		.byte	0x74
 7818 1731 00       		.sleb128 0
 7819 1732 2C       		.uleb128 0x2c
 7820 1733 01       		.uleb128 0x1
 7821 1734 51       		.byte	0x51
 7822 1735 02       		.uleb128 0x2
 7823 1736 77       		.byte	0x77
 7824 1737 00       		.sleb128 0
 7825 1738 2C       		.uleb128 0x2c
 7826 1739 01       		.uleb128 0x1
 7827 173a 50       		.byte	0x50
 7828 173b 02       		.uleb128 0x2
 7829 173c 7D       		.byte	0x7d
 7830 173d 00       		.sleb128 0
 7831 173e 00       		.byte	0
 7832 173f 00       		.byte	0
 7833 1740 00       		.byte	0
 7834 1741 00       		.byte	0
 7835 1742 48       		.uleb128 0x48
 7836 1743 C9090000 		.4byte	0x9c9
 7837 1747 30000000 		.4byte	.LBB119
 7838 174b 0C000000 		.4byte	.LBE119-.LBB119
 7839 174f 01       		.byte	0x1
 7840 1750 E301     		.2byte	0x1e3
 7841 1752 91170000 		.4byte	0x1791
 7842 1756 2A       		.uleb128 0x2a
 7843 1757 D5090000 		.4byte	0x9d5
 7844 175b 30160000 		.4byte	.LLST92
 7845 175f 2D       		.uleb128 0x2d
 7846 1760 23090000 		.4byte	0x923
 7847 1764 30000000 		.4byte	.LBB120
 7848 1768 0C000000 		.4byte	.LBE120-.LBB120
 7849 176c 01       		.byte	0x1
 7850 176d 9A       		.byte	0x9a
 7851 176e 2A       		.uleb128 0x2a
 7852 176f 38090000 		.4byte	0x938
 7853 1773 51160000 		.4byte	.LLST93
ARM GAS  C:\Users\jo\AppData\Local\Temp\ccyP7UZh.s 			page 142


 7854 1777 2E       		.uleb128 0x2e
 7855 1778 2F090000 		.4byte	0x92f
 7856 177c 2F       		.uleb128 0x2f
 7857 177d 30000000 		.4byte	.LBB121
 7858 1781 0C000000 		.4byte	.LBE121-.LBB121
 7859 1785 30       		.uleb128 0x30
 7860 1786 41090000 		.4byte	0x941
 7861 178a 9D160000 		.4byte	.LLST94
 7862 178e 00       		.byte	0
 7863 178f 00       		.byte	0
 7864 1790 00       		.byte	0
 7865 1791 38       		.uleb128 0x38
 7866 1792 24000000 		.4byte	.LVL230
 7867 1796 87110000 		.4byte	0x1187
 7868 179a B8170000 		.4byte	0x17b8
 7869 179e 2C       		.uleb128 0x2c
 7870 179f 01       		.uleb128 0x1
 7871 17a0 53       		.byte	0x53
 7872 17a1 03       		.uleb128 0x3
 7873 17a2 91       		.byte	0x91
 7874 17a3 04       		.sleb128 4
 7875 17a4 06       		.byte	0x6
 7876 17a5 2C       		.uleb128 0x2c
 7877 17a6 01       		.uleb128 0x1
 7878 17a7 52       		.byte	0x52
 7879 17a8 02       		.uleb128 0x2
 7880 17a9 75       		.byte	0x75
 7881 17aa 00       		.sleb128 0
 7882 17ab 2C       		.uleb128 0x2c
 7883 17ac 01       		.uleb128 0x1
 7884 17ad 51       		.byte	0x51
 7885 17ae 02       		.uleb128 0x2
 7886 17af 76       		.byte	0x76
 7887 17b0 00       		.sleb128 0
 7888 17b1 2C       		.uleb128 0x2c
 7889 17b2 01       		.uleb128 0x1
 7890 17b3 50       		.byte	0x50
 7891 17b4 02       		.uleb128 0x2
 7892 17b5 7D       		.byte	0x7d
 7893 17b6 00       		.sleb128 0
 7894 17b7 00       		.byte	0
 7895 17b8 44       		.uleb128 0x44
 7896 17b9 2E000000 		.4byte	.LVL231
 7897 17bd D0130000 		.4byte	0x13d0
 7898 17c1 2C       		.uleb128 0x2c
 7899 17c2 01       		.uleb128 0x1
 7900 17c3 51       		.byte	0x51
 7901 17c4 03       		.uleb128 0x3
 7902 17c5 91       		.byte	0x91
 7903 17c6 00       		.sleb128 0
 7904 17c7 06       		.byte	0x6
 7905 17c8 2C       		.uleb128 0x2c
 7906 17c9 01       		.uleb128 0x1
 7907 17ca 50       		.byte	0x50
 7908 17cb 02       		.uleb128 0x2
 7909 17cc 7D       		.byte	0x7d
 7910 17cd 00       		.sleb128 0
ARM GAS  C:\Users\jo\AppData\Local\Temp\ccyP7UZh.s 			page 143


 7911 17ce 00       		.byte	0
 7912 17cf 00       		.byte	0
 7913 17d0 49       		.uleb128 0x49
 7914 17d1 EB040000 		.4byte	.LASF157
 7915 17d5 01       		.byte	0x1
 7916 17d6 C402     		.2byte	0x2c4
 7917 17d8 2C000000 		.4byte	0x2c
 7918 17dc 00000000 		.4byte	.LFB14
 7919 17e0 48020000 		.4byte	.LFE14-.LFB14
 7920 17e4 01       		.uleb128 0x1
 7921 17e5 9C       		.byte	0x9c
 7922 17e6 551C0000 		.4byte	0x1c55
 7923 17ea 3D       		.uleb128 0x3d
 7924 17eb CB060000 		.4byte	.LASF158
 7925 17ef 01       		.byte	0x1
 7926 17f0 C402     		.2byte	0x2c4
 7927 17f2 2C000000 		.4byte	0x2c
 7928 17f6 C8160000 		.4byte	.LLST95
 7929 17fa 3F       		.uleb128 0x3f
 7930 17fb 6900     		.ascii	"i\000"
 7931 17fd 01       		.byte	0x1
 7932 17fe C602     		.2byte	0x2c6
 7933 1800 2C000000 		.4byte	0x2c
 7934 1804 E6160000 		.4byte	.LLST96
 7935 1808 3F       		.uleb128 0x3f
 7936 1809 6A00     		.ascii	"j\000"
 7937 180b 01       		.byte	0x1
 7938 180c C602     		.2byte	0x2c6
 7939 180e 2C000000 		.4byte	0x2c
 7940 1812 55170000 		.4byte	.LLST97
 7941 1816 3F       		.uleb128 0x3f
 7942 1817 6B00     		.ascii	"k\000"
 7943 1819 01       		.byte	0x1
 7944 181a C602     		.2byte	0x2c6
 7945 181c 2C000000 		.4byte	0x2c
 7946 1820 FC170000 		.4byte	.LLST98
 7947 1824 3E       		.uleb128 0x3e
 7948 1825 85020000 		.4byte	.LASF159
 7949 1829 01       		.byte	0x1
 7950 182a C602     		.2byte	0x2c6
 7951 182c 2C000000 		.4byte	0x2c
 7952 1830 48180000 		.4byte	.LLST99
 7953 1834 3F       		.uleb128 0x3f
 7954 1835 72657400 		.ascii	"ret\000"
 7955 1839 01       		.byte	0x1
 7956 183a C602     		.2byte	0x2c6
 7957 183c 2C000000 		.4byte	0x2c
 7958 1840 6B180000 		.4byte	.LLST100
 7959 1844 47       		.uleb128 0x47
 7960 1845 62756600 		.ascii	"buf\000"
 7961 1849 01       		.byte	0x1
 7962 184a C702     		.2byte	0x2c7
 7963 184c 76110000 		.4byte	0x1176
 7964 1850 03       		.uleb128 0x3
 7965 1851 91       		.byte	0x91
 7966 1852 D877     		.sleb128 -1064
 7967 1854 40       		.uleb128 0x40
ARM GAS  C:\Users\jo\AppData\Local\Temp\ccyP7UZh.s 			page 144


 7968 1855 1C020000 		.4byte	.LASF160
 7969 1859 01       		.byte	0x1
 7970 185a C802     		.2byte	0x2c8
 7971 185c 48130000 		.4byte	0x1348
 7972 1860 03       		.uleb128 0x3
 7973 1861 91       		.byte	0x91
 7974 1862 C073     		.sleb128 -1600
 7975 1864 47       		.uleb128 0x47
 7976 1865 63747800 		.ascii	"ctx\000"
 7977 1869 01       		.byte	0x1
 7978 186a C902     		.2byte	0x2c9
 7979 186c 17010000 		.4byte	0x117
 7980 1870 03       		.uleb128 0x3
 7981 1871 91       		.byte	0x91
 7982 1872 8074     		.sleb128 -1536
 7983 1874 4D       		.uleb128 0x4d
 7984 1875 43070000 		.4byte	.LASF182
 7985 1879 01       		.byte	0x1
 7986 187a 1C03     		.2byte	0x31c
 7987 187c DE010000 		.4byte	.L117
 7988 1880 48       		.uleb128 0x48
 7989 1881 B1090000 		.4byte	0x9b1
 7990 1885 0A000000 		.4byte	.LBB123
 7991 1889 10000000 		.4byte	.LBE123-.LBB123
 7992 188d 01       		.byte	0x1
 7993 188e CB02     		.2byte	0x2cb
 7994 1890 BB180000 		.4byte	0x18bb
 7995 1894 2A       		.uleb128 0x2a
 7996 1895 BD090000 		.4byte	0x9bd
 7997 1899 96180000 		.4byte	.LLST101
 7998 189d 44       		.uleb128 0x44
 7999 189e 16000000 		.4byte	.LVL241
 8000 18a2 C61D0000 		.4byte	0x1dc6
 8001 18a6 2C       		.uleb128 0x2c
 8002 18a7 01       		.uleb128 0x1
 8003 18a8 52       		.byte	0x52
 8004 18a9 03       		.uleb128 0x3
 8005 18aa 0A       		.byte	0xa
 8006 18ab D801     		.2byte	0x1d8
 8007 18ad 2C       		.uleb128 0x2c
 8008 18ae 01       		.uleb128 0x1
 8009 18af 51       		.byte	0x51
 8010 18b0 01       		.uleb128 0x1
 8011 18b1 30       		.byte	0x30
 8012 18b2 2C       		.uleb128 0x2c
 8013 18b3 01       		.uleb128 0x1
 8014 18b4 50       		.byte	0x50
 8015 18b5 03       		.uleb128 0x3
 8016 18b6 91       		.byte	0x91
 8017 18b7 8074     		.sleb128 -1536
 8018 18b9 00       		.byte	0
 8019 18ba 00       		.byte	0
 8020 18bb 41       		.uleb128 0x41
 8021 18bc 56090000 		.4byte	0x956
 8022 18c0 58000000 		.4byte	.LBB125
 8023 18c4 B8000000 		.4byte	.Ldebug_ranges0+0xb8
 8024 18c8 01       		.byte	0x1
ARM GAS  C:\Users\jo\AppData\Local\Temp\ccyP7UZh.s 			page 145


 8025 18c9 DF02     		.2byte	0x2df
 8026 18cb 18190000 		.4byte	0x1918
 8027 18cf 2A       		.uleb128 0x2a
 8028 18d0 7B090000 		.4byte	0x97b
 8029 18d4 BF190000 		.4byte	.LLST102
 8030 18d8 2A       		.uleb128 0x2a
 8031 18d9 6F090000 		.4byte	0x96f
 8032 18dd 0A1A0000 		.4byte	.LLST103
 8033 18e1 2A       		.uleb128 0x2a
 8034 18e2 63090000 		.4byte	0x963
 8035 18e6 701A0000 		.4byte	.LLST104
 8036 18ea 43       		.uleb128 0x43
 8037 18eb B8000000 		.4byte	.Ldebug_ranges0+0xb8
 8038 18ef 3A       		.uleb128 0x3a
 8039 18f0 87090000 		.4byte	0x987
 8040 18f4 3A       		.uleb128 0x3a
 8041 18f5 93090000 		.4byte	0x993
 8042 18f9 44       		.uleb128 0x44
 8043 18fa D8010000 		.4byte	.LVL291
 8044 18fe B10B0000 		.4byte	0xbb1
 8045 1902 2C       		.uleb128 0x2c
 8046 1903 01       		.uleb128 0x1
 8047 1904 51       		.byte	0x51
 8048 1905 08       		.uleb128 0x8
 8049 1906 74       		.byte	0x74
 8050 1907 00       		.sleb128 0
 8051 1908 03       		.byte	0x3
 8052 1909 00000000 		.4byte	.LANCHOR4
 8053 190d 22       		.byte	0x22
 8054 190e 2C       		.uleb128 0x2c
 8055 190f 01       		.uleb128 0x1
 8056 1910 50       		.byte	0x50
 8057 1911 03       		.uleb128 0x3
 8058 1912 91       		.byte	0x91
 8059 1913 8074     		.sleb128 -1536
 8060 1915 00       		.byte	0
 8061 1916 00       		.byte	0
 8062 1917 00       		.byte	0
 8063 1918 41       		.uleb128 0x41
 8064 1919 E1090000 		.4byte	0x9e1
 8065 191d C0000000 		.4byte	.LBB128
 8066 1921 D0000000 		.4byte	.Ldebug_ranges0+0xd0
 8067 1925 01       		.byte	0x1
 8068 1926 0503     		.2byte	0x305
 8069 1928 A8190000 		.4byte	0x19a8
 8070 192c 2A       		.uleb128 0x2a
 8071 192d 060A0000 		.4byte	0xa06
 8072 1931 AD1A0000 		.4byte	.LLST105
 8073 1935 2A       		.uleb128 0x2a
 8074 1936 FA090000 		.4byte	0x9fa
 8075 193a CB1A0000 		.4byte	.LLST106
 8076 193e 2A       		.uleb128 0x2a
 8077 193f EE090000 		.4byte	0x9ee
 8078 1943 FF1A0000 		.4byte	.LLST107
 8079 1947 4C       		.uleb128 0x4c
 8080 1948 56090000 		.4byte	0x956
 8081 194c C0000000 		.4byte	.LBB129
ARM GAS  C:\Users\jo\AppData\Local\Temp\ccyP7UZh.s 			page 146


 8082 1950 D0000000 		.4byte	.Ldebug_ranges0+0xd0
 8083 1954 01       		.byte	0x1
 8084 1955 B601     		.2byte	0x1b6
 8085 1957 2A       		.uleb128 0x2a
 8086 1958 7B090000 		.4byte	0x97b
 8087 195c AD1A0000 		.4byte	.LLST105
 8088 1960 2A       		.uleb128 0x2a
 8089 1961 6F090000 		.4byte	0x96f
 8090 1965 CB1A0000 		.4byte	.LLST106
 8091 1969 2A       		.uleb128 0x2a
 8092 196a 63090000 		.4byte	0x963
 8093 196e FF1A0000 		.4byte	.LLST107
 8094 1972 43       		.uleb128 0x43
 8095 1973 D0000000 		.4byte	.Ldebug_ranges0+0xd0
 8096 1977 3A       		.uleb128 0x3a
 8097 1978 87090000 		.4byte	0x987
 8098 197c 3A       		.uleb128 0x3a
 8099 197d 93090000 		.4byte	0x993
 8100 1981 44       		.uleb128 0x44
 8101 1982 60010000 		.4byte	.LVL273
 8102 1986 B10B0000 		.4byte	0xbb1
 8103 198a 2C       		.uleb128 0x2c
 8104 198b 01       		.uleb128 0x1
 8105 198c 51       		.byte	0x51
 8106 198d 0F       		.uleb128 0xf
 8107 198e 74       		.byte	0x74
 8108 198f 00       		.sleb128 0
 8109 1990 33       		.byte	0x33
 8110 1991 24       		.byte	0x24
 8111 1992 74       		.byte	0x74
 8112 1993 00       		.sleb128 0
 8113 1994 22       		.byte	0x22
 8114 1995 41       		.byte	0x41
 8115 1996 1E       		.byte	0x1e
 8116 1997 03       		.byte	0x3
 8117 1998 00000000 		.4byte	.LANCHOR9
 8118 199c 22       		.byte	0x22
 8119 199d 2C       		.uleb128 0x2c
 8120 199e 01       		.uleb128 0x1
 8121 199f 50       		.byte	0x50
 8122 19a0 03       		.uleb128 0x3
 8123 19a1 91       		.byte	0x91
 8124 19a2 8074     		.sleb128 -1536
 8125 19a4 00       		.byte	0
 8126 19a5 00       		.byte	0
 8127 19a6 00       		.byte	0
 8128 19a7 00       		.byte	0
 8129 19a8 48       		.uleb128 0x48
 8130 19a9 56090000 		.4byte	0x956
 8131 19ad AC010000 		.4byte	.LBB137
 8132 19b1 0C000000 		.4byte	.LBE137-.LBB137
 8133 19b5 01       		.byte	0x1
 8134 19b6 DC02     		.2byte	0x2dc
 8135 19b8 0A1A0000 		.4byte	0x1a0a
 8136 19bc 2A       		.uleb128 0x2a
 8137 19bd 7B090000 		.4byte	0x97b
 8138 19c1 631B0000 		.4byte	.LLST111
ARM GAS  C:\Users\jo\AppData\Local\Temp\ccyP7UZh.s 			page 147


 8139 19c5 2A       		.uleb128 0x2a
 8140 19c6 6F090000 		.4byte	0x96f
 8141 19ca 791B0000 		.4byte	.LLST112
 8142 19ce 2A       		.uleb128 0x2a
 8143 19cf 63090000 		.4byte	0x963
 8144 19d3 8C1B0000 		.4byte	.LLST113
 8145 19d7 2F       		.uleb128 0x2f
 8146 19d8 AC010000 		.4byte	.LBB138
 8147 19dc 0C000000 		.4byte	.LBE138-.LBB138
 8148 19e0 3A       		.uleb128 0x3a
 8149 19e1 87090000 		.4byte	0x987
 8150 19e5 3A       		.uleb128 0x3a
 8151 19e6 93090000 		.4byte	0x993
 8152 19ea 44       		.uleb128 0x44
 8153 19eb B8010000 		.4byte	.LVL284
 8154 19ef B10B0000 		.4byte	0xbb1
 8155 19f3 2C       		.uleb128 0x2c
 8156 19f4 01       		.uleb128 0x1
 8157 19f5 52       		.byte	0x52
 8158 19f6 03       		.uleb128 0x3
 8159 19f7 0A       		.byte	0xa
 8160 19f8 E803     		.2byte	0x3e8
 8161 19fa 2C       		.uleb128 0x2c
 8162 19fb 01       		.uleb128 0x1
 8163 19fc 51       		.byte	0x51
 8164 19fd 02       		.uleb128 0x2
 8165 19fe 75       		.byte	0x75
 8166 19ff 00       		.sleb128 0
 8167 1a00 2C       		.uleb128 0x2c
 8168 1a01 01       		.uleb128 0x1
 8169 1a02 50       		.byte	0x50
 8170 1a03 03       		.uleb128 0x3
 8171 1a04 91       		.byte	0x91
 8172 1a05 8074     		.sleb128 -1536
 8173 1a07 00       		.byte	0
 8174 1a08 00       		.byte	0
 8175 1a09 00       		.byte	0
 8176 1a0a 48       		.uleb128 0x48
 8177 1a0b C9090000 		.4byte	0x9c9
 8178 1a0f E0010000 		.4byte	.LBB140
 8179 1a13 0A000000 		.4byte	.LBE140-.LBB140
 8180 1a17 01       		.byte	0x1
 8181 1a18 1D03     		.2byte	0x31d
 8182 1a1a 591A0000 		.4byte	0x1a59
 8183 1a1e 2A       		.uleb128 0x2a
 8184 1a1f D5090000 		.4byte	0x9d5
 8185 1a23 BB1B0000 		.4byte	.LLST114
 8186 1a27 2D       		.uleb128 0x2d
 8187 1a28 23090000 		.4byte	0x923
 8188 1a2c E0010000 		.4byte	.LBB141
 8189 1a30 0A000000 		.4byte	.LBE141-.LBB141
 8190 1a34 01       		.byte	0x1
 8191 1a35 9A       		.byte	0x9a
 8192 1a36 2A       		.uleb128 0x2a
 8193 1a37 38090000 		.4byte	0x938
 8194 1a3b EA1B0000 		.4byte	.LLST115
 8195 1a3f 2E       		.uleb128 0x2e
ARM GAS  C:\Users\jo\AppData\Local\Temp\ccyP7UZh.s 			page 148


 8196 1a40 2F090000 		.4byte	0x92f
 8197 1a44 2F       		.uleb128 0x2f
 8198 1a45 E0010000 		.4byte	.LBB142
 8199 1a49 0A000000 		.4byte	.LBE142-.LBB142
 8200 1a4d 30       		.uleb128 0x30
 8201 1a4e 41090000 		.4byte	0x941
 8202 1a52 3C1C0000 		.4byte	.LLST116
 8203 1a56 00       		.byte	0
 8204 1a57 00       		.byte	0
 8205 1a58 00       		.byte	0
 8206 1a59 38       		.uleb128 0x38
 8207 1a5a 4E000000 		.4byte	.LVL245
 8208 1a5e 9B0A0000 		.4byte	0xa9b
 8209 1a62 6E1A0000 		.4byte	0x1a6e
 8210 1a66 2C       		.uleb128 0x2c
 8211 1a67 01       		.uleb128 0x1
 8212 1a68 50       		.byte	0x50
 8213 1a69 03       		.uleb128 0x3
 8214 1a6a 91       		.byte	0x91
 8215 1a6b 8074     		.sleb128 -1536
 8216 1a6d 00       		.byte	0
 8217 1a6e 38       		.uleb128 0x38
 8218 1a6f 66000000 		.4byte	.LVL249
 8219 1a73 AD0C0000 		.4byte	0xcad
 8220 1a77 8A1A0000 		.4byte	0x1a8a
 8221 1a7b 2C       		.uleb128 0x2c
 8222 1a7c 01       		.uleb128 0x1
 8223 1a7d 51       		.byte	0x51
 8224 1a7e 03       		.uleb128 0x3
 8225 1a7f 91       		.byte	0x91
 8226 1a80 C073     		.sleb128 -1600
 8227 1a82 2C       		.uleb128 0x2c
 8228 1a83 01       		.uleb128 0x1
 8229 1a84 50       		.byte	0x50
 8230 1a85 03       		.uleb128 0x3
 8231 1a86 91       		.byte	0x91
 8232 1a87 8074     		.sleb128 -1536
 8233 1a89 00       		.byte	0
 8234 1a8a 38       		.uleb128 0x38
 8235 1a8b 72000000 		.4byte	.LVL250
 8236 1a8f 721E0000 		.4byte	0x1e72
 8237 1a93 AD1A0000 		.4byte	0x1aad
 8238 1a97 2C       		.uleb128 0x2c
 8239 1a98 01       		.uleb128 0x1
 8240 1a99 52       		.byte	0x52
 8241 1a9a 04       		.uleb128 0x4
 8242 1a9b 79       		.byte	0x79
 8243 1a9c 00       		.sleb128 0
 8244 1a9d 34       		.byte	0x34
 8245 1a9e 24       		.byte	0x24
 8246 1a9f 2C       		.uleb128 0x2c
 8247 1aa0 01       		.uleb128 0x1
 8248 1aa1 51       		.byte	0x51
 8249 1aa2 02       		.uleb128 0x2
 8250 1aa3 78       		.byte	0x78
 8251 1aa4 00       		.sleb128 0
 8252 1aa5 2C       		.uleb128 0x2c
ARM GAS  C:\Users\jo\AppData\Local\Temp\ccyP7UZh.s 			page 149


 8253 1aa6 01       		.uleb128 0x1
 8254 1aa7 50       		.byte	0x50
 8255 1aa8 03       		.uleb128 0x3
 8256 1aa9 91       		.byte	0x91
 8257 1aaa C073     		.sleb128 -1600
 8258 1aac 00       		.byte	0
 8259 1aad 38       		.uleb128 0x38
 8260 1aae BC000000 		.4byte	.LVL255
 8261 1ab2 87110000 		.4byte	0x1187
 8262 1ab6 E51A0000 		.4byte	0x1ae5
 8263 1aba 2C       		.uleb128 0x2c
 8264 1abb 01       		.uleb128 0x1
 8265 1abc 53       		.byte	0x53
 8266 1abd 02       		.uleb128 0x2
 8267 1abe 76       		.byte	0x76
 8268 1abf 00       		.sleb128 0
 8269 1ac0 2C       		.uleb128 0x2c
 8270 1ac1 01       		.uleb128 0x1
 8271 1ac2 52       		.byte	0x52
 8272 1ac3 0B       		.uleb128 0xb
 8273 1ac4 74       		.byte	0x74
 8274 1ac5 00       		.sleb128 0
 8275 1ac6 32       		.byte	0x32
 8276 1ac7 24       		.byte	0x24
 8277 1ac8 03       		.byte	0x3
 8278 1ac9 00000000 		.4byte	.LANCHOR7
 8279 1acd 22       		.byte	0x22
 8280 1ace 06       		.byte	0x6
 8281 1acf 2C       		.uleb128 0x2c
 8282 1ad0 01       		.uleb128 0x1
 8283 1ad1 51       		.byte	0x51
 8284 1ad2 0A       		.uleb128 0xa
 8285 1ad3 74       		.byte	0x74
 8286 1ad4 00       		.sleb128 0
 8287 1ad5 4A       		.byte	0x4a
 8288 1ad6 1E       		.byte	0x1e
 8289 1ad7 03       		.byte	0x3
 8290 1ad8 00000000 		.4byte	.LANCHOR6
 8291 1adc 22       		.byte	0x22
 8292 1add 2C       		.uleb128 0x2c
 8293 1ade 01       		.uleb128 0x1
 8294 1adf 50       		.byte	0x50
 8295 1ae0 03       		.uleb128 0x3
 8296 1ae1 91       		.byte	0x91
 8297 1ae2 8074     		.sleb128 -1536
 8298 1ae4 00       		.byte	0
 8299 1ae5 38       		.uleb128 0x38
 8300 1ae6 CC000000 		.4byte	.LVL259
 8301 1aea D0130000 		.4byte	0x13d0
 8302 1aee 011B0000 		.4byte	0x1b01
 8303 1af2 2C       		.uleb128 0x2c
 8304 1af3 01       		.uleb128 0x1
 8305 1af4 51       		.byte	0x51
 8306 1af5 03       		.uleb128 0x3
 8307 1af6 91       		.byte	0x91
 8308 1af7 C073     		.sleb128 -1600
 8309 1af9 2C       		.uleb128 0x2c
ARM GAS  C:\Users\jo\AppData\Local\Temp\ccyP7UZh.s 			page 150


 8310 1afa 01       		.uleb128 0x1
 8311 1afb 50       		.byte	0x50
 8312 1afc 03       		.uleb128 0x3
 8313 1afd 91       		.byte	0x91
 8314 1afe 8074     		.sleb128 -1536
 8315 1b00 00       		.byte	0
 8316 1b01 38       		.uleb128 0x38
 8317 1b02 E0000000 		.4byte	.LVL260
 8318 1b06 721E0000 		.4byte	0x1e72
 8319 1b0a 1C1B0000 		.4byte	0x1b1c
 8320 1b0e 2C       		.uleb128 0x2c
 8321 1b0f 01       		.uleb128 0x1
 8322 1b10 51       		.byte	0x51
 8323 1b11 02       		.uleb128 0x2
 8324 1b12 78       		.byte	0x78
 8325 1b13 00       		.sleb128 0
 8326 1b14 2C       		.uleb128 0x2c
 8327 1b15 01       		.uleb128 0x1
 8328 1b16 50       		.byte	0x50
 8329 1b17 03       		.uleb128 0x3
 8330 1b18 91       		.byte	0x91
 8331 1b19 C073     		.sleb128 -1600
 8332 1b1b 00       		.byte	0
 8333 1b1c 38       		.uleb128 0x38
 8334 1b1d 2A010000 		.4byte	.LVL265
 8335 1b21 911E0000 		.4byte	0x1e91
 8336 1b25 431B0000 		.4byte	0x1b43
 8337 1b29 2C       		.uleb128 0x2c
 8338 1b2a 01       		.uleb128 0x1
 8339 1b2b 52       		.byte	0x52
 8340 1b2c 02       		.uleb128 0x2
 8341 1b2d 74       		.byte	0x74
 8342 1b2e 01       		.sleb128 1
 8343 1b2f 2C       		.uleb128 0x2c
 8344 1b30 01       		.uleb128 0x1
 8345 1b31 51       		.byte	0x51
 8346 1b32 06       		.uleb128 0x6
 8347 1b33 34       		.byte	0x34
 8348 1b34 76       		.byte	0x76
 8349 1b35 00       		.sleb128 0
 8350 1b36 1C       		.byte	0x1c
 8351 1b37 37       		.byte	0x37
 8352 1b38 24       		.byte	0x24
 8353 1b39 2C       		.uleb128 0x2c
 8354 1b3a 01       		.uleb128 0x1
 8355 1b3b 50       		.byte	0x50
 8356 1b3c 05       		.uleb128 0x5
 8357 1b3d 03       		.byte	0x3
 8358 1b3e 28000000 		.4byte	.LC4
 8359 1b42 00       		.byte	0
 8360 1b43 38       		.uleb128 0x38
 8361 1b44 3A010000 		.4byte	.LVL267
 8362 1b48 531E0000 		.4byte	0x1e53
 8363 1b4c 631B0000 		.4byte	0x1b63
 8364 1b50 2C       		.uleb128 0x2c
 8365 1b51 01       		.uleb128 0x1
 8366 1b52 52       		.byte	0x52
ARM GAS  C:\Users\jo\AppData\Local\Temp\ccyP7UZh.s 			page 151


 8367 1b53 02       		.uleb128 0x2
 8368 1b54 08       		.byte	0x8
 8369 1b55 83       		.byte	0x83
 8370 1b56 2C       		.uleb128 0x2c
 8371 1b57 01       		.uleb128 0x1
 8372 1b58 51       		.byte	0x51
 8373 1b59 02       		.uleb128 0x2
 8374 1b5a 08       		.byte	0x8
 8375 1b5b AA       		.byte	0xaa
 8376 1b5c 2C       		.uleb128 0x2c
 8377 1b5d 01       		.uleb128 0x1
 8378 1b5e 50       		.byte	0x50
 8379 1b5f 02       		.uleb128 0x2
 8380 1b60 75       		.byte	0x75
 8381 1b61 00       		.sleb128 0
 8382 1b62 00       		.byte	0
 8383 1b63 38       		.uleb128 0x38
 8384 1b64 46010000 		.4byte	.LVL269
 8385 1b68 87110000 		.4byte	0x1187
 8386 1b6c 8A1B0000 		.4byte	0x1b8a
 8387 1b70 2C       		.uleb128 0x2c
 8388 1b71 01       		.uleb128 0x1
 8389 1b72 53       		.byte	0x53
 8390 1b73 02       		.uleb128 0x2
 8391 1b74 76       		.byte	0x76
 8392 1b75 00       		.sleb128 0
 8393 1b76 2C       		.uleb128 0x2c
 8394 1b77 01       		.uleb128 0x1
 8395 1b78 52       		.byte	0x52
 8396 1b79 02       		.uleb128 0x2
 8397 1b7a 08       		.byte	0x8
 8398 1b7b 83       		.byte	0x83
 8399 1b7c 2C       		.uleb128 0x2c
 8400 1b7d 01       		.uleb128 0x1
 8401 1b7e 51       		.byte	0x51
 8402 1b7f 02       		.uleb128 0x2
 8403 1b80 75       		.byte	0x75
 8404 1b81 00       		.sleb128 0
 8405 1b82 2C       		.uleb128 0x2c
 8406 1b83 01       		.uleb128 0x1
 8407 1b84 50       		.byte	0x50
 8408 1b85 03       		.uleb128 0x3
 8409 1b86 91       		.byte	0x91
 8410 1b87 8074     		.sleb128 -1536
 8411 1b89 00       		.byte	0
 8412 1b8a 38       		.uleb128 0x38
 8413 1b8b 6C010000 		.4byte	.LVL275
 8414 1b8f A71E0000 		.4byte	0x1ea7
 8415 1b93 A11B0000 		.4byte	0x1ba1
 8416 1b97 2C       		.uleb128 0x2c
 8417 1b98 01       		.uleb128 0x1
 8418 1b99 50       		.byte	0x50
 8419 1b9a 05       		.uleb128 0x5
 8420 1b9b 03       		.byte	0x3
 8421 1b9c 20000000 		.4byte	.LC3
 8422 1ba0 00       		.byte	0
 8423 1ba1 38       		.uleb128 0x38
ARM GAS  C:\Users\jo\AppData\Local\Temp\ccyP7UZh.s 			page 152


 8424 1ba2 8C010000 		.4byte	.LVL277
 8425 1ba6 911E0000 		.4byte	0x1e91
 8426 1baa C61B0000 		.4byte	0x1bc6
 8427 1bae 2C       		.uleb128 0x2c
 8428 1baf 01       		.uleb128 0x1
 8429 1bb0 52       		.byte	0x52
 8430 1bb1 02       		.uleb128 0x2
 8431 1bb2 74       		.byte	0x74
 8432 1bb3 01       		.sleb128 1
 8433 1bb4 2C       		.uleb128 0x2c
 8434 1bb5 01       		.uleb128 0x1
 8435 1bb6 51       		.byte	0x51
 8436 1bb7 04       		.uleb128 0x4
 8437 1bb8 79       		.byte	0x79
 8438 1bb9 00       		.sleb128 0
 8439 1bba 37       		.byte	0x37
 8440 1bbb 24       		.byte	0x24
 8441 1bbc 2C       		.uleb128 0x2c
 8442 1bbd 01       		.uleb128 0x1
 8443 1bbe 50       		.byte	0x50
 8444 1bbf 05       		.uleb128 0x5
 8445 1bc0 03       		.byte	0x3
 8446 1bc1 04000000 		.4byte	.LC1
 8447 1bc5 00       		.byte	0
 8448 1bc6 38       		.uleb128 0x38
 8449 1bc7 96010000 		.4byte	.LVL279
 8450 1bcb 9B0A0000 		.4byte	0xa9b
 8451 1bcf E31B0000 		.4byte	0x1be3
 8452 1bd3 2C       		.uleb128 0x2c
 8453 1bd4 01       		.uleb128 0x1
 8454 1bd5 51       		.byte	0x51
 8455 1bd6 04       		.uleb128 0x4
 8456 1bd7 91       		.byte	0x91
 8457 1bd8 BC73     		.sleb128 -1604
 8458 1bda 06       		.byte	0x6
 8459 1bdb 2C       		.uleb128 0x2c
 8460 1bdc 01       		.uleb128 0x1
 8461 1bdd 50       		.byte	0x50
 8462 1bde 03       		.uleb128 0x3
 8463 1bdf 91       		.byte	0x91
 8464 1be0 8074     		.sleb128 -1536
 8465 1be2 00       		.byte	0
 8466 1be3 38       		.uleb128 0x38
 8467 1be4 A8010000 		.4byte	.LVL281
 8468 1be8 531E0000 		.4byte	0x1e53
 8469 1bec 041C0000 		.4byte	0x1c04
 8470 1bf0 2C       		.uleb128 0x2c
 8471 1bf1 01       		.uleb128 0x1
 8472 1bf2 52       		.byte	0x52
 8473 1bf3 03       		.uleb128 0x3
 8474 1bf4 0A       		.byte	0xa
 8475 1bf5 E803     		.2byte	0x3e8
 8476 1bf7 2C       		.uleb128 0x2c
 8477 1bf8 01       		.uleb128 0x1
 8478 1bf9 51       		.byte	0x51
 8479 1bfa 02       		.uleb128 0x2
 8480 1bfb 08       		.byte	0x8
ARM GAS  C:\Users\jo\AppData\Local\Temp\ccyP7UZh.s 			page 153


 8481 1bfc 61       		.byte	0x61
 8482 1bfd 2C       		.uleb128 0x2c
 8483 1bfe 01       		.uleb128 0x1
 8484 1bff 50       		.byte	0x50
 8485 1c00 02       		.uleb128 0x2
 8486 1c01 75       		.byte	0x75
 8487 1c02 00       		.sleb128 0
 8488 1c03 00       		.byte	0
 8489 1c04 38       		.uleb128 0x38
 8490 1c05 C4010000 		.4byte	.LVL287
 8491 1c09 A71E0000 		.4byte	0x1ea7
 8492 1c0d 1B1C0000 		.4byte	0x1c1b
 8493 1c11 2C       		.uleb128 0x2c
 8494 1c12 01       		.uleb128 0x1
 8495 1c13 50       		.byte	0x50
 8496 1c14 05       		.uleb128 0x5
 8497 1c15 03       		.byte	0x3
 8498 1c16 20000000 		.4byte	.LC3
 8499 1c1a 00       		.byte	0
 8500 1c1b 38       		.uleb128 0x38
 8501 1c1c F8010000 		.4byte	.LVL299
 8502 1c20 C01E0000 		.4byte	0x1ec0
 8503 1c24 2E1C0000 		.4byte	0x1c2e
 8504 1c28 2C       		.uleb128 0x2c
 8505 1c29 01       		.uleb128 0x1
 8506 1c2a 50       		.byte	0x50
 8507 1c2b 01       		.uleb128 0x1
 8508 1c2c 3A       		.byte	0x3a
 8509 1c2d 00       		.byte	0
 8510 1c2e 38       		.uleb128 0x38
 8511 1c2f 00020000 		.4byte	.LVL301
 8512 1c33 A71E0000 		.4byte	0x1ea7
 8513 1c37 451C0000 		.4byte	0x1c45
 8514 1c3b 2C       		.uleb128 0x2c
 8515 1c3c 01       		.uleb128 0x1
 8516 1c3d 50       		.byte	0x50
 8517 1c3e 05       		.uleb128 0x5
 8518 1c3f 03       		.byte	0x3
 8519 1c40 18000000 		.4byte	.LC2
 8520 1c44 00       		.byte	0
 8521 1c45 44       		.uleb128 0x44
 8522 1c46 0A020000 		.4byte	.LVL303
 8523 1c4a C01E0000 		.4byte	0x1ec0
 8524 1c4e 2C       		.uleb128 0x2c
 8525 1c4f 01       		.uleb128 0x1
 8526 1c50 50       		.byte	0x50
 8527 1c51 01       		.uleb128 0x1
 8528 1c52 3A       		.byte	0x3a
 8529 1c53 00       		.byte	0
 8530 1c54 00       		.byte	0
 8531 1c55 37       		.uleb128 0x37
 8532 1c56 4B00     		.ascii	"K\000"
 8533 1c58 01       		.byte	0x1
 8534 1c59 64       		.byte	0x64
 8535 1c5a 641C0000 		.4byte	0x1c64
 8536 1c5e 05       		.uleb128 0x5
 8537 1c5f 03       		.byte	0x3
ARM GAS  C:\Users\jo\AppData\Local\Temp\ccyP7UZh.s 			page 154


 8538 1c60 00000000 		.4byte	K
 8539 1c64 19       		.uleb128 0x19
 8540 1c65 A10B0000 		.4byte	0xba1
 8541 1c69 40       		.uleb128 0x40
 8542 1c6a 0C000000 		.4byte	.LASF161
 8543 1c6e 01       		.byte	0x1
 8544 1c6f 2E01     		.2byte	0x12e
 8545 1c71 7B1C0000 		.4byte	0x1c7b
 8546 1c75 05       		.uleb128 0x5
 8547 1c76 03       		.byte	0x3
 8548 1c77 00000000 		.4byte	sha512_padding
 8549 1c7b 19       		.uleb128 0x19
 8550 1c7c 07010000 		.4byte	0x107
 8551 1c80 08       		.uleb128 0x8
 8552 1c81 4C000000 		.4byte	0x4c
 8553 1c85 961C0000 		.4byte	0x1c96
 8554 1c89 09       		.uleb128 0x9
 8555 1c8a F0000000 		.4byte	0xf0
 8556 1c8e 02       		.byte	0x2
 8557 1c8f 09       		.uleb128 0x9
 8558 1c90 F0000000 		.4byte	0xf0
 8559 1c94 70       		.byte	0x70
 8560 1c95 00       		.byte	0
 8561 1c96 40       		.uleb128 0x40
 8562 1c97 2F030000 		.4byte	.LASF162
 8563 1c9b 01       		.byte	0x1
 8564 1c9c EB01     		.2byte	0x1eb
 8565 1c9e A81C0000 		.4byte	0x1ca8
 8566 1ca2 05       		.uleb128 0x5
 8567 1ca3 03       		.byte	0x3
 8568 1ca4 00000000 		.4byte	sha512_test_buf
 8569 1ca8 19       		.uleb128 0x19
 8570 1ca9 801C0000 		.4byte	0x1c80
 8571 1cad 08       		.uleb128 0x8
 8572 1cae 2C000000 		.4byte	0x2c
 8573 1cb2 BD1C0000 		.4byte	0x1cbd
 8574 1cb6 09       		.uleb128 0x9
 8575 1cb7 F0000000 		.4byte	0xf0
 8576 1cbb 02       		.byte	0x2
 8577 1cbc 00       		.byte	0
 8578 1cbd 40       		.uleb128 0x40
 8579 1cbe 83000000 		.4byte	.LASF163
 8580 1cc2 01       		.byte	0x1
 8581 1cc3 F301     		.2byte	0x1f3
 8582 1cc5 CF1C0000 		.4byte	0x1ccf
 8583 1cc9 05       		.uleb128 0x5
 8584 1cca 03       		.byte	0x3
 8585 1ccb 00000000 		.4byte	sha512_test_buflen
 8586 1ccf 19       		.uleb128 0x19
 8587 1cd0 AD1C0000 		.4byte	0x1cad
 8588 1cd4 08       		.uleb128 0x8
 8589 1cd5 4C000000 		.4byte	0x4c
 8590 1cd9 EA1C0000 		.4byte	0x1cea
 8591 1cdd 09       		.uleb128 0x9
 8592 1cde F0000000 		.4byte	0xf0
 8593 1ce2 05       		.byte	0x5
 8594 1ce3 09       		.uleb128 0x9
ARM GAS  C:\Users\jo\AppData\Local\Temp\ccyP7UZh.s 			page 155


 8595 1ce4 F0000000 		.4byte	0xf0
 8596 1ce8 3F       		.byte	0x3f
 8597 1ce9 00       		.byte	0
 8598 1cea 40       		.uleb128 0x40
 8599 1ceb 36020000 		.4byte	.LASF164
 8600 1cef 01       		.byte	0x1
 8601 1cf0 F801     		.2byte	0x1f8
 8602 1cf2 FC1C0000 		.4byte	0x1cfc
 8603 1cf6 05       		.uleb128 0x5
 8604 1cf7 03       		.byte	0x3
 8605 1cf8 00000000 		.4byte	sha512_test_sum
 8606 1cfc 19       		.uleb128 0x19
 8607 1cfd D41C0000 		.4byte	0x1cd4
 8608 1d01 08       		.uleb128 0x8
 8609 1d02 4C000000 		.4byte	0x4c
 8610 1d06 171D0000 		.4byte	0x1d17
 8611 1d0a 09       		.uleb128 0x9
 8612 1d0b F0000000 		.4byte	0xf0
 8613 1d0f 06       		.byte	0x6
 8614 1d10 09       		.uleb128 0x9
 8615 1d11 F0000000 		.4byte	0xf0
 8616 1d15 19       		.byte	0x19
 8617 1d16 00       		.byte	0
 8618 1d17 40       		.uleb128 0x40
 8619 1d18 0C010000 		.4byte	.LASF165
 8620 1d1c 01       		.byte	0x1
 8621 1d1d 3002     		.2byte	0x230
 8622 1d1f 291D0000 		.4byte	0x1d29
 8623 1d23 05       		.uleb128 0x5
 8624 1d24 03       		.byte	0x3
 8625 1d25 00000000 		.4byte	sha512_hmac_test_key
 8626 1d29 19       		.uleb128 0x19
 8627 1d2a 011D0000 		.4byte	0x1d01
 8628 1d2e 08       		.uleb128 0x8
 8629 1d2f 2C000000 		.4byte	0x2c
 8630 1d33 3E1D0000 		.4byte	0x1d3e
 8631 1d37 09       		.uleb128 0x9
 8632 1d38 F0000000 		.4byte	0xf0
 8633 1d3c 06       		.byte	0x6
 8634 1d3d 00       		.byte	0
 8635 1d3e 40       		.uleb128 0x40
 8636 1d3f 40050000 		.4byte	.LASF166
 8637 1d43 01       		.byte	0x1
 8638 1d44 3F02     		.2byte	0x23f
 8639 1d46 501D0000 		.4byte	0x1d50
 8640 1d4a 05       		.uleb128 0x5
 8641 1d4b 03       		.byte	0x3
 8642 1d4c 00000000 		.4byte	sha512_hmac_test_keylen
 8643 1d50 19       		.uleb128 0x19
 8644 1d51 2E1D0000 		.4byte	0x1d2e
 8645 1d55 08       		.uleb128 0x8
 8646 1d56 4C000000 		.4byte	0x4c
 8647 1d5a 6B1D0000 		.4byte	0x1d6b
 8648 1d5e 09       		.uleb128 0x9
 8649 1d5f F0000000 		.4byte	0xf0
 8650 1d63 06       		.byte	0x6
 8651 1d64 09       		.uleb128 0x9
ARM GAS  C:\Users\jo\AppData\Local\Temp\ccyP7UZh.s 			page 156


 8652 1d65 F0000000 		.4byte	0xf0
 8653 1d69 98       		.byte	0x98
 8654 1d6a 00       		.byte	0
 8655 1d6b 40       		.uleb128 0x40
 8656 1d6c 01050000 		.4byte	.LASF167
 8657 1d70 01       		.byte	0x1
 8658 1d71 4402     		.2byte	0x244
 8659 1d73 7D1D0000 		.4byte	0x1d7d
 8660 1d77 05       		.uleb128 0x5
 8661 1d78 03       		.byte	0x3
 8662 1d79 00000000 		.4byte	sha512_hmac_test_buf
 8663 1d7d 19       		.uleb128 0x19
 8664 1d7e 551D0000 		.4byte	0x1d55
 8665 1d82 40       		.uleb128 0x40
 8666 1d83 57020000 		.4byte	.LASF168
 8667 1d87 01       		.byte	0x1
 8668 1d88 5902     		.2byte	0x259
 8669 1d8a 941D0000 		.4byte	0x1d94
 8670 1d8e 05       		.uleb128 0x5
 8671 1d8f 03       		.byte	0x3
 8672 1d90 00000000 		.4byte	sha512_hmac_test_buflen
 8673 1d94 19       		.uleb128 0x19
 8674 1d95 2E1D0000 		.4byte	0x1d2e
 8675 1d99 08       		.uleb128 0x8
 8676 1d9a 4C000000 		.4byte	0x4c
 8677 1d9e AF1D0000 		.4byte	0x1daf
 8678 1da2 09       		.uleb128 0x9
 8679 1da3 F0000000 		.4byte	0xf0
 8680 1da7 0D       		.byte	0xd
 8681 1da8 09       		.uleb128 0x9
 8682 1da9 F0000000 		.4byte	0xf0
 8683 1dad 3F       		.byte	0x3f
 8684 1dae 00       		.byte	0
 8685 1daf 40       		.uleb128 0x40
 8686 1db0 E8000000 		.4byte	.LASF169
 8687 1db4 01       		.byte	0x1
 8688 1db5 5E02     		.2byte	0x25e
 8689 1db7 C11D0000 		.4byte	0x1dc1
 8690 1dbb 05       		.uleb128 0x5
 8691 1dbc 03       		.byte	0x3
 8692 1dbd 00000000 		.4byte	sha512_hmac_test_sum
 8693 1dc1 19       		.uleb128 0x19
 8694 1dc2 991D0000 		.4byte	0x1d99
 8695 1dc6 4E       		.uleb128 0x4e
 8696 1dc7 2F070000 		.4byte	.LASF170
 8697 1dcb B5010000 		.4byte	0x1b5
 8698 1dcf E31D0000 		.4byte	0x1de3
 8699 1dd3 15       		.uleb128 0x15
 8700 1dd4 B5010000 		.4byte	0x1b5
 8701 1dd8 15       		.uleb128 0x15
 8702 1dd9 2C000000 		.4byte	0x2c
 8703 1ddd 15       		.uleb128 0x15
 8704 1dde F0000000 		.4byte	0xf0
 8705 1de2 00       		.byte	0
 8706 1de3 4E       		.uleb128 0x4e
 8707 1de4 53000000 		.4byte	.LASF171
 8708 1de8 B5010000 		.4byte	0x1b5
ARM GAS  C:\Users\jo\AppData\Local\Temp\ccyP7UZh.s 			page 157


 8709 1dec 001E0000 		.4byte	0x1e00
 8710 1df0 15       		.uleb128 0x15
 8711 1df1 B5010000 		.4byte	0x1b5
 8712 1df5 15       		.uleb128 0x15
 8713 1df6 1C090000 		.4byte	0x91c
 8714 1dfa 15       		.uleb128 0x15
 8715 1dfb F0000000 		.4byte	0xf0
 8716 1dff 00       		.byte	0
 8717 1e00 4F       		.uleb128 0x4f
 8718 1e01 76050000 		.4byte	.LASF172
 8719 1e05 09       		.byte	0x9
 8720 1e06 DC       		.byte	0xdc
 8721 1e07 70110000 		.4byte	0x1170
 8722 1e0b 1A1E0000 		.4byte	0x1e1a
 8723 1e0f 15       		.uleb128 0x15
 8724 1e10 2B060000 		.4byte	0x62b
 8725 1e14 15       		.uleb128 0x15
 8726 1e15 2B060000 		.4byte	0x62b
 8727 1e19 00       		.byte	0
 8728 1e1a 4F       		.uleb128 0x4f
 8729 1e1b 5B060000 		.4byte	.LASF173
 8730 1e1f 09       		.byte	0x9
 8731 1e20 C8       		.byte	0xc8
 8732 1e21 3A000000 		.4byte	0x3a
 8733 1e25 3E1E0000 		.4byte	0x1e3e
 8734 1e29 15       		.uleb128 0x15
 8735 1e2a B5010000 		.4byte	0x1b5
 8736 1e2e 15       		.uleb128 0x15
 8737 1e2f 3A000000 		.4byte	0x3a
 8738 1e33 15       		.uleb128 0x15
 8739 1e34 3A000000 		.4byte	0x3a
 8740 1e38 15       		.uleb128 0x15
 8741 1e39 70110000 		.4byte	0x1170
 8742 1e3d 00       		.byte	0
 8743 1e3e 4F       		.uleb128 0x4f
 8744 1e3f 70030000 		.4byte	.LASF174
 8745 1e43 09       		.byte	0x9
 8746 1e44 A8       		.byte	0xa8
 8747 1e45 2C000000 		.4byte	0x2c
 8748 1e49 531E0000 		.4byte	0x1e53
 8749 1e4d 15       		.uleb128 0x15
 8750 1e4e 70110000 		.4byte	0x1170
 8751 1e52 00       		.byte	0
 8752 1e53 4F       		.uleb128 0x4f
 8753 1e54 2F070000 		.4byte	.LASF170
 8754 1e58 0A       		.byte	0xa
 8755 1e59 19       		.byte	0x19
 8756 1e5a B5010000 		.4byte	0x1b5
 8757 1e5e 721E0000 		.4byte	0x1e72
 8758 1e62 15       		.uleb128 0x15
 8759 1e63 B5010000 		.4byte	0x1b5
 8760 1e67 15       		.uleb128 0x15
 8761 1e68 2C000000 		.4byte	0x2c
 8762 1e6c 15       		.uleb128 0x15
 8763 1e6d 3A000000 		.4byte	0x3a
 8764 1e71 00       		.byte	0
 8765 1e72 4F       		.uleb128 0x4f
ARM GAS  C:\Users\jo\AppData\Local\Temp\ccyP7UZh.s 			page 158


 8766 1e73 E0060000 		.4byte	.LASF175
 8767 1e77 0A       		.byte	0xa
 8768 1e78 16       		.byte	0x16
 8769 1e79 2C000000 		.4byte	0x2c
 8770 1e7d 911E0000 		.4byte	0x1e91
 8771 1e81 15       		.uleb128 0x15
 8772 1e82 1C090000 		.4byte	0x91c
 8773 1e86 15       		.uleb128 0x15
 8774 1e87 1C090000 		.4byte	0x91c
 8775 1e8b 15       		.uleb128 0x15
 8776 1e8c 3A000000 		.4byte	0x3a
 8777 1e90 00       		.byte	0
 8778 1e91 4F       		.uleb128 0x4f
 8779 1e92 C1000000 		.4byte	.LASF176
 8780 1e96 09       		.byte	0x9
 8781 1e97 B1       		.byte	0xb1
 8782 1e98 2C000000 		.4byte	0x2c
 8783 1e9c A71E0000 		.4byte	0x1ea7
 8784 1ea0 15       		.uleb128 0x15
 8785 1ea1 2B060000 		.4byte	0x62b
 8786 1ea5 50       		.uleb128 0x50
 8787 1ea6 00       		.byte	0
 8788 1ea7 51       		.uleb128 0x51
 8789 1ea8 FC010000 		.4byte	.LASF183
 8790 1eac 0B       		.byte	0xb
 8791 1ead 00       		.byte	0
 8792 1eae 1B080000 		.4byte	.LASF184
 8793 1eb2 2C000000 		.4byte	0x2c
 8794 1eb6 C01E0000 		.4byte	0x1ec0
 8795 1eba 15       		.uleb128 0x15
 8796 1ebb 2B060000 		.4byte	0x62b
 8797 1ebf 00       		.byte	0
 8798 1ec0 52       		.uleb128 0x52
 8799 1ec1 3F030000 		.4byte	.LASF177
 8800 1ec5 0B       		.byte	0xb
 8801 1ec6 00       		.byte	0
 8802 1ec7 14020000 		.4byte	.LASF185
 8803 1ecb 2C000000 		.4byte	0x2c
 8804 1ecf 15       		.uleb128 0x15
 8805 1ed0 2C000000 		.4byte	0x2c
 8806 1ed4 00       		.byte	0
 8807 1ed5 00       		.byte	0
 8808              		.section	.debug_abbrev,"",%progbits
 8809              	.Ldebug_abbrev0:
 8810 0000 01       		.uleb128 0x1
 8811 0001 11       		.uleb128 0x11
 8812 0002 01       		.byte	0x1
 8813 0003 25       		.uleb128 0x25
 8814 0004 0E       		.uleb128 0xe
 8815 0005 13       		.uleb128 0x13
 8816 0006 0B       		.uleb128 0xb
 8817 0007 03       		.uleb128 0x3
 8818 0008 0E       		.uleb128 0xe
 8819 0009 1B       		.uleb128 0x1b
 8820 000a 0E       		.uleb128 0xe
 8821 000b 55       		.uleb128 0x55
 8822 000c 17       		.uleb128 0x17
ARM GAS  C:\Users\jo\AppData\Local\Temp\ccyP7UZh.s 			page 159


 8823 000d 11       		.uleb128 0x11
 8824 000e 01       		.uleb128 0x1
 8825 000f 10       		.uleb128 0x10
 8826 0010 17       		.uleb128 0x17
 8827 0011 00       		.byte	0
 8828 0012 00       		.byte	0
 8829 0013 02       		.uleb128 0x2
 8830 0014 24       		.uleb128 0x24
 8831 0015 00       		.byte	0
 8832 0016 0B       		.uleb128 0xb
 8833 0017 0B       		.uleb128 0xb
 8834 0018 3E       		.uleb128 0x3e
 8835 0019 0B       		.uleb128 0xb
 8836 001a 03       		.uleb128 0x3
 8837 001b 0E       		.uleb128 0xe
 8838 001c 00       		.byte	0
 8839 001d 00       		.byte	0
 8840 001e 03       		.uleb128 0x3
 8841 001f 24       		.uleb128 0x24
 8842 0020 00       		.byte	0
 8843 0021 0B       		.uleb128 0xb
 8844 0022 0B       		.uleb128 0xb
 8845 0023 3E       		.uleb128 0x3e
 8846 0024 0B       		.uleb128 0xb
 8847 0025 03       		.uleb128 0x3
 8848 0026 08       		.uleb128 0x8
 8849 0027 00       		.byte	0
 8850 0028 00       		.byte	0
 8851 0029 04       		.uleb128 0x4
 8852 002a 16       		.uleb128 0x16
 8853 002b 00       		.byte	0
 8854 002c 03       		.uleb128 0x3
 8855 002d 0E       		.uleb128 0xe
 8856 002e 3A       		.uleb128 0x3a
 8857 002f 0B       		.uleb128 0xb
 8858 0030 3B       		.uleb128 0x3b
 8859 0031 0B       		.uleb128 0xb
 8860 0032 49       		.uleb128 0x49
 8861 0033 13       		.uleb128 0x13
 8862 0034 00       		.byte	0
 8863 0035 00       		.byte	0
 8864 0036 05       		.uleb128 0x5
 8865 0037 13       		.uleb128 0x13
 8866 0038 01       		.byte	0x1
 8867 0039 0B       		.uleb128 0xb
 8868 003a 05       		.uleb128 0x5
 8869 003b 3A       		.uleb128 0x3a
 8870 003c 0B       		.uleb128 0xb
 8871 003d 3B       		.uleb128 0x3b
 8872 003e 0B       		.uleb128 0xb
 8873 003f 01       		.uleb128 0x1
 8874 0040 13       		.uleb128 0x13
 8875 0041 00       		.byte	0
 8876 0042 00       		.byte	0
 8877 0043 06       		.uleb128 0x6
 8878 0044 0D       		.uleb128 0xd
 8879 0045 00       		.byte	0
ARM GAS  C:\Users\jo\AppData\Local\Temp\ccyP7UZh.s 			page 160


 8880 0046 03       		.uleb128 0x3
 8881 0047 0E       		.uleb128 0xe
 8882 0048 3A       		.uleb128 0x3a
 8883 0049 0B       		.uleb128 0xb
 8884 004a 3B       		.uleb128 0x3b
 8885 004b 0B       		.uleb128 0xb
 8886 004c 49       		.uleb128 0x49
 8887 004d 13       		.uleb128 0x13
 8888 004e 38       		.uleb128 0x38
 8889 004f 0B       		.uleb128 0xb
 8890 0050 00       		.byte	0
 8891 0051 00       		.byte	0
 8892 0052 07       		.uleb128 0x7
 8893 0053 0D       		.uleb128 0xd
 8894 0054 00       		.byte	0
 8895 0055 03       		.uleb128 0x3
 8896 0056 0E       		.uleb128 0xe
 8897 0057 3A       		.uleb128 0x3a
 8898 0058 0B       		.uleb128 0xb
 8899 0059 3B       		.uleb128 0x3b
 8900 005a 0B       		.uleb128 0xb
 8901 005b 49       		.uleb128 0x49
 8902 005c 13       		.uleb128 0x13
 8903 005d 38       		.uleb128 0x38
 8904 005e 05       		.uleb128 0x5
 8905 005f 00       		.byte	0
 8906 0060 00       		.byte	0
 8907 0061 08       		.uleb128 0x8
 8908 0062 01       		.uleb128 0x1
 8909 0063 01       		.byte	0x1
 8910 0064 49       		.uleb128 0x49
 8911 0065 13       		.uleb128 0x13
 8912 0066 01       		.uleb128 0x1
 8913 0067 13       		.uleb128 0x13
 8914 0068 00       		.byte	0
 8915 0069 00       		.byte	0
 8916 006a 09       		.uleb128 0x9
 8917 006b 21       		.uleb128 0x21
 8918 006c 00       		.byte	0
 8919 006d 49       		.uleb128 0x49
 8920 006e 13       		.uleb128 0x13
 8921 006f 2F       		.uleb128 0x2f
 8922 0070 0B       		.uleb128 0xb
 8923 0071 00       		.byte	0
 8924 0072 00       		.byte	0
 8925 0073 0A       		.uleb128 0xa
 8926 0074 16       		.uleb128 0x16
 8927 0075 00       		.byte	0
 8928 0076 03       		.uleb128 0x3
 8929 0077 0E       		.uleb128 0xe
 8930 0078 3A       		.uleb128 0x3a
 8931 0079 0B       		.uleb128 0xb
 8932 007a 3B       		.uleb128 0x3b
 8933 007b 05       		.uleb128 0x5
 8934 007c 49       		.uleb128 0x49
 8935 007d 13       		.uleb128 0x13
 8936 007e 00       		.byte	0
ARM GAS  C:\Users\jo\AppData\Local\Temp\ccyP7UZh.s 			page 161


 8937 007f 00       		.byte	0
 8938 0080 0B       		.uleb128 0xb
 8939 0081 17       		.uleb128 0x17
 8940 0082 01       		.byte	0x1
 8941 0083 0B       		.uleb128 0xb
 8942 0084 0B       		.uleb128 0xb
 8943 0085 3A       		.uleb128 0x3a
 8944 0086 0B       		.uleb128 0xb
 8945 0087 3B       		.uleb128 0x3b
 8946 0088 0B       		.uleb128 0xb
 8947 0089 01       		.uleb128 0x1
 8948 008a 13       		.uleb128 0x13
 8949 008b 00       		.byte	0
 8950 008c 00       		.byte	0
 8951 008d 0C       		.uleb128 0xc
 8952 008e 0D       		.uleb128 0xd
 8953 008f 00       		.byte	0
 8954 0090 03       		.uleb128 0x3
 8955 0091 0E       		.uleb128 0xe
 8956 0092 3A       		.uleb128 0x3a
 8957 0093 0B       		.uleb128 0xb
 8958 0094 3B       		.uleb128 0x3b
 8959 0095 0B       		.uleb128 0xb
 8960 0096 49       		.uleb128 0x49
 8961 0097 13       		.uleb128 0x13
 8962 0098 00       		.byte	0
 8963 0099 00       		.byte	0
 8964 009a 0D       		.uleb128 0xd
 8965 009b 13       		.uleb128 0x13
 8966 009c 01       		.byte	0x1
 8967 009d 0B       		.uleb128 0xb
 8968 009e 0B       		.uleb128 0xb
 8969 009f 3A       		.uleb128 0x3a
 8970 00a0 0B       		.uleb128 0xb
 8971 00a1 3B       		.uleb128 0x3b
 8972 00a2 0B       		.uleb128 0xb
 8973 00a3 01       		.uleb128 0x1
 8974 00a4 13       		.uleb128 0x13
 8975 00a5 00       		.byte	0
 8976 00a6 00       		.byte	0
 8977 00a7 0E       		.uleb128 0xe
 8978 00a8 0F       		.uleb128 0xf
 8979 00a9 00       		.byte	0
 8980 00aa 0B       		.uleb128 0xb
 8981 00ab 0B       		.uleb128 0xb
 8982 00ac 00       		.byte	0
 8983 00ad 00       		.byte	0
 8984 00ae 0F       		.uleb128 0xf
 8985 00af 13       		.uleb128 0x13
 8986 00b0 01       		.byte	0x1
 8987 00b1 03       		.uleb128 0x3
 8988 00b2 0E       		.uleb128 0xe
 8989 00b3 0B       		.uleb128 0xb
 8990 00b4 0B       		.uleb128 0xb
 8991 00b5 3A       		.uleb128 0x3a
 8992 00b6 0B       		.uleb128 0xb
 8993 00b7 3B       		.uleb128 0x3b
ARM GAS  C:\Users\jo\AppData\Local\Temp\ccyP7UZh.s 			page 162


 8994 00b8 0B       		.uleb128 0xb
 8995 00b9 01       		.uleb128 0x1
 8996 00ba 13       		.uleb128 0x13
 8997 00bb 00       		.byte	0
 8998 00bc 00       		.byte	0
 8999 00bd 10       		.uleb128 0x10
 9000 00be 0D       		.uleb128 0xd
 9001 00bf 00       		.byte	0
 9002 00c0 03       		.uleb128 0x3
 9003 00c1 08       		.uleb128 0x8
 9004 00c2 3A       		.uleb128 0x3a
 9005 00c3 0B       		.uleb128 0xb
 9006 00c4 3B       		.uleb128 0x3b
 9007 00c5 0B       		.uleb128 0xb
 9008 00c6 49       		.uleb128 0x49
 9009 00c7 13       		.uleb128 0x13
 9010 00c8 38       		.uleb128 0x38
 9011 00c9 0B       		.uleb128 0xb
 9012 00ca 00       		.byte	0
 9013 00cb 00       		.byte	0
 9014 00cc 11       		.uleb128 0x11
 9015 00cd 0F       		.uleb128 0xf
 9016 00ce 00       		.byte	0
 9017 00cf 0B       		.uleb128 0xb
 9018 00d0 0B       		.uleb128 0xb
 9019 00d1 49       		.uleb128 0x49
 9020 00d2 13       		.uleb128 0x13
 9021 00d3 00       		.byte	0
 9022 00d4 00       		.byte	0
 9023 00d5 12       		.uleb128 0x12
 9024 00d6 13       		.uleb128 0x13
 9025 00d7 01       		.byte	0x1
 9026 00d8 03       		.uleb128 0x3
 9027 00d9 0E       		.uleb128 0xe
 9028 00da 0B       		.uleb128 0xb
 9029 00db 05       		.uleb128 0x5
 9030 00dc 3A       		.uleb128 0x3a
 9031 00dd 0B       		.uleb128 0xb
 9032 00de 3B       		.uleb128 0x3b
 9033 00df 0B       		.uleb128 0xb
 9034 00e0 01       		.uleb128 0x1
 9035 00e1 13       		.uleb128 0x13
 9036 00e2 00       		.byte	0
 9037 00e3 00       		.byte	0
 9038 00e4 13       		.uleb128 0x13
 9039 00e5 15       		.uleb128 0x15
 9040 00e6 00       		.byte	0
 9041 00e7 27       		.uleb128 0x27
 9042 00e8 19       		.uleb128 0x19
 9043 00e9 00       		.byte	0
 9044 00ea 00       		.byte	0
 9045 00eb 14       		.uleb128 0x14
 9046 00ec 15       		.uleb128 0x15
 9047 00ed 01       		.byte	0x1
 9048 00ee 27       		.uleb128 0x27
 9049 00ef 19       		.uleb128 0x19
 9050 00f0 49       		.uleb128 0x49
ARM GAS  C:\Users\jo\AppData\Local\Temp\ccyP7UZh.s 			page 163


 9051 00f1 13       		.uleb128 0x13
 9052 00f2 01       		.uleb128 0x1
 9053 00f3 13       		.uleb128 0x13
 9054 00f4 00       		.byte	0
 9055 00f5 00       		.byte	0
 9056 00f6 15       		.uleb128 0x15
 9057 00f7 05       		.uleb128 0x5
 9058 00f8 00       		.byte	0
 9059 00f9 49       		.uleb128 0x49
 9060 00fa 13       		.uleb128 0x13
 9061 00fb 00       		.byte	0
 9062 00fc 00       		.byte	0
 9063 00fd 16       		.uleb128 0x16
 9064 00fe 13       		.uleb128 0x13
 9065 00ff 01       		.byte	0x1
 9066 0100 03       		.uleb128 0x3
 9067 0101 0E       		.uleb128 0xe
 9068 0102 0B       		.uleb128 0xb
 9069 0103 05       		.uleb128 0x5
 9070 0104 3A       		.uleb128 0x3a
 9071 0105 0B       		.uleb128 0xb
 9072 0106 3B       		.uleb128 0x3b
 9073 0107 05       		.uleb128 0x5
 9074 0108 01       		.uleb128 0x1
 9075 0109 13       		.uleb128 0x13
 9076 010a 00       		.byte	0
 9077 010b 00       		.byte	0
 9078 010c 17       		.uleb128 0x17
 9079 010d 0D       		.uleb128 0xd
 9080 010e 00       		.byte	0
 9081 010f 03       		.uleb128 0x3
 9082 0110 0E       		.uleb128 0xe
 9083 0111 3A       		.uleb128 0x3a
 9084 0112 0B       		.uleb128 0xb
 9085 0113 3B       		.uleb128 0x3b
 9086 0114 05       		.uleb128 0x5
 9087 0115 49       		.uleb128 0x49
 9088 0116 13       		.uleb128 0x13
 9089 0117 38       		.uleb128 0x38
 9090 0118 0B       		.uleb128 0xb
 9091 0119 00       		.byte	0
 9092 011a 00       		.byte	0
 9093 011b 18       		.uleb128 0x18
 9094 011c 0D       		.uleb128 0xd
 9095 011d 00       		.byte	0
 9096 011e 03       		.uleb128 0x3
 9097 011f 0E       		.uleb128 0xe
 9098 0120 3A       		.uleb128 0x3a
 9099 0121 0B       		.uleb128 0xb
 9100 0122 3B       		.uleb128 0x3b
 9101 0123 05       		.uleb128 0x5
 9102 0124 49       		.uleb128 0x49
 9103 0125 13       		.uleb128 0x13
 9104 0126 38       		.uleb128 0x38
 9105 0127 05       		.uleb128 0x5
 9106 0128 00       		.byte	0
 9107 0129 00       		.byte	0
ARM GAS  C:\Users\jo\AppData\Local\Temp\ccyP7UZh.s 			page 164


 9108 012a 19       		.uleb128 0x19
 9109 012b 26       		.uleb128 0x26
 9110 012c 00       		.byte	0
 9111 012d 49       		.uleb128 0x49
 9112 012e 13       		.uleb128 0x13
 9113 012f 00       		.byte	0
 9114 0130 00       		.byte	0
 9115 0131 1A       		.uleb128 0x1a
 9116 0132 13       		.uleb128 0x13
 9117 0133 01       		.byte	0x1
 9118 0134 03       		.uleb128 0x3
 9119 0135 0E       		.uleb128 0xe
 9120 0136 0B       		.uleb128 0xb
 9121 0137 0B       		.uleb128 0xb
 9122 0138 3A       		.uleb128 0x3a
 9123 0139 0B       		.uleb128 0xb
 9124 013a 3B       		.uleb128 0x3b
 9125 013b 05       		.uleb128 0x5
 9126 013c 01       		.uleb128 0x1
 9127 013d 13       		.uleb128 0x13
 9128 013e 00       		.byte	0
 9129 013f 00       		.byte	0
 9130 0140 1B       		.uleb128 0x1b
 9131 0141 13       		.uleb128 0x13
 9132 0142 01       		.byte	0x1
 9133 0143 0B       		.uleb128 0xb
 9134 0144 0B       		.uleb128 0xb
 9135 0145 3A       		.uleb128 0x3a
 9136 0146 0B       		.uleb128 0xb
 9137 0147 3B       		.uleb128 0x3b
 9138 0148 05       		.uleb128 0x5
 9139 0149 01       		.uleb128 0x1
 9140 014a 13       		.uleb128 0x13
 9141 014b 00       		.byte	0
 9142 014c 00       		.byte	0
 9143 014d 1C       		.uleb128 0x1c
 9144 014e 17       		.uleb128 0x17
 9145 014f 01       		.byte	0x1
 9146 0150 0B       		.uleb128 0xb
 9147 0151 0B       		.uleb128 0xb
 9148 0152 3A       		.uleb128 0x3a
 9149 0153 0B       		.uleb128 0xb
 9150 0154 3B       		.uleb128 0x3b
 9151 0155 05       		.uleb128 0x5
 9152 0156 01       		.uleb128 0x1
 9153 0157 13       		.uleb128 0x13
 9154 0158 00       		.byte	0
 9155 0159 00       		.byte	0
 9156 015a 1D       		.uleb128 0x1d
 9157 015b 0D       		.uleb128 0xd
 9158 015c 00       		.byte	0
 9159 015d 03       		.uleb128 0x3
 9160 015e 0E       		.uleb128 0xe
 9161 015f 3A       		.uleb128 0x3a
 9162 0160 0B       		.uleb128 0xb
 9163 0161 3B       		.uleb128 0x3b
 9164 0162 05       		.uleb128 0x5
ARM GAS  C:\Users\jo\AppData\Local\Temp\ccyP7UZh.s 			page 165


 9165 0163 49       		.uleb128 0x49
 9166 0164 13       		.uleb128 0x13
 9167 0165 00       		.byte	0
 9168 0166 00       		.byte	0
 9169 0167 1E       		.uleb128 0x1e
 9170 0168 15       		.uleb128 0x15
 9171 0169 01       		.byte	0x1
 9172 016a 27       		.uleb128 0x27
 9173 016b 19       		.uleb128 0x19
 9174 016c 01       		.uleb128 0x1
 9175 016d 13       		.uleb128 0x13
 9176 016e 00       		.byte	0
 9177 016f 00       		.byte	0
 9178 0170 1F       		.uleb128 0x1f
 9179 0171 26       		.uleb128 0x26
 9180 0172 00       		.byte	0
 9181 0173 00       		.byte	0
 9182 0174 00       		.byte	0
 9183 0175 20       		.uleb128 0x20
 9184 0176 2E       		.uleb128 0x2e
 9185 0177 01       		.byte	0x1
 9186 0178 03       		.uleb128 0x3
 9187 0179 0E       		.uleb128 0xe
 9188 017a 3A       		.uleb128 0x3a
 9189 017b 0B       		.uleb128 0xb
 9190 017c 3B       		.uleb128 0x3b
 9191 017d 0B       		.uleb128 0xb
 9192 017e 27       		.uleb128 0x27
 9193 017f 19       		.uleb128 0x19
 9194 0180 20       		.uleb128 0x20
 9195 0181 0B       		.uleb128 0xb
 9196 0182 01       		.uleb128 0x1
 9197 0183 13       		.uleb128 0x13
 9198 0184 00       		.byte	0
 9199 0185 00       		.byte	0
 9200 0186 21       		.uleb128 0x21
 9201 0187 05       		.uleb128 0x5
 9202 0188 00       		.byte	0
 9203 0189 03       		.uleb128 0x3
 9204 018a 08       		.uleb128 0x8
 9205 018b 3A       		.uleb128 0x3a
 9206 018c 0B       		.uleb128 0xb
 9207 018d 3B       		.uleb128 0x3b
 9208 018e 0B       		.uleb128 0xb
 9209 018f 49       		.uleb128 0x49
 9210 0190 13       		.uleb128 0x13
 9211 0191 00       		.byte	0
 9212 0192 00       		.byte	0
 9213 0193 22       		.uleb128 0x22
 9214 0194 34       		.uleb128 0x34
 9215 0195 00       		.byte	0
 9216 0196 03       		.uleb128 0x3
 9217 0197 08       		.uleb128 0x8
 9218 0198 3A       		.uleb128 0x3a
 9219 0199 0B       		.uleb128 0xb
 9220 019a 3B       		.uleb128 0x3b
 9221 019b 0B       		.uleb128 0xb
ARM GAS  C:\Users\jo\AppData\Local\Temp\ccyP7UZh.s 			page 166


 9222 019c 49       		.uleb128 0x49
 9223 019d 13       		.uleb128 0x13
 9224 019e 00       		.byte	0
 9225 019f 00       		.byte	0
 9226 01a0 23       		.uleb128 0x23
 9227 01a1 35       		.uleb128 0x35
 9228 01a2 00       		.byte	0
 9229 01a3 49       		.uleb128 0x49
 9230 01a4 13       		.uleb128 0x13
 9231 01a5 00       		.byte	0
 9232 01a6 00       		.byte	0
 9233 01a7 24       		.uleb128 0x24
 9234 01a8 2E       		.uleb128 0x2e
 9235 01a9 01       		.byte	0x1
 9236 01aa 3F       		.uleb128 0x3f
 9237 01ab 19       		.uleb128 0x19
 9238 01ac 03       		.uleb128 0x3
 9239 01ad 0E       		.uleb128 0xe
 9240 01ae 3A       		.uleb128 0x3a
 9241 01af 0B       		.uleb128 0xb
 9242 01b0 3B       		.uleb128 0x3b
 9243 01b1 05       		.uleb128 0x5
 9244 01b2 27       		.uleb128 0x27
 9245 01b3 19       		.uleb128 0x19
 9246 01b4 20       		.uleb128 0x20
 9247 01b5 0B       		.uleb128 0xb
 9248 01b6 01       		.uleb128 0x1
 9249 01b7 13       		.uleb128 0x13
 9250 01b8 00       		.byte	0
 9251 01b9 00       		.byte	0
 9252 01ba 25       		.uleb128 0x25
 9253 01bb 05       		.uleb128 0x5
 9254 01bc 00       		.byte	0
 9255 01bd 03       		.uleb128 0x3
 9256 01be 08       		.uleb128 0x8
 9257 01bf 3A       		.uleb128 0x3a
 9258 01c0 0B       		.uleb128 0xb
 9259 01c1 3B       		.uleb128 0x3b
 9260 01c2 05       		.uleb128 0x5
 9261 01c3 49       		.uleb128 0x49
 9262 01c4 13       		.uleb128 0x13
 9263 01c5 00       		.byte	0
 9264 01c6 00       		.byte	0
 9265 01c7 26       		.uleb128 0x26
 9266 01c8 05       		.uleb128 0x5
 9267 01c9 00       		.byte	0
 9268 01ca 03       		.uleb128 0x3
 9269 01cb 0E       		.uleb128 0xe
 9270 01cc 3A       		.uleb128 0x3a
 9271 01cd 0B       		.uleb128 0xb
 9272 01ce 3B       		.uleb128 0x3b
 9273 01cf 05       		.uleb128 0x5
 9274 01d0 49       		.uleb128 0x49
 9275 01d1 13       		.uleb128 0x13
 9276 01d2 00       		.byte	0
 9277 01d3 00       		.byte	0
 9278 01d4 27       		.uleb128 0x27
ARM GAS  C:\Users\jo\AppData\Local\Temp\ccyP7UZh.s 			page 167


 9279 01d5 34       		.uleb128 0x34
 9280 01d6 00       		.byte	0
 9281 01d7 03       		.uleb128 0x3
 9282 01d8 0E       		.uleb128 0xe
 9283 01d9 3A       		.uleb128 0x3a
 9284 01da 0B       		.uleb128 0xb
 9285 01db 3B       		.uleb128 0x3b
 9286 01dc 05       		.uleb128 0x5
 9287 01dd 49       		.uleb128 0x49
 9288 01de 13       		.uleb128 0x13
 9289 01df 00       		.byte	0
 9290 01e0 00       		.byte	0
 9291 01e1 28       		.uleb128 0x28
 9292 01e2 2E       		.uleb128 0x2e
 9293 01e3 01       		.byte	0x1
 9294 01e4 3F       		.uleb128 0x3f
 9295 01e5 19       		.uleb128 0x19
 9296 01e6 03       		.uleb128 0x3
 9297 01e7 0E       		.uleb128 0xe
 9298 01e8 3A       		.uleb128 0x3a
 9299 01e9 0B       		.uleb128 0xb
 9300 01ea 3B       		.uleb128 0x3b
 9301 01eb 0B       		.uleb128 0xb
 9302 01ec 27       		.uleb128 0x27
 9303 01ed 19       		.uleb128 0x19
 9304 01ee 20       		.uleb128 0x20
 9305 01ef 0B       		.uleb128 0xb
 9306 01f0 01       		.uleb128 0x1
 9307 01f1 13       		.uleb128 0x13
 9308 01f2 00       		.byte	0
 9309 01f3 00       		.byte	0
 9310 01f4 29       		.uleb128 0x29
 9311 01f5 2E       		.uleb128 0x2e
 9312 01f6 01       		.byte	0x1
 9313 01f7 31       		.uleb128 0x31
 9314 01f8 13       		.uleb128 0x13
 9315 01f9 11       		.uleb128 0x11
 9316 01fa 01       		.uleb128 0x1
 9317 01fb 12       		.uleb128 0x12
 9318 01fc 06       		.uleb128 0x6
 9319 01fd 40       		.uleb128 0x40
 9320 01fe 18       		.uleb128 0x18
 9321 01ff 9742     		.uleb128 0x2117
 9322 0201 19       		.uleb128 0x19
 9323 0202 01       		.uleb128 0x1
 9324 0203 13       		.uleb128 0x13
 9325 0204 00       		.byte	0
 9326 0205 00       		.byte	0
 9327 0206 2A       		.uleb128 0x2a
 9328 0207 05       		.uleb128 0x5
 9329 0208 00       		.byte	0
 9330 0209 31       		.uleb128 0x31
 9331 020a 13       		.uleb128 0x13
 9332 020b 02       		.uleb128 0x2
 9333 020c 17       		.uleb128 0x17
 9334 020d 00       		.byte	0
 9335 020e 00       		.byte	0
ARM GAS  C:\Users\jo\AppData\Local\Temp\ccyP7UZh.s 			page 168


 9336 020f 2B       		.uleb128 0x2b
 9337 0210 898201   		.uleb128 0x4109
 9338 0213 01       		.byte	0x1
 9339 0214 11       		.uleb128 0x11
 9340 0215 01       		.uleb128 0x1
 9341 0216 9542     		.uleb128 0x2115
 9342 0218 19       		.uleb128 0x19
 9343 0219 31       		.uleb128 0x31
 9344 021a 13       		.uleb128 0x13
 9345 021b 00       		.byte	0
 9346 021c 00       		.byte	0
 9347 021d 2C       		.uleb128 0x2c
 9348 021e 8A8201   		.uleb128 0x410a
 9349 0221 00       		.byte	0
 9350 0222 02       		.uleb128 0x2
 9351 0223 18       		.uleb128 0x18
 9352 0224 9142     		.uleb128 0x2111
 9353 0226 18       		.uleb128 0x18
 9354 0227 00       		.byte	0
 9355 0228 00       		.byte	0
 9356 0229 2D       		.uleb128 0x2d
 9357 022a 1D       		.uleb128 0x1d
 9358 022b 01       		.byte	0x1
 9359 022c 31       		.uleb128 0x31
 9360 022d 13       		.uleb128 0x13
 9361 022e 11       		.uleb128 0x11
 9362 022f 01       		.uleb128 0x1
 9363 0230 12       		.uleb128 0x12
 9364 0231 06       		.uleb128 0x6
 9365 0232 58       		.uleb128 0x58
 9366 0233 0B       		.uleb128 0xb
 9367 0234 59       		.uleb128 0x59
 9368 0235 0B       		.uleb128 0xb
 9369 0236 00       		.byte	0
 9370 0237 00       		.byte	0
 9371 0238 2E       		.uleb128 0x2e
 9372 0239 05       		.uleb128 0x5
 9373 023a 00       		.byte	0
 9374 023b 31       		.uleb128 0x31
 9375 023c 13       		.uleb128 0x13
 9376 023d 00       		.byte	0
 9377 023e 00       		.byte	0
 9378 023f 2F       		.uleb128 0x2f
 9379 0240 0B       		.uleb128 0xb
 9380 0241 01       		.byte	0x1
 9381 0242 11       		.uleb128 0x11
 9382 0243 01       		.uleb128 0x1
 9383 0244 12       		.uleb128 0x12
 9384 0245 06       		.uleb128 0x6
 9385 0246 00       		.byte	0
 9386 0247 00       		.byte	0
 9387 0248 30       		.uleb128 0x30
 9388 0249 34       		.uleb128 0x34
 9389 024a 00       		.byte	0
 9390 024b 31       		.uleb128 0x31
 9391 024c 13       		.uleb128 0x13
 9392 024d 02       		.uleb128 0x2
ARM GAS  C:\Users\jo\AppData\Local\Temp\ccyP7UZh.s 			page 169


 9393 024e 17       		.uleb128 0x17
 9394 024f 00       		.byte	0
 9395 0250 00       		.byte	0
 9396 0251 31       		.uleb128 0x31
 9397 0252 2E       		.uleb128 0x2e
 9398 0253 01       		.byte	0x1
 9399 0254 3F       		.uleb128 0x3f
 9400 0255 19       		.uleb128 0x19
 9401 0256 03       		.uleb128 0x3
 9402 0257 0E       		.uleb128 0xe
 9403 0258 3A       		.uleb128 0x3a
 9404 0259 0B       		.uleb128 0xb
 9405 025a 3B       		.uleb128 0x3b
 9406 025b 0B       		.uleb128 0xb
 9407 025c 27       		.uleb128 0x27
 9408 025d 19       		.uleb128 0x19
 9409 025e 11       		.uleb128 0x11
 9410 025f 01       		.uleb128 0x1
 9411 0260 12       		.uleb128 0x12
 9412 0261 06       		.uleb128 0x6
 9413 0262 40       		.uleb128 0x40
 9414 0263 18       		.uleb128 0x18
 9415 0264 9742     		.uleb128 0x2117
 9416 0266 19       		.uleb128 0x19
 9417 0267 01       		.uleb128 0x1
 9418 0268 13       		.uleb128 0x13
 9419 0269 00       		.byte	0
 9420 026a 00       		.byte	0
 9421 026b 32       		.uleb128 0x32
 9422 026c 05       		.uleb128 0x5
 9423 026d 00       		.byte	0
 9424 026e 03       		.uleb128 0x3
 9425 026f 08       		.uleb128 0x8
 9426 0270 3A       		.uleb128 0x3a
 9427 0271 0B       		.uleb128 0xb
 9428 0272 3B       		.uleb128 0x3b
 9429 0273 0B       		.uleb128 0xb
 9430 0274 49       		.uleb128 0x49
 9431 0275 13       		.uleb128 0x13
 9432 0276 02       		.uleb128 0x2
 9433 0277 17       		.uleb128 0x17
 9434 0278 00       		.byte	0
 9435 0279 00       		.byte	0
 9436 027a 33       		.uleb128 0x33
 9437 027b 05       		.uleb128 0x5
 9438 027c 00       		.byte	0
 9439 027d 03       		.uleb128 0x3
 9440 027e 0E       		.uleb128 0xe
 9441 027f 3A       		.uleb128 0x3a
 9442 0280 0B       		.uleb128 0xb
 9443 0281 3B       		.uleb128 0x3b
 9444 0282 0B       		.uleb128 0xb
 9445 0283 49       		.uleb128 0x49
 9446 0284 13       		.uleb128 0x13
 9447 0285 02       		.uleb128 0x2
 9448 0286 18       		.uleb128 0x18
 9449 0287 00       		.byte	0
ARM GAS  C:\Users\jo\AppData\Local\Temp\ccyP7UZh.s 			page 170


 9450 0288 00       		.byte	0
 9451 0289 34       		.uleb128 0x34
 9452 028a 05       		.uleb128 0x5
 9453 028b 00       		.byte	0
 9454 028c 03       		.uleb128 0x3
 9455 028d 0E       		.uleb128 0xe
 9456 028e 3A       		.uleb128 0x3a
 9457 028f 0B       		.uleb128 0xb
 9458 0290 3B       		.uleb128 0x3b
 9459 0291 0B       		.uleb128 0xb
 9460 0292 49       		.uleb128 0x49
 9461 0293 13       		.uleb128 0x13
 9462 0294 02       		.uleb128 0x2
 9463 0295 17       		.uleb128 0x17
 9464 0296 00       		.byte	0
 9465 0297 00       		.byte	0
 9466 0298 35       		.uleb128 0x35
 9467 0299 34       		.uleb128 0x34
 9468 029a 00       		.byte	0
 9469 029b 03       		.uleb128 0x3
 9470 029c 08       		.uleb128 0x8
 9471 029d 3A       		.uleb128 0x3a
 9472 029e 0B       		.uleb128 0xb
 9473 029f 3B       		.uleb128 0x3b
 9474 02a0 0B       		.uleb128 0xb
 9475 02a1 49       		.uleb128 0x49
 9476 02a2 13       		.uleb128 0x13
 9477 02a3 02       		.uleb128 0x2
 9478 02a4 17       		.uleb128 0x17
 9479 02a5 00       		.byte	0
 9480 02a6 00       		.byte	0
 9481 02a7 36       		.uleb128 0x36
 9482 02a8 34       		.uleb128 0x34
 9483 02a9 00       		.byte	0
 9484 02aa 03       		.uleb128 0x3
 9485 02ab 0E       		.uleb128 0xe
 9486 02ac 3A       		.uleb128 0x3a
 9487 02ad 0B       		.uleb128 0xb
 9488 02ae 3B       		.uleb128 0x3b
 9489 02af 0B       		.uleb128 0xb
 9490 02b0 49       		.uleb128 0x49
 9491 02b1 13       		.uleb128 0x13
 9492 02b2 02       		.uleb128 0x2
 9493 02b3 17       		.uleb128 0x17
 9494 02b4 00       		.byte	0
 9495 02b5 00       		.byte	0
 9496 02b6 37       		.uleb128 0x37
 9497 02b7 34       		.uleb128 0x34
 9498 02b8 00       		.byte	0
 9499 02b9 03       		.uleb128 0x3
 9500 02ba 08       		.uleb128 0x8
 9501 02bb 3A       		.uleb128 0x3a
 9502 02bc 0B       		.uleb128 0xb
 9503 02bd 3B       		.uleb128 0x3b
 9504 02be 0B       		.uleb128 0xb
 9505 02bf 49       		.uleb128 0x49
 9506 02c0 13       		.uleb128 0x13
ARM GAS  C:\Users\jo\AppData\Local\Temp\ccyP7UZh.s 			page 171


 9507 02c1 02       		.uleb128 0x2
 9508 02c2 18       		.uleb128 0x18
 9509 02c3 00       		.byte	0
 9510 02c4 00       		.byte	0
 9511 02c5 38       		.uleb128 0x38
 9512 02c6 898201   		.uleb128 0x4109
 9513 02c9 01       		.byte	0x1
 9514 02ca 11       		.uleb128 0x11
 9515 02cb 01       		.uleb128 0x1
 9516 02cc 31       		.uleb128 0x31
 9517 02cd 13       		.uleb128 0x13
 9518 02ce 01       		.uleb128 0x1
 9519 02cf 13       		.uleb128 0x13
 9520 02d0 00       		.byte	0
 9521 02d1 00       		.byte	0
 9522 02d2 39       		.uleb128 0x39
 9523 02d3 898201   		.uleb128 0x4109
 9524 02d6 00       		.byte	0
 9525 02d7 11       		.uleb128 0x11
 9526 02d8 01       		.uleb128 0x1
 9527 02d9 9542     		.uleb128 0x2115
 9528 02db 19       		.uleb128 0x19
 9529 02dc 31       		.uleb128 0x31
 9530 02dd 13       		.uleb128 0x13
 9531 02de 00       		.byte	0
 9532 02df 00       		.byte	0
 9533 02e0 3A       		.uleb128 0x3a
 9534 02e1 34       		.uleb128 0x34
 9535 02e2 00       		.byte	0
 9536 02e3 31       		.uleb128 0x31
 9537 02e4 13       		.uleb128 0x13
 9538 02e5 00       		.byte	0
 9539 02e6 00       		.byte	0
 9540 02e7 3B       		.uleb128 0x3b
 9541 02e8 2E       		.uleb128 0x2e
 9542 02e9 01       		.byte	0x1
 9543 02ea 3F       		.uleb128 0x3f
 9544 02eb 19       		.uleb128 0x19
 9545 02ec 03       		.uleb128 0x3
 9546 02ed 0E       		.uleb128 0xe
 9547 02ee 3A       		.uleb128 0x3a
 9548 02ef 0B       		.uleb128 0xb
 9549 02f0 3B       		.uleb128 0x3b
 9550 02f1 05       		.uleb128 0x5
 9551 02f2 27       		.uleb128 0x27
 9552 02f3 19       		.uleb128 0x19
 9553 02f4 11       		.uleb128 0x11
 9554 02f5 01       		.uleb128 0x1
 9555 02f6 12       		.uleb128 0x12
 9556 02f7 06       		.uleb128 0x6
 9557 02f8 40       		.uleb128 0x40
 9558 02f9 18       		.uleb128 0x18
 9559 02fa 9742     		.uleb128 0x2117
 9560 02fc 19       		.uleb128 0x19
 9561 02fd 01       		.uleb128 0x1
 9562 02fe 13       		.uleb128 0x13
 9563 02ff 00       		.byte	0
ARM GAS  C:\Users\jo\AppData\Local\Temp\ccyP7UZh.s 			page 172


 9564 0300 00       		.byte	0
 9565 0301 3C       		.uleb128 0x3c
 9566 0302 05       		.uleb128 0x5
 9567 0303 00       		.byte	0
 9568 0304 03       		.uleb128 0x3
 9569 0305 08       		.uleb128 0x8
 9570 0306 3A       		.uleb128 0x3a
 9571 0307 0B       		.uleb128 0xb
 9572 0308 3B       		.uleb128 0x3b
 9573 0309 05       		.uleb128 0x5
 9574 030a 49       		.uleb128 0x49
 9575 030b 13       		.uleb128 0x13
 9576 030c 02       		.uleb128 0x2
 9577 030d 17       		.uleb128 0x17
 9578 030e 00       		.byte	0
 9579 030f 00       		.byte	0
 9580 0310 3D       		.uleb128 0x3d
 9581 0311 05       		.uleb128 0x5
 9582 0312 00       		.byte	0
 9583 0313 03       		.uleb128 0x3
 9584 0314 0E       		.uleb128 0xe
 9585 0315 3A       		.uleb128 0x3a
 9586 0316 0B       		.uleb128 0xb
 9587 0317 3B       		.uleb128 0x3b
 9588 0318 05       		.uleb128 0x5
 9589 0319 49       		.uleb128 0x49
 9590 031a 13       		.uleb128 0x13
 9591 031b 02       		.uleb128 0x2
 9592 031c 17       		.uleb128 0x17
 9593 031d 00       		.byte	0
 9594 031e 00       		.byte	0
 9595 031f 3E       		.uleb128 0x3e
 9596 0320 34       		.uleb128 0x34
 9597 0321 00       		.byte	0
 9598 0322 03       		.uleb128 0x3
 9599 0323 0E       		.uleb128 0xe
 9600 0324 3A       		.uleb128 0x3a
 9601 0325 0B       		.uleb128 0xb
 9602 0326 3B       		.uleb128 0x3b
 9603 0327 05       		.uleb128 0x5
 9604 0328 49       		.uleb128 0x49
 9605 0329 13       		.uleb128 0x13
 9606 032a 02       		.uleb128 0x2
 9607 032b 17       		.uleb128 0x17
 9608 032c 00       		.byte	0
 9609 032d 00       		.byte	0
 9610 032e 3F       		.uleb128 0x3f
 9611 032f 34       		.uleb128 0x34
 9612 0330 00       		.byte	0
 9613 0331 03       		.uleb128 0x3
 9614 0332 08       		.uleb128 0x8
 9615 0333 3A       		.uleb128 0x3a
 9616 0334 0B       		.uleb128 0xb
 9617 0335 3B       		.uleb128 0x3b
 9618 0336 05       		.uleb128 0x5
 9619 0337 49       		.uleb128 0x49
 9620 0338 13       		.uleb128 0x13
ARM GAS  C:\Users\jo\AppData\Local\Temp\ccyP7UZh.s 			page 173


 9621 0339 02       		.uleb128 0x2
 9622 033a 17       		.uleb128 0x17
 9623 033b 00       		.byte	0
 9624 033c 00       		.byte	0
 9625 033d 40       		.uleb128 0x40
 9626 033e 34       		.uleb128 0x34
 9627 033f 00       		.byte	0
 9628 0340 03       		.uleb128 0x3
 9629 0341 0E       		.uleb128 0xe
 9630 0342 3A       		.uleb128 0x3a
 9631 0343 0B       		.uleb128 0xb
 9632 0344 3B       		.uleb128 0x3b
 9633 0345 05       		.uleb128 0x5
 9634 0346 49       		.uleb128 0x49
 9635 0347 13       		.uleb128 0x13
 9636 0348 02       		.uleb128 0x2
 9637 0349 18       		.uleb128 0x18
 9638 034a 00       		.byte	0
 9639 034b 00       		.byte	0
 9640 034c 41       		.uleb128 0x41
 9641 034d 1D       		.uleb128 0x1d
 9642 034e 01       		.byte	0x1
 9643 034f 31       		.uleb128 0x31
 9644 0350 13       		.uleb128 0x13
 9645 0351 52       		.uleb128 0x52
 9646 0352 01       		.uleb128 0x1
 9647 0353 55       		.uleb128 0x55
 9648 0354 17       		.uleb128 0x17
 9649 0355 58       		.uleb128 0x58
 9650 0356 0B       		.uleb128 0xb
 9651 0357 59       		.uleb128 0x59
 9652 0358 05       		.uleb128 0x5
 9653 0359 01       		.uleb128 0x1
 9654 035a 13       		.uleb128 0x13
 9655 035b 00       		.byte	0
 9656 035c 00       		.byte	0
 9657 035d 42       		.uleb128 0x42
 9658 035e 05       		.uleb128 0x5
 9659 035f 00       		.byte	0
 9660 0360 31       		.uleb128 0x31
 9661 0361 13       		.uleb128 0x13
 9662 0362 02       		.uleb128 0x2
 9663 0363 18       		.uleb128 0x18
 9664 0364 00       		.byte	0
 9665 0365 00       		.byte	0
 9666 0366 43       		.uleb128 0x43
 9667 0367 0B       		.uleb128 0xb
 9668 0368 01       		.byte	0x1
 9669 0369 55       		.uleb128 0x55
 9670 036a 17       		.uleb128 0x17
 9671 036b 00       		.byte	0
 9672 036c 00       		.byte	0
 9673 036d 44       		.uleb128 0x44
 9674 036e 898201   		.uleb128 0x4109
 9675 0371 01       		.byte	0x1
 9676 0372 11       		.uleb128 0x11
 9677 0373 01       		.uleb128 0x1
ARM GAS  C:\Users\jo\AppData\Local\Temp\ccyP7UZh.s 			page 174


 9678 0374 31       		.uleb128 0x31
 9679 0375 13       		.uleb128 0x13
 9680 0376 00       		.byte	0
 9681 0377 00       		.byte	0
 9682 0378 45       		.uleb128 0x45
 9683 0379 1D       		.uleb128 0x1d
 9684 037a 01       		.byte	0x1
 9685 037b 31       		.uleb128 0x31
 9686 037c 13       		.uleb128 0x13
 9687 037d 11       		.uleb128 0x11
 9688 037e 01       		.uleb128 0x1
 9689 037f 12       		.uleb128 0x12
 9690 0380 06       		.uleb128 0x6
 9691 0381 58       		.uleb128 0x58
 9692 0382 0B       		.uleb128 0xb
 9693 0383 59       		.uleb128 0x59
 9694 0384 05       		.uleb128 0x5
 9695 0385 00       		.byte	0
 9696 0386 00       		.byte	0
 9697 0387 46       		.uleb128 0x46
 9698 0388 05       		.uleb128 0x5
 9699 0389 00       		.byte	0
 9700 038a 31       		.uleb128 0x31
 9701 038b 13       		.uleb128 0x13
 9702 038c 1C       		.uleb128 0x1c
 9703 038d 0B       		.uleb128 0xb
 9704 038e 00       		.byte	0
 9705 038f 00       		.byte	0
 9706 0390 47       		.uleb128 0x47
 9707 0391 34       		.uleb128 0x34
 9708 0392 00       		.byte	0
 9709 0393 03       		.uleb128 0x3
 9710 0394 08       		.uleb128 0x8
 9711 0395 3A       		.uleb128 0x3a
 9712 0396 0B       		.uleb128 0xb
 9713 0397 3B       		.uleb128 0x3b
 9714 0398 05       		.uleb128 0x5
 9715 0399 49       		.uleb128 0x49
 9716 039a 13       		.uleb128 0x13
 9717 039b 02       		.uleb128 0x2
 9718 039c 18       		.uleb128 0x18
 9719 039d 00       		.byte	0
 9720 039e 00       		.byte	0
 9721 039f 48       		.uleb128 0x48
 9722 03a0 1D       		.uleb128 0x1d
 9723 03a1 01       		.byte	0x1
 9724 03a2 31       		.uleb128 0x31
 9725 03a3 13       		.uleb128 0x13
 9726 03a4 11       		.uleb128 0x11
 9727 03a5 01       		.uleb128 0x1
 9728 03a6 12       		.uleb128 0x12
 9729 03a7 06       		.uleb128 0x6
 9730 03a8 58       		.uleb128 0x58
 9731 03a9 0B       		.uleb128 0xb
 9732 03aa 59       		.uleb128 0x59
 9733 03ab 05       		.uleb128 0x5
 9734 03ac 01       		.uleb128 0x1
ARM GAS  C:\Users\jo\AppData\Local\Temp\ccyP7UZh.s 			page 175


 9735 03ad 13       		.uleb128 0x13
 9736 03ae 00       		.byte	0
 9737 03af 00       		.byte	0
 9738 03b0 49       		.uleb128 0x49
 9739 03b1 2E       		.uleb128 0x2e
 9740 03b2 01       		.byte	0x1
 9741 03b3 3F       		.uleb128 0x3f
 9742 03b4 19       		.uleb128 0x19
 9743 03b5 03       		.uleb128 0x3
 9744 03b6 0E       		.uleb128 0xe
 9745 03b7 3A       		.uleb128 0x3a
 9746 03b8 0B       		.uleb128 0xb
 9747 03b9 3B       		.uleb128 0x3b
 9748 03ba 05       		.uleb128 0x5
 9749 03bb 27       		.uleb128 0x27
 9750 03bc 19       		.uleb128 0x19
 9751 03bd 49       		.uleb128 0x49
 9752 03be 13       		.uleb128 0x13
 9753 03bf 11       		.uleb128 0x11
 9754 03c0 01       		.uleb128 0x1
 9755 03c1 12       		.uleb128 0x12
 9756 03c2 06       		.uleb128 0x6
 9757 03c3 40       		.uleb128 0x40
 9758 03c4 18       		.uleb128 0x18
 9759 03c5 9742     		.uleb128 0x2117
 9760 03c7 19       		.uleb128 0x19
 9761 03c8 01       		.uleb128 0x1
 9762 03c9 13       		.uleb128 0x13
 9763 03ca 00       		.byte	0
 9764 03cb 00       		.byte	0
 9765 03cc 4A       		.uleb128 0x4a
 9766 03cd 898201   		.uleb128 0x4109
 9767 03d0 00       		.byte	0
 9768 03d1 11       		.uleb128 0x11
 9769 03d2 01       		.uleb128 0x1
 9770 03d3 31       		.uleb128 0x31
 9771 03d4 13       		.uleb128 0x13
 9772 03d5 00       		.byte	0
 9773 03d6 00       		.byte	0
 9774 03d7 4B       		.uleb128 0x4b
 9775 03d8 21       		.uleb128 0x21
 9776 03d9 00       		.byte	0
 9777 03da 49       		.uleb128 0x49
 9778 03db 13       		.uleb128 0x13
 9779 03dc 2F       		.uleb128 0x2f
 9780 03dd 05       		.uleb128 0x5
 9781 03de 00       		.byte	0
 9782 03df 00       		.byte	0
 9783 03e0 4C       		.uleb128 0x4c
 9784 03e1 1D       		.uleb128 0x1d
 9785 03e2 01       		.byte	0x1
 9786 03e3 31       		.uleb128 0x31
 9787 03e4 13       		.uleb128 0x13
 9788 03e5 52       		.uleb128 0x52
 9789 03e6 01       		.uleb128 0x1
 9790 03e7 55       		.uleb128 0x55
 9791 03e8 17       		.uleb128 0x17
ARM GAS  C:\Users\jo\AppData\Local\Temp\ccyP7UZh.s 			page 176


 9792 03e9 58       		.uleb128 0x58
 9793 03ea 0B       		.uleb128 0xb
 9794 03eb 59       		.uleb128 0x59
 9795 03ec 05       		.uleb128 0x5
 9796 03ed 00       		.byte	0
 9797 03ee 00       		.byte	0
 9798 03ef 4D       		.uleb128 0x4d
 9799 03f0 0A       		.uleb128 0xa
 9800 03f1 00       		.byte	0
 9801 03f2 03       		.uleb128 0x3
 9802 03f3 0E       		.uleb128 0xe
 9803 03f4 3A       		.uleb128 0x3a
 9804 03f5 0B       		.uleb128 0xb
 9805 03f6 3B       		.uleb128 0x3b
 9806 03f7 05       		.uleb128 0x5
 9807 03f8 11       		.uleb128 0x11
 9808 03f9 01       		.uleb128 0x1
 9809 03fa 00       		.byte	0
 9810 03fb 00       		.byte	0
 9811 03fc 4E       		.uleb128 0x4e
 9812 03fd 2E       		.uleb128 0x2e
 9813 03fe 01       		.byte	0x1
 9814 03ff 3F       		.uleb128 0x3f
 9815 0400 19       		.uleb128 0x19
 9816 0401 03       		.uleb128 0x3
 9817 0402 0E       		.uleb128 0xe
 9818 0403 27       		.uleb128 0x27
 9819 0404 19       		.uleb128 0x19
 9820 0405 49       		.uleb128 0x49
 9821 0406 13       		.uleb128 0x13
 9822 0407 34       		.uleb128 0x34
 9823 0408 19       		.uleb128 0x19
 9824 0409 3C       		.uleb128 0x3c
 9825 040a 19       		.uleb128 0x19
 9826 040b 01       		.uleb128 0x1
 9827 040c 13       		.uleb128 0x13
 9828 040d 00       		.byte	0
 9829 040e 00       		.byte	0
 9830 040f 4F       		.uleb128 0x4f
 9831 0410 2E       		.uleb128 0x2e
 9832 0411 01       		.byte	0x1
 9833 0412 3F       		.uleb128 0x3f
 9834 0413 19       		.uleb128 0x19
 9835 0414 03       		.uleb128 0x3
 9836 0415 0E       		.uleb128 0xe
 9837 0416 3A       		.uleb128 0x3a
 9838 0417 0B       		.uleb128 0xb
 9839 0418 3B       		.uleb128 0x3b
 9840 0419 0B       		.uleb128 0xb
 9841 041a 27       		.uleb128 0x27
 9842 041b 19       		.uleb128 0x19
 9843 041c 49       		.uleb128 0x49
 9844 041d 13       		.uleb128 0x13
 9845 041e 3C       		.uleb128 0x3c
 9846 041f 19       		.uleb128 0x19
 9847 0420 01       		.uleb128 0x1
 9848 0421 13       		.uleb128 0x13
ARM GAS  C:\Users\jo\AppData\Local\Temp\ccyP7UZh.s 			page 177


 9849 0422 00       		.byte	0
 9850 0423 00       		.byte	0
 9851 0424 50       		.uleb128 0x50
 9852 0425 18       		.uleb128 0x18
 9853 0426 00       		.byte	0
 9854 0427 00       		.byte	0
 9855 0428 00       		.byte	0
 9856 0429 51       		.uleb128 0x51
 9857 042a 2E       		.uleb128 0x2e
 9858 042b 01       		.byte	0x1
 9859 042c 3F       		.uleb128 0x3f
 9860 042d 19       		.uleb128 0x19
 9861 042e 03       		.uleb128 0x3
 9862 042f 0E       		.uleb128 0xe
 9863 0430 3A       		.uleb128 0x3a
 9864 0431 0B       		.uleb128 0xb
 9865 0432 3B       		.uleb128 0x3b
 9866 0433 0B       		.uleb128 0xb
 9867 0434 6E       		.uleb128 0x6e
 9868 0435 0E       		.uleb128 0xe
 9869 0436 27       		.uleb128 0x27
 9870 0437 19       		.uleb128 0x19
 9871 0438 49       		.uleb128 0x49
 9872 0439 13       		.uleb128 0x13
 9873 043a 3C       		.uleb128 0x3c
 9874 043b 19       		.uleb128 0x19
 9875 043c 01       		.uleb128 0x1
 9876 043d 13       		.uleb128 0x13
 9877 043e 00       		.byte	0
 9878 043f 00       		.byte	0
 9879 0440 52       		.uleb128 0x52
 9880 0441 2E       		.uleb128 0x2e
 9881 0442 01       		.byte	0x1
 9882 0443 3F       		.uleb128 0x3f
 9883 0444 19       		.uleb128 0x19
 9884 0445 03       		.uleb128 0x3
 9885 0446 0E       		.uleb128 0xe
 9886 0447 3A       		.uleb128 0x3a
 9887 0448 0B       		.uleb128 0xb
 9888 0449 3B       		.uleb128 0x3b
 9889 044a 0B       		.uleb128 0xb
 9890 044b 6E       		.uleb128 0x6e
 9891 044c 0E       		.uleb128 0xe
 9892 044d 27       		.uleb128 0x27
 9893 044e 19       		.uleb128 0x19
 9894 044f 49       		.uleb128 0x49
 9895 0450 13       		.uleb128 0x13
 9896 0451 3C       		.uleb128 0x3c
 9897 0452 19       		.uleb128 0x19
 9898 0453 00       		.byte	0
 9899 0454 00       		.byte	0
 9900 0455 00       		.byte	0
 9901              		.section	.debug_loc,"",%progbits
 9902              	.Ldebug_loc0:
 9903              	.LLST0:
 9904 0000 00000000 		.4byte	.LVL0
 9905 0004 09000000 		.4byte	.LVL1-1
ARM GAS  C:\Users\jo\AppData\Local\Temp\ccyP7UZh.s 			page 178


 9906 0008 0100     		.2byte	0x1
 9907 000a 50       		.byte	0x50
 9908 000b 09000000 		.4byte	.LVL1-1
 9909 000f 0A000000 		.4byte	.LFE1
 9910 0013 0400     		.2byte	0x4
 9911 0015 F3       		.byte	0xf3
 9912 0016 01       		.uleb128 0x1
 9913 0017 50       		.byte	0x50
 9914 0018 9F       		.byte	0x9f
 9915 0019 00000000 		.4byte	0
 9916 001d 00000000 		.4byte	0
 9917              	.LLST1:
 9918 0021 00000000 		.4byte	.LVL2
 9919 0025 08000000 		.4byte	.LVL3
 9920 0029 0100     		.2byte	0x1
 9921 002b 50       		.byte	0x50
 9922 002c 08000000 		.4byte	.LVL3
 9923 0030 10000000 		.4byte	.LVL6
 9924 0034 0400     		.2byte	0x4
 9925 0036 72       		.byte	0x72
 9926 0037 A87C     		.sleb128 -472
 9927 0039 9F       		.byte	0x9f
 9928 003a 10000000 		.4byte	.LVL6
 9929 003e 12000000 		.4byte	.LFE2
 9930 0042 0400     		.2byte	0x4
 9931 0044 F3       		.byte	0xf3
 9932 0045 01       		.uleb128 0x1
 9933 0046 50       		.byte	0x50
 9934 0047 9F       		.byte	0x9f
 9935 0048 00000000 		.4byte	0
 9936 004c 00000000 		.4byte	0
 9937              	.LLST2:
 9938 0050 08000000 		.4byte	.LVL3
 9939 0054 10000000 		.4byte	.LVL6
 9940 0058 0400     		.2byte	0x4
 9941 005a 0A       		.byte	0xa
 9942 005b D701     		.2byte	0x1d7
 9943 005d 9F       		.byte	0x9f
 9944 005e 00000000 		.4byte	0
 9945 0062 00000000 		.4byte	0
 9946              	.LLST3:
 9947 0066 08000000 		.4byte	.LVL3
 9948 006a 0C000000 		.4byte	.LVL5
 9949 006e 0300     		.2byte	0x3
 9950 0070 70       		.byte	0x70
 9951 0071 01       		.sleb128 1
 9952 0072 9F       		.byte	0x9f
 9953 0073 0C000000 		.4byte	.LVL5
 9954 0077 10000000 		.4byte	.LVL6
 9955 007b 0100     		.2byte	0x1
 9956 007d 50       		.byte	0x50
 9957 007e 00000000 		.4byte	0
 9958 0082 00000000 		.4byte	0
 9959              	.LLST4:
 9960 0086 00000000 		.4byte	.LVL7
 9961 008a 40000000 		.4byte	.LVL8
 9962 008e 0100     		.2byte	0x1
ARM GAS  C:\Users\jo\AppData\Local\Temp\ccyP7UZh.s 			page 179


 9963 0090 50       		.byte	0x50
 9964 0091 40000000 		.4byte	.LVL8
 9965 0095 78000000 		.4byte	.LVL9
 9966 0099 0100     		.2byte	0x1
 9967 009b 5E       		.byte	0x5e
 9968 009c 78000000 		.4byte	.LVL9
 9969 00a0 84000000 		.4byte	.LVL10
 9970 00a4 0100     		.2byte	0x1
 9971 00a6 50       		.byte	0x50
 9972 00a7 84000000 		.4byte	.LVL10
 9973 00ab 58010000 		.4byte	.LFE3
 9974 00af 0100     		.2byte	0x1
 9975 00b1 5E       		.byte	0x5e
 9976 00b2 00000000 		.4byte	0
 9977 00b6 00000000 		.4byte	0
 9978              	.LLST5:
 9979 00ba 00000000 		.4byte	.LVL11
 9980 00be 1A000000 		.4byte	.LVL13
 9981 00c2 0100     		.2byte	0x1
 9982 00c4 50       		.byte	0x50
 9983 00c5 1A000000 		.4byte	.LVL13
 9984 00c9 8E0F0000 		.4byte	.LVL103
 9985 00cd 0300     		.2byte	0x3
 9986 00cf 91       		.byte	0x91
 9987 00d0 B47A     		.sleb128 -716
 9988 00d2 8E0F0000 		.4byte	.LVL103
 9989 00d6 940F0000 		.4byte	.LFE4
 9990 00da 0300     		.2byte	0x3
 9991 00dc 7D       		.byte	0x7d
 9992 00dd B47A     		.sleb128 -716
 9993 00df 00000000 		.4byte	0
 9994 00e3 00000000 		.4byte	0
 9995              	.LLST6:
 9996 00e7 00000000 		.4byte	.LVL11
 9997 00eb 0C000000 		.4byte	.LVL12
 9998 00ef 0100     		.2byte	0x1
 9999 00f1 51       		.byte	0x51
 10000 00f2 0C000000 		.4byte	.LVL12
 10001 00f6 CE000000 		.4byte	.LVL15
 10002 00fa 0100     		.2byte	0x1
 10003 00fc 5E       		.byte	0x5e
 10004 00fd CE000000 		.4byte	.LVL15
 10005 0101 940F0000 		.4byte	.LFE4
 10006 0105 0400     		.2byte	0x4
 10007 0107 F3       		.byte	0xf3
 10008 0108 01       		.uleb128 0x1
 10009 0109 51       		.byte	0x51
 10010 010a 9F       		.byte	0x9f
 10011 010b 00000000 		.4byte	0
 10012 010f 00000000 		.4byte	0
 10013              	.LLST7:
 10014 0113 00000000 		.4byte	.LVL11
 10015 0117 1A000000 		.4byte	.LVL13
 10016 011b 0200     		.2byte	0x2
 10017 011d 30       		.byte	0x30
 10018 011e 9F       		.byte	0x9f
 10019 011f 1A000000 		.4byte	.LVL13
ARM GAS  C:\Users\jo\AppData\Local\Temp\ccyP7UZh.s 			page 180


 10020 0123 EA000000 		.4byte	.LVL16
 10021 0127 0100     		.2byte	0x1
 10022 0129 54       		.byte	0x54
 10023 012a EA000000 		.4byte	.LVL16
 10024 012e B2010000 		.4byte	.LVL17
 10025 0132 0800     		.2byte	0x8
 10026 0134 08       		.byte	0x8
 10027 0135 50       		.byte	0x50
 10028 0136 91       		.byte	0x91
 10029 0137 E876     		.sleb128 -1176
 10030 0139 06       		.byte	0x6
 10031 013a 1C       		.byte	0x1c
 10032 013b 9F       		.byte	0x9f
 10033 013c B2010000 		.4byte	.LVL17
 10034 0140 B6010000 		.4byte	.LVL18
 10035 0144 0800     		.2byte	0x8
 10036 0146 08       		.byte	0x8
 10037 0147 51       		.byte	0x51
 10038 0148 91       		.byte	0x91
 10039 0149 E876     		.sleb128 -1176
 10040 014b 06       		.byte	0x6
 10041 014c 1C       		.byte	0x1c
 10042 014d 9F       		.byte	0x9f
 10043 014e B6010000 		.4byte	.LVL18
 10044 0152 C0010000 		.4byte	.LVL20
 10045 0156 0600     		.2byte	0x6
 10046 0158 08       		.byte	0x8
 10047 0159 50       		.byte	0x50
 10048 015a 73       		.byte	0x73
 10049 015b 00       		.sleb128 0
 10050 015c 1C       		.byte	0x1c
 10051 015d 9F       		.byte	0x9f
 10052 015e C0010000 		.4byte	.LVL20
 10053 0162 FA010000 		.4byte	.LVL26
 10054 0166 0800     		.2byte	0x8
 10055 0168 08       		.byte	0x8
 10056 0169 50       		.byte	0x50
 10057 016a 91       		.byte	0x91
 10058 016b E876     		.sleb128 -1176
 10059 016d 06       		.byte	0x6
 10060 016e 1C       		.byte	0x1c
 10061 016f 9F       		.byte	0x9f
 10062 0170 FA010000 		.4byte	.LVL26
 10063 0174 54020000 		.4byte	.LVL33
 10064 0178 0200     		.2byte	0x2
 10065 017a 30       		.byte	0x30
 10066 017b 9F       		.byte	0x9f
 10067 017c 00000000 		.4byte	0
 10068 0180 00000000 		.4byte	0
 10069              	.LLST8:
 10070 0184 90030000 		.4byte	.LVL34
 10071 0188 2E040000 		.4byte	.LVL40
 10072 018c 0600     		.2byte	0x6
 10073 018e 50       		.byte	0x50
 10074 018f 93       		.byte	0x93
 10075 0190 04       		.uleb128 0x4
 10076 0191 51       		.byte	0x51
ARM GAS  C:\Users\jo\AppData\Local\Temp\ccyP7UZh.s 			page 181


 10077 0192 93       		.byte	0x93
 10078 0193 04       		.uleb128 0x4
 10079 0194 14050000 		.4byte	.LVL42
 10080 0198 62050000 		.4byte	.LVL48
 10081 019c 0600     		.2byte	0x6
 10082 019e 56       		.byte	0x56
 10083 019f 93       		.byte	0x93
 10084 01a0 04       		.uleb128 0x4
 10085 01a1 57       		.byte	0x57
 10086 01a2 93       		.byte	0x93
 10087 01a3 04       		.uleb128 0x4
 10088 01a4 A2060000 		.4byte	.LVL53
 10089 01a8 F6060000 		.4byte	.LVL57
 10090 01ac 0600     		.2byte	0x6
 10091 01ae 56       		.byte	0x56
 10092 01af 93       		.byte	0x93
 10093 01b0 04       		.uleb128 0x4
 10094 01b1 57       		.byte	0x57
 10095 01b2 93       		.byte	0x93
 10096 01b3 04       		.uleb128 0x4
 10097 01b4 1A080000 		.4byte	.LVL60
 10098 01b8 5A080000 		.4byte	.LVL63
 10099 01bc 0600     		.2byte	0x6
 10100 01be 56       		.byte	0x56
 10101 01bf 93       		.byte	0x93
 10102 01c0 04       		.uleb128 0x4
 10103 01c1 57       		.byte	0x57
 10104 01c2 93       		.byte	0x93
 10105 01c3 04       		.uleb128 0x4
 10106 01c4 B6090000 		.4byte	.LVL67
 10107 01c8 FA090000 		.4byte	.LVL70
 10108 01cc 0600     		.2byte	0x6
 10109 01ce 56       		.byte	0x56
 10110 01cf 93       		.byte	0x93
 10111 01d0 04       		.uleb128 0x4
 10112 01d1 57       		.byte	0x57
 10113 01d2 93       		.byte	0x93
 10114 01d3 04       		.uleb128 0x4
 10115 01d4 680B0000 		.4byte	.LVL75
 10116 01d8 8C0B0000 		.4byte	.LVL77
 10117 01dc 0600     		.2byte	0x6
 10118 01de 50       		.byte	0x50
 10119 01df 93       		.byte	0x93
 10120 01e0 04       		.uleb128 0x4
 10121 01e1 51       		.byte	0x51
 10122 01e2 93       		.byte	0x93
 10123 01e3 04       		.uleb128 0x4
 10124 01e4 0E0D0000 		.4byte	.LVL86
 10125 01e8 200D0000 		.4byte	.LVL87
 10126 01ec 0600     		.2byte	0x6
 10127 01ee 50       		.byte	0x50
 10128 01ef 93       		.byte	0x93
 10129 01f0 04       		.uleb128 0x4
 10130 01f1 51       		.byte	0x51
 10131 01f2 93       		.byte	0x93
 10132 01f3 04       		.uleb128 0x4
 10133 01f4 920E0000 		.4byte	.LVL92
ARM GAS  C:\Users\jo\AppData\Local\Temp\ccyP7UZh.s 			page 182


 10134 01f8 E60E0000 		.4byte	.LVL99
 10135 01fc 0600     		.2byte	0x6
 10136 01fe 56       		.byte	0x56
 10137 01ff 93       		.byte	0x93
 10138 0200 04       		.uleb128 0x4
 10139 0201 57       		.byte	0x57
 10140 0202 93       		.byte	0x93
 10141 0203 04       		.uleb128 0x4
 10142 0204 00000000 		.4byte	0
 10143 0208 00000000 		.4byte	0
 10144              	.LLST9:
 10145 020c 90030000 		.4byte	.LVL34
 10146 0210 14050000 		.4byte	.LVL42
 10147 0214 5700     		.2byte	0x57
 10148 0216 91       		.byte	0x91
 10149 0217 C076     		.sleb128 -1216
 10150 0219 F6       		.byte	0xf6
 10151 021a 08       		.byte	0x8
 10152 021b 25       		.uleb128 0x25
 10153 021c 7D       		.byte	0x7d
 10154 021d 00       		.sleb128 0
 10155 021e F6       		.byte	0xf6
 10156 021f 08       		.byte	0x8
 10157 0220 25       		.uleb128 0x25
 10158 0221 21       		.byte	0x21
 10159 0222 91       		.byte	0x91
 10160 0223 D876     		.sleb128 -1192
 10161 0225 F6       		.byte	0xf6
 10162 0226 08       		.byte	0x8
 10163 0227 25       		.uleb128 0x25
 10164 0228 1A       		.byte	0x1a
 10165 0229 91       		.byte	0x91
 10166 022a C076     		.sleb128 -1216
 10167 022c F6       		.byte	0xf6
 10168 022d 08       		.byte	0x8
 10169 022e 25       		.uleb128 0x25
 10170 022f 7D       		.byte	0x7d
 10171 0230 00       		.sleb128 0
 10172 0231 F6       		.byte	0xf6
 10173 0232 08       		.byte	0x8
 10174 0233 25       		.uleb128 0x25
 10175 0234 1A       		.byte	0x1a
 10176 0235 21       		.byte	0x21
 10177 0236 7D       		.byte	0x7d
 10178 0237 00       		.sleb128 0
 10179 0238 F6       		.byte	0xf6
 10180 0239 08       		.byte	0x8
 10181 023a 25       		.uleb128 0x25
 10182 023b 4E       		.byte	0x4e
 10183 023c F7       		.byte	0xf7
 10184 023d 25       		.uleb128 0x25
 10185 023e 14       		.byte	0x14
 10186 023f 14       		.byte	0x14
 10187 0240 24       		.byte	0x24
 10188 0241 17       		.byte	0x17
 10189 0242 1F       		.byte	0x1f
 10190 0243 23       		.byte	0x23
ARM GAS  C:\Users\jo\AppData\Local\Temp\ccyP7UZh.s 			page 183


 10191 0244 40       		.uleb128 0x40
 10192 0245 25       		.byte	0x25
 10193 0246 21       		.byte	0x21
 10194 0247 7D       		.byte	0x7d
 10195 0248 00       		.sleb128 0
 10196 0249 F6       		.byte	0xf6
 10197 024a 08       		.byte	0x8
 10198 024b 25       		.uleb128 0x25
 10199 024c 4C       		.byte	0x4c
 10200 024d F7       		.byte	0xf7
 10201 024e 25       		.uleb128 0x25
 10202 024f 14       		.byte	0x14
 10203 0250 14       		.byte	0x14
 10204 0251 1F       		.byte	0x1f
 10205 0252 23       		.byte	0x23
 10206 0253 40       		.uleb128 0x40
 10207 0254 24       		.byte	0x24
 10208 0255 17       		.byte	0x17
 10209 0256 25       		.byte	0x25
 10210 0257 21       		.byte	0x21
 10211 0258 27       		.byte	0x27
 10212 0259 7D       		.byte	0x7d
 10213 025a 00       		.sleb128 0
 10214 025b F6       		.byte	0xf6
 10215 025c 08       		.byte	0x8
 10216 025d 25       		.uleb128 0x25
 10217 025e 49       		.byte	0x49
 10218 025f F7       		.byte	0xf7
 10219 0260 25       		.uleb128 0x25
 10220 0261 14       		.byte	0x14
 10221 0262 14       		.byte	0x14
 10222 0263 24       		.byte	0x24
 10223 0264 17       		.byte	0x17
 10224 0265 1F       		.byte	0x1f
 10225 0266 23       		.byte	0x23
 10226 0267 40       		.uleb128 0x40
 10227 0268 25       		.byte	0x25
 10228 0269 21       		.byte	0x21
 10229 026a 27       		.byte	0x27
 10230 026b 22       		.byte	0x22
 10231 026c 9F       		.byte	0x9f
 10232 026d 14050000 		.4byte	.LVL42
 10233 0271 24050000 		.4byte	.LVL43
 10234 0275 5A00     		.2byte	0x5a
 10235 0277 91       		.byte	0x91
 10236 0278 E876     		.sleb128 -1176
 10237 027a F6       		.byte	0xf6
 10238 027b 08       		.byte	0x8
 10239 027c 25       		.uleb128 0x25
 10240 027d 7D       		.byte	0x7d
 10241 027e 00       		.sleb128 0
 10242 027f F6       		.byte	0xf6
 10243 0280 08       		.byte	0x8
 10244 0281 25       		.uleb128 0x25
 10245 0282 21       		.byte	0x21
 10246 0283 91       		.byte	0x91
 10247 0284 C076     		.sleb128 -1216
ARM GAS  C:\Users\jo\AppData\Local\Temp\ccyP7UZh.s 			page 184


 10248 0286 F6       		.byte	0xf6
 10249 0287 08       		.byte	0x8
 10250 0288 25       		.uleb128 0x25
 10251 0289 1A       		.byte	0x1a
 10252 028a 91       		.byte	0x91
 10253 028b E876     		.sleb128 -1176
 10254 028d F6       		.byte	0xf6
 10255 028e 08       		.byte	0x8
 10256 028f 25       		.uleb128 0x25
 10257 0290 7D       		.byte	0x7d
 10258 0291 00       		.sleb128 0
 10259 0292 F6       		.byte	0xf6
 10260 0293 08       		.byte	0x8
 10261 0294 25       		.uleb128 0x25
 10262 0295 1A       		.byte	0x1a
 10263 0296 21       		.byte	0x21
 10264 0297 91       		.byte	0x91
 10265 0298 E876     		.sleb128 -1176
 10266 029a F6       		.byte	0xf6
 10267 029b 08       		.byte	0x8
 10268 029c 25       		.uleb128 0x25
 10269 029d 4E       		.byte	0x4e
 10270 029e F7       		.byte	0xf7
 10271 029f 25       		.uleb128 0x25
 10272 02a0 14       		.byte	0x14
 10273 02a1 14       		.byte	0x14
 10274 02a2 24       		.byte	0x24
 10275 02a3 17       		.byte	0x17
 10276 02a4 1F       		.byte	0x1f
 10277 02a5 23       		.byte	0x23
 10278 02a6 40       		.uleb128 0x40
 10279 02a7 25       		.byte	0x25
 10280 02a8 21       		.byte	0x21
 10281 02a9 91       		.byte	0x91
 10282 02aa E876     		.sleb128 -1176
 10283 02ac F6       		.byte	0xf6
 10284 02ad 08       		.byte	0x8
 10285 02ae 25       		.uleb128 0x25
 10286 02af 4C       		.byte	0x4c
 10287 02b0 F7       		.byte	0xf7
 10288 02b1 25       		.uleb128 0x25
 10289 02b2 14       		.byte	0x14
 10290 02b3 14       		.byte	0x14
 10291 02b4 1F       		.byte	0x1f
 10292 02b5 23       		.byte	0x23
 10293 02b6 40       		.uleb128 0x40
 10294 02b7 24       		.byte	0x24
 10295 02b8 17       		.byte	0x17
 10296 02b9 25       		.byte	0x25
 10297 02ba 21       		.byte	0x21
 10298 02bb 27       		.byte	0x27
 10299 02bc 91       		.byte	0x91
 10300 02bd E876     		.sleb128 -1176
 10301 02bf F6       		.byte	0xf6
 10302 02c0 08       		.byte	0x8
 10303 02c1 25       		.uleb128 0x25
 10304 02c2 49       		.byte	0x49
ARM GAS  C:\Users\jo\AppData\Local\Temp\ccyP7UZh.s 			page 185


 10305 02c3 F7       		.byte	0xf7
 10306 02c4 25       		.uleb128 0x25
 10307 02c5 14       		.byte	0x14
 10308 02c6 14       		.byte	0x14
 10309 02c7 24       		.byte	0x24
 10310 02c8 17       		.byte	0x17
 10311 02c9 1F       		.byte	0x1f
 10312 02ca 23       		.byte	0x23
 10313 02cb 40       		.uleb128 0x40
 10314 02cc 25       		.byte	0x25
 10315 02cd 21       		.byte	0x21
 10316 02ce 27       		.byte	0x27
 10317 02cf 22       		.byte	0x22
 10318 02d0 9F       		.byte	0x9f
 10319 02d1 A2060000 		.4byte	.LVL53
 10320 02d5 BE060000 		.4byte	.LVL54
 10321 02d9 4C00     		.2byte	0x4c
 10322 02db F5       		.byte	0xf5
 10323 02dc 04       		.uleb128 0x4
 10324 02dd 25       		.uleb128 0x25
 10325 02de 91       		.byte	0x91
 10326 02df E876     		.sleb128 -1176
 10327 02e1 F6       		.byte	0xf6
 10328 02e2 08       		.byte	0x8
 10329 02e3 25       		.uleb128 0x25
 10330 02e4 21       		.byte	0x21
 10331 02e5 7D       		.byte	0x7d
 10332 02e6 00       		.sleb128 0
 10333 02e7 F6       		.byte	0xf6
 10334 02e8 08       		.byte	0x8
 10335 02e9 25       		.uleb128 0x25
 10336 02ea 1A       		.byte	0x1a
 10337 02eb F5       		.byte	0xf5
 10338 02ec 04       		.uleb128 0x4
 10339 02ed 25       		.uleb128 0x25
 10340 02ee 91       		.byte	0x91
 10341 02ef E876     		.sleb128 -1176
 10342 02f1 F6       		.byte	0xf6
 10343 02f2 08       		.byte	0x8
 10344 02f3 25       		.uleb128 0x25
 10345 02f4 1A       		.byte	0x1a
 10346 02f5 21       		.byte	0x21
 10347 02f6 F5       		.byte	0xf5
 10348 02f7 04       		.uleb128 0x4
 10349 02f8 25       		.uleb128 0x25
 10350 02f9 4E       		.byte	0x4e
 10351 02fa F7       		.byte	0xf7
 10352 02fb 25       		.uleb128 0x25
 10353 02fc 14       		.byte	0x14
 10354 02fd 14       		.byte	0x14
 10355 02fe 24       		.byte	0x24
 10356 02ff 17       		.byte	0x17
 10357 0300 1F       		.byte	0x1f
 10358 0301 23       		.byte	0x23
 10359 0302 40       		.uleb128 0x40
 10360 0303 25       		.byte	0x25
 10361 0304 21       		.byte	0x21
ARM GAS  C:\Users\jo\AppData\Local\Temp\ccyP7UZh.s 			page 186


 10362 0305 F5       		.byte	0xf5
 10363 0306 04       		.uleb128 0x4
 10364 0307 25       		.uleb128 0x25
 10365 0308 4C       		.byte	0x4c
 10366 0309 F7       		.byte	0xf7
 10367 030a 25       		.uleb128 0x25
 10368 030b 14       		.byte	0x14
 10369 030c 14       		.byte	0x14
 10370 030d 1F       		.byte	0x1f
 10371 030e 23       		.byte	0x23
 10372 030f 40       		.uleb128 0x40
 10373 0310 24       		.byte	0x24
 10374 0311 17       		.byte	0x17
 10375 0312 25       		.byte	0x25
 10376 0313 21       		.byte	0x21
 10377 0314 27       		.byte	0x27
 10378 0315 F5       		.byte	0xf5
 10379 0316 04       		.uleb128 0x4
 10380 0317 25       		.uleb128 0x25
 10381 0318 49       		.byte	0x49
 10382 0319 F7       		.byte	0xf7
 10383 031a 25       		.uleb128 0x25
 10384 031b 14       		.byte	0x14
 10385 031c 14       		.byte	0x14
 10386 031d 24       		.byte	0x24
 10387 031e 17       		.byte	0x17
 10388 031f 1F       		.byte	0x1f
 10389 0320 23       		.byte	0x23
 10390 0321 40       		.uleb128 0x40
 10391 0322 25       		.byte	0x25
 10392 0323 21       		.byte	0x21
 10393 0324 27       		.byte	0x27
 10394 0325 22       		.byte	0x22
 10395 0326 9F       		.byte	0x9f
 10396 0327 BE060000 		.4byte	.LVL54
 10397 032b 1A080000 		.4byte	.LVL60
 10398 032f 5B00     		.2byte	0x5b
 10399 0331 91       		.byte	0x91
 10400 0332 D876     		.sleb128 -1192
 10401 0334 F6       		.byte	0xf6
 10402 0335 08       		.byte	0x8
 10403 0336 25       		.uleb128 0x25
 10404 0337 91       		.byte	0x91
 10405 0338 E876     		.sleb128 -1176
 10406 033a F6       		.byte	0xf6
 10407 033b 08       		.byte	0x8
 10408 033c 25       		.uleb128 0x25
 10409 033d 21       		.byte	0x21
 10410 033e 7D       		.byte	0x7d
 10411 033f 00       		.sleb128 0
 10412 0340 F6       		.byte	0xf6
 10413 0341 08       		.byte	0x8
 10414 0342 25       		.uleb128 0x25
 10415 0343 1A       		.byte	0x1a
 10416 0344 91       		.byte	0x91
 10417 0345 D876     		.sleb128 -1192
 10418 0347 F6       		.byte	0xf6
ARM GAS  C:\Users\jo\AppData\Local\Temp\ccyP7UZh.s 			page 187


 10419 0348 08       		.byte	0x8
 10420 0349 25       		.uleb128 0x25
 10421 034a 91       		.byte	0x91
 10422 034b E876     		.sleb128 -1176
 10423 034d F6       		.byte	0xf6
 10424 034e 08       		.byte	0x8
 10425 034f 25       		.uleb128 0x25
 10426 0350 1A       		.byte	0x1a
 10427 0351 21       		.byte	0x21
 10428 0352 91       		.byte	0x91
 10429 0353 D876     		.sleb128 -1192
 10430 0355 F6       		.byte	0xf6
 10431 0356 08       		.byte	0x8
 10432 0357 25       		.uleb128 0x25
 10433 0358 4E       		.byte	0x4e
 10434 0359 F7       		.byte	0xf7
 10435 035a 25       		.uleb128 0x25
 10436 035b 14       		.byte	0x14
 10437 035c 14       		.byte	0x14
 10438 035d 24       		.byte	0x24
 10439 035e 17       		.byte	0x17
 10440 035f 1F       		.byte	0x1f
 10441 0360 23       		.byte	0x23
 10442 0361 40       		.uleb128 0x40
 10443 0362 25       		.byte	0x25
 10444 0363 21       		.byte	0x21
 10445 0364 91       		.byte	0x91
 10446 0365 D876     		.sleb128 -1192
 10447 0367 F6       		.byte	0xf6
 10448 0368 08       		.byte	0x8
 10449 0369 25       		.uleb128 0x25
 10450 036a 4C       		.byte	0x4c
 10451 036b F7       		.byte	0xf7
 10452 036c 25       		.uleb128 0x25
 10453 036d 14       		.byte	0x14
 10454 036e 14       		.byte	0x14
 10455 036f 1F       		.byte	0x1f
 10456 0370 23       		.byte	0x23
 10457 0371 40       		.uleb128 0x40
 10458 0372 24       		.byte	0x24
 10459 0373 17       		.byte	0x17
 10460 0374 25       		.byte	0x25
 10461 0375 21       		.byte	0x21
 10462 0376 27       		.byte	0x27
 10463 0377 91       		.byte	0x91
 10464 0378 D876     		.sleb128 -1192
 10465 037a F6       		.byte	0xf6
 10466 037b 08       		.byte	0x8
 10467 037c 25       		.uleb128 0x25
 10468 037d 49       		.byte	0x49
 10469 037e F7       		.byte	0xf7
 10470 037f 25       		.uleb128 0x25
 10471 0380 14       		.byte	0x14
 10472 0381 14       		.byte	0x14
 10473 0382 24       		.byte	0x24
 10474 0383 17       		.byte	0x17
 10475 0384 1F       		.byte	0x1f
ARM GAS  C:\Users\jo\AppData\Local\Temp\ccyP7UZh.s 			page 188


 10476 0385 23       		.byte	0x23
 10477 0386 40       		.uleb128 0x40
 10478 0387 25       		.byte	0x25
 10479 0388 21       		.byte	0x21
 10480 0389 27       		.byte	0x27
 10481 038a 22       		.byte	0x22
 10482 038b 9F       		.byte	0x9f
 10483 038c 1A080000 		.4byte	.LVL60
 10484 0390 B6090000 		.4byte	.LVL67
 10485 0394 5C00     		.2byte	0x5c
 10486 0396 91       		.byte	0x91
 10487 0397 F076     		.sleb128 -1168
 10488 0399 F6       		.byte	0xf6
 10489 039a 08       		.byte	0x8
 10490 039b 25       		.uleb128 0x25
 10491 039c 91       		.byte	0x91
 10492 039d D876     		.sleb128 -1192
 10493 039f F6       		.byte	0xf6
 10494 03a0 08       		.byte	0x8
 10495 03a1 25       		.uleb128 0x25
 10496 03a2 21       		.byte	0x21
 10497 03a3 91       		.byte	0x91
 10498 03a4 E876     		.sleb128 -1176
 10499 03a6 F6       		.byte	0xf6
 10500 03a7 08       		.byte	0x8
 10501 03a8 25       		.uleb128 0x25
 10502 03a9 1A       		.byte	0x1a
 10503 03aa 91       		.byte	0x91
 10504 03ab F076     		.sleb128 -1168
 10505 03ad F6       		.byte	0xf6
 10506 03ae 08       		.byte	0x8
 10507 03af 25       		.uleb128 0x25
 10508 03b0 91       		.byte	0x91
 10509 03b1 D876     		.sleb128 -1192
 10510 03b3 F6       		.byte	0xf6
 10511 03b4 08       		.byte	0x8
 10512 03b5 25       		.uleb128 0x25
 10513 03b6 1A       		.byte	0x1a
 10514 03b7 21       		.byte	0x21
 10515 03b8 91       		.byte	0x91
 10516 03b9 F076     		.sleb128 -1168
 10517 03bb F6       		.byte	0xf6
 10518 03bc 08       		.byte	0x8
 10519 03bd 25       		.uleb128 0x25
 10520 03be 4E       		.byte	0x4e
 10521 03bf F7       		.byte	0xf7
 10522 03c0 25       		.uleb128 0x25
 10523 03c1 14       		.byte	0x14
 10524 03c2 14       		.byte	0x14
 10525 03c3 24       		.byte	0x24
 10526 03c4 17       		.byte	0x17
 10527 03c5 1F       		.byte	0x1f
 10528 03c6 23       		.byte	0x23
 10529 03c7 40       		.uleb128 0x40
 10530 03c8 25       		.byte	0x25
 10531 03c9 21       		.byte	0x21
 10532 03ca 91       		.byte	0x91
ARM GAS  C:\Users\jo\AppData\Local\Temp\ccyP7UZh.s 			page 189


 10533 03cb F076     		.sleb128 -1168
 10534 03cd F6       		.byte	0xf6
 10535 03ce 08       		.byte	0x8
 10536 03cf 25       		.uleb128 0x25
 10537 03d0 4C       		.byte	0x4c
 10538 03d1 F7       		.byte	0xf7
 10539 03d2 25       		.uleb128 0x25
 10540 03d3 14       		.byte	0x14
 10541 03d4 14       		.byte	0x14
 10542 03d5 1F       		.byte	0x1f
 10543 03d6 23       		.byte	0x23
 10544 03d7 40       		.uleb128 0x40
 10545 03d8 24       		.byte	0x24
 10546 03d9 17       		.byte	0x17
 10547 03da 25       		.byte	0x25
 10548 03db 21       		.byte	0x21
 10549 03dc 27       		.byte	0x27
 10550 03dd 91       		.byte	0x91
 10551 03de F076     		.sleb128 -1168
 10552 03e0 F6       		.byte	0xf6
 10553 03e1 08       		.byte	0x8
 10554 03e2 25       		.uleb128 0x25
 10555 03e3 49       		.byte	0x49
 10556 03e4 F7       		.byte	0xf7
 10557 03e5 25       		.uleb128 0x25
 10558 03e6 14       		.byte	0x14
 10559 03e7 14       		.byte	0x14
 10560 03e8 24       		.byte	0x24
 10561 03e9 17       		.byte	0x17
 10562 03ea 1F       		.byte	0x1f
 10563 03eb 23       		.byte	0x23
 10564 03ec 40       		.uleb128 0x40
 10565 03ed 25       		.byte	0x25
 10566 03ee 21       		.byte	0x21
 10567 03ef 27       		.byte	0x27
 10568 03f0 22       		.byte	0x22
 10569 03f1 9F       		.byte	0x9f
 10570 03f2 B6090000 		.4byte	.LVL67
 10571 03f6 680B0000 		.4byte	.LVL75
 10572 03fa 5700     		.2byte	0x57
 10573 03fc 7D       		.byte	0x7d
 10574 03fd 00       		.sleb128 0
 10575 03fe F6       		.byte	0xf6
 10576 03ff 08       		.byte	0x8
 10577 0400 25       		.uleb128 0x25
 10578 0401 91       		.byte	0x91
 10579 0402 F076     		.sleb128 -1168
 10580 0404 F6       		.byte	0xf6
 10581 0405 08       		.byte	0x8
 10582 0406 25       		.uleb128 0x25
 10583 0407 21       		.byte	0x21
 10584 0408 91       		.byte	0x91
 10585 0409 D876     		.sleb128 -1192
 10586 040b F6       		.byte	0xf6
 10587 040c 08       		.byte	0x8
 10588 040d 25       		.uleb128 0x25
 10589 040e 1A       		.byte	0x1a
ARM GAS  C:\Users\jo\AppData\Local\Temp\ccyP7UZh.s 			page 190


 10590 040f 7D       		.byte	0x7d
 10591 0410 00       		.sleb128 0
 10592 0411 F6       		.byte	0xf6
 10593 0412 08       		.byte	0x8
 10594 0413 25       		.uleb128 0x25
 10595 0414 91       		.byte	0x91
 10596 0415 F076     		.sleb128 -1168
 10597 0417 F6       		.byte	0xf6
 10598 0418 08       		.byte	0x8
 10599 0419 25       		.uleb128 0x25
 10600 041a 1A       		.byte	0x1a
 10601 041b 21       		.byte	0x21
 10602 041c 7D       		.byte	0x7d
 10603 041d 00       		.sleb128 0
 10604 041e F6       		.byte	0xf6
 10605 041f 08       		.byte	0x8
 10606 0420 25       		.uleb128 0x25
 10607 0421 4E       		.byte	0x4e
 10608 0422 F7       		.byte	0xf7
 10609 0423 25       		.uleb128 0x25
 10610 0424 14       		.byte	0x14
 10611 0425 14       		.byte	0x14
 10612 0426 24       		.byte	0x24
 10613 0427 17       		.byte	0x17
 10614 0428 1F       		.byte	0x1f
 10615 0429 23       		.byte	0x23
 10616 042a 40       		.uleb128 0x40
 10617 042b 25       		.byte	0x25
 10618 042c 21       		.byte	0x21
 10619 042d 7D       		.byte	0x7d
 10620 042e 00       		.sleb128 0
 10621 042f F6       		.byte	0xf6
 10622 0430 08       		.byte	0x8
 10623 0431 25       		.uleb128 0x25
 10624 0432 4C       		.byte	0x4c
 10625 0433 F7       		.byte	0xf7
 10626 0434 25       		.uleb128 0x25
 10627 0435 14       		.byte	0x14
 10628 0436 14       		.byte	0x14
 10629 0437 1F       		.byte	0x1f
 10630 0438 23       		.byte	0x23
 10631 0439 40       		.uleb128 0x40
 10632 043a 24       		.byte	0x24
 10633 043b 17       		.byte	0x17
 10634 043c 25       		.byte	0x25
 10635 043d 21       		.byte	0x21
 10636 043e 27       		.byte	0x27
 10637 043f 7D       		.byte	0x7d
 10638 0440 00       		.sleb128 0
 10639 0441 F6       		.byte	0xf6
 10640 0442 08       		.byte	0x8
 10641 0443 25       		.uleb128 0x25
 10642 0444 49       		.byte	0x49
 10643 0445 F7       		.byte	0xf7
 10644 0446 25       		.uleb128 0x25
 10645 0447 14       		.byte	0x14
 10646 0448 14       		.byte	0x14
ARM GAS  C:\Users\jo\AppData\Local\Temp\ccyP7UZh.s 			page 191


 10647 0449 24       		.byte	0x24
 10648 044a 17       		.byte	0x17
 10649 044b 1F       		.byte	0x1f
 10650 044c 23       		.byte	0x23
 10651 044d 40       		.uleb128 0x40
 10652 044e 25       		.byte	0x25
 10653 044f 21       		.byte	0x21
 10654 0450 27       		.byte	0x27
 10655 0451 22       		.byte	0x22
 10656 0452 9F       		.byte	0x9f
 10657 0453 680B0000 		.4byte	.LVL75
 10658 0457 720C0000 		.4byte	.LVL83
 10659 045b 5A00     		.2byte	0x5a
 10660 045d 91       		.byte	0x91
 10661 045e E076     		.sleb128 -1184
 10662 0460 F6       		.byte	0xf6
 10663 0461 08       		.byte	0x8
 10664 0462 25       		.uleb128 0x25
 10665 0463 7D       		.byte	0x7d
 10666 0464 00       		.sleb128 0
 10667 0465 F6       		.byte	0xf6
 10668 0466 08       		.byte	0x8
 10669 0467 25       		.uleb128 0x25
 10670 0468 21       		.byte	0x21
 10671 0469 91       		.byte	0x91
 10672 046a F076     		.sleb128 -1168
 10673 046c F6       		.byte	0xf6
 10674 046d 08       		.byte	0x8
 10675 046e 25       		.uleb128 0x25
 10676 046f 1A       		.byte	0x1a
 10677 0470 91       		.byte	0x91
 10678 0471 E076     		.sleb128 -1184
 10679 0473 F6       		.byte	0xf6
 10680 0474 08       		.byte	0x8
 10681 0475 25       		.uleb128 0x25
 10682 0476 7D       		.byte	0x7d
 10683 0477 00       		.sleb128 0
 10684 0478 F6       		.byte	0xf6
 10685 0479 08       		.byte	0x8
 10686 047a 25       		.uleb128 0x25
 10687 047b 1A       		.byte	0x1a
 10688 047c 21       		.byte	0x21
 10689 047d 91       		.byte	0x91
 10690 047e E076     		.sleb128 -1184
 10691 0480 F6       		.byte	0xf6
 10692 0481 08       		.byte	0x8
 10693 0482 25       		.uleb128 0x25
 10694 0483 4E       		.byte	0x4e
 10695 0484 F7       		.byte	0xf7
 10696 0485 25       		.uleb128 0x25
 10697 0486 14       		.byte	0x14
 10698 0487 14       		.byte	0x14
 10699 0488 24       		.byte	0x24
 10700 0489 17       		.byte	0x17
 10701 048a 1F       		.byte	0x1f
 10702 048b 23       		.byte	0x23
 10703 048c 40       		.uleb128 0x40
ARM GAS  C:\Users\jo\AppData\Local\Temp\ccyP7UZh.s 			page 192


 10704 048d 25       		.byte	0x25
 10705 048e 21       		.byte	0x21
 10706 048f 91       		.byte	0x91
 10707 0490 E076     		.sleb128 -1184
 10708 0492 F6       		.byte	0xf6
 10709 0493 08       		.byte	0x8
 10710 0494 25       		.uleb128 0x25
 10711 0495 4C       		.byte	0x4c
 10712 0496 F7       		.byte	0xf7
 10713 0497 25       		.uleb128 0x25
 10714 0498 14       		.byte	0x14
 10715 0499 14       		.byte	0x14
 10716 049a 1F       		.byte	0x1f
 10717 049b 23       		.byte	0x23
 10718 049c 40       		.uleb128 0x40
 10719 049d 24       		.byte	0x24
 10720 049e 17       		.byte	0x17
 10721 049f 25       		.byte	0x25
 10722 04a0 21       		.byte	0x21
 10723 04a1 27       		.byte	0x27
 10724 04a2 91       		.byte	0x91
 10725 04a3 E076     		.sleb128 -1184
 10726 04a5 F6       		.byte	0xf6
 10727 04a6 08       		.byte	0x8
 10728 04a7 25       		.uleb128 0x25
 10729 04a8 49       		.byte	0x49
 10730 04a9 F7       		.byte	0xf7
 10731 04aa 25       		.uleb128 0x25
 10732 04ab 14       		.byte	0x14
 10733 04ac 14       		.byte	0x14
 10734 04ad 24       		.byte	0x24
 10735 04ae 17       		.byte	0x17
 10736 04af 1F       		.byte	0x1f
 10737 04b0 23       		.byte	0x23
 10738 04b1 40       		.uleb128 0x40
 10739 04b2 25       		.byte	0x25
 10740 04b3 21       		.byte	0x21
 10741 04b4 27       		.byte	0x27
 10742 04b5 22       		.byte	0x22
 10743 04b6 9F       		.byte	0x9f
 10744 04b7 720C0000 		.4byte	.LVL83
 10745 04bb D20C0000 		.4byte	.LVL85
 10746 04bf 4B00     		.2byte	0x4b
 10747 04c1 F5       		.byte	0xf5
 10748 04c2 0A       		.uleb128 0xa
 10749 04c3 25       		.uleb128 0x25
 10750 04c4 7D       		.byte	0x7d
 10751 04c5 00       		.sleb128 0
 10752 04c6 F6       		.byte	0xf6
 10753 04c7 08       		.byte	0x8
 10754 04c8 25       		.uleb128 0x25
 10755 04c9 21       		.byte	0x21
 10756 04ca 91       		.byte	0x91
 10757 04cb F076     		.sleb128 -1168
 10758 04cd F6       		.byte	0xf6
 10759 04ce 08       		.byte	0x8
 10760 04cf 25       		.uleb128 0x25
ARM GAS  C:\Users\jo\AppData\Local\Temp\ccyP7UZh.s 			page 193


 10761 04d0 1A       		.byte	0x1a
 10762 04d1 F5       		.byte	0xf5
 10763 04d2 0A       		.uleb128 0xa
 10764 04d3 25       		.uleb128 0x25
 10765 04d4 7D       		.byte	0x7d
 10766 04d5 00       		.sleb128 0
 10767 04d6 F6       		.byte	0xf6
 10768 04d7 08       		.byte	0x8
 10769 04d8 25       		.uleb128 0x25
 10770 04d9 1A       		.byte	0x1a
 10771 04da 21       		.byte	0x21
 10772 04db F5       		.byte	0xf5
 10773 04dc 0A       		.uleb128 0xa
 10774 04dd 25       		.uleb128 0x25
 10775 04de 4E       		.byte	0x4e
 10776 04df F7       		.byte	0xf7
 10777 04e0 25       		.uleb128 0x25
 10778 04e1 14       		.byte	0x14
 10779 04e2 14       		.byte	0x14
 10780 04e3 24       		.byte	0x24
 10781 04e4 17       		.byte	0x17
 10782 04e5 1F       		.byte	0x1f
 10783 04e6 23       		.byte	0x23
 10784 04e7 40       		.uleb128 0x40
 10785 04e8 25       		.byte	0x25
 10786 04e9 21       		.byte	0x21
 10787 04ea F5       		.byte	0xf5
 10788 04eb 0A       		.uleb128 0xa
 10789 04ec 25       		.uleb128 0x25
 10790 04ed 4C       		.byte	0x4c
 10791 04ee F7       		.byte	0xf7
 10792 04ef 25       		.uleb128 0x25
 10793 04f0 14       		.byte	0x14
 10794 04f1 14       		.byte	0x14
 10795 04f2 1F       		.byte	0x1f
 10796 04f3 23       		.byte	0x23
 10797 04f4 40       		.uleb128 0x40
 10798 04f5 24       		.byte	0x24
 10799 04f6 17       		.byte	0x17
 10800 04f7 25       		.byte	0x25
 10801 04f8 21       		.byte	0x21
 10802 04f9 27       		.byte	0x27
 10803 04fa F5       		.byte	0xf5
 10804 04fb 0A       		.uleb128 0xa
 10805 04fc 25       		.uleb128 0x25
 10806 04fd 49       		.byte	0x49
 10807 04fe F7       		.byte	0xf7
 10808 04ff 25       		.uleb128 0x25
 10809 0500 14       		.byte	0x14
 10810 0501 14       		.byte	0x14
 10811 0502 24       		.byte	0x24
 10812 0503 17       		.byte	0x17
 10813 0504 1F       		.byte	0x1f
 10814 0505 23       		.byte	0x23
 10815 0506 40       		.uleb128 0x40
 10816 0507 25       		.byte	0x25
 10817 0508 21       		.byte	0x21
ARM GAS  C:\Users\jo\AppData\Local\Temp\ccyP7UZh.s 			page 194


 10818 0509 27       		.byte	0x27
 10819 050a 22       		.byte	0x22
 10820 050b 9F       		.byte	0x9f
 10821 050c D20C0000 		.4byte	.LVL85
 10822 0510 0E0D0000 		.4byte	.LVL86
 10823 0514 5A00     		.2byte	0x5a
 10824 0516 91       		.byte	0x91
 10825 0517 E876     		.sleb128 -1176
 10826 0519 F6       		.byte	0xf6
 10827 051a 08       		.byte	0x8
 10828 051b 25       		.uleb128 0x25
 10829 051c 7D       		.byte	0x7d
 10830 051d 00       		.sleb128 0
 10831 051e F6       		.byte	0xf6
 10832 051f 08       		.byte	0x8
 10833 0520 25       		.uleb128 0x25
 10834 0521 21       		.byte	0x21
 10835 0522 91       		.byte	0x91
 10836 0523 F076     		.sleb128 -1168
 10837 0525 F6       		.byte	0xf6
 10838 0526 08       		.byte	0x8
 10839 0527 25       		.uleb128 0x25
 10840 0528 1A       		.byte	0x1a
 10841 0529 91       		.byte	0x91
 10842 052a E876     		.sleb128 -1176
 10843 052c F6       		.byte	0xf6
 10844 052d 08       		.byte	0x8
 10845 052e 25       		.uleb128 0x25
 10846 052f 7D       		.byte	0x7d
 10847 0530 00       		.sleb128 0
 10848 0531 F6       		.byte	0xf6
 10849 0532 08       		.byte	0x8
 10850 0533 25       		.uleb128 0x25
 10851 0534 1A       		.byte	0x1a
 10852 0535 21       		.byte	0x21
 10853 0536 91       		.byte	0x91
 10854 0537 E876     		.sleb128 -1176
 10855 0539 F6       		.byte	0xf6
 10856 053a 08       		.byte	0x8
 10857 053b 25       		.uleb128 0x25
 10858 053c 4E       		.byte	0x4e
 10859 053d F7       		.byte	0xf7
 10860 053e 25       		.uleb128 0x25
 10861 053f 14       		.byte	0x14
 10862 0540 14       		.byte	0x14
 10863 0541 24       		.byte	0x24
 10864 0542 17       		.byte	0x17
 10865 0543 1F       		.byte	0x1f
 10866 0544 23       		.byte	0x23
 10867 0545 40       		.uleb128 0x40
 10868 0546 25       		.byte	0x25
 10869 0547 21       		.byte	0x21
 10870 0548 91       		.byte	0x91
 10871 0549 E876     		.sleb128 -1176
 10872 054b F6       		.byte	0xf6
 10873 054c 08       		.byte	0x8
 10874 054d 25       		.uleb128 0x25
ARM GAS  C:\Users\jo\AppData\Local\Temp\ccyP7UZh.s 			page 195


 10875 054e 4C       		.byte	0x4c
 10876 054f F7       		.byte	0xf7
 10877 0550 25       		.uleb128 0x25
 10878 0551 14       		.byte	0x14
 10879 0552 14       		.byte	0x14
 10880 0553 1F       		.byte	0x1f
 10881 0554 23       		.byte	0x23
 10882 0555 40       		.uleb128 0x40
 10883 0556 24       		.byte	0x24
 10884 0557 17       		.byte	0x17
 10885 0558 25       		.byte	0x25
 10886 0559 21       		.byte	0x21
 10887 055a 27       		.byte	0x27
 10888 055b 91       		.byte	0x91
 10889 055c E876     		.sleb128 -1176
 10890 055e F6       		.byte	0xf6
 10891 055f 08       		.byte	0x8
 10892 0560 25       		.uleb128 0x25
 10893 0561 49       		.byte	0x49
 10894 0562 F7       		.byte	0xf7
 10895 0563 25       		.uleb128 0x25
 10896 0564 14       		.byte	0x14
 10897 0565 14       		.byte	0x14
 10898 0566 24       		.byte	0x24
 10899 0567 17       		.byte	0x17
 10900 0568 1F       		.byte	0x1f
 10901 0569 23       		.byte	0x23
 10902 056a 40       		.uleb128 0x40
 10903 056b 25       		.byte	0x25
 10904 056c 21       		.byte	0x21
 10905 056d 27       		.byte	0x27
 10906 056e 22       		.byte	0x22
 10907 056f 9F       		.byte	0x9f
 10908 0570 0E0D0000 		.4byte	.LVL86
 10909 0574 920E0000 		.4byte	.LVL92
 10910 0578 5B00     		.2byte	0x5b
 10911 057a 91       		.byte	0x91
 10912 057b D876     		.sleb128 -1192
 10913 057d F6       		.byte	0xf6
 10914 057e 08       		.byte	0x8
 10915 057f 25       		.uleb128 0x25
 10916 0580 91       		.byte	0x91
 10917 0581 E876     		.sleb128 -1176
 10918 0583 F6       		.byte	0xf6
 10919 0584 08       		.byte	0x8
 10920 0585 25       		.uleb128 0x25
 10921 0586 21       		.byte	0x21
 10922 0587 7D       		.byte	0x7d
 10923 0588 00       		.sleb128 0
 10924 0589 F6       		.byte	0xf6
 10925 058a 08       		.byte	0x8
 10926 058b 25       		.uleb128 0x25
 10927 058c 1A       		.byte	0x1a
 10928 058d 91       		.byte	0x91
 10929 058e D876     		.sleb128 -1192
 10930 0590 F6       		.byte	0xf6
 10931 0591 08       		.byte	0x8
ARM GAS  C:\Users\jo\AppData\Local\Temp\ccyP7UZh.s 			page 196


 10932 0592 25       		.uleb128 0x25
 10933 0593 91       		.byte	0x91
 10934 0594 E876     		.sleb128 -1176
 10935 0596 F6       		.byte	0xf6
 10936 0597 08       		.byte	0x8
 10937 0598 25       		.uleb128 0x25
 10938 0599 1A       		.byte	0x1a
 10939 059a 21       		.byte	0x21
 10940 059b 91       		.byte	0x91
 10941 059c D876     		.sleb128 -1192
 10942 059e F6       		.byte	0xf6
 10943 059f 08       		.byte	0x8
 10944 05a0 25       		.uleb128 0x25
 10945 05a1 4E       		.byte	0x4e
 10946 05a2 F7       		.byte	0xf7
 10947 05a3 25       		.uleb128 0x25
 10948 05a4 14       		.byte	0x14
 10949 05a5 14       		.byte	0x14
 10950 05a6 24       		.byte	0x24
 10951 05a7 17       		.byte	0x17
 10952 05a8 1F       		.byte	0x1f
 10953 05a9 23       		.byte	0x23
 10954 05aa 40       		.uleb128 0x40
 10955 05ab 25       		.byte	0x25
 10956 05ac 21       		.byte	0x21
 10957 05ad 91       		.byte	0x91
 10958 05ae D876     		.sleb128 -1192
 10959 05b0 F6       		.byte	0xf6
 10960 05b1 08       		.byte	0x8
 10961 05b2 25       		.uleb128 0x25
 10962 05b3 4C       		.byte	0x4c
 10963 05b4 F7       		.byte	0xf7
 10964 05b5 25       		.uleb128 0x25
 10965 05b6 14       		.byte	0x14
 10966 05b7 14       		.byte	0x14
 10967 05b8 1F       		.byte	0x1f
 10968 05b9 23       		.byte	0x23
 10969 05ba 40       		.uleb128 0x40
 10970 05bb 24       		.byte	0x24
 10971 05bc 17       		.byte	0x17
 10972 05bd 25       		.byte	0x25
 10973 05be 21       		.byte	0x21
 10974 05bf 27       		.byte	0x27
 10975 05c0 91       		.byte	0x91
 10976 05c1 D876     		.sleb128 -1192
 10977 05c3 F6       		.byte	0xf6
 10978 05c4 08       		.byte	0x8
 10979 05c5 25       		.uleb128 0x25
 10980 05c6 49       		.byte	0x49
 10981 05c7 F7       		.byte	0xf7
 10982 05c8 25       		.uleb128 0x25
 10983 05c9 14       		.byte	0x14
 10984 05ca 14       		.byte	0x14
 10985 05cb 24       		.byte	0x24
 10986 05cc 17       		.byte	0x17
 10987 05cd 1F       		.byte	0x1f
 10988 05ce 23       		.byte	0x23
ARM GAS  C:\Users\jo\AppData\Local\Temp\ccyP7UZh.s 			page 197


 10989 05cf 40       		.uleb128 0x40
 10990 05d0 25       		.byte	0x25
 10991 05d1 21       		.byte	0x21
 10992 05d2 27       		.byte	0x27
 10993 05d3 22       		.byte	0x22
 10994 05d4 9F       		.byte	0x9f
 10995 05d5 920E0000 		.4byte	.LVL92
 10996 05d9 1E0F0000 		.4byte	.LVL100
 10997 05dd 5C00     		.2byte	0x5c
 10998 05df 91       		.byte	0x91
 10999 05e0 C076     		.sleb128 -1216
 11000 05e2 F6       		.byte	0xf6
 11001 05e3 08       		.byte	0x8
 11002 05e4 25       		.uleb128 0x25
 11003 05e5 91       		.byte	0x91
 11004 05e6 D876     		.sleb128 -1192
 11005 05e8 F6       		.byte	0xf6
 11006 05e9 08       		.byte	0x8
 11007 05ea 25       		.uleb128 0x25
 11008 05eb 21       		.byte	0x21
 11009 05ec 91       		.byte	0x91
 11010 05ed E876     		.sleb128 -1176
 11011 05ef F6       		.byte	0xf6
 11012 05f0 08       		.byte	0x8
 11013 05f1 25       		.uleb128 0x25
 11014 05f2 1A       		.byte	0x1a
 11015 05f3 91       		.byte	0x91
 11016 05f4 C076     		.sleb128 -1216
 11017 05f6 F6       		.byte	0xf6
 11018 05f7 08       		.byte	0x8
 11019 05f8 25       		.uleb128 0x25
 11020 05f9 91       		.byte	0x91
 11021 05fa D876     		.sleb128 -1192
 11022 05fc F6       		.byte	0xf6
 11023 05fd 08       		.byte	0x8
 11024 05fe 25       		.uleb128 0x25
 11025 05ff 1A       		.byte	0x1a
 11026 0600 21       		.byte	0x21
 11027 0601 91       		.byte	0x91
 11028 0602 C076     		.sleb128 -1216
 11029 0604 F6       		.byte	0xf6
 11030 0605 08       		.byte	0x8
 11031 0606 25       		.uleb128 0x25
 11032 0607 4E       		.byte	0x4e
 11033 0608 F7       		.byte	0xf7
 11034 0609 25       		.uleb128 0x25
 11035 060a 14       		.byte	0x14
 11036 060b 14       		.byte	0x14
 11037 060c 24       		.byte	0x24
 11038 060d 17       		.byte	0x17
 11039 060e 1F       		.byte	0x1f
 11040 060f 23       		.byte	0x23
 11041 0610 40       		.uleb128 0x40
 11042 0611 25       		.byte	0x25
 11043 0612 21       		.byte	0x21
 11044 0613 91       		.byte	0x91
 11045 0614 C076     		.sleb128 -1216
ARM GAS  C:\Users\jo\AppData\Local\Temp\ccyP7UZh.s 			page 198


 11046 0616 F6       		.byte	0xf6
 11047 0617 08       		.byte	0x8
 11048 0618 25       		.uleb128 0x25
 11049 0619 4C       		.byte	0x4c
 11050 061a F7       		.byte	0xf7
 11051 061b 25       		.uleb128 0x25
 11052 061c 14       		.byte	0x14
 11053 061d 14       		.byte	0x14
 11054 061e 1F       		.byte	0x1f
 11055 061f 23       		.byte	0x23
 11056 0620 40       		.uleb128 0x40
 11057 0621 24       		.byte	0x24
 11058 0622 17       		.byte	0x17
 11059 0623 25       		.byte	0x25
 11060 0624 21       		.byte	0x21
 11061 0625 27       		.byte	0x27
 11062 0626 91       		.byte	0x91
 11063 0627 C076     		.sleb128 -1216
 11064 0629 F6       		.byte	0xf6
 11065 062a 08       		.byte	0x8
 11066 062b 25       		.uleb128 0x25
 11067 062c 49       		.byte	0x49
 11068 062d F7       		.byte	0xf7
 11069 062e 25       		.uleb128 0x25
 11070 062f 14       		.byte	0x14
 11071 0630 14       		.byte	0x14
 11072 0631 24       		.byte	0x24
 11073 0632 17       		.byte	0x17
 11074 0633 1F       		.byte	0x1f
 11075 0634 23       		.byte	0x23
 11076 0635 40       		.uleb128 0x40
 11077 0636 25       		.byte	0x25
 11078 0637 21       		.byte	0x21
 11079 0638 27       		.byte	0x27
 11080 0639 22       		.byte	0x22
 11081 063a 9F       		.byte	0x9f
 11082 063b 00000000 		.4byte	0
 11083 063f 00000000 		.4byte	0
 11084              	.LLST10:
 11085 0643 B8010000 		.4byte	.LVL19
 11086 0647 C0010000 		.4byte	.LVL20
 11087 064b 0300     		.2byte	0x3
 11088 064d 91       		.byte	0x91
 11089 064e 907A     		.sleb128 -752
 11090 0650 C0010000 		.4byte	.LVL20
 11091 0654 C4010000 		.4byte	.LVL21
 11092 0658 0200     		.2byte	0x2
 11093 065a 73       		.byte	0x73
 11094 065b 00       		.sleb128 0
 11095 065c 54020000 		.4byte	.LVL33
 11096 0660 3A080000 		.4byte	.LVL61
 11097 0664 0200     		.2byte	0x2
 11098 0666 7D       		.byte	0x7d
 11099 0667 00       		.sleb128 0
 11100 0668 3A080000 		.4byte	.LVL61
 11101 066c 82080000 		.4byte	.LVL64
 11102 0670 0600     		.2byte	0x6
ARM GAS  C:\Users\jo\AppData\Local\Temp\ccyP7UZh.s 			page 199


 11103 0672 58       		.byte	0x58
 11104 0673 93       		.byte	0x93
 11105 0674 04       		.uleb128 0x4
 11106 0675 59       		.byte	0x59
 11107 0676 93       		.byte	0x93
 11108 0677 04       		.uleb128 0x4
 11109 0678 82080000 		.4byte	.LVL64
 11110 067c FC0D0000 		.4byte	.LVL91
 11111 0680 0300     		.2byte	0x3
 11112 0682 91       		.byte	0x91
 11113 0683 D076     		.sleb128 -1200
 11114 0685 B40E0000 		.4byte	.LVL95
 11115 0689 CC0E0000 		.4byte	.LVL96
 11116 068d 0600     		.2byte	0x6
 11117 068f 50       		.byte	0x50
 11118 0690 93       		.byte	0x93
 11119 0691 04       		.uleb128 0x4
 11120 0692 51       		.byte	0x51
 11121 0693 93       		.byte	0x93
 11122 0694 04       		.uleb128 0x4
 11123 0695 CC0E0000 		.4byte	.LVL96
 11124 0699 CE0E0000 		.4byte	.LVL97
 11125 069d 0600     		.2byte	0x6
 11126 069f 52       		.byte	0x52
 11127 06a0 93       		.byte	0x93
 11128 06a1 04       		.uleb128 0x4
 11129 06a2 53       		.byte	0x53
 11130 06a3 93       		.byte	0x93
 11131 06a4 04       		.uleb128 0x4
 11132 06a5 CE0E0000 		.4byte	.LVL97
 11133 06a9 D40E0000 		.4byte	.LVL98
 11134 06ad 0200     		.2byte	0x2
 11135 06af 7D       		.byte	0x7d
 11136 06b0 00       		.sleb128 0
 11137 06b1 00000000 		.4byte	0
 11138 06b5 00000000 		.4byte	0
 11139              	.LLST11:
 11140 06b9 D4010000 		.4byte	.LVL22
 11141 06bd 1E020000 		.4byte	.LVL31
 11142 06c1 0600     		.2byte	0x6
 11143 06c3 54       		.byte	0x54
 11144 06c4 93       		.byte	0x93
 11145 06c5 04       		.uleb128 0x4
 11146 06c6 55       		.byte	0x55
 11147 06c7 93       		.byte	0x93
 11148 06c8 04       		.uleb128 0x4
 11149 06c9 1E020000 		.4byte	.LVL31
 11150 06cd C2060000 		.4byte	.LVL55
 11151 06d1 0300     		.2byte	0x3
 11152 06d3 91       		.byte	0x91
 11153 06d4 C076     		.sleb128 -1216
 11154 06d6 C2060000 		.4byte	.LVL55
 11155 06da E4060000 		.4byte	.LVL56
 11156 06de 0600     		.2byte	0x6
 11157 06e0 5A       		.byte	0x5a
 11158 06e1 93       		.byte	0x93
 11159 06e2 04       		.uleb128 0x4
ARM GAS  C:\Users\jo\AppData\Local\Temp\ccyP7UZh.s 			page 200


 11160 06e3 5B       		.byte	0x5b
 11161 06e4 93       		.byte	0x93
 11162 06e5 04       		.uleb128 0x4
 11163 06e6 E4060000 		.4byte	.LVL56
 11164 06ea A60A0000 		.4byte	.LVL72
 11165 06ee 0300     		.2byte	0x3
 11166 06f0 91       		.byte	0x91
 11167 06f1 C076     		.sleb128 -1216
 11168 06f3 A60A0000 		.4byte	.LVL72
 11169 06f7 2C0B0000 		.4byte	.LVL73
 11170 06fb 0300     		.2byte	0x3
 11171 06fd 91       		.byte	0x91
 11172 06fe F876     		.sleb128 -1160
 11173 0700 2C0B0000 		.4byte	.LVL73
 11174 0704 5C0C0000 		.4byte	.LVL82
 11175 0708 0300     		.2byte	0x3
 11176 070a 91       		.byte	0x91
 11177 070b C076     		.sleb128 -1216
 11178 070d 3A0D0000 		.4byte	.LVL88
 11179 0711 780D0000 		.4byte	.LVL89
 11180 0715 0600     		.2byte	0x6
 11181 0717 58       		.byte	0x58
 11182 0718 93       		.byte	0x93
 11183 0719 04       		.uleb128 0x4
 11184 071a 59       		.byte	0x59
 11185 071b 93       		.byte	0x93
 11186 071c 04       		.uleb128 0x4
 11187 071d 780D0000 		.4byte	.LVL89
 11188 0721 300F0000 		.4byte	.LVL101
 11189 0725 0300     		.2byte	0x3
 11190 0727 91       		.byte	0x91
 11191 0728 C076     		.sleb128 -1216
 11192 072a 00000000 		.4byte	0
 11193 072e 00000000 		.4byte	0
 11194              	.LLST12:
 11195 0732 DC010000 		.4byte	.LVL23
 11196 0736 54020000 		.4byte	.LVL33
 11197 073a 0600     		.2byte	0x6
 11198 073c 56       		.byte	0x56
 11199 073d 93       		.byte	0x93
 11200 073e 04       		.uleb128 0x4
 11201 073f 57       		.byte	0x57
 11202 0740 93       		.byte	0x93
 11203 0741 04       		.uleb128 0x4
 11204 0742 54020000 		.4byte	.LVL33
 11205 0746 40050000 		.4byte	.LVL45
 11206 074a 0300     		.2byte	0x3
 11207 074c 91       		.byte	0x91
 11208 074d D876     		.sleb128 -1192
 11209 074f 40050000 		.4byte	.LVL45
 11210 0753 52050000 		.4byte	.LVL46
 11211 0757 0600     		.2byte	0x6
 11212 0759 58       		.byte	0x58
 11213 075a 93       		.byte	0x93
 11214 075b 04       		.uleb128 0x4
 11215 075c 59       		.byte	0x59
 11216 075d 93       		.byte	0x93
ARM GAS  C:\Users\jo\AppData\Local\Temp\ccyP7UZh.s 			page 201


 11217 075e 04       		.uleb128 0x4
 11218 075f 900B0000 		.4byte	.LVL78
 11219 0763 AC0B0000 		.4byte	.LVL79
 11220 0767 0600     		.2byte	0x6
 11221 0769 56       		.byte	0x56
 11222 076a 93       		.byte	0x93
 11223 076b 04       		.uleb128 0x4
 11224 076c 57       		.byte	0x57
 11225 076d 93       		.byte	0x93
 11226 076e 04       		.uleb128 0x4
 11227 076f 00000000 		.4byte	0
 11228 0773 00000000 		.4byte	0
 11229              	.LLST13:
 11230 0777 DC010000 		.4byte	.LVL23
 11231 077b EA010000 		.4byte	.LVL24
 11232 077f 0300     		.2byte	0x3
 11233 0781 91       		.byte	0x91
 11234 0782 987A     		.sleb128 -744
 11235 0784 EA010000 		.4byte	.LVL24
 11236 0788 EE010000 		.4byte	.LVL25
 11237 078c 0200     		.2byte	0x2
 11238 078e 70       		.byte	0x70
 11239 078f 00       		.sleb128 0
 11240 0790 54020000 		.4byte	.LVL33
 11241 0794 B0030000 		.4byte	.LVL36
 11242 0798 0300     		.2byte	0x3
 11243 079a 91       		.byte	0x91
 11244 079b E876     		.sleb128 -1176
 11245 079d B0030000 		.4byte	.LVL36
 11246 07a1 E2030000 		.4byte	.LVL37
 11247 07a5 0600     		.2byte	0x6
 11248 07a7 5A       		.byte	0x5a
 11249 07a8 93       		.byte	0x93
 11250 07a9 04       		.uleb128 0x4
 11251 07aa 5B       		.byte	0x5b
 11252 07ab 93       		.byte	0x93
 11253 07ac 04       		.uleb128 0x4
 11254 07ad E2030000 		.4byte	.LVL37
 11255 07b1 04040000 		.4byte	.LVL39
 11256 07b5 0600     		.2byte	0x6
 11257 07b7 58       		.byte	0x58
 11258 07b8 93       		.byte	0x93
 11259 07b9 04       		.uleb128 0x4
 11260 07ba 59       		.byte	0x59
 11261 07bb 93       		.byte	0x93
 11262 07bc 04       		.uleb128 0x4
 11263 07bd 04040000 		.4byte	.LVL39
 11264 07c1 26090000 		.4byte	.LVL66
 11265 07c5 0300     		.2byte	0x3
 11266 07c7 91       		.byte	0x91
 11267 07c8 C876     		.sleb128 -1208
 11268 07ca EA090000 		.4byte	.LVL69
 11269 07ce 420B0000 		.4byte	.LVL74
 11270 07d2 0600     		.2byte	0x6
 11271 07d4 58       		.byte	0x58
 11272 07d5 93       		.byte	0x93
 11273 07d6 04       		.uleb128 0x4
ARM GAS  C:\Users\jo\AppData\Local\Temp\ccyP7UZh.s 			page 202


 11274 07d7 59       		.byte	0x59
 11275 07d8 93       		.byte	0x93
 11276 07d9 04       		.uleb128 0x4
 11277 07da 420B0000 		.4byte	.LVL74
 11278 07de 720C0000 		.4byte	.LVL83
 11279 07e2 0300     		.2byte	0x3
 11280 07e4 91       		.byte	0x91
 11281 07e5 E076     		.sleb128 -1184
 11282 07e7 720C0000 		.4byte	.LVL83
 11283 07eb D20C0000 		.4byte	.LVL85
 11284 07ef 0600     		.2byte	0x6
 11285 07f1 5A       		.byte	0x5a
 11286 07f2 93       		.byte	0x93
 11287 07f3 04       		.uleb128 0x4
 11288 07f4 5B       		.byte	0x5b
 11289 07f5 93       		.byte	0x93
 11290 07f6 04       		.uleb128 0x4
 11291 07f7 D20C0000 		.4byte	.LVL85
 11292 07fb 8E0F0000 		.4byte	.LVL103
 11293 07ff 0300     		.2byte	0x3
 11294 0801 91       		.byte	0x91
 11295 0802 E876     		.sleb128 -1176
 11296 0804 8E0F0000 		.4byte	.LVL103
 11297 0808 940F0000 		.4byte	.LFE4
 11298 080c 0300     		.2byte	0x3
 11299 080e 7D       		.byte	0x7d
 11300 080f E876     		.sleb128 -1176
 11301 0811 00000000 		.4byte	0
 11302 0815 00000000 		.4byte	0
 11303              	.LLST14:
 11304 0819 FA010000 		.4byte	.LVL26
 11305 081d 54020000 		.4byte	.LVL33
 11306 0821 0600     		.2byte	0x6
 11307 0823 58       		.byte	0x58
 11308 0824 93       		.byte	0x93
 11309 0825 04       		.uleb128 0x4
 11310 0826 59       		.byte	0x59
 11311 0827 93       		.byte	0x93
 11312 0828 04       		.uleb128 0x4
 11313 0829 54020000 		.4byte	.LVL33
 11314 082d B2070000 		.4byte	.LVL58
 11315 0831 0300     		.2byte	0x3
 11316 0833 91       		.byte	0x91
 11317 0834 D076     		.sleb128 -1200
 11318 0836 50080000 		.4byte	.LVL62
 11319 083a 9C080000 		.4byte	.LVL65
 11320 083e 0600     		.2byte	0x6
 11321 0840 5A       		.byte	0x5a
 11322 0841 93       		.byte	0x93
 11323 0842 04       		.uleb128 0x4
 11324 0843 5B       		.byte	0x5b
 11325 0844 93       		.byte	0x93
 11326 0845 04       		.uleb128 0x4
 11327 0846 9C080000 		.4byte	.LVL65
 11328 084a AA0E0000 		.4byte	.LVL93
 11329 084e 0200     		.2byte	0x2
 11330 0850 7D       		.byte	0x7d
ARM GAS  C:\Users\jo\AppData\Local\Temp\ccyP7UZh.s 			page 203


 11331 0851 00       		.sleb128 0
 11332 0852 AA0E0000 		.4byte	.LVL93
 11333 0856 AC0E0000 		.4byte	.LVL94
 11334 085a 0600     		.2byte	0x6
 11335 085c 50       		.byte	0x50
 11336 085d 93       		.byte	0x93
 11337 085e 04       		.uleb128 0x4
 11338 085f 51       		.byte	0x51
 11339 0860 93       		.byte	0x93
 11340 0861 04       		.uleb128 0x4
 11341 0862 AC0E0000 		.4byte	.LVL94
 11342 0866 8E0F0000 		.4byte	.LVL103
 11343 086a 0300     		.2byte	0x3
 11344 086c 91       		.byte	0x91
 11345 086d D076     		.sleb128 -1200
 11346 086f 8E0F0000 		.4byte	.LVL103
 11347 0873 940F0000 		.4byte	.LFE4
 11348 0877 0300     		.2byte	0x3
 11349 0879 7D       		.byte	0x7d
 11350 087a D076     		.sleb128 -1200
 11351 087c 00000000 		.4byte	0
 11352 0880 00000000 		.4byte	0
 11353              	.LLST15:
 11354 0884 FA010000 		.4byte	.LVL26
 11355 0888 2C020000 		.4byte	.LVL32
 11356 088c 0600     		.2byte	0x6
 11357 088e 5A       		.byte	0x5a
 11358 088f 93       		.byte	0x93
 11359 0890 04       		.uleb128 0x4
 11360 0891 5B       		.byte	0x5b
 11361 0892 93       		.byte	0x93
 11362 0893 04       		.uleb128 0x4
 11363 0894 2C020000 		.4byte	.LVL32
 11364 0898 54020000 		.4byte	.LVL33
 11365 089c 0300     		.2byte	0x3
 11366 089e 91       		.byte	0x91
 11367 089f D07A     		.sleb128 -688
 11368 08a1 54020000 		.4byte	.LVL33
 11369 08a5 3C060000 		.4byte	.LVL52
 11370 08a9 0300     		.2byte	0x3
 11371 08ab 91       		.byte	0x91
 11372 08ac F076     		.sleb128 -1168
 11373 08ae E4060000 		.4byte	.LVL56
 11374 08b2 04080000 		.4byte	.LVL59
 11375 08b6 0600     		.2byte	0x6
 11376 08b8 5A       		.byte	0x5a
 11377 08b9 93       		.byte	0x93
 11378 08ba 04       		.uleb128 0x4
 11379 08bb 5B       		.byte	0x5b
 11380 08bc 93       		.byte	0x93
 11381 08bd 04       		.uleb128 0x4
 11382 08be 04080000 		.4byte	.LVL59
 11383 08c2 3A0D0000 		.4byte	.LVL88
 11384 08c6 0300     		.2byte	0x3
 11385 08c8 91       		.byte	0x91
 11386 08c9 F076     		.sleb128 -1168
 11387 08cb 3A0D0000 		.4byte	.LVL88
ARM GAS  C:\Users\jo\AppData\Local\Temp\ccyP7UZh.s 			page 204


 11388 08cf 9C0D0000 		.4byte	.LVL90
 11389 08d3 0600     		.2byte	0x6
 11390 08d5 5A       		.byte	0x5a
 11391 08d6 93       		.byte	0x93
 11392 08d7 04       		.uleb128 0x4
 11393 08d8 5B       		.byte	0x5b
 11394 08d9 93       		.byte	0x93
 11395 08da 04       		.uleb128 0x4
 11396 08db 9C0D0000 		.4byte	.LVL90
 11397 08df 8E0F0000 		.4byte	.LVL103
 11398 08e3 0300     		.2byte	0x3
 11399 08e5 91       		.byte	0x91
 11400 08e6 F076     		.sleb128 -1168
 11401 08e8 8E0F0000 		.4byte	.LVL103
 11402 08ec 940F0000 		.4byte	.LFE4
 11403 08f0 0300     		.2byte	0x3
 11404 08f2 7D       		.byte	0x7d
 11405 08f3 F076     		.sleb128 -1168
 11406 08f5 00000000 		.4byte	0
 11407 08f9 00000000 		.4byte	0
 11408              	.LLST16:
 11409 08fd FA010000 		.4byte	.LVL26
 11410 0901 00020000 		.4byte	.LVL27
 11411 0905 0300     		.2byte	0x3
 11412 0907 91       		.byte	0x91
 11413 0908 A07A     		.sleb128 -736
 11414 090a 00020000 		.4byte	.LVL27
 11415 090e 04020000 		.4byte	.LVL28
 11416 0912 0200     		.2byte	0x2
 11417 0914 70       		.byte	0x70
 11418 0915 00       		.sleb128 0
 11419 0916 54020000 		.4byte	.LVL33
 11420 091a A6040000 		.4byte	.LVL41
 11421 091e 0300     		.2byte	0x3
 11422 0920 91       		.byte	0x91
 11423 0921 E076     		.sleb128 -1184
 11424 0923 56050000 		.4byte	.LVL47
 11425 0927 86050000 		.4byte	.LVL49
 11426 092b 0600     		.2byte	0x6
 11427 092d 58       		.byte	0x58
 11428 092e 93       		.byte	0x93
 11429 092f 04       		.uleb128 0x4
 11430 0930 59       		.byte	0x59
 11431 0931 93       		.byte	0x93
 11432 0932 04       		.uleb128 0x4
 11433 0933 86050000 		.4byte	.LVL49
 11434 0937 DA050000 		.4byte	.LVL50
 11435 093b 0300     		.2byte	0x3
 11436 093d 91       		.byte	0x91
 11437 093e D876     		.sleb128 -1192
 11438 0940 DA050000 		.4byte	.LVL50
 11439 0944 DC050000 		.4byte	.LVL51
 11440 0948 0600     		.2byte	0x6
 11441 094a 56       		.byte	0x56
 11442 094b 93       		.byte	0x93
 11443 094c 04       		.uleb128 0x4
 11444 094d 57       		.byte	0x57
ARM GAS  C:\Users\jo\AppData\Local\Temp\ccyP7UZh.s 			page 205


 11445 094e 93       		.byte	0x93
 11446 094f 04       		.uleb128 0x4
 11447 0950 8A0B0000 		.4byte	.LVL76
 11448 0954 D00B0000 		.4byte	.LVL80
 11449 0958 0600     		.2byte	0x6
 11450 095a 58       		.byte	0x58
 11451 095b 93       		.byte	0x93
 11452 095c 04       		.uleb128 0x4
 11453 095d 59       		.byte	0x59
 11454 095e 93       		.byte	0x93
 11455 095f 04       		.uleb128 0x4
 11456 0960 D00B0000 		.4byte	.LVL80
 11457 0964 1C0C0000 		.4byte	.LVL81
 11458 0968 0300     		.2byte	0x3
 11459 096a 91       		.byte	0x91
 11460 096b D876     		.sleb128 -1192
 11461 096d 1C0C0000 		.4byte	.LVL81
 11462 0971 7A0C0000 		.4byte	.LVL84
 11463 0975 0600     		.2byte	0x6
 11464 0977 58       		.byte	0x58
 11465 0978 93       		.byte	0x93
 11466 0979 04       		.uleb128 0x4
 11467 097a 59       		.byte	0x59
 11468 097b 93       		.byte	0x93
 11469 097c 04       		.uleb128 0x4
 11470 097d 7A0C0000 		.4byte	.LVL84
 11471 0981 8E0F0000 		.4byte	.LVL103
 11472 0985 0300     		.2byte	0x3
 11473 0987 91       		.byte	0x91
 11474 0988 E076     		.sleb128 -1184
 11475 098a 8E0F0000 		.4byte	.LVL103
 11476 098e 940F0000 		.4byte	.LFE4
 11477 0992 0300     		.2byte	0x3
 11478 0994 7D       		.byte	0x7d
 11479 0995 E076     		.sleb128 -1184
 11480 0997 00000000 		.4byte	0
 11481 099b 00000000 		.4byte	0
 11482              	.LLST17:
 11483 099f FA010000 		.4byte	.LVL26
 11484 09a3 0A020000 		.4byte	.LVL29
 11485 09a7 0300     		.2byte	0x3
 11486 09a9 91       		.byte	0x91
 11487 09aa A87A     		.sleb128 -728
 11488 09ac 0A020000 		.4byte	.LVL29
 11489 09b0 0E020000 		.4byte	.LVL30
 11490 09b4 0200     		.2byte	0x2
 11491 09b6 71       		.byte	0x71
 11492 09b7 00       		.sleb128 0
 11493 09b8 54020000 		.4byte	.LVL33
 11494 09bc A8030000 		.4byte	.LVL35
 11495 09c0 0300     		.2byte	0x3
 11496 09c2 91       		.byte	0x91
 11497 09c3 C876     		.sleb128 -1208
 11498 09c5 EE030000 		.4byte	.LVL38
 11499 09c9 26050000 		.4byte	.LVL44
 11500 09cd 0600     		.2byte	0x6
 11501 09cf 5A       		.byte	0x5a
ARM GAS  C:\Users\jo\AppData\Local\Temp\ccyP7UZh.s 			page 206


 11502 09d0 93       		.byte	0x93
 11503 09d1 04       		.uleb128 0x4
 11504 09d2 5B       		.byte	0x5b
 11505 09d3 93       		.byte	0x93
 11506 09d4 04       		.uleb128 0x4
 11507 09d5 26050000 		.4byte	.LVL44
 11508 09d9 DE090000 		.4byte	.LVL68
 11509 09dd 0300     		.2byte	0x3
 11510 09df 91       		.byte	0x91
 11511 09e0 E876     		.sleb128 -1176
 11512 09e2 DE090000 		.4byte	.LVL68
 11513 09e6 240A0000 		.4byte	.LVL71
 11514 09ea 0600     		.2byte	0x6
 11515 09ec 5A       		.byte	0x5a
 11516 09ed 93       		.byte	0x93
 11517 09ee 04       		.uleb128 0x4
 11518 09ef 5B       		.byte	0x5b
 11519 09f0 93       		.byte	0x93
 11520 09f1 04       		.uleb128 0x4
 11521 09f2 240A0000 		.4byte	.LVL71
 11522 09f6 580F0000 		.4byte	.LVL102
 11523 09fa 0300     		.2byte	0x3
 11524 09fc 91       		.byte	0x91
 11525 09fd C876     		.sleb128 -1208
 11526 09ff 00000000 		.4byte	0
 11527 0a03 00000000 		.4byte	0
 11528              	.LLST18:
 11529 0a07 00000000 		.4byte	.LVL104
 11530 0a0b 46000000 		.4byte	.LVL107
 11531 0a0f 0100     		.2byte	0x1
 11532 0a11 50       		.byte	0x50
 11533 0a12 46000000 		.4byte	.LVL107
 11534 0a16 4C000000 		.4byte	.LVL109
 11535 0a1a 0100     		.2byte	0x1
 11536 0a1c 56       		.byte	0x56
 11537 0a1d 4C000000 		.4byte	.LVL109
 11538 0a21 50000000 		.4byte	.LVL110
 11539 0a25 0100     		.2byte	0x1
 11540 0a27 50       		.byte	0x50
 11541 0a28 50000000 		.4byte	.LVL110
 11542 0a2c A8000000 		.4byte	.LVL122
 11543 0a30 0100     		.2byte	0x1
 11544 0a32 56       		.byte	0x56
 11545 0a33 A8000000 		.4byte	.LVL122
 11546 0a37 AC000000 		.4byte	.LFE15
 11547 0a3b 0400     		.2byte	0x4
 11548 0a3d F3       		.byte	0xf3
 11549 0a3e 01       		.uleb128 0x1
 11550 0a3f 50       		.byte	0x50
 11551 0a40 9F       		.byte	0x9f
 11552 0a41 00000000 		.4byte	0
 11553 0a45 00000000 		.4byte	0
 11554              	.LLST19:
 11555 0a49 00000000 		.4byte	.LVL104
 11556 0a4d 46000000 		.4byte	.LVL107
 11557 0a51 0100     		.2byte	0x1
 11558 0a53 51       		.byte	0x51
ARM GAS  C:\Users\jo\AppData\Local\Temp\ccyP7UZh.s 			page 207


 11559 0a54 46000000 		.4byte	.LVL107
 11560 0a58 48000000 		.4byte	.LVL108
 11561 0a5c 0100     		.2byte	0x1
 11562 0a5e 59       		.byte	0x59
 11563 0a5f 4C000000 		.4byte	.LVL109
 11564 0a63 52000000 		.4byte	.LVL111
 11565 0a67 0100     		.2byte	0x1
 11566 0a69 51       		.byte	0x51
 11567 0a6a 52000000 		.4byte	.LVL111
 11568 0a6e 74000000 		.4byte	.LVL117
 11569 0a72 0100     		.2byte	0x1
 11570 0a74 59       		.byte	0x59
 11571 0a75 74000000 		.4byte	.LVL117
 11572 0a79 9A000000 		.4byte	.LVL121
 11573 0a7d 0100     		.2byte	0x1
 11574 0a7f 54       		.byte	0x54
 11575 0a80 00000000 		.4byte	0
 11576 0a84 00000000 		.4byte	0
 11577              	.LLST20:
 11578 0a88 00000000 		.4byte	.LVL104
 11579 0a8c 2E000000 		.4byte	.LVL106
 11580 0a90 0100     		.2byte	0x1
 11581 0a92 52       		.byte	0x52
 11582 0a93 2E000000 		.4byte	.LVL106
 11583 0a97 48000000 		.4byte	.LVL108
 11584 0a9b 0100     		.2byte	0x1
 11585 0a9d 57       		.byte	0x57
 11586 0a9e 4C000000 		.4byte	.LVL109
 11587 0aa2 66000000 		.4byte	.LVL114
 11588 0aa6 0100     		.2byte	0x1
 11589 0aa8 57       		.byte	0x57
 11590 0aa9 66000000 		.4byte	.LVL114
 11591 0aad 68000000 		.4byte	.LVL115
 11592 0ab1 0400     		.2byte	0x4
 11593 0ab3 F3       		.byte	0xf3
 11594 0ab4 01       		.uleb128 0x1
 11595 0ab5 52       		.byte	0x52
 11596 0ab6 9F       		.byte	0x9f
 11597 0ab7 68000000 		.4byte	.LVL115
 11598 0abb 74000000 		.4byte	.LVL117
 11599 0abf 0100     		.2byte	0x1
 11600 0ac1 57       		.byte	0x57
 11601 0ac2 74000000 		.4byte	.LVL117
 11602 0ac6 78000000 		.4byte	.LVL118
 11603 0aca 0100     		.2byte	0x1
 11604 0acc 55       		.byte	0x55
 11605 0acd 78000000 		.4byte	.LVL118
 11606 0ad1 84000000 		.4byte	.LVL120
 11607 0ad5 0400     		.2byte	0x4
 11608 0ad7 75       		.byte	0x75
 11609 0ad8 8001     		.sleb128 128
 11610 0ada 9F       		.byte	0x9f
 11611 0adb 84000000 		.4byte	.LVL120
 11612 0adf 9A000000 		.4byte	.LVL121
 11613 0ae3 0100     		.2byte	0x1
 11614 0ae5 55       		.byte	0x55
 11615 0ae6 00000000 		.4byte	0
ARM GAS  C:\Users\jo\AppData\Local\Temp\ccyP7UZh.s 			page 208


 11616 0aea 00000000 		.4byte	0
 11617              	.LLST21:
 11618 0aee 28000000 		.4byte	.LVL105
 11619 0af2 46000000 		.4byte	.LVL107
 11620 0af6 0600     		.2byte	0x6
 11621 0af8 08       		.byte	0x8
 11622 0af9 80       		.byte	0x80
 11623 0afa 78       		.byte	0x78
 11624 0afb 00       		.sleb128 0
 11625 0afc 1C       		.byte	0x1c
 11626 0afd 9F       		.byte	0x9f
 11627 0afe 4C000000 		.4byte	.LVL109
 11628 0b02 6C000000 		.4byte	.LVL116
 11629 0b06 0600     		.2byte	0x6
 11630 0b08 08       		.byte	0x8
 11631 0b09 80       		.byte	0x80
 11632 0b0a 78       		.byte	0x78
 11633 0b0b 00       		.sleb128 0
 11634 0b0c 1C       		.byte	0x1c
 11635 0b0d 9F       		.byte	0x9f
 11636 0b0e 00000000 		.4byte	0
 11637 0b12 00000000 		.4byte	0
 11638              	.LLST22:
 11639 0b16 28000000 		.4byte	.LVL105
 11640 0b1a 48000000 		.4byte	.LVL108
 11641 0b1e 0100     		.2byte	0x1
 11642 0b20 58       		.byte	0x58
 11643 0b21 4C000000 		.4byte	.LVL109
 11644 0b25 68000000 		.4byte	.LVL115
 11645 0b29 0100     		.2byte	0x1
 11646 0b2b 58       		.byte	0x58
 11647 0b2c 68000000 		.4byte	.LVL115
 11648 0b30 6C000000 		.4byte	.LVL116
 11649 0b34 0200     		.2byte	0x2
 11650 0b36 30       		.byte	0x30
 11651 0b37 9F       		.byte	0x9f
 11652 0b38 6C000000 		.4byte	.LVL116
 11653 0b3c 74000000 		.4byte	.LVL117
 11654 0b40 0100     		.2byte	0x1
 11655 0b42 58       		.byte	0x58
 11656 0b43 00000000 		.4byte	0
 11657 0b47 00000000 		.4byte	0
 11658              	.LLST23:
 11659 0b4b 00000000 		.4byte	.LVL124
 11660 0b4f 05000000 		.4byte	.LVL125-1
 11661 0b53 0100     		.2byte	0x1
 11662 0b55 50       		.byte	0x50
 11663 0b56 05000000 		.4byte	.LVL125-1
 11664 0b5a 06000000 		.4byte	.LVL125
 11665 0b5e 0400     		.2byte	0x4
 11666 0b60 F3       		.byte	0xf3
 11667 0b61 01       		.uleb128 0x1
 11668 0b62 50       		.byte	0x50
 11669 0b63 9F       		.byte	0x9f
 11670 0b64 06000000 		.4byte	.LVL125
 11671 0b68 08000000 		.4byte	.LFE5
 11672 0b6c 0100     		.2byte	0x1
ARM GAS  C:\Users\jo\AppData\Local\Temp\ccyP7UZh.s 			page 209


 11673 0b6e 50       		.byte	0x50
 11674 0b6f 00000000 		.4byte	0
 11675 0b73 00000000 		.4byte	0
 11676              	.LLST24:
 11677 0b77 00000000 		.4byte	.LVL124
 11678 0b7b 05000000 		.4byte	.LVL125-1
 11679 0b7f 0100     		.2byte	0x1
 11680 0b81 51       		.byte	0x51
 11681 0b82 05000000 		.4byte	.LVL125-1
 11682 0b86 06000000 		.4byte	.LVL125
 11683 0b8a 0400     		.2byte	0x4
 11684 0b8c F3       		.byte	0xf3
 11685 0b8d 01       		.uleb128 0x1
 11686 0b8e 51       		.byte	0x51
 11687 0b8f 9F       		.byte	0x9f
 11688 0b90 06000000 		.4byte	.LVL125
 11689 0b94 08000000 		.4byte	.LFE5
 11690 0b98 0100     		.2byte	0x1
 11691 0b9a 51       		.byte	0x51
 11692 0b9b 00000000 		.4byte	0
 11693 0b9f 00000000 		.4byte	0
 11694              	.LLST25:
 11695 0ba3 00000000 		.4byte	.LVL124
 11696 0ba7 05000000 		.4byte	.LVL125-1
 11697 0bab 0100     		.2byte	0x1
 11698 0bad 52       		.byte	0x52
 11699 0bae 05000000 		.4byte	.LVL125-1
 11700 0bb2 06000000 		.4byte	.LVL125
 11701 0bb6 0400     		.2byte	0x4
 11702 0bb8 F3       		.byte	0xf3
 11703 0bb9 01       		.uleb128 0x1
 11704 0bba 52       		.byte	0x52
 11705 0bbb 9F       		.byte	0x9f
 11706 0bbc 06000000 		.4byte	.LVL125
 11707 0bc0 08000000 		.4byte	.LFE5
 11708 0bc4 0100     		.2byte	0x1
 11709 0bc6 52       		.byte	0x52
 11710 0bc7 00000000 		.4byte	0
 11711 0bcb 00000000 		.4byte	0
 11712              	.LLST26:
 11713 0bcf 00000000 		.4byte	.LVL126
 11714 0bd3 0E000000 		.4byte	.LVL127
 11715 0bd7 0100     		.2byte	0x1
 11716 0bd9 50       		.byte	0x50
 11717 0bda 0E000000 		.4byte	.LVL127
 11718 0bde 52020000 		.4byte	.LVL138
 11719 0be2 0100     		.2byte	0x1
 11720 0be4 54       		.byte	0x54
 11721 0be5 52020000 		.4byte	.LVL138
 11722 0be9 58020000 		.4byte	.LFE6
 11723 0bed 0400     		.2byte	0x4
 11724 0bef F3       		.byte	0xf3
 11725 0bf0 01       		.uleb128 0x1
 11726 0bf1 50       		.byte	0x50
 11727 0bf2 9F       		.byte	0x9f
 11728 0bf3 00000000 		.4byte	0
 11729 0bf7 00000000 		.4byte	0
ARM GAS  C:\Users\jo\AppData\Local\Temp\ccyP7UZh.s 			page 210


 11730              	.LLST27:
 11731 0bfb 00000000 		.4byte	.LVL126
 11732 0bff 48000000 		.4byte	.LVL129
 11733 0c03 0100     		.2byte	0x1
 11734 0c05 51       		.byte	0x51
 11735 0c06 48000000 		.4byte	.LVL129
 11736 0c0a 52020000 		.4byte	.LVL138
 11737 0c0e 0100     		.2byte	0x1
 11738 0c10 55       		.byte	0x55
 11739 0c11 52020000 		.4byte	.LVL138
 11740 0c15 58020000 		.4byte	.LFE6
 11741 0c19 0400     		.2byte	0x4
 11742 0c1b F3       		.byte	0xf3
 11743 0c1c 01       		.uleb128 0x1
 11744 0c1d 51       		.byte	0x51
 11745 0c1e 9F       		.byte	0x9f
 11746 0c1f 00000000 		.4byte	0
 11747 0c23 00000000 		.4byte	0
 11748              	.LLST28:
 11749 0c27 36000000 		.4byte	.LVL128
 11750 0c2b 56000000 		.4byte	.LVL130
 11751 0c2f 0100     		.2byte	0x1
 11752 0c31 52       		.byte	0x52
 11753 0c32 56000000 		.4byte	.LVL130
 11754 0c36 B9000000 		.4byte	.LVL135-1
 11755 0c3a 0700     		.2byte	0x7
 11756 0c3c 74       		.byte	0x74
 11757 0c3d 00       		.sleb128 0
 11758 0c3e 06       		.byte	0x6
 11759 0c3f 08       		.byte	0x8
 11760 0c40 7F       		.byte	0x7f
 11761 0c41 1A       		.byte	0x1a
 11762 0c42 9F       		.byte	0x9f
 11763 0c43 00000000 		.4byte	0
 11764 0c47 00000000 		.4byte	0
 11765              	.LLST29:
 11766 0c4b 5A000000 		.4byte	.LVL131
 11767 0c4f B9000000 		.4byte	.LVL135-1
 11768 0c53 0100     		.2byte	0x1
 11769 0c55 52       		.byte	0x52
 11770 0c56 00000000 		.4byte	0
 11771 0c5a 00000000 		.4byte	0
 11772              	.LLST30:
 11773 0c5e 36000000 		.4byte	.LVL128
 11774 0c62 6E000000 		.4byte	.LVL132
 11775 0c66 0600     		.2byte	0x6
 11776 0c68 56       		.byte	0x56
 11777 0c69 93       		.byte	0x93
 11778 0c6a 04       		.uleb128 0x4
 11779 0c6b 57       		.byte	0x57
 11780 0c6c 93       		.byte	0x93
 11781 0c6d 04       		.uleb128 0x4
 11782 0c6e 00000000 		.4byte	0
 11783 0c72 00000000 		.4byte	0
 11784              	.LLST31:
 11785 0c76 36000000 		.4byte	.LVL128
 11786 0c7a 8A000000 		.4byte	.LVL133
ARM GAS  C:\Users\jo\AppData\Local\Temp\ccyP7UZh.s 			page 211


 11787 0c7e 0600     		.2byte	0x6
 11788 0c80 50       		.byte	0x50
 11789 0c81 93       		.byte	0x93
 11790 0c82 04       		.uleb128 0x4
 11791 0c83 53       		.byte	0x53
 11792 0c84 93       		.byte	0x93
 11793 0c85 04       		.uleb128 0x4
 11794 0c86 00000000 		.4byte	0
 11795 0c8a 00000000 		.4byte	0
 11796              	.LLST33:
 11797 0c8e 5A000000 		.4byte	.LVL131
 11798 0c92 52020000 		.4byte	.LVL138
 11799 0c96 0100     		.2byte	0x1
 11800 0c98 54       		.byte	0x54
 11801 0c99 52020000 		.4byte	.LVL138
 11802 0c9d 58020000 		.4byte	.LFE6
 11803 0ca1 0400     		.2byte	0x4
 11804 0ca3 F3       		.byte	0xf3
 11805 0ca4 01       		.uleb128 0x1
 11806 0ca5 50       		.byte	0x50
 11807 0ca6 9F       		.byte	0x9f
 11808 0ca7 00000000 		.4byte	0
 11809 0cab 00000000 		.4byte	0
 11810              	.LLST34:
 11811 0caf BA000000 		.4byte	.LVL135
 11812 0cb3 BE000000 		.4byte	.LVL136
 11813 0cb7 0300     		.2byte	0x3
 11814 0cb9 91       		.byte	0x91
 11815 0cba 48       		.sleb128 -56
 11816 0cbb 9F       		.byte	0x9f
 11817 0cbc BE000000 		.4byte	.LVL136
 11818 0cc0 C3000000 		.4byte	.LVL137-1
 11819 0cc4 0100     		.2byte	0x1
 11820 0cc6 51       		.byte	0x51
 11821 0cc7 C3000000 		.4byte	.LVL137-1
 11822 0ccb 52020000 		.4byte	.LVL138
 11823 0ccf 0300     		.2byte	0x3
 11824 0cd1 91       		.byte	0x91
 11825 0cd2 48       		.sleb128 -56
 11826 0cd3 9F       		.byte	0x9f
 11827 0cd4 52020000 		.4byte	.LVL138
 11828 0cd8 58020000 		.4byte	.LFE6
 11829 0cdc 0300     		.2byte	0x3
 11830 0cde 7D       		.byte	0x7d
 11831 0cdf 48       		.sleb128 -56
 11832 0ce0 9F       		.byte	0x9f
 11833 0ce1 00000000 		.4byte	0
 11834 0ce5 00000000 		.4byte	0
 11835              	.LLST35:
 11836 0ce9 BA000000 		.4byte	.LVL135
 11837 0ced 52020000 		.4byte	.LVL138
 11838 0cf1 0100     		.2byte	0x1
 11839 0cf3 54       		.byte	0x54
 11840 0cf4 52020000 		.4byte	.LVL138
 11841 0cf8 58020000 		.4byte	.LFE6
 11842 0cfc 0400     		.2byte	0x4
 11843 0cfe F3       		.byte	0xf3
ARM GAS  C:\Users\jo\AppData\Local\Temp\ccyP7UZh.s 			page 212


 11844 0cff 01       		.uleb128 0x1
 11845 0d00 50       		.byte	0x50
 11846 0d01 9F       		.byte	0x9f
 11847 0d02 00000000 		.4byte	0
 11848 0d06 00000000 		.4byte	0
 11849              	.LLST36:
 11850 0d0a 00000000 		.4byte	.LVL139
 11851 0d0e 10000000 		.4byte	.LVL142
 11852 0d12 0100     		.2byte	0x1
 11853 0d14 50       		.byte	0x50
 11854 0d15 10000000 		.4byte	.LVL142
 11855 0d19 48000000 		.4byte	.LFE7
 11856 0d1d 0100     		.2byte	0x1
 11857 0d1f 57       		.byte	0x57
 11858 0d20 00000000 		.4byte	0
 11859 0d24 00000000 		.4byte	0
 11860              	.LLST37:
 11861 0d28 00000000 		.4byte	.LVL139
 11862 0d2c 0A000000 		.4byte	.LVL141
 11863 0d30 0100     		.2byte	0x1
 11864 0d32 51       		.byte	0x51
 11865 0d33 0A000000 		.4byte	.LVL141
 11866 0d37 48000000 		.4byte	.LFE7
 11867 0d3b 0100     		.2byte	0x1
 11868 0d3d 54       		.byte	0x54
 11869 0d3e 00000000 		.4byte	0
 11870 0d42 00000000 		.4byte	0
 11871              	.LLST38:
 11872 0d46 00000000 		.4byte	.LVL139
 11873 0d4a 14000000 		.4byte	.LVL143
 11874 0d4e 0100     		.2byte	0x1
 11875 0d50 52       		.byte	0x52
 11876 0d51 14000000 		.4byte	.LVL143
 11877 0d55 48000000 		.4byte	.LFE7
 11878 0d59 0100     		.2byte	0x1
 11879 0d5b 55       		.byte	0x55
 11880 0d5c 00000000 		.4byte	0
 11881 0d60 00000000 		.4byte	0
 11882              	.LLST39:
 11883 0d64 00000000 		.4byte	.LVL139
 11884 0d68 17000000 		.4byte	.LVL144-1
 11885 0d6c 0100     		.2byte	0x1
 11886 0d6e 53       		.byte	0x53
 11887 0d6f 17000000 		.4byte	.LVL144-1
 11888 0d73 48000000 		.4byte	.LFE7
 11889 0d77 0100     		.2byte	0x1
 11890 0d79 56       		.byte	0x56
 11891 0d7a 00000000 		.4byte	0
 11892 0d7e 00000000 		.4byte	0
 11893              	.LLST40:
 11894 0d82 04000000 		.4byte	.LVL140
 11895 0d86 3A000000 		.4byte	.LVL150
 11896 0d8a 0100     		.2byte	0x1
 11897 0d8c 5D       		.byte	0x5d
 11898 0d8d 3A000000 		.4byte	.LVL150
 11899 0d91 3C000000 		.4byte	.LVL151
 11900 0d95 0400     		.2byte	0x4
ARM GAS  C:\Users\jo\AppData\Local\Temp\ccyP7UZh.s 			page 213


 11901 0d97 91       		.byte	0x91
 11902 0d98 907C     		.sleb128 -496
 11903 0d9a 9F       		.byte	0x9f
 11904 0d9b 3C000000 		.4byte	.LVL151
 11905 0d9f 48000000 		.4byte	.LFE7
 11906 0da3 0100     		.2byte	0x1
 11907 0da5 5D       		.byte	0x5d
 11908 0da6 00000000 		.4byte	0
 11909 0daa 00000000 		.4byte	0
 11910              	.LLST41:
 11911 0dae 20000000 		.4byte	.LVL145
 11912 0db2 3A000000 		.4byte	.LVL150
 11913 0db6 0100     		.2byte	0x1
 11914 0db8 5D       		.byte	0x5d
 11915 0db9 3A000000 		.4byte	.LVL150
 11916 0dbd 3C000000 		.4byte	.LVL151
 11917 0dc1 0400     		.2byte	0x4
 11918 0dc3 91       		.byte	0x91
 11919 0dc4 907C     		.sleb128 -496
 11920 0dc6 9F       		.byte	0x9f
 11921 0dc7 3C000000 		.4byte	.LVL151
 11922 0dcb 48000000 		.4byte	.LFE7
 11923 0dcf 0100     		.2byte	0x1
 11924 0dd1 5D       		.byte	0x5d
 11925 0dd2 00000000 		.4byte	0
 11926 0dd6 00000000 		.4byte	0
 11927              	.LLST42:
 11928 0dda 2A000000 		.4byte	.LVL146
 11929 0dde 3A000000 		.4byte	.LVL150
 11930 0de2 0100     		.2byte	0x1
 11931 0de4 5D       		.byte	0x5d
 11932 0de5 3A000000 		.4byte	.LVL150
 11933 0de9 3C000000 		.4byte	.LVL151
 11934 0ded 0400     		.2byte	0x4
 11935 0def 91       		.byte	0x91
 11936 0df0 907C     		.sleb128 -496
 11937 0df2 9F       		.byte	0x9f
 11938 0df3 00000000 		.4byte	0
 11939 0df7 00000000 		.4byte	0
 11940              	.LLST43:
 11941 0dfb 2A000000 		.4byte	.LVL146
 11942 0dff 2E000000 		.4byte	.LVL147
 11943 0e03 0400     		.2byte	0x4
 11944 0e05 0A       		.byte	0xa
 11945 0e06 D701     		.2byte	0x1d7
 11946 0e08 9F       		.byte	0x9f
 11947 0e09 2E000000 		.4byte	.LVL147
 11948 0e0d 30000000 		.4byte	.LVL148
 11949 0e11 0800     		.2byte	0x8
 11950 0e13 91       		.byte	0x91
 11951 0e14 00       		.sleb128 0
 11952 0e15 73       		.byte	0x73
 11953 0e16 00       		.sleb128 0
 11954 0e17 1C       		.byte	0x1c
 11955 0e18 49       		.byte	0x49
 11956 0e19 1C       		.byte	0x1c
 11957 0e1a 9F       		.byte	0x9f
ARM GAS  C:\Users\jo\AppData\Local\Temp\ccyP7UZh.s 			page 214


 11958 0e1b 30000000 		.4byte	.LVL148
 11959 0e1f 34000000 		.4byte	.LVL149
 11960 0e23 0800     		.2byte	0x8
 11961 0e25 91       		.byte	0x91
 11962 0e26 00       		.sleb128 0
 11963 0e27 73       		.byte	0x73
 11964 0e28 00       		.sleb128 0
 11965 0e29 1C       		.byte	0x1c
 11966 0e2a 4A       		.byte	0x4a
 11967 0e2b 1C       		.byte	0x1c
 11968 0e2c 9F       		.byte	0x9f
 11969 0e2d 34000000 		.4byte	.LVL149
 11970 0e31 3C000000 		.4byte	.LVL151
 11971 0e35 0800     		.2byte	0x8
 11972 0e37 91       		.byte	0x91
 11973 0e38 00       		.sleb128 0
 11974 0e39 73       		.byte	0x73
 11975 0e3a 00       		.sleb128 0
 11976 0e3b 1C       		.byte	0x1c
 11977 0e3c 49       		.byte	0x49
 11978 0e3d 1C       		.byte	0x1c
 11979 0e3e 9F       		.byte	0x9f
 11980 0e3f 00000000 		.4byte	0
 11981 0e43 00000000 		.4byte	0
 11982              	.LLST44:
 11983 0e47 2A000000 		.4byte	.LVL146
 11984 0e4b 2E000000 		.4byte	.LVL147
 11985 0e4f 0100     		.2byte	0x1
 11986 0e51 5D       		.byte	0x5d
 11987 0e52 2E000000 		.4byte	.LVL147
 11988 0e56 34000000 		.4byte	.LVL149
 11989 0e5a 0300     		.2byte	0x3
 11990 0e5c 73       		.byte	0x73
 11991 0e5d 01       		.sleb128 1
 11992 0e5e 9F       		.byte	0x9f
 11993 0e5f 34000000 		.4byte	.LVL149
 11994 0e63 3C000000 		.4byte	.LVL151
 11995 0e67 0100     		.2byte	0x1
 11996 0e69 53       		.byte	0x53
 11997 0e6a 00000000 		.4byte	0
 11998 0e6e 00000000 		.4byte	0
 11999              	.LLST45:
 12000 0e72 00000000 		.4byte	.LVL153
 12001 0e76 0F000000 		.4byte	.LVL155-1
 12002 0e7a 0100     		.2byte	0x1
 12003 0e7c 50       		.byte	0x50
 12004 0e7d 0F000000 		.4byte	.LVL155-1
 12005 0e81 88000000 		.4byte	.LFE8
 12006 0e85 0400     		.2byte	0x4
 12007 0e87 F3       		.byte	0xf3
 12008 0e88 01       		.uleb128 0x1
 12009 0e89 50       		.byte	0x50
 12010 0e8a 9F       		.byte	0x9f
 12011 0e8b 00000000 		.4byte	0
 12012 0e8f 00000000 		.4byte	0
 12013              	.LLST46:
 12014 0e93 00000000 		.4byte	.LVL153
ARM GAS  C:\Users\jo\AppData\Local\Temp\ccyP7UZh.s 			page 215


 12015 0e97 0A000000 		.4byte	.LVL154
 12016 0e9b 0100     		.2byte	0x1
 12017 0e9d 51       		.byte	0x51
 12018 0e9e 0A000000 		.4byte	.LVL154
 12019 0ea2 88000000 		.4byte	.LFE8
 12020 0ea6 0100     		.2byte	0x1
 12021 0ea8 57       		.byte	0x57
 12022 0ea9 00000000 		.4byte	0
 12023 0ead 00000000 		.4byte	0
 12024              	.LLST47:
 12025 0eb1 00000000 		.4byte	.LVL153
 12026 0eb5 0F000000 		.4byte	.LVL155-1
 12027 0eb9 0100     		.2byte	0x1
 12028 0ebb 52       		.byte	0x52
 12029 0ebc 0F000000 		.4byte	.LVL155-1
 12030 0ec0 2A000000 		.4byte	.LVL160
 12031 0ec4 0100     		.2byte	0x1
 12032 0ec6 54       		.byte	0x54
 12033 0ec7 2A000000 		.4byte	.LVL160
 12034 0ecb 7E000000 		.4byte	.LVL179
 12035 0ecf 0400     		.2byte	0x4
 12036 0ed1 F3       		.byte	0xf3
 12037 0ed2 01       		.uleb128 0x1
 12038 0ed3 52       		.byte	0x52
 12039 0ed4 9F       		.byte	0x9f
 12040 0ed5 7E000000 		.4byte	.LVL179
 12041 0ed9 88000000 		.4byte	.LFE8
 12042 0edd 0100     		.2byte	0x1
 12043 0edf 54       		.byte	0x54
 12044 0ee0 00000000 		.4byte	0
 12045 0ee4 00000000 		.4byte	0
 12046              	.LLST48:
 12047 0ee8 10000000 		.4byte	.LVL155
 12048 0eec 1C000000 		.4byte	.LVL157
 12049 0ef0 0100     		.2byte	0x1
 12050 0ef2 50       		.byte	0x50
 12051 0ef3 1C000000 		.4byte	.LVL157
 12052 0ef7 68000000 		.4byte	.LVL174
 12053 0efb 0100     		.2byte	0x1
 12054 0efd 56       		.byte	0x56
 12055 0efe 68000000 		.4byte	.LVL174
 12056 0f02 6B000000 		.4byte	.LVL175-1
 12057 0f06 0100     		.2byte	0x1
 12058 0f08 50       		.byte	0x50
 12059 0f09 6B000000 		.4byte	.LVL175-1
 12060 0f0d 74000000 		.4byte	.LVL177
 12061 0f11 0100     		.2byte	0x1
 12062 0f13 56       		.byte	0x56
 12063 0f14 74000000 		.4byte	.LVL177
 12064 0f18 77000000 		.4byte	.LVL178-1
 12065 0f1c 0100     		.2byte	0x1
 12066 0f1e 50       		.byte	0x50
 12067 0f1f 77000000 		.4byte	.LVL178-1
 12068 0f23 7E000000 		.4byte	.LVL179
 12069 0f27 0100     		.2byte	0x1
 12070 0f29 56       		.byte	0x56
 12071 0f2a 7E000000 		.4byte	.LVL179
ARM GAS  C:\Users\jo\AppData\Local\Temp\ccyP7UZh.s 			page 216


 12072 0f2e 82000000 		.4byte	.LVL180
 12073 0f32 0100     		.2byte	0x1
 12074 0f34 50       		.byte	0x50
 12075 0f35 82000000 		.4byte	.LVL180
 12076 0f39 88000000 		.4byte	.LFE8
 12077 0f3d 0100     		.2byte	0x1
 12078 0f3f 56       		.byte	0x56
 12079 0f40 00000000 		.4byte	0
 12080 0f44 00000000 		.4byte	0
 12081              	.LLST49:
 12082 0f48 38000000 		.4byte	.LVL161
 12083 0f4c 42000000 		.4byte	.LVL164
 12084 0f50 0100     		.2byte	0x1
 12085 0f52 50       		.byte	0x50
 12086 0f53 42000000 		.4byte	.LVL164
 12087 0f57 45000000 		.4byte	.LVL165-1
 12088 0f5b 0100     		.2byte	0x1
 12089 0f5d 52       		.byte	0x52
 12090 0f5e 45000000 		.4byte	.LVL165-1
 12091 0f62 48000000 		.4byte	.LVL166
 12092 0f66 0100     		.2byte	0x1
 12093 0f68 54       		.byte	0x54
 12094 0f69 48000000 		.4byte	.LVL166
 12095 0f6d 4A000000 		.4byte	.LVL167
 12096 0f71 0100     		.2byte	0x1
 12097 0f73 50       		.byte	0x50
 12098 0f74 4A000000 		.4byte	.LVL167
 12099 0f78 4F000000 		.4byte	.LVL169-1
 12100 0f7c 0100     		.2byte	0x1
 12101 0f7e 52       		.byte	0x52
 12102 0f7f 4F000000 		.4byte	.LVL169-1
 12103 0f83 54000000 		.4byte	.LVL170
 12104 0f87 0100     		.2byte	0x1
 12105 0f89 54       		.byte	0x54
 12106 0f8a 54000000 		.4byte	.LVL170
 12107 0f8e 66000000 		.4byte	.LVL173
 12108 0f92 0100     		.2byte	0x1
 12109 0f94 50       		.byte	0x50
 12110 0f95 00000000 		.4byte	0
 12111 0f99 00000000 		.4byte	0
 12112              	.LLST50:
 12113 0f9d 14000000 		.4byte	.LVL156
 12114 0fa1 6E000000 		.4byte	.LVL176
 12115 0fa5 0100     		.2byte	0x1
 12116 0fa7 5D       		.byte	0x5d
 12117 0fa8 74000000 		.4byte	.LVL177
 12118 0fac 7E000000 		.4byte	.LVL179
 12119 0fb0 0100     		.2byte	0x1
 12120 0fb2 5D       		.byte	0x5d
 12121 0fb3 00000000 		.4byte	0
 12122 0fb7 00000000 		.4byte	0
 12123              	.LLST51:
 12124 0fbb 3C000000 		.4byte	.LVL162
 12125 0fbf 42000000 		.4byte	.LVL164
 12126 0fc3 0100     		.2byte	0x1
 12127 0fc5 50       		.byte	0x50
 12128 0fc6 42000000 		.4byte	.LVL164
ARM GAS  C:\Users\jo\AppData\Local\Temp\ccyP7UZh.s 			page 217


 12129 0fca 45000000 		.4byte	.LVL165-1
 12130 0fce 0100     		.2byte	0x1
 12131 0fd0 52       		.byte	0x52
 12132 0fd1 45000000 		.4byte	.LVL165-1
 12133 0fd5 48000000 		.4byte	.LVL166
 12134 0fd9 0100     		.2byte	0x1
 12135 0fdb 54       		.byte	0x54
 12136 0fdc 48000000 		.4byte	.LVL166
 12137 0fe0 4A000000 		.4byte	.LVL167
 12138 0fe4 0100     		.2byte	0x1
 12139 0fe6 50       		.byte	0x50
 12140 0fe7 4A000000 		.4byte	.LVL167
 12141 0feb 4F000000 		.4byte	.LVL169-1
 12142 0fef 0100     		.2byte	0x1
 12143 0ff1 52       		.byte	0x52
 12144 0ff2 4F000000 		.4byte	.LVL169-1
 12145 0ff6 54000000 		.4byte	.LVL170
 12146 0ffa 0100     		.2byte	0x1
 12147 0ffc 54       		.byte	0x54
 12148 0ffd 54000000 		.4byte	.LVL170
 12149 1001 66000000 		.4byte	.LVL173
 12150 1005 0100     		.2byte	0x1
 12151 1007 50       		.byte	0x50
 12152 1008 00000000 		.4byte	0
 12153 100c 00000000 		.4byte	0
 12154              	.LLST52:
 12155 1010 38000000 		.4byte	.LVL161
 12156 1014 40000000 		.4byte	.LVL163
 12157 1018 0100     		.2byte	0x1
 12158 101a 55       		.byte	0x55
 12159 101b 40000000 		.4byte	.LVL163
 12160 101f 45000000 		.4byte	.LVL165-1
 12161 1023 0100     		.2byte	0x1
 12162 1025 51       		.byte	0x51
 12163 1026 45000000 		.4byte	.LVL165-1
 12164 102a 48000000 		.4byte	.LVL166
 12165 102e 0100     		.2byte	0x1
 12166 1030 55       		.byte	0x55
 12167 1031 48000000 		.4byte	.LVL166
 12168 1035 4C000000 		.4byte	.LVL168
 12169 1039 0100     		.2byte	0x1
 12170 103b 51       		.byte	0x51
 12171 103c 4C000000 		.4byte	.LVL168
 12172 1040 6E000000 		.4byte	.LVL176
 12173 1044 0100     		.2byte	0x1
 12174 1046 55       		.byte	0x55
 12175 1047 74000000 		.4byte	.LVL177
 12176 104b 7E000000 		.4byte	.LVL179
 12177 104f 0100     		.2byte	0x1
 12178 1051 55       		.byte	0x55
 12179 1052 00000000 		.4byte	0
 12180 1056 00000000 		.4byte	0
 12181              	.LLST53:
 12182 105a 38000000 		.4byte	.LVL161
 12183 105e 6E000000 		.4byte	.LVL176
 12184 1062 0100     		.2byte	0x1
 12185 1064 5D       		.byte	0x5d
ARM GAS  C:\Users\jo\AppData\Local\Temp\ccyP7UZh.s 			page 218


 12186 1065 74000000 		.4byte	.LVL177
 12187 1069 7E000000 		.4byte	.LVL179
 12188 106d 0100     		.2byte	0x1
 12189 106f 5D       		.byte	0x5d
 12190 1070 00000000 		.4byte	0
 12191 1074 00000000 		.4byte	0
 12192              	.LLST54:
 12193 1078 50000000 		.4byte	.LVL169
 12194 107c 6E000000 		.4byte	.LVL176
 12195 1080 0100     		.2byte	0x1
 12196 1082 5D       		.byte	0x5d
 12197 1083 74000000 		.4byte	.LVL177
 12198 1087 7E000000 		.4byte	.LVL179
 12199 108b 0100     		.2byte	0x1
 12200 108d 5D       		.byte	0x5d
 12201 108e 00000000 		.4byte	0
 12202 1092 00000000 		.4byte	0
 12203              	.LLST55:
 12204 1096 50000000 		.4byte	.LVL169
 12205 109a 54000000 		.4byte	.LVL170
 12206 109e 0400     		.2byte	0x4
 12207 10a0 0A       		.byte	0xa
 12208 10a1 D701     		.2byte	0x1d7
 12209 10a3 9F       		.byte	0x9f
 12210 10a4 54000000 		.4byte	.LVL170
 12211 10a8 56000000 		.4byte	.LVL171
 12212 10ac 0A00     		.2byte	0xa
 12213 10ae 91       		.byte	0x91
 12214 10af 00       		.sleb128 0
 12215 10b0 73       		.byte	0x73
 12216 10b1 00       		.sleb128 0
 12217 10b2 1C       		.byte	0x1c
 12218 10b3 0A       		.byte	0xa
 12219 10b4 1904     		.2byte	0x419
 12220 10b6 1C       		.byte	0x1c
 12221 10b7 9F       		.byte	0x9f
 12222 10b8 56000000 		.4byte	.LVL171
 12223 10bc 58000000 		.4byte	.LVL172
 12224 10c0 0A00     		.2byte	0xa
 12225 10c2 91       		.byte	0x91
 12226 10c3 00       		.sleb128 0
 12227 10c4 73       		.byte	0x73
 12228 10c5 00       		.sleb128 0
 12229 10c6 1C       		.byte	0x1c
 12230 10c7 0A       		.byte	0xa
 12231 10c8 1A04     		.2byte	0x41a
 12232 10ca 1C       		.byte	0x1c
 12233 10cb 9F       		.byte	0x9f
 12234 10cc 58000000 		.4byte	.LVL172
 12235 10d0 6B000000 		.4byte	.LVL175-1
 12236 10d4 0A00     		.2byte	0xa
 12237 10d6 91       		.byte	0x91
 12238 10d7 00       		.sleb128 0
 12239 10d8 73       		.byte	0x73
 12240 10d9 00       		.sleb128 0
 12241 10da 1C       		.byte	0x1c
 12242 10db 0A       		.byte	0xa
ARM GAS  C:\Users\jo\AppData\Local\Temp\ccyP7UZh.s 			page 219


 12243 10dc 1904     		.2byte	0x419
 12244 10de 1C       		.byte	0x1c
 12245 10df 9F       		.byte	0x9f
 12246 10e0 74000000 		.4byte	.LVL177
 12247 10e4 77000000 		.4byte	.LVL178-1
 12248 10e8 0A00     		.2byte	0xa
 12249 10ea 91       		.byte	0x91
 12250 10eb 00       		.sleb128 0
 12251 10ec 73       		.byte	0x73
 12252 10ed 00       		.sleb128 0
 12253 10ee 1C       		.byte	0x1c
 12254 10ef 0A       		.byte	0xa
 12255 10f0 1904     		.2byte	0x419
 12256 10f2 1C       		.byte	0x1c
 12257 10f3 9F       		.byte	0x9f
 12258 10f4 00000000 		.4byte	0
 12259 10f8 00000000 		.4byte	0
 12260              	.LLST56:
 12261 10fc 50000000 		.4byte	.LVL169
 12262 1100 54000000 		.4byte	.LVL170
 12263 1104 0100     		.2byte	0x1
 12264 1106 5D       		.byte	0x5d
 12265 1107 54000000 		.4byte	.LVL170
 12266 110b 58000000 		.4byte	.LVL172
 12267 110f 0300     		.2byte	0x3
 12268 1111 73       		.byte	0x73
 12269 1112 01       		.sleb128 1
 12270 1113 9F       		.byte	0x9f
 12271 1114 58000000 		.4byte	.LVL172
 12272 1118 6B000000 		.4byte	.LVL175-1
 12273 111c 0100     		.2byte	0x1
 12274 111e 53       		.byte	0x53
 12275 111f 74000000 		.4byte	.LVL177
 12276 1123 77000000 		.4byte	.LVL178-1
 12277 1127 0100     		.2byte	0x1
 12278 1129 53       		.byte	0x53
 12279 112a 00000000 		.4byte	0
 12280 112e 00000000 		.4byte	0
 12281              	.LLST57:
 12282 1132 00000000 		.4byte	.LVL181
 12283 1136 1C000000 		.4byte	.LVL184
 12284 113a 0100     		.2byte	0x1
 12285 113c 50       		.byte	0x50
 12286 113d 1C000000 		.4byte	.LVL184
 12287 1141 86000000 		.4byte	.LVL195
 12288 1145 0100     		.2byte	0x1
 12289 1147 56       		.byte	0x56
 12290 1148 86000000 		.4byte	.LVL195
 12291 114c 88000000 		.4byte	.LVL196
 12292 1150 0100     		.2byte	0x1
 12293 1152 50       		.byte	0x50
 12294 1153 88000000 		.4byte	.LVL196
 12295 1157 C0000000 		.4byte	.LFE9
 12296 115b 0100     		.2byte	0x1
 12297 115d 56       		.byte	0x56
 12298 115e 00000000 		.4byte	0
 12299 1162 00000000 		.4byte	0
ARM GAS  C:\Users\jo\AppData\Local\Temp\ccyP7UZh.s 			page 220


 12300              	.LLST58:
 12301 1166 00000000 		.4byte	.LVL181
 12302 116a 18000000 		.4byte	.LVL182
 12303 116e 0100     		.2byte	0x1
 12304 1170 51       		.byte	0x51
 12305 1171 18000000 		.4byte	.LVL182
 12306 1175 86000000 		.4byte	.LVL195
 12307 1179 0100     		.2byte	0x1
 12308 117b 5A       		.byte	0x5a
 12309 117c 86000000 		.4byte	.LVL195
 12310 1180 8E000000 		.4byte	.LVL197
 12311 1184 0100     		.2byte	0x1
 12312 1186 51       		.byte	0x51
 12313 1187 8E000000 		.4byte	.LVL197
 12314 118b AC000000 		.4byte	.LVL201
 12315 118f 0100     		.2byte	0x1
 12316 1191 5A       		.byte	0x5a
 12317 1192 AC000000 		.4byte	.LVL201
 12318 1196 C0000000 		.4byte	.LFE9
 12319 119a 0100     		.2byte	0x1
 12320 119c 5D       		.byte	0x5d
 12321 119d 00000000 		.4byte	0
 12322 11a1 00000000 		.4byte	0
 12323              	.LLST59:
 12324 11a5 00000000 		.4byte	.LVL181
 12325 11a9 1A000000 		.4byte	.LVL183
 12326 11ad 0100     		.2byte	0x1
 12327 11af 52       		.byte	0x52
 12328 11b0 1A000000 		.4byte	.LVL183
 12329 11b4 86000000 		.4byte	.LVL195
 12330 11b8 0100     		.2byte	0x1
 12331 11ba 55       		.byte	0x55
 12332 11bb 86000000 		.4byte	.LVL195
 12333 11bf 90000000 		.4byte	.LVL198
 12334 11c3 0100     		.2byte	0x1
 12335 11c5 52       		.byte	0x52
 12336 11c6 90000000 		.4byte	.LVL198
 12337 11ca AA000000 		.4byte	.LVL200
 12338 11ce 0100     		.2byte	0x1
 12339 11d0 55       		.byte	0x55
 12340 11d1 AA000000 		.4byte	.LVL200
 12341 11d5 AC000000 		.4byte	.LVL201
 12342 11d9 0400     		.2byte	0x4
 12343 11db F3       		.byte	0xf3
 12344 11dc 01       		.uleb128 0x1
 12345 11dd 52       		.byte	0x52
 12346 11de 9F       		.byte	0x9f
 12347 11df AC000000 		.4byte	.LVL201
 12348 11e3 C0000000 		.4byte	.LFE9
 12349 11e7 0100     		.2byte	0x1
 12350 11e9 55       		.byte	0x55
 12351 11ea 00000000 		.4byte	0
 12352 11ee 00000000 		.4byte	0
 12353              	.LLST60:
 12354 11f2 00000000 		.4byte	.LVL181
 12355 11f6 23000000 		.4byte	.LVL185-1
 12356 11fa 0100     		.2byte	0x1
ARM GAS  C:\Users\jo\AppData\Local\Temp\ccyP7UZh.s 			page 221


 12357 11fc 53       		.byte	0x53
 12358 11fd 23000000 		.4byte	.LVL185-1
 12359 1201 86000000 		.4byte	.LVL195
 12360 1205 0100     		.2byte	0x1
 12361 1207 58       		.byte	0x58
 12362 1208 86000000 		.4byte	.LVL195
 12363 120c 93000000 		.4byte	.LVL199-1
 12364 1210 0100     		.2byte	0x1
 12365 1212 53       		.byte	0x53
 12366 1213 93000000 		.4byte	.LVL199-1
 12367 1217 C0000000 		.4byte	.LFE9
 12368 121b 0100     		.2byte	0x1
 12369 121d 58       		.byte	0x58
 12370 121e 00000000 		.4byte	0
 12371 1222 00000000 		.4byte	0
 12372              	.LLST61:
 12373 1226 2E000000 		.4byte	.LVL186
 12374 122a 3E000000 		.4byte	.LVL187
 12375 122e 0200     		.2byte	0x2
 12376 1230 30       		.byte	0x30
 12377 1231 9F       		.byte	0x9f
 12378 1232 3E000000 		.4byte	.LVL187
 12379 1236 62000000 		.4byte	.LVL189
 12380 123a 0100     		.2byte	0x1
 12381 123c 52       		.byte	0x52
 12382 123d BC000000 		.4byte	.LVL203
 12383 1241 C0000000 		.4byte	.LFE9
 12384 1245 0200     		.2byte	0x2
 12385 1247 30       		.byte	0x30
 12386 1248 9F       		.byte	0x9f
 12387 1249 00000000 		.4byte	0
 12388 124d 00000000 		.4byte	0
 12389              	.LLST62:
 12390 1251 6A000000 		.4byte	.LVL190
 12391 1255 86000000 		.4byte	.LVL195
 12392 1259 0300     		.2byte	0x3
 12393 125b 08       		.byte	0x8
 12394 125c 80       		.byte	0x80
 12395 125d 9F       		.byte	0x9f
 12396 125e 00000000 		.4byte	0
 12397 1262 00000000 		.4byte	0
 12398              	.LLST63:
 12399 1266 6A000000 		.4byte	.LVL190
 12400 126a 86000000 		.4byte	.LVL195
 12401 126e 0100     		.2byte	0x1
 12402 1270 57       		.byte	0x57
 12403 1271 00000000 		.4byte	0
 12404 1275 00000000 		.4byte	0
 12405              	.LLST64:
 12406 1279 6A000000 		.4byte	.LVL190
 12407 127d 86000000 		.4byte	.LVL195
 12408 1281 0100     		.2byte	0x1
 12409 1283 56       		.byte	0x56
 12410 1284 00000000 		.4byte	0
 12411 1288 00000000 		.4byte	0
 12412              	.LLST65:
 12413 128c 74000000 		.4byte	.LVL191
ARM GAS  C:\Users\jo\AppData\Local\Temp\ccyP7UZh.s 			page 222


 12414 1290 76000000 		.4byte	.LVL192
 12415 1294 0300     		.2byte	0x3
 12416 1296 08       		.byte	0x8
 12417 1297 3F       		.byte	0x3f
 12418 1298 9F       		.byte	0x9f
 12419 1299 76000000 		.4byte	.LVL192
 12420 129d 78000000 		.4byte	.LVL193
 12421 12a1 0900     		.2byte	0x9
 12422 12a3 91       		.byte	0x91
 12423 12a4 00       		.sleb128 0
 12424 12a5 74       		.byte	0x74
 12425 12a6 00       		.sleb128 0
 12426 12a7 1C       		.byte	0x1c
 12427 12a8 08       		.byte	0x8
 12428 12a9 21       		.byte	0x21
 12429 12aa 1C       		.byte	0x1c
 12430 12ab 9F       		.byte	0x9f
 12431 12ac 78000000 		.4byte	.LVL193
 12432 12b0 7C000000 		.4byte	.LVL194
 12433 12b4 0900     		.2byte	0x9
 12434 12b6 91       		.byte	0x91
 12435 12b7 00       		.sleb128 0
 12436 12b8 74       		.byte	0x74
 12437 12b9 00       		.sleb128 0
 12438 12ba 1C       		.byte	0x1c
 12439 12bb 08       		.byte	0x8
 12440 12bc 22       		.byte	0x22
 12441 12bd 1C       		.byte	0x1c
 12442 12be 9F       		.byte	0x9f
 12443 12bf 7C000000 		.4byte	.LVL194
 12444 12c3 86000000 		.4byte	.LVL195
 12445 12c7 0900     		.2byte	0x9
 12446 12c9 91       		.byte	0x91
 12447 12ca 00       		.sleb128 0
 12448 12cb 74       		.byte	0x74
 12449 12cc 00       		.sleb128 0
 12450 12cd 1C       		.byte	0x1c
 12451 12ce 08       		.byte	0x8
 12452 12cf 21       		.byte	0x21
 12453 12d0 1C       		.byte	0x1c
 12454 12d1 9F       		.byte	0x9f
 12455 12d2 00000000 		.4byte	0
 12456 12d6 00000000 		.4byte	0
 12457              	.LLST66:
 12458 12da 74000000 		.4byte	.LVL191
 12459 12de 76000000 		.4byte	.LVL192
 12460 12e2 0100     		.2byte	0x1
 12461 12e4 54       		.byte	0x54
 12462 12e5 76000000 		.4byte	.LVL192
 12463 12e9 7C000000 		.4byte	.LVL194
 12464 12ed 0300     		.2byte	0x3
 12465 12ef 74       		.byte	0x74
 12466 12f0 01       		.sleb128 1
 12467 12f1 9F       		.byte	0x9f
 12468 12f2 7C000000 		.4byte	.LVL194
 12469 12f6 86000000 		.4byte	.LVL195
 12470 12fa 0100     		.2byte	0x1
ARM GAS  C:\Users\jo\AppData\Local\Temp\ccyP7UZh.s 			page 223


 12471 12fc 54       		.byte	0x54
 12472 12fd 00000000 		.4byte	0
 12473 1301 00000000 		.4byte	0
 12474              	.LLST67:
 12475 1305 00000000 		.4byte	.LVL204
 12476 1309 07000000 		.4byte	.LVL205-1
 12477 130d 0100     		.2byte	0x1
 12478 130f 50       		.byte	0x50
 12479 1310 07000000 		.4byte	.LVL205-1
 12480 1314 08000000 		.4byte	.LFE10
 12481 1318 0400     		.2byte	0x4
 12482 131a F3       		.byte	0xf3
 12483 131b 01       		.uleb128 0x1
 12484 131c 50       		.byte	0x50
 12485 131d 9F       		.byte	0x9f
 12486 131e 00000000 		.4byte	0
 12487 1322 00000000 		.4byte	0
 12488              	.LLST68:
 12489 1326 00000000 		.4byte	.LVL204
 12490 132a 07000000 		.4byte	.LVL205-1
 12491 132e 0100     		.2byte	0x1
 12492 1330 51       		.byte	0x51
 12493 1331 07000000 		.4byte	.LVL205-1
 12494 1335 08000000 		.4byte	.LFE10
 12495 1339 0400     		.2byte	0x4
 12496 133b F3       		.byte	0xf3
 12497 133c 01       		.uleb128 0x1
 12498 133d 51       		.byte	0x51
 12499 133e 9F       		.byte	0x9f
 12500 133f 00000000 		.4byte	0
 12501 1343 00000000 		.4byte	0
 12502              	.LLST69:
 12503 1347 00000000 		.4byte	.LVL204
 12504 134b 07000000 		.4byte	.LVL205-1
 12505 134f 0100     		.2byte	0x1
 12506 1351 52       		.byte	0x52
 12507 1352 07000000 		.4byte	.LVL205-1
 12508 1356 08000000 		.4byte	.LFE10
 12509 135a 0400     		.2byte	0x4
 12510 135c F3       		.byte	0xf3
 12511 135d 01       		.uleb128 0x1
 12512 135e 52       		.byte	0x52
 12513 135f 9F       		.byte	0x9f
 12514 1360 00000000 		.4byte	0
 12515 1364 00000000 		.4byte	0
 12516              	.LLST73:
 12517 1368 00000000 		.4byte	.LVL206
 12518 136c 19000000 		.4byte	.LVL209-1
 12519 1370 0100     		.2byte	0x1
 12520 1372 50       		.byte	0x50
 12521 1373 19000000 		.4byte	.LVL209-1
 12522 1377 52000000 		.4byte	.LFE11
 12523 137b 0100     		.2byte	0x1
 12524 137d 54       		.byte	0x54
 12525 137e 00000000 		.4byte	0
 12526 1382 00000000 		.4byte	0
 12527              	.LLST74:
ARM GAS  C:\Users\jo\AppData\Local\Temp\ccyP7UZh.s 			page 224


 12528 1386 00000000 		.4byte	.LVL206
 12529 138a 10000000 		.4byte	.LVL208
 12530 138e 0100     		.2byte	0x1
 12531 1390 51       		.byte	0x51
 12532 1391 10000000 		.4byte	.LVL208
 12533 1395 52000000 		.4byte	.LFE11
 12534 1399 0100     		.2byte	0x1
 12535 139b 56       		.byte	0x56
 12536 139c 00000000 		.4byte	0
 12537 13a0 00000000 		.4byte	0
 12538              	.LLST75:
 12539 13a4 22000000 		.4byte	.LVL210
 12540 13a8 28000000 		.4byte	.LVL211
 12541 13ac 0400     		.2byte	0x4
 12542 13ae 74       		.byte	0x74
 12543 13af D002     		.sleb128 336
 12544 13b1 9F       		.byte	0x9f
 12545 13b2 28000000 		.4byte	.LVL211
 12546 13b6 2D000000 		.4byte	.LVL212-1
 12547 13ba 0100     		.2byte	0x1
 12548 13bc 51       		.byte	0x51
 12549 13bd 2D000000 		.4byte	.LVL212-1
 12550 13c1 52000000 		.4byte	.LFE11
 12551 13c5 0400     		.2byte	0x4
 12552 13c7 74       		.byte	0x74
 12553 13c8 D002     		.sleb128 336
 12554 13ca 9F       		.byte	0x9f
 12555 13cb 00000000 		.4byte	0
 12556 13cf 00000000 		.4byte	0
 12557              	.LLST76:
 12558 13d3 2E000000 		.4byte	.LVL212
 12559 13d7 50000000 		.4byte	.LVL218
 12560 13db 0100     		.2byte	0x1
 12561 13dd 5D       		.byte	0x5d
 12562 13de 50000000 		.4byte	.LVL218
 12563 13e2 52000000 		.4byte	.LFE11
 12564 13e6 0400     		.2byte	0x4
 12565 13e8 91       		.byte	0x91
 12566 13e9 A87F     		.sleb128 -88
 12567 13eb 9F       		.byte	0x9f
 12568 13ec 00000000 		.4byte	0
 12569 13f0 00000000 		.4byte	0
 12570              	.LLST77:
 12571 13f4 40000000 		.4byte	.LVL214
 12572 13f8 44000000 		.4byte	.LVL215
 12573 13fc 0300     		.2byte	0x3
 12574 13fe 08       		.byte	0x8
 12575 13ff 3F       		.byte	0x3f
 12576 1400 9F       		.byte	0x9f
 12577 1401 44000000 		.4byte	.LVL215
 12578 1405 46000000 		.4byte	.LVL216
 12579 1409 0800     		.2byte	0x8
 12580 140b 91       		.byte	0x91
 12581 140c 00       		.sleb128 0
 12582 140d 73       		.byte	0x73
 12583 140e 00       		.sleb128 0
 12584 140f 1C       		.byte	0x1c
ARM GAS  C:\Users\jo\AppData\Local\Temp\ccyP7UZh.s 			page 225


 12585 1410 49       		.byte	0x49
 12586 1411 1C       		.byte	0x1c
 12587 1412 9F       		.byte	0x9f
 12588 1413 46000000 		.4byte	.LVL216
 12589 1417 4A000000 		.4byte	.LVL217
 12590 141b 0800     		.2byte	0x8
 12591 141d 91       		.byte	0x91
 12592 141e 00       		.sleb128 0
 12593 141f 73       		.byte	0x73
 12594 1420 00       		.sleb128 0
 12595 1421 1C       		.byte	0x1c
 12596 1422 4A       		.byte	0x4a
 12597 1423 1C       		.byte	0x1c
 12598 1424 9F       		.byte	0x9f
 12599 1425 4A000000 		.4byte	.LVL217
 12600 1429 52000000 		.4byte	.LFE11
 12601 142d 0800     		.2byte	0x8
 12602 142f 91       		.byte	0x91
 12603 1430 00       		.sleb128 0
 12604 1431 73       		.byte	0x73
 12605 1432 00       		.sleb128 0
 12606 1433 1C       		.byte	0x1c
 12607 1434 49       		.byte	0x49
 12608 1435 1C       		.byte	0x1c
 12609 1436 9F       		.byte	0x9f
 12610 1437 00000000 		.4byte	0
 12611 143b 00000000 		.4byte	0
 12612              	.LLST78:
 12613 143f 40000000 		.4byte	.LVL214
 12614 1443 50000000 		.4byte	.LVL218
 12615 1447 0100     		.2byte	0x1
 12616 1449 5D       		.byte	0x5d
 12617 144a 50000000 		.4byte	.LVL218
 12618 144e 52000000 		.4byte	.LFE11
 12619 1452 0400     		.2byte	0x4
 12620 1454 91       		.byte	0x91
 12621 1455 A87F     		.sleb128 -88
 12622 1457 9F       		.byte	0x9f
 12623 1458 00000000 		.4byte	0
 12624 145c 00000000 		.4byte	0
 12625              	.LLST79:
 12626 1460 40000000 		.4byte	.LVL214
 12627 1464 44000000 		.4byte	.LVL215
 12628 1468 0100     		.2byte	0x1
 12629 146a 5D       		.byte	0x5d
 12630 146b 44000000 		.4byte	.LVL215
 12631 146f 4A000000 		.4byte	.LVL217
 12632 1473 0300     		.2byte	0x3
 12633 1475 73       		.byte	0x73
 12634 1476 01       		.sleb128 1
 12635 1477 9F       		.byte	0x9f
 12636 1478 4A000000 		.4byte	.LVL217
 12637 147c 52000000 		.4byte	.LFE11
 12638 1480 0100     		.2byte	0x1
 12639 1482 53       		.byte	0x53
 12640 1483 00000000 		.4byte	0
 12641 1487 00000000 		.4byte	0
ARM GAS  C:\Users\jo\AppData\Local\Temp\ccyP7UZh.s 			page 226


 12642              	.LLST80:
 12643 148b 00000000 		.4byte	.LVL219
 12644 148f 0B000000 		.4byte	.LVL220-1
 12645 1493 0100     		.2byte	0x1
 12646 1495 50       		.byte	0x50
 12647 1496 0B000000 		.4byte	.LVL220-1
 12648 149a 18000000 		.4byte	.LVL222
 12649 149e 0100     		.2byte	0x1
 12650 14a0 54       		.byte	0x54
 12651 14a1 18000000 		.4byte	.LVL222
 12652 14a5 1B000000 		.4byte	.LVL223-1
 12653 14a9 0100     		.2byte	0x1
 12654 14ab 50       		.byte	0x50
 12655 14ac 1B000000 		.4byte	.LVL223-1
 12656 14b0 1C000000 		.4byte	.LFE12
 12657 14b4 0400     		.2byte	0x4
 12658 14b6 F3       		.byte	0xf3
 12659 14b7 01       		.uleb128 0x1
 12660 14b8 50       		.byte	0x50
 12661 14b9 9F       		.byte	0x9f
 12662 14ba 00000000 		.4byte	0
 12663 14be 00000000 		.4byte	0
 12664              	.LLST81:
 12665 14c2 0C000000 		.4byte	.LVL220
 12666 14c6 12000000 		.4byte	.LVL221
 12667 14ca 0400     		.2byte	0x4
 12668 14cc 74       		.byte	0x74
 12669 14cd D001     		.sleb128 208
 12670 14cf 9F       		.byte	0x9f
 12671 14d0 12000000 		.4byte	.LVL221
 12672 14d4 1B000000 		.4byte	.LVL223-1
 12673 14d8 0100     		.2byte	0x1
 12674 14da 51       		.byte	0x51
 12675 14db 1B000000 		.4byte	.LVL223-1
 12676 14df 1C000000 		.4byte	.LFE12
 12677 14e3 0700     		.2byte	0x7
 12678 14e5 F3       		.byte	0xf3
 12679 14e6 01       		.uleb128 0x1
 12680 14e7 50       		.byte	0x50
 12681 14e8 23       		.byte	0x23
 12682 14e9 D001     		.uleb128 0xd0
 12683 14eb 9F       		.byte	0x9f
 12684 14ec 00000000 		.4byte	0
 12685 14f0 00000000 		.4byte	0
 12686              	.LLST82:
 12687 14f4 0C000000 		.4byte	.LVL220
 12688 14f8 18000000 		.4byte	.LVL222
 12689 14fc 0100     		.2byte	0x1
 12690 14fe 54       		.byte	0x54
 12691 14ff 18000000 		.4byte	.LVL222
 12692 1503 1B000000 		.4byte	.LVL223-1
 12693 1507 0100     		.2byte	0x1
 12694 1509 50       		.byte	0x50
 12695 150a 1B000000 		.4byte	.LVL223-1
 12696 150e 1C000000 		.4byte	.LFE12
 12697 1512 0400     		.2byte	0x4
 12698 1514 F3       		.byte	0xf3
ARM GAS  C:\Users\jo\AppData\Local\Temp\ccyP7UZh.s 			page 227


 12699 1515 01       		.uleb128 0x1
 12700 1516 50       		.byte	0x50
 12701 1517 9F       		.byte	0x9f
 12702 1518 00000000 		.4byte	0
 12703 151c 00000000 		.4byte	0
 12704              	.LLST83:
 12705 1520 00000000 		.4byte	.LVL224
 12706 1524 12000000 		.4byte	.LVL228
 12707 1528 0100     		.2byte	0x1
 12708 152a 50       		.byte	0x50
 12709 152b 12000000 		.4byte	.LVL228
 12710 152f 4C000000 		.4byte	.LFE13
 12711 1533 0100     		.2byte	0x1
 12712 1535 56       		.byte	0x56
 12713 1536 00000000 		.4byte	0
 12714 153a 00000000 		.4byte	0
 12715              	.LLST84:
 12716 153e 00000000 		.4byte	.LVL224
 12717 1542 0C000000 		.4byte	.LVL226
 12718 1546 0100     		.2byte	0x1
 12719 1548 51       		.byte	0x51
 12720 1549 0C000000 		.4byte	.LVL226
 12721 154d 4C000000 		.4byte	.LFE13
 12722 1551 0100     		.2byte	0x1
 12723 1553 55       		.byte	0x55
 12724 1554 00000000 		.4byte	0
 12725 1558 00000000 		.4byte	0
 12726              	.LLST85:
 12727 155c 00000000 		.4byte	.LVL224
 12728 1560 10000000 		.4byte	.LVL227
 12729 1564 0100     		.2byte	0x1
 12730 1566 52       		.byte	0x52
 12731 1567 10000000 		.4byte	.LVL227
 12732 156b 4C000000 		.4byte	.LFE13
 12733 156f 0100     		.2byte	0x1
 12734 1571 57       		.byte	0x57
 12735 1572 00000000 		.4byte	0
 12736 1576 00000000 		.4byte	0
 12737              	.LLST86:
 12738 157a 00000000 		.4byte	.LVL224
 12739 157e 17000000 		.4byte	.LVL229-1
 12740 1582 0100     		.2byte	0x1
 12741 1584 53       		.byte	0x53
 12742 1585 17000000 		.4byte	.LVL229-1
 12743 1589 4C000000 		.4byte	.LFE13
 12744 158d 0100     		.2byte	0x1
 12745 158f 54       		.byte	0x54
 12746 1590 00000000 		.4byte	0
 12747 1594 00000000 		.4byte	0
 12748              	.LLST87:
 12749 1598 00000000 		.4byte	.LVL224
 12750 159c 40000000 		.4byte	.LVL236
 12751 15a0 0200     		.2byte	0x2
 12752 15a2 91       		.byte	0x91
 12753 15a3 00       		.sleb128 0
 12754 15a4 40000000 		.4byte	.LVL236
 12755 15a8 4C000000 		.4byte	.LFE13
ARM GAS  C:\Users\jo\AppData\Local\Temp\ccyP7UZh.s 			page 228


 12756 15ac 0200     		.2byte	0x2
 12757 15ae 91       		.byte	0x91
 12758 15af 00       		.sleb128 0
 12759 15b0 00000000 		.4byte	0
 12760 15b4 00000000 		.4byte	0
 12761              	.LLST88:
 12762 15b8 00000000 		.4byte	.LVL224
 12763 15bc 40000000 		.4byte	.LVL236
 12764 15c0 0200     		.2byte	0x2
 12765 15c2 91       		.byte	0x91
 12766 15c3 04       		.sleb128 4
 12767 15c4 40000000 		.4byte	.LVL236
 12768 15c8 4C000000 		.4byte	.LFE13
 12769 15cc 0200     		.2byte	0x2
 12770 15ce 91       		.byte	0x91
 12771 15cf 04       		.sleb128 4
 12772 15d0 00000000 		.4byte	0
 12773 15d4 00000000 		.4byte	0
 12774              	.LLST89:
 12775 15d8 04000000 		.4byte	.LVL225
 12776 15dc 3E000000 		.4byte	.LVL235
 12777 15e0 0100     		.2byte	0x1
 12778 15e2 5D       		.byte	0x5d
 12779 15e3 3E000000 		.4byte	.LVL235
 12780 15e7 40000000 		.4byte	.LVL236
 12781 15eb 0400     		.2byte	0x4
 12782 15ed 91       		.byte	0x91
 12783 15ee 907C     		.sleb128 -496
 12784 15f0 9F       		.byte	0x9f
 12785 15f1 40000000 		.4byte	.LVL236
 12786 15f5 4C000000 		.4byte	.LFE13
 12787 15f9 0100     		.2byte	0x1
 12788 15fb 5D       		.byte	0x5d
 12789 15fc 00000000 		.4byte	0
 12790 1600 00000000 		.4byte	0
 12791              	.LLST90:
 12792 1604 24000000 		.4byte	.LVL230
 12793 1608 3E000000 		.4byte	.LVL235
 12794 160c 0100     		.2byte	0x1
 12795 160e 5D       		.byte	0x5d
 12796 160f 3E000000 		.4byte	.LVL235
 12797 1613 40000000 		.4byte	.LVL236
 12798 1617 0400     		.2byte	0x4
 12799 1619 91       		.byte	0x91
 12800 161a 907C     		.sleb128 -496
 12801 161c 9F       		.byte	0x9f
 12802 161d 40000000 		.4byte	.LVL236
 12803 1621 4C000000 		.4byte	.LFE13
 12804 1625 0100     		.2byte	0x1
 12805 1627 5D       		.byte	0x5d
 12806 1628 00000000 		.4byte	0
 12807 162c 00000000 		.4byte	0
 12808              	.LLST92:
 12809 1630 2E000000 		.4byte	.LVL231
 12810 1634 3E000000 		.4byte	.LVL235
 12811 1638 0100     		.2byte	0x1
 12812 163a 5D       		.byte	0x5d
ARM GAS  C:\Users\jo\AppData\Local\Temp\ccyP7UZh.s 			page 229


 12813 163b 3E000000 		.4byte	.LVL235
 12814 163f 40000000 		.4byte	.LVL236
 12815 1643 0400     		.2byte	0x4
 12816 1645 91       		.byte	0x91
 12817 1646 907C     		.sleb128 -496
 12818 1648 9F       		.byte	0x9f
 12819 1649 00000000 		.4byte	0
 12820 164d 00000000 		.4byte	0
 12821              	.LLST93:
 12822 1651 2E000000 		.4byte	.LVL231
 12823 1655 32000000 		.4byte	.LVL232
 12824 1659 0400     		.2byte	0x4
 12825 165b 0A       		.byte	0xa
 12826 165c D701     		.2byte	0x1d7
 12827 165e 9F       		.byte	0x9f
 12828 165f 32000000 		.4byte	.LVL232
 12829 1663 34000000 		.4byte	.LVL233
 12830 1667 0800     		.2byte	0x8
 12831 1669 91       		.byte	0x91
 12832 166a 00       		.sleb128 0
 12833 166b 73       		.byte	0x73
 12834 166c 00       		.sleb128 0
 12835 166d 1C       		.byte	0x1c
 12836 166e 49       		.byte	0x49
 12837 166f 1C       		.byte	0x1c
 12838 1670 9F       		.byte	0x9f
 12839 1671 34000000 		.4byte	.LVL233
 12840 1675 38000000 		.4byte	.LVL234
 12841 1679 0800     		.2byte	0x8
 12842 167b 91       		.byte	0x91
 12843 167c 00       		.sleb128 0
 12844 167d 73       		.byte	0x73
 12845 167e 00       		.sleb128 0
 12846 167f 1C       		.byte	0x1c
 12847 1680 4A       		.byte	0x4a
 12848 1681 1C       		.byte	0x1c
 12849 1682 9F       		.byte	0x9f
 12850 1683 38000000 		.4byte	.LVL234
 12851 1687 40000000 		.4byte	.LVL236
 12852 168b 0800     		.2byte	0x8
 12853 168d 91       		.byte	0x91
 12854 168e 00       		.sleb128 0
 12855 168f 73       		.byte	0x73
 12856 1690 00       		.sleb128 0
 12857 1691 1C       		.byte	0x1c
 12858 1692 49       		.byte	0x49
 12859 1693 1C       		.byte	0x1c
 12860 1694 9F       		.byte	0x9f
 12861 1695 00000000 		.4byte	0
 12862 1699 00000000 		.4byte	0
 12863              	.LLST94:
 12864 169d 2E000000 		.4byte	.LVL231
 12865 16a1 32000000 		.4byte	.LVL232
 12866 16a5 0100     		.2byte	0x1
 12867 16a7 5D       		.byte	0x5d
 12868 16a8 32000000 		.4byte	.LVL232
 12869 16ac 38000000 		.4byte	.LVL234
ARM GAS  C:\Users\jo\AppData\Local\Temp\ccyP7UZh.s 			page 230


 12870 16b0 0300     		.2byte	0x3
 12871 16b2 73       		.byte	0x73
 12872 16b3 01       		.sleb128 1
 12873 16b4 9F       		.byte	0x9f
 12874 16b5 38000000 		.4byte	.LVL234
 12875 16b9 40000000 		.4byte	.LVL236
 12876 16bd 0100     		.2byte	0x1
 12877 16bf 53       		.byte	0x53
 12878 16c0 00000000 		.4byte	0
 12879 16c4 00000000 		.4byte	0
 12880              	.LLST95:
 12881 16c8 00000000 		.4byte	.LVL238
 12882 16cc 0E000000 		.4byte	.LVL240
 12883 16d0 0100     		.2byte	0x1
 12884 16d2 50       		.byte	0x50
 12885 16d3 0E000000 		.4byte	.LVL240
 12886 16d7 48020000 		.4byte	.LFE14
 12887 16db 0100     		.2byte	0x1
 12888 16dd 57       		.byte	0x57
 12889 16de 00000000 		.4byte	0
 12890 16e2 00000000 		.4byte	0
 12891              	.LLST96:
 12892 16e6 16000000 		.4byte	.LVL241
 12893 16ea 26000000 		.4byte	.LVL242
 12894 16ee 0200     		.2byte	0x2
 12895 16f0 30       		.byte	0x30
 12896 16f1 9F       		.byte	0x9f
 12897 16f2 26000000 		.4byte	.LVL242
 12898 16f6 8E000000 		.4byte	.LVL252
 12899 16fa 0100     		.2byte	0x1
 12900 16fc 56       		.byte	0x56
 12901 16fd 8E000000 		.4byte	.LVL252
 12902 1701 A0000000 		.4byte	.LVL253
 12903 1705 0200     		.2byte	0x2
 12904 1707 30       		.byte	0x30
 12905 1708 9F       		.byte	0x9f
 12906 1709 A0000000 		.4byte	.LVL253
 12907 170d 68010000 		.4byte	.LVL274
 12908 1711 0100     		.2byte	0x1
 12909 1713 5B       		.byte	0x5b
 12910 1714 68010000 		.4byte	.LVL274
 12911 1718 6C010000 		.4byte	.LVL275
 12912 171c 0300     		.2byte	0x3
 12913 171e 7B       		.byte	0x7b
 12914 171f 7F       		.sleb128 -1
 12915 1720 9F       		.byte	0x9f
 12916 1721 6C010000 		.4byte	.LVL275
 12917 1725 7E010000 		.4byte	.LVL276
 12918 1729 0100     		.2byte	0x1
 12919 172b 5B       		.byte	0x5b
 12920 172c 7E010000 		.4byte	.LVL276
 12921 1730 DA010000 		.4byte	.LVL292
 12922 1734 0100     		.2byte	0x1
 12923 1736 56       		.byte	0x56
 12924 1737 F2010000 		.4byte	.LVL298
 12925 173b FA010000 		.4byte	.LVL300
 12926 173f 0100     		.2byte	0x1
ARM GAS  C:\Users\jo\AppData\Local\Temp\ccyP7UZh.s 			page 231


 12927 1741 56       		.byte	0x56
 12928 1742 04020000 		.4byte	.LVL302
 12929 1746 48020000 		.4byte	.LFE14
 12930 174a 0100     		.2byte	0x1
 12931 174c 5B       		.byte	0x5b
 12932 174d 00000000 		.4byte	0
 12933 1751 00000000 		.4byte	0
 12934              	.LLST97:
 12935 1755 3C000000 		.4byte	.LVL243
 12936 1759 5E000000 		.4byte	.LVL247
 12937 175d 0100     		.2byte	0x1
 12938 175f 54       		.byte	0x54
 12939 1760 A0000000 		.4byte	.LVL253
 12940 1764 F6000000 		.4byte	.LVL262
 12941 1768 0100     		.2byte	0x1
 12942 176a 54       		.byte	0x54
 12943 176b 12010000 		.4byte	.LVL263
 12944 176f A8010000 		.4byte	.LVL281
 12945 1773 0100     		.2byte	0x1
 12946 1775 54       		.byte	0x54
 12947 1776 A8010000 		.4byte	.LVL281
 12948 177a AC010000 		.4byte	.LVL282
 12949 177e 0200     		.2byte	0x2
 12950 1780 30       		.byte	0x30
 12951 1781 9F       		.byte	0x9f
 12952 1782 AC010000 		.4byte	.LVL282
 12953 1786 B8010000 		.4byte	.LVL284
 12954 178a 0700     		.2byte	0x7
 12955 178c 0A       		.byte	0xa
 12956 178d E803     		.2byte	0x3e8
 12957 178f 74       		.byte	0x74
 12958 1790 00       		.sleb128 0
 12959 1791 1C       		.byte	0x1c
 12960 1792 9F       		.byte	0x9f
 12961 1793 B8010000 		.4byte	.LVL284
 12962 1797 BA010000 		.4byte	.LVL285
 12963 179b 0700     		.2byte	0x7
 12964 179d 0A       		.byte	0xa
 12965 179e E903     		.2byte	0x3e9
 12966 17a0 74       		.byte	0x74
 12967 17a1 00       		.sleb128 0
 12968 17a2 1C       		.byte	0x1c
 12969 17a3 9F       		.byte	0x9f
 12970 17a4 BA010000 		.4byte	.LVL285
 12971 17a8 BE010000 		.4byte	.LVL286
 12972 17ac 0700     		.2byte	0x7
 12973 17ae 0A       		.byte	0xa
 12974 17af E803     		.2byte	0x3e8
 12975 17b1 74       		.byte	0x74
 12976 17b2 00       		.sleb128 0
 12977 17b3 1C       		.byte	0x1c
 12978 17b4 9F       		.byte	0x9f
 12979 17b5 C6010000 		.4byte	.LVL288
 12980 17b9 D0010000 		.4byte	.LVL289
 12981 17bd 0100     		.2byte	0x1
 12982 17bf 54       		.byte	0x54
 12983 17c0 D0010000 		.4byte	.LVL289
ARM GAS  C:\Users\jo\AppData\Local\Temp\ccyP7UZh.s 			page 232


 12984 17c4 DA010000 		.4byte	.LVL292
 12985 17c8 1F00     		.2byte	0x1f
 12986 17ca 76       		.byte	0x76
 12987 17cb 00       		.sleb128 0
 12988 17cc 76       		.byte	0x76
 12989 17cd 00       		.sleb128 0
 12990 17ce F7       		.byte	0xf7
 12991 17cf 2C       		.uleb128 0x2c
 12992 17d0 F7       		.byte	0xf7
 12993 17d1 25       		.uleb128 0x25
 12994 17d2 7A       		.byte	0x7a
 12995 17d3 00       		.sleb128 0
 12996 17d4 F7       		.byte	0xf7
 12997 17d5 2C       		.uleb128 0x2c
 12998 17d6 F7       		.byte	0xf7
 12999 17d7 25       		.uleb128 0x25
 13000 17d8 1E       		.byte	0x1e
 13001 17d9 08       		.byte	0x8
 13002 17da 20       		.byte	0x20
 13003 17db F7       		.byte	0xf7
 13004 17dc 25       		.uleb128 0x25
 13005 17dd 25       		.byte	0x25
 13006 17de F7       		.byte	0xf7
 13007 17df 33       		.uleb128 0x33
 13008 17e0 76       		.byte	0x76
 13009 17e1 00       		.sleb128 0
 13010 17e2 4F       		.byte	0x4f
 13011 17e3 26       		.byte	0x26
 13012 17e4 1C       		.byte	0x1c
 13013 17e5 33       		.byte	0x33
 13014 17e6 1E       		.byte	0x1e
 13015 17e7 1C       		.byte	0x1c
 13016 17e8 9F       		.byte	0x9f
 13017 17e9 04020000 		.4byte	.LVL302
 13018 17ed 48020000 		.4byte	.LFE14
 13019 17f1 0100     		.2byte	0x1
 13020 17f3 54       		.byte	0x54
 13021 17f4 00000000 		.4byte	0
 13022 17f8 00000000 		.4byte	0
 13023              	.LLST98:
 13024 17fc 3C000000 		.4byte	.LVL243
 13025 1800 4D000000 		.4byte	.LVL245-1
 13026 1804 0100     		.2byte	0x1
 13027 1806 53       		.byte	0x53
 13028 1807 A0000000 		.4byte	.LVL253
 13029 180b F6000000 		.4byte	.LVL262
 13030 180f 0100     		.2byte	0x1
 13031 1811 56       		.byte	0x56
 13032 1812 18010000 		.4byte	.LVL264
 13033 1816 7E010000 		.4byte	.LVL276
 13034 181a 0100     		.2byte	0x1
 13035 181c 56       		.byte	0x56
 13036 181d 7E010000 		.4byte	.LVL276
 13037 1821 8B010000 		.4byte	.LVL277-1
 13038 1825 0100     		.2byte	0x1
 13039 1827 53       		.byte	0x53
 13040 1828 8B010000 		.4byte	.LVL277-1
ARM GAS  C:\Users\jo\AppData\Local\Temp\ccyP7UZh.s 			page 233


 13041 182c 9C010000 		.4byte	.LVL280
 13042 1830 0300     		.2byte	0x3
 13043 1832 91       		.byte	0x91
 13044 1833 BC73     		.sleb128 -1604
 13045 1835 04020000 		.4byte	.LVL302
 13046 1839 48020000 		.4byte	.LFE14
 13047 183d 0100     		.2byte	0x1
 13048 183f 56       		.byte	0x56
 13049 1840 00000000 		.4byte	0
 13050 1844 00000000 		.4byte	0
 13051              	.LLST99:
 13052 1848 30010000 		.4byte	.LVL266
 13053 184c 4E010000 		.4byte	.LVL271
 13054 1850 0300     		.2byte	0x3
 13055 1852 08       		.byte	0x8
 13056 1853 83       		.byte	0x83
 13057 1854 9F       		.byte	0x9f
 13058 1855 9C010000 		.4byte	.LVL280
 13059 1859 BE010000 		.4byte	.LVL286
 13060 185d 0400     		.2byte	0x4
 13061 185f 0A       		.byte	0xa
 13062 1860 E803     		.2byte	0x3e8
 13063 1862 9F       		.byte	0x9f
 13064 1863 00000000 		.4byte	0
 13065 1867 00000000 		.4byte	0
 13066              	.LLST100:
 13067 186b 00000000 		.4byte	.LVL238
 13068 186f DE010000 		.4byte	.LVL293
 13069 1873 0200     		.2byte	0x2
 13070 1875 30       		.byte	0x30
 13071 1876 9F       		.byte	0x9f
 13072 1877 DE010000 		.4byte	.LVL293
 13073 187b F2010000 		.4byte	.LVL298
 13074 187f 0100     		.2byte	0x1
 13075 1881 50       		.byte	0x50
 13076 1882 F2010000 		.4byte	.LVL298
 13077 1886 48020000 		.4byte	.LFE14
 13078 188a 0200     		.2byte	0x2
 13079 188c 30       		.byte	0x30
 13080 188d 9F       		.byte	0x9f
 13081 188e 00000000 		.4byte	0
 13082 1892 00000000 		.4byte	0
 13083              	.LLST101:
 13084 1896 08000000 		.4byte	.LVL239
 13085 189a 0E000000 		.4byte	.LVL240
 13086 189e 0400     		.2byte	0x4
 13087 18a0 91       		.byte	0x91
 13088 18a1 8074     		.sleb128 -1536
 13089 18a3 9F       		.byte	0x9f
 13090 18a4 0E000000 		.4byte	.LVL240
 13091 18a8 15000000 		.4byte	.LVL241-1
 13092 18ac 0100     		.2byte	0x1
 13093 18ae 50       		.byte	0x50
 13094 18af 15000000 		.4byte	.LVL241-1
 13095 18b3 4A000000 		.4byte	.LVL244
 13096 18b7 0400     		.2byte	0x4
 13097 18b9 91       		.byte	0x91
ARM GAS  C:\Users\jo\AppData\Local\Temp\ccyP7UZh.s 			page 234


 13098 18ba 8074     		.sleb128 -1536
 13099 18bc 9F       		.byte	0x9f
 13100 18bd 4A000000 		.4byte	.LVL244
 13101 18c1 4D000000 		.4byte	.LVL245-1
 13102 18c5 0100     		.2byte	0x1
 13103 18c7 50       		.byte	0x50
 13104 18c8 4D000000 		.4byte	.LVL245-1
 13105 18cc 60000000 		.4byte	.LVL248
 13106 18d0 0400     		.2byte	0x4
 13107 18d2 91       		.byte	0x91
 13108 18d3 8074     		.sleb128 -1536
 13109 18d5 9F       		.byte	0x9f
 13110 18d6 60000000 		.4byte	.LVL248
 13111 18da 65000000 		.4byte	.LVL249-1
 13112 18de 0100     		.2byte	0x1
 13113 18e0 50       		.byte	0x50
 13114 18e1 65000000 		.4byte	.LVL249-1
 13115 18e5 B6000000 		.4byte	.LVL254
 13116 18e9 0400     		.2byte	0x4
 13117 18eb 91       		.byte	0x91
 13118 18ec 8074     		.sleb128 -1536
 13119 18ee 9F       		.byte	0x9f
 13120 18ef B6000000 		.4byte	.LVL254
 13121 18f3 BB000000 		.4byte	.LVL255-1
 13122 18f7 0100     		.2byte	0x1
 13123 18f9 50       		.byte	0x50
 13124 18fa BB000000 		.4byte	.LVL255-1
 13125 18fe C6000000 		.4byte	.LVL258
 13126 1902 0400     		.2byte	0x4
 13127 1904 91       		.byte	0x91
 13128 1905 8074     		.sleb128 -1536
 13129 1907 9F       		.byte	0x9f
 13130 1908 C6000000 		.4byte	.LVL258
 13131 190c CB000000 		.4byte	.LVL259-1
 13132 1910 0100     		.2byte	0x1
 13133 1912 50       		.byte	0x50
 13134 1913 CB000000 		.4byte	.LVL259-1
 13135 1917 3E010000 		.4byte	.LVL268
 13136 191b 0400     		.2byte	0x4
 13137 191d 91       		.byte	0x91
 13138 191e 8074     		.sleb128 -1536
 13139 1920 9F       		.byte	0x9f
 13140 1921 3E010000 		.4byte	.LVL268
 13141 1925 45010000 		.4byte	.LVL269-1
 13142 1929 0100     		.2byte	0x1
 13143 192b 50       		.byte	0x50
 13144 192c 45010000 		.4byte	.LVL269-1
 13145 1930 5C010000 		.4byte	.LVL272
 13146 1934 0400     		.2byte	0x4
 13147 1936 91       		.byte	0x91
 13148 1937 8074     		.sleb128 -1536
 13149 1939 9F       		.byte	0x9f
 13150 193a 5C010000 		.4byte	.LVL272
 13151 193e 5F010000 		.4byte	.LVL273-1
 13152 1942 0100     		.2byte	0x1
 13153 1944 50       		.byte	0x50
 13154 1945 5F010000 		.4byte	.LVL273-1
ARM GAS  C:\Users\jo\AppData\Local\Temp\ccyP7UZh.s 			page 235


 13155 1949 90010000 		.4byte	.LVL278
 13156 194d 0400     		.2byte	0x4
 13157 194f 91       		.byte	0x91
 13158 1950 8074     		.sleb128 -1536
 13159 1952 9F       		.byte	0x9f
 13160 1953 90010000 		.4byte	.LVL278
 13161 1957 95010000 		.4byte	.LVL279-1
 13162 195b 0100     		.2byte	0x1
 13163 195d 50       		.byte	0x50
 13164 195e 95010000 		.4byte	.LVL279-1
 13165 1962 AE010000 		.4byte	.LVL283
 13166 1966 0400     		.2byte	0x4
 13167 1968 91       		.byte	0x91
 13168 1969 8074     		.sleb128 -1536
 13169 196b 9F       		.byte	0x9f
 13170 196c AE010000 		.4byte	.LVL283
 13171 1970 B7010000 		.4byte	.LVL284-1
 13172 1974 0100     		.2byte	0x1
 13173 1976 50       		.byte	0x50
 13174 1977 B7010000 		.4byte	.LVL284-1
 13175 197b D4010000 		.4byte	.LVL290
 13176 197f 0400     		.2byte	0x4
 13177 1981 91       		.byte	0x91
 13178 1982 8074     		.sleb128 -1536
 13179 1984 9F       		.byte	0x9f
 13180 1985 D4010000 		.4byte	.LVL290
 13181 1989 D7010000 		.4byte	.LVL291-1
 13182 198d 0100     		.2byte	0x1
 13183 198f 50       		.byte	0x50
 13184 1990 D7010000 		.4byte	.LVL291-1
 13185 1994 E0010000 		.4byte	.LVL294
 13186 1998 0400     		.2byte	0x4
 13187 199a 91       		.byte	0x91
 13188 199b 8074     		.sleb128 -1536
 13189 199d 9F       		.byte	0x9f
 13190 199e E0010000 		.4byte	.LVL294
 13191 19a2 E2010000 		.4byte	.LVL295
 13192 19a6 0100     		.2byte	0x1
 13193 19a8 53       		.byte	0x53
 13194 19a9 E2010000 		.4byte	.LVL295
 13195 19ad 48020000 		.4byte	.LFE14
 13196 19b1 0400     		.2byte	0x4
 13197 19b3 91       		.byte	0x91
 13198 19b4 8074     		.sleb128 -1536
 13199 19b6 9F       		.byte	0x9f
 13200 19b7 00000000 		.4byte	0
 13201 19bb 00000000 		.4byte	0
 13202              	.LLST102:
 13203 19bf 58000000 		.4byte	.LVL246
 13204 19c3 5E000000 		.4byte	.LVL247
 13205 19c7 0100     		.2byte	0x1
 13206 19c9 52       		.byte	0x52
 13207 19ca C6010000 		.4byte	.LVL288
 13208 19ce D7010000 		.4byte	.LVL291-1
 13209 19d2 0100     		.2byte	0x1
 13210 19d4 52       		.byte	0x52
 13211 19d5 D7010000 		.4byte	.LVL291-1
ARM GAS  C:\Users\jo\AppData\Local\Temp\ccyP7UZh.s 			page 236


 13212 19d9 DA010000 		.4byte	.LVL292
 13213 19dd 2300     		.2byte	0x23
 13214 19df 76       		.byte	0x76
 13215 19e0 00       		.sleb128 0
 13216 19e1 76       		.byte	0x76
 13217 19e2 00       		.sleb128 0
 13218 19e3 F7       		.byte	0xf7
 13219 19e4 2C       		.uleb128 0x2c
 13220 19e5 F7       		.byte	0xf7
 13221 19e6 25       		.uleb128 0x25
 13222 19e7 7A       		.byte	0x7a
 13223 19e8 00       		.sleb128 0
 13224 19e9 F7       		.byte	0xf7
 13225 19ea 2C       		.uleb128 0x2c
 13226 19eb F7       		.byte	0xf7
 13227 19ec 25       		.uleb128 0x25
 13228 19ed 1E       		.byte	0x1e
 13229 19ee 08       		.byte	0x8
 13230 19ef 20       		.byte	0x20
 13231 19f0 F7       		.byte	0xf7
 13232 19f1 25       		.uleb128 0x25
 13233 19f2 25       		.byte	0x25
 13234 19f3 F7       		.byte	0xf7
 13235 19f4 33       		.uleb128 0x33
 13236 19f5 76       		.byte	0x76
 13237 19f6 00       		.sleb128 0
 13238 19f7 4F       		.byte	0x4f
 13239 19f8 26       		.byte	0x26
 13240 19f9 1C       		.byte	0x1c
 13241 19fa 33       		.byte	0x33
 13242 19fb 1E       		.byte	0x1e
 13243 19fc 1C       		.byte	0x1c
 13244 19fd 32       		.byte	0x32
 13245 19fe 24       		.byte	0x24
 13246 19ff 7B       		.byte	0x7b
 13247 1a00 00       		.sleb128 0
 13248 1a01 22       		.byte	0x22
 13249 1a02 00000000 		.4byte	0
 13250 1a06 00000000 		.4byte	0
 13251              	.LLST103:
 13252 1a0a 58000000 		.4byte	.LVL246
 13253 1a0e 5E000000 		.4byte	.LVL247
 13254 1a12 0C00     		.2byte	0xc
 13255 1a14 74       		.byte	0x74
 13256 1a15 00       		.sleb128 0
 13257 1a16 08       		.byte	0x8
 13258 1a17 71       		.byte	0x71
 13259 1a18 1E       		.byte	0x1e
 13260 1a19 03       		.byte	0x3
 13261 1a1a 00000000 		.4byte	sha512_test_buf
 13262 1a1e 22       		.byte	0x22
 13263 1a1f 9F       		.byte	0x9f
 13264 1a20 C6010000 		.4byte	.LVL288
 13265 1a24 D0010000 		.4byte	.LVL289
 13266 1a28 0C00     		.2byte	0xc
 13267 1a2a 74       		.byte	0x74
 13268 1a2b 00       		.sleb128 0
ARM GAS  C:\Users\jo\AppData\Local\Temp\ccyP7UZh.s 			page 237


 13269 1a2c 08       		.byte	0x8
 13270 1a2d 71       		.byte	0x71
 13271 1a2e 1E       		.byte	0x1e
 13272 1a2f 03       		.byte	0x3
 13273 1a30 00000000 		.4byte	sha512_test_buf
 13274 1a34 22       		.byte	0x22
 13275 1a35 9F       		.byte	0x9f
 13276 1a36 D0010000 		.4byte	.LVL289
 13277 1a3a DA010000 		.4byte	.LVL292
 13278 1a3e 2800     		.2byte	0x28
 13279 1a40 76       		.byte	0x76
 13280 1a41 00       		.sleb128 0
 13281 1a42 76       		.byte	0x76
 13282 1a43 00       		.sleb128 0
 13283 1a44 F7       		.byte	0xf7
 13284 1a45 2C       		.uleb128 0x2c
 13285 1a46 F7       		.byte	0xf7
 13286 1a47 25       		.uleb128 0x25
 13287 1a48 7A       		.byte	0x7a
 13288 1a49 00       		.sleb128 0
 13289 1a4a F7       		.byte	0xf7
 13290 1a4b 2C       		.uleb128 0x2c
 13291 1a4c F7       		.byte	0xf7
 13292 1a4d 25       		.uleb128 0x25
 13293 1a4e 1E       		.byte	0x1e
 13294 1a4f 08       		.byte	0x8
 13295 1a50 20       		.byte	0x20
 13296 1a51 F7       		.byte	0xf7
 13297 1a52 25       		.uleb128 0x25
 13298 1a53 25       		.byte	0x25
 13299 1a54 F7       		.byte	0xf7
 13300 1a55 33       		.uleb128 0x33
 13301 1a56 76       		.byte	0x76
 13302 1a57 00       		.sleb128 0
 13303 1a58 4F       		.byte	0x4f
 13304 1a59 26       		.byte	0x26
 13305 1a5a 1C       		.byte	0x1c
 13306 1a5b 33       		.byte	0x33
 13307 1a5c 1E       		.byte	0x1e
 13308 1a5d 1C       		.byte	0x1c
 13309 1a5e 08       		.byte	0x8
 13310 1a5f 71       		.byte	0x71
 13311 1a60 1E       		.byte	0x1e
 13312 1a61 03       		.byte	0x3
 13313 1a62 00000000 		.4byte	sha512_test_buf
 13314 1a66 22       		.byte	0x22
 13315 1a67 9F       		.byte	0x9f
 13316 1a68 00000000 		.4byte	0
 13317 1a6c 00000000 		.4byte	0
 13318              	.LLST104:
 13319 1a70 58000000 		.4byte	.LVL246
 13320 1a74 5E000000 		.4byte	.LVL247
 13321 1a78 0400     		.2byte	0x4
 13322 1a7a 91       		.byte	0x91
 13323 1a7b 8074     		.sleb128 -1536
 13324 1a7d 9F       		.byte	0x9f
 13325 1a7e C6010000 		.4byte	.LVL288
ARM GAS  C:\Users\jo\AppData\Local\Temp\ccyP7UZh.s 			page 238


 13326 1a82 D4010000 		.4byte	.LVL290
 13327 1a86 0400     		.2byte	0x4
 13328 1a88 91       		.byte	0x91
 13329 1a89 8074     		.sleb128 -1536
 13330 1a8b 9F       		.byte	0x9f
 13331 1a8c D4010000 		.4byte	.LVL290
 13332 1a90 D7010000 		.4byte	.LVL291-1
 13333 1a94 0100     		.2byte	0x1
 13334 1a96 50       		.byte	0x50
 13335 1a97 D7010000 		.4byte	.LVL291-1
 13336 1a9b DA010000 		.4byte	.LVL292
 13337 1a9f 0400     		.2byte	0x4
 13338 1aa1 91       		.byte	0x91
 13339 1aa2 8074     		.sleb128 -1536
 13340 1aa4 9F       		.byte	0x9f
 13341 1aa5 00000000 		.4byte	0
 13342 1aa9 00000000 		.4byte	0
 13343              	.LLST105:
 13344 1aad C0000000 		.4byte	.LVL256
 13345 1ab1 C4000000 		.4byte	.LVL257
 13346 1ab5 0100     		.2byte	0x1
 13347 1ab7 52       		.byte	0x52
 13348 1ab8 4A010000 		.4byte	.LVL270
 13349 1abc 5F010000 		.4byte	.LVL273-1
 13350 1ac0 0100     		.2byte	0x1
 13351 1ac2 52       		.byte	0x52
 13352 1ac3 00000000 		.4byte	0
 13353 1ac7 00000000 		.4byte	0
 13354              	.LLST106:
 13355 1acb C0000000 		.4byte	.LVL256
 13356 1acf C4000000 		.4byte	.LVL257
 13357 1ad3 0C00     		.2byte	0xc
 13358 1ad5 74       		.byte	0x74
 13359 1ad6 00       		.sleb128 0
 13360 1ad7 08       		.byte	0x8
 13361 1ad8 99       		.byte	0x99
 13362 1ad9 1E       		.byte	0x1e
 13363 1ada 03       		.byte	0x3
 13364 1adb 00000000 		.4byte	sha512_hmac_test_buf
 13365 1adf 22       		.byte	0x22
 13366 1ae0 9F       		.byte	0x9f
 13367 1ae1 4A010000 		.4byte	.LVL270
 13368 1ae5 4E010000 		.4byte	.LVL271
 13369 1ae9 0C00     		.2byte	0xc
 13370 1aeb 74       		.byte	0x74
 13371 1aec 00       		.sleb128 0
 13372 1aed 08       		.byte	0x8
 13373 1aee 99       		.byte	0x99
 13374 1aef 1E       		.byte	0x1e
 13375 1af0 03       		.byte	0x3
 13376 1af1 00000000 		.4byte	sha512_hmac_test_buf
 13377 1af5 22       		.byte	0x22
 13378 1af6 9F       		.byte	0x9f
 13379 1af7 00000000 		.4byte	0
 13380 1afb 00000000 		.4byte	0
 13381              	.LLST107:
 13382 1aff C0000000 		.4byte	.LVL256
ARM GAS  C:\Users\jo\AppData\Local\Temp\ccyP7UZh.s 			page 239


 13383 1b03 C6000000 		.4byte	.LVL258
 13384 1b07 0400     		.2byte	0x4
 13385 1b09 91       		.byte	0x91
 13386 1b0a 8074     		.sleb128 -1536
 13387 1b0c 9F       		.byte	0x9f
 13388 1b0d C6000000 		.4byte	.LVL258
 13389 1b11 CB000000 		.4byte	.LVL259-1
 13390 1b15 0100     		.2byte	0x1
 13391 1b17 50       		.byte	0x50
 13392 1b18 CB000000 		.4byte	.LVL259-1
 13393 1b1c F6000000 		.4byte	.LVL262
 13394 1b20 0400     		.2byte	0x4
 13395 1b22 91       		.byte	0x91
 13396 1b23 8074     		.sleb128 -1536
 13397 1b25 9F       		.byte	0x9f
 13398 1b26 4A010000 		.4byte	.LVL270
 13399 1b2a 5C010000 		.4byte	.LVL272
 13400 1b2e 0400     		.2byte	0x4
 13401 1b30 91       		.byte	0x91
 13402 1b31 8074     		.sleb128 -1536
 13403 1b33 9F       		.byte	0x9f
 13404 1b34 5C010000 		.4byte	.LVL272
 13405 1b38 5F010000 		.4byte	.LVL273-1
 13406 1b3c 0100     		.2byte	0x1
 13407 1b3e 50       		.byte	0x50
 13408 1b3f 5F010000 		.4byte	.LVL273-1
 13409 1b43 7E010000 		.4byte	.LVL276
 13410 1b47 0400     		.2byte	0x4
 13411 1b49 91       		.byte	0x91
 13412 1b4a 8074     		.sleb128 -1536
 13413 1b4c 9F       		.byte	0x9f
 13414 1b4d 04020000 		.4byte	.LVL302
 13415 1b51 48020000 		.4byte	.LFE14
 13416 1b55 0400     		.2byte	0x4
 13417 1b57 91       		.byte	0x91
 13418 1b58 8074     		.sleb128 -1536
 13419 1b5a 9F       		.byte	0x9f
 13420 1b5b 00000000 		.4byte	0
 13421 1b5f 00000000 		.4byte	0
 13422              	.LLST111:
 13423 1b63 AC010000 		.4byte	.LVL282
 13424 1b67 BE010000 		.4byte	.LVL286
 13425 1b6b 0400     		.2byte	0x4
 13426 1b6d 0A       		.byte	0xa
 13427 1b6e E803     		.2byte	0x3e8
 13428 1b70 9F       		.byte	0x9f
 13429 1b71 00000000 		.4byte	0
 13430 1b75 00000000 		.4byte	0
 13431              	.LLST112:
 13432 1b79 AC010000 		.4byte	.LVL282
 13433 1b7d BE010000 		.4byte	.LVL286
 13434 1b81 0100     		.2byte	0x1
 13435 1b83 55       		.byte	0x55
 13436 1b84 00000000 		.4byte	0
 13437 1b88 00000000 		.4byte	0
 13438              	.LLST113:
 13439 1b8c AC010000 		.4byte	.LVL282
ARM GAS  C:\Users\jo\AppData\Local\Temp\ccyP7UZh.s 			page 240


 13440 1b90 AE010000 		.4byte	.LVL283
 13441 1b94 0400     		.2byte	0x4
 13442 1b96 91       		.byte	0x91
 13443 1b97 8074     		.sleb128 -1536
 13444 1b99 9F       		.byte	0x9f
 13445 1b9a AE010000 		.4byte	.LVL283
 13446 1b9e B7010000 		.4byte	.LVL284-1
 13447 1ba2 0100     		.2byte	0x1
 13448 1ba4 50       		.byte	0x50
 13449 1ba5 B7010000 		.4byte	.LVL284-1
 13450 1ba9 BE010000 		.4byte	.LVL286
 13451 1bad 0400     		.2byte	0x4
 13452 1baf 91       		.byte	0x91
 13453 1bb0 8074     		.sleb128 -1536
 13454 1bb2 9F       		.byte	0x9f
 13455 1bb3 00000000 		.4byte	0
 13456 1bb7 00000000 		.4byte	0
 13457              	.LLST114:
 13458 1bbb DE010000 		.4byte	.LVL293
 13459 1bbf E0010000 		.4byte	.LVL294
 13460 1bc3 0400     		.2byte	0x4
 13461 1bc5 91       		.byte	0x91
 13462 1bc6 8074     		.sleb128 -1536
 13463 1bc8 9F       		.byte	0x9f
 13464 1bc9 E0010000 		.4byte	.LVL294
 13465 1bcd E2010000 		.4byte	.LVL295
 13466 1bd1 0100     		.2byte	0x1
 13467 1bd3 53       		.byte	0x53
 13468 1bd4 E2010000 		.4byte	.LVL295
 13469 1bd8 F2010000 		.4byte	.LVL298
 13470 1bdc 0400     		.2byte	0x4
 13471 1bde 91       		.byte	0x91
 13472 1bdf 8074     		.sleb128 -1536
 13473 1be1 9F       		.byte	0x9f
 13474 1be2 00000000 		.4byte	0
 13475 1be6 00000000 		.4byte	0
 13476              	.LLST115:
 13477 1bea DE010000 		.4byte	.LVL293
 13478 1bee E2010000 		.4byte	.LVL295
 13479 1bf2 0400     		.2byte	0x4
 13480 1bf4 0A       		.byte	0xa
 13481 1bf5 D701     		.2byte	0x1d7
 13482 1bf7 9F       		.byte	0x9f
 13483 1bf8 E2010000 		.4byte	.LVL295
 13484 1bfc E4010000 		.4byte	.LVL296
 13485 1c00 0A00     		.2byte	0xa
 13486 1c02 91       		.byte	0x91
 13487 1c03 00       		.sleb128 0
 13488 1c04 73       		.byte	0x73
 13489 1c05 00       		.sleb128 0
 13490 1c06 1C       		.byte	0x1c
 13491 1c07 0A       		.byte	0xa
 13492 1c08 2904     		.2byte	0x429
 13493 1c0a 1C       		.byte	0x1c
 13494 1c0b 9F       		.byte	0x9f
 13495 1c0c E4010000 		.4byte	.LVL296
 13496 1c10 E6010000 		.4byte	.LVL297
ARM GAS  C:\Users\jo\AppData\Local\Temp\ccyP7UZh.s 			page 241


 13497 1c14 0A00     		.2byte	0xa
 13498 1c16 91       		.byte	0x91
 13499 1c17 00       		.sleb128 0
 13500 1c18 73       		.byte	0x73
 13501 1c19 00       		.sleb128 0
 13502 1c1a 1C       		.byte	0x1c
 13503 1c1b 0A       		.byte	0xa
 13504 1c1c 2A04     		.2byte	0x42a
 13505 1c1e 1C       		.byte	0x1c
 13506 1c1f 9F       		.byte	0x9f
 13507 1c20 E6010000 		.4byte	.LVL297
 13508 1c24 F2010000 		.4byte	.LVL298
 13509 1c28 0A00     		.2byte	0xa
 13510 1c2a 91       		.byte	0x91
 13511 1c2b 00       		.sleb128 0
 13512 1c2c 73       		.byte	0x73
 13513 1c2d 00       		.sleb128 0
 13514 1c2e 1C       		.byte	0x1c
 13515 1c2f 0A       		.byte	0xa
 13516 1c30 2904     		.2byte	0x429
 13517 1c32 1C       		.byte	0x1c
 13518 1c33 9F       		.byte	0x9f
 13519 1c34 00000000 		.4byte	0
 13520 1c38 00000000 		.4byte	0
 13521              	.LLST116:
 13522 1c3c DE010000 		.4byte	.LVL293
 13523 1c40 E0010000 		.4byte	.LVL294
 13524 1c44 0400     		.2byte	0x4
 13525 1c46 91       		.byte	0x91
 13526 1c47 8074     		.sleb128 -1536
 13527 1c49 9F       		.byte	0x9f
 13528 1c4a E0010000 		.4byte	.LVL294
 13529 1c4e E2010000 		.4byte	.LVL295
 13530 1c52 0100     		.2byte	0x1
 13531 1c54 53       		.byte	0x53
 13532 1c55 E2010000 		.4byte	.LVL295
 13533 1c59 E6010000 		.4byte	.LVL297
 13534 1c5d 0300     		.2byte	0x3
 13535 1c5f 73       		.byte	0x73
 13536 1c60 01       		.sleb128 1
 13537 1c61 9F       		.byte	0x9f
 13538 1c62 E6010000 		.4byte	.LVL297
 13539 1c66 F2010000 		.4byte	.LVL298
 13540 1c6a 0100     		.2byte	0x1
 13541 1c6c 53       		.byte	0x53
 13542 1c6d 00000000 		.4byte	0
 13543 1c71 00000000 		.4byte	0
 13544              		.section	.debug_aranges,"",%progbits
 13545 0000 8C000000 		.4byte	0x8c
 13546 0004 0200     		.2byte	0x2
 13547 0006 00000000 		.4byte	.Ldebug_info0
 13548 000a 04       		.byte	0x4
 13549 000b 00       		.byte	0
 13550 000c 0000     		.2byte	0
 13551 000e 0000     		.2byte	0
 13552 0010 00000000 		.4byte	.LFB1
 13553 0014 0A000000 		.4byte	.LFE1-.LFB1
ARM GAS  C:\Users\jo\AppData\Local\Temp\ccyP7UZh.s 			page 242


 13554 0018 00000000 		.4byte	.LFB2
 13555 001c 12000000 		.4byte	.LFE2-.LFB2
 13556 0020 00000000 		.4byte	.LFB3
 13557 0024 58010000 		.4byte	.LFE3-.LFB3
 13558 0028 00000000 		.4byte	.LFB4
 13559 002c 940F0000 		.4byte	.LFE4-.LFB4
 13560 0030 00000000 		.4byte	.LFB15
 13561 0034 AC000000 		.4byte	.LFE15-.LFB15
 13562 0038 00000000 		.4byte	.LFB5
 13563 003c 08000000 		.4byte	.LFE5-.LFB5
 13564 0040 00000000 		.4byte	.LFB6
 13565 0044 58020000 		.4byte	.LFE6-.LFB6
 13566 0048 00000000 		.4byte	.LFB7
 13567 004c 48000000 		.4byte	.LFE7-.LFB7
 13568 0050 00000000 		.4byte	.LFB8
 13569 0054 88000000 		.4byte	.LFE8-.LFB8
 13570 0058 00000000 		.4byte	.LFB9
 13571 005c C0000000 		.4byte	.LFE9-.LFB9
 13572 0060 00000000 		.4byte	.LFB10
 13573 0064 08000000 		.4byte	.LFE10-.LFB10
 13574 0068 00000000 		.4byte	.LFB11
 13575 006c 52000000 		.4byte	.LFE11-.LFB11
 13576 0070 00000000 		.4byte	.LFB12
 13577 0074 1C000000 		.4byte	.LFE12-.LFB12
 13578 0078 00000000 		.4byte	.LFB13
 13579 007c 4C000000 		.4byte	.LFE13-.LFB13
 13580 0080 00000000 		.4byte	.LFB14
 13581 0084 48020000 		.4byte	.LFE14-.LFB14
 13582 0088 00000000 		.4byte	0
 13583 008c 00000000 		.4byte	0
 13584              		.section	.debug_ranges,"",%progbits
 13585              	.Ldebug_ranges0:
 13586 0000 8E000000 		.4byte	.LBB64
 13587 0004 90000000 		.4byte	.LBE64
 13588 0008 94000000 		.4byte	.LBB68
 13589 000c 96000000 		.4byte	.LBE68
 13590 0010 B6000000 		.4byte	.LBB69
 13591 0014 BA000000 		.4byte	.LBE69
 13592 0018 00000000 		.4byte	0
 13593 001c 00000000 		.4byte	0
 13594 0020 08000000 		.4byte	.LBB72
 13595 0024 0A000000 		.4byte	.LBE72
 13596 0028 0E000000 		.4byte	.LBB75
 13597 002c 18000000 		.4byte	.LBE75
 13598 0030 00000000 		.4byte	0
 13599 0034 00000000 		.4byte	0
 13600 0038 20000000 		.4byte	.LBB76
 13601 003c 22000000 		.4byte	.LBE76
 13602 0040 3C000000 		.4byte	.LBB82
 13603 0044 48000000 		.4byte	.LBE82
 13604 0048 00000000 		.4byte	0
 13605 004c 00000000 		.4byte	0
 13606 0050 38000000 		.4byte	.LBB85
 13607 0054 3A000000 		.4byte	.LBE85
 13608 0058 3C000000 		.4byte	.LBB89
 13609 005c 3E000000 		.4byte	.LBE89
 13610 0060 40000000 		.4byte	.LBB90
ARM GAS  C:\Users\jo\AppData\Local\Temp\ccyP7UZh.s 			page 243


 13611 0064 48000000 		.4byte	.LBE90
 13612 0068 00000000 		.4byte	0
 13613 006c 00000000 		.4byte	0
 13614 0070 0C000000 		.4byte	.LBB106
 13615 0074 14000000 		.4byte	.LBE106
 13616 0078 18000000 		.4byte	.LBB109
 13617 007c 1C000000 		.4byte	.LBE109
 13618 0080 00000000 		.4byte	0
 13619 0084 00000000 		.4byte	0
 13620 0088 0A000000 		.4byte	.LBB110
 13621 008c 12000000 		.4byte	.LBE110
 13622 0090 14000000 		.4byte	.LBB113
 13623 0094 18000000 		.4byte	.LBE113
 13624 0098 00000000 		.4byte	0
 13625 009c 00000000 		.4byte	0
 13626 00a0 24000000 		.4byte	.LBB114
 13627 00a4 26000000 		.4byte	.LBE114
 13628 00a8 40000000 		.4byte	.LBB122
 13629 00ac 4C000000 		.4byte	.LBE122
 13630 00b0 00000000 		.4byte	0
 13631 00b4 00000000 		.4byte	0
 13632 00b8 58000000 		.4byte	.LBB125
 13633 00bc 5E000000 		.4byte	.LBE125
 13634 00c0 D0010000 		.4byte	.LBB139
 13635 00c4 DA010000 		.4byte	.LBE139
 13636 00c8 00000000 		.4byte	0
 13637 00cc 00000000 		.4byte	0
 13638 00d0 C0000000 		.4byte	.LBB128
 13639 00d4 C4000000 		.4byte	.LBE128
 13640 00d8 4A010000 		.4byte	.LBB135
 13641 00dc 4E010000 		.4byte	.LBE135
 13642 00e0 58010000 		.4byte	.LBB136
 13643 00e4 62010000 		.4byte	.LBE136
 13644 00e8 00000000 		.4byte	0
 13645 00ec 00000000 		.4byte	0
 13646 00f0 00000000 		.4byte	.LFB1
 13647 00f4 0A000000 		.4byte	.LFE1
 13648 00f8 00000000 		.4byte	.LFB2
 13649 00fc 12000000 		.4byte	.LFE2
 13650 0100 00000000 		.4byte	.LFB3
 13651 0104 58010000 		.4byte	.LFE3
 13652 0108 00000000 		.4byte	.LFB4
 13653 010c 940F0000 		.4byte	.LFE4
 13654 0110 00000000 		.4byte	.LFB15
 13655 0114 AC000000 		.4byte	.LFE15
 13656 0118 00000000 		.4byte	.LFB5
 13657 011c 08000000 		.4byte	.LFE5
 13658 0120 00000000 		.4byte	.LFB6
 13659 0124 58020000 		.4byte	.LFE6
 13660 0128 00000000 		.4byte	.LFB7
 13661 012c 48000000 		.4byte	.LFE7
 13662 0130 00000000 		.4byte	.LFB8
 13663 0134 88000000 		.4byte	.LFE8
 13664 0138 00000000 		.4byte	.LFB9
 13665 013c C0000000 		.4byte	.LFE9
 13666 0140 00000000 		.4byte	.LFB10
 13667 0144 08000000 		.4byte	.LFE10
ARM GAS  C:\Users\jo\AppData\Local\Temp\ccyP7UZh.s 			page 244


 13668 0148 00000000 		.4byte	.LFB11
 13669 014c 52000000 		.4byte	.LFE11
 13670 0150 00000000 		.4byte	.LFB12
 13671 0154 1C000000 		.4byte	.LFE12
 13672 0158 00000000 		.4byte	.LFB13
 13673 015c 4C000000 		.4byte	.LFE13
 13674 0160 00000000 		.4byte	.LFB14
 13675 0164 48020000 		.4byte	.LFE14
 13676 0168 00000000 		.4byte	0
 13677 016c 00000000 		.4byte	0
 13678              		.section	.debug_line,"",%progbits
 13679              	.Ldebug_line0:
 13680 0000 C2060000 		.section	.debug_str,"MS",%progbits,1
 13680      02003702 
 13680      00000201 
 13680      FB0E0D00 
 13680      01010101 
 13681              	.LASF48:
 13682 0000 5F64736F 		.ascii	"_dso_handle\000"
 13682      5F68616E 
 13682      646C6500 
 13683              	.LASF161:
 13684 000c 73686135 		.ascii	"sha512_padding\000"
 13684      31325F70 
 13684      61646469 
 13684      6E6700
 13685              	.LASF152:
 13686 001b 686C656E 		.ascii	"hlen\000"
 13686      00
 13687              	.LASF179:
 13688 0020 2E2E2F2E 		.ascii	"../../../ext/mbedtls-1.3.11/library/sha512.c\000"
 13688      2E2F2E2E 
 13688      2F657874 
 13688      2F6D6265 
 13688      64746C73 
 13689              	.LASF56:
 13690 004d 5F73697A 		.ascii	"_size\000"
 13690      6500
 13691              	.LASF171:
 13692 0053 6D656D63 		.ascii	"memcpy\000"
 13692      707900
 13693              	.LASF9:
 13694 005a 73697A65 		.ascii	"size_t\000"
 13694      5F7400
 13695              	.LASF17:
 13696 0061 69733338 		.ascii	"is384\000"
 13696      3400
 13697              	.LASF101:
 13698 0067 5F72616E 		.ascii	"_rand48\000"
 13698      64343800 
 13699              	.LASF80:
 13700 006f 5F656D65 		.ascii	"_emergency\000"
 13700      7267656E 
 13700      637900
 13701              	.LASF11:
 13702 007a 75696E74 		.ascii	"uint64_t\000"
 13702      36345F74 
ARM GAS  C:\Users\jo\AppData\Local\Temp\ccyP7UZh.s 			page 245


 13702      00
 13703              	.LASF163:
 13704 0083 73686135 		.ascii	"sha512_test_buflen\000"
 13704      31325F74 
 13704      6573745F 
 13704      6275666C 
 13704      656E00
 13705              	.LASF70:
 13706 0096 5F646174 		.ascii	"_data\000"
 13706      6100
 13707              	.LASF148:
 13708 009c 70617468 		.ascii	"path\000"
 13708      00
 13709              	.LASF121:
 13710 00a1 5F776372 		.ascii	"_wcrtomb_state\000"
 13710      746F6D62 
 13710      5F737461 
 13710      746500
 13711              	.LASF122:
 13712 00b0 5F776373 		.ascii	"_wcsrtombs_state\000"
 13712      72746F6D 
 13712      62735F73 
 13712      74617465 
 13712      00
 13713              	.LASF176:
 13714 00c1 7072696E 		.ascii	"printf\000"
 13714      746600
 13715              	.LASF0:
 13716 00c8 6C6F6E67 		.ascii	"long long unsigned int\000"
 13716      206C6F6E 
 13716      6720756E 
 13716      7369676E 
 13716      65642069 
 13717              	.LASF60:
 13718 00df 5F6C6266 		.ascii	"_lbfsize\000"
 13718      73697A65 
 13718      00
 13719              	.LASF169:
 13720 00e8 73686135 		.ascii	"sha512_hmac_test_sum\000"
 13720      31325F68 
 13720      6D61635F 
 13720      74657374 
 13720      5F73756D 
 13721              	.LASF119:
 13722 00fd 5F6D6272 		.ascii	"_mbrtowc_state\000"
 13722      746F7763 
 13722      5F737461 
 13722      746500
 13723              	.LASF165:
 13724 010c 73686135 		.ascii	"sha512_hmac_test_key\000"
 13724      31325F68 
 13724      6D61635F 
 13724      74657374 
 13724      5F6B6579 
 13725              	.LASF114:
 13726 0121 5F776374 		.ascii	"_wctomb_state\000"
 13726      6F6D625F 
ARM GAS  C:\Users\jo\AppData\Local\Temp\ccyP7UZh.s 			page 246


 13726      73746174 
 13726      6500
 13727              	.LASF180:
 13728 012f 433A5C55 		.ascii	"C:\\Users\\jo\\Documents\\GitHub\\ChibiOS\\demos\\S"
 13728      73657273 
 13728      5C6A6F5C 
 13728      446F6375 
 13728      6D656E74 
 13729 015b 544D3332 		.ascii	"TM32\\RT-STM32F407-DISCOVERY-uHttp\000"
 13729      5C52542D 
 13729      53544D33 
 13729      32463430 
 13729      372D4449 
 13730              	.LASF8:
 13731 017d 6C6F6E67 		.ascii	"long long int\000"
 13731      206C6F6E 
 13731      6720696E 
 13731      7400
 13732              	.LASF2:
 13733 018b 7369676E 		.ascii	"signed char\000"
 13733      65642063 
 13733      68617200 
 13734              	.LASF66:
 13735 0197 5F756275 		.ascii	"_ubuf\000"
 13735      6600
 13736              	.LASF55:
 13737 019d 5F626173 		.ascii	"_base\000"
 13737      6500
 13738              	.LASF39:
 13739 01a3 5F5F746D 		.ascii	"__tm_hour\000"
 13739      5F686F75 
 13739      7200
 13740              	.LASF95:
 13741 01ad 5F5F7366 		.ascii	"__sf\000"
 13741      00
 13742              	.LASF46:
 13743 01b2 5F6F6E5F 		.ascii	"_on_exit_args\000"
 13743      65786974 
 13743      5F617267 
 13743      7300
 13744              	.LASF153:
 13745 01c0 746D7062 		.ascii	"tmpbuf\000"
 13745      756600
 13746              	.LASF61:
 13747 01c7 5F636F6F 		.ascii	"_cookie\000"
 13747      6B696500 
 13748              	.LASF94:
 13749 01cf 5F5F7367 		.ascii	"__sglue\000"
 13749      6C756500 
 13750              	.LASF13:
 13751 01d7 73746174 		.ascii	"state\000"
 13751      6500
 13752              	.LASF6:
 13753 01dd 6C6F6E67 		.ascii	"long int\000"
 13753      20696E74 
 13753      00
 13754              	.LASF58:
ARM GAS  C:\Users\jo\AppData\Local\Temp\ccyP7UZh.s 			page 247


 13755 01e6 5F666C61 		.ascii	"_flags\000"
 13755      677300
 13756              	.LASF50:
 13757 01ed 5F69735F 		.ascii	"_is_cxa\000"
 13757      63786100 
 13758              	.LASF76:
 13759 01f5 5F737464 		.ascii	"_stdin\000"
 13759      696E00
 13760              	.LASF183:
 13761 01fc 5F5F6275 		.ascii	"__builtin_puts\000"
 13761      696C7469 
 13761      6E5F7075 
 13761      747300
 13762              	.LASF68:
 13763 020b 5F626C6B 		.ascii	"_blksize\000"
 13763      73697A65 
 13763      00
 13764              	.LASF185:
 13765 0214 70757463 		.ascii	"putchar\000"
 13765      68617200 
 13766              	.LASF160:
 13767 021c 73686135 		.ascii	"sha512sum\000"
 13767      31327375 
 13767      6D00
 13768              	.LASF90:
 13769 0226 5F637674 		.ascii	"_cvtbuf\000"
 13769      62756600 
 13770              	.LASF69:
 13771 022e 5F6F6666 		.ascii	"_offset\000"
 13771      73657400 
 13772              	.LASF164:
 13773 0236 73686135 		.ascii	"sha512_test_sum\000"
 13773      31325F74 
 13773      6573745F 
 13773      73756D00 
 13774              	.LASF120:
 13775 0246 5F6D6273 		.ascii	"_mbsrtowcs_state\000"
 13775      72746F77 
 13775      63735F73 
 13775      74617465 
 13775      00
 13776              	.LASF168:
 13777 0257 73686135 		.ascii	"sha512_hmac_test_buflen\000"
 13777      31325F68 
 13777      6D61635F 
 13777      74657374 
 13777      5F627566 
 13778              	.LASF118:
 13779 026f 5F6D6272 		.ascii	"_mbrlen_state\000"
 13779      6C656E5F 
 13779      73746174 
 13779      6500
 13780              	.LASF47:
 13781 027d 5F666E61 		.ascii	"_fnargs\000"
 13781      72677300 
 13782              	.LASF159:
 13783 0285 6275666C 		.ascii	"buflen\000"
ARM GAS  C:\Users\jo\AppData\Local\Temp\ccyP7UZh.s 			page 248


 13783      656E00
 13784              	.LASF53:
 13785 028c 5F666E73 		.ascii	"_fns\000"
 13785      00
 13786              	.LASF33:
 13787 0291 5F736967 		.ascii	"_sign\000"
 13787      6E00
 13788              	.LASF29:
 13789 0297 5F666C6F 		.ascii	"_flock_t\000"
 13789      636B5F74 
 13789      00
 13790              	.LASF78:
 13791 02a0 5F737464 		.ascii	"_stderr\000"
 13791      65727200 
 13792              	.LASF35:
 13793 02a8 5F426967 		.ascii	"_Bigint\000"
 13793      696E7400 
 13794              	.LASF109:
 13795 02b0 5F67616D 		.ascii	"_gamma_signgam\000"
 13795      6D615F73 
 13795      69676E67 
 13795      616D00
 13796              	.LASF181:
 13797 02bf 706F6C61 		.ascii	"polarssl_zeroize\000"
 13797      7273736C 
 13797      5F7A6572 
 13797      6F697A65 
 13797      00
 13798              	.LASF62:
 13799 02d0 5F726561 		.ascii	"_read\000"
 13799      6400
 13800              	.LASF86:
 13801 02d6 5F726573 		.ascii	"_result_k\000"
 13801      756C745F 
 13801      6B00
 13802              	.LASF36:
 13803 02e0 5F5F746D 		.ascii	"__tm\000"
 13803      00
 13804              	.LASF1:
 13805 02e5 756E7369 		.ascii	"unsigned int\000"
 13805      676E6564 
 13805      20696E74 
 13805      00
 13806              	.LASF25:
 13807 02f2 5F5F7763 		.ascii	"__wchb\000"
 13807      686200
 13808              	.LASF136:
 13809 02f9 73686135 		.ascii	"sha512_starts\000"
 13809      31325F73 
 13809      74617274 
 13809      7300
 13810              	.LASF77:
 13811 0307 5F737464 		.ascii	"_stdout\000"
 13811      6F757400 
 13812              	.LASF89:
 13813 030f 5F637674 		.ascii	"_cvtlen\000"
 13813      6C656E00 
ARM GAS  C:\Users\jo\AppData\Local\Temp\ccyP7UZh.s 			page 249


 13814              	.LASF7:
 13815 0317 6C6F6E67 		.ascii	"long unsigned int\000"
 13815      20756E73 
 13815      69676E65 
 13815      6420696E 
 13815      7400
 13816              	.LASF59:
 13817 0329 5F66696C 		.ascii	"_file\000"
 13817      6500
 13818              	.LASF162:
 13819 032f 73686135 		.ascii	"sha512_test_buf\000"
 13819      31325F74 
 13819      6573745F 
 13819      62756600 
 13820              	.LASF177:
 13821 033f 5F5F6275 		.ascii	"__builtin_putchar\000"
 13821      696C7469 
 13821      6E5F7075 
 13821      74636861 
 13821      7200
 13822              	.LASF99:
 13823 0351 5F6E696F 		.ascii	"_niobs\000"
 13823      627300
 13824              	.LASF138:
 13825 0358 64617461 		.ascii	"data\000"
 13825      00
 13826              	.LASF5:
 13827 035d 73686F72 		.ascii	"short unsigned int\000"
 13827      7420756E 
 13827      7369676E 
 13827      65642069 
 13827      6E7400
 13828              	.LASF174:
 13829 0370 66636C6F 		.ascii	"fclose\000"
 13829      736500
 13830              	.LASF92:
 13831 0377 5F617465 		.ascii	"_atexit0\000"
 13831      78697430 
 13831      00
 13832              	.LASF116:
 13833 0380 5F736967 		.ascii	"_signal_buf\000"
 13833      6E616C5F 
 13833      62756600 
 13834              	.LASF107:
 13835 038c 5F617363 		.ascii	"_asctime_buf\000"
 13835      74696D65 
 13835      5F627566 
 13835      00
 13836              	.LASF143:
 13837 0399 6C617374 		.ascii	"last\000"
 13837      00
 13838              	.LASF85:
 13839 039e 5F726573 		.ascii	"_result\000"
 13839      756C7400 
 13840              	.LASF24:
 13841 03a6 5F5F7763 		.ascii	"__wch\000"
 13841      6800
ARM GAS  C:\Users\jo\AppData\Local\Temp\ccyP7UZh.s 			page 250


 13842              	.LASF23:
 13843 03ac 77696E74 		.ascii	"wint_t\000"
 13843      5F7400
 13844              	.LASF71:
 13845 03b3 5F6C6F63 		.ascii	"_lock\000"
 13845      6B00
 13846              	.LASF132:
 13847 03b9 73686135 		.ascii	"sha512_update\000"
 13847      31325F75 
 13847      70646174 
 13847      6500
 13848              	.LASF73:
 13849 03c7 5F666C61 		.ascii	"_flags2\000"
 13849      67733200 
 13850              	.LASF12:
 13851 03cf 746F7461 		.ascii	"total\000"
 13851      6C00
 13852              	.LASF178:
 13853 03d5 474E5520 		.ascii	"GNU C 4.9.3 20141119 (release) [ARM/embedded-4_9-br"
 13853      4320342E 
 13853      392E3320 
 13853      32303134 
 13853      31313139 
 13854 0408 616E6368 		.ascii	"anch revision 218278] -mcpu=cortex-m4 -mno-thumb-in"
 13854      20726576 
 13854      6973696F 
 13854      6E203231 
 13854      38323738 
 13855 043b 74657277 		.ascii	"terwork -mthumb -ggdb -O2 -fomit-frame-pointer -fal"
 13855      6F726B20 
 13855      2D6D7468 
 13855      756D6220 
 13855      2D676764 
 13856 046e 69676E2D 		.ascii	"ign-functions=16 -ffunction-sections -fdata-section"
 13856      66756E63 
 13856      74696F6E 
 13856      733D3136 
 13856      202D6666 
 13857 04a1 73202D66 		.ascii	"s -fno-common\000"
 13857      6E6F2D63 
 13857      6F6D6D6F 
 13857      6E00
 13858              	.LASF63:
 13859 04af 5F777269 		.ascii	"_write\000"
 13859      746500
 13860              	.LASF42:
 13861 04b6 5F5F746D 		.ascii	"__tm_year\000"
 13861      5F796561 
 13861      7200
 13862              	.LASF142:
 13863 04c0 6F757470 		.ascii	"output\000"
 13863      757400
 13864              	.LASF155:
 13865 04c7 73686135 		.ascii	"sha512_hmac\000"
 13865      31325F68 
 13865      6D616300 
 13866              	.LASF18:
ARM GAS  C:\Users\jo\AppData\Local\Temp\ccyP7UZh.s 			page 251


 13867 04d3 73697A65 		.ascii	"sizetype\000"
 13867      74797065 
 13867      00
 13868              	.LASF19:
 13869 04dc 73686135 		.ascii	"sha512_context\000"
 13869      31325F63 
 13869      6F6E7465 
 13869      787400
 13870              	.LASF157:
 13871 04eb 73686135 		.ascii	"sha512_self_test\000"
 13871      31325F73 
 13871      656C665F 
 13871      74657374 
 13871      00
 13872              	.LASF145:
 13873 04fc 68696768 		.ascii	"high\000"
 13873      00
 13874              	.LASF167:
 13875 0501 73686135 		.ascii	"sha512_hmac_test_buf\000"
 13875      31325F68 
 13875      6D61635F 
 13875      74657374 
 13875      5F627566 
 13876              	.LASF124:
 13877 0516 5F6E6578 		.ascii	"_nextf\000"
 13877      746600
 13878              	.LASF41:
 13879 051d 5F5F746D 		.ascii	"__tm_mon\000"
 13879      5F6D6F6E 
 13879      00
 13880              	.LASF51:
 13881 0526 5F617465 		.ascii	"_atexit\000"
 13881      78697400 
 13882              	.LASF83:
 13883 052e 5F5F7364 		.ascii	"__sdidinit\000"
 13883      6964696E 
 13883      697400
 13884              	.LASF21:
 13885 0539 5F6F6666 		.ascii	"_off_t\000"
 13885      5F7400
 13886              	.LASF166:
 13887 0540 73686135 		.ascii	"sha512_hmac_test_keylen\000"
 13887      31325F68 
 13887      6D61635F 
 13887      74657374 
 13887      5F6B6579 
 13888              	.LASF146:
 13889 0558 6D73676C 		.ascii	"msglen\000"
 13889      656E00
 13890              	.LASF10:
 13891 055f 5F5F7569 		.ascii	"__uint64_t\000"
 13891      6E743634 
 13891      5F7400
 13892              	.LASF156:
 13893 056a 73686135 		.ascii	"sha512_file\000"
 13893      31325F66 
 13893      696C6500 
ARM GAS  C:\Users\jo\AppData\Local\Temp\ccyP7UZh.s 			page 252


 13894              	.LASF172:
 13895 0576 666F7065 		.ascii	"fopen\000"
 13895      6E00
 13896              	.LASF88:
 13897 057c 5F667265 		.ascii	"_freelist\000"
 13897      656C6973 
 13897      7400
 13898              	.LASF20:
 13899 0586 5F4C4F43 		.ascii	"_LOCK_RECURSIVE_T\000"
 13899      4B5F5245 
 13899      43555253 
 13899      4956455F 
 13899      5400
 13900              	.LASF15:
 13901 0598 69706164 		.ascii	"ipad\000"
 13901      00
 13902              	.LASF130:
 13903 059d 66696C6C 		.ascii	"fill\000"
 13903      00
 13904              	.LASF147:
 13905 05a2 73686135 		.ascii	"sha512\000"
 13905      313200
 13906              	.LASF3:
 13907 05a9 756E7369 		.ascii	"unsigned char\000"
 13907      676E6564 
 13907      20636861 
 13907      7200
 13908              	.LASF91:
 13909 05b7 5F6E6577 		.ascii	"_new\000"
 13909      00
 13910              	.LASF123:
 13911 05bc 5F685F65 		.ascii	"_h_errno\000"
 13911      72726E6F 
 13911      00
 13912              	.LASF4:
 13913 05c5 73686F72 		.ascii	"short int\000"
 13913      7420696E 
 13913      7400
 13914              	.LASF44:
 13915 05cf 5F5F746D 		.ascii	"__tm_yday\000"
 13915      5F796461 
 13915      7900
 13916              	.LASF141:
 13917 05d9 73686135 		.ascii	"sha512_finish\000"
 13917      31325F66 
 13917      696E6973 
 13917      6800
 13918              	.LASF54:
 13919 05e7 5F5F7362 		.ascii	"__sbuf\000"
 13919      756600
 13920              	.LASF140:
 13921 05ee 74656D70 		.ascii	"temp2\000"
 13921      3200
 13922              	.LASF100:
 13923 05f4 5F696F62 		.ascii	"_iobs\000"
 13923      7300
 13924              	.LASF97:
ARM GAS  C:\Users\jo\AppData\Local\Temp\ccyP7UZh.s 			page 253


 13925 05fa 5F5F4649 		.ascii	"__FILE\000"
 13925      4C4500
 13926              	.LASF28:
 13927 0601 5F6D6273 		.ascii	"_mbstate_t\000"
 13927      74617465 
 13927      5F7400
 13928              	.LASF57:
 13929 060c 5F5F7346 		.ascii	"__sFILE\000"
 13929      494C4500 
 13930              	.LASF72:
 13931 0614 5F6D6273 		.ascii	"_mbstate\000"
 13931      74617465 
 13931      00
 13932              	.LASF110:
 13933 061d 5F72616E 		.ascii	"_rand_next\000"
 13933      645F6E65 
 13933      787400
 13934              	.LASF112:
 13935 0628 5F6D626C 		.ascii	"_mblen_state\000"
 13935      656E5F73 
 13935      74617465 
 13935      00
 13936              	.LASF79:
 13937 0635 5F696E63 		.ascii	"_inc\000"
 13937      00
 13938              	.LASF52:
 13939 063a 5F696E64 		.ascii	"_ind\000"
 13939      00
 13940              	.LASF82:
 13941 063f 5F637572 		.ascii	"_current_locale\000"
 13941      72656E74 
 13941      5F6C6F63 
 13941      616C6500 
 13942              	.LASF134:
 13943 064f 73686135 		.ascii	"sha512_free\000"
 13943      31325F66 
 13943      72656500 
 13944              	.LASF173:
 13945 065b 66726561 		.ascii	"fread\000"
 13945      6400
 13946              	.LASF128:
 13947 0661 696E7075 		.ascii	"input\000"
 13947      7400
 13948              	.LASF84:
 13949 0667 5F5F636C 		.ascii	"__cleanup\000"
 13949      65616E75 
 13949      7000
 13950              	.LASF127:
 13951 0671 46494C45 		.ascii	"FILE\000"
 13951      00
 13952              	.LASF150:
 13953 0676 6B65796C 		.ascii	"keylen\000"
 13953      656E00
 13954              	.LASF32:
 13955 067d 5F6D6178 		.ascii	"_maxwds\000"
 13955      77647300 
 13956              	.LASF74:
ARM GAS  C:\Users\jo\AppData\Local\Temp\ccyP7UZh.s 			page 254


 13957 0685 5F726565 		.ascii	"_reent\000"
 13957      6E7400
 13958              	.LASF102:
 13959 068c 5F736565 		.ascii	"_seed\000"
 13959      6400
 13960              	.LASF26:
 13961 0692 5F5F636F 		.ascii	"__count\000"
 13961      756E7400 
 13962              	.LASF27:
 13963 069a 5F5F7661 		.ascii	"__value\000"
 13963      6C756500 
 13964              	.LASF64:
 13965 06a2 5F736565 		.ascii	"_seek\000"
 13965      6B00
 13966              	.LASF22:
 13967 06a8 5F66706F 		.ascii	"_fpos_t\000"
 13967      735F7400 
 13968              	.LASF139:
 13969 06b0 74656D70 		.ascii	"temp1\000"
 13969      3100
 13970              	.LASF75:
 13971 06b6 5F657272 		.ascii	"_errno\000"
 13971      6E6F00
 13972              	.LASF96:
 13973 06bd 63686172 		.ascii	"char\000"
 13973      00
 13974              	.LASF38:
 13975 06c2 5F5F746D 		.ascii	"__tm_min\000"
 13975      5F6D696E 
 13975      00
 13976              	.LASF158:
 13977 06cb 76657262 		.ascii	"verbose\000"
 13977      6F736500 
 13978              	.LASF14:
 13979 06d3 62756666 		.ascii	"buffer\000"
 13979      657200
 13980              	.LASF103:
 13981 06da 5F6D756C 		.ascii	"_mult\000"
 13981      7400
 13982              	.LASF175:
 13983 06e0 6D656D63 		.ascii	"memcmp\000"
 13983      6D7000
 13984              	.LASF31:
 13985 06e7 5F6E6578 		.ascii	"_next\000"
 13985      7400
 13986              	.LASF106:
 13987 06ed 5F737472 		.ascii	"_strtok_last\000"
 13987      746F6B5F 
 13987      6C617374 
 13987      00
 13988              	.LASF49:
 13989 06fa 5F666E74 		.ascii	"_fntypes\000"
 13989      79706573 
 13989      00
 13990              	.LASF104:
 13991 0703 5F616464 		.ascii	"_add\000"
 13991      00
ARM GAS  C:\Users\jo\AppData\Local\Temp\ccyP7UZh.s 			page 255


 13992              	.LASF30:
 13993 0708 5F5F554C 		.ascii	"__ULong\000"
 13993      6F6E6700 
 13994              	.LASF117:
 13995 0710 5F676574 		.ascii	"_getdate_err\000"
 13995      64617465 
 13995      5F657272 
 13995      00
 13996              	.LASF81:
 13997 071d 5F637572 		.ascii	"_current_category\000"
 13997      72656E74 
 13997      5F636174 
 13997      65676F72 
 13997      7900
 13998              	.LASF170:
 13999 072f 6D656D73 		.ascii	"memset\000"
 13999      657400
 14000              	.LASF105:
 14001 0736 5F756E75 		.ascii	"_unused_rand\000"
 14001      7365645F 
 14001      72616E64 
 14001      00
 14002              	.LASF182:
 14003 0743 65786974 		.ascii	"exit\000"
 14003      00
 14004              	.LASF154:
 14005 0748 73686135 		.ascii	"sha512_hmac_reset\000"
 14005      31325F68 
 14005      6D61635F 
 14005      72657365 
 14005      7400
 14006              	.LASF37:
 14007 075a 5F5F746D 		.ascii	"__tm_sec\000"
 14007      5F736563 
 14007      00
 14008              	.LASF34:
 14009 0763 5F776473 		.ascii	"_wds\000"
 14009      00
 14010              	.LASF43:
 14011 0768 5F5F746D 		.ascii	"__tm_wday\000"
 14011      5F776461 
 14011      7900
 14012              	.LASF98:
 14013 0772 5F676C75 		.ascii	"_glue\000"
 14013      6500
 14014              	.LASF129:
 14015 0778 696C656E 		.ascii	"ilen\000"
 14015      00
 14016              	.LASF125:
 14017 077d 5F6E6D61 		.ascii	"_nmalloc\000"
 14017      6C6C6F63 
 14017      00
 14018              	.LASF115:
 14019 0786 5F6C3634 		.ascii	"_l64a_buf\000"
 14019      615F6275 
 14019      6600
 14020              	.LASF93:
ARM GAS  C:\Users\jo\AppData\Local\Temp\ccyP7UZh.s 			page 256


 14021 0790 5F736967 		.ascii	"_sig_func\000"
 14021      5F66756E 
 14021      6300
 14022              	.LASF151:
 14023 079a 73686135 		.ascii	"sha512_hmac_finish\000"
 14023      31325F68 
 14023      6D61635F 
 14023      66696E69 
 14023      736800
 14024              	.LASF67:
 14025 07ad 5F6E6275 		.ascii	"_nbuf\000"
 14025      6600
 14026              	.LASF126:
 14027 07b3 5F756E75 		.ascii	"_unused\000"
 14027      73656400 
 14028              	.LASF137:
 14029 07bb 73686135 		.ascii	"sha512_process\000"
 14029      31325F70 
 14029      726F6365 
 14029      737300
 14030              	.LASF45:
 14031 07ca 5F5F746D 		.ascii	"__tm_isdst\000"
 14031      5F697364 
 14031      737400
 14032              	.LASF108:
 14033 07d5 5F6C6F63 		.ascii	"_localtime_buf\000"
 14033      616C7469 
 14033      6D655F62 
 14033      756600
 14034              	.LASF65:
 14035 07e4 5F636C6F 		.ascii	"_close\000"
 14035      736500
 14036              	.LASF111:
 14037 07eb 5F723438 		.ascii	"_r48\000"
 14037      00
 14038              	.LASF135:
 14039 07f0 73686135 		.ascii	"sha512_hmac_update\000"
 14039      31325F68 
 14039      6D61635F 
 14039      75706461 
 14039      746500
 14040              	.LASF113:
 14041 0803 5F6D6274 		.ascii	"_mbtowc_state\000"
 14041      6F77635F 
 14041      73746174 
 14041      6500
 14042              	.LASF87:
 14043 0811 5F703573 		.ascii	"_p5s\000"
 14043      00
 14044              	.LASF16:
 14045 0816 6F706164 		.ascii	"opad\000"
 14045      00
 14046              	.LASF184:
 14047 081b 70757473 		.ascii	"puts\000"
 14047      00
 14048              	.LASF131:
 14049 0820 6C656674 		.ascii	"left\000"
ARM GAS  C:\Users\jo\AppData\Local\Temp\ccyP7UZh.s 			page 257


 14049      00
 14050              	.LASF144:
 14051 0825 7061646E 		.ascii	"padn\000"
 14051      00
 14052              	.LASF40:
 14053 082a 5F5F746D 		.ascii	"__tm_mday\000"
 14053      5F6D6461 
 14053      7900
 14054              	.LASF133:
 14055 0834 73686135 		.ascii	"sha512_init\000"
 14055      31325F69 
 14055      6E697400 
 14056              	.LASF149:
 14057 0840 73686135 		.ascii	"sha512_hmac_starts\000"
 14057      31325F68 
 14057      6D61635F 
 14057      73746172 
 14057      747300
 14058              		.ident	"GCC: (GNU Tools for ARM Embedded Processors) 4.9.3 20141119 (release) [ARM/embedded-4_9-br
ARM GAS  C:\Users\jo\AppData\Local\Temp\ccyP7UZh.s 			page 258


DEFINED SYMBOLS
                            *ABS*:00000000 sha512.c
C:\Users\jo\AppData\Local\Temp\ccyP7UZh.s:19     .text.sha512_init:00000000 $t
C:\Users\jo\AppData\Local\Temp\ccyP7UZh.s:25     .text.sha512_init:00000000 sha512_init
C:\Users\jo\AppData\Local\Temp\ccyP7UZh.s:43     .text.sha512_free:00000000 $t
C:\Users\jo\AppData\Local\Temp\ccyP7UZh.s:49     .text.sha512_free:00000000 sha512_free
C:\Users\jo\AppData\Local\Temp\ccyP7UZh.s:81     .text.sha512_starts:00000000 $t
C:\Users\jo\AppData\Local\Temp\ccyP7UZh.s:87     .text.sha512_starts:00000000 sha512_starts
C:\Users\jo\AppData\Local\Temp\ccyP7UZh.s:213    .text.sha512_starts:000000d8 $d
C:\Users\jo\AppData\Local\Temp\ccyP7UZh.s:249    .text.sha512_process:00000000 $t
C:\Users\jo\AppData\Local\Temp\ccyP7UZh.s:255    .text.sha512_process:00000000 sha512_process
C:\Users\jo\AppData\Local\Temp\ccyP7UZh.s:552    .text.sha512_process:00000250 $d
C:\Users\jo\AppData\Local\Temp\ccyP7UZh.s:557    .text.sha512_process:00000254 $t
C:\Users\jo\AppData\Local\Temp\ccyP7UZh.s:1825   .text.sha512_process:00000f90 $d
C:\Users\jo\AppData\Local\Temp\ccyP7UZh.s:1830   .text.sha512_update.part.0:00000000 $t
C:\Users\jo\AppData\Local\Temp\ccyP7UZh.s:1835   .text.sha512_update.part.0:00000000 sha512_update.part.0
C:\Users\jo\AppData\Local\Temp\ccyP7UZh.s:1979   .text.sha512_update:00000000 $t
C:\Users\jo\AppData\Local\Temp\ccyP7UZh.s:1985   .text.sha512_update:00000000 sha512_update
C:\Users\jo\AppData\Local\Temp\ccyP7UZh.s:2003   .text.sha512_finish:00000000 $t
C:\Users\jo\AppData\Local\Temp\ccyP7UZh.s:2009   .text.sha512_finish:00000000 sha512_finish
C:\Users\jo\AppData\Local\Temp\ccyP7UZh.s:2306   .text.sha512_finish:00000254 $d
C:\Users\jo\AppData\Local\Temp\ccyP7UZh.s:2311   .text.sha512:00000000 $t
C:\Users\jo\AppData\Local\Temp\ccyP7UZh.s:2317   .text.sha512:00000000 sha512
C:\Users\jo\AppData\Local\Temp\ccyP7UZh.s:2417   .text.sha512_file:00000000 $t
C:\Users\jo\AppData\Local\Temp\ccyP7UZh.s:2423   .text.sha512_file:00000000 sha512_file
C:\Users\jo\AppData\Local\Temp\ccyP7UZh.s:2567   .text.sha512_file:00000084 $d
C:\Users\jo\AppData\Local\Temp\ccyP7UZh.s:2572   .text.sha512_hmac_starts:00000000 $t
C:\Users\jo\AppData\Local\Temp\ccyP7UZh.s:2578   .text.sha512_hmac_starts:00000000 sha512_hmac_starts
C:\Users\jo\AppData\Local\Temp\ccyP7UZh.s:2741   .text.sha512_hmac_update:00000000 $t
C:\Users\jo\AppData\Local\Temp\ccyP7UZh.s:2747   .text.sha512_hmac_update:00000000 sha512_hmac_update
C:\Users\jo\AppData\Local\Temp\ccyP7UZh.s:2769   .text.sha512_hmac_finish:00000000 $t
C:\Users\jo\AppData\Local\Temp\ccyP7UZh.s:2775   .text.sha512_hmac_finish:00000000 sha512_hmac_finish
C:\Users\jo\AppData\Local\Temp\ccyP7UZh.s:2865   .text.sha512_hmac_reset:00000000 $t
C:\Users\jo\AppData\Local\Temp\ccyP7UZh.s:2871   .text.sha512_hmac_reset:00000000 sha512_hmac_reset
C:\Users\jo\AppData\Local\Temp\ccyP7UZh.s:2913   .text.sha512_hmac:00000000 $t
C:\Users\jo\AppData\Local\Temp\ccyP7UZh.s:2919   .text.sha512_hmac:00000000 sha512_hmac
C:\Users\jo\AppData\Local\Temp\ccyP7UZh.s:3025   .text.sha512_self_test:00000000 $t
C:\Users\jo\AppData\Local\Temp\ccyP7UZh.s:3031   .text.sha512_self_test:00000000 sha512_self_test
C:\Users\jo\AppData\Local\Temp\ccyP7UZh.s:3441   .text.sha512_self_test:00000210 $d
C:\Users\jo\AppData\Local\Temp\ccyP7UZh.s:3459   .rodata.sha512_test_buflen:00000000 $d
C:\Users\jo\AppData\Local\Temp\ccyP7UZh.s:3463   .rodata.sha512_test_buflen:00000000 sha512_test_buflen
C:\Users\jo\AppData\Local\Temp\ccyP7UZh.s:3468   .rodata.sha512_test_sum:00000000 $d
C:\Users\jo\AppData\Local\Temp\ccyP7UZh.s:3472   .rodata.sha512_test_sum:00000000 sha512_test_sum
C:\Users\jo\AppData\Local\Temp\ccyP7UZh.s:3813   .rodata.sha512_test_buf:00000000 $d
C:\Users\jo\AppData\Local\Temp\ccyP7UZh.s:3817   .rodata.sha512_test_buf:00000000 sha512_test_buf
C:\Users\jo\AppData\Local\Temp\ccyP7UZh.s:3826   .rodata.sha512_padding:00000000 $d
C:\Users\jo\AppData\Local\Temp\ccyP7UZh.s:3830   .rodata.sha512_padding:00000000 sha512_padding
C:\Users\jo\AppData\Local\Temp\ccyP7UZh.s:3960   .rodata.sha512_hmac_test_keylen:00000000 $d
C:\Users\jo\AppData\Local\Temp\ccyP7UZh.s:3964   .rodata.sha512_hmac_test_keylen:00000000 sha512_hmac_test_keylen
C:\Users\jo\AppData\Local\Temp\ccyP7UZh.s:3973   .rodata.sha512_hmac_test_sum:00000000 $d
C:\Users\jo\AppData\Local\Temp\ccyP7UZh.s:3977   .rodata.sha512_hmac_test_sum:00000000 sha512_hmac_test_sum
C:\Users\jo\AppData\Local\Temp\ccyP7UZh.s:4691   .rodata.str1.4:00000000 $d
C:\Users\jo\AppData\Local\Temp\ccyP7UZh.s:4706   .rodata.sha512_hmac_test_buf:00000000 $d
C:\Users\jo\AppData\Local\Temp\ccyP7UZh.s:4710   .rodata.sha512_hmac_test_buf:00000000 sha512_hmac_test_buf
C:\Users\jo\AppData\Local\Temp\ccyP7UZh.s:4734   .rodata.sha512_hmac_test_buflen:00000000 $d
C:\Users\jo\AppData\Local\Temp\ccyP7UZh.s:4738   .rodata.sha512_hmac_test_buflen:00000000 sha512_hmac_test_buflen
C:\Users\jo\AppData\Local\Temp\ccyP7UZh.s:4747   .rodata.sha512_hmac_test_key:00000000 $d
ARM GAS  C:\Users\jo\AppData\Local\Temp\ccyP7UZh.s 			page 259


C:\Users\jo\AppData\Local\Temp\ccyP7UZh.s:4751   .rodata.sha512_hmac_test_key:00000000 sha512_hmac_test_key
C:\Users\jo\AppData\Local\Temp\ccyP7UZh.s:4770   .rodata.K:00000000 $d
C:\Users\jo\AppData\Local\Temp\ccyP7UZh.s:4774   .rodata.K:00000000 K
                     .debug_frame:00000010 $d
C:\Users\jo\AppData\Local\Temp\ccyP7UZh.s:248    .text.sha512_starts:00000158 $t
C:\Users\jo\AppData\Local\Temp\ccyP7UZh.s:1829   .text.sha512_process:00000f94 $t
C:\Users\jo\AppData\Local\Temp\ccyP7UZh.s:2310   .text.sha512_finish:00000258 $t
C:\Users\jo\AppData\Local\Temp\ccyP7UZh.s:2571   .text.sha512_file:00000088 $t
C:\Users\jo\AppData\Local\Temp\ccyP7UZh.s:3458   .text.sha512_self_test:00000248 $t

UNDEFINED SYMBOLS
memset
memcpy
fopen
fread
fclose
memcmp
printf
puts
putchar
