ARM GAS  C:\Users\jo\AppData\Local\Temp\ccyP7UZh.s 			page 1


   1              		.syntax unified
   2              		.cpu cortex-m4
   3              		.fpu softvfp
   4              		.eabi_attribute 20, 1
   5              		.eabi_attribute 21, 1
   6              		.eabi_attribute 23, 3
   7              		.eabi_attribute 24, 1
   8              		.eabi_attribute 25, 1
   9              		.eabi_attribute 26, 1
  10              		.eabi_attribute 30, 2
  11              		.eabi_attribute 34, 1
  12              		.eabi_attribute 18, 4
  13              		.thumb
  14              		.file	"sha512.c"
  15              		.text
  16              	.Ltext0:
  17              		.cfi_sections	.debug_frame
  18              		.section	.text.sha512_init,"ax",%progbits
  19              		.align	2
  20              		.p2align 4,,15
  21              		.global	sha512_init
  22              		.thumb
  23              		.thumb_func
  24              		.type	sha512_init, %function
  25              	sha512_init:
  26              	.LFB1:
  27              		.file 1 "../../../ext/mbedtls-1.3.11/library/sha512.c"
  28              		.loc 1 145 0
  29              		.cfi_startproc
  30              		@ args = 0, pretend = 0, frame = 0
  31              		@ frame_needed = 0, uses_anonymous_args = 0
  32              		@ link register save eliminated.
  33              	.LVL0:
  34              		.loc 1 146 0
  35 0000 0021     		movs	r1, #0
  36 0002 4FF4EC72 		mov	r2, #472
  37 0006 FFF7FEBF 		b	memset
  38              	.LVL1:
  39              		.cfi_endproc
  40              	.LFE1:
  41              		.size	sha512_init, .-sha512_init
  42              		.section	.text.sha512_free,"ax",%progbits
  43              		.align	2
  44              		.p2align 4,,15
  45              		.global	sha512_free
  46              		.thumb
  47              		.thumb_func
  48              		.type	sha512_free, %function
  49              	sha512_free:
  50              	.LFB2:
  51              		.loc 1 150 0
  52              		.cfi_startproc
  53              		@ args = 0, pretend = 0, frame = 0
  54              		@ frame_needed = 0, uses_anonymous_args = 0
  55              		@ link register save eliminated.
  56              	.LVL2:
  57              		.loc 1 151 0
ARM GAS  C:\Users\jo\AppData\Local\Temp\ccyP7UZh.s 			page 2


  58 0000 30B1     		cbz	r0, .L2
  59 0002 00F5EC72 		add	r2, r0, #472
  60              	.LBB62:
  61              	.LBB63:
  62              		.loc 1 61 0
  63 0006 0023     		movs	r3, #0
  64              	.LVL3:
  65              	.L4:
  66 0008 0370     		strb	r3, [r0]
  67              	.LVL4:
  68 000a 0130     		adds	r0, r0, #1
  69              	.LVL5:
  70 000c 9042     		cmp	r0, r2
  71 000e FBD1     		bne	.L4
  72              	.LVL6:
  73              	.L2:
  74 0010 7047     		bx	lr
  75              	.LBE63:
  76              	.LBE62:
  77              		.cfi_endproc
  78              	.LFE2:
  79              		.size	sha512_free, .-sha512_free
  80 0012 00BFAFF3 		.section	.text.sha512_starts,"ax",%progbits
  80      0080AFF3 
  80      0080AFF3 
  80      0080
  81              		.align	2
  82              		.p2align 4,,15
  83              		.global	sha512_starts
  84              		.thumb
  85              		.thumb_func
  86              		.type	sha512_starts, %function
  87              	sha512_starts:
  88              	.LFB3:
  89              		.loc 1 161 0
  90              		.cfi_startproc
  91              		@ args = 0, pretend = 0, frame = 0
  92              		@ frame_needed = 0, uses_anonymous_args = 0
  93              	.LVL7:
  94              		.loc 1 162 0
  95 0000 0022     		movs	r2, #0
  96 0002 0023     		movs	r3, #0
  97              		.loc 1 161 0
  98 0004 2DE9F04F 		push	{r4, r5, r6, r7, r8, r9, r10, fp, lr}
  99              		.cfi_def_cfa_offset 36
 100              		.cfi_offset 4, -36
 101              		.cfi_offset 5, -32
 102              		.cfi_offset 6, -28
 103              		.cfi_offset 7, -24
 104              		.cfi_offset 8, -20
 105              		.cfi_offset 9, -16
 106              		.cfi_offset 10, -12
 107              		.cfi_offset 11, -8
 108              		.cfi_offset 14, -4
 109              		.loc 1 165 0
 110 0008 8C46     		mov	ip, r1
 111              		.loc 1 161 0
ARM GAS  C:\Users\jo\AppData\Local\Temp\ccyP7UZh.s 			page 3


 112 000a 8646     		mov	lr, r0
 113              		.loc 1 162 0
 114 000c C0E90023 		strd	r2, [r0]
 115              		.loc 1 163 0
 116 0010 C0E90223 		strd	r2, [r0, #8]
 117              		.loc 1 165 0
 118 0014 0029     		cmp	r1, #0
 119 0016 2FD0     		beq	.L12
 120              		.loc 1 180 0
 121 0018 0FF2BC0B 		adr	fp, .L13
 122 001c DBE900AB 		ldrd	r10, [fp]
 123              		.loc 1 181 0
 124 0020 0FF2BC09 		adr	r9, .L13+8
 125 0024 D9E90089 		ldrd	r8, [r9]
 126              		.loc 1 182 0
 127 0028 2FA7     		adr	r7, .L13+16
 128 002a D7E90067 		ldrd	r6, [r7]
 129              		.loc 1 183 0
 130 002e 30A5     		adr	r5, .L13+24
 131 0030 D5E90045 		ldrd	r4, [r5]
 132              		.loc 1 184 0
 133 0034 30A3     		adr	r3, .L13+32
 134 0036 D3E90023 		ldrd	r2, [r3]
 135              		.loc 1 185 0
 136 003a 31A1     		adr	r1, .L13+40
 137 003c D1E90001 		ldrd	r0, [r1]
 138              	.LVL8:
 139              		.loc 1 180 0
 140 0040 CEE904AB 		strd	r10, [lr, #16]
 141              		.loc 1 181 0
 142 0044 CEE90689 		strd	r8, [lr, #24]
 143              		.loc 1 186 0
 144 0048 0FF2BC0B 		adr	fp, .L13+48
 145 004c DBE900AB 		ldrd	r10, [fp]
 146              		.loc 1 187 0
 147 0050 0FF2BC09 		adr	r9, .L13+56
 148 0054 D9E90089 		ldrd	r8, [r9]
 149              		.loc 1 182 0
 150 0058 CEE90867 		strd	r6, [lr, #32]
 151              		.loc 1 183 0
 152 005c CEE90A45 		strd	r4, [lr, #40]
 153              		.loc 1 184 0
 154 0060 CEE90C23 		strd	r2, [lr, #48]
 155              		.loc 1 185 0
 156 0064 CEE90E01 		strd	r0, [lr, #56]
 157              		.loc 1 186 0
 158 0068 CEE910AB 		strd	r10, [lr, #64]
 159              		.loc 1 187 0
 160 006c CEE91289 		strd	r8, [lr, #72]
 161              		.loc 1 190 0
 162 0070 CEF8D0C1 		str	ip, [lr, #464]
 163 0074 BDE8F08F 		pop	{r4, r5, r6, r7, r8, r9, r10, fp, pc}
 164              	.LVL9:
 165              	.L12:
 166              		.loc 1 168 0
 167 0078 27A5     		adr	r5, .L13+64
 168 007a D5E90045 		ldrd	r4, [r5]
ARM GAS  C:\Users\jo\AppData\Local\Temp\ccyP7UZh.s 			page 4


 169              		.loc 1 169 0
 170 007e 28A1     		adr	r1, .L13+72
 171 0080 D1E90001 		ldrd	r0, [r1]
 172              	.LVL10:
 173              		.loc 1 170 0
 174 0084 28A3     		adr	r3, .L13+80
 175 0086 D3E90023 		ldrd	r2, [r3]
 176              		.loc 1 171 0
 177 008a 29A7     		adr	r7, .L13+88
 178 008c D7E90067 		ldrd	r6, [r7]
 179              		.loc 1 172 0
 180 0090 0FF2A409 		adr	r9, .L13+96
 181 0094 D9E90089 		ldrd	r8, [r9]
 182              		.loc 1 173 0
 183 0098 0FF2A40B 		adr	fp, .L13+104
 184 009c DBE900AB 		ldrd	r10, [fp]
 185              		.loc 1 168 0
 186 00a0 CEE90445 		strd	r4, [lr, #16]
 187              		.loc 1 169 0
 188 00a4 CEE90601 		strd	r0, [lr, #24]
 189              		.loc 1 174 0
 190 00a8 27A5     		adr	r5, .L13+112
 191 00aa D5E90045 		ldrd	r4, [r5]
 192              		.loc 1 175 0
 193 00ae 28A1     		adr	r1, .L13+120
 194 00b0 D1E90001 		ldrd	r0, [r1]
 195              		.loc 1 170 0
 196 00b4 CEE90823 		strd	r2, [lr, #32]
 197              		.loc 1 171 0
 198 00b8 CEE90A67 		strd	r6, [lr, #40]
 199              		.loc 1 172 0
 200 00bc CEE90C89 		strd	r8, [lr, #48]
 201              		.loc 1 173 0
 202 00c0 CEE90EAB 		strd	r10, [lr, #56]
 203              		.loc 1 174 0
 204 00c4 CEE91045 		strd	r4, [lr, #64]
 205              		.loc 1 175 0
 206 00c8 CEE91201 		strd	r0, [lr, #72]
 207              		.loc 1 190 0
 208 00cc CEF8D0C1 		str	ip, [lr, #464]
 209 00d0 BDE8F08F 		pop	{r4, r5, r6, r7, r8, r9, r10, fp, pc}
 210              	.L14:
 211 00d4 AFF30080 		.align	3
 212              	.L13:
 213 00d8 D89E05C1 		.word	-1056596264
 214 00dc 5D9DBBCB 		.word	-876896931
 215 00e0 07D57C36 		.word	914150663
 216 00e4 2A299A62 		.word	1654270250
 217 00e8 17DD7030 		.word	812702999
 218 00ec 5A015991 		.word	-1856437926
 219 00f0 39590EF7 		.word	-150054599
 220 00f4 D8EC2F15 		.word	355462360
 221 00f8 310BC0FF 		.word	-4191439
 222 00fc 67263367 		.word	1731405415
 223 0100 11155868 		.word	1750603025
 224 0104 874AB48E 		.word	-1900787065
 225 0108 A78FF964 		.word	1694076839
ARM GAS  C:\Users\jo\AppData\Local\Temp\ccyP7UZh.s 			page 5


 226 010c 0D2E0CDB 		.word	-619958771
 227 0110 A44FFABE 		.word	-1090891868
 228 0114 1D48B547 		.word	1203062813
 229 0118 08C9BCF3 		.word	-205731576
 230 011c 67E6096A 		.word	1779033703
 231 0120 3BA7CA84 		.word	-2067093701
 232 0124 85AE67BB 		.word	-1150833019
 233 0128 2BF894FE 		.word	-23791573
 234 012c 72F36E3C 		.word	1013904242
 235 0130 F1361D5F 		.word	1595750129
 236 0134 3AF54FA5 		.word	-1521486534
 237 0138 D182E6AD 		.word	-1377402159
 238 013c 7F520E51 		.word	1359893119
 239 0140 1F6C3E2B 		.word	725511199
 240 0144 8C68059B 		.word	-1694144372
 241 0148 6BBD41FB 		.word	-79577749
 242 014c ABD9831F 		.word	528734635
 243 0150 79217E13 		.word	327033209
 244 0154 19CDE05B 		.word	1541459225
 245              		.cfi_endproc
 246              	.LFE3:
 247              		.size	sha512_starts, .-sha512_starts
 248 0158 AFF30080 		.section	.text.sha512_process,"ax",%progbits
 248      AFF30080 
 249              		.align	2
 250              		.p2align 4,,15
 251              		.global	sha512_process
 252              		.thumb
 253              		.thumb_func
 254              		.type	sha512_process, %function
 255              	sha512_process:
 256              	.LFB4:
 257              		.loc 1 194 0
 258              		.cfi_startproc
 259              		@ args = 0, pretend = 0, frame = 1184
 260              		@ frame_needed = 0, uses_anonymous_args = 0
 261              	.LVL11:
 262 0000 2DE9F04F 		push	{r4, r5, r6, r7, r8, r9, r10, fp, lr}
 263              		.cfi_def_cfa_offset 36
 264              		.cfi_offset 4, -36
 265              		.cfi_offset 5, -32
 266              		.cfi_offset 6, -28
 267              		.cfi_offset 7, -24
 268              		.cfi_offset 8, -20
 269              		.cfi_offset 9, -16
 270              		.cfi_offset 10, -12
 271              		.cfi_offset 11, -8
 272              		.cfi_offset 14, -4
 273 0004 ADF2A44D 		subw	sp, sp, #1188
 274              		.cfi_def_cfa_offset 1224
 275              		.loc 1 194 0
 276 0008 8E46     		mov	lr, r1
 277              		.loc 1 218 0
 278 000a 74A9     		add	r1, sp, #464
 279              	.LVL12:
 280 000c C1E900AB 		strd	r10, [r1]
 281 0010 CDE90823 		strd	r2, [sp, #32]
ARM GAS  C:\Users\jo\AppData\Local\Temp\ccyP7UZh.s 			page 6


 282              		.loc 1 194 0
 283 0014 7F90     		str	r0, [sp, #508]
 284 0016 86AD     		add	r5, sp, #536
 285              		.loc 1 218 0
 286 0018 0024     		movs	r4, #0
 287              	.LVL13:
 288              	.L16:
 289              		.loc 1 220 0 discriminator 3
 290 001a 0EEBC401 		add	r1, lr, r4, lsl #3
 291 001e 1EF83460 		ldrb	r6, [lr, r4, lsl #3]	@ zero_extendqisi2
 292 0022 4A78     		ldrb	r2, [r1, #1]	@ zero_extendqisi2
 293 0024 91F807A0 		ldrb	r10, [r1, #7]	@ zero_extendqisi2
 294 0028 4FF00008 		mov	r8, #0
 295 002c 1304     		lsls	r3, r2, #16
 296 002e 4FEA0669 		lsl	r9, r6, #24
 297 0032 8E78     		ldrb	r6, [r1, #2]	@ zero_extendqisi2
 298 0034 0F93     		str	r3, [sp, #60]
 299 0036 CDF83880 		str	r8, [sp, #56]
 300 003a 3002     		lsls	r0, r6, #8
 301 003c DDE90E67 		ldrd	r6, [sp, #56]
 302 0040 4AEA0802 		orr	r2, r10, r8
 303 0044 4FF0000B 		mov	fp, #0
 304 0048 CB78     		ldrb	r3, [r1, #3]	@ zero_extendqisi2
 305 004a 1190     		str	r0, [sp, #68]
 306 004c CDF84080 		str	r8, [sp, #64]
 307 0050 1393     		str	r3, [sp, #76]
 308 0052 1643     		orrs	r6, r6, r2
 309 0054 4BEA0903 		orr	r3, fp, r9
 310 0058 DDE910AB 		ldrd	r10, [sp, #64]
 311 005c 3246     		mov	r2, r6
 312 005e 1F43     		orrs	r7, r7, r3
 313 0060 0E79     		ldrb	r6, [r1, #4]	@ zero_extendqisi2
 314 0062 CDF84880 		str	r8, [sp, #72]
 315 0066 3B46     		mov	r3, r7
 316 0068 300A     		lsrs	r0, r6, #8
 317 006a 4AEA020A 		orr	r10, r10, r2
 318 006e 4BEA030B 		orr	fp, fp, r3
 319 0072 5246     		mov	r2, r10
 320 0074 5B46     		mov	r3, fp
 321 0076 0B90     		str	r0, [sp, #44]
 322 0078 DDE912AB 		ldrd	r10, [sp, #72]
 323 007c 3006     		lsls	r0, r6, #24
 324 007e 4E79     		ldrb	r6, [r1, #5]	@ zero_extendqisi2
 325 0080 0A90     		str	r0, [sp, #40]
 326 0082 300C     		lsrs	r0, r6, #16
 327 0084 4AEA020A 		orr	r10, r10, r2
 328 0088 4BEA030B 		orr	fp, fp, r3
 329 008c 0D90     		str	r0, [sp, #52]
 330 008e 8879     		ldrb	r0, [r1, #6]	@ zero_extendqisi2
 331 0090 5246     		mov	r2, r10
 332 0092 5B46     		mov	r3, fp
 333 0094 3604     		lsls	r6, r6, #16
 334 0096 DDE90AAB 		ldrd	r10, [sp, #40]
 335 009a 0C96     		str	r6, [sp, #48]
 336 009c 060E     		lsrs	r6, r0, #24
 337 009e 0996     		str	r6, [sp, #36]
 338 00a0 DDE90C67 		ldrd	r6, [sp, #48]
ARM GAS  C:\Users\jo\AppData\Local\Temp\ccyP7UZh.s 			page 7


 339 00a4 4BEA030B 		orr	fp, fp, r3
 340 00a8 5B46     		mov	r3, fp
 341 00aa 1F43     		orrs	r7, r7, r3
 342 00ac 4AEA020A 		orr	r10, r10, r2
 343 00b0 0302     		lsls	r3, r0, #8
 344 00b2 5246     		mov	r2, r10
 345 00b4 0893     		str	r3, [sp, #32]
 346 00b6 1643     		orrs	r6, r6, r2
 347 00b8 DDE90823 		ldrd	r2, [sp, #32]
 348              		.loc 1 218 0 discriminator 3
 349 00bc 0134     		adds	r4, r4, #1
 350              	.LVL14:
 351              		.loc 1 220 0 discriminator 3
 352 00be 3243     		orrs	r2, r2, r6
 353 00c0 3B43     		orrs	r3, r3, r7
 354              		.loc 1 218 0 discriminator 3
 355 00c2 102C     		cmp	r4, #16
 356              		.loc 1 220 0 discriminator 3
 357 00c4 E5E90223 		strd	r2, [r5, #8]!
 358              		.loc 1 218 0 discriminator 3
 359 00c8 A7D1     		bne	.L16
 360 00ca 0DF5087E 		add	lr, sp, #544
 361              	.LVL15:
 362 00ce 98AB     		add	r3, sp, #608
 363 00d0 0DF52679 		add	r9, sp, #664
 364              		.loc 1 218 0 is_stmt 0
 365 00d4 4FF04008 		mov	r8, #64
 366 00d8 CDF840E0 		str	lr, [sp, #64]
 367 00dc 0DF5227C 		add	ip, sp, #648
 368 00e0 0893     		str	r3, [sp, #32]
 369 00e2 CDF82890 		str	r9, [sp, #40]
 370 00e6 CDF83080 		str	r8, [sp, #48]
 371              	.LVL16:
 372              	.L17:
 373              		.loc 1 225 0 is_stmt 1 discriminator 2
 374 00ea 5CF8082F 		ldr	r2, [ip, #8]!
 375              		.loc 1 226 0 discriminator 2
 376 00ee DEF80800 		ldr	r0, [lr, #8]
 377              		.loc 1 225 0 discriminator 2
 378 00f2 DCF80430 		ldr	r3, [ip, #4]
 379              		.loc 1 226 0 discriminator 2
 380 00f6 DEF80C10 		ldr	r1, [lr, #12]
 381              		.loc 1 225 0 discriminator 2
 382 00fa D40C     		lsrs	r4, r2, #19
 383 00fc 44EA4334 		orr	r4, r4, r3, lsl #13
 384 0100 DD00     		lsls	r5, r3, #3
 385 0102 45EA5275 		orr	r5, r5, r2, lsr #29
 386 0106 0294     		str	r4, [sp, #8]
 387 0108 DC0C     		lsrs	r4, r3, #19
 388 010a 4FEA921A 		lsr	r10, r2, #6
 389 010e 0195     		str	r5, [sp, #4]
 390 0110 D500     		lsls	r5, r2, #3
 391 0112 44EA4232 		orr	r2, r4, r2, lsl #13
 392 0116 0392     		str	r2, [sp, #12]
 393 0118 089A     		ldr	r2, [sp, #32]
 394 011a 45EA5375 		orr	r5, r5, r3, lsr #29
 395 011e 0095     		str	r5, [sp]
ARM GAS  C:\Users\jo\AppData\Local\Temp\ccyP7UZh.s 			page 8


 396 0120 F2E90245 		ldrd	r4, [r2, #8]!
 397 0124 DDE90289 		ldrd	r8, [sp, #8]
 398 0128 4AEA836A 		orr	r10, r10, r3, lsl #26
 399 012c 4FEA931B 		lsr	fp, r3, #6
 400 0130 0892     		str	r2, [sp, #32]
 401 0132 DDE90023 		ldrd	r2, [sp]
 402 0136 CDE90E45 		strd	r4, [sp, #56]
 403 013a 83EA0903 		eor	r3, r3, r9
 404              		.loc 1 226 0 discriminator 2
 405 013e 040A     		lsrs	r4, r0, #8
 406              		.loc 1 225 0 discriminator 2
 407 0140 9946     		mov	r9, r3
 408              		.loc 1 226 0 discriminator 2
 409 0142 44EA0163 		orr	r3, r4, r1, lsl #24
 410 0146 4408     		lsrs	r4, r0, #1
 411 0148 0493     		str	r3, [sp, #16]
 412 014a 44EAC173 		orr	r3, r4, r1, lsl #31
 413 014e 0C0A     		lsrs	r4, r1, #8
 414 0150 44EA0065 		orr	r5, r4, r0, lsl #24
 415 0154 0595     		str	r5, [sp, #20]
 416 0156 DDE90E45 		ldrd	r4, [sp, #56]
 417              		.loc 1 225 0 discriminator 2
 418 015a 82EA0802 		eor	r2, r2, r8
 419 015e 82EA0A02 		eor	r2, r2, r10
 420 0162 A418     		adds	r4, r4, r2
 421 0164 2246     		mov	r2, r4
 422              		.loc 1 226 0 discriminator 2
 423 0166 4FEA5104 		lsr	r4, r1, #1
 424 016a 4FEAD016 		lsr	r6, r0, #7
 425 016e 0693     		str	r3, [sp, #24]
 426 0170 44EAC070 		orr	r0, r4, r0, lsl #31
 427              		.loc 1 225 0 discriminator 2
 428 0174 89EA0B03 		eor	r3, r9, fp
 429 0178 5D41     		adcs	r5, r5, r3
 430              		.loc 1 226 0 discriminator 2
 431 017a 0790     		str	r0, [sp, #28]
 432 017c 2B46     		mov	r3, r5
 433 017e 46EA4166 		orr	r6, r6, r1, lsl #25
 434 0182 DDE90645 		ldrd	r4, [sp, #24]
 435 0186 CF09     		lsrs	r7, r1, #7
 436 0188 DDE90401 		ldrd	r0, [sp, #16]
 437 018c FEE80289 		ldrd	r8, [lr], #8
 438 0190 6040     		eors	r0, r0, r4
 439 0192 6940     		eors	r1, r1, r5
 440 0194 12EB0804 		adds	r4, r2, r8
 441 0198 80EA0600 		eor	r0, r0, r6
 442 019c 43EB0905 		adc	r5, r3, r9
 443 01a0 7940     		eors	r1, r1, r7
 444 01a2 2218     		adds	r2, r4, r0
 445 01a4 45EB0103 		adc	r3, r5, r1
 446              		.loc 1 225 0 discriminator 2
 447 01a8 0A99     		ldr	r1, [sp, #40]
 448 01aa E1E90223 		strd	r2, [r1, #8]!
 449              		.loc 1 223 0 discriminator 2
 450 01ae 0C9B     		ldr	r3, [sp, #48]
 451              		.loc 1 225 0 discriminator 2
 452 01b0 0A91     		str	r1, [sp, #40]
ARM GAS  C:\Users\jo\AppData\Local\Temp\ccyP7UZh.s 			page 9


 453              	.LVL17:
 454              		.loc 1 223 0 discriminator 2
 455 01b2 013B     		subs	r3, r3, #1
 456 01b4 0C93     		str	r3, [sp, #48]
 457              	.LVL18:
 458 01b6 98D1     		bne	.L17
 459              	.LVL19:
 460              		.loc 1 229 0
 461 01b8 7F9A     		ldr	r2, [sp, #508]
 462 01ba D2E90401 		ldrd	r0, [r2, #16]
 463 01be 76AB     		add	r3, sp, #472
 464              	.LVL20:
 465 01c0 C3E90001 		strd	r0, [r3]
 466              	.LVL21:
 467              		.loc 1 230 0
 468 01c4 D2E90645 		ldrd	r4, [r2, #24]
 469 01c8 1346     		mov	r3, r2
 470              		.loc 1 231 0
 471 01ca D3E90867 		ldrd	r6, [r3, #32]
 472              		.loc 1 230 0
 473 01ce 80AA     		add	r2, sp, #512
 474 01d0 C2E90045 		strd	r4, [r2]
 475              	.LVL22:
 476              		.loc 1 231 0
 477 01d4 82AA     		add	r2, sp, #520
 478 01d6 1946     		mov	r1, r3
 479 01d8 C2E90067 		strd	r6, [r2]
 480              	.LVL23:
 481              		.loc 1 232 0
 482 01dc D3E90A23 		ldrd	r2, [r3, #40]
 483              		.loc 1 234 0
 484 01e0 D1E90EAB 		ldrd	r10, [r1, #56]
 485              		.loc 1 233 0
 486 01e4 D1E90C89 		ldrd	r8, [r1, #48]
 487              		.loc 1 232 0
 488 01e8 78A8     		add	r0, sp, #480
 489              	.LVL24:
 490 01ea C0E90023 		strd	r2, [r0]
 491              	.LVL25:
 492              		.loc 1 233 0
 493 01ee 84AB     		add	r3, sp, #528
 494              		.loc 1 234 0
 495 01f0 86AA     		add	r2, sp, #536
 496 01f2 C2E900AB 		strd	r10, [r2]
 497              		.loc 1 233 0
 498 01f6 C3E90089 		strd	r8, [r3]
 499              	.LVL26:
 500              		.loc 1 235 0
 501 01fa D1E91023 		ldrd	r2, [r1, #64]
 502 01fe 7AA8     		add	r0, sp, #488
 503              	.LVL27:
 504 0200 C0E90023 		strd	r2, [r0]
 505              	.LVL28:
 506              		.loc 1 236 0
 507 0204 D1E91223 		ldrd	r2, [r1, #72]
 508 0208 7CA9     		add	r1, sp, #496
 509              	.LVL29:
ARM GAS  C:\Users\jo\AppData\Local\Temp\ccyP7UZh.s 			page 10


 510 020a C1E90023 		strd	r2, [r1]
 511              	.LVL30:
 512              		.loc 1 229 0
 513 020e 76AA     		add	r2, sp, #472
 514 0210 D2E90001 		ldrd	r0, [r2]
 515              		.loc 1 232 0
 516 0214 78AA     		add	r2, sp, #480
 517              		.loc 1 230 0
 518 0216 CDE90245 		strd	r4, [sp, #8]
 519              		.loc 1 232 0
 520 021a D2E90045 		ldrd	r4, [r2]
 521              	.LVL31:
 522              		.loc 1 235 0
 523 021e 7AAA     		add	r2, sp, #488
 524              		.loc 1 232 0
 525 0220 CDE90C45 		strd	r4, [sp, #48]
 526              		.loc 1 234 0
 527 0224 5446     		mov	r4, r10
 528 0226 5D46     		mov	r5, fp
 529              		.loc 1 235 0
 530 0228 D2E900AB 		ldrd	r10, [r2]
 531              	.LVL32:
 532              		.loc 1 236 0
 533 022c 7CAA     		add	r2, sp, #496
 534              		.loc 1 234 0
 535 022e CDE90E45 		strd	r4, [sp, #56]
 536              		.loc 1 236 0
 537 0232 D2E90045 		ldrd	r4, [r2]
 538              		.loc 1 231 0
 539 0236 CDE90867 		strd	r6, [sp, #32]
 540              		.loc 1 233 0
 541 023a CDE90689 		strd	r8, [sp, #24]
 542              		.loc 1 236 0
 543 023e CDE90445 		strd	r4, [sp, #16]
 544 0242 CDE90AAB 		strd	r10, [sp, #40]
 545 0246 CDE90001 		strd	r0, [sp]
 546 024a 014B     		ldr	r3, .L23
 547 024c 109A     		ldr	r2, [sp, #64]
 548 024e 01E0     		b	.L24
 549              	.L25:
 550              		.align	2
 551              	.L23:
 552 0250 00000000 		.word	.LANCHOR0
 553              	.L24:
 554              	.LVL33:
 555              	.L18:
 556              		.loc 1 241 0 discriminator 1
 557 0254 DDE906AB 		ldrd	r10, [sp, #24]
 558 0258 5146     		mov	r1, r10
 559 025a 880C     		lsrs	r0, r1, #18
 560 025c 890B     		lsrs	r1, r1, #14
 561 025e 41EA8B41 		orr	r1, r1, fp, lsl #18
 562 0262 40EA8B30 		orr	r0, r0, fp, lsl #14
 563 0266 1691     		str	r1, [sp, #88]
 564 0268 5946     		mov	r1, fp
 565 026a 1490     		str	r0, [sp, #80]
 566 026c 5C46     		mov	r4, fp
ARM GAS  C:\Users\jo\AppData\Local\Temp\ccyP7UZh.s 			page 11


 567 026e 5846     		mov	r0, fp
 568 0270 C905     		lsls	r1, r1, #23
 569 0272 5546     		mov	r5, r10
 570 0274 41EA5A21 		orr	r1, r1, r10, lsr #9
 571 0278 A40C     		lsrs	r4, r4, #18
 572 027a 800B     		lsrs	r0, r0, #14
 573 027c 44EA8A34 		orr	r4, r4, r10, lsl #14
 574 0280 40EA8A40 		orr	r0, r0, r10, lsl #18
 575 0284 1991     		str	r1, [sp, #100]
 576 0286 E905     		lsls	r1, r5, #23
 577 0288 1594     		str	r4, [sp, #84]
 578 028a 1790     		str	r0, [sp, #92]
 579 028c 41EA5B21 		orr	r1, r1, fp, lsr #9
 580 0290 DDE91645 		ldrd	r4, [sp, #88]
 581 0294 DDE91467 		ldrd	r6, [sp, #80]
 582 0298 1891     		str	r1, [sp, #96]
 583 029a DDE91889 		ldrd	r8, [sp, #96]
 584 029e 6640     		eors	r6, r6, r4
 585 02a0 6F40     		eors	r7, r7, r5
 586 02a2 88EA0608 		eor	r8, r8, r6
 587 02a6 89EA0709 		eor	r9, r9, r7
 588 02aa CDE91089 		strd	r8, [sp, #64]
 589 02ae D2E90067 		ldrd	r6, [r2]
 590 02b2 D3E90089 		ldrd	r8, [r3]
 591 02b6 DDE90E45 		ldrd	r4, [sp, #56]
 592 02ba DDE90A01 		ldrd	r0, [sp, #40]
 593 02be 16EB0806 		adds	r6, r6, r8
 594 02c2 47EB0907 		adc	r7, r7, r9
 595 02c6 6040     		eors	r0, r0, r4
 596 02c8 6940     		eors	r1, r1, r5
 597 02ca B046     		mov	r8, r6
 598 02cc B946     		mov	r9, r7
 599 02ce 5646     		mov	r6, r10
 600 02d0 5F46     		mov	r7, fp
 601 02d2 0640     		ands	r6, r6, r0
 602 02d4 0F40     		ands	r7, r7, r1
 603 02d6 3046     		mov	r0, r6
 604 02d8 3946     		mov	r1, r7
 605 02da DDE91067 		ldrd	r6, [sp, #64]
 606 02de 019C     		ldr	r4, [sp, #4]
 607 02e0 DDE900AB 		ldrd	r10, [sp]
 608 02e4 16EB0806 		adds	r6, r6, r8
 609 02e8 4FEA8475 		lsl	r5, r4, #30
 610 02ec 009C     		ldr	r4, [sp]
 611 02ee 47EB0907 		adc	r7, r7, r9
 612 02f2 DDE90A89 		ldrd	r8, [sp, #40]
 613 02f6 45EA9A05 		orr	r5, r5, r10, lsr #2
 614 02fa 240F     		lsrs	r4, r4, #28
 615 02fc 1B95     		str	r5, [sp, #108]
 616 02fe 4FEA8A7E 		lsl	lr, r10, #30
 617 0302 44EA0B15 		orr	r5, r4, fp, lsl #4
 618 0306 5C46     		mov	r4, fp
 619 0308 1C95     		str	r5, [sp, #112]
 620 030a 89EA0109 		eor	r9, r9, r1
 621 030e 250F     		lsrs	r5, r4, #28
 622 0310 4EEA9B01 		orr	r1, lr, fp, lsr #2
 623 0314 1A91     		str	r1, [sp, #104]
ARM GAS  C:\Users\jo\AppData\Local\Temp\ccyP7UZh.s 			page 12


 624 0316 6406     		lsls	r4, r4, #25
 625 0318 45EA0A11 		orr	r1, r5, r10, lsl #4
 626 031c 1D91     		str	r1, [sp, #116]
 627 031e 4FEA4A6E 		lsl	lr, r10, #25
 628 0322 44EADA11 		orr	r1, r4, r10, lsr #7
 629 0326 DDE902AB 		ldrd	r10, [sp, #8]
 630 032a 88EA0008 		eor	r8, r8, r0
 631 032e 1F91     		str	r1, [sp, #124]
 632 0330 DDE90001 		ldrd	r0, [sp]
 633 0334 5446     		mov	r4, r10
 634 0336 5D46     		mov	r5, fp
 635 0338 2043     		orrs	r0, r0, r4
 636 033a 0446     		mov	r4, r0
 637 033c 2943     		orrs	r1, r1, r5
 638 033e 18EB0600 		adds	r0, r8, r6
 639 0342 0D46     		mov	r5, r1
 640 0344 49EB0701 		adc	r1, r9, r7
 641 0348 DDE91C67 		ldrd	r6, [sp, #112]
 642 034c DDE91A89 		ldrd	r8, [sp, #104]
 643 0350 88EA0608 		eor	r8, r8, r6
 644 0354 019E     		ldr	r6, [sp, #4]
 645 0356 89EA0709 		eor	r9, r9, r7
 646 035a 4EEAD617 		orr	r7, lr, r6, lsr #7
 647 035e 1E97     		str	r7, [sp, #120]
 648 0360 DDE90867 		ldrd	r6, [sp, #32]
 649 0364 2640     		ands	r6, r6, r4
 650 0366 2F40     		ands	r7, r7, r5
 651 0368 3446     		mov	r4, r6
 652 036a 3D46     		mov	r5, r7
 653 036c 5646     		mov	r6, r10
 654 036e 5F46     		mov	r7, fp
 655 0370 DDE900AB 		ldrd	r10, [sp]
 656 0374 0AEA060A 		and	r10, r10, r6
 657 0378 0BEA070B 		and	fp, fp, r7
 658 037c 5646     		mov	r6, r10
 659 037e 5F46     		mov	r7, fp
 660 0380 DDE904AB 		ldrd	r10, [sp, #16]
 661 0384 1AEB000A 		adds	r10, r10, r0
 662 0388 4BEB010B 		adc	fp, fp, r1
 663 038c 5046     		mov	r0, r10
 664 038e 5946     		mov	r1, fp
 665              	.LVL34:
 666 0390 DDE91EAB 		ldrd	r10, [sp, #120]
 667 0394 8AEA080A 		eor	r10, r10, r8
 668 0398 8BEA090B 		eor	fp, fp, r9
 669 039c DDE90C89 		ldrd	r8, [sp, #48]
 670 03a0 18EB0008 		adds	r8, r8, r0
 671 03a4 CDE904AB 		strd	r10, [sp, #16]
 672              	.LVL35:
 673 03a8 49EB0109 		adc	r9, r9, r1
 674 03ac C246     		mov	r10, r8
 675 03ae CB46     		mov	fp, r9
 676              	.LVL36:
 677 03b0 DDE90489 		ldrd	r8, [sp, #16]
 678 03b4 3443     		orrs	r4, r4, r6
 679 03b6 18EB0408 		adds	r8, r8, r4
 680 03ba 45EA0705 		orr	r5, r5, r7
ARM GAS  C:\Users\jo\AppData\Local\Temp\ccyP7UZh.s 			page 13


 681              		.loc 1 242 0 discriminator 1
 682 03be CDE904AB 		strd	r10, [sp, #16]
 683              		.loc 1 241 0 discriminator 1
 684 03c2 49EB0509 		adc	r9, r9, r5
 685 03c6 18EB0006 		adds	r6, r8, r0
 686 03ca 49EB0107 		adc	r7, r9, r1
 687              		.loc 1 242 0 discriminator 1
 688 03ce DDE90489 		ldrd	r8, [sp, #16]
 689 03d2 5446     		mov	r4, r10
 690 03d4 A50C     		lsrs	r5, r4, #18
 691 03d6 45EA8931 		orr	r1, r5, r9, lsl #14
 692 03da 2091     		str	r1, [sp, #128]
 693 03dc A40B     		lsrs	r4, r4, #14
 694 03de 4946     		mov	r1, r9
 695              		.loc 1 241 0 discriminator 1
 696 03e0 B246     		mov	r10, r6
 697              	.LVL37:
 698              		.loc 1 242 0 discriminator 1
 699 03e2 8E0C     		lsrs	r6, r1, #18
 700 03e4 44EA8941 		orr	r1, r4, r9, lsl #18
 701 03e8 2291     		str	r1, [sp, #136]
 702 03ea 4946     		mov	r1, r9
 703              		.loc 1 241 0 discriminator 1
 704 03ec BB46     		mov	fp, r7
 705              	.LVL38:
 706              		.loc 1 242 0 discriminator 1
 707 03ee BC07     		lsls	r4, r7, #30
 708 03f0 8D0B     		lsrs	r5, r1, #14
 709 03f2 46EA8837 		orr	r7, r6, r8, lsl #14
 710 03f6 2197     		str	r7, [sp, #132]
 711 03f8 45EA8845 		orr	r5, r5, r8, lsl #18
 712 03fc DDE90E67 		ldrd	r6, [sp, #56]
 713 0400 DDE90689 		ldrd	r8, [sp, #24]
 714              	.LVL39:
 715 0404 88EA0608 		eor	r8, r8, r6
 716 0408 89EA0709 		eor	r9, r9, r7
 717 040c DDE90467 		ldrd	r6, [sp, #16]
 718 0410 2395     		str	r5, [sp, #140]
 719 0412 44EA9A05 		orr	r5, r4, r10, lsr #2
 720 0416 2795     		str	r5, [sp, #156]
 721 0418 06EA0804 		and	r4, r6, r8
 722 041c 07EA0905 		and	r5, r7, r9
 723 0420 CDE91045 		strd	r4, [sp, #64]
 724 0424 D2E90289 		ldrd	r8, [r2, #8]
 725 0428 D3E90245 		ldrd	r4, [r3, #8]
 726 042c C805     		lsls	r0, r1, #23
 727              	.LVL40:
 728 042e 5146     		mov	r1, r10
 729 0430 090F     		lsrs	r1, r1, #28
 730 0432 14EB0804 		adds	r4, r4, r8
 731 0436 41EA0B11 		orr	r1, r1, fp, lsl #4
 732 043a 45EB0905 		adc	r5, r5, r9
 733 043e 2891     		str	r1, [sp, #160]
 734 0440 5146     		mov	r1, r10
 735 0442 CDE90C45 		strd	r4, [sp, #48]
 736 0446 8907     		lsls	r1, r1, #30
 737 0448 5C46     		mov	r4, fp
ARM GAS  C:\Users\jo\AppData\Local\Temp\ccyP7UZh.s 			page 14


 738 044a 40EA5620 		orr	r0, r0, r6, lsr #9
 739 044e 250F     		lsrs	r5, r4, #28
 740 0450 41EA9B01 		orr	r1, r1, fp, lsr #2
 741 0454 2590     		str	r0, [sp, #148]
 742 0456 6406     		lsls	r4, r4, #25
 743 0458 F005     		lsls	r0, r6, #23
 744 045a 2691     		str	r1, [sp, #152]
 745 045c 45EA0A11 		orr	r1, r5, r10, lsl #4
 746 0460 40EA5720 		orr	r0, r0, r7, lsr #9
 747 0464 2991     		str	r1, [sp, #164]
 748 0466 44EADA11 		orr	r1, r4, r10, lsr #7
 749 046a DDE92289 		ldrd	r8, [sp, #136]
 750 046e 2490     		str	r0, [sp, #144]
 751 0470 2B91     		str	r1, [sp, #172]
 752 0472 DDE92001 		ldrd	r0, [sp, #128]
 753 0476 DDE90E45 		ldrd	r4, [sp, #56]
 754 047a 80EA0800 		eor	r0, r0, r8
 755 047e 81EA0901 		eor	r1, r1, r9
 756 0482 DDE91089 		ldrd	r8, [sp, #64]
 757 0486 DDE90C67 		ldrd	r6, [sp, #48]
 758 048a 88EA0408 		eor	r8, r8, r4
 759 048e 89EA0509 		eor	r9, r9, r5
 760 0492 DDE90A45 		ldrd	r4, [sp, #40]
 761 0496 3619     		adds	r6, r6, r4
 762 0498 6F41     		adcs	r7, r7, r5
 763 049a 3446     		mov	r4, r6
 764 049c 3D46     		mov	r5, r7
 765 049e DDE90067 		ldrd	r6, [sp]
 766 04a2 CDE90A45 		strd	r4, [sp, #40]
 767              	.LVL41:
 768 04a6 5D46     		mov	r5, fp
 769 04a8 4FEA4A6E 		lsl	lr, r10, #25
 770 04ac 5446     		mov	r4, r10
 771 04ae 2F43     		orrs	r7, r7, r5
 772 04b0 3D46     		mov	r5, r7
 773 04b2 2643     		orrs	r6, r6, r4
 774 04b4 4EEADB17 		orr	r7, lr, fp, lsr #7
 775 04b8 2A97     		str	r7, [sp, #168]
 776 04ba 3446     		mov	r4, r6
 777 04bc DDE92467 		ldrd	r6, [sp, #144]
 778 04c0 4640     		eors	r6, r6, r0
 779 04c2 4F40     		eors	r7, r7, r1
 780 04c4 DDE90A01 		ldrd	r0, [sp, #40]
 781 04c8 10EB0800 		adds	r0, r0, r8
 782 04cc 41EB0901 		adc	r1, r1, r9
 783 04d0 CDE91067 		strd	r6, [sp, #64]
 784 04d4 DDE92889 		ldrd	r8, [sp, #160]
 785 04d8 0646     		mov	r6, r0
 786 04da 0F46     		mov	r7, r1
 787 04dc DDE92601 		ldrd	r0, [sp, #152]
 788 04e0 80EA0800 		eor	r0, r0, r8
 789 04e4 81EA0901 		eor	r1, r1, r9
 790 04e8 DDE90289 		ldrd	r8, [sp, #8]
 791 04ec 08EA0408 		and	r8, r8, r4
 792 04f0 09EA0509 		and	r9, r9, r5
 793 04f4 DDE90045 		ldrd	r4, [sp]
 794 04f8 04EA0A04 		and	r4, r4, r10
ARM GAS  C:\Users\jo\AppData\Local\Temp\ccyP7UZh.s 			page 15


 795 04fc 05EA0B05 		and	r5, r5, fp
 796 0500 CDE90A89 		strd	r8, [sp, #40]
 797 0504 A046     		mov	r8, r4
 798 0506 A946     		mov	r9, r5
 799 0508 DDE91045 		ldrd	r4, [sp, #64]
 800 050c A419     		adds	r4, r4, r6
 801 050e 7D41     		adcs	r5, r5, r7
 802 0510 2646     		mov	r6, r4
 803 0512 2F46     		mov	r7, r5
 804              	.LVL42:
 805 0514 DDE92A45 		ldrd	r4, [sp, #168]
 806 0518 4440     		eors	r4, r4, r0
 807 051a 4D40     		eors	r5, r5, r1
 808 051c DDE90801 		ldrd	r0, [sp, #32]
 809 0520 CDE90CAB 		strd	r10, [sp, #48]
 810              	.LVL43:
 811 0524 A246     		mov	r10, r4
 812              	.LVL44:
 813 0526 AB46     		mov	fp, r5
 814 0528 DDE90A45 		ldrd	r4, [sp, #40]
 815 052c 8019     		adds	r0, r0, r6
 816 052e 7941     		adcs	r1, r1, r7
 817 0530 44EA0804 		orr	r4, r4, r8
 818 0534 8046     		mov	r8, r0
 819 0536 45EA0905 		orr	r5, r5, r9
 820 053a 1AEB0400 		adds	r0, r10, r4
 821 053e 8946     		mov	r9, r1
 822              	.LVL45:
 823              		.loc 1 243 0 discriminator 1
 824 0540 4446     		mov	r4, r8
 825 0542 C246     		mov	r10, r8
 826              		.loc 1 242 0 discriminator 1
 827 0544 4BEB0501 		adc	r1, fp, r5
 828              		.loc 1 243 0 discriminator 1
 829 0548 CB46     		mov	fp, r9
 830 054a A50C     		lsrs	r5, r4, #18
 831 054c 4446     		mov	r4, r8
 832              		.loc 1 242 0 discriminator 1
 833 054e 10EB0608 		adds	r8, r0, r6
 834              	.LVL46:
 835 0552 41EB0709 		adc	r9, r1, r7
 836              	.LVL47:
 837              		.loc 1 243 0 discriminator 1
 838 0556 45EA8B31 		orr	r1, r5, fp, lsl #14
 839 055a A40B     		lsrs	r4, r4, #14
 840 055c 2C91     		str	r1, [sp, #176]
 841 055e 5946     		mov	r1, fp
 842 0560 8E0C     		lsrs	r6, r1, #18
 843              	.LVL48:
 844 0562 44EA8B41 		orr	r1, r4, fp, lsl #18
 845 0566 2E91     		str	r1, [sp, #184]
 846 0568 5946     		mov	r1, fp
 847 056a 46EA8A37 		orr	r7, r6, r10, lsl #14
 848 056e 8D0B     		lsrs	r5, r1, #14
 849 0570 C805     		lsls	r0, r1, #23
 850 0572 4946     		mov	r1, r9
 851 0574 CDE90889 		strd	r8, [sp, #32]
ARM GAS  C:\Users\jo\AppData\Local\Temp\ccyP7UZh.s 			page 16


 852 0578 8C07     		lsls	r4, r1, #30
 853 057a 2D97     		str	r7, [sp, #180]
 854 057c 4146     		mov	r1, r8
 855 057e DDE90467 		ldrd	r6, [sp, #16]
 856 0582 DDE90689 		ldrd	r8, [sp, #24]
 857              	.LVL49:
 858 0586 88EA0608 		eor	r8, r8, r6
 859 058a 89EA0709 		eor	r9, r9, r7
 860 058e DDE90867 		ldrd	r6, [sp, #32]
 861 0592 45EA8A45 		orr	r5, r5, r10, lsl #18
 862 0596 40EA5A20 		orr	r0, r0, r10, lsr #9
 863 059a 2F95     		str	r5, [sp, #188]
 864 059c 5546     		mov	r5, r10
 865 059e 3190     		str	r0, [sp, #196]
 866 05a0 E805     		lsls	r0, r5, #23
 867 05a2 44EA9605 		orr	r5, r4, r6, lsr #2
 868 05a6 3395     		str	r5, [sp, #204]
 869 05a8 0AEA0804 		and	r4, r10, r8
 870 05ac 0BEA0905 		and	r5, fp, r9
 871 05b0 CDE90AAB 		strd	r10, [sp, #40]
 872 05b4 A046     		mov	r8, r4
 873 05b6 D2E904AB 		ldrd	r10, [r2, #16]
 874 05ba A946     		mov	r9, r5
 875 05bc D3E90445 		ldrd	r4, [r3, #16]
 876 05c0 090F     		lsrs	r1, r1, #28
 877 05c2 14EB0A04 		adds	r4, r4, r10
 878 05c6 41EA0711 		orr	r1, r1, r7, lsl #4
 879 05ca 45EB0B05 		adc	r5, r5, fp
 880 05ce 3491     		str	r1, [sp, #208]
 881 05d0 BB46     		mov	fp, r7
 882 05d2 B107     		lsls	r1, r6, #30
 883 05d4 B246     		mov	r10, r6
 884 05d6 CDE90845 		strd	r4, [sp, #32]
 885              	.LVL50:
 886 05da 0B9E     		ldr	r6, [sp, #44]
 887              	.LVL51:
 888 05dc 3D0F     		lsrs	r5, r7, #28
 889 05de 41EA9B01 		orr	r1, r1, fp, lsr #2
 890 05e2 7C06     		lsls	r4, r7, #25
 891 05e4 3291     		str	r1, [sp, #200]
 892 05e6 45EA0A11 		orr	r1, r5, r10, lsl #4
 893 05ea 40EA5620 		orr	r0, r0, r6, lsr #9
 894 05ee 3591     		str	r1, [sp, #212]
 895 05f0 44EADA11 		orr	r1, r4, r10, lsr #7
 896 05f4 3090     		str	r0, [sp, #192]
 897 05f6 3791     		str	r1, [sp, #220]
 898 05f8 DDE92C01 		ldrd	r0, [sp, #176]
 899 05fc DDE90645 		ldrd	r4, [sp, #24]
 900 0600 5646     		mov	r6, r10
 901 0602 5F46     		mov	r7, fp
 902 0604 4FEA4A6E 		lsl	lr, r10, #25
 903 0608 DDE92EAB 		ldrd	r10, [sp, #184]
 904 060c 84EA0804 		eor	r4, r4, r8
 905 0610 85EA0905 		eor	r5, r5, r9
 906 0614 80EA0A00 		eor	r0, r0, r10
 907 0618 81EA0B01 		eor	r1, r1, fp
 908 061c A046     		mov	r8, r4
ARM GAS  C:\Users\jo\AppData\Local\Temp\ccyP7UZh.s 			page 17


 909 061e DDE908AB 		ldrd	r10, [sp, #32]
 910 0622 A946     		mov	r9, r5
 911 0624 DDE90E45 		ldrd	r4, [sp, #56]
 912 0628 1AEB040A 		adds	r10, r10, r4
 913 062c 4BEB050B 		adc	fp, fp, r5
 914 0630 5446     		mov	r4, r10
 915 0632 5D46     		mov	r5, fp
 916 0634 DDE90CAB 		ldrd	r10, [sp, #48]
 917 0638 CDE90E45 		strd	r4, [sp, #56]
 918              	.LVL52:
 919 063c 5D46     		mov	r5, fp
 920 063e CDE90867 		strd	r6, [sp, #32]
 921 0642 3D43     		orrs	r5, r5, r7
 922 0644 5446     		mov	r4, r10
 923 0646 4EEAD717 		orr	r7, lr, r7, lsr #7
 924 064a 3443     		orrs	r4, r4, r6
 925 064c 3697     		str	r7, [sp, #216]
 926 064e DDE93067 		ldrd	r6, [sp, #192]
 927 0652 4640     		eors	r6, r6, r0
 928 0654 4F40     		eors	r7, r7, r1
 929 0656 CDE91067 		strd	r6, [sp, #64]
 930 065a DDE90E67 		ldrd	r6, [sp, #56]
 931 065e 16EB0806 		adds	r6, r6, r8
 932 0662 47EB0907 		adc	r7, r7, r9
 933 0666 DDE93201 		ldrd	r0, [sp, #200]
 934 066a DDE93489 		ldrd	r8, [sp, #208]
 935 066e 80EA0800 		eor	r0, r0, r8
 936 0672 81EA0901 		eor	r1, r1, r9
 937 0676 DDE90089 		ldrd	r8, [sp]
 938 067a 08EA0408 		and	r8, r8, r4
 939 067e 09EA0509 		and	r9, r9, r5
 940 0682 DDE90845 		ldrd	r4, [sp, #32]
 941 0686 CDE90E89 		strd	r8, [sp, #56]
 942 068a 0AEA0408 		and	r8, r10, r4
 943 068e 0BEA0509 		and	r9, fp, r5
 944 0692 DDE910AB 		ldrd	r10, [sp, #64]
 945 0696 1AEB060A 		adds	r10, r10, r6
 946 069a 4BEB070B 		adc	fp, fp, r7
 947 069e 5646     		mov	r6, r10
 948 06a0 5F46     		mov	r7, fp
 949              	.LVL53:
 950 06a2 DDE936AB 		ldrd	r10, [sp, #216]
 951 06a6 8AEA000A 		eor	r10, r10, r0
 952 06aa 8BEA010B 		eor	fp, fp, r1
 953 06ae DDE90201 		ldrd	r0, [sp, #8]
 954 06b2 8019     		adds	r0, r0, r6
 955 06b4 CDE910AB 		strd	r10, [sp, #64]
 956 06b8 7941     		adcs	r1, r1, r7
 957 06ba DDE90E45 		ldrd	r4, [sp, #56]
 958              	.LVL54:
 959 06be 8246     		mov	r10, r0
 960 06c0 8B46     		mov	fp, r1
 961              	.LVL55:
 962 06c2 DDE91001 		ldrd	r0, [sp, #64]
 963 06c6 44EA0804 		orr	r4, r4, r8
 964 06ca 0019     		adds	r0, r0, r4
 965 06cc 45EA0905 		orr	r5, r5, r9
ARM GAS  C:\Users\jo\AppData\Local\Temp\ccyP7UZh.s 			page 18


 966 06d0 6941     		adcs	r1, r1, r5
 967 06d2 10EB0608 		adds	r8, r0, r6
 968              		.loc 1 244 0 discriminator 1
 969 06d6 CDE902AB 		strd	r10, [sp, #8]
 970              		.loc 1 243 0 discriminator 1
 971 06da 41EB0709 		adc	r9, r1, r7
 972 06de CB46     		mov	fp, r9
 973              		.loc 1 244 0 discriminator 1
 974 06e0 5446     		mov	r4, r10
 975              		.loc 1 243 0 discriminator 1
 976 06e2 C246     		mov	r10, r8
 977              	.LVL56:
 978              		.loc 1 244 0 discriminator 1
 979 06e4 DDE90289 		ldrd	r8, [sp, #8]
 980 06e8 A50C     		lsrs	r5, r4, #18
 981 06ea 45EA8931 		orr	r1, r5, r9, lsl #14
 982 06ee A40B     		lsrs	r4, r4, #14
 983 06f0 3891     		str	r1, [sp, #224]
 984 06f2 4946     		mov	r1, r9
 985 06f4 8E0C     		lsrs	r6, r1, #18
 986              	.LVL57:
 987 06f6 44EA8941 		orr	r1, r4, r9, lsl #18
 988 06fa 3A91     		str	r1, [sp, #232]
 989 06fc 4946     		mov	r1, r9
 990 06fe 46EA8837 		orr	r7, r6, r8, lsl #14
 991 0702 8D0B     		lsrs	r5, r1, #14
 992 0704 45EA8845 		orr	r5, r5, r8, lsl #18
 993 0708 3997     		str	r7, [sp, #228]
 994 070a DDE90A89 		ldrd	r8, [sp, #40]
 995 070e DDE90467 		ldrd	r6, [sp, #16]
 996 0712 88EA0608 		eor	r8, r8, r6
 997 0716 89EA0709 		eor	r9, r9, r7
 998 071a DDE90267 		ldrd	r6, [sp, #8]
 999 071e C805     		lsls	r0, r1, #23
 1000 0720 5946     		mov	r1, fp
 1001 0722 8C07     		lsls	r4, r1, #30
 1002 0724 40EA5620 		orr	r0, r0, r6, lsr #9
 1003 0728 3B95     		str	r5, [sp, #236]
 1004 072a 3D90     		str	r0, [sp, #244]
 1005 072c 44EA9A05 		orr	r5, r4, r10, lsr #2
 1006 0730 F005     		lsls	r0, r6, #23
 1007 0732 07EA0907 		and	r7, r7, r9
 1008 0736 06EA0806 		and	r6, r6, r8
 1009 073a 3F95     		str	r5, [sp, #252]
 1010 073c B046     		mov	r8, r6
 1011 073e D3E90645 		ldrd	r4, [r3, #24]
 1012 0742 B946     		mov	r9, r7
 1013 0744 D2E90667 		ldrd	r6, [r2, #24]
 1014 0748 5146     		mov	r1, r10
 1015 074a 090F     		lsrs	r1, r1, #28
 1016 074c A419     		adds	r4, r4, r6
 1017 074e 41EA0B11 		orr	r1, r1, fp, lsl #4
 1018 0752 7D41     		adcs	r5, r5, r7
 1019 0754 4091     		str	r1, [sp, #256]
 1020 0756 5146     		mov	r1, r10
 1021 0758 CDE90E45 		strd	r4, [sp, #56]
 1022 075c 8907     		lsls	r1, r1, #30
ARM GAS  C:\Users\jo\AppData\Local\Temp\ccyP7UZh.s 			page 19


 1023 075e 5C46     		mov	r4, fp
 1024 0760 250F     		lsrs	r5, r4, #28
 1025 0762 039E     		ldr	r6, [sp, #12]
 1026 0764 41EA9B01 		orr	r1, r1, fp, lsr #2
 1027 0768 3E91     		str	r1, [sp, #248]
 1028 076a 6406     		lsls	r4, r4, #25
 1029 076c 45EA0A11 		orr	r1, r5, r10, lsl #4
 1030 0770 40EA5620 		orr	r0, r0, r6, lsr #9
 1031 0774 4191     		str	r1, [sp, #260]
 1032 0776 44EADA11 		orr	r1, r4, r10, lsr #7
 1033 077a 3C90     		str	r0, [sp, #240]
 1034 077c DDE93A45 		ldrd	r4, [sp, #232]
 1035 0780 4391     		str	r1, [sp, #268]
 1036 0782 DDE93801 		ldrd	r0, [sp, #224]
 1037 0786 6040     		eors	r0, r0, r4
 1038 0788 6940     		eors	r1, r1, r5
 1039 078a DDE90445 		ldrd	r4, [sp, #16]
 1040 078e 84EA0804 		eor	r4, r4, r8
 1041 0792 85EA0905 		eor	r5, r5, r9
 1042 0796 DDE90667 		ldrd	r6, [sp, #24]
 1043 079a A046     		mov	r8, r4
 1044 079c A946     		mov	r9, r5
 1045 079e DDE90E45 		ldrd	r4, [sp, #56]
 1046 07a2 A419     		adds	r4, r4, r6
 1047 07a4 7D41     		adcs	r5, r5, r7
 1048 07a6 2646     		mov	r6, r4
 1049 07a8 2F46     		mov	r7, r5
 1050 07aa DDE90845 		ldrd	r4, [sp, #32]
 1051 07ae CDE90667 		strd	r6, [sp, #24]
 1052              	.LVL58:
 1053 07b2 4FEA4A6E 		lsl	lr, r10, #25
 1054 07b6 5F46     		mov	r7, fp
 1055 07b8 5646     		mov	r6, r10
 1056 07ba 3D43     		orrs	r5, r5, r7
 1057 07bc 4EEAD717 		orr	r7, lr, r7, lsr #7
 1058 07c0 3443     		orrs	r4, r4, r6
 1059 07c2 4297     		str	r7, [sp, #264]
 1060 07c4 DDE93C67 		ldrd	r6, [sp, #240]
 1061 07c8 4640     		eors	r6, r6, r0
 1062 07ca 4F40     		eors	r7, r7, r1
 1063 07cc CDE91067 		strd	r6, [sp, #64]
 1064 07d0 DDE90667 		ldrd	r6, [sp, #24]
 1065 07d4 0DF5807E 		add	lr, sp, #256
 1066 07d8 16EB0806 		adds	r6, r6, r8
 1067 07dc 47EB0907 		adc	r7, r7, r9
 1068 07e0 DDE93E01 		ldrd	r0, [sp, #248]
 1069 07e4 DEE90089 		ldrd	r8, [lr]
 1070 07e8 80EA0800 		eor	r0, r0, r8
 1071 07ec 81EA0901 		eor	r1, r1, r9
 1072 07f0 DDE90889 		ldrd	r8, [sp, #32]
 1073 07f4 CDE90EAB 		strd	r10, [sp, #56]
 1074 07f8 08EA0A08 		and	r8, r8, r10
 1075 07fc 09EA0B09 		and	r9, r9, fp
 1076 0800 DDE90CAB 		ldrd	r10, [sp, #48]
 1077              	.LVL59:
 1078 0804 0AEA040A 		and	r10, r10, r4
 1079 0808 0BEA050B 		and	fp, fp, r5
ARM GAS  C:\Users\jo\AppData\Local\Temp\ccyP7UZh.s 			page 20


 1080 080c DDE91045 		ldrd	r4, [sp, #64]
 1081 0810 A419     		adds	r4, r4, r6
 1082 0812 2646     		mov	r6, r4
 1083 0814 7D41     		adcs	r5, r5, r7
 1084 0816 42AC     		add	r4, sp, #264
 1085 0818 2F46     		mov	r7, r5
 1086              	.LVL60:
 1087 081a D4E90045 		ldrd	r4, [r4]
 1088 081e 4440     		eors	r4, r4, r0
 1089 0820 4D40     		eors	r5, r5, r1
 1090 0822 DDE90001 		ldrd	r0, [sp]
 1091 0826 8019     		adds	r0, r0, r6
 1092 0828 CDE90645 		strd	r4, [sp, #24]
 1093 082c 7941     		adcs	r1, r1, r7
 1094 082e 4AEA0804 		orr	r4, r10, r8
 1095 0832 4BEA0905 		orr	r5, fp, r9
 1096 0836 8046     		mov	r8, r0
 1097 0838 8946     		mov	r9, r1
 1098              	.LVL61:
 1099 083a DDE90601 		ldrd	r0, [sp, #24]
 1100 083e 0019     		adds	r0, r0, r4
 1101              		.loc 1 245 0 discriminator 1
 1102 0840 4446     		mov	r4, r8
 1103              		.loc 1 244 0 discriminator 1
 1104 0842 6941     		adcs	r1, r1, r5
 1105 0844 10EB060A 		adds	r10, r0, r6
 1106              		.loc 1 245 0 discriminator 1
 1107 0848 4FEA9445 		lsr	r5, r4, #18
 1108              		.loc 1 244 0 discriminator 1
 1109 084c 41EB070B 		adc	fp, r1, r7
 1110              	.LVL62:
 1111              		.loc 1 245 0 discriminator 1
 1112 0850 45EA8931 		orr	r1, r5, r9, lsl #14
 1113 0854 4491     		str	r1, [sp, #272]
 1114 0856 4946     		mov	r1, r9
 1115 0858 8E0C     		lsrs	r6, r1, #18
 1116              	.LVL63:
 1117 085a A40B     		lsrs	r4, r4, #14
 1118 085c 44EA8941 		orr	r1, r4, r9, lsl #18
 1119 0860 46EA8837 		orr	r7, r6, r8, lsl #14
 1120 0864 CDE900AB 		strd	r10, [sp]
 1121 0868 4691     		str	r1, [sp, #280]
 1122 086a 4597     		str	r7, [sp, #276]
 1123 086c DDE90A67 		ldrd	r6, [sp, #40]
 1124 0870 4946     		mov	r1, r9
 1125 0872 8D0B     		lsrs	r5, r1, #14
 1126 0874 CDE90689 		strd	r8, [sp, #24]
 1127 0878 45EA8845 		orr	r5, r5, r8, lsl #18
 1128 087c CDE91067 		strd	r6, [sp, #64]
 1129 0880 B046     		mov	r8, r6
 1130              	.LVL64:
 1131 0882 B946     		mov	r9, r7
 1132 0884 DDE90267 		ldrd	r6, [sp, #8]
 1133 0888 CC05     		lsls	r4, r1, #23
 1134 088a 88EA0608 		eor	r8, r8, r6
 1135 088e 5946     		mov	r1, fp
 1136 0890 89EA0709 		eor	r9, r9, r7
ARM GAS  C:\Users\jo\AppData\Local\Temp\ccyP7UZh.s 			page 21


 1137 0894 8807     		lsls	r0, r1, #30
 1138 0896 CB46     		mov	fp, r9
 1139 0898 5146     		mov	r1, r10
 1140 089a C246     		mov	r10, r8
 1141              	.LVL65:
 1142 089c DDE90089 		ldrd	r8, [sp]
 1143 08a0 DDE90667 		ldrd	r6, [sp, #24]
 1144 08a4 090F     		lsrs	r1, r1, #28
 1145 08a6 40EA9807 		orr	r7, r0, r8, lsr #2
 1146 08aa 41EA0911 		orr	r1, r1, r9, lsl #4
 1147 08ae 4795     		str	r5, [sp, #284]
 1148 08b0 4B97     		str	r7, [sp, #300]
 1149 08b2 44EA5625 		orr	r5, r4, r6, lsr #9
 1150 08b6 4F46     		mov	r7, r9
 1151 08b8 4446     		mov	r4, r8
 1152 08ba 4C91     		str	r1, [sp, #304]
 1153 08bc D3E90889 		ldrd	r8, [r3, #32]
 1154 08c0 D2E90801 		ldrd	r0, [r2, #32]
 1155 08c4 10EB0800 		adds	r0, r0, r8
 1156 08c8 41EB0901 		adc	r1, r1, r9
 1157 08cc CDE90A01 		strd	r0, [sp, #40]
 1158 08d0 4995     		str	r5, [sp, #292]
 1159 08d2 380F     		lsrs	r0, r7, #28
 1160 08d4 F505     		lsls	r5, r6, #23
 1161 08d6 7906     		lsls	r1, r7, #25
 1162 08d8 DDE90667 		ldrd	r6, [sp, #24]
 1163 08dc 0AEA0608 		and	r8, r10, r6
 1164 08e0 0BEA0709 		and	r9, fp, r7
 1165 08e4 45EA5725 		orr	r5, r5, r7, lsr #9
 1166 08e8 DDE90067 		ldrd	r6, [sp]
 1167 08ec A407     		lsls	r4, r4, #30
 1168 08ee 4895     		str	r5, [sp, #288]
 1169 08f0 44EA9705 		orr	r5, r4, r7, lsr #2
 1170 08f4 41EAD611 		orr	r1, r1, r6, lsr #7
 1171 08f8 4A95     		str	r5, [sp, #296]
 1172 08fa 40EA0615 		orr	r5, r0, r6, lsl #4
 1173 08fe 4D95     		str	r5, [sp, #308]
 1174 0900 4F91     		str	r1, [sp, #316]
 1175 0902 DDE90A45 		ldrd	r4, [sp, #40]
 1176 0906 DDE90401 		ldrd	r0, [sp, #16]
 1177 090a 0019     		adds	r0, r0, r4
 1178 090c 6941     		adcs	r1, r1, r5
 1179 090e CDE91201 		strd	r0, [sp, #72]
 1180 0912 DDE91001 		ldrd	r0, [sp, #64]
 1181 0916 CDE90A01 		strd	r0, [sp, #40]
 1182 091a 80EA0800 		eor	r0, r0, r8
 1183 091e 81EA0901 		eor	r1, r1, r9
 1184 0922 CDE90401 		strd	r0, [sp, #16]
 1185              	.LVL66:
 1186 0926 44A9     		add	r1, sp, #272
 1187 0928 D1E90045 		ldrd	r4, [r1]
 1188 092c 46A9     		add	r1, sp, #280
 1189 092e D1E90001 		ldrd	r0, [r1]
 1190 0932 DDE90EAB 		ldrd	r10, [sp, #56]
 1191 0936 4FEA466E 		lsl	lr, r6, #25
 1192 093a 4D40     		eors	r5, r5, r1
 1193 093c 2946     		mov	r1, r5
ARM GAS  C:\Users\jo\AppData\Local\Temp\ccyP7UZh.s 			page 22


 1194 093e 4440     		eors	r4, r4, r0
 1195 0940 4EEAD715 		orr	r5, lr, r7, lsr #7
 1196 0944 2046     		mov	r0, r4
 1197 0946 46EA0A08 		orr	r8, r6, r10
 1198 094a 47EA0B09 		orr	r9, r7, fp
 1199 094e 4E95     		str	r5, [sp, #312]
 1200 0950 DDE90467 		ldrd	r6, [sp, #16]
 1201 0954 DDE91245 		ldrd	r4, [sp, #72]
 1202 0958 3619     		adds	r6, r6, r4
 1203 095a 6F41     		adcs	r7, r7, r5
 1204 095c 3446     		mov	r4, r6
 1205 095e 3D46     		mov	r5, r7
 1206 0960 CDE90445 		strd	r4, [sp, #16]
 1207 0964 48AC     		add	r4, sp, #288
 1208 0966 D4E90067 		ldrd	r6, [r4]
 1209 096a 4F40     		eors	r7, r7, r1
 1210 096c 4AA9     		add	r1, sp, #296
 1211 096e D1E90045 		ldrd	r4, [r1]
 1212 0972 4CA9     		add	r1, sp, #304
 1213 0974 4640     		eors	r6, r6, r0
 1214 0976 D1E90001 		ldrd	r0, [r1]
 1215 097a 4440     		eors	r4, r4, r0
 1216 097c 4D40     		eors	r5, r5, r1
 1217 097e 2046     		mov	r0, r4
 1218 0980 2946     		mov	r1, r5
 1219 0982 5446     		mov	r4, r10
 1220 0984 5D46     		mov	r5, fp
 1221 0986 DDE900AB 		ldrd	r10, [sp]
 1222 098a 0AEA040A 		and	r10, r10, r4
 1223 098e 0BEA050B 		and	fp, fp, r5
 1224 0992 DDE90845 		ldrd	r4, [sp, #32]
 1225 0996 08EA0408 		and	r8, r8, r4
 1226 099a 09EA0509 		and	r9, r9, r5
 1227 099e 4446     		mov	r4, r8
 1228 09a0 4D46     		mov	r5, r9
 1229 09a2 DDE90489 		ldrd	r8, [sp, #16]
 1230 09a6 18EB0608 		adds	r8, r8, r6
 1231 09aa 49EB0709 		adc	r9, r9, r7
 1232 09ae 0DF59C7E 		add	lr, sp, #312
 1233 09b2 4646     		mov	r6, r8
 1234 09b4 4F46     		mov	r7, r9
 1235              	.LVL67:
 1236 09b6 DEE90089 		ldrd	r8, [lr]
 1237 09ba 88EA0008 		eor	r8, r8, r0
 1238 09be 89EA0109 		eor	r9, r9, r1
 1239 09c2 5046     		mov	r0, r10
 1240 09c4 5946     		mov	r1, fp
 1241 09c6 2043     		orrs	r0, r0, r4
 1242 09c8 2943     		orrs	r1, r1, r5
 1243 09ca 0446     		mov	r4, r0
 1244 09cc 0D46     		mov	r5, r1
 1245 09ce DDE90C01 		ldrd	r0, [sp, #48]
 1246 09d2 8019     		adds	r0, r0, r6
 1247 09d4 8246     		mov	r10, r0
 1248 09d6 7941     		adcs	r1, r1, r7
 1249 09d8 18EB0400 		adds	r0, r8, r4
 1250 09dc 8B46     		mov	fp, r1
ARM GAS  C:\Users\jo\AppData\Local\Temp\ccyP7UZh.s 			page 23


 1251              	.LVL68:
 1252 09de 49EB0501 		adc	r1, r9, r5
 1253 09e2 10EB0608 		adds	r8, r0, r6
 1254 09e6 41EB0709 		adc	r9, r1, r7
 1255              	.LVL69:
 1256              		.loc 1 246 0 discriminator 1
 1257 09ea 5046     		mov	r0, r10
 1258 09ec 5146     		mov	r1, r10
 1259 09ee 850B     		lsrs	r5, r0, #14
 1260 09f0 4846     		mov	r0, r9
 1261 09f2 8407     		lsls	r4, r0, #30
 1262 09f4 890C     		lsrs	r1, r1, #18
 1263 09f6 4046     		mov	r0, r8
 1264 09f8 5E46     		mov	r6, fp
 1265              	.LVL70:
 1266 09fa 41EA8B31 		orr	r1, r1, fp, lsl #14
 1267 09fe 000F     		lsrs	r0, r0, #28
 1268 0a00 40EA0917 		orr	r7, r0, r9, lsl #4
 1269 0a04 5091     		str	r1, [sp, #320]
 1270 0a06 B10C     		lsrs	r1, r6, #18
 1271 0a08 B60B     		lsrs	r6, r6, #14
 1272 0a0a 5897     		str	r7, [sp, #352]
 1273 0a0c 46EA8A47 		orr	r7, r6, r10, lsl #18
 1274 0a10 45EA8B45 		orr	r5, r5, fp, lsl #18
 1275 0a14 41EA8A31 		orr	r1, r1, r10, lsl #14
 1276 0a18 CDE904AB 		strd	r10, [sp, #16]
 1277 0a1c 5846     		mov	r0, fp
 1278 0a1e 5397     		str	r7, [sp, #332]
 1279 0a20 DDE906AB 		ldrd	r10, [sp, #24]
 1280              	.LVL71:
 1281 0a24 DDE90267 		ldrd	r6, [sp, #8]
 1282 0a28 8AEA060A 		eor	r10, r10, r6
 1283 0a2c 8BEA070B 		eor	fp, fp, r7
 1284 0a30 CDE91067 		strd	r6, [sp, #64]
 1285 0a34 5295     		str	r5, [sp, #328]
 1286 0a36 5646     		mov	r6, r10
 1287 0a38 44EA9805 		orr	r5, r4, r8, lsr #2
 1288 0a3c 5F46     		mov	r7, fp
 1289 0a3e 4446     		mov	r4, r8
 1290 0a40 CDE90C67 		strd	r6, [sp, #48]
 1291 0a44 5795     		str	r5, [sp, #348]
 1292 0a46 DDE90467 		ldrd	r6, [sp, #16]
 1293 0a4a A507     		lsls	r5, r4, #30
 1294 0a4c 5191     		str	r1, [sp, #324]
 1295 0a4e 4C46     		mov	r4, r9
 1296 0a50 4946     		mov	r1, r9
 1297 0a52 45EA9905 		orr	r5, r5, r9, lsr #2
 1298 0a56 240F     		lsrs	r4, r4, #28
 1299 0a58 4906     		lsls	r1, r1, #25
 1300 0a5a 41EAD811 		orr	r1, r1, r8, lsr #7
 1301 0a5e C005     		lsls	r0, r0, #23
 1302 0a60 5695     		str	r5, [sp, #344]
 1303 0a62 44EA0815 		orr	r5, r4, r8, lsl #4
 1304 0a66 BB46     		mov	fp, r7
 1305 0a68 3446     		mov	r4, r6
 1306 0a6a 4FEAC65C 		lsl	ip, r6, #23
 1307 0a6e 5995     		str	r5, [sp, #356]
ARM GAS  C:\Users\jo\AppData\Local\Temp\ccyP7UZh.s 			page 24


 1308 0a70 5B91     		str	r1, [sp, #364]
 1309 0a72 40EA5625 		orr	r5, r0, r6, lsr #9
 1310 0a76 D3E90A67 		ldrd	r6, [r3, #40]
 1311 0a7a D2E90A01 		ldrd	r0, [r2, #40]
 1312 0a7e 8019     		adds	r0, r0, r6
 1313 0a80 7941     		adcs	r1, r1, r7
 1314 0a82 DDE90C67 		ldrd	r6, [sp, #48]
 1315 0a86 5595     		str	r5, [sp, #340]
 1316 0a88 2640     		ands	r6, r6, r4
 1317 0a8a DDE90045 		ldrd	r4, [sp]
 1318 0a8e CDE90C89 		strd	r8, [sp, #48]
 1319 0a92 4FEA486E 		lsl	lr, r8, #25
 1320 0a96 44EA0804 		orr	r4, r4, r8
 1321 0a9a 45EA0905 		orr	r5, r5, r9
 1322 0a9e DDE90C89 		ldrd	r8, [sp, #48]
 1323 0aa2 CDE90201 		strd	r0, [sp, #8]
 1324              	.LVL72:
 1325 0aa6 5946     		mov	r1, fp
 1326 0aa8 0F40     		ands	r7, r7, r1
 1327 0aaa 4CEA5B21 		orr	r1, ip, fp, lsr #9
 1328 0aae 5491     		str	r1, [sp, #336]
 1329 0ab0 4EEAD911 		orr	r1, lr, r9, lsr #7
 1330 0ab4 5A91     		str	r1, [sp, #360]
 1331 0ab6 DDE90A01 		ldrd	r0, [sp, #40]
 1332 0aba DDE902AB 		ldrd	r10, [sp, #8]
 1333 0abe 1AEB000A 		adds	r10, r10, r0
 1334 0ac2 4BEB010B 		adc	fp, fp, r1
 1335 0ac6 5046     		mov	r0, r10
 1336 0ac8 5946     		mov	r1, fp
 1337 0aca CDE90A01 		strd	r0, [sp, #40]
 1338 0ace DDE91001 		ldrd	r0, [sp, #64]
 1339 0ad2 CDE90201 		strd	r0, [sp, #8]
 1340 0ad6 7940     		eors	r1, r1, r7
 1341 0ad8 0F46     		mov	r7, r1
 1342 0ada 7040     		eors	r0, r0, r6
 1343 0adc 0DF5A47E 		add	lr, sp, #328
 1344 0ae0 50A9     		add	r1, sp, #320
 1345 0ae2 DEE900AB 		ldrd	r10, [lr]
 1346 0ae6 0646     		mov	r6, r0
 1347 0ae8 D1E90001 		ldrd	r0, [r1]
 1348 0aec 80EA0A00 		eor	r0, r0, r10
 1349 0af0 81EA0B01 		eor	r1, r1, fp
 1350 0af4 CDE90C01 		strd	r0, [sp, #48]
 1351 0af8 56A9     		add	r1, sp, #344
 1352 0afa D1E900AB 		ldrd	r10, [r1]
 1353 0afe 58A9     		add	r1, sp, #352
 1354 0b00 D1E90001 		ldrd	r0, [r1]
 1355 0b04 8AEA000A 		eor	r10, r10, r0
 1356 0b08 8BEA010B 		eor	fp, fp, r1
 1357 0b0c 5046     		mov	r0, r10
 1358 0b0e 5946     		mov	r1, fp
 1359 0b10 DDE90EAB 		ldrd	r10, [sp, #56]
 1360 0b14 0AEA040A 		and	r10, r10, r4
 1361 0b18 0BEA050B 		and	fp, fp, r5
 1362 0b1c DDE90A45 		ldrd	r4, [sp, #40]
 1363 0b20 A419     		adds	r4, r4, r6
 1364 0b22 7D41     		adcs	r5, r5, r7
ARM GAS  C:\Users\jo\AppData\Local\Temp\ccyP7UZh.s 			page 25


 1365 0b24 DDE90067 		ldrd	r6, [sp]
 1366 0b28 CDE910AB 		strd	r10, [sp, #64]
 1367              	.LVL73:
 1368 0b2c A246     		mov	r10, r4
 1369 0b2e 54AC     		add	r4, sp, #336
 1370 0b30 AB46     		mov	fp, r5
 1371 0b32 06EA0806 		and	r6, r6, r8
 1372 0b36 07EA0907 		and	r7, r7, r9
 1373 0b3a CDE90A89 		strd	r8, [sp, #40]
 1374 0b3e D4E90089 		ldrd	r8, [r4]
 1375              	.LVL74:
 1376 0b42 DDE90C45 		ldrd	r4, [sp, #48]
 1377 0b46 88EA0408 		eor	r8, r8, r4
 1378 0b4a 5AAC     		add	r4, sp, #360
 1379 0b4c 89EA0509 		eor	r9, r9, r5
 1380 0b50 D4E90045 		ldrd	r4, [r4]
 1381 0b54 4440     		eors	r4, r4, r0
 1382 0b56 4D40     		eors	r5, r5, r1
 1383 0b58 CDE90C45 		strd	r4, [sp, #48]
 1384 0b5c DDE91045 		ldrd	r4, [sp, #64]
 1385 0b60 1AEB0800 		adds	r0, r10, r8
 1386 0b64 4BEB0901 		adc	r1, fp, r9
 1387              	.LVL75:
 1388 0b68 DDE90C89 		ldrd	r8, [sp, #48]
 1389 0b6c 3443     		orrs	r4, r4, r6
 1390 0b6e 3D43     		orrs	r5, r5, r7
 1391 0b70 DDE90867 		ldrd	r6, [sp, #32]
 1392 0b74 18EB0408 		adds	r8, r8, r4
 1393 0b78 49EB0509 		adc	r9, r9, r5
 1394 0b7c 4446     		mov	r4, r8
 1395 0b7e 3618     		adds	r6, r6, r0
 1396 0b80 B046     		mov	r8, r6
 1397 0b82 4F41     		adcs	r7, r7, r1
 1398 0b84 4D46     		mov	r5, r9
 1399 0b86 2618     		adds	r6, r4, r0
 1400 0b88 B946     		mov	r9, r7
 1401              	.LVL76:
 1402              		.loc 1 247 0 discriminator 1
 1403 0b8a 4046     		mov	r0, r8
 1404              	.LVL77:
 1405              		.loc 1 246 0 discriminator 1
 1406 0b8c 45EB0107 		adc	r7, r5, r1
 1407              	.LVL78:
 1408              		.loc 1 247 0 discriminator 1
 1409 0b90 BB46     		mov	fp, r7
 1410 0b92 4146     		mov	r1, r8
 1411 0b94 850B     		lsrs	r5, r0, #14
 1412 0b96 300F     		lsrs	r0, r6, #28
 1413 0b98 CDE90889 		strd	r8, [sp, #32]
 1414 0b9c BC07     		lsls	r4, r7, #30
 1415 0b9e 890C     		lsrs	r1, r1, #18
 1416 0ba0 40EA0B17 		orr	r7, r0, fp, lsl #4
 1417 0ba4 B246     		mov	r10, r6
 1418 0ba6 41EA8931 		orr	r1, r1, r9, lsl #14
 1419 0baa 4E46     		mov	r6, r9
 1420              	.LVL79:
 1421 0bac 6497     		str	r7, [sp, #400]
ARM GAS  C:\Users\jo\AppData\Local\Temp\ccyP7UZh.s 			page 26


 1422 0bae 089F     		ldr	r7, [sp, #32]
 1423 0bb0 5C91     		str	r1, [sp, #368]
 1424 0bb2 B10C     		lsrs	r1, r6, #18
 1425 0bb4 B60B     		lsrs	r6, r6, #14
 1426 0bb6 45EA8945 		orr	r5, r5, r9, lsl #18
 1427 0bba 46EA8747 		orr	r7, r6, r7, lsl #18
 1428 0bbe 44EA9A04 		orr	r4, r4, r10, lsr #2
 1429 0bc2 41EA8831 		orr	r1, r1, r8, lsl #14
 1430 0bc6 5E95     		str	r5, [sp, #376]
 1431 0bc8 4846     		mov	r0, r9
 1432 0bca 5546     		mov	r5, r10
 1433 0bcc DDE90689 		ldrd	r8, [sp, #24]
 1434              	.LVL80:
 1435 0bd0 5F97     		str	r7, [sp, #380]
 1436 0bd2 DDE90467 		ldrd	r6, [sp, #16]
 1437 0bd6 6394     		str	r4, [sp, #396]
 1438 0bd8 AD07     		lsls	r5, r5, #30
 1439 0bda 5C46     		mov	r4, fp
 1440 0bdc 45EA9B05 		orr	r5, r5, fp, lsr #2
 1441 0be0 240F     		lsrs	r4, r4, #28
 1442 0be2 6295     		str	r5, [sp, #392]
 1443 0be4 88EA0608 		eor	r8, r8, r6
 1444 0be8 44EA0A15 		orr	r5, r4, r10, lsl #4
 1445 0bec 89EA0709 		eor	r9, r9, r7
 1446 0bf0 4646     		mov	r6, r8
 1447 0bf2 4F46     		mov	r7, r9
 1448 0bf4 5D91     		str	r1, [sp, #372]
 1449 0bf6 6595     		str	r5, [sp, #404]
 1450 0bf8 DDE90889 		ldrd	r8, [sp, #32]
 1451 0bfc 5946     		mov	r1, fp
 1452 0bfe C005     		lsls	r0, r0, #23
 1453 0c00 4906     		lsls	r1, r1, #25
 1454 0c02 40EA5825 		orr	r5, r0, r8, lsr #9
 1455 0c06 41EADA11 		orr	r1, r1, r10, lsr #7
 1456 0c0a 6195     		str	r5, [sp, #388]
 1457 0c0c 6791     		str	r1, [sp, #412]
 1458 0c0e D3E90C45 		ldrd	r4, [r3, #48]
 1459 0c12 D2E90C01 		ldrd	r0, [r2, #48]
 1460 0c16 0019     		adds	r0, r0, r4
 1461 0c18 CDE908AB 		strd	r10, [sp, #32]
 1462              	.LVL81:
 1463 0c1c 6941     		adcs	r1, r1, r5
 1464 0c1e 4FEA4A6E 		lsl	lr, r10, #25
 1465 0c22 4446     		mov	r4, r8
 1466 0c24 DDE90AAB 		ldrd	r10, [sp, #40]
 1467 0c28 4D46     		mov	r5, r9
 1468 0c2a 3440     		ands	r4, r4, r6
 1469 0c2c 3D40     		ands	r5, r5, r7
 1470 0c2e DDE90867 		ldrd	r6, [sp, #32]
 1471 0c32 CDE90C45 		strd	r4, [sp, #48]
 1472 0c36 5446     		mov	r4, r10
 1473 0c38 4FEAC85C 		lsl	ip, r8, #23
 1474 0c3c 3443     		orrs	r4, r4, r6
 1475 0c3e 5D46     		mov	r5, fp
 1476 0c40 099E     		ldr	r6, [sp, #36]
 1477 0c42 3D43     		orrs	r5, r5, r7
 1478 0c44 4CEA5927 		orr	r7, ip, r9, lsr #9
ARM GAS  C:\Users\jo\AppData\Local\Temp\ccyP7UZh.s 			page 27


 1479 0c48 6097     		str	r7, [sp, #384]
 1480 0c4a 4EEAD617 		orr	r7, lr, r6, lsr #7
 1481 0c4e 6697     		str	r7, [sp, #408]
 1482 0c50 DDE90267 		ldrd	r6, [sp, #8]
 1483 0c54 3618     		adds	r6, r6, r0
 1484 0c56 4F41     		adcs	r7, r7, r1
 1485 0c58 CDE90267 		strd	r6, [sp, #8]
 1486              	.LVL82:
 1487 0c5c DDE90601 		ldrd	r0, [sp, #24]
 1488 0c60 DDE90C67 		ldrd	r6, [sp, #48]
 1489 0c64 0DF5BC7E 		add	lr, sp, #376
 1490 0c68 4F40     		eors	r7, r7, r1
 1491 0c6a 5CA9     		add	r1, sp, #368
 1492 0c6c 4640     		eors	r6, r6, r0
 1493 0c6e CDE90A89 		strd	r8, [sp, #40]
 1494              	.LVL83:
 1495 0c72 D1E90001 		ldrd	r0, [r1]
 1496 0c76 DEE90089 		ldrd	r8, [lr]
 1497              	.LVL84:
 1498 0c7a 80EA0800 		eor	r0, r0, r8
 1499 0c7e 81EA0901 		eor	r1, r1, r9
 1500 0c82 CDE91001 		strd	r0, [sp, #64]
 1501 0c86 0DF5C87E 		add	lr, sp, #400
 1502 0c8a 62A9     		add	r1, sp, #392
 1503 0c8c DEE90089 		ldrd	r8, [lr]
 1504 0c90 D1E90001 		ldrd	r0, [r1]
 1505 0c94 80EA0800 		eor	r0, r0, r8
 1506 0c98 81EA0901 		eor	r1, r1, r9
 1507 0c9c 8046     		mov	r8, r0
 1508 0c9e 8946     		mov	r9, r1
 1509 0ca0 DDE90001 		ldrd	r0, [sp]
 1510 0ca4 2040     		ands	r0, r0, r4
 1511 0ca6 2940     		ands	r1, r1, r5
 1512 0ca8 DDE90245 		ldrd	r4, [sp, #8]
 1513 0cac A419     		adds	r4, r4, r6
 1514 0cae 7D41     		adcs	r5, r5, r7
 1515 0cb0 CDE91201 		strd	r0, [sp, #72]
 1516 0cb4 2046     		mov	r0, r4
 1517 0cb6 2946     		mov	r1, r5
 1518 0cb8 DDE90845 		ldrd	r4, [sp, #32]
 1519 0cbc 5646     		mov	r6, r10
 1520 0cbe 2640     		ands	r6, r6, r4
 1521 0cc0 5F46     		mov	r7, fp
 1522 0cc2 60AC     		add	r4, sp, #384
 1523 0cc4 2F40     		ands	r7, r7, r5
 1524 0cc6 CDE90CAB 		strd	r10, [sp, #48]
 1525 0cca D4E90045 		ldrd	r4, [r4]
 1526 0cce DDE910AB 		ldrd	r10, [sp, #64]
 1527              	.LVL85:
 1528 0cd2 84EA0A04 		eor	r4, r4, r10
 1529 0cd6 A246     		mov	r10, r4
 1530 0cd8 85EA0B05 		eor	r5, r5, fp
 1531 0cdc 66AC     		add	r4, sp, #408
 1532 0cde AB46     		mov	fp, r5
 1533 0ce0 D4E90045 		ldrd	r4, [r4]
 1534 0ce4 84EA0804 		eor	r4, r4, r8
 1535 0ce8 85EA0905 		eor	r5, r5, r9
ARM GAS  C:\Users\jo\AppData\Local\Temp\ccyP7UZh.s 			page 28


 1536 0cec A046     		mov	r8, r4
 1537 0cee A946     		mov	r9, r5
 1538 0cf0 DDE91245 		ldrd	r4, [sp, #72]
 1539 0cf4 3443     		orrs	r4, r4, r6
 1540 0cf6 1AEB0006 		adds	r6, r10, r0
 1541 0cfa 45EA0705 		orr	r5, r5, r7
 1542 0cfe 4BEB0107 		adc	r7, fp, r1
 1543 0d02 DDE90EAB 		ldrd	r10, [sp, #56]
 1544 0d06 3046     		mov	r0, r6
 1545 0d08 18EB0406 		adds	r6, r8, r4
 1546 0d0c 3946     		mov	r1, r7
 1547              	.LVL86:
 1548 0d0e 49EB0507 		adc	r7, r9, r5
 1549 0d12 1AEB000A 		adds	r10, r10, r0
 1550 0d16 4BEB010B 		adc	fp, fp, r1
 1551 0d1a 3618     		adds	r6, r6, r0
 1552 0d1c 4F41     		adcs	r7, r7, r1
 1553              		.loc 1 248 0 discriminator 1
 1554 0d1e 5046     		mov	r0, r10
 1555              	.LVL87:
 1556 0d20 5146     		mov	r1, r10
 1557 0d22 850B     		lsrs	r5, r0, #14
 1558 0d24 890C     		lsrs	r1, r1, #18
 1559              		.loc 1 247 0 discriminator 1
 1560 0d26 B046     		mov	r8, r6
 1561              		.loc 1 248 0 discriminator 1
 1562 0d28 BC07     		lsls	r4, r7, #30
 1563 0d2a 41EA8B31 		orr	r1, r1, fp, lsl #14
 1564 0d2e 45EA8B45 		orr	r5, r5, fp, lsl #18
 1565              		.loc 1 247 0 discriminator 1
 1566 0d32 B946     		mov	r9, r7
 1567              		.loc 1 248 0 discriminator 1
 1568 0d34 300F     		lsrs	r0, r6, #28
 1569              		.loc 1 247 0 discriminator 1
 1570 0d36 CDE90EAB 		strd	r10, [sp, #56]
 1571              	.LVL88:
 1572              		.loc 1 248 0 discriminator 1
 1573 0d3a 5E46     		mov	r6, fp
 1574 0d3c 6891     		str	r1, [sp, #416]
 1575 0d3e 6A95     		str	r5, [sp, #424]
 1576 0d40 44EA9805 		orr	r5, r4, r8, lsr #2
 1577 0d44 4446     		mov	r4, r8
 1578 0d46 40EA0917 		orr	r7, r0, r9, lsl #4
 1579 0d4a 6F95     		str	r5, [sp, #444]
 1580 0d4c B10C     		lsrs	r1, r6, #18
 1581 0d4e A507     		lsls	r5, r4, #30
 1582 0d50 B60B     		lsrs	r6, r6, #14
 1583 0d52 CDE90289 		strd	r8, [sp, #8]
 1584 0d56 7097     		str	r7, [sp, #448]
 1585 0d58 41EA8A31 		orr	r1, r1, r10, lsl #14
 1586 0d5c 46EA8A47 		orr	r7, r6, r10, lsl #18
 1587 0d60 45EA9905 		orr	r5, r5, r9, lsr #2
 1588 0d64 6991     		str	r1, [sp, #420]
 1589 0d66 6B97     		str	r7, [sp, #428]
 1590 0d68 6E95     		str	r5, [sp, #440]
 1591 0d6a DDE90467 		ldrd	r6, [sp, #16]
 1592 0d6e 4C46     		mov	r4, r9
ARM GAS  C:\Users\jo\AppData\Local\Temp\ccyP7UZh.s 			page 29


 1593 0d70 4946     		mov	r1, r9
 1594 0d72 029D     		ldr	r5, [sp, #8]
 1595 0d74 DDE90A89 		ldrd	r8, [sp, #40]
 1596              	.LVL89:
 1597 0d78 240F     		lsrs	r4, r4, #28
 1598 0d7a 5846     		mov	r0, fp
 1599 0d7c 44EA0515 		orr	r5, r4, r5, lsl #4
 1600 0d80 C005     		lsls	r0, r0, #23
 1601 0d82 86EA0806 		eor	r6, r6, r8
 1602 0d86 87EA0907 		eor	r7, r7, r9
 1603 0d8a 7195     		str	r5, [sp, #452]
 1604 0d8c D946     		mov	r9, fp
 1605 0d8e 40EA5A25 		orr	r5, r0, r10, lsr #9
 1606 0d92 D046     		mov	r8, r10
 1607 0d94 4FEACA5C 		lsl	ip, r10, #23
 1608 0d98 DDE902AB 		ldrd	r10, [sp, #8]
 1609              	.LVL90:
 1610 0d9c 4906     		lsls	r1, r1, #25
 1611 0d9e 41EADA11 		orr	r1, r1, r10, lsr #7
 1612 0da2 6D95     		str	r5, [sp, #436]
 1613 0da4 7391     		str	r1, [sp, #460]
 1614 0da6 D3E90E45 		ldrd	r4, [r3, #56]
 1615 0daa D2E90E01 		ldrd	r0, [r2, #56]
 1616 0dae 0019     		adds	r0, r0, r4
 1617 0db0 6941     		adcs	r1, r1, r5
 1618 0db2 4446     		mov	r4, r8
 1619 0db4 4D46     		mov	r5, r9
 1620 0db6 3440     		ands	r4, r4, r6
 1621 0db8 3D40     		ands	r5, r5, r7
 1622 0dba 2646     		mov	r6, r4
 1623 0dbc 2F46     		mov	r7, r5
 1624 0dbe DDE90845 		ldrd	r4, [sp, #32]
 1625 0dc2 CDE91001 		strd	r0, [sp, #64]
 1626 0dc6 5946     		mov	r1, fp
 1627 0dc8 4FEA4A6E 		lsl	lr, r10, #25
 1628 0dcc 0D43     		orrs	r5, r5, r1
 1629 0dce 4CEA5921 		orr	r1, ip, r9, lsr #9
 1630 0dd2 5046     		mov	r0, r10
 1631 0dd4 6C91     		str	r1, [sp, #432]
 1632 0dd6 4EEADB11 		orr	r1, lr, fp, lsr #7
 1633 0dda DDE91089 		ldrd	r8, [sp, #64]
 1634 0dde 0443     		orrs	r4, r4, r0
 1635 0de0 7291     		str	r1, [sp, #456]
 1636 0de2 DDE90601 		ldrd	r0, [sp, #24]
 1637 0de6 18EB0008 		adds	r8, r8, r0
 1638 0dea 49EB0109 		adc	r9, r9, r1
 1639 0dee DDE90401 		ldrd	r0, [sp, #16]
 1640 0df2 7940     		eors	r1, r1, r7
 1641 0df4 0F46     		mov	r7, r1
 1642 0df6 68A9     		add	r1, sp, #416
 1643 0df8 CDE90689 		strd	r8, [sp, #24]
 1644              	.LVL91:
 1645 0dfc 7040     		eors	r0, r0, r6
 1646 0dfe D1E90089 		ldrd	r8, [r1]
 1647 0e02 6AA9     		add	r1, sp, #424
 1648 0e04 0646     		mov	r6, r0
 1649 0e06 D1E90001 		ldrd	r0, [r1]
ARM GAS  C:\Users\jo\AppData\Local\Temp\ccyP7UZh.s 			page 30


 1650 0e0a 0DF5E07E 		add	lr, sp, #448
 1651 0e0e 88EA0008 		eor	r8, r8, r0
 1652 0e12 89EA0109 		eor	r9, r9, r1
 1653 0e16 6EA9     		add	r1, sp, #440
 1654 0e18 D1E90001 		ldrd	r0, [r1]
 1655 0e1c CDE91089 		strd	r8, [sp, #64]
 1656 0e20 DEE90089 		ldrd	r8, [lr]
 1657 0e24 0DF5E87E 		add	lr, sp, #464
 1658 0e28 80EA0800 		eor	r0, r0, r8
 1659 0e2c 81EA0901 		eor	r1, r1, r9
 1660 0e30 CEE90001 		strd	r0, [lr]
 1661 0e34 DDE90C01 		ldrd	r0, [sp, #48]
 1662 0e38 2040     		ands	r0, r0, r4
 1663 0e3a 2940     		ands	r1, r1, r5
 1664 0e3c DDE90645 		ldrd	r4, [sp, #24]
 1665 0e40 A419     		adds	r4, r4, r6
 1666 0e42 7D41     		adcs	r5, r5, r7
 1667 0e44 CDE91201 		strd	r0, [sp, #72]
 1668 0e48 DDE90867 		ldrd	r6, [sp, #32]
 1669 0e4c 2046     		mov	r0, r4
 1670 0e4e 5446     		mov	r4, r10
 1671 0e50 2946     		mov	r1, r5
 1672 0e52 2640     		ands	r6, r6, r4
 1673 0e54 5D46     		mov	r5, fp
 1674 0e56 6CAC     		add	r4, sp, #432
 1675 0e58 2F40     		ands	r7, r7, r5
 1676 0e5a DDE91089 		ldrd	r8, [sp, #64]
 1677 0e5e D4E90045 		ldrd	r4, [r4]
 1678 0e62 88EA0408 		eor	r8, r8, r4
 1679 0e66 72AC     		add	r4, sp, #456
 1680 0e68 DEE900AB 		ldrd	r10, [lr]
 1681 0e6c 89EA0509 		eor	r9, r9, r5
 1682 0e70 D4E90045 		ldrd	r4, [r4]
 1683 0e74 84EA0A04 		eor	r4, r4, r10
 1684 0e78 85EA0B05 		eor	r5, r5, fp
 1685 0e7c A246     		mov	r10, r4
 1686 0e7e AB46     		mov	fp, r5
 1687 0e80 DDE91245 		ldrd	r4, [sp, #72]
 1688 0e84 3443     		orrs	r4, r4, r6
 1689 0e86 18EB0006 		adds	r6, r8, r0
 1690 0e8a 45EA0705 		orr	r5, r5, r7
 1691 0e8e 49EB0107 		adc	r7, r9, r1
 1692              	.LVL92:
 1693 0e92 1AEB0400 		adds	r0, r10, r4
 1694 0e96 4BEB0501 		adc	r1, fp, r5
 1695 0e9a 0446     		mov	r4, r0
 1696 0e9c 0D46     		mov	r5, r1
 1697 0e9e DDE90001 		ldrd	r0, [sp]
 1698 0ea2 8019     		adds	r0, r0, r6
 1699 0ea4 7941     		adcs	r1, r1, r7
 1700 0ea6 CDE90601 		strd	r0, [sp, #24]
 1701              	.LVL93:
 1702 0eaa A019     		adds	r0, r4, r6
 1703              	.LVL94:
 1704 0eac 45EB0701 		adc	r1, r5, r7
 1705 0eb0 CDE90001 		strd	r0, [sp]
 1706              	.LVL95:
ARM GAS  C:\Users\jo\AppData\Local\Temp\ccyP7UZh.s 			page 31


 1707              		.loc 1 250 0 discriminator 1
 1708 0eb4 3649     		ldr	r1, .L26
 1709 0eb6 4033     		adds	r3, r3, #64
 1710 0eb8 8B42     		cmp	r3, r1
 1711 0eba 02F14002 		add	r2, r2, #64
 1712 0ebe 7FF4C9A9 		bne	.L18
 1713              		.loc 1 252 0
 1714 0ec2 76A9     		add	r1, sp, #472
 1715 0ec4 DDE90023 		ldrd	r2, [sp]
 1716 0ec8 D1E90001 		ldrd	r0, [r1]
 1717              	.LVL96:
 1718 0ecc 1218     		adds	r2, r2, r0
 1719              	.LVL97:
 1720 0ece 4B41     		adcs	r3, r3, r1
 1721 0ed0 CDE90023 		strd	r2, [sp]
 1722              	.LVL98:
 1723              		.loc 1 253 0
 1724 0ed4 80AB     		add	r3, sp, #512
 1725 0ed6 D3E90045 		ldrd	r4, [r3]
 1726 0eda DDE90201 		ldrd	r0, [sp, #8]
 1727              		.loc 1 254 0
 1728 0ede 82AB     		add	r3, sp, #520
 1729              		.loc 1 253 0
 1730 0ee0 0019     		adds	r0, r0, r4
 1731              		.loc 1 254 0
 1732 0ee2 D3E90067 		ldrd	r6, [r3]
 1733              	.LVL99:
 1734              		.loc 1 253 0
 1735 0ee6 6941     		adcs	r1, r1, r5
 1736              		.loc 1 254 0
 1737 0ee8 DDE90845 		ldrd	r4, [sp, #32]
 1738              		.loc 1 255 0
 1739 0eec 78AB     		add	r3, sp, #480
 1740              		.loc 1 254 0
 1741 0eee A419     		adds	r4, r4, r6
 1742              		.loc 1 255 0
 1743 0ef0 D3E90089 		ldrd	r8, [r3]
 1744              		.loc 1 254 0
 1745 0ef4 7D41     		adcs	r5, r5, r7
 1746              		.loc 1 255 0
 1747 0ef6 DDE90C67 		ldrd	r6, [sp, #48]
 1748              		.loc 1 256 0
 1749 0efa 84AB     		add	r3, sp, #528
 1750              		.loc 1 255 0
 1751 0efc 16EB0806 		adds	r6, r6, r8
 1752              		.loc 1 256 0
 1753 0f00 D3E90023 		ldrd	r2, [r3]
 1754              		.loc 1 255 0
 1755 0f04 47EB0907 		adc	r7, r7, r9
 1756              		.loc 1 256 0
 1757 0f08 DDE90689 		ldrd	r8, [sp, #24]
 1758 0f0c 18EB0208 		adds	r8, r8, r2
 1759 0f10 49EB0309 		adc	r9, r9, r3
 1760              		.loc 1 257 0
 1761 0f14 86AB     		add	r3, sp, #536
 1762 0f16 D3E90023 		ldrd	r2, [r3]
 1763              		.loc 1 254 0
ARM GAS  C:\Users\jo\AppData\Local\Temp\ccyP7UZh.s 			page 32


 1764 0f1a CDE90845 		strd	r4, [sp, #32]
 1765              	.LVL100:
 1766              		.loc 1 257 0
 1767 0f1e DDE90E45 		ldrd	r4, [sp, #56]
 1768 0f22 A418     		adds	r4, r4, r2
 1769 0f24 5D41     		adcs	r5, r5, r3
 1770              		.loc 1 258 0
 1771 0f26 7AAB     		add	r3, sp, #488
 1772 0f28 DDE90AAB 		ldrd	r10, [sp, #40]
 1773              		.loc 1 253 0
 1774 0f2c CDE90201 		strd	r0, [sp, #8]
 1775              	.LVL101:
 1776              		.loc 1 258 0
 1777 0f30 D3E90001 		ldrd	r0, [r3]
 1778              		.loc 1 259 0
 1779 0f34 0DF5F87E 		add	lr, sp, #496
 1780              		.loc 1 258 0
 1781 0f38 10EB0A00 		adds	r0, r0, r10
 1782 0f3c 41EB0B01 		adc	r1, r1, fp
 1783              		.loc 1 259 0
 1784 0f40 DDE90423 		ldrd	r2, [sp, #16]
 1785 0f44 DEE900AB 		ldrd	r10, [lr]
 1786 0f48 12EB0A02 		adds	r2, r2, r10
 1787 0f4c 43EB0B03 		adc	r3, r3, fp
 1788              		.loc 1 252 0
 1789 0f50 DDE900AB 		ldrd	r10, [sp]
 1790              		.loc 1 259 0
 1791 0f54 CDE90423 		strd	r2, [sp, #16]
 1792              	.LVL102:
 1793              		.loc 1 252 0
 1794 0f58 7F9A     		ldr	r2, [sp, #508]
 1795 0f5a C2E904AB 		strd	r10, [r2, #16]
 1796              		.loc 1 253 0
 1797 0f5e DDE902AB 		ldrd	r10, [sp, #8]
 1798              		.loc 1 258 0
 1799 0f62 C2E91001 		strd	r0, [r2, #64]
 1800              		.loc 1 253 0
 1801 0f66 C2E906AB 		strd	r10, [r2, #24]
 1802              		.loc 1 259 0
 1803 0f6a DDE90401 		ldrd	r0, [sp, #16]
 1804              		.loc 1 254 0
 1805 0f6e DDE908AB 		ldrd	r10, [sp, #32]
 1806              		.loc 1 255 0
 1807 0f72 C2E90A67 		strd	r6, [r2, #40]
 1808              		.loc 1 254 0
 1809 0f76 C2E908AB 		strd	r10, [r2, #32]
 1810              		.loc 1 256 0
 1811 0f7a C2E90C89 		strd	r8, [r2, #48]
 1812              		.loc 1 257 0
 1813 0f7e C2E90E45 		strd	r4, [r2, #56]
 1814              		.loc 1 259 0
 1815 0f82 C2E91201 		strd	r0, [r2, #72]
 1816              		.loc 1 260 0
 1817 0f86 0DF2A44D 		addw	sp, sp, #1188
 1818              		.cfi_def_cfa_offset 36
 1819              		@ sp needed
 1820 0f8a BDE8F08F 		pop	{r4, r5, r6, r7, r8, r9, r10, fp, pc}
ARM GAS  C:\Users\jo\AppData\Local\Temp\ccyP7UZh.s 			page 33


 1821              	.LVL103:
 1822              	.L27:
 1823 0f8e 00BF     		.align	2
 1824              	.L26:
 1825 0f90 80020000 		.word	.LANCHOR0+640
 1826              		.cfi_endproc
 1827              	.LFE4:
 1828              		.size	sha512_process, .-sha512_process
 1829 0f94 AFF30080 		.section	.text.sha512_update.part.0,"ax",%progbits
 1829      AFF30080 
 1829      AFF30080 
 1830              		.align	2
 1831              		.p2align 4,,15
 1832              		.thumb
 1833              		.thumb_func
 1834              		.type	sha512_update.part.0, %function
 1835              	sha512_update.part.0:
 1836              	.LFB15:
 1837              		.loc 1 265 0
 1838              		.cfi_startproc
 1839              		@ args = 0, pretend = 0, frame = 0
 1840              		@ frame_needed = 0, uses_anonymous_args = 0
 1841              	.LVL104:
 1842 0000 2DE9F843 		push	{r3, r4, r5, r6, r7, r8, r9, lr}
 1843              		.cfi_def_cfa_offset 32
 1844              		.cfi_offset 3, -32
 1845              		.cfi_offset 4, -28
 1846              		.cfi_offset 5, -24
 1847              		.cfi_offset 6, -20
 1848              		.cfi_offset 7, -16
 1849              		.cfi_offset 8, -12
 1850              		.cfi_offset 9, -8
 1851              		.cfi_offset 14, -4
 1852              		.loc 1 274 0
 1853 0004 D0E90089 		ldrd	r8, [r0]
 1854              		.loc 1 265 0
 1855 0008 1746     		mov	r7, r2
 1856              		.loc 1 277 0
 1857 000a 17EB0804 		adds	r4, r7, r8
 1858 000e 4FF00003 		mov	r3, #0
 1859 0012 43EB0905 		adc	r5, r3, r9
 1860              		.loc 1 279 0
 1861 0016 9D42     		cmp	r5, r3
 1862 0018 08BF     		it	eq
 1863 001a BC42     		cmpeq	r4, r7
 1864              		.loc 1 265 0
 1865 001c 0646     		mov	r6, r0
 1866 001e 8946     		mov	r9, r1
 1867              		.loc 1 277 0
 1868 0020 C0E90045 		strd	r4, [r0]
 1869              		.loc 1 274 0
 1870 0024 08F07F08 		and	r8, r8, #127
 1871              	.LVL105:
 1872              		.loc 1 279 0
 1873 0028 06D2     		bcs	.L29
 1874              		.loc 1 280 0
 1875 002a D0E90223 		ldrd	r2, [r0, #8]
ARM GAS  C:\Users\jo\AppData\Local\Temp\ccyP7UZh.s 			page 34


 1876              	.LVL106:
 1877 002e 0132     		adds	r2, r2, #1
 1878 0030 43F10003 		adc	r3, r3, #0
 1879 0034 C0E90223 		strd	r2, [r0, #8]
 1880              	.L29:
 1881              		.loc 1 282 0
 1882 0038 B8F1000F 		cmp	r8, #0
 1883 003c 16D0     		beq	.L30
 1884              		.loc 1 275 0
 1885 003e C8F18004 		rsb	r4, r8, #128
 1886              		.loc 1 282 0
 1887 0042 BC42     		cmp	r4, r7
 1888 0044 02D9     		bls	.L40
 1889              	.LVL107:
 1890              	.L32:
 1891              		.loc 1 298 0
 1892 0046 47BB     		cbnz	r7, .L41
 1893              	.LVL108:
 1894              	.L28:
 1895 0048 BDE8F883 		pop	{r3, r4, r5, r6, r7, r8, r9, pc}
 1896              	.LVL109:
 1897              	.L40:
 1898              		.loc 1 284 0
 1899 004c 08F15000 		add	r0, r8, #80
 1900              	.LVL110:
 1901 0050 4946     		mov	r1, r9
 1902              	.LVL111:
 1903 0052 2246     		mov	r2, r4
 1904 0054 3044     		add	r0, r0, r6
 1905 0056 FFF7FEFF 		bl	memcpy
 1906              	.LVL112:
 1907              		.loc 1 285 0
 1908 005a 3046     		mov	r0, r6
 1909 005c 06F15001 		add	r1, r6, #80
 1910 0060 FFF7FEFF 		bl	sha512_process
 1911              	.LVL113:
 1912              		.loc 1 287 0
 1913 0064 3F1B     		subs	r7, r7, r4
 1914              	.LVL114:
 1915              		.loc 1 286 0
 1916 0066 A144     		add	r9, r9, r4
 1917              	.LVL115:
 1918              		.loc 1 288 0
 1919 0068 4FF00008 		mov	r8, #0
 1920              	.LVL116:
 1921              	.L30:
 1922              		.loc 1 291 0
 1923 006c 7F2F     		cmp	r7, #127
 1924 006e EAD9     		bls	.L32
 1925 0070 3D46     		mov	r5, r7
 1926 0072 4C46     		mov	r4, r9
 1927              	.LVL117:
 1928              	.L33:
 1929              		.loc 1 293 0
 1930 0074 2146     		mov	r1, r4
 1931              		.loc 1 295 0
 1932 0076 803D     		subs	r5, r5, #128
ARM GAS  C:\Users\jo\AppData\Local\Temp\ccyP7UZh.s 			page 35


 1933              	.LVL118:
 1934              		.loc 1 293 0
 1935 0078 3046     		mov	r0, r6
 1936 007a FFF7FEFF 		bl	sha512_process
 1937              	.LVL119:
 1938              		.loc 1 291 0
 1939 007e 7F2D     		cmp	r5, #127
 1940              		.loc 1 294 0
 1941 0080 04F18004 		add	r4, r4, #128
 1942              	.LVL120:
 1943              		.loc 1 291 0
 1944 0084 F6D8     		bhi	.L33
 1945 0086 A7F18003 		sub	r3, r7, #128
 1946 008a 23F07F03 		bic	r3, r3, #127
 1947 008e 8033     		adds	r3, r3, #128
 1948 0090 07F07F07 		and	r7, r7, #127
 1949 0094 9944     		add	r9, r9, r3
 1950              		.loc 1 298 0
 1951 0096 002F     		cmp	r7, #0
 1952 0098 D6D0     		beq	.L28
 1953              	.LVL121:
 1954              	.L41:
 1955              		.loc 1 299 0
 1956 009a 08F15000 		add	r0, r8, #80
 1957 009e 3044     		add	r0, r0, r6
 1958 00a0 4946     		mov	r1, r9
 1959 00a2 3A46     		mov	r2, r7
 1960              		.loc 1 300 0
 1961 00a4 BDE8F843 		pop	{r3, r4, r5, r6, r7, r8, r9, lr}
 1962              		.cfi_restore 14
 1963              		.cfi_restore 9
 1964              		.cfi_restore 8
 1965              		.cfi_restore 7
 1966              		.cfi_restore 6
 1967              		.cfi_restore 5
 1968              		.cfi_restore 4
 1969              		.cfi_restore 3
 1970              		.cfi_def_cfa_offset 0
 1971              	.LVL122:
 1972              		.loc 1 299 0
 1973 00a8 FFF7FEBF 		b	memcpy
 1974              	.LVL123:
 1975              		.cfi_endproc
 1976              	.LFE15:
 1977              		.size	sha512_update.part.0, .-sha512_update.part.0
 1978 00ac AFF30080 		.section	.text.sha512_update,"ax",%progbits
 1979              		.align	2
 1980              		.p2align 4,,15
 1981              		.global	sha512_update
 1982              		.thumb
 1983              		.thumb_func
 1984              		.type	sha512_update, %function
 1985              	sha512_update:
 1986              	.LFB5:
 1987              		.loc 1 267 0
 1988              		.cfi_startproc
 1989              		@ args = 0, pretend = 0, frame = 0
ARM GAS  C:\Users\jo\AppData\Local\Temp\ccyP7UZh.s 			page 36


 1990              		@ frame_needed = 0, uses_anonymous_args = 0
 1991              		@ link register save eliminated.
 1992              	.LVL124:
 1993              		.loc 1 271 0
 1994 0000 0AB1     		cbz	r2, .L42
 1995 0002 FFF7FEBF 		b	sha512_update.part.0
 1996              	.LVL125:
 1997              	.L42:
 1998 0006 7047     		bx	lr
 1999              		.cfi_endproc
 2000              	.LFE5:
 2001              		.size	sha512_update, .-sha512_update
 2002 0008 AFF30080 		.section	.text.sha512_finish,"ax",%progbits
 2002      AFF30080 
 2003              		.align	2
 2004              		.p2align 4,,15
 2005              		.global	sha512_finish
 2006              		.thumb
 2007              		.thumb_func
 2008              		.type	sha512_finish, %function
 2009              	sha512_finish:
 2010              	.LFB6:
 2011              		.loc 1 318 0
 2012              		.cfi_startproc
 2013              		@ args = 0, pretend = 0, frame = 24
 2014              		@ frame_needed = 0, uses_anonymous_args = 0
 2015              	.LVL126:
 2016 0000 2DE9F04F 		push	{r4, r5, r6, r7, r8, r9, r10, fp, lr}
 2017              		.cfi_def_cfa_offset 36
 2018              		.cfi_offset 4, -36
 2019              		.cfi_offset 5, -32
 2020              		.cfi_offset 6, -28
 2021              		.cfi_offset 7, -24
 2022              		.cfi_offset 8, -20
 2023              		.cfi_offset 9, -16
 2024              		.cfi_offset 10, -12
 2025              		.cfi_offset 11, -8
 2026              		.cfi_offset 14, -4
 2027 0004 0446     		mov	r4, r0
 2028              		.loc 1 323 0
 2029 0006 94E80C00 		ldmia	r4, {r2, r3}
 2030              		.loc 1 324 0
 2031 000a C568     		ldr	r5, [r0, #12]
 2032 000c 8068     		ldr	r0, [r0, #8]
 2033              	.LVL127:
 2034              		.loc 1 323 0
 2035 000e 4FEA5378 		lsr	r8, r3, #29
 2036              		.loc 1 324 0
 2037 0012 EF00     		lsls	r7, r5, #3
 2038              		.loc 1 325 0
 2039 0014 DB00     		lsls	r3, r3, #3
 2040              		.loc 1 318 0
 2041 0016 87B0     		sub	sp, sp, #28
 2042              		.cfi_def_cfa_offset 64
 2043              		.loc 1 325 0
 2044 0018 43EA5273 		orr	r3, r3, r2, lsr #29
 2045              		.loc 1 324 0
ARM GAS  C:\Users\jo\AppData\Local\Temp\ccyP7UZh.s 			page 37


 2046 001c 47EA5077 		orr	r7, r7, r0, lsr #29
 2047              		.loc 1 323 0
 2048 0020 4FF00009 		mov	r9, #0
 2049 0024 47EA0907 		orr	r7, r7, r9
 2050              		.loc 1 328 0
 2051 0028 1D0E     		lsrs	r5, r3, #24
 2052              		.loc 1 324 0
 2053 002a C600     		lsls	r6, r0, #3
 2054              		.loc 1 325 0
 2055 002c D000     		lsls	r0, r2, #3
 2056              		.loc 1 330 0
 2057 002e 02F07F02 		and	r2, r2, #127
 2058              		.loc 1 323 0
 2059 0032 46EA0806 		orr	r6, r6, r8
 2060              	.LVL128:
 2061              		.loc 1 331 0
 2062 0036 6F2A     		cmp	r2, #111
 2063              		.loc 1 327 0
 2064 0038 4FEA174A 		lsr	r10, r7, #16
 2065 003c 4FEA1729 		lsr	r9, r7, #8
 2066              		.loc 1 328 0
 2067 0040 0195     		str	r5, [sp, #4]
 2068              		.loc 1 318 0
 2069 0042 0D46     		mov	r5, r1
 2070              		.loc 1 328 0
 2071 0044 4FEA1321 		lsr	r1, r3, #8
 2072              	.LVL129:
 2073              		.loc 1 327 0
 2074 0048 4FEA164C 		lsr	ip, r6, #16
 2075 004c 4FEA162E 		lsr	lr, r6, #8
 2076              		.loc 1 331 0
 2077 0050 94BF     		ite	ls
 2078 0052 C2F17002 		rsbls	r2, r2, #112
 2079              	.LVL130:
 2080 0056 C2F1F002 		rsbhi	r2, r2, #240
 2081              	.LVL131:
 2082              		.loc 1 327 0
 2083 005a 4FEA176B 		lsr	fp, r7, #24
 2084 005e 4FEA1668 		lsr	r8, r6, #24
 2085 0062 8DF80B70 		strb	r7, [sp, #11]
 2086 0066 8DF80F60 		strb	r6, [sp, #15]
 2087              		.loc 1 328 0
 2088 006a 070E     		lsrs	r7, r0, #24
 2089 006c 1E0C     		lsrs	r6, r3, #16
 2090              	.LVL132:
 2091              		.loc 1 327 0
 2092 006e 8DF809A0 		strb	r10, [sp, #9]
 2093 0072 8DF80A90 		strb	r9, [sp, #10]
 2094              		.loc 1 328 0
 2095 0076 4FEA104A 		lsr	r10, r0, #16
 2096 007a 4FEA1029 		lsr	r9, r0, #8
 2097 007e 8DF81330 		strb	r3, [sp, #19]
 2098 0082 8DF81210 		strb	r1, [sp, #18]
 2099 0086 9DF80430 		ldrb	r3, [sp, #4]	@ zero_extendqisi2
 2100              	.LVL133:
 2101 008a 8DF81700 		strb	r0, [sp, #23]
 2102              	.LBB64:
ARM GAS  C:\Users\jo\AppData\Local\Temp\ccyP7UZh.s 			page 38


 2103              	.LBB65:
 2104 008e 7149     		ldr	r1, .L49
 2105              	.LBE65:
 2106              	.LBE64:
 2107 0090 8DF81030 		strb	r3, [sp, #16]
 2108              	.LBB68:
 2109              	.LBB66:
 2110 0094 2046     		mov	r0, r4
 2111              	.LVL134:
 2112              	.LBE66:
 2113              	.LBE68:
 2114              		.loc 1 327 0
 2115 0096 8DF80DC0 		strb	ip, [sp, #13]
 2116 009a 8DF80EE0 		strb	lr, [sp, #14]
 2117 009e 8DF808B0 		strb	fp, [sp, #8]
 2118 00a2 8DF80C80 		strb	r8, [sp, #12]
 2119              		.loc 1 328 0
 2120 00a6 8DF81160 		strb	r6, [sp, #17]
 2121 00aa 8DF81470 		strb	r7, [sp, #20]
 2122 00ae 8DF815A0 		strb	r10, [sp, #21]
 2123 00b2 8DF81690 		strb	r9, [sp, #22]
 2124              	.LBB69:
 2125              	.LBB67:
 2126 00b6 FFF7FEFF 		bl	sha512_update.part.0
 2127              	.LVL135:
 2128              	.LBE67:
 2129              	.LBE69:
 2130              	.LBB70:
 2131              	.LBB71:
 2132 00ba 2046     		mov	r0, r4
 2133 00bc 02A9     		add	r1, sp, #8
 2134              	.LVL136:
 2135 00be 1022     		movs	r2, #16
 2136 00c0 FFF7FEFF 		bl	sha512_update.part.0
 2137              	.LVL137:
 2138              	.LBE71:
 2139              	.LBE70:
 2140              		.loc 1 336 0
 2141 00c4 E37D     		ldrb	r3, [r4, #23]	@ zero_extendqisi2
 2142 00c6 2B70     		strb	r3, [r5]
 2143 00c8 E38A     		ldrh	r3, [r4, #22]
 2144 00ca 6B70     		strb	r3, [r5, #1]
 2145 00cc 6369     		ldr	r3, [r4, #20]
 2146 00ce 1B0A     		lsrs	r3, r3, #8
 2147 00d0 AB70     		strb	r3, [r5, #2]
 2148 00d2 6369     		ldr	r3, [r4, #20]
 2149 00d4 EB70     		strb	r3, [r5, #3]
 2150 00d6 E37C     		ldrb	r3, [r4, #19]	@ zero_extendqisi2
 2151 00d8 2B71     		strb	r3, [r5, #4]
 2152 00da 638A     		ldrh	r3, [r4, #18]
 2153 00dc 6B71     		strb	r3, [r5, #5]
 2154 00de 2369     		ldr	r3, [r4, #16]
 2155 00e0 1B0A     		lsrs	r3, r3, #8
 2156 00e2 AB71     		strb	r3, [r5, #6]
 2157 00e4 2369     		ldr	r3, [r4, #16]
 2158 00e6 EB71     		strb	r3, [r5, #7]
 2159              		.loc 1 337 0
ARM GAS  C:\Users\jo\AppData\Local\Temp\ccyP7UZh.s 			page 39


 2160 00e8 E37F     		ldrb	r3, [r4, #31]	@ zero_extendqisi2
 2161 00ea 2B72     		strb	r3, [r5, #8]
 2162 00ec E38B     		ldrh	r3, [r4, #30]
 2163 00ee 6B72     		strb	r3, [r5, #9]
 2164 00f0 E369     		ldr	r3, [r4, #28]
 2165 00f2 1B0A     		lsrs	r3, r3, #8
 2166 00f4 AB72     		strb	r3, [r5, #10]
 2167 00f6 E369     		ldr	r3, [r4, #28]
 2168 00f8 EB72     		strb	r3, [r5, #11]
 2169 00fa E37E     		ldrb	r3, [r4, #27]	@ zero_extendqisi2
 2170 00fc 2B73     		strb	r3, [r5, #12]
 2171 00fe 638B     		ldrh	r3, [r4, #26]
 2172 0100 6B73     		strb	r3, [r5, #13]
 2173 0102 A369     		ldr	r3, [r4, #24]
 2174 0104 1B0A     		lsrs	r3, r3, #8
 2175 0106 AB73     		strb	r3, [r5, #14]
 2176 0108 A369     		ldr	r3, [r4, #24]
 2177 010a EB73     		strb	r3, [r5, #15]
 2178              		.loc 1 338 0
 2179 010c 94F82730 		ldrb	r3, [r4, #39]	@ zero_extendqisi2
 2180 0110 2B74     		strb	r3, [r5, #16]
 2181 0112 E38C     		ldrh	r3, [r4, #38]
 2182 0114 6B74     		strb	r3, [r5, #17]
 2183 0116 636A     		ldr	r3, [r4, #36]
 2184 0118 1B0A     		lsrs	r3, r3, #8
 2185 011a AB74     		strb	r3, [r5, #18]
 2186 011c 636A     		ldr	r3, [r4, #36]
 2187 011e EB74     		strb	r3, [r5, #19]
 2188 0120 94F82330 		ldrb	r3, [r4, #35]	@ zero_extendqisi2
 2189 0124 2B75     		strb	r3, [r5, #20]
 2190 0126 638C     		ldrh	r3, [r4, #34]
 2191 0128 6B75     		strb	r3, [r5, #21]
 2192 012a 236A     		ldr	r3, [r4, #32]
 2193 012c 1B0A     		lsrs	r3, r3, #8
 2194 012e AB75     		strb	r3, [r5, #22]
 2195 0130 236A     		ldr	r3, [r4, #32]
 2196 0132 EB75     		strb	r3, [r5, #23]
 2197              		.loc 1 339 0
 2198 0134 94F82F30 		ldrb	r3, [r4, #47]	@ zero_extendqisi2
 2199 0138 2B76     		strb	r3, [r5, #24]
 2200 013a E38D     		ldrh	r3, [r4, #46]
 2201 013c 6B76     		strb	r3, [r5, #25]
 2202 013e E36A     		ldr	r3, [r4, #44]
 2203 0140 1B0A     		lsrs	r3, r3, #8
 2204 0142 AB76     		strb	r3, [r5, #26]
 2205 0144 E36A     		ldr	r3, [r4, #44]
 2206 0146 EB76     		strb	r3, [r5, #27]
 2207 0148 94F82B30 		ldrb	r3, [r4, #43]	@ zero_extendqisi2
 2208 014c 2B77     		strb	r3, [r5, #28]
 2209 014e 638D     		ldrh	r3, [r4, #42]
 2210 0150 6B77     		strb	r3, [r5, #29]
 2211 0152 A36A     		ldr	r3, [r4, #40]
 2212 0154 1B0A     		lsrs	r3, r3, #8
 2213 0156 AB77     		strb	r3, [r5, #30]
 2214 0158 A36A     		ldr	r3, [r4, #40]
 2215 015a EB77     		strb	r3, [r5, #31]
 2216              		.loc 1 340 0
ARM GAS  C:\Users\jo\AppData\Local\Temp\ccyP7UZh.s 			page 40


 2217 015c 94F83730 		ldrb	r3, [r4, #55]	@ zero_extendqisi2
 2218 0160 85F82030 		strb	r3, [r5, #32]
 2219 0164 E38E     		ldrh	r3, [r4, #54]
 2220 0166 85F82130 		strb	r3, [r5, #33]
 2221 016a 636B     		ldr	r3, [r4, #52]
 2222 016c 1B0A     		lsrs	r3, r3, #8
 2223 016e 85F82230 		strb	r3, [r5, #34]
 2224 0172 636B     		ldr	r3, [r4, #52]
 2225 0174 85F82330 		strb	r3, [r5, #35]
 2226 0178 94F83330 		ldrb	r3, [r4, #51]	@ zero_extendqisi2
 2227 017c 85F82430 		strb	r3, [r5, #36]
 2228 0180 638E     		ldrh	r3, [r4, #50]
 2229 0182 85F82530 		strb	r3, [r5, #37]
 2230 0186 236B     		ldr	r3, [r4, #48]
 2231 0188 1B0A     		lsrs	r3, r3, #8
 2232 018a 85F82630 		strb	r3, [r5, #38]
 2233 018e 236B     		ldr	r3, [r4, #48]
 2234 0190 85F82730 		strb	r3, [r5, #39]
 2235              		.loc 1 341 0
 2236 0194 94F83F30 		ldrb	r3, [r4, #63]	@ zero_extendqisi2
 2237 0198 85F82830 		strb	r3, [r5, #40]
 2238 019c E38F     		ldrh	r3, [r4, #62]
 2239 019e 85F82930 		strb	r3, [r5, #41]
 2240 01a2 E36B     		ldr	r3, [r4, #60]
 2241 01a4 1B0A     		lsrs	r3, r3, #8
 2242 01a6 85F82A30 		strb	r3, [r5, #42]
 2243 01aa E36B     		ldr	r3, [r4, #60]
 2244 01ac 85F82B30 		strb	r3, [r5, #43]
 2245 01b0 94F83B30 		ldrb	r3, [r4, #59]	@ zero_extendqisi2
 2246 01b4 85F82C30 		strb	r3, [r5, #44]
 2247 01b8 638F     		ldrh	r3, [r4, #58]
 2248 01ba 85F82D30 		strb	r3, [r5, #45]
 2249 01be A36B     		ldr	r3, [r4, #56]
 2250 01c0 1B0A     		lsrs	r3, r3, #8
 2251 01c2 85F82E30 		strb	r3, [r5, #46]
 2252 01c6 A36B     		ldr	r3, [r4, #56]
 2253 01c8 85F82F30 		strb	r3, [r5, #47]
 2254              		.loc 1 343 0
 2255 01cc D4F8D031 		ldr	r3, [r4, #464]
 2256 01d0 002B     		cmp	r3, #0
 2257 01d2 3BD1     		bne	.L44
 2258              		.loc 1 345 0
 2259 01d4 94F84730 		ldrb	r3, [r4, #71]	@ zero_extendqisi2
 2260 01d8 85F83030 		strb	r3, [r5, #48]
 2261 01dc B4F84630 		ldrh	r3, [r4, #70]
 2262 01e0 85F83130 		strb	r3, [r5, #49]
 2263 01e4 636C     		ldr	r3, [r4, #68]
 2264 01e6 1B0A     		lsrs	r3, r3, #8
 2265 01e8 85F83230 		strb	r3, [r5, #50]
 2266 01ec 636C     		ldr	r3, [r4, #68]
 2267 01ee 85F83330 		strb	r3, [r5, #51]
 2268 01f2 94F84330 		ldrb	r3, [r4, #67]	@ zero_extendqisi2
 2269 01f6 85F83430 		strb	r3, [r5, #52]
 2270 01fa B4F84230 		ldrh	r3, [r4, #66]
 2271 01fe 85F83530 		strb	r3, [r5, #53]
 2272 0202 236C     		ldr	r3, [r4, #64]
 2273 0204 1B0A     		lsrs	r3, r3, #8
ARM GAS  C:\Users\jo\AppData\Local\Temp\ccyP7UZh.s 			page 41


 2274 0206 85F83630 		strb	r3, [r5, #54]
 2275 020a 236C     		ldr	r3, [r4, #64]
 2276 020c 85F83730 		strb	r3, [r5, #55]
 2277              		.loc 1 346 0
 2278 0210 94F84F30 		ldrb	r3, [r4, #79]	@ zero_extendqisi2
 2279 0214 85F83830 		strb	r3, [r5, #56]
 2280 0218 B4F84E30 		ldrh	r3, [r4, #78]
 2281 021c 85F83930 		strb	r3, [r5, #57]
 2282 0220 E36C     		ldr	r3, [r4, #76]
 2283 0222 1B0A     		lsrs	r3, r3, #8
 2284 0224 85F83A30 		strb	r3, [r5, #58]
 2285 0228 E36C     		ldr	r3, [r4, #76]
 2286 022a 85F83B30 		strb	r3, [r5, #59]
 2287 022e 94F84B30 		ldrb	r3, [r4, #75]	@ zero_extendqisi2
 2288 0232 85F83C30 		strb	r3, [r5, #60]
 2289 0236 B4F84A30 		ldrh	r3, [r4, #74]
 2290 023a 85F83D30 		strb	r3, [r5, #61]
 2291 023e A36C     		ldr	r3, [r4, #72]
 2292 0240 1B0A     		lsrs	r3, r3, #8
 2293 0242 85F83E30 		strb	r3, [r5, #62]
 2294 0246 A36C     		ldr	r3, [r4, #72]
 2295 0248 85F83F30 		strb	r3, [r5, #63]
 2296              	.L44:
 2297              		.loc 1 348 0
 2298 024c 07B0     		add	sp, sp, #28
 2299              		.cfi_def_cfa_offset 36
 2300              		@ sp needed
 2301 024e BDE8F08F 		pop	{r4, r5, r6, r7, r8, r9, r10, fp, pc}
 2302              	.LVL138:
 2303              	.L50:
 2304 0252 00BF     		.align	2
 2305              	.L49:
 2306 0254 00000000 		.word	.LANCHOR1
 2307              		.cfi_endproc
 2308              	.LFE6:
 2309              		.size	sha512_finish, .-sha512_finish
 2310 0258 AFF30080 		.section	.text.sha512,"ax",%progbits
 2310      AFF30080 
 2311              		.align	2
 2312              		.p2align 4,,15
 2313              		.global	sha512
 2314              		.thumb
 2315              		.thumb_func
 2316              		.type	sha512, %function
 2317              	sha512:
 2318              	.LFB7:
 2319              		.loc 1 357 0
 2320              		.cfi_startproc
 2321              		@ args = 0, pretend = 0, frame = 472
 2322              		@ frame_needed = 0, uses_anonymous_args = 0
 2323              	.LVL139:
 2324 0000 F0B5     		push	{r4, r5, r6, r7, lr}
 2325              		.cfi_def_cfa_offset 20
 2326              		.cfi_offset 4, -20
 2327              		.cfi_offset 5, -16
 2328              		.cfi_offset 6, -12
 2329              		.cfi_offset 7, -8
ARM GAS  C:\Users\jo\AppData\Local\Temp\ccyP7UZh.s 			page 42


 2330              		.cfi_offset 14, -4
 2331 0002 F7B0     		sub	sp, sp, #476
 2332              		.cfi_def_cfa_offset 496
 2333              	.LVL140:
 2334              		.loc 1 357 0
 2335 0004 0C46     		mov	r4, r1
 2336 0006 1E46     		mov	r6, r3
 2337              	.LBB72:
 2338              	.LBB73:
 2339              		.loc 1 146 0
 2340 0008 0021     		movs	r1, #0
 2341              	.LVL141:
 2342              	.LBE73:
 2343              	.LBE72:
 2344              		.loc 1 357 0
 2345 000a 0746     		mov	r7, r0
 2346 000c 1546     		mov	r5, r2
 2347              	.LBB75:
 2348              	.LBB74:
 2349              		.loc 1 146 0
 2350 000e 6846     		mov	r0, sp
 2351              	.LVL142:
 2352 0010 4FF4EC72 		mov	r2, #472
 2353              	.LVL143:
 2354 0014 FFF7FEFF 		bl	memset
 2355              	.LVL144:
 2356              	.LBE74:
 2357              	.LBE75:
 2358              		.loc 1 361 0
 2359 0018 6846     		mov	r0, sp
 2360 001a 3146     		mov	r1, r6
 2361 001c FFF7FEFF 		bl	sha512_starts
 2362              	.LVL145:
 2363              	.LBB76:
 2364              	.LBB77:
 2365              		.loc 1 271 0
 2366 0020 64B9     		cbnz	r4, .L59
 2367              	.L52:
 2368              	.LBE77:
 2369              	.LBE76:
 2370              		.loc 1 363 0
 2371 0022 2946     		mov	r1, r5
 2372 0024 6846     		mov	r0, sp
 2373 0026 FFF7FEFF 		bl	sha512_finish
 2374              	.LVL146:
 2375 002a 6B46     		mov	r3, sp
 2376              	.LBB79:
 2377              	.LBB80:
 2378              	.LBB81:
 2379              		.loc 1 61 0
 2380 002c 0022     		movs	r2, #0
 2381              	.LVL147:
 2382              	.L53:
 2383 002e 1A70     		strb	r2, [r3]
 2384              	.LVL148:
 2385 0030 76A9     		add	r1, sp, #472
 2386 0032 0133     		adds	r3, r3, #1
ARM GAS  C:\Users\jo\AppData\Local\Temp\ccyP7UZh.s 			page 43


 2387              	.LVL149:
 2388 0034 8B42     		cmp	r3, r1
 2389 0036 FAD1     		bne	.L53
 2390              	.LBE81:
 2391              	.LBE80:
 2392              	.LBE79:
 2393              		.loc 1 365 0
 2394 0038 77B0     		add	sp, sp, #476
 2395              		.cfi_remember_state
 2396              		.cfi_def_cfa_offset 20
 2397              	.LVL150:
 2398              		@ sp needed
 2399 003a F0BD     		pop	{r4, r5, r6, r7, pc}
 2400              	.LVL151:
 2401              	.L59:
 2402              		.cfi_restore_state
 2403              	.LBB82:
 2404              	.LBB78:
 2405 003c 3946     		mov	r1, r7
 2406 003e 2246     		mov	r2, r4
 2407 0040 6846     		mov	r0, sp
 2408 0042 FFF7FEFF 		bl	sha512_update.part.0
 2409              	.LVL152:
 2410 0046 ECE7     		b	.L52
 2411              	.LBE78:
 2412              	.LBE82:
 2413              		.cfi_endproc
 2414              	.LFE7:
 2415              		.size	sha512, .-sha512
 2416 0048 AFF30080 		.section	.text.sha512_file,"ax",%progbits
 2416      AFF30080 
 2417              		.align	2
 2418              		.p2align 4,,15
 2419              		.global	sha512_file
 2420              		.thumb
 2421              		.thumb_func
 2422              		.type	sha512_file, %function
 2423              	sha512_file:
 2424              	.LFB8:
 2425              		.loc 1 372 0
 2426              		.cfi_startproc
 2427              		@ args = 0, pretend = 0, frame = 1496
 2428              		@ frame_needed = 0, uses_anonymous_args = 0
 2429              	.LVL153:
 2430 0000 F0B5     		push	{r4, r5, r6, r7, lr}
 2431              		.cfi_def_cfa_offset 20
 2432              		.cfi_offset 4, -20
 2433              		.cfi_offset 5, -16
 2434              		.cfi_offset 6, -12
 2435              		.cfi_offset 7, -8
 2436              		.cfi_offset 14, -4
 2437 0002 0F46     		mov	r7, r1
 2438 0004 ADF2DC5D 		subw	sp, sp, #1500
 2439              		.cfi_def_cfa_offset 1520
 2440              		.loc 1 378 0
 2441 0008 1E49     		ldr	r1, .L71
 2442              	.LVL154:
ARM GAS  C:\Users\jo\AppData\Local\Temp\ccyP7UZh.s 			page 44


 2443              		.loc 1 372 0
 2444 000a 1446     		mov	r4, r2
 2445              		.loc 1 378 0
 2446 000c FFF7FEFF 		bl	fopen
 2447              	.LVL155:
 2448 0010 0646     		mov	r6, r0
 2449 0012 A0B3     		cbz	r0, .L66
 2450              	.LVL156:
 2451              	.LBB83:
 2452              	.LBB84:
 2453              		.loc 1 146 0
 2454 0014 0021     		movs	r1, #0
 2455 0016 4FF4EC72 		mov	r2, #472
 2456 001a 6846     		mov	r0, sp
 2457              	.LVL157:
 2458 001c FFF7FEFF 		bl	memset
 2459              	.LVL158:
 2460              	.LBE84:
 2461              	.LBE83:
 2462              		.loc 1 382 0
 2463 0020 6846     		mov	r0, sp
 2464 0022 2146     		mov	r1, r4
 2465 0024 FFF7FEFF 		bl	sha512_starts
 2466              	.LVL159:
 2467 0028 76AD     		add	r5, sp, #472
 2468              	.LVL160:
 2469              	.L62:
 2470              		.loc 1 384 0
 2471 002a 0121     		movs	r1, #1
 2472 002c 4FF48062 		mov	r2, #1024
 2473 0030 2846     		mov	r0, r5
 2474 0032 3346     		mov	r3, r6
 2475 0034 FFF7FEFF 		bl	fread
 2476              	.LVL161:
 2477              	.LBB85:
 2478              	.LBB86:
 2479 0038 2946     		mov	r1, r5
 2480              	.LBE86:
 2481              	.LBE85:
 2482 003a 0446     		mov	r4, r0
 2483              	.LVL162:
 2484              	.LBB89:
 2485              	.LBB87:
 2486 003c 0246     		mov	r2, r0
 2487              	.LBE87:
 2488              	.LBE89:
 2489 003e 18B1     		cbz	r0, .L69
 2490              	.LVL163:
 2491              	.LBB90:
 2492              	.LBB88:
 2493 0040 6846     		mov	r0, sp
 2494              	.LVL164:
 2495 0042 FFF7FEFF 		bl	sha512_update.part.0
 2496              	.LVL165:
 2497 0046 F0E7     		b	.L62
 2498              	.LVL166:
 2499              	.L69:
ARM GAS  C:\Users\jo\AppData\Local\Temp\ccyP7UZh.s 			page 45


 2500              	.LBE88:
 2501              	.LBE90:
 2502              		.loc 1 387 0
 2503 0048 6846     		mov	r0, sp
 2504              	.LVL167:
 2505 004a 3946     		mov	r1, r7
 2506              	.LVL168:
 2507 004c FFF7FEFF 		bl	sha512_finish
 2508              	.LVL169:
 2509 0050 6B46     		mov	r3, sp
 2510              	.LBB91:
 2511              	.LBB92:
 2512              	.LBB93:
 2513              		.loc 1 61 0
 2514 0052 2046     		mov	r0, r4
 2515              	.LVL170:
 2516              	.L64:
 2517 0054 1870     		strb	r0, [r3]
 2518              	.LVL171:
 2519 0056 0133     		adds	r3, r3, #1
 2520              	.LVL172:
 2521 0058 AB42     		cmp	r3, r5
 2522 005a FBD1     		bne	.L64
 2523              	.LBE93:
 2524              	.LBE92:
 2525              	.LBE91:
 2526              		.loc 1 390 0
 2527 005c B489     		ldrh	r4, [r6, #12]
 2528 005e 04F04004 		and	r4, r4, #64
 2529 0062 A4B2     		uxth	r4, r4
 2530              		.loc 1 392 0
 2531 0064 3046     		mov	r0, r6
 2532              	.LVL173:
 2533              		.loc 1 390 0
 2534 0066 2CB9     		cbnz	r4, .L70
 2535              	.LVL174:
 2536              		.loc 1 396 0
 2537 0068 FFF7FEFF 		bl	fclose
 2538              	.LVL175:
 2539              		.loc 1 397 0
 2540 006c 2046     		mov	r0, r4
 2541              	.LVL176:
 2542              	.L61:
 2543              		.loc 1 398 0
 2544 006e 0DF2DC5D 		addw	sp, sp, #1500
 2545              		.cfi_remember_state
 2546              		.cfi_def_cfa_offset 20
 2547              		@ sp needed
 2548 0072 F0BD     		pop	{r4, r5, r6, r7, pc}
 2549              	.LVL177:
 2550              	.L70:
 2551              		.cfi_restore_state
 2552              		.loc 1 392 0
 2553 0074 FFF7FEFF 		bl	fclose
 2554              	.LVL178:
 2555              		.loc 1 393 0
 2556 0078 6FF07900 		mvn	r0, #121
ARM GAS  C:\Users\jo\AppData\Local\Temp\ccyP7UZh.s 			page 46


 2557 007c F7E7     		b	.L61
 2558              	.LVL179:
 2559              	.L66:
 2560              		.loc 1 379 0
 2561 007e 6FF07900 		mvn	r0, #121
 2562              	.LVL180:
 2563 0082 F4E7     		b	.L61
 2564              	.L72:
 2565              		.align	2
 2566              	.L71:
 2567 0084 00000000 		.word	.LC0
 2568              		.cfi_endproc
 2569              	.LFE8:
 2570              		.size	sha512_file, .-sha512_file
 2571 0088 AFF30080 		.section	.text.sha512_hmac_starts,"ax",%progbits
 2571      AFF30080 
 2572              		.align	2
 2573              		.p2align 4,,15
 2574              		.global	sha512_hmac_starts
 2575              		.thumb
 2576              		.thumb_func
 2577              		.type	sha512_hmac_starts, %function
 2578              	sha512_hmac_starts:
 2579              	.LFB9:
 2580              		.loc 1 406 0
 2581              		.cfi_startproc
 2582              		@ args = 0, pretend = 0, frame = 64
 2583              		@ frame_needed = 0, uses_anonymous_args = 0
 2584              	.LVL181:
 2585 0000 2DE9F047 		push	{r4, r5, r6, r7, r8, r9, r10, lr}
 2586              		.cfi_def_cfa_offset 32
 2587              		.cfi_offset 4, -32
 2588              		.cfi_offset 5, -28
 2589              		.cfi_offset 6, -24
 2590              		.cfi_offset 7, -20
 2591              		.cfi_offset 8, -16
 2592              		.cfi_offset 9, -12
 2593              		.cfi_offset 10, -8
 2594              		.cfi_offset 14, -4
 2595              		.loc 1 410 0
 2596 0004 802A     		cmp	r2, #128
 2597              		.loc 1 406 0
 2598 0006 90B0     		sub	sp, sp, #64
 2599              		.cfi_def_cfa_offset 96
 2600              		.loc 1 406 0
 2601 0008 1546     		mov	r5, r2
 2602 000a 0646     		mov	r6, r0
 2603 000c 8A46     		mov	r10, r1
 2604 000e 9846     		mov	r8, r3
 2605              		.loc 1 410 0
 2606 0010 39D8     		bhi	.L88
 2607              		.loc 1 417 0
 2608 0012 00F1D007 		add	r7, r0, #208
 2609 0016 3621     		movs	r1, #54
 2610              	.LVL182:
 2611 0018 8022     		movs	r2, #128
 2612              	.LVL183:
ARM GAS  C:\Users\jo\AppData\Local\Temp\ccyP7UZh.s 			page 47


 2613 001a 3846     		mov	r0, r7
 2614              	.LVL184:
 2615              		.loc 1 418 0
 2616 001c 06F5A879 		add	r9, r6, #336
 2617              		.loc 1 417 0
 2618 0020 FFF7FEFF 		bl	memset
 2619              	.LVL185:
 2620              		.loc 1 418 0
 2621 0024 4846     		mov	r0, r9
 2622 0026 5C21     		movs	r1, #92
 2623 0028 8022     		movs	r2, #128
 2624 002a FFF7FEFF 		bl	memset
 2625              	.LVL186:
 2626 002e 6C46     		mov	r4, sp
 2627              		.loc 1 420 0
 2628 0030 BDB1     		cbz	r5, .L77
 2629              	.L80:
 2630 0032 06F1CF0E 		add	lr, r6, #207
 2631 0036 5146     		mov	r1, r10
 2632 0038 4846     		mov	r0, r9
 2633              		.loc 1 418 0 discriminator 3
 2634 003a F446     		mov	ip, lr
 2635 003c 0022     		movs	r2, #0
 2636              	.LVL187:
 2637              	.L78:
 2638              		.loc 1 422 0 discriminator 3
 2639 003e 91F80090 		ldrb	r9, [r1]	@ zero_extendqisi2
 2640 0042 1CF8013F 		ldrb	r3, [ip, #1]!	@ zero_extendqisi2
 2641 0046 89EA0303 		eor	r3, r9, r3
 2642 004a 0EF8013F 		strb	r3, [lr, #1]!
 2643              		.loc 1 423 0 discriminator 3
 2644 004e 11F8019B 		ldrb	r9, [r1], #1	@ zero_extendqisi2
 2645 0052 0378     		ldrb	r3, [r0]	@ zero_extendqisi2
 2646              		.loc 1 420 0 discriminator 3
 2647 0054 0132     		adds	r2, r2, #1
 2648              	.LVL188:
 2649              		.loc 1 423 0 discriminator 3
 2650 0056 89EA0303 		eor	r3, r9, r3
 2651              		.loc 1 420 0 discriminator 3
 2652 005a AA42     		cmp	r2, r5
 2653              		.loc 1 423 0 discriminator 3
 2654 005c 00F8013B 		strb	r3, [r0], #1
 2655              		.loc 1 420 0 discriminator 3
 2656 0060 EDD3     		bcc	.L78
 2657              	.LVL189:
 2658              	.L77:
 2659              		.loc 1 426 0
 2660 0062 4146     		mov	r1, r8
 2661 0064 3046     		mov	r0, r6
 2662 0066 FFF7FEFF 		bl	sha512_starts
 2663              	.LVL190:
 2664              	.LBB94:
 2665              	.LBB95:
 2666 006a 3046     		mov	r0, r6
 2667 006c 3946     		mov	r1, r7
 2668 006e 8022     		movs	r2, #128
 2669 0070 FFF7FEFF 		bl	sha512_update.part.0
ARM GAS  C:\Users\jo\AppData\Local\Temp\ccyP7UZh.s 			page 48


 2670              	.LVL191:
 2671              	.LBE95:
 2672              	.LBE94:
 2673              	.LBB96:
 2674              	.LBB97:
 2675              		.loc 1 61 0
 2676 0074 0023     		movs	r3, #0
 2677              	.LVL192:
 2678              	.L79:
 2679 0076 2370     		strb	r3, [r4]
 2680              	.LVL193:
 2681 0078 10AA     		add	r2, sp, #64
 2682 007a 0134     		adds	r4, r4, #1
 2683              	.LVL194:
 2684 007c 9442     		cmp	r4, r2
 2685 007e FAD1     		bne	.L79
 2686              	.LBE97:
 2687              	.LBE96:
 2688              		.loc 1 430 0
 2689 0080 10B0     		add	sp, sp, #64
 2690              		.cfi_remember_state
 2691              		.cfi_def_cfa_offset 32
 2692              		@ sp needed
 2693 0082 BDE8F087 		pop	{r4, r5, r6, r7, r8, r9, r10, pc}
 2694              	.LVL195:
 2695              	.L88:
 2696              		.cfi_restore_state
 2697              		.loc 1 412 0
 2698 0086 0846     		mov	r0, r1
 2699              	.LVL196:
 2700              		.loc 1 417 0
 2701 0088 06F1D007 		add	r7, r6, #208
 2702              		.loc 1 412 0
 2703 008c 1146     		mov	r1, r2
 2704              	.LVL197:
 2705 008e 6A46     		mov	r2, sp
 2706              	.LVL198:
 2707 0090 FFF7FEFF 		bl	sha512
 2708              	.LVL199:
 2709              		.loc 1 418 0
 2710 0094 06F5A879 		add	r9, r6, #336
 2711              		.loc 1 413 0
 2712 0098 B8F1000F 		cmp	r8, #0
 2713              		.loc 1 417 0
 2714 009c 4FF03601 		mov	r1, #54
 2715 00a0 4FF08002 		mov	r2, #128
 2716 00a4 3846     		mov	r0, r7
 2717              		.loc 1 413 0
 2718 00a6 14BF     		ite	ne
 2719 00a8 3025     		movne	r5, #48
 2720              	.LVL200:
 2721 00aa 4025     		moveq	r5, #64
 2722              	.LVL201:
 2723              		.loc 1 417 0
 2724 00ac FFF7FEFF 		bl	memset
 2725              	.LVL202:
 2726              		.loc 1 418 0
ARM GAS  C:\Users\jo\AppData\Local\Temp\ccyP7UZh.s 			page 49


 2727 00b0 4846     		mov	r0, r9
 2728 00b2 5C21     		movs	r1, #92
 2729 00b4 8022     		movs	r2, #128
 2730              		.loc 1 412 0
 2731 00b6 6C46     		mov	r4, sp
 2732              		.loc 1 418 0
 2733 00b8 FFF7FEFF 		bl	memset
 2734              	.LVL203:
 2735 00bc EA46     		mov	r10, sp
 2736 00be B8E7     		b	.L80
 2737              		.cfi_endproc
 2738              	.LFE9:
 2739              		.size	sha512_hmac_starts, .-sha512_hmac_starts
 2740              		.section	.text.sha512_hmac_update,"ax",%progbits
 2741              		.align	2
 2742              		.p2align 4,,15
 2743              		.global	sha512_hmac_update
 2744              		.thumb
 2745              		.thumb_func
 2746              		.type	sha512_hmac_update, %function
 2747              	sha512_hmac_update:
 2748              	.LFB10:
 2749              		.loc 1 437 0
 2750              		.cfi_startproc
 2751              		@ args = 0, pretend = 0, frame = 0
 2752              		@ frame_needed = 0, uses_anonymous_args = 0
 2753              		@ link register save eliminated.
 2754              	.LVL204:
 2755              	.LBB98:
 2756              	.LBB99:
 2757              		.loc 1 271 0
 2758 0000 02B9     		cbnz	r2, .L91
 2759 0002 7047     		bx	lr
 2760              	.L91:
 2761 0004 FFF7FEBF 		b	sha512_update.part.0
 2762              	.LVL205:
 2763              	.LBE99:
 2764              	.LBE98:
 2765              		.cfi_endproc
 2766              	.LFE10:
 2767              		.size	sha512_hmac_update, .-sha512_hmac_update
 2768 0008 AFF30080 		.section	.text.sha512_hmac_finish,"ax",%progbits
 2768      AFF30080 
 2769              		.align	2
 2770              		.p2align 4,,15
 2771              		.global	sha512_hmac_finish
 2772              		.thumb
 2773              		.thumb_func
 2774              		.type	sha512_hmac_finish, %function
 2775              	sha512_hmac_finish:
 2776              	.LFB11:
 2777              		.loc 1 445 0
 2778              		.cfi_startproc
 2779              		@ args = 0, pretend = 0, frame = 64
 2780              		@ frame_needed = 0, uses_anonymous_args = 0
 2781              	.LVL206:
 2782 0000 F0B5     		push	{r4, r5, r6, r7, lr}
ARM GAS  C:\Users\jo\AppData\Local\Temp\ccyP7UZh.s 			page 50


 2783              		.cfi_def_cfa_offset 20
 2784              		.cfi_offset 4, -20
 2785              		.cfi_offset 5, -16
 2786              		.cfi_offset 6, -12
 2787              		.cfi_offset 7, -8
 2788              		.cfi_offset 14, -4
 2789              		.loc 1 449 0
 2790 0002 D0F8D051 		ldr	r5, [r0, #464]
 2791              	.LVL207:
 2792              		.loc 1 445 0
 2793 0006 91B0     		sub	sp, sp, #68
 2794              		.cfi_def_cfa_offset 88
 2795              		.loc 1 450 0
 2796 0008 002D     		cmp	r5, #0
 2797              		.loc 1 445 0
 2798 000a 0446     		mov	r4, r0
 2799 000c 0E46     		mov	r6, r1
 2800              		.loc 1 452 0
 2801 000e 6946     		mov	r1, sp
 2802              	.LVL208:
 2803              		.loc 1 450 0
 2804 0010 0CBF     		ite	eq
 2805 0012 4027     		moveq	r7, #64
 2806 0014 3027     		movne	r7, #48
 2807              		.loc 1 452 0
 2808 0016 FFF7FEFF 		bl	sha512_finish
 2809              	.LVL209:
 2810              		.loc 1 453 0
 2811 001a 2046     		mov	r0, r4
 2812 001c 2946     		mov	r1, r5
 2813 001e FFF7FEFF 		bl	sha512_starts
 2814              	.LVL210:
 2815              	.LBB100:
 2816              	.LBB101:
 2817 0022 2046     		mov	r0, r4
 2818 0024 04F5A871 		add	r1, r4, #336
 2819              	.LVL211:
 2820 0028 8022     		movs	r2, #128
 2821 002a FFF7FEFF 		bl	sha512_update.part.0
 2822              	.LVL212:
 2823              	.LBE101:
 2824              	.LBE100:
 2825              	.LBB102:
 2826              	.LBB103:
 2827 002e 3A46     		mov	r2, r7
 2828 0030 2046     		mov	r0, r4
 2829 0032 6946     		mov	r1, sp
 2830 0034 FFF7FEFF 		bl	sha512_update.part.0
 2831              	.LVL213:
 2832              	.LBE103:
 2833              	.LBE102:
 2834              		.loc 1 456 0
 2835 0038 2046     		mov	r0, r4
 2836 003a 3146     		mov	r1, r6
 2837 003c FFF7FEFF 		bl	sha512_finish
 2838              	.LVL214:
 2839              	.LBB104:
ARM GAS  C:\Users\jo\AppData\Local\Temp\ccyP7UZh.s 			page 51


 2840              	.LBB105:
 2841              		.loc 1 61 0
 2842 0040 6B46     		mov	r3, sp
 2843 0042 0022     		movs	r2, #0
 2844              	.LVL215:
 2845              	.L94:
 2846 0044 1A70     		strb	r2, [r3]
 2847              	.LVL216:
 2848 0046 10A9     		add	r1, sp, #64
 2849 0048 0133     		adds	r3, r3, #1
 2850              	.LVL217:
 2851 004a 8B42     		cmp	r3, r1
 2852 004c FAD1     		bne	.L94
 2853              	.LBE105:
 2854              	.LBE104:
 2855              		.loc 1 459 0
 2856 004e 11B0     		add	sp, sp, #68
 2857              		.cfi_def_cfa_offset 20
 2858              	.LVL218:
 2859              		@ sp needed
 2860 0050 F0BD     		pop	{r4, r5, r6, r7, pc}
 2861              		.cfi_endproc
 2862              	.LFE11:
 2863              		.size	sha512_hmac_finish, .-sha512_hmac_finish
 2864 0052 00BFAFF3 		.section	.text.sha512_hmac_reset,"ax",%progbits
 2864      0080AFF3 
 2864      0080AFF3 
 2864      0080
 2865              		.align	2
 2866              		.p2align 4,,15
 2867              		.global	sha512_hmac_reset
 2868              		.thumb
 2869              		.thumb_func
 2870              		.type	sha512_hmac_reset, %function
 2871              	sha512_hmac_reset:
 2872              	.LFB12:
 2873              		.loc 1 465 0
 2874              		.cfi_startproc
 2875              		@ args = 0, pretend = 0, frame = 0
 2876              		@ frame_needed = 0, uses_anonymous_args = 0
 2877              	.LVL219:
 2878 0000 10B5     		push	{r4, lr}
 2879              		.cfi_def_cfa_offset 8
 2880              		.cfi_offset 4, -8
 2881              		.cfi_offset 14, -4
 2882              		.loc 1 466 0
 2883 0002 D0F8D011 		ldr	r1, [r0, #464]
 2884              		.loc 1 465 0
 2885 0006 0446     		mov	r4, r0
 2886              		.loc 1 466 0
 2887 0008 FFF7FEFF 		bl	sha512_starts
 2888              	.LVL220:
 2889              	.LBB106:
 2890              	.LBB107:
 2891 000c 2046     		mov	r0, r4
 2892 000e 04F1D001 		add	r1, r4, #208
 2893              	.LVL221:
ARM GAS  C:\Users\jo\AppData\Local\Temp\ccyP7UZh.s 			page 52


 2894 0012 8022     		movs	r2, #128
 2895              	.LBE107:
 2896              	.LBE106:
 2897              		.loc 1 468 0
 2898 0014 BDE81040 		pop	{r4, lr}
 2899              		.cfi_restore 14
 2900              		.cfi_restore 4
 2901              		.cfi_def_cfa_offset 0
 2902              	.LVL222:
 2903              	.LBB109:
 2904              	.LBB108:
 2905 0018 FFF7FEBF 		b	sha512_update.part.0
 2906              	.LVL223:
 2907              	.LBE108:
 2908              	.LBE109:
 2909              		.cfi_endproc
 2910              	.LFE12:
 2911              		.size	sha512_hmac_reset, .-sha512_hmac_reset
 2912 001c AFF30080 		.section	.text.sha512_hmac,"ax",%progbits
 2913              		.align	2
 2914              		.p2align 4,,15
 2915              		.global	sha512_hmac
 2916              		.thumb
 2917              		.thumb_func
 2918              		.type	sha512_hmac, %function
 2919              	sha512_hmac:
 2920              	.LFB13:
 2921              		.loc 1 476 0
 2922              		.cfi_startproc
 2923              		@ args = 8, pretend = 0, frame = 472
 2924              		@ frame_needed = 0, uses_anonymous_args = 0
 2925              	.LVL224:
 2926 0000 F0B5     		push	{r4, r5, r6, r7, lr}
 2927              		.cfi_def_cfa_offset 20
 2928              		.cfi_offset 4, -20
 2929              		.cfi_offset 5, -16
 2930              		.cfi_offset 6, -12
 2931              		.cfi_offset 7, -8
 2932              		.cfi_offset 14, -4
 2933 0002 F7B0     		sub	sp, sp, #476
 2934              		.cfi_def_cfa_offset 496
 2935              	.LVL225:
 2936              		.loc 1 476 0
 2937 0004 0646     		mov	r6, r0
 2938 0006 0D46     		mov	r5, r1
 2939 0008 1746     		mov	r7, r2
 2940              	.LBB110:
 2941              	.LBB111:
 2942              		.loc 1 146 0
 2943 000a 0021     		movs	r1, #0
 2944              	.LVL226:
 2945 000c 4FF4EC72 		mov	r2, #472
 2946              	.LVL227:
 2947 0010 6846     		mov	r0, sp
 2948              	.LVL228:
 2949              	.LBE111:
 2950              	.LBE110:
ARM GAS  C:\Users\jo\AppData\Local\Temp\ccyP7UZh.s 			page 53


 2951              		.loc 1 476 0
 2952 0012 1C46     		mov	r4, r3
 2953              	.LBB113:
 2954              	.LBB112:
 2955              		.loc 1 146 0
 2956 0014 FFF7FEFF 		bl	memset
 2957              	.LVL229:
 2958              	.LBE112:
 2959              	.LBE113:
 2960              		.loc 1 480 0
 2961 0018 6846     		mov	r0, sp
 2962 001a 3146     		mov	r1, r6
 2963 001c 2A46     		mov	r2, r5
 2964 001e 7D9B     		ldr	r3, [sp, #500]
 2965 0020 FFF7FEFF 		bl	sha512_hmac_starts
 2966              	.LVL230:
 2967              	.LBB114:
 2968              	.LBB115:
 2969              	.LBB116:
 2970              		.loc 1 271 0
 2971 0024 64B9     		cbnz	r4, .L108
 2972              	.L101:
 2973              	.LBE116:
 2974              	.LBE115:
 2975              	.LBE114:
 2976              		.loc 1 482 0
 2977 0026 6846     		mov	r0, sp
 2978 0028 7C99     		ldr	r1, [sp, #496]
 2979 002a FFF7FEFF 		bl	sha512_hmac_finish
 2980              	.LVL231:
 2981 002e 6B46     		mov	r3, sp
 2982              	.LBB119:
 2983              	.LBB120:
 2984              	.LBB121:
 2985              		.loc 1 61 0
 2986 0030 0022     		movs	r2, #0
 2987              	.LVL232:
 2988              	.L102:
 2989 0032 1A70     		strb	r2, [r3]
 2990              	.LVL233:
 2991 0034 76A9     		add	r1, sp, #472
 2992 0036 0133     		adds	r3, r3, #1
 2993              	.LVL234:
 2994 0038 8B42     		cmp	r3, r1
 2995 003a FAD1     		bne	.L102
 2996              	.LBE121:
 2997              	.LBE120:
 2998              	.LBE119:
 2999              		.loc 1 484 0
 3000 003c 77B0     		add	sp, sp, #476
 3001              		.cfi_remember_state
 3002              		.cfi_def_cfa_offset 20
 3003              	.LVL235:
 3004              		@ sp needed
 3005 003e F0BD     		pop	{r4, r5, r6, r7, pc}
 3006              	.LVL236:
 3007              	.L108:
ARM GAS  C:\Users\jo\AppData\Local\Temp\ccyP7UZh.s 			page 54


 3008              		.cfi_restore_state
 3009              	.LBB122:
 3010              	.LBB118:
 3011              	.LBB117:
 3012 0040 3946     		mov	r1, r7
 3013 0042 2246     		mov	r2, r4
 3014 0044 6846     		mov	r0, sp
 3015 0046 FFF7FEFF 		bl	sha512_update.part.0
 3016              	.LVL237:
 3017 004a ECE7     		b	.L101
 3018              	.LBE117:
 3019              	.LBE118:
 3020              	.LBE122:
 3021              		.cfi_endproc
 3022              	.LFE13:
 3023              		.size	sha512_hmac, .-sha512_hmac
 3024 004c AFF30080 		.section	.text.sha512_self_test,"ax",%progbits
 3025              		.align	2
 3026              		.p2align 4,,15
 3027              		.global	sha512_self_test
 3028              		.thumb
 3029              		.thumb_func
 3030              		.type	sha512_self_test, %function
 3031              	sha512_self_test:
 3032              	.LFB14:
 3033              		.loc 1 709 0
 3034              		.cfi_startproc
 3035              		@ args = 0, pretend = 0, frame = 1568
 3036              		@ frame_needed = 0, uses_anonymous_args = 0
 3037              	.LVL238:
 3038 0000 2DE9F04F 		push	{r4, r5, r6, r7, r8, r9, r10, fp, lr}
 3039              		.cfi_def_cfa_offset 36
 3040              		.cfi_offset 4, -36
 3041              		.cfi_offset 5, -32
 3042              		.cfi_offset 6, -28
 3043              		.cfi_offset 7, -24
 3044              		.cfi_offset 8, -20
 3045              		.cfi_offset 9, -16
 3046              		.cfi_offset 10, -12
 3047              		.cfi_offset 11, -8
 3048              		.cfi_offset 14, -4
 3049 0004 ADF2246D 		subw	sp, sp, #1572
 3050              		.cfi_def_cfa_offset 1608
 3051              	.LVL239:
 3052              		.loc 1 709 0
 3053 0008 0746     		mov	r7, r0
 3054              	.LBB123:
 3055              	.LBB124:
 3056              		.loc 1 146 0
 3057 000a 0021     		movs	r1, #0
 3058 000c 12A8     		add	r0, sp, #72
 3059              	.LVL240:
 3060 000e 4FF4EC72 		mov	r2, #472
 3061 0012 FFF7FEFF 		bl	memset
 3062              	.LVL241:
 3063 0016 DFF81882 		ldr	r8, .L167+32
 3064              	.LBE124:
ARM GAS  C:\Users\jo\AppData\Local\Temp\ccyP7UZh.s 			page 55


 3065              	.LBE123:
 3066              		.loc 1 719 0
 3067 001a DFF818A2 		ldr	r10, .L167+36
 3068              		.loc 1 736 0
 3069 001e DFF818B2 		ldr	fp, .L167+40
 3070              		.loc 1 717 0
 3071 0022 0026     		movs	r6, #0
 3072 0024 88AD     		add	r5, sp, #544
 3073              	.LVL242:
 3074              	.L119:
 3075              		.loc 1 719 0
 3076 0026 8AFB0634 		smull	r3, r4, r10, r6
 3077              		.loc 1 720 0
 3078 002a 022E     		cmp	r6, #2
 3079              		.loc 1 719 0
 3080 002c A4EBE674 		sub	r4, r4, r6, asr #31
 3081 0030 04EB4404 		add	r4, r4, r4, lsl #1
 3082              		.loc 1 720 0
 3083 0034 CCBF     		ite	gt
 3084 0036 0023     		movgt	r3, #0
 3085 0038 0123     		movle	r3, #1
 3086              		.loc 1 719 0
 3087 003a 341B     		subs	r4, r6, r4
 3088              	.LVL243:
 3089              		.loc 1 723 0
 3090 003c C3F10409 		rsb	r9, r3, #4
 3091              		.loc 1 722 0
 3092 0040 002F     		cmp	r7, #0
 3093 0042 40F09C80 		bne	.L156
 3094              		.loc 1 725 0
 3095 0046 1946     		mov	r1, r3
 3096 0048 12A8     		add	r0, sp, #72
 3097              	.LVL244:
 3098 004a FFF7FEFF 		bl	sha512_starts
 3099              	.LVL245:
 3100              		.loc 1 727 0
 3101 004e 022C     		cmp	r4, #2
 3102 0050 00F0A480 		beq	.L157
 3103              	.L112:
 3104              		.loc 1 735 0
 3105 0054 5BF82420 		ldr	r2, [fp, r4, lsl #2]
 3106              	.LVL246:
 3107              	.LBB125:
 3108              	.LBB126:
 3109              		.loc 1 271 0
 3110 0058 002A     		cmp	r2, #0
 3111 005a 40F0B480 		bne	.L158
 3112              	.LVL247:
 3113              	.L114:
 3114              	.LBE126:
 3115              	.LBE125:
 3116              		.loc 1 738 0
 3117 005e 12A8     		add	r0, sp, #72
 3118              	.LVL248:
 3119 0060 02A9     		add	r1, sp, #8
 3120 0062 FFF7FEFF 		bl	sha512_finish
 3121              	.LVL249:
ARM GAS  C:\Users\jo\AppData\Local\Temp\ccyP7UZh.s 			page 56


 3122              		.loc 1 740 0
 3123 0066 02A8     		add	r0, sp, #8
 3124 0068 4146     		mov	r1, r8
 3125 006a 4FEA0912 		lsl	r2, r9, #4
 3126 006e FFF7FEFF 		bl	memcmp
 3127              	.LVL250:
 3128 0072 0028     		cmp	r0, #0
 3129 0074 40F0B180 		bne	.L126
 3130              		.loc 1 749 0
 3131 0078 002F     		cmp	r7, #0
 3132 007a 40F0A080 		bne	.L159
 3133              	.L118:
 3134              		.loc 1 717 0 discriminator 2
 3135 007e 0136     		adds	r6, r6, #1
 3136              	.LVL251:
 3137 0080 062E     		cmp	r6, #6
 3138 0082 08F14008 		add	r8, r8, #64
 3139 0086 CED1     		bne	.L119
 3140              		.loc 1 753 0
 3141 0088 002F     		cmp	r7, #0
 3142 008a 40F0B280 		bne	.L160
 3143              	.L120:
 3144              	.LVL252:
 3145 008e DFF8AC81 		ldr	r8, .L167+44
 3146 0092 DFF8ACA1 		ldr	r10, .L167+48
 3147              		.loc 1 758 0 discriminator 1
 3148 0096 DFF8AC91 		ldr	r9, .L167+52
 3149              		.loc 1 729 0 discriminator 1
 3150 009a 4FF0000B 		mov	fp, #0
 3151 009e 2AE0     		b	.L128
 3152              	.LVL253:
 3153              	.L121:
 3154              		.loc 1 764 0
 3155 00a0 631F     		subs	r3, r4, #5
 3156 00a2 012B     		cmp	r3, #1
 3157 00a4 44D9     		bls	.L161
 3158              	.L122:
 3159              		.loc 1 771 0
 3160 00a6 5A4B     		ldr	r3, .L167
 3161              		.loc 1 770 0
 3162 00a8 53F82420 		ldr	r2, [r3, r4, lsl #2]
 3163 00ac 594B     		ldr	r3, .L167+4
 3164 00ae 1A21     		movs	r1, #26
 3165 00b0 01FB0431 		mla	r1, r1, r4, r3
 3166 00b4 12A8     		add	r0, sp, #72
 3167              	.LVL254:
 3168 00b6 3346     		mov	r3, r6
 3169 00b8 FFF7FEFF 		bl	sha512_hmac_starts
 3170              	.LVL255:
 3171              		.loc 1 773 0
 3172 00bc 5AF82420 		ldr	r2, [r10, r4, lsl #2]
 3173              	.LVL256:
 3174              	.LBB128:
 3175              	.LBB129:
 3176              	.LBB130:
 3177              		.loc 1 271 0
 3178 00c0 002A     		cmp	r2, #0
ARM GAS  C:\Users\jo\AppData\Local\Temp\ccyP7UZh.s 			page 57


 3179 00c2 44D1     		bne	.L162
 3180              	.LVL257:
 3181              	.L124:
 3182              	.LBE130:
 3183              	.LBE129:
 3184              	.LBE128:
 3185              		.loc 1 776 0
 3186 00c4 12A8     		add	r0, sp, #72
 3187              	.LVL258:
 3188 00c6 02A9     		add	r1, sp, #8
 3189 00c8 FFF7FEFF 		bl	sha512_hmac_finish
 3190              	.LVL259:
 3191              		.loc 1 778 0
 3192 00cc 042C     		cmp	r4, #4
 3193 00ce 1ABF     		itte	ne
 3194 00d0 C6F10402 		rsbne	r2, r6, #4
 3195 00d4 1201     		lslne	r2, r2, #4
 3196 00d6 1022     		moveq	r2, #16
 3197              		.loc 1 780 0
 3198 00d8 02A8     		add	r0, sp, #8
 3199 00da 4146     		mov	r1, r8
 3200 00dc FFF7FEFF 		bl	memcmp
 3201              	.LVL260:
 3202 00e0 0028     		cmp	r0, #0
 3203 00e2 7AD1     		bne	.L126
 3204              		.loc 1 789 0
 3205 00e4 002F     		cmp	r7, #0
 3206 00e6 3CD1     		bne	.L163
 3207              		.loc 1 756 0 discriminator 2
 3208 00e8 0BF1010B 		add	fp, fp, #1
 3209              	.LVL261:
 3210 00ec BBF10E0F 		cmp	fp, #14
 3211 00f0 08F14008 		add	r8, r8, #64
 3212 00f4 3FD0     		beq	.L164
 3213              	.LVL262:
 3214              	.L128:
 3215              		.loc 1 758 0
 3216 00f6 8BFB0923 		smull	r2, r3, fp, r9
 3217 00fa 0BEB0304 		add	r4, fp, r3
 3218 00fe 4FEAEB73 		asr	r3, fp, #31
 3219 0102 C3EBA404 		rsb	r4, r3, r4, asr #2
 3220              		.loc 1 759 0
 3221 0106 BBF1060F 		cmp	fp, #6
 3222              		.loc 1 758 0
 3223 010a C4EBC404 		rsb	r4, r4, r4, lsl #3
 3224 010e C4EB0B04 		rsb	r4, r4, fp
 3225              	.LVL263:
 3226              		.loc 1 759 0
 3227 0112 CCBF     		ite	gt
 3228 0114 0026     		movgt	r6, #0
 3229 0116 0126     		movle	r6, #1
 3230              	.LVL264:
 3231              		.loc 1 761 0
 3232 0118 002F     		cmp	r7, #0
 3233 011a C1D0     		beq	.L121
 3234              		.loc 1 762 0
 3235 011c C6F10401 		rsb	r1, r6, #4
ARM GAS  C:\Users\jo\AppData\Local\Temp\ccyP7UZh.s 			page 58


 3236 0120 C901     		lsls	r1, r1, #7
 3237 0122 3D48     		ldr	r0, .L167+8
 3238 0124 621C     		adds	r2, r4, #1
 3239 0126 FFF7FEFF 		bl	printf
 3240              	.LVL265:
 3241              		.loc 1 764 0
 3242 012a 631F     		subs	r3, r4, #5
 3243 012c 012B     		cmp	r3, #1
 3244 012e BAD8     		bhi	.L122
 3245              	.L161:
 3246              	.LVL266:
 3247              		.loc 1 766 0
 3248 0130 AA21     		movs	r1, #170
 3249 0132 8322     		movs	r2, #131
 3250 0134 2846     		mov	r0, r5
 3251 0136 FFF7FEFF 		bl	memset
 3252              	.LVL267:
 3253              		.loc 1 767 0
 3254 013a 8322     		movs	r2, #131
 3255 013c 12A8     		add	r0, sp, #72
 3256              	.LVL268:
 3257 013e 2946     		mov	r1, r5
 3258 0140 3346     		mov	r3, r6
 3259 0142 FFF7FEFF 		bl	sha512_hmac_starts
 3260              	.LVL269:
 3261              		.loc 1 773 0
 3262 0146 5AF82420 		ldr	r2, [r10, r4, lsl #2]
 3263              	.LVL270:
 3264              	.LBB135:
 3265              	.LBB133:
 3266              	.LBB131:
 3267              		.loc 1 271 0
 3268 014a 002A     		cmp	r2, #0
 3269 014c BAD0     		beq	.L124
 3270              	.LVL271:
 3271              	.L162:
 3272              	.LBE131:
 3273              	.LBE133:
 3274              	.LBE135:
 3275              		.loc 1 773 0
 3276 014e 04EBC403 		add	r3, r4, r4, lsl #3
 3277 0152 3248     		ldr	r0, .L167+12
 3278 0154 03EB0311 		add	r1, r3, r3, lsl #4
 3279              	.LBB136:
 3280              	.LBB134:
 3281              	.LBB132:
 3282 0158 0144     		add	r1, r1, r0
 3283 015a 12A8     		add	r0, sp, #72
 3284              	.LVL272:
 3285 015c FFF7FEFF 		bl	sha512_update.part.0
 3286              	.LVL273:
 3287 0160 B0E7     		b	.L124
 3288              	.L163:
 3289              	.LBE132:
 3290              	.LBE134:
 3291              	.LBE136:
 3292              		.loc 1 790 0
ARM GAS  C:\Users\jo\AppData\Local\Temp\ccyP7UZh.s 			page 59


 3293 0162 2F48     		ldr	r0, .L167+16
 3294              		.loc 1 756 0
 3295 0164 0BF1010B 		add	fp, fp, #1
 3296              	.LVL274:
 3297              		.loc 1 790 0
 3298 0168 FFF7FEFF 		bl	puts
 3299              	.LVL275:
 3300              		.loc 1 756 0
 3301 016c BBF10E0F 		cmp	fp, #14
 3302 0170 08F14008 		add	r8, r8, #64
 3303 0174 BFD1     		bne	.L128
 3304              	.L164:
 3305              		.loc 1 793 0
 3306 0176 002F     		cmp	r7, #0
 3307 0178 44D1     		bne	.L165
 3308              		.loc 1 710 0
 3309 017a 3846     		mov	r0, r7
 3310 017c 2FE0     		b	.L117
 3311              	.LVL276:
 3312              	.L156:
 3313              		.loc 1 723 0
 3314 017e 4FEAC911 		lsl	r1, r9, #7
 3315 0182 621C     		adds	r2, r4, #1
 3316 0184 2748     		ldr	r0, .L167+20
 3317 0186 0193     		str	r3, [sp, #4]
 3318 0188 FFF7FEFF 		bl	printf
 3319              	.LVL277:
 3320 018c 019B     		ldr	r3, [sp, #4]
 3321              		.loc 1 725 0
 3322 018e 12A8     		add	r0, sp, #72
 3323              	.LVL278:
 3324 0190 1946     		mov	r1, r3
 3325 0192 FFF7FEFF 		bl	sha512_starts
 3326              	.LVL279:
 3327              		.loc 1 727 0
 3328 0196 022C     		cmp	r4, #2
 3329 0198 7FF45CAF 		bne	.L112
 3330              	.LVL280:
 3331              	.L157:
 3332              		.loc 1 729 0
 3333 019c 2846     		mov	r0, r5
 3334 019e 6121     		movs	r1, #97
 3335 01a0 4FF47A72 		mov	r2, #1000
 3336 01a4 FFF7FEFF 		bl	memset
 3337              	.LVL281:
 3338 01a8 4FF47A74 		mov	r4, #1000
 3339              	.LVL282:
 3340              	.L113:
 3341              	.LBB137:
 3342              	.LBB138:
 3343 01ac 12A8     		add	r0, sp, #72
 3344              	.LVL283:
 3345 01ae 2946     		mov	r1, r5
 3346 01b0 4FF47A72 		mov	r2, #1000
 3347 01b4 FFF7FEFF 		bl	sha512_update.part.0
 3348              	.LVL284:
 3349              	.LBE138:
ARM GAS  C:\Users\jo\AppData\Local\Temp\ccyP7UZh.s 			page 60


 3350              	.LBE137:
 3351              		.loc 1 731 0 discriminator 3
 3352 01b8 013C     		subs	r4, r4, #1
 3353              	.LVL285:
 3354 01ba F7D1     		bne	.L113
 3355 01bc 4FE7     		b	.L114
 3356              	.LVL286:
 3357              	.L159:
 3358              		.loc 1 750 0
 3359 01be 1848     		ldr	r0, .L167+16
 3360 01c0 FFF7FEFF 		bl	puts
 3361              	.LVL287:
 3362 01c4 5BE7     		b	.L118
 3363              	.LVL288:
 3364              	.L158:
 3365              		.loc 1 735 0
 3366 01c6 C4EBC403 		rsb	r3, r4, r4, lsl #3
 3367 01ca 1749     		ldr	r1, .L167+24
 3368 01cc 04EB0314 		add	r4, r4, r3, lsl #4
 3369              	.LVL289:
 3370              	.LBB139:
 3371              	.LBB127:
 3372 01d0 2144     		add	r1, r1, r4
 3373 01d2 12A8     		add	r0, sp, #72
 3374              	.LVL290:
 3375 01d4 FFF7FEFF 		bl	sha512_update.part.0
 3376              	.LVL291:
 3377 01d8 41E7     		b	.L114
 3378              	.LVL292:
 3379              	.L126:
 3380              	.LBE127:
 3381              	.LBE139:
 3382              		.loc 1 745 0
 3383 01da 0120     		movs	r0, #1
 3384              		.loc 1 742 0
 3385 01dc 6FB9     		cbnz	r7, .L166
 3386              	.L117:
 3387              	.LVL293:
 3388 01de 12AB     		add	r3, sp, #72
 3389              	.LVL294:
 3390              	.LBB140:
 3391              	.LBB141:
 3392              	.LBB142:
 3393              		.loc 1 61 0
 3394 01e0 0022     		movs	r2, #0
 3395              	.LVL295:
 3396              	.L129:
 3397 01e2 1A70     		strb	r2, [r3]
 3398              	.LVL296:
 3399 01e4 0133     		adds	r3, r3, #1
 3400              	.LVL297:
 3401 01e6 AB42     		cmp	r3, r5
 3402 01e8 FBD1     		bne	.L129
 3403              	.LBE142:
 3404              	.LBE141:
 3405              	.LBE140:
 3406              		.loc 1 800 0
ARM GAS  C:\Users\jo\AppData\Local\Temp\ccyP7UZh.s 			page 61


 3407 01ea 0DF2246D 		addw	sp, sp, #1572
 3408              		.cfi_remember_state
 3409              		.cfi_def_cfa_offset 36
 3410              		@ sp needed
 3411 01ee BDE8F08F 		pop	{r4, r5, r6, r7, r8, r9, r10, fp, pc}
 3412              	.LVL298:
 3413              	.L160:
 3414              		.cfi_restore_state
 3415              		.loc 1 754 0
 3416 01f2 0A20     		movs	r0, #10
 3417 01f4 FFF7FEFF 		bl	putchar
 3418              	.LVL299:
 3419 01f8 49E7     		b	.L120
 3420              	.LVL300:
 3421              	.L166:
 3422              		.loc 1 743 0
 3423 01fa 0C48     		ldr	r0, .L167+28
 3424 01fc FFF7FEFF 		bl	puts
 3425              	.LVL301:
 3426              		.loc 1 745 0
 3427 0200 0120     		movs	r0, #1
 3428 0202 ECE7     		b	.L117
 3429              	.LVL302:
 3430              	.L165:
 3431              		.loc 1 794 0
 3432 0204 0A20     		movs	r0, #10
 3433 0206 FFF7FEFF 		bl	putchar
 3434              	.LVL303:
 3435              		.loc 1 710 0
 3436 020a 0020     		movs	r0, #0
 3437 020c E7E7     		b	.L117
 3438              	.L168:
 3439 020e 00BF     		.align	2
 3440              	.L167:
 3441 0210 00000000 		.word	.LANCHOR7
 3442 0214 00000000 		.word	.LANCHOR6
 3443 0218 28000000 		.word	.LC4
 3444 021c 00000000 		.word	.LANCHOR9
 3445 0220 20000000 		.word	.LC3
 3446 0224 04000000 		.word	.LC1
 3447 0228 00000000 		.word	.LANCHOR4
 3448 022c 18000000 		.word	.LC2
 3449 0230 00000000 		.word	.LANCHOR2
 3450 0234 56555555 		.word	1431655766
 3451 0238 00000000 		.word	.LANCHOR3
 3452 023c 00000000 		.word	.LANCHOR5
 3453 0240 00000000 		.word	.LANCHOR8
 3454 0244 93244992 		.word	-1840700269
 3455              		.cfi_endproc
 3456              	.LFE14:
 3457              		.size	sha512_self_test, .-sha512_self_test
 3458 0248 AFF30080 		.section	.rodata.sha512_test_buflen,"a",%progbits
 3458      AFF30080 
 3459              		.align	2
 3460              		.set	.LANCHOR3,. + 0
 3461              		.type	sha512_test_buflen, %object
 3462              		.size	sha512_test_buflen, 12
ARM GAS  C:\Users\jo\AppData\Local\Temp\ccyP7UZh.s 			page 62


 3463              	sha512_test_buflen:
 3464 0000 03000000 		.word	3
 3465 0004 70000000 		.word	112
 3466 0008 E8030000 		.word	1000
 3467              		.section	.rodata.sha512_test_sum,"a",%progbits
 3468              		.align	2
 3469              		.set	.LANCHOR2,. + 0
 3470              		.type	sha512_test_sum, %object
 3471              		.size	sha512_test_sum, 384
 3472              	sha512_test_sum:
 3473 0000 CB       		.byte	-53
 3474 0001 00       		.byte	0
 3475 0002 75       		.byte	117
 3476 0003 3F       		.byte	63
 3477 0004 45       		.byte	69
 3478 0005 A3       		.byte	-93
 3479 0006 5E       		.byte	94
 3480 0007 8B       		.byte	-117
 3481 0008 B5       		.byte	-75
 3482 0009 A0       		.byte	-96
 3483 000a 3D       		.byte	61
 3484 000b 69       		.byte	105
 3485 000c 9A       		.byte	-102
 3486 000d C6       		.byte	-58
 3487 000e 50       		.byte	80
 3488 000f 07       		.byte	7
 3489 0010 27       		.byte	39
 3490 0011 2C       		.byte	44
 3491 0012 32       		.byte	50
 3492 0013 AB       		.byte	-85
 3493 0014 0E       		.byte	14
 3494 0015 DE       		.byte	-34
 3495 0016 D1       		.byte	-47
 3496 0017 63       		.byte	99
 3497 0018 1A       		.byte	26
 3498 0019 8B       		.byte	-117
 3499 001a 60       		.byte	96
 3500 001b 5A       		.byte	90
 3501 001c 43       		.byte	67
 3502 001d FF       		.byte	-1
 3503 001e 5B       		.byte	91
 3504 001f ED       		.byte	-19
 3505 0020 80       		.byte	-128
 3506 0021 86       		.byte	-122
 3507 0022 07       		.byte	7
 3508 0023 2B       		.byte	43
 3509 0024 A1       		.byte	-95
 3510 0025 E7       		.byte	-25
 3511 0026 CC       		.byte	-52
 3512 0027 23       		.byte	35
 3513 0028 58       		.byte	88
 3514 0029 BA       		.byte	-70
 3515 002a EC       		.byte	-20
 3516 002b A1       		.byte	-95
 3517 002c 34       		.byte	52
 3518 002d C8       		.byte	-56
 3519 002e 25       		.byte	37
ARM GAS  C:\Users\jo\AppData\Local\Temp\ccyP7UZh.s 			page 63


 3520 002f A7       		.byte	-89
 3521 0030 00000000 		.space	16
 3521      00000000 
 3521      00000000 
 3521      00000000 
 3522 0040 09       		.byte	9
 3523 0041 33       		.byte	51
 3524 0042 0C       		.byte	12
 3525 0043 33       		.byte	51
 3526 0044 F7       		.byte	-9
 3527 0045 11       		.byte	17
 3528 0046 47       		.byte	71
 3529 0047 E8       		.byte	-24
 3530 0048 3D       		.byte	61
 3531 0049 19       		.byte	25
 3532 004a 2F       		.byte	47
 3533 004b C7       		.byte	-57
 3534 004c 82       		.byte	-126
 3535 004d CD       		.byte	-51
 3536 004e 1B       		.byte	27
 3537 004f 47       		.byte	71
 3538 0050 53       		.byte	83
 3539 0051 11       		.byte	17
 3540 0052 1B       		.byte	27
 3541 0053 17       		.byte	23
 3542 0054 3B       		.byte	59
 3543 0055 3B       		.byte	59
 3544 0056 05       		.byte	5
 3545 0057 D2       		.byte	-46
 3546 0058 2F       		.byte	47
 3547 0059 A0       		.byte	-96
 3548 005a 80       		.byte	-128
 3549 005b 86       		.byte	-122
 3550 005c E3       		.byte	-29
 3551 005d B0       		.byte	-80
 3552 005e F7       		.byte	-9
 3553 005f 12       		.byte	18
 3554 0060 FC       		.byte	-4
 3555 0061 C7       		.byte	-57
 3556 0062 C7       		.byte	-57
 3557 0063 1A       		.byte	26
 3558 0064 55       		.byte	85
 3559 0065 7E       		.byte	126
 3560 0066 2D       		.byte	45
 3561 0067 B9       		.byte	-71
 3562 0068 66       		.byte	102
 3563 0069 C3       		.byte	-61
 3564 006a E9       		.byte	-23
 3565 006b FA       		.byte	-6
 3566 006c 91       		.byte	-111
 3567 006d 74       		.byte	116
 3568 006e 60       		.byte	96
 3569 006f 39       		.byte	57
 3570 0070 00000000 		.space	16
 3570      00000000 
 3570      00000000 
 3570      00000000 
ARM GAS  C:\Users\jo\AppData\Local\Temp\ccyP7UZh.s 			page 64


 3571 0080 9D       		.byte	-99
 3572 0081 0E       		.byte	14
 3573 0082 18       		.byte	24
 3574 0083 09       		.byte	9
 3575 0084 71       		.byte	113
 3576 0085 64       		.byte	100
 3577 0086 74       		.byte	116
 3578 0087 CB       		.byte	-53
 3579 0088 08       		.byte	8
 3580 0089 6E       		.byte	110
 3581 008a 83       		.byte	-125
 3582 008b 4E       		.byte	78
 3583 008c 31       		.byte	49
 3584 008d 0A       		.byte	10
 3585 008e 4A       		.byte	74
 3586 008f 1C       		.byte	28
 3587 0090 ED       		.byte	-19
 3588 0091 14       		.byte	20
 3589 0092 9E       		.byte	-98
 3590 0093 9C       		.byte	-100
 3591 0094 00       		.byte	0
 3592 0095 F2       		.byte	-14
 3593 0096 48       		.byte	72
 3594 0097 52       		.byte	82
 3595 0098 79       		.byte	121
 3596 0099 72       		.byte	114
 3597 009a CE       		.byte	-50
 3598 009b C5       		.byte	-59
 3599 009c 70       		.byte	112
 3600 009d 4C       		.byte	76
 3601 009e 2A       		.byte	42
 3602 009f 5B       		.byte	91
 3603 00a0 07       		.byte	7
 3604 00a1 B8       		.byte	-72
 3605 00a2 B3       		.byte	-77
 3606 00a3 DC       		.byte	-36
 3607 00a4 38       		.byte	56
 3608 00a5 EC       		.byte	-20
 3609 00a6 C4       		.byte	-60
 3610 00a7 EB       		.byte	-21
 3611 00a8 AE       		.byte	-82
 3612 00a9 97       		.byte	-105
 3613 00aa DD       		.byte	-35
 3614 00ab D8       		.byte	-40
 3615 00ac 7F       		.byte	127
 3616 00ad 3D       		.byte	61
 3617 00ae 89       		.byte	-119
 3618 00af 85       		.byte	-123
 3619 00b0 00000000 		.space	16
 3619      00000000 
 3619      00000000 
 3619      00000000 
 3620 00c0 DD       		.byte	-35
 3621 00c1 AF       		.byte	-81
 3622 00c2 35       		.byte	53
 3623 00c3 A1       		.byte	-95
 3624 00c4 93       		.byte	-109
ARM GAS  C:\Users\jo\AppData\Local\Temp\ccyP7UZh.s 			page 65


 3625 00c5 61       		.byte	97
 3626 00c6 7A       		.byte	122
 3627 00c7 BA       		.byte	-70
 3628 00c8 CC       		.byte	-52
 3629 00c9 41       		.byte	65
 3630 00ca 73       		.byte	115
 3631 00cb 49       		.byte	73
 3632 00cc AE       		.byte	-82
 3633 00cd 20       		.byte	32
 3634 00ce 41       		.byte	65
 3635 00cf 31       		.byte	49
 3636 00d0 12       		.byte	18
 3637 00d1 E6       		.byte	-26
 3638 00d2 FA       		.byte	-6
 3639 00d3 4E       		.byte	78
 3640 00d4 89       		.byte	-119
 3641 00d5 A9       		.byte	-87
 3642 00d6 7E       		.byte	126
 3643 00d7 A2       		.byte	-94
 3644 00d8 0A       		.byte	10
 3645 00d9 9E       		.byte	-98
 3646 00da EE       		.byte	-18
 3647 00db E6       		.byte	-26
 3648 00dc 4B       		.byte	75
 3649 00dd 55       		.byte	85
 3650 00de D3       		.byte	-45
 3651 00df 9A       		.byte	-102
 3652 00e0 21       		.byte	33
 3653 00e1 92       		.byte	-110
 3654 00e2 99       		.byte	-103
 3655 00e3 2A       		.byte	42
 3656 00e4 27       		.byte	39
 3657 00e5 4F       		.byte	79
 3658 00e6 C1       		.byte	-63
 3659 00e7 A8       		.byte	-88
 3660 00e8 36       		.byte	54
 3661 00e9 BA       		.byte	-70
 3662 00ea 3C       		.byte	60
 3663 00eb 23       		.byte	35
 3664 00ec A3       		.byte	-93
 3665 00ed FE       		.byte	-2
 3666 00ee EB       		.byte	-21
 3667 00ef BD       		.byte	-67
 3668 00f0 45       		.byte	69
 3669 00f1 4D       		.byte	77
 3670 00f2 44       		.byte	68
 3671 00f3 23       		.byte	35
 3672 00f4 64       		.byte	100
 3673 00f5 3C       		.byte	60
 3674 00f6 E8       		.byte	-24
 3675 00f7 0E       		.byte	14
 3676 00f8 2A       		.byte	42
 3677 00f9 9A       		.byte	-102
 3678 00fa C9       		.byte	-55
 3679 00fb 4F       		.byte	79
 3680 00fc A5       		.byte	-91
 3681 00fd 4C       		.byte	76
ARM GAS  C:\Users\jo\AppData\Local\Temp\ccyP7UZh.s 			page 66


 3682 00fe A4       		.byte	-92
 3683 00ff 9F       		.byte	-97
 3684 0100 8E       		.byte	-114
 3685 0101 95       		.byte	-107
 3686 0102 9B       		.byte	-101
 3687 0103 75       		.byte	117
 3688 0104 DA       		.byte	-38
 3689 0105 E3       		.byte	-29
 3690 0106 13       		.byte	19
 3691 0107 DA       		.byte	-38
 3692 0108 8C       		.byte	-116
 3693 0109 F4       		.byte	-12
 3694 010a F7       		.byte	-9
 3695 010b 28       		.byte	40
 3696 010c 14       		.byte	20
 3697 010d FC       		.byte	-4
 3698 010e 14       		.byte	20
 3699 010f 3F       		.byte	63
 3700 0110 8F       		.byte	-113
 3701 0111 77       		.byte	119
 3702 0112 79       		.byte	121
 3703 0113 C6       		.byte	-58
 3704 0114 EB       		.byte	-21
 3705 0115 9F       		.byte	-97
 3706 0116 7F       		.byte	127
 3707 0117 A1       		.byte	-95
 3708 0118 72       		.byte	114
 3709 0119 99       		.byte	-103
 3710 011a AE       		.byte	-82
 3711 011b AD       		.byte	-83
 3712 011c B6       		.byte	-74
 3713 011d 88       		.byte	-120
 3714 011e 90       		.byte	-112
 3715 011f 18       		.byte	24
 3716 0120 50       		.byte	80
 3717 0121 1D       		.byte	29
 3718 0122 28       		.byte	40
 3719 0123 9E       		.byte	-98
 3720 0124 49       		.byte	73
 3721 0125 00       		.byte	0
 3722 0126 F7       		.byte	-9
 3723 0127 E4       		.byte	-28
 3724 0128 33       		.byte	51
 3725 0129 1B       		.byte	27
 3726 012a 99       		.byte	-103
 3727 012b DE       		.byte	-34
 3728 012c C4       		.byte	-60
 3729 012d B5       		.byte	-75
 3730 012e 43       		.byte	67
 3731 012f 3A       		.byte	58
 3732 0130 C7       		.byte	-57
 3733 0131 D3       		.byte	-45
 3734 0132 29       		.byte	41
 3735 0133 EE       		.byte	-18
 3736 0134 B6       		.byte	-74
 3737 0135 DD       		.byte	-35
 3738 0136 26       		.byte	38
ARM GAS  C:\Users\jo\AppData\Local\Temp\ccyP7UZh.s 			page 67


 3739 0137 54       		.byte	84
 3740 0138 5E       		.byte	94
 3741 0139 96       		.byte	-106
 3742 013a E5       		.byte	-27
 3743 013b 5B       		.byte	91
 3744 013c 87       		.byte	-121
 3745 013d 4B       		.byte	75
 3746 013e E9       		.byte	-23
 3747 013f 09       		.byte	9
 3748 0140 E7       		.byte	-25
 3749 0141 18       		.byte	24
 3750 0142 48       		.byte	72
 3751 0143 3D       		.byte	61
 3752 0144 0C       		.byte	12
 3753 0145 E7       		.byte	-25
 3754 0146 69       		.byte	105
 3755 0147 64       		.byte	100
 3756 0148 4E       		.byte	78
 3757 0149 2E       		.byte	46
 3758 014a 42       		.byte	66
 3759 014b C7       		.byte	-57
 3760 014c BC       		.byte	-68
 3761 014d 15       		.byte	21
 3762 014e B4       		.byte	-76
 3763 014f 63       		.byte	99
 3764 0150 8E       		.byte	-114
 3765 0151 1F       		.byte	31
 3766 0152 98       		.byte	-104
 3767 0153 B1       		.byte	-79
 3768 0154 3B       		.byte	59
 3769 0155 20       		.byte	32
 3770 0156 44       		.byte	68
 3771 0157 28       		.byte	40
 3772 0158 56       		.byte	86
 3773 0159 32       		.byte	50
 3774 015a A8       		.byte	-88
 3775 015b 03       		.byte	3
 3776 015c AF       		.byte	-81
 3777 015d A9       		.byte	-87
 3778 015e 73       		.byte	115
 3779 015f EB       		.byte	-21
 3780 0160 DE       		.byte	-34
 3781 0161 0F       		.byte	15
 3782 0162 F2       		.byte	-14
 3783 0163 44       		.byte	68
 3784 0164 87       		.byte	-121
 3785 0165 7E       		.byte	126
 3786 0166 A6       		.byte	-90
 3787 0167 0A       		.byte	10
 3788 0168 4C       		.byte	76
 3789 0169 B0       		.byte	-80
 3790 016a 43       		.byte	67
 3791 016b 2C       		.byte	44
 3792 016c E5       		.byte	-27
 3793 016d 77       		.byte	119
 3794 016e C3       		.byte	-61
 3795 016f 1B       		.byte	27
ARM GAS  C:\Users\jo\AppData\Local\Temp\ccyP7UZh.s 			page 68


 3796 0170 EB       		.byte	-21
 3797 0171 00       		.byte	0
 3798 0172 9C       		.byte	-100
 3799 0173 5C       		.byte	92
 3800 0174 2C       		.byte	44
 3801 0175 49       		.byte	73
 3802 0176 AA       		.byte	-86
 3803 0177 2E       		.byte	46
 3804 0178 4E       		.byte	78
 3805 0179 AD       		.byte	-83
 3806 017a B2       		.byte	-78
 3807 017b 17       		.byte	23
 3808 017c AD       		.byte	-83
 3809 017d 8C       		.byte	-116
 3810 017e C0       		.byte	-64
 3811 017f 9B       		.byte	-101
 3812              		.section	.rodata.sha512_test_buf,"a",%progbits
 3813              		.align	2
 3814              		.set	.LANCHOR4,. + 0
 3815              		.type	sha512_test_buf, %object
 3816              		.size	sha512_test_buf, 339
 3817              	sha512_test_buf:
 3818 0000 61626300 		.ascii	"abc\000"
 3819 0004 00000000 		.space	109
 3819      00000000 
 3819      00000000 
 3819      00000000 
 3819      00000000 
 3820 0071 61626364 		.ascii	"abcdefghbcdefghicdefghijdefghijkefghijklfghijklmghi"
 3820      65666768 
 3820      62636465 
 3820      66676869 
 3820      63646566 
 3821 00a4 6A6B6C6D 		.ascii	"jklmnhijklmnoijklmnopjklmnopqklmnopqrlmnopqrsmnopqr"
 3821      6E68696A 
 3821      6B6C6D6E 
 3821      6F696A6B 
 3821      6C6D6E6F 
 3822 00d7 73746E6F 		.ascii	"stnopqrstu\000"
 3822      70717273 
 3822      747500
 3823 00e2 00       		.ascii	"\000"
 3824 00e3 00000000 		.space	112
 3824      00000000 
 3824      00000000 
 3824      00000000 
 3824      00000000 
 3825 0153 00       		.section	.rodata.sha512_padding,"a",%progbits
 3826              		.align	2
 3827              		.set	.LANCHOR1,. + 0
 3828              		.type	sha512_padding, %object
 3829              		.size	sha512_padding, 128
 3830              	sha512_padding:
 3831 0000 80       		.byte	-128
 3832 0001 00       		.byte	0
 3833 0002 00       		.byte	0
 3834 0003 00       		.byte	0
ARM GAS  C:\Users\jo\AppData\Local\Temp\ccyP7UZh.s 			page 69


 3835 0004 00       		.byte	0
 3836 0005 00       		.byte	0
 3837 0006 00       		.byte	0
 3838 0007 00       		.byte	0
 3839 0008 00       		.byte	0
 3840 0009 00       		.byte	0
 3841 000a 00       		.byte	0
 3842 000b 00       		.byte	0
 3843 000c 00       		.byte	0
 3844 000d 00       		.byte	0
 3845 000e 00       		.byte	0
 3846 000f 00       		.byte	0
 3847 0010 00       		.byte	0
 3848 0011 00       		.byte	0
 3849 0012 00       		.byte	0
 3850 0013 00       		.byte	0
 3851 0014 00       		.byte	0
 3852 0015 00       		.byte	0
 3853 0016 00       		.byte	0
 3854 0017 00       		.byte	0
 3855 0018 00       		.byte	0
 3856 0019 00       		.byte	0
 3857 001a 00       		.byte	0
 3858 001b 00       		.byte	0
 3859 001c 00       		.byte	0
 3860 001d 00       		.byte	0
 3861 001e 00       		.byte	0
 3862 001f 00       		.byte	0
 3863 0020 00       		.byte	0
 3864 0021 00       		.byte	0
 3865 0022 00       		.byte	0
 3866 0023 00       		.byte	0
 3867 0024 00       		.byte	0
 3868 0025 00       		.byte	0
 3869 0026 00       		.byte	0
 3870 0027 00       		.byte	0
 3871 0028 00       		.byte	0
 3872 0029 00       		.byte	0
 3873 002a 00       		.byte	0
 3874 002b 00       		.byte	0
 3875 002c 00       		.byte	0
 3876 002d 00       		.byte	0
 3877 002e 00       		.byte	0
 3878 002f 00       		.byte	0
 3879 0030 00       		.byte	0
 3880 0031 00       		.byte	0
 3881 0032 00       		.byte	0
 3882 0033 00       		.byte	0
 3883 0034 00       		.byte	0
 3884 0035 00       		.byte	0
 3885 0036 00       		.byte	0
 3886 0037 00       		.byte	0
 3887 0038 00       		.byte	0
 3888 0039 00       		.byte	0
 3889 003a 00       		.byte	0
 3890 003b 00       		.byte	0
 3891 003c 00       		.byte	0
ARM GAS  C:\Users\jo\AppData\Local\Temp\ccyP7UZh.s 			page 70


 3892 003d 00       		.byte	0
 3893 003e 00       		.byte	0
 3894 003f 00       		.byte	0
 3895 0040 00       		.byte	0
 3896 0041 00       		.byte	0
 3897 0042 00       		.byte	0
 3898 0043 00       		.byte	0
 3899 0044 00       		.byte	0
 3900 0045 00       		.byte	0
 3901 0046 00       		.byte	0
 3902 0047 00       		.byte	0
 3903 0048 00       		.byte	0
 3904 0049 00       		.byte	0
 3905 004a 00       		.byte	0
 3906 004b 00       		.byte	0
 3907 004c 00       		.byte	0
 3908 004d 00       		.byte	0
 3909 004e 00       		.byte	0
 3910 004f 00       		.byte	0
 3911 0050 00       		.byte	0
 3912 0051 00       		.byte	0
 3913 0052 00       		.byte	0
 3914 0053 00       		.byte	0
 3915 0054 00       		.byte	0
 3916 0055 00       		.byte	0
 3917 0056 00       		.byte	0
 3918 0057 00       		.byte	0
 3919 0058 00       		.byte	0
 3920 0059 00       		.byte	0
 3921 005a 00       		.byte	0
 3922 005b 00       		.byte	0
 3923 005c 00       		.byte	0
 3924 005d 00       		.byte	0
 3925 005e 00       		.byte	0
 3926 005f 00       		.byte	0
 3927 0060 00       		.byte	0
 3928 0061 00       		.byte	0
 3929 0062 00       		.byte	0
 3930 0063 00       		.byte	0
 3931 0064 00       		.byte	0
 3932 0065 00       		.byte	0
 3933 0066 00       		.byte	0
 3934 0067 00       		.byte	0
 3935 0068 00       		.byte	0
 3936 0069 00       		.byte	0
 3937 006a 00       		.byte	0
 3938 006b 00       		.byte	0
 3939 006c 00       		.byte	0
 3940 006d 00       		.byte	0
 3941 006e 00       		.byte	0
 3942 006f 00       		.byte	0
 3943 0070 00       		.byte	0
 3944 0071 00       		.byte	0
 3945 0072 00       		.byte	0
 3946 0073 00       		.byte	0
 3947 0074 00       		.byte	0
 3948 0075 00       		.byte	0
ARM GAS  C:\Users\jo\AppData\Local\Temp\ccyP7UZh.s 			page 71


 3949 0076 00       		.byte	0
 3950 0077 00       		.byte	0
 3951 0078 00       		.byte	0
 3952 0079 00       		.byte	0
 3953 007a 00       		.byte	0
 3954 007b 00       		.byte	0
 3955 007c 00       		.byte	0
 3956 007d 00       		.byte	0
 3957 007e 00       		.byte	0
 3958 007f 00       		.byte	0
 3959              		.section	.rodata.sha512_hmac_test_keylen,"a",%progbits
 3960              		.align	2
 3961              		.set	.LANCHOR7,. + 0
 3962              		.type	sha512_hmac_test_keylen, %object
 3963              		.size	sha512_hmac_test_keylen, 28
 3964              	sha512_hmac_test_keylen:
 3965 0000 14000000 		.word	20
 3966 0004 04000000 		.word	4
 3967 0008 14000000 		.word	20
 3968 000c 19000000 		.word	25
 3969 0010 14000000 		.word	20
 3970 0014 83000000 		.word	131
 3971 0018 83000000 		.word	131
 3972              		.section	.rodata.sha512_hmac_test_sum,"a",%progbits
 3973              		.align	2
 3974              		.set	.LANCHOR5,. + 0
 3975              		.type	sha512_hmac_test_sum, %object
 3976              		.size	sha512_hmac_test_sum, 896
 3977              	sha512_hmac_test_sum:
 3978 0000 AF       		.byte	-81
 3979 0001 D0       		.byte	-48
 3980 0002 39       		.byte	57
 3981 0003 44       		.byte	68
 3982 0004 D8       		.byte	-40
 3983 0005 48       		.byte	72
 3984 0006 95       		.byte	-107
 3985 0007 62       		.byte	98
 3986 0008 6B       		.byte	107
 3987 0009 08       		.byte	8
 3988 000a 25       		.byte	37
 3989 000b F4       		.byte	-12
 3990 000c AB       		.byte	-85
 3991 000d 46       		.byte	70
 3992 000e 90       		.byte	-112
 3993 000f 7F       		.byte	127
 3994 0010 15       		.byte	21
 3995 0011 F9       		.byte	-7
 3996 0012 DA       		.byte	-38
 3997 0013 DB       		.byte	-37
 3998 0014 E4       		.byte	-28
 3999 0015 10       		.byte	16
 4000 0016 1E       		.byte	30
 4001 0017 C6       		.byte	-58
 4002 0018 82       		.byte	-126
 4003 0019 AA       		.byte	-86
 4004 001a 03       		.byte	3
 4005 001b 4C       		.byte	76
ARM GAS  C:\Users\jo\AppData\Local\Temp\ccyP7UZh.s 			page 72


 4006 001c 7C       		.byte	124
 4007 001d EB       		.byte	-21
 4008 001e C5       		.byte	-59
 4009 001f 9C       		.byte	-100
 4010 0020 FA       		.byte	-6
 4011 0021 EA       		.byte	-22
 4012 0022 9E       		.byte	-98
 4013 0023 A9       		.byte	-87
 4014 0024 07       		.byte	7
 4015 0025 6E       		.byte	110
 4016 0026 DE       		.byte	-34
 4017 0027 7F       		.byte	127
 4018 0028 4A       		.byte	74
 4019 0029 F1       		.byte	-15
 4020 002a 52       		.byte	82
 4021 002b E8       		.byte	-24
 4022 002c B2       		.byte	-78
 4023 002d FA       		.byte	-6
 4024 002e 9C       		.byte	-100
 4025 002f B6       		.byte	-74
 4026 0030 00000000 		.space	16
 4026      00000000 
 4026      00000000 
 4026      00000000 
 4027 0040 AF       		.byte	-81
 4028 0041 45       		.byte	69
 4029 0042 D2       		.byte	-46
 4030 0043 E3       		.byte	-29
 4031 0044 76       		.byte	118
 4032 0045 48       		.byte	72
 4033 0046 40       		.byte	64
 4034 0047 31       		.byte	49
 4035 0048 61       		.byte	97
 4036 0049 7F       		.byte	127
 4037 004a 78       		.byte	120
 4038 004b D2       		.byte	-46
 4039 004c B5       		.byte	-75
 4040 004d 8A       		.byte	-118
 4041 004e 6B       		.byte	107
 4042 004f 1B       		.byte	27
 4043 0050 9C       		.byte	-100
 4044 0051 7E       		.byte	126
 4045 0052 F4       		.byte	-12
 4046 0053 64       		.byte	100
 4047 0054 F5       		.byte	-11
 4048 0055 A0       		.byte	-96
 4049 0056 1B       		.byte	27
 4050 0057 47       		.byte	71
 4051 0058 E4       		.byte	-28
 4052 0059 2E       		.byte	46
 4053 005a C3       		.byte	-61
 4054 005b 73       		.byte	115
 4055 005c 63       		.byte	99
 4056 005d 22       		.byte	34
 4057 005e 44       		.byte	68
 4058 005f 5E       		.byte	94
 4059 0060 8E       		.byte	-114
ARM GAS  C:\Users\jo\AppData\Local\Temp\ccyP7UZh.s 			page 73


 4060 0061 22       		.byte	34
 4061 0062 40       		.byte	64
 4062 0063 CA       		.byte	-54
 4063 0064 5E       		.byte	94
 4064 0065 69       		.byte	105
 4065 0066 E2       		.byte	-30
 4066 0067 C7       		.byte	-57
 4067 0068 8B       		.byte	-117
 4068 0069 32       		.byte	50
 4069 006a 39       		.byte	57
 4070 006b EC       		.byte	-20
 4071 006c FA       		.byte	-6
 4072 006d B2       		.byte	-78
 4073 006e 16       		.byte	22
 4074 006f 49       		.byte	73
 4075 0070 00000000 		.space	16
 4075      00000000 
 4075      00000000 
 4075      00000000 
 4076 0080 88       		.byte	-120
 4077 0081 06       		.byte	6
 4078 0082 26       		.byte	38
 4079 0083 08       		.byte	8
 4080 0084 D3       		.byte	-45
 4081 0085 E6       		.byte	-26
 4082 0086 AD       		.byte	-83
 4083 0087 8A       		.byte	-118
 4084 0088 0A       		.byte	10
 4085 0089 A2       		.byte	-94
 4086 008a AC       		.byte	-84
 4087 008b E0       		.byte	-32
 4088 008c 14       		.byte	20
 4089 008d C8       		.byte	-56
 4090 008e A8       		.byte	-88
 4091 008f 6F       		.byte	111
 4092 0090 0A       		.byte	10
 4093 0091 A6       		.byte	-90
 4094 0092 35       		.byte	53
 4095 0093 D9       		.byte	-39
 4096 0094 47       		.byte	71
 4097 0095 AC       		.byte	-84
 4098 0096 9F       		.byte	-97
 4099 0097 EB       		.byte	-21
 4100 0098 E8       		.byte	-24
 4101 0099 3E       		.byte	62
 4102 009a F4       		.byte	-12
 4103 009b E5       		.byte	-27
 4104 009c 59       		.byte	89
 4105 009d 66       		.byte	102
 4106 009e 14       		.byte	20
 4107 009f 4B       		.byte	75
 4108 00a0 2A       		.byte	42
 4109 00a1 5A       		.byte	90
 4110 00a2 B3       		.byte	-77
 4111 00a3 9D       		.byte	-99
 4112 00a4 C1       		.byte	-63
 4113 00a5 38       		.byte	56
ARM GAS  C:\Users\jo\AppData\Local\Temp\ccyP7UZh.s 			page 74


 4114 00a6 14       		.byte	20
 4115 00a7 B9       		.byte	-71
 4116 00a8 4E       		.byte	78
 4117 00a9 3A       		.byte	58
 4118 00aa B6       		.byte	-74
 4119 00ab E1       		.byte	-31
 4120 00ac 01       		.byte	1
 4121 00ad A3       		.byte	-93
 4122 00ae 4F       		.byte	79
 4123 00af 27       		.byte	39
 4124 00b0 00000000 		.space	16
 4124      00000000 
 4124      00000000 
 4124      00000000 
 4125 00c0 3E       		.byte	62
 4126 00c1 8A       		.byte	-118
 4127 00c2 69       		.byte	105
 4128 00c3 B7       		.byte	-73
 4129 00c4 78       		.byte	120
 4130 00c5 3C       		.byte	60
 4131 00c6 25       		.byte	37
 4132 00c7 85       		.byte	-123
 4133 00c8 19       		.byte	25
 4134 00c9 33       		.byte	51
 4135 00ca AB       		.byte	-85
 4136 00cb 62       		.byte	98
 4137 00cc 90       		.byte	-112
 4138 00cd AF       		.byte	-81
 4139 00ce 6C       		.byte	108
 4140 00cf A7       		.byte	-89
 4141 00d0 7A       		.byte	122
 4142 00d1 99       		.byte	-103
 4143 00d2 81       		.byte	-127
 4144 00d3 48       		.byte	72
 4145 00d4 08       		.byte	8
 4146 00d5 50       		.byte	80
 4147 00d6 00       		.byte	0
 4148 00d7 9C       		.byte	-100
 4149 00d8 C5       		.byte	-59
 4150 00d9 57       		.byte	87
 4151 00da 7C       		.byte	124
 4152 00db 6E       		.byte	110
 4153 00dc 1F       		.byte	31
 4154 00dd 57       		.byte	87
 4155 00de 3B       		.byte	59
 4156 00df 4E       		.byte	78
 4157 00e0 68       		.byte	104
 4158 00e1 01       		.byte	1
 4159 00e2 DD       		.byte	-35
 4160 00e3 23       		.byte	35
 4161 00e4 C4       		.byte	-60
 4162 00e5 A7       		.byte	-89
 4163 00e6 D6       		.byte	-42
 4164 00e7 79       		.byte	121
 4165 00e8 CC       		.byte	-52
 4166 00e9 F8       		.byte	-8
 4167 00ea A3       		.byte	-93
ARM GAS  C:\Users\jo\AppData\Local\Temp\ccyP7UZh.s 			page 75


 4168 00eb 86       		.byte	-122
 4169 00ec C6       		.byte	-58
 4170 00ed 74       		.byte	116
 4171 00ee CF       		.byte	-49
 4172 00ef FB       		.byte	-5
 4173 00f0 00000000 		.space	16
 4173      00000000 
 4173      00000000 
 4173      00000000 
 4174 0100 3A       		.byte	58
 4175 0101 BF       		.byte	-65
 4176 0102 34       		.byte	52
 4177 0103 C3       		.byte	-61
 4178 0104 50       		.byte	80
 4179 0105 3B       		.byte	59
 4180 0106 2A       		.byte	42
 4181 0107 23       		.byte	35
 4182 0108 A4       		.byte	-92
 4183 0109 6E       		.byte	110
 4184 010a FC       		.byte	-4
 4185 010b 61       		.byte	97
 4186 010c 9B       		.byte	-101
 4187 010d AE       		.byte	-82
 4188 010e F8       		.byte	-8
 4189 010f 97       		.byte	-105
 4190 0110 00000000 		.space	48
 4190      00000000 
 4190      00000000 
 4190      00000000 
 4190      00000000 
 4191 0140 4E       		.byte	78
 4192 0141 CE       		.byte	-50
 4193 0142 08       		.byte	8
 4194 0143 44       		.byte	68
 4195 0144 85       		.byte	-123
 4196 0145 81       		.byte	-127
 4197 0146 3E       		.byte	62
 4198 0147 90       		.byte	-112
 4199 0148 88       		.byte	-120
 4200 0149 D2       		.byte	-46
 4201 014a C6       		.byte	-58
 4202 014b 3A       		.byte	58
 4203 014c 04       		.byte	4
 4204 014d 1B       		.byte	27
 4205 014e C5       		.byte	-59
 4206 014f B4       		.byte	-76
 4207 0150 4F       		.byte	79
 4208 0151 9E       		.byte	-98
 4209 0152 F1       		.byte	-15
 4210 0153 01       		.byte	1
 4211 0154 2A       		.byte	42
 4212 0155 2B       		.byte	43
 4213 0156 58       		.byte	88
 4214 0157 8F       		.byte	-113
 4215 0158 3C       		.byte	60
 4216 0159 D1       		.byte	-47
 4217 015a 1F       		.byte	31
ARM GAS  C:\Users\jo\AppData\Local\Temp\ccyP7UZh.s 			page 76


 4218 015b 05       		.byte	5
 4219 015c 03       		.byte	3
 4220 015d 3A       		.byte	58
 4221 015e C4       		.byte	-60
 4222 015f C6       		.byte	-58
 4223 0160 0C       		.byte	12
 4224 0161 2E       		.byte	46
 4225 0162 F6       		.byte	-10
 4226 0163 AB       		.byte	-85
 4227 0164 40       		.byte	64
 4228 0165 30       		.byte	48
 4229 0166 FE       		.byte	-2
 4230 0167 82       		.byte	-126
 4231 0168 96       		.byte	-106
 4232 0169 24       		.byte	36
 4233 016a 8D       		.byte	-115
 4234 016b F1       		.byte	-15
 4235 016c 63       		.byte	99
 4236 016d F4       		.byte	-12
 4237 016e 49       		.byte	73
 4238 016f 52       		.byte	82
 4239 0170 00000000 		.space	16
 4239      00000000 
 4239      00000000 
 4239      00000000 
 4240 0180 66       		.byte	102
 4241 0181 17       		.byte	23
 4242 0182 17       		.byte	23
 4243 0183 8E       		.byte	-114
 4244 0184 94       		.byte	-108
 4245 0185 1F       		.byte	31
 4246 0186 02       		.byte	2
 4247 0187 0D       		.byte	13
 4248 0188 35       		.byte	53
 4249 0189 1E       		.byte	30
 4250 018a 2F       		.byte	47
 4251 018b 25       		.byte	37
 4252 018c 4E       		.byte	78
 4253 018d 8F       		.byte	-113
 4254 018e D3       		.byte	-45
 4255 018f 2C       		.byte	44
 4256 0190 60       		.byte	96
 4257 0191 24       		.byte	36
 4258 0192 20       		.byte	32
 4259 0193 FE       		.byte	-2
 4260 0194 B0       		.byte	-80
 4261 0195 B8       		.byte	-72
 4262 0196 FB       		.byte	-5
 4263 0197 9A       		.byte	-102
 4264 0198 DC       		.byte	-36
 4265 0199 CE       		.byte	-50
 4266 019a BB       		.byte	-69
 4267 019b 82       		.byte	-126
 4268 019c 46       		.byte	70
 4269 019d 1E       		.byte	30
 4270 019e 99       		.byte	-103
 4271 019f C5       		.byte	-59
ARM GAS  C:\Users\jo\AppData\Local\Temp\ccyP7UZh.s 			page 77


 4272 01a0 A6       		.byte	-90
 4273 01a1 78       		.byte	120
 4274 01a2 CC       		.byte	-52
 4275 01a3 31       		.byte	49
 4276 01a4 E7       		.byte	-25
 4277 01a5 99       		.byte	-103
 4278 01a6 17       		.byte	23
 4279 01a7 6D       		.byte	109
 4280 01a8 38       		.byte	56
 4281 01a9 60       		.byte	96
 4282 01aa E6       		.byte	-26
 4283 01ab 11       		.byte	17
 4284 01ac 0C       		.byte	12
 4285 01ad 46       		.byte	70
 4286 01ae 52       		.byte	82
 4287 01af 3E       		.byte	62
 4288 01b0 00000000 		.space	16
 4288      00000000 
 4288      00000000 
 4288      00000000 
 4289 01c0 87       		.byte	-121
 4290 01c1 AA       		.byte	-86
 4291 01c2 7C       		.byte	124
 4292 01c3 DE       		.byte	-34
 4293 01c4 A5       		.byte	-91
 4294 01c5 EF       		.byte	-17
 4295 01c6 61       		.byte	97
 4296 01c7 9D       		.byte	-99
 4297 01c8 4F       		.byte	79
 4298 01c9 F0       		.byte	-16
 4299 01ca B4       		.byte	-76
 4300 01cb 24       		.byte	36
 4301 01cc 1A       		.byte	26
 4302 01cd 1D       		.byte	29
 4303 01ce 6C       		.byte	108
 4304 01cf B0       		.byte	-80
 4305 01d0 23       		.byte	35
 4306 01d1 79       		.byte	121
 4307 01d2 F4       		.byte	-12
 4308 01d3 E2       		.byte	-30
 4309 01d4 CE       		.byte	-50
 4310 01d5 4E       		.byte	78
 4311 01d6 C2       		.byte	-62
 4312 01d7 78       		.byte	120
 4313 01d8 7A       		.byte	122
 4314 01d9 D0       		.byte	-48
 4315 01da B3       		.byte	-77
 4316 01db 05       		.byte	5
 4317 01dc 45       		.byte	69
 4318 01dd E1       		.byte	-31
 4319 01de 7C       		.byte	124
 4320 01df DE       		.byte	-34
 4321 01e0 DA       		.byte	-38
 4322 01e1 A8       		.byte	-88
 4323 01e2 33       		.byte	51
 4324 01e3 B7       		.byte	-73
 4325 01e4 D6       		.byte	-42
ARM GAS  C:\Users\jo\AppData\Local\Temp\ccyP7UZh.s 			page 78


 4326 01e5 B8       		.byte	-72
 4327 01e6 A7       		.byte	-89
 4328 01e7 02       		.byte	2
 4329 01e8 03       		.byte	3
 4330 01e9 8B       		.byte	-117
 4331 01ea 27       		.byte	39
 4332 01eb 4E       		.byte	78
 4333 01ec AE       		.byte	-82
 4334 01ed A3       		.byte	-93
 4335 01ee F4       		.byte	-12
 4336 01ef E4       		.byte	-28
 4337 01f0 BE       		.byte	-66
 4338 01f1 9D       		.byte	-99
 4339 01f2 91       		.byte	-111
 4340 01f3 4E       		.byte	78
 4341 01f4 EB       		.byte	-21
 4342 01f5 61       		.byte	97
 4343 01f6 F1       		.byte	-15
 4344 01f7 70       		.byte	112
 4345 01f8 2E       		.byte	46
 4346 01f9 69       		.byte	105
 4347 01fa 6C       		.byte	108
 4348 01fb 20       		.byte	32
 4349 01fc 3A       		.byte	58
 4350 01fd 12       		.byte	18
 4351 01fe 68       		.byte	104
 4352 01ff 54       		.byte	84
 4353 0200 16       		.byte	22
 4354 0201 4B       		.byte	75
 4355 0202 7A       		.byte	122
 4356 0203 7B       		.byte	123
 4357 0204 FC       		.byte	-4
 4358 0205 F8       		.byte	-8
 4359 0206 19       		.byte	25
 4360 0207 E2       		.byte	-30
 4361 0208 E3       		.byte	-29
 4362 0209 95       		.byte	-107
 4363 020a FB       		.byte	-5
 4364 020b E7       		.byte	-25
 4365 020c 3B       		.byte	59
 4366 020d 56       		.byte	86
 4367 020e E0       		.byte	-32
 4368 020f A3       		.byte	-93
 4369 0210 87       		.byte	-121
 4370 0211 BD       		.byte	-67
 4371 0212 64       		.byte	100
 4372 0213 22       		.byte	34
 4373 0214 2E       		.byte	46
 4374 0215 83       		.byte	-125
 4375 0216 1F       		.byte	31
 4376 0217 D6       		.byte	-42
 4377 0218 10       		.byte	16
 4378 0219 27       		.byte	39
 4379 021a 0C       		.byte	12
 4380 021b D7       		.byte	-41
 4381 021c EA       		.byte	-22
 4382 021d 25       		.byte	37
ARM GAS  C:\Users\jo\AppData\Local\Temp\ccyP7UZh.s 			page 79


 4383 021e 05       		.byte	5
 4384 021f 54       		.byte	84
 4385 0220 97       		.byte	-105
 4386 0221 58       		.byte	88
 4387 0222 BF       		.byte	-65
 4388 0223 75       		.byte	117
 4389 0224 C0       		.byte	-64
 4390 0225 5A       		.byte	90
 4391 0226 99       		.byte	-103
 4392 0227 4A       		.byte	74
 4393 0228 6D       		.byte	109
 4394 0229 03       		.byte	3
 4395 022a 4F       		.byte	79
 4396 022b 65       		.byte	101
 4397 022c F8       		.byte	-8
 4398 022d F0       		.byte	-16
 4399 022e E6       		.byte	-26
 4400 022f FD       		.byte	-3
 4401 0230 CA       		.byte	-54
 4402 0231 EA       		.byte	-22
 4403 0232 B1       		.byte	-79
 4404 0233 A3       		.byte	-93
 4405 0234 4D       		.byte	77
 4406 0235 4A       		.byte	74
 4407 0236 6B       		.byte	107
 4408 0237 4B       		.byte	75
 4409 0238 63       		.byte	99
 4410 0239 6E       		.byte	110
 4411 023a 07       		.byte	7
 4412 023b 0A       		.byte	10
 4413 023c 38       		.byte	56
 4414 023d BC       		.byte	-68
 4415 023e E7       		.byte	-25
 4416 023f 37       		.byte	55
 4417 0240 FA       		.byte	-6
 4418 0241 73       		.byte	115
 4419 0242 B0       		.byte	-80
 4420 0243 08       		.byte	8
 4421 0244 9D       		.byte	-99
 4422 0245 56       		.byte	86
 4423 0246 A2       		.byte	-94
 4424 0247 84       		.byte	-124
 4425 0248 EF       		.byte	-17
 4426 0249 B0       		.byte	-80
 4427 024a F0       		.byte	-16
 4428 024b 75       		.byte	117
 4429 024c 6C       		.byte	108
 4430 024d 89       		.byte	-119
 4431 024e 0B       		.byte	11
 4432 024f E9       		.byte	-23
 4433 0250 B1       		.byte	-79
 4434 0251 B5       		.byte	-75
 4435 0252 DB       		.byte	-37
 4436 0253 DD       		.byte	-35
 4437 0254 8E       		.byte	-114
 4438 0255 E8       		.byte	-24
 4439 0256 1A       		.byte	26
ARM GAS  C:\Users\jo\AppData\Local\Temp\ccyP7UZh.s 			page 80


 4440 0257 36       		.byte	54
 4441 0258 55       		.byte	85
 4442 0259 F8       		.byte	-8
 4443 025a 3E       		.byte	62
 4444 025b 33       		.byte	51
 4445 025c B2       		.byte	-78
 4446 025d 27       		.byte	39
 4447 025e 9D       		.byte	-99
 4448 025f 39       		.byte	57
 4449 0260 BF       		.byte	-65
 4450 0261 3E       		.byte	62
 4451 0262 84       		.byte	-124
 4452 0263 82       		.byte	-126
 4453 0264 79       		.byte	121
 4454 0265 A7       		.byte	-89
 4455 0266 22       		.byte	34
 4456 0267 C8       		.byte	-56
 4457 0268 06       		.byte	6
 4458 0269 B4       		.byte	-76
 4459 026a 85       		.byte	-123
 4460 026b A4       		.byte	-92
 4461 026c 7E       		.byte	126
 4462 026d 67       		.byte	103
 4463 026e C8       		.byte	-56
 4464 026f 07       		.byte	7
 4465 0270 B9       		.byte	-71
 4466 0271 46       		.byte	70
 4467 0272 A3       		.byte	-93
 4468 0273 37       		.byte	55
 4469 0274 BE       		.byte	-66
 4470 0275 E8       		.byte	-24
 4471 0276 94       		.byte	-108
 4472 0277 26       		.byte	38
 4473 0278 74       		.byte	116
 4474 0279 27       		.byte	39
 4475 027a 88       		.byte	-120
 4476 027b 59       		.byte	89
 4477 027c E1       		.byte	-31
 4478 027d 32       		.byte	50
 4479 027e 92       		.byte	-110
 4480 027f FB       		.byte	-5
 4481 0280 B0       		.byte	-80
 4482 0281 BA       		.byte	-70
 4483 0282 46       		.byte	70
 4484 0283 56       		.byte	86
 4485 0284 37       		.byte	55
 4486 0285 45       		.byte	69
 4487 0286 8C       		.byte	-116
 4488 0287 69       		.byte	105
 4489 0288 90       		.byte	-112
 4490 0289 E5       		.byte	-27
 4491 028a A8       		.byte	-88
 4492 028b C5       		.byte	-59
 4493 028c F6       		.byte	-10
 4494 028d 1D       		.byte	29
 4495 028e 4A       		.byte	74
 4496 028f F7       		.byte	-9
ARM GAS  C:\Users\jo\AppData\Local\Temp\ccyP7UZh.s 			page 81


 4497 0290 E5       		.byte	-27
 4498 0291 76       		.byte	118
 4499 0292 D9       		.byte	-39
 4500 0293 7F       		.byte	127
 4501 0294 F9       		.byte	-7
 4502 0295 4B       		.byte	75
 4503 0296 87       		.byte	-121
 4504 0297 2D       		.byte	45
 4505 0298 E7       		.byte	-25
 4506 0299 6F       		.byte	111
 4507 029a 80       		.byte	-128
 4508 029b 50       		.byte	80
 4509 029c 36       		.byte	54
 4510 029d 1E       		.byte	30
 4511 029e E3       		.byte	-29
 4512 029f DB       		.byte	-37
 4513 02a0 A9       		.byte	-87
 4514 02a1 1C       		.byte	28
 4515 02a2 A5       		.byte	-91
 4516 02a3 C1       		.byte	-63
 4517 02a4 1A       		.byte	26
 4518 02a5 A2       		.byte	-94
 4519 02a6 5E       		.byte	94
 4520 02a7 B4       		.byte	-76
 4521 02a8 D6       		.byte	-42
 4522 02a9 79       		.byte	121
 4523 02aa 27       		.byte	39
 4524 02ab 5C       		.byte	92
 4525 02ac C5       		.byte	-59
 4526 02ad 78       		.byte	120
 4527 02ae 80       		.byte	-128
 4528 02af 63       		.byte	99
 4529 02b0 A5       		.byte	-91
 4530 02b1 F1       		.byte	-15
 4531 02b2 97       		.byte	-105
 4532 02b3 41       		.byte	65
 4533 02b4 12       		.byte	18
 4534 02b5 0C       		.byte	12
 4535 02b6 4F       		.byte	79
 4536 02b7 2D       		.byte	45
 4537 02b8 E2       		.byte	-30
 4538 02b9 AD       		.byte	-83
 4539 02ba EB       		.byte	-21
 4540 02bb EB       		.byte	-21
 4541 02bc 10       		.byte	16
 4542 02bd A2       		.byte	-94
 4543 02be 98       		.byte	-104
 4544 02bf DD       		.byte	-35
 4545 02c0 41       		.byte	65
 4546 02c1 5F       		.byte	95
 4547 02c2 AD       		.byte	-83
 4548 02c3 62       		.byte	98
 4549 02c4 71       		.byte	113
 4550 02c5 58       		.byte	88
 4551 02c6 0A       		.byte	10
 4552 02c7 53       		.byte	83
 4553 02c8 1D       		.byte	29
ARM GAS  C:\Users\jo\AppData\Local\Temp\ccyP7UZh.s 			page 82


 4554 02c9 41       		.byte	65
 4555 02ca 79       		.byte	121
 4556 02cb BC       		.byte	-68
 4557 02cc 89       		.byte	-119
 4558 02cd 1D       		.byte	29
 4559 02ce 87       		.byte	-121
 4560 02cf A6       		.byte	-90
 4561 02d0 00000000 		.space	48
 4561      00000000 
 4561      00000000 
 4561      00000000 
 4561      00000000 
 4562 0300 80       		.byte	-128
 4563 0301 B2       		.byte	-78
 4564 0302 42       		.byte	66
 4565 0303 63       		.byte	99
 4566 0304 C7       		.byte	-57
 4567 0305 C1       		.byte	-63
 4568 0306 A3       		.byte	-93
 4569 0307 EB       		.byte	-21
 4570 0308 B7       		.byte	-73
 4571 0309 14       		.byte	20
 4572 030a 93       		.byte	-109
 4573 030b C1       		.byte	-63
 4574 030c DD       		.byte	-35
 4575 030d 7B       		.byte	123
 4576 030e E8       		.byte	-24
 4577 030f B4       		.byte	-76
 4578 0310 9B       		.byte	-101
 4579 0311 46       		.byte	70
 4580 0312 D1       		.byte	-47
 4581 0313 F4       		.byte	-12
 4582 0314 1B       		.byte	27
 4583 0315 4A       		.byte	74
 4584 0316 EE       		.byte	-18
 4585 0317 C1       		.byte	-63
 4586 0318 12       		.byte	18
 4587 0319 1B       		.byte	27
 4588 031a 01       		.byte	1
 4589 031b 37       		.byte	55
 4590 031c 83       		.byte	-125
 4591 031d F8       		.byte	-8
 4592 031e F3       		.byte	-13
 4593 031f 52       		.byte	82
 4594 0320 6B       		.byte	107
 4595 0321 56       		.byte	86
 4596 0322 D0       		.byte	-48
 4597 0323 37       		.byte	55
 4598 0324 E0       		.byte	-32
 4599 0325 5F       		.byte	95
 4600 0326 25       		.byte	37
 4601 0327 98       		.byte	-104
 4602 0328 BD       		.byte	-67
 4603 0329 0F       		.byte	15
 4604 032a D2       		.byte	-46
 4605 032b 21       		.byte	33
 4606 032c 5D       		.byte	93
ARM GAS  C:\Users\jo\AppData\Local\Temp\ccyP7UZh.s 			page 83


 4607 032d 6A       		.byte	106
 4608 032e 1E       		.byte	30
 4609 032f 52       		.byte	82
 4610 0330 95       		.byte	-107
 4611 0331 E6       		.byte	-26
 4612 0332 4F       		.byte	79
 4613 0333 73       		.byte	115
 4614 0334 F6       		.byte	-10
 4615 0335 3F       		.byte	63
 4616 0336 0A       		.byte	10
 4617 0337 EC       		.byte	-20
 4618 0338 8B       		.byte	-117
 4619 0339 91       		.byte	-111
 4620 033a 5A       		.byte	90
 4621 033b 98       		.byte	-104
 4622 033c 5D       		.byte	93
 4623 033d 78       		.byte	120
 4624 033e 65       		.byte	101
 4625 033f 98       		.byte	-104
 4626 0340 E3       		.byte	-29
 4627 0341 7B       		.byte	123
 4628 0342 6A       		.byte	106
 4629 0343 77       		.byte	119
 4630 0344 5D       		.byte	93
 4631 0345 C8       		.byte	-56
 4632 0346 7D       		.byte	125
 4633 0347 BA       		.byte	-70
 4634 0348 A4       		.byte	-92
 4635 0349 DF       		.byte	-33
 4636 034a A9       		.byte	-87
 4637 034b F9       		.byte	-7
 4638 034c 6E       		.byte	110
 4639 034d 5E       		.byte	94
 4640 034e 3F       		.byte	63
 4641 034f FD       		.byte	-3
 4642 0350 DE       		.byte	-34
 4643 0351 BD       		.byte	-67
 4644 0352 71       		.byte	113
 4645 0353 F8       		.byte	-8
 4646 0354 86       		.byte	-122
 4647 0355 72       		.byte	114
 4648 0356 89       		.byte	-119
 4649 0357 86       		.byte	-122
 4650 0358 5D       		.byte	93
 4651 0359 F5       		.byte	-11
 4652 035a A3       		.byte	-93
 4653 035b 2D       		.byte	45
 4654 035c 20       		.byte	32
 4655 035d CD       		.byte	-51
 4656 035e C9       		.byte	-55
 4657 035f 44       		.byte	68
 4658 0360 B6       		.byte	-74
 4659 0361 02       		.byte	2
 4660 0362 2C       		.byte	44
 4661 0363 AC       		.byte	-84
 4662 0364 3C       		.byte	60
 4663 0365 49       		.byte	73
ARM GAS  C:\Users\jo\AppData\Local\Temp\ccyP7UZh.s 			page 84


 4664 0366 82       		.byte	-126
 4665 0367 B1       		.byte	-79
 4666 0368 0D       		.byte	13
 4667 0369 5E       		.byte	94
 4668 036a EB       		.byte	-21
 4669 036b 55       		.byte	85
 4670 036c C3       		.byte	-61
 4671 036d E4       		.byte	-28
 4672 036e DE       		.byte	-34
 4673 036f 15       		.byte	21
 4674 0370 13       		.byte	19
 4675 0371 46       		.byte	70
 4676 0372 76       		.byte	118
 4677 0373 FB       		.byte	-5
 4678 0374 6D       		.byte	109
 4679 0375 E0       		.byte	-32
 4680 0376 44       		.byte	68
 4681 0377 60       		.byte	96
 4682 0378 65       		.byte	101
 4683 0379 C9       		.byte	-55
 4684 037a 74       		.byte	116
 4685 037b 40       		.byte	64
 4686 037c FA       		.byte	-6
 4687 037d 8C       		.byte	-116
 4688 037e 6A       		.byte	106
 4689 037f 58       		.byte	88
 4690              		.section	.rodata.str1.4,"aMS",%progbits,1
 4691              		.align	2
 4692              	.LC0:
 4693 0000 726200   		.ascii	"rb\000"
 4694 0003 00       		.space	1
 4695              	.LC1:
 4696 0004 20205348 		.ascii	"  SHA-%d test #%d: \000"
 4696      412D2564 
 4696      20746573 
 4696      74202325 
 4696      643A2000 
 4697              	.LC2:
 4698 0018 6661696C 		.ascii	"failed\000"
 4698      656400
 4699 001f 00       		.space	1
 4700              	.LC3:
 4701 0020 70617373 		.ascii	"passed\000"
 4701      656400
 4702 0027 00       		.space	1
 4703              	.LC4:
 4704 0028 2020484D 		.ascii	"  HMAC-SHA-%d test #%d: \000"
 4704      41432D53 
 4704      48412D25 
 4704      64207465 
 4704      73742023 
 4705 0041 000000   		.section	.rodata.sha512_hmac_test_buf,"a",%progbits
 4706              		.align	2
 4707              		.set	.LANCHOR9,. + 0
 4708              		.type	sha512_hmac_test_buf, %object
 4709              		.size	sha512_hmac_test_buf, 1071
 4710              	sha512_hmac_test_buf:
ARM GAS  C:\Users\jo\AppData\Local\Temp\ccyP7UZh.s 			page 85


 4711 0000 48692054 		.ascii	"Hi There\000"
 4711      68657265 
 4711      00
 4712 0009 00000000 		.space	144
 4712      00000000 
 4712      00000000 
 4712      00000000 
 4712      00000000 
 4713 0099 77686174 		.ascii	"what do ya want for nothing?\000"
 4713      20646F20 
 4713      79612077 
 4713      616E7420 
 4713      666F7220 
 4714 00b6 00000000 		.space	124
 4714      00000000 
 4714      00000000 
 4714      00000000 
 4714      00000000 
 4715 0132 DDDDDDDD 		.ascii	"\335\335\335\335\335\335\335\335\335\335\335\335\335"
 4715      DDDDDDDD 
 4715      DDDDDDDD 
 4715      DD
 4716 013f DDDDDDDD 		.ascii	"\335\335\335\335\335\335\335\335\335\335\335\335\335"
 4716      DDDDDDDD 
 4716      DDDDDDDD 
 4716      DD
 4717 014c DDDDDDDD 		.ascii	"\335\335\335\335\335\335\335\335\335\335\335\335\335"
 4717      DDDDDDDD 
 4717      DDDDDDDD 
 4717      DD
 4718 0159 DDDDDDDD 		.ascii	"\335\335\335\335\335\335\335\335\335\335\335\000"
 4718      DDDDDDDD 
 4718      DDDDDD00 
 4719 0165 00000000 		.space	102
 4719      00000000 
 4719      00000000 
 4719      00000000 
 4719      00000000 
 4720 01cb CDCDCDCD 		.ascii	"\315\315\315\315\315\315\315\315\315\315\315\315\315"
 4720      CDCDCDCD 
 4720      CDCDCDCD 
 4720      CD
 4721 01d8 CDCDCDCD 		.ascii	"\315\315\315\315\315\315\315\315\315\315\315\315\315"
 4721      CDCDCDCD 
 4721      CDCDCDCD 
 4721      CD
 4722 01e5 CDCDCDCD 		.ascii	"\315\315\315\315\315\315\315\315\315\315\315\315\315"
 4722      CDCDCDCD 
 4722      CDCDCDCD 
 4722      CD
 4723 01f2 CDCDCDCD 		.ascii	"\315\315\315\315\315\315\315\315\315\315\315\000"
 4723      CDCDCDCD 
 4723      CDCDCD00 
 4724 01fe 00000000 		.space	102
 4724      00000000 
 4724      00000000 
 4724      00000000 
ARM GAS  C:\Users\jo\AppData\Local\Temp\ccyP7UZh.s 			page 86


 4724      00000000 
 4725 0264 54657374 		.ascii	"Test With Truncation\000"
 4725      20576974 
 4725      68205472 
 4725      756E6361 
 4725      74696F6E 
 4726 0279 00000000 		.space	132
 4726      00000000 
 4726      00000000 
 4726      00000000 
 4726      00000000 
 4727 02fd 54657374 		.ascii	"Test Using Larger Than Block-Size Key - Hash Key Fi"
 4727      20557369 
 4727      6E67204C 
 4727      61726765 
 4727      72205468 
 4728 0330 72737400 		.ascii	"rst\000"
 4729 0334 00000000 		.space	98
 4729      00000000 
 4729      00000000 
 4729      00000000 
 4729      00000000 
 4730 0396 54686973 		.ascii	"This is a test using a larger than block-size key a"
 4730      20697320 
 4730      61207465 
 4730      73742075 
 4730      73696E67 
 4731 03c9 6E642061 		.ascii	"nd a larger than block-size data. The key needs to "
 4731      206C6172 
 4731      67657220 
 4731      7468616E 
 4731      20626C6F 
 4732 03fc 62652068 		.ascii	"be hashed before being used by the HMAC algorithm.\000"
 4732      61736865 
 4732      64206265 
 4732      666F7265 
 4732      20626569 
 4733 042f 00       		.section	.rodata.sha512_hmac_test_buflen,"a",%progbits
 4734              		.align	2
 4735              		.set	.LANCHOR8,. + 0
 4736              		.type	sha512_hmac_test_buflen, %object
 4737              		.size	sha512_hmac_test_buflen, 28
 4738              	sha512_hmac_test_buflen:
 4739 0000 08000000 		.word	8
 4740 0004 1C000000 		.word	28
 4741 0008 32000000 		.word	50
 4742 000c 32000000 		.word	50
 4743 0010 14000000 		.word	20
 4744 0014 36000000 		.word	54
 4745 0018 98000000 		.word	152
 4746              		.section	.rodata.sha512_hmac_test_key,"a",%progbits
 4747              		.align	2
 4748              		.set	.LANCHOR6,. + 0
 4749              		.type	sha512_hmac_test_key, %object
 4750              		.size	sha512_hmac_test_key, 182
 4751              	sha512_hmac_test_key:
 4752 0000 0B0B0B0B 		.ascii	"\013\013\013\013\013\013\013\013\013\013\013\013\013"
ARM GAS  C:\Users\jo\AppData\Local\Temp\ccyP7UZh.s 			page 87


 4752      0B0B0B0B 
 4752      0B0B0B0B 
 4752      0B
 4753 000d 0B0B0B0B 		.ascii	"\013\013\013\013\013\013\013\000"
 4753      0B0B0B00 
 4754 0015 00000000 		.space	5
 4754      00
 4755 001a 4A656665 		.ascii	"Jefe\000"
 4755      00
 4756 001f 00000000 		.space	21
 4756      00000000 
 4756      00000000 
 4756      00000000 
 4756      00000000 
 4757 0034 AAAAAAAA 		.ascii	"\252\252\252\252\252\252\252\252\252\252\252\252\252"
 4757      AAAAAAAA 
 4757      AAAAAAAA 
 4757      AA
 4758 0041 AAAAAAAA 		.ascii	"\252\252\252\252\252\252\252\000"
 4758      AAAAAA00 
 4759 0049 00000000 		.space	5
 4759      00
 4760 004e 01020304 		.ascii	"\001\002\003\004\005\006\007\010\011\012\013\014\015"
 4760      05060708 
 4760      090A0B0C 
 4760      0D
 4761 005b 0E0F1011 		.ascii	"\016\017\020\021\022\023\024\025\026\027\030\031\000"
 4761      12131415 
 4761      16171819 
 4761      00
 4762 0068 0C0C0C0C 		.ascii	"\014\014\014\014\014\014\014\014\014\014\014\014\014"
 4762      0C0C0C0C 
 4762      0C0C0C0C 
 4762      0C
 4763 0075 0C0C0C0C 		.ascii	"\014\014\014\014\014\014\014\000"
 4763      0C0C0C00 
 4764 007d 00000000 		.space	5
 4764      00
 4765 0082 00       		.ascii	"\000"
 4766 0083 00000000 		.space	25
 4766      00000000 
 4766      00000000 
 4766      00000000 
 4766      00000000 
 4767 009c 00       		.ascii	"\000"
 4768 009d 00000000 		.space	25
 4768      00000000 
 4768      00000000 
 4768      00000000 
 4768      00000000 
 4769 00b6 0000     		.section	.rodata.K,"a",%progbits
 4770              		.align	3
 4771              		.set	.LANCHOR0,. + 0
 4772              		.type	K, %object
 4773              		.size	K, 640
 4774              	K:
 4775 0000 22AE28D7 		.word	-685199838
ARM GAS  C:\Users\jo\AppData\Local\Temp\ccyP7UZh.s 			page 88


 4776 0004 982F8A42 		.word	1116352408
 4777 0008 CD65EF23 		.word	602891725
 4778 000c 91443771 		.word	1899447441
 4779 0010 2F3B4DEC 		.word	-330482897
 4780 0014 CFFBC0B5 		.word	-1245643825
 4781 0018 BCDB8981 		.word	-2121671748
 4782 001c A5DBB5E9 		.word	-373957723
 4783 0020 38B548F3 		.word	-213338824
 4784 0024 5BC25639 		.word	961987163
 4785 0028 19D005B6 		.word	-1241133031
 4786 002c F111F159 		.word	1508970993
 4787 0030 9B4F19AF 		.word	-1357295717
 4788 0034 A4823F92 		.word	-1841331548
 4789 0038 18816DDA 		.word	-630357736
 4790 003c D55E1CAB 		.word	-1424204075
 4791 0040 420203A3 		.word	-1560083902
 4792 0044 98AA07D8 		.word	-670586216
 4793 0048 BE6F7045 		.word	1164996542
 4794 004c 015B8312 		.word	310598401
 4795 0050 8CB2E44E 		.word	1323610764
 4796 0054 BE853124 		.word	607225278
 4797 0058 E2B4FFD5 		.word	-704662302
 4798 005c C37D0C55 		.word	1426881987
 4799 0060 6F897BF2 		.word	-226784913
 4800 0064 745DBE72 		.word	1925078388
 4801 0068 B196163B 		.word	991336113
 4802 006c FEB1DE80 		.word	-2132889090
 4803 0070 3512C725 		.word	633803317
 4804 0074 A706DC9B 		.word	-1680079193
 4805 0078 942669CF 		.word	-815192428
 4806 007c 74F19BC1 		.word	-1046744716
 4807 0080 D24AF19E 		.word	-1628353838
 4808 0084 C1699BE4 		.word	-459576895
 4809 0088 E3254F38 		.word	944711139
 4810 008c 8647BEEF 		.word	-272742522
 4811 0090 B5D58C8B 		.word	-1953704523
 4812 0094 C69DC10F 		.word	264347078
 4813 0098 659CAC77 		.word	2007800933
 4814 009c CCA10C24 		.word	604807628
 4815 00a0 75022B59 		.word	1495990901
 4816 00a4 6F2CE92D 		.word	770255983
 4817 00a8 83E4A66E 		.word	1856431235
 4818 00ac AA84744A 		.word	1249150122
 4819 00b0 D4FB41BD 		.word	-1119749164
 4820 00b4 DCA9B05C 		.word	1555081692
 4821 00b8 B5531183 		.word	-2096016459
 4822 00bc DA88F976 		.word	1996064986
 4823 00c0 ABDF66EE 		.word	-295247957
 4824 00c4 52513E98 		.word	-1740746414
 4825 00c8 1032B42D 		.word	766784016
 4826 00cc 6DC631A8 		.word	-1473132947
 4827 00d0 3F21FB98 		.word	-1728372417
 4828 00d4 C82703B0 		.word	-1341970488
 4829 00d8 E40EEFBE 		.word	-1091629340
 4830 00dc C77F59BF 		.word	-1084653625
 4831 00e0 C28FA83D 		.word	1034457026
 4832 00e4 F30BE0C6 		.word	-958395405
ARM GAS  C:\Users\jo\AppData\Local\Temp\ccyP7UZh.s 			page 89


 4833 00e8 25A70A93 		.word	-1828018395
 4834 00ec 4791A7D5 		.word	-710438585
 4835 00f0 6F8203E0 		.word	-536640913
 4836 00f4 5163CA06 		.word	113926993
 4837 00f8 706E0E0A 		.word	168717936
 4838 00fc 67292914 		.word	338241895
 4839 0100 FC2FD246 		.word	1188179964
 4840 0104 850AB727 		.word	666307205
 4841 0108 26C9265C 		.word	1546045734
 4842 010c 38211B2E 		.word	773529912
 4843 0110 ED2AC45A 		.word	1522805485
 4844 0114 FC6D2C4D 		.word	1294757372
 4845 0118 DFB3959D 		.word	-1651133473
 4846 011c 130D3853 		.word	1396182291
 4847 0120 DE63AF8B 		.word	-1951439906
 4848 0124 54730A65 		.word	1695183700
 4849 0128 A8B2773C 		.word	1014477480
 4850 012c BB0A6A76 		.word	1986661051
 4851 0130 E6AEED47 		.word	1206759142
 4852 0134 2EC9C281 		.word	-2117940946
 4853 0138 3B358214 		.word	344077627
 4854 013c 852C7292 		.word	-1838011259
 4855 0140 6403F14C 		.word	1290863460
 4856 0144 A1E8BFA2 		.word	-1564481375
 4857 0148 013042BC 		.word	-1136513023
 4858 014c 4B661AA8 		.word	-1474664885
 4859 0150 9197F8D0 		.word	-789014639
 4860 0154 708B4BC2 		.word	-1035236496
 4861 0158 30BE5406 		.word	106217008
 4862 015c A3516CC7 		.word	-949202525
 4863 0160 1852EFD6 		.word	-688958952
 4864 0164 19E892D1 		.word	-778901479
 4865 0168 10A96555 		.word	1432725776
 4866 016c 240699D6 		.word	-694614492
 4867 0170 2A207157 		.word	1467031594
 4868 0174 85350EF4 		.word	-200395387
 4869 0178 B8D1BB32 		.word	851169720
 4870 017c 70A06A10 		.word	275423344
 4871 0180 C8D0D2B8 		.word	-1194143544
 4872 0184 16C1A419 		.word	430227734
 4873 0188 53AB4151 		.word	1363258195
 4874 018c 086C371E 		.word	506948616
 4875 0190 99EB8EDF 		.word	-544281703
 4876 0194 4C774827 		.word	659060556
 4877 0198 A8489BE1 		.word	-509917016
 4878 019c B5BCB034 		.word	883997877
 4879 01a0 635AC9C5 		.word	-976659869
 4880 01a4 B30C1C39 		.word	958139571
 4881 01a8 CB8A41E3 		.word	-482243893
 4882 01ac 4AAAD84E 		.word	1322822218
 4883 01b0 73E36377 		.word	2003034995
 4884 01b4 4FCA9C5B 		.word	1537002063
 4885 01b8 A3B8B2D6 		.word	-692930397
 4886 01bc F36F2E68 		.word	1747873779
 4887 01c0 FCB2EF5D 		.word	1575990012
 4888 01c4 EE828F74 		.word	1955562222
 4889 01c8 602F1743 		.word	1125592928
ARM GAS  C:\Users\jo\AppData\Local\Temp\ccyP7UZh.s 			page 90


 4890 01cc 6F63A578 		.word	2024104815
 4891 01d0 72ABF0A1 		.word	-1578062990
 4892 01d4 1478C884 		.word	-2067236844
 4893 01d8 EC39641A 		.word	442776044
 4894 01dc 0802C78C 		.word	-1933114872
 4895 01e0 281E6323 		.word	593698344
 4896 01e4 FAFFBE90 		.word	-1866530822
 4897 01e8 E9BD82DE 		.word	-561857047
 4898 01ec EB6C50A4 		.word	-1538233109
 4899 01f0 1579C6B2 		.word	-1295615723
 4900 01f4 F7A3F9BE 		.word	-1090935817
 4901 01f8 2B5372E3 		.word	-479046869
 4902 01fc F27871C6 		.word	-965641998
 4903 0200 9C6126EA 		.word	-366583396
 4904 0204 CE3E27CA 		.word	-903397682
 4905 0208 07C2C021 		.word	566280711
 4906 020c C7B886D1 		.word	-779700025
 4907 0210 1EEBE0CD 		.word	-840897762
 4908 0214 D67DDAEA 		.word	-354779690
 4909 0218 78D16EEE 		.word	-294727304
 4910 021c 7F4F7DF5 		.word	-176337025
 4911 0220 BA6F1772 		.word	1914138554
 4912 0224 AA67F006 		.word	116418474
 4913 0228 A698C8A2 		.word	-1563912026
 4914 022c C57D630A 		.word	174292421
 4915 0230 AE0DF9BE 		.word	-1090974290
 4916 0234 04983F11 		.word	289380356
 4917 0238 1B471C13 		.word	320620315
 4918 023c 350B711B 		.word	460393269
 4919 0240 847D0423 		.word	587496836
 4920 0244 F577DB28 		.word	685471733
 4921 0248 9324C740 		.word	1086792851
 4922 024c 7BABCA32 		.word	852142971
 4923 0250 BCBEC915 		.word	365543100
 4924 0254 0ABE9E3C 		.word	1017036298
 4925 0258 4C0D109C 		.word	-1676669620
 4926 025c C4671D43 		.word	1126000580
 4927 0260 B6423ECB 		.word	-885112138
 4928 0264 BED4C54C 		.word	1288033470
 4929 0268 2A7E65FC 		.word	-60457430
 4930 026c 9C297F59 		.word	1501505948
 4931 0270 ECFAD63A 		.word	987167468
 4932 0274 AB6FCB5F 		.word	1607167915
 4933 0278 1758474A 		.word	1246189591
 4934 027c 8C19446C 		.word	1816402316
 4935              		.text
 4936              	.Letext0:
 4937              		.file 2 "c:\\program files\\gnu tools arm embedded\\4.9 2014q4\\lib\\gcc\\arm-none-eabi\\4.9.3\\in
 4938              		.file 3 "c:\\program files\\gnu tools arm embedded\\4.9 2014q4\\arm-none-eabi\\include\\machine\\_
 4939              		.file 4 "c:\\program files\\gnu tools arm embedded\\4.9 2014q4\\arm-none-eabi\\include\\stdint.h"
 4940              		.file 5 "../../../ext/mbedtls-1.3.11/library/../include/polarssl/sha512.h"
 4941              		.file 6 "c:\\program files\\gnu tools arm embedded\\4.9 2014q4\\arm-none-eabi\\include\\sys\\lock.
 4942              		.file 7 "c:\\program files\\gnu tools arm embedded\\4.9 2014q4\\arm-none-eabi\\include\\sys\\_type
 4943              		.file 8 "c:\\program files\\gnu tools arm embedded\\4.9 2014q4\\arm-none-eabi\\include\\sys\\reent
 4944              		.file 9 "c:\\program files\\gnu tools arm embedded\\4.9 2014q4\\arm-none-eabi\\include\\stdio.h"
 4945              		.file 10 "c:\\program files\\gnu tools arm embedded\\4.9 2014q4\\arm-none-eabi\\include\\string.h"
 4946              		.file 11 "<built-in>"
ARM GAS  C:\Users\jo\AppData\Local\Temp\ccyP7UZh.s 			page 91

