ARM GAS  C:\Users\jo\AppData\Local\Temp\cc6wN9Ut.s 			page 1


   1              		.syntax unified
   2              		.cpu cortex-m4
   3              		.fpu softvfp
   4              		.eabi_attribute 20, 1
   5              		.eabi_attribute 21, 1
   6              		.eabi_attribute 23, 3
   7              		.eabi_attribute 24, 1
   8              		.eabi_attribute 25, 1
   9              		.eabi_attribute 26, 1
  10              		.eabi_attribute 30, 2
  11              		.eabi_attribute 34, 1
  12              		.eabi_attribute 18, 4
  13              		.thumb
  14              		.file	"sockets.c"
  15              		.text
  16              	.Ltext0:
  17              		.cfi_sections	.debug_frame
  18              		.section	.text.alloc_socket,"ax",%progbits
  19              		.align	2
  20              		.p2align 4,,15
  21              		.thumb
  22              		.thumb_func
  23              		.type	alloc_socket, %function
  24              	alloc_socket:
  25              	.LFB263:
  26              		.file 1 "../../../ext/lwip/src/api/sockets.c"
  27              		.loc 1 244 0
  28              		.cfi_startproc
  29              		@ args = 0, pretend = 0, frame = 0
  30              		@ frame_needed = 0, uses_anonymous_args = 0
  31              		@ link register save eliminated.
  32              	.LVL0:
  33 0000 F0B4     		push	{r4, r5, r6, r7}
  34              		.cfi_def_cfa_offset 16
  35              		.cfi_offset 4, -16
  36              		.cfi_offset 5, -12
  37              		.cfi_offset 6, -8
  38              		.cfi_offset 7, -4
  39              		.loc 1 252 0
  40 0002 134C     		ldr	r4, .L12
  41 0004 2268     		ldr	r2, [r4]
  42 0006 32B1     		cbz	r2, .L2
  43              	.LVL1:
  44 0008 A369     		ldr	r3, [r4, #24]
  45 000a 1BB1     		cbz	r3, .L10
  46              		.loc 1 270 0
  47 000c 4FF0FF30 		mov	r0, #-1
  48              	.LVL2:
  49              	.L3:
  50              		.loc 1 271 0
  51 0010 F0BC     		pop	{r4, r5, r6, r7}
  52              		.cfi_remember_state
  53              		.cfi_restore 7
  54              		.cfi_restore 6
  55              		.cfi_restore 5
  56              		.cfi_restore 4
  57              		.cfi_def_cfa_offset 0
ARM GAS  C:\Users\jo\AppData\Local\Temp\cc6wN9Ut.s 			page 2


  58 0012 7047     		bx	lr
  59              	.LVL3:
  60              	.L10:
  61              		.cfi_restore_state
  62              		.loc 1 249 0
  63 0014 0122     		movs	r2, #1
  64              	.LVL4:
  65              	.L2:
  66              		.loc 1 253 0
  67 0016 5300     		lsls	r3, r2, #1
  68 0018 9D18     		adds	r5, r3, r2
  69              		.loc 1 262 0
  70 001a 0778     		ldrb	r7, [r0]	@ zero_extendqisi2
  71              		.loc 1 253 0
  72 001c ED00     		lsls	r5, r5, #3
  73 001e 6619     		adds	r6, r4, r5
  74 0020 6051     		str	r0, [r4, r5]
  75              		.loc 1 262 0
  76 0022 102F     		cmp	r7, #16
  77              		.loc 1 257 0
  78 0024 4FF00000 		mov	r0, #0
  79              	.LVL5:
  80              		.loc 1 259 0
  81 0028 7081     		strh	r0, [r6, #10]	@ movhi
  82              		.loc 1 257 0
  83 002a 7060     		str	r0, [r6, #4]
  84              		.loc 1 258 0
  85 002c 3081     		strh	r0, [r6, #8]	@ movhi
  86              		.loc 1 262 0
  87 002e 0AD0     		beq	.L11
  88 0030 0121     		movs	r1, #1
  89              	.LVL6:
  90              	.L4:
  91              		.loc 1 262 0 is_stmt 0 discriminator 6
  92 0032 1344     		add	r3, r3, r2
  93 0034 04EBC303 		add	r3, r4, r3, lsl #3
  94              		.loc 1 263 0 is_stmt 1 discriminator 6
  95 0038 0024     		movs	r4, #0
  96              		.loc 1 266 0 discriminator 6
  97 003a 1046     		mov	r0, r2
  98              		.loc 1 262 0 discriminator 6
  99 003c 9981     		strh	r1, [r3, #12]	@ movhi
 100              		.loc 1 263 0 discriminator 6
 101 003e DC81     		strh	r4, [r3, #14]	@ movhi
 102              		.loc 1 264 0 discriminator 6
 103 0040 1C61     		str	r4, [r3, #16]
 104              		.loc 1 265 0 discriminator 6
 105 0042 5C61     		str	r4, [r3, #20]
 106              		.loc 1 266 0 discriminator 6
 107 0044 E4E7     		b	.L3
 108              	.LVL7:
 109              	.L11:
 110 0046 091A     		subs	r1, r1, r0
 111              	.LVL8:
 112 0048 18BF     		it	ne
 113 004a 0121     		movne	r1, #1
 114 004c F1E7     		b	.L4
ARM GAS  C:\Users\jo\AppData\Local\Temp\cc6wN9Ut.s 			page 3


 115              	.L13:
 116 004e 00BF     		.align	2
 117              	.L12:
 118 0050 00000000 		.word	.LANCHOR0
 119              		.cfi_endproc
 120              	.LFE263:
 121              		.size	alloc_socket, .-alloc_socket
 122 0054 AFF30080 		.section	.text.lwip_getaddrname,"ax",%progbits
 122      AFF30080 
 122      AFF30080 
 123              		.align	2
 124              		.p2align 4,,15
 125              		.thumb
 126              		.thumb_func
 127              		.type	lwip_getaddrname, %function
 128              	lwip_getaddrname:
 129              	.LFB281:
 130              		.loc 1 1417 0
 131              		.cfi_startproc
 132              		@ args = 0, pretend = 0, frame = 24
 133              		@ frame_needed = 0, uses_anonymous_args = 0
 134              	.LVL9:
 135              	.LBB106:
 136              	.LBB107:
 137              		.loc 1 199 0
 138 0000 0128     		cmp	r0, #1
 139 0002 02D9     		bls	.L25
 140              	.LBE107:
 141              	.LBE106:
 142              		.loc 1 1424 0
 143 0004 4FF0FF30 		mov	r0, #-1
 144              	.LVL10:
 145              		.loc 1 1448 0
 146 0008 7047     		bx	lr
 147              	.LVL11:
 148              	.L25:
 149              		.loc 1 1417 0
 150 000a 2DE9F043 		push	{r4, r5, r6, r7, r8, r9, lr}
 151              		.cfi_def_cfa_offset 28
 152              		.cfi_offset 4, -28
 153              		.cfi_offset 5, -24
 154              		.cfi_offset 6, -20
 155              		.cfi_offset 7, -16
 156              		.cfi_offset 8, -12
 157              		.cfi_offset 9, -8
 158              		.cfi_offset 14, -4
 159              	.LBB110:
 160              	.LBB108:
 161              		.loc 1 207 0
 162 000e 4FEA4008 		lsl	r8, r0, #1
 163 0012 08EB0004 		add	r4, r8, r0
 164 0016 1F4F     		ldr	r7, .L27
 165 0018 57F83450 		ldr	r5, [r7, r4, lsl #3]
 166              	.LBE108:
 167              	.LBE110:
 168              		.loc 1 1417 0
 169 001c 87B0     		sub	sp, sp, #28
ARM GAS  C:\Users\jo\AppData\Local\Temp\cc6wN9Ut.s 			page 4


 170              		.cfi_def_cfa_offset 56
 171              	.LBB111:
 172              	.LBB109:
 173              		.loc 1 207 0
 174 001e B5B3     		cbz	r5, .L26
 175              	.LBE109:
 176              	.LBE111:
 177              		.loc 1 1427 0
 178 0020 4FF0000E 		mov	lr, #0
 179              		.loc 1 1429 0
 180 0024 4FF0020C 		mov	ip, #2
 181 0028 9146     		mov	r9, r2
 182 002a 0E46     		mov	r6, r1
 183              		.loc 1 1432 0
 184 002c 0DF10A02 		add	r2, sp, #10
 185              	.LVL12:
 186 0030 01A9     		add	r1, sp, #4
 187              	.LVL13:
 188 0032 0446     		mov	r4, r0
 189 0034 2846     		mov	r0, r5
 190              	.LVL14:
 191              		.loc 1 1428 0
 192 0036 1025     		movs	r5, #16
 193              		.loc 1 1427 0
 194 0038 CDF808E0 		str	lr, [sp, #8]
 195 003c CDF80CE0 		str	lr, [sp, #12]
 196 0040 CDF810E0 		str	lr, [sp, #16]
 197 0044 CDF814E0 		str	lr, [sp, #20]
 198              		.loc 1 1429 0
 199 0048 8DF809C0 		strb	ip, [sp, #9]
 200              		.loc 1 1428 0
 201 004c 8DF80850 		strb	r5, [sp, #8]
 202              		.loc 1 1432 0
 203 0050 FFF7FEFF 		bl	netconn_getaddr
 204              	.LVL15:
 205              		.loc 1 1438 0
 206 0054 BDF80A00 		ldrh	r0, [sp, #10]
 207 0058 FFF7FEFF 		bl	lwip_htons
 208              	.LVL16:
 209              		.loc 1 1441 0
 210 005c D9F80020 		ldr	r2, [r9]
 211              		.loc 1 1439 0
 212 0060 019B     		ldr	r3, [sp, #4]
 213              		.loc 1 1438 0
 214 0062 ADF80A00 		strh	r0, [sp, #10]	@ movhi
 215              		.loc 1 1441 0
 216 0066 AA42     		cmp	r2, r5
 217              		.loc 1 1439 0
 218 0068 0393     		str	r3, [sp, #12]
 219              		.loc 1 1441 0
 220 006a 0CD8     		bhi	.L17
 221              	.L18:
 222              		.loc 1 1445 0
 223 006c 3046     		mov	r0, r6
 224 006e 02A9     		add	r1, sp, #8
 225 0070 FFF7FEFF 		bl	memcpy
 226              	.LVL17:
ARM GAS  C:\Users\jo\AppData\Local\Temp\cc6wN9Ut.s 			page 5


 227              		.loc 1 1446 0
 228 0074 08EB0403 		add	r3, r8, r4
 229 0078 07EBC303 		add	r3, r7, r3, lsl #3
 230 007c 0020     		movs	r0, #0
 231 007e 1861     		str	r0, [r3, #16]
 232              	.LVL18:
 233              	.L22:
 234              		.loc 1 1448 0
 235 0080 07B0     		add	sp, sp, #28
 236              		.cfi_remember_state
 237              		.cfi_def_cfa_offset 28
 238              		@ sp needed
 239 0082 BDE8F083 		pop	{r4, r5, r6, r7, r8, r9, pc}
 240              	.LVL19:
 241              	.L17:
 242              		.cfi_restore_state
 243              		.loc 1 1442 0
 244 0086 C9F80050 		str	r5, [r9]
 245 008a 2A46     		mov	r2, r5
 246 008c EEE7     		b	.L18
 247              	.LVL20:
 248              	.L26:
 249              		.loc 1 1424 0
 250 008e 4FF0FF30 		mov	r0, #-1
 251              	.LVL21:
 252 0092 F5E7     		b	.L22
 253              	.L28:
 254              		.align	2
 255              	.L27:
 256 0094 00000000 		.word	.LANCHOR0
 257              		.cfi_endproc
 258              	.LFE281:
 259              		.size	lwip_getaddrname, .-lwip_getaddrname
 260 0098 AFF30080 		.section	.text.chprintf.constprop.0,"ax",%progbits
 260      AFF30080 
 261              		.align	2
 262              		.p2align 4,,15
 263              		.thumb
 264              		.thumb_func
 265              		.type	chprintf.constprop.0, %function
 266              	chprintf.constprop.0:
 267              	.LFB290:
 268              		.file 2 "../../../os/hal/lib/streams/chprintf.h"
 269              		.loc 2 69 0
 270              		.cfi_startproc
 271              		@ args = 4, pretend = 12, frame = 8
 272              		@ frame_needed = 0, uses_anonymous_args = 1
 273              	.LVL22:
 274 0000 0EB4     		push	{r1, r2, r3}
 275              		.cfi_def_cfa_offset 12
 276              		.cfi_offset 1, -12
 277              		.cfi_offset 2, -8
 278              		.cfi_offset 3, -4
 279 0002 00B5     		push	{lr}
 280              		.cfi_def_cfa_offset 16
 281              		.cfi_offset 14, -16
 282 0004 82B0     		sub	sp, sp, #8
ARM GAS  C:\Users\jo\AppData\Local\Temp\cc6wN9Ut.s 			page 6


 283              		.cfi_def_cfa_offset 24
 284              		.loc 2 73 0
 285 0006 04AB     		add	r3, sp, #16
 286              		.loc 2 74 0
 287 0008 1A46     		mov	r2, r3
 288 000a 0549     		ldr	r1, .L31
 289 000c 0548     		ldr	r0, .L31+4
 290              	.LVL23:
 291              		.loc 2 73 0
 292 000e 0193     		str	r3, [sp, #4]
 293              		.loc 2 74 0
 294 0010 FFF7FEFF 		bl	chvprintf
 295              	.LVL24:
 296              		.loc 2 78 0
 297 0014 02B0     		add	sp, sp, #8
 298              		.cfi_def_cfa_offset 16
 299              		@ sp needed
 300 0016 5DF804EB 		ldr	lr, [sp], #4
 301              		.cfi_restore 14
 302              		.cfi_def_cfa_offset 12
 303 001a 03B0     		add	sp, sp, #12
 304              		.cfi_restore 3
 305              		.cfi_restore 2
 306              		.cfi_restore 1
 307              		.cfi_def_cfa_offset 0
 308 001c 7047     		bx	lr
 309              	.L32:
 310 001e 00BF     		.align	2
 311              	.L31:
 312 0020 00000000 		.word	.LC0
 313 0024 00000000 		.word	itm_port
 314              		.cfi_endproc
 315              	.LFE290:
 316              		.size	chprintf.constprop.0, .-chprintf.constprop.0
 317 0028 AFF30080 		.section	.text.lwip_setsockopt_internal,"ax",%progbits
 317      AFF30080 
 318              		.align	2
 319              		.p2align 4,,15
 320              		.thumb
 321              		.thumb_func
 322              		.type	lwip_setsockopt_internal, %function
 323              	lwip_setsockopt_internal:
 324              	.LFB287:
 325              		.loc 1 2081 0
 326              		.cfi_startproc
 327              		@ args = 0, pretend = 0, frame = 0
 328              		@ frame_needed = 0, uses_anonymous_args = 0
 329              	.LVL25:
 330 0000 30B5     		push	{r4, r5, lr}
 331              		.cfi_def_cfa_offset 12
 332              		.cfi_offset 4, -12
 333              		.cfi_offset 5, -8
 334              		.cfi_offset 14, -4
 335              		.loc 1 2090 0
 336 0002 0446     		mov	r4, r0
 337              		.loc 1 2081 0
 338 0004 83B0     		sub	sp, sp, #12
ARM GAS  C:\Users\jo\AppData\Local\Temp\cc6wN9Ut.s 			page 7


 339              		.cfi_def_cfa_offset 24
 340              		.loc 1 2090 0
 341 0006 0028     		cmp	r0, #0
 342 0008 00F08980 		beq	.L65
 343              	.LVL26:
 344              	.L34:
 345              		.loc 1 2101 0
 346 000c A368     		ldr	r3, [r4, #8]
 347              		.loc 1 2093 0
 348 000e 2568     		ldr	r5, [r4]
 349              	.LVL27:
 350              		.loc 1 2098 0
 351 0010 E268     		ldr	r2, [r4, #12]
 352              	.LVL28:
 353              		.loc 1 2099 0
 354 0012 2469     		ldr	r4, [r4, #16]
 355              	.LVL29:
 356              		.loc 1 2101 0
 357 0014 062B     		cmp	r3, #6
 358 0016 37D0     		beq	.L36
 359 0018 40F6FF71 		movw	r1, #4095
 360 001c 8B42     		cmp	r3, r1
 361 001e 1DD0     		beq	.L37
 362 0020 93B1     		cbz	r3, .L66
 363              		.loc 1 2282 0 discriminator 1
 364 0022 514B     		ldr	r3, .L68
 365              	.LVL30:
 366 0024 0093     		str	r3, [sp]
 367              	.LVL31:
 368 0026 5149     		ldr	r1, .L68+4
 369 0028 514A     		ldr	r2, .L68+8
 370              	.LVL32:
 371 002a 5248     		ldr	r0, .L68+12
 372 002c 40F6EA03 		movw	r3, #2282
 373 0030 FFF7FEFF 		bl	chprintf.constprop.0
 374              	.LVL33:
 375              	.LBB112:
 376              	.LBB113:
 377              		.file 3 "../../../os/hal/osal/rt/osal.h"
 378              		.loc 3 416 0 discriminator 1
 379 0034 4E48     		ldr	r0, .L68+8
 380 0036 FFF7FEFF 		bl	chSysHalt
 381              	.LVL34:
 382 003a 2868     		ldr	r0, [r5]
 383              	.LVL35:
 384              	.L43:
 385              	.LBE113:
 386              	.LBE112:
 387              		.loc 1 2285 0
 388 003c 0C30     		adds	r0, r0, #12
 389              		.loc 1 2286 0
 390 003e 03B0     		add	sp, sp, #12
 391              		.cfi_remember_state
 392              		.cfi_def_cfa_offset 12
 393              		@ sp needed
 394 0040 BDE83040 		pop	{r4, r5, lr}
 395              		.cfi_restore 14
ARM GAS  C:\Users\jo\AppData\Local\Temp\cc6wN9Ut.s 			page 8


 396              		.cfi_restore 5
 397              		.cfi_restore 4
 398              		.cfi_def_cfa_offset 0
 399              	.LVL36:
 400              		.loc 1 2285 0
 401 0044 FFF7FEBF 		b	sys_sem_signal
 402              	.LVL37:
 403              	.L66:
 404              		.cfi_restore_state
 405              		.loc 1 2158 0
 406 0048 012A     		cmp	r2, #1
 407 004a 3DD0     		beq	.L46
 408 004c 022A     		cmp	r2, #2
 409 004e 41D1     		bne	.L60
 410              		.loc 1 2160 0
 411 0050 2B68     		ldr	r3, [r5]
 412              	.LVL38:
 413 0052 2268     		ldr	r2, [r4]
 414              	.LVL39:
 415 0054 5B68     		ldr	r3, [r3, #4]
 416 0056 9A72     		strb	r2, [r3, #10]
 417              	.LVL40:
 418 0058 2868     		ldr	r0, [r5]
 419              		.loc 1 2163 0
 420 005a EFE7     		b	.L43
 421              	.LVL41:
 422              	.L37:
 423              		.loc 1 2105 0
 424 005c 202A     		cmp	r2, #32
 425 005e 47D0     		beq	.L40
 426 0060 41F20A03 		movw	r3, #4106
 427              	.LVL42:
 428 0064 9A42     		cmp	r2, r3
 429 0066 19D0     		beq	.L41
 430 0068 082A     		cmp	r2, #8
 431 006a 41D0     		beq	.L40
 432              		.loc 1 2151 0 discriminator 1
 433 006c 3E4B     		ldr	r3, .L68
 434 006e 0093     		str	r3, [sp]
 435              	.LVL43:
 436 0070 3E49     		ldr	r1, .L68+4
 437 0072 414A     		ldr	r2, .L68+16
 438              	.LVL44:
 439 0074 3F48     		ldr	r0, .L68+12
 440 0076 40F66703 		movw	r3, #2151
 441 007a FFF7FEFF 		bl	chprintf.constprop.0
 442              	.LVL45:
 443              	.LBB114:
 444              	.LBB115:
 445              		.loc 3 416 0 discriminator 1
 446 007e 3E48     		ldr	r0, .L68+16
 447 0080 FFF7FEFF 		bl	chSysHalt
 448              	.LVL46:
 449 0084 2868     		ldr	r0, [r5]
 450 0086 D9E7     		b	.L43
 451              	.LVL47:
 452              	.L36:
ARM GAS  C:\Users\jo\AppData\Local\Temp\cc6wN9Ut.s 			page 9


 453              	.LBE115:
 454              	.LBE114:
 455              		.loc 1 2212 0
 456 0088 012A     		cmp	r2, #1
 457 008a 12D0     		beq	.L49
 458 008c 022A     		cmp	r2, #2
 459 008e 38D1     		bne	.L67
 460              		.loc 1 2223 0
 461 0090 2868     		ldr	r0, [r5]
 462 0092 2268     		ldr	r2, [r4]
 463              	.LVL48:
 464 0094 4368     		ldr	r3, [r0, #4]
 465              	.LVL49:
 466 0096 C3F89020 		str	r2, [r3, #144]
 467              	.LVL50:
 468              		.loc 1 2226 0
 469 009a CFE7     		b	.L43
 470              	.LVL51:
 471              	.L41:
 472              		.loc 1 2143 0
 473 009c 2368     		ldr	r3, [r4]
 474 009e 002B     		cmp	r3, #0
 475 00a0 5AD0     		beq	.L44
 476              		.loc 1 2144 0
 477 00a2 2B68     		ldr	r3, [r5]
 478 00a4 5A68     		ldr	r2, [r3, #4]
 479              	.LVL52:
 480 00a6 137C     		ldrb	r3, [r2, #16]	@ zero_extendqisi2
 481 00a8 43F00103 		orr	r3, r3, #1
 482 00ac 1374     		strb	r3, [r2, #16]
 483              	.LVL53:
 484 00ae 2868     		ldr	r0, [r5]
 485 00b0 C4E7     		b	.L43
 486              	.LVL54:
 487              	.L49:
 488              		.loc 1 2214 0
 489 00b2 2368     		ldr	r3, [r4]
 490              	.LVL55:
 491 00b4 002B     		cmp	r3, #0
 492 00b6 47D0     		beq	.L51
 493              		.loc 1 2215 0
 494 00b8 2B68     		ldr	r3, [r5]
 495 00ba 5A68     		ldr	r2, [r3, #4]
 496              	.LVL56:
 497 00bc 937F     		ldrb	r3, [r2, #30]	@ zero_extendqisi2
 498 00be 43F04003 		orr	r3, r3, #64
 499 00c2 9377     		strb	r3, [r2, #30]
 500              	.LVL57:
 501 00c4 2868     		ldr	r0, [r5]
 502 00c6 B9E7     		b	.L43
 503              	.LVL58:
 504              	.L46:
 505              		.loc 1 2165 0
 506 00c8 2B68     		ldr	r3, [r5]
 507              	.LVL59:
 508 00ca 2268     		ldr	r2, [r4]
 509              	.LVL60:
ARM GAS  C:\Users\jo\AppData\Local\Temp\cc6wN9Ut.s 			page 10


 510 00cc 5B68     		ldr	r3, [r3, #4]
 511 00ce 5A72     		strb	r2, [r3, #9]
 512              	.LVL61:
 513 00d0 2868     		ldr	r0, [r5]
 514              		.loc 1 2168 0
 515 00d2 B3E7     		b	.L43
 516              	.LVL62:
 517              	.L60:
 518              		.loc 1 2204 0 discriminator 1
 519 00d4 244B     		ldr	r3, .L68
 520              	.LVL63:
 521 00d6 0093     		str	r3, [sp]
 522              	.LVL64:
 523 00d8 2449     		ldr	r1, .L68+4
 524 00da 274A     		ldr	r2, .L68+16
 525              	.LVL65:
 526 00dc 2548     		ldr	r0, .L68+12
 527 00de 40F69C03 		movw	r3, #2204
 528 00e2 FFF7FEFF 		bl	chprintf.constprop.0
 529              	.LVL66:
 530              	.LBB116:
 531              	.LBB117:
 532              		.loc 3 416 0 discriminator 1
 533 00e6 2448     		ldr	r0, .L68+16
 534 00e8 FFF7FEFF 		bl	chSysHalt
 535              	.LVL67:
 536 00ec 2868     		ldr	r0, [r5]
 537 00ee A5E7     		b	.L43
 538              	.LVL68:
 539              	.L40:
 540              	.LBE117:
 541              	.LBE116:
 542              		.loc 1 2118 0
 543 00f0 2368     		ldr	r3, [r4]
 544 00f2 0BB3     		cbz	r3, .L42
 545              		.loc 1 2119 0
 546 00f4 2B68     		ldr	r3, [r5]
 547 00f6 5968     		ldr	r1, [r3, #4]
 548 00f8 0B7A     		ldrb	r3, [r1, #8]	@ zero_extendqisi2
 549 00fa 1A43     		orrs	r2, r2, r3
 550              	.LVL69:
 551 00fc 0A72     		strb	r2, [r1, #8]
 552              	.LVL70:
 553 00fe 2868     		ldr	r0, [r5]
 554 0100 9CE7     		b	.L43
 555              	.LVL71:
 556              	.L67:
 557              		.loc 1 2246 0 discriminator 1
 558 0102 194B     		ldr	r3, .L68
 559              	.LVL72:
 560 0104 0093     		str	r3, [sp]
 561              	.LVL73:
 562 0106 1949     		ldr	r1, .L68+4
 563 0108 1B4A     		ldr	r2, .L68+16
 564              	.LVL74:
 565 010a 1A48     		ldr	r0, .L68+12
 566 010c 40F6C603 		movw	r3, #2246
ARM GAS  C:\Users\jo\AppData\Local\Temp\cc6wN9Ut.s 			page 11


 567 0110 FFF7FEFF 		bl	chprintf.constprop.0
 568              	.LVL75:
 569              	.LBB118:
 570              	.LBB119:
 571              		.loc 3 416 0 discriminator 1
 572 0114 1848     		ldr	r0, .L68+16
 573 0116 FFF7FEFF 		bl	chSysHalt
 574              	.LVL76:
 575 011a 2868     		ldr	r0, [r5]
 576 011c 8EE7     		b	.L43
 577              	.LVL77:
 578              	.L65:
 579              	.LBE119:
 580              	.LBE118:
 581              		.loc 1 2090 0 discriminator 1
 582 011e 124B     		ldr	r3, .L68
 583 0120 0093     		str	r3, [sp]
 584 0122 1249     		ldr	r1, .L68+4
 585 0124 154A     		ldr	r2, .L68+20
 586 0126 1348     		ldr	r0, .L68+12
 587              	.LVL78:
 588 0128 40F62A03 		movw	r3, #2090
 589 012c FFF7FEFF 		bl	chprintf.constprop.0
 590              	.LVL79:
 591              	.LBB120:
 592              	.LBB121:
 593              		.loc 3 416 0 discriminator 1
 594 0130 1248     		ldr	r0, .L68+20
 595 0132 FFF7FEFF 		bl	chSysHalt
 596              	.LVL80:
 597 0136 69E7     		b	.L34
 598              	.LVL81:
 599              	.L42:
 600              	.LBE121:
 601              	.LBE120:
 602              		.loc 1 2121 0
 603 0138 2B68     		ldr	r3, [r5]
 604 013a 5968     		ldr	r1, [r3, #4]
 605 013c 0B7A     		ldrb	r3, [r1, #8]	@ zero_extendqisi2
 606 013e 23EA0202 		bic	r2, r3, r2
 607              	.LVL82:
 608 0142 0A72     		strb	r2, [r1, #8]
 609              	.LVL83:
 610 0144 2868     		ldr	r0, [r5]
 611 0146 79E7     		b	.L43
 612              	.LVL84:
 613              	.L51:
 614              		.loc 1 2217 0
 615 0148 2B68     		ldr	r3, [r5]
 616 014a 5A68     		ldr	r2, [r3, #4]
 617              	.LVL85:
 618 014c 937F     		ldrb	r3, [r2, #30]	@ zero_extendqisi2
 619 014e 23F04003 		bic	r3, r3, #64
 620 0152 9377     		strb	r3, [r2, #30]
 621              	.LVL86:
 622 0154 2868     		ldr	r0, [r5]
 623 0156 71E7     		b	.L43
ARM GAS  C:\Users\jo\AppData\Local\Temp\cc6wN9Ut.s 			page 12


 624              	.LVL87:
 625              	.L44:
 626              		.loc 1 2146 0
 627 0158 2B68     		ldr	r3, [r5]
 628 015a 5A68     		ldr	r2, [r3, #4]
 629              	.LVL88:
 630 015c 137C     		ldrb	r3, [r2, #16]	@ zero_extendqisi2
 631 015e 23F00103 		bic	r3, r3, #1
 632 0162 1374     		strb	r3, [r2, #16]
 633              	.LVL89:
 634 0164 2868     		ldr	r0, [r5]
 635 0166 69E7     		b	.L43
 636              	.L69:
 637              		.align	2
 638              	.L68:
 639 0168 34000000 		.word	.LC2
 640 016c 00000000 		.word	.LC0
 641 0170 6C000000 		.word	.LC4
 642 0174 00000000 		.word	itm_port
 643 0178 58000000 		.word	.LC3
 644 017c 28000000 		.word	.LC1
 645              		.cfi_endproc
 646              	.LFE287:
 647              		.size	lwip_setsockopt_internal, .-lwip_setsockopt_internal
 648              		.section	.text.lwip_getsockopt_internal,"ax",%progbits
 649              		.align	2
 650              		.p2align 4,,15
 651              		.thumb
 652              		.thumb_func
 653              		.type	lwip_getsockopt_internal, %function
 654              	lwip_getsockopt_internal:
 655              	.LFB285:
 656              		.loc 1 1664 0
 657              		.cfi_startproc
 658              		@ args = 0, pretend = 0, frame = 0
 659              		@ frame_needed = 0, uses_anonymous_args = 0
 660              	.LVL90:
 661 0000 30B5     		push	{r4, r5, lr}
 662              		.cfi_def_cfa_offset 12
 663              		.cfi_offset 4, -12
 664              		.cfi_offset 5, -8
 665              		.cfi_offset 14, -4
 666              		.loc 1 1673 0
 667 0002 0446     		mov	r4, r0
 668              		.loc 1 1664 0
 669 0004 83B0     		sub	sp, sp, #12
 670              		.cfi_def_cfa_offset 24
 671              		.loc 1 1673 0
 672 0006 0028     		cmp	r0, #0
 673 0008 00F09280 		beq	.L121
 674              	.LVL91:
 675              	.L71:
 676              		.loc 1 1684 0
 677 000c A368     		ldr	r3, [r4, #8]
 678              		.loc 1 1676 0
 679 000e 2568     		ldr	r5, [r4]
 680              	.LVL92:
ARM GAS  C:\Users\jo\AppData\Local\Temp\cc6wN9Ut.s 			page 13


 681              		.loc 1 1681 0
 682 0010 E268     		ldr	r2, [r4, #12]
 683              	.LVL93:
 684              		.loc 1 1682 0
 685 0012 2169     		ldr	r1, [r4, #16]
 686              	.LVL94:
 687              		.loc 1 1684 0
 688 0014 062B     		cmp	r3, #6
 689 0016 3DD0     		beq	.L73
 690 0018 40F6FF70 		movw	r0, #4095
 691 001c 8342     		cmp	r3, r0
 692 001e 1CD0     		beq	.L74
 693 0020 93B1     		cbz	r3, .L122
 694              		.loc 1 1864 0 discriminator 1
 695 0022 594B     		ldr	r3, .L128
 696              	.LVL95:
 697 0024 0093     		str	r3, [sp]
 698              	.LVL96:
 699 0026 5949     		ldr	r1, .L128+4
 700              	.LVL97:
 701 0028 594A     		ldr	r2, .L128+8
 702              	.LVL98:
 703 002a 5A48     		ldr	r0, .L128+12
 704 002c 4FF4E963 		mov	r3, #1864
 705 0030 FFF7FEFF 		bl	chprintf.constprop.0
 706              	.LVL99:
 707              	.LBB122:
 708              	.LBB123:
 709              		.loc 3 416 0 discriminator 1
 710 0034 5648     		ldr	r0, .L128+8
 711 0036 FFF7FEFF 		bl	chSysHalt
 712              	.LVL100:
 713 003a 2868     		ldr	r0, [r5]
 714              	.LVL101:
 715              	.L82:
 716              	.LBE123:
 717              	.LBE122:
 718              		.loc 1 1867 0
 719 003c 0C30     		adds	r0, r0, #12
 720              		.loc 1 1868 0
 721 003e 03B0     		add	sp, sp, #12
 722              		.cfi_remember_state
 723              		.cfi_def_cfa_offset 12
 724              		@ sp needed
 725 0040 BDE83040 		pop	{r4, r5, lr}
 726              		.cfi_restore 14
 727              		.cfi_restore 5
 728              		.cfi_restore 4
 729              		.cfi_def_cfa_offset 0
 730              	.LVL102:
 731              		.loc 1 1867 0
 732 0044 FFF7FEBF 		b	sys_sem_signal
 733              	.LVL103:
 734              	.L122:
 735              		.cfi_restore_state
 736              		.loc 1 1767 0
 737 0048 012A     		cmp	r2, #1
ARM GAS  C:\Users\jo\AppData\Local\Temp\cc6wN9Ut.s 			page 14


 738 004a 2DD0     		beq	.L91
 739 004c 022A     		cmp	r2, #2
 740 004e 61D1     		bne	.L114
 741              		.loc 1 1769 0
 742 0050 2868     		ldr	r0, [r5]
 743 0052 4368     		ldr	r3, [r0, #4]
 744              	.LVL104:
 745 0054 9B7A     		ldrb	r3, [r3, #10]	@ zero_extendqisi2
 746 0056 0B60     		str	r3, [r1]
 747              	.LVL105:
 748              		.loc 1 1772 0
 749 0058 F0E7     		b	.L82
 750              	.LVL106:
 751              	.L74:
 752              		.loc 1 1688 0
 753 005a 202A     		cmp	r2, #32
 754 005c 34D0     		beq	.L77
 755 005e 2FDD     		ble	.L123
 756 0060 41F20803 		movw	r3, #4104
 757              	.LVL107:
 758 0064 9A42     		cmp	r2, r3
 759 0066 77D0     		beq	.L79
 760 0068 41F20A03 		movw	r3, #4106
 761 006c 9A42     		cmp	r2, r3
 762 006e 6CD0     		beq	.L80
 763 0070 41F20703 		movw	r3, #4103
 764 0074 9A42     		cmp	r2, r3
 765 0076 2DD0     		beq	.L124
 766              	.L76:
 767              		.loc 1 1760 0 discriminator 1
 768 0078 434B     		ldr	r3, .L128
 769 007a 0093     		str	r3, [sp]
 770              	.LVL108:
 771 007c 4349     		ldr	r1, .L128+4
 772              	.LVL109:
 773 007e 464A     		ldr	r2, .L128+16
 774              	.LVL110:
 775 0080 4448     		ldr	r0, .L128+12
 776 0082 4FF4DC63 		mov	r3, #1760
 777 0086 FFF7FEFF 		bl	chprintf.constprop.0
 778              	.LVL111:
 779              	.LBB124:
 780              	.LBB125:
 781              		.loc 3 416 0 discriminator 1
 782 008a 4348     		ldr	r0, .L128+16
 783 008c FFF7FEFF 		bl	chSysHalt
 784              	.LVL112:
 785 0090 2868     		ldr	r0, [r5]
 786 0092 D3E7     		b	.L82
 787              	.LVL113:
 788              	.L73:
 789              	.LBE125:
 790              	.LBE124:
 791              		.loc 1 1808 0
 792 0094 012A     		cmp	r2, #1
 793 0096 0CD0     		beq	.L94
 794 0098 022A     		cmp	r2, #2
ARM GAS  C:\Users\jo\AppData\Local\Temp\cc6wN9Ut.s 			page 15


 795 009a 2DD1     		bne	.L125
 796              		.loc 1 1815 0
 797 009c 2868     		ldr	r0, [r5]
 798 009e 4368     		ldr	r3, [r0, #4]
 799              	.LVL114:
 800 00a0 D3F89030 		ldr	r3, [r3, #144]
 801 00a4 0B60     		str	r3, [r1]
 802              	.LVL115:
 803              		.loc 1 1818 0
 804 00a6 C9E7     		b	.L82
 805              	.LVL116:
 806              	.L91:
 807              		.loc 1 1774 0
 808 00a8 2868     		ldr	r0, [r5]
 809 00aa 4368     		ldr	r3, [r0, #4]
 810              	.LVL117:
 811 00ac 5B7A     		ldrb	r3, [r3, #9]	@ zero_extendqisi2
 812 00ae 0B60     		str	r3, [r1]
 813              	.LVL118:
 814              		.loc 1 1777 0
 815 00b0 C4E7     		b	.L82
 816              	.LVL119:
 817              	.L94:
 818              		.loc 1 1810 0
 819 00b2 2868     		ldr	r0, [r5]
 820 00b4 4368     		ldr	r3, [r0, #4]
 821              	.LVL120:
 822 00b6 9B7F     		ldrb	r3, [r3, #30]	@ zero_extendqisi2
 823 00b8 C3F38013 		ubfx	r3, r3, #6, #1
 824 00bc 0B60     		str	r3, [r1]
 825              	.LVL121:
 826              		.loc 1 1813 0
 827 00be BDE7     		b	.L82
 828              	.LVL122:
 829              	.L123:
 830              		.loc 1 1688 0
 831 00c0 022A     		cmp	r2, #2
 832 00c2 01D0     		beq	.L77
 833 00c4 082A     		cmp	r2, #8
 834 00c6 D7D1     		bne	.L76
 835              	.L77:
 836              		.loc 1 1702 0
 837 00c8 2868     		ldr	r0, [r5]
 838 00ca 4368     		ldr	r3, [r0, #4]
 839              	.LVL123:
 840 00cc 1B7A     		ldrb	r3, [r3, #8]	@ zero_extendqisi2
 841 00ce 1A40     		ands	r2, r2, r3
 842              	.LVL124:
 843 00d0 0A60     		str	r2, [r1]
 844              	.LVL125:
 845              		.loc 1 1705 0
 846 00d2 B3E7     		b	.L82
 847              	.LVL126:
 848              	.L124:
 849              		.loc 1 1730 0
 850 00d4 2B69     		ldr	r3, [r5, #16]
 851              		.loc 1 1731 0
ARM GAS  C:\Users\jo\AppData\Local\Temp\cc6wN9Ut.s 			page 16


 852 00d6 2868     		ldr	r0, [r5]
 853              		.loc 1 1730 0
 854 00d8 002B     		cmp	r3, #0
 855 00da 49D1     		bne	.L126
 856              	.L87:
 857              		.loc 1 1731 0
 858 00dc 90F90830 		ldrsb	r3, [r0, #8]
 859 00e0 5B42     		negs	r3, r3
 860 00e2 0F2B     		cmp	r3, #15
 861 00e4 96BF     		itet	ls
 862 00e6 2D4A     		ldrls	r2, .L128+20
 863              	.LVL127:
 864 00e8 0523     		movhi	r3, #5
 865 00ea 52F82330 		ldrls	r3, [r2, r3, lsl #2]
 866 00ee 2B61     		str	r3, [r5, #16]
 867              	.LVL128:
 868              	.L88:
 869              		.loc 1 1734 0
 870 00f0 0022     		movs	r2, #0
 871              		.loc 1 1733 0
 872 00f2 0B60     		str	r3, [r1]
 873              	.LVL129:
 874              		.loc 1 1734 0
 875 00f4 2A61     		str	r2, [r5, #16]
 876              		.loc 1 1737 0
 877 00f6 A1E7     		b	.L82
 878              	.LVL130:
 879              	.L125:
 880              		.loc 1 1838 0 discriminator 1
 881 00f8 234B     		ldr	r3, .L128
 882              	.LVL131:
 883 00fa 0093     		str	r3, [sp]
 884              	.LVL132:
 885 00fc 2349     		ldr	r1, .L128+4
 886              	.LVL133:
 887 00fe 264A     		ldr	r2, .L128+16
 888              	.LVL134:
 889 0100 2448     		ldr	r0, .L128+12
 890 0102 40F22E73 		movw	r3, #1838
 891 0106 FFF7FEFF 		bl	chprintf.constprop.0
 892              	.LVL135:
 893              	.LBB126:
 894              	.LBB127:
 895              		.loc 3 416 0 discriminator 1
 896 010a 2348     		ldr	r0, .L128+16
 897 010c FFF7FEFF 		bl	chSysHalt
 898              	.LVL136:
 899 0110 2868     		ldr	r0, [r5]
 900 0112 93E7     		b	.L82
 901              	.LVL137:
 902              	.L114:
 903              	.LBE127:
 904              	.LBE126:
 905              		.loc 1 1800 0 discriminator 1
 906 0114 1C4B     		ldr	r3, .L128
 907              	.LVL138:
 908 0116 0093     		str	r3, [sp]
ARM GAS  C:\Users\jo\AppData\Local\Temp\cc6wN9Ut.s 			page 17


 909              	.LVL139:
 910 0118 1C49     		ldr	r1, .L128+4
 911              	.LVL140:
 912 011a 1F4A     		ldr	r2, .L128+16
 913              	.LVL141:
 914 011c 1D48     		ldr	r0, .L128+12
 915 011e 4FF4E163 		mov	r3, #1800
 916 0122 FFF7FEFF 		bl	chprintf.constprop.0
 917              	.LVL142:
 918              	.LBB128:
 919              	.LBB129:
 920              		.loc 3 416 0 discriminator 1
 921 0126 1C48     		ldr	r0, .L128+16
 922 0128 FFF7FEFF 		bl	chSysHalt
 923              	.LVL143:
 924 012c 2868     		ldr	r0, [r5]
 925 012e 85E7     		b	.L82
 926              	.LVL144:
 927              	.L121:
 928              	.LBE129:
 929              	.LBE128:
 930              		.loc 1 1673 0 discriminator 1
 931 0130 154B     		ldr	r3, .L128
 932 0132 0093     		str	r3, [sp]
 933 0134 1549     		ldr	r1, .L128+4
 934 0136 1A4A     		ldr	r2, .L128+24
 935 0138 1648     		ldr	r0, .L128+12
 936              	.LVL145:
 937 013a 40F28963 		movw	r3, #1673
 938 013e FFF7FEFF 		bl	chprintf.constprop.0
 939              	.LVL146:
 940              	.LBB130:
 941              	.LBB131:
 942              		.loc 3 416 0 discriminator 1
 943 0142 1748     		ldr	r0, .L128+24
 944 0144 FFF7FEFF 		bl	chSysHalt
 945              	.LVL147:
 946 0148 60E7     		b	.L71
 947              	.LVL148:
 948              	.L80:
 949              	.LBE131:
 950              	.LBE130:
 951              		.loc 1 1756 0
 952 014a 2868     		ldr	r0, [r5]
 953 014c 4368     		ldr	r3, [r0, #4]
 954 014e 1B7C     		ldrb	r3, [r3, #16]	@ zero_extendqisi2
 955 0150 03F00103 		and	r3, r3, #1
 956 0154 0B60     		str	r3, [r1]
 957              	.LVL149:
 958              		.loc 1 1757 0
 959 0156 71E7     		b	.L82
 960              	.LVL150:
 961              	.L79:
 962              		.loc 1 1708 0
 963 0158 2868     		ldr	r0, [r5]
 964 015a 0278     		ldrb	r2, [r0]	@ zero_extendqisi2
 965              	.LVL151:
ARM GAS  C:\Users\jo\AppData\Local\Temp\cc6wN9Ut.s 			page 18


 966 015c 02F0F003 		and	r3, r2, #240
 967 0160 202B     		cmp	r3, #32
 968 0162 08D0     		beq	.L84
 969 0164 402B     		cmp	r3, #64
 970 0166 0CD0     		beq	.L85
 971 0168 102B     		cmp	r3, #16
 972 016a 07D0     		beq	.L127
 973              		.loc 1 1719 0
 974 016c 0A60     		str	r2, [r1]
 975              	.LVL152:
 976 016e 65E7     		b	.L82
 977              	.LVL153:
 978              	.L126:
 979              		.loc 1 1730 0 discriminator 1
 980 0170 732B     		cmp	r3, #115
 981 0172 BDD1     		bne	.L88
 982 0174 B2E7     		b	.L87
 983              	.LVL154:
 984              	.L84:
 985              		.loc 1 1716 0
 986 0176 0223     		movs	r3, #2
 987 0178 0B60     		str	r3, [r1]
 988              	.LVL155:
 989              		.loc 1 1717 0
 990 017a 5FE7     		b	.L82
 991              	.LVL156:
 992              	.L127:
 993              		.loc 1 1713 0
 994 017c 0123     		movs	r3, #1
 995 017e 0B60     		str	r3, [r1]
 996              	.LVL157:
 997              		.loc 1 1714 0
 998 0180 5CE7     		b	.L82
 999              	.LVL158:
 1000              	.L85:
 1001              		.loc 1 1710 0
 1002 0182 0323     		movs	r3, #3
 1003 0184 0B60     		str	r3, [r1]
 1004              	.LVL159:
 1005              		.loc 1 1711 0
 1006 0186 59E7     		b	.L82
 1007              	.L129:
 1008              		.align	2
 1009              	.L128:
 1010 0188 34000000 		.word	.LC2
 1011 018c 00000000 		.word	.LC0
 1012 0190 6C000000 		.word	.LC4
 1013 0194 00000000 		.word	itm_port
 1014 0198 58000000 		.word	.LC3
 1015 019c 00000000 		.word	.LANCHOR1
 1016 01a0 28000000 		.word	.LC1
 1017              		.cfi_endproc
 1018              	.LFE285:
 1019              		.size	lwip_getsockopt_internal, .-lwip_getsockopt_internal
 1020 01a4 AFF30080 		.section	.text.lwip_selscan,"ax",%progbits
 1020      AFF30080 
 1020      AFF30080 
ARM GAS  C:\Users\jo\AppData\Local\Temp\cc6wN9Ut.s 			page 19


 1021              		.align	2
 1022              		.p2align 4,,15
 1023              		.thumb
 1024              		.thumb_func
 1025              		.type	lwip_selscan, %function
 1026              	lwip_selscan:
 1027              	.LFB277:
 1028              		.loc 1 1028 0
 1029              		.cfi_startproc
 1030              		@ args = 12, pretend = 0, frame = 24
 1031              		@ frame_needed = 0, uses_anonymous_args = 0
 1032              	.LVL160:
 1033 0000 2DE9F04F 		push	{r4, r5, r6, r7, r8, r9, r10, fp, lr}
 1034              		.cfi_def_cfa_offset 36
 1035              		.cfi_offset 4, -36
 1036              		.cfi_offset 5, -32
 1037              		.cfi_offset 6, -28
 1038              		.cfi_offset 7, -24
 1039              		.cfi_offset 8, -20
 1040              		.cfi_offset 9, -16
 1041              		.cfi_offset 10, -12
 1042              		.cfi_offset 11, -8
 1043              		.cfi_offset 14, -4
 1044 0004 87B0     		sub	sp, sp, #28
 1045              		.cfi_def_cfa_offset 64
 1046              	.LVL161:
 1047              	.LBB132:
 1048              		.loc 1 1034 0
 1049 0006 6C46     		mov	r4, sp
 1050 0008 0025     		movs	r5, #0
 1051              	.LVL162:
 1052              	.L131:
 1053              		.loc 1 1034 0 is_stmt 0 discriminator 3
 1054 000a 04F8015B 		strb	r5, [r4], #1
 1055              	.LVL163:
 1056 000e 02AE     		add	r6, sp, #8
 1057 0010 B442     		cmp	r4, r6
 1058 0012 FAD1     		bne	.L131
 1059 0014 3446     		mov	r4, r6
 1060              	.LVL164:
 1061              	.LBE132:
 1062              	.LBB133:
 1063              		.loc 1 1035 0 is_stmt 1
 1064 0016 0025     		movs	r5, #0
 1065              	.L132:
 1066              	.LVL165:
 1067              		.loc 1 1035 0 is_stmt 0 discriminator 3
 1068 0018 04F8015B 		strb	r5, [r4], #1
 1069              	.LVL166:
 1070 001c 04AE     		add	r6, sp, #16
 1071 001e B442     		cmp	r4, r6
 1072 0020 FAD1     		bne	.L132
 1073 0022 3446     		mov	r4, r6
 1074              	.LVL167:
 1075              	.LBE133:
 1076              	.LBB134:
 1077              		.loc 1 1036 0 is_stmt 1
ARM GAS  C:\Users\jo\AppData\Local\Temp\cc6wN9Ut.s 			page 20


 1078 0024 0025     		movs	r5, #0
 1079              	.L133:
 1080              	.LVL168:
 1081              		.loc 1 1036 0 is_stmt 0 discriminator 3
 1082 0026 04F8015B 		strb	r5, [r4], #1
 1083              	.LVL169:
 1084 002a 06AE     		add	r6, sp, #24
 1085 002c B442     		cmp	r4, r6
 1086 002e FAD1     		bne	.L133
 1087              	.LVL170:
 1088              	.LBE134:
 1089              		.loc 1 1040 0 is_stmt 1 discriminator 1
 1090 0030 0028     		cmp	r0, #0
 1091 0032 4FF0000C 		mov	ip, #0
 1092 0036 5BDD     		ble	.L134
 1093 0038 DFF80CE1 		ldr	lr, .L175
 1094              		.loc 1 1040 0 is_stmt 0
 1095 003c 6446     		mov	r4, ip
 1096              	.LVL171:
 1097              	.L140:
 1098              	.LBB135:
 1099              	.LBB136:
 1100              	.LBB137:
 1101              		.loc 1 225 0 is_stmt 1
 1102 003e 012C     		cmp	r4, #1
 1103 0040 71D9     		bls	.L173
 1104              	.LBE137:
 1105              	.LBE136:
 1106              		.loc 1 1044 0
 1107 0042 0025     		movs	r5, #0
 1108              		.loc 1 1043 0
 1109 0044 A846     		mov	r8, r5
 1110              		.loc 1 1042 0
 1111 0046 AB46     		mov	fp, r5
 1112              		.loc 1 1041 0
 1113 0048 AA46     		mov	r10, r5
 1114              	.LVL172:
 1115              	.L135:
 1116              		.loc 1 1057 0
 1117 004a C9B1     		cbz	r1, .L136
 1118              		.loc 1 1057 0 is_stmt 0 discriminator 1
 1119 004c 6709     		lsrs	r7, r4, #5
 1120 004e 04F01F09 		and	r9, r4, #31
 1121 0052 51F82760 		ldr	r6, [r1, r7, lsl #2]
 1122 0056 46FA09F6 		asr	r6, r6, r9
 1123 005a F607     		lsls	r6, r6, #31
 1124 005c 10D5     		bpl	.L136
 1125              		.loc 1 1057 0 discriminator 2
 1126 005e BAF1000F 		cmp	r10, #0
 1127 0062 5AD0     		beq	.L174
 1128              	.LVL173:
 1129              	.L137:
 1130              		.loc 1 1058 0 is_stmt 1
 1131 0064 06AE     		add	r6, sp, #24
 1132 0066 06EB8707 		add	r7, r6, r7, lsl #2
 1133 006a 0126     		movs	r6, #1
 1134 006c 06FA09F9 		lsl	r9, r6, r9
ARM GAS  C:\Users\jo\AppData\Local\Temp\cc6wN9Ut.s 			page 21


 1135 0070 57F8186C 		ldr	r6, [r7, #-24]
 1136 0074 46EA0906 		orr	r6, r6, r9
 1137              		.loc 1 1060 0
 1138 0078 0CF1010C 		add	ip, ip, #1
 1139              	.LVL174:
 1140              		.loc 1 1058 0
 1141 007c 47F8186C 		str	r6, [r7, #-24]
 1142              	.L136:
 1143              		.loc 1 1063 0
 1144 0080 CAB1     		cbz	r2, .L138
 1145              		.loc 1 1063 0 is_stmt 0 discriminator 1
 1146 0082 6709     		lsrs	r7, r4, #5
 1147 0084 04F01F09 		and	r9, r4, #31
 1148 0088 52F82760 		ldr	r6, [r2, r7, lsl #2]
 1149 008c 46FA09F6 		asr	r6, r6, r9
 1150 0090 F607     		lsls	r6, r6, #31
 1151 0092 10D5     		bpl	.L138
 1152              		.loc 1 1063 0 discriminator 2
 1153 0094 B8F1000F 		cmp	r8, #0
 1154 0098 0DD0     		beq	.L138
 1155              		.loc 1 1064 0 is_stmt 1
 1156 009a 06AE     		add	r6, sp, #24
 1157 009c 06EB8707 		add	r7, r6, r7, lsl #2
 1158 00a0 0126     		movs	r6, #1
 1159 00a2 06FA09F8 		lsl	r8, r6, r9
 1160              	.LVL175:
 1161 00a6 57F8106C 		ldr	r6, [r7, #-16]
 1162 00aa 46EA0806 		orr	r6, r6, r8
 1163              		.loc 1 1066 0
 1164 00ae 0CF1010C 		add	ip, ip, #1
 1165              	.LVL176:
 1166              		.loc 1 1064 0
 1167 00b2 47F8106C 		str	r6, [r7, #-16]
 1168              	.L138:
 1169              		.loc 1 1069 0
 1170 00b6 B3B1     		cbz	r3, .L139
 1171              		.loc 1 1069 0 is_stmt 0 discriminator 1
 1172 00b8 6709     		lsrs	r7, r4, #5
 1173 00ba 04F01F08 		and	r8, r4, #31
 1174 00be 53F82760 		ldr	r6, [r3, r7, lsl #2]
 1175 00c2 46FA08F6 		asr	r6, r6, r8
 1176 00c6 F607     		lsls	r6, r6, #31
 1177 00c8 0DD5     		bpl	.L139
 1178              		.loc 1 1069 0 discriminator 2
 1179 00ca 65B1     		cbz	r5, .L139
 1180              		.loc 1 1070 0 is_stmt 1
 1181 00cc 06AD     		add	r5, sp, #24
 1182              	.LVL177:
 1183 00ce 05EB8707 		add	r7, r5, r7, lsl #2
 1184 00d2 0125     		movs	r5, #1
 1185 00d4 05FA08F6 		lsl	r6, r5, r8
 1186 00d8 57F8085C 		ldr	r5, [r7, #-8]
 1187 00dc 3543     		orrs	r5, r5, r6
 1188              		.loc 1 1072 0
 1189 00de 0CF1010C 		add	ip, ip, #1
 1190              	.LVL178:
 1191              		.loc 1 1070 0
ARM GAS  C:\Users\jo\AppData\Local\Temp\cc6wN9Ut.s 			page 22


 1192 00e2 47F8085C 		str	r5, [r7, #-8]
 1193              	.L139:
 1194              	.LBE135:
 1195              		.loc 1 1040 0 discriminator 2
 1196 00e6 0134     		adds	r4, r4, #1
 1197              	.LVL179:
 1198 00e8 8442     		cmp	r4, r0
 1199 00ea 0EF1180E 		add	lr, lr, #24
 1200 00ee A6D1     		bne	.L140
 1201              	.LVL180:
 1202              	.L134:
 1203              		.loc 1 1076 0
 1204 00f0 9DE80300 		ldmia	sp, {r0, r1}
 1205              	.LVL181:
 1206 00f4 109B     		ldr	r3, [sp, #64]
 1207              	.LVL182:
 1208 00f6 83E80300 		stmia	r3, {r0, r1}
 1209              		.loc 1 1077 0
 1210 00fa 02AB     		add	r3, sp, #8
 1211 00fc 93E80300 		ldmia	r3, {r0, r1}
 1212 0100 119B     		ldr	r3, [sp, #68]
 1213 0102 83E80300 		stmia	r3, {r0, r1}
 1214              		.loc 1 1078 0
 1215 0106 04AB     		add	r3, sp, #16
 1216 0108 93E80300 		ldmia	r3, {r0, r1}
 1217 010c 129B     		ldr	r3, [sp, #72]
 1218 010e 83E80300 		stmia	r3, {r0, r1}
 1219              		.loc 1 1082 0
 1220 0112 6046     		mov	r0, ip
 1221 0114 07B0     		add	sp, sp, #28
 1222              		.cfi_remember_state
 1223              		.cfi_def_cfa_offset 36
 1224              		@ sp needed
 1225 0116 BDE8F08F 		pop	{r4, r5, r6, r7, r8, r9, r10, fp, pc}
 1226              	.LVL183:
 1227              	.L174:
 1228              		.cfi_restore_state
 1229              	.LBB140:
 1230              		.loc 1 1057 0 discriminator 3
 1231 011a 0FFA8BFB 		sxth	fp, fp
 1232 011e BBF1000F 		cmp	fp, #0
 1233 0122 9FDC     		bgt	.L137
 1234 0124 ACE7     		b	.L136
 1235              	.LVL184:
 1236              	.L173:
 1237              	.LBB139:
 1238              	.LBB138:
 1239              		.loc 1 228 0
 1240 0126 DEF80050 		ldr	r5, [lr]
 1241 012a 45B1     		cbz	r5, .L143
 1242              	.LBE138:
 1243              	.LBE139:
 1244              		.loc 1 1049 0
 1245 012c DEF804A0 		ldr	r10, [lr, #4]
 1246              	.LVL185:
 1247              		.loc 1 1050 0
 1248 0130 BEF80AB0 		ldrh	fp, [lr, #10]
ARM GAS  C:\Users\jo\AppData\Local\Temp\cc6wN9Ut.s 			page 23


 1249              	.LVL186:
 1250              		.loc 1 1051 0
 1251 0134 BEF80C80 		ldrh	r8, [lr, #12]
 1252              	.LVL187:
 1253              		.loc 1 1052 0
 1254 0138 BEF80E50 		ldrh	r5, [lr, #14]
 1255              	.LVL188:
 1256 013c 85E7     		b	.L135
 1257              	.LVL189:
 1258              	.L143:
 1259              		.loc 1 1043 0
 1260 013e A846     		mov	r8, r5
 1261              		.loc 1 1042 0
 1262 0140 AB46     		mov	fp, r5
 1263              		.loc 1 1041 0
 1264 0142 AA46     		mov	r10, r5
 1265 0144 81E7     		b	.L135
 1266              	.L176:
 1267 0146 00BF     		.align	2
 1268              	.L175:
 1269 0148 00000000 		.word	.LANCHOR0
 1270              	.LBE140:
 1271              		.cfi_endproc
 1272              	.LFE277:
 1273              		.size	lwip_selscan, .-lwip_selscan
 1274 014c AFF30080 		.section	.text.event_callback,"ax",%progbits
 1275              		.align	2
 1276              		.p2align 4,,15
 1277              		.thumb
 1278              		.thumb_func
 1279              		.type	event_callback, %function
 1280              	event_callback:
 1281              	.LFB279:
 1282              		.loc 1 1248 0
 1283              		.cfi_startproc
 1284              		@ args = 0, pretend = 0, frame = 0
 1285              		@ frame_needed = 0, uses_anonymous_args = 0
 1286              	.LVL190:
 1287              		.loc 1 1258 0
 1288 0000 0028     		cmp	r0, #0
 1289 0002 00F08B80 		beq	.L226
 1290              		.loc 1 1248 0
 1291 0006 2DE9F043 		push	{r4, r5, r6, r7, r8, r9, lr}
 1292              		.cfi_def_cfa_offset 28
 1293              		.cfi_offset 4, -28
 1294              		.cfi_offset 5, -24
 1295              		.cfi_offset 6, -20
 1296              		.cfi_offset 7, -16
 1297              		.cfi_offset 8, -12
 1298              		.cfi_offset 9, -8
 1299              		.cfi_offset 14, -4
 1300              		.loc 1 1259 0
 1301 000a 8569     		ldr	r5, [r0, #24]
 1302              	.LVL191:
 1303              		.loc 1 1260 0
 1304 000c 002D     		cmp	r5, #0
 1305              		.loc 1 1248 0
ARM GAS  C:\Users\jo\AppData\Local\Temp\cc6wN9Ut.s 			page 24


 1306 000e 83B0     		sub	sp, sp, #12
 1307              		.cfi_def_cfa_offset 40
 1308              		.loc 1 1260 0
 1309 0010 C0F28580 		blt	.L228
 1310              	.LVL192:
 1311              	.LBB141:
 1312              	.LBB142:
 1313              		.loc 1 199 0
 1314 0014 012D     		cmp	r5, #1
 1315 0016 02DD     		ble	.L229
 1316              	.LVL193:
 1317              	.L177:
 1318              	.LBE142:
 1319              	.LBE141:
 1320              		.loc 1 1368 0
 1321 0018 03B0     		add	sp, sp, #12
 1322              		.cfi_remember_state
 1323              		.cfi_def_cfa_offset 28
 1324              		@ sp needed
 1325 001a BDE8F083 		pop	{r4, r5, r6, r7, r8, r9, pc}
 1326              	.LVL194:
 1327              	.L229:
 1328              		.cfi_restore_state
 1329              	.LBB144:
 1330              	.LBB143:
 1331              		.loc 1 207 0
 1332 001e 6C00     		lsls	r4, r5, #1
 1333 0020 6319     		adds	r3, r4, r5
 1334 0022 424F     		ldr	r7, .L231
 1335 0024 57F83330 		ldr	r3, [r7, r3, lsl #3]
 1336 0028 002B     		cmp	r3, #0
 1337 002a F5D0     		beq	.L177
 1338              	.LBE143:
 1339              	.LBE144:
 1340              		.loc 1 1288 0
 1341 002c 0429     		cmp	r1, #4
 1342 002e 68D8     		bhi	.L189
 1343 0030 DFE801F0 		tbb	[pc, r1]
 1344              	.L196:
 1345 0034 49       		.byte	(.L183-.L196)/2
 1346 0035 5C       		.byte	(.L185-.L196)/2
 1347 0036 50       		.byte	(.L186-.L196)/2
 1348 0037 56       		.byte	(.L187-.L196)/2
 1349 0038 03       		.byte	(.L188-.L196)/2
 1350 0039 00       		.p2align 1
 1351              	.L188:
 1352              		.loc 1 1302 0
 1353 003a 6319     		adds	r3, r4, r5
 1354 003c 07EBC303 		add	r3, r7, r3, lsl #3
 1355 0040 0122     		movs	r2, #1
 1356              	.LVL195:
 1357 0042 DA81     		strh	r2, [r3, #14]	@ movhi
 1358              	.LVL196:
 1359              	.L184:
 1360              		.loc 1 1309 0
 1361 0044 2C44     		add	r4, r4, r5
 1362 0046 07EBC407 		add	r7, r7, r4, lsl #3
ARM GAS  C:\Users\jo\AppData\Local\Temp\cc6wN9Ut.s 			page 25


 1363 004a 7B69     		ldr	r3, [r7, #20]
 1364 004c 002B     		cmp	r3, #0
 1365 004e E3D0     		beq	.L177
 1366 0050 4FF00109 		mov	r9, #1
 1367 0054 DFF8EC80 		ldr	r8, .L231+24
 1368 0058 09FA05F9 		lsl	r9, r9, r5
 1369              	.LVL197:
 1370              	.L194:
 1371              		.loc 1 1322 0
 1372 005c D8F80040 		ldr	r4, [r8]
 1373              	.LVL198:
 1374 0060 002C     		cmp	r4, #0
 1375 0062 D9D0     		beq	.L177
 1376 0064 324D     		ldr	r5, .L231+4
 1377 0066 0BE0     		b	.L195
 1378              	.LVL199:
 1379              	.L192:
 1380              	.LBB145:
 1381              		.loc 1 1346 0
 1382 0068 0123     		movs	r3, #1
 1383 006a 6361     		str	r3, [r4, #20]
 1384              		.loc 1 1352 0
 1385 006c 04F11800 		add	r0, r4, #24
 1386 0070 FFF7FEFF 		bl	sys_sem_signal_S
 1387              	.LVL200:
 1388              	.L190:
 1389              	.LBE145:
 1390              		.loc 1 1362 0
 1391 0074 2B68     		ldr	r3, [r5]
 1392 0076 9E42     		cmp	r6, r3
 1393 0078 F0D1     		bne	.L194
 1394              		.loc 1 1322 0 discriminator 2
 1395 007a 2468     		ldr	r4, [r4]
 1396              	.LVL201:
 1397 007c 002C     		cmp	r4, #0
 1398 007e CBD0     		beq	.L177
 1399              	.LVL202:
 1400              	.L195:
 1401              		.loc 1 1326 0
 1402 0080 6369     		ldr	r3, [r4, #20]
 1403              		.loc 1 1324 0
 1404 0082 2E68     		ldr	r6, [r5]
 1405              	.LVL203:
 1406              		.loc 1 1326 0
 1407 0084 002B     		cmp	r3, #0
 1408 0086 F5D1     		bne	.L190
 1409              	.LVL204:
 1410              	.LBB146:
 1411              		.loc 1 1330 0
 1412 0088 B7F90A30 		ldrsh	r3, [r7, #10]
 1413 008c 002B     		cmp	r3, #0
 1414 008e 05DD     		ble	.L191
 1415              		.loc 1 1331 0
 1416 0090 A368     		ldr	r3, [r4, #8]
 1417 0092 1BB1     		cbz	r3, .L191
 1418 0094 1B68     		ldr	r3, [r3]
 1419              		.loc 1 1331 0 is_stmt 0 discriminator 1
ARM GAS  C:\Users\jo\AppData\Local\Temp\cc6wN9Ut.s 			page 26


 1420 0096 19EA030F 		tst	r9, r3
 1421 009a E5D1     		bne	.L192
 1422              	.L191:
 1423              		.loc 1 1335 0 is_stmt 1
 1424 009c 07F10803 		add	r3, r7, #8
 1425 00a0 9A88     		ldrh	r2, [r3, #4]
 1426 00a2 52B3     		cbz	r2, .L230
 1427              		.loc 1 1336 0 discriminator 1
 1428 00a4 E368     		ldr	r3, [r4, #12]
 1429 00a6 1BB1     		cbz	r3, .L193
 1430 00a8 1B68     		ldr	r3, [r3]
 1431              		.loc 1 1336 0 is_stmt 0 discriminator 2
 1432 00aa 19EA030F 		tst	r9, r3
 1433 00ae DBD1     		bne	.L192
 1434              	.L193:
 1435              		.loc 1 1340 0 is_stmt 1
 1436 00b0 FB89     		ldrh	r3, [r7, #14]
 1437 00b2 002B     		cmp	r3, #0
 1438 00b4 DED0     		beq	.L190
 1439              	.L199:
 1440              		.loc 1 1341 0 discriminator 1
 1441 00b6 2369     		ldr	r3, [r4, #16]
 1442 00b8 002B     		cmp	r3, #0
 1443 00ba DBD0     		beq	.L190
 1444 00bc 1B68     		ldr	r3, [r3]
 1445              		.loc 1 1341 0 is_stmt 0 discriminator 2
 1446 00be 19EA030F 		tst	r9, r3
 1447 00c2 D7D0     		beq	.L190
 1448 00c4 D0E7     		b	.L192
 1449              	.LVL205:
 1450              	.L183:
 1451              	.LBE146:
 1452              		.loc 1 1290 0 is_stmt 1
 1453 00c6 6319     		adds	r3, r4, r5
 1454 00c8 07EBC303 		add	r3, r7, r3, lsl #3
 1455 00cc 5A89     		ldrh	r2, [r3, #10]
 1456              	.LVL206:
 1457 00ce 0132     		adds	r2, r2, #1
 1458 00d0 5A81     		strh	r2, [r3, #10]	@ movhi
 1459              		.loc 1 1291 0
 1460 00d2 B7E7     		b	.L184
 1461              	.LVL207:
 1462              	.L186:
 1463              		.loc 1 1296 0
 1464 00d4 6319     		adds	r3, r4, r5
 1465 00d6 07EBC303 		add	r3, r7, r3, lsl #3
 1466 00da 0122     		movs	r2, #1
 1467              	.LVL208:
 1468 00dc 9A81     		strh	r2, [r3, #12]	@ movhi
 1469              		.loc 1 1297 0
 1470 00de B1E7     		b	.L184
 1471              	.LVL209:
 1472              	.L187:
 1473              		.loc 1 1299 0
 1474 00e0 6319     		adds	r3, r4, r5
 1475 00e2 07EBC303 		add	r3, r7, r3, lsl #3
 1476 00e6 0022     		movs	r2, #0
ARM GAS  C:\Users\jo\AppData\Local\Temp\cc6wN9Ut.s 			page 27


 1477              	.LVL210:
 1478 00e8 9A81     		strh	r2, [r3, #12]	@ movhi
 1479              		.loc 1 1300 0
 1480 00ea ABE7     		b	.L184
 1481              	.LVL211:
 1482              	.L185:
 1483              		.loc 1 1293 0
 1484 00ec 6319     		adds	r3, r4, r5
 1485 00ee 07EBC303 		add	r3, r7, r3, lsl #3
 1486 00f2 5A89     		ldrh	r2, [r3, #10]
 1487              	.LVL212:
 1488 00f4 013A     		subs	r2, r2, #1
 1489 00f6 5A81     		strh	r2, [r3, #10]	@ movhi
 1490              		.loc 1 1294 0
 1491 00f8 A4E7     		b	.L184
 1492              	.LVL213:
 1493              	.L230:
 1494              	.LBB147:
 1495              		.loc 1 1340 0
 1496 00fa DB88     		ldrh	r3, [r3, #6]
 1497 00fc 002B     		cmp	r3, #0
 1498 00fe DAD1     		bne	.L199
 1499 0100 B8E7     		b	.L190
 1500              	.LVL214:
 1501              	.L189:
 1502              	.LBE147:
 1503              		.loc 1 1305 0 discriminator 1
 1504 0102 0C4B     		ldr	r3, .L231+8
 1505 0104 0093     		str	r3, [sp]
 1506 0106 0C49     		ldr	r1, .L231+12
 1507              	.LVL215:
 1508 0108 0C4A     		ldr	r2, .L231+16
 1509              	.LVL216:
 1510 010a 0D48     		ldr	r0, .L231+20
 1511              	.LVL217:
 1512 010c 40F21953 		movw	r3, #1305
 1513 0110 FFF7FEFF 		bl	chprintf.constprop.0
 1514              	.LVL218:
 1515              	.LBB148:
 1516              	.LBB149:
 1517              		.loc 3 416 0 discriminator 1
 1518 0114 0948     		ldr	r0, .L231+16
 1519 0116 FFF7FEFF 		bl	chSysHalt
 1520              	.LVL219:
 1521 011a 93E7     		b	.L184
 1522              	.LVL220:
 1523              	.L226:
 1524              		.cfi_def_cfa_offset 0
 1525              		.cfi_restore 4
 1526              		.cfi_restore 5
 1527              		.cfi_restore 6
 1528              		.cfi_restore 7
 1529              		.cfi_restore 8
 1530              		.cfi_restore 9
 1531              		.cfi_restore 14
 1532 011c 7047     		bx	lr
 1533              	.LVL221:
ARM GAS  C:\Users\jo\AppData\Local\Temp\cc6wN9Ut.s 			page 28


 1534              	.L228:
 1535              		.cfi_def_cfa_offset 40
 1536              		.cfi_offset 4, -28
 1537              		.cfi_offset 5, -24
 1538              		.cfi_offset 6, -20
 1539              		.cfi_offset 7, -16
 1540              		.cfi_offset 8, -12
 1541              		.cfi_offset 9, -8
 1542              		.cfi_offset 14, -4
 1543              	.LBE149:
 1544              	.LBE148:
 1545              		.loc 1 1268 0
 1546 011e 0029     		cmp	r1, #0
 1547 0120 7FF47AAF 		bne	.L177
 1548              		.loc 1 1269 0
 1549 0124 013D     		subs	r5, r5, #1
 1550              	.LVL222:
 1551 0126 8561     		str	r5, [r0, #24]
 1552              	.LVL223:
 1553 0128 76E7     		b	.L177
 1554              	.L232:
 1555 012a 00BF     		.align	2
 1556              	.L231:
 1557 012c 00000000 		.word	.LANCHOR0
 1558 0130 00000000 		.word	.LANCHOR3
 1559 0134 34000000 		.word	.LC2
 1560 0138 00000000 		.word	.LC0
 1561 013c 7C000000 		.word	.LC5
 1562 0140 00000000 		.word	itm_port
 1563 0144 00000000 		.word	.LANCHOR2
 1564              		.cfi_endproc
 1565              	.LFE279:
 1566              		.size	event_callback, .-event_callback
 1567 0148 AFF30080 		.section	.text.lwip_socket_init,"ax",%progbits
 1567      AFF30080 
 1568              		.align	2
 1569              		.p2align 4,,15
 1570              		.global	lwip_socket_init
 1571              		.thumb
 1572              		.thumb_func
 1573              		.type	lwip_socket_init, %function
 1574              	lwip_socket_init:
 1575              	.LFB260:
 1576              		.loc 1 185 0
 1577              		.cfi_startproc
 1578              		@ args = 0, pretend = 0, frame = 0
 1579              		@ frame_needed = 0, uses_anonymous_args = 0
 1580              		@ link register save eliminated.
 1581 0000 7047     		bx	lr
 1582              		.cfi_endproc
 1583              	.LFE260:
 1584              		.size	lwip_socket_init, .-lwip_socket_init
 1585 0002 00BFAFF3 		.section	.text.lwip_accept,"ax",%progbits
 1585      0080AFF3 
 1585      0080AFF3 
 1585      0080
 1586              		.align	2
ARM GAS  C:\Users\jo\AppData\Local\Temp\cc6wN9Ut.s 			page 29


 1587              		.p2align 4,,15
 1588              		.global	lwip_accept
 1589              		.thumb
 1590              		.thumb_func
 1591              		.type	lwip_accept, %function
 1592              	lwip_accept:
 1593              	.LFB265:
 1594              		.loc 1 313 0
 1595              		.cfi_startproc
 1596              		@ args = 0, pretend = 0, frame = 32
 1597              		@ frame_needed = 0, uses_anonymous_args = 0
 1598              	.LVL224:
 1599              	.LBB150:
 1600              	.LBB151:
 1601              		.loc 1 199 0
 1602 0000 0128     		cmp	r0, #1
 1603              	.LBE151:
 1604              	.LBE150:
 1605              		.loc 1 313 0
 1606 0002 0346     		mov	r3, r0
 1607              	.LVL225:
 1608              	.LBB155:
 1609              	.LBB152:
 1610              		.loc 1 199 0
 1611 0004 02D9     		bls	.L262
 1612              	.LBE152:
 1613              	.LBE155:
 1614              		.loc 1 326 0
 1615 0006 4FF0FF30 		mov	r0, #-1
 1616              	.LVL226:
 1617              		.loc 1 402 0
 1618 000a 7047     		bx	lr
 1619              	.LVL227:
 1620              	.L262:
 1621              		.loc 1 313 0
 1622 000c 2DE9F043 		push	{r4, r5, r6, r7, r8, r9, lr}
 1623              		.cfi_def_cfa_offset 28
 1624              		.cfi_offset 4, -28
 1625              		.cfi_offset 5, -24
 1626              		.cfi_offset 6, -20
 1627              		.cfi_offset 7, -16
 1628              		.cfi_offset 8, -12
 1629              		.cfi_offset 9, -8
 1630              		.cfi_offset 14, -4
 1631              	.LBB156:
 1632              	.LBB153:
 1633              		.loc 1 207 0
 1634 0010 4FEA4008 		lsl	r8, r0, #1
 1635 0014 08EB0004 		add	r4, r8, r0
 1636 0018 E400     		lsls	r4, r4, #3
 1637 001a 6D4F     		ldr	r7, .L269
 1638 001c 3859     		ldr	r0, [r7, r4]
 1639              	.LVL228:
 1640              	.LBE153:
 1641              	.LBE156:
 1642              		.loc 1 313 0
 1643 001e 8BB0     		sub	sp, sp, #44
ARM GAS  C:\Users\jo\AppData\Local\Temp\cc6wN9Ut.s 			page 30


 1644              		.cfi_def_cfa_offset 72
 1645              	.LBB157:
 1646              	.LBB154:
 1647              		.loc 1 207 0
 1648 0020 3C44     		add	r4, r4, r7
 1649 0022 0028     		cmp	r0, #0
 1650 0024 00F08A80 		beq	.L263
 1651              	.LBE154:
 1652              	.LBE157:
 1653              		.loc 1 329 0
 1654 0028 057F     		ldrb	r5, [r0, #28]	@ zero_extendqisi2
 1655 002a AD07     		lsls	r5, r5, #30
 1656 002c 04D5     		bpl	.L237
 1657              		.loc 1 329 0 is_stmt 0 discriminator 1
 1658 002e B4F90A50 		ldrsh	r5, [r4, #10]
 1659 0032 002D     		cmp	r5, #0
 1660 0034 40F3A080 		ble	.L264
 1661              	.L237:
 1662 0038 0D46     		mov	r5, r1
 1663              		.loc 1 336 0 is_stmt 1
 1664 003a 04A9     		add	r1, sp, #16
 1665              	.LVL229:
 1666 003c 1446     		mov	r4, r2
 1667 003e 1E46     		mov	r6, r3
 1668 0040 FFF7FEFF 		bl	netconn_accept
 1669              	.LVL230:
 1670              		.loc 1 337 0
 1671 0044 70B1     		cbz	r0, .L238
 1672              		.loc 1 339 0
 1673 0046 08EB0603 		add	r3, r8, r6
 1674 004a DB00     		lsls	r3, r3, #3
 1675 004c 6049     		ldr	r1, .L269
 1676 004e FA58     		ldr	r2, [r7, r3]
 1677 0050 1278     		ldrb	r2, [r2]	@ zero_extendqisi2
 1678 0052 102A     		cmp	r2, #16
 1679 0054 00F0AA80 		beq	.L239
 1680              		.loc 1 340 0
 1681 0058 0B44     		add	r3, r3, r1
 1682 005a 5F20     		movs	r0, #95
 1683              	.LVL231:
 1684 005c 1861     		str	r0, [r3, #16]
 1685              	.LVL232:
 1686              	.L259:
 1687              		.loc 1 402 0
 1688 005e 0BB0     		add	sp, sp, #44
 1689              		.cfi_remember_state
 1690              		.cfi_def_cfa_offset 28
 1691              		@ sp needed
 1692 0060 BDE8F083 		pop	{r4, r5, r6, r7, r8, r9, pc}
 1693              	.LVL233:
 1694              	.L238:
 1695              		.cfi_restore_state
 1696              		.loc 1 346 0
 1697 0064 0498     		ldr	r0, [sp, #16]
 1698              	.LVL234:
 1699 0066 0028     		cmp	r0, #0
 1700 0068 6BD0     		beq	.L265
ARM GAS  C:\Users\jo\AppData\Local\Temp\cc6wN9Ut.s 			page 31


 1701              	.L241:
 1702              		.loc 1 348 0 discriminator 1
 1703 006a 037F     		ldrb	r3, [r0, #28]	@ zero_extendqisi2
 1704 006c 43F00803 		orr	r3, r3, #8
 1705 0070 0377     		strb	r3, [r0, #28]
 1706              		.loc 1 351 0 discriminator 1
 1707 0072 05A9     		add	r1, sp, #20
 1708 0074 0DF10E02 		add	r2, sp, #14
 1709 0078 0023     		movs	r3, #0
 1710 007a FFF7FEFF 		bl	netconn_getaddr
 1711              	.LVL235:
 1712              		.loc 1 352 0 discriminator 1
 1713 007e 8146     		mov	r9, r0
 1714 0080 0028     		cmp	r0, #0
 1715 0082 7ED1     		bne	.L266
 1716              		.loc 1 362 0
 1717 0084 FDB1     		cbz	r5, .L244
 1718              		.loc 1 363 0
 1719 0086 002C     		cmp	r4, #0
 1720 0088 69D0     		beq	.L267
 1721              	.LVL236:
 1722              	.L245:
 1723              		.loc 1 364 0
 1724 008a 0023     		movs	r3, #0
 1725              		.loc 1 365 0
 1726 008c 4FF01009 		mov	r9, #16
 1727              		.loc 1 366 0
 1728 0090 0222     		movs	r2, #2
 1729              		.loc 1 367 0
 1730 0092 BDF80E00 		ldrh	r0, [sp, #14]
 1731              		.loc 1 364 0
 1732 0096 0693     		str	r3, [sp, #24]
 1733 0098 0793     		str	r3, [sp, #28]
 1734 009a 0893     		str	r3, [sp, #32]
 1735 009c 0993     		str	r3, [sp, #36]
 1736              		.loc 1 366 0
 1737 009e 8DF81920 		strb	r2, [sp, #25]
 1738              		.loc 1 365 0
 1739 00a2 8DF81890 		strb	r9, [sp, #24]
 1740              		.loc 1 367 0
 1741 00a6 FFF7FEFF 		bl	lwip_htons
 1742              	.LVL237:
 1743              		.loc 1 370 0
 1744 00aa 2268     		ldr	r2, [r4]
 1745              		.loc 1 368 0
 1746 00ac 059B     		ldr	r3, [sp, #20]
 1747              		.loc 1 367 0
 1748 00ae ADF81A00 		strh	r0, [sp, #26]	@ movhi
 1749              		.loc 1 370 0
 1750 00b2 4A45     		cmp	r2, r9
 1751              		.loc 1 371 0
 1752 00b4 84BF     		itt	hi
 1753 00b6 C4F80090 		strhi	r9, [r4]
 1754 00ba 4A46     		movhi	r2, r9
 1755              		.loc 1 373 0
 1756 00bc 2846     		mov	r0, r5
 1757 00be 06A9     		add	r1, sp, #24
ARM GAS  C:\Users\jo\AppData\Local\Temp\cc6wN9Ut.s 			page 32


 1758              		.loc 1 368 0
 1759 00c0 0793     		str	r3, [sp, #28]
 1760              		.loc 1 373 0
 1761 00c2 FFF7FEFF 		bl	memcpy
 1762              	.LVL238:
 1763              	.L244:
 1764              		.loc 1 376 0
 1765 00c6 0498     		ldr	r0, [sp, #16]
 1766 00c8 0121     		movs	r1, #1
 1767 00ca FFF7FEFF 		bl	alloc_socket
 1768              	.LVL239:
 1769              		.loc 1 377 0
 1770 00ce 431C     		adds	r3, r0, #1
 1771              		.loc 1 376 0
 1772 00d0 0446     		mov	r4, r0
 1773              	.LVL240:
 1774              		.loc 1 377 0
 1775 00d2 72D0     		beq	.L268
 1776              		.loc 1 382 0
 1777 00d4 0128     		cmp	r0, #1
 1778 00d6 0BD9     		bls	.L248
 1779              		.loc 1 382 0 is_stmt 0 discriminator 1
 1780 00d8 3E4B     		ldr	r3, .L269+4
 1781 00da 0093     		str	r3, [sp]
 1782 00dc 3E48     		ldr	r0, .L269+8
 1783              	.LVL241:
 1784 00de 3F49     		ldr	r1, .L269+12
 1785 00e0 3F4A     		ldr	r2, .L269+16
 1786 00e2 4FF4BF73 		mov	r3, #382
 1787 00e6 FFF7FEFF 		bl	chprintf.constprop.0
 1788              	.LVL242:
 1789              	.LBB158:
 1790              	.LBB159:
 1791              		.loc 3 416 0 is_stmt 1 discriminator 1
 1792 00ea 3D48     		ldr	r0, .L269+16
 1793 00ec FFF7FEFF 		bl	chSysHalt
 1794              	.LVL243:
 1795              	.L248:
 1796              	.LBE159:
 1797              	.LBE158:
 1798              		.loc 1 383 0
 1799 00f0 049D     		ldr	r5, [sp, #16]
 1800              	.LVL244:
 1801 00f2 3C4B     		ldr	r3, .L269+20
 1802 00f4 AA6A     		ldr	r2, [r5, #40]
 1803 00f6 9A42     		cmp	r2, r3
 1804 00f8 0CD0     		beq	.L249
 1805              		.loc 1 383 0 is_stmt 0 discriminator 1
 1806 00fa 364B     		ldr	r3, .L269+4
 1807 00fc 0093     		str	r3, [sp]
 1808 00fe 3749     		ldr	r1, .L269+12
 1809 0100 394A     		ldr	r2, .L269+24
 1810 0102 3548     		ldr	r0, .L269+8
 1811 0104 40F27F13 		movw	r3, #383
 1812 0108 FFF7FEFF 		bl	chprintf.constprop.0
 1813              	.LVL245:
 1814              	.LBB160:
ARM GAS  C:\Users\jo\AppData\Local\Temp\cc6wN9Ut.s 			page 33


 1815              	.LBB161:
 1816              		.loc 3 416 0 is_stmt 1 discriminator 1
 1817 010c 3648     		ldr	r0, .L269+24
 1818 010e FFF7FEFF 		bl	chSysHalt
 1819              	.LVL246:
 1820 0112 049D     		ldr	r5, [sp, #16]
 1821              	.LVL247:
 1822              	.L249:
 1823              	.LBE161:
 1824              	.LBE160:
 1825              		.loc 1 392 0
 1826 0114 A969     		ldr	r1, [r5, #24]
 1827 0116 04EB4402 		add	r2, r4, r4, lsl #1
 1828 011a 07EBC202 		add	r2, r7, r2, lsl #3
 1829              		.loc 1 400 0
 1830 011e 08EB0603 		add	r3, r8, r6
 1831 0122 5089     		ldrh	r0, [r2, #10]
 1832 0124 07EBC303 		add	r3, r7, r3, lsl #3
 1833 0128 0138     		subs	r0, r0, #1
 1834              		.loc 1 392 0
 1835 012a 411A     		subs	r1, r0, r1
 1836              		.loc 1 400 0
 1837 012c 0026     		movs	r6, #0
 1838              	.LVL248:
 1839              		.loc 1 401 0
 1840 012e 2046     		mov	r0, r4
 1841              		.loc 1 392 0
 1842 0130 5181     		strh	r1, [r2, #10]	@ movhi
 1843              		.loc 1 393 0
 1844 0132 AC61     		str	r4, [r5, #24]
 1845              		.loc 1 400 0
 1846 0134 1E61     		str	r6, [r3, #16]
 1847              		.loc 1 402 0
 1848 0136 0BB0     		add	sp, sp, #44
 1849              		.cfi_remember_state
 1850              		.cfi_def_cfa_offset 28
 1851              		@ sp needed
 1852 0138 BDE8F083 		pop	{r4, r5, r6, r7, r8, r9, pc}
 1853              	.LVL249:
 1854              	.L263:
 1855              		.cfi_restore_state
 1856              		.loc 1 326 0
 1857 013c 4FF0FF30 		mov	r0, #-1
 1858 0140 8DE7     		b	.L259
 1859              	.LVL250:
 1860              	.L265:
 1861              		.loc 1 346 0 discriminator 1
 1862 0142 244B     		ldr	r3, .L269+4
 1863 0144 0093     		str	r3, [sp]
 1864 0146 2549     		ldr	r1, .L269+12
 1865 0148 284A     		ldr	r2, .L269+28
 1866 014a 2348     		ldr	r0, .L269+8
 1867 014c 4FF4AD73 		mov	r3, #346
 1868 0150 FFF7FEFF 		bl	chprintf.constprop.0
 1869              	.LVL251:
 1870              	.LBB162:
 1871              	.LBB163:
ARM GAS  C:\Users\jo\AppData\Local\Temp\cc6wN9Ut.s 			page 34


 1872              		.loc 3 416 0 discriminator 1
 1873 0154 2548     		ldr	r0, .L269+28
 1874 0156 FFF7FEFF 		bl	chSysHalt
 1875              	.LVL252:
 1876 015a 0498     		ldr	r0, [sp, #16]
 1877 015c 85E7     		b	.L241
 1878              	.LVL253:
 1879              	.L267:
 1880              	.LBE163:
 1881              	.LBE162:
 1882              		.loc 1 363 0 discriminator 1
 1883 015e 1D4B     		ldr	r3, .L269+4
 1884 0160 0093     		str	r3, [sp]
 1885 0162 1E49     		ldr	r1, .L269+12
 1886 0164 224A     		ldr	r2, .L269+32
 1887 0166 1C48     		ldr	r0, .L269+8
 1888              	.LVL254:
 1889 0168 40F26B13 		movw	r3, #363
 1890 016c FFF7FEFF 		bl	chprintf.constprop.0
 1891              	.LVL255:
 1892              	.LBB164:
 1893              	.LBB165:
 1894              		.loc 3 416 0 discriminator 1
 1895 0170 1F48     		ldr	r0, .L269+32
 1896 0172 FFF7FEFF 		bl	chSysHalt
 1897              	.LVL256:
 1898 0176 88E7     		b	.L245
 1899              	.LVL257:
 1900              	.L264:
 1901              	.LBE165:
 1902              	.LBE164:
 1903              		.loc 1 331 0
 1904 0178 0B23     		movs	r3, #11
 1905              	.LVL258:
 1906 017a 2361     		str	r3, [r4, #16]
 1907              		.loc 1 332 0
 1908 017c 4FF0FF30 		mov	r0, #-1
 1909 0180 6DE7     		b	.L259
 1910              	.LVL259:
 1911              	.L266:
 1912              		.loc 1 354 0
 1913 0182 0498     		ldr	r0, [sp, #16]
 1914              	.LVL260:
 1915              		.loc 1 355 0
 1916 0184 C9F10009 		rsb	r9, r9, #0
 1917              		.loc 1 354 0
 1918 0188 FFF7FEFF 		bl	netconn_delete
 1919              	.LVL261:
 1920              		.loc 1 355 0
 1921 018c B9F10F0F 		cmp	r9, #15
 1922 0190 0AD8     		bhi	.L254
 1923              		.loc 1 355 0 is_stmt 0 discriminator 1
 1924 0192 184B     		ldr	r3, .L269+36
 1925 0194 53F82920 		ldr	r2, [r3, r9, lsl #2]
 1926              	.L243:
 1927              		.loc 1 355 0 discriminator 4
 1928 0198 08EB0603 		add	r3, r8, r6
ARM GAS  C:\Users\jo\AppData\Local\Temp\cc6wN9Ut.s 			page 35


 1929 019c 07EBC303 		add	r3, r7, r3, lsl #3
 1930              		.loc 1 356 0 is_stmt 1 discriminator 4
 1931 01a0 4FF0FF30 		mov	r0, #-1
 1932              		.loc 1 355 0 discriminator 4
 1933 01a4 1A61     		str	r2, [r3, #16]
 1934              		.loc 1 356 0 discriminator 4
 1935 01a6 5AE7     		b	.L259
 1936              	.L254:
 1937              		.loc 1 355 0
 1938 01a8 0522     		movs	r2, #5
 1939 01aa F5E7     		b	.L243
 1940              	.LVL262:
 1941              	.L239:
 1942              		.loc 1 343 0
 1943 01ac 4042     		negs	r0, r0
 1944              	.LVL263:
 1945 01ae 0F28     		cmp	r0, #15
 1946 01b0 FAD8     		bhi	.L254
 1947              		.loc 1 343 0 is_stmt 0 discriminator 1
 1948 01b2 104B     		ldr	r3, .L269+36
 1949 01b4 53F82020 		ldr	r2, [r3, r0, lsl #2]
 1950 01b8 EEE7     		b	.L243
 1951              	.LVL264:
 1952              	.L268:
 1953              		.loc 1 378 0 is_stmt 1
 1954 01ba 0498     		ldr	r0, [sp, #16]
 1955              	.LVL265:
 1956 01bc FFF7FEFF 		bl	netconn_delete
 1957              	.LVL266:
 1958              		.loc 1 379 0
 1959 01c0 08EB0603 		add	r3, r8, r6
 1960 01c4 07EBC303 		add	r3, r7, r3, lsl #3
 1961 01c8 1722     		movs	r2, #23
 1962              		.loc 1 380 0
 1963 01ca 2046     		mov	r0, r4
 1964              		.loc 1 379 0
 1965 01cc 1A61     		str	r2, [r3, #16]
 1966              		.loc 1 380 0
 1967 01ce 46E7     		b	.L259
 1968              	.L270:
 1969              		.align	2
 1970              	.L269:
 1971 01d0 00000000 		.word	.LANCHOR0
 1972 01d4 34000000 		.word	.LC2
 1973 01d8 00000000 		.word	itm_port
 1974 01dc 00000000 		.word	.LC0
 1975 01e0 B8000000 		.word	.LC8
 1976 01e4 00000000 		.word	event_callback
 1977 01e8 D0000000 		.word	.LC9
 1978 01ec 8C000000 		.word	.LC6
 1979 01f0 9C000000 		.word	.LC7
 1980 01f4 00000000 		.word	.LANCHOR1
 1981              		.cfi_endproc
 1982              	.LFE265:
 1983              		.size	lwip_accept, .-lwip_accept
 1984 01f8 AFF30080 		.section	.text.lwip_bind,"ax",%progbits
 1984      AFF30080 
ARM GAS  C:\Users\jo\AppData\Local\Temp\cc6wN9Ut.s 			page 36


 1985              		.align	2
 1986              		.p2align 4,,15
 1987              		.global	lwip_bind
 1988              		.thumb
 1989              		.thumb_func
 1990              		.type	lwip_bind, %function
 1991              	lwip_bind:
 1992              	.LFB266:
 1993              		.loc 1 406 0
 1994              		.cfi_startproc
 1995              		@ args = 0, pretend = 0, frame = 8
 1996              		@ frame_needed = 0, uses_anonymous_args = 0
 1997              	.LVL267:
 1998              	.LBB166:
 1999              	.LBB167:
 2000              		.loc 1 199 0
 2001 0000 0128     		cmp	r0, #1
 2002 0002 02D9     		bls	.L287
 2003              	.LBE167:
 2004              	.LBE166:
 2005              		.loc 1 415 0
 2006 0004 4FF0FF30 		mov	r0, #-1
 2007              	.LVL268:
 2008              		.loc 1 442 0
 2009 0008 7047     		bx	lr
 2010              	.LVL269:
 2011              	.L287:
 2012              		.loc 1 406 0
 2013 000a 2DE9F043 		push	{r4, r5, r6, r7, r8, r9, lr}
 2014              		.cfi_def_cfa_offset 28
 2015              		.cfi_offset 4, -28
 2016              		.cfi_offset 5, -24
 2017              		.cfi_offset 6, -20
 2018              		.cfi_offset 7, -16
 2019              		.cfi_offset 8, -12
 2020              		.cfi_offset 9, -8
 2021              		.cfi_offset 14, -4
 2022              	.LBB170:
 2023              	.LBB168:
 2024              		.loc 1 207 0
 2025 000e 4700     		lsls	r7, r0, #1
 2026 0010 3D18     		adds	r5, r7, r0
 2027 0012 ED00     		lsls	r5, r5, #3
 2028 0014 254E     		ldr	r6, .L290
 2029 0016 56F80590 		ldr	r9, [r6, r5]
 2030              	.LBE168:
 2031              	.LBE170:
 2032              		.loc 1 406 0
 2033 001a 85B0     		sub	sp, sp, #20
 2034              		.cfi_def_cfa_offset 48
 2035              	.LBB171:
 2036              	.LBB169:
 2037              		.loc 1 207 0
 2038 001c B9F1000F 		cmp	r9, #0
 2039 0020 32D0     		beq	.L288
 2040              	.LBE169:
 2041              	.LBE171:
ARM GAS  C:\Users\jo\AppData\Local\Temp\cc6wN9Ut.s 			page 37


 2042              		.loc 1 419 0
 2043 0022 102A     		cmp	r2, #16
 2044 0024 0B46     		mov	r3, r1
 2045 0026 0446     		mov	r4, r0
 2046 0028 18D1     		bne	.L274
 2047              		.loc 1 419 0 is_stmt 0 discriminator 2
 2048 002a 5A78     		ldrb	r2, [r3, #1]	@ zero_extendqisi2
 2049              	.LVL270:
 2050 002c 022A     		cmp	r2, #2
 2051 002e 15D1     		bne	.L274
 2052              		.loc 1 419 0 discriminator 4
 2053 0030 9A07     		lsls	r2, r3, #30
 2054 0032 13D1     		bne	.L274
 2055              	.LVL271:
 2056              		.loc 1 424 0 is_stmt 1
 2057 0034 0DF11008 		add	r8, sp, #16
 2058 0038 5A68     		ldr	r2, [r3, #4]
 2059              		.loc 1 431 0
 2060 003a 5888     		ldrh	r0, [r3, #2]
 2061              	.LVL272:
 2062              		.loc 1 424 0
 2063 003c 48F8042D 		str	r2, [r8, #-4]!
 2064              	.LVL273:
 2065              		.loc 1 431 0
 2066 0040 FFF7FEFF 		bl	lwip_ntohs
 2067              	.LVL274:
 2068 0044 4146     		mov	r1, r8
 2069 0046 0246     		mov	r2, r0
 2070 0048 4846     		mov	r0, r9
 2071 004a FFF7FEFF 		bl	netconn_bind
 2072              	.LVL275:
 2073              		.loc 1 433 0
 2074 004e 0346     		mov	r3, r0
 2075 0050 E8B9     		cbnz	r0, .L289
 2076              		.loc 1 440 0
 2077 0052 3544     		add	r5, r5, r6
 2078 0054 2B61     		str	r3, [r5, #16]
 2079              	.LVL276:
 2080              	.L283:
 2081              		.loc 1 442 0
 2082 0056 05B0     		add	sp, sp, #20
 2083              		.cfi_remember_state
 2084              		.cfi_def_cfa_offset 28
 2085              		@ sp needed
 2086 0058 BDE8F083 		pop	{r4, r5, r6, r7, r8, r9, pc}
 2087              	.LVL277:
 2088              	.L274:
 2089              		.cfi_restore_state
 2090              		.loc 1 419 0 discriminator 5
 2091 005c 144B     		ldr	r3, .L290+4
 2092 005e 0093     		str	r3, [sp]
 2093 0060 1449     		ldr	r1, .L290+8
 2094              	.LVL278:
 2095 0062 154A     		ldr	r2, .L290+12
 2096 0064 1548     		ldr	r0, .L290+16
 2097              	.LVL279:
 2098 0066 40F2A513 		movw	r3, #421
ARM GAS  C:\Users\jo\AppData\Local\Temp\cc6wN9Ut.s 			page 38


 2099 006a FFF7FEFF 		bl	chprintf.constprop.0
 2100              	.LVL280:
 2101              	.LBB172:
 2102              	.LBB173:
 2103              		.loc 3 416 0 discriminator 5
 2104 006e 1248     		ldr	r0, .L290+12
 2105 0070 FFF7FEFF 		bl	chSysHalt
 2106              	.LVL281:
 2107              	.LBE173:
 2108              	.LBE172:
 2109              		.loc 1 419 0 discriminator 5
 2110 0074 3C44     		add	r4, r4, r7
 2111              	.LVL282:
 2112 0076 06EBC406 		add	r6, r6, r4, lsl #3
 2113 007a 0523     		movs	r3, #5
 2114 007c 4FF0FF30 		mov	r0, #-1
 2115 0080 3361     		str	r3, [r6, #16]
 2116              		.loc 1 442 0 discriminator 5
 2117 0082 05B0     		add	sp, sp, #20
 2118              		.cfi_remember_state
 2119              		.cfi_def_cfa_offset 28
 2120              		@ sp needed
 2121 0084 BDE8F083 		pop	{r4, r5, r6, r7, r8, r9, pc}
 2122              	.LVL283:
 2123              	.L288:
 2124              		.cfi_restore_state
 2125              		.loc 1 415 0
 2126 0088 4FF0FF30 		mov	r0, #-1
 2127              	.LVL284:
 2128 008c E3E7     		b	.L283
 2129              	.LVL285:
 2130              	.L289:
 2131              		.loc 1 435 0
 2132 008e 4342     		negs	r3, r0
 2133 0090 0F2B     		cmp	r3, #15
 2134 0092 98BF     		it	ls
 2135 0094 0A4A     		ldrls	r2, .L290+20
 2136 0096 3C44     		add	r4, r4, r7
 2137              	.LVL286:
 2138 0098 06EBC406 		add	r6, r6, r4, lsl #3
 2139 009c 94BF     		ite	ls
 2140 009e 52F82330 		ldrls	r3, [r2, r3, lsl #2]
 2141 00a2 0523     		movhi	r3, #5
 2142              		.loc 1 436 0
 2143 00a4 4FF0FF30 		mov	r0, #-1
 2144              	.LVL287:
 2145              		.loc 1 435 0
 2146 00a8 3361     		str	r3, [r6, #16]
 2147              		.loc 1 436 0
 2148 00aa D4E7     		b	.L283
 2149              	.L291:
 2150              		.align	2
 2151              	.L290:
 2152 00ac 00000000 		.word	.LANCHOR0
 2153 00b0 34000000 		.word	.LC2
 2154 00b4 00000000 		.word	.LC0
 2155 00b8 F4000000 		.word	.LC10
ARM GAS  C:\Users\jo\AppData\Local\Temp\cc6wN9Ut.s 			page 39


 2156 00bc 00000000 		.word	itm_port
 2157 00c0 00000000 		.word	.LANCHOR1
 2158              		.cfi_endproc
 2159              	.LFE266:
 2160              		.size	lwip_bind, .-lwip_bind
 2161 00c4 AFF30080 		.section	.text.lwip_close,"ax",%progbits
 2161      AFF30080 
 2161      AFF30080 
 2162              		.align	2
 2163              		.p2align 4,,15
 2164              		.global	lwip_close
 2165              		.thumb
 2166              		.thumb_func
 2167              		.type	lwip_close, %function
 2168              	lwip_close:
 2169              	.LFB267:
 2170              		.loc 1 446 0
 2171              		.cfi_startproc
 2172              		@ args = 0, pretend = 0, frame = 0
 2173              		@ frame_needed = 0, uses_anonymous_args = 0
 2174              	.LVL288:
 2175              	.LBB180:
 2176              	.LBB181:
 2177              		.loc 1 199 0
 2178 0000 0128     		cmp	r0, #1
 2179 0002 02D9     		bls	.L299
 2180              	.LBE181:
 2181              	.LBE180:
 2182              		.loc 1 454 0
 2183 0004 4FF0FF30 		mov	r0, #-1
 2184              	.LVL289:
 2185              		.loc 1 468 0
 2186 0008 7047     		bx	lr
 2187              	.LVL290:
 2188              	.L299:
 2189              	.LBB184:
 2190              	.LBB182:
 2191              		.loc 1 207 0
 2192 000a 00EB4000 		add	r0, r0, r0, lsl #1
 2193              	.LVL291:
 2194              	.LBE182:
 2195              	.LBE184:
 2196              		.loc 1 446 0
 2197 000e 2DE9F041 		push	{r4, r5, r6, r7, r8, lr}
 2198              		.cfi_def_cfa_offset 24
 2199              		.cfi_offset 4, -24
 2200              		.cfi_offset 5, -20
 2201              		.cfi_offset 6, -16
 2202              		.cfi_offset 7, -12
 2203              		.cfi_offset 8, -8
 2204              		.cfi_offset 14, -4
 2205              	.LBB185:
 2206              	.LBB183:
 2207              		.loc 1 207 0
 2208 0012 C500     		lsls	r5, r0, #3
 2209 0014 DFF84480 		ldr	r8, .L301
 2210 0018 58F80530 		ldr	r3, [r8, r5]
ARM GAS  C:\Users\jo\AppData\Local\Temp\cc6wN9Ut.s 			page 40


 2211 001c 08EB0506 		add	r6, r8, r5
 2212 0020 BBB1     		cbz	r3, .L296
 2213              	.LBE183:
 2214              	.LBE185:
 2215              		.loc 1 463 0
 2216 0022 1846     		mov	r0, r3
 2217              		.loc 1 458 0
 2218 0024 1F78     		ldrb	r7, [r3]	@ zero_extendqisi2
 2219              	.LVL292:
 2220              		.loc 1 463 0
 2221 0026 FFF7FEFF 		bl	netconn_delete
 2222              	.LVL293:
 2223              	.LBB186:
 2224              	.LBB187:
 2225              		.loc 1 285 0
 2226 002a 7068     		ldr	r0, [r6, #4]
 2227              	.LVL294:
 2228              		.loc 1 286 0
 2229 002c 0024     		movs	r4, #0
 2230 002e 7460     		str	r4, [r6, #4]
 2231              		.loc 1 287 0
 2232 0030 3481     		strh	r4, [r6, #8]	@ movhi
 2233              		.loc 1 288 0
 2234 0032 3461     		str	r4, [r6, #16]
 2235              		.loc 1 292 0
 2236 0034 48F80540 		str	r4, [r8, r5]
 2237              		.loc 1 296 0
 2238 0038 68B1     		cbz	r0, .L293
 2239              		.loc 1 297 0
 2240 003a 102F     		cmp	r7, #16
 2241 003c 04D0     		beq	.L300
 2242              		.loc 1 300 0
 2243 003e FFF7FEFF 		bl	netbuf_delete
 2244              	.LVL295:
 2245              	.LBE187:
 2246              	.LBE186:
 2247              		.loc 1 467 0
 2248 0042 2046     		mov	r0, r4
 2249 0044 BDE8F081 		pop	{r4, r5, r6, r7, r8, pc}
 2250              	.LVL296:
 2251              	.L300:
 2252              	.LBB189:
 2253              	.LBB188:
 2254              		.loc 1 298 0
 2255 0048 FFF7FEFF 		bl	pbuf_free
 2256              	.LVL297:
 2257              	.LBE188:
 2258              	.LBE189:
 2259              		.loc 1 467 0
 2260 004c 2046     		mov	r0, r4
 2261 004e BDE8F081 		pop	{r4, r5, r6, r7, r8, pc}
 2262              	.LVL298:
 2263              	.L296:
 2264              		.loc 1 454 0
 2265 0052 4FF0FF30 		mov	r0, #-1
 2266              	.LVL299:
 2267              	.L293:
ARM GAS  C:\Users\jo\AppData\Local\Temp\cc6wN9Ut.s 			page 41


 2268              		.loc 1 468 0
 2269 0056 BDE8F081 		pop	{r4, r5, r6, r7, r8, pc}
 2270              	.L302:
 2271 005a 00BF     		.align	2
 2272              	.L301:
 2273 005c 00000000 		.word	.LANCHOR0
 2274              		.cfi_endproc
 2275              	.LFE267:
 2276              		.size	lwip_close, .-lwip_close
 2277              		.section	.text.lwip_connect,"ax",%progbits
 2278              		.align	2
 2279              		.p2align 4,,15
 2280              		.global	lwip_connect
 2281              		.thumb
 2282              		.thumb_func
 2283              		.type	lwip_connect, %function
 2284              	lwip_connect:
 2285              	.LFB268:
 2286              		.loc 1 472 0
 2287              		.cfi_startproc
 2288              		@ args = 0, pretend = 0, frame = 8
 2289              		@ frame_needed = 0, uses_anonymous_args = 0
 2290              	.LVL300:
 2291              	.LBB190:
 2292              	.LBB191:
 2293              		.loc 1 199 0
 2294 0000 0128     		cmp	r0, #1
 2295 0002 02D9     		bls	.L319
 2296              	.LBE191:
 2297              	.LBE190:
 2298              		.loc 1 479 0
 2299 0004 4FF0FF30 		mov	r0, #-1
 2300              	.LVL301:
 2301              		.loc 1 514 0
 2302 0008 7047     		bx	lr
 2303              	.LVL302:
 2304              	.L319:
 2305              		.loc 1 472 0
 2306 000a 2DE9F043 		push	{r4, r5, r6, r7, r8, r9, lr}
 2307              		.cfi_def_cfa_offset 28
 2308              		.cfi_offset 4, -28
 2309              		.cfi_offset 5, -24
 2310              		.cfi_offset 6, -20
 2311              		.cfi_offset 7, -16
 2312              		.cfi_offset 8, -12
 2313              		.cfi_offset 9, -8
 2314              		.cfi_offset 14, -4
 2315              	.LBB194:
 2316              	.LBB192:
 2317              		.loc 1 207 0
 2318 000e 4600     		lsls	r6, r0, #1
 2319 0010 3418     		adds	r4, r6, r0
 2320 0012 E400     		lsls	r4, r4, #3
 2321 0014 254F     		ldr	r7, .L322
 2322 0016 57F80490 		ldr	r9, [r7, r4]
 2323              	.LBE192:
 2324              	.LBE194:
ARM GAS  C:\Users\jo\AppData\Local\Temp\cc6wN9Ut.s 			page 42


 2325              		.loc 1 472 0
 2326 001a 85B0     		sub	sp, sp, #20
 2327              		.cfi_def_cfa_offset 48
 2328              	.LBB195:
 2329              	.LBB193:
 2330              		.loc 1 207 0
 2331 001c B9F1000F 		cmp	r9, #0
 2332 0020 32D0     		beq	.L320
 2333              	.LBE193:
 2334              	.LBE195:
 2335              		.loc 1 483 0
 2336 0022 102A     		cmp	r2, #16
 2337 0024 0B46     		mov	r3, r1
 2338 0026 0546     		mov	r5, r0
 2339 0028 18D1     		bne	.L306
 2340              		.loc 1 483 0 is_stmt 0 discriminator 2
 2341 002a 5A78     		ldrb	r2, [r3, #1]	@ zero_extendqisi2
 2342              	.LVL303:
 2343 002c 022A     		cmp	r2, #2
 2344 002e 15D1     		bne	.L306
 2345              		.loc 1 483 0 discriminator 4
 2346 0030 9A07     		lsls	r2, r3, #30
 2347 0032 13D1     		bne	.L306
 2348              	.LVL304:
 2349              	.LBB196:
 2350              		.loc 1 495 0 is_stmt 1
 2351 0034 0DF11008 		add	r8, sp, #16
 2352 0038 5A68     		ldr	r2, [r3, #4]
 2353              		.loc 1 502 0
 2354 003a 5888     		ldrh	r0, [r3, #2]
 2355              	.LVL305:
 2356              		.loc 1 495 0
 2357 003c 48F8042D 		str	r2, [r8, #-4]!
 2358              	.LVL306:
 2359              		.loc 1 502 0
 2360 0040 FFF7FEFF 		bl	lwip_ntohs
 2361              	.LVL307:
 2362 0044 4146     		mov	r1, r8
 2363 0046 0246     		mov	r2, r0
 2364 0048 4846     		mov	r0, r9
 2365 004a FFF7FEFF 		bl	netconn_connect
 2366              	.LVL308:
 2367              	.LBE196:
 2368              		.loc 1 505 0
 2369 004e 0346     		mov	r3, r0
 2370 0050 E8B9     		cbnz	r0, .L321
 2371              		.loc 1 512 0
 2372 0052 3C44     		add	r4, r4, r7
 2373 0054 2361     		str	r3, [r4, #16]
 2374              	.LVL309:
 2375              	.L315:
 2376              		.loc 1 514 0
 2377 0056 05B0     		add	sp, sp, #20
 2378              		.cfi_remember_state
 2379              		.cfi_def_cfa_offset 28
 2380              		@ sp needed
 2381 0058 BDE8F083 		pop	{r4, r5, r6, r7, r8, r9, pc}
ARM GAS  C:\Users\jo\AppData\Local\Temp\cc6wN9Ut.s 			page 43


 2382              	.LVL310:
 2383              	.L306:
 2384              		.cfi_restore_state
 2385              		.loc 1 483 0 discriminator 5
 2386 005c 144B     		ldr	r3, .L322+4
 2387 005e 0093     		str	r3, [sp]
 2388 0060 1449     		ldr	r1, .L322+8
 2389              	.LVL311:
 2390 0062 154A     		ldr	r2, .L322+12
 2391 0064 1548     		ldr	r0, .L322+16
 2392              	.LVL312:
 2393 0066 40F2E513 		movw	r3, #485
 2394 006a FFF7FEFF 		bl	chprintf.constprop.0
 2395              	.LVL313:
 2396              	.LBB197:
 2397              	.LBB198:
 2398              		.loc 3 416 0 discriminator 5
 2399 006e 1248     		ldr	r0, .L322+12
 2400 0070 FFF7FEFF 		bl	chSysHalt
 2401              	.LVL314:
 2402              	.LBE198:
 2403              	.LBE197:
 2404              		.loc 1 483 0 discriminator 5
 2405 0074 3544     		add	r5, r5, r6
 2406              	.LVL315:
 2407 0076 07EBC507 		add	r7, r7, r5, lsl #3
 2408 007a 0523     		movs	r3, #5
 2409 007c 4FF0FF30 		mov	r0, #-1
 2410 0080 3B61     		str	r3, [r7, #16]
 2411              		.loc 1 514 0 discriminator 5
 2412 0082 05B0     		add	sp, sp, #20
 2413              		.cfi_remember_state
 2414              		.cfi_def_cfa_offset 28
 2415              		@ sp needed
 2416 0084 BDE8F083 		pop	{r4, r5, r6, r7, r8, r9, pc}
 2417              	.LVL316:
 2418              	.L320:
 2419              		.cfi_restore_state
 2420              		.loc 1 479 0
 2421 0088 4FF0FF30 		mov	r0, #-1
 2422              	.LVL317:
 2423 008c E3E7     		b	.L315
 2424              	.LVL318:
 2425              	.L321:
 2426              		.loc 1 507 0
 2427 008e 4342     		negs	r3, r0
 2428 0090 0F2B     		cmp	r3, #15
 2429 0092 98BF     		it	ls
 2430 0094 0A4A     		ldrls	r2, .L322+20
 2431 0096 3544     		add	r5, r5, r6
 2432              	.LVL319:
 2433 0098 07EBC507 		add	r7, r7, r5, lsl #3
 2434 009c 94BF     		ite	ls
 2435 009e 52F82330 		ldrls	r3, [r2, r3, lsl #2]
 2436 00a2 0523     		movhi	r3, #5
 2437              		.loc 1 508 0
 2438 00a4 4FF0FF30 		mov	r0, #-1
ARM GAS  C:\Users\jo\AppData\Local\Temp\cc6wN9Ut.s 			page 44


 2439              	.LVL320:
 2440              		.loc 1 507 0
 2441 00a8 3B61     		str	r3, [r7, #16]
 2442              		.loc 1 508 0
 2443 00aa D4E7     		b	.L315
 2444              	.L323:
 2445              		.align	2
 2446              	.L322:
 2447 00ac 00000000 		.word	.LANCHOR0
 2448 00b0 34000000 		.word	.LC2
 2449 00b4 00000000 		.word	.LC0
 2450 00b8 10010000 		.word	.LC11
 2451 00bc 00000000 		.word	itm_port
 2452 00c0 00000000 		.word	.LANCHOR1
 2453              		.cfi_endproc
 2454              	.LFE268:
 2455              		.size	lwip_connect, .-lwip_connect
 2456 00c4 AFF30080 		.section	.text.lwip_listen,"ax",%progbits
 2456      AFF30080 
 2456      AFF30080 
 2457              		.align	2
 2458              		.p2align 4,,15
 2459              		.global	lwip_listen
 2460              		.thumb
 2461              		.thumb_func
 2462              		.type	lwip_listen, %function
 2463              	lwip_listen:
 2464              	.LFB269:
 2465              		.loc 1 526 0
 2466              		.cfi_startproc
 2467              		@ args = 0, pretend = 0, frame = 0
 2468              		@ frame_needed = 0, uses_anonymous_args = 0
 2469              	.LVL321:
 2470              	.LBB199:
 2471              	.LBB200:
 2472              		.loc 1 199 0
 2473 0000 0128     		cmp	r0, #1
 2474 0002 02D9     		bls	.L339
 2475              	.LBE200:
 2476              	.LBE199:
 2477              		.loc 1 534 0
 2478 0004 4FF0FF30 		mov	r0, #-1
 2479              	.LVL322:
 2480              		.loc 1 554 0
 2481 0008 7047     		bx	lr
 2482              	.LVL323:
 2483              	.L339:
 2484              		.loc 1 526 0
 2485 000a 70B5     		push	{r4, r5, r6, lr}
 2486              		.cfi_def_cfa_offset 16
 2487              		.cfi_offset 4, -16
 2488              		.cfi_offset 5, -12
 2489              		.cfi_offset 6, -8
 2490              		.cfi_offset 14, -4
 2491              	.LBB202:
 2492              	.LBB201:
 2493              		.loc 1 207 0
ARM GAS  C:\Users\jo\AppData\Local\Temp\cc6wN9Ut.s 			page 45


 2494 000c 4500     		lsls	r5, r0, #1
 2495 000e 2B18     		adds	r3, r5, r0
 2496 0010 194E     		ldr	r6, .L342
 2497 0012 56F83330 		ldr	r3, [r6, r3, lsl #3]
 2498 0016 E3B1     		cbz	r3, .L340
 2499              	.LBE201:
 2500              	.LBE202:
 2501              		.loc 1 538 0
 2502 0018 FE29     		cmp	r1, #254
 2503 001a 18DC     		bgt	.L341
 2504              		.loc 1 538 0 is_stmt 0 discriminator 1
 2505 001c 21EAE171 		bic	r1, r1, r1, asr #31
 2506              	.LVL324:
 2507 0020 C9B2     		uxtb	r1, r1
 2508              	.L331:
 2509              	.LVL325:
 2510 0022 0446     		mov	r4, r0
 2511              		.loc 1 540 0 is_stmt 1 discriminator 4
 2512 0024 1846     		mov	r0, r3
 2513              	.LVL326:
 2514 0026 FFF7FEFF 		bl	netconn_listen_with_backlog
 2515              	.LVL327:
 2516              		.loc 1 542 0 discriminator 4
 2517 002a 0246     		mov	r2, r0
 2518 002c 50B1     		cbz	r0, .L327
 2519              		.loc 1 544 0
 2520 002e 2B19     		adds	r3, r5, r4
 2521 0030 DB00     		lsls	r3, r3, #3
 2522 0032 1148     		ldr	r0, .L342
 2523              	.LVL328:
 2524 0034 F158     		ldr	r1, [r6, r3]
 2525 0036 0978     		ldrb	r1, [r1]	@ zero_extendqisi2
 2526 0038 1029     		cmp	r1, #16
 2527 003a 0DD0     		beq	.L328
 2528              		.loc 1 545 0
 2529 003c 0344     		add	r3, r3, r0
 2530 003e 5F20     		movs	r0, #95
 2531 0040 1861     		str	r0, [r3, #16]
 2532              		.loc 1 546 0
 2533 0042 70BD     		pop	{r4, r5, r6, pc}
 2534              	.LVL329:
 2535              	.L327:
 2536              		.loc 1 552 0
 2537 0044 2C44     		add	r4, r4, r5
 2538              	.LVL330:
 2539 0046 06EBC404 		add	r4, r6, r4, lsl #3
 2540 004a 2261     		str	r2, [r4, #16]
 2541              		.loc 1 553 0
 2542 004c 70BD     		pop	{r4, r5, r6, pc}
 2543              	.LVL331:
 2544              	.L341:
 2545 004e FF21     		movs	r1, #255
 2546              	.LVL332:
 2547 0050 E7E7     		b	.L331
 2548              	.LVL333:
 2549              	.L340:
 2550              		.loc 1 534 0
ARM GAS  C:\Users\jo\AppData\Local\Temp\cc6wN9Ut.s 			page 46


 2551 0052 4FF0FF30 		mov	r0, #-1
 2552              	.LVL334:
 2553 0056 70BD     		pop	{r4, r5, r6, pc}
 2554              	.LVL335:
 2555              	.L328:
 2556              		.loc 1 548 0
 2557 0058 5242     		negs	r2, r2
 2558 005a 0F2A     		cmp	r2, #15
 2559 005c 98BF     		it	ls
 2560 005e 074B     		ldrls	r3, .L342+4
 2561 0060 2C44     		add	r4, r4, r5
 2562              	.LVL336:
 2563 0062 06EBC404 		add	r4, r6, r4, lsl #3
 2564 0066 94BF     		ite	ls
 2565 0068 53F82230 		ldrls	r3, [r3, r2, lsl #2]
 2566 006c 0523     		movhi	r3, #5
 2567              		.loc 1 549 0
 2568 006e 4FF0FF30 		mov	r0, #-1
 2569              		.loc 1 548 0
 2570 0072 2361     		str	r3, [r4, #16]
 2571              		.loc 1 549 0
 2572 0074 70BD     		pop	{r4, r5, r6, pc}
 2573              	.L343:
 2574 0076 00BF     		.align	2
 2575              	.L342:
 2576 0078 00000000 		.word	.LANCHOR0
 2577 007c 00000000 		.word	.LANCHOR1
 2578              		.cfi_endproc
 2579              	.LFE269:
 2580              		.size	lwip_listen, .-lwip_listen
 2581              		.section	.text.lwip_recvfrom,"ax",%progbits
 2582              		.align	2
 2583              		.p2align 4,,15
 2584              		.global	lwip_recvfrom
 2585              		.thumb
 2586              		.thumb_func
 2587              		.type	lwip_recvfrom, %function
 2588              	lwip_recvfrom:
 2589              	.LFB270:
 2590              		.loc 1 559 0
 2591              		.cfi_startproc
 2592              		@ args = 8, pretend = 0, frame = 56
 2593              		@ frame_needed = 0, uses_anonymous_args = 0
 2594              	.LVL337:
 2595 0000 2DE9F04F 		push	{r4, r5, r6, r7, r8, r9, r10, fp, lr}
 2596              		.cfi_def_cfa_offset 36
 2597              		.cfi_offset 4, -36
 2598              		.cfi_offset 5, -32
 2599              		.cfi_offset 6, -28
 2600              		.cfi_offset 7, -24
 2601              		.cfi_offset 8, -20
 2602              		.cfi_offset 9, -16
 2603              		.cfi_offset 10, -12
 2604              		.cfi_offset 11, -8
 2605              		.cfi_offset 14, -4
 2606 0004 91B0     		sub	sp, sp, #68
 2607              		.cfi_def_cfa_offset 104
ARM GAS  C:\Users\jo\AppData\Local\Temp\cc6wN9Ut.s 			page 47


 2608              		.loc 1 559 0
 2609 0006 0446     		mov	r4, r0
 2610 0008 0590     		str	r0, [sp, #20]
 2611              	.LBB203:
 2612              	.LBB204:
 2613              		.loc 1 199 0
 2614 000a 012C     		cmp	r4, #1
 2615              	.LBE204:
 2616              	.LBE203:
 2617              		.loc 1 561 0
 2618 000c 4FF00000 		mov	r0, #0
 2619              	.LVL338:
 2620              		.loc 1 559 0
 2621 0010 0291     		str	r1, [sp, #8]
 2622 0012 9946     		mov	r9, r3
 2623              		.loc 1 561 0
 2624 0014 0A90     		str	r0, [sp, #40]
 2625              	.LVL339:
 2626              		.loc 1 559 0
 2627 0016 DDF868A0 		ldr	r10, [sp, #104]
 2628              	.LBB208:
 2629              	.LBB205:
 2630              		.loc 1 199 0
 2631 001a 04D9     		bls	.L405
 2632              	.LVL340:
 2633              	.L386:
 2634              	.LBE205:
 2635              	.LBE208:
 2636              		.loc 1 573 0
 2637 001c 4FF0FF30 		mov	r0, #-1
 2638              	.LVL341:
 2639              	.L401:
 2640              		.loc 1 739 0
 2641 0020 11B0     		add	sp, sp, #68
 2642              		.cfi_remember_state
 2643              		.cfi_def_cfa_offset 36
 2644              		@ sp needed
 2645 0022 BDE8F08F 		pop	{r4, r5, r6, r7, r8, r9, r10, fp, pc}
 2646              	.LVL342:
 2647              	.L405:
 2648              		.cfi_restore_state
 2649              	.LBB209:
 2650              	.LBB206:
 2651              		.loc 1 207 0
 2652 0026 6300     		lsls	r3, r4, #1
 2653              	.LVL343:
 2654 0028 0693     		str	r3, [sp, #24]
 2655 002a 2344     		add	r3, r3, r4
 2656 002c 1746     		mov	r7, r2
 2657 002e DC00     		lsls	r4, r3, #3
 2658              	.LVL344:
 2659 0030 A44A     		ldr	r2, .L414
 2660              	.LVL345:
 2661 0032 1259     		ldr	r2, [r2, r4]
 2662 0034 002A     		cmp	r2, #0
 2663 0036 F1D0     		beq	.L386
 2664              	.LBE206:
ARM GAS  C:\Users\jo\AppData\Local\Temp\cc6wN9Ut.s 			page 48


 2665              	.LBE209:
 2666              		.loc 1 579 0
 2667 0038 0793     		str	r3, [sp, #28]
 2668 003a A24B     		ldr	r3, .L414
 2669 003c 1C44     		add	r4, r4, r3
 2670              	.LBB210:
 2671              	.LBB207:
 2672              		.loc 1 207 0
 2673 003e 8046     		mov	r8, r0
 2674              	.LVL346:
 2675              	.LBE207:
 2676              	.LBE210:
 2677              		.loc 1 579 0
 2678 0040 6368     		ldr	r3, [r4, #4]
 2679 0042 002B     		cmp	r3, #0
 2680 0044 00F09480 		beq	.L346
 2681              	.LVL347:
 2682              	.L409:
 2683              		.loc 1 580 0
 2684 0048 0A93     		str	r3, [sp, #40]
 2685 004a 9B46     		mov	fp, r3
 2686              	.L347:
 2687              		.loc 1 629 0
 2688 004c 2368     		ldr	r3, [r4]
 2689              		.loc 1 648 0
 2690 004e 029A     		ldr	r2, [sp, #8]
 2691              		.loc 1 629 0
 2692 0050 1B78     		ldrb	r3, [r3]	@ zero_extendqisi2
 2693 0052 102B     		cmp	r3, #16
 2694              		.loc 1 632 0
 2695 0054 18BF     		it	ne
 2696 0056 DBF800B0 		ldrne	fp, [fp]
 2697              	.LVL348:
 2698              		.loc 1 638 0
 2699 005a 2389     		ldrh	r3, [r4, #8]
 2700 005c BBF80850 		ldrh	r5, [fp, #8]
 2701 0060 ED1A     		subs	r5, r5, r3
 2702 0062 ADB2     		uxth	r5, r5
 2703              	.LVL349:
 2704              		.loc 1 640 0
 2705 0064 AF42     		cmp	r7, r5
 2706              		.loc 1 643 0
 2707 0066 94BF     		ite	ls
 2708 0068 BEB2     		uxthls	r6, r7
 2709              	.LVL350:
 2710              		.loc 1 641 0
 2711 006a 2E46     		movhi	r6, r5
 2712              	.LVL351:
 2713              		.loc 1 648 0
 2714 006c 02EB0801 		add	r1, r2, r8
 2715 0070 5846     		mov	r0, fp
 2716 0072 3246     		mov	r2, r6
 2717 0074 FFF7FEFF 		bl	pbuf_copy_partial
 2718              	.LVL352:
 2719              		.loc 1 652 0
 2720 0078 2368     		ldr	r3, [r4]
 2721 007a 1B78     		ldrb	r3, [r3]	@ zero_extendqisi2
ARM GAS  C:\Users\jo\AppData\Local\Temp\cc6wN9Ut.s 			page 49


 2722 007c 102B     		cmp	r3, #16
 2723              		.loc 1 650 0
 2724 007e B044     		add	r8, r8, r6
 2725              	.LVL353:
 2726              		.loc 1 652 0
 2727 0080 40F09180 		bne	.L360
 2728              		.loc 1 653 0
 2729 0084 B742     		cmp	r7, r6
 2730 0086 C0F0A680 		bcc	.L406
 2731              	.L361:
 2732              	.LVL354:
 2733              		.loc 1 655 0
 2734 008a BF1B     		subs	r7, r7, r6
 2735              	.LVL355:
 2736 008c 00F08B80 		beq	.L360
 2737              		.loc 1 656 0 discriminator 1
 2738 0090 9BF80D30 		ldrb	r3, [fp, #13]	@ zero_extendqisi2
 2739              		.loc 1 655 0 discriminator 1
 2740 0094 DB07     		lsls	r3, r3, #31
 2741 0096 00F18680 		bmi	.L360
 2742              		.loc 1 656 0
 2743 009a B4F90A30 		ldrsh	r3, [r4, #10]
 2744 009e 002B     		cmp	r3, #0
 2745 00a0 40F38180 		ble	.L360
 2746              		.loc 1 657 0
 2747 00a4 19F0010B 		ands	fp, r9, #1
 2748              	.LVL356:
 2749 00a8 51D0     		beq	.L367
 2750              	.LVL357:
 2751              	.LBB211:
 2752              		.loc 1 668 0
 2753 00aa BAF1000F 		cmp	r10, #0
 2754 00ae 34D0     		beq	.L377
 2755 00b0 1B9B     		ldr	r3, [sp, #108]
 2756 00b2 4FF0010B 		mov	fp, #1
 2757 00b6 002B     		cmp	r3, #0
 2758 00b8 2FD0     		beq	.L377
 2759              	.LBB212:
 2760              		.loc 1 671 0
 2761 00ba 2068     		ldr	r0, [r4]
 2762 00bc 0378     		ldrb	r3, [r0]	@ zero_extendqisi2
 2763 00be 102B     		cmp	r3, #16
 2764 00c0 7DD0     		beq	.L407
 2765              	.L369:
 2766              		.loc 1 675 0
 2767 00c2 0A9B     		ldr	r3, [sp, #40]
 2768              		.loc 1 676 0
 2769 00c4 9889     		ldrh	r0, [r3, #12]
 2770 00c6 ADF82600 		strh	r0, [sp, #38]	@ movhi
 2771              		.loc 1 675 0
 2772 00ca 03F1080C 		add	ip, r3, #8
 2773              	.LVL358:
 2774              	.L370:
 2775              		.loc 1 679 0
 2776 00ce 0023     		movs	r3, #0
 2777              		.loc 1 680 0
 2778 00d0 1021     		movs	r1, #16
ARM GAS  C:\Users\jo\AppData\Local\Temp\cc6wN9Ut.s 			page 50


 2779              		.loc 1 681 0
 2780 00d2 0222     		movs	r2, #2
 2781              		.loc 1 679 0
 2782 00d4 0C93     		str	r3, [sp, #48]
 2783 00d6 CDF810C0 		str	ip, [sp, #16]
 2784              	.LVL359:
 2785 00da 0D93     		str	r3, [sp, #52]
 2786 00dc 0E93     		str	r3, [sp, #56]
 2787 00de 0F93     		str	r3, [sp, #60]
 2788              		.loc 1 680 0
 2789 00e0 8DF83010 		strb	r1, [sp, #48]
 2790 00e4 0391     		str	r1, [sp, #12]
 2791              		.loc 1 681 0
 2792 00e6 8DF83120 		strb	r2, [sp, #49]
 2793              		.loc 1 682 0
 2794 00ea FFF7FEFF 		bl	lwip_htons
 2795              	.LVL360:
 2796              		.loc 1 685 0
 2797 00ee 1B9B     		ldr	r3, [sp, #108]
 2798              		.loc 1 683 0
 2799 00f0 DDF810C0 		ldr	ip, [sp, #16]
 2800              		.loc 1 685 0
 2801 00f4 1A68     		ldr	r2, [r3]
 2802              		.loc 1 683 0
 2803 00f6 DCF80030 		ldr	r3, [ip]
 2804              		.loc 1 682 0
 2805 00fa ADF83200 		strh	r0, [sp, #50]	@ movhi
 2806              		.loc 1 685 0
 2807 00fe 102A     		cmp	r2, #16
 2808              		.loc 1 683 0
 2809 0100 0D93     		str	r3, [sp, #52]
 2810              		.loc 1 685 0
 2811 0102 0399     		ldr	r1, [sp, #12]
 2812 0104 02D9     		bls	.L371
 2813              		.loc 1 686 0
 2814 0106 1B9B     		ldr	r3, [sp, #108]
 2815 0108 0A46     		mov	r2, r1
 2816 010a 1960     		str	r1, [r3]
 2817              	.L371:
 2818              		.loc 1 689 0
 2819 010c 0CA9     		add	r1, sp, #48
 2820 010e 5046     		mov	r0, r10
 2821 0110 FFF7FEFF 		bl	memcpy
 2822              	.LVL361:
 2823              	.L368:
 2824              	.LBE212:
 2825              	.LBE211:
 2826              		.loc 1 712 0 discriminator 10
 2827 0114 BBF1000F 		cmp	fp, #0
 2828 0118 17D0     		beq	.L389
 2829              	.LVL362:
 2830              	.L377:
 2831              		.loc 1 733 0
 2832 011a B8F1000F 		cmp	r8, #0
 2833 011e 08D0     		beq	.L373
 2834              		.loc 1 735 0
 2835 0120 059A     		ldr	r2, [sp, #20]
ARM GAS  C:\Users\jo\AppData\Local\Temp\cc6wN9Ut.s 			page 51


 2836 0122 069B     		ldr	r3, [sp, #24]
 2837 0124 1344     		add	r3, r3, r2
 2838 0126 674A     		ldr	r2, .L414
 2839 0128 4146     		mov	r1, r8
 2840 012a 52F83300 		ldr	r0, [r2, r3, lsl #3]
 2841 012e FFF7FEFF 		bl	netconn_recved
 2842              	.LVL363:
 2843              	.L373:
 2844              		.loc 1 737 0
 2845 0132 059A     		ldr	r2, [sp, #20]
 2846 0134 069B     		ldr	r3, [sp, #24]
 2847 0136 1344     		add	r3, r3, r2
 2848 0138 624A     		ldr	r2, .L414
 2849 013a 02EBC303 		add	r3, r2, r3, lsl #3
 2850              		.loc 1 738 0
 2851 013e 4046     		mov	r0, r8
 2852              		.loc 1 737 0
 2853 0140 0022     		movs	r2, #0
 2854 0142 1A61     		str	r2, [r3, #16]
 2855              		.loc 1 739 0
 2856 0144 11B0     		add	sp, sp, #68
 2857              		.cfi_remember_state
 2858              		.cfi_def_cfa_offset 36
 2859              		@ sp needed
 2860 0146 BDE8F08F 		pop	{r4, r5, r6, r7, r8, r9, r10, fp, pc}
 2861              	.LVL364:
 2862              	.L389:
 2863              		.cfi_restore_state
 2864              		.loc 1 712 0
 2865 014a 4FF0010B 		mov	fp, #1
 2866              	.LVL365:
 2867              	.L367:
 2868              		.loc 1 716 0
 2869 014e 2368     		ldr	r3, [r4]
 2870 0150 1B78     		ldrb	r3, [r3]	@ zero_extendqisi2
 2871 0152 102B     		cmp	r3, #16
 2872 0154 4CD0     		beq	.L408
 2873              		.loc 1 721 0
 2874 0156 0023     		movs	r3, #0
 2875              		.loc 1 727 0
 2876 0158 0A98     		ldr	r0, [sp, #40]
 2877              		.loc 1 721 0
 2878 015a 6360     		str	r3, [r4, #4]
 2879              		.loc 1 722 0
 2880 015c 2381     		strh	r3, [r4, #8]	@ movhi
 2881              		.loc 1 727 0
 2882 015e FFF7FEFF 		bl	netbuf_delete
 2883              	.LVL366:
 2884              		.loc 1 731 0
 2885 0162 BBF1000F 		cmp	fp, #0
 2886 0166 D8D1     		bne	.L377
 2887              	.LVL367:
 2888              	.L404:
 2889              		.loc 1 579 0
 2890 0168 6368     		ldr	r3, [r4, #4]
 2891 016a 002B     		cmp	r3, #0
 2892 016c 7FF46CAF 		bne	.L409
ARM GAS  C:\Users\jo\AppData\Local\Temp\cc6wN9Ut.s 			page 52


 2893              	.L346:
 2894              		.loc 1 583 0
 2895 0170 19F0080F 		tst	r9, #8
 2896 0174 03D1     		bne	.L348
 2897              		.loc 1 583 0 is_stmt 0 discriminator 2
 2898 0176 2068     		ldr	r0, [r4]
 2899 0178 037F     		ldrb	r3, [r0, #28]	@ zero_extendqisi2
 2900 017a 9A07     		lsls	r2, r3, #30
 2901 017c 05D5     		bpl	.L349
 2902              	.L348:
 2903              		.loc 1 583 0 discriminator 3
 2904 017e B4F90A30 		ldrsh	r3, [r4, #10]
 2905              		.loc 1 584 0 is_stmt 1 discriminator 3
 2906 0182 504D     		ldr	r5, .L414
 2907              		.loc 1 583 0 discriminator 3
 2908 0184 002B     		cmp	r3, #0
 2909 0186 77DD     		ble	.L350
 2910 0188 2068     		ldr	r0, [r4]
 2911              	.L349:
 2912              		.loc 1 599 0
 2913 018a 0378     		ldrb	r3, [r0]	@ zero_extendqisi2
 2914 018c 102B     		cmp	r3, #16
 2915              		.loc 1 600 0
 2916 018e 0AA9     		add	r1, sp, #40
 2917              		.loc 1 599 0
 2918 0190 3AD0     		beq	.L410
 2919              		.loc 1 602 0
 2920 0192 FFF7FEFF 		bl	netconn_recv
 2921              	.LVL368:
 2922              		.loc 1 607 0
 2923 0196 0028     		cmp	r0, #0
 2924 0198 3AD1     		bne	.L411
 2925              	.L354:
 2926              		.loc 1 625 0
 2927 019a 0A9B     		ldr	r3, [sp, #40]
 2928 019c 002B     		cmp	r3, #0
 2929 019e 5DD0     		beq	.L412
 2930              	.LVL369:
 2931              	.L357:
 2932              		.loc 1 626 0
 2933 01a0 6360     		str	r3, [r4, #4]
 2934 01a2 9B46     		mov	fp, r3
 2935 01a4 52E7     		b	.L347
 2936              	.LVL370:
 2937              	.L360:
 2938 01a6 09F0010B 		and	fp, r9, #1
 2939              	.LVL371:
 2940              	.LBB214:
 2941              		.loc 1 668 0
 2942 01aa BAF1000F 		cmp	r10, #0
 2943 01ae B1D0     		beq	.L368
 2944              		.loc 1 668 0 is_stmt 0 discriminator 1
 2945 01b0 1B9B     		ldr	r3, [sp, #108]
 2946 01b2 002B     		cmp	r3, #0
 2947 01b4 AED0     		beq	.L368
 2948              	.LBB213:
 2949              		.loc 1 671 0 is_stmt 1
ARM GAS  C:\Users\jo\AppData\Local\Temp\cc6wN9Ut.s 			page 53


 2950 01b6 2068     		ldr	r0, [r4]
 2951 01b8 0378     		ldrb	r3, [r0]	@ zero_extendqisi2
 2952 01ba 102B     		cmp	r3, #16
 2953 01bc 81D1     		bne	.L369
 2954              	.L407:
 2955              	.LVL372:
 2956              		.loc 1 673 0
 2957 01be 0BA9     		add	r1, sp, #44
 2958              	.LVL373:
 2959 01c0 0DF12602 		add	r2, sp, #38
 2960 01c4 0023     		movs	r3, #0
 2961              		.loc 1 672 0
 2962 01c6 0391     		str	r1, [sp, #12]
 2963              		.loc 1 673 0
 2964 01c8 FFF7FEFF 		bl	netconn_getaddr
 2965              	.LVL374:
 2966 01cc BDF82600 		ldrh	r0, [sp, #38]
 2967 01d0 DDF80CC0 		ldr	ip, [sp, #12]
 2968 01d4 7BE7     		b	.L370
 2969              	.LVL375:
 2970              	.L406:
 2971              	.LBE213:
 2972              	.LBE214:
 2973              		.loc 1 653 0 discriminator 1
 2974 01d6 3C4B     		ldr	r3, .L414+4
 2975 01d8 0093     		str	r3, [sp]
 2976 01da 3C49     		ldr	r1, .L414+8
 2977 01dc 3C4A     		ldr	r2, .L414+12
 2978 01de 3D48     		ldr	r0, .L414+16
 2979 01e0 40F28D23 		movw	r3, #653
 2980 01e4 FFF7FEFF 		bl	chprintf.constprop.0
 2981              	.LVL376:
 2982              	.LBB215:
 2983              	.LBB216:
 2984              		.loc 3 416 0 discriminator 1
 2985 01e8 3948     		ldr	r0, .L414+12
 2986 01ea FFF7FEFF 		bl	chSysHalt
 2987              	.LVL377:
 2988 01ee 4CE7     		b	.L361
 2989              	.LVL378:
 2990              	.L408:
 2991              	.LBE216:
 2992              	.LBE215:
 2993              		.loc 1 716 0 discriminator 1
 2994 01f0 AD1B     		subs	r5, r5, r6
 2995              	.LVL379:
 2996 01f2 002D     		cmp	r5, #0
 2997 01f4 28DD     		ble	.L375
 2998              		.loc 1 718 0
 2999 01f6 2389     		ldrh	r3, [r4, #8]
 3000              		.loc 1 717 0
 3001 01f8 0A9A     		ldr	r2, [sp, #40]
 3002 01fa 6260     		str	r2, [r4, #4]
 3003              		.loc 1 718 0
 3004 01fc 1E44     		add	r6, r6, r3
 3005              	.LVL380:
 3006 01fe 2681     		strh	r6, [r4, #8]	@ movhi
ARM GAS  C:\Users\jo\AppData\Local\Temp\cc6wN9Ut.s 			page 54


 3007              		.loc 1 731 0
 3008 0200 BBF1000F 		cmp	fp, #0
 3009 0204 B0D0     		beq	.L404
 3010 0206 88E7     		b	.L377
 3011              	.LVL381:
 3012              	.L410:
 3013              		.loc 1 600 0
 3014 0208 FFF7FEFF 		bl	netconn_recv_tcp_pbuf
 3015              	.LVL382:
 3016              		.loc 1 607 0
 3017 020c 0028     		cmp	r0, #0
 3018 020e C4D0     		beq	.L354
 3019              	.L411:
 3020              		.loc 1 608 0
 3021 0210 B8F1000F 		cmp	r8, #0
 3022 0214 3ED1     		bne	.L413
 3023              		.loc 1 618 0
 3024 0216 43B2     		sxtb	r3, r0
 3025 0218 5A42     		negs	r2, r3
 3026 021a 0F2A     		cmp	r2, #15
 3027 021c 98BF     		it	ls
 3028 021e 2E49     		ldrls	r1, .L414+20
 3029 0220 0598     		ldr	r0, [sp, #20]
 3030              	.LVL383:
 3031 0222 98BF     		it	ls
 3032 0224 51F82210 		ldrls	r1, [r1, r2, lsl #2]
 3033 0228 069A     		ldr	r2, [sp, #24]
 3034 022a 0244     		add	r2, r2, r0
 3035 022c 2548     		ldr	r0, .L414
 3036 022e 88BF     		it	hi
 3037 0230 0521     		movhi	r1, #5
 3038 0232 00EBC202 		add	r2, r0, r2, lsl #3
 3039              		.loc 1 619 0
 3040 0236 13F10C08 		adds	r8, r3, #12
 3041              	.LVL384:
 3042 023a 18BF     		it	ne
 3043 023c 4FF00108 		movne	r8, #1
 3044              		.loc 1 618 0
 3045 0240 1161     		str	r1, [r2, #16]
 3046              		.loc 1 619 0
 3047 0242 C8F10000 		rsb	r0, r8, #0
 3048 0246 EBE6     		b	.L401
 3049              	.LVL385:
 3050              	.L375:
 3051              		.loc 1 721 0
 3052 0248 0023     		movs	r3, #0
 3053              		.loc 1 725 0
 3054 024a 0A98     		ldr	r0, [sp, #40]
 3055              		.loc 1 721 0
 3056 024c 6360     		str	r3, [r4, #4]
 3057              		.loc 1 722 0
 3058 024e 2381     		strh	r3, [r4, #8]	@ movhi
 3059              		.loc 1 725 0
 3060 0250 FFF7FEFF 		bl	pbuf_free
 3061              	.LVL386:
 3062              		.loc 1 731 0
 3063 0254 BBF1000F 		cmp	fp, #0
ARM GAS  C:\Users\jo\AppData\Local\Temp\cc6wN9Ut.s 			page 55


 3064 0258 86D0     		beq	.L404
 3065 025a 5EE7     		b	.L377
 3066              	.LVL387:
 3067              	.L412:
 3068              		.loc 1 625 0 discriminator 1
 3069 025c 1A4B     		ldr	r3, .L414+4
 3070 025e 0093     		str	r3, [sp]
 3071 0260 1A49     		ldr	r1, .L414+8
 3072 0262 1E4A     		ldr	r2, .L414+24
 3073 0264 1B48     		ldr	r0, .L414+16
 3074              	.LVL388:
 3075 0266 40F27123 		movw	r3, #625
 3076 026a FFF7FEFF 		bl	chprintf.constprop.0
 3077              	.LVL389:
 3078              	.LBB217:
 3079              	.LBB218:
 3080              		.loc 3 416 0 discriminator 1
 3081 026e 1B48     		ldr	r0, .L414+24
 3082 0270 FFF7FEFF 		bl	chSysHalt
 3083              	.LVL390:
 3084 0274 0A9B     		ldr	r3, [sp, #40]
 3085 0276 93E7     		b	.L357
 3086              	.LVL391:
 3087              	.L350:
 3088              	.LBE218:
 3089              	.LBE217:
 3090              		.loc 1 585 0
 3091 0278 B8F1000F 		cmp	r8, #0
 3092 027c 19D0     		beq	.L351
 3093              		.loc 1 587 0
 3094 027e 2068     		ldr	r0, [r4]
 3095 0280 4146     		mov	r1, r8
 3096 0282 FFF7FEFF 		bl	netconn_recved
 3097              	.LVL392:
 3098              		.loc 1 589 0
 3099 0286 079B     		ldr	r3, [sp, #28]
 3100 0288 05EBC305 		add	r5, r5, r3, lsl #3
 3101 028c 0023     		movs	r3, #0
 3102              		.loc 1 590 0
 3103 028e 4046     		mov	r0, r8
 3104              		.loc 1 589 0
 3105 0290 2B61     		str	r3, [r5, #16]
 3106              		.loc 1 590 0
 3107 0292 C5E6     		b	.L401
 3108              	.LVL393:
 3109              	.L413:
 3110              		.loc 1 610 0
 3111 0294 069B     		ldr	r3, [sp, #24]
 3112 0296 059A     		ldr	r2, [sp, #20]
 3113 0298 1344     		add	r3, r3, r2
 3114 029a DC00     		lsls	r4, r3, #3
 3115 029c 094B     		ldr	r3, .L414
 3116 029e 4146     		mov	r1, r8
 3117 02a0 1859     		ldr	r0, [r3, r4]
 3118              	.LVL394:
 3119 02a2 FFF7FEFF 		bl	netconn_recved
 3120              	.LVL395:
ARM GAS  C:\Users\jo\AppData\Local\Temp\cc6wN9Ut.s 			page 56


 3121              		.loc 1 612 0
 3122 02a6 074B     		ldr	r3, .L414
 3123 02a8 1C44     		add	r4, r4, r3
 3124 02aa 0023     		movs	r3, #0
 3125              		.loc 1 613 0
 3126 02ac 4046     		mov	r0, r8
 3127              		.loc 1 612 0
 3128 02ae 2361     		str	r3, [r4, #16]
 3129              		.loc 1 613 0
 3130 02b0 B6E6     		b	.L401
 3131              	.L351:
 3132              		.loc 1 593 0
 3133 02b2 079B     		ldr	r3, [sp, #28]
 3134 02b4 05EBC305 		add	r5, r5, r3, lsl #3
 3135 02b8 0B23     		movs	r3, #11
 3136 02ba 2B61     		str	r3, [r5, #16]
 3137              		.loc 1 594 0
 3138 02bc 4FF0FF30 		mov	r0, #-1
 3139 02c0 AEE6     		b	.L401
 3140              	.L415:
 3141 02c2 00BF     		.align	2
 3142              	.L414:
 3143 02c4 00000000 		.word	.LANCHOR0
 3144 02c8 34000000 		.word	.LC2
 3145 02cc 00000000 		.word	.LC0
 3146 02d0 3C010000 		.word	.LC13
 3147 02d4 00000000 		.word	itm_port
 3148 02d8 00000000 		.word	.LANCHOR1
 3149 02dc 30010000 		.word	.LC12
 3150              		.cfi_endproc
 3151              	.LFE270:
 3152              		.size	lwip_recvfrom, .-lwip_recvfrom
 3153              		.section	.text.lwip_read,"ax",%progbits
 3154              		.align	2
 3155              		.p2align 4,,15
 3156              		.global	lwip_read
 3157              		.thumb
 3158              		.thumb_func
 3159              		.type	lwip_read, %function
 3160              	lwip_read:
 3161              	.LFB271:
 3162              		.loc 1 743 0
 3163              		.cfi_startproc
 3164              		@ args = 0, pretend = 0, frame = 0
 3165              		@ frame_needed = 0, uses_anonymous_args = 0
 3166              	.LVL396:
 3167 0000 00B5     		push	{lr}
 3168              		.cfi_def_cfa_offset 4
 3169              		.cfi_offset 14, -4
 3170 0002 83B0     		sub	sp, sp, #12
 3171              		.cfi_def_cfa_offset 16
 3172              		.loc 1 744 0
 3173 0004 0023     		movs	r3, #0
 3174 0006 0093     		str	r3, [sp]
 3175 0008 0193     		str	r3, [sp, #4]
 3176 000a FFF7FEFF 		bl	lwip_recvfrom
 3177              	.LVL397:
ARM GAS  C:\Users\jo\AppData\Local\Temp\cc6wN9Ut.s 			page 57


 3178              		.loc 1 745 0
 3179 000e 03B0     		add	sp, sp, #12
 3180              		.cfi_def_cfa_offset 4
 3181              		@ sp needed
 3182 0010 5DF804FB 		ldr	pc, [sp], #4
 3183              		.cfi_endproc
 3184              	.LFE271:
 3185              		.size	lwip_read, .-lwip_read
 3186 0014 AFF30080 		.section	.text.lwip_recv,"ax",%progbits
 3186      AFF30080 
 3186      AFF30080 
 3187              		.align	2
 3188              		.p2align 4,,15
 3189              		.global	lwip_recv
 3190              		.thumb
 3191              		.thumb_func
 3192              		.type	lwip_recv, %function
 3193              	lwip_recv:
 3194              	.LFB272:
 3195              		.loc 1 749 0
 3196              		.cfi_startproc
 3197              		@ args = 0, pretend = 0, frame = 0
 3198              		@ frame_needed = 0, uses_anonymous_args = 0
 3199              	.LVL398:
 3200 0000 10B5     		push	{r4, lr}
 3201              		.cfi_def_cfa_offset 8
 3202              		.cfi_offset 4, -8
 3203              		.cfi_offset 14, -4
 3204 0002 82B0     		sub	sp, sp, #8
 3205              		.cfi_def_cfa_offset 16
 3206              		.loc 1 750 0
 3207 0004 0024     		movs	r4, #0
 3208 0006 0094     		str	r4, [sp]
 3209 0008 0194     		str	r4, [sp, #4]
 3210 000a FFF7FEFF 		bl	lwip_recvfrom
 3211              	.LVL399:
 3212              		.loc 1 751 0
 3213 000e 02B0     		add	sp, sp, #8
 3214              		.cfi_def_cfa_offset 8
 3215              		@ sp needed
 3216 0010 10BD     		pop	{r4, pc}
 3217              		.cfi_endproc
 3218              	.LFE272:
 3219              		.size	lwip_recv, .-lwip_recv
 3220 0012 00BFAFF3 		.section	.text.lwip_sendto,"ax",%progbits
 3220      0080AFF3 
 3220      0080AFF3 
 3220      0080
 3221              		.align	2
 3222              		.p2align 4,,15
 3223              		.global	lwip_sendto
 3224              		.thumb
 3225              		.thumb_func
 3226              		.type	lwip_sendto, %function
 3227              	lwip_sendto:
 3228              	.LFB274:
 3229              		.loc 1 792 0
ARM GAS  C:\Users\jo\AppData\Local\Temp\cc6wN9Ut.s 			page 58


 3230              		.cfi_startproc
 3231              		@ args = 8, pretend = 0, frame = 16
 3232              		@ frame_needed = 0, uses_anonymous_args = 0
 3233              	.LVL400:
 3234 0000 2DE9F047 		push	{r4, r5, r6, r7, r8, r9, r10, lr}
 3235              		.cfi_def_cfa_offset 32
 3236              		.cfi_offset 4, -32
 3237              		.cfi_offset 5, -28
 3238              		.cfi_offset 6, -24
 3239              		.cfi_offset 7, -20
 3240              		.cfi_offset 8, -16
 3241              		.cfi_offset 9, -12
 3242              		.cfi_offset 10, -8
 3243              		.cfi_offset 14, -4
 3244 0004 86B0     		sub	sp, sp, #24
 3245              		.cfi_def_cfa_offset 56
 3246              	.LBB219:
 3247              	.LBB220:
 3248              		.loc 1 199 0
 3249 0006 0128     		cmp	r0, #1
 3250              	.LBE220:
 3251              	.LBE219:
 3252              		.loc 1 792 0
 3253 0008 0446     		mov	r4, r0
 3254              	.LVL401:
 3255 000a 0E9D     		ldr	r5, [sp, #56]
 3256 000c 0F9F     		ldr	r7, [sp, #60]
 3257              	.LBB223:
 3258              	.LBB221:
 3259              		.loc 1 199 0
 3260 000e 04D9     		bls	.L449
 3261              	.LVL402:
 3262              	.L446:
 3263              	.LBE221:
 3264              	.LBE223:
 3265              		.loc 1 820 0 discriminator 8
 3266 0010 4FF0FF30 		mov	r0, #-1
 3267              	.L441:
 3268              		.loc 1 945 0
 3269 0014 06B0     		add	sp, sp, #24
 3270              		.cfi_remember_state
 3271              		.cfi_def_cfa_offset 32
 3272              		@ sp needed
 3273 0016 BDE8F087 		pop	{r4, r5, r6, r7, r8, r9, r10, pc}
 3274              	.LVL403:
 3275              	.L449:
 3276              		.cfi_restore_state
 3277              	.LBB224:
 3278              	.LBB222:
 3279              		.loc 1 207 0
 3280 001a 4FEA4009 		lsl	r9, r0, #1
 3281 001e 09EB000E 		add	lr, r9, r0
 3282 0022 DFF81C81 		ldr	r8, .L454+24
 3283 0026 58F83EE0 		ldr	lr, [r8, lr, lsl #3]
 3284 002a BEF1000F 		cmp	lr, #0
 3285 002e EFD0     		beq	.L446
 3286              	.LBE222:
ARM GAS  C:\Users\jo\AppData\Local\Temp\cc6wN9Ut.s 			page 59


 3287              	.LBE224:
 3288              		.loc 1 807 0
 3289 0030 9EF800E0 		ldrb	lr, [lr]	@ zero_extendqisi2
 3290 0034 BEF1100F 		cmp	lr, #16
 3291 0038 73D0     		beq	.L450
 3292              		.loc 1 818 0
 3293 003a B2F5803F 		cmp	r2, #65536
 3294 003e 8A46     		mov	r10, r1
 3295 0040 1646     		mov	r6, r2
 3296 0042 43D2     		bcs	.L451
 3297              		.loc 1 819 0
 3298 0044 B6B2     		uxth	r6, r6
 3299              	.LVL404:
 3300              		.loc 1 820 0
 3301 0046 002D     		cmp	r5, #0
 3302 0048 4FD0     		beq	.L452
 3303              	.LVL405:
 3304              	.L426:
 3305              		.loc 1 820 0 is_stmt 0 discriminator 3
 3306 004a 102F     		cmp	r7, #16
 3307 004c 57D1     		bne	.L428
 3308              		.loc 1 820 0 discriminator 5
 3309 004e 6B78     		ldrb	r3, [r5, #1]	@ zero_extendqisi2
 3310 0050 022B     		cmp	r3, #2
 3311 0052 54D1     		bne	.L428
 3312              		.loc 1 820 0 discriminator 7
 3313 0054 15F00303 		ands	r3, r5, #3
 3314 0058 51D1     		bne	.L428
 3315              	.LVL406:
 3316              		.loc 1 901 0 is_stmt 1
 3317 005a 6A68     		ldr	r2, [r5, #4]
 3318              		.loc 1 902 0
 3319 005c 6888     		ldrh	r0, [r5, #2]
 3320              		.loc 1 896 0
 3321 005e 0393     		str	r3, [sp, #12]
 3322 0060 0293     		str	r3, [sp, #8]
 3323              		.loc 1 901 0
 3324 0062 0492     		str	r2, [sp, #16]
 3325              		.loc 1 902 0
 3326 0064 FFF7FEFF 		bl	lwip_ntohs
 3327              	.LVL407:
 3328              		.loc 1 903 0
 3329 0068 ADF81400 		strh	r0, [sp, #20]	@ movhi
 3330              	.LVL408:
 3331              	.L434:
 3332              		.loc 1 933 0
 3333 006c 5146     		mov	r1, r10
 3334 006e 02A8     		add	r0, sp, #8
 3335 0070 3246     		mov	r2, r6
 3336 0072 FFF7FEFF 		bl	netbuf_ref
 3337              	.LVL409:
 3338              		.loc 1 935 0
 3339 0076 0546     		mov	r5, r0
 3340 0078 68B1     		cbz	r0, .L453
 3341              	.LVL410:
 3342              		.loc 1 941 0
 3343 007a 02A8     		add	r0, sp, #8
ARM GAS  C:\Users\jo\AppData\Local\Temp\cc6wN9Ut.s 			page 60


 3344 007c FFF7FEFF 		bl	netbuf_free
 3345              	.LVL411:
 3346              		.loc 1 943 0
 3347 0080 6B42     		negs	r3, r5
 3348 0082 0F2B     		cmp	r3, #15
 3349 0084 15D9     		bls	.L435
 3350 0086 1823     		movs	r3, #24
 3351 0088 03FB0484 		mla	r4, r3, r4, r8
 3352              	.LVL412:
 3353 008c 0523     		movs	r3, #5
 3354 008e 2361     		str	r3, [r4, #16]
 3355              		.loc 1 944 0
 3356 0090 4FF0FF30 		mov	r0, #-1
 3357 0094 BEE7     		b	.L441
 3358              	.LVL413:
 3359              	.L453:
 3360              		.loc 1 937 0
 3361 0096 09EB0403 		add	r3, r9, r4
 3362 009a 02A9     		add	r1, sp, #8
 3363 009c 58F83300 		ldr	r0, [r8, r3, lsl #3]
 3364              	.LVL414:
 3365 00a0 FFF7FEFF 		bl	netconn_send
 3366              	.LVL415:
 3367 00a4 0546     		mov	r5, r0
 3368              	.LVL416:
 3369              		.loc 1 941 0
 3370 00a6 02A8     		add	r0, sp, #8
 3371 00a8 FFF7FEFF 		bl	netbuf_free
 3372              	.LVL417:
 3373              		.loc 1 943 0
 3374 00ac 6B42     		negs	r3, r5
 3375 00ae 0F2B     		cmp	r3, #15
 3376 00b0 23D8     		bhi	.L437
 3377              	.L435:
 3378              		.loc 1 943 0 is_stmt 0 discriminator 1
 3379 00b2 1D4A     		ldr	r2, .L454
 3380 00b4 52F82330 		ldr	r3, [r2, r3, lsl #2]
 3381              	.L431:
 3382              		.loc 1 943 0 discriminator 4
 3383 00b8 4C44     		add	r4, r4, r9
 3384              	.LVL418:
 3385 00ba 08EBC404 		add	r4, r8, r4, lsl #3
 3386 00be 2361     		str	r3, [r4, #16]
 3387              		.loc 1 944 0 is_stmt 1 discriminator 4
 3388 00c0 002D     		cmp	r5, #0
 3389 00c2 A5D1     		bne	.L446
 3390 00c4 3046     		mov	r0, r6
 3391              		.loc 1 945 0 discriminator 1
 3392 00c6 06B0     		add	sp, sp, #24
 3393              		.cfi_remember_state
 3394              		.cfi_def_cfa_offset 32
 3395              		@ sp needed
 3396 00c8 BDE8F087 		pop	{r4, r5, r6, r7, r8, r9, r10, pc}
 3397              	.LVL419:
 3398              	.L451:
 3399              		.cfi_restore_state
 3400              		.loc 1 818 0 discriminator 1
ARM GAS  C:\Users\jo\AppData\Local\Temp\cc6wN9Ut.s 			page 61


 3401 00cc 174B     		ldr	r3, .L454+4
 3402              	.LVL420:
 3403 00ce 0093     		str	r3, [sp]
 3404 00d0 1749     		ldr	r1, .L454+8
 3405              	.LVL421:
 3406 00d2 184A     		ldr	r2, .L454+12
 3407              	.LVL422:
 3408 00d4 1848     		ldr	r0, .L454+16
 3409              	.LVL423:
 3410 00d6 40F23233 		movw	r3, #818
 3411 00da FFF7FEFF 		bl	chprintf.constprop.0
 3412              	.LVL424:
 3413              	.LBB225:
 3414              	.LBB226:
 3415              		.loc 3 416 0 discriminator 1
 3416 00de 1548     		ldr	r0, .L454+12
 3417 00e0 FFF7FEFF 		bl	chSysHalt
 3418              	.LVL425:
 3419              	.LBE226:
 3420              	.LBE225:
 3421              		.loc 1 819 0 discriminator 1
 3422 00e4 B6B2     		uxth	r6, r6
 3423              	.LVL426:
 3424              		.loc 1 820 0 discriminator 1
 3425 00e6 002D     		cmp	r5, #0
 3426 00e8 AFD1     		bne	.L426
 3427              	.LVL427:
 3428              	.L452:
 3429              		.loc 1 820 0 is_stmt 0 discriminator 2
 3430 00ea 002F     		cmp	r7, #0
 3431 00ec ADD1     		bne	.L426
 3432              	.LVL428:
 3433              		.loc 1 896 0 is_stmt 1
 3434 00ee 0397     		str	r7, [sp, #12]
 3435 00f0 0297     		str	r7, [sp, #8]
 3436              	.LVL429:
 3437              		.loc 1 906 0
 3438 00f2 0497     		str	r7, [sp, #16]
 3439              		.loc 1 907 0
 3440 00f4 ADF81470 		strh	r7, [sp, #20]	@ movhi
 3441 00f8 B8E7     		b	.L434
 3442              	.LVL430:
 3443              	.L437:
 3444              		.loc 1 943 0
 3445 00fa 0523     		movs	r3, #5
 3446 00fc DCE7     		b	.L431
 3447              	.LVL431:
 3448              	.L428:
 3449              		.loc 1 820 0 discriminator 8
 3450 00fe 0B4B     		ldr	r3, .L454+4
 3451 0100 0093     		str	r3, [sp]
 3452 0102 0B49     		ldr	r1, .L454+8
 3453 0104 0D4A     		ldr	r2, .L454+20
 3454 0106 0C48     		ldr	r0, .L454+16
 3455 0108 40F23733 		movw	r3, #823
 3456 010c 4C44     		add	r4, r4, r9
 3457              	.LVL432:
ARM GAS  C:\Users\jo\AppData\Local\Temp\cc6wN9Ut.s 			page 62


 3458 010e FFF7FEFF 		bl	chprintf.constprop.0
 3459              	.LVL433:
 3460 0112 08EBC404 		add	r4, r8, r4, lsl #3
 3461              	.LBB227:
 3462              	.LBB228:
 3463              		.loc 3 416 0 discriminator 8
 3464 0116 0948     		ldr	r0, .L454+20
 3465 0118 FFF7FEFF 		bl	chSysHalt
 3466              	.LVL434:
 3467              	.LBE228:
 3468              	.LBE227:
 3469              		.loc 1 820 0 discriminator 8
 3470 011c 0523     		movs	r3, #5
 3471 011e 2361     		str	r3, [r4, #16]
 3472 0120 76E7     		b	.L446
 3473              	.LVL435:
 3474              	.L450:
 3475              		.loc 1 809 0
 3476 0122 FFF7FEFF 		bl	lwip_send
 3477              	.LVL436:
 3478 0126 75E7     		b	.L441
 3479              	.L455:
 3480              		.align	2
 3481              	.L454:
 3482 0128 00000000 		.word	.LANCHOR1
 3483 012c 34000000 		.word	.LC2
 3484 0130 00000000 		.word	.LC0
 3485 0134 64010000 		.word	.LC14
 3486 0138 00000000 		.word	itm_port
 3487 013c 88010000 		.word	.LC15
 3488 0140 00000000 		.word	.LANCHOR0
 3489              		.cfi_endproc
 3490              	.LFE274:
 3491              		.size	lwip_sendto, .-lwip_sendto
 3492              		.section	.text.lwip_send,"ax",%progbits
 3493              		.align	2
 3494              		.p2align 4,,15
 3495              		.global	lwip_send
 3496              		.thumb
 3497              		.thumb_func
 3498              		.type	lwip_send, %function
 3499              	lwip_send:
 3500              	.LFB273:
 3501              		.loc 1 755 0
 3502              		.cfi_startproc
 3503              		@ args = 0, pretend = 0, frame = 8
 3504              		@ frame_needed = 0, uses_anonymous_args = 0
 3505              	.LVL437:
 3506 0000 2DE9F041 		push	{r4, r5, r6, r7, r8, lr}
 3507              		.cfi_def_cfa_offset 24
 3508              		.cfi_offset 4, -24
 3509              		.cfi_offset 5, -20
 3510              		.cfi_offset 6, -16
 3511              		.cfi_offset 7, -12
 3512              		.cfi_offset 8, -8
 3513              		.cfi_offset 14, -4
 3514              	.LBB229:
ARM GAS  C:\Users\jo\AppData\Local\Temp\cc6wN9Ut.s 			page 63


 3515              	.LBB230:
 3516              		.loc 1 199 0
 3517 0004 0128     		cmp	r0, #1
 3518              	.LBE230:
 3519              	.LBE229:
 3520              		.loc 1 755 0
 3521 0006 84B0     		sub	sp, sp, #16
 3522              		.cfi_def_cfa_offset 40
 3523              		.loc 1 755 0
 3524 0008 0446     		mov	r4, r0
 3525              	.LVL438:
 3526              	.LBB233:
 3527              	.LBB231:
 3528              		.loc 1 199 0
 3529 000a 04D9     		bls	.L457
 3530              	.LVL439:
 3531              	.L459:
 3532              	.LBE231:
 3533              	.LBE233:
 3534              		.loc 1 766 0
 3535 000c 4FF0FF30 		mov	r0, #-1
 3536              		.loc 1 787 0
 3537 0010 04B0     		add	sp, sp, #16
 3538              		.cfi_remember_state
 3539              		.cfi_def_cfa_offset 24
 3540              		@ sp needed
 3541 0012 BDE8F081 		pop	{r4, r5, r6, r7, r8, pc}
 3542              	.LVL440:
 3543              	.L457:
 3544              		.cfi_restore_state
 3545              	.LBB234:
 3546              	.LBB232:
 3547              		.loc 1 207 0
 3548 0016 4FEA4008 		lsl	r8, r0, #1
 3549 001a 08EB0006 		add	r6, r8, r0
 3550 001e 1C4F     		ldr	r7, .L478
 3551 0020 57F836E0 		ldr	lr, [r7, r6, lsl #3]
 3552 0024 BEF1000F 		cmp	lr, #0
 3553 0028 F0D0     		beq	.L459
 3554              	.LBE232:
 3555              	.LBE234:
 3556              		.loc 1 769 0
 3557 002a 9EF80060 		ldrb	r6, [lr]	@ zero_extendqisi2
 3558 002e 102E     		cmp	r6, #16
 3559 0030 26D1     		bne	.L477
 3560              		.loc 1 781 0
 3561 0032 04AE     		add	r6, sp, #16
 3562 0034 1D46     		mov	r5, r3
 3563              		.loc 1 778 0
 3564 0036 13F0100F 		tst	r3, #16
 3565              		.loc 1 781 0
 3566 003a 4FF00000 		mov	r0, #0
 3567              	.LVL441:
 3568 003e 46F8040D 		str	r0, [r6, #-4]!
 3569              		.loc 1 778 0
 3570 0042 14BF     		ite	ne
 3571 0044 0323     		movne	r3, #3
ARM GAS  C:\Users\jo\AppData\Local\Temp\cc6wN9Ut.s 			page 64


 3572              	.LVL442:
 3573 0046 0123     		moveq	r3, #1
 3574 0048 15F0080F 		tst	r5, #8
 3575 004c 0CBF     		ite	eq
 3576 004e 0546     		moveq	r5, r0
 3577              	.LVL443:
 3578 0050 0425     		movne	r5, #4
 3579              	.LVL444:
 3580              		.loc 1 782 0
 3581 0052 2B43     		orrs	r3, r3, r5
 3582              	.LVL445:
 3583 0054 7046     		mov	r0, lr
 3584 0056 0096     		str	r6, [sp]
 3585 0058 FFF7FEFF 		bl	netconn_write_partly
 3586              	.LVL446:
 3587              		.loc 1 785 0
 3588 005c 4342     		negs	r3, r0
 3589 005e 0F2B     		cmp	r3, #15
 3590 0060 98BF     		it	ls
 3591 0062 0C4A     		ldrls	r2, .L478+4
 3592 0064 4444     		add	r4, r4, r8
 3593              	.LVL447:
 3594 0066 07EBC404 		add	r4, r7, r4, lsl #3
 3595 006a 94BF     		ite	ls
 3596 006c 52F82330 		ldrls	r3, [r2, r3, lsl #2]
 3597 0070 0523     		movhi	r3, #5
 3598 0072 2361     		str	r3, [r4, #16]
 3599              		.loc 1 786 0
 3600 0074 0028     		cmp	r0, #0
 3601 0076 C9D1     		bne	.L459
 3602              		.loc 1 786 0 is_stmt 0 discriminator 1
 3603 0078 0398     		ldr	r0, [sp, #12]
 3604              	.LVL448:
 3605              		.loc 1 787 0 is_stmt 1 discriminator 1
 3606 007a 04B0     		add	sp, sp, #16
 3607              		.cfi_remember_state
 3608              		.cfi_def_cfa_offset 24
 3609              		@ sp needed
 3610 007c BDE8F081 		pop	{r4, r5, r6, r7, r8, pc}
 3611              	.LVL449:
 3612              	.L477:
 3613              		.cfi_restore_state
 3614              		.loc 1 771 0
 3615 0080 0024     		movs	r4, #0
 3616 0082 0094     		str	r4, [sp]
 3617 0084 0194     		str	r4, [sp, #4]
 3618 0086 FFF7FEFF 		bl	lwip_sendto
 3619              	.LVL450:
 3620              		.loc 1 787 0
 3621 008a 04B0     		add	sp, sp, #16
 3622              		.cfi_def_cfa_offset 24
 3623              		@ sp needed
 3624 008c BDE8F081 		pop	{r4, r5, r6, r7, r8, pc}
 3625              	.L479:
 3626              		.align	2
 3627              	.L478:
 3628 0090 00000000 		.word	.LANCHOR0
ARM GAS  C:\Users\jo\AppData\Local\Temp\cc6wN9Ut.s 			page 65


 3629 0094 00000000 		.word	.LANCHOR1
 3630              		.cfi_endproc
 3631              	.LFE273:
 3632              		.size	lwip_send, .-lwip_send
 3633 0098 AFF30080 		.section	.text.lwip_socket,"ax",%progbits
 3633      AFF30080 
 3634              		.align	2
 3635              		.p2align 4,,15
 3636              		.global	lwip_socket
 3637              		.thumb
 3638              		.thumb_func
 3639              		.type	lwip_socket, %function
 3640              	lwip_socket:
 3641              	.LFB275:
 3642              		.loc 1 949 0
 3643              		.cfi_startproc
 3644              		@ args = 0, pretend = 0, frame = 0
 3645              		@ frame_needed = 0, uses_anonymous_args = 0
 3646              	.LVL451:
 3647              		.loc 1 956 0
 3648 0000 0229     		cmp	r1, #2
 3649              		.loc 1 949 0
 3650 0002 38B5     		push	{r3, r4, r5, lr}
 3651              		.cfi_def_cfa_offset 16
 3652              		.cfi_offset 3, -16
 3653              		.cfi_offset 4, -12
 3654              		.cfi_offset 5, -8
 3655              		.cfi_offset 14, -4
 3656              		.loc 1 956 0
 3657 0004 24D0     		beq	.L482
 3658 0006 0329     		cmp	r1, #3
 3659 0008 19D0     		beq	.L483
 3660 000a 0129     		cmp	r1, #1
 3661 000c 02D0     		beq	.L499
 3662              	.LVL452:
 3663              	.L496:
 3664              		.loc 1 981 0
 3665 000e 4FF0FF30 		mov	r0, #-1
 3666              		.loc 1 1001 0
 3667 0012 38BD     		pop	{r3, r4, r5, pc}
 3668              	.LVL453:
 3669              	.L499:
 3670              		.loc 1 969 0
 3671 0014 1020     		movs	r0, #16
 3672              	.LVL454:
 3673 0016 0021     		movs	r1, #0
 3674              	.LVL455:
 3675 0018 164A     		ldr	r2, .L501
 3676              	.LVL456:
 3677 001a FFF7FEFF 		bl	netconn_new_with_proto_and_callback
 3678              	.LVL457:
 3679              		.loc 1 972 0
 3680 001e 0546     		mov	r5, r0
 3681 0020 0028     		cmp	r0, #0
 3682 0022 F4D0     		beq	.L496
 3683              		.loc 1 974 0 discriminator 1
 3684 0024 037F     		ldrb	r3, [r0, #28]	@ zero_extendqisi2
ARM GAS  C:\Users\jo\AppData\Local\Temp\cc6wN9Ut.s 			page 66


 3685 0026 43F00803 		orr	r3, r3, #8
 3686 002a 0377     		strb	r3, [r0, #28]
 3687              	.L488:
 3688              		.loc 1 990 0
 3689 002c 2846     		mov	r0, r5
 3690 002e 0021     		movs	r1, #0
 3691 0030 FFF7FEFF 		bl	alloc_socket
 3692              	.LVL458:
 3693              		.loc 1 992 0
 3694 0034 431C     		adds	r3, r0, #1
 3695              		.loc 1 990 0
 3696 0036 0446     		mov	r4, r0
 3697              	.LVL459:
 3698              		.loc 1 992 0
 3699 0038 16D0     		beq	.L500
 3700              		.loc 1 997 0
 3701 003a A861     		str	r0, [r5, #24]
 3702              		.loc 1 1000 0
 3703 003c 38BD     		pop	{r3, r4, r5, pc}
 3704              	.LVL460:
 3705              	.L483:
 3706              		.loc 1 958 0
 3707 003e D1B2     		uxtb	r1, r2
 3708              	.LVL461:
 3709 0040 4020     		movs	r0, #64
 3710              	.LVL462:
 3711 0042 0C4A     		ldr	r2, .L501
 3712              	.LVL463:
 3713 0044 FFF7FEFF 		bl	netconn_new_with_proto_and_callback
 3714              	.LVL464:
 3715 0048 0546     		mov	r5, r0
 3716              	.LVL465:
 3717              		.loc 1 984 0
 3718 004a 002D     		cmp	r5, #0
 3719 004c EED1     		bne	.L488
 3720 004e DEE7     		b	.L496
 3721              	.LVL466:
 3722              	.L482:
 3723              		.loc 1 963 0
 3724 0050 882A     		cmp	r2, #136
 3725 0052 0CBF     		ite	eq
 3726 0054 2120     		moveq	r0, #33
 3727              	.LVL467:
 3728 0056 2020     		movne	r0, #32
 3729 0058 0021     		movs	r1, #0
 3730              	.LVL468:
 3731 005a 064A     		ldr	r2, .L501
 3732              	.LVL469:
 3733 005c FFF7FEFF 		bl	netconn_new_with_proto_and_callback
 3734              	.LVL470:
 3735 0060 0546     		mov	r5, r0
 3736              	.LVL471:
 3737              		.loc 1 984 0
 3738 0062 002D     		cmp	r5, #0
 3739 0064 E2D1     		bne	.L488
 3740 0066 D2E7     		b	.L496
 3741              	.LVL472:
ARM GAS  C:\Users\jo\AppData\Local\Temp\cc6wN9Ut.s 			page 67


 3742              	.L500:
 3743              		.loc 1 993 0
 3744 0068 2846     		mov	r0, r5
 3745              	.LVL473:
 3746 006a FFF7FEFF 		bl	netconn_delete
 3747              	.LVL474:
 3748              		.loc 1 995 0
 3749 006e 2046     		mov	r0, r4
 3750 0070 38BD     		pop	{r3, r4, r5, pc}
 3751              	.LVL475:
 3752              	.L502:
 3753 0072 00BF     		.align	2
 3754              	.L501:
 3755 0074 00000000 		.word	event_callback
 3756              		.cfi_endproc
 3757              	.LFE275:
 3758              		.size	lwip_socket, .-lwip_socket
 3759 0078 AFF30080 		.section	.text.lwip_write,"ax",%progbits
 3759      AFF30080 
 3760              		.align	2
 3761              		.p2align 4,,15
 3762              		.global	lwip_write
 3763              		.thumb
 3764              		.thumb_func
 3765              		.type	lwip_write, %function
 3766              	lwip_write:
 3767              	.LFB276:
 3768              		.loc 1 1005 0
 3769              		.cfi_startproc
 3770              		@ args = 0, pretend = 0, frame = 0
 3771              		@ frame_needed = 0, uses_anonymous_args = 0
 3772              		@ link register save eliminated.
 3773              	.LVL476:
 3774              		.loc 1 1006 0
 3775 0000 0023     		movs	r3, #0
 3776 0002 FFF7FEBF 		b	lwip_send
 3777              	.LVL477:
 3778              		.cfi_endproc
 3779              	.LFE276:
 3780              		.size	lwip_write, .-lwip_write
 3781 0006 00BFAFF3 		.section	.text.lwip_select,"ax",%progbits
 3781      0080AFF3 
 3781      0080
 3782              		.align	2
 3783              		.p2align 4,,15
 3784              		.global	lwip_select
 3785              		.thumb
 3786              		.thumb_func
 3787              		.type	lwip_select, %function
 3788              	lwip_select:
 3789              	.LFB278:
 3790              		.loc 1 1090 0
 3791              		.cfi_startproc
 3792              		@ args = 4, pretend = 0, frame = 64
 3793              		@ frame_needed = 0, uses_anonymous_args = 0
 3794              	.LVL478:
 3795 0000 2DE9F04F 		push	{r4, r5, r6, r7, r8, r9, r10, fp, lr}
ARM GAS  C:\Users\jo\AppData\Local\Temp\cc6wN9Ut.s 			page 68


 3796              		.cfi_def_cfa_offset 36
 3797              		.cfi_offset 4, -36
 3798              		.cfi_offset 5, -32
 3799              		.cfi_offset 6, -28
 3800              		.cfi_offset 7, -24
 3801              		.cfi_offset 8, -20
 3802              		.cfi_offset 9, -16
 3803              		.cfi_offset 10, -12
 3804              		.cfi_offset 11, -8
 3805              		.cfi_offset 14, -4
 3806 0004 95B0     		sub	sp, sp, #84
 3807              		.cfi_def_cfa_offset 120
 3808              		.loc 1 1107 0
 3809 0006 0DF12409 		add	r9, sp, #36
 3810 000a 0DF12C0A 		add	r10, sp, #44
 3811 000e 07AC     		add	r4, sp, #28
 3812 0010 8DE81006 		stmia	sp, {r4, r9, r10}
 3813              		.loc 1 1090 0
 3814 0014 0746     		mov	r7, r0
 3815 0016 0D46     		mov	r5, r1
 3816 0018 1646     		mov	r6, r2
 3817 001a 9B46     		mov	fp, r3
 3818              		.loc 1 1107 0
 3819 001c FFF7FEFF 		bl	lwip_selscan
 3820              	.LVL479:
 3821              		.loc 1 1110 0
 3822 0020 8046     		mov	r8, r0
 3823 0022 0028     		cmp	r0, #0
 3824 0024 40F0CC80 		bne	.L505
 3825              		.loc 1 1111 0
 3826 0028 1E9B     		ldr	r3, [sp, #120]
 3827 002a 33B1     		cbz	r3, .L506
 3828              		.loc 1 1111 0 is_stmt 0 discriminator 1
 3829 002c 1B68     		ldr	r3, [r3]
 3830 002e 23B9     		cbnz	r3, .L506
 3831              		.loc 1 1111 0 discriminator 2
 3832 0030 1E9B     		ldr	r3, [sp, #120]
 3833 0032 5B68     		ldr	r3, [r3, #4]
 3834 0034 002B     		cmp	r3, #0
 3835 0036 00F0C380 		beq	.L505
 3836              	.L506:
 3837              		.loc 1 1123 0 is_stmt 1
 3838 003a 0023     		movs	r3, #0
 3839              		.loc 1 1129 0
 3840 003c 1946     		mov	r1, r3
 3841 003e 13A8     		add	r0, sp, #76
 3842              	.LVL480:
 3843              		.loc 1 1125 0
 3844 0040 0F95     		str	r5, [sp, #60]
 3845              		.loc 1 1126 0
 3846 0042 1096     		str	r6, [sp, #64]
 3847              		.loc 1 1127 0
 3848 0044 CDF844B0 		str	fp, [sp, #68]
 3849              		.loc 1 1123 0
 3850 0048 0D93     		str	r3, [sp, #52]
 3851              		.loc 1 1124 0
 3852 004a 0E93     		str	r3, [sp, #56]
ARM GAS  C:\Users\jo\AppData\Local\Temp\cc6wN9Ut.s 			page 69


 3853              		.loc 1 1128 0
 3854 004c 1293     		str	r3, [sp, #72]
 3855              		.loc 1 1129 0
 3856 004e FFF7FEFF 		bl	sys_sem_new
 3857              	.LVL481:
 3858              		.loc 1 1130 0
 3859 0052 0028     		cmp	r0, #0
 3860 0054 40F02C81 		bne	.L542
 3861              		.loc 1 1140 0
 3862 0058 A24B     		ldr	r3, .L609
 3863 005a 1B68     		ldr	r3, [r3]
 3864 005c 0D93     		str	r3, [sp, #52]
 3865              		.loc 1 1141 0
 3866 005e 0BB1     		cbz	r3, .L508
 3867              		.loc 1 1142 0
 3868 0060 0DAA     		add	r2, sp, #52
 3869 0062 5A60     		str	r2, [r3, #4]
 3870              	.L508:
 3871              		.loc 1 1144 0
 3872 0064 9F4B     		ldr	r3, .L609
 3873 0066 0DAA     		add	r2, sp, #52
 3874 0068 1A60     		str	r2, [r3]
 3875              		.loc 1 1146 0
 3876 006a 9F4B     		ldr	r3, .L609+4
 3877 006c 9E4A     		ldr	r2, .L609+4
 3878 006e 1B68     		ldr	r3, [r3]
 3879              		.loc 1 1152 0
 3880 0070 002F     		cmp	r7, #0
 3881              		.loc 1 1146 0
 3882 0072 03F10103 		add	r3, r3, #1
 3883 0076 1360     		str	r3, [r2]
 3884              	.LVL482:
 3885              		.loc 1 1152 0
 3886 0078 40F3F280 		ble	.L509
 3887 007c DFF88CC2 		ldr	ip, .L609+40
 3888 0080 CDF81080 		str	r8, [sp, #16]
 3889 0084 0024     		movs	r4, #0
 3890 0086 B846     		mov	r8, r7
 3891              	.LVL483:
 3892 0088 3746     		mov	r7, r6
 3893              	.LVL484:
 3894 008a 2E46     		mov	r6, r5
 3895              	.LVL485:
 3896 008c 6546     		mov	r5, ip
 3897              	.LVL486:
 3898              	.L517:
 3899              		.loc 1 1153 0
 3900 008e CEB1     		cbz	r6, .L510
 3901              		.loc 1 1153 0 is_stmt 0 discriminator 1
 3902 0090 6309     		lsrs	r3, r4, #5
 3903 0092 04F01F02 		and	r2, r4, #31
 3904 0096 56F82330 		ldr	r3, [r6, r3, lsl #2]
 3905 009a 1341     		asrs	r3, r3, r2
 3906 009c DA07     		lsls	r2, r3, #31
 3907 009e 11D5     		bpl	.L510
 3908              	.L511:
 3909              	.LVL487:
ARM GAS  C:\Users\jo\AppData\Local\Temp\cc6wN9Ut.s 			page 70


 3910              	.LBB235:
 3911              	.LBB236:
 3912              	.LBB237:
 3913              		.loc 1 225 0 is_stmt 1
 3914 00a0 012C     		cmp	r4, #1
 3915 00a2 40F23581 		bls	.L604
 3916              	.L516:
 3917              	.LBE237:
 3918              	.LBE236:
 3919              		.loc 1 1157 0
 3920 00a6 914B     		ldr	r3, .L609+8
 3921 00a8 9148     		ldr	r0, .L609+12
 3922 00aa 9249     		ldr	r1, .L609+16
 3923 00ac 924A     		ldr	r2, .L609+20
 3924 00ae 0093     		str	r3, [sp]
 3925 00b0 40F28543 		movw	r3, #1157
 3926              	.LVL488:
 3927              	.L600:
 3928              	.LBE235:
 3929              	.LBB242:
 3930              		.loc 1 1189 0
 3931 00b4 FFF7FEFF 		bl	chprintf.constprop.0
 3932              	.LVL489:
 3933              	.LBB243:
 3934              	.LBB244:
 3935              		.loc 3 416 0
 3936 00b8 8F48     		ldr	r0, .L609+20
 3937 00ba FFF7FEFF 		bl	chSysHalt
 3938              	.LVL490:
 3939              	.LBE244:
 3940              	.LBE243:
 3941              		.loc 1 1191 0
 3942 00be 0023     		movs	r3, #0
 3943 00c0 5B69     		ldr	r3, [r3, #20]
 3944 00c2 FFDE     		.inst	0xdeff
 3945              	.LVL491:
 3946              	.L510:
 3947              	.LBE242:
 3948              		.loc 1 1153 0 discriminator 3
 3949 00c4 3FB1     		cbz	r7, .L512
 3950              		.loc 1 1154 0
 3951 00c6 6309     		lsrs	r3, r4, #5
 3952 00c8 04F01F02 		and	r2, r4, #31
 3953 00cc 57F82330 		ldr	r3, [r7, r3, lsl #2]
 3954 00d0 1341     		asrs	r3, r3, r2
 3955 00d2 DB07     		lsls	r3, r3, #31
 3956 00d4 E4D4     		bmi	.L511
 3957              	.L512:
 3958              		.loc 1 1154 0 is_stmt 0 discriminator 1
 3959 00d6 BBF1000F 		cmp	fp, #0
 3960 00da 07D0     		beq	.L514
 3961              		.loc 1 1155 0 is_stmt 1
 3962 00dc 6309     		lsrs	r3, r4, #5
 3963 00de 04F01F02 		and	r2, r4, #31
 3964 00e2 5BF82330 		ldr	r3, [fp, r3, lsl #2]
 3965 00e6 1341     		asrs	r3, r3, r2
 3966 00e8 D807     		lsls	r0, r3, #31
ARM GAS  C:\Users\jo\AppData\Local\Temp\cc6wN9Ut.s 			page 71


 3967 00ea D9D4     		bmi	.L511
 3968              	.L514:
 3969              		.loc 1 1152 0 discriminator 2
 3970 00ec 0134     		adds	r4, r4, #1
 3971              	.LVL492:
 3972 00ee 4445     		cmp	r4, r8
 3973 00f0 05F11805 		add	r5, r5, #24
 3974 00f4 CBD1     		bne	.L517
 3975 00f6 3546     		mov	r5, r6
 3976              		.loc 1 1167 0
 3977 00f8 07AB     		add	r3, sp, #28
 3978 00fa 3E46     		mov	r6, r7
 3979              	.LVL493:
 3980 00fc 4746     		mov	r7, r8
 3981              	.LVL494:
 3982 00fe 8DE80806 		stmia	sp, {r3, r9, r10}
 3983 0102 3846     		mov	r0, r7
 3984 0104 2946     		mov	r1, r5
 3985 0106 3246     		mov	r2, r6
 3986 0108 5B46     		mov	r3, fp
 3987 010a DDF81080 		ldr	r8, [sp, #16]
 3988              	.LVL495:
 3989 010e FFF7FEFF 		bl	lwip_selscan
 3990              	.LVL496:
 3991              		.loc 1 1168 0
 3992 0112 0028     		cmp	r0, #0
 3993 0114 74D0     		beq	.L536
 3994              		.loc 1 1091 0
 3995 0116 0023     		movs	r3, #0
 3996              		.loc 1 1168 0
 3997 0118 8046     		mov	r8, r0
 3998              		.loc 1 1091 0
 3999 011a 0493     		str	r3, [sp, #16]
 4000              	.LVL497:
 4001              	.L537:
 4002 011c DFF8ECC1 		ldr	ip, .L609+40
 4003              		.loc 1 1181 0
 4004 0120 CDF81480 		str	r8, [sp, #20]
 4005 0124 0024     		movs	r4, #0
 4006 0126 B846     		mov	r8, r7
 4007 0128 3746     		mov	r7, r6
 4008              	.LVL498:
 4009 012a 2E46     		mov	r6, r5
 4010              	.LVL499:
 4011 012c 6546     		mov	r5, ip
 4012              	.LVL500:
 4013              	.L528:
 4014              		.loc 1 1185 0
 4015 012e 3EB1     		cbz	r6, .L521
 4016              		.loc 1 1185 0 is_stmt 0 discriminator 1
 4017 0130 6309     		lsrs	r3, r4, #5
 4018 0132 04F01F02 		and	r2, r4, #31
 4019 0136 56F82330 		ldr	r3, [r6, r3, lsl #2]
 4020 013a 1341     		asrs	r3, r3, r2
 4021 013c D907     		lsls	r1, r3, #31
 4022 013e 55D4     		bmi	.L522
 4023              	.L521:
ARM GAS  C:\Users\jo\AppData\Local\Temp\cc6wN9Ut.s 			page 72


 4024              		.loc 1 1185 0 discriminator 3
 4025 0140 3FB1     		cbz	r7, .L523
 4026              		.loc 1 1186 0 is_stmt 1
 4027 0142 6309     		lsrs	r3, r4, #5
 4028 0144 04F01F02 		and	r2, r4, #31
 4029 0148 57F82330 		ldr	r3, [r7, r3, lsl #2]
 4030 014c 1341     		asrs	r3, r3, r2
 4031 014e DA07     		lsls	r2, r3, #31
 4032 0150 4CD4     		bmi	.L522
 4033              	.L523:
 4034              		.loc 1 1186 0 is_stmt 0 discriminator 1
 4035 0152 BBF1000F 		cmp	fp, #0
 4036 0156 07D0     		beq	.L525
 4037              		.loc 1 1187 0 is_stmt 1
 4038 0158 6309     		lsrs	r3, r4, #5
 4039 015a 04F01F02 		and	r2, r4, #31
 4040 015e 5BF82330 		ldr	r3, [fp, r3, lsl #2]
 4041 0162 1341     		asrs	r3, r3, r2
 4042 0164 DB07     		lsls	r3, r3, #31
 4043 0166 41D4     		bmi	.L522
 4044              	.L525:
 4045              		.loc 1 1184 0 discriminator 2
 4046 0168 0134     		adds	r4, r4, #1
 4047              	.LVL501:
 4048 016a A045     		cmp	r8, r4
 4049 016c 05F11805 		add	r5, r5, #24
 4050 0170 DDDC     		bgt	.L528
 4051 0172 3546     		mov	r5, r6
 4052 0174 3E46     		mov	r6, r7
 4053              	.LVL502:
 4054 0176 4746     		mov	r7, r8
 4055              	.LVL503:
 4056 0178 DDF81480 		ldr	r8, [sp, #20]
 4057              	.LVL504:
 4058              	.L520:
 4059              		.loc 1 1198 0
 4060 017c 0D9B     		ldr	r3, [sp, #52]
 4061 017e 0BB1     		cbz	r3, .L529
 4062              		.loc 1 1199 0
 4063 0180 0E9A     		ldr	r2, [sp, #56]
 4064 0182 5A60     		str	r2, [r3, #4]
 4065              	.L529:
 4066              		.loc 1 1201 0
 4067 0184 574A     		ldr	r2, .L609
 4068 0186 1268     		ldr	r2, [r2]
 4069 0188 0DA9     		add	r1, sp, #52
 4070 018a 8A42     		cmp	r2, r1
 4071              		.loc 1 1202 0
 4072 018c 0E9A     		ldr	r2, [sp, #56]
 4073              		.loc 1 1201 0
 4074 018e 56D0     		beq	.L605
 4075              		.loc 1 1205 0
 4076 0190 002A     		cmp	r2, #0
 4077 0192 73D0     		beq	.L606
 4078              	.L533:
 4079              		.loc 1 1206 0
 4080 0194 1360     		str	r3, [r2]
ARM GAS  C:\Users\jo\AppData\Local\Temp\cc6wN9Ut.s 			page 73


 4081              	.L532:
 4082              		.loc 1 1209 0
 4083 0196 544B     		ldr	r3, .L609+4
 4084 0198 534A     		ldr	r2, .L609+4
 4085 019a 1B68     		ldr	r3, [r3]
 4086              		.loc 1 1212 0
 4087 019c 13A8     		add	r0, sp, #76
 4088              		.loc 1 1209 0
 4089 019e 0133     		adds	r3, r3, #1
 4090 01a0 1360     		str	r3, [r2]
 4091              		.loc 1 1212 0
 4092 01a2 FFF7FEFF 		bl	sys_sem_free
 4093              	.LVL505:
 4094              		.loc 1 1213 0
 4095 01a6 049B     		ldr	r3, [sp, #16]
 4096 01a8 0133     		adds	r3, r3, #1
 4097 01aa 09D0     		beq	.L505
 4098              		.loc 1 1222 0
 4099 01ac 07AB     		add	r3, sp, #28
 4100 01ae 8DE80806 		stmia	sp, {r3, r9, r10}
 4101 01b2 3846     		mov	r0, r7
 4102 01b4 2946     		mov	r1, r5
 4103 01b6 3246     		mov	r2, r6
 4104 01b8 5B46     		mov	r3, fp
 4105 01ba FFF7FEFF 		bl	lwip_selscan
 4106              	.LVL506:
 4107 01be 8046     		mov	r8, r0
 4108              	.LVL507:
 4109              	.L505:
 4110              		.loc 1 1228 0
 4111 01c0 25B1     		cbz	r5, .L534
 4112              		.loc 1 1229 0
 4113 01c2 07AB     		add	r3, sp, #28
 4114 01c4 93E80300 		ldmia	r3, {r0, r1}
 4115 01c8 85E80300 		stmia	r5, {r0, r1}
 4116              	.L534:
 4117              		.loc 1 1231 0
 4118 01cc 1EB1     		cbz	r6, .L535
 4119              		.loc 1 1232 0
 4120 01ce 99E80300 		ldmia	r9, {r0, r1}
 4121 01d2 86E80300 		stmia	r6, {r0, r1}
 4122              	.L535:
 4123              		.loc 1 1234 0
 4124 01d6 BBF1000F 		cmp	fp, #0
 4125 01da 03D0     		beq	.L597
 4126              		.loc 1 1235 0
 4127 01dc 9AE80300 		ldmia	r10, {r0, r1}
 4128 01e0 8BE80300 		stmia	fp, {r0, r1}
 4129              	.LVL508:
 4130              	.L597:
 4131              		.loc 1 1240 0
 4132 01e4 4046     		mov	r0, r8
 4133 01e6 15B0     		add	sp, sp, #84
 4134              		.cfi_remember_state
 4135              		.cfi_def_cfa_offset 36
 4136              		@ sp needed
 4137 01e8 BDE8F08F 		pop	{r4, r5, r6, r7, r8, r9, r10, fp, pc}
ARM GAS  C:\Users\jo\AppData\Local\Temp\cc6wN9Ut.s 			page 74


 4138              	.LVL509:
 4139              	.L522:
 4140              		.cfi_restore_state
 4141              	.LBB251:
 4142              	.LBB245:
 4143              	.LBB246:
 4144              		.loc 1 225 0
 4145 01ec 012C     		cmp	r4, #1
 4146 01ee 62D9     		bls	.L607
 4147              	.L527:
 4148              	.LBE246:
 4149              	.LBE245:
 4150              		.loc 1 1189 0
 4151 01f0 3E4B     		ldr	r3, .L609+8
 4152 01f2 0093     		str	r3, [sp]
 4153 01f4 3E48     		ldr	r0, .L609+12
 4154 01f6 3F49     		ldr	r1, .L609+16
 4155 01f8 3F4A     		ldr	r2, .L609+20
 4156 01fa 40F2A543 		movw	r3, #1189
 4157 01fe 59E7     		b	.L600
 4158              	.LVL510:
 4159              	.L536:
 4160              	.LBE251:
 4161              		.loc 1 1170 0
 4162 0200 1E9B     		ldr	r3, [sp, #120]
 4163 0202 002B     		cmp	r3, #0
 4164 0204 00F09B80 		beq	.L608
 4165              	.LVL511:
 4166              	.L540:
 4167              		.loc 1 1174 0
 4168 0208 1E9B     		ldr	r3, [sp, #120]
 4169 020a 1E9A     		ldr	r2, [sp, #120]
 4170 020c 5B68     		ldr	r3, [r3, #4]
 4171 020e 3B49     		ldr	r1, .L609+24
 4172 0210 1268     		ldr	r2, [r2]
 4173 0212 03F5FA73 		add	r3, r3, #500
 4174 0216 81FB0301 		smull	r0, r1, r1, r3
 4175              	.LVL512:
 4176 021a DB17     		asrs	r3, r3, #31
 4177 021c C3EBA113 		rsb	r3, r3, r1, asr #6
 4178 0220 4FF47A71 		mov	r1, #1000
 4179 0224 01FB0231 		mla	r1, r1, r2, r3
 4180              	.LVL513:
 4181              		.loc 1 1177 0
 4182 0228 0029     		cmp	r1, #0
 4183              	.LVL514:
 4184              		.loc 1 1181 0
 4185 022a 08BF     		it	eq
 4186 022c 0121     		moveq	r1, #1
 4187              	.LVL515:
 4188 022e 13A8     		add	r0, sp, #76
 4189 0230 FFF7FEFF 		bl	sys_arch_sem_wait
 4190              	.LVL516:
 4191              		.loc 1 1184 0
 4192 0234 002F     		cmp	r7, #0
 4193              		.loc 1 1181 0
 4194 0236 0490     		str	r0, [sp, #16]
ARM GAS  C:\Users\jo\AppData\Local\Temp\cc6wN9Ut.s 			page 75


 4195              	.LVL517:
 4196              		.loc 1 1184 0
 4197 0238 3FF770AF 		bgt	.L537
 4198 023c 9EE7     		b	.L520
 4199              	.LVL518:
 4200              	.L605:
 4201              		.loc 1 1202 0
 4202 023e 62B1     		cbz	r2, .L531
 4203              		.loc 1 1202 0 is_stmt 0 discriminator 1
 4204 0240 2A4B     		ldr	r3, .L609+8
 4205 0242 0093     		str	r3, [sp]
 4206 0244 2B49     		ldr	r1, .L609+16
 4207 0246 2E4A     		ldr	r2, .L609+28
 4208 0248 2948     		ldr	r0, .L609+12
 4209 024a 40F2B243 		movw	r3, #1202
 4210 024e FFF7FEFF 		bl	chprintf.constprop.0
 4211              	.LVL519:
 4212              	.LBB252:
 4213              	.LBB253:
 4214              		.loc 3 416 0 is_stmt 1 discriminator 1
 4215 0252 2B48     		ldr	r0, .L609+28
 4216 0254 FFF7FEFF 		bl	chSysHalt
 4217              	.LVL520:
 4218 0258 0D9B     		ldr	r3, [sp, #52]
 4219              	.LVL521:
 4220              	.L531:
 4221              	.LBE253:
 4222              	.LBE252:
 4223              		.loc 1 1203 0
 4224 025a 224A     		ldr	r2, .L609
 4225 025c 1360     		str	r3, [r2]
 4226 025e 9AE7     		b	.L532
 4227              	.LVL522:
 4228              	.L509:
 4229              		.loc 1 1167 0
 4230 0260 07AB     		add	r3, sp, #28
 4231 0262 8DE80806 		stmia	sp, {r3, r9, r10}
 4232 0266 3846     		mov	r0, r7
 4233              	.LVL523:
 4234 0268 2946     		mov	r1, r5
 4235 026a 3246     		mov	r2, r6
 4236 026c 5B46     		mov	r3, fp
 4237 026e FFF7FEFF 		bl	lwip_selscan
 4238              	.LVL524:
 4239              		.loc 1 1168 0
 4240 0272 90B1     		cbz	r0, .L538
 4241              		.loc 1 1091 0
 4242 0274 0023     		movs	r3, #0
 4243              		.loc 1 1168 0
 4244 0276 8046     		mov	r8, r0
 4245              		.loc 1 1091 0
 4246 0278 0493     		str	r3, [sp, #16]
 4247 027a 7FE7     		b	.L520
 4248              	.LVL525:
 4249              	.L606:
 4250              		.loc 1 1205 0 discriminator 1
 4251 027c 1B4B     		ldr	r3, .L609+8
ARM GAS  C:\Users\jo\AppData\Local\Temp\cc6wN9Ut.s 			page 76


 4252 027e 214A     		ldr	r2, .L609+32
 4253 0280 0093     		str	r3, [sp]
 4254 0282 1C49     		ldr	r1, .L609+16
 4255 0284 1A48     		ldr	r0, .L609+12
 4256 0286 40F2B543 		movw	r3, #1205
 4257 028a FFF7FEFF 		bl	chprintf.constprop.0
 4258              	.LVL526:
 4259              	.LBB254:
 4260              	.LBB255:
 4261              		.loc 3 416 0 discriminator 1
 4262 028e 1D48     		ldr	r0, .L609+32
 4263 0290 FFF7FEFF 		bl	chSysHalt
 4264              	.LVL527:
 4265 0294 0E9A     		ldr	r2, [sp, #56]
 4266 0296 0D9B     		ldr	r3, [sp, #52]
 4267 0298 7CE7     		b	.L533
 4268              	.LVL528:
 4269              	.L538:
 4270              	.LBE255:
 4271              	.LBE254:
 4272              		.loc 1 1170 0
 4273 029a 1E9B     		ldr	r3, [sp, #120]
 4274 029c 002B     		cmp	r3, #0
 4275 029e B3D1     		bne	.L540
 4276              	.LVL529:
 4277              		.loc 1 1181 0
 4278 02a0 13A8     		add	r0, sp, #76
 4279              	.LVL530:
 4280 02a2 1E99     		ldr	r1, [sp, #120]
 4281 02a4 FFF7FEFF 		bl	sys_arch_sem_wait
 4282              	.LVL531:
 4283 02a8 DDF87880 		ldr	r8, [sp, #120]
 4284 02ac 0490     		str	r0, [sp, #16]
 4285              	.LVL532:
 4286 02ae 65E7     		b	.L520
 4287              	.LVL533:
 4288              	.L542:
 4289              		.loc 1 1133 0
 4290 02b0 4FF0FF38 		mov	r8, #-1
 4291              	.LVL534:
 4292 02b4 96E7     		b	.L597
 4293              	.LVL535:
 4294              	.L607:
 4295              	.LBB256:
 4296              	.LBB248:
 4297              	.LBB247:
 4298              		.loc 1 228 0
 4299 02b6 2B68     		ldr	r3, [r5]
 4300 02b8 002B     		cmp	r3, #0
 4301 02ba 99D0     		beq	.L527
 4302              	.LBE247:
 4303              	.LBE248:
 4304              		.loc 1 1191 0
 4305 02bc 6B69     		ldr	r3, [r5, #20]
 4306 02be 013B     		subs	r3, r3, #1
 4307              		.loc 1 1192 0
 4308 02c0 002B     		cmp	r3, #0
ARM GAS  C:\Users\jo\AppData\Local\Temp\cc6wN9Ut.s 			page 77


 4309              		.loc 1 1191 0
 4310 02c2 6B61     		str	r3, [r5, #20]
 4311              		.loc 1 1192 0
 4312 02c4 BFF650AF 		bge	.L525
 4313              		.loc 1 1192 0 is_stmt 0 discriminator 1
 4314 02c8 084B     		ldr	r3, .L609+8
 4315 02ca 0093     		str	r3, [sp]
 4316 02cc 0949     		ldr	r1, .L609+16
 4317 02ce 0E4A     		ldr	r2, .L609+36
 4318 02d0 0748     		ldr	r0, .L609+12
 4319 02d2 4FF49563 		mov	r3, #1192
 4320 02d6 FFF7FEFF 		bl	chprintf.constprop.0
 4321              	.LVL536:
 4322              	.LBB249:
 4323              	.LBB250:
 4324              		.loc 3 416 0 is_stmt 1 discriminator 1
 4325 02da 0B48     		ldr	r0, .L609+36
 4326 02dc FFF7FEFF 		bl	chSysHalt
 4327              	.LVL537:
 4328 02e0 42E7     		b	.L525
 4329              	.L610:
 4330 02e2 00BF     		.align	2
 4331              	.L609:
 4332 02e4 00000000 		.word	.LANCHOR2
 4333 02e8 00000000 		.word	.LANCHOR3
 4334 02ec 34000000 		.word	.LC2
 4335 02f0 00000000 		.word	itm_port
 4336 02f4 00000000 		.word	.LC0
 4337 02f8 10020000 		.word	.LC20
 4338 02fc D34D6210 		.word	274877907
 4339 0300 E0010000 		.word	.LC18
 4340 0304 F8010000 		.word	.LC19
 4341 0308 C4010000 		.word	.LC17
 4342 030c 00000000 		.word	.LANCHOR0
 4343              	.LVL538:
 4344              	.L604:
 4345              	.LBE250:
 4346              	.LBE249:
 4347              	.LBE256:
 4348              	.LBB257:
 4349              	.LBB239:
 4350              	.LBB238:
 4351              		.loc 1 228 0
 4352 0310 2B68     		ldr	r3, [r5]
 4353 0312 002B     		cmp	r3, #0
 4354 0314 3FF4C7AE 		beq	.L516
 4355              	.LBE238:
 4356              	.LBE239:
 4357              		.loc 1 1159 0
 4358 0318 6B69     		ldr	r3, [r5, #20]
 4359 031a 0133     		adds	r3, r3, #1
 4360              		.loc 1 1160 0
 4361 031c 002B     		cmp	r3, #0
 4362              		.loc 1 1159 0
 4363 031e 6B61     		str	r3, [r5, #20]
 4364              		.loc 1 1160 0
 4365 0320 3FF7E4AE 		bgt	.L514
ARM GAS  C:\Users\jo\AppData\Local\Temp\cc6wN9Ut.s 			page 78


 4366              		.loc 1 1160 0 is_stmt 0 discriminator 1
 4367 0324 0A4B     		ldr	r3, .L611
 4368 0326 0093     		str	r3, [sp]
 4369 0328 0A49     		ldr	r1, .L611+4
 4370 032a 0B4A     		ldr	r2, .L611+8
 4371 032c 0B48     		ldr	r0, .L611+12
 4372 032e 4FF49163 		mov	r3, #1160
 4373 0332 FFF7FEFF 		bl	chprintf.constprop.0
 4374              	.LVL539:
 4375              	.LBB240:
 4376              	.LBB241:
 4377              		.loc 3 416 0 is_stmt 1 discriminator 1
 4378 0336 0848     		ldr	r0, .L611+8
 4379 0338 FFF7FEFF 		bl	chSysHalt
 4380              	.LVL540:
 4381 033c D6E6     		b	.L514
 4382              	.LVL541:
 4383              	.L608:
 4384              	.LBE241:
 4385              	.LBE240:
 4386              	.LBE257:
 4387              		.loc 1 1181 0
 4388 033e 13A8     		add	r0, sp, #76
 4389              	.LVL542:
 4390 0340 1E99     		ldr	r1, [sp, #120]
 4391 0342 FFF7FEFF 		bl	sys_arch_sem_wait
 4392              	.LVL543:
 4393 0346 DDF87880 		ldr	r8, [sp, #120]
 4394 034a 0490     		str	r0, [sp, #16]
 4395              	.LVL544:
 4396 034c E6E6     		b	.L537
 4397              	.L612:
 4398 034e 00BF     		.align	2
 4399              	.L611:
 4400 0350 34000000 		.word	.LC2
 4401 0354 00000000 		.word	.LC0
 4402 0358 A8010000 		.word	.LC16
 4403 035c 00000000 		.word	itm_port
 4404              		.cfi_endproc
 4405              	.LFE278:
 4406              		.size	lwip_select, .-lwip_select
 4407              		.section	.text.lwip_shutdown,"ax",%progbits
 4408              		.align	2
 4409              		.p2align 4,,15
 4410              		.global	lwip_shutdown
 4411              		.thumb
 4412              		.thumb_func
 4413              		.type	lwip_shutdown, %function
 4414              	lwip_shutdown:
 4415              	.LFB280:
 4416              		.loc 1 1376 0
 4417              		.cfi_startproc
 4418              		@ args = 0, pretend = 0, frame = 0
 4419              		@ frame_needed = 0, uses_anonymous_args = 0
 4420              	.LVL545:
 4421              	.LBB258:
 4422              	.LBB259:
ARM GAS  C:\Users\jo\AppData\Local\Temp\cc6wN9Ut.s 			page 79


 4423              		.loc 1 199 0
 4424 0000 0128     		cmp	r0, #1
 4425 0002 02D9     		bls	.L625
 4426              	.LBE259:
 4427              	.LBE258:
 4428              		.loc 1 1385 0
 4429 0004 4FF0FF30 		mov	r0, #-1
 4430              	.LVL546:
 4431              		.loc 1 1413 0
 4432 0008 7047     		bx	lr
 4433              	.LVL547:
 4434              	.L625:
 4435              		.loc 1 1376 0
 4436 000a F8B5     		push	{r3, r4, r5, r6, r7, lr}
 4437              		.cfi_def_cfa_offset 24
 4438              		.cfi_offset 3, -24
 4439              		.cfi_offset 4, -20
 4440              		.cfi_offset 5, -16
 4441              		.cfi_offset 6, -12
 4442              		.cfi_offset 7, -8
 4443              		.cfi_offset 14, -4
 4444              	.LBB261:
 4445              	.LBB260:
 4446              		.loc 1 207 0
 4447 000c 4700     		lsls	r7, r0, #1
 4448 000e 3B18     		adds	r3, r7, r0
 4449 0010 DB00     		lsls	r3, r3, #3
 4450 0012 1B4E     		ldr	r6, .L626
 4451 0014 56F803E0 		ldr	lr, [r6, r3]
 4452 0018 BEF1000F 		cmp	lr, #0
 4453 001c 10D0     		beq	.L619
 4454              	.LBE260:
 4455              	.LBE261:
 4456              		.loc 1 1389 0
 4457 001e 9EF80050 		ldrb	r5, [lr]	@ zero_extendqisi2
 4458 0022 102D     		cmp	r5, #16
 4459 0024 03D0     		beq	.L615
 4460              		.loc 1 1390 0
 4461 0026 3344     		add	r3, r3, r6
 4462 0028 5F20     		movs	r0, #95
 4463              	.LVL548:
 4464 002a 1861     		str	r0, [r3, #16]
 4465              		.loc 1 1391 0
 4466 002c F8BD     		pop	{r3, r4, r5, r6, r7, pc}
 4467              	.LVL549:
 4468              	.L615:
 4469              		.loc 1 1398 0
 4470 002e 51B1     		cbz	r1, .L620
 4471              		.loc 1 1400 0
 4472 0030 0129     		cmp	r1, #1
 4473 0032 1FD0     		beq	.L621
 4474              		.loc 1 1402 0
 4475 0034 0229     		cmp	r1, #2
 4476 0036 20D0     		beq	.L622
 4477              		.loc 1 1406 0
 4478 0038 3344     		add	r3, r3, r6
 4479 003a 1620     		movs	r0, #22
ARM GAS  C:\Users\jo\AppData\Local\Temp\cc6wN9Ut.s 			page 80


 4480              	.LVL550:
 4481 003c 1861     		str	r0, [r3, #16]
 4482              		.loc 1 1407 0
 4483 003e F8BD     		pop	{r3, r4, r5, r6, r7, pc}
 4484              	.LVL551:
 4485              	.L619:
 4486              		.loc 1 1385 0
 4487 0040 4FF0FF30 		mov	r0, #-1
 4488              	.LVL552:
 4489              		.loc 1 1413 0
 4490 0044 F8BD     		pop	{r3, r4, r5, r6, r7, pc}
 4491              	.LVL553:
 4492              	.L620:
 4493              		.loc 1 1379 0
 4494 0046 0A46     		mov	r2, r1
 4495              		.loc 1 1399 0
 4496 0048 0121     		movs	r1, #1
 4497              	.LVL554:
 4498              	.L616:
 4499 004a 0446     		mov	r4, r0
 4500              	.LVL555:
 4501              		.loc 1 1409 0
 4502 004c 7046     		mov	r0, lr
 4503              	.LVL556:
 4504 004e FFF7FEFF 		bl	netconn_shutdown
 4505              	.LVL557:
 4506              		.loc 1 1411 0
 4507 0052 4342     		negs	r3, r0
 4508 0054 0F2B     		cmp	r3, #15
 4509 0056 98BF     		it	ls
 4510 0058 0A4A     		ldrls	r2, .L626+4
 4511 005a 3C44     		add	r4, r4, r7
 4512              	.LVL558:
 4513 005c 94BF     		ite	ls
 4514 005e 52F82320 		ldrls	r2, [r2, r3, lsl #2]
 4515 0062 0522     		movhi	r2, #5
 4516 0064 06EBC403 		add	r3, r6, r4, lsl #3
 4517              		.loc 1 1412 0
 4518 0068 0030     		adds	r0, r0, #0
 4519              	.LVL559:
 4520 006a 18BF     		it	ne
 4521 006c 0120     		movne	r0, #1
 4522              		.loc 1 1411 0
 4523 006e 1A61     		str	r2, [r3, #16]
 4524              		.loc 1 1412 0
 4525 0070 4042     		negs	r0, r0
 4526 0072 F8BD     		pop	{r3, r4, r5, r6, r7, pc}
 4527              	.LVL560:
 4528              	.L621:
 4529              		.loc 1 1401 0
 4530 0074 0A46     		mov	r2, r1
 4531              		.loc 1 1379 0
 4532 0076 0021     		movs	r1, #0
 4533              	.LVL561:
 4534 0078 E7E7     		b	.L616
 4535              	.LVL562:
 4536              	.L622:
ARM GAS  C:\Users\jo\AppData\Local\Temp\cc6wN9Ut.s 			page 81


 4537              		.loc 1 1404 0
 4538 007a 0122     		movs	r2, #1
 4539              		.loc 1 1403 0
 4540 007c 1146     		mov	r1, r2
 4541              	.LVL563:
 4542 007e E4E7     		b	.L616
 4543              	.L627:
 4544              		.align	2
 4545              	.L626:
 4546 0080 00000000 		.word	.LANCHOR0
 4547 0084 00000000 		.word	.LANCHOR1
 4548              		.cfi_endproc
 4549              	.LFE280:
 4550              		.size	lwip_shutdown, .-lwip_shutdown
 4551 0088 AFF30080 		.section	.text.lwip_getpeername,"ax",%progbits
 4551      AFF30080 
 4552              		.align	2
 4553              		.p2align 4,,15
 4554              		.global	lwip_getpeername
 4555              		.thumb
 4556              		.thumb_func
 4557              		.type	lwip_getpeername, %function
 4558              	lwip_getpeername:
 4559              	.LFB282:
 4560              		.loc 1 1452 0
 4561              		.cfi_startproc
 4562              		@ args = 0, pretend = 0, frame = 0
 4563              		@ frame_needed = 0, uses_anonymous_args = 0
 4564              		@ link register save eliminated.
 4565              	.LVL564:
 4566              		.loc 1 1453 0
 4567 0000 0023     		movs	r3, #0
 4568 0002 FFF7FEBF 		b	lwip_getaddrname
 4569              	.LVL565:
 4570              		.cfi_endproc
 4571              	.LFE282:
 4572              		.size	lwip_getpeername, .-lwip_getpeername
 4573 0006 00BFAFF3 		.section	.text.lwip_getsockname,"ax",%progbits
 4573      0080AFF3 
 4573      0080
 4574              		.align	2
 4575              		.p2align 4,,15
 4576              		.global	lwip_getsockname
 4577              		.thumb
 4578              		.thumb_func
 4579              		.type	lwip_getsockname, %function
 4580              	lwip_getsockname:
 4581              	.LFB283:
 4582              		.loc 1 1458 0
 4583              		.cfi_startproc
 4584              		@ args = 0, pretend = 0, frame = 0
 4585              		@ frame_needed = 0, uses_anonymous_args = 0
 4586              		@ link register save eliminated.
 4587              	.LVL566:
 4588              		.loc 1 1459 0
 4589 0000 0123     		movs	r3, #1
 4590 0002 FFF7FEBF 		b	lwip_getaddrname
ARM GAS  C:\Users\jo\AppData\Local\Temp\cc6wN9Ut.s 			page 82


 4591              	.LVL567:
 4592              		.cfi_endproc
 4593              	.LFE283:
 4594              		.size	lwip_getsockname, .-lwip_getsockname
 4595 0006 00BFAFF3 		.section	.text.lwip_getsockopt,"ax",%progbits
 4595      0080AFF3 
 4595      0080
 4596              		.align	2
 4597              		.p2align 4,,15
 4598              		.global	lwip_getsockopt
 4599              		.thumb
 4600              		.thumb_func
 4601              		.type	lwip_getsockopt, %function
 4602              	lwip_getsockopt:
 4603              	.LFB284:
 4604              		.loc 1 1464 0
 4605              		.cfi_startproc
 4606              		@ args = 4, pretend = 0, frame = 32
 4607              		@ frame_needed = 0, uses_anonymous_args = 0
 4608              	.LVL568:
 4609 0000 2DE9F043 		push	{r4, r5, r6, r7, r8, r9, lr}
 4610              		.cfi_def_cfa_offset 28
 4611              		.cfi_offset 4, -28
 4612              		.cfi_offset 5, -24
 4613              		.cfi_offset 6, -20
 4614              		.cfi_offset 7, -16
 4615              		.cfi_offset 8, -12
 4616              		.cfi_offset 9, -8
 4617              		.cfi_offset 14, -4
 4618 0004 89B0     		sub	sp, sp, #36
 4619              		.cfi_def_cfa_offset 64
 4620              	.LBB262:
 4621              	.LBB263:
 4622              		.loc 1 199 0
 4623 0006 0128     		cmp	r0, #1
 4624              	.LBE263:
 4625              	.LBE262:
 4626              		.loc 1 1464 0
 4627 0008 109D     		ldr	r5, [sp, #64]
 4628              	.LBB266:
 4629              	.LBB264:
 4630              		.loc 1 199 0
 4631 000a 04D9     		bls	.L685
 4632              	.L649:
 4633              	.LBE264:
 4634              	.LBE266:
 4635              		.loc 1 1470 0
 4636 000c 4FF0FF30 		mov	r0, #-1
 4637              	.LVL569:
 4638              	.L677:
 4639              		.loc 1 1660 0
 4640 0010 09B0     		add	sp, sp, #36
 4641              		.cfi_remember_state
 4642              		.cfi_def_cfa_offset 28
 4643              		@ sp needed
 4644 0012 BDE8F083 		pop	{r4, r5, r6, r7, r8, r9, pc}
 4645              	.LVL570:
ARM GAS  C:\Users\jo\AppData\Local\Temp\cc6wN9Ut.s 			page 83


 4646              	.L685:
 4647              		.cfi_restore_state
 4648              	.LBB267:
 4649              	.LBB265:
 4650              		.loc 1 205 0
 4651 0016 4700     		lsls	r7, r0, #1
 4652 0018 07EB000E 		add	lr, r7, r0
 4653 001c 4FEACE0E 		lsl	lr, lr, #3
 4654 0020 444E     		ldr	r6, .L690
 4655              		.loc 1 207 0
 4656 0022 56F80EC0 		ldr	ip, [r6, lr]
 4657              		.loc 1 205 0
 4658 0026 B644     		add	lr, lr, r6
 4659              	.LVL571:
 4660              		.loc 1 207 0
 4661 0028 BCF1000F 		cmp	ip, #0
 4662 002c EED0     		beq	.L649
 4663              	.LBE265:
 4664              	.LBE267:
 4665              		.loc 1 1473 0
 4666 002e 002B     		cmp	r3, #0
 4667 0030 77D0     		beq	.L645
 4668              		.loc 1 1473 0 is_stmt 0 discriminator 1
 4669 0032 002D     		cmp	r5, #0
 4670 0034 75D0     		beq	.L645
 4671              		.loc 1 1479 0 is_stmt 1
 4672 0036 0629     		cmp	r1, #6
 4673 0038 0CD0     		beq	.L635
 4674 003a 40F6FF74 		movw	r4, #4095
 4675 003e A142     		cmp	r1, r4
 4676 0040 44D0     		beq	.L636
 4677 0042 81B1     		cbz	r1, .L686
 4678              	.L660:
 4679              		.loc 1 1588 0
 4680 0044 5C23     		movs	r3, #92
 4681              	.LVL572:
 4682              	.L647:
 4683              		.loc 1 1639 0
 4684 0046 3844     		add	r0, r0, r7
 4685              	.LVL573:
 4686 0048 06EBC004 		add	r4, r6, r0, lsl #3
 4687              		.loc 1 1640 0
 4688 004c 4FF0FF30 		mov	r0, #-1
 4689              		.loc 1 1639 0
 4690 0050 2361     		str	r3, [r4, #16]
 4691              		.loc 1 1640 0
 4692 0052 DDE7     		b	.L677
 4693              	.LVL574:
 4694              	.L635:
 4695              		.loc 1 1579 0
 4696 0054 2C68     		ldr	r4, [r5]
 4697 0056 032C     		cmp	r4, #3
 4698 0058 0BD9     		bls	.L658
 4699              		.loc 1 1585 0
 4700 005a 9CF80040 		ldrb	r4, [ip]	@ zero_extendqisi2
 4701 005e 102C     		cmp	r4, #16
 4702 0060 09D0     		beq	.L687
ARM GAS  C:\Users\jo\AppData\Local\Temp\cc6wN9Ut.s 			page 84


 4703              		.loc 1 1586 0
 4704 0062 0020     		movs	r0, #0
 4705              	.LVL575:
 4706 0064 D4E7     		b	.L677
 4707              	.LVL576:
 4708              	.L686:
 4709              		.loc 1 1538 0
 4710 0066 541E     		subs	r4, r2, #1
 4711 0068 012C     		cmp	r4, #1
 4712 006a EBD8     		bhi	.L660
 4713              	.L682:
 4714              		.loc 1 1544 0
 4715 006c 2C68     		ldr	r4, [r5]
 4716 006e 032C     		cmp	r4, #3
 4717 0070 04D8     		bhi	.L641
 4718              	.L658:
 4719 0072 1623     		movs	r3, #22
 4720              	.LVL577:
 4721 0074 E7E7     		b	.L647
 4722              	.LVL578:
 4723              	.L687:
 4724              		.loc 1 1588 0
 4725 0076 541E     		subs	r4, r2, #1
 4726 0078 012C     		cmp	r4, #1
 4727 007a E3D8     		bhi	.L660
 4728              	.LVL579:
 4729              	.L641:
 4730 007c 9446     		mov	ip, r2
 4731 007e 0446     		mov	r4, r0
 4732              		.loc 1 1652 0
 4733 0080 4FF00008 		mov	r8, #0
 4734 0084 8946     		mov	r9, r1
 4735              		.loc 1 1653 0
 4736 0086 0122     		movs	r2, #1
 4737              	.LVL580:
 4738 0088 01A9     		add	r1, sp, #4
 4739              	.LVL581:
 4740 008a 2B48     		ldr	r0, .L690+4
 4741              	.LVL582:
 4742              		.loc 1 1650 0
 4743 008c 0593     		str	r3, [sp, #20]
 4744              		.loc 1 1644 0
 4745 008e CDF804E0 		str	lr, [sp, #4]
 4746              		.loc 1 1646 0
 4747 0092 0294     		str	r4, [sp, #8]
 4748              		.loc 1 1649 0
 4749 0094 CDF810C0 		str	ip, [sp, #16]
 4750              		.loc 1 1648 0
 4751 0098 CDF80C90 		str	r9, [sp, #12]
 4752              		.loc 1 1651 0
 4753 009c 0695     		str	r5, [sp, #24]
 4754              		.loc 1 1652 0
 4755 009e 8DF81C80 		strb	r8, [sp, #28]
 4756              		.loc 1 1653 0
 4757 00a2 FFF7FEFF 		bl	tcpip_callback_with_block
 4758              	.LVL583:
 4759              		.loc 1 1654 0
ARM GAS  C:\Users\jo\AppData\Local\Temp\cc6wN9Ut.s 			page 85


 4760 00a6 3819     		adds	r0, r7, r4
 4761 00a8 C400     		lsls	r4, r0, #3
 4762              	.LVL584:
 4763 00aa 4146     		mov	r1, r8
 4764 00ac 3059     		ldr	r0, [r6, r4]
 4765 00ae 0C30     		adds	r0, r0, #12
 4766 00b0 FFF7FEFF 		bl	sys_arch_sem_wait
 4767              	.LVL585:
 4768              		.loc 1 1658 0
 4769 00b4 9DF91C30 		ldrsb	r3, [sp, #28]
 4770              		.loc 1 1659 0
 4771 00b8 B3EB0800 		subs	r0, r3, r8
 4772              		.loc 1 1658 0
 4773 00bc 3444     		add	r4, r4, r6
 4774              		.loc 1 1659 0
 4775 00be 18BF     		it	ne
 4776 00c0 0120     		movne	r0, #1
 4777 00c2 4042     		negs	r0, r0
 4778              		.loc 1 1658 0
 4779 00c4 2361     		str	r3, [r4, #16]
 4780              		.loc 1 1660 0
 4781 00c6 09B0     		add	sp, sp, #36
 4782              		.cfi_remember_state
 4783              		.cfi_def_cfa_offset 28
 4784              		@ sp needed
 4785 00c8 BDE8F083 		pop	{r4, r5, r6, r7, r8, r9, pc}
 4786              	.LVL586:
 4787              	.L636:
 4788              		.cfi_restore_state
 4789              		.loc 1 1483 0
 4790 00cc 202A     		cmp	r2, #32
 4791 00ce CDD0     		beq	.L682
 4792 00d0 17DD     		ble	.L688
 4793 00d2 41F20704 		movw	r4, #4103
 4794 00d6 A242     		cmp	r2, r4
 4795 00d8 B4DB     		blt	.L660
 4796 00da 41F20804 		movw	r4, #4104
 4797 00de A242     		cmp	r2, r4
 4798 00e0 C4DD     		ble	.L682
 4799 00e2 41F20A04 		movw	r4, #4106
 4800 00e6 A242     		cmp	r2, r4
 4801 00e8 ACD1     		bne	.L660
 4802              		.loc 1 1517 0
 4803 00ea 2C68     		ldr	r4, [r5]
 4804              		.loc 1 1521 0
 4805 00ec 9CF80080 		ldrb	r8, [ip]	@ zero_extendqisi2
 4806              		.loc 1 1518 0
 4807 00f0 032C     		cmp	r4, #3
 4808 00f2 8CBF     		ite	hi
 4809 00f4 0024     		movhi	r4, #0
 4810 00f6 1624     		movls	r4, #22
 4811              	.LVL587:
 4812              		.loc 1 1521 0
 4813 00f8 B8F1200F 		cmp	r8, #32
 4814 00fc 06D0     		beq	.L689
 4815              	.L655:
 4816 00fe 6123     		movs	r3, #97
ARM GAS  C:\Users\jo\AppData\Local\Temp\cc6wN9Ut.s 			page 86


 4817              	.LVL588:
 4818 0100 A1E7     		b	.L647
 4819              	.LVL589:
 4820              	.L688:
 4821              		.loc 1 1483 0
 4822 0102 022A     		cmp	r2, #2
 4823 0104 B2D0     		beq	.L682
 4824 0106 082A     		cmp	r2, #8
 4825 0108 9CD1     		bne	.L660
 4826 010a AFE7     		b	.L682
 4827              	.LVL590:
 4828              	.L689:
 4829              		.loc 1 1522 0 discriminator 1
 4830 010c DCF804C0 		ldr	ip, [ip, #4]
 4831 0110 9CF810C0 		ldrb	ip, [ip, #16]	@ zero_extendqisi2
 4832              		.loc 1 1521 0 discriminator 1
 4833 0114 1CF0020F 		tst	ip, #2
 4834 0118 F1D1     		bne	.L655
 4835              		.loc 1 1638 0
 4836 011a 002C     		cmp	r4, #0
 4837 011c AED0     		beq	.L641
 4838 011e 63B2     		sxtb	r3, r4
 4839              	.LVL591:
 4840 0120 91E7     		b	.L647
 4841              	.LVL592:
 4842              	.L645:
 4843              		.loc 1 1474 0
 4844 0122 3844     		add	r0, r0, r7
 4845              	.LVL593:
 4846 0124 06EBC004 		add	r4, r6, r0, lsl #3
 4847 0128 0E23     		movs	r3, #14
 4848              	.LVL594:
 4849 012a 2361     		str	r3, [r4, #16]
 4850              		.loc 1 1475 0
 4851 012c 4FF0FF30 		mov	r0, #-1
 4852 0130 6EE7     		b	.L677
 4853              	.L691:
 4854 0132 00BF     		.align	2
 4855              	.L690:
 4856 0134 00000000 		.word	.LANCHOR0
 4857 0138 00000000 		.word	lwip_getsockopt_internal
 4858              		.cfi_endproc
 4859              	.LFE284:
 4860              		.size	lwip_getsockopt, .-lwip_getsockopt
 4861 013c AFF30080 		.section	.text.lwip_setsockopt,"ax",%progbits
 4862              		.align	2
 4863              		.p2align 4,,15
 4864              		.global	lwip_setsockopt
 4865              		.thumb
 4866              		.thumb_func
 4867              		.type	lwip_setsockopt, %function
 4868              	lwip_setsockopt:
 4869              	.LFB286:
 4870              		.loc 1 1872 0
 4871              		.cfi_startproc
 4872              		@ args = 4, pretend = 0, frame = 32
 4873              		@ frame_needed = 0, uses_anonymous_args = 0
ARM GAS  C:\Users\jo\AppData\Local\Temp\cc6wN9Ut.s 			page 87


 4874              	.LVL595:
 4875              	.LBB268:
 4876              	.LBB269:
 4877              		.loc 1 199 0
 4878 0000 0128     		cmp	r0, #1
 4879 0002 02D9     		bls	.L742
 4880              	.LBE269:
 4881              	.LBE268:
 4882              		.loc 1 1878 0
 4883 0004 4FF0FF30 		mov	r0, #-1
 4884              	.LVL596:
 4885              		.loc 1 2077 0
 4886 0008 7047     		bx	lr
 4887              	.LVL597:
 4888              	.L742:
 4889              		.loc 1 1872 0
 4890 000a 2DE9F041 		push	{r4, r5, r6, r7, r8, lr}
 4891              		.cfi_def_cfa_offset 24
 4892              		.cfi_offset 4, -24
 4893              		.cfi_offset 5, -20
 4894              		.cfi_offset 6, -16
 4895              		.cfi_offset 7, -12
 4896              		.cfi_offset 8, -8
 4897              		.cfi_offset 14, -4
 4898              	.LBB272:
 4899              	.LBB270:
 4900              		.loc 1 205 0
 4901 000e 4700     		lsls	r7, r0, #1
 4902 0010 07EB000C 		add	ip, r7, r0
 4903 0014 4FEACC0C 		lsl	ip, ip, #3
 4904 0018 3C4D     		ldr	r5, .L748
 4905              		.loc 1 207 0
 4906 001a 55F80C60 		ldr	r6, [r5, ip]
 4907              	.LBE270:
 4908              	.LBE272:
 4909              		.loc 1 1872 0
 4910 001e 88B0     		sub	sp, sp, #32
 4911              		.cfi_def_cfa_offset 56
 4912              	.LBB273:
 4913              	.LBB271:
 4914              		.loc 1 205 0
 4915 0020 AC44     		add	ip, ip, r5
 4916              	.LVL598:
 4917              		.loc 1 207 0
 4918 0022 002E     		cmp	r6, #0
 4919 0024 61D0     		beq	.L743
 4920              	.LVL599:
 4921              	.LBE271:
 4922              	.LBE273:
 4923              		.loc 1 1881 0
 4924 0026 002B     		cmp	r3, #0
 4925 0028 6AD0     		beq	.L744
 4926              		.loc 1 1887 0
 4927 002a 0629     		cmp	r1, #6
 4928 002c 49D0     		beq	.L696
 4929 002e 40F6FF74 		movw	r4, #4095
 4930 0032 A142     		cmp	r1, r4
ARM GAS  C:\Users\jo\AppData\Local\Temp\cc6wN9Ut.s 			page 88


 4931 0034 3CD0     		beq	.L697
 4932 0036 49B1     		cbz	r1, .L745
 4933              	.L720:
 4934              		.loc 1 2005 0
 4935 0038 5C23     		movs	r3, #92
 4936              	.LVL600:
 4937              	.L707:
 4938              		.loc 1 2055 0
 4939 003a 3844     		add	r0, r0, r7
 4940              	.LVL601:
 4941 003c 05EBC004 		add	r4, r5, r0, lsl #3
 4942              		.loc 1 2056 0
 4943 0040 4FF0FF30 		mov	r0, #-1
 4944              		.loc 1 2055 0
 4945 0044 2361     		str	r3, [r4, #16]
 4946              	.L731:
 4947              		.loc 1 2077 0
 4948 0046 08B0     		add	sp, sp, #32
 4949              		.cfi_remember_state
 4950              		.cfi_def_cfa_offset 24
 4951              		@ sp needed
 4952 0048 BDE8F081 		pop	{r4, r5, r6, r7, r8, pc}
 4953              	.LVL602:
 4954              	.L745:
 4955              		.cfi_restore_state
 4956              		.loc 1 1941 0
 4957 004c 541E     		subs	r4, r2, #1
 4958 004e 012C     		cmp	r4, #1
 4959 0050 F2D8     		bhi	.L720
 4960              	.L737:
 4961              		.loc 1 1947 0
 4962 0052 0E9C     		ldr	r4, [sp, #56]
 4963 0054 032C     		cmp	r4, #3
 4964 0056 04D8     		bhi	.L701
 4965              	.L718:
 4966 0058 1623     		movs	r3, #22
 4967              	.LVL603:
 4968 005a EEE7     		b	.L707
 4969              	.LVL604:
 4970              	.L746:
 4971              		.loc 1 2005 0
 4972 005c 541E     		subs	r4, r2, #1
 4973 005e 012C     		cmp	r4, #1
 4974 0060 EAD8     		bhi	.L720
 4975              	.LVL605:
 4976              	.L701:
 4977 0062 9646     		mov	lr, r2
 4978 0064 0446     		mov	r4, r0
 4979              		.loc 1 2069 0
 4980 0066 0026     		movs	r6, #0
 4981 0068 8846     		mov	r8, r1
 4982              		.loc 1 2070 0
 4983 006a 0122     		movs	r2, #1
 4984              	.LVL606:
 4985 006c 01A9     		add	r1, sp, #4
 4986              	.LVL607:
 4987              		.loc 1 2067 0
ARM GAS  C:\Users\jo\AppData\Local\Temp\cc6wN9Ut.s 			page 89


 4988 006e 0593     		str	r3, [sp, #20]
 4989              		.loc 1 2070 0
 4990 0070 2748     		ldr	r0, .L748+4
 4991              	.LVL608:
 4992              		.loc 1 2061 0
 4993 0072 CDF804C0 		str	ip, [sp, #4]
 4994              		.loc 1 2068 0
 4995 0076 0EAB     		add	r3, sp, #56
 4996              	.LVL609:
 4997 0078 0693     		str	r3, [sp, #24]
 4998              		.loc 1 2063 0
 4999 007a 0294     		str	r4, [sp, #8]
 5000              		.loc 1 2066 0
 5001 007c CDF810E0 		str	lr, [sp, #16]
 5002              		.loc 1 2065 0
 5003 0080 CDF80C80 		str	r8, [sp, #12]
 5004              		.loc 1 2069 0
 5005 0084 8DF81C60 		strb	r6, [sp, #28]
 5006              		.loc 1 2070 0
 5007 0088 FFF7FEFF 		bl	tcpip_callback_with_block
 5008              	.LVL610:
 5009              		.loc 1 2071 0
 5010 008c 3819     		adds	r0, r7, r4
 5011 008e C400     		lsls	r4, r0, #3
 5012              	.LVL611:
 5013 0090 3146     		mov	r1, r6
 5014 0092 2859     		ldr	r0, [r5, r4]
 5015 0094 0C30     		adds	r0, r0, #12
 5016 0096 FFF7FEFF 		bl	sys_arch_sem_wait
 5017              	.LVL612:
 5018              		.loc 1 2075 0
 5019 009a 9DF91C30 		ldrsb	r3, [sp, #28]
 5020              		.loc 1 2076 0
 5021 009e 981B     		subs	r0, r3, r6
 5022              		.loc 1 2075 0
 5023 00a0 2C44     		add	r4, r4, r5
 5024              		.loc 1 2076 0
 5025 00a2 18BF     		it	ne
 5026 00a4 0120     		movne	r0, #1
 5027 00a6 4042     		negs	r0, r0
 5028              		.loc 1 2075 0
 5029 00a8 2361     		str	r3, [r4, #16]
 5030              		.loc 1 2077 0
 5031 00aa 08B0     		add	sp, sp, #32
 5032              		.cfi_remember_state
 5033              		.cfi_def_cfa_offset 24
 5034              		@ sp needed
 5035 00ac BDE8F081 		pop	{r4, r5, r6, r7, r8, pc}
 5036              	.LVL613:
 5037              	.L697:
 5038              		.cfi_restore_state
 5039              		.loc 1 1891 0
 5040 00b0 202A     		cmp	r2, #32
 5041 00b2 CED0     		beq	.L737
 5042 00b4 41F20A04 		movw	r4, #4106
 5043 00b8 A242     		cmp	r2, r4
 5044 00ba 0AD0     		beq	.L700
ARM GAS  C:\Users\jo\AppData\Local\Temp\cc6wN9Ut.s 			page 90


 5045 00bc 082A     		cmp	r2, #8
 5046 00be BBD1     		bne	.L720
 5047 00c0 C7E7     		b	.L737
 5048              	.L696:
 5049              		.loc 1 1996 0
 5050 00c2 0E9C     		ldr	r4, [sp, #56]
 5051 00c4 032C     		cmp	r4, #3
 5052 00c6 C7D9     		bls	.L718
 5053              		.loc 1 2002 0
 5054 00c8 3478     		ldrb	r4, [r6]	@ zero_extendqisi2
 5055 00ca 102C     		cmp	r4, #16
 5056 00cc C6D0     		beq	.L746
 5057              		.loc 1 2003 0
 5058 00ce 0020     		movs	r0, #0
 5059              	.LVL614:
 5060 00d0 B9E7     		b	.L731
 5061              	.LVL615:
 5062              	.L700:
 5063              		.loc 1 1921 0
 5064 00d2 0E9C     		ldr	r4, [sp, #56]
 5065              		.loc 1 1925 0
 5066 00d4 96F800E0 		ldrb	lr, [r6]	@ zero_extendqisi2
 5067              		.loc 1 1922 0
 5068 00d8 032C     		cmp	r4, #3
 5069 00da 8CBF     		ite	hi
 5070 00dc 0024     		movhi	r4, #0
 5071 00de 1624     		movls	r4, #22
 5072              	.LVL616:
 5073              		.loc 1 1925 0
 5074 00e0 BEF1200F 		cmp	lr, #32
 5075 00e4 04D0     		beq	.L747
 5076              	.L715:
 5077 00e6 6123     		movs	r3, #97
 5078              	.LVL617:
 5079 00e8 A7E7     		b	.L707
 5080              	.LVL618:
 5081              	.L743:
 5082              		.loc 1 1878 0
 5083 00ea 4FF0FF30 		mov	r0, #-1
 5084              	.LVL619:
 5085 00ee AAE7     		b	.L731
 5086              	.LVL620:
 5087              	.L747:
 5088              		.loc 1 1926 0 discriminator 1
 5089 00f0 7668     		ldr	r6, [r6, #4]
 5090 00f2 367C     		ldrb	r6, [r6, #16]	@ zero_extendqisi2
 5091              		.loc 1 1925 0 discriminator 1
 5092 00f4 B607     		lsls	r6, r6, #30
 5093 00f6 F6D4     		bmi	.L715
 5094              		.loc 1 2054 0
 5095 00f8 002C     		cmp	r4, #0
 5096 00fa B2D0     		beq	.L701
 5097 00fc 63B2     		sxtb	r3, r4
 5098              	.LVL621:
 5099 00fe 9CE7     		b	.L707
 5100              	.LVL622:
 5101              	.L744:
ARM GAS  C:\Users\jo\AppData\Local\Temp\cc6wN9Ut.s 			page 91


 5102              		.loc 1 1882 0
 5103 0100 0E23     		movs	r3, #14
 5104              	.LVL623:
 5105 0102 CCF81030 		str	r3, [ip, #16]
 5106              		.loc 1 1883 0
 5107 0106 4FF0FF30 		mov	r0, #-1
 5108              	.LVL624:
 5109 010a 9CE7     		b	.L731
 5110              	.L749:
 5111              		.align	2
 5112              	.L748:
 5113 010c 00000000 		.word	.LANCHOR0
 5114 0110 00000000 		.word	lwip_setsockopt_internal
 5115              		.cfi_endproc
 5116              	.LFE286:
 5117              		.size	lwip_setsockopt, .-lwip_setsockopt
 5118 0114 AFF30080 		.section	.text.lwip_ioctl,"ax",%progbits
 5118      AFF30080 
 5118      AFF30080 
 5119              		.align	2
 5120              		.p2align 4,,15
 5121              		.global	lwip_ioctl
 5122              		.thumb
 5123              		.thumb_func
 5124              		.type	lwip_ioctl, %function
 5125              	lwip_ioctl:
 5126              	.LFB288:
 5127              		.loc 1 2290 0
 5128              		.cfi_startproc
 5129              		@ args = 0, pretend = 0, frame = 0
 5130              		@ frame_needed = 0, uses_anonymous_args = 0
 5131              		@ link register save eliminated.
 5132              	.LVL625:
 5133              	.LBB274:
 5134              	.LBB275:
 5135              		.loc 1 199 0
 5136 0000 0128     		cmp	r0, #1
 5137 0002 02D9     		bls	.L769
 5138              	.LBE275:
 5139              	.LBE274:
 5140              		.loc 1 2299 0
 5141 0004 4FF0FF30 		mov	r0, #-1
 5142              	.LVL626:
 5143              		.loc 1 2348 0
 5144 0008 7047     		bx	lr
 5145              	.LVL627:
 5146              	.L769:
 5147              	.LBB278:
 5148              	.LBB276:
 5149              		.loc 1 207 0
 5150 000a 4300     		lsls	r3, r0, #1
 5151              	.LBE276:
 5152              	.LBE278:
 5153              		.loc 1 2290 0
 5154 000c F0B4     		push	{r4, r5, r6, r7}
 5155              		.cfi_def_cfa_offset 16
 5156              		.cfi_offset 4, -16
ARM GAS  C:\Users\jo\AppData\Local\Temp\cc6wN9Ut.s 			page 92


 5157              		.cfi_offset 5, -12
 5158              		.cfi_offset 6, -8
 5159              		.cfi_offset 7, -4
 5160              	.LBB279:
 5161              	.LBB277:
 5162              		.loc 1 207 0
 5163 000e 1E18     		adds	r6, r3, r0
 5164 0010 F600     		lsls	r6, r6, #3
 5165 0012 114C     		ldr	r4, .L772
 5166 0014 A559     		ldr	r5, [r4, r6]
 5167 0016 ADB1     		cbz	r5, .L770
 5168              	.LBE277:
 5169              	.LBE279:
 5170              		.loc 1 2302 0
 5171 0018 104F     		ldr	r7, .L772+4
 5172 001a B942     		cmp	r1, r7
 5173 001c 15D1     		bne	.L771
 5174              	.LVL628:
 5175              		.loc 1 2335 0
 5176 001e 62B1     		cbz	r2, .L754
 5177              		.loc 1 2335 0 is_stmt 0 discriminator 1
 5178 0020 1268     		ldr	r2, [r2]
 5179              	.LVL629:
 5180 0022 52B1     		cbz	r2, .L754
 5181              	.LVL630:
 5182              		.loc 1 2338 0 is_stmt 1
 5183 0024 2A7F     		ldrb	r2, [r5, #28]	@ zero_extendqisi2
 5184 0026 42F00202 		orr	r2, r2, #2
 5185 002a 2A77     		strb	r2, [r5, #28]
 5186              	.LVL631:
 5187              	.L757:
 5188              		.loc 1 2340 0
 5189 002c 1844     		add	r0, r0, r3
 5190              	.LVL632:
 5191 002e 04EBC003 		add	r3, r4, r0, lsl #3
 5192 0032 0020     		movs	r0, #0
 5193 0034 1861     		str	r0, [r3, #16]
 5194              	.L764:
 5195              		.loc 1 2348 0
 5196 0036 F0BC     		pop	{r4, r5, r6, r7}
 5197              		.cfi_remember_state
 5198              		.cfi_restore 7
 5199              		.cfi_restore 6
 5200              		.cfi_restore 5
 5201              		.cfi_restore 4
 5202              		.cfi_def_cfa_offset 0
 5203 0038 7047     		bx	lr
 5204              	.LVL633:
 5205              	.L754:
 5206              		.cfi_restore_state
 5207              		.loc 1 2338 0
 5208 003a 2A7F     		ldrb	r2, [r5, #28]	@ zero_extendqisi2
 5209 003c 22F00202 		bic	r2, r2, #2
 5210 0040 2A77     		strb	r2, [r5, #28]
 5211 0042 F3E7     		b	.L757
 5212              	.LVL634:
 5213              	.L770:
ARM GAS  C:\Users\jo\AppData\Local\Temp\cc6wN9Ut.s 			page 93


 5214              		.loc 1 2299 0
 5215 0044 4FF0FF30 		mov	r0, #-1
 5216              	.LVL635:
 5217 0048 F5E7     		b	.L764
 5218              	.LVL636:
 5219              	.L771:
 5220              		.loc 1 2345 0
 5221 004a A319     		adds	r3, r4, r6
 5222 004c 2622     		movs	r2, #38
 5223              	.LVL637:
 5224 004e 1A61     		str	r2, [r3, #16]
 5225              		.loc 1 2346 0
 5226 0050 4FF0FF30 		mov	r0, #-1
 5227              	.LVL638:
 5228 0054 EFE7     		b	.L764
 5229              	.L773:
 5230 0056 00BF     		.align	2
 5231              	.L772:
 5232 0058 00000000 		.word	.LANCHOR0
 5233 005c 7E660480 		.word	-2147195266
 5234              		.cfi_endproc
 5235              	.LFE288:
 5236              		.size	lwip_ioctl, .-lwip_ioctl
 5237              		.section	.text.lwip_fcntl,"ax",%progbits
 5238              		.align	2
 5239              		.p2align 4,,15
 5240              		.global	lwip_fcntl
 5241              		.thumb
 5242              		.thumb_func
 5243              		.type	lwip_fcntl, %function
 5244              	lwip_fcntl:
 5245              	.LFB289:
 5246              		.loc 1 2356 0
 5247              		.cfi_startproc
 5248              		@ args = 0, pretend = 0, frame = 0
 5249              		@ frame_needed = 0, uses_anonymous_args = 0
 5250              		@ link register save eliminated.
 5251              	.LVL639:
 5252              	.LBB280:
 5253              	.LBB281:
 5254              		.loc 1 199 0
 5255 0000 0128     		cmp	r0, #1
 5256 0002 02D9     		bls	.L784
 5257              	.LVL640:
 5258              	.L782:
 5259              	.LBE281:
 5260              	.LBE280:
 5261              		.loc 1 2361 0
 5262 0004 4FF0FF30 		mov	r0, #-1
 5263              		.loc 1 2380 0
 5264 0008 7047     		bx	lr
 5265              	.LVL641:
 5266              	.L784:
 5267              	.LBB283:
 5268              	.LBB282:
 5269              		.loc 1 207 0
 5270 000a 00EB4000 		add	r0, r0, r0, lsl #1
ARM GAS  C:\Users\jo\AppData\Local\Temp\cc6wN9Ut.s 			page 94


 5271              	.LVL642:
 5272 000e 0D4B     		ldr	r3, .L785
 5273 0010 53F83030 		ldr	r3, [r3, r0, lsl #3]
 5274 0014 002B     		cmp	r3, #0
 5275 0016 F5D0     		beq	.L782
 5276              	.LVL643:
 5277              	.LBE282:
 5278              	.LBE283:
 5279              		.loc 1 2364 0
 5280 0018 0329     		cmp	r1, #3
 5281 001a 0AD0     		beq	.L776
 5282 001c 0429     		cmp	r1, #4
 5283 001e F1D1     		bne	.L782
 5284              		.loc 1 2369 0
 5285 0020 32F00100 		bics	r0, r2, #1
 5286 0024 EED1     		bne	.L782
 5287              		.loc 1 2371 0
 5288 0026 42B1     		cbz	r2, .L778
 5289              		.loc 1 2371 0 is_stmt 0 discriminator 1
 5290 0028 1A7F     		ldrb	r2, [r3, #28]	@ zero_extendqisi2
 5291              	.LVL644:
 5292 002a 42F00202 		orr	r2, r2, #2
 5293 002e 1A77     		strb	r2, [r3, #28]
 5294 0030 7047     		bx	lr
 5295              	.LVL645:
 5296              	.L776:
 5297              		.loc 1 2366 0 is_stmt 1
 5298 0032 187F     		ldrb	r0, [r3, #28]	@ zero_extendqisi2
 5299 0034 C0F34000 		ubfx	r0, r0, #1, #1
 5300              	.LVL646:
 5301              		.loc 1 2367 0
 5302 0038 7047     		bx	lr
 5303              	.LVL647:
 5304              	.L778:
 5305              		.loc 1 2371 0 discriminator 2
 5306 003a 1A7F     		ldrb	r2, [r3, #28]	@ zero_extendqisi2
 5307              	.LVL648:
 5308 003c 22F00202 		bic	r2, r2, #2
 5309 0040 1A77     		strb	r2, [r3, #28]
 5310 0042 7047     		bx	lr
 5311              	.L786:
 5312              		.align	2
 5313              	.L785:
 5314 0044 00000000 		.word	.LANCHOR0
 5315              		.cfi_endproc
 5316              	.LFE289:
 5317              		.size	lwip_fcntl, .-lwip_fcntl
 5318 0048 AFF30080 		.section	.rodata.err_to_errno_table,"a",%progbits
 5318      AFF30080 
 5319              		.align	2
 5320              		.set	.LANCHOR1,. + 0
 5321              		.type	err_to_errno_table, %object
 5322              		.size	err_to_errno_table, 64
 5323              	err_to_errno_table:
 5324 0000 00000000 		.word	0
 5325 0004 0C000000 		.word	12
 5326 0008 69000000 		.word	105
ARM GAS  C:\Users\jo\AppData\Local\Temp\cc6wN9Ut.s 			page 95


 5327 000c 0B000000 		.word	11
 5328 0010 71000000 		.word	113
 5329 0014 73000000 		.word	115
 5330 0018 16000000 		.word	22
 5331 001c 0B000000 		.word	11
 5332 0020 62000000 		.word	98
 5333 0024 72000000 		.word	114
 5334 0028 67000000 		.word	103
 5335 002c 68000000 		.word	104
 5336 0030 6B000000 		.word	107
 5337 0034 6B000000 		.word	107
 5338 0038 05000000 		.word	5
 5339 003c FFFFFFFF 		.word	-1
 5340              		.section	.bss.select_cb_list,"aw",%nobits
 5341              		.align	2
 5342              		.set	.LANCHOR2,. + 0
 5343              		.type	select_cb_list, %object
 5344              		.size	select_cb_list, 4
 5345              	select_cb_list:
 5346 0000 00000000 		.space	4
 5347              		.section	.bss.sockets,"aw",%nobits
 5348              		.align	2
 5349              		.set	.LANCHOR0,. + 0
 5350              		.type	sockets, %object
 5351              		.size	sockets, 48
 5352              	sockets:
 5353 0000 00000000 		.space	48
 5353      00000000 
 5353      00000000 
 5353      00000000 
 5353      00000000 
 5354              		.section	.bss.select_cb_ctr,"aw",%nobits
 5355              		.align	2
 5356              		.set	.LANCHOR3,. + 0
 5357              		.type	select_cb_ctr, %object
 5358              		.size	select_cb_ctr, 4
 5359              	select_cb_ctr:
 5360 0000 00000000 		.space	4
 5361              		.section	.rodata.str1.4,"aMS",%progbits,1
 5362              		.align	2
 5363              	.LC0:
 5364 0000 41737365 		.ascii	"Assertion \"%s\" failed at line %d in %s\012\000"
 5364      7274696F 
 5364      6E202225 
 5364      73222066 
 5364      61696C65 
 5365              	.LC1:
 5366 0028 61726720 		.ascii	"arg != NULL\000"
 5366      213D204E 
 5366      554C4C00 
 5367              	.LC2:
 5368 0034 2E2E2F2E 		.ascii	"../../../ext/lwip/src/api/sockets.c\000"
 5368      2E2F2E2E 
 5368      2F657874 
 5368      2F6C7769 
 5368      702F7372 
 5369              	.LC3:
ARM GAS  C:\Users\jo\AppData\Local\Temp\cc6wN9Ut.s 			page 96


 5370 0058 756E6861 		.ascii	"unhandled optname\000"
 5370      6E646C65 
 5370      64206F70 
 5370      746E616D 
 5370      6500
 5371 006a 0000     		.space	2
 5372              	.LC4:
 5373 006c 756E6861 		.ascii	"unhandled level\000"
 5373      6E646C65 
 5373      64206C65 
 5373      76656C00 
 5374              	.LC5:
 5375 007c 756E6B6E 		.ascii	"unknown event\000"
 5375      6F776E20 
 5375      6576656E 
 5375      7400
 5376 008a 0000     		.space	2
 5377              	.LC6:
 5378 008c 6E657763 		.ascii	"newconn != NULL\000"
 5378      6F6E6E20 
 5378      213D204E 
 5378      554C4C00 
 5379              	.LC7:
 5380 009c 61646472 		.ascii	"addr valid but addrlen NULL\000"
 5380      2076616C 
 5380      69642062 
 5380      75742061 
 5380      6464726C 
 5381              	.LC8:
 5382 00b8 696E7661 		.ascii	"invalid socket index\000"
 5382      6C696420 
 5382      736F636B 
 5382      65742069 
 5382      6E646578 
 5383 00cd 000000   		.space	3
 5384              	.LC9:
 5385 00d0 6E657763 		.ascii	"newconn->callback == event_callback\000"
 5385      6F6E6E2D 
 5385      3E63616C 
 5385      6C626163 
 5385      6B203D3D 
 5386              	.LC10:
 5387 00f4 6C776970 		.ascii	"lwip_bind: invalid address\000"
 5387      5F62696E 
 5387      643A2069 
 5387      6E76616C 
 5387      69642061 
 5388 010f 00       		.space	1
 5389              	.LC11:
 5390 0110 6C776970 		.ascii	"lwip_connect: invalid address\000"
 5390      5F636F6E 
 5390      6E656374 
 5390      3A20696E 
 5390      76616C69 
 5391 012e 0000     		.space	2
 5392              	.LC12:
 5393 0130 62756620 		.ascii	"buf != NULL\000"
ARM GAS  C:\Users\jo\AppData\Local\Temp\cc6wN9Ut.s 			page 97


 5393      213D204E 
 5393      554C4C00 
 5394              	.LC13:
 5395 013c 696E7661 		.ascii	"invalid copylen, len would underflow\000"
 5395      6C696420 
 5395      636F7079 
 5395      6C656E2C 
 5395      206C656E 
 5396 0161 000000   		.space	3
 5397              	.LC14:
 5398 0164 6C776970 		.ascii	"lwip_sendto: size must fit in u16_t\000"
 5398      5F73656E 
 5398      64746F3A 
 5398      2073697A 
 5398      65206D75 
 5399              	.LC15:
 5400 0188 6C776970 		.ascii	"lwip_sendto: invalid address\000"
 5400      5F73656E 
 5400      64746F3A 
 5400      20696E76 
 5400      616C6964 
 5401 01a5 000000   		.space	3
 5402              	.LC16:
 5403 01a8 736F636B 		.ascii	"sock->select_waiting > 0\000"
 5403      2D3E7365 
 5403      6C656374 
 5403      5F776169 
 5403      74696E67 
 5404 01c1 000000   		.space	3
 5405              	.LC17:
 5406 01c4 736F636B 		.ascii	"sock->select_waiting >= 0\000"
 5406      2D3E7365 
 5406      6C656374 
 5406      5F776169 
 5406      74696E67 
 5407 01de 0000     		.space	2
 5408              	.LC18:
 5409 01e0 73656C65 		.ascii	"select_cb.prev == NULL\000"
 5409      63745F63 
 5409      622E7072 
 5409      6576203D 
 5409      3D204E55 
 5410 01f7 00       		.space	1
 5411              	.LC19:
 5412 01f8 73656C65 		.ascii	"select_cb.prev != NULL\000"
 5412      63745F63 
 5412      622E7072 
 5412      65762021 
 5412      3D204E55 
 5413 020f 00       		.space	1
 5414              	.LC20:
 5415 0210 736F636B 		.ascii	"sock != NULL\000"
 5415      20213D20 
 5415      4E554C4C 
 5415      00
 5416 021d 000000   		.text
 5417              	.Letext0:
ARM GAS  C:\Users\jo\AppData\Local\Temp\cc6wN9Ut.s 			page 98


 5418              		.file 4 "c:\\program files\\gnu tools arm embedded\\4.9 2014q4\\lib\\gcc\\arm-none-eabi\\4.9.3\\in
 5419              		.file 5 "c:\\program files\\gnu tools arm embedded\\4.9 2014q4\\arm-none-eabi\\include\\machine\\_
 5420              		.file 6 "c:\\program files\\gnu tools arm embedded\\4.9 2014q4\\arm-none-eabi\\include\\stdint.h"
 5421              		.file 7 "../../../os/rt/ports/ARMCMx/compilers/GCC/chtypes.h"
 5422              		.file 8 "../../../os/rt/include/chsystypes.h"
 5423              		.file 9 "../../../os/rt/include/chschd.h"
 5424              		.file 10 "../../../os/rt/ports/ARMCMx/chcore.h"
 5425              		.file 11 "../../../os/rt/ports/ARMCMx/chcore_v7m.h"
 5426              		.file 12 "../../../os/rt/include/chdebug.h"
 5427              		.file 13 "../../../os/rt/include/chtm.h"
 5428              		.file 14 "../../../os/rt/include/chsem.h"
 5429              		.file 15 "../../../os/rt/include/chmtx.h"
 5430              		.file 16 "../../../os/rt/include/chmboxes.h"
 5431              		.file 17 "../../../os/rt/include/chstreams.h"
 5432              		.file 18 "c:\\program files\\gnu tools arm embedded\\4.9 2014q4\\arm-none-eabi\\include\\sys\\type
 5433              		.file 19 "./ITM_trace.h"
 5434              		.file 20 "c:\\program files\\gnu tools arm embedded\\4.9 2014q4\\lib\\gcc\\arm-none-eabi\\4.9.3\\i
 5435              		.file 21 "<built-in>"
 5436              		.file 22 "../../../os/various/lwip_bindings/arch/cc.h"
 5437              		.file 23 "../../../ext/lwip/src/include/ipv4/lwip/ip_addr.h"
 5438              		.file 24 "../../../ext/lwip/src/include/ipv4/lwip/inet.h"
 5439              		.file 25 "../../../ext/lwip/src/include/lwip/sockets.h"
 5440              		.file 26 "../../../ext/lwip/src/include/lwip/err.h"
 5441              		.file 27 "../../../ext/lwip/src/include/lwip/pbuf.h"
 5442              		.file 28 "../../../ext/lwip/src/include/lwip/netbuf.h"
 5443              		.file 29 "../../../os/various/lwip_bindings/arch/sys_arch.h"
 5444              		.file 30 "../../../ext/lwip/src/include/lwip/api.h"
 5445              		.file 31 "../../../ext/lwip/src/include/ipv4/lwip/ip.h"
 5446              		.file 32 "../../../ext/lwip/src/include/lwip/tcp.h"
 5447              		.file 33 "../../../ext/lwip/src/include/lwip/udp.h"
 5448              		.file 34 "../../../ext/lwip/src/include/lwip/api_msg.h"
 5449              		.file 35 "../../../ext/lwip/src/include/lwip/tcpip.h"
 5450              		.file 36 "../../../os/ext/CMSIS/include/core_cm4.h"
 5451              		.file 37 "../../../ext/lwip/src/include/lwip/def.h"
 5452              		.file 38 "../../../os/rt/include/chsys.h"
 5453              		.file 39 "../../../ext/lwip/src/include/lwip/sys.h"