ARM GAS  C:\Users\jo\AppData\Local\Temp\cc6wN9Ut.s 			page 1


   1              		.syntax unified
   2              		.cpu cortex-m4
   3              		.fpu softvfp
   4              		.eabi_attribute 20, 1
   5              		.eabi_attribute 21, 1
   6              		.eabi_attribute 23, 3
   7              		.eabi_attribute 24, 1
   8              		.eabi_attribute 25, 1
   9              		.eabi_attribute 26, 1
  10              		.eabi_attribute 30, 2
  11              		.eabi_attribute 34, 1
  12              		.eabi_attribute 18, 4
  13              		.thumb
  14              		.file	"sockets.c"
  15              		.text
  16              	.Ltext0:
  17              		.cfi_sections	.debug_frame
  18              		.section	.text.alloc_socket,"ax",%progbits
  19              		.align	2
  20              		.p2align 4,,15
  21              		.thumb
  22              		.thumb_func
  23              		.type	alloc_socket, %function
  24              	alloc_socket:
  25              	.LFB263:
  26              		.file 1 "../../../ext/lwip/src/api/sockets.c"
  27              		.loc 1 244 0
  28              		.cfi_startproc
  29              		@ args = 0, pretend = 0, frame = 0
  30              		@ frame_needed = 0, uses_anonymous_args = 0
  31              		@ link register save eliminated.
  32              	.LVL0:
  33 0000 F0B4     		push	{r4, r5, r6, r7}
  34              		.cfi_def_cfa_offset 16
  35              		.cfi_offset 4, -16
  36              		.cfi_offset 5, -12
  37              		.cfi_offset 6, -8
  38              		.cfi_offset 7, -4
  39              		.loc 1 252 0
  40 0002 134C     		ldr	r4, .L12
  41 0004 2268     		ldr	r2, [r4]
  42 0006 32B1     		cbz	r2, .L2
  43              	.LVL1:
  44 0008 A369     		ldr	r3, [r4, #24]
  45 000a 1BB1     		cbz	r3, .L10
  46              		.loc 1 270 0
  47 000c 4FF0FF30 		mov	r0, #-1
  48              	.LVL2:
  49              	.L3:
  50              		.loc 1 271 0
  51 0010 F0BC     		pop	{r4, r5, r6, r7}
  52              		.cfi_remember_state
  53              		.cfi_restore 7
  54              		.cfi_restore 6
  55              		.cfi_restore 5
  56              		.cfi_restore 4
  57              		.cfi_def_cfa_offset 0
ARM GAS  C:\Users\jo\AppData\Local\Temp\cc6wN9Ut.s 			page 2


  58 0012 7047     		bx	lr
  59              	.LVL3:
  60              	.L10:
  61              		.cfi_restore_state
  62              		.loc 1 249 0
  63 0014 0122     		movs	r2, #1
  64              	.LVL4:
  65              	.L2:
  66              		.loc 1 253 0
  67 0016 5300     		lsls	r3, r2, #1
  68 0018 9D18     		adds	r5, r3, r2
  69              		.loc 1 262 0
  70 001a 0778     		ldrb	r7, [r0]	@ zero_extendqisi2
  71              		.loc 1 253 0
  72 001c ED00     		lsls	r5, r5, #3
  73 001e 6619     		adds	r6, r4, r5
  74 0020 6051     		str	r0, [r4, r5]
  75              		.loc 1 262 0
  76 0022 102F     		cmp	r7, #16
  77              		.loc 1 257 0
  78 0024 4FF00000 		mov	r0, #0
  79              	.LVL5:
  80              		.loc 1 259 0
  81 0028 7081     		strh	r0, [r6, #10]	@ movhi
  82              		.loc 1 257 0
  83 002a 7060     		str	r0, [r6, #4]
  84              		.loc 1 258 0
  85 002c 3081     		strh	r0, [r6, #8]	@ movhi
  86              		.loc 1 262 0
  87 002e 0AD0     		beq	.L11
  88 0030 0121     		movs	r1, #1
  89              	.LVL6:
  90              	.L4:
  91              		.loc 1 262 0 is_stmt 0 discriminator 6
  92 0032 1344     		add	r3, r3, r2
  93 0034 04EBC303 		add	r3, r4, r3, lsl #3
  94              		.loc 1 263 0 is_stmt 1 discriminator 6
  95 0038 0024     		movs	r4, #0
  96              		.loc 1 266 0 discriminator 6
  97 003a 1046     		mov	r0, r2
  98              		.loc 1 262 0 discriminator 6
  99 003c 9981     		strh	r1, [r3, #12]	@ movhi
 100              		.loc 1 263 0 discriminator 6
 101 003e DC81     		strh	r4, [r3, #14]	@ movhi
 102              		.loc 1 264 0 discriminator 6
 103 0040 1C61     		str	r4, [r3, #16]
 104              		.loc 1 265 0 discriminator 6
 105 0042 5C61     		str	r4, [r3, #20]
 106              		.loc 1 266 0 discriminator 6
 107 0044 E4E7     		b	.L3
 108              	.LVL7:
 109              	.L11:
 110 0046 091A     		subs	r1, r1, r0
 111              	.LVL8:
 112 0048 18BF     		it	ne
 113 004a 0121     		movne	r1, #1
 114 004c F1E7     		b	.L4
ARM GAS  C:\Users\jo\AppData\Local\Temp\cc6wN9Ut.s 			page 3


 115              	.L13:
 116 004e 00BF     		.align	2
 117              	.L12:
 118 0050 00000000 		.word	.LANCHOR0
 119              		.cfi_endproc
 120              	.LFE263:
 121              		.size	alloc_socket, .-alloc_socket
 122 0054 AFF30080 		.section	.text.lwip_getaddrname,"ax",%progbits
 122      AFF30080 
 122      AFF30080 
 123              		.align	2
 124              		.p2align 4,,15
 125              		.thumb
 126              		.thumb_func
 127              		.type	lwip_getaddrname, %function
 128              	lwip_getaddrname:
 129              	.LFB281:
 130              		.loc 1 1417 0
 131              		.cfi_startproc
 132              		@ args = 0, pretend = 0, frame = 24
 133              		@ frame_needed = 0, uses_anonymous_args = 0
 134              	.LVL9:
 135              	.LBB106:
 136              	.LBB107:
 137              		.loc 1 199 0
 138 0000 0128     		cmp	r0, #1
 139 0002 02D9     		bls	.L25
 140              	.LBE107:
 141              	.LBE106:
 142              		.loc 1 1424 0
 143 0004 4FF0FF30 		mov	r0, #-1
 144              	.LVL10:
 145              		.loc 1 1448 0
 146 0008 7047     		bx	lr
 147              	.LVL11:
 148              	.L25:
 149              		.loc 1 1417 0
 150 000a 2DE9F043 		push	{r4, r5, r6, r7, r8, r9, lr}
 151              		.cfi_def_cfa_offset 28
 152              		.cfi_offset 4, -28
 153              		.cfi_offset 5, -24
 154              		.cfi_offset 6, -20
 155              		.cfi_offset 7, -16
 156              		.cfi_offset 8, -12
 157              		.cfi_offset 9, -8
 158              		.cfi_offset 14, -4
 159              	.LBB110:
 160              	.LBB108:
 161              		.loc 1 207 0
 162 000e 4FEA4008 		lsl	r8, r0, #1
 163 0012 08EB0004 		add	r4, r8, r0
 164 0016 1F4F     		ldr	r7, .L27
 165 0018 57F83450 		ldr	r5, [r7, r4, lsl #3]
 166              	.LBE108:
 167              	.LBE110:
 168              		.loc 1 1417 0
 169 001c 87B0     		sub	sp, sp, #28
ARM GAS  C:\Users\jo\AppData\Local\Temp\cc6wN9Ut.s 			page 4


 170              		.cfi_def_cfa_offset 56
 171              	.LBB111:
 172              	.LBB109:
 173              		.loc 1 207 0
 174 001e B5B3     		cbz	r5, .L26
 175              	.LBE109:
 176              	.LBE111:
 177              		.loc 1 1427 0
 178 0020 4FF0000E 		mov	lr, #0
 179              		.loc 1 1429 0
 180 0024 4FF0020C 		mov	ip, #2
 181 0028 9146     		mov	r9, r2
 182 002a 0E46     		mov	r6, r1
 183              		.loc 1 1432 0
 184 002c 0DF10A02 		add	r2, sp, #10
 185              	.LVL12:
 186 0030 01A9     		add	r1, sp, #4
 187              	.LVL13:
 188 0032 0446     		mov	r4, r0
 189 0034 2846     		mov	r0, r5
 190              	.LVL14:
 191              		.loc 1 1428 0
 192 0036 1025     		movs	r5, #16
 193              		.loc 1 1427 0
 194 0038 CDF808E0 		str	lr, [sp, #8]
 195 003c CDF80CE0 		str	lr, [sp, #12]
 196 0040 CDF810E0 		str	lr, [sp, #16]
 197 0044 CDF814E0 		str	lr, [sp, #20]
 198              		.loc 1 1429 0
 199 0048 8DF809C0 		strb	ip, [sp, #9]
 200              		.loc 1 1428 0
 201 004c 8DF80850 		strb	r5, [sp, #8]
 202              		.loc 1 1432 0
 203 0050 FFF7FEFF 		bl	netconn_getaddr
 204              	.LVL15:
 205              		.loc 1 1438 0
 206 0054 BDF80A00 		ldrh	r0, [sp, #10]
 207 0058 FFF7FEFF 		bl	lwip_htons
 208              	.LVL16:
 209              		.loc 1 1441 0
 210 005c D9F80020 		ldr	r2, [r9]
 211              		.loc 1 1439 0
 212 0060 019B     		ldr	r3, [sp, #4]
 213              		.loc 1 1438 0
 214 0062 ADF80A00 		strh	r0, [sp, #10]	@ movhi
 215              		.loc 1 1441 0
 216 0066 AA42     		cmp	r2, r5
 217              		.loc 1 1439 0
 218 0068 0393     		str	r3, [sp, #12]
 219              		.loc 1 1441 0
 220 006a 0CD8     		bhi	.L17
 221              	.L18:
 222              		.loc 1 1445 0
 223 006c 3046     		mov	r0, r6
 224 006e 02A9     		add	r1, sp, #8
 225 0070 FFF7FEFF 		bl	memcpy
 226              	.LVL17:
ARM GAS  C:\Users\jo\AppData\Local\Temp\cc6wN9Ut.s 			page 5


 227              		.loc 1 1446 0
 228 0074 08EB0403 		add	r3, r8, r4
 229 0078 07EBC303 		add	r3, r7, r3, lsl #3
 230 007c 0020     		movs	r0, #0
 231 007e 1861     		str	r0, [r3, #16]
 232              	.LVL18:
 233              	.L22:
 234              		.loc 1 1448 0
 235 0080 07B0     		add	sp, sp, #28
 236              		.cfi_remember_state
 237              		.cfi_def_cfa_offset 28
 238              		@ sp needed
 239 0082 BDE8F083 		pop	{r4, r5, r6, r7, r8, r9, pc}
 240              	.LVL19:
 241              	.L17:
 242              		.cfi_restore_state
 243              		.loc 1 1442 0
 244 0086 C9F80050 		str	r5, [r9]
 245 008a 2A46     		mov	r2, r5
 246 008c EEE7     		b	.L18
 247              	.LVL20:
 248              	.L26:
 249              		.loc 1 1424 0
 250 008e 4FF0FF30 		mov	r0, #-1
 251              	.LVL21:
 252 0092 F5E7     		b	.L22
 253              	.L28:
 254              		.align	2
 255              	.L27:
 256 0094 00000000 		.word	.LANCHOR0
 257              		.cfi_endproc
 258              	.LFE281:
 259              		.size	lwip_getaddrname, .-lwip_getaddrname
 260 0098 AFF30080 		.section	.text.chprintf.constprop.0,"ax",%progbits
 260      AFF30080 
 261              		.align	2
 262              		.p2align 4,,15
 263              		.thumb
 264              		.thumb_func
 265              		.type	chprintf.constprop.0, %function
 266              	chprintf.constprop.0:
 267              	.LFB290:
 268              		.file 2 "../../../os/hal/lib/streams/chprintf.h"
 269              		.loc 2 69 0
 270              		.cfi_startproc
 271              		@ args = 4, pretend = 12, frame = 8
 272              		@ frame_needed = 0, uses_anonymous_args = 1
 273              	.LVL22:
 274 0000 0EB4     		push	{r1, r2, r3}
 275              		.cfi_def_cfa_offset 12
 276              		.cfi_offset 1, -12
 277              		.cfi_offset 2, -8
 278              		.cfi_offset 3, -4
 279 0002 00B5     		push	{lr}
 280              		.cfi_def_cfa_offset 16
 281              		.cfi_offset 14, -16
 282 0004 82B0     		sub	sp, sp, #8
ARM GAS  C:\Users\jo\AppData\Local\Temp\cc6wN9Ut.s 			page 6


 283              		.cfi_def_cfa_offset 24
 284              		.loc 2 73 0
 285 0006 04AB     		add	r3, sp, #16
 286              		.loc 2 74 0
 287 0008 1A46     		mov	r2, r3
 288 000a 0549     		ldr	r1, .L31
 289 000c 0548     		ldr	r0, .L31+4
 290              	.LVL23:
 291              		.loc 2 73 0
 292 000e 0193     		str	r3, [sp, #4]
 293              		.loc 2 74 0
 294 0010 FFF7FEFF 		bl	chvprintf
 295              	.LVL24:
 296              		.loc 2 78 0
 297 0014 02B0     		add	sp, sp, #8
 298              		.cfi_def_cfa_offset 16
 299              		@ sp needed
 300 0016 5DF804EB 		ldr	lr, [sp], #4
 301              		.cfi_restore 14
 302              		.cfi_def_cfa_offset 12
 303 001a 03B0     		add	sp, sp, #12
 304              		.cfi_restore 3
 305              		.cfi_restore 2
 306              		.cfi_restore 1
 307              		.cfi_def_cfa_offset 0
 308 001c 7047     		bx	lr
 309              	.L32:
 310 001e 00BF     		.align	2
 311              	.L31:
 312 0020 00000000 		.word	.LC0
 313 0024 00000000 		.word	itm_port
 314              		.cfi_endproc
 315              	.LFE290:
 316              		.size	chprintf.constprop.0, .-chprintf.constprop.0
 317 0028 AFF30080 		.section	.text.lwip_setsockopt_internal,"ax",%progbits
 317      AFF30080 
 318              		.align	2
 319              		.p2align 4,,15
 320              		.thumb
 321              		.thumb_func
 322              		.type	lwip_setsockopt_internal, %function
 323              	lwip_setsockopt_internal:
 324              	.LFB287:
 325              		.loc 1 2081 0
 326              		.cfi_startproc
 327              		@ args = 0, pretend = 0, frame = 0
 328              		@ frame_needed = 0, uses_anonymous_args = 0
 329              	.LVL25:
 330 0000 30B5     		push	{r4, r5, lr}
 331              		.cfi_def_cfa_offset 12
 332              		.cfi_offset 4, -12
 333              		.cfi_offset 5, -8
 334              		.cfi_offset 14, -4
 335              		.loc 1 2090 0
 336 0002 0446     		mov	r4, r0
 337              		.loc 1 2081 0
 338 0004 83B0     		sub	sp, sp, #12
ARM GAS  C:\Users\jo\AppData\Local\Temp\cc6wN9Ut.s 			page 7


 339              		.cfi_def_cfa_offset 24
 340              		.loc 1 2090 0
 341 0006 0028     		cmp	r0, #0
 342 0008 00F08980 		beq	.L65
 343              	.LVL26:
 344              	.L34:
 345              		.loc 1 2101 0
 346 000c A368     		ldr	r3, [r4, #8]
 347              		.loc 1 2093 0
 348 000e 2568     		ldr	r5, [r4]
 349              	.LVL27:
 350              		.loc 1 2098 0
 351 0010 E268     		ldr	r2, [r4, #12]
 352              	.LVL28:
 353              		.loc 1 2099 0
 354 0012 2469     		ldr	r4, [r4, #16]
 355              	.LVL29:
 356              		.loc 1 2101 0
 357 0014 062B     		cmp	r3, #6
 358 0016 37D0     		beq	.L36
 359 0018 40F6FF71 		movw	r1, #4095
 360 001c 8B42     		cmp	r3, r1
 361 001e 1DD0     		beq	.L37
 362 0020 93B1     		cbz	r3, .L66
 363              		.loc 1 2282 0 discriminator 1
 364 0022 514B     		ldr	r3, .L68
 365              	.LVL30:
 366 0024 0093     		str	r3, [sp]
 367              	.LVL31:
 368 0026 5149     		ldr	r1, .L68+4
 369 0028 514A     		ldr	r2, .L68+8
 370              	.LVL32:
 371 002a 5248     		ldr	r0, .L68+12
 372 002c 40F6EA03 		movw	r3, #2282
 373 0030 FFF7FEFF 		bl	chprintf.constprop.0
 374              	.LVL33:
 375              	.LBB112:
 376              	.LBB113:
 377              		.file 3 "../../../os/hal/osal/rt/osal.h"
 378              		.loc 3 416 0 discriminator 1
 379 0034 4E48     		ldr	r0, .L68+8
 380 0036 FFF7FEFF 		bl	chSysHalt
 381              	.LVL34:
 382 003a 2868     		ldr	r0, [r5]
 383              	.LVL35:
 384              	.L43:
 385              	.LBE113:
 386              	.LBE112:
 387              		.loc 1 2285 0
 388 003c 0C30     		adds	r0, r0, #12
 389              		.loc 1 2286 0
 390 003e 03B0     		add	sp, sp, #12
 391              		.cfi_remember_state
 392              		.cfi_def_cfa_offset 12
 393              		@ sp needed
 394 0040 BDE83040 		pop	{r4, r5, lr}
 395              		.cfi_restore 14
ARM GAS  C:\Users\jo\AppData\Local\Temp\cc6wN9Ut.s 			page 8


 396              		.cfi_restore 5
 397              		.cfi_restore 4
 398              		.cfi_def_cfa_offset 0
 399              	.LVL36:
 400              		.loc 1 2285 0
 401 0044 FFF7FEBF 		b	sys_sem_signal
 402              	.LVL37:
 403              	.L66:
 404              		.cfi_restore_state
 405              		.loc 1 2158 0
 406 0048 012A     		cmp	r2, #1
 407 004a 3DD0     		beq	.L46
 408 004c 022A     		cmp	r2, #2
 409 004e 41D1     		bne	.L60
 410              		.loc 1 2160 0
 411 0050 2B68     		ldr	r3, [r5]
 412              	.LVL38:
 413 0052 2268     		ldr	r2, [r4]
 414              	.LVL39:
 415 0054 5B68     		ldr	r3, [r3, #4]
 416 0056 9A72     		strb	r2, [r3, #10]
 417              	.LVL40:
 418 0058 2868     		ldr	r0, [r5]
 419              		.loc 1 2163 0
 420 005a EFE7     		b	.L43
 421              	.LVL41:
 422              	.L37:
 423              		.loc 1 2105 0
 424 005c 202A     		cmp	r2, #32
 425 005e 47D0     		beq	.L40
 426 0060 41F20A03 		movw	r3, #4106
 427              	.LVL42:
 428 0064 9A42     		cmp	r2, r3
 429 0066 19D0     		beq	.L41
 430 0068 082A     		cmp	r2, #8
 431 006a 41D0     		beq	.L40
 432              		.loc 1 2151 0 discriminator 1
 433 006c 3E4B     		ldr	r3, .L68
 434 006e 0093     		str	r3, [sp]
 435              	.LVL43:
 436 0070 3E49     		ldr	r1, .L68+4
 437 0072 414A     		ldr	r2, .L68+16
 438              	.LVL44:
 439 0074 3F48     		ldr	r0, .L68+12
 440 0076 40F66703 		movw	r3, #2151
 441 007a FFF7FEFF 		bl	chprintf.constprop.0
 442              	.LVL45:
 443              	.LBB114:
 444              	.LBB115:
 445              		.loc 3 416 0 discriminator 1
 446 007e 3E48     		ldr	r0, .L68+16
 447 0080 FFF7FEFF 		bl	chSysHalt
 448              	.LVL46:
 449 0084 2868     		ldr	r0, [r5]
 450 0086 D9E7     		b	.L43
 451              	.LVL47:
 452              	.L36:
ARM GAS  C:\Users\jo\AppData\Local\Temp\cc6wN9Ut.s 			page 9


 453              	.LBE115:
 454              	.LBE114:
 455              		.loc 1 2212 0
 456 0088 012A     		cmp	r2, #1
 457 008a 12D0     		beq	.L49
 458 008c 022A     		cmp	r2, #2
 459 008e 38D1     		bne	.L67
 460              		.loc 1 2223 0
 461 0090 2868     		ldr	r0, [r5]
 462 0092 2268     		ldr	r2, [r4]
 463              	.LVL48:
 464 0094 4368     		ldr	r3, [r0, #4]
 465              	.LVL49:
 466 0096 C3F89020 		str	r2, [r3, #144]
 467              	.LVL50:
 468              		.loc 1 2226 0
 469 009a CFE7     		b	.L43
 470              	.LVL51:
 471              	.L41:
 472              		.loc 1 2143 0
 473 009c 2368     		ldr	r3, [r4]
 474 009e 002B     		cmp	r3, #0
 475 00a0 5AD0     		beq	.L44
 476              		.loc 1 2144 0
 477 00a2 2B68     		ldr	r3, [r5]
 478 00a4 5A68     		ldr	r2, [r3, #4]
 479              	.LVL52:
 480 00a6 137C     		ldrb	r3, [r2, #16]	@ zero_extendqisi2
 481 00a8 43F00103 		orr	r3, r3, #1
 482 00ac 1374     		strb	r3, [r2, #16]
 483              	.LVL53:
 484 00ae 2868     		ldr	r0, [r5]
 485 00b0 C4E7     		b	.L43
 486              	.LVL54:
 487              	.L49:
 488              		.loc 1 2214 0
 489 00b2 2368     		ldr	r3, [r4]
 490              	.LVL55:
 491 00b4 002B     		cmp	r3, #0
 492 00b6 47D0     		beq	.L51
 493              		.loc 1 2215 0
 494 00b8 2B68     		ldr	r3, [r5]
 495 00ba 5A68     		ldr	r2, [r3, #4]
 496              	.LVL56:
 497 00bc 937F     		ldrb	r3, [r2, #30]	@ zero_extendqisi2
 498 00be 43F04003 		orr	r3, r3, #64
 499 00c2 9377     		strb	r3, [r2, #30]
 500              	.LVL57:
 501 00c4 2868     		ldr	r0, [r5]
 502 00c6 B9E7     		b	.L43
 503              	.LVL58:
 504              	.L46:
 505              		.loc 1 2165 0
 506 00c8 2B68     		ldr	r3, [r5]
 507              	.LVL59:
 508 00ca 2268     		ldr	r2, [r4]
 509              	.LVL60:
ARM GAS  C:\Users\jo\AppData\Local\Temp\cc6wN9Ut.s 			page 10


 510 00cc 5B68     		ldr	r3, [r3, #4]
 511 00ce 5A72     		strb	r2, [r3, #9]
 512              	.LVL61:
 513 00d0 2868     		ldr	r0, [r5]
 514              		.loc 1 2168 0
 515 00d2 B3E7     		b	.L43
 516              	.LVL62:
 517              	.L60:
 518              		.loc 1 2204 0 discriminator 1
 519 00d4 244B     		ldr	r3, .L68
 520              	.LVL63:
 521 00d6 0093     		str	r3, [sp]
 522              	.LVL64:
 523 00d8 2449     		ldr	r1, .L68+4
 524 00da 274A     		ldr	r2, .L68+16
 525              	.LVL65:
 526 00dc 2548     		ldr	r0, .L68+12
 527 00de 40F69C03 		movw	r3, #2204
 528 00e2 FFF7FEFF 		bl	chprintf.constprop.0
 529              	.LVL66:
 530              	.LBB116:
 531              	.LBB117:
 532              		.loc 3 416 0 discriminator 1
 533 00e6 2448     		ldr	r0, .L68+16
 534 00e8 FFF7FEFF 		bl	chSysHalt
 535              	.LVL67:
 536 00ec 2868     		ldr	r0, [r5]
 537 00ee A5E7     		b	.L43
 538              	.LVL68:
 539              	.L40:
 540              	.LBE117:
 541              	.LBE116:
 542              		.loc 1 2118 0
 543 00f0 2368     		ldr	r3, [r4]
 544 00f2 0BB3     		cbz	r3, .L42
 545              		.loc 1 2119 0
 546 00f4 2B68     		ldr	r3, [r5]
 547 00f6 5968     		ldr	r1, [r3, #4]
 548 00f8 0B7A     		ldrb	r3, [r1, #8]	@ zero_extendqisi2
 549 00fa 1A43     		orrs	r2, r2, r3
 550              	.LVL69:
 551 00fc 0A72     		strb	r2, [r1, #8]
 552              	.LVL70:
 553 00fe 2868     		ldr	r0, [r5]
 554 0100 9CE7     		b	.L43
 555              	.LVL71:
 556              	.L67:
 557              		.loc 1 2246 0 discriminator 1
 558 0102 194B     		ldr	r3, .L68
 559              	.LVL72:
 560 0104 0093     		str	r3, [sp]
 561              	.LVL73:
 562 0106 1949     		ldr	r1, .L68+4
 563 0108 1B4A     		ldr	r2, .L68+16
 564              	.LVL74:
 565 010a 1A48     		ldr	r0, .L68+12
 566 010c 40F6C603 		movw	r3, #2246
ARM GAS  C:\Users\jo\AppData\Local\Temp\cc6wN9Ut.s 			page 11


 567 0110 FFF7FEFF 		bl	chprintf.constprop.0
 568              	.LVL75:
 569              	.LBB118:
 570              	.LBB119:
 571              		.loc 3 416 0 discriminator 1
 572 0114 1848     		ldr	r0, .L68+16
 573 0116 FFF7FEFF 		bl	chSysHalt
 574              	.LVL76:
 575 011a 2868     		ldr	r0, [r5]
 576 011c 8EE7     		b	.L43
 577              	.LVL77:
 578              	.L65:
 579              	.LBE119:
 580              	.LBE118:
 581              		.loc 1 2090 0 discriminator 1
 582 011e 124B     		ldr	r3, .L68
 583 0120 0093     		str	r3, [sp]
 584 0122 1249     		ldr	r1, .L68+4
 585 0124 154A     		ldr	r2, .L68+20
 586 0126 1348     		ldr	r0, .L68+12
 587              	.LVL78:
 588 0128 40F62A03 		movw	r3, #2090
 589 012c FFF7FEFF 		bl	chprintf.constprop.0
 590              	.LVL79:
 591              	.LBB120:
 592              	.LBB121:
 593              		.loc 3 416 0 discriminator 1
 594 0130 1248     		ldr	r0, .L68+20
 595 0132 FFF7FEFF 		bl	chSysHalt
 596              	.LVL80:
 597 0136 69E7     		b	.L34
 598              	.LVL81:
 599              	.L42:
 600              	.LBE121:
 601              	.LBE120:
 602              		.loc 1 2121 0
 603 0138 2B68     		ldr	r3, [r5]
 604 013a 5968     		ldr	r1, [r3, #4]
 605 013c 0B7A     		ldrb	r3, [r1, #8]	@ zero_extendqisi2
 606 013e 23EA0202 		bic	r2, r3, r2
 607              	.LVL82:
 608 0142 0A72     		strb	r2, [r1, #8]
 609              	.LVL83:
 610 0144 2868     		ldr	r0, [r5]
 611 0146 79E7     		b	.L43
 612              	.LVL84:
 613              	.L51:
 614              		.loc 1 2217 0
 615 0148 2B68     		ldr	r3, [r5]
 616 014a 5A68     		ldr	r2, [r3, #4]
 617              	.LVL85:
 618 014c 937F     		ldrb	r3, [r2, #30]	@ zero_extendqisi2
 619 014e 23F04003 		bic	r3, r3, #64
 620 0152 9377     		strb	r3, [r2, #30]
 621              	.LVL86:
 622 0154 2868     		ldr	r0, [r5]
 623 0156 71E7     		b	.L43
ARM GAS  C:\Users\jo\AppData\Local\Temp\cc6wN9Ut.s 			page 12


 624              	.LVL87:
 625              	.L44:
 626              		.loc 1 2146 0
 627 0158 2B68     		ldr	r3, [r5]
 628 015a 5A68     		ldr	r2, [r3, #4]
 629              	.LVL88:
 630 015c 137C     		ldrb	r3, [r2, #16]	@ zero_extendqisi2
 631 015e 23F00103 		bic	r3, r3, #1
 632 0162 1374     		strb	r3, [r2, #16]
 633              	.LVL89:
 634 0164 2868     		ldr	r0, [r5]
 635 0166 69E7     		b	.L43
 636              	.L69:
 637              		.align	2
 638              	.L68:
 639 0168 34000000 		.word	.LC2
 640 016c 00000000 		.word	.LC0
 641 0170 6C000000 		.word	.LC4
 642 0174 00000000 		.word	itm_port
 643 0178 58000000 		.word	.LC3
 644 017c 28000000 		.word	.LC1
 645              		.cfi_endproc
 646              	.LFE287:
 647              		.size	lwip_setsockopt_internal, .-lwip_setsockopt_internal
 648              		.section	.text.lwip_getsockopt_internal,"ax",%progbits
 649              		.align	2
 650              		.p2align 4,,15
 651              		.thumb
 652              		.thumb_func
 653              		.type	lwip_getsockopt_internal, %function
 654              	lwip_getsockopt_internal:
 655              	.LFB285:
 656              		.loc 1 1664 0
 657              		.cfi_startproc
 658              		@ args = 0, pretend = 0, frame = 0
 659              		@ frame_needed = 0, uses_anonymous_args = 0
 660              	.LVL90:
 661 0000 30B5     		push	{r4, r5, lr}
 662              		.cfi_def_cfa_offset 12
 663              		.cfi_offset 4, -12
 664              		.cfi_offset 5, -8
 665              		.cfi_offset 14, -4
 666              		.loc 1 1673 0
 667 0002 0446     		mov	r4, r0
 668              		.loc 1 1664 0
 669 0004 83B0     		sub	sp, sp, #12
 670              		.cfi_def_cfa_offset 24
 671              		.loc 1 1673 0
 672 0006 0028     		cmp	r0, #0
 673 0008 00F09280 		beq	.L121
 674              	.LVL91:
 675              	.L71:
 676              		.loc 1 1684 0
 677 000c A368     		ldr	r3, [r4, #8]
 678              		.loc 1 1676 0
 679 000e 2568     		ldr	r5, [r4]
 680              	.LVL92:
ARM GAS  C:\Users\jo\AppData\Local\Temp\cc6wN9Ut.s 			page 13


 681              		.loc 1 1681 0
 682 0010 E268     		ldr	r2, [r4, #12]
 683              	.LVL93:
 684              		.loc 1 1682 0
 685 0012 2169     		ldr	r1, [r4, #16]
 686              	.LVL94:
 687              		.loc 1 1684 0
 688 0014 062B     		cmp	r3, #6
 689 0016 3DD0     		beq	.L73
 690 0018 40F6FF70 		movw	r0, #4095
 691 001c 8342     		cmp	r3, r0
 692 001e 1CD0     		beq	.L74
 693 0020 93B1     		cbz	r3, .L122
 694              		.loc 1 1864 0 discriminator 1
 695 0022 594B     		ldr	r3, .L128
 696              	.LVL95:
 697 0024 0093     		str	r3, [sp]
 698              	.LVL96:
 699 0026 5949     		ldr	r1, .L128+4
 700              	.LVL97:
 701 0028 594A     		ldr	r2, .L128+8
 702              	.LVL98:
 703 002a 5A48     		ldr	r0, .L128+12
 704 002c 4FF4E963 		mov	r3, #1864
 705 0030 FFF7FEFF 		bl	chprintf.constprop.0
 706              	.LVL99:
 707              	.LBB122:
 708              	.LBB123:
 709              		.loc 3 416 0 discriminator 1
 710 0034 5648     		ldr	r0, .L128+8
 711 0036 FFF7FEFF 		bl	chSysHalt
 712              	.LVL100:
 713 003a 2868     		ldr	r0, [r5]
 714              	.LVL101:
 715              	.L82:
 716              	.LBE123:
 717              	.LBE122:
 718              		.loc 1 1867 0
 719 003c 0C30     		adds	r0, r0, #12
 720              		.loc 1 1868 0
 721 003e 03B0     		add	sp, sp, #12
 722              		.cfi_remember_state
 723              		.cfi_def_cfa_offset 12
 724              		@ sp needed
 725 0040 BDE83040 		pop	{r4, r5, lr}
 726              		.cfi_restore 14
 727              		.cfi_restore 5
 728              		.cfi_restore 4
 729              		.cfi_def_cfa_offset 0
 730              	.LVL102:
 731              		.loc 1 1867 0
 732 0044 FFF7FEBF 		b	sys_sem_signal
 733              	.LVL103:
 734              	.L122:
 735              		.cfi_restore_state
 736              		.loc 1 1767 0
 737 0048 012A     		cmp	r2, #1
ARM GAS  C:\Users\jo\AppData\Local\Temp\cc6wN9Ut.s 			page 14


 738 004a 2DD0     		beq	.L91
 739 004c 022A     		cmp	r2, #2
 740 004e 61D1     		bne	.L114
 741              		.loc 1 1769 0
 742 0050 2868     		ldr	r0, [r5]
 743 0052 4368     		ldr	r3, [r0, #4]
 744              	.LVL104:
 745 0054 9B7A     		ldrb	r3, [r3, #10]	@ zero_extendqisi2
 746 0056 0B60     		str	r3, [r1]
 747              	.LVL105:
 748              		.loc 1 1772 0
 749 0058 F0E7     		b	.L82
 750              	.LVL106:
 751              	.L74:
 752              		.loc 1 1688 0
 753 005a 202A     		cmp	r2, #32
 754 005c 34D0     		beq	.L77
 755 005e 2FDD     		ble	.L123
 756 0060 41F20803 		movw	r3, #4104
 757              	.LVL107:
 758 0064 9A42     		cmp	r2, r3
 759 0066 77D0     		beq	.L79
 760 0068 41F20A03 		movw	r3, #4106
 761 006c 9A42     		cmp	r2, r3
 762 006e 6CD0     		beq	.L80
 763 0070 41F20703 		movw	r3, #4103
 764 0074 9A42     		cmp	r2, r3
 765 0076 2DD0     		beq	.L124
 766              	.L76:
 767              		.loc 1 1760 0 discriminator 1
 768 0078 434B     		ldr	r3, .L128
 769 007a 0093     		str	r3, [sp]
 770              	.LVL108:
 771 007c 4349     		ldr	r1, .L128+4
 772              	.LVL109:
 773 007e 464A     		ldr	r2, .L128+16
 774              	.LVL110:
 775 0080 4448     		ldr	r0, .L128+12
 776 0082 4FF4DC63 		mov	r3, #1760
 777 0086 FFF7FEFF 		bl	chprintf.constprop.0
 778              	.LVL111:
 779              	.LBB124:
 780              	.LBB125:
 781              		.loc 3 416 0 discriminator 1
 782 008a 4348     		ldr	r0, .L128+16
 783 008c FFF7FEFF 		bl	chSysHalt
 784              	.LVL112:
 785 0090 2868     		ldr	r0, [r5]
 786 0092 D3E7     		b	.L82
 787              	.LVL113:
 788              	.L73:
 789              	.LBE125:
 790              	.LBE124:
 791              		.loc 1 1808 0
 792 0094 012A     		cmp	r2, #1
 793 0096 0CD0     		beq	.L94
 794 0098 022A     		cmp	r2, #2
ARM GAS  C:\Users\jo\AppData\Local\Temp\cc6wN9Ut.s 			page 15


 795 009a 2DD1     		bne	.L125
 796              		.loc 1 1815 0
 797 009c 2868     		ldr	r0, [r5]
 798 009e 4368     		ldr	r3, [r0, #4]
 799              	.LVL114:
 800 00a0 D3F89030 		ldr	r3, [r3, #144]
 801 00a4 0B60     		str	r3, [r1]
 802              	.LVL115:
 803              		.loc 1 1818 0
 804 00a6 C9E7     		b	.L82
 805              	.LVL116:
 806              	.L91:
 807              		.loc 1 1774 0
 808 00a8 2868     		ldr	r0, [r5]
 809 00aa 4368     		ldr	r3, [r0, #4]
 810              	.LVL117:
 811 00ac 5B7A     		ldrb	r3, [r3, #9]	@ zero_extendqisi2
 812 00ae 0B60     		str	r3, [r1]
 813              	.LVL118:
 814              		.loc 1 1777 0
 815 00b0 C4E7     		b	.L82
 816              	.LVL119:
 817              	.L94:
 818              		.loc 1 1810 0
 819 00b2 2868     		ldr	r0, [r5]
 820 00b4 4368     		ldr	r3, [r0, #4]
 821              	.LVL120:
 822 00b6 9B7F     		ldrb	r3, [r3, #30]	@ zero_extendqisi2
 823 00b8 C3F38013 		ubfx	r3, r3, #6, #1
 824 00bc 0B60     		str	r3, [r1]
 825              	.LVL121:
 826              		.loc 1 1813 0
 827 00be BDE7     		b	.L82
 828              	.LVL122:
 829              	.L123:
 830              		.loc 1 1688 0
 831 00c0 022A     		cmp	r2, #2
 832 00c2 01D0     		beq	.L77
 833 00c4 082A     		cmp	r2, #8
 834 00c6 D7D1     		bne	.L76
 835              	.L77:
 836              		.loc 1 1702 0
 837 00c8 2868     		ldr	r0, [r5]
 838 00ca 4368     		ldr	r3, [r0, #4]
 839              	.LVL123:
 840 00cc 1B7A     		ldrb	r3, [r3, #8]	@ zero_extendqisi2
 841 00ce 1A40     		ands	r2, r2, r3
 842              	.LVL124:
 843 00d0 0A60     		str	r2, [r1]
 844              	.LVL125:
 845              		.loc 1 1705 0
 846 00d2 B3E7     		b	.L82
 847              	.LVL126:
 848              	.L124:
 849              		.loc 1 1730 0
 850 00d4 2B69     		ldr	r3, [r5, #16]
 851              		.loc 1 1731 0
ARM GAS  C:\Users\jo\AppData\Local\Temp\cc6wN9Ut.s 			page 16


 852 00d6 2868     		ldr	r0, [r5]
 853              		.loc 1 1730 0
 854 00d8 002B     		cmp	r3, #0
 855 00da 49D1     		bne	.L126
 856              	.L87:
 857              		.loc 1 1731 0
 858 00dc 90F90830 		ldrsb	r3, [r0, #8]
 859 00e0 5B42     		negs	r3, r3
 860 00e2 0F2B     		cmp	r3, #15
 861 00e4 96BF     		itet	ls
 862 00e6 2D4A     		ldrls	r2, .L128+20
 863              	.LVL127:
 864 00e8 0523     		movhi	r3, #5
 865 00ea 52F82330 		ldrls	r3, [r2, r3, lsl #2]
 866 00ee 2B61     		str	r3, [r5, #16]
 867              	.LVL128:
 868              	.L88:
 869              		.loc 1 1734 0
 870 00f0 0022     		movs	r2, #0
 871              		.loc 1 1733 0
 872 00f2 0B60     		str	r3, [r1]
 873              	.LVL129:
 874              		.loc 1 1734 0
 875 00f4 2A61     		str	r2, [r5, #16]
 876              		.loc 1 1737 0
 877 00f6 A1E7     		b	.L82
 878              	.LVL130:
 879              	.L125:
 880              		.loc 1 1838 0 discriminator 1
 881 00f8 234B     		ldr	r3, .L128
 882              	.LVL131:
 883 00fa 0093     		str	r3, [sp]
 884              	.LVL132:
 885 00fc 2349     		ldr	r1, .L128+4
 886              	.LVL133:
 887 00fe 264A     		ldr	r2, .L128+16
 888              	.LVL134:
 889 0100 2448     		ldr	r0, .L128+12
 890 0102 40F22E73 		movw	r3, #1838
 891 0106 FFF7FEFF 		bl	chprintf.constprop.0
 892              	.LVL135:
 893              	.LBB126:
 894              	.LBB127:
 895              		.loc 3 416 0 discriminator 1
 896 010a 2348     		ldr	r0, .L128+16
 897 010c FFF7FEFF 		bl	chSysHalt
 898              	.LVL136:
 899 0110 2868     		ldr	r0, [r5]
 900 0112 93E7     		b	.L82
 901              	.LVL137:
 902              	.L114:
 903              	.LBE127:
 904              	.LBE126:
 905              		.loc 1 1800 0 discriminator 1
 906 0114 1C4B     		ldr	r3, .L128
 907              	.LVL138:
 908 0116 0093     		str	r3, [sp]
ARM GAS  C:\Users\jo\AppData\Local\Temp\cc6wN9Ut.s 			page 17


 909              	.LVL139:
 910 0118 1C49     		ldr	r1, .L128+4
 911              	.LVL140:
 912 011a 1F4A     		ldr	r2, .L128+16
 913              	.LVL141:
 914 011c 1D48     		ldr	r0, .L128+12
 915 011e 4FF4E163 		mov	r3, #1800
 916 0122 FFF7FEFF 		bl	chprintf.constprop.0
 917              	.LVL142:
 918              	.LBB128:
 919              	.LBB129:
 920              		.loc 3 416 0 discriminator 1
 921 0126 1C48     		ldr	r0, .L128+16
 922 0128 FFF7FEFF 		bl	chSysHalt
 923              	.LVL143:
 924 012c 2868     		ldr	r0, [r5]
 925 012e 85E7     		b	.L82
 926              	.LVL144:
 927              	.L121:
 928              	.LBE129:
 929              	.LBE128:
 930              		.loc 1 1673 0 discriminator 1
 931 0130 154B     		ldr	r3, .L128
 932 0132 0093     		str	r3, [sp]
 933 0134 1549     		ldr	r1, .L128+4
 934 0136 1A4A     		ldr	r2, .L128+24
 935 0138 1648     		ldr	r0, .L128+12
 936              	.LVL145:
 937 013a 40F28963 		movw	r3, #1673
 938 013e FFF7FEFF 		bl	chprintf.constprop.0
 939              	.LVL146:
 940              	.LBB130:
 941              	.LBB131:
 942              		.loc 3 416 0 discriminator 1
 943 0142 1748     		ldr	r0, .L128+24
 944 0144 FFF7FEFF 		bl	chSysHalt
 945              	.LVL147:
 946 0148 60E7     		b	.L71
 947              	.LVL148:
 948              	.L80:
 949              	.LBE131:
 950              	.LBE130:
 951              		.loc 1 1756 0
 952 014a 2868     		ldr	r0, [r5]
 953 014c 4368     		ldr	r3, [r0, #4]
 954 014e 1B7C     		ldrb	r3, [r3, #16]	@ zero_extendqisi2
 955 0150 03F00103 		and	r3, r3, #1
 956 0154 0B60     		str	r3, [r1]
 957              	.LVL149:
 958              		.loc 1 1757 0
 959 0156 71E7     		b	.L82
 960              	.LVL150:
 961              	.L79:
 962              		.loc 1 1708 0
 963 0158 2868     		ldr	r0, [r5]
 964 015a 0278     		ldrb	r2, [r0]	@ zero_extendqisi2
 965              	.LVL151:
ARM GAS  C:\Users\jo\AppData\Local\Temp\cc6wN9Ut.s 			page 18


 966 015c 02F0F003 		and	r3, r2, #240
 967 0160 202B     		cmp	r3, #32
 968 0162 08D0     		beq	.L84
 969 0164 402B     		cmp	r3, #64
 970 0166 0CD0     		beq	.L85
 971 0168 102B     		cmp	r3, #16
 972 016a 07D0     		beq	.L127
 973              		.loc 1 1719 0
 974 016c 0A60     		str	r2, [r1]
 975              	.LVL152:
 976 016e 65E7     		b	.L82
 977              	.LVL153:
 978              	.L126:
 979              		.loc 1 1730 0 discriminator 1
 980 0170 732B     		cmp	r3, #115
 981 0172 BDD1     		bne	.L88
 982 0174 B2E7     		b	.L87
 983              	.LVL154:
 984              	.L84:
 985              		.loc 1 1716 0
 986 0176 0223     		movs	r3, #2
 987 0178 0B60     		str	r3, [r1]
 988              	.LVL155:
 989              		.loc 1 1717 0
 990 017a 5FE7     		b	.L82
 991              	.LVL156:
 992              	.L127:
 993              		.loc 1 1713 0
 994 017c 0123     		movs	r3, #1
 995 017e 0B60     		str	r3, [r1]
 996              	.LVL157:
 997              		.loc 1 1714 0
 998 0180 5CE7     		b	.L82
 999              	.LVL158:
 1000              	.L85:
 1001              		.loc 1 1710 0
 1002 0182 0323     		movs	r3, #3
 1003 0184 0B60     		str	r3, [r1]
 1004              	.LVL159:
 1005              		.loc 1 1711 0
 1006 0186 59E7     		b	.L82
 1007              	.L129:
 1008              		.align	2
 1009              	.L128:
 1010 0188 34000000 		.word	.LC2
 1011 018c 00000000 		.word	.LC0
 1012 0190 6C000000 		.word	.LC4
 1013 0194 00000000 		.word	itm_port
 1014 0198 58000000 		.word	.LC3
 1015 019c 00000000 		.word	.LANCHOR1
 1016 01a0 28000000 		.word	.LC1
 1017              		.cfi_endproc
 1018              	.LFE285:
 1019              		.size	lwip_getsockopt_internal, .-lwip_getsockopt_internal
 1020 01a4 AFF30080 		.section	.text.lwip_selscan,"ax",%progbits
 1020      AFF30080 
 1020      AFF30080 
ARM GAS  C:\Users\jo\AppData\Local\Temp\cc6wN9Ut.s 			page 19


 1021              		.align	2
 1022              		.p2align 4,,15
 1023              		.thumb
 1024              		.thumb_func
 1025              		.type	lwip_selscan, %function
 1026              	lwip_selscan:
 1027              	.LFB277:
 1028              		.loc 1 1028 0
 1029              		.cfi_startproc
 1030              		@ args = 12, pretend = 0, frame = 24
 1031              		@ frame_needed = 0, uses_anonymous_args = 0
 1032              	.LVL160:
 1033 0000 2DE9F04F 		push	{r4, r5, r6, r7, r8, r9, r10, fp, lr}
 1034              		.cfi_def_cfa_offset 36
 1035              		.cfi_offset 4, -36
 1036              		.cfi_offset 5, -32
 1037              		.cfi_offset 6, -28
 1038              		.cfi_offset 7, -24
 1039              		.cfi_offset 8, -20
 1040              		.cfi_offset 9, -16
 1041              		.cfi_offset 10, -12
 1042              		.cfi_offset 11, -8
 1043              		.cfi_offset 14, -4
 1044 0004 87B0     		sub	sp, sp, #28
 1045              		.cfi_def_cfa_offset 64
 1046              	.LVL161:
 1047              	.LBB132:
 1048              		.loc 1 1034 0
 1049 0006 6C46     		mov	r4, sp
 1050 0008 0025     		movs	r5, #0
 1051              	.LVL162:
 1052              	.L131:
 1053              		.loc 1 1034 0 is_stmt 0 discriminator 3
 1054 000a 04F8015B 		strb	r5, [r4], #1
 1055              	.LVL163:
 1056 000e 02AE     		add	r6, sp, #8
 1057 0010 B442     		cmp	r4, r6
 1058 0012 FAD1     		bne	.L131
 1059 0014 3446     		mov	r4, r6
 1060              	.LVL164:
 1061              	.LBE132:
 1062              	.LBB133:
 1063              		.loc 1 1035 0 is_stmt 1
 1064 0016 0025     		movs	r5, #0
 1065              	.L132:
 1066              	.LVL165:
 1067              		.loc 1 1035 0 is_stmt 0 discriminator 3
 1068 0018 04F8015B 		strb	r5, [r4], #1
 1069              	.LVL166:
 1070 001c 04AE     		add	r6, sp, #16
 1071 001e B442     		cmp	r4, r6
 1072 0020 FAD1     		bne	.L132
 1073 0022 3446     		mov	r4, r6
 1074              	.LVL167:
 1075              	.LBE133:
 1076              	.LBB134:
 1077              		.loc 1 1036 0 is_stmt 1
ARM GAS  C:\Users\jo\AppData\Local\Temp\cc6wN9Ut.s 			page 20


 1078 0024 0025     		movs	r5, #0
 1079              	.L133:
 1080              	.LVL168:
 1081              		.loc 1 1036 0 is_stmt 0 discriminator 3
 1082 0026 04F8015B 		strb	r5, [r4], #1
 1083              	.LVL169:
 1084 002a 06AE     		add	r6, sp, #24
 1085 002c B442     		cmp	r4, r6
 1086 002e FAD1     		bne	.L133
 1087              	.LVL170:
 1088              	.LBE134:
 1089              		.loc 1 1040 0 is_stmt 1 discriminator 1
 1090 0030 0028     		cmp	r0, #0
 1091 0032 4FF0000C 		mov	ip, #0
 1092 0036 5BDD     		ble	.L134
 1093 0038 DFF80CE1 		ldr	lr, .L175
 1094              		.loc 1 1040 0 is_stmt 0
 1095 003c 6446     		mov	r4, ip
 1096              	.LVL171:
 1097              	.L140:
 1098              	.LBB135:
 1099              	.LBB136:
 1100              	.LBB137:
 1101              		.loc 1 225 0 is_stmt 1
 1102 003e 012C     		cmp	r4, #1
 1103 0040 71D9     		bls	.L173
 1104              	.LBE137:
 1105              	.LBE136:
 1106              		.loc 1 1044 0
 1107 0042 0025     		movs	r5, #0
 1108              		.loc 1 1043 0
 1109 0044 A846     		mov	r8, r5
 1110              		.loc 1 1042 0
 1111 0046 AB46     		mov	fp, r5
 1112              		.loc 1 1041 0
 1113 0048 AA46     		mov	r10, r5
 1114              	.LVL172:
 1115              	.L135:
 1116              		.loc 1 1057 0
 1117 004a C9B1     		cbz	r1, .L136
 1118              		.loc 1 1057 0 is_stmt 0 discriminator 1
 1119 004c 6709     		lsrs	r7, r4, #5
 1120 004e 04F01F09 		and	r9, r4, #31
 1121 0052 51F82760 		ldr	r6, [r1, r7, lsl #2]
 1122 0056 46FA09F6 		asr	r6, r6, r9
 1123 005a F607     		lsls	r6, r6, #31
 1124 005c 10D5     		bpl	.L136
 1125              		.loc 1 1057 0 discriminator 2
 1126 005e BAF1000F 		cmp	r10, #0
 1127 0062 5AD0     		beq	.L174
 1128              	.LVL173:
 1129              	.L137:
 1130              		.loc 1 1058 0 is_stmt 1
 1131 0064 06AE     		add	r6, sp, #24
 1132 0066 06EB8707 		add	r7, r6, r7, lsl #2
 1133 006a 0126     		movs	r6, #1
 1134 006c 06FA09F9 		lsl	r9, r6, r9
ARM GAS  C:\Users\jo\AppData\Local\Temp\cc6wN9Ut.s 			page 21


 1135 0070 57F8186C 		ldr	r6, [r7, #-24]
 1136 0074 46EA0906 		orr	r6, r6, r9
 1137              		.loc 1 1060 0
 1138 0078 0CF1010C 		add	ip, ip, #1
 1139              	.LVL174:
 1140              		.loc 1 1058 0
 1141 007c 47F8186C 		str	r6, [r7, #-24]
 1142              	.L136:
 1143              		.loc 1 1063 0
 1144 0080 CAB1     		cbz	r2, .L138
 1145              		.loc 1 1063 0 is_stmt 0 discriminator 1
 1146 0082 6709     		lsrs	r7, r4, #5
 1147 0084 04F01F09 		and	r9, r4, #31
 1148 0088 52F82760 		ldr	r6, [r2, r7, lsl #2]
 1149 008c 46FA09F6 		asr	r6, r6, r9
 1150 0090 F607     		lsls	r6, r6, #31
 1151 0092 10D5     		bpl	.L138
 1152              		.loc 1 1063 0 discriminator 2
 1153 0094 B8F1000F 		cmp	r8, #0
 1154 0098 0DD0     		beq	.L138
 1155              		.loc 1 1064 0 is_stmt 1
 1156 009a 06AE     		add	r6, sp, #24
 1157 009c 06EB8707 		add	r7, r6, r7, lsl #2
 1158 00a0 0126     		movs	r6, #1
 1159 00a2 06FA09F8 		lsl	r8, r6, r9
 1160              	.LVL175:
 1161 00a6 57F8106C 		ldr	r6, [r7, #-16]
 1162 00aa 46EA0806 		orr	r6, r6, r8
 1163              		.loc 1 1066 0
 1164 00ae 0CF1010C 		add	ip, ip, #1
 1165              	.LVL176:
 1166              		.loc 1 1064 0
 1167 00b2 47F8106C 		str	r6, [r7, #-16]
 1168              	.L138:
 1169              		.loc 1 1069 0
 1170 00b6 B3B1     		cbz	r3, .L139
 1171              		.loc 1 1069 0 is_stmt 0 discriminator 1
 1172 00b8 6709     		lsrs	r7, r4, #5
 1173 00ba 04F01F08 		and	r8, r4, #31
 1174 00be 53F82760 		ldr	r6, [r3, r7, lsl #2]
 1175 00c2 46FA08F6 		asr	r6, r6, r8
 1176 00c6 F607     		lsls	r6, r6, #31
 1177 00c8 0DD5     		bpl	.L139
 1178              		.loc 1 1069 0 discriminator 2
 1179 00ca 65B1     		cbz	r5, .L139
 1180              		.loc 1 1070 0 is_stmt 1
 1181 00cc 06AD     		add	r5, sp, #24
 1182              	.LVL177:
 1183 00ce 05EB8707 		add	r7, r5, r7, lsl #2
 1184 00d2 0125     		movs	r5, #1
 1185 00d4 05FA08F6 		lsl	r6, r5, r8
 1186 00d8 57F8085C 		ldr	r5, [r7, #-8]
 1187 00dc 3543     		orrs	r5, r5, r6
 1188              		.loc 1 1072 0
 1189 00de 0CF1010C 		add	ip, ip, #1
 1190              	.LVL178:
 1191              		.loc 1 1070 0
ARM GAS  C:\Users\jo\AppData\Local\Temp\cc6wN9Ut.s 			page 22


 1192 00e2 47F8085C 		str	r5, [r7, #-8]
 1193              	.L139:
 1194              	.LBE135:
 1195              		.loc 1 1040 0 discriminator 2
 1196 00e6 0134     		adds	r4, r4, #1
 1197              	.LVL179:
 1198 00e8 8442     		cmp	r4, r0
 1199 00ea 0EF1180E 		add	lr, lr, #24
 1200 00ee A6D1     		bne	.L140
 1201              	.LVL180:
 1202              	.L134:
 1203              		.loc 1 1076 0
 1204 00f0 9DE80300 		ldmia	sp, {r0, r1}
 1205              	.LVL181:
 1206 00f4 109B     		ldr	r3, [sp, #64]
 1207              	.LVL182:
 1208 00f6 83E80300 		stmia	r3, {r0, r1}
 1209              		.loc 1 1077 0
 1210 00fa 02AB     		add	r3, sp, #8
 1211 00fc 93E80300 		ldmia	r3, {r0, r1}
 1212 0100 119B     		ldr	r3, [sp, #68]
 1213 0102 83E80300 		stmia	r3, {r0, r1}
 1214              		.loc 1 1078 0
 1215 0106 04AB     		add	r3, sp, #16
 1216 0108 93E80300 		ldmia	r3, {r0, r1}
 1217 010c 129B     		ldr	r3, [sp, #72]
 1218 010e 83E80300 		stmia	r3, {r0, r1}
 1219              		.loc 1 1082 0
 1220 0112 6046     		mov	r0, ip
 1221 0114 07B0     		add	sp, sp, #28
 1222              		.cfi_remember_state
 1223              		.cfi_def_cfa_offset 36
 1224              		@ sp needed
 1225 0116 BDE8F08F 		pop	{r4, r5, r6, r7, r8, r9, r10, fp, pc}
 1226              	.LVL183:
 1227              	.L174:
 1228              		.cfi_restore_state
 1229              	.LBB140:
 1230              		.loc 1 1057 0 discriminator 3
 1231 011a 0FFA8BFB 		sxth	fp, fp
 1232 011e BBF1000F 		cmp	fp, #0
 1233 0122 9FDC     		bgt	.L137
 1234 0124 ACE7     		b	.L136
 1235              	.LVL184:
 1236              	.L173:
 1237              	.LBB139:
 1238              	.LBB138:
 1239              		.loc 1 228 0
 1240 0126 DEF80050 		ldr	r5, [lr]
 1241 012a 45B1     		cbz	r5, .L143
 1242              	.LBE138:
 1243              	.LBE139:
 1244              		.loc 1 1049 0
 1245 012c DEF804A0 		ldr	r10, [lr, #4]
 1246              	.LVL185:
 1247              		.loc 1 1050 0
 1248 0130 BEF80AB0 		ldrh	fp, [lr, #10]
ARM GAS  C:\Users\jo\AppData\Local\Temp\cc6wN9Ut.s 			page 23


 1249              	.LVL186:
 1250              		.loc 1 1051 0
 1251 0134 BEF80C80 		ldrh	r8, [lr, #12]
 1252              	.LVL187:
 1253              		.loc 1 1052 0
 1254 0138 BEF80E50 		ldrh	r5, [lr, #14]
 1255              	.LVL188:
 1256 013c 85E7     		b	.L135
 1257              	.LVL189:
 1258              	.L143:
 1259              		.loc 1 1043 0
 1260 013e A846     		mov	r8, r5
 1261              		.loc 1 1042 0
 1262 0140 AB46     		mov	fp, r5
 1263              		.loc 1 1041 0
 1264 0142 AA46     		mov	r10, r5
 1265 0144 81E7     		b	.L135
 1266              	.L176:
 1267 0146 00BF     		.align	2
 1268              	.L175:
 1269 0148 00000000 		.word	.LANCHOR0
 1270              	.LBE140:
 1271              		.cfi_endproc
 1272              	.LFE277:
 1273              		.size	lwip_selscan, .-lwip_selscan
 1274 014c AFF30080 		.section	.text.event_callback,"ax",%progbits
 1275              		.align	2
 1276              		.p2align 4,,15
 1277              		.thumb
 1278              		.thumb_func
 1279              		.type	event_callback, %function
 1280              	event_callback:
 1281              	.LFB279:
 1282              		.loc 1 1248 0
 1283              		.cfi_startproc
 1284              		@ args = 0, pretend = 0, frame = 0
 1285              		@ frame_needed = 0, uses_anonymous_args = 0
 1286              	.LVL190:
 1287              		.loc 1 1258 0
 1288 0000 0028     		cmp	r0, #0
 1289 0002 00F08B80 		beq	.L226
 1290              		.loc 1 1248 0
 1291 0006 2DE9F043 		push	{r4, r5, r6, r7, r8, r9, lr}
 1292              		.cfi_def_cfa_offset 28
 1293              		.cfi_offset 4, -28
 1294              		.cfi_offset 5, -24
 1295              		.cfi_offset 6, -20
 1296              		.cfi_offset 7, -16
 1297              		.cfi_offset 8, -12
 1298              		.cfi_offset 9, -8
 1299              		.cfi_offset 14, -4
 1300              		.loc 1 1259 0
 1301 000a 8569     		ldr	r5, [r0, #24]
 1302              	.LVL191:
 1303              		.loc 1 1260 0
 1304 000c 002D     		cmp	r5, #0
 1305              		.loc 1 1248 0
ARM GAS  C:\Users\jo\AppData\Local\Temp\cc6wN9Ut.s 			page 24


 1306 000e 83B0     		sub	sp, sp, #12
 1307              		.cfi_def_cfa_offset 40
 1308              		.loc 1 1260 0
 1309 0010 C0F28580 		blt	.L228
 1310              	.LVL192:
 1311              	.LBB141:
 1312              	.LBB142:
 1313              		.loc 1 199 0
 1314 0014 012D     		cmp	r5, #1
 1315 0016 02DD     		ble	.L229
 1316              	.LVL193:
 1317              	.L177:
 1318              	.LBE142:
 1319              	.LBE141:
 1320              		.loc 1 1368 0
 1321 0018 03B0     		add	sp, sp, #12
 1322              		.cfi_remember_state
 1323              		.cfi_def_cfa_offset 28
 1324              		@ sp needed
 1325 001a BDE8F083 		pop	{r4, r5, r6, r7, r8, r9, pc}
 1326              	.LVL194:
 1327              	.L229:
 1328              		.cfi_restore_state
 1329              	.LBB144:
 1330              	.LBB143:
 1331              		.loc 1 207 0
 1332 001e 6C00     		lsls	r4, r5, #1
 1333 0020 6319     		adds	r3, r4, r5
 1334 0022 424F     		ldr	r7, .L231
 1335 0024 57F83330 		ldr	r3, [r7, r3, lsl #3]
 1336 0028 002B     		cmp	r3, #0
 1337 002a F5D0     		beq	.L177
 1338              	.LBE143:
 1339              	.LBE144:
 1340              		.loc 1 1288 0
 1341 002c 0429     		cmp	r1, #4
 1342 002e 68D8     		bhi	.L189
 1343 0030 DFE801F0 		tbb	[pc, r1]
 1344              	.L196:
 1345 0034 49       		.byte	(.L183-.L196)/2
 1346 0035 5C       		.byte	(.L185-.L196)/2
 1347 0036 50       		.byte	(.L186-.L196)/2
 1348 0037 56       		.byte	(.L187-.L196)/2
 1349 0038 03       		.byte	(.L188-.L196)/2
 1350 0039 00       		.p2align 1
 1351              	.L188:
 1352              		.loc 1 1302 0
 1353 003a 6319     		adds	r3, r4, r5
 1354 003c 07EBC303 		add	r3, r7, r3, lsl #3
 1355 0040 0122     		movs	r2, #1
 1356              	.LVL195:
 1357 0042 DA81     		strh	r2, [r3, #14]	@ movhi
 1358              	.LVL196:
 1359              	.L184:
 1360              		.loc 1 1309 0
 1361 0044 2C44     		add	r4, r4, r5
 1362 0046 07EBC407 		add	r7, r7, r4, lsl #3
ARM GAS  C:\Users\jo\AppData\Local\Temp\cc6wN9Ut.s 			page 25


 1363 004a 7B69     		ldr	r3, [r7, #20]
 1364 004c 002B     		cmp	r3, #0
 1365 004e E3D0     		beq	.L177
 1366 0050 4FF00109 		mov	r9, #1
 1367 0054 DFF8EC80 		ldr	r8, .L231+24
 1368 0058 09FA05F9 		lsl	r9, r9, r5
 1369              	.LVL197:
 1370              	.L194:
 1371              		.loc 1 1322 0
 1372 005c D8F80040 		ldr	r4, [r8]
 1373              	.LVL198:
 1374 0060 002C     		cmp	r4, #0
 1375 0062 D9D0     		beq	.L177
 1376 0064 324D     		ldr	r5, .L231+4
 1377 0066 0BE0     		b	.L195
 1378              	.LVL199:
 1379              	.L192:
 1380              	.LBB145:
 1381              		.loc 1 1346 0
 1382 0068 0123     		movs	r3, #1
 1383 006a 6361     		str	r3, [r4, #20]
 1384              		.loc 1 1352 0
 1385 006c 04F11800 		add	r0, r4, #24
 1386 0070 FFF7FEFF 		bl	sys_sem_signal_S
 1387              	.LVL200:
 1388              	.L190:
 1389              	.LBE145:
 1390              		.loc 1 1362 0
 1391 0074 2B68     		ldr	r3, [r5]
 1392 0076 9E42     		cmp	r6, r3
 1393 0078 F0D1     		bne	.L194
 1394              		.loc 1 1322 0 discriminator 2
 1395 007a 2468     		ldr	r4, [r4]
 1396              	.LVL201:
 1397 007c 002C     		cmp	r4, #0
 1398 007e CBD0     		beq	.L177
 1399              	.LVL202:
 1400              	.L195:
 1401              		.loc 1 1326 0
 1402 0080 6369     		ldr	r3, [r4, #20]
 1403              		.loc 1 1324 0
 1404 0082 2E68     		ldr	r6, [r5]
 1405              	.LVL203:
 1406              		.loc 1 1326 0
 1407 0084 002B     		cmp	r3, #0
 1408 0086 F5D1     		bne	.L190
 1409              	.LVL204:
 1410              	.LBB146:
 1411              		.loc 1 1330 0
 1412 0088 B7F90A30 		ldrsh	r3, [r7, #10]
 1413 008c 002B     		cmp	r3, #0
 1414 008e 05DD     		ble	.L191
 1415              		.loc 1 1331 0
 1416 0090 A368     		ldr	r3, [r4, #8]
 1417 0092 1BB1     		cbz	r3, .L191
 1418 0094 1B68     		ldr	r3, [r3]
 1419              		.loc 1 1331 0 is_stmt 0 discriminator 1
ARM GAS  C:\Users\jo\AppData\Local\Temp\cc6wN9Ut.s 			page 26


 1420 0096 19EA030F 		tst	r9, r3
 1421 009a E5D1     		bne	.L192
 1422              	.L191:
 1423              		.loc 1 1335 0 is_stmt 1
 1424 009c 07F10803 		add	r3, r7, #8
 1425 00a0 9A88     		ldrh	r2, [r3, #4]
 1426 00a2 52B3     		cbz	r2, .L230
 1427              		.loc 1 1336 0 discriminator 1
 1428 00a4 E368     		ldr	r3, [r4, #12]
 1429 00a6 1BB1     		cbz	r3, .L193
 1430 00a8 1B68     		ldr	r3, [r3]
 1431              		.loc 1 1336 0 is_stmt 0 discriminator 2
 1432 00aa 19EA030F 		tst	r9, r3
 1433 00ae DBD1     		bne	.L192
 1434              	.L193:
 1435              		.loc 1 1340 0 is_stmt 1
 1436 00b0 FB89     		ldrh	r3, [r7, #14]
 1437 00b2 002B     		cmp	r3, #0
 1438 00b4 DED0     		beq	.L190
 1439              	.L199:
 1440              		.loc 1 1341 0 discriminator 1
 1441 00b6 2369     		ldr	r3, [r4, #16]
 1442 00b8 002B     		cmp	r3, #0
 1443 00ba DBD0     		beq	.L190
 1444 00bc 1B68     		ldr	r3, [r3]
 1445              		.loc 1 1341 0 is_stmt 0 discriminator 2
 1446 00be 19EA030F 		tst	r9, r3
 1447 00c2 D7D0     		beq	.L190
 1448 00c4 D0E7     		b	.L192
 1449              	.LVL205:
 1450              	.L183:
 1451              	.LBE146:
 1452              		.loc 1 1290 0 is_stmt 1
 1453 00c6 6319     		adds	r3, r4, r5
 1454 00c8 07EBC303 		add	r3, r7, r3, lsl #3
 1455 00cc 5A89     		ldrh	r2, [r3, #10]
 1456              	.LVL206:
 1457 00ce 0132     		adds	r2, r2, #1
 1458 00d0 5A81     		strh	r2, [r3, #10]	@ movhi
 1459              		.loc 1 1291 0
 1460 00d2 B7E7     		b	.L184
 1461              	.LVL207:
 1462              	.L186:
 1463              		.loc 1 1296 0
 1464 00d4 6319     		adds	r3, r4, r5
 1465 00d6 07EBC303 		add	r3, r7, r3, lsl #3
 1466 00da 0122     		movs	r2, #1
 1467              	.LVL208:
 1468 00dc 9A81     		strh	r2, [r3, #12]	@ movhi
 1469              		.loc 1 1297 0
 1470 00de B1E7     		b	.L184
 1471              	.LVL209:
 1472              	.L187:
 1473              		.loc 1 1299 0
 1474 00e0 6319     		adds	r3, r4, r5
 1475 00e2 07EBC303 		add	r3, r7, r3, lsl #3
 1476 00e6 0022     		movs	r2, #0
ARM GAS  C:\Users\jo\AppData\Local\Temp\cc6wN9Ut.s 			page 27


 1477              	.LVL210:
 1478 00e8 9A81     		strh	r2, [r3, #12]	@ movhi
 1479              		.loc 1 1300 0
 1480 00ea ABE7     		b	.L184
 1481              	.LVL211:
 1482              	.L185:
 1483              		.loc 1 1293 0
 1484 00ec 6319     		adds	r3, r4, r5
 1485 00ee 07EBC303 		add	r3, r7, r3, lsl #3
 1486 00f2 5A89     		ldrh	r2, [r3, #10]
 1487              	.LVL212:
 1488 00f4 013A     		subs	r2, r2, #1
 1489 00f6 5A81     		strh	r2, [r3, #10]	@ movhi
 1490              		.loc 1 1294 0
 1491 00f8 A4E7     		b	.L184
 1492              	.LVL213:
 1493              	.L230:
 1494              	.LBB147:
 1495              		.loc 1 1340 0
 1496 00fa DB88     		ldrh	r3, [r3, #6]
 1497 00fc 002B     		cmp	r3, #0
 1498 00fe DAD1     		bne	.L199
 1499 0100 B8E7     		b	.L190
 1500              	.LVL214:
 1501              	.L189:
 1502              	.LBE147:
 1503              		.loc 1 1305 0 discriminator 1
 1504 0102 0C4B     		ldr	r3, .L231+8
 1505 0104 0093     		str	r3, [sp]
 1506 0106 0C49     		ldr	r1, .L231+12
 1507              	.LVL215:
 1508 0108 0C4A     		ldr	r2, .L231+16
 1509              	.LVL216:
 1510 010a 0D48     		ldr	r0, .L231+20
 1511              	.LVL217:
 1512 010c 40F21953 		movw	r3, #1305
 1513 0110 FFF7FEFF 		bl	chprintf.constprop.0
 1514              	.LVL218:
 1515              	.LBB148:
 1516              	.LBB149:
 1517              		.loc 3 416 0 discriminator 1
 1518 0114 0948     		ldr	r0, .L231+16
 1519 0116 FFF7FEFF 		bl	chSysHalt
 1520              	.LVL219:
 1521 011a 93E7     		b	.L184
 1522              	.LVL220:
 1523              	.L226:
 1524              		.cfi_def_cfa_offset 0
 1525              		.cfi_restore 4
 1526              		.cfi_restore 5
 1527              		.cfi_restore 6
 1528              		.cfi_restore 7
 1529              		.cfi_restore 8
 1530              		.cfi_restore 9
 1531              		.cfi_restore 14
 1532 011c 7047     		bx	lr
 1533              	.LVL221:
ARM GAS  C:\Users\jo\AppData\Local\Temp\cc6wN9Ut.s 			page 28


 1534              	.L228:
 1535              		.cfi_def_cfa_offset 40
 1536              		.cfi_offset 4, -28
 1537              		.cfi_offset 5, -24
 1538              		.cfi_offset 6, -20
 1539              		.cfi_offset 7, -16
 1540              		.cfi_offset 8, -12
 1541              		.cfi_offset 9, -8
 1542              		.cfi_offset 14, -4
 1543              	.LBE149:
 1544              	.LBE148:
 1545              		.loc 1 1268 0
 1546 011e 0029     		cmp	r1, #0
 1547 0120 7FF47AAF 		bne	.L177
 1548              		.loc 1 1269 0
 1549 0124 013D     		subs	r5, r5, #1
 1550              	.LVL222:
 1551 0126 8561     		str	r5, [r0, #24]
 1552              	.LVL223:
 1553 0128 76E7     		b	.L177
 1554              	.L232:
 1555 012a 00BF     		.align	2
 1556              	.L231:
 1557 012c 00000000 		.word	.LANCHOR0
 1558 0130 00000000 		.word	.LANCHOR3
 1559 0134 34000000 		.word	.LC2
 1560 0138 00000000 		.word	.LC0
 1561 013c 7C000000 		.word	.LC5
 1562 0140 00000000 		.word	itm_port
 1563 0144 00000000 		.word	.LANCHOR2
 1564              		.cfi_endproc
 1565              	.LFE279:
 1566              		.size	event_callback, .-event_callback
 1567 0148 AFF30080 		.section	.text.lwip_socket_init,"ax",%progbits
 1567      AFF30080 
 1568              		.align	2
 1569              		.p2align 4,,15
 1570              		.global	lwip_socket_init
 1571              		.thumb
 1572              		.thumb_func
 1573              		.type	lwip_socket_init, %function
 1574              	lwip_socket_init:
 1575              	.LFB260:
 1576              		.loc 1 185 0
 1577              		.cfi_startproc
 1578              		@ args = 0, pretend = 0, frame = 0
 1579              		@ frame_needed = 0, uses_anonymous_args = 0
 1580              		@ link register save eliminated.
 1581 0000 7047     		bx	lr
 1582              		.cfi_endproc
 1583              	.LFE260:
 1584              		.size	lwip_socket_init, .-lwip_socket_init
 1585 0002 00BFAFF3 		.section	.text.lwip_accept,"ax",%progbits
 1585      0080AFF3 
 1585      0080AFF3 
 1585      0080
 1586              		.align	2
ARM GAS  C:\Users\jo\AppData\Local\Temp\cc6wN9Ut.s 			page 29


 1587              		.p2align 4,,15
 1588              		.global	lwip_accept
 1589              		.thumb
 1590              		.thumb_func
 1591              		.type	lwip_accept, %function
 1592              	lwip_accept:
 1593              	.LFB265:
 1594              		.loc 1 313 0
 1595              		.cfi_startproc
 1596              		@ args = 0, pretend = 0, frame = 32
 1597              		@ frame_needed = 0, uses_anonymous_args = 0
 1598              	.LVL224:
 1599              	.LBB150:
 1600              	.LBB151:
 1601              		.loc 1 199 0
 1602 0000 0128     		cmp	r0, #1
 1603              	.LBE151:
 1604              	.LBE150:
 1605              		.loc 1 313 0
 1606 0002 0346     		mov	r3, r0
 1607              	.LVL225:
 1608              	.LBB155:
 1609              	.LBB152:
 1610              		.loc 1 199 0
 1611 0004 02D9     		bls	.L262
 1612              	.LBE152:
 1613              	.LBE155:
 1614              		.loc 1 326 0
 1615 0006 4FF0FF30 		mov	r0, #-1
 1616              	.LVL226:
 1617              		.loc 1 402 0
 1618 000a 7047     		bx	lr
 1619              	.LVL227:
 1620              	.L262:
 1621              		.loc 1 313 0
 1622 000c 2DE9F043 		push	{r4, r5, r6, r7, r8, r9, lr}
 1623              		.cfi_def_cfa_offset 28
 1624              		.cfi_offset 4, -28
 1625              		.cfi_offset 5, -24
 1626              		.cfi_offset 6, -20
 1627              		.cfi_offset 7, -16
 1628              		.cfi_offset 8, -12
 1629              		.cfi_offset 9, -8
 1630              		.cfi_offset 14, -4
 1631              	.LBB156:
 1632              	.LBB153:
 1633              		.loc 1 207 0
 1634 0010 4FEA4008 		lsl	r8, r0, #1
 1635 0014 08EB0004 		add	r4, r8, r0
 1636 0018 E400     		lsls	r4, r4, #3
 1637 001a 6D4F     		ldr	r7, .L269
 1638 001c 3859     		ldr	r0, [r7, r4]
 1639              	.LVL228:
 1640              	.LBE153:
 1641              	.LBE156:
 1642              		.loc 1 313 0
 1643 001e 8BB0     		sub	sp, sp, #44
ARM GAS  C:\Users\jo\AppData\Local\Temp\cc6wN9Ut.s 			page 30


 1644              		.cfi_def_cfa_offset 72
 1645              	.LBB157:
 1646              	.LBB154:
 1647              		.loc 1 207 0
 1648 0020 3C44     		add	r4, r4, r7
 1649 0022 0028     		cmp	r0, #0
 1650 0024 00F08A80 		beq	.L263
 1651              	.LBE154:
 1652              	.LBE157:
 1653              		.loc 1 329 0
 1654 0028 057F     		ldrb	r5, [r0, #28]	@ zero_extendqisi2
 1655 002a AD07     		lsls	r5, r5, #30
 1656 002c 04D5     		bpl	.L237
 1657              		.loc 1 329 0 is_stmt 0 discriminator 1
 1658 002e B4F90A50 		ldrsh	r5, [r4, #10]
 1659 0032 002D     		cmp	r5, #0
 1660 0034 40F3A080 		ble	.L264
 1661              	.L237:
 1662 0038 0D46     		mov	r5, r1
 1663              		.loc 1 336 0 is_stmt 1
 1664 003a 04A9     		add	r1, sp, #16
 1665              	.LVL229:
 1666 003c 1446     		mov	r4, r2
 1667 003e 1E46     		mov	r6, r3
 1668 0040 FFF7FEFF 		bl	netconn_accept
 1669              	.LVL230:
 1670              		.loc 1 337 0
 1671 0044 70B1     		cbz	r0, .L238
 1672              		.loc 1 339 0
 1673 0046 08EB0603 		add	r3, r8, r6
 1674 004a DB00     		lsls	r3, r3, #3
 1675 004c 6049     		ldr	r1, .L269
 1676 004e FA58     		ldr	r2, [r7, r3]
 1677 0050 1278     		ldrb	r2, [r2]	@ zero_extendqisi2
 1678 0052 102A     		cmp	r2, #16
 1679 0054 00F0AA80 		beq	.L239
 1680              		.loc 1 340 0
 1681 0058 0B44     		add	r3, r3, r1
 1682 005a 5F20     		movs	r0, #95
 1683              	.LVL231:
 1684 005c 1861     		str	r0, [r3, #16]
 1685              	.LVL232:
 1686              	.L259:
 1687              		.loc 1 402 0
 1688 005e 0BB0     		add	sp, sp, #44
 1689              		.cfi_remember_state
 1690              		.cfi_def_cfa_offset 28
 1691              		@ sp needed
 1692 0060 BDE8F083 		pop	{r4, r5, r6, r7, r8, r9, pc}
 1693              	.LVL233:
 1694              	.L238:
 1695              		.cfi_restore_state
 1696              		.loc 1 346 0
 1697 0064 0498     		ldr	r0, [sp, #16]
 1698              	.LVL234:
 1699 0066 0028     		cmp	r0, #0
 1700 0068 6BD0     		beq	.L265
ARM GAS  C:\Users\jo\AppData\Local\Temp\cc6wN9Ut.s 			page 31


 1701              	.L241:
 1702              		.loc 1 348 0 discriminator 1
 1703 006a 037F     		ldrb	r3, [r0, #28]	@ zero_extendqisi2
 1704 006c 43F00803 		orr	r3, r3, #8
 1705 0070 0377     		strb	r3, [r0, #28]
 1706              		.loc 1 351 0 discriminator 1
 1707 0072 05A9     		add	r1, sp, #20
 1708 0074 0DF10E02 		add	r2, sp, #14
 1709 0078 0023     		movs	r3, #0
 1710 007a FFF7FEFF 		bl	netconn_getaddr
 1711              	.LVL235:
 1712              		.loc 1 352 0 discriminator 1
 1713 007e 8146     		mov	r9, r0
 1714 0080 0028     		cmp	r0, #0
 1715 0082 7ED1     		bne	.L266
 1716              		.loc 1 362 0
 1717 0084 FDB1     		cbz	r5, .L244
 1718              		.loc 1 363 0
 1719 0086 002C     		cmp	r4, #0
 1720 0088 69D0     		beq	.L267
 1721              	.LVL236:
 1722              	.L245:
 1723              		.loc 1 364 0
 1724 008a 0023     		movs	r3, #0
 1725              		.loc 1 365 0
 1726 008c 4FF01009 		mov	r9, #16
 1727              		.loc 1 366 0
 1728 0090 0222     		movs	r2, #2
 1729              		.loc 1 367 0
 1730 0092 BDF80E00 		ldrh	r0, [sp, #14]
 1731              		.loc 1 364 0
 1732 0096 0693     		str	r3, [sp, #24]
 1733 0098 0793     		str	r3, [sp, #28]
 1734 009a 0893     		str	r3, [sp, #32]
 1735 009c 0993     		str	r3, [sp, #36]
 1736              		.loc 1 366 0
 1737 009e 8DF81920 		strb	r2, [sp, #25]
 1738              		.loc 1 365 0
 1739 00a2 8DF81890 		strb	r9, [sp, #24]
 1740              		.loc 1 367 0
 1741 00a6 FFF7FEFF 		bl	lwip_htons
 1742              	.LVL237:
 1743              		.loc 1 370 0
 1744 00aa 2268     		ldr	r2, [r4]
 1745              		.loc 1 368 0
 1746 00ac 059B     		ldr	r3, [sp, #20]
 1747              		.loc 1 367 0
 1748 00ae ADF81A00 		strh	r0, [sp, #26]	@ movhi
 1749              		.loc 1 370 0
 1750 00b2 4A45     		cmp	r2, r9
 1751              		.loc 1 371 0
 1752 00b4 84BF     		itt	hi
 1753 00b6 C4F80090 		strhi	r9, [r4]
 1754 00ba 4A46     		movhi	r2, r9
 1755              		.loc 1 373 0
 1756 00bc 2846     		mov	r0, r5
 1757 00be 06A9     		add	r1, sp, #24
ARM GAS  C:\Users\jo\AppData\Local\Temp\cc6wN9Ut.s 			page 32


 1758              		.loc 1 368 0
 1759 00c0 0793     		str	r3, [sp, #28]
 1760              		.loc 1 373 0
 1761 00c2 FFF7FEFF 		bl	memcpy
 1762              	.LVL238:
 1763              	.L244:
 1764              		.loc 1 376 0
 1765 00c6 0498     		ldr	r0, [sp, #16]
 1766 00c8 0121     		movs	r1, #1
 1767 00ca FFF7FEFF 		bl	alloc_socket
 1768              	.LVL239:
 1769              		.loc 1 377 0
 1770 00ce 431C     		adds	r3, r0, #1
 1771              		.loc 1 376 0
 1772 00d0 0446     		mov	r4, r0
 1773              	.LVL240:
 1774              		.loc 1 377 0
 1775 00d2 72D0     		beq	.L268
 1776              		.loc 1 382 0
 1777 00d4 0128     		cmp	r0, #1
 1778 00d6 0BD9     		bls	.L248
 1779              		.loc 1 382 0 is_stmt 0 discriminator 1
 1780 00d8 3E4B     		ldr	r3, .L269+4
 1781 00da 0093     		str	r3, [sp]
 1782 00dc 3E48     		ldr	r0, .L269+8
 1783              	.LVL241:
 1784 00de 3F49     		ldr	r1, .L269+12
 1785 00e0 3F4A     		ldr	r2, .L269+16
 1786 00e2 4FF4BF73 		mov	r3, #382
 1787 00e6 FFF7FEFF 		bl	chprintf.constprop.0
 1788              	.LVL242:
 1789              	.LBB158:
 1790              	.LBB159:
 1791              		.loc 3 416 0 is_stmt 1 discriminator 1
 1792 00ea 3D48     		ldr	r0, .L269+16
 1793 00ec FFF7FEFF 		bl	chSysHalt
 1794              	.LVL243:
 1795              	.L248:
 1796              	.LBE159:
 1797              	.LBE158:
 1798              		.loc 1 383 0
 1799 00f0 049D     		ldr	r5, [sp, #16]
 1800              	.LVL244:
 1801 00f2 3C4B     		ldr	r3, .L269+20
 1802 00f4 AA6A     		ldr	r2, [r5, #40]
 1803 00f6 9A42     		cmp	r2, r3
 1804 00f8 0CD0     		beq	.L249
 1805              		.loc 1 383 0 is_stmt 0 discriminator 1
 1806 00fa 364B     		ldr	r3, .L269+4
 1807 00fc 0093     		str	r3, [sp]
 1808 00fe 3749     		ldr	r1, .L269+12
 1809 0100 394A     		ldr	r2, .L269+24
 1810 0102 3548     		ldr	r0, .L269+8
 1811 0104 40F27F13 		movw	r3, #383
 1812 0108 FFF7FEFF 		bl	chprintf.constprop.0
 1813              	.LVL245:
 1814              	.LBB160:
ARM GAS  C:\Users\jo\AppData\Local\Temp\cc6wN9Ut.s 			page 33


 1815              	.LBB161:
 1816              		.loc 3 416 0 is_stmt 1 discriminator 1
 1817 010c 3648     		ldr	r0, .L269+24
 1818 010e FFF7FEFF 		bl	chSysHalt
 1819              	.LVL246:
 1820 0112 049D     		ldr	r5, [sp, #16]
 1821              	.LVL247:
 1822              	.L249:
 1823              	.LBE161:
 1824              	.LBE160:
 1825              		.loc 1 392 0
 1826 0114 A969     		ldr	r1, [r5, #24]
 1827 0116 04EB4402 		add	r2, r4, r4, lsl #1
 1828 011a 07EBC202 		add	r2, r7, r2, lsl #3
 1829              		.loc 1 400 0
 1830 011e 08EB0603 		add	r3, r8, r6
 1831 0122 5089     		ldrh	r0, [r2, #10]
 1832 0124 07EBC303 		add	r3, r7, r3, lsl #3
 1833 0128 0138     		subs	r0, r0, #1
 1834              		.loc 1 392 0
 1835 012a 411A     		subs	r1, r0, r1
 1836              		.loc 1 400 0
 1837 012c 0026     		movs	r6, #0
 1838              	.LVL248:
 1839              		.loc 1 401 0
 1840 012e 2046     		mov	r0, r4
 1841              		.loc 1 392 0
 1842 0130 5181     		strh	r1, [r2, #10]	@ movhi
 1843              		.loc 1 393 0
 1844 0132 AC61     		str	r4, [r5, #24]
 1845              		.loc 1 400 0
 1846 0134 1E61     		str	r6, [r3, #16]
 1847              		.loc 1 402 0
 1848 0136 0BB0     		add	sp, sp, #44
 1849              		.cfi_remember_state
 1850              		.cfi_def_cfa_offset 28
 1851              		@ sp needed
 1852 0138 BDE8F083 		pop	{r4, r5, r6, r7, r8, r9, pc}
 1853              	.LVL249:
 1854              	.L263:
 1855              		.cfi_restore_state
 1856              		.loc 1 326 0
 1857 013c 4FF0FF30 		mov	r0, #-1
 1858 0140 8DE7     		b	.L259
 1859              	.LVL250:
 1860              	.L265:
 1861              		.loc 1 346 0 discriminator 1
 1862 0142 244B     		ldr	r3, .L269+4
 1863 0144 0093     		str	r3, [sp]
 1864 0146 2549     		ldr	r1, .L269+12
 1865 0148 284A     		ldr	r2, .L269+28
 1866 014a 2348     		ldr	r0, .L269+8
 1867 014c 4FF4AD73 		mov	r3, #346
 1868 0150 FFF7FEFF 		bl	chprintf.constprop.0
 1869              	.LVL251:
 1870              	.LBB162:
 1871              	.LBB163:
ARM GAS  C:\Users\jo\AppData\Local\Temp\cc6wN9Ut.s 			page 34


 1872              		.loc 3 416 0 discriminator 1
 1873 0154 2548     		ldr	r0, .L269+28
 1874 0156 FFF7FEFF 		bl	chSysHalt
 1875              	.LVL252:
 1876 015a 0498     		ldr	r0, [sp, #16]
 1877 015c 85E7     		b	.L241
 1878              	.LVL253:
 1879              	.L267:
 1880              	.LBE163:
 1881              	.LBE162:
 1882              		.loc 1 363 0 discriminator 1
 1883 015e 1D4B     		ldr	r3, .L269+4
 1884 0160 0093     		str	r3, [sp]
 1885 0162 1E49     		ldr	r1, .L269+12
 1886 0164 224A     		ldr	r2, .L269+32
 1887 0166 1C48     		ldr	r0, .L269+8
 1888              	.LVL254:
 1889 0168 40F26B13 		movw	r3, #363
 1890 016c FFF7FEFF 		bl	chprintf.constprop.0
 1891              	.LVL255:
 1892              	.LBB164:
 1893              	.LBB165:
 1894              		.loc 3 416 0 discriminator 1
 1895 0170 1F48     		ldr	r0, .L269+32
 1896 0172 FFF7FEFF 		bl	chSysHalt
 1897              	.LVL256:
 1898 0176 88E7     		b	.L245
 1899              	.LVL257:
 1900              	.L264:
 1901              	.LBE165:
 1902              	.LBE164:
 1903              		.loc 1 331 0
 1904 0178 0B23     		movs	r3, #11
 1905              	.LVL258:
 1906 017a 2361     		str	r3, [r4, #16]
 1907              		.loc 1 332 0
 1908 017c 4FF0FF30 		mov	r0, #-1
 1909 0180 6DE7     		b	.L259
 1910              	.LVL259:
 1911              	.L266:
 1912              		.loc 1 354 0
 1913 0182 0498     		ldr	r0, [sp, #16]
 1914              	.LVL260:
 1915              		.loc 1 355 0
 1916 0184 C9F10009 		rsb	r9, r9, #0
 1917              		.loc 1 354 0
 1918 0188 FFF7FEFF 		bl	netconn_delete
 1919              	.LVL261:
 1920              		.loc 1 355 0
 1921 018c B9F10F0F 		cmp	r9, #15
 1922 0190 0AD8     		bhi	.L254
 1923              		.loc 1 355 0 is_stmt 0 discriminator 1
 1924 0192 184B     		ldr	r3, .L269+36
 1925 0194 53F82920 		ldr	r2, [r3, r9, lsl #2]
 1926              	.L243:
 1927              		.loc 1 355 0 discriminator 4
 1928 0198 08EB0603 		add	r3, r8, r6
ARM GAS  C:\Users\jo\AppData\Local\Temp\cc6wN9Ut.s 			page 35


 1929 019c 07EBC303 		add	r3, r7, r3, lsl #3
 1930              		.loc 1 356 0 is_stmt 1 discriminator 4
 1931 01a0 4FF0FF30 		mov	r0, #-1
 1932              		.loc 1 355 0 discriminator 4
 1933 01a4 1A61     		str	r2, [r3, #16]
 1934              		.loc 1 356 0 discriminator 4
 1935 01a6 5AE7     		b	.L259
 1936              	.L254:
 1937              		.loc 1 355 0
 1938 01a8 0522     		movs	r2, #5
 1939 01aa F5E7     		b	.L243
 1940              	.LVL262:
 1941              	.L239:
 1942              		.loc 1 343 0
 1943 01ac 4042     		negs	r0, r0
 1944              	.LVL263:
 1945 01ae 0F28     		cmp	r0, #15
 1946 01b0 FAD8     		bhi	.L254
 1947              		.loc 1 343 0 is_stmt 0 discriminator 1
 1948 01b2 104B     		ldr	r3, .L269+36
 1949 01b4 53F82020 		ldr	r2, [r3, r0, lsl #2]
 1950 01b8 EEE7     		b	.L243
 1951              	.LVL264:
 1952              	.L268:
 1953              		.loc 1 378 0 is_stmt 1
 1954 01ba 0498     		ldr	r0, [sp, #16]
 1955              	.LVL265:
 1956 01bc FFF7FEFF 		bl	netconn_delete
 1957              	.LVL266:
 1958              		.loc 1 379 0
 1959 01c0 08EB0603 		add	r3, r8, r6
 1960 01c4 07EBC303 		add	r3, r7, r3, lsl #3
 1961 01c8 1722     		movs	r2, #23
 1962              		.loc 1 380 0
 1963 01ca 2046     		mov	r0, r4
 1964              		.loc 1 379 0
 1965 01cc 1A61     		str	r2, [r3, #16]
 1966              		.loc 1 380 0
 1967 01ce 46E7     		b	.L259
 1968              	.L270:
 1969              		.align	2
 1970              	.L269:
 1971 01d0 00000000 		.word	.LANCHOR0
 1972 01d4 34000000 		.word	.LC2
 1973 01d8 00000000 		.word	itm_port
 1974 01dc 00000000 		.word	.LC0
 1975 01e0 B8000000 		.word	.LC8
 1976 01e4 00000000 		.word	event_callback
 1977 01e8 D0000000 		.word	.LC9
 1978 01ec 8C000000 		.word	.LC6
 1979 01f0 9C000000 		.word	.LC7
 1980 01f4 00000000 		.word	.LANCHOR1
 1981              		.cfi_endproc
 1982              	.LFE265:
 1983              		.size	lwip_accept, .-lwip_accept
 1984 01f8 AFF30080 		.section	.text.lwip_bind,"ax",%progbits
 1984      AFF30080 
ARM GAS  C:\Users\jo\AppData\Local\Temp\cc6wN9Ut.s 			page 36


 1985              		.align	2
 1986              		.p2align 4,,15
 1987              		.global	lwip_bind
 1988              		.thumb
 1989              		.thumb_func
 1990              		.type	lwip_bind, %function
 1991              	lwip_bind:
 1992              	.LFB266:
 1993              		.loc 1 406 0
 1994              		.cfi_startproc
 1995              		@ args = 0, pretend = 0, frame = 8
 1996              		@ frame_needed = 0, uses_anonymous_args = 0
 1997              	.LVL267:
 1998              	.LBB166:
 1999              	.LBB167:
 2000              		.loc 1 199 0
 2001 0000 0128     		cmp	r0, #1
 2002 0002 02D9     		bls	.L287
 2003              	.LBE167:
 2004              	.LBE166:
 2005              		.loc 1 415 0
 2006 0004 4FF0FF30 		mov	r0, #-1
 2007              	.LVL268:
 2008              		.loc 1 442 0
 2009 0008 7047     		bx	lr
 2010              	.LVL269:
 2011              	.L287:
 2012              		.loc 1 406 0
 2013 000a 2DE9F043 		push	{r4, r5, r6, r7, r8, r9, lr}
 2014              		.cfi_def_cfa_offset 28
 2015              		.cfi_offset 4, -28
 2016              		.cfi_offset 5, -24
 2017              		.cfi_offset 6, -20
 2018              		.cfi_offset 7, -16
 2019              		.cfi_offset 8, -12
 2020              		.cfi_offset 9, -8
 2021              		.cfi_offset 14, -4
 2022              	.LBB170:
 2023              	.LBB168:
 2024              		.loc 1 207 0
 2025 000e 4700     		lsls	r7, r0, #1
 2026 0010 3D18     		adds	r5, r7, r0
 2027 0012 ED00     		lsls	r5, r5, #3
 2028 0014 254E     		ldr	r6, .L290
 2029 0016 56F80590 		ldr	r9, [r6, r5]
 2030              	.LBE168:
 2031              	.LBE170:
 2032              		.loc 1 406 0
 2033 001a 85B0     		sub	sp, sp, #20
 2034              		.cfi_def_cfa_offset 48
 2035              	.LBB171:
 2036              	.LBB169:
 2037              		.loc 1 207 0
 2038 001c B9F1000F 		cmp	r9, #0
 2039 0020 32D0     		beq	.L288
 2040              	.LBE169:
 2041              	.LBE171:
ARM GAS  C:\Users\jo\AppData\Local\Temp\cc6wN9Ut.s 			page 37


 2042              		.loc 1 419 0
 2043 0022 102A     		cmp	r2, #16
 2044 0024 0B46     		mov	r3, r1
 2045 0026 0446     		mov	r4, r0
 2046 0028 18D1     		bne	.L274
 2047              		.loc 1 419 0 is_stmt 0 discriminator 2
 2048 002a 5A78     		ldrb	r2, [r3, #1]	@ zero_extendqisi2
 2049              	.LVL270:
 2050 002c 022A     		cmp	r2, #2
 2051 002e 15D1     		bne	.L274
 2052              		.loc 1 419 0 discriminator 4
 2053 0030 9A07     		lsls	r2, r3, #30
 2054 0032 13D1     		bne	.L274
 2055              	.LVL271:
 2056              		.loc 1 424 0 is_stmt 1
 2057 0034 0DF11008 		add	r8, sp, #16
 2058 0038 5A68     		ldr	r2, [r3, #4]
 2059              		.loc 1 431 0
 2060 003a 5888     		ldrh	r0, [r3, #2]
 2061              	.LVL272:
 2062              		.loc 1 424 0
 2063 003c 48F8042D 		str	r2, [r8, #-4]!
 2064              	.LVL273:
 2065              		.loc 1 431 0
 2066 0040 FFF7FEFF 		bl	lwip_ntohs
 2067              	.LVL274:
 2068 0044 4146     		mov	r1, r8
 2069 0046 0246     		mov	r2, r0
 2070 0048 4846     		mov	r0, r9
 2071 004a FFF7FEFF 		bl	netconn_bind
 2072              	.LVL275:
 2073              		.loc 1 433 0
 2074 004e 0346     		mov	r3, r0
 2075 0050 E8B9     		cbnz	r0, .L289
 2076              		.loc 1 440 0
 2077 0052 3544     		add	r5, r5, r6
 2078 0054 2B61     		str	r3, [r5, #16]
 2079              	.LVL276:
 2080              	.L283:
 2081              		.loc 1 442 0
 2082 0056 05B0     		add	sp, sp, #20
 2083              		.cfi_remember_state
 2084              		.cfi_def_cfa_offset 28
 2085              		@ sp needed
 2086 0058 BDE8F083 		pop	{r4, r5, r6, r7, r8, r9, pc}
 2087              	.LVL277:
 2088              	.L274:
 2089              		.cfi_restore_state
 2090              		.loc 1 419 0 discriminator 5
 2091 005c 144B     		ldr	r3, .L290+4
 2092 005e 0093     		str	r3, [sp]
 2093 0060 1449     		ldr	r1, .L290+8
 2094              	.LVL278:
 2095 0062 154A     		ldr	r2, .L290+12
 2096 0064 1548     		ldr	r0, .L290+16
 2097              	.LVL279:
 2098 0066 40F2A513 		movw	r3, #421
ARM GAS  C:\Users\jo\AppData\Local\Temp\cc6wN9Ut.s 			page 38


 2099 006a FFF7FEFF 		bl	chprintf.constprop.0
 2100              	.LVL280:
 2101              	.LBB172:
 2102              	.LBB173:
 2103              		.loc 3 416 0 discriminator 5
 2104 006e 1248     		ldr	r0, .L290+12
 2105 0070 FFF7FEFF 		bl	chSysHalt
 2106              	.LVL281:
 2107              	.LBE173:
 2108              	.LBE172:
 2109              		.loc 1 419 0 discriminator 5
 2110 0074 3C44     		add	r4, r4, r7
 2111              	.LVL282:
 2112 0076 06EBC406 		add	r6, r6, r4, lsl #3
 2113 007a 0523     		movs	r3, #5
 2114 007c 4FF0FF30 		mov	r0, #-1
 2115 0080 3361     		str	r3, [r6, #16]
 2116              		.loc 1 442 0 discriminator 5
 2117 0082 05B0     		add	sp, sp, #20
 2118              		.cfi_remember_state
 2119              		.cfi_def_cfa_offset 28
 2120              		@ sp needed
 2121 0084 BDE8F083 		pop	{r4, r5, r6, r7, r8, r9, pc}
 2122              	.LVL283:
 2123              	.L288:
 2124              		.cfi_restore_state
 2125              		.loc 1 415 0
 2126 0088 4FF0FF30 		mov	r0, #-1
 2127              	.LVL284:
 2128 008c E3E7     		b	.L283
 2129              	.LVL285:
 2130              	.L289:
 2131              		.loc 1 435 0
 2132 008e 4342     		negs	r3, r0
 2133 0090 0F2B     		cmp	r3, #15
 2134 0092 98BF     		it	ls
 2135 0094 0A4A     		ldrls	r2, .L290+20
 2136 0096 3C44     		add	r4, r4, r7
 2137              	.LVL286:
 2138 0098 06EBC406 		add	r6, r6, r4, lsl #3
 2139 009c 94BF     		ite	ls
 2140 009e 52F82330 		ldrls	r3, [r2, r3, lsl #2]
 2141 00a2 0523     		movhi	r3, #5
 2142              		.loc 1 436 0
 2143 00a4 4FF0FF30 		mov	r0, #-1
 2144              	.LVL287:
 2145              		.loc 1 435 0
 2146 00a8 3361     		str	r3, [r6, #16]
 2147              		.loc 1 436 0
 2148 00aa D4E7     		b	.L283
 2149              	.L291:
 2150              		.align	2
 2151              	.L290:
 2152 00ac 00000000 		.word	.LANCHOR0
 2153 00b0 34000000 		.word	.LC2
 2154 00b4 00000000 		.word	.LC0
 2155 00b8 F4000000 		.word	.LC10
ARM GAS  C:\Users\jo\AppData\Local\Temp\cc6wN9Ut.s 			page 39


 2156 00bc 00000000 		.word	itm_port
 2157 00c0 00000000 		.word	.LANCHOR1
 2158              		.cfi_endproc
 2159              	.LFE266:
 2160              		.size	lwip_bind, .-lwip_bind
 2161 00c4 AFF30080 		.section	.text.lwip_close,"ax",%progbits
 2161      AFF30080 
 2161      AFF30080 
 2162              		.align	2
 2163              		.p2align 4,,15
 2164              		.global	lwip_close
 2165              		.thumb
 2166              		.thumb_func
 2167              		.type	lwip_close, %function
 2168              	lwip_close:
 2169              	.LFB267:
 2170              		.loc 1 446 0
 2171              		.cfi_startproc
 2172              		@ args = 0, pretend = 0, frame = 0
 2173              		@ frame_needed = 0, uses_anonymous_args = 0
 2174              	.LVL288:
 2175              	.LBB180:
 2176              	.LBB181:
 2177              		.loc 1 199 0
 2178 0000 0128     		cmp	r0, #1
 2179 0002 02D9     		bls	.L299
 2180              	.LBE181:
 2181              	.LBE180:
 2182              		.loc 1 454 0
 2183 0004 4FF0FF30 		mov	r0, #-1
 2184              	.LVL289:
 2185              		.loc 1 468 0
 2186 0008 7047     		bx	lr
 2187              	.LVL290:
 2188              	.L299:
 2189              	.LBB184:
 2190              	.LBB182:
 2191              		.loc 1 207 0
 2192 000a 00EB4000 		add	r0, r0, r0, lsl #1
 2193              	.LVL291:
 2194              	.LBE182:
 2195              	.LBE184:
 2196              		.loc 1 446 0
 2197 000e 2DE9F041 		push	{r4, r5, r6, r7, r8, lr}
 2198              		.cfi_def_cfa_offset 24
 2199              		.cfi_offset 4, -24
 2200              		.cfi_offset 5, -20
 2201              		.cfi_offset 6, -16
 2202              		.cfi_offset 7, -12
 2203              		.cfi_offset 8, -8
 2204              		.cfi_offset 14, -4
 2205              	.LBB185:
 2206              	.LBB183:
 2207              		.loc 1 207 0
 2208 0012 C500     		lsls	r5, r0, #3
 2209 0014 DFF84480 		ldr	r8, .L301
 2210 0018 58F80530 		ldr	r3, [r8, r5]
ARM GAS  C:\Users\jo\AppData\Local\Temp\cc6wN9Ut.s 			page 40


 2211 001c 08EB0506 		add	r6, r8, r5
 2212 0020 BBB1     		cbz	r3, .L296
 2213              	.LBE183:
 2214              	.LBE185:
 2215              		.loc 1 463 0
 2216 0022 1846     		mov	r0, r3
 2217              		.loc 1 458 0
 2218 0024 1F78     		ldrb	r7, [r3]	@ zero_extendqisi2
 2219              	.LVL292:
 2220              		.loc 1 463 0
 2221 0026 FFF7FEFF 		bl	netconn_delete
 2222              	.LVL293:
 2223              	.LBB186:
 2224              	.LBB187:
 2225              		.loc 1 285 0
 2226 002a 7068     		ldr	r0, [r6, #4]
 2227              	.LVL294:
 2228              		.loc 1 286 0
 2229 002c 0024     		movs	r4, #0
 2230 002e 7460     		str	r4, [r6, #4]
 2231              		.loc 1 287 0
 2232 0030 3481     		strh	r4, [r6, #8]	@ movhi
 2233              		.loc 1 288 0
 2234 0032 3461     		str	r4, [r6, #16]
 2235              		.loc 1 292 0
 2236 0034 48F80540 		str	r4, [r8, r5]
 2237              		.loc 1 296 0
 2238 0038 68B1     		cbz	r0, .L293
 2239              		.loc 1 297 0
 2240 003a 102F     		cmp	r7, #16
 2241 003c 04D0     		beq	.L300
 2242              		.loc 1 300 0
 2243 003e FFF7FEFF 		bl	netbuf_delete
 2244              	.LVL295:
 2245              	.LBE187:
 2246              	.LBE186:
 2247              		.loc 1 467 0
 2248 0042 2046     		mov	r0, r4
 2249 0044 BDE8F081 		pop	{r4, r5, r6, r7, r8, pc}
 2250              	.LVL296:
 2251              	.L300:
 2252              	.LBB189:
 2253              	.LBB188:
 2254              		.loc 1 298 0
 2255 0048 FFF7FEFF 		bl	pbuf_free
 2256              	.LVL297:
 2257              	.LBE188:
 2258              	.LBE189:
 2259              		.loc 1 467 0
 2260 004c 2046     		mov	r0, r4
 2261 004e BDE8F081 		pop	{r4, r5, r6, r7, r8, pc}
 2262              	.LVL298:
 2263              	.L296:
 2264              		.loc 1 454 0
 2265 0052 4FF0FF30 		mov	r0, #-1
 2266              	.LVL299:
 2267              	.L293:
ARM GAS  C:\Users\jo\AppData\Local\Temp\cc6wN9Ut.s 			page 41


 2268              		.loc 1 468 0
 2269 0056 BDE8F081 		pop	{r4, r5, r6, r7, r8, pc}
 2270              	.L302:
 2271 005a 00BF     		.align	2
 2272              	.L301:
 2273 005c 00000000 		.word	.LANCHOR0
 2274              		.cfi_endproc
 2275              	.LFE267:
 2276              		.size	lwip_close, .-lwip_close
 2277              		.section	.text.lwip_connect,"ax",%progbits
 2278              		.align	2
 2279              		.p2align 4,,15
 2280              		.global	lwip_connect
 2281              		.thumb
 2282              		.thumb_func
 2283              		.type	lwip_connect, %function
 2284              	lwip_connect:
 2285              	.LFB268:
 2286              		.loc 1 472 0
 2287              		.cfi_startproc
 2288              		@ args = 0, pretend = 0, frame = 8
 2289              		@ frame_needed = 0, uses_anonymous_args = 0
 2290              	.LVL300:
 2291              	.LBB190:
 2292              	.LBB191:
 2293              		.loc 1 199 0
 2294 0000 0128     		cmp	r0, #1
 2295 0002 02D9     		bls	.L319
 2296              	.LBE191:
 2297              	.LBE190:
 2298              		.loc 1 479 0
 2299 0004 4FF0FF30 		mov	r0, #-1
 2300              	.LVL301:
 2301              		.loc 1 514 0
 2302 0008 7047     		bx	lr
 2303              	.LVL302:
 2304              	.L319:
 2305              		.loc 1 472 0
 2306 000a 2DE9F043 		push	{r4, r5, r6, r7, r8, r9, lr}
 2307              		.cfi_def_cfa_offset 28
 2308              		.cfi_offset 4, -28
 2309              		.cfi_offset 5, -24
 2310              		.cfi_offset 6, -20
 2311              		.cfi_offset 7, -16
 2312              		.cfi_offset 8, -12
 2313              		.cfi_offset 9, -8
 2314              		.cfi_offset 14, -4
 2315              	.LBB194:
 2316              	.LBB192:
 2317              		.loc 1 207 0
 2318 000e 4600     		lsls	r6, r0, #1
 2319 0010 3418     		adds	r4, r6, r0
 2320 0012 E400     		lsls	r4, r4, #3
 2321 0014 254F     		ldr	r7, .L322
 2322 0016 57F80490 		ldr	r9, [r7, r4]
 2323              	.LBE192:
 2324              	.LBE194:
ARM GAS  C:\Users\jo\AppData\Local\Temp\cc6wN9Ut.s 			page 42


 2325              		.loc 1 472 0
 2326 001a 85B0     		sub	sp, sp, #20
 2327              		.cfi_def_cfa_offset 48
 2328              	.LBB195:
 2329              	.LBB193:
 2330              		.loc 1 207 0
 2331 001c B9F1000F 		cmp	r9, #0
 2332 0020 32D0     		beq	.L320
 2333              	.LBE193:
 2334              	.LBE195:
 2335              		.loc 1 483 0
 2336 0022 102A     		cmp	r2, #16
 2337 0024 0B46     		mov	r3, r1
 2338 0026 0546     		mov	r5, r0
 2339 0028 18D1     		bne	.L306
 2340              		.loc 1 483 0 is_stmt 0 discriminator 2
 2341 002a 5A78     		ldrb	r2, [r3, #1]	@ zero_extendqisi2
 2342              	.LVL303:
 2343 002c 022A     		cmp	r2, #2
 2344 002e 15D1     		bne	.L306
 2345              		.loc 1 483 0 discriminator 4
 2346 0030 9A07     		lsls	r2, r3, #30
 2347 0032 13D1     		bne	.L306
 2348              	.LVL304:
 2349              	.LBB196:
 2350              		.loc 1 495 0 is_stmt 1
 2351 0034 0DF11008 		add	r8, sp, #16
 2352 0038 5A68     		ldr	r2, [r3, #4]
 2353              		.loc 1 502 0
 2354 003a 5888     		ldrh	r0, [r3, #2]
 2355              	.LVL305:
 2356              		.loc 1 495 0
 2357 003c 48F8042D 		str	r2, [r8, #-4]!
 2358              	.LVL306:
 2359              		.loc 1 502 0
 2360 0040 FFF7FEFF 		bl	lwip_ntohs
 2361              	.LVL307:
 2362 0044 4146     		mov	r1, r8
 2363 0046 0246     		mov	r2, r0
 2364 0048 4846     		mov	r0, r9
 2365 004a FFF7FEFF 		bl	netconn_connect
 2366              	.LVL308:
 2367              	.LBE196:
 2368              		.loc 1 505 0
 2369 004e 0346     		mov	r3, r0
 2370 0050 E8B9     		cbnz	r0, .L321
 2371              		.loc 1 512 0
 2372 0052 3C44     		add	r4, r4, r7
 2373 0054 2361     		str	r3, [r4, #16]
 2374              	.LVL309:
 2375              	.L315:
 2376              		.loc 1 514 0
 2377 0056 05B0     		add	sp, sp, #20
 2378              		.cfi_remember_state
 2379              		.cfi_def_cfa_offset 28
 2380              		@ sp needed
 2381 0058 BDE8F083 		pop	{r4, r5, r6, r7, r8, r9, pc}
ARM GAS  C:\Users\jo\AppData\Local\Temp\cc6wN9Ut.s 			page 43


 2382              	.LVL310:
 2383              	.L306:
 2384              		.cfi_restore_state
 2385              		.loc 1 483 0 discriminator 5
 2386 005c 144B     		ldr	r3, .L322+4
 2387 005e 0093     		str	r3, [sp]
 2388 0060 1449     		ldr	r1, .L322+8
 2389              	.LVL311:
 2390 0062 154A     		ldr	r2, .L322+12
 2391 0064 1548     		ldr	r0, .L322+16
 2392              	.LVL312:
 2393 0066 40F2E513 		movw	r3, #485
 2394 006a FFF7FEFF 		bl	chprintf.constprop.0
 2395              	.LVL313:
 2396              	.LBB197:
 2397              	.LBB198:
 2398              		.loc 3 416 0 discriminator 5
 2399 006e 1248     		ldr	r0, .L322+12
 2400 0070 FFF7FEFF 		bl	chSysHalt
 2401              	.LVL314:
 2402              	.LBE198:
 2403              	.LBE197:
 2404              		.loc 1 483 0 discriminator 5
 2405 0074 3544     		add	r5, r5, r6
 2406              	.LVL315:
 2407 0076 07EBC507 		add	r7, r7, r5, lsl #3
 2408 007a 0523     		movs	r3, #5
 2409 007c 4FF0FF30 		mov	r0, #-1
 2410 0080 3B61     		str	r3, [r7, #16]
 2411              		.loc 1 514 0 discriminator 5
 2412 0082 05B0     		add	sp, sp, #20
 2413              		.cfi_remember_state
 2414              		.cfi_def_cfa_offset 28
 2415              		@ sp needed
 2416 0084 BDE8F083 		pop	{r4, r5, r6, r7, r8, r9, pc}
 2417              	.LVL316:
 2418              	.L320:
 2419              		.cfi_restore_state
 2420              		.loc 1 479 0
 2421 0088 4FF0FF30 		mov	r0, #-1
 2422              	.LVL317:
 2423 008c E3E7     		b	.L315
 2424              	.LVL318:
 2425              	.L321:
 2426              		.loc 1 507 0
 2427 008e 4342     		negs	r3, r0
 2428 0090 0F2B     		cmp	r3, #15
 2429 0092 98BF     		it	ls
 2430 0094 0A4A     		ldrls	r2, .L322+20
 2431 0096 3544     		add	r5, r5, r6
 2432              	.LVL319:
 2433 0098 07EBC507 		add	r7, r7, r5, lsl #3
 2434 009c 94BF     		ite	ls
 2435 009e 52F82330 		ldrls	r3, [r2, r3, lsl #2]
 2436 00a2 0523     		movhi	r3, #5
 2437              		.loc 1 508 0
 2438 00a4 4FF0FF30 		mov	r0, #-1
ARM GAS  C:\Users\jo\AppData\Local\Temp\cc6wN9Ut.s 			page 44


 2439              	.LVL320:
 2440              		.loc 1 507 0
 2441 00a8 3B61     		str	r3, [r7, #16]
 2442              		.loc 1 508 0
 2443 00aa D4E7     		b	.L315
 2444              	.L323:
 2445              		.align	2
 2446              	.L322:
 2447 00ac 00000000 		.word	.LANCHOR0
 2448 00b0 34000000 		.word	.LC2
 2449 00b4 00000000 		.word	.LC0
 2450 00b8 10010000 		.word	.LC11
 2451 00bc 00000000 		.word	itm_port
 2452 00c0 00000000 		.word	.LANCHOR1
 2453              		.cfi_endproc
 2454              	.LFE268:
 2455              		.size	lwip_connect, .-lwip_connect
 2456 00c4 AFF30080 		.section	.text.lwip_listen,"ax",%progbits
 2456      AFF30080 
 2456      AFF30080 
 2457              		.align	2
 2458              		.p2align 4,,15
 2459              		.global	lwip_listen
 2460              		.thumb
 2461              		.thumb_func
 2462              		.type	lwip_listen, %function
 2463              	lwip_listen:
 2464              	.LFB269:
 2465              		.loc 1 526 0
 2466              		.cfi_startproc
 2467              		@ args = 0, pretend = 0, frame = 0
 2468              		@ frame_needed = 0, uses_anonymous_args = 0
 2469              	.LVL321:
 2470              	.LBB199:
 2471              	.LBB200:
 2472              		.loc 1 199 0
 2473 0000 0128     		cmp	r0, #1
 2474 0002 02D9     		bls	.L339
 2475              	.LBE200:
 2476              	.LBE199:
 2477              		.loc 1 534 0
 2478 0004 4FF0FF30 		mov	r0, #-1
 2479              	.LVL322:
 2480              		.loc 1 554 0
 2481 0008 7047     		bx	lr
 2482              	.LVL323:
 2483              	.L339:
 2484              		.loc 1 526 0
 2485 000a 70B5     		push	{r4, r5, r6, lr}
 2486              		.cfi_def_cfa_offset 16
 2487              		.cfi_offset 4, -16
 2488              		.cfi_offset 5, -12
 2489              		.cfi_offset 6, -8
 2490              		.cfi_offset 14, -4
 2491              	.LBB202:
 2492              	.LBB201:
 2493              		.loc 1 207 0
ARM GAS  C:\Users\jo\AppData\Local\Temp\cc6wN9Ut.s 			page 45


 2494 000c 4500     		lsls	r5, r0, #1
 2495 000e 2B18     		adds	r3, r5, r0
 2496 0010 194E     		ldr	r6, .L342
 2497 0012 56F83330 		ldr	r3, [r6, r3, lsl #3]
 2498 0016 E3B1     		cbz	r3, .L340
 2499              	.LBE201:
 2500              	.LBE202:
 2501              		.loc 1 538 0
 2502 0018 FE29     		cmp	r1, #254
 2503 001a 18DC     		bgt	.L341
 2504              		.loc 1 538 0 is_stmt 0 discriminator 1
 2505 001c 21EAE171 		bic	r1, r1, r1, asr #31
 2506              	.LVL324:
 2507 0020 C9B2     		uxtb	r1, r1
 2508              	.L331:
 2509              	.LVL325:
 2510 0022 0446     		mov	r4, r0
 2511              		.loc 1 540 0 is_stmt 1 discriminator 4
 2512 0024 1846     		mov	r0, r3
 2513              	.LVL326:
 2514 0026 FFF7FEFF 		bl	netconn_listen_with_backlog
 2515              	.LVL327:
 2516              		.loc 1 542 0 discriminator 4
 2517 002a 0246     		mov	r2, r0
 2518 002c 50B1     		cbz	r0, .L327
 2519              		.loc 1 544 0
 2520 002e 2B19     		adds	r3, r5, r4
 2521 0030 DB00     		lsls	r3, r3, #3
 2522 0032 1148     		ldr	r0, .L342
 2523              	.LVL328:
 2524 0034 F158     		ldr	r1, [r6, r3]
 2525 0036 0978     		ldrb	r1, [r1]	@ zero_extendqisi2
 2526 0038 1029     		cmp	r1, #16
 2527 003a 0DD0     		beq	.L328
 2528              		.loc 1 545 0
 2529 003c 0344     		add	r3, r3, r0
 2530 003e 5F20     		movs	r0, #95
 2531 0040 1861     		str	r0, [r3, #16]
 2532              		.loc 1 546 0
 2533 0042 70BD     		pop	{r4, r5, r6, pc}
 2534              	.LVL329:
 2535              	.L327:
 2536              		.loc 1 552 0
 2537 0044 2C44     		add	r4, r4, r5
 2538              	.LVL330:
 2539 0046 06EBC404 		add	r4, r6, r4, lsl #3
 2540 004a 2261     		str	r2, [r4, #16]
 2541              		.loc 1 553 0
 2542 004c 70BD     		pop	{r4, r5, r6, pc}
 2543              	.LVL331:
 2544              	.L341:
 2545 004e FF21     		movs	r1, #255
 2546              	.LVL332:
 2547 0050 E7E7     		b	.L331
 2548              	.LVL333:
 2549              	.L340:
 2550              		.loc 1 534 0
ARM GAS  C:\Users\jo\AppData\Local\Temp\cc6wN9Ut.s 			page 46


 2551 0052 4FF0FF30 		mov	r0, #-1
 2552              	.LVL334:
 2553 0056 70BD     		pop	{r4, r5, r6, pc}
 2554              	.LVL335:
 2555              	.L328:
 2556              		.loc 1 548 0
 2557 0058 5242     		negs	r2, r2
 2558 005a 0F2A     		cmp	r2, #15
 2559 005c 98BF     		it	ls
 2560 005e 074B     		ldrls	r3, .L342+4
 2561 0060 2C44     		add	r4, r4, r5
 2562              	.LVL336:
 2563 0062 06EBC404 		add	r4, r6, r4, lsl #3
 2564 0066 94BF     		ite	ls
 2565 0068 53F82230 		ldrls	r3, [r3, r2, lsl #2]
 2566 006c 0523     		movhi	r3, #5
 2567              		.loc 1 549 0
 2568 006e 4FF0FF30 		mov	r0, #-1
 2569              		.loc 1 548 0
 2570 0072 2361     		str	r3, [r4, #16]
 2571              		.loc 1 549 0
 2572 0074 70BD     		pop	{r4, r5, r6, pc}
 2573              	.L343:
 2574 0076 00BF     		.align	2
 2575              	.L342:
 2576 0078 00000000 		.word	.LANCHOR0
 2577 007c 00000000 		.word	.LANCHOR1
 2578              		.cfi_endproc
 2579              	.LFE269:
 2580              		.size	lwip_listen, .-lwip_listen
 2581              		.section	.text.lwip_recvfrom,"ax",%progbits
 2582              		.align	2
 2583              		.p2align 4,,15
 2584              		.global	lwip_recvfrom
 2585              		.thumb
 2586              		.thumb_func
 2587              		.type	lwip_recvfrom, %function
 2588              	lwip_recvfrom:
 2589              	.LFB270:
 2590              		.loc 1 559 0
 2591              		.cfi_startproc
 2592              		@ args = 8, pretend = 0, frame = 56
 2593              		@ frame_needed = 0, uses_anonymous_args = 0
 2594              	.LVL337:
 2595 0000 2DE9F04F 		push	{r4, r5, r6, r7, r8, r9, r10, fp, lr}
 2596              		.cfi_def_cfa_offset 36
 2597              		.cfi_offset 4, -36
 2598              		.cfi_offset 5, -32
 2599              		.cfi_offset 6, -28
 2600              		.cfi_offset 7, -24
 2601              		.cfi_offset 8, -20
 2602              		.cfi_offset 9, -16
 2603              		.cfi_offset 10, -12
 2604              		.cfi_offset 11, -8
 2605              		.cfi_offset 14, -4
 2606 0004 91B0     		sub	sp, sp, #68
 2607              		.cfi_def_cfa_offset 104
ARM GAS  C:\Users\jo\AppData\Local\Temp\cc6wN9Ut.s 			page 47


 2608              		.loc 1 559 0
 2609 0006 0446     		mov	r4, r0
 2610 0008 0590     		str	r0, [sp, #20]
 2611              	.LBB203:
 2612              	.LBB204:
 2613              		.loc 1 199 0
 2614 000a 012C     		cmp	r4, #1
 2615              	.LBE204:
 2616              	.LBE203:
 2617              		.loc 1 561 0
 2618 000c 4FF00000 		mov	r0, #0
 2619              	.LVL338:
 2620              		.loc 1 559 0
 2621 0010 0291     		str	r1, [sp, #8]
 2622 0012 9946     		mov	r9, r3
 2623              		.loc 1 561 0
 2624 0014 0A90     		str	r0, [sp, #40]
 2625              	.LVL339:
 2626              		.loc 1 559 0
 2627 0016 DDF868A0 		ldr	r10, [sp, #104]
 2628              	.LBB208:
 2629              	.LBB205:
 2630              		.loc 1 199 0
 2631 001a 04D9     		bls	.L405
 2632              	.LVL340:
 2633              	.L386:
 2634              	.LBE205:
 2635              	.LBE208:
 2636              		.loc 1 573 0
 2637 001c 4FF0FF30 		mov	r0, #-1
 2638              	.LVL341:
 2639              	.L401:
 2640              		.loc 1 739 0
 2641 0020 11B0     		add	sp, sp, #68
 2642              		.cfi_remember_state
 2643              		.cfi_def_cfa_offset 36
 2644              		@ sp needed
 2645 0022 BDE8F08F 		pop	{r4, r5, r6, r7, r8, r9, r10, fp, pc}
 2646              	.LVL342:
 2647              	.L405:
 2648              		.cfi_restore_state
 2649              	.LBB209:
 2650              	.LBB206:
 2651              		.loc 1 207 0
 2652 0026 6300     		lsls	r3, r4, #1
 2653              	.LVL343:
 2654 0028 0693     		str	r3, [sp, #24]
 2655 002a 2344     		add	r3, r3, r4
 2656 002c 1746     		mov	r7, r2
 2657 002e DC00     		lsls	r4, r3, #3
 2658              	.LVL344:
 2659 0030 A44A     		ldr	r2, .L414
 2660              	.LVL345:
 2661 0032 1259     		ldr	r2, [r2, r4]
 2662 0034 002A     		cmp	r2, #0
 2663 0036 F1D0     		beq	.L386
 2664              	.LBE206:
ARM GAS  C:\Users\jo\AppData\Local\Temp\cc6wN9Ut.s 			page 48


 2665              	.LBE209:
 2666              		.loc 1 579 0
 2667 0038 0793     		str	r3, [sp, #28]
 2668 003a A24B     		ldr	r3, .L414
 2669 003c 1C44     		add	r4, r4, r3
 2670              	.LBB210:
 2671              	.LBB207:
 2672              		.loc 1 207 0
 2673 003e 8046     		mov	r8, r0
 2674              	.LVL346:
 2675              	.LBE207:
 2676              	.LBE210:
 2677              		.loc 1 579 0
 2678 0040 6368     		ldr	r3, [r4, #4]
 2679 0042 002B     		cmp	r3, #0
 2680 0044 00F09480 		beq	.L346
 2681              	.LVL347:
 2682              	.L409:
 2683              		.loc 1 580 0
 2684 0048 0A93     		str	r3, [sp, #40]
 2685 004a 9B46     		mov	fp, r3
 2686              	.L347:
 2687              		.loc 1 629 0
 2688 004c 2368     		ldr	r3, [r4]
 2689              		.loc 1 648 0
 2690 004e 029A     		ldr	r2, [sp, #8]
 2691              		.loc 1 629 0
 2692 0050 1B78     		ldrb	r3, [r3]	@ zero_extendqisi2
 2693 0052 102B     		cmp	r3, #16
 2694              		.loc 1 632 0
 2695 0054 18BF     		it	ne
 2696 0056 DBF800B0 		ldrne	fp, [fp]
 2697              	.LVL348:
 2698              		.loc 1 638 0
 2699 005a 2389     		ldrh	r3, [r4, #8]
 2700 005c BBF80850 		ldrh	r5, [fp, #8]
 2701 0060 ED1A     		subs	r5, r5, r3
 2702 0062 ADB2     		uxth	r5, r5
 2703              	.LVL349:
 2704              		.loc 1 640 0
 2705 0064 AF42     		cmp	r7, r5
 2706              		.loc 1 643 0
 2707 0066 94BF     		ite	ls
 2708 0068 BEB2     		uxthls	r6, r7
 2709              	.LVL350:
 2710              		.loc 1 641 0
 2711 006a 2E46     		movhi	r6, r5
 2712              	.LVL351:
 2713              		.loc 1 648 0
 2714 006c 02EB0801 		add	r1, r2, r8
 2715 0070 5846     		mov	r0, fp
 2716 0072 3246     		mov	r2, r6
 2717 0074 FFF7FEFF 		bl	pbuf_copy_partial
 2718              	.LVL352:
 2719              		.loc 1 652 0
 2720 0078 2368     		ldr	r3, [r4]
 2721 007a 1B78     		ldrb	r3, [r3]	@ zero_extendqisi2
ARM GAS  C:\Users\jo\AppData\Local\Temp\cc6wN9Ut.s 			page 49


 2722 007c 102B     		cmp	r3, #16
 2723              		.loc 1 650 0
 2724 007e B044     		add	r8, r8, r6
 2725              	.LVL353:
 2726              		.loc 1 652 0
 2727 0080 40F09180 		bne	.L360
 2728              		.loc 1 653 0
 2729 0084 B742     		cmp	r7, r6
 2730 0086 C0F0A680 		bcc	.L406
 2731              	.L361:
 2732              	.LVL354:
 2733              		.loc 1 655 0
 2734 008a BF1B     		subs	r7, r7, r6
 2735              	.LVL355:
 2736 008c 00F08B80 		beq	.L360
 2737              		.loc 1 656 0 discriminator 1
 2738 0090 9BF80D30 		ldrb	r3, [fp, #13]	@ zero_extendqisi2
 2739              		.loc 1 655 0 discriminator 1
 2740 0094 DB07     		lsls	r3, r3, #31
 2741 0096 00F18680 		bmi	.L360
 2742              		.loc 1 656 0
 2743 009a B4F90A30 		ldrsh	r3, [r4, #10]
 2744 009e 002B     		cmp	r3, #0
 2745 00a0 40F38180 		ble	.L360
 2746              		.loc 1 657 0
 2747 00a4 19F0010B 		ands	fp, r9, #1
 2748              	.LVL356:
 2749 00a8 51D0     		beq	.L367
 2750              	.LVL357:
 2751              	.LBB211:
 2752              		.loc 1 668 0
 2753 00aa BAF1000F 		cmp	r10, #0
 2754 00ae 34D0     		beq	.L377
 2755 00b0 1B9B     		ldr	r3, [sp, #108]
 2756 00b2 4FF0010B 		mov	fp, #1
 2757 00b6 002B     		cmp	r3, #0
 2758 00b8 2FD0     		beq	.L377
 2759              	.LBB212:
 2760              		.loc 1 671 0
 2761 00ba 2068     		ldr	r0, [r4]
 2762 00bc 0378     		ldrb	r3, [r0]	@ zero_extendqisi2
 2763 00be 102B     		cmp	r3, #16
 2764 00c0 7DD0     		beq	.L407
 2765              	.L369:
 2766              		.loc 1 675 0
 2767 00c2 0A9B     		ldr	r3, [sp, #40]
 2768              		.loc 1 676 0
 2769 00c4 9889     		ldrh	r0, [r3, #12]
 2770 00c6 ADF82600 		strh	r0, [sp, #38]	@ movhi
 2771              		.loc 1 675 0
 2772 00ca 03F1080C 		add	ip, r3, #8
 2773              	.LVL358:
 2774              	.L370:
 2775              		.loc 1 679 0
 2776 00ce 0023     		movs	r3, #0
 2777              		.loc 1 680 0
 2778 00d0 1021     		movs	r1, #16
ARM GAS  C:\Users\jo\AppData\Local\Temp\cc6wN9Ut.s 			page 50


 2779              		.loc 1 681 0
 2780 00d2 0222     		movs	r2, #2
 2781              		.loc 1 679 0
 2782 00d4 0C93     		str	r3, [sp, #48]
 2783 00d6 CDF810C0 		str	ip, [sp, #16]
 2784              	.LVL359:
 2785 00da 0D93     		str	r3, [sp, #52]
 2786 00dc 0E93     		str	r3, [sp, #56]
 2787 00de 0F93     		str	r3, [sp, #60]
 2788              		.loc 1 680 0
 2789 00e0 8DF83010 		strb	r1, [sp, #48]
 2790 00e4 0391     		str	r1, [sp, #12]
 2791              		.loc 1 681 0
 2792 00e6 8DF83120 		strb	r2, [sp, #49]
 2793              		.loc 1 682 0
 2794 00ea FFF7FEFF 		bl	lwip_htons
 2795              	.LVL360:
 2796              		.loc 1 685 0
 2797 00ee 1B9B     		ldr	r3, [sp, #108]
 2798              		.loc 1 683 0
 2799 00f0 DDF810C0 		ldr	ip, [sp, #16]
 2800              		.loc 1 685 0
 2801 00f4 1A68     		ldr	r2, [r3]
 2802              		.loc 1 683 0
 2803 00f6 DCF80030 		ldr	r3, [ip]
 2804              		.loc 1 682 0
 2805 00fa ADF83200 		strh	r0, [sp, #50]	@ movhi
 2806              		.loc 1 685 0
 2807 00fe 102A     		cmp	r2, #16
 2808              		.loc 1 683 0
 2809 0100 0D93     		str	r3, [sp, #52]
 2810              		.loc 1 685 0
 2811 0102 0399     		ldr	r1, [sp, #12]
 2812 0104 02D9     		bls	.L371
 2813              		.loc 1 686 0
 2814 0106 1B9B     		ldr	r3, [sp, #108]
 2815 0108 0A46     		mov	r2, r1
 2816 010a 1960     		str	r1, [r3]
 2817              	.L371:
 2818              		.loc 1 689 0
 2819 010c 0CA9     		add	r1, sp, #48
 2820 010e 5046     		mov	r0, r10
 2821 0110 FFF7FEFF 		bl	memcpy
 2822              	.LVL361:
 2823              	.L368:
 2824              	.LBE212:
 2825              	.LBE211:
 2826              		.loc 1 712 0 discriminator 10
 2827 0114 BBF1000F 		cmp	fp, #0
 2828 0118 17D0     		beq	.L389
 2829              	.LVL362:
 2830              	.L377:
 2831              		.loc 1 733 0
 2832 011a B8F1000F 		cmp	r8, #0
 2833 011e 08D0     		beq	.L373
 2834              		.loc 1 735 0
 2835 0120 059A     		ldr	r2, [sp, #20]
ARM GAS  C:\Users\jo\AppData\Local\Temp\cc6wN9Ut.s 			page 51


 2836 0122 069B     		ldr	r3, [sp, #24]
 2837 0124 1344     		add	r3, r3, r2
 2838 0126 674A     		ldr	r2, .L414
 2839 0128 4146     		mov	r1, r8
 2840 012a 52F83300 		ldr	r0, [r2, r3, lsl #3]
 2841 012e FFF7FEFF 		bl	netconn_recved
 2842              	.LVL363:
 2843              	.L373:
 2844              		.loc 1 737 0
 2845 0132 059A     		ldr	r2, [sp, #20]
 2846 0134 069B     		ldr	r3, [sp, #24]
 2847 0136 1344     		add	r3, r3, r2
 2848 0138 624A     		ldr	r2, .L414
 2849 013a 02EBC303 		add	r3, r2, r3, lsl #3
 2850              		.loc 1 738 0
 2851 013e 4046     		mov	r0, r8
 2852              		.loc 1 737 0
 2853 0140 0022     		movs	r2, #0
 2854 0142 1A61     		str	r2, [r3, #16]
 2855              		.loc 1 739 0
 2856 0144 11B0     		add	sp, sp, #68
 2857              		.cfi_remember_state
 2858              		.cfi_def_cfa_offset 36
 2859              		@ sp needed
 2860 0146 BDE8F08F 		pop	{r4, r5, r6, r7, r8, r9, r10, fp, pc}
 2861              	.LVL364:
 2862              	.L389:
 2863              		.cfi_restore_state
 2864              		.loc 1 712 0
 2865 014a 4FF0010B 		mov	fp, #1
 2866              	.LVL365:
 2867              	.L367:
 2868              		.loc 1 716 0
 2869 014e 2368     		ldr	r3, [r4]
 2870 0150 1B78     		ldrb	r3, [r3]	@ zero_extendqisi2
 2871 0152 102B     		cmp	r3, #16
 2872 0154 4CD0     		beq	.L408
 2873              		.loc 1 721 0
 2874 0156 0023     		movs	r3, #0
 2875              		.loc 1 727 0
 2876 0158 0A98     		ldr	r0, [sp, #40]
 2877              		.loc 1 721 0
 2878 015a 6360     		str	r3, [r4, #4]
 2879              		.loc 1 722 0
 2880 015c 2381     		strh	r3, [r4, #8]	@ movhi
 2881              		.loc 1 727 0
 2882 015e FFF7FEFF 		bl	netbuf_delete
 2883              	.LVL366:
 2884              		.loc 1 731 0
 2885 0162 BBF1000F 		cmp	fp, #0
 2886 0166 D8D1     		bne	.L377
 2887              	.LVL367:
 2888              	.L404:
 2889              		.loc 1 579 0
 2890 0168 6368     		ldr	r3, [r4, #4]
 2891 016a 002B     		cmp	r3, #0
 2892 016c 7FF46CAF 		bne	.L409
ARM GAS  C:\Users\jo\AppData\Local\Temp\cc6wN9Ut.s 			page 52


 2893              	.L346:
 2894              		.loc 1 583 0
 2895 0170 19F0080F 		tst	r9, #8
 2896 0174 03D1     		bne	.L348
 2897              		.loc 1 583 0 is_stmt 0 discriminator 2
 2898 0176 2068     		ldr	r0, [r4]
 2899 0178 037F     		ldrb	r3, [r0, #28]	@ zero_extendqisi2
 2900 017a 9A07     		lsls	r2, r3, #30
 2901 017c 05D5     		bpl	.L349
 2902              	.L348:
 2903              		.loc 1 583 0 discriminator 3
 2904 017e B4F90A30 		ldrsh	r3, [r4, #10]
 2905              		.loc 1 584 0 is_stmt 1 discriminator 3
 2906 0182 504D     		ldr	r5, .L414
 2907              		.loc 1 583 0 discriminator 3
 2908 0184 002B     		cmp	r3, #0
 2909 0186 77DD     		ble	.L350
 2910 0188 2068     		ldr	r0, [r4]
 2911              	.L349:
 2912              		.loc 1 599 0
 2913 018a 0378     		ldrb	r3, [r0]	@ zero_extendqisi2
 2914 018c 102B     		cmp	r3, #16
 2915              		.loc 1 600 0
 2916 018e 0AA9     		add	r1, sp, #40
 2917              		.loc 1 599 0
 2918 0190 3AD0     		beq	.L410
 2919              		.loc 1 602 0
 2920 0192 FFF7FEFF 		bl	netconn_recv
 2921              	.LVL368:
 2922              		.loc 1 607 0
 2923 0196 0028     		cmp	r0, #0
 2924 0198 3AD1     		bne	.L411
 2925              	.L354:
 2926              		.loc 1 625 0
 2927 019a 0A9B     		ldr	r3, [sp, #40]
 2928 019c 002B     		cmp	r3, #0
 2929 019e 5DD0     		beq	.L412
 2930              	.LVL369:
 2931              	.L357:
 2932              		.loc 1 626 0
 2933 01a0 6360     		str	r3, [r4, #4]
 2934 01a2 9B46     		mov	fp, r3
 2935 01a4 52E7     		b	.L347
 2936              	.LVL370:
 2937              	.L360:
 2938 01a6 09F0010B 		and	fp, r9, #1
 2939              	.LVL371:
 2940              	.LBB214:
 2941              		.loc 1 668 0
 2942 01aa BAF1000F 		cmp	r10, #0
 2943 01ae B1D0     		beq	.L368
 2944              		.loc 1 668 0 is_stmt 0 discriminator 1
 2945 01b0 1B9B     		ldr	r3, [sp, #108]
 2946 01b2 002B     		cmp	r3, #0
 2947 01b4 AED0     		beq	.L368
 2948              	.LBB213:
 2949              		.loc 1 671 0 is_stmt 1
ARM GAS  C:\Users\jo\AppData\Local\Temp\cc6wN9Ut.s 			page 53


 2950 01b6 2068     		ldr	r0, [r4]
 2951 01b8 0378     		ldrb	r3, [r0]	@ zero_extendqisi2
 2952 01ba 102B     		cmp	r3, #16
 2953 01bc 81D1     		bne	.L369
 2954              	.L407:
 2955              	.LVL372:
 2956              		.loc 1 673 0
 2957 01be 0BA9     		add	r1, sp, #44
 2958              	.LVL373:
 2959 01c0 0DF12602 		add	r2, sp, #38
 2960 01c4 0023     		movs	r3, #0
 2961              		.loc 1 672 0
 2962 01c6 0391     		str	r1, [sp, #12]
 2963              		.loc 1 673 0
 2964 01c8 FFF7FEFF 		bl	netconn_getaddr
 2965              	.LVL374:
 2966 01cc BDF82600 		ldrh	r0, [sp, #38]
 2967 01d0 DDF80CC0 		ldr	ip, [sp, #12]
 2968 01d4 7BE7     		b	.L370
 2969              	.LVL375:
 2970              	.L406:
 2971              	.LBE213:
 2972              	.LBE214:
 2973              		.loc 1 653 0 discriminator 1
 2974 01d6 3C4B     		ldr	r3, .L414+4
 2975 01d8 0093     		str	r3, [sp]
 2976 01da 3C49     		ldr	r1, .L414+8
 2977 01dc 3C4A     		ldr	r2, .L414+12
 2978 01de 3D48     		ldr	r0, .L414+16
 2979 01e0 40F28D23 		movw	r3, #653
 2980 01e4 FFF7FEFF 		bl	chprintf.constprop.0
 2981              	.LVL376:
 2982              	.LBB215:
 2983              	.LBB216:
 2984              		.loc 3 416 0 discriminator 1
 2985 01e8 3948     		ldr	r0, .L414+12
 2986 01ea FFF7FEFF 		bl	chSysHalt
 2987              	.LVL377:
 2988 01ee 4CE7     		b	.L361
 2989              	.LVL378:
 2990              	.L408:
 2991              	.LBE216:
 2992              	.LBE215:
 2993              		.loc 1 716 0 discriminator 1
 2994 01f0 AD1B     		subs	r5, r5, r6
 2995              	.LVL379:
 2996 01f2 002D     		cmp	r5, #0
 2997 01f4 28DD     		ble	.L375
 2998              		.loc 1 718 0
 2999 01f6 2389     		ldrh	r3, [r4, #8]
 3000              		.loc 1 717 0
 3001 01f8 0A9A     		ldr	r2, [sp, #40]
 3002 01fa 6260     		str	r2, [r4, #4]
 3003              		.loc 1 718 0
 3004 01fc 1E44     		add	r6, r6, r3
 3005              	.LVL380:
 3006 01fe 2681     		strh	r6, [r4, #8]	@ movhi
ARM GAS  C:\Users\jo\AppData\Local\Temp\cc6wN9Ut.s 			page 54


 3007              		.loc 1 731 0
 3008 0200 BBF1000F 		cmp	fp, #0
 3009 0204 B0D0     		beq	.L404
 3010 0206 88E7     		b	.L377
 3011              	.LVL381:
 3012              	.L410:
 3013              		.loc 1 600 0
 3014 0208 FFF7FEFF 		bl	netconn_recv_tcp_pbuf
 3015              	.LVL382:
 3016              		.loc 1 607 0
 3017 020c 0028     		cmp	r0, #0
 3018 020e C4D0     		beq	.L354
 3019              	.L411:
 3020              		.loc 1 608 0
 3021 0210 B8F1000F 		cmp	r8, #0
 3022 0214 3ED1     		bne	.L413
 3023              		.loc 1 618 0
 3024 0216 43B2     		sxtb	r3, r0
 3025 0218 5A42     		negs	r2, r3
 3026 021a 0F2A     		cmp	r2, #15
 3027 021c 98BF     		it	ls
 3028 021e 2E49     		ldrls	r1, .L414+20
 3029 0220 0598     		ldr	r0, [sp, #20]
 3030              	.LVL383:
 3031 0222 98BF     		it	ls
 3032 0224 51F82210 		ldrls	r1, [r1, r2, lsl #2]
 3033 0228 069A     		ldr	r2, [sp, #24]
 3034 022a 0244     		add	r2, r2, r0
 3035 022c 2548     		ldr	r0, .L414
 3036 022e 88BF     		it	hi
 3037 0230 0521     		movhi	r1, #5
 3038 0232 00EBC202 		add	r2, r0, r2, lsl #3
 3039              		.loc 1 619 0
 3040 0236 13F10C08 		adds	r8, r3, #12
 3041              	.LVL384:
 3042 023a 18BF     		it	ne
 3043 023c 4FF00108 		movne	r8, #1
 3044              		.loc 1 618 0
 3045 0240 1161     		str	r1, [r2, #16]
 3046              		.loc 1 619 0
 3047 0242 C8F10000 		rsb	r0, r8, #0
 3048 0246 EBE6     		b	.L401
 3049              	.LVL385:
 3050              	.L375:
 3051              		.loc 1 721 0
 3052 0248 0023     		movs	r3, #0
 3053              		.loc 1 725 0
 3054 024a 0A98     		ldr	r0, [sp, #40]
 3055              		.loc 1 721 0
 3056 024c 6360     		str	r3, [r4, #4]
 3057              		.loc 1 722 0
 3058 024e 2381     		strh	r3, [r4, #8]	@ movhi
 3059              		.loc 1 725 0
 3060 0250 FFF7FEFF 		bl	pbuf_free
 3061              	.LVL386:
 3062              		.loc 1 731 0
 3063 0254 BBF1000F 		cmp	fp, #0
ARM GAS  C:\Users\jo\AppData\Local\Temp\cc6wN9Ut.s 			page 55


 3064 0258 86D0     		beq	.L404
 3065 025a 5EE7     		b	.L377
 3066              	.LVL387:
 3067              	.L412:
 3068              		.loc 1 625 0 discriminator 1
 3069 025c 1A4B     		ldr	r3, .L414+4
 3070 025e 0093     		str	r3, [sp]
 3071 0260 1A49     		ldr	r1, .L414+8
 3072 0262 1E4A     		ldr	r2, .L414+24
 3073 0264 1B48     		ldr	r0, .L414+16
 3074              	.LVL388:
 3075 0266 40F27123 		movw	r3, #625
 3076 026a FFF7FEFF 		bl	chprintf.constprop.0
 3077              	.LVL389:
 3078              	.LBB217:
 3079              	.LBB218:
 3080              		.loc 3 416 0 discriminator 1
 3081 026e 1B48     		ldr	r0, .L414+24
 3082 0270 FFF7FEFF 		bl	chSysHalt
 3083              	.LVL390:
 3084 0274 0A9B     		ldr	r3, [sp, #40]
 3085 0276 93E7     		b	.L357
 3086              	.LVL391:
 3087              	.L350:
 3088              	.LBE218:
 3089              	.LBE217:
 3090              		.loc 1 585 0
 3091 0278 B8F1000F 		cmp	r8, #0
 3092 027c 19D0     		beq	.L351
 3093              		.loc 1 587 0
 3094 027e 2068     		ldr	r0, [r4]
 3095 0280 4146     		mov	r1, r8
 3096 0282 FFF7FEFF 		bl	netconn_recved
 3097              	.LVL392:
 3098              		.loc 1 589 0
 3099 0286 079B     		ldr	r3, [sp, #28]
 3100 0288 05EBC305 		add	r5, r5, r3, lsl #3
 3101 028c 0023     		movs	r3, #0
 3102              		.loc 1 590 0
 3103 028e 4046     		mov	r0, r8
 3104              		.loc 1 589 0
 3105 0290 2B61     		str	r3, [r5, #16]
 3106              		.loc 1 590 0
 3107 0292 C5E6     		b	.L401
 3108              	.LVL393:
 3109              	.L413:
 3110              		.loc 1 610 0
 3111 0294 069B     		ldr	r3, [sp, #24]
 3112 0296 059A     		ldr	r2, [sp, #20]
 3113 0298 1344     		add	r3, r3, r2
 3114 029a DC00     		lsls	r4, r3, #3
 3115 029c 094B     		ldr	r3, .L414
 3116 029e 4146     		mov	r1, r8
 3117 02a0 1859     		ldr	r0, [r3, r4]
 3118              	.LVL394:
 3119 02a2 FFF7FEFF 		bl	netconn_recved
 3120              	.LVL395:
ARM GAS  C:\Users\jo\AppData\Local\Temp\cc6wN9Ut.s 			page 56


 3121              		.loc 1 612 0
 3122 02a6 074B     		ldr	r3, .L414
 3123 02a8 1C44     		add	r4, r4, r3
 3124 02aa 0023     		movs	r3, #0
 3125              		.loc 1 613 0
 3126 02ac 4046     		mov	r0, r8
 3127              		.loc 1 612 0
 3128 02ae 2361     		str	r3, [r4, #16]
 3129              		.loc 1 613 0
 3130 02b0 B6E6     		b	.L401
 3131              	.L351:
 3132              		.loc 1 593 0
 3133 02b2 079B     		ldr	r3, [sp, #28]
 3134 02b4 05EBC305 		add	r5, r5, r3, lsl #3
 3135 02b8 0B23     		movs	r3, #11
 3136 02ba 2B61     		str	r3, [r5, #16]
 3137              		.loc 1 594 0
 3138 02bc 4FF0FF30 		mov	r0, #-1
 3139 02c0 AEE6     		b	.L401
 3140              	.L415:
 3141 02c2 00BF     		.align	2
 3142              	.L414:
 3143 02c4 00000000 		.word	.LANCHOR0
 3144 02c8 34000000 		.word	.LC2
 3145 02cc 00000000 		.word	.LC0
 3146 02d0 3C010000 		.word	.LC13
 3147 02d4 00000000 		.word	itm_port
 3148 02d8 00000000 		.word	.LANCHOR1
 3149 02dc 30010000 		.word	.LC12
 3150              		.cfi_endproc
 3151              	.LFE270:
 3152              		.size	lwip_recvfrom, .-lwip_recvfrom
 3153              		.section	.text.lwip_read,"ax",%progbits
 3154              		.align	2
 3155              		.p2align 4,,15
 3156              		.global	lwip_read
 3157              		.thumb
 3158              		.thumb_func
 3159              		.type	lwip_read, %function
 3160              	lwip_read:
 3161              	.LFB271:
 3162              		.loc 1 743 0
 3163              		.cfi_startproc
 3164              		@ args = 0, pretend = 0, frame = 0
 3165              		@ frame_needed = 0, uses_anonymous_args = 0
 3166              	.LVL396:
 3167 0000 00B5     		push	{lr}
 3168              		.cfi_def_cfa_offset 4
 3169              		.cfi_offset 14, -4
 3170 0002 83B0     		sub	sp, sp, #12
 3171              		.cfi_def_cfa_offset 16
 3172              		.loc 1 744 0
 3173 0004 0023     		movs	r3, #0
 3174 0006 0093     		str	r3, [sp]
 3175 0008 0193     		str	r3, [sp, #4]
 3176 000a FFF7FEFF 		bl	lwip_recvfrom
 3177              	.LVL397:
ARM GAS  C:\Users\jo\AppData\Local\Temp\cc6wN9Ut.s 			page 57


 3178              		.loc 1 745 0
 3179 000e 03B0     		add	sp, sp, #12
 3180              		.cfi_def_cfa_offset 4
 3181              		@ sp needed
 3182 0010 5DF804FB 		ldr	pc, [sp], #4
 3183              		.cfi_endproc
 3184              	.LFE271:
 3185              		.size	lwip_read, .-lwip_read
 3186 0014 AFF30080 		.section	.text.lwip_recv,"ax",%progbits
 3186      AFF30080 
 3186      AFF30080 
 3187              		.align	2
 3188              		.p2align 4,,15
 3189              		.global	lwip_recv
 3190              		.thumb
 3191              		.thumb_func
 3192              		.type	lwip_recv, %function
 3193              	lwip_recv:
 3194              	.LFB272:
 3195              		.loc 1 749 0
 3196              		.cfi_startproc
 3197              		@ args = 0, pretend = 0, frame = 0
 3198              		@ frame_needed = 0, uses_anonymous_args = 0
 3199              	.LVL398:
 3200 0000 10B5     		push	{r4, lr}
 3201              		.cfi_def_cfa_offset 8
 3202              		.cfi_offset 4, -8
 3203              		.cfi_offset 14, -4
 3204 0002 82B0     		sub	sp, sp, #8
 3205              		.cfi_def_cfa_offset 16
 3206              		.loc 1 750 0
 3207 0004 0024     		movs	r4, #0
 3208 0006 0094     		str	r4, [sp]
 3209 0008 0194     		str	r4, [sp, #4]
 3210 000a FFF7FEFF 		bl	lwip_recvfrom
 3211              	.LVL399:
 3212              		.loc 1 751 0
 3213 000e 02B0     		add	sp, sp, #8
 3214              		.cfi_def_cfa_offset 8
 3215              		@ sp needed
 3216 0010 10BD     		pop	{r4, pc}
 3217              		.cfi_endproc
 3218              	.LFE272:
 3219              		.size	lwip_recv, .-lwip_recv
 3220 0012 00BFAFF3 		.section	.text.lwip_sendto,"ax",%progbits
 3220      0080AFF3 
 3220      0080AFF3 
 3220      0080
 3221              		.align	2
 3222              		.p2align 4,,15
 3223              		.global	lwip_sendto
 3224              		.thumb
 3225              		.thumb_func
 3226              		.type	lwip_sendto, %function
 3227              	lwip_sendto:
 3228              	.LFB274:
 3229              		.loc 1 792 0
ARM GAS  C:\Users\jo\AppData\Local\Temp\cc6wN9Ut.s 			page 58


 3230              		.cfi_startproc
 3231              		@ args = 8, pretend = 0, frame = 16
 3232              		@ frame_needed = 0, uses_anonymous_args = 0
 3233              	.LVL400:
 3234 0000 2DE9F047 		push	{r4, r5, r6, r7, r8, r9, r10, lr}
 3235              		.cfi_def_cfa_offset 32
 3236              		.cfi_offset 4, -32
 3237              		.cfi_offset 5, -28
 3238              		.cfi_offset 6, -24
 3239              		.cfi_offset 7, -20
 3240              		.cfi_offset 8, -16
 3241              		.cfi_offset 9, -12
 3242              		.cfi_offset 10, -8
 3243              		.cfi_offset 14, -4
 3244 0004 86B0     		sub	sp, sp, #24
 3245              		.cfi_def_cfa_offset 56
 3246              	.LBB219:
 3247              	.LBB220:
 3248              		.loc 1 199 0
 3249 0006 0128     		cmp	r0, #1
 3250              	.LBE220:
 3251              	.LBE219:
 3252              		.loc 1 792 0
 3253 0008 0446     		mov	r4, r0
 3254              	.LVL401:
 3255 000a 0E9D     		ldr	r5, [sp, #56]
 3256 000c 0F9F     		ldr	r7, [sp, #60]
 3257              	.LBB223:
 3258              	.LBB221:
 3259              		.loc 1 199 0
 3260 000e 04D9     		bls	.L449
 3261              	.LVL402:
 3262              	.L446:
 3263              	.LBE221:
 3264              	.LBE223:
 3265              		.loc 1 820 0 discriminator 8
 3266 0010 4FF0FF30 		mov	r0, #-1
 3267              	.L441:
 3268              		.loc 1 945 0
 3269 0014 06B0     		add	sp, sp, #24
 3270              		.cfi_remember_state
 3271              		.cfi_def_cfa_offset 32
 3272              		@ sp needed
 3273 0016 BDE8F087 		pop	{r4, r5, r6, r7, r8, r9, r10, pc}
 3274              	.LVL403:
 3275              	.L449:
 3276              		.cfi_restore_state
 3277              	.LBB224:
 3278              	.LBB222:
 3279              		.loc 1 207 0
 3280 001a 4FEA4009 		lsl	r9, r0, #1
 3281 001e 09EB000E 		add	lr, r9, r0
 3282 0022 DFF81C81 		ldr	r8, .L454+24
 3283 0026 58F83EE0 		ldr	lr, [r8, lr, lsl #3]
 3284 002a BEF1000F 		cmp	lr, #0
 3285 002e EFD0     		beq	.L446
 3286              	.LBE222:
ARM GAS  C:\Users\jo\AppData\Local\Temp\cc6wN9Ut.s 			page 59


 3287              	.LBE224:
 3288              		.loc 1 807 0
 3289 0030 9EF800E0 		ldrb	lr, [lr]	@ zero_extendqisi2
 3290 0034 BEF1100F 		cmp	lr, #16
 3291 0038 73D0     		beq	.L450
 3292              		.loc 1 818 0
 3293 003a B2F5803F 		cmp	r2, #65536
 3294 003e 8A46     		mov	r10, r1
 3295 0040 1646     		mov	r6, r2
 3296 0042 43D2     		bcs	.L451
 3297              		.loc 1 819 0
 3298 0044 B6B2     		uxth	r6, r6
 3299              	.LVL404:
 3300              		.loc 1 820 0
 3301 0046 002D     		cmp	r5, #0
 3302 0048 4FD0     		beq	.L452
 3303              	.LVL405:
 3304              	.L426:
 3305              		.loc 1 820 0 is_stmt 0 discriminator 3
 3306 004a 102F     		cmp	r7, #16
 3307 004c 57D1     		bne	.L428
 3308              		.loc 1 820 0 discriminator 5
 3309 004e 6B78     		ldrb	r3, [r5, #1]	@ zero_extendqisi2
 3310 0050 022B     		cmp	r3, #2
 3311 0052 54D1     		bne	.L428
 3312              		.loc 1 820 0 discriminator 7
 3313 0054 15F00303 		ands	r3, r5, #3
 3314 0058 51D1     		bne	.L428
 3315              	.LVL406:
 3316              		.loc 1 901 0 is_stmt 1
 3317 005a 6A68     		ldr	r2, [r5, #4]
 3318              		.loc 1 902 0
 3319 005c 6888     		ldrh	r0, [r5, #2]
 3320              		.loc 1 896 0
 3321 005e 0393     		str	r3, [sp, #12]
 3322 0060 0293     		str	r3, [sp, #8]
 3323              		.loc 1 901 0
 3324 0062 0492     		str	r2, [sp, #16]
 3325              		.loc 1 902 0
 3326 0064 FFF7FEFF 		bl	lwip_ntohs
 3327              	.LVL407:
 3328              		.loc 1 903 0
 3329 0068 ADF81400 		strh	r0, [sp, #20]	@ movhi
 3330              	.LVL408:
 3331              	.L434:
 3332              		.loc 1 933 0
 3333 006c 5146     		mov	r1, r10
 3334 006e 02A8     		add	r0, sp, #8
 3335 0070 3246     		mov	r2, r6
 3336 0072 FFF7FEFF 		bl	netbuf_ref
 3337              	.LVL409:
 3338              		.loc 1 935 0
 3339 0076 0546     		mov	r5, r0
 3340 0078 68B1     		cbz	r0, .L453
 3341              	.LVL410:
 3342              		.loc 1 941 0
 3343 007a 02A8     		add	r0, sp, #8
ARM GAS  C:\Users\jo\AppData\Local\Temp\cc6wN9Ut.s 			page 60


 3344 007c FFF7FEFF 		bl	netbuf_free
 3345              	.LVL411:
 3346              		.loc 1 943 0
 3347 0080 6B42     		negs	r3, r5
 3348 0082 0F2B     		cmp	r3, #15
 3349 0084 15D9     		bls	.L435
 3350 0086 1823     		movs	r3, #24
 3351 0088 03FB0484 		mla	r4, r3, r4, r8
 3352              	.LVL412:
 3353 008c 0523     		movs	r3, #5
 3354 008e 2361     		str	r3, [r4, #16]
 3355              		.loc 1 944 0
 3356 0090 4FF0FF30 		mov	r0, #-1
 3357 0094 BEE7     		b	.L441
 3358              	.LVL413:
 3359              	.L453:
 3360              		.loc 1 937 0
 3361 0096 09EB0403 		add	r3, r9, r4
 3362 009a 02A9     		add	r1, sp, #8
 3363 009c 58F83300 		ldr	r0, [r8, r3, lsl #3]
 3364              	.LVL414:
 3365 00a0 FFF7FEFF 		bl	netconn_send
 3366              	.LVL415:
 3367 00a4 0546     		mov	r5, r0
 3368              	.LVL416:
 3369              		.loc 1 941 0
 3370 00a6 02A8     		add	r0, sp, #8
 3371 00a8 FFF7FEFF 		bl	netbuf_free
 3372              	.LVL417:
 3373              		.loc 1 943 0
 3374 00ac 6B42     		negs	r3, r5
 3375 00ae 0F2B     		cmp	r3, #15
 3376 00b0 23D8     		bhi	.L437
 3377              	.L435:
 3378              		.loc 1 943 0 is_stmt 0 discriminator 1
 3379 00b2 1D4A     		ldr	r2, .L454
 3380 00b4 52F82330 		ldr	r3, [r2, r3, lsl #2]
 3381              	.L431:
 3382              		.loc 1 943 0 discriminator 4
 3383 00b8 4C44     		add	r4, r4, r9
 3384              	.LVL418:
 3385 00ba 08EBC404 		add	r4, r8, r4, lsl #3
 3386 00be 2361     		str	r3, [r4, #16]
 3387              		.loc 1 944 0 is_stmt 1 discriminator 4
 3388 00c0 002D     		cmp	r5, #0
 3389 00c2 A5D1     		bne	.L446
 3390 00c4 3046     		mov	r0, r6
 3391              		.loc 1 945 0 discriminator 1
 3392 00c6 06B0     		add	sp, sp, #24
 3393              		.cfi_remember_state
 3394              		.cfi_def_cfa_offset 32
 3395              		@ sp needed
 3396 00c8 BDE8F087 		pop	{r4, r5, r6, r7, r8, r9, r10, pc}
 3397              	.LVL419:
 3398              	.L451:
 3399              		.cfi_restore_state
 3400              		.loc 1 818 0 discriminator 1
ARM GAS  C:\Users\jo\AppData\Local\Temp\cc6wN9Ut.s 			page 61


 3401 00cc 174B     		ldr	r3, .L454+4
 3402              	.LVL420:
 3403 00ce 0093     		str	r3, [sp]
 3404 00d0 1749     		ldr	r1, .L454+8
 3405              	.LVL421:
 3406 00d2 184A     		ldr	r2, .L454+12
 3407              	.LVL422:
 3408 00d4 1848     		ldr	r0, .L454+16
 3409              	.LVL423:
 3410 00d6 40F23233 		movw	r3, #818
 3411 00da FFF7FEFF 		bl	chprintf.constprop.0
 3412              	.LVL424:
 3413              	.LBB225:
 3414              	.LBB226:
 3415              		.loc 3 416 0 discriminator 1
 3416 00de 1548     		ldr	r0, .L454+12
 3417 00e0 FFF7FEFF 		bl	chSysHalt
 3418              	.LVL425:
 3419              	.LBE226:
 3420              	.LBE225:
 3421              		.loc 1 819 0 discriminator 1
 3422 00e4 B6B2     		uxth	r6, r6
 3423              	.LVL426:
 3424              		.loc 1 820 0 discriminator 1
 3425 00e6 002D     		cmp	r5, #0
 3426 00e8 AFD1     		bne	.L426
 3427              	.LVL427:
 3428              	.L452:
 3429              		.loc 1 820 0 is_stmt 0 discriminator 2
 3430 00ea 002F     		cmp	r7, #0
 3431 00ec ADD1     		bne	.L426
 3432              	.LVL428:
 3433              		.loc 1 896 0 is_stmt 1
 3434 00ee 0397     		str	r7, [sp, #12]
 3435 00f0 0297     		str	r7, [sp, #8]
 3436              	.LVL429:
 3437              		.loc 1 906 0
 3438 00f2 0497     		str	r7, [sp, #16]
 3439              		.loc 1 907 0
 3440 00f4 ADF81470 		strh	r7, [sp, #20]	@ movhi
 3441 00f8 B8E7     		b	.L434
 3442              	.LVL430:
 3443              	.L437:
 3444              		.loc 1 943 0
 3445 00fa 0523     		movs	r3, #5
 3446 00fc DCE7     		b	.L431
 3447              	.LVL431:
 3448              	.L428:
 3449              		.loc 1 820 0 discriminator 8
 3450 00fe 0B4B     		ldr	r3, .L454+4
 3451 0100 0093     		str	r3, [sp]
 3452 0102 0B49     		ldr	r1, .L454+8
 3453 0104 0D4A     		ldr	r2, .L454+20
 3454 0106 0C48     		ldr	r0, .L454+16
 3455 0108 40F23733 		movw	r3, #823
 3456 010c 4C44     		add	r4, r4, r9
 3457              	.LVL432:
ARM GAS  C:\Users\jo\AppData\Local\Temp\cc6wN9Ut.s 			page 62


 3458 010e FFF7FEFF 		bl	chprintf.constprop.0
 3459              	.LVL433:
 3460 0112 08EBC404 		add	r4, r8, r4, lsl #3
 3461              	.LBB227:
 3462              	.LBB228:
 3463              		.loc 3 416 0 discriminator 8
 3464 0116 0948     		ldr	r0, .L454+20
 3465 0118 FFF7FEFF 		bl	chSysHalt
 3466              	.LVL434:
 3467              	.LBE228:
 3468              	.LBE227:
 3469              		.loc 1 820 0 discriminator 8
 3470 011c 0523     		movs	r3, #5
 3471 011e 2361     		str	r3, [r4, #16]
 3472 0120 76E7     		b	.L446
 3473              	.LVL435:
 3474              	.L450:
 3475              		.loc 1 809 0
 3476 0122 FFF7FEFF 		bl	lwip_send
 3477              	.LVL436:
 3478 0126 75E7     		b	.L441
 3479              	.L455:
 3480              		.align	2
 3481              	.L454:
 3482 0128 00000000 		.word	.LANCHOR1
 3483 012c 34000000 		.word	.LC2
 3484 0130 00000000 		.word	.LC0
 3485 0134 64010000 		.word	.LC14
 3486 0138 00000000 		.word	itm_port
 3487 013c 88010000 		.word	.LC15
 3488 0140 00000000 		.word	.LANCHOR0
 3489              		.cfi_endproc
 3490              	.LFE274:
 3491              		.size	lwip_sendto, .-lwip_sendto
 3492              		.section	.text.lwip_send,"ax",%progbits
 3493              		.align	2
 3494              		.p2align 4,,15
 3495              		.global	lwip_send
 3496              		.thumb
 3497              		.thumb_func
 3498              		.type	lwip_send, %function
 3499              	lwip_send:
 3500              	.LFB273:
 3501              		.loc 1 755 0
 3502              		.cfi_startproc
 3503              		@ args = 0, pretend = 0, frame = 8
 3504              		@ frame_needed = 0, uses_anonymous_args = 0
 3505              	.LVL437:
 3506 0000 2DE9F041 		push	{r4, r5, r6, r7, r8, lr}
 3507              		.cfi_def_cfa_offset 24
 3508              		.cfi_offset 4, -24
 3509              		.cfi_offset 5, -20
 3510              		.cfi_offset 6, -16
 3511              		.cfi_offset 7, -12
 3512              		.cfi_offset 8, -8
 3513              		.cfi_offset 14, -4
 3514              	.LBB229:
ARM GAS  C:\Users\jo\AppData\Local\Temp\cc6wN9Ut.s 			page 63


 3515              	.LBB230:
 3516              		.loc 1 199 0
 3517 0004 0128     		cmp	r0, #1
 3518              	.LBE230:
 3519              	.LBE229:
 3520              		.loc 1 755 0
 3521 0006 84B0     		sub	sp, sp, #16
 3522              		.cfi_def_cfa_offset 40
 3523              		.loc 1 755 0
 3524 0008 0446     		mov	r4, r0
 3525              	.LVL438:
 3526              	.LBB233:
 3527              	.LBB231:
 3528              		.loc 1 199 0
 3529 000a 04D9     		bls	.L457
 3530              	.LVL439:
 3531              	.L459:
 3532              	.LBE231:
 3533              	.LBE233:
 3534              		.loc 1 766 0
 3535 000c 4FF0FF30 		mov	r0, #-1
 3536              		.loc 1 787 0
 3537 0010 04B0     		add	sp, sp, #16
 3538              		.cfi_remember_state
 3539              		.cfi_def_cfa_offset 24
 3540              		@ sp needed
 3541 0012 BDE8F081 		pop	{r4, r5, r6, r7, r8, pc}
 3542              	.LVL440:
 3543              	.L457:
 3544              		.cfi_restore_state
 3545              	.LBB234:
 3546              	.LBB232:
 3547              		.loc 1 207 0
 3548 0016 4FEA4008 		lsl	r8, r0, #1
 3549 001a 08EB0006 		add	r6, r8, r0
 3550 001e 1C4F     		ldr	r7, .L478
 3551 0020 57F836E0 		ldr	lr, [r7, r6, lsl #3]
 3552 0024 BEF1000F 		cmp	lr, #0
 3553 0028 F0D0     		beq	.L459
 3554              	.LBE232:
 3555              	.LBE234:
 3556              		.loc 1 769 0
 3557 002a 9EF80060 		ldrb	r6, [lr]	@ zero_extendqisi2
 3558 002e 102E     		cmp	r6, #16
 3559 0030 26D1     		bne	.L477
 3560              		.loc 1 781 0
 3561 0032 04AE     		add	r6, sp, #16
 3562 0034 1D46     		mov	r5, r3
 3563              		.loc 1 778 0
 3564 0036 13F0100F 		tst	r3, #16
 3565              		.loc 1 781 0
 3566 003a 4FF00000 		mov	r0, #0
 3567              	.LVL441:
 3568 003e 46F8040D 		str	r0, [r6, #-4]!
 3569              		.loc 1 778 0
 3570 0042 14BF     		ite	ne
 3571 0044 0323     		movne	r3, #3
ARM GAS  C:\Users\jo\AppData\Local\Temp\cc6wN9Ut.s 			page 64


 3572              	.LVL442:
 3573 0046 0123     		moveq	r3, #1
 3574 0048 15F0080F 		tst	r5, #8
 3575 004c 0CBF     		ite	eq
 3576 004e 0546     		moveq	r5, r0
 3577              	.LVL443:
 3578 0050 0425     		movne	r5, #4
 3579              	.LVL444:
 3580              		.loc 1 782 0
 3581 0052 2B43     		orrs	r3, r3, r5
 3582              	.LVL445:
 3583 0054 7046     		mov	r0, lr
 3584 0056 0096     		str	r6, [sp]
 3585 0058 FFF7FEFF 		bl	netconn_write_partly
 3586              	.LVL446:
 3587              		.loc 1 785 0
 3588 005c 4342     		negs	r3, r0
 3589 005e 0F2B     		cmp	r3, #15
 3590 0060 98BF     		it	ls
 3591 0062 0C4A     		ldrls	r2, .L478+4
 3592 0064 4444     		add	r4, r4, r8
 3593              	.LVL447:
 3594 0066 07EBC404 		add	r4, r7, r4, lsl #3
 3595 006a 94BF     		ite	ls
 3596 006c 52F82330 		ldrls	r3, [r2, r3, lsl #2]
 3597 0070 0523     		movhi	r3, #5
 3598 0072 2361     		str	r3, [r4, #16]
 3599              		.loc 1 786 0
 3600 0074 0028     		cmp	r0, #0
 3601 0076 C9D1     		bne	.L459
 3602              		.loc 1 786 0 is_stmt 0 discriminator 1
 3603 0078 0398     		ldr	r0, [sp, #12]
 3604              	.LVL448:
 3605              		.loc 1 787 0 is_stmt 1 discriminator 1
 3606 007a 04B0     		add	sp, sp, #16
 3607              		.cfi_remember_state
 3608              		.cfi_def_cfa_offset 24
 3609              		@ sp needed
 3610 007c BDE8F081 		pop	{r4, r5, r6, r7, r8, pc}
 3611              	.LVL449:
 3612              	.L477:
 3613              		.cfi_restore_state
 3614              		.loc 1 771 0
 3615 0080 0024     		movs	r4, #0
 3616 0082 0094     		str	r4, [sp]
 3617 0084 0194     		str	r4, [sp, #4]
 3618 0086 FFF7FEFF 		bl	lwip_sendto
 3619              	.LVL450:
 3620              		.loc 1 787 0
 3621 008a 04B0     		add	sp, sp, #16
 3622              		.cfi_def_cfa_offset 24
 3623              		@ sp needed
 3624 008c BDE8F081 		pop	{r4, r5, r6, r7, r8, pc}
 3625              	.L479:
 3626              		.align	2
 3627              	.L478:
 3628 0090 00000000 		.word	.LANCHOR0
ARM GAS  C:\Users\jo\AppData\Local\Temp\cc6wN9Ut.s 			page 65


 3629 0094 00000000 		.word	.LANCHOR1
 3630              		.cfi_endproc
 3631              	.LFE273:
 3632              		.size	lwip_send, .-lwip_send
 3633 0098 AFF30080 		.section	.text.lwip_socket,"ax",%progbits
 3633      AFF30080 
 3634              		.align	2
 3635              		.p2align 4,,15
 3636              		.global	lwip_socket
 3637              		.thumb
 3638              		.thumb_func
 3639              		.type	lwip_socket, %function
 3640              	lwip_socket:
 3641              	.LFB275:
 3642              		.loc 1 949 0
 3643              		.cfi_startproc
 3644              		@ args = 0, pretend = 0, frame = 0
 3645              		@ frame_needed = 0, uses_anonymous_args = 0
 3646              	.LVL451:
 3647              		.loc 1 956 0
 3648 0000 0229     		cmp	r1, #2
 3649              		.loc 1 949 0
 3650 0002 38B5     		push	{r3, r4, r5, lr}
 3651              		.cfi_def_cfa_offset 16
 3652              		.cfi_offset 3, -16
 3653              		.cfi_offset 4, -12
 3654              		.cfi_offset 5, -8
 3655              		.cfi_offset 14, -4
 3656              		.loc 1 956 0
 3657 0004 24D0     		beq	.L482
 3658 0006 0329     		cmp	r1, #3
 3659 0008 19D0     		beq	.L483
 3660 000a 0129     		cmp	r1, #1
 3661 000c 02D0     		beq	.L499
 3662              	.LVL452:
 3663              	.L496:
 3664              		.loc 1 981 0
 3665 000e 4FF0FF30 		mov	r0, #-1
 3666              		.loc 1 1001 0
 3667 0012 38BD     		pop	{r3, r4, r5, pc}
 3668              	.LVL453:
 3669              	.L499:
 3670              		.loc 1 969 0
 3671 0014 1020     		movs	r0, #16
 3672              	.LVL454:
 3673 0016 0021     		movs	r1, #0
 3674              	.LVL455:
 3675 0018 164A     		ldr	r2, .L501
 3676              	.LVL456:
 3677 001a FFF7FEFF 		bl	netconn_new_with_proto_and_callback
 3678              	.LVL457:
 3679              		.loc 1 972 0
 3680 001e 0546     		mov	r5, r0
 3681 0020 0028     		cmp	r0, #0
 3682 0022 F4D0     		beq	.L496
 3683              		.loc 1 974 0 discriminator 1
 3684 0024 037F     		ldrb	r3, [r0, #28]	@ zero_extendqisi2
ARM GAS  C:\Users\jo\AppData\Local\Temp\cc6wN9Ut.s 			page 66


 3685 0026 43F00803 		orr	r3, r3, #8
 3686 002a 0377     		strb	r3, [r0, #28]
 3687              	.L488:
 3688              		.loc 1 990 0
 3689 002c 2846     		mov	r0, r5
 3690 002e 0021     		movs	r1, #0
 3691 0030 FFF7FEFF 		bl	alloc_socket
 3692              	.LVL458:
 3693              		.loc 1 992 0
 3694 0034 431C     		adds	r3, r0, #1
 3695              		.loc 1 990 0
 3696 0036 0446     		mov	r4, r0
 3697              	.LVL459:
 3698              		.loc 1 992 0
 3699 0038 16D0     		beq	.L500
 3700              		.loc 1 997 0
 3701 003a A861     		str	r0, [r5, #24]
 3702              		.loc 1 1000 0
 3703 003c 38BD     		pop	{r3, r4, r5, pc}
 3704              	.LVL460:
 3705              	.L483:
 3706              		.loc 1 958 0
 3707 003e D1B2     		uxtb	r1, r2
 3708              	.LVL461:
 3709 0040 4020     		movs	r0, #64
 3710              	.LVL462:
 3711 0042 0C4A     		ldr	r2, .L501
 3712              	.LVL463:
 3713 0044 FFF7FEFF 		bl	netconn_new_with_proto_and_callback
 3714              	.LVL464:
 3715 0048 0546     		mov	r5, r0
 3716              	.LVL465:
 3717              		.loc 1 984 0
 3718 004a 002D     		cmp	r5, #0
 3719 004c EED1     		bne	.L488
 3720 004e DEE7     		b	.L496
 3721              	.LVL466:
 3722              	.L482:
 3723              		.loc 1 963 0
 3724 0050 882A     		cmp	r2, #136
 3725 0052 0CBF     		ite	eq
 3726 0054 2120     		moveq	r0, #33
 3727              	.LVL467:
 3728 0056 2020     		movne	r0, #32
 3729 0058 0021     		movs	r1, #0
 3730              	.LVL468:
 3731 005a 064A     		ldr	r2, .L501
 3732              	.LVL469:
 3733 005c FFF7FEFF 		bl	netconn_new_with_proto_and_callback
 3734              	.LVL470:
 3735 0060 0546     		mov	r5, r0
 3736              	.LVL471:
 3737              		.loc 1 984 0
 3738 0062 002D     		cmp	r5, #0
 3739 0064 E2D1     		bne	.L488
 3740 0066 D2E7     		b	.L496
 3741              	.LVL472:
ARM GAS  C:\Users\jo\AppData\Local\Temp\cc6wN9Ut.s 			page 67


 3742              	.L500:
 3743              		.loc 1 993 0
 3744 0068 2846     		mov	r0, r5
 3745              	.LVL473:
 3746 006a FFF7FEFF 		bl	netconn_delete
 3747              	.LVL474:
 3748              		.loc 1 995 0
 3749 006e 2046     		mov	r0, r4
 3750 0070 38BD     		pop	{r3, r4, r5, pc}
 3751              	.LVL475:
 3752              	.L502:
 3753 0072 00BF     		.align	2
 3754              	.L501:
 3755 0074 00000000 		.word	event_callback
 3756              		.cfi_endproc
 3757              	.LFE275:
 3758              		.size	lwip_socket, .-lwip_socket
 3759 0078 AFF30080 		.section	.text.lwip_write,"ax",%progbits
 3759      AFF30080 
 3760              		.align	2
 3761              		.p2align 4,,15
 3762              		.global	lwip_write
 3763              		.thumb
 3764              		.thumb_func
 3765              		.type	lwip_write, %function
 3766              	lwip_write:
 3767              	.LFB276:
 3768              		.loc 1 1005 0
 3769              		.cfi_startproc
 3770              		@ args = 0, pretend = 0, frame = 0
 3771              		@ frame_needed = 0, uses_anonymous_args = 0
 3772              		@ link register save eliminated.
 3773              	.LVL476:
 3774              		.loc 1 1006 0
 3775 0000 0023     		movs	r3, #0
 3776 0002 FFF7FEBF 		b	lwip_send
 3777              	.LVL477:
 3778              		.cfi_endproc
 3779              	.LFE276:
 3780              		.size	lwip_write, .-lwip_write
 3781 0006 00BFAFF3 		.section	.text.lwip_select,"ax",%progbits
 3781      0080AFF3 
 3781      0080
 3782              		.align	2
 3783              		.p2align 4,,15
 3784              		.global	lwip_select
 3785              		.thumb
 3786              		.thumb_func
 3787              		.type	lwip_select, %function
 3788              	lwip_select:
 3789              	.LFB278:
 3790              		.loc 1 1090 0
 3791              		.cfi_startproc
 3792              		@ args = 4, pretend = 0, frame = 64
 3793              		@ frame_needed = 0, uses_anonymous_args = 0
 3794              	.LVL478:
 3795 0000 2DE9F04F 		push	{r4, r5, r6, r7, r8, r9, r10, fp, lr}
ARM GAS  C:\Users\jo\AppData\Local\Temp\cc6wN9Ut.s 			page 68


 3796              		.cfi_def_cfa_offset 36
 3797              		.cfi_offset 4, -36
 3798              		.cfi_offset 5, -32
 3799              		.cfi_offset 6, -28
 3800              		.cfi_offset 7, -24
 3801              		.cfi_offset 8, -20
 3802              		.cfi_offset 9, -16
 3803              		.cfi_offset 10, -12
 3804              		.cfi_offset 11, -8
 3805              		.cfi_offset 14, -4
 3806 0004 95B0     		sub	sp, sp, #84
 3807              		.cfi_def_cfa_offset 120
 3808              		.loc 1 1107 0
 3809 0006 0DF12409 		add	r9, sp, #36
 3810 000a 0DF12C0A 		add	r10, sp, #44
 3811 000e 07AC     		add	r4, sp, #28
 3812 0010 8DE81006 		stmia	sp, {r4, r9, r10}
 3813              		.loc 1 1090 0
 3814 0014 0746     		mov	r7, r0
 3815 0016 0D46     		mov	r5, r1
 3816 0018 1646     		mov	r6, r2
 3817 001a 9B46     		mov	fp, r3
 3818              		.loc 1 1107 0
 3819 001c FFF7FEFF 		bl	lwip_selscan
 3820              	.LVL479:
 3821              		.loc 1 1110 0
 3822 0020 8046     		mov	r8, r0
 3823 0022 0028     		cmp	r0, #0
 3824 0024 40F0CC80 		bne	.L505
 3825              		.loc 1 1111 0
 3826 0028 1E9B     		ldr	r3, [sp, #120]
 3827 002a 33B1     		cbz	r3, .L506
 3828              		.loc 1 1111 0 is_stmt 0 discriminator 1
 3829 002c 1B68     		ldr	r3, [r3]
 3830 002e 23B9     		cbnz	r3, .L506
 3831              		.loc 1 1111 0 discriminator 2
 3832 0030 1E9B     		ldr	r3, [sp, #120]
 3833 0032 5B68     		ldr	r3, [r3, #4]
 3834 0034 002B     		cmp	r3, #0
 3835 0036 00F0C380 		beq	.L505
 3836              	.L506:
 3837              		.loc 1 1123 0 is_stmt 1
 3838 003a 0023     		movs	r3, #0
 3839              		.loc 1 1129 0
 3840 003c 1946     		mov	r1, r3
 3841 003e 13A8     		add	r0, sp, #76
 3842              	.LVL480:
 3843              		.loc 1 1125 0
 3844 0040 0F95     		str	r5, [sp, #60]
 3845              		.loc 1 1126 0
 3846 0042 1096     		str	r6, [sp, #64]
 3847              		.loc 1 1127 0
 3848 0044 CDF844B0 		str	fp, [sp, #68]
 3849              		.loc 1 1123 0
 3850 0048 0D93     		str	r3, [sp, #52]
 3851              		.loc 1 1124 0
 3852 004a 0E93     		str	r3, [sp, #56]
ARM GAS  C:\Users\jo\AppData\Local\Temp\cc6wN9Ut.s 			page 69


 3853              		.loc 1 1128 0
 3854 004c 1293     		str	r3, [sp, #72]
 3855              		.loc 1 1129 0
 3856 004e FFF7FEFF 		bl	sys_sem_new
 3857              	.LVL481:
 3858              		.loc 1 1130 0
 3859 0052 0028     		cmp	r0, #0
 3860 0054 40F02C81 		bne	.L542
 3861              		.loc 1 1140 0
 3862 0058 A24B     		ldr	r3, .L609
 3863 005a 1B68     		ldr	r3, [r3]
 3864 005c 0D93     		str	r3, [sp, #52]
 3865              		.loc 1 1141 0
 3866 005e 0BB1     		cbz	r3, .L508
 3867              		.loc 1 1142 0
 3868 0060 0DAA     		add	r2, sp, #52
 3869 0062 5A60     		str	r2, [r3, #4]
 3870              	.L508:
 3871              		.loc 1 1144 0
 3872 0064 9F4B     		ldr	r3, .L609
 3873 0066 0DAA     		add	r2, sp, #52
 3874 0068 1A60     		str	r2, [r3]
 3875              		.loc 1 1146 0
 3876 006a 9F4B     		ldr	r3, .L609+4
 3877 006c 9E4A     		ldr	r2, .L609+4
 3878 006e 1B68     		ldr	r3, [r3]
 3879              		.loc 1 1152 0
 3880 0070 002F     		cmp	r7, #0
 3881              		.loc 1 1146 0
 3882 0072 03F10103 		add	r3, r3, #1
 3883 0076 1360     		str	r3, [r2]
 3884              	.LVL482:
 3885              		.loc 1 1152 0
 3886 0078 40F3F280 		ble	.L509
 3887 007c DFF88CC2 		ldr	ip, .L609+40
 3888 0080 CDF81080 		str	r8, [sp, #16]
 3889 0084 0024     		movs	r4, #0
 3890 0086 B846     		mov	r8, r7
 3891              	.LVL483:
 3892 0088 3746     		mov	r7, r6
 3893              	.LVL484:
 3894 008a 2E46     		mov	r6, r5
 3895              	.LVL485:
 3896 008c 6546     		mov	r5, ip
 3897              	.LVL486:
 3898              	.L517:
 3899              		.loc 1 1153 0
 3900 008e CEB1     		cbz	r6, .L510
 3901              		.loc 1 1153 0 is_stmt 0 discriminator 1
 3902 0090 6309     		lsrs	r3, r4, #5
 3903 0092 04F01F02 		and	r2, r4, #31
 3904 0096 56F82330 		ldr	r3, [r6, r3, lsl #2]
 3905 009a 1341     		asrs	r3, r3, r2
 3906 009c DA07     		lsls	r2, r3, #31
 3907 009e 11D5     		bpl	.L510
 3908              	.L511:
 3909              	.LVL487:
ARM GAS  C:\Users\jo\AppData\Local\Temp\cc6wN9Ut.s 			page 70


 3910              	.LBB235:
 3911              	.LBB236:
 3912              	.LBB237:
 3913              		.loc 1 225 0 is_stmt 1
 3914 00a0 012C     		cmp	r4, #1
 3915 00a2 40F23581 		bls	.L604
 3916              	.L516:
 3917              	.LBE237:
 3918              	.LBE236:
 3919              		.loc 1 1157 0
 3920 00a6 914B     		ldr	r3, .L609+8
 3921 00a8 9148     		ldr	r0, .L609+12
 3922 00aa 9249     		ldr	r1, .L609+16
 3923 00ac 924A     		ldr	r2, .L609+20
 3924 00ae 0093     		str	r3, [sp]
 3925 00b0 40F28543 		movw	r3, #1157
 3926              	.LVL488:
 3927              	.L600:
 3928              	.LBE235:
 3929              	.LBB242:
 3930              		.loc 1 1189 0
 3931 00b4 FFF7FEFF 		bl	chprintf.constprop.0
 3932              	.LVL489:
 3933              	.LBB243:
 3934              	.LBB244:
 3935              		.loc 3 416 0
 3936 00b8 8F48     		ldr	r0, .L609+20
 3937 00ba FFF7FEFF 		bl	chSysHalt
 3938              	.LVL490:
 3939              	.LBE244:
 3940              	.LBE243:
 3941              		.loc 1 1191 0
 3942 00be 0023     		movs	r3, #0
 3943 00c0 5B69     		ldr	r3, [r3, #20]
 3944 00c2 FFDE     		.inst	0xdeff
 3945              	.LVL491:
 3946              	.L510:
 3947              	.LBE242:
 3948              		.loc 1 1153 0 discriminator 3
 3949 00c4 3FB1     		cbz	r7, .L512
 3950              		.loc 1 1154 0
 3951 00c6 6309     		lsrs	r3, r4, #5
 3952 00c8 04F01F02 		and	r2, r4, #31
 3953 00cc 57F82330 		ldr	r3, [r7, r3, lsl #2]
 3954 00d0 1341     		asrs	r3, r3, r2
 3955 00d2 DB07     		lsls	r3, r3, #31
 3956 00d4 E4D4     		bmi	.L511
 3957              	.L512:
 3958              		.loc 1 1154 0 is_stmt 0 discriminator 1
 3959 00d6 BBF1000F 		cmp	fp, #0
 3960 00da 07D0     		beq	.L514
 3961              		.loc 1 1155 0 is_stmt 1
 3962 00dc 6309     		lsrs	r3, r4, #5
 3963 00de 04F01F02 		and	r2, r4, #31
 3964 00e2 5BF82330 		ldr	r3, [fp, r3, lsl #2]
 3965 00e6 1341     		asrs	r3, r3, r2
 3966 00e8 D807     		lsls	r0, r3, #31
ARM GAS  C:\Users\jo\AppData\Local\Temp\cc6wN9Ut.s 			page 71


 3967 00ea D9D4     		bmi	.L511
 3968              	.L514:
 3969              		.loc 1 1152 0 discriminator 2
 3970 00ec 0134     		adds	r4, r4, #1
 3971              	.LVL492:
 3972 00ee 4445     		cmp	r4, r8
 3973 00f0 05F11805 		add	r5, r5, #24
 3974 00f4 CBD1     		bne	.L517
 3975 00f6 3546     		mov	r5, r6
 3976              		.loc 1 1167 0
 3977 00f8 07AB     		add	r3, sp, #28
 3978 00fa 3E46     		mov	r6, r7
 3979              	.LVL493:
 3980 00fc 4746     		mov	r7, r8
 3981              	.LVL494:
 3982 00fe 8DE80806 		stmia	sp, {r3, r9, r10}
 3983 0102 3846     		mov	r0, r7
 3984 0104 2946     		mov	r1, r5
 3985 0106 3246     		mov	r2, r6
 3986 0108 5B46     		mov	r3, fp
 3987 010a DDF81080 		ldr	r8, [sp, #16]
 3988              	.LVL495:
 3989 010e FFF7FEFF 		bl	lwip_selscan
 3990              	.LVL496:
 3991              		.loc 1 1168 0
 3992 0112 0028     		cmp	r0, #0
 3993 0114 74D0     		beq	.L536
 3994              		.loc 1 1091 0
 3995 0116 0023     		movs	r3, #0
 3996              		.loc 1 1168 0
 3997 0118 8046     		mov	r8, r0
 3998              		.loc 1 1091 0
 3999 011a 0493     		str	r3, [sp, #16]
 4000              	.LVL497:
 4001              	.L537:
 4002 011c DFF8ECC1 		ldr	ip, .L609+40
 4003              		.loc 1 1181 0
 4004 0120 CDF81480 		str	r8, [sp, #20]
 4005 0124 0024     		movs	r4, #0
 4006 0126 B846     		mov	r8, r7
 4007 0128 3746     		mov	r7, r6
 4008              	.LVL498:
 4009 012a 2E46     		mov	r6, r5
 4010              	.LVL499:
 4011 012c 6546     		mov	r5, ip
 4012              	.LVL500:
 4013              	.L528:
 4014              		.loc 1 1185 0
 4015 012e 3EB1     		cbz	r6, .L521
 4016              		.loc 1 1185 0 is_stmt 0 discriminator 1
 4017 0130 6309     		lsrs	r3, r4, #5
 4018 0132 04F01F02 		and	r2, r4, #31
 4019 0136 56F82330 		ldr	r3, [r6, r3, lsl #2]
 4020 013a 1341     		asrs	r3, r3, r2
 4021 013c D907     		lsls	r1, r3, #31
 4022 013e 55D4     		bmi	.L522
 4023              	.L521:
ARM GAS  C:\Users\jo\AppData\Local\Temp\cc6wN9Ut.s 			page 72


 4024              		.loc 1 1185 0 discriminator 3
 4025 0140 3FB1     		cbz	r7, .L523
 4026              		.loc 1 1186 0 is_stmt 1
 4027 0142 6309     		lsrs	r3, r4, #5
 4028 0144 04F01F02 		and	r2, r4, #31
 4029 0148 57F82330 		ldr	r3, [r7, r3, lsl #2]
 4030 014c 1341     		asrs	r3, r3, r2
 4031 014e DA07     		lsls	r2, r3, #31
 4032 0150 4CD4     		bmi	.L522
 4033              	.L523:
 4034              		.loc 1 1186 0 is_stmt 0 discriminator 1
 4035 0152 BBF1000F 		cmp	fp, #0
 4036 0156 07D0     		beq	.L525
 4037              		.loc 1 1187 0 is_stmt 1
 4038 0158 6309     		lsrs	r3, r4, #5
 4039 015a 04F01F02 		and	r2, r4, #31
 4040 015e 5BF82330 		ldr	r3, [fp, r3, lsl #2]
 4041 0162 1341     		asrs	r3, r3, r2
 4042 0164 DB07     		lsls	r3, r3, #31
 4043 0166 41D4     		bmi	.L522
 4044              	.L525:
 4045              		.loc 1 1184 0 discriminator 2
 4046 0168 0134     		adds	r4, r4, #1
 4047              	.LVL501:
 4048 016a A045     		cmp	r8, r4
 4049 016c 05F11805 		add	r5, r5, #24
 4050 0170 DDDC     		bgt	.L528
 4051 0172 3546     		mov	r5, r6
 4052 0174 3E46     		mov	r6, r7
 4053              	.LVL502:
 4054 0176 4746     		mov	r7, r8
 4055              	.LVL503:
 4056 0178 DDF81480 		ldr	r8, [sp, #20]
 4057              	.LVL504:
 4058              	.L520:
 4059              		.loc 1 1198 0
 4060 017c 0D9B     		ldr	r3, [sp, #52]
 4061 017e 0BB1     		cbz	r3, .L529
 4062              		.loc 1 1199 0
 4063 0180 0E9A     		ldr	r2, [sp, #56]
 4064 0182 5A60     		str	r2, [r3, #4]
 4065              	.L529:
 4066              		.loc 1 1201 0
 4067 0184 574A     		ldr	r2, .L609
 4068 0186 1268     		ldr	r2, [r2]
 4069 0188 0DA9     		add	r1, sp, #52
 4070 018a 8A42     		cmp	r2, r1
 4071              		.loc 1 1202 0
 4072 018c 0E9A     		ldr	r2, [sp, #56]
 4073              		.loc 1 1201 0
 4074 018e 56D0     		beq	.L605
 4075              		.loc 1 1205 0
 4076 0190 002A     		cmp	r2, #0
 4077 0192 73D0     		beq	.L606
 4078              	.L533:
 4079              		.loc 1 1206 0
 4080 0194 1360     		str	r3, [r2]
ARM GAS  C:\Users\jo\AppData\Local\Temp\cc6wN9Ut.s 			page 73


 4081              	.L532:
 4082              		.loc 1 1209 0
 4083 0196 544B     		ldr	r3, .L609+4
 4084 0198 534A     		ldr	r2, .L609+4
 4085 019a 1B68     		ldr	r3, [r3]
 4086              		.loc 1 1212 0
 4087 019c 13A8     		add	r0, sp, #76
 4088              		.loc 1 1209 0
 4089 019e 0133     		adds	r3, r3, #1
 4090 01a0 1360     		str	r3, [r2]
 4091              		.loc 1 1212 0
 4092 01a2 FFF7FEFF 		bl	sys_sem_free
 4093              	.LVL505:
 4094              		.loc 1 1213 0
 4095 01a6 049B     		ldr	r3, [sp, #16]
 4096 01a8 0133     		adds	r3, r3, #1
 4097 01aa 09D0     		beq	.L505
 4098              		.loc 1 1222 0
 4099 01ac 07AB     		add	r3, sp, #28
 4100 01ae 8DE80806 		stmia	sp, {r3, r9, r10}
 4101 01b2 3846     		mov	r0, r7
 4102 01b4 2946     		mov	r1, r5
 4103 01b6 3246     		mov	r2, r6
 4104 01b8 5B46     		mov	r3, fp
 4105 01ba FFF7FEFF 		bl	lwip_selscan
 4106              	.LVL506:
 4107 01be 8046     		mov	r8, r0
 4108              	.LVL507:
 4109              	.L505:
 4110              		.loc 1 1228 0
 4111 01c0 25B1     		cbz	r5, .L534
 4112              		.loc 1 1229 0
 4113 01c2 07AB     		add	r3, sp, #28
 4114 01c4 93E80300 		ldmia	r3, {r0, r1}
 4115 01c8 85E80300 		stmia	r5, {r0, r1}
 4116              	.L534:
 4117              		.loc 1 1231 0
 4118 01cc 1EB1     		cbz	r6, .L535
 4119              		.loc 1 1232 0
 4120 01ce 99E80300 		ldmia	r9, {r0, r1}
 4121 01d2 86E80300 		stmia	r6, {r0, r1}
 4122              	.L535:
 4123              		.loc 1 1234 0
 4124 01d6 BBF1000F 		cmp	fp, #0
 4125 01da 03D0     		beq	.L597
 4126              		.loc 1 1235 0
 4127 01dc 9AE80300 		ldmia	r10, {r0, r1}
 4128 01e0 8BE80300 		stmia	fp, {r0, r1}
 4129              	.LVL508:
 4130              	.L597:
 4131              		.loc 1 1240 0
 4132 01e4 4046     		mov	r0, r8
 4133 01e6 15B0     		add	sp, sp, #84
 4134              		.cfi_remember_state
 4135              		.cfi_def_cfa_offset 36
 4136              		@ sp needed
 4137 01e8 BDE8F08F 		pop	{r4, r5, r6, r7, r8, r9, r10, fp, pc}
ARM GAS  C:\Users\jo\AppData\Local\Temp\cc6wN9Ut.s 			page 74


 4138              	.LVL509:
 4139              	.L522:
 4140              		.cfi_restore_state
 4141              	.LBB251:
 4142              	.LBB245:
 4143              	.LBB246:
 4144              		.loc 1 225 0
 4145 01ec 012C     		cmp	r4, #1
 4146 01ee 62D9     		bls	.L607
 4147              	.L527:
 4148              	.LBE246:
 4149              	.LBE245:
 4150              		.loc 1 1189 0
 4151 01f0 3E4B     		ldr	r3, .L609+8
 4152 01f2 0093     		str	r3, [sp]
 4153 01f4 3E48     		ldr	r0, .L609+12
 4154 01f6 3F49     		ldr	r1, .L609+16
 4155 01f8 3F4A     		ldr	r2, .L609+20
 4156 01fa 40F2A543 		movw	r3, #1189
 4157 01fe 59E7     		b	.L600
 4158              	.LVL510:
 4159              	.L536:
 4160              	.LBE251:
 4161              		.loc 1 1170 0
 4162 0200 1E9B     		ldr	r3, [sp, #120]
 4163 0202 002B     		cmp	r3, #0
 4164 0204 00F09B80 		beq	.L608
 4165              	.LVL511:
 4166              	.L540:
 4167              		.loc 1 1174 0
 4168 0208 1E9B     		ldr	r3, [sp, #120]
 4169 020a 1E9A     		ldr	r2, [sp, #120]
 4170 020c 5B68     		ldr	r3, [r3, #4]
 4171 020e 3B49     		ldr	r1, .L609+24
 4172 0210 1268     		ldr	r2, [r2]
 4173 0212 03F5FA73 		add	r3, r3, #500
 4174 0216 81FB0301 		smull	r0, r1, r1, r3
 4175              	.LVL512:
 4176 021a DB17     		asrs	r3, r3, #31
 4177 021c C3EBA113 		rsb	r3, r3, r1, asr #6
 4178 0220 4FF47A71 		mov	r1, #1000
 4179 0224 01FB0231 		mla	r1, r1, r2, r3
 4180              	.LVL513:
 4181              		.loc 1 1177 0
 4182 0228 0029     		cmp	r1, #0
 4183              	.LVL514:
 4184              		.loc 1 1181 0
 4185 022a 08BF     		it	eq
 4186 022c 0121     		moveq	r1, #1
 4187              	.LVL515:
 4188 022e 13A8     		add	r0, sp, #76
 4189 0230 FFF7FEFF 		bl	sys_arch_sem_wait
 4190              	.LVL516:
 4191              		.loc 1 1184 0
 4192 0234 002F     		cmp	r7, #0
 4193              		.loc 1 1181 0
 4194 0236 0490     		str	r0, [sp, #16]
ARM GAS  C:\Users\jo\AppData\Local\Temp\cc6wN9Ut.s 			page 75


 4195              	.LVL517:
 4196              		.loc 1 1184 0
 4197 0238 3FF770AF 		bgt	.L537
 4198 023c 9EE7     		b	.L520
 4199              	.LVL518:
 4200              	.L605:
 4201              		.loc 1 1202 0
 4202 023e 62B1     		cbz	r2, .L531
 4203              		.loc 1 1202 0 is_stmt 0 discriminator 1
 4204 0240 2A4B     		ldr	r3, .L609+8
 4205 0242 0093     		str	r3, [sp]
 4206 0244 2B49     		ldr	r1, .L609+16
 4207 0246 2E4A     		ldr	r2, .L609+28
 4208 0248 2948     		ldr	r0, .L609+12
 4209 024a 40F2B243 		movw	r3, #1202
 4210 024e FFF7FEFF 		bl	chprintf.constprop.0
 4211              	.LVL519:
 4212              	.LBB252:
 4213              	.LBB253:
 4214              		.loc 3 416 0 is_stmt 1 discriminator 1
 4215 0252 2B48     		ldr	r0, .L609+28
 4216 0254 FFF7FEFF 		bl	chSysHalt
 4217              	.LVL520:
 4218 0258 0D9B     		ldr	r3, [sp, #52]
 4219              	.LVL521:
 4220              	.L531:
 4221              	.LBE253:
 4222              	.LBE252:
 4223              		.loc 1 1203 0
 4224 025a 224A     		ldr	r2, .L609
 4225 025c 1360     		str	r3, [r2]
 4226 025e 9AE7     		b	.L532
 4227              	.LVL522:
 4228              	.L509:
 4229              		.loc 1 1167 0
 4230 0260 07AB     		add	r3, sp, #28
 4231 0262 8DE80806 		stmia	sp, {r3, r9, r10}
 4232 0266 3846     		mov	r0, r7
 4233              	.LVL523:
 4234 0268 2946     		mov	r1, r5
 4235 026a 3246     		mov	r2, r6
 4236 026c 5B46     		mov	r3, fp
 4237 026e FFF7FEFF 		bl	lwip_selscan
 4238              	.LVL524:
 4239              		.loc 1 1168 0
 4240 0272 90B1     		cbz	r0, .L538
 4241              		.loc 1 1091 0
 4242 0274 0023     		movs	r3, #0
 4243              		.loc 1 1168 0
 4244 0276 8046     		mov	r8, r0
 4245              		.loc 1 1091 0
 4246 0278 0493     		str	r3, [sp, #16]
 4247 027a 7FE7     		b	.L520
 4248              	.LVL525:
 4249              	.L606:
 4250              		.loc 1 1205 0 discriminator 1
 4251 027c 1B4B     		ldr	r3, .L609+8
ARM GAS  C:\Users\jo\AppData\Local\Temp\cc6wN9Ut.s 			page 76


 4252 027e 214A     		ldr	r2, .L609+32
 4253 0280 0093     		str	r3, [sp]
 4254 0282 1C49     		ldr	r1, .L609+16
 4255 0284 1A48     		ldr	r0, .L609+12
 4256 0286 40F2B543 		movw	r3, #1205
 4257 028a FFF7FEFF 		bl	chprintf.constprop.0
 4258              	.LVL526:
 4259              	.LBB254:
 4260              	.LBB255:
 4261              		.loc 3 416 0 discriminator 1
 4262 028e 1D48     		ldr	r0, .L609+32
 4263 0290 FFF7FEFF 		bl	chSysHalt
 4264              	.LVL527:
 4265 0294 0E9A     		ldr	r2, [sp, #56]
 4266 0296 0D9B     		ldr	r3, [sp, #52]
 4267 0298 7CE7     		b	.L533
 4268              	.LVL528:
 4269              	.L538:
 4270              	.LBE255:
 4271              	.LBE254:
 4272              		.loc 1 1170 0
 4273 029a 1E9B     		ldr	r3, [sp, #120]
 4274 029c 002B     		cmp	r3, #0
 4275 029e B3D1     		bne	.L540
 4276              	.LVL529:
 4277              		.loc 1 1181 0
 4278 02a0 13A8     		add	r0, sp, #76
 4279              	.LVL530:
 4280 02a2 1E99     		ldr	r1, [sp, #120]
 4281 02a4 FFF7FEFF 		bl	sys_arch_sem_wait
 4282              	.LVL531:
 4283 02a8 DDF87880 		ldr	r8, [sp, #120]
 4284 02ac 0490     		str	r0, [sp, #16]
 4285              	.LVL532:
 4286 02ae 65E7     		b	.L520
 4287              	.LVL533:
 4288              	.L542:
 4289              		.loc 1 1133 0
 4290 02b0 4FF0FF38 		mov	r8, #-1
 4291              	.LVL534:
 4292 02b4 96E7     		b	.L597
 4293              	.LVL535:
 4294              	.L607:
 4295              	.LBB256:
 4296              	.LBB248:
 4297              	.LBB247:
 4298              		.loc 1 228 0
 4299 02b6 2B68     		ldr	r3, [r5]
 4300 02b8 002B     		cmp	r3, #0
 4301 02ba 99D0     		beq	.L527
 4302              	.LBE247:
 4303              	.LBE248:
 4304              		.loc 1 1191 0
 4305 02bc 6B69     		ldr	r3, [r5, #20]
 4306 02be 013B     		subs	r3, r3, #1
 4307              		.loc 1 1192 0
 4308 02c0 002B     		cmp	r3, #0
ARM GAS  C:\Users\jo\AppData\Local\Temp\cc6wN9Ut.s 			page 77


 4309              		.loc 1 1191 0
 4310 02c2 6B61     		str	r3, [r5, #20]
 4311              		.loc 1 1192 0
 4312 02c4 BFF650AF 		bge	.L525
 4313              		.loc 1 1192 0 is_stmt 0 discriminator 1
 4314 02c8 084B     		ldr	r3, .L609+8
 4315 02ca 0093     		str	r3, [sp]
 4316 02cc 0949     		ldr	r1, .L609+16
 4317 02ce 0E4A     		ldr	r2, .L609+36
 4318 02d0 0748     		ldr	r0, .L609+12
 4319 02d2 4FF49563 		mov	r3, #1192
 4320 02d6 FFF7FEFF 		bl	chprintf.constprop.0
 4321              	.LVL536:
 4322              	.LBB249:
 4323              	.LBB250:
 4324              		.loc 3 416 0 is_stmt 1 discriminator 1
 4325 02da 0B48     		ldr	r0, .L609+36
 4326 02dc FFF7FEFF 		bl	chSysHalt
 4327              	.LVL537:
 4328 02e0 42E7     		b	.L525
 4329              	.L610:
 4330 02e2 00BF     		.align	2
 4331              	.L609:
 4332 02e4 00000000 		.word	.LANCHOR2
 4333 02e8 00000000 		.word	.LANCHOR3
 4334 02ec 34000000 		.word	.LC2
 4335 02f0 00000000 		.word	itm_port
 4336 02f4 00000000 		.word	.LC0
 4337 02f8 10020000 		.word	.LC20
 4338 02fc D34D6210 		.word	274877907
 4339 0300 E0010000 		.word	.LC18
 4340 0304 F8010000 		.word	.LC19
 4341 0308 C4010000 		.word	.LC17
 4342 030c 00000000 		.word	.LANCHOR0
 4343              	.LVL538:
 4344              	.L604:
 4345              	.LBE250:
 4346              	.LBE249:
 4347              	.LBE256:
 4348              	.LBB257:
 4349              	.LBB239:
 4350              	.LBB238:
 4351              		.loc 1 228 0
 4352 0310 2B68     		ldr	r3, [r5]
 4353 0312 002B     		cmp	r3, #0
 4354 0314 3FF4C7AE 		beq	.L516
 4355              	.LBE238:
 4356              	.LBE239:
 4357              		.loc 1 1159 0
 4358 0318 6B69     		ldr	r3, [r5, #20]
 4359 031a 0133     		adds	r3, r3, #1
 4360              		.loc 1 1160 0
 4361 031c 002B     		cmp	r3, #0
 4362              		.loc 1 1159 0
 4363 031e 6B61     		str	r3, [r5, #20]
 4364              		.loc 1 1160 0
 4365 0320 3FF7E4AE 		bgt	.L514
ARM GAS  C:\Users\jo\AppData\Local\Temp\cc6wN9Ut.s 			page 78


 4366              		.loc 1 1160 0 is_stmt 0 discriminator 1
 4367 0324 0A4B     		ldr	r3, .L611
 4368 0326 0093     		str	r3, [sp]
 4369 0328 0A49     		ldr	r1, .L611+4
 4370 032a 0B4A     		ldr	r2, .L611+8
 4371 032c 0B48     		ldr	r0, .L611+12
 4372 032e 4FF49163 		mov	r3, #1160
 4373 0332 FFF7FEFF 		bl	chprintf.constprop.0
 4374              	.LVL539:
 4375              	.LBB240:
 4376              	.LBB241:
 4377              		.loc 3 416 0 is_stmt 1 discriminator 1
 4378 0336 0848     		ldr	r0, .L611+8
 4379 0338 FFF7FEFF 		bl	chSysHalt
 4380              	.LVL540:
 4381 033c D6E6     		b	.L514
 4382              	.LVL541:
 4383              	.L608:
 4384              	.LBE241:
 4385              	.LBE240:
 4386              	.LBE257:
 4387              		.loc 1 1181 0
 4388 033e 13A8     		add	r0, sp, #76
 4389              	.LVL542:
 4390 0340 1E99     		ldr	r1, [sp, #120]
 4391 0342 FFF7FEFF 		bl	sys_arch_sem_wait
 4392              	.LVL543:
 4393 0346 DDF87880 		ldr	r8, [sp, #120]
 4394 034a 0490     		str	r0, [sp, #16]
 4395              	.LVL544:
 4396 034c E6E6     		b	.L537
 4397              	.L612:
 4398 034e 00BF     		.align	2
 4399              	.L611:
 4400 0350 34000000 		.word	.LC2
 4401 0354 00000000 		.word	.LC0
 4402 0358 A8010000 		.word	.LC16
 4403 035c 00000000 		.word	itm_port
 4404              		.cfi_endproc
 4405              	.LFE278:
 4406              		.size	lwip_select, .-lwip_select
 4407              		.section	.text.lwip_shutdown,"ax",%progbits
 4408              		.align	2
 4409              		.p2align 4,,15
 4410              		.global	lwip_shutdown
 4411              		.thumb
 4412              		.thumb_func
 4413              		.type	lwip_shutdown, %function
 4414              	lwip_shutdown:
 4415              	.LFB280:
 4416              		.loc 1 1376 0
 4417              		.cfi_startproc
 4418              		@ args = 0, pretend = 0, frame = 0
 4419              		@ frame_needed = 0, uses_anonymous_args = 0
 4420              	.LVL545:
 4421              	.LBB258:
 4422              	.LBB259:
ARM GAS  C:\Users\jo\AppData\Local\Temp\cc6wN9Ut.s 			page 79


 4423              		.loc 1 199 0
 4424 0000 0128     		cmp	r0, #1
 4425 0002 02D9     		bls	.L625
 4426              	.LBE259:
 4427              	.LBE258:
 4428              		.loc 1 1385 0
 4429 0004 4FF0FF30 		mov	r0, #-1
 4430              	.LVL546:
 4431              		.loc 1 1413 0
 4432 0008 7047     		bx	lr
 4433              	.LVL547:
 4434              	.L625:
 4435              		.loc 1 1376 0
 4436 000a F8B5     		push	{r3, r4, r5, r6, r7, lr}
 4437              		.cfi_def_cfa_offset 24
 4438              		.cfi_offset 3, -24
 4439              		.cfi_offset 4, -20
 4440              		.cfi_offset 5, -16
 4441              		.cfi_offset 6, -12
 4442              		.cfi_offset 7, -8
 4443              		.cfi_offset 14, -4
 4444              	.LBB261:
 4445              	.LBB260:
 4446              		.loc 1 207 0
 4447 000c 4700     		lsls	r7, r0, #1
 4448 000e 3B18     		adds	r3, r7, r0
 4449 0010 DB00     		lsls	r3, r3, #3
 4450 0012 1B4E     		ldr	r6, .L626
 4451 0014 56F803E0 		ldr	lr, [r6, r3]
 4452 0018 BEF1000F 		cmp	lr, #0
 4453 001c 10D0     		beq	.L619
 4454              	.LBE260:
 4455              	.LBE261:
 4456              		.loc 1 1389 0
 4457 001e 9EF80050 		ldrb	r5, [lr]	@ zero_extendqisi2
 4458 0022 102D     		cmp	r5, #16
 4459 0024 03D0     		beq	.L615
 4460              		.loc 1 1390 0
 4461 0026 3344     		add	r3, r3, r6
 4462 0028 5F20     		movs	r0, #95
 4463              	.LVL548:
 4464 002a 1861     		str	r0, [r3, #16]
 4465              		.loc 1 1391 0
 4466 002c F8BD     		pop	{r3, r4, r5, r6, r7, pc}
 4467              	.LVL549:
 4468              	.L615:
 4469              		.loc 1 1398 0
 4470 002e 51B1     		cbz	r1, .L620
 4471              		.loc 1 1400 0
 4472 0030 0129     		cmp	r1, #1
 4473 0032 1FD0     		beq	.L621
 4474              		.loc 1 1402 0
 4475 0034 0229     		cmp	r1, #2
 4476 0036 20D0     		beq	.L622
 4477              		.loc 1 1406 0
 4478 0038 3344     		add	r3, r3, r6
 4479 003a 1620     		movs	r0, #22
ARM GAS  C:\Users\jo\AppData\Local\Temp\cc6wN9Ut.s 			page 80


 4480              	.LVL550:
 4481 003c 1861     		str	r0, [r3, #16]
 4482              		.loc 1 1407 0
 4483 003e F8BD     		pop	{r3, r4, r5, r6, r7, pc}
 4484              	.LVL551:
 4485              	.L619:
 4486              		.loc 1 1385 0
 4487 0040 4FF0FF30 		mov	r0, #-1
 4488              	.LVL552:
 4489              		.loc 1 1413 0
 4490 0044 F8BD     		pop	{r3, r4, r5, r6, r7, pc}
 4491              	.LVL553:
 4492              	.L620:
 4493              		.loc 1 1379 0
 4494 0046 0A46     		mov	r2, r1
 4495              		.loc 1 1399 0
 4496 0048 0121     		movs	r1, #1
 4497              	.LVL554:
 4498              	.L616:
 4499 004a 0446     		mov	r4, r0
 4500              	.LVL555:
 4501              		.loc 1 1409 0
 4502 004c 7046     		mov	r0, lr
 4503              	.LVL556:
 4504 004e FFF7FEFF 		bl	netconn_shutdown
 4505              	.LVL557:
 4506              		.loc 1 1411 0
 4507 0052 4342     		negs	r3, r0
 4508 0054 0F2B     		cmp	r3, #15
 4509 0056 98BF     		it	ls
 4510 0058 0A4A     		ldrls	r2, .L626+4
 4511 005a 3C44     		add	r4, r4, r7
 4512              	.LVL558:
 4513 005c 94BF     		ite	ls
 4514 005e 52F82320 		ldrls	r2, [r2, r3, lsl #2]
 4515 0062 0522     		movhi	r2, #5
 4516 0064 06EBC403 		add	r3, r6, r4, lsl #3
 4517              		.loc 1 1412 0
 4518 0068 0030     		adds	r0, r0, #0
 4519              	.LVL559:
 4520 006a 18BF     		it	ne
 4521 006c 0120     		movne	r0, #1
 4522              		.loc 1 1411 0
 4523 006e 1A61     		str	r2, [r3, #16]
 4524              		.loc 1 1412 0
 4525 0070 4042     		negs	r0, r0
 4526 0072 F8BD     		pop	{r3, r4, r5, r6, r7, pc}
 4527              	.LVL560:
 4528              	.L621:
 4529              		.loc 1 1401 0
 4530 0074 0A46     		mov	r2, r1
 4531              		.loc 1 1379 0
 4532 0076 0021     		movs	r1, #0
 4533              	.LVL561:
 4534 0078 E7E7     		b	.L616
 4535              	.LVL562:
 4536              	.L622:
ARM GAS  C:\Users\jo\AppData\Local\Temp\cc6wN9Ut.s 			page 81


 4537              		.loc 1 1404 0
 4538 007a 0122     		movs	r2, #1
 4539              		.loc 1 1403 0
 4540 007c 1146     		mov	r1, r2
 4541              	.LVL563:
 4542 007e E4E7     		b	.L616
 4543              	.L627:
 4544              		.align	2
 4545              	.L626:
 4546 0080 00000000 		.word	.LANCHOR0
 4547 0084 00000000 		.word	.LANCHOR1
 4548              		.cfi_endproc
 4549              	.LFE280:
 4550              		.size	lwip_shutdown, .-lwip_shutdown
 4551 0088 AFF30080 		.section	.text.lwip_getpeername,"ax",%progbits
 4551      AFF30080 
 4552              		.align	2
 4553              		.p2align 4,,15
 4554              		.global	lwip_getpeername
 4555              		.thumb
 4556              		.thumb_func
 4557              		.type	lwip_getpeername, %function
 4558              	lwip_getpeername:
 4559              	.LFB282:
 4560              		.loc 1 1452 0
 4561              		.cfi_startproc
 4562              		@ args = 0, pretend = 0, frame = 0
 4563              		@ frame_needed = 0, uses_anonymous_args = 0
 4564              		@ link register save eliminated.
 4565              	.LVL564:
 4566              		.loc 1 1453 0
 4567 0000 0023     		movs	r3, #0
 4568 0002 FFF7FEBF 		b	lwip_getaddrname
 4569              	.LVL565:
 4570              		.cfi_endproc
 4571              	.LFE282:
 4572              		.size	lwip_getpeername, .-lwip_getpeername
 4573 0006 00BFAFF3 		.section	.text.lwip_getsockname,"ax",%progbits
 4573      0080AFF3 
 4573      0080
 4574              		.align	2
 4575              		.p2align 4,,15
 4576              		.global	lwip_getsockname
 4577              		.thumb
 4578              		.thumb_func
 4579              		.type	lwip_getsockname, %function
 4580              	lwip_getsockname:
 4581              	.LFB283:
 4582              		.loc 1 1458 0
 4583              		.cfi_startproc
 4584              		@ args = 0, pretend = 0, frame = 0
 4585              		@ frame_needed = 0, uses_anonymous_args = 0
 4586              		@ link register save eliminated.
 4587              	.LVL566:
 4588              		.loc 1 1459 0
 4589 0000 0123     		movs	r3, #1
 4590 0002 FFF7FEBF 		b	lwip_getaddrname
ARM GAS  C:\Users\jo\AppData\Local\Temp\cc6wN9Ut.s 			page 82


 4591              	.LVL567:
 4592              		.cfi_endproc
 4593              	.LFE283:
 4594              		.size	lwip_getsockname, .-lwip_getsockname
 4595 0006 00BFAFF3 		.section	.text.lwip_getsockopt,"ax",%progbits
 4595      0080AFF3 
 4595      0080
 4596              		.align	2
 4597              		.p2align 4,,15
 4598              		.global	lwip_getsockopt
 4599              		.thumb
 4600              		.thumb_func
 4601              		.type	lwip_getsockopt, %function
 4602              	lwip_getsockopt:
 4603              	.LFB284:
 4604              		.loc 1 1464 0
 4605              		.cfi_startproc
 4606              		@ args = 4, pretend = 0, frame = 32
 4607              		@ frame_needed = 0, uses_anonymous_args = 0
 4608              	.LVL568:
 4609 0000 2DE9F043 		push	{r4, r5, r6, r7, r8, r9, lr}
 4610              		.cfi_def_cfa_offset 28
 4611              		.cfi_offset 4, -28
 4612              		.cfi_offset 5, -24
 4613              		.cfi_offset 6, -20
 4614              		.cfi_offset 7, -16
 4615              		.cfi_offset 8, -12
 4616              		.cfi_offset 9, -8
 4617              		.cfi_offset 14, -4
 4618 0004 89B0     		sub	sp, sp, #36
 4619              		.cfi_def_cfa_offset 64
 4620              	.LBB262:
 4621              	.LBB263:
 4622              		.loc 1 199 0
 4623 0006 0128     		cmp	r0, #1
 4624              	.LBE263:
 4625              	.LBE262:
 4626              		.loc 1 1464 0
 4627 0008 109D     		ldr	r5, [sp, #64]
 4628              	.LBB266:
 4629              	.LBB264:
 4630              		.loc 1 199 0
 4631 000a 04D9     		bls	.L685
 4632              	.L649:
 4633              	.LBE264:
 4634              	.LBE266:
 4635              		.loc 1 1470 0
 4636 000c 4FF0FF30 		mov	r0, #-1
 4637              	.LVL569:
 4638              	.L677:
 4639              		.loc 1 1660 0
 4640 0010 09B0     		add	sp, sp, #36
 4641              		.cfi_remember_state
 4642              		.cfi_def_cfa_offset 28
 4643              		@ sp needed
 4644 0012 BDE8F083 		pop	{r4, r5, r6, r7, r8, r9, pc}
 4645              	.LVL570:
ARM GAS  C:\Users\jo\AppData\Local\Temp\cc6wN9Ut.s 			page 83


 4646              	.L685:
 4647              		.cfi_restore_state
 4648              	.LBB267:
 4649              	.LBB265:
 4650              		.loc 1 205 0
 4651 0016 4700     		lsls	r7, r0, #1
 4652 0018 07EB000E 		add	lr, r7, r0
 4653 001c 4FEACE0E 		lsl	lr, lr, #3
 4654 0020 444E     		ldr	r6, .L690
 4655              		.loc 1 207 0
 4656 0022 56F80EC0 		ldr	ip, [r6, lr]
 4657              		.loc 1 205 0
 4658 0026 B644     		add	lr, lr, r6
 4659              	.LVL571:
 4660              		.loc 1 207 0
 4661 0028 BCF1000F 		cmp	ip, #0
 4662 002c EED0     		beq	.L649
 4663              	.LBE265:
 4664              	.LBE267:
 4665              		.loc 1 1473 0
 4666 002e 002B     		cmp	r3, #0
 4667 0030 77D0     		beq	.L645
 4668              		.loc 1 1473 0 is_stmt 0 discriminator 1
 4669 0032 002D     		cmp	r5, #0
 4670 0034 75D0     		beq	.L645
 4671              		.loc 1 1479 0 is_stmt 1
 4672 0036 0629     		cmp	r1, #6
 4673 0038 0CD0     		beq	.L635
 4674 003a 40F6FF74 		movw	r4, #4095
 4675 003e A142     		cmp	r1, r4
 4676 0040 44D0     		beq	.L636
 4677 0042 81B1     		cbz	r1, .L686
 4678              	.L660:
 4679              		.loc 1 1588 0
 4680 0044 5C23     		movs	r3, #92
 4681              	.LVL572:
 4682              	.L647:
 4683              		.loc 1 1639 0
 4684 0046 3844     		add	r0, r0, r7
 4685              	.LVL573:
 4686 0048 06EBC004 		add	r4, r6, r0, lsl #3
 4687              		.loc 1 1640 0
 4688 004c 4FF0FF30 		mov	r0, #-1
 4689              		.loc 1 1639 0
 4690 0050 2361     		str	r3, [r4, #16]
 4691              		.loc 1 1640 0
 4692 0052 DDE7     		b	.L677
 4693              	.LVL574:
 4694              	.L635:
 4695              		.loc 1 1579 0
 4696 0054 2C68     		ldr	r4, [r5]
 4697 0056 032C     		cmp	r4, #3
 4698 0058 0BD9     		bls	.L658
 4699              		.loc 1 1585 0
 4700 005a 9CF80040 		ldrb	r4, [ip]	@ zero_extendqisi2
 4701 005e 102C     		cmp	r4, #16
 4702 0060 09D0     		beq	.L687
ARM GAS  C:\Users\jo\AppData\Local\Temp\cc6wN9Ut.s 			page 84


 4703              		.loc 1 1586 0
 4704 0062 0020     		movs	r0, #0
 4705              	.LVL575:
 4706 0064 D4E7     		b	.L677
 4707              	.LVL576:
 4708              	.L686:
 4709              		.loc 1 1538 0
 4710 0066 541E     		subs	r4, r2, #1
 4711 0068 012C     		cmp	r4, #1
 4712 006a EBD8     		bhi	.L660
 4713              	.L682:
 4714              		.loc 1 1544 0
 4715 006c 2C68     		ldr	r4, [r5]
 4716 006e 032C     		cmp	r4, #3
 4717 0070 04D8     		bhi	.L641
 4718              	.L658:
 4719 0072 1623     		movs	r3, #22
 4720              	.LVL577:
 4721 0074 E7E7     		b	.L647
 4722              	.LVL578:
 4723              	.L687:
 4724              		.loc 1 1588 0
 4725 0076 541E     		subs	r4, r2, #1
 4726 0078 012C     		cmp	r4, #1
 4727 007a E3D8     		bhi	.L660
 4728              	.LVL579:
 4729              	.L641:
 4730 007c 9446     		mov	ip, r2
 4731 007e 0446     		mov	r4, r0
 4732              		.loc 1 1652 0
 4733 0080 4FF00008 		mov	r8, #0
 4734 0084 8946     		mov	r9, r1
 4735              		.loc 1 1653 0
 4736 0086 0122     		movs	r2, #1
 4737              	.LVL580:
 4738 0088 01A9     		add	r1, sp, #4
 4739              	.LVL581:
 4740 008a 2B48     		ldr	r0, .L690+4
 4741              	.LVL582:
 4742              		.loc 1 1650 0
 4743 008c 0593     		str	r3, [sp, #20]
 4744              		.loc 1 1644 0
 4745 008e CDF804E0 		str	lr, [sp, #4]
 4746              		.loc 1 1646 0
 4747 0092 0294     		str	r4, [sp, #8]
 4748              		.loc 1 1649 0
 4749 0094 CDF810C0 		str	ip, [sp, #16]
 4750              		.loc 1 1648 0
 4751 0098 CDF80C90 		str	r9, [sp, #12]
 4752              		.loc 1 1651 0
 4753 009c 0695     		str	r5, [sp, #24]
 4754              		.loc 1 1652 0
 4755 009e 8DF81C80 		strb	r8, [sp, #28]
 4756              		.loc 1 1653 0
 4757 00a2 FFF7FEFF 		bl	tcpip_callback_with_block
 4758              	.LVL583:
 4759              		.loc 1 1654 0
ARM GAS  C:\Users\jo\AppData\Local\Temp\cc6wN9Ut.s 			page 85


 4760 00a6 3819     		adds	r0, r7, r4
 4761 00a8 C400     		lsls	r4, r0, #3
 4762              	.LVL584:
 4763 00aa 4146     		mov	r1, r8
 4764 00ac 3059     		ldr	r0, [r6, r4]
 4765 00ae 0C30     		adds	r0, r0, #12
 4766 00b0 FFF7FEFF 		bl	sys_arch_sem_wait
 4767              	.LVL585:
 4768              		.loc 1 1658 0
 4769 00b4 9DF91C30 		ldrsb	r3, [sp, #28]
 4770              		.loc 1 1659 0
 4771 00b8 B3EB0800 		subs	r0, r3, r8
 4772              		.loc 1 1658 0
 4773 00bc 3444     		add	r4, r4, r6
 4774              		.loc 1 1659 0
 4775 00be 18BF     		it	ne
 4776 00c0 0120     		movne	r0, #1
 4777 00c2 4042     		negs	r0, r0
 4778              		.loc 1 1658 0
 4779 00c4 2361     		str	r3, [r4, #16]
 4780              		.loc 1 1660 0
 4781 00c6 09B0     		add	sp, sp, #36
 4782              		.cfi_remember_state
 4783              		.cfi_def_cfa_offset 28
 4784              		@ sp needed
 4785 00c8 BDE8F083 		pop	{r4, r5, r6, r7, r8, r9, pc}
 4786              	.LVL586:
 4787              	.L636:
 4788              		.cfi_restore_state
 4789              		.loc 1 1483 0
 4790 00cc 202A     		cmp	r2, #32
 4791 00ce CDD0     		beq	.L682
 4792 00d0 17DD     		ble	.L688
 4793 00d2 41F20704 		movw	r4, #4103
 4794 00d6 A242     		cmp	r2, r4
 4795 00d8 B4DB     		blt	.L660
 4796 00da 41F20804 		movw	r4, #4104
 4797 00de A242     		cmp	r2, r4
 4798 00e0 C4DD     		ble	.L682
 4799 00e2 41F20A04 		movw	r4, #4106
 4800 00e6 A242     		cmp	r2, r4
 4801 00e8 ACD1     		bne	.L660
 4802              		.loc 1 1517 0
 4803 00ea 2C68     		ldr	r4, [r5]
 4804              		.loc 1 1521 0
 4805 00ec 9CF80080 		ldrb	r8, [ip]	@ zero_extendqisi2
 4806              		.loc 1 1518 0
 4807 00f0 032C     		cmp	r4, #3
 4808 00f2 8CBF     		ite	hi
 4809 00f4 0024     		movhi	r4, #0
 4810 00f6 1624     		movls	r4, #22
 4811              	.LVL587:
 4812              		.loc 1 1521 0
 4813 00f8 B8F1200F 		cmp	r8, #32
 4814 00fc 06D0     		beq	.L689
 4815              	.L655:
 4816 00fe 6123     		movs	r3, #97
ARM GAS  C:\Users\jo\AppData\Local\Temp\cc6wN9Ut.s 			page 86


 4817              	.LVL588:
 4818 0100 A1E7     		b	.L647
 4819              	.LVL589:
 4820              	.L688:
 4821              		.loc 1 1483 0
 4822 0102 022A     		cmp	r2, #2
 4823 0104 B2D0     		beq	.L682
 4824 0106 082A     		cmp	r2, #8
 4825 0108 9CD1     		bne	.L660
 4826 010a AFE7     		b	.L682
 4827              	.LVL590:
 4828              	.L689:
 4829              		.loc 1 1522 0 discriminator 1
 4830 010c DCF804C0 		ldr	ip, [ip, #4]
 4831 0110 9CF810C0 		ldrb	ip, [ip, #16]	@ zero_extendqisi2
 4832              		.loc 1 1521 0 discriminator 1
 4833 0114 1CF0020F 		tst	ip, #2
 4834 0118 F1D1     		bne	.L655
 4835              		.loc 1 1638 0
 4836 011a 002C     		cmp	r4, #0
 4837 011c AED0     		beq	.L641
 4838 011e 63B2     		sxtb	r3, r4
 4839              	.LVL591:
 4840 0120 91E7     		b	.L647
 4841              	.LVL592:
 4842              	.L645:
 4843              		.loc 1 1474 0
 4844 0122 3844     		add	r0, r0, r7
 4845              	.LVL593:
 4846 0124 06EBC004 		add	r4, r6, r0, lsl #3
 4847 0128 0E23     		movs	r3, #14
 4848              	.LVL594:
 4849 012a 2361     		str	r3, [r4, #16]
 4850              		.loc 1 1475 0
 4851 012c 4FF0FF30 		mov	r0, #-1
 4852 0130 6EE7     		b	.L677
 4853              	.L691:
 4854 0132 00BF     		.align	2
 4855              	.L690:
 4856 0134 00000000 		.word	.LANCHOR0
 4857 0138 00000000 		.word	lwip_getsockopt_internal
 4858              		.cfi_endproc
 4859              	.LFE284:
 4860              		.size	lwip_getsockopt, .-lwip_getsockopt
 4861 013c AFF30080 		.section	.text.lwip_setsockopt,"ax",%progbits
 4862              		.align	2
 4863              		.p2align 4,,15
 4864              		.global	lwip_setsockopt
 4865              		.thumb
 4866              		.thumb_func
 4867              		.type	lwip_setsockopt, %function
 4868              	lwip_setsockopt:
 4869              	.LFB286:
 4870              		.loc 1 1872 0
 4871              		.cfi_startproc
 4872              		@ args = 4, pretend = 0, frame = 32
 4873              		@ frame_needed = 0, uses_anonymous_args = 0
ARM GAS  C:\Users\jo\AppData\Local\Temp\cc6wN9Ut.s 			page 87


 4874              	.LVL595:
 4875              	.LBB268:
 4876              	.LBB269:
 4877              		.loc 1 199 0
 4878 0000 0128     		cmp	r0, #1
 4879 0002 02D9     		bls	.L742
 4880              	.LBE269:
 4881              	.LBE268:
 4882              		.loc 1 1878 0
 4883 0004 4FF0FF30 		mov	r0, #-1
 4884              	.LVL596:
 4885              		.loc 1 2077 0
 4886 0008 7047     		bx	lr
 4887              	.LVL597:
 4888              	.L742:
 4889              		.loc 1 1872 0
 4890 000a 2DE9F041 		push	{r4, r5, r6, r7, r8, lr}
 4891              		.cfi_def_cfa_offset 24
 4892              		.cfi_offset 4, -24
 4893              		.cfi_offset 5, -20
 4894              		.cfi_offset 6, -16
 4895              		.cfi_offset 7, -12
 4896              		.cfi_offset 8, -8
 4897              		.cfi_offset 14, -4
 4898              	.LBB272:
 4899              	.LBB270:
 4900              		.loc 1 205 0
 4901 000e 4700     		lsls	r7, r0, #1
 4902 0010 07EB000C 		add	ip, r7, r0
 4903 0014 4FEACC0C 		lsl	ip, ip, #3
 4904 0018 3C4D     		ldr	r5, .L748
 4905              		.loc 1 207 0
 4906 001a 55F80C60 		ldr	r6, [r5, ip]
 4907              	.LBE270:
 4908              	.LBE272:
 4909              		.loc 1 1872 0
 4910 001e 88B0     		sub	sp, sp, #32
 4911              		.cfi_def_cfa_offset 56
 4912              	.LBB273:
 4913              	.LBB271:
 4914              		.loc 1 205 0
 4915 0020 AC44     		add	ip, ip, r5
 4916              	.LVL598:
 4917              		.loc 1 207 0
 4918 0022 002E     		cmp	r6, #0
 4919 0024 61D0     		beq	.L743
 4920              	.LVL599:
 4921              	.LBE271:
 4922              	.LBE273:
 4923              		.loc 1 1881 0
 4924 0026 002B     		cmp	r3, #0
 4925 0028 6AD0     		beq	.L744
 4926              		.loc 1 1887 0
 4927 002a 0629     		cmp	r1, #6
 4928 002c 49D0     		beq	.L696
 4929 002e 40F6FF74 		movw	r4, #4095
 4930 0032 A142     		cmp	r1, r4
ARM GAS  C:\Users\jo\AppData\Local\Temp\cc6wN9Ut.s 			page 88


 4931 0034 3CD0     		beq	.L697
 4932 0036 49B1     		cbz	r1, .L745
 4933              	.L720:
 4934              		.loc 1 2005 0
 4935 0038 5C23     		movs	r3, #92
 4936              	.LVL600:
 4937              	.L707:
 4938              		.loc 1 2055 0
 4939 003a 3844     		add	r0, r0, r7
 4940              	.LVL601:
 4941 003c 05EBC004 		add	r4, r5, r0, lsl #3
 4942              		.loc 1 2056 0
 4943 0040 4FF0FF30 		mov	r0, #-1
 4944              		.loc 1 2055 0
 4945 0044 2361     		str	r3, [r4, #16]
 4946              	.L731:
 4947              		.loc 1 2077 0
 4948 0046 08B0     		add	sp, sp, #32
 4949              		.cfi_remember_state
 4950              		.cfi_def_cfa_offset 24
 4951              		@ sp needed
 4952 0048 BDE8F081 		pop	{r4, r5, r6, r7, r8, pc}
 4953              	.LVL602:
 4954              	.L745:
 4955              		.cfi_restore_state
 4956              		.loc 1 1941 0
 4957 004c 541E     		subs	r4, r2, #1
 4958 004e 012C     		cmp	r4, #1
 4959 0050 F2D8     		bhi	.L720
 4960              	.L737:
 4961              		.loc 1 1947 0
 4962 0052 0E9C     		ldr	r4, [sp, #56]
 4963 0054 032C     		cmp	r4, #3
 4964 0056 04D8     		bhi	.L701
 4965              	.L718:
 4966 0058 1623     		movs	r3, #22
 4967              	.LVL603:
 4968 005a EEE7     		b	.L707
 4969              	.LVL604:
 4970              	.L746:
 4971              		.loc 1 2005 0
 4972 005c 541E     		subs	r4, r2, #1
 4973 005e 012C     		cmp	r4, #1
 4974 0060 EAD8     		bhi	.L720
 4975              	.LVL605:
 4976              	.L701:
 4977 0062 9646     		mov	lr, r2
 4978 0064 0446     		mov	r4, r0
 4979              		.loc 1 2069 0
 4980 0066 0026     		movs	r6, #0
 4981 0068 8846     		mov	r8, r1
 4982              		.loc 1 2070 0
 4983 006a 0122     		movs	r2, #1
 4984              	.LVL606:
 4985 006c 01A9     		add	r1, sp, #4
 4986              	.LVL607:
 4987              		.loc 1 2067 0
ARM GAS  C:\Users\jo\AppData\Local\Temp\cc6wN9Ut.s 			page 89


 4988 006e 0593     		str	r3, [sp, #20]
 4989              		.loc 1 2070 0
 4990 0070 2748     		ldr	r0, .L748+4
 4991              	.LVL608:
 4992              		.loc 1 2061 0
 4993 0072 CDF804C0 		str	ip, [sp, #4]
 4994              		.loc 1 2068 0
 4995 0076 0EAB     		add	r3, sp, #56
 4996              	.LVL609:
 4997 0078 0693     		str	r3, [sp, #24]
 4998              		.loc 1 2063 0
 4999 007a 0294     		str	r4, [sp, #8]
 5000              		.loc 1 2066 0
 5001 007c CDF810E0 		str	lr, [sp, #16]
 5002              		.loc 1 2065 0
 5003 0080 CDF80C80 		str	r8, [sp, #12]
 5004              		.loc 1 2069 0
 5005 0084 8DF81C60 		strb	r6, [sp, #28]
 5006              		.loc 1 2070 0
 5007 0088 FFF7FEFF 		bl	tcpip_callback_with_block
 5008              	.LVL610:
 5009              		.loc 1 2071 0
 5010 008c 3819     		adds	r0, r7, r4
 5011 008e C400     		lsls	r4, r0, #3
 5012              	.LVL611:
 5013 0090 3146     		mov	r1, r6
 5014 0092 2859     		ldr	r0, [r5, r4]
 5015 0094 0C30     		adds	r0, r0, #12
 5016 0096 FFF7FEFF 		bl	sys_arch_sem_wait
 5017              	.LVL612:
 5018              		.loc 1 2075 0
 5019 009a 9DF91C30 		ldrsb	r3, [sp, #28]
 5020              		.loc 1 2076 0
 5021 009e 981B     		subs	r0, r3, r6
 5022              		.loc 1 2075 0
 5023 00a0 2C44     		add	r4, r4, r5
 5024              		.loc 1 2076 0
 5025 00a2 18BF     		it	ne
 5026 00a4 0120     		movne	r0, #1
 5027 00a6 4042     		negs	r0, r0
 5028              		.loc 1 2075 0
 5029 00a8 2361     		str	r3, [r4, #16]
 5030              		.loc 1 2077 0
 5031 00aa 08B0     		add	sp, sp, #32
 5032              		.cfi_remember_state
 5033              		.cfi_def_cfa_offset 24
 5034              		@ sp needed
 5035 00ac BDE8F081 		pop	{r4, r5, r6, r7, r8, pc}
 5036              	.LVL613:
 5037              	.L697:
 5038              		.cfi_restore_state
 5039              		.loc 1 1891 0
 5040 00b0 202A     		cmp	r2, #32
 5041 00b2 CED0     		beq	.L737
 5042 00b4 41F20A04 		movw	r4, #4106
 5043 00b8 A242     		cmp	r2, r4
 5044 00ba 0AD0     		beq	.L700
ARM GAS  C:\Users\jo\AppData\Local\Temp\cc6wN9Ut.s 			page 90


 5045 00bc 082A     		cmp	r2, #8
 5046 00be BBD1     		bne	.L720
 5047 00c0 C7E7     		b	.L737
 5048              	.L696:
 5049              		.loc 1 1996 0
 5050 00c2 0E9C     		ldr	r4, [sp, #56]
 5051 00c4 032C     		cmp	r4, #3
 5052 00c6 C7D9     		bls	.L718
 5053              		.loc 1 2002 0
 5054 00c8 3478     		ldrb	r4, [r6]	@ zero_extendqisi2
 5055 00ca 102C     		cmp	r4, #16
 5056 00cc C6D0     		beq	.L746
 5057              		.loc 1 2003 0
 5058 00ce 0020     		movs	r0, #0
 5059              	.LVL614:
 5060 00d0 B9E7     		b	.L731
 5061              	.LVL615:
 5062              	.L700:
 5063              		.loc 1 1921 0
 5064 00d2 0E9C     		ldr	r4, [sp, #56]
 5065              		.loc 1 1925 0
 5066 00d4 96F800E0 		ldrb	lr, [r6]	@ zero_extendqisi2
 5067              		.loc 1 1922 0
 5068 00d8 032C     		cmp	r4, #3
 5069 00da 8CBF     		ite	hi
 5070 00dc 0024     		movhi	r4, #0
 5071 00de 1624     		movls	r4, #22
 5072              	.LVL616:
 5073              		.loc 1 1925 0
 5074 00e0 BEF1200F 		cmp	lr, #32
 5075 00e4 04D0     		beq	.L747
 5076              	.L715:
 5077 00e6 6123     		movs	r3, #97
 5078              	.LVL617:
 5079 00e8 A7E7     		b	.L707
 5080              	.LVL618:
 5081              	.L743:
 5082              		.loc 1 1878 0
 5083 00ea 4FF0FF30 		mov	r0, #-1
 5084              	.LVL619:
 5085 00ee AAE7     		b	.L731
 5086              	.LVL620:
 5087              	.L747:
 5088              		.loc 1 1926 0 discriminator 1
 5089 00f0 7668     		ldr	r6, [r6, #4]
 5090 00f2 367C     		ldrb	r6, [r6, #16]	@ zero_extendqisi2
 5091              		.loc 1 1925 0 discriminator 1
 5092 00f4 B607     		lsls	r6, r6, #30
 5093 00f6 F6D4     		bmi	.L715
 5094              		.loc 1 2054 0
 5095 00f8 002C     		cmp	r4, #0
 5096 00fa B2D0     		beq	.L701
 5097 00fc 63B2     		sxtb	r3, r4
 5098              	.LVL621:
 5099 00fe 9CE7     		b	.L707
 5100              	.LVL622:
 5101              	.L744:
ARM GAS  C:\Users\jo\AppData\Local\Temp\cc6wN9Ut.s 			page 91


 5102              		.loc 1 1882 0
 5103 0100 0E23     		movs	r3, #14
 5104              	.LVL623:
 5105 0102 CCF81030 		str	r3, [ip, #16]
 5106              		.loc 1 1883 0
 5107 0106 4FF0FF30 		mov	r0, #-1
 5108              	.LVL624:
 5109 010a 9CE7     		b	.L731
 5110              	.L749:
 5111              		.align	2
 5112              	.L748:
 5113 010c 00000000 		.word	.LANCHOR0
 5114 0110 00000000 		.word	lwip_setsockopt_internal
 5115              		.cfi_endproc
 5116              	.LFE286:
 5117              		.size	lwip_setsockopt, .-lwip_setsockopt
 5118 0114 AFF30080 		.section	.text.lwip_ioctl,"ax",%progbits
 5118      AFF30080 
 5118      AFF30080 
 5119              		.align	2
 5120              		.p2align 4,,15
 5121              		.global	lwip_ioctl
 5122              		.thumb
 5123              		.thumb_func
 5124              		.type	lwip_ioctl, %function
 5125              	lwip_ioctl:
 5126              	.LFB288:
 5127              		.loc 1 2290 0
 5128              		.cfi_startproc
 5129              		@ args = 0, pretend = 0, frame = 0
 5130              		@ frame_needed = 0, uses_anonymous_args = 0
 5131              		@ link register save eliminated.
 5132              	.LVL625:
 5133              	.LBB274:
 5134              	.LBB275:
 5135              		.loc 1 199 0
 5136 0000 0128     		cmp	r0, #1
 5137 0002 02D9     		bls	.L769
 5138              	.LBE275:
 5139              	.LBE274:
 5140              		.loc 1 2299 0
 5141 0004 4FF0FF30 		mov	r0, #-1
 5142              	.LVL626:
 5143              		.loc 1 2348 0
 5144 0008 7047     		bx	lr
 5145              	.LVL627:
 5146              	.L769:
 5147              	.LBB278:
 5148              	.LBB276:
 5149              		.loc 1 207 0
 5150 000a 4300     		lsls	r3, r0, #1
 5151              	.LBE276:
 5152              	.LBE278:
 5153              		.loc 1 2290 0
 5154 000c F0B4     		push	{r4, r5, r6, r7}
 5155              		.cfi_def_cfa_offset 16
 5156              		.cfi_offset 4, -16
ARM GAS  C:\Users\jo\AppData\Local\Temp\cc6wN9Ut.s 			page 92


 5157              		.cfi_offset 5, -12
 5158              		.cfi_offset 6, -8
 5159              		.cfi_offset 7, -4
 5160              	.LBB279:
 5161              	.LBB277:
 5162              		.loc 1 207 0
 5163 000e 1E18     		adds	r6, r3, r0
 5164 0010 F600     		lsls	r6, r6, #3
 5165 0012 114C     		ldr	r4, .L772
 5166 0014 A559     		ldr	r5, [r4, r6]
 5167 0016 ADB1     		cbz	r5, .L770
 5168              	.LBE277:
 5169              	.LBE279:
 5170              		.loc 1 2302 0
 5171 0018 104F     		ldr	r7, .L772+4
 5172 001a B942     		cmp	r1, r7
 5173 001c 15D1     		bne	.L771
 5174              	.LVL628:
 5175              		.loc 1 2335 0
 5176 001e 62B1     		cbz	r2, .L754
 5177              		.loc 1 2335 0 is_stmt 0 discriminator 1
 5178 0020 1268     		ldr	r2, [r2]
 5179              	.LVL629:
 5180 0022 52B1     		cbz	r2, .L754
 5181              	.LVL630:
 5182              		.loc 1 2338 0 is_stmt 1
 5183 0024 2A7F     		ldrb	r2, [r5, #28]	@ zero_extendqisi2
 5184 0026 42F00202 		orr	r2, r2, #2
 5185 002a 2A77     		strb	r2, [r5, #28]
 5186              	.LVL631:
 5187              	.L757:
 5188              		.loc 1 2340 0
 5189 002c 1844     		add	r0, r0, r3
 5190              	.LVL632:
 5191 002e 04EBC003 		add	r3, r4, r0, lsl #3
 5192 0032 0020     		movs	r0, #0
 5193 0034 1861     		str	r0, [r3, #16]
 5194              	.L764:
 5195              		.loc 1 2348 0
 5196 0036 F0BC     		pop	{r4, r5, r6, r7}
 5197              		.cfi_remember_state
 5198              		.cfi_restore 7
 5199              		.cfi_restore 6
 5200              		.cfi_restore 5
 5201              		.cfi_restore 4
 5202              		.cfi_def_cfa_offset 0
 5203 0038 7047     		bx	lr
 5204              	.LVL633:
 5205              	.L754:
 5206              		.cfi_restore_state
 5207              		.loc 1 2338 0
 5208 003a 2A7F     		ldrb	r2, [r5, #28]	@ zero_extendqisi2
 5209 003c 22F00202 		bic	r2, r2, #2
 5210 0040 2A77     		strb	r2, [r5, #28]
 5211 0042 F3E7     		b	.L757
 5212              	.LVL634:
 5213              	.L770:
ARM GAS  C:\Users\jo\AppData\Local\Temp\cc6wN9Ut.s 			page 93


 5214              		.loc 1 2299 0
 5215 0044 4FF0FF30 		mov	r0, #-1
 5216              	.LVL635:
 5217 0048 F5E7     		b	.L764
 5218              	.LVL636:
 5219              	.L771:
 5220              		.loc 1 2345 0
 5221 004a A319     		adds	r3, r4, r6
 5222 004c 2622     		movs	r2, #38
 5223              	.LVL637:
 5224 004e 1A61     		str	r2, [r3, #16]
 5225              		.loc 1 2346 0
 5226 0050 4FF0FF30 		mov	r0, #-1
 5227              	.LVL638:
 5228 0054 EFE7     		b	.L764
 5229              	.L773:
 5230 0056 00BF     		.align	2
 5231              	.L772:
 5232 0058 00000000 		.word	.LANCHOR0
 5233 005c 7E660480 		.word	-2147195266
 5234              		.cfi_endproc
 5235              	.LFE288:
 5236              		.size	lwip_ioctl, .-lwip_ioctl
 5237              		.section	.text.lwip_fcntl,"ax",%progbits
 5238              		.align	2
 5239              		.p2align 4,,15
 5240              		.global	lwip_fcntl
 5241              		.thumb
 5242              		.thumb_func
 5243              		.type	lwip_fcntl, %function
 5244              	lwip_fcntl:
 5245              	.LFB289:
 5246              		.loc 1 2356 0
 5247              		.cfi_startproc
 5248              		@ args = 0, pretend = 0, frame = 0
 5249              		@ frame_needed = 0, uses_anonymous_args = 0
 5250              		@ link register save eliminated.
 5251              	.LVL639:
 5252              	.LBB280:
 5253              	.LBB281:
 5254              		.loc 1 199 0
 5255 0000 0128     		cmp	r0, #1
 5256 0002 02D9     		bls	.L784
 5257              	.LVL640:
 5258              	.L782:
 5259              	.LBE281:
 5260              	.LBE280:
 5261              		.loc 1 2361 0
 5262 0004 4FF0FF30 		mov	r0, #-1
 5263              		.loc 1 2380 0
 5264 0008 7047     		bx	lr
 5265              	.LVL641:
 5266              	.L784:
 5267              	.LBB283:
 5268              	.LBB282:
 5269              		.loc 1 207 0
 5270 000a 00EB4000 		add	r0, r0, r0, lsl #1
ARM GAS  C:\Users\jo\AppData\Local\Temp\cc6wN9Ut.s 			page 94


 5271              	.LVL642:
 5272 000e 0D4B     		ldr	r3, .L785
 5273 0010 53F83030 		ldr	r3, [r3, r0, lsl #3]
 5274 0014 002B     		cmp	r3, #0
 5275 0016 F5D0     		beq	.L782
 5276              	.LVL643:
 5277              	.LBE282:
 5278              	.LBE283:
 5279              		.loc 1 2364 0
 5280 0018 0329     		cmp	r1, #3
 5281 001a 0AD0     		beq	.L776
 5282 001c 0429     		cmp	r1, #4
 5283 001e F1D1     		bne	.L782
 5284              		.loc 1 2369 0
 5285 0020 32F00100 		bics	r0, r2, #1
 5286 0024 EED1     		bne	.L782
 5287              		.loc 1 2371 0
 5288 0026 42B1     		cbz	r2, .L778
 5289              		.loc 1 2371 0 is_stmt 0 discriminator 1
 5290 0028 1A7F     		ldrb	r2, [r3, #28]	@ zero_extendqisi2
 5291              	.LVL644:
 5292 002a 42F00202 		orr	r2, r2, #2
 5293 002e 1A77     		strb	r2, [r3, #28]
 5294 0030 7047     		bx	lr
 5295              	.LVL645:
 5296              	.L776:
 5297              		.loc 1 2366 0 is_stmt 1
 5298 0032 187F     		ldrb	r0, [r3, #28]	@ zero_extendqisi2
 5299 0034 C0F34000 		ubfx	r0, r0, #1, #1
 5300              	.LVL646:
 5301              		.loc 1 2367 0
 5302 0038 7047     		bx	lr
 5303              	.LVL647:
 5304              	.L778:
 5305              		.loc 1 2371 0 discriminator 2
 5306 003a 1A7F     		ldrb	r2, [r3, #28]	@ zero_extendqisi2
 5307              	.LVL648:
 5308 003c 22F00202 		bic	r2, r2, #2
 5309 0040 1A77     		strb	r2, [r3, #28]
 5310 0042 7047     		bx	lr
 5311              	.L786:
 5312              		.align	2
 5313              	.L785:
 5314 0044 00000000 		.word	.LANCHOR0
 5315              		.cfi_endproc
 5316              	.LFE289:
 5317              		.size	lwip_fcntl, .-lwip_fcntl
 5318 0048 AFF30080 		.section	.rodata.err_to_errno_table,"a",%progbits
 5318      AFF30080 
 5319              		.align	2
 5320              		.set	.LANCHOR1,. + 0
 5321              		.type	err_to_errno_table, %object
 5322              		.size	err_to_errno_table, 64
 5323              	err_to_errno_table:
 5324 0000 00000000 		.word	0
 5325 0004 0C000000 		.word	12
 5326 0008 69000000 		.word	105
ARM GAS  C:\Users\jo\AppData\Local\Temp\cc6wN9Ut.s 			page 95


 5327 000c 0B000000 		.word	11
 5328 0010 71000000 		.word	113
 5329 0014 73000000 		.word	115
 5330 0018 16000000 		.word	22
 5331 001c 0B000000 		.word	11
 5332 0020 62000000 		.word	98
 5333 0024 72000000 		.word	114
 5334 0028 67000000 		.word	103
 5335 002c 68000000 		.word	104
 5336 0030 6B000000 		.word	107
 5337 0034 6B000000 		.word	107
 5338 0038 05000000 		.word	5
 5339 003c FFFFFFFF 		.word	-1
 5340              		.section	.bss.select_cb_list,"aw",%nobits
 5341              		.align	2
 5342              		.set	.LANCHOR2,. + 0
 5343              		.type	select_cb_list, %object
 5344              		.size	select_cb_list, 4
 5345              	select_cb_list:
 5346 0000 00000000 		.space	4
 5347              		.section	.bss.sockets,"aw",%nobits
 5348              		.align	2
 5349              		.set	.LANCHOR0,. + 0
 5350              		.type	sockets, %object
 5351              		.size	sockets, 48
 5352              	sockets:
 5353 0000 00000000 		.space	48
 5353      00000000 
 5353      00000000 
 5353      00000000 
 5353      00000000 
 5354              		.section	.bss.select_cb_ctr,"aw",%nobits
 5355              		.align	2
 5356              		.set	.LANCHOR3,. + 0
 5357              		.type	select_cb_ctr, %object
 5358              		.size	select_cb_ctr, 4
 5359              	select_cb_ctr:
 5360 0000 00000000 		.space	4
 5361              		.section	.rodata.str1.4,"aMS",%progbits,1
 5362              		.align	2
 5363              	.LC0:
 5364 0000 41737365 		.ascii	"Assertion \"%s\" failed at line %d in %s\012\000"
 5364      7274696F 
 5364      6E202225 
 5364      73222066 
 5364      61696C65 
 5365              	.LC1:
 5366 0028 61726720 		.ascii	"arg != NULL\000"
 5366      213D204E 
 5366      554C4C00 
 5367              	.LC2:
 5368 0034 2E2E2F2E 		.ascii	"../../../ext/lwip/src/api/sockets.c\000"
 5368      2E2F2E2E 
 5368      2F657874 
 5368      2F6C7769 
 5368      702F7372 
 5369              	.LC3:
ARM GAS  C:\Users\jo\AppData\Local\Temp\cc6wN9Ut.s 			page 96


 5370 0058 756E6861 		.ascii	"unhandled optname\000"
 5370      6E646C65 
 5370      64206F70 
 5370      746E616D 
 5370      6500
 5371 006a 0000     		.space	2
 5372              	.LC4:
 5373 006c 756E6861 		.ascii	"unhandled level\000"
 5373      6E646C65 
 5373      64206C65 
 5373      76656C00 
 5374              	.LC5:
 5375 007c 756E6B6E 		.ascii	"unknown event\000"
 5375      6F776E20 
 5375      6576656E 
 5375      7400
 5376 008a 0000     		.space	2
 5377              	.LC6:
 5378 008c 6E657763 		.ascii	"newconn != NULL\000"
 5378      6F6E6E20 
 5378      213D204E 
 5378      554C4C00 
 5379              	.LC7:
 5380 009c 61646472 		.ascii	"addr valid but addrlen NULL\000"
 5380      2076616C 
 5380      69642062 
 5380      75742061 
 5380      6464726C 
 5381              	.LC8:
 5382 00b8 696E7661 		.ascii	"invalid socket index\000"
 5382      6C696420 
 5382      736F636B 
 5382      65742069 
 5382      6E646578 
 5383 00cd 000000   		.space	3
 5384              	.LC9:
 5385 00d0 6E657763 		.ascii	"newconn->callback == event_callback\000"
 5385      6F6E6E2D 
 5385      3E63616C 
 5385      6C626163 
 5385      6B203D3D 
 5386              	.LC10:
 5387 00f4 6C776970 		.ascii	"lwip_bind: invalid address\000"
 5387      5F62696E 
 5387      643A2069 
 5387      6E76616C 
 5387      69642061 
 5388 010f 00       		.space	1
 5389              	.LC11:
 5390 0110 6C776970 		.ascii	"lwip_connect: invalid address\000"
 5390      5F636F6E 
 5390      6E656374 
 5390      3A20696E 
 5390      76616C69 
 5391 012e 0000     		.space	2
 5392              	.LC12:
 5393 0130 62756620 		.ascii	"buf != NULL\000"
ARM GAS  C:\Users\jo\AppData\Local\Temp\cc6wN9Ut.s 			page 97


 5393      213D204E 
 5393      554C4C00 
 5394              	.LC13:
 5395 013c 696E7661 		.ascii	"invalid copylen, len would underflow\000"
 5395      6C696420 
 5395      636F7079 
 5395      6C656E2C 
 5395      206C656E 
 5396 0161 000000   		.space	3
 5397              	.LC14:
 5398 0164 6C776970 		.ascii	"lwip_sendto: size must fit in u16_t\000"
 5398      5F73656E 
 5398      64746F3A 
 5398      2073697A 
 5398      65206D75 
 5399              	.LC15:
 5400 0188 6C776970 		.ascii	"lwip_sendto: invalid address\000"
 5400      5F73656E 
 5400      64746F3A 
 5400      20696E76 
 5400      616C6964 
 5401 01a5 000000   		.space	3
 5402              	.LC16:
 5403 01a8 736F636B 		.ascii	"sock->select_waiting > 0\000"
 5403      2D3E7365 
 5403      6C656374 
 5403      5F776169 
 5403      74696E67 
 5404 01c1 000000   		.space	3
 5405              	.LC17:
 5406 01c4 736F636B 		.ascii	"sock->select_waiting >= 0\000"
 5406      2D3E7365 
 5406      6C656374 
 5406      5F776169 
 5406      74696E67 
 5407 01de 0000     		.space	2
 5408              	.LC18:
 5409 01e0 73656C65 		.ascii	"select_cb.prev == NULL\000"
 5409      63745F63 
 5409      622E7072 
 5409      6576203D 
 5409      3D204E55 
 5410 01f7 00       		.space	1
 5411              	.LC19:
 5412 01f8 73656C65 		.ascii	"select_cb.prev != NULL\000"
 5412      63745F63 
 5412      622E7072 
 5412      65762021 
 5412      3D204E55 
 5413 020f 00       		.space	1
 5414              	.LC20:
 5415 0210 736F636B 		.ascii	"sock != NULL\000"
 5415      20213D20 
 5415      4E554C4C 
 5415      00
 5416 021d 000000   		.text
 5417              	.Letext0:
ARM GAS  C:\Users\jo\AppData\Local\Temp\cc6wN9Ut.s 			page 98


 5418              		.file 4 "c:\\program files\\gnu tools arm embedded\\4.9 2014q4\\lib\\gcc\\arm-none-eabi\\4.9.3\\in
 5419              		.file 5 "c:\\program files\\gnu tools arm embedded\\4.9 2014q4\\arm-none-eabi\\include\\machine\\_
 5420              		.file 6 "c:\\program files\\gnu tools arm embedded\\4.9 2014q4\\arm-none-eabi\\include\\stdint.h"
 5421              		.file 7 "../../../os/rt/ports/ARMCMx/compilers/GCC/chtypes.h"
 5422              		.file 8 "../../../os/rt/include/chsystypes.h"
 5423              		.file 9 "../../../os/rt/include/chschd.h"
 5424              		.file 10 "../../../os/rt/ports/ARMCMx/chcore.h"
 5425              		.file 11 "../../../os/rt/ports/ARMCMx/chcore_v7m.h"
 5426              		.file 12 "../../../os/rt/include/chdebug.h"
 5427              		.file 13 "../../../os/rt/include/chtm.h"
 5428              		.file 14 "../../../os/rt/include/chsem.h"
 5429              		.file 15 "../../../os/rt/include/chmtx.h"
 5430              		.file 16 "../../../os/rt/include/chmboxes.h"
 5431              		.file 17 "../../../os/rt/include/chstreams.h"
 5432              		.file 18 "c:\\program files\\gnu tools arm embedded\\4.9 2014q4\\arm-none-eabi\\include\\sys\\type
 5433              		.file 19 "./ITM_trace.h"
 5434              		.file 20 "c:\\program files\\gnu tools arm embedded\\4.9 2014q4\\lib\\gcc\\arm-none-eabi\\4.9.3\\i
 5435              		.file 21 "<built-in>"
 5436              		.file 22 "../../../os/various/lwip_bindings/arch/cc.h"
 5437              		.file 23 "../../../ext/lwip/src/include/ipv4/lwip/ip_addr.h"
 5438              		.file 24 "../../../ext/lwip/src/include/ipv4/lwip/inet.h"
 5439              		.file 25 "../../../ext/lwip/src/include/lwip/sockets.h"
 5440              		.file 26 "../../../ext/lwip/src/include/lwip/err.h"
 5441              		.file 27 "../../../ext/lwip/src/include/lwip/pbuf.h"
 5442              		.file 28 "../../../ext/lwip/src/include/lwip/netbuf.h"
 5443              		.file 29 "../../../os/various/lwip_bindings/arch/sys_arch.h"
 5444              		.file 30 "../../../ext/lwip/src/include/lwip/api.h"
 5445              		.file 31 "../../../ext/lwip/src/include/ipv4/lwip/ip.h"
 5446              		.file 32 "../../../ext/lwip/src/include/lwip/tcp.h"
 5447              		.file 33 "../../../ext/lwip/src/include/lwip/udp.h"
 5448              		.file 34 "../../../ext/lwip/src/include/lwip/api_msg.h"
 5449              		.file 35 "../../../ext/lwip/src/include/lwip/tcpip.h"
 5450              		.file 36 "../../../os/ext/CMSIS/include/core_cm4.h"
 5451              		.file 37 "../../../ext/lwip/src/include/lwip/def.h"
 5452              		.file 38 "../../../os/rt/include/chsys.h"
 5453              		.file 39 "../../../ext/lwip/src/include/lwip/sys.h"
 5454              		.section	.debug_info,"",%progbits
 5455              	.Ldebug_info0:
 5456 0000 863B0000 		.4byte	0x3b86
 5457 0004 0400     		.2byte	0x4
 5458 0006 00000000 		.4byte	.Ldebug_abbrev0
 5459 000a 04       		.byte	0x4
 5460 000b 01       		.uleb128 0x1
 5461 000c 9B000000 		.4byte	.LASF426
 5462 0010 01       		.byte	0x1
 5463 0011 A5030000 		.4byte	.LASF427
 5464 0015 CA020000 		.4byte	.LASF428
 5465 0019 D0020000 		.4byte	.Ldebug_ranges0+0x2d0
 5466 001d 00000000 		.4byte	0
 5467 0021 00000000 		.4byte	.Ldebug_line0
 5468 0025 02       		.uleb128 0x2
 5469 0026 04       		.byte	0x4
 5470 0027 05       		.byte	0x5
 5471 0028 696E7400 		.ascii	"int\000"
 5472 002c 03       		.uleb128 0x3
 5473 002d 7A060000 		.4byte	.LASF1
 5474 0031 04       		.byte	0x4
ARM GAS  C:\Users\jo\AppData\Local\Temp\cc6wN9Ut.s 			page 99


 5475 0032 D4       		.byte	0xd4
 5476 0033 37000000 		.4byte	0x37
 5477 0037 04       		.uleb128 0x4
 5478 0038 04       		.byte	0x4
 5479 0039 07       		.byte	0x7
 5480 003a F5010000 		.4byte	.LASF0
 5481 003e 03       		.uleb128 0x3
 5482 003f 7E0B0000 		.4byte	.LASF2
 5483 0043 05       		.byte	0x5
 5484 0044 1B       		.byte	0x1b
 5485 0045 49000000 		.4byte	0x49
 5486 0049 04       		.uleb128 0x4
 5487 004a 01       		.byte	0x1
 5488 004b 06       		.byte	0x6
 5489 004c 34040000 		.4byte	.LASF3
 5490 0050 03       		.uleb128 0x3
 5491 0051 EE0D0000 		.4byte	.LASF4
 5492 0055 05       		.byte	0x5
 5493 0056 1D       		.byte	0x1d
 5494 0057 5B000000 		.4byte	0x5b
 5495 005b 04       		.uleb128 0x4
 5496 005c 01       		.byte	0x1
 5497 005d 08       		.byte	0x8
 5498 005e A80F0000 		.4byte	.LASF5
 5499 0062 03       		.uleb128 0x3
 5500 0063 2D0A0000 		.4byte	.LASF6
 5501 0067 05       		.byte	0x5
 5502 0068 29       		.byte	0x29
 5503 0069 6D000000 		.4byte	0x6d
 5504 006d 04       		.uleb128 0x4
 5505 006e 02       		.byte	0x2
 5506 006f 05       		.byte	0x5
 5507 0070 9E0C0000 		.4byte	.LASF7
 5508 0074 03       		.uleb128 0x3
 5509 0075 75050000 		.4byte	.LASF8
 5510 0079 05       		.byte	0x5
 5511 007a 2B       		.byte	0x2b
 5512 007b 7F000000 		.4byte	0x7f
 5513 007f 04       		.uleb128 0x4
 5514 0080 02       		.byte	0x2
 5515 0081 07       		.byte	0x7
 5516 0082 A4110000 		.4byte	.LASF9
 5517 0086 03       		.uleb128 0x3
 5518 0087 86020000 		.4byte	.LASF10
 5519 008b 05       		.byte	0x5
 5520 008c 3F       		.byte	0x3f
 5521 008d 91000000 		.4byte	0x91
 5522 0091 04       		.uleb128 0x4
 5523 0092 04       		.byte	0x4
 5524 0093 05       		.byte	0x5
 5525 0094 DE0C0000 		.4byte	.LASF11
 5526 0098 03       		.uleb128 0x3
 5527 0099 EC080000 		.4byte	.LASF12
 5528 009d 05       		.byte	0x5
 5529 009e 41       		.byte	0x41
 5530 009f A3000000 		.4byte	0xa3
 5531 00a3 04       		.uleb128 0x4
ARM GAS  C:\Users\jo\AppData\Local\Temp\cc6wN9Ut.s 			page 100


 5532 00a4 04       		.byte	0x4
 5533 00a5 07       		.byte	0x7
 5534 00a6 970E0000 		.4byte	.LASF13
 5535 00aa 04       		.uleb128 0x4
 5536 00ab 08       		.byte	0x8
 5537 00ac 05       		.byte	0x5
 5538 00ad B3080000 		.4byte	.LASF14
 5539 00b1 03       		.uleb128 0x3
 5540 00b2 3D070000 		.4byte	.LASF15
 5541 00b6 05       		.byte	0x5
 5542 00b7 5B       		.byte	0x5b
 5543 00b8 BC000000 		.4byte	0xbc
 5544 00bc 04       		.uleb128 0x4
 5545 00bd 08       		.byte	0x8
 5546 00be 07       		.byte	0x7
 5547 00bf 17050000 		.4byte	.LASF16
 5548 00c3 03       		.uleb128 0x3
 5549 00c4 5B040000 		.4byte	.LASF17
 5550 00c8 06       		.byte	0x6
 5551 00c9 14       		.byte	0x14
 5552 00ca 3E000000 		.4byte	0x3e
 5553 00ce 03       		.uleb128 0x3
 5554 00cf FC080000 		.4byte	.LASF18
 5555 00d3 06       		.byte	0x6
 5556 00d4 15       		.byte	0x15
 5557 00d5 50000000 		.4byte	0x50
 5558 00d9 03       		.uleb128 0x3
 5559 00da F9040000 		.4byte	.LASF19
 5560 00de 06       		.byte	0x6
 5561 00df 20       		.byte	0x20
 5562 00e0 62000000 		.4byte	0x62
 5563 00e4 03       		.uleb128 0x3
 5564 00e5 BC0B0000 		.4byte	.LASF20
 5565 00e9 06       		.byte	0x6
 5566 00ea 21       		.byte	0x21
 5567 00eb 74000000 		.4byte	0x74
 5568 00ef 03       		.uleb128 0x3
 5569 00f0 E20E0000 		.4byte	.LASF21
 5570 00f4 06       		.byte	0x6
 5571 00f5 2C       		.byte	0x2c
 5572 00f6 86000000 		.4byte	0x86
 5573 00fa 03       		.uleb128 0x3
 5574 00fb 52040000 		.4byte	.LASF22
 5575 00ff 06       		.byte	0x6
 5576 0100 2D       		.byte	0x2d
 5577 0101 98000000 		.4byte	0x98
 5578 0105 03       		.uleb128 0x3
 5579 0106 660D0000 		.4byte	.LASF23
 5580 010a 06       		.byte	0x6
 5581 010b 39       		.byte	0x39
 5582 010c B1000000 		.4byte	0xb1
 5583 0110 05       		.uleb128 0x5
 5584 0111 EF000000 		.4byte	0xef
 5585 0115 03       		.uleb128 0x3
 5586 0116 000C0000 		.4byte	.LASF24
 5587 011a 07       		.byte	0x7
 5588 011b 45       		.byte	0x45
ARM GAS  C:\Users\jo\AppData\Local\Temp\cc6wN9Ut.s 			page 101


 5589 011c FA000000 		.4byte	0xfa
 5590 0120 03       		.uleb128 0x3
 5591 0121 8F0B0000 		.4byte	.LASF25
 5592 0125 07       		.byte	0x7
 5593 0126 48       		.byte	0x48
 5594 0127 CE000000 		.4byte	0xce
 5595 012b 03       		.uleb128 0x3
 5596 012c 7F080000 		.4byte	.LASF26
 5597 0130 07       		.byte	0x7
 5598 0131 49       		.byte	0x49
 5599 0132 CE000000 		.4byte	0xce
 5600 0136 03       		.uleb128 0x3
 5601 0137 720C0000 		.4byte	.LASF27
 5602 013b 07       		.byte	0x7
 5603 013c 4A       		.byte	0x4a
 5604 013d CE000000 		.4byte	0xce
 5605 0141 03       		.uleb128 0x3
 5606 0142 BD040000 		.4byte	.LASF28
 5607 0146 07       		.byte	0x7
 5608 0147 4C       		.byte	0x4c
 5609 0148 FA000000 		.4byte	0xfa
 5610 014c 03       		.uleb128 0x3
 5611 014d ED090000 		.4byte	.LASF29
 5612 0151 07       		.byte	0x7
 5613 0152 4D       		.byte	0x4d
 5614 0153 EF000000 		.4byte	0xef
 5615 0157 03       		.uleb128 0x3
 5616 0158 67040000 		.4byte	.LASF30
 5617 015c 07       		.byte	0x7
 5618 015d 4F       		.byte	0x4f
 5619 015e FA000000 		.4byte	0xfa
 5620 0162 03       		.uleb128 0x3
 5621 0163 E7090000 		.4byte	.LASF31
 5622 0167 07       		.byte	0x7
 5623 0168 51       		.byte	0x51
 5624 0169 EF000000 		.4byte	0xef
 5625 016d 03       		.uleb128 0x3
 5626 016e A0010000 		.4byte	.LASF32
 5627 0172 08       		.byte	0x8
 5628 0173 33       		.byte	0x33
 5629 0174 FA000000 		.4byte	0xfa
 5630 0178 03       		.uleb128 0x3
 5631 0179 30060000 		.4byte	.LASF33
 5632 017d 08       		.byte	0x8
 5633 017e 3F       		.byte	0x3f
 5634 017f 83010000 		.4byte	0x183
 5635 0183 06       		.uleb128 0x6
 5636 0184 5E090000 		.4byte	.LASF54
 5637 0188 48       		.byte	0x48
 5638 0189 09       		.byte	0x9
 5639 018a C2       		.byte	0xc2
 5640 018b 7C020000 		.4byte	0x27c
 5641 018f 07       		.uleb128 0x7
 5642 0190 45060000 		.4byte	.LASF34
 5643 0194 09       		.byte	0x9
 5644 0195 C3       		.byte	0xc3
 5645 0196 87020000 		.4byte	0x287
ARM GAS  C:\Users\jo\AppData\Local\Temp\cc6wN9Ut.s 			page 102


 5646 019a 00       		.byte	0
 5647 019b 07       		.uleb128 0x7
 5648 019c 720E0000 		.4byte	.LASF35
 5649 01a0 09       		.byte	0x9
 5650 01a1 C5       		.byte	0xc5
 5651 01a2 87020000 		.4byte	0x287
 5652 01a6 04       		.byte	0x4
 5653 01a7 07       		.uleb128 0x7
 5654 01a8 75000000 		.4byte	.LASF36
 5655 01ac 09       		.byte	0x9
 5656 01ad C7       		.byte	0xc7
 5657 01ae 41010000 		.4byte	0x141
 5658 01b2 08       		.byte	0x8
 5659 01b3 07       		.uleb128 0x7
 5660 01b4 6F0D0000 		.4byte	.LASF37
 5661 01b8 09       		.byte	0x9
 5662 01b9 C8       		.byte	0xc8
 5663 01ba E2040000 		.4byte	0x4e2
 5664 01be 0C       		.byte	0xc
 5665 01bf 07       		.uleb128 0x7
 5666 01c0 C1050000 		.4byte	.LASF38
 5667 01c4 09       		.byte	0x9
 5668 01c5 CA       		.byte	0xca
 5669 01c6 87020000 		.4byte	0x287
 5670 01ca 10       		.byte	0x10
 5671 01cb 07       		.uleb128 0x7
 5672 01cc CF080000 		.4byte	.LASF39
 5673 01d0 09       		.byte	0x9
 5674 01d1 CB       		.byte	0xcb
 5675 01d2 87020000 		.4byte	0x287
 5676 01d6 14       		.byte	0x14
 5677 01d7 07       		.uleb128 0x7
 5678 01d8 C1070000 		.4byte	.LASF40
 5679 01dc 09       		.byte	0x9
 5680 01dd D2       		.byte	0xd2
 5681 01de F4060000 		.4byte	0x6f4
 5682 01e2 18       		.byte	0x18
 5683 01e3 07       		.uleb128 0x7
 5684 01e4 E1080000 		.4byte	.LASF41
 5685 01e8 09       		.byte	0x9
 5686 01e9 D8       		.byte	0xd8
 5687 01ea 06070000 		.4byte	0x706
 5688 01ee 1C       		.byte	0x1c
 5689 01ef 07       		.uleb128 0x7
 5690 01f0 340B0000 		.4byte	.LASF42
 5691 01f4 09       		.byte	0x9
 5692 01f5 DD       		.byte	0xdd
 5693 01f6 2B010000 		.4byte	0x12b
 5694 01fa 20       		.byte	0x20
 5695 01fb 07       		.uleb128 0x7
 5696 01fc 250A0000 		.4byte	.LASF43
 5697 0200 09       		.byte	0x9
 5698 0201 E1       		.byte	0xe1
 5699 0202 20010000 		.4byte	0x120
 5700 0206 21       		.byte	0x21
 5701 0207 07       		.uleb128 0x7
 5702 0208 F60F0000 		.4byte	.LASF44
ARM GAS  C:\Users\jo\AppData\Local\Temp\cc6wN9Ut.s 			page 103


 5703 020c 09       		.byte	0x9
 5704 020d E6       		.byte	0xe6
 5705 020e 36010000 		.4byte	0x136
 5706 0212 22       		.byte	0x22
 5707 0213 08       		.uleb128 0x8
 5708 0214 705F7500 		.ascii	"p_u\000"
 5709 0218 09       		.byte	0x9
 5710 0219 3101     		.2byte	0x131
 5711 021b 2F060000 		.4byte	0x62f
 5712 021f 24       		.byte	0x24
 5713 0220 09       		.uleb128 0x9
 5714 0221 7C020000 		.4byte	.LASF45
 5715 0225 09       		.byte	0x9
 5716 0226 3601     		.2byte	0x136
 5717 0228 8D020000 		.4byte	0x28d
 5718 022c 28       		.byte	0x28
 5719 022d 09       		.uleb128 0x9
 5720 022e EF110000 		.4byte	.LASF46
 5721 0232 09       		.byte	0x9
 5722 0233 3C01     		.2byte	0x13c
 5723 0235 B1020000 		.4byte	0x2b1
 5724 0239 2C       		.byte	0x2c
 5725 023a 09       		.uleb128 0x9
 5726 023b 780B0000 		.4byte	.LASF47
 5727 023f 09       		.byte	0x9
 5728 0240 4001     		.2byte	0x140
 5729 0242 4C010000 		.4byte	0x14c
 5730 0246 34       		.byte	0x34
 5731 0247 09       		.uleb128 0x9
 5732 0248 C30C0000 		.4byte	.LASF48
 5733 024c 09       		.byte	0x9
 5734 024d 4601     		.2byte	0x146
 5735 024f 57010000 		.4byte	0x157
 5736 0253 38       		.byte	0x38
 5737 0254 09       		.uleb128 0x9
 5738 0255 3E090000 		.4byte	.LASF49
 5739 0259 09       		.byte	0x9
 5740 025a 4D01     		.2byte	0x14d
 5741 025c EE060000 		.4byte	0x6ee
 5742 0260 3C       		.byte	0x3c
 5743 0261 09       		.uleb128 0x9
 5744 0262 7A0C0000 		.4byte	.LASF50
 5745 0266 09       		.byte	0x9
 5746 0267 5101     		.2byte	0x151
 5747 0269 41010000 		.4byte	0x141
 5748 026d 40       		.byte	0x40
 5749 026e 09       		.uleb128 0x9
 5750 026f 2D090000 		.4byte	.LASF51
 5751 0273 09       		.byte	0x9
 5752 0274 5801     		.2byte	0x158
 5753 0276 64030000 		.4byte	0x364
 5754 027a 44       		.byte	0x44
 5755 027b 00       		.byte	0
 5756 027c 03       		.uleb128 0x3
 5757 027d FD0F0000 		.4byte	.LASF52
 5758 0281 08       		.byte	0x8
 5759 0282 44       		.byte	0x44
ARM GAS  C:\Users\jo\AppData\Local\Temp\cc6wN9Ut.s 			page 104


 5760 0283 87020000 		.4byte	0x287
 5761 0287 0A       		.uleb128 0xa
 5762 0288 04       		.byte	0x4
 5763 0289 78010000 		.4byte	0x178
 5764 028d 03       		.uleb128 0x3
 5765 028e 59020000 		.4byte	.LASF53
 5766 0292 08       		.byte	0x8
 5767 0293 49       		.byte	0x49
 5768 0294 98020000 		.4byte	0x298
 5769 0298 06       		.uleb128 0x6
 5770 0299 81040000 		.4byte	.LASF55
 5771 029d 04       		.byte	0x4
 5772 029e 09       		.byte	0x9
 5773 029f B0       		.byte	0xb0
 5774 02a0 B1020000 		.4byte	0x2b1
 5775 02a4 07       		.uleb128 0x7
 5776 02a5 45060000 		.4byte	.LASF34
 5777 02a9 09       		.byte	0x9
 5778 02aa B1       		.byte	0xb1
 5779 02ab 87020000 		.4byte	0x287
 5780 02af 00       		.byte	0
 5781 02b0 00       		.byte	0
 5782 02b1 03       		.uleb128 0x3
 5783 02b2 16000000 		.4byte	.LASF56
 5784 02b6 08       		.byte	0x8
 5785 02b7 50       		.byte	0x50
 5786 02b8 BC020000 		.4byte	0x2bc
 5787 02bc 06       		.uleb128 0x6
 5788 02bd A9090000 		.4byte	.LASF57
 5789 02c1 08       		.byte	0x8
 5790 02c2 09       		.byte	0x9
 5791 02c3 B7       		.byte	0xb7
 5792 02c4 E1020000 		.4byte	0x2e1
 5793 02c8 07       		.uleb128 0x7
 5794 02c9 45060000 		.4byte	.LASF34
 5795 02cd 09       		.byte	0x9
 5796 02ce B8       		.byte	0xb8
 5797 02cf 87020000 		.4byte	0x287
 5798 02d3 00       		.byte	0
 5799 02d4 07       		.uleb128 0x7
 5800 02d5 720E0000 		.4byte	.LASF35
 5801 02d9 09       		.byte	0x9
 5802 02da B9       		.byte	0xb9
 5803 02db 87020000 		.4byte	0x287
 5804 02df 04       		.byte	0x4
 5805 02e0 00       		.byte	0
 5806 02e1 03       		.uleb128 0x3
 5807 02e2 A90E0000 		.4byte	.LASF58
 5808 02e6 08       		.byte	0x8
 5809 02e7 57       		.byte	0x57
 5810 02e8 EC020000 		.4byte	0x2ec
 5811 02ec 0B       		.uleb128 0xb
 5812 02ed 32030000 		.4byte	.LASF59
 5813 02f1 1C       		.byte	0x1c
 5814 02f2 09       		.byte	0x9
 5815 02f3 9001     		.2byte	0x190
 5816 02f5 48030000 		.4byte	0x348
ARM GAS  C:\Users\jo\AppData\Local\Temp\cc6wN9Ut.s 			page 105


 5817 02f9 09       		.uleb128 0x9
 5818 02fa C6090000 		.4byte	.LASF60
 5819 02fe 09       		.byte	0x9
 5820 02ff 9101     		.2byte	0x191
 5821 0301 B1020000 		.4byte	0x2b1
 5822 0305 00       		.byte	0
 5823 0306 09       		.uleb128 0x9
 5824 0307 73040000 		.4byte	.LASF61
 5825 030b 09       		.byte	0x9
 5826 030c 9201     		.2byte	0x192
 5827 030e 41010000 		.4byte	0x141
 5828 0312 08       		.byte	0x8
 5829 0313 09       		.uleb128 0x9
 5830 0314 B7110000 		.4byte	.LASF62
 5831 0318 09       		.byte	0x9
 5832 0319 9401     		.2byte	0x194
 5833 031b E2040000 		.4byte	0x4e2
 5834 031f 0C       		.byte	0xc
 5835 0320 09       		.uleb128 0x9
 5836 0321 3D080000 		.4byte	.LASF63
 5837 0325 09       		.byte	0x9
 5838 0326 9701     		.2byte	0x197
 5839 0328 87020000 		.4byte	0x287
 5840 032c 10       		.byte	0x10
 5841 032d 09       		.uleb128 0x9
 5842 032e 170B0000 		.4byte	.LASF64
 5843 0332 09       		.byte	0x9
 5844 0333 9801     		.2byte	0x198
 5845 0335 87020000 		.4byte	0x287
 5846 0339 14       		.byte	0x14
 5847 033a 09       		.uleb128 0x9
 5848 033b B90C0000 		.4byte	.LASF65
 5849 033f 09       		.byte	0x9
 5850 0340 9B01     		.2byte	0x19b
 5851 0342 87020000 		.4byte	0x287
 5852 0346 18       		.byte	0x18
 5853 0347 00       		.byte	0
 5854 0348 03       		.uleb128 0x3
 5855 0349 0E040000 		.4byte	.LASF66
 5856 034d 08       		.byte	0x8
 5857 034e 5C       		.byte	0x5c
 5858 034f 53030000 		.4byte	0x353
 5859 0353 0A       		.uleb128 0xa
 5860 0354 04       		.byte	0x4
 5861 0355 59030000 		.4byte	0x359
 5862 0359 0C       		.uleb128 0xc
 5863 035a 64030000 		.4byte	0x364
 5864 035e 0D       		.uleb128 0xd
 5865 035f 64030000 		.4byte	0x364
 5866 0363 00       		.byte	0
 5867 0364 0E       		.uleb128 0xe
 5868 0365 04       		.byte	0x4
 5869 0366 03       		.uleb128 0x3
 5870 0367 440A0000 		.4byte	.LASF67
 5871 036b 08       		.byte	0x8
 5872 036c 61       		.byte	0x61
 5873 036d 71030000 		.4byte	0x371
ARM GAS  C:\Users\jo\AppData\Local\Temp\cc6wN9Ut.s 			page 106


 5874 0371 0B       		.uleb128 0xb
 5875 0372 DE040000 		.4byte	.LASF68
 5876 0376 14       		.byte	0x14
 5877 0377 09       		.byte	0x9
 5878 0378 6B01     		.2byte	0x16b
 5879 037a C0030000 		.4byte	0x3c0
 5880 037e 09       		.uleb128 0x9
 5881 037f C2100000 		.4byte	.LASF69
 5882 0383 09       		.byte	0x9
 5883 0384 6C01     		.2byte	0x16c
 5884 0386 0C070000 		.4byte	0x70c
 5885 038a 00       		.byte	0
 5886 038b 09       		.uleb128 0x9
 5887 038c 59120000 		.4byte	.LASF70
 5888 0390 09       		.byte	0x9
 5889 0391 6D01     		.2byte	0x16d
 5890 0393 0C070000 		.4byte	0x70c
 5891 0397 04       		.byte	0x4
 5892 0398 09       		.uleb128 0x9
 5893 0399 10080000 		.4byte	.LASF71
 5894 039d 09       		.byte	0x9
 5895 039e 6E01     		.2byte	0x16e
 5896 03a0 6D010000 		.4byte	0x16d
 5897 03a4 08       		.byte	0x8
 5898 03a5 09       		.uleb128 0x9
 5899 03a6 2B120000 		.4byte	.LASF72
 5900 03aa 09       		.byte	0x9
 5901 03ab 6F01     		.2byte	0x16f
 5902 03ad 48030000 		.4byte	0x348
 5903 03b1 0C       		.byte	0xc
 5904 03b2 09       		.uleb128 0x9
 5905 03b3 91040000 		.4byte	.LASF73
 5906 03b7 09       		.byte	0x9
 5907 03b8 7101     		.2byte	0x171
 5908 03ba 64030000 		.4byte	0x364
 5909 03be 10       		.byte	0x10
 5910 03bf 00       		.byte	0
 5911 03c0 03       		.uleb128 0x3
 5912 03c1 E00F0000 		.4byte	.LASF74
 5913 03c5 08       		.byte	0x8
 5914 03c6 66       		.byte	0x66
 5915 03c7 CB030000 		.4byte	0x3cb
 5916 03cb 0B       		.uleb128 0xb
 5917 03cc D5050000 		.4byte	.LASF75
 5918 03d0 10       		.byte	0x10
 5919 03d1 09       		.byte	0x9
 5920 03d2 7B01     		.2byte	0x17b
 5921 03d4 0D040000 		.4byte	0x40d
 5922 03d8 09       		.uleb128 0x9
 5923 03d9 C2100000 		.4byte	.LASF69
 5924 03dd 09       		.byte	0x9
 5925 03de 7C01     		.2byte	0x17c
 5926 03e0 0C070000 		.4byte	0x70c
 5927 03e4 00       		.byte	0
 5928 03e5 09       		.uleb128 0x9
 5929 03e6 59120000 		.4byte	.LASF70
 5930 03ea 09       		.byte	0x9
ARM GAS  C:\Users\jo\AppData\Local\Temp\cc6wN9Ut.s 			page 107


 5931 03eb 7E01     		.2byte	0x17e
 5932 03ed 0C070000 		.4byte	0x70c
 5933 03f1 04       		.byte	0x4
 5934 03f2 09       		.uleb128 0x9
 5935 03f3 10080000 		.4byte	.LASF71
 5936 03f7 09       		.byte	0x9
 5937 03f8 8001     		.2byte	0x180
 5938 03fa 6D010000 		.4byte	0x16d
 5939 03fe 08       		.byte	0x8
 5940 03ff 09       		.uleb128 0x9
 5941 0400 77100000 		.4byte	.LASF76
 5942 0404 09       		.byte	0x9
 5943 0405 8801     		.2byte	0x188
 5944 0407 6D010000 		.4byte	0x16d
 5945 040b 0C       		.byte	0xc
 5946 040c 00       		.byte	0
 5947 040d 03       		.uleb128 0x3
 5948 040e 70080000 		.4byte	.LASF77
 5949 0412 08       		.byte	0x8
 5950 0413 6B       		.byte	0x6b
 5951 0414 18040000 		.4byte	0x418
 5952 0418 0F       		.uleb128 0xf
 5953 0419 24040000 		.4byte	.LASF78
 5954 041d 1404     		.2byte	0x414
 5955 041f 09       		.byte	0x9
 5956 0420 A201     		.2byte	0x1a2
 5957 0422 5B040000 		.4byte	0x45b
 5958 0426 09       		.uleb128 0x9
 5959 0427 630B0000 		.4byte	.LASF79
 5960 042b 09       		.byte	0x9
 5961 042c AA01     		.2byte	0x1aa
 5962 042e 12070000 		.4byte	0x712
 5963 0432 00       		.byte	0
 5964 0433 09       		.uleb128 0x9
 5965 0434 AE050000 		.4byte	.LASF80
 5966 0438 09       		.byte	0x9
 5967 0439 AF01     		.2byte	0x1af
 5968 043b 62010000 		.4byte	0x162
 5969 043f 04       		.byte	0x4
 5970 0440 09       		.uleb128 0x9
 5971 0441 3E0C0000 		.4byte	.LASF81
 5972 0445 09       		.byte	0x9
 5973 0446 B301     		.2byte	0x1b3
 5974 0448 62010000 		.4byte	0x162
 5975 044c 08       		.byte	0x8
 5976 044d 09       		.uleb128 0x9
 5977 044e 3F050000 		.4byte	.LASF82
 5978 0452 09       		.byte	0x9
 5979 0453 B901     		.2byte	0x1b9
 5980 0455 04060000 		.4byte	0x604
 5981 0459 0C       		.byte	0xc
 5982 045a 00       		.byte	0
 5983 045b 03       		.uleb128 0x3
 5984 045c D7100000 		.4byte	.LASF83
 5985 0460 08       		.byte	0x8
 5986 0461 70       		.byte	0x70
 5987 0462 66040000 		.4byte	0x466
ARM GAS  C:\Users\jo\AppData\Local\Temp\cc6wN9Ut.s 			page 108


 5988 0466 0F       		.uleb128 0xf
 5989 0467 270D0000 		.4byte	.LASF84
 5990 046b 7005     		.2byte	0x570
 5991 046d 09       		.byte	0x9
 5992 046e C201     		.2byte	0x1c2
 5993 0470 C5040000 		.4byte	0x4c5
 5994 0474 09       		.uleb128 0x9
 5995 0475 9B0D0000 		.4byte	.LASF85
 5996 0479 09       		.byte	0x9
 5997 047a C601     		.2byte	0x1c6
 5998 047c E1020000 		.4byte	0x2e1
 5999 0480 00       		.byte	0
 6000 0481 09       		.uleb128 0x9
 6001 0482 18030000 		.4byte	.LASF86
 6002 0486 09       		.byte	0x9
 6003 0487 CA01     		.2byte	0x1ca
 6004 0489 C0030000 		.4byte	0x3c0
 6005 048d 1C       		.byte	0x1c
 6006 048e 08       		.uleb128 0x8
 6007 048f 64626700 		.ascii	"dbg\000"
 6008 0493 09       		.byte	0x9
 6009 0494 CE01     		.2byte	0x1ce
 6010 0496 0D040000 		.4byte	0x40d
 6011 049a 2C       		.byte	0x2c
 6012 049b 10       		.uleb128 0x10
 6013 049c 970B0000 		.4byte	.LASF87
 6014 04a0 09       		.byte	0x9
 6015 04a1 D201     		.2byte	0x1d2
 6016 04a3 78010000 		.4byte	0x178
 6017 04a7 4004     		.2byte	0x440
 6018 04a9 11       		.uleb128 0x11
 6019 04aa 746D00   		.ascii	"tm\000"
 6020 04ad 09       		.byte	0x9
 6021 04ae D701     		.2byte	0x1d7
 6022 04b0 24060000 		.4byte	0x624
 6023 04b4 8804     		.2byte	0x488
 6024 04b6 10       		.uleb128 0x10
 6025 04b7 EA0E0000 		.4byte	.LASF88
 6026 04bb 09       		.byte	0x9
 6027 04bc E301     		.2byte	0x1e3
 6028 04be 17070000 		.4byte	0x717
 6029 04c2 9004     		.2byte	0x490
 6030 04c4 00       		.byte	0
 6031 04c5 04       		.uleb128 0x4
 6032 04c6 04       		.byte	0x4
 6033 04c7 07       		.byte	0x7
 6034 04c8 690A0000 		.4byte	.LASF89
 6035 04cc 03       		.uleb128 0x3
 6036 04cd 6C000000 		.4byte	.LASF90
 6037 04d1 0A       		.byte	0xa
 6038 04d2 65       		.byte	0x65
 6039 04d3 64030000 		.4byte	0x364
 6040 04d7 03       		.uleb128 0x3
 6041 04d8 BD110000 		.4byte	.LASF91
 6042 04dc 0A       		.byte	0xa
 6043 04dd 6D       		.byte	0x6d
 6044 04de 05010000 		.4byte	0x105
ARM GAS  C:\Users\jo\AppData\Local\Temp\cc6wN9Ut.s 			page 109


 6045 04e2 06       		.uleb128 0x6
 6046 04e3 010A0000 		.4byte	.LASF92
 6047 04e7 04       		.byte	0x4
 6048 04e8 0A       		.byte	0xa
 6049 04e9 89       		.byte	0x89
 6050 04ea FB040000 		.4byte	0x4fb
 6051 04ee 12       		.uleb128 0x12
 6052 04ef 72313300 		.ascii	"r13\000"
 6053 04f3 0A       		.byte	0xa
 6054 04f4 8A       		.byte	0x8a
 6055 04f5 76050000 		.4byte	0x576
 6056 04f9 00       		.byte	0
 6057 04fa 00       		.byte	0
 6058 04fb 06       		.uleb128 0x6
 6059 04fc E70C0000 		.4byte	.LASF93
 6060 0500 24       		.byte	0x24
 6061 0501 0B       		.byte	0xb
 6062 0502 F4       		.byte	0xf4
 6063 0503 76050000 		.4byte	0x576
 6064 0507 08       		.uleb128 0x8
 6065 0508 723400   		.ascii	"r4\000"
 6066 050b 0B       		.byte	0xb
 6067 050c 0701     		.2byte	0x107
 6068 050e CC040000 		.4byte	0x4cc
 6069 0512 00       		.byte	0
 6070 0513 08       		.uleb128 0x8
 6071 0514 723500   		.ascii	"r5\000"
 6072 0517 0B       		.byte	0xb
 6073 0518 0801     		.2byte	0x108
 6074 051a CC040000 		.4byte	0x4cc
 6075 051e 04       		.byte	0x4
 6076 051f 08       		.uleb128 0x8
 6077 0520 723600   		.ascii	"r6\000"
 6078 0523 0B       		.byte	0xb
 6079 0524 0901     		.2byte	0x109
 6080 0526 CC040000 		.4byte	0x4cc
 6081 052a 08       		.byte	0x8
 6082 052b 08       		.uleb128 0x8
 6083 052c 723700   		.ascii	"r7\000"
 6084 052f 0B       		.byte	0xb
 6085 0530 0A01     		.2byte	0x10a
 6086 0532 CC040000 		.4byte	0x4cc
 6087 0536 0C       		.byte	0xc
 6088 0537 08       		.uleb128 0x8
 6089 0538 723800   		.ascii	"r8\000"
 6090 053b 0B       		.byte	0xb
 6091 053c 0B01     		.2byte	0x10b
 6092 053e CC040000 		.4byte	0x4cc
 6093 0542 10       		.byte	0x10
 6094 0543 08       		.uleb128 0x8
 6095 0544 723900   		.ascii	"r9\000"
 6096 0547 0B       		.byte	0xb
 6097 0548 0C01     		.2byte	0x10c
 6098 054a CC040000 		.4byte	0x4cc
 6099 054e 14       		.byte	0x14
 6100 054f 08       		.uleb128 0x8
 6101 0550 72313000 		.ascii	"r10\000"
ARM GAS  C:\Users\jo\AppData\Local\Temp\cc6wN9Ut.s 			page 110


 6102 0554 0B       		.byte	0xb
 6103 0555 0D01     		.2byte	0x10d
 6104 0557 CC040000 		.4byte	0x4cc
 6105 055b 18       		.byte	0x18
 6106 055c 08       		.uleb128 0x8
 6107 055d 72313100 		.ascii	"r11\000"
 6108 0561 0B       		.byte	0xb
 6109 0562 0E01     		.2byte	0x10e
 6110 0564 CC040000 		.4byte	0x4cc
 6111 0568 1C       		.byte	0x1c
 6112 0569 08       		.uleb128 0x8
 6113 056a 6C7200   		.ascii	"lr\000"
 6114 056d 0B       		.byte	0xb
 6115 056e 0F01     		.2byte	0x10f
 6116 0570 CC040000 		.4byte	0x4cc
 6117 0574 20       		.byte	0x20
 6118 0575 00       		.byte	0
 6119 0576 0A       		.uleb128 0xa
 6120 0577 04       		.byte	0x4
 6121 0578 FB040000 		.4byte	0x4fb
 6122 057c 13       		.uleb128 0x13
 6123 057d 10       		.byte	0x10
 6124 057e 0C       		.byte	0xc
 6125 057f 51       		.byte	0x51
 6126 0580 B5050000 		.4byte	0x5b5
 6127 0584 07       		.uleb128 0x7
 6128 0585 1F060000 		.4byte	.LASF94
 6129 0589 0C       		.byte	0xc
 6130 058a 55       		.byte	0x55
 6131 058b 6D010000 		.4byte	0x16d
 6132 058f 00       		.byte	0
 6133 0590 07       		.uleb128 0x7
 6134 0591 88080000 		.4byte	.LASF95
 6135 0595 0C       		.byte	0xc
 6136 0596 59       		.byte	0x59
 6137 0597 87020000 		.4byte	0x287
 6138 059b 04       		.byte	0x4
 6139 059c 07       		.uleb128 0x7
 6140 059d 2E050000 		.4byte	.LASF96
 6141 05a1 0C       		.byte	0xc
 6142 05a2 5D       		.byte	0x5d
 6143 05a3 64030000 		.4byte	0x364
 6144 05a7 08       		.byte	0x8
 6145 05a8 07       		.uleb128 0x7
 6146 05a9 EC010000 		.4byte	.LASF97
 6147 05ad 0C       		.byte	0xc
 6148 05ae 61       		.byte	0x61
 6149 05af CE000000 		.4byte	0xce
 6150 05b3 0C       		.byte	0xc
 6151 05b4 00       		.byte	0
 6152 05b5 03       		.uleb128 0x3
 6153 05b6 720F0000 		.4byte	.LASF98
 6154 05ba 0C       		.byte	0xc
 6155 05bb 62       		.byte	0x62
 6156 05bc 7C050000 		.4byte	0x57c
 6157 05c0 14       		.uleb128 0x14
 6158 05c1 0804     		.2byte	0x408
ARM GAS  C:\Users\jo\AppData\Local\Temp\cc6wN9Ut.s 			page 111


 6159 05c3 0C       		.byte	0xc
 6160 05c4 67       		.byte	0x67
 6161 05c5 EE050000 		.4byte	0x5ee
 6162 05c9 07       		.uleb128 0x7
 6163 05ca 68090000 		.4byte	.LASF99
 6164 05ce 0C       		.byte	0xc
 6165 05cf 6B       		.byte	0x6b
 6166 05d0 37000000 		.4byte	0x37
 6167 05d4 00       		.byte	0
 6168 05d5 07       		.uleb128 0x7
 6169 05d6 D80A0000 		.4byte	.LASF100
 6170 05da 0C       		.byte	0xc
 6171 05db 6F       		.byte	0x6f
 6172 05dc EE050000 		.4byte	0x5ee
 6173 05e0 04       		.byte	0x4
 6174 05e1 07       		.uleb128 0x7
 6175 05e2 0F090000 		.4byte	.LASF101
 6176 05e6 0C       		.byte	0xc
 6177 05e7 73       		.byte	0x73
 6178 05e8 F4050000 		.4byte	0x5f4
 6179 05ec 08       		.byte	0x8
 6180 05ed 00       		.byte	0
 6181 05ee 0A       		.uleb128 0xa
 6182 05ef 04       		.byte	0x4
 6183 05f0 B5050000 		.4byte	0x5b5
 6184 05f4 15       		.uleb128 0x15
 6185 05f5 B5050000 		.4byte	0x5b5
 6186 05f9 04060000 		.4byte	0x604
 6187 05fd 16       		.uleb128 0x16
 6188 05fe C5040000 		.4byte	0x4c5
 6189 0602 3F       		.byte	0x3f
 6190 0603 00       		.byte	0
 6191 0604 03       		.uleb128 0x3
 6192 0605 23110000 		.4byte	.LASF102
 6193 0609 0C       		.byte	0xc
 6194 060a 74       		.byte	0x74
 6195 060b C0050000 		.4byte	0x5c0
 6196 060f 13       		.uleb128 0x13
 6197 0610 04       		.byte	0x4
 6198 0611 0D       		.byte	0xd
 6199 0612 38       		.byte	0x38
 6200 0613 24060000 		.4byte	0x624
 6201 0617 07       		.uleb128 0x7
 6202 0618 9C060000 		.4byte	.LASF103
 6203 061c 0D       		.byte	0xd
 6204 061d 3C       		.byte	0x3c
 6205 061e 15010000 		.4byte	0x115
 6206 0622 00       		.byte	0
 6207 0623 00       		.byte	0
 6208 0624 03       		.uleb128 0x3
 6209 0625 30000000 		.4byte	.LASF104
 6210 0629 0D       		.byte	0xd
 6211 062a 3D       		.byte	0x3d
 6212 062b 0F060000 		.4byte	0x60f
 6213 062f 17       		.uleb128 0x17
 6214 0630 04       		.byte	0x4
 6215 0631 09       		.byte	0x9
ARM GAS  C:\Users\jo\AppData\Local\Temp\cc6wN9Ut.s 			page 112


 6216 0632 FA       		.byte	0xfa
 6217 0633 8C060000 		.4byte	0x68c
 6218 0637 18       		.uleb128 0x18
 6219 0638 81060000 		.4byte	.LASF105
 6220 063c 09       		.byte	0x9
 6221 063d 0101     		.2byte	0x101
 6222 063f 4C010000 		.4byte	0x14c
 6223 0643 18       		.uleb128 0x18
 6224 0644 D4120000 		.4byte	.LASF106
 6225 0648 09       		.byte	0x9
 6226 0649 0801     		.2byte	0x108
 6227 064b 4C010000 		.4byte	0x14c
 6228 064f 18       		.uleb128 0x18
 6229 0650 17040000 		.4byte	.LASF107
 6230 0654 09       		.byte	0x9
 6231 0655 0F01     		.2byte	0x10f
 6232 0657 64030000 		.4byte	0x364
 6233 065b 18       		.uleb128 0x18
 6234 065c FF100000 		.4byte	.LASF108
 6235 0660 09       		.byte	0x9
 6236 0661 1601     		.2byte	0x116
 6237 0663 8C060000 		.4byte	0x68c
 6238 0667 18       		.uleb128 0x18
 6239 0668 2C0F0000 		.4byte	.LASF109
 6240 066c 09       		.byte	0x9
 6241 066d 1E01     		.2byte	0x11e
 6242 066f B7060000 		.4byte	0x6b7
 6243 0673 18       		.uleb128 0x18
 6244 0674 C8120000 		.4byte	.LASF110
 6245 0678 09       		.byte	0x9
 6246 0679 2701     		.2byte	0x127
 6247 067b EE060000 		.4byte	0x6ee
 6248 067f 18       		.uleb128 0x18
 6249 0680 82030000 		.4byte	.LASF111
 6250 0684 09       		.byte	0x9
 6251 0685 2F01     		.2byte	0x12f
 6252 0687 57010000 		.4byte	0x157
 6253 068b 00       		.byte	0
 6254 068c 0A       		.uleb128 0xa
 6255 068d 04       		.byte	0x4
 6256 068e 7C020000 		.4byte	0x27c
 6257 0692 06       		.uleb128 0x6
 6258 0693 B0040000 		.4byte	.LASF112
 6259 0697 0C       		.byte	0xc
 6260 0698 0E       		.byte	0xe
 6261 0699 34       		.byte	0x34
 6262 069a B7060000 		.4byte	0x6b7
 6263 069e 07       		.uleb128 0x7
 6264 069f C9010000 		.4byte	.LASF113
 6265 06a3 0E       		.byte	0xe
 6266 06a4 35       		.byte	0x35
 6267 06a5 B1020000 		.4byte	0x2b1
 6268 06a9 00       		.byte	0
 6269 06aa 07       		.uleb128 0x7
 6270 06ab 1E040000 		.4byte	.LASF114
 6271 06af 0E       		.byte	0xe
 6272 06b0 37       		.byte	0x37
ARM GAS  C:\Users\jo\AppData\Local\Temp\cc6wN9Ut.s 			page 113


 6273 06b1 62010000 		.4byte	0x162
 6274 06b5 08       		.byte	0x8
 6275 06b6 00       		.byte	0
 6276 06b7 0A       		.uleb128 0xa
 6277 06b8 04       		.byte	0x4
 6278 06b9 92060000 		.4byte	0x692
 6279 06bd 06       		.uleb128 0x6
 6280 06be 1F0B0000 		.4byte	.LASF115
 6281 06c2 10       		.byte	0x10
 6282 06c3 0F       		.byte	0xf
 6283 06c4 39       		.byte	0x39
 6284 06c5 EE060000 		.4byte	0x6ee
 6285 06c9 07       		.uleb128 0x7
 6286 06ca D60C0000 		.4byte	.LASF116
 6287 06ce 0F       		.byte	0xf
 6288 06cf 3A       		.byte	0x3a
 6289 06d0 B1020000 		.4byte	0x2b1
 6290 06d4 00       		.byte	0
 6291 06d5 07       		.uleb128 0x7
 6292 06d6 C1010000 		.4byte	.LASF117
 6293 06da 0F       		.byte	0xf
 6294 06db 3C       		.byte	0x3c
 6295 06dc 87020000 		.4byte	0x287
 6296 06e0 08       		.byte	0x8
 6297 06e1 07       		.uleb128 0x7
 6298 06e2 35110000 		.4byte	.LASF118
 6299 06e6 0F       		.byte	0xf
 6300 06e7 3E       		.byte	0x3e
 6301 06e8 3D070000 		.4byte	0x73d
 6302 06ec 0C       		.byte	0xc
 6303 06ed 00       		.byte	0
 6304 06ee 0A       		.uleb128 0xa
 6305 06ef 04       		.byte	0x4
 6306 06f0 BD060000 		.4byte	0x6bd
 6307 06f4 0A       		.uleb128 0xa
 6308 06f5 04       		.byte	0x4
 6309 06f6 FA060000 		.4byte	0x6fa
 6310 06fa 19       		.uleb128 0x19
 6311 06fb FF060000 		.4byte	0x6ff
 6312 06ff 04       		.uleb128 0x4
 6313 0700 01       		.byte	0x1
 6314 0701 08       		.byte	0x8
 6315 0702 5D000000 		.4byte	.LASF119
 6316 0706 0A       		.uleb128 0xa
 6317 0707 04       		.byte	0x4
 6318 0708 D7040000 		.4byte	0x4d7
 6319 070c 0A       		.uleb128 0xa
 6320 070d 04       		.byte	0x4
 6321 070e 66030000 		.4byte	0x366
 6322 0712 05       		.uleb128 0x5
 6323 0713 F4060000 		.4byte	0x6f4
 6324 0717 15       		.uleb128 0x15
 6325 0718 D7040000 		.4byte	0x4d7
 6326 071c 27070000 		.4byte	0x727
 6327 0720 16       		.uleb128 0x16
 6328 0721 C5040000 		.4byte	0x4c5
 6329 0725 1B       		.byte	0x1b
ARM GAS  C:\Users\jo\AppData\Local\Temp\cc6wN9Ut.s 			page 114


 6330 0726 00       		.byte	0
 6331 0727 03       		.uleb128 0x3
 6332 0728 29080000 		.4byte	.LASF120
 6333 072c 0E       		.byte	0xe
 6334 072d 38       		.byte	0x38
 6335 072e 92060000 		.4byte	0x692
 6336 0732 03       		.uleb128 0x3
 6337 0733 890F0000 		.4byte	.LASF121
 6338 0737 0F       		.byte	0xf
 6339 0738 34       		.byte	0x34
 6340 0739 BD060000 		.4byte	0x6bd
 6341 073d 0A       		.uleb128 0xa
 6342 073e 04       		.byte	0x4
 6343 073f 32070000 		.4byte	0x732
 6344 0743 13       		.uleb128 0x13
 6345 0744 28       		.byte	0x28
 6346 0745 10       		.byte	0x10
 6347 0746 38       		.byte	0x38
 6348 0747 94070000 		.4byte	0x794
 6349 074b 07       		.uleb128 0x7
 6350 074c D7080000 		.4byte	.LASF122
 6351 0750 10       		.byte	0x10
 6352 0751 39       		.byte	0x39
 6353 0752 94070000 		.4byte	0x794
 6354 0756 00       		.byte	0
 6355 0757 07       		.uleb128 0x7
 6356 0758 D10A0000 		.4byte	.LASF123
 6357 075c 10       		.byte	0x10
 6358 075d 3B       		.byte	0x3b
 6359 075e 94070000 		.4byte	0x794
 6360 0762 04       		.byte	0x4
 6361 0763 07       		.uleb128 0x7
 6362 0764 35090000 		.4byte	.LASF124
 6363 0768 10       		.byte	0x10
 6364 0769 3D       		.byte	0x3d
 6365 076a 94070000 		.4byte	0x794
 6366 076e 08       		.byte	0x8
 6367 076f 07       		.uleb128 0x7
 6368 0770 EB060000 		.4byte	.LASF125
 6369 0774 10       		.byte	0x10
 6370 0775 3E       		.byte	0x3e
 6371 0776 94070000 		.4byte	0x794
 6372 077a 0C       		.byte	0xc
 6373 077b 07       		.uleb128 0x7
 6374 077c 04090000 		.4byte	.LASF126
 6375 0780 10       		.byte	0x10
 6376 0781 3F       		.byte	0x3f
 6377 0782 27070000 		.4byte	0x727
 6378 0786 10       		.byte	0x10
 6379 0787 07       		.uleb128 0x7
 6380 0788 71070000 		.4byte	.LASF127
 6381 078c 10       		.byte	0x10
 6382 078d 41       		.byte	0x41
 6383 078e 27070000 		.4byte	0x727
 6384 0792 1C       		.byte	0x1c
 6385 0793 00       		.byte	0
 6386 0794 0A       		.uleb128 0xa
ARM GAS  C:\Users\jo\AppData\Local\Temp\cc6wN9Ut.s 			page 115


 6387 0795 04       		.byte	0x4
 6388 0796 4C010000 		.4byte	0x14c
 6389 079a 03       		.uleb128 0x3
 6390 079b F9060000 		.4byte	.LASF128
 6391 079f 10       		.byte	0x10
 6392 07a0 43       		.byte	0x43
 6393 07a1 43070000 		.4byte	0x743
 6394 07a5 0A       		.uleb128 0xa
 6395 07a6 04       		.byte	0x4
 6396 07a7 CE000000 		.4byte	0xce
 6397 07ab 06       		.uleb128 0x6
 6398 07ac 90020000 		.4byte	.LASF129
 6399 07b0 10       		.byte	0x10
 6400 07b1 11       		.byte	0x11
 6401 07b2 40       		.byte	0x40
 6402 07b3 E8070000 		.4byte	0x7e8
 6403 07b7 07       		.uleb128 0x7
 6404 07b8 E9110000 		.4byte	.LASF130
 6405 07bc 11       		.byte	0x11
 6406 07bd 41       		.byte	0x41
 6407 07be 0C080000 		.4byte	0x80c
 6408 07c2 00       		.byte	0
 6409 07c3 07       		.uleb128 0x7
 6410 07c4 100E0000 		.4byte	.LASF131
 6411 07c8 11       		.byte	0x11
 6412 07c9 41       		.byte	0x41
 6413 07ca 2B080000 		.4byte	0x82b
 6414 07ce 04       		.byte	0x4
 6415 07cf 12       		.uleb128 0x12
 6416 07d0 70757400 		.ascii	"put\000"
 6417 07d4 11       		.byte	0x11
 6418 07d5 41       		.byte	0x41
 6419 07d6 45080000 		.4byte	0x845
 6420 07da 08       		.byte	0x8
 6421 07db 12       		.uleb128 0x12
 6422 07dc 67657400 		.ascii	"get\000"
 6423 07e0 11       		.byte	0x11
 6424 07e1 41       		.byte	0x41
 6425 07e2 5A080000 		.4byte	0x85a
 6426 07e6 0C       		.byte	0xc
 6427 07e7 00       		.byte	0
 6428 07e8 1A       		.uleb128 0x1a
 6429 07e9 2C000000 		.4byte	0x2c
 6430 07ed 01080000 		.4byte	0x801
 6431 07f1 0D       		.uleb128 0xd
 6432 07f2 64030000 		.4byte	0x364
 6433 07f6 0D       		.uleb128 0xd
 6434 07f7 01080000 		.4byte	0x801
 6435 07fb 0D       		.uleb128 0xd
 6436 07fc 2C000000 		.4byte	0x2c
 6437 0800 00       		.byte	0
 6438 0801 0A       		.uleb128 0xa
 6439 0802 04       		.byte	0x4
 6440 0803 07080000 		.4byte	0x807
 6441 0807 19       		.uleb128 0x19
 6442 0808 CE000000 		.4byte	0xce
 6443 080c 0A       		.uleb128 0xa
ARM GAS  C:\Users\jo\AppData\Local\Temp\cc6wN9Ut.s 			page 116


 6444 080d 04       		.byte	0x4
 6445 080e E8070000 		.4byte	0x7e8
 6446 0812 1A       		.uleb128 0x1a
 6447 0813 2C000000 		.4byte	0x2c
 6448 0817 2B080000 		.4byte	0x82b
 6449 081b 0D       		.uleb128 0xd
 6450 081c 64030000 		.4byte	0x364
 6451 0820 0D       		.uleb128 0xd
 6452 0821 A5070000 		.4byte	0x7a5
 6453 0825 0D       		.uleb128 0xd
 6454 0826 2C000000 		.4byte	0x2c
 6455 082a 00       		.byte	0
 6456 082b 0A       		.uleb128 0xa
 6457 082c 04       		.byte	0x4
 6458 082d 12080000 		.4byte	0x812
 6459 0831 1A       		.uleb128 0x1a
 6460 0832 4C010000 		.4byte	0x14c
 6461 0836 45080000 		.4byte	0x845
 6462 083a 0D       		.uleb128 0xd
 6463 083b 64030000 		.4byte	0x364
 6464 083f 0D       		.uleb128 0xd
 6465 0840 CE000000 		.4byte	0xce
 6466 0844 00       		.byte	0
 6467 0845 0A       		.uleb128 0xa
 6468 0846 04       		.byte	0x4
 6469 0847 31080000 		.4byte	0x831
 6470 084b 1A       		.uleb128 0x1a
 6471 084c 4C010000 		.4byte	0x14c
 6472 0850 5A080000 		.4byte	0x85a
 6473 0854 0D       		.uleb128 0xd
 6474 0855 64030000 		.4byte	0x364
 6475 0859 00       		.byte	0
 6476 085a 0A       		.uleb128 0xa
 6477 085b 04       		.byte	0x4
 6478 085c 4B080000 		.4byte	0x84b
 6479 0860 13       		.uleb128 0x13
 6480 0861 04       		.byte	0x4
 6481 0862 11       		.byte	0x11
 6482 0863 49       		.byte	0x49
 6483 0864 75080000 		.4byte	0x875
 6484 0868 12       		.uleb128 0x12
 6485 0869 766D7400 		.ascii	"vmt\000"
 6486 086d 11       		.byte	0x11
 6487 086e 4B       		.byte	0x4b
 6488 086f 75080000 		.4byte	0x875
 6489 0873 00       		.byte	0
 6490 0874 00       		.byte	0
 6491 0875 0A       		.uleb128 0xa
 6492 0876 04       		.byte	0x4
 6493 0877 7B080000 		.4byte	0x87b
 6494 087b 19       		.uleb128 0x19
 6495 087c AB070000 		.4byte	0x7ab
 6496 0880 03       		.uleb128 0x3
 6497 0881 C8070000 		.4byte	.LASF132
 6498 0885 11       		.byte	0x11
 6499 0886 4D       		.byte	0x4d
 6500 0887 60080000 		.4byte	0x860
ARM GAS  C:\Users\jo\AppData\Local\Temp\cc6wN9Ut.s 			page 117


 6501 088b 04       		.uleb128 0x4
 6502 088c 01       		.byte	0x1
 6503 088d 02       		.byte	0x2
 6504 088e E5060000 		.4byte	.LASF133
 6505 0892 0A       		.uleb128 0xa
 6506 0893 04       		.byte	0x4
 6507 0894 FF060000 		.4byte	0x6ff
 6508 0898 15       		.uleb128 0x15
 6509 0899 FF060000 		.4byte	0x6ff
 6510 089d A8080000 		.4byte	0x8a8
 6511 08a1 16       		.uleb128 0x16
 6512 08a2 C5040000 		.4byte	0x4c5
 6513 08a6 07       		.byte	0x7
 6514 08a7 00       		.byte	0
 6515 08a8 03       		.uleb128 0x3
 6516 08a9 3A0E0000 		.4byte	.LASF134
 6517 08ad 12       		.byte	0x12
 6518 08ae F4       		.byte	0xf4
 6519 08af 91000000 		.4byte	0x91
 6520 08b3 06       		.uleb128 0x6
 6521 08b4 CD060000 		.4byte	.LASF135
 6522 08b8 08       		.byte	0x8
 6523 08b9 12       		.byte	0x12
 6524 08ba FC       		.byte	0xfc
 6525 08bb CC080000 		.4byte	0x8cc
 6526 08bf 07       		.uleb128 0x7
 6527 08c0 D5040000 		.4byte	.LASF136
 6528 08c4 12       		.byte	0x12
 6529 08c5 FD       		.byte	0xfd
 6530 08c6 CC080000 		.4byte	0x8cc
 6531 08ca 00       		.byte	0
 6532 08cb 00       		.byte	0
 6533 08cc 15       		.uleb128 0x15
 6534 08cd A8080000 		.4byte	0x8a8
 6535 08d1 DC080000 		.4byte	0x8dc
 6536 08d5 16       		.uleb128 0x16
 6537 08d6 C5040000 		.4byte	0x4c5
 6538 08da 01       		.byte	0x1
 6539 08db 00       		.byte	0
 6540 08dc 03       		.uleb128 0x3
 6541 08dd CD060000 		.4byte	.LASF135
 6542 08e1 12       		.byte	0x12
 6543 08e2 FE       		.byte	0xfe
 6544 08e3 B3080000 		.4byte	0x8b3
 6545 08e7 06       		.uleb128 0x6
 6546 08e8 8C0A0000 		.4byte	.LASF137
 6547 08ec 10       		.byte	0x10
 6548 08ed 13       		.byte	0x13
 6549 08ee 2E       		.byte	0x2e
 6550 08ef 24090000 		.4byte	0x924
 6551 08f3 07       		.uleb128 0x7
 6552 08f4 E9110000 		.4byte	.LASF130
 6553 08f8 13       		.byte	0x13
 6554 08f9 2F       		.byte	0x2f
 6555 08fa 0C080000 		.4byte	0x80c
 6556 08fe 00       		.byte	0
 6557 08ff 07       		.uleb128 0x7
ARM GAS  C:\Users\jo\AppData\Local\Temp\cc6wN9Ut.s 			page 118


 6558 0900 100E0000 		.4byte	.LASF131
 6559 0904 13       		.byte	0x13
 6560 0905 2F       		.byte	0x2f
 6561 0906 2B080000 		.4byte	0x82b
 6562 090a 04       		.byte	0x4
 6563 090b 12       		.uleb128 0x12
 6564 090c 70757400 		.ascii	"put\000"
 6565 0910 13       		.byte	0x13
 6566 0911 2F       		.byte	0x2f
 6567 0912 45080000 		.4byte	0x845
 6568 0916 08       		.byte	0x8
 6569 0917 12       		.uleb128 0x12
 6570 0918 67657400 		.ascii	"get\000"
 6571 091c 13       		.byte	0x13
 6572 091d 2F       		.byte	0x2f
 6573 091e 5A080000 		.4byte	0x85a
 6574 0922 0C       		.byte	0xc
 6575 0923 00       		.byte	0
 6576 0924 13       		.uleb128 0x13
 6577 0925 04       		.byte	0x4
 6578 0926 13       		.byte	0x13
 6579 0927 39       		.byte	0x39
 6580 0928 39090000 		.4byte	0x939
 6581 092c 12       		.uleb128 0x12
 6582 092d 766D7400 		.ascii	"vmt\000"
 6583 0931 13       		.byte	0x13
 6584 0932 3B       		.byte	0x3b
 6585 0933 39090000 		.4byte	0x939
 6586 0937 00       		.byte	0
 6587 0938 00       		.byte	0
 6588 0939 0A       		.uleb128 0xa
 6589 093a 04       		.byte	0x4
 6590 093b 3F090000 		.4byte	0x93f
 6591 093f 19       		.uleb128 0x19
 6592 0940 E7080000 		.4byte	0x8e7
 6593 0944 03       		.uleb128 0x3
 6594 0945 3C0B0000 		.4byte	.LASF138
 6595 0949 13       		.byte	0x13
 6596 094a 3D       		.byte	0x3d
 6597 094b 24090000 		.4byte	0x924
 6598 094f 03       		.uleb128 0x3
 6599 0950 4C060000 		.4byte	.LASF139
 6600 0954 14       		.byte	0x14
 6601 0955 28       		.byte	0x28
 6602 0956 5A090000 		.4byte	0x95a
 6603 095a 06       		.uleb128 0x6
 6604 095b 14110000 		.4byte	.LASF140
 6605 095f 04       		.byte	0x4
 6606 0960 15       		.byte	0x15
 6607 0961 00       		.byte	0
 6608 0962 71090000 		.4byte	0x971
 6609 0966 1B       		.uleb128 0x1b
 6610 0967 3F0A0000 		.4byte	.LASF141
 6611 096b 64030000 		.4byte	0x364
 6612 096f 00       		.byte	0
 6613 0970 00       		.byte	0
 6614 0971 03       		.uleb128 0x3
ARM GAS  C:\Users\jo\AppData\Local\Temp\cc6wN9Ut.s 			page 119


 6615 0972 84090000 		.4byte	.LASF142
 6616 0976 14       		.byte	0x14
 6617 0977 62       		.byte	0x62
 6618 0978 4F090000 		.4byte	0x94f
 6619 097c 03       		.uleb128 0x3
 6620 097d 160A0000 		.4byte	.LASF143
 6621 0981 16       		.byte	0x16
 6622 0982 3F       		.byte	0x3f
 6623 0983 CE000000 		.4byte	0xce
 6624 0987 03       		.uleb128 0x3
 6625 0988 DD070000 		.4byte	.LASF144
 6626 098c 16       		.byte	0x16
 6627 098d 40       		.byte	0x40
 6628 098e C3000000 		.4byte	0xc3
 6629 0992 03       		.uleb128 0x3
 6630 0993 B5020000 		.4byte	.LASF145
 6631 0997 16       		.byte	0x16
 6632 0998 41       		.byte	0x41
 6633 0999 E4000000 		.4byte	0xe4
 6634 099d 03       		.uleb128 0x3
 6635 099e 6D0B0000 		.4byte	.LASF146
 6636 09a2 16       		.byte	0x16
 6637 09a3 42       		.byte	0x42
 6638 09a4 D9000000 		.4byte	0xd9
 6639 09a8 03       		.uleb128 0x3
 6640 09a9 980C0000 		.4byte	.LASF147
 6641 09ad 16       		.byte	0x16
 6642 09ae 43       		.byte	0x43
 6643 09af FA000000 		.4byte	0xfa
 6644 09b3 03       		.uleb128 0x3
 6645 09b4 6B070000 		.4byte	.LASF148
 6646 09b8 16       		.byte	0x16
 6647 09b9 44       		.byte	0x44
 6648 09ba EF000000 		.4byte	0xef
 6649 09be 03       		.uleb128 0x3
 6650 09bf C70A0000 		.4byte	.LASF149
 6651 09c3 16       		.byte	0x16
 6652 09c4 46       		.byte	0x46
 6653 09c5 FA000000 		.4byte	0xfa
 6654 09c9 06       		.uleb128 0x6
 6655 09ca F1120000 		.4byte	.LASF150
 6656 09ce 04       		.byte	0x4
 6657 09cf 17       		.byte	0x17
 6658 09d0 2C       		.byte	0x2c
 6659 09d1 E2090000 		.4byte	0x9e2
 6660 09d5 07       		.uleb128 0x7
 6661 09d6 90100000 		.4byte	.LASF151
 6662 09da 17       		.byte	0x17
 6663 09db 2D       		.byte	0x2d
 6664 09dc A8090000 		.4byte	0x9a8
 6665 09e0 00       		.byte	0
 6666 09e1 00       		.byte	0
 6667 09e2 03       		.uleb128 0x3
 6668 09e3 330F0000 		.4byte	.LASF152
 6669 09e7 17       		.byte	0x17
 6670 09e8 40       		.byte	0x40
 6671 09e9 C9090000 		.4byte	0x9c9
ARM GAS  C:\Users\jo\AppData\Local\Temp\cc6wN9Ut.s 			page 120


 6672 09ed 06       		.uleb128 0x6
 6673 09ee 810F0000 		.4byte	.LASF153
 6674 09f2 04       		.byte	0x4
 6675 09f3 18       		.byte	0x18
 6676 09f4 2C       		.byte	0x2c
 6677 09f5 060A0000 		.4byte	0xa06
 6678 09f9 07       		.uleb128 0x7
 6679 09fa 64060000 		.4byte	.LASF154
 6680 09fe 18       		.byte	0x18
 6681 09ff 2D       		.byte	0x2d
 6682 0a00 A8090000 		.4byte	0x9a8
 6683 0a04 00       		.byte	0
 6684 0a05 00       		.byte	0
 6685 0a06 06       		.uleb128 0x6
 6686 0a07 E20D0000 		.4byte	.LASF155
 6687 0a0b 10       		.byte	0x10
 6688 0a0c 19       		.byte	0x19
 6689 0a0d 33       		.byte	0x33
 6690 0a0e 4F0A0000 		.4byte	0xa4f
 6691 0a12 07       		.uleb128 0x7
 6692 0a13 C5040000 		.4byte	.LASF156
 6693 0a17 19       		.byte	0x19
 6694 0a18 34       		.byte	0x34
 6695 0a19 7C090000 		.4byte	0x97c
 6696 0a1d 00       		.byte	0
 6697 0a1e 07       		.uleb128 0x7
 6698 0a1f 6A050000 		.4byte	.LASF157
 6699 0a23 19       		.byte	0x19
 6700 0a24 35       		.byte	0x35
 6701 0a25 7C090000 		.4byte	0x97c
 6702 0a29 01       		.byte	0x1
 6703 0a2a 07       		.uleb128 0x7
 6704 0a2b DE090000 		.4byte	.LASF158
 6705 0a2f 19       		.byte	0x19
 6706 0a30 36       		.byte	0x36
 6707 0a31 92090000 		.4byte	0x992
 6708 0a35 02       		.byte	0x2
 6709 0a36 07       		.uleb128 0x7
 6710 0a37 FB0A0000 		.4byte	.LASF159
 6711 0a3b 19       		.byte	0x19
 6712 0a3c 37       		.byte	0x37
 6713 0a3d ED090000 		.4byte	0x9ed
 6714 0a41 04       		.byte	0x4
 6715 0a42 07       		.uleb128 0x7
 6716 0a43 27060000 		.4byte	.LASF160
 6717 0a47 19       		.byte	0x19
 6718 0a48 38       		.byte	0x38
 6719 0a49 98080000 		.4byte	0x898
 6720 0a4d 08       		.byte	0x8
 6721 0a4e 00       		.byte	0
 6722 0a4f 06       		.uleb128 0x6
 6723 0a50 B8010000 		.4byte	.LASF161
 6724 0a54 10       		.byte	0x10
 6725 0a55 19       		.byte	0x19
 6726 0a56 3B       		.byte	0x3b
 6727 0a57 800A0000 		.4byte	0xa80
 6728 0a5b 07       		.uleb128 0x7
ARM GAS  C:\Users\jo\AppData\Local\Temp\cc6wN9Ut.s 			page 121


 6729 0a5c 200D0000 		.4byte	.LASF162
 6730 0a60 19       		.byte	0x19
 6731 0a61 3C       		.byte	0x3c
 6732 0a62 7C090000 		.4byte	0x97c
 6733 0a66 00       		.byte	0
 6734 0a67 07       		.uleb128 0x7
 6735 0a68 8D0E0000 		.4byte	.LASF163
 6736 0a6c 19       		.byte	0x19
 6737 0a6d 3D       		.byte	0x3d
 6738 0a6e 7C090000 		.4byte	0x97c
 6739 0a72 01       		.byte	0x1
 6740 0a73 07       		.uleb128 0x7
 6741 0a74 75010000 		.4byte	.LASF164
 6742 0a78 19       		.byte	0x19
 6743 0a79 3E       		.byte	0x3e
 6744 0a7a 800A0000 		.4byte	0xa80
 6745 0a7e 02       		.byte	0x2
 6746 0a7f 00       		.byte	0
 6747 0a80 15       		.uleb128 0x15
 6748 0a81 FF060000 		.4byte	0x6ff
 6749 0a85 900A0000 		.4byte	0xa90
 6750 0a89 16       		.uleb128 0x16
 6751 0a8a C5040000 		.4byte	0x4c5
 6752 0a8e 0D       		.byte	0xd
 6753 0a8f 00       		.byte	0
 6754 0a90 03       		.uleb128 0x3
 6755 0a91 BE120000 		.4byte	.LASF165
 6756 0a95 19       		.byte	0x19
 6757 0a96 44       		.byte	0x44
 6758 0a97 A8090000 		.4byte	0x9a8
 6759 0a9b 0B       		.uleb128 0xb
 6760 0a9c 03060000 		.4byte	.LASF166
 6761 0aa0 08       		.byte	0x8
 6762 0aa1 19       		.byte	0x19
 6763 0aa2 3901     		.2byte	0x139
 6764 0aa4 C30A0000 		.4byte	0xac3
 6765 0aa8 09       		.uleb128 0x9
 6766 0aa9 85010000 		.4byte	.LASF167
 6767 0aad 19       		.byte	0x19
 6768 0aae 3A01     		.2byte	0x13a
 6769 0ab0 91000000 		.4byte	0x91
 6770 0ab4 00       		.byte	0
 6771 0ab5 09       		.uleb128 0x9
 6772 0ab6 14070000 		.4byte	.LASF168
 6773 0aba 19       		.byte	0x19
 6774 0abb 3B01     		.2byte	0x13b
 6775 0abd 91000000 		.4byte	0x91
 6776 0ac1 04       		.byte	0x4
 6777 0ac2 00       		.byte	0
 6778 0ac3 03       		.uleb128 0x3
 6779 0ac4 68020000 		.4byte	.LASF169
 6780 0ac8 1A       		.byte	0x1a
 6781 0ac9 2F       		.byte	0x2f
 6782 0aca 87090000 		.4byte	0x987
 6783 0ace 06       		.uleb128 0x6
 6784 0acf 2B100000 		.4byte	.LASF170
 6785 0ad3 10       		.byte	0x10
ARM GAS  C:\Users\jo\AppData\Local\Temp\cc6wN9Ut.s 			page 122


 6786 0ad4 1B       		.byte	0x1b
 6787 0ad5 4F       		.byte	0x4f
 6788 0ad6 2F0B0000 		.4byte	0xb2f
 6789 0ada 07       		.uleb128 0x7
 6790 0adb 13020000 		.4byte	.LASF171
 6791 0adf 1B       		.byte	0x1b
 6792 0ae0 51       		.byte	0x51
 6793 0ae1 2F0B0000 		.4byte	0xb2f
 6794 0ae5 00       		.byte	0
 6795 0ae6 07       		.uleb128 0x7
 6796 0ae7 88060000 		.4byte	.LASF172
 6797 0aeb 1B       		.byte	0x1b
 6798 0aec 54       		.byte	0x54
 6799 0aed 64030000 		.4byte	0x364
 6800 0af1 04       		.byte	0x4
 6801 0af2 07       		.uleb128 0x7
 6802 0af3 6B060000 		.4byte	.LASF173
 6803 0af7 1B       		.byte	0x1b
 6804 0af8 5D       		.byte	0x5d
 6805 0af9 92090000 		.4byte	0x992
 6806 0afd 08       		.byte	0x8
 6807 0afe 12       		.uleb128 0x12
 6808 0aff 6C656E00 		.ascii	"len\000"
 6809 0b03 1B       		.byte	0x1b
 6810 0b04 60       		.byte	0x60
 6811 0b05 92090000 		.4byte	0x992
 6812 0b09 0A       		.byte	0xa
 6813 0b0a 07       		.uleb128 0x7
 6814 0b0b 990F0000 		.4byte	.LASF174
 6815 0b0f 1B       		.byte	0x1b
 6816 0b10 63       		.byte	0x63
 6817 0b11 7C090000 		.4byte	0x97c
 6818 0b15 0C       		.byte	0xc
 6819 0b16 07       		.uleb128 0x7
 6820 0b17 9A010000 		.4byte	.LASF175
 6821 0b1b 1B       		.byte	0x1b
 6822 0b1c 66       		.byte	0x66
 6823 0b1d 7C090000 		.4byte	0x97c
 6824 0b21 0D       		.byte	0xd
 6825 0b22 12       		.uleb128 0x12
 6826 0b23 72656600 		.ascii	"ref\000"
 6827 0b27 1B       		.byte	0x1b
 6828 0b28 6D       		.byte	0x6d
 6829 0b29 92090000 		.4byte	0x992
 6830 0b2d 0E       		.byte	0xe
 6831 0b2e 00       		.byte	0
 6832 0b2f 0A       		.uleb128 0xa
 6833 0b30 04       		.byte	0x4
 6834 0b31 CE0A0000 		.4byte	0xace
 6835 0b35 06       		.uleb128 0x6
 6836 0b36 09080000 		.4byte	.LASF176
 6837 0b3a 10       		.byte	0x10
 6838 0b3b 1C       		.byte	0x1c
 6839 0b3c 30       		.byte	0x30
 6840 0b3d 700B0000 		.4byte	0xb70
 6841 0b41 12       		.uleb128 0x12
 6842 0b42 7000     		.ascii	"p\000"
ARM GAS  C:\Users\jo\AppData\Local\Temp\cc6wN9Ut.s 			page 123


 6843 0b44 1C       		.byte	0x1c
 6844 0b45 31       		.byte	0x31
 6845 0b46 2F0B0000 		.4byte	0xb2f
 6846 0b4a 00       		.byte	0
 6847 0b4b 12       		.uleb128 0x12
 6848 0b4c 70747200 		.ascii	"ptr\000"
 6849 0b50 1C       		.byte	0x1c
 6850 0b51 31       		.byte	0x31
 6851 0b52 2F0B0000 		.4byte	0xb2f
 6852 0b56 04       		.byte	0x4
 6853 0b57 07       		.uleb128 0x7
 6854 0b58 90100000 		.4byte	.LASF151
 6855 0b5c 1C       		.byte	0x1c
 6856 0b5d 32       		.byte	0x32
 6857 0b5e E2090000 		.4byte	0x9e2
 6858 0b62 08       		.byte	0x8
 6859 0b63 07       		.uleb128 0x7
 6860 0b64 4B0E0000 		.4byte	.LASF177
 6861 0b68 1C       		.byte	0x1c
 6862 0b69 33       		.byte	0x33
 6863 0b6a 92090000 		.4byte	0x992
 6864 0b6e 0C       		.byte	0xc
 6865 0b6f 00       		.byte	0
 6866 0b70 03       		.uleb128 0x3
 6867 0b71 BA0D0000 		.4byte	.LASF178
 6868 0b75 1D       		.byte	0x1d
 6869 0b76 38       		.byte	0x38
 6870 0b77 7B0B0000 		.4byte	0xb7b
 6871 0b7b 0A       		.uleb128 0xa
 6872 0b7c 04       		.byte	0x4
 6873 0b7d 27070000 		.4byte	0x727
 6874 0b81 03       		.uleb128 0x3
 6875 0b82 790E0000 		.4byte	.LASF179
 6876 0b86 1D       		.byte	0x1d
 6877 0b87 39       		.byte	0x39
 6878 0b88 8C0B0000 		.4byte	0xb8c
 6879 0b8c 0A       		.uleb128 0xa
 6880 0b8d 04       		.byte	0x4
 6881 0b8e 9A070000 		.4byte	0x79a
 6882 0b92 1C       		.uleb128 0x1c
 6883 0b93 7C000000 		.4byte	.LASF186
 6884 0b97 01       		.byte	0x1
 6885 0b98 1E       		.byte	0x1e
 6886 0b99 53       		.byte	0x53
 6887 0b9a C40B0000 		.4byte	0xbc4
 6888 0b9e 1D       		.uleb128 0x1d
 6889 0b9f 4C050000 		.4byte	.LASF180
 6890 0ba3 00       		.sleb128 0
 6891 0ba4 1D       		.uleb128 0x1d
 6892 0ba5 17100000 		.4byte	.LASF181
 6893 0ba9 10       		.sleb128 16
 6894 0baa 1D       		.uleb128 0x1d
 6895 0bab 39060000 		.4byte	.LASF182
 6896 0baf 20       		.sleb128 32
 6897 0bb0 1D       		.uleb128 0x1d
 6898 0bb1 FA110000 		.4byte	.LASF183
 6899 0bb5 21       		.sleb128 33
ARM GAS  C:\Users\jo\AppData\Local\Temp\cc6wN9Ut.s 			page 124


 6900 0bb6 1D       		.uleb128 0x1d
 6901 0bb7 45020000 		.4byte	.LASF184
 6902 0bbb 22       		.sleb128 34
 6903 0bbc 1D       		.uleb128 0x1d
 6904 0bbd B60F0000 		.4byte	.LASF185
 6905 0bc1 C000     		.sleb128 64
 6906 0bc3 00       		.byte	0
 6907 0bc4 1C       		.uleb128 0x1c
 6908 0bc5 F3030000 		.4byte	.LASF187
 6909 0bc9 01       		.byte	0x1
 6910 0bca 1E       		.byte	0x1e
 6911 0bcb 61       		.byte	0x61
 6912 0bcc EF0B0000 		.4byte	0xbef
 6913 0bd0 1D       		.uleb128 0x1d
 6914 0bd1 D50B0000 		.4byte	.LASF188
 6915 0bd5 00       		.sleb128 0
 6916 0bd6 1D       		.uleb128 0x1d
 6917 0bd7 8B120000 		.4byte	.LASF189
 6918 0bdb 01       		.sleb128 1
 6919 0bdc 1D       		.uleb128 0x1d
 6920 0bdd 3F100000 		.4byte	.LASF190
 6921 0be1 02       		.sleb128 2
 6922 0be2 1D       		.uleb128 0x1d
 6923 0be3 150C0000 		.4byte	.LASF191
 6924 0be7 03       		.sleb128 3
 6925 0be8 1D       		.uleb128 0x1d
 6926 0be9 C1080000 		.4byte	.LASF192
 6927 0bed 04       		.sleb128 4
 6928 0bee 00       		.byte	0
 6929 0bef 1C       		.uleb128 0x1c
 6930 0bf0 3D0F0000 		.4byte	.LASF193
 6931 0bf4 01       		.byte	0x1
 6932 0bf5 1E       		.byte	0x1e
 6933 0bf6 6A       		.byte	0x6a
 6934 0bf7 1A0C0000 		.4byte	0xc1a
 6935 0bfb 1D       		.uleb128 0x1d
 6936 0bfc 0B060000 		.4byte	.LASF194
 6937 0c00 00       		.sleb128 0
 6938 0c01 1D       		.uleb128 0x1d
 6939 0c02 AC070000 		.4byte	.LASF195
 6940 0c06 01       		.sleb128 1
 6941 0c07 1D       		.uleb128 0x1d
 6942 0c08 7D070000 		.4byte	.LASF196
 6943 0c0c 02       		.sleb128 2
 6944 0c0d 1D       		.uleb128 0x1d
 6945 0c0e 80050000 		.4byte	.LASF197
 6946 0c12 03       		.sleb128 3
 6947 0c13 1D       		.uleb128 0x1d
 6948 0c14 18020000 		.4byte	.LASF198
 6949 0c18 04       		.sleb128 4
 6950 0c19 00       		.byte	0
 6951 0c1a 03       		.uleb128 0x3
 6952 0c1b 590F0000 		.4byte	.LASF199
 6953 0c1f 1E       		.byte	0x1e
 6954 0c20 83       		.byte	0x83
 6955 0c21 250C0000 		.4byte	0xc25
 6956 0c25 0A       		.uleb128 0xa
ARM GAS  C:\Users\jo\AppData\Local\Temp\cc6wN9Ut.s 			page 125


 6957 0c26 04       		.byte	0x4
 6958 0c27 2B0C0000 		.4byte	0xc2b
 6959 0c2b 0C       		.uleb128 0xc
 6960 0c2c 400C0000 		.4byte	0xc40
 6961 0c30 0D       		.uleb128 0xd
 6962 0c31 400C0000 		.4byte	0xc40
 6963 0c35 0D       		.uleb128 0xd
 6964 0c36 EF0B0000 		.4byte	0xbef
 6965 0c3a 0D       		.uleb128 0xd
 6966 0c3b 92090000 		.4byte	0x992
 6967 0c3f 00       		.byte	0
 6968 0c40 0A       		.uleb128 0xa
 6969 0c41 04       		.byte	0x4
 6970 0c42 460C0000 		.4byte	0xc46
 6971 0c46 06       		.uleb128 0x6
 6972 0c47 83120000 		.4byte	.LASF200
 6973 0c4b 2C       		.byte	0x2c
 6974 0c4c 1E       		.byte	0x1e
 6975 0c4d 86       		.byte	0x86
 6976 0c4e E30C0000 		.4byte	0xce3
 6977 0c52 07       		.uleb128 0x7
 6978 0c53 990F0000 		.4byte	.LASF174
 6979 0c57 1E       		.byte	0x1e
 6980 0c58 88       		.byte	0x88
 6981 0c59 920B0000 		.4byte	0xb92
 6982 0c5d 00       		.byte	0
 6983 0c5e 07       		.uleb128 0x7
 6984 0c5f A3100000 		.4byte	.LASF201
 6985 0c63 1E       		.byte	0x1e
 6986 0c64 8A       		.byte	0x8a
 6987 0c65 C40B0000 		.4byte	0xbc4
 6988 0c69 01       		.byte	0x1
 6989 0c6a 12       		.uleb128 0x12
 6990 0c6b 70636200 		.ascii	"pcb\000"
 6991 0c6f 1E       		.byte	0x1e
 6992 0c70 91       		.byte	0x91
 6993 0c71 E30C0000 		.4byte	0xce3
 6994 0c75 04       		.byte	0x4
 6995 0c76 07       		.uleb128 0x7
 6996 0c77 34070000 		.4byte	.LASF202
 6997 0c7b 1E       		.byte	0x1e
 6998 0c7c 93       		.byte	0x93
 6999 0c7d C30A0000 		.4byte	0xac3
 7000 0c81 08       		.byte	0x8
 7001 0c82 07       		.uleb128 0x7
 7002 0c83 33120000 		.4byte	.LASF203
 7003 0c87 1E       		.byte	0x1e
 7004 0c88 95       		.byte	0x95
 7005 0c89 700B0000 		.4byte	0xb70
 7006 0c8d 0C       		.byte	0xc
 7007 0c8e 07       		.uleb128 0x7
 7008 0c8f D1010000 		.4byte	.LASF204
 7009 0c93 1E       		.byte	0x1e
 7010 0c94 98       		.byte	0x98
 7011 0c95 810B0000 		.4byte	0xb81
 7012 0c99 10       		.byte	0x10
 7013 0c9a 07       		.uleb128 0x7
ARM GAS  C:\Users\jo\AppData\Local\Temp\cc6wN9Ut.s 			page 126


 7014 0c9b 53090000 		.4byte	.LASF205
 7015 0c9f 1E       		.byte	0x1e
 7016 0ca0 9C       		.byte	0x9c
 7017 0ca1 810B0000 		.4byte	0xb81
 7018 0ca5 14       		.byte	0x14
 7019 0ca6 07       		.uleb128 0x7
 7020 0ca7 C40D0000 		.4byte	.LASF206
 7021 0cab 1E       		.byte	0x1e
 7022 0cac A0       		.byte	0xa0
 7023 0cad 25000000 		.4byte	0x25
 7024 0cb1 18       		.byte	0x18
 7025 0cb2 07       		.uleb128 0x7
 7026 0cb3 9A010000 		.4byte	.LASF175
 7027 0cb7 1E       		.byte	0x1e
 7028 0cb8 B6       		.byte	0xb6
 7029 0cb9 7C090000 		.4byte	0x97c
 7030 0cbd 1C       		.byte	0x1c
 7031 0cbe 07       		.uleb128 0x7
 7032 0cbf 83100000 		.4byte	.LASF207
 7033 0cc3 1E       		.byte	0x1e
 7034 0cc4 BA       		.byte	0xba
 7035 0cc5 2C000000 		.4byte	0x2c
 7036 0cc9 20       		.byte	0x20
 7037 0cca 07       		.uleb128 0x7
 7038 0ccb 310D0000 		.4byte	.LASF208
 7039 0ccf 1E       		.byte	0x1e
 7040 0cd0 BE       		.byte	0xbe
 7041 0cd1 F1100000 		.4byte	0x10f1
 7042 0cd5 24       		.byte	0x24
 7043 0cd6 07       		.uleb128 0x7
 7044 0cd7 B9100000 		.4byte	.LASF209
 7045 0cdb 1E       		.byte	0x1e
 7046 0cdc C1       		.byte	0xc1
 7047 0cdd 1A0C0000 		.4byte	0xc1a
 7048 0ce1 28       		.byte	0x28
 7049 0ce2 00       		.byte	0
 7050 0ce3 17       		.uleb128 0x17
 7051 0ce4 04       		.byte	0x4
 7052 0ce5 1E       		.byte	0x1e
 7053 0ce6 8C       		.byte	0x8c
 7054 0ce7 170D0000 		.4byte	0xd17
 7055 0ceb 1E       		.uleb128 0x1e
 7056 0cec 697000   		.ascii	"ip\000"
 7057 0cef 1E       		.byte	0x1e
 7058 0cf0 8D       		.byte	0x8d
 7059 0cf1 600D0000 		.4byte	0xd60
 7060 0cf5 1E       		.uleb128 0x1e
 7061 0cf6 74637000 		.ascii	"tcp\000"
 7062 0cfa 1E       		.byte	0x1e
 7063 0cfb 8E       		.byte	0x8e
 7064 0cfc 18100000 		.4byte	0x1018
 7065 0d00 1E       		.uleb128 0x1e
 7066 0d01 75647000 		.ascii	"udp\000"
 7067 0d05 1E       		.byte	0x1e
 7068 0d06 8F       		.byte	0x8f
 7069 0d07 AF100000 		.4byte	0x10af
 7070 0d0b 1E       		.uleb128 0x1e
ARM GAS  C:\Users\jo\AppData\Local\Temp\cc6wN9Ut.s 			page 127


 7071 0d0c 72617700 		.ascii	"raw\000"
 7072 0d10 1E       		.byte	0x1e
 7073 0d11 90       		.byte	0x90
 7074 0d12 BA100000 		.4byte	0x10ba
 7075 0d16 00       		.byte	0
 7076 0d17 06       		.uleb128 0x6
 7077 0d18 10100000 		.4byte	.LASF210
 7078 0d1c 0C       		.byte	0xc
 7079 0d1d 1F       		.byte	0x1f
 7080 0d1e 59       		.byte	0x59
 7081 0d1f 600D0000 		.4byte	0xd60
 7082 0d23 07       		.uleb128 0x7
 7083 0d24 4D0C0000 		.4byte	.LASF211
 7084 0d28 1F       		.byte	0x1f
 7085 0d29 5B       		.byte	0x5b
 7086 0d2a E2090000 		.4byte	0x9e2
 7087 0d2e 00       		.byte	0
 7088 0d2f 07       		.uleb128 0x7
 7089 0d30 16120000 		.4byte	.LASF212
 7090 0d34 1F       		.byte	0x1f
 7091 0d35 5B       		.byte	0x5b
 7092 0d36 E2090000 		.4byte	0x9e2
 7093 0d3a 04       		.byte	0x4
 7094 0d3b 07       		.uleb128 0x7
 7095 0d3c 52000000 		.4byte	.LASF213
 7096 0d40 1F       		.byte	0x1f
 7097 0d41 5B       		.byte	0x5b
 7098 0d42 7C090000 		.4byte	0x97c
 7099 0d46 08       		.byte	0x8
 7100 0d47 12       		.uleb128 0x12
 7101 0d48 746F7300 		.ascii	"tos\000"
 7102 0d4c 1F       		.byte	0x1f
 7103 0d4d 5B       		.byte	0x5b
 7104 0d4e 7C090000 		.4byte	0x97c
 7105 0d52 09       		.byte	0x9
 7106 0d53 12       		.uleb128 0x12
 7107 0d54 74746C00 		.ascii	"ttl\000"
 7108 0d58 1F       		.byte	0x1f
 7109 0d59 5B       		.byte	0x5b
 7110 0d5a 7C090000 		.4byte	0x97c
 7111 0d5e 0A       		.byte	0xa
 7112 0d5f 00       		.byte	0
 7113 0d60 0A       		.uleb128 0xa
 7114 0d61 04       		.byte	0x4
 7115 0d62 170D0000 		.4byte	0xd17
 7116 0d66 06       		.uleb128 0x6
 7117 0d67 9C110000 		.4byte	.LASF214
 7118 0d6b 98       		.byte	0x98
 7119 0d6c 20       		.byte	0x20
 7120 0d6d A8       		.byte	0xa8
 7121 0d6e 18100000 		.4byte	0x1018
 7122 0d72 07       		.uleb128 0x7
 7123 0d73 4D0C0000 		.4byte	.LASF211
 7124 0d77 20       		.byte	0x20
 7125 0d78 AA       		.byte	0xaa
 7126 0d79 E2090000 		.4byte	0x9e2
 7127 0d7d 00       		.byte	0
ARM GAS  C:\Users\jo\AppData\Local\Temp\cc6wN9Ut.s 			page 128


 7128 0d7e 07       		.uleb128 0x7
 7129 0d7f 16120000 		.4byte	.LASF212
 7130 0d83 20       		.byte	0x20
 7131 0d84 AA       		.byte	0xaa
 7132 0d85 E2090000 		.4byte	0x9e2
 7133 0d89 04       		.byte	0x4
 7134 0d8a 07       		.uleb128 0x7
 7135 0d8b 52000000 		.4byte	.LASF213
 7136 0d8f 20       		.byte	0x20
 7137 0d90 AA       		.byte	0xaa
 7138 0d91 7C090000 		.4byte	0x97c
 7139 0d95 08       		.byte	0x8
 7140 0d96 12       		.uleb128 0x12
 7141 0d97 746F7300 		.ascii	"tos\000"
 7142 0d9b 20       		.byte	0x20
 7143 0d9c AA       		.byte	0xaa
 7144 0d9d 7C090000 		.4byte	0x97c
 7145 0da1 09       		.byte	0x9
 7146 0da2 12       		.uleb128 0x12
 7147 0da3 74746C00 		.ascii	"ttl\000"
 7148 0da7 20       		.byte	0x20
 7149 0da8 AA       		.byte	0xaa
 7150 0da9 7C090000 		.4byte	0x97c
 7151 0dad 0A       		.byte	0xa
 7152 0dae 07       		.uleb128 0x7
 7153 0daf 13020000 		.4byte	.LASF171
 7154 0db3 20       		.byte	0x20
 7155 0db4 AC       		.byte	0xac
 7156 0db5 18100000 		.4byte	0x1018
 7157 0db9 0C       		.byte	0xc
 7158 0dba 07       		.uleb128 0x7
 7159 0dbb 4E100000 		.4byte	.LASF215
 7160 0dbf 20       		.byte	0x20
 7161 0dc0 AC       		.byte	0xac
 7162 0dc1 64030000 		.4byte	0x364
 7163 0dc5 10       		.byte	0x10
 7164 0dc6 07       		.uleb128 0x7
 7165 0dc7 7A040000 		.4byte	.LASF216
 7166 0dcb 20       		.byte	0x20
 7167 0dcc AC       		.byte	0xac
 7168 0dcd 04110000 		.4byte	0x1104
 7169 0dd1 14       		.byte	0x14
 7170 0dd2 07       		.uleb128 0x7
 7171 0dd3 A3100000 		.4byte	.LASF201
 7172 0dd7 20       		.byte	0x20
 7173 0dd8 AC       		.byte	0xac
 7174 0dd9 D8110000 		.4byte	0x11d8
 7175 0ddd 18       		.byte	0x18
 7176 0dde 07       		.uleb128 0x7
 7177 0ddf E9070000 		.4byte	.LASF217
 7178 0de3 20       		.byte	0x20
 7179 0de4 AC       		.byte	0xac
 7180 0de5 7C090000 		.4byte	0x97c
 7181 0de9 19       		.byte	0x19
 7182 0dea 07       		.uleb128 0x7
 7183 0deb 98040000 		.4byte	.LASF218
 7184 0def 20       		.byte	0x20
ARM GAS  C:\Users\jo\AppData\Local\Temp\cc6wN9Ut.s 			page 129


 7185 0df0 AC       		.byte	0xac
 7186 0df1 92090000 		.4byte	0x992
 7187 0df5 1A       		.byte	0x1a
 7188 0df6 07       		.uleb128 0x7
 7189 0df7 B60A0000 		.4byte	.LASF219
 7190 0dfb 20       		.byte	0x20
 7191 0dfc AF       		.byte	0xaf
 7192 0dfd 92090000 		.4byte	0x992
 7193 0e01 1C       		.byte	0x1c
 7194 0e02 07       		.uleb128 0x7
 7195 0e03 9A010000 		.4byte	.LASF175
 7196 0e07 20       		.byte	0x20
 7197 0e08 B1       		.byte	0xb1
 7198 0e09 7C090000 		.4byte	0x97c
 7199 0e0d 1E       		.byte	0x1e
 7200 0e0e 07       		.uleb128 0x7
 7201 0e0f 7D010000 		.4byte	.LASF220
 7202 0e13 20       		.byte	0x20
 7203 0e14 BF       		.byte	0xbf
 7204 0e15 7C090000 		.4byte	0x97c
 7205 0e19 1F       		.byte	0x1f
 7206 0e1a 07       		.uleb128 0x7
 7207 0e1b EE070000 		.4byte	.LASF221
 7208 0e1f 20       		.byte	0x20
 7209 0e20 BF       		.byte	0xbf
 7210 0e21 7C090000 		.4byte	0x97c
 7211 0e25 20       		.byte	0x20
 7212 0e26 07       		.uleb128 0x7
 7213 0e27 4E0D0000 		.4byte	.LASF222
 7214 0e2b 20       		.byte	0x20
 7215 0e2c C0       		.byte	0xc0
 7216 0e2d 7C090000 		.4byte	0x97c
 7217 0e31 21       		.byte	0x21
 7218 0e32 12       		.uleb128 0x12
 7219 0e33 746D7200 		.ascii	"tmr\000"
 7220 0e37 20       		.byte	0x20
 7221 0e38 C1       		.byte	0xc1
 7222 0e39 A8090000 		.4byte	0x9a8
 7223 0e3d 24       		.byte	0x24
 7224 0e3e 07       		.uleb128 0x7
 7225 0e3f EC050000 		.4byte	.LASF223
 7226 0e43 20       		.byte	0x20
 7227 0e44 C4       		.byte	0xc4
 7228 0e45 A8090000 		.4byte	0x9a8
 7229 0e49 28       		.byte	0x28
 7230 0e4a 07       		.uleb128 0x7
 7231 0e4b 4A040000 		.4byte	.LASF224
 7232 0e4f 20       		.byte	0x20
 7233 0e50 C5       		.byte	0xc5
 7234 0e51 92090000 		.4byte	0x992
 7235 0e55 2C       		.byte	0x2c
 7236 0e56 07       		.uleb128 0x7
 7237 0e57 EF0A0000 		.4byte	.LASF225
 7238 0e5b 20       		.byte	0x20
 7239 0e5c C6       		.byte	0xc6
 7240 0e5d 92090000 		.4byte	0x992
 7241 0e61 2E       		.byte	0x2e
ARM GAS  C:\Users\jo\AppData\Local\Temp\cc6wN9Ut.s 			page 130


 7242 0e62 07       		.uleb128 0x7
 7243 0e63 1F030000 		.4byte	.LASF226
 7244 0e67 20       		.byte	0x20
 7245 0e68 C7       		.byte	0xc7
 7246 0e69 A8090000 		.4byte	0x9a8
 7247 0e6d 30       		.byte	0x30
 7248 0e6e 07       		.uleb128 0x7
 7249 0e6f 96050000 		.4byte	.LASF227
 7250 0e73 20       		.byte	0x20
 7251 0e74 CA       		.byte	0xca
 7252 0e75 9D090000 		.4byte	0x99d
 7253 0e79 34       		.byte	0x34
 7254 0e7a 12       		.uleb128 0x12
 7255 0e7b 6D737300 		.ascii	"mss\000"
 7256 0e7f 20       		.byte	0x20
 7257 0e80 CC       		.byte	0xcc
 7258 0e81 92090000 		.4byte	0x992
 7259 0e85 36       		.byte	0x36
 7260 0e86 07       		.uleb128 0x7
 7261 0e87 190D0000 		.4byte	.LASF228
 7262 0e8b 20       		.byte	0x20
 7263 0e8c CF       		.byte	0xcf
 7264 0e8d A8090000 		.4byte	0x9a8
 7265 0e91 38       		.byte	0x38
 7266 0e92 07       		.uleb128 0x7
 7267 0e93 A6070000 		.4byte	.LASF229
 7268 0e97 20       		.byte	0x20
 7269 0e98 D0       		.byte	0xd0
 7270 0e99 A8090000 		.4byte	0x9a8
 7271 0e9d 3C       		.byte	0x3c
 7272 0e9e 12       		.uleb128 0x12
 7273 0e9f 736100   		.ascii	"sa\000"
 7274 0ea2 20       		.byte	0x20
 7275 0ea3 D1       		.byte	0xd1
 7276 0ea4 9D090000 		.4byte	0x99d
 7277 0ea8 40       		.byte	0x40
 7278 0ea9 12       		.uleb128 0x12
 7279 0eaa 737600   		.ascii	"sv\000"
 7280 0ead 20       		.byte	0x20
 7281 0eae D1       		.byte	0xd1
 7282 0eaf 9D090000 		.4byte	0x99d
 7283 0eb3 42       		.byte	0x42
 7284 0eb4 12       		.uleb128 0x12
 7285 0eb5 72746F00 		.ascii	"rto\000"
 7286 0eb9 20       		.byte	0x20
 7287 0eba D3       		.byte	0xd3
 7288 0ebb 9D090000 		.4byte	0x99d
 7289 0ebf 44       		.byte	0x44
 7290 0ec0 07       		.uleb128 0x7
 7291 0ec1 CF120000 		.4byte	.LASF230
 7292 0ec5 20       		.byte	0x20
 7293 0ec6 D4       		.byte	0xd4
 7294 0ec7 7C090000 		.4byte	0x97c
 7295 0ecb 46       		.byte	0x46
 7296 0ecc 07       		.uleb128 0x7
 7297 0ecd 2A020000 		.4byte	.LASF231
 7298 0ed1 20       		.byte	0x20
ARM GAS  C:\Users\jo\AppData\Local\Temp\cc6wN9Ut.s 			page 131


 7299 0ed2 D7       		.byte	0xd7
 7300 0ed3 7C090000 		.4byte	0x97c
 7301 0ed7 47       		.byte	0x47
 7302 0ed8 07       		.uleb128 0x7
 7303 0ed9 5D0E0000 		.4byte	.LASF232
 7304 0edd 20       		.byte	0x20
 7305 0ede D8       		.byte	0xd8
 7306 0edf A8090000 		.4byte	0x9a8
 7307 0ee3 48       		.byte	0x48
 7308 0ee4 07       		.uleb128 0x7
 7309 0ee5 62040000 		.4byte	.LASF233
 7310 0ee9 20       		.byte	0x20
 7311 0eea DB       		.byte	0xdb
 7312 0eeb 92090000 		.4byte	0x992
 7313 0eef 4C       		.byte	0x4c
 7314 0ef0 07       		.uleb128 0x7
 7315 0ef1 310E0000 		.4byte	.LASF234
 7316 0ef5 20       		.byte	0x20
 7317 0ef6 DC       		.byte	0xdc
 7318 0ef7 92090000 		.4byte	0x992
 7319 0efb 4E       		.byte	0x4e
 7320 0efc 07       		.uleb128 0x7
 7321 0efd CB0D0000 		.4byte	.LASF235
 7322 0f01 20       		.byte	0x20
 7323 0f02 DF       		.byte	0xdf
 7324 0f03 A8090000 		.4byte	0x9a8
 7325 0f07 50       		.byte	0x50
 7326 0f08 07       		.uleb128 0x7
 7327 0f09 35080000 		.4byte	.LASF236
 7328 0f0d 20       		.byte	0x20
 7329 0f0e E0       		.byte	0xe0
 7330 0f0f A8090000 		.4byte	0x9a8
 7331 0f13 54       		.byte	0x54
 7332 0f14 07       		.uleb128 0x7
 7333 0f15 19090000 		.4byte	.LASF237
 7334 0f19 20       		.byte	0x20
 7335 0f1a E0       		.byte	0xe0
 7336 0f1b A8090000 		.4byte	0x9a8
 7337 0f1f 58       		.byte	0x58
 7338 0f20 07       		.uleb128 0x7
 7339 0f21 9E070000 		.4byte	.LASF238
 7340 0f25 20       		.byte	0x20
 7341 0f26 E2       		.byte	0xe2
 7342 0f27 A8090000 		.4byte	0x9a8
 7343 0f2b 5C       		.byte	0x5c
 7344 0f2c 07       		.uleb128 0x7
 7345 0f2d EE0B0000 		.4byte	.LASF239
 7346 0f31 20       		.byte	0x20
 7347 0f32 E3       		.byte	0xe3
 7348 0f33 92090000 		.4byte	0x992
 7349 0f37 60       		.byte	0x60
 7350 0f38 07       		.uleb128 0x7
 7351 0f39 040E0000 		.4byte	.LASF240
 7352 0f3d 20       		.byte	0x20
 7353 0f3e E4       		.byte	0xe4
 7354 0f3f 92090000 		.4byte	0x992
 7355 0f43 62       		.byte	0x62
ARM GAS  C:\Users\jo\AppData\Local\Temp\cc6wN9Ut.s 			page 132


 7356 0f44 07       		.uleb128 0x7
 7357 0f45 59080000 		.4byte	.LASF241
 7358 0f49 20       		.byte	0x20
 7359 0f4a E6       		.byte	0xe6
 7360 0f4b 92090000 		.4byte	0x992
 7361 0f4f 64       		.byte	0x64
 7362 0f50 07       		.uleb128 0x7
 7363 0f51 AE120000 		.4byte	.LASF242
 7364 0f55 20       		.byte	0x20
 7365 0f56 E8       		.byte	0xe8
 7366 0f57 92090000 		.4byte	0x992
 7367 0f5b 66       		.byte	0x66
 7368 0f5c 07       		.uleb128 0x7
 7369 0f5d CA100000 		.4byte	.LASF243
 7370 0f61 20       		.byte	0x20
 7371 0f62 EA       		.byte	0xea
 7372 0f63 92090000 		.4byte	0x992
 7373 0f67 68       		.byte	0x68
 7374 0f68 07       		.uleb128 0x7
 7375 0f69 A10D0000 		.4byte	.LASF244
 7376 0f6d 20       		.byte	0x20
 7377 0f6e EE       		.byte	0xee
 7378 0f6f 92090000 		.4byte	0x992
 7379 0f73 6A       		.byte	0x6a
 7380 0f74 07       		.uleb128 0x7
 7381 0f75 000D0000 		.4byte	.LASF245
 7382 0f79 20       		.byte	0x20
 7383 0f7a F2       		.byte	0xf2
 7384 0f7b 2C120000 		.4byte	0x122c
 7385 0f7f 6C       		.byte	0x6c
 7386 0f80 07       		.uleb128 0x7
 7387 0f81 D80F0000 		.4byte	.LASF246
 7388 0f85 20       		.byte	0x20
 7389 0f86 F3       		.byte	0xf3
 7390 0f87 2C120000 		.4byte	0x122c
 7391 0f8b 70       		.byte	0x70
 7392 0f8c 07       		.uleb128 0x7
 7393 0f8d 470C0000 		.4byte	.LASF247
 7394 0f91 20       		.byte	0x20
 7395 0f92 F5       		.byte	0xf5
 7396 0f93 2C120000 		.4byte	0x122c
 7397 0f97 74       		.byte	0x74
 7398 0f98 07       		.uleb128 0x7
 7399 0f99 020F0000 		.4byte	.LASF248
 7400 0f9d 20       		.byte	0x20
 7401 0f9e F8       		.byte	0xf8
 7402 0f9f 2F0B0000 		.4byte	0xb2f
 7403 0fa3 78       		.byte	0x78
 7404 0fa4 07       		.uleb128 0x7
 7405 0fa5 F7080000 		.4byte	.LASF249
 7406 0fa9 20       		.byte	0x20
 7407 0faa FC       		.byte	0xfc
 7408 0fab 5D110000 		.4byte	0x115d
 7409 0faf 7C       		.byte	0x7c
 7410 0fb0 07       		.uleb128 0x7
 7411 0fb1 1E110000 		.4byte	.LASF250
 7412 0fb5 20       		.byte	0x20
ARM GAS  C:\Users\jo\AppData\Local\Temp\cc6wN9Ut.s 			page 133


 7413 0fb6 FE       		.byte	0xfe
 7414 0fb7 2E110000 		.4byte	0x112e
 7415 0fbb 80       		.byte	0x80
 7416 0fbc 09       		.uleb128 0x9
 7417 0fbd DB060000 		.4byte	.LASF251
 7418 0fc1 20       		.byte	0x20
 7419 0fc2 0001     		.2byte	0x100
 7420 0fc4 CD110000 		.4byte	0x11cd
 7421 0fc8 84       		.byte	0x84
 7422 0fc9 09       		.uleb128 0x9
 7423 0fca FB070000 		.4byte	.LASF252
 7424 0fce 20       		.byte	0x20
 7425 0fcf 0201     		.2byte	0x102
 7426 0fd1 87110000 		.4byte	0x1187
 7427 0fd5 88       		.byte	0x88
 7428 0fd6 09       		.uleb128 0x9
 7429 0fd7 44110000 		.4byte	.LASF253
 7430 0fdb 20       		.byte	0x20
 7431 0fdc 0401     		.2byte	0x104
 7432 0fde AC110000 		.4byte	0x11ac
 7433 0fe2 8C       		.byte	0x8c
 7434 0fe3 09       		.uleb128 0x9
 7435 0fe4 35100000 		.4byte	.LASF254
 7436 0fe8 20       		.byte	0x20
 7437 0fe9 0D01     		.2byte	0x10d
 7438 0feb A8090000 		.4byte	0x9a8
 7439 0fef 90       		.byte	0x90
 7440 0ff0 09       		.uleb128 0x9
 7441 0ff1 0A120000 		.4byte	.LASF255
 7442 0ff5 20       		.byte	0x20
 7443 0ff6 1401     		.2byte	0x114
 7444 0ff8 7C090000 		.4byte	0x97c
 7445 0ffc 94       		.byte	0x94
 7446 0ffd 09       		.uleb128 0x9
 7447 0ffe CE090000 		.4byte	.LASF256
 7448 1002 20       		.byte	0x20
 7449 1003 1601     		.2byte	0x116
 7450 1005 7C090000 		.4byte	0x97c
 7451 1009 95       		.byte	0x95
 7452 100a 09       		.uleb128 0x9
 7453 100b D4030000 		.4byte	.LASF257
 7454 100f 20       		.byte	0x20
 7455 1010 1901     		.2byte	0x119
 7456 1012 7C090000 		.4byte	0x97c
 7457 1016 96       		.byte	0x96
 7458 1017 00       		.byte	0
 7459 1018 0A       		.uleb128 0xa
 7460 1019 04       		.byte	0x4
 7461 101a 660D0000 		.4byte	0xd66
 7462 101e 06       		.uleb128 0x6
 7463 101f 7B120000 		.4byte	.LASF258
 7464 1023 20       		.byte	0x20
 7465 1024 21       		.byte	0x21
 7466 1025 5B       		.byte	0x5b
 7467 1026 AF100000 		.4byte	0x10af
 7468 102a 07       		.uleb128 0x7
 7469 102b 4D0C0000 		.4byte	.LASF211
ARM GAS  C:\Users\jo\AppData\Local\Temp\cc6wN9Ut.s 			page 134


 7470 102f 21       		.byte	0x21
 7471 1030 5D       		.byte	0x5d
 7472 1031 E2090000 		.4byte	0x9e2
 7473 1035 00       		.byte	0
 7474 1036 07       		.uleb128 0x7
 7475 1037 16120000 		.4byte	.LASF212
 7476 103b 21       		.byte	0x21
 7477 103c 5D       		.byte	0x5d
 7478 103d E2090000 		.4byte	0x9e2
 7479 1041 04       		.byte	0x4
 7480 1042 07       		.uleb128 0x7
 7481 1043 52000000 		.4byte	.LASF213
 7482 1047 21       		.byte	0x21
 7483 1048 5D       		.byte	0x5d
 7484 1049 7C090000 		.4byte	0x97c
 7485 104d 08       		.byte	0x8
 7486 104e 12       		.uleb128 0x12
 7487 104f 746F7300 		.ascii	"tos\000"
 7488 1053 21       		.byte	0x21
 7489 1054 5D       		.byte	0x5d
 7490 1055 7C090000 		.4byte	0x97c
 7491 1059 09       		.byte	0x9
 7492 105a 12       		.uleb128 0x12
 7493 105b 74746C00 		.ascii	"ttl\000"
 7494 105f 21       		.byte	0x21
 7495 1060 5D       		.byte	0x5d
 7496 1061 7C090000 		.4byte	0x97c
 7497 1065 0A       		.byte	0xa
 7498 1066 07       		.uleb128 0x7
 7499 1067 13020000 		.4byte	.LASF171
 7500 106b 21       		.byte	0x21
 7501 106c 61       		.byte	0x61
 7502 106d AF100000 		.4byte	0x10af
 7503 1071 0C       		.byte	0xc
 7504 1072 07       		.uleb128 0x7
 7505 1073 9A010000 		.4byte	.LASF175
 7506 1077 21       		.byte	0x21
 7507 1078 63       		.byte	0x63
 7508 1079 7C090000 		.4byte	0x97c
 7509 107d 10       		.byte	0x10
 7510 107e 07       		.uleb128 0x7
 7511 107f 98040000 		.4byte	.LASF218
 7512 1083 21       		.byte	0x21
 7513 1084 65       		.byte	0x65
 7514 1085 92090000 		.4byte	0x992
 7515 1089 12       		.byte	0x12
 7516 108a 07       		.uleb128 0x7
 7517 108b B60A0000 		.4byte	.LASF219
 7518 108f 21       		.byte	0x21
 7519 1090 65       		.byte	0x65
 7520 1091 92090000 		.4byte	0x992
 7521 1095 14       		.byte	0x14
 7522 1096 07       		.uleb128 0x7
 7523 1097 1E110000 		.4byte	.LASF250
 7524 109b 21       		.byte	0x21
 7525 109c 72       		.byte	0x72
 7526 109d 32120000 		.4byte	0x1232
ARM GAS  C:\Users\jo\AppData\Local\Temp\cc6wN9Ut.s 			page 135


 7527 10a1 18       		.byte	0x18
 7528 10a2 07       		.uleb128 0x7
 7529 10a3 540A0000 		.4byte	.LASF259
 7530 10a7 21       		.byte	0x21
 7531 10a8 74       		.byte	0x74
 7532 10a9 64030000 		.4byte	0x364
 7533 10ad 1C       		.byte	0x1c
 7534 10ae 00       		.byte	0
 7535 10af 0A       		.uleb128 0xa
 7536 10b0 04       		.byte	0x4
 7537 10b1 1E100000 		.4byte	0x101e
 7538 10b5 1F       		.uleb128 0x1f
 7539 10b6 DA010000 		.4byte	.LASF280
 7540 10ba 0A       		.uleb128 0xa
 7541 10bb 04       		.byte	0x4
 7542 10bc B5100000 		.4byte	0x10b5
 7543 10c0 06       		.uleb128 0x6
 7544 10c1 92070000 		.4byte	.LASF260
 7545 10c5 14       		.byte	0x14
 7546 10c6 22       		.byte	0x22
 7547 10c7 3E       		.byte	0x3e
 7548 10c8 F1100000 		.4byte	0x10f1
 7549 10cc 07       		.uleb128 0x7
 7550 10cd F4060000 		.4byte	.LASF261
 7551 10d1 22       		.byte	0x22
 7552 10d2 41       		.byte	0x41
 7553 10d3 400C0000 		.4byte	0xc40
 7554 10d7 00       		.byte	0
 7555 10d8 12       		.uleb128 0x12
 7556 10d9 65727200 		.ascii	"err\000"
 7557 10dd 22       		.byte	0x22
 7558 10de 43       		.byte	0x43
 7559 10df C30A0000 		.4byte	0xac3
 7560 10e3 04       		.byte	0x4
 7561 10e4 12       		.uleb128 0x12
 7562 10e5 6D736700 		.ascii	"msg\000"
 7563 10e9 22       		.byte	0x22
 7564 10ea 75       		.byte	0x75
 7565 10eb 22130000 		.4byte	0x1322
 7566 10ef 08       		.byte	0x8
 7567 10f0 00       		.byte	0
 7568 10f1 0A       		.uleb128 0xa
 7569 10f2 04       		.byte	0x4
 7570 10f3 C0100000 		.4byte	0x10c0
 7571 10f7 0A       		.uleb128 0xa
 7572 10f8 04       		.byte	0x4
 7573 10f9 E2090000 		.4byte	0x9e2
 7574 10fd 0A       		.uleb128 0xa
 7575 10fe 04       		.byte	0x4
 7576 10ff 03110000 		.4byte	0x1103
 7577 1103 20       		.uleb128 0x20
 7578 1104 03       		.uleb128 0x3
 7579 1105 8C010000 		.4byte	.LASF262
 7580 1109 20       		.byte	0x20
 7581 110a 3C       		.byte	0x3c
 7582 110b 0F110000 		.4byte	0x110f
 7583 110f 0A       		.uleb128 0xa
ARM GAS  C:\Users\jo\AppData\Local\Temp\cc6wN9Ut.s 			page 136


 7584 1110 04       		.byte	0x4
 7585 1111 15110000 		.4byte	0x1115
 7586 1115 1A       		.uleb128 0x1a
 7587 1116 C30A0000 		.4byte	0xac3
 7588 111a 2E110000 		.4byte	0x112e
 7589 111e 0D       		.uleb128 0xd
 7590 111f 64030000 		.4byte	0x364
 7591 1123 0D       		.uleb128 0xd
 7592 1124 18100000 		.4byte	0x1018
 7593 1128 0D       		.uleb128 0xd
 7594 1129 C30A0000 		.4byte	0xac3
 7595 112d 00       		.byte	0
 7596 112e 03       		.uleb128 0x3
 7597 112f 280B0000 		.4byte	.LASF263
 7598 1133 20       		.byte	0x20
 7599 1134 48       		.byte	0x48
 7600 1135 39110000 		.4byte	0x1139
 7601 1139 0A       		.uleb128 0xa
 7602 113a 04       		.byte	0x4
 7603 113b 3F110000 		.4byte	0x113f
 7604 113f 1A       		.uleb128 0x1a
 7605 1140 C30A0000 		.4byte	0xac3
 7606 1144 5D110000 		.4byte	0x115d
 7607 1148 0D       		.uleb128 0xd
 7608 1149 64030000 		.4byte	0x364
 7609 114d 0D       		.uleb128 0xd
 7610 114e 18100000 		.4byte	0x1018
 7611 1152 0D       		.uleb128 0xd
 7612 1153 2F0B0000 		.4byte	0xb2f
 7613 1157 0D       		.uleb128 0xd
 7614 1158 C30A0000 		.4byte	0xac3
 7615 115c 00       		.byte	0
 7616 115d 03       		.uleb128 0x3
 7617 115e E7030000 		.4byte	.LASF264
 7618 1162 20       		.byte	0x20
 7619 1163 56       		.byte	0x56
 7620 1164 68110000 		.4byte	0x1168
 7621 1168 0A       		.uleb128 0xa
 7622 1169 04       		.byte	0x4
 7623 116a 6E110000 		.4byte	0x116e
 7624 116e 1A       		.uleb128 0x1a
 7625 116f C30A0000 		.4byte	0xac3
 7626 1173 87110000 		.4byte	0x1187
 7627 1177 0D       		.uleb128 0xd
 7628 1178 64030000 		.4byte	0x364
 7629 117c 0D       		.uleb128 0xd
 7630 117d 18100000 		.4byte	0x1018
 7631 1181 0D       		.uleb128 0xd
 7632 1182 92090000 		.4byte	0x992
 7633 1186 00       		.byte	0
 7634 1187 03       		.uleb128 0x3
 7635 1188 E20B0000 		.4byte	.LASF265
 7636 118c 20       		.byte	0x20
 7637 118d 62       		.byte	0x62
 7638 118e 92110000 		.4byte	0x1192
 7639 1192 0A       		.uleb128 0xa
 7640 1193 04       		.byte	0x4
ARM GAS  C:\Users\jo\AppData\Local\Temp\cc6wN9Ut.s 			page 137


 7641 1194 98110000 		.4byte	0x1198
 7642 1198 1A       		.uleb128 0x1a
 7643 1199 C30A0000 		.4byte	0xac3
 7644 119d AC110000 		.4byte	0x11ac
 7645 11a1 0D       		.uleb128 0xd
 7646 11a2 64030000 		.4byte	0x364
 7647 11a6 0D       		.uleb128 0xd
 7648 11a7 18100000 		.4byte	0x1018
 7649 11ab 00       		.byte	0
 7650 11ac 03       		.uleb128 0x3
 7651 11ad 48090000 		.4byte	.LASF266
 7652 11b1 20       		.byte	0x20
 7653 11b2 6E       		.byte	0x6e
 7654 11b3 B7110000 		.4byte	0x11b7
 7655 11b7 0A       		.uleb128 0xa
 7656 11b8 04       		.byte	0x4
 7657 11b9 BD110000 		.4byte	0x11bd
 7658 11bd 0C       		.uleb128 0xc
 7659 11be CD110000 		.4byte	0x11cd
 7660 11c2 0D       		.uleb128 0xd
 7661 11c3 64030000 		.4byte	0x364
 7662 11c7 0D       		.uleb128 0xd
 7663 11c8 C30A0000 		.4byte	0xac3
 7664 11cc 00       		.byte	0
 7665 11cd 03       		.uleb128 0x3
 7666 11ce 02020000 		.4byte	.LASF267
 7667 11d2 20       		.byte	0x20
 7668 11d3 7C       		.byte	0x7c
 7669 11d4 0F110000 		.4byte	0x110f
 7670 11d8 1C       		.uleb128 0x1c
 7671 11d9 F60B0000 		.4byte	.LASF268
 7672 11dd 01       		.byte	0x1
 7673 11de 20       		.byte	0x20
 7674 11df 7E       		.byte	0x7e
 7675 11e0 27120000 		.4byte	0x1227
 7676 11e4 1D       		.uleb128 0x1d
 7677 11e5 850C0000 		.4byte	.LASF269
 7678 11e9 00       		.sleb128 0
 7679 11ea 1D       		.uleb128 0x1d
 7680 11eb 64100000 		.4byte	.LASF270
 7681 11ef 01       		.sleb128 1
 7682 11f0 1D       		.uleb128 0x1d
 7683 11f1 B10D0000 		.4byte	.LASF271
 7684 11f5 02       		.sleb128 2
 7685 11f6 1D       		.uleb128 0x1d
 7686 11f7 DD120000 		.4byte	.LASF272
 7687 11fb 03       		.sleb128 3
 7688 11fc 1D       		.uleb128 0x1d
 7689 11fd F80D0000 		.4byte	.LASF273
 7690 1201 04       		.sleb128 4
 7691 1202 1D       		.uleb128 0x1d
 7692 1203 C20F0000 		.4byte	.LASF274
 7693 1207 05       		.sleb128 5
 7694 1208 1D       		.uleb128 0x1d
 7695 1209 CD0F0000 		.4byte	.LASF275
 7696 120d 06       		.sleb128 6
 7697 120e 1D       		.uleb128 0x1d
ARM GAS  C:\Users\jo\AppData\Local\Temp\cc6wN9Ut.s 			page 138


 7698 120f 5F080000 		.4byte	.LASF276
 7699 1213 07       		.sleb128 7
 7700 1214 1D       		.uleb128 0x1d
 7701 1215 03070000 		.4byte	.LASF277
 7702 1219 08       		.sleb128 8
 7703 121a 1D       		.uleb128 0x1d
 7704 121b 5B060000 		.4byte	.LASF278
 7705 121f 09       		.sleb128 9
 7706 1220 1D       		.uleb128 0x1d
 7707 1221 E2010000 		.4byte	.LASF279
 7708 1225 0A       		.sleb128 10
 7709 1226 00       		.byte	0
 7710 1227 1F       		.uleb128 0x1f
 7711 1228 0F050000 		.4byte	.LASF281
 7712 122c 0A       		.uleb128 0xa
 7713 122d 04       		.byte	0x4
 7714 122e 27120000 		.4byte	0x1227
 7715 1232 03       		.uleb128 0x3
 7716 1233 8C0C0000 		.4byte	.LASF282
 7717 1237 21       		.byte	0x21
 7718 1238 57       		.byte	0x57
 7719 1239 3D120000 		.4byte	0x123d
 7720 123d 0A       		.uleb128 0xa
 7721 123e 04       		.byte	0x4
 7722 123f 43120000 		.4byte	0x1243
 7723 1243 0C       		.uleb128 0xc
 7724 1244 62120000 		.4byte	0x1262
 7725 1248 0D       		.uleb128 0xd
 7726 1249 64030000 		.4byte	0x364
 7727 124d 0D       		.uleb128 0xd
 7728 124e AF100000 		.4byte	0x10af
 7729 1252 0D       		.uleb128 0xd
 7730 1253 2F0B0000 		.4byte	0xb2f
 7731 1257 0D       		.uleb128 0xd
 7732 1258 F7100000 		.4byte	0x10f7
 7733 125c 0D       		.uleb128 0xd
 7734 125d 92090000 		.4byte	0x992
 7735 1261 00       		.byte	0
 7736 1262 13       		.uleb128 0x13
 7737 1263 01       		.byte	0x1
 7738 1264 22       		.byte	0x22
 7739 1265 49       		.byte	0x49
 7740 1266 77120000 		.4byte	0x1277
 7741 126a 07       		.uleb128 0x7
 7742 126b 6A080000 		.4byte	.LASF283
 7743 126f 22       		.byte	0x22
 7744 1270 4A       		.byte	0x4a
 7745 1271 7C090000 		.4byte	0x97c
 7746 1275 00       		.byte	0
 7747 1276 00       		.byte	0
 7748 1277 13       		.uleb128 0x13
 7749 1278 08       		.byte	0x8
 7750 1279 22       		.byte	0x22
 7751 127a 4D       		.byte	0x4d
 7752 127b 98120000 		.4byte	0x1298
 7753 127f 07       		.uleb128 0x7
 7754 1280 73060000 		.4byte	.LASF284
ARM GAS  C:\Users\jo\AppData\Local\Temp\cc6wN9Ut.s 			page 139


 7755 1284 22       		.byte	0x22
 7756 1285 4E       		.byte	0x4e
 7757 1286 F7100000 		.4byte	0x10f7
 7758 128a 00       		.byte	0
 7759 128b 07       		.uleb128 0x7
 7760 128c 4B0E0000 		.4byte	.LASF177
 7761 1290 22       		.byte	0x22
 7762 1291 4F       		.byte	0x4f
 7763 1292 92090000 		.4byte	0x992
 7764 1296 04       		.byte	0x4
 7765 1297 00       		.byte	0
 7766 1298 13       		.uleb128 0x13
 7767 1299 0C       		.byte	0xc
 7768 129a 22       		.byte	0x22
 7769 129b 52       		.byte	0x52
 7770 129c C5120000 		.4byte	0x12c5
 7771 12a0 07       		.uleb128 0x7
 7772 12a1 73060000 		.4byte	.LASF284
 7773 12a5 22       		.byte	0x22
 7774 12a6 53       		.byte	0x53
 7775 12a7 F7100000 		.4byte	0x10f7
 7776 12ab 00       		.byte	0
 7777 12ac 07       		.uleb128 0x7
 7778 12ad 4B0E0000 		.4byte	.LASF177
 7779 12b1 22       		.byte	0x22
 7780 12b2 54       		.byte	0x54
 7781 12b3 C5120000 		.4byte	0x12c5
 7782 12b7 04       		.byte	0x4
 7783 12b8 07       		.uleb128 0x7
 7784 12b9 6E020000 		.4byte	.LASF285
 7785 12bd 22       		.byte	0x22
 7786 12be 55       		.byte	0x55
 7787 12bf 7C090000 		.4byte	0x97c
 7788 12c3 08       		.byte	0x8
 7789 12c4 00       		.byte	0
 7790 12c5 0A       		.uleb128 0xa
 7791 12c6 04       		.byte	0x4
 7792 12c7 92090000 		.4byte	0x992
 7793 12cb 13       		.uleb128 0x13
 7794 12cc 0C       		.byte	0xc
 7795 12cd 22       		.byte	0x22
 7796 12ce 58       		.byte	0x58
 7797 12cf F8120000 		.4byte	0x12f8
 7798 12d3 07       		.uleb128 0x7
 7799 12d4 870B0000 		.4byte	.LASF286
 7800 12d8 22       		.byte	0x22
 7801 12d9 59       		.byte	0x59
 7802 12da FD100000 		.4byte	0x10fd
 7803 12de 00       		.byte	0
 7804 12df 12       		.uleb128 0x12
 7805 12e0 6C656E00 		.ascii	"len\000"
 7806 12e4 22       		.byte	0x22
 7807 12e5 5A       		.byte	0x5a
 7808 12e6 2C000000 		.4byte	0x2c
 7809 12ea 04       		.byte	0x4
 7810 12eb 07       		.uleb128 0x7
 7811 12ec F90E0000 		.4byte	.LASF287
ARM GAS  C:\Users\jo\AppData\Local\Temp\cc6wN9Ut.s 			page 140


 7812 12f0 22       		.byte	0x22
 7813 12f1 5B       		.byte	0x5b
 7814 12f2 7C090000 		.4byte	0x97c
 7815 12f6 08       		.byte	0x8
 7816 12f7 00       		.byte	0
 7817 12f8 13       		.uleb128 0x13
 7818 12f9 04       		.byte	0x4
 7819 12fa 22       		.byte	0x22
 7820 12fb 61       		.byte	0x61
 7821 12fc 0D130000 		.4byte	0x130d
 7822 1300 12       		.uleb128 0x12
 7823 1301 6C656E00 		.ascii	"len\000"
 7824 1305 22       		.byte	0x22
 7825 1306 62       		.byte	0x62
 7826 1307 A8090000 		.4byte	0x9a8
 7827 130b 00       		.byte	0
 7828 130c 00       		.byte	0
 7829 130d 13       		.uleb128 0x13
 7830 130e 01       		.byte	0x1
 7831 130f 22       		.byte	0x22
 7832 1310 65       		.byte	0x65
 7833 1311 22130000 		.4byte	0x1322
 7834 1315 07       		.uleb128 0x7
 7835 1316 30100000 		.4byte	.LASF288
 7836 131a 22       		.byte	0x22
 7837 131b 66       		.byte	0x66
 7838 131c 7C090000 		.4byte	0x97c
 7839 1320 00       		.byte	0
 7840 1321 00       		.byte	0
 7841 1322 17       		.uleb128 0x17
 7842 1323 0C       		.byte	0xc
 7843 1324 22       		.byte	0x22
 7844 1325 45       		.byte	0x45
 7845 1326 6D130000 		.4byte	0x136d
 7846 132a 1E       		.uleb128 0x1e
 7847 132b 6200     		.ascii	"b\000"
 7848 132d 22       		.byte	0x22
 7849 132e 47       		.byte	0x47
 7850 132f 6D130000 		.4byte	0x136d
 7851 1333 1E       		.uleb128 0x1e
 7852 1334 6E00     		.ascii	"n\000"
 7853 1336 22       		.byte	0x22
 7854 1337 4B       		.byte	0x4b
 7855 1338 62120000 		.4byte	0x1262
 7856 133c 1E       		.uleb128 0x1e
 7857 133d 626300   		.ascii	"bc\000"
 7858 1340 22       		.byte	0x22
 7859 1341 50       		.byte	0x50
 7860 1342 77120000 		.4byte	0x1277
 7861 1346 1E       		.uleb128 0x1e
 7862 1347 616400   		.ascii	"ad\000"
 7863 134a 22       		.byte	0x22
 7864 134b 56       		.byte	0x56
 7865 134c 98120000 		.4byte	0x1298
 7866 1350 1E       		.uleb128 0x1e
 7867 1351 7700     		.ascii	"w\000"
 7868 1353 22       		.byte	0x22
ARM GAS  C:\Users\jo\AppData\Local\Temp\cc6wN9Ut.s 			page 141


 7869 1354 5F       		.byte	0x5f
 7870 1355 CB120000 		.4byte	0x12cb
 7871 1359 1E       		.uleb128 0x1e
 7872 135a 7200     		.ascii	"r\000"
 7873 135c 22       		.byte	0x22
 7874 135d 63       		.byte	0x63
 7875 135e F8120000 		.4byte	0x12f8
 7876 1362 1E       		.uleb128 0x1e
 7877 1363 736400   		.ascii	"sd\000"
 7878 1366 22       		.byte	0x22
 7879 1367 67       		.byte	0x67
 7880 1368 0D130000 		.4byte	0x130d
 7881 136c 00       		.byte	0
 7882 136d 0A       		.uleb128 0xa
 7883 136e 04       		.byte	0x4
 7884 136f 350B0000 		.4byte	0xb35
 7885 1373 03       		.uleb128 0x3
 7886 1374 070D0000 		.4byte	.LASF289
 7887 1378 23       		.byte	0x23
 7888 1379 4E       		.byte	0x4e
 7889 137a 53030000 		.4byte	0x353
 7890 137e 0A       		.uleb128 0xa
 7891 137f 04       		.byte	0x4
 7892 1380 700B0000 		.4byte	0xb70
 7893 1384 06       		.uleb128 0x6
 7894 1385 7A090000 		.4byte	.LASF290
 7895 1389 18       		.byte	0x18
 7896 138a 01       		.byte	0x1
 7897 138b 40       		.byte	0x40
 7898 138c F1130000 		.4byte	0x13f1
 7899 1390 07       		.uleb128 0x7
 7900 1391 F4060000 		.4byte	.LASF261
 7901 1395 01       		.byte	0x1
 7902 1396 42       		.byte	0x42
 7903 1397 400C0000 		.4byte	0xc40
 7904 139b 00       		.byte	0
 7905 139c 07       		.uleb128 0x7
 7906 139d 420E0000 		.4byte	.LASF291
 7907 13a1 01       		.byte	0x1
 7908 13a2 44       		.byte	0x44
 7909 13a3 64030000 		.4byte	0x364
 7910 13a7 04       		.byte	0x4
 7911 13a8 07       		.uleb128 0x7
 7912 13a9 20120000 		.4byte	.LASF292
 7913 13ad 01       		.byte	0x1
 7914 13ae 46       		.byte	0x46
 7915 13af 92090000 		.4byte	0x992
 7916 13b3 08       		.byte	0x8
 7917 13b4 07       		.uleb128 0x7
 7918 13b5 840E0000 		.4byte	.LASF293
 7919 13b9 01       		.byte	0x1
 7920 13ba 49       		.byte	0x49
 7921 13bb 9D090000 		.4byte	0x99d
 7922 13bf 0A       		.byte	0xa
 7923 13c0 07       		.uleb128 0x7
 7924 13c1 9E0F0000 		.4byte	.LASF294
 7925 13c5 01       		.byte	0x1
ARM GAS  C:\Users\jo\AppData\Local\Temp\cc6wN9Ut.s 			page 142


 7926 13c6 4C       		.byte	0x4c
 7927 13c7 92090000 		.4byte	0x992
 7928 13cb 0C       		.byte	0xc
 7929 13cc 07       		.uleb128 0x7
 7930 13cd B30B0000 		.4byte	.LASF295
 7931 13d1 01       		.byte	0x1
 7932 13d2 4E       		.byte	0x4e
 7933 13d3 92090000 		.4byte	0x992
 7934 13d7 0E       		.byte	0xe
 7935 13d8 12       		.uleb128 0x12
 7936 13d9 65727200 		.ascii	"err\000"
 7937 13dd 01       		.byte	0x1
 7938 13de 50       		.byte	0x50
 7939 13df 25000000 		.4byte	0x25
 7940 13e3 10       		.byte	0x10
 7941 13e4 07       		.uleb128 0x7
 7942 13e5 BE060000 		.4byte	.LASF296
 7943 13e9 01       		.byte	0x1
 7944 13ea 52       		.byte	0x52
 7945 13eb 25000000 		.4byte	0x25
 7946 13ef 14       		.byte	0x14
 7947 13f0 00       		.byte	0
 7948 13f1 06       		.uleb128 0x6
 7949 13f2 57110000 		.4byte	.LASF297
 7950 13f6 1C       		.byte	0x1c
 7951 13f7 01       		.byte	0x1
 7952 13f8 56       		.byte	0x56
 7953 13f9 52140000 		.4byte	0x1452
 7954 13fd 07       		.uleb128 0x7
 7955 13fe 13020000 		.4byte	.LASF171
 7956 1402 01       		.byte	0x1
 7957 1403 58       		.byte	0x58
 7958 1404 52140000 		.4byte	0x1452
 7959 1408 00       		.byte	0
 7960 1409 07       		.uleb128 0x7
 7961 140a B0020000 		.4byte	.LASF298
 7962 140e 01       		.byte	0x1
 7963 140f 5A       		.byte	0x5a
 7964 1410 52140000 		.4byte	0x1452
 7965 1414 04       		.byte	0x4
 7966 1415 07       		.uleb128 0x7
 7967 1416 21080000 		.4byte	.LASF299
 7968 141a 01       		.byte	0x1
 7969 141b 5C       		.byte	0x5c
 7970 141c 58140000 		.4byte	0x1458
 7971 1420 08       		.byte	0x8
 7972 1421 07       		.uleb128 0x7
 7973 1422 99120000 		.4byte	.LASF300
 7974 1426 01       		.byte	0x1
 7975 1427 5E       		.byte	0x5e
 7976 1428 58140000 		.4byte	0x1458
 7977 142c 0C       		.byte	0xc
 7978 142d 07       		.uleb128 0x7
 7979 142e AC0A0000 		.4byte	.LASF301
 7980 1432 01       		.byte	0x1
 7981 1433 60       		.byte	0x60
 7982 1434 58140000 		.4byte	0x1458
ARM GAS  C:\Users\jo\AppData\Local\Temp\cc6wN9Ut.s 			page 143


 7983 1438 10       		.byte	0x10
 7984 1439 07       		.uleb128 0x7
 7985 143a F3090000 		.4byte	.LASF302
 7986 143e 01       		.byte	0x1
 7987 143f 62       		.byte	0x62
 7988 1440 25000000 		.4byte	0x25
 7989 1444 14       		.byte	0x14
 7990 1445 12       		.uleb128 0x12
 7991 1446 73656D00 		.ascii	"sem\000"
 7992 144a 01       		.byte	0x1
 7993 144b 64       		.byte	0x64
 7994 144c 700B0000 		.4byte	0xb70
 7995 1450 18       		.byte	0x18
 7996 1451 00       		.byte	0
 7997 1452 0A       		.uleb128 0xa
 7998 1453 04       		.byte	0x4
 7999 1454 F1130000 		.4byte	0x13f1
 8000 1458 0A       		.uleb128 0xa
 8001 1459 04       		.byte	0x4
 8002 145a DC080000 		.4byte	0x8dc
 8003 145e 06       		.uleb128 0x6
 8004 145f 1C070000 		.4byte	.LASF303
 8005 1463 1C       		.byte	0x1c
 8006 1464 01       		.byte	0x1
 8007 1465 69       		.byte	0x69
 8008 1466 BD140000 		.4byte	0x14bd
 8009 146a 07       		.uleb128 0x7
 8010 146b E2030000 		.4byte	.LASF304
 8011 146f 01       		.byte	0x1
 8012 1470 6B       		.byte	0x6b
 8013 1471 BD140000 		.4byte	0x14bd
 8014 1475 00       		.byte	0
 8015 1476 12       		.uleb128 0x12
 8016 1477 7300     		.ascii	"s\000"
 8017 1479 01       		.byte	0x1
 8018 147a 6E       		.byte	0x6e
 8019 147b 25000000 		.4byte	0x25
 8020 147f 04       		.byte	0x4
 8021 1480 07       		.uleb128 0x7
 8022 1481 A9100000 		.4byte	.LASF305
 8023 1485 01       		.byte	0x1
 8024 1486 71       		.byte	0x71
 8025 1487 25000000 		.4byte	0x25
 8026 148b 08       		.byte	0x8
 8027 148c 07       		.uleb128 0x7
 8028 148d 40120000 		.4byte	.LASF306
 8029 1491 01       		.byte	0x1
 8030 1492 73       		.byte	0x73
 8031 1493 25000000 		.4byte	0x25
 8032 1497 0C       		.byte	0xc
 8033 1498 07       		.uleb128 0x7
 8034 1499 150E0000 		.4byte	.LASF307
 8035 149d 01       		.byte	0x1
 8036 149e 76       		.byte	0x76
 8037 149f 64030000 		.4byte	0x364
 8038 14a3 10       		.byte	0x10
 8039 14a4 07       		.uleb128 0x7
ARM GAS  C:\Users\jo\AppData\Local\Temp\cc6wN9Ut.s 			page 144


 8040 14a5 250F0000 		.4byte	.LASF308
 8041 14a9 01       		.byte	0x1
 8042 14aa 78       		.byte	0x78
 8043 14ab C3140000 		.4byte	0x14c3
 8044 14af 14       		.byte	0x14
 8045 14b0 12       		.uleb128 0x12
 8046 14b1 65727200 		.ascii	"err\000"
 8047 14b5 01       		.byte	0x1
 8048 14b6 7A       		.byte	0x7a
 8049 14b7 C30A0000 		.4byte	0xac3
 8050 14bb 18       		.byte	0x18
 8051 14bc 00       		.byte	0
 8052 14bd 0A       		.uleb128 0xa
 8053 14be 04       		.byte	0x4
 8054 14bf 84130000 		.4byte	0x1384
 8055 14c3 0A       		.uleb128 0xa
 8056 14c4 04       		.byte	0x4
 8057 14c5 900A0000 		.4byte	0xa90
 8058 14c9 21       		.uleb128 0x21
 8059 14ca E6120000 		.4byte	.LASF310
 8060 14ce 01       		.byte	0x1
 8061 14cf C3       		.byte	0xc3
 8062 14d0 BD140000 		.4byte	0x14bd
 8063 14d4 01       		.byte	0x1
 8064 14d5 EE140000 		.4byte	0x14ee
 8065 14d9 22       		.uleb128 0x22
 8066 14da 7300     		.ascii	"s\000"
 8067 14dc 01       		.byte	0x1
 8068 14dd C3       		.byte	0xc3
 8069 14de 25000000 		.4byte	0x25
 8070 14e2 23       		.uleb128 0x23
 8071 14e3 E2030000 		.4byte	.LASF304
 8072 14e7 01       		.byte	0x1
 8073 14e8 C5       		.byte	0xc5
 8074 14e9 BD140000 		.4byte	0x14bd
 8075 14ed 00       		.byte	0
 8076 14ee 24       		.uleb128 0x24
 8077 14ef 5D0A0000 		.4byte	.LASF347
 8078 14f3 03       		.byte	0x3
 8079 14f4 9E01     		.2byte	0x19e
 8080 14f6 03       		.byte	0x3
 8081 14f7 08150000 		.4byte	0x1508
 8082 14fb 25       		.uleb128 0x25
 8083 14fc 38050000 		.4byte	.LASF309
 8084 1500 03       		.byte	0x3
 8085 1501 9E01     		.2byte	0x19e
 8086 1503 F4060000 		.4byte	0x6f4
 8087 1507 00       		.byte	0
 8088 1508 21       		.uleb128 0x21
 8089 1509 5C050000 		.4byte	.LASF311
 8090 150d 01       		.byte	0x1
 8091 150e DF       		.byte	0xdf
 8092 150f BD140000 		.4byte	0x14bd
 8093 1513 01       		.byte	0x1
 8094 1514 22150000 		.4byte	0x1522
 8095 1518 22       		.uleb128 0x22
 8096 1519 7300     		.ascii	"s\000"
ARM GAS  C:\Users\jo\AppData\Local\Temp\cc6wN9Ut.s 			page 145


 8097 151b 01       		.byte	0x1
 8098 151c DF       		.byte	0xdf
 8099 151d 25000000 		.4byte	0x25
 8100 1521 00       		.byte	0
 8101 1522 21       		.uleb128 0x21
 8102 1523 00080000 		.4byte	.LASF312
 8103 1527 02       		.byte	0x2
 8104 1528 45       		.byte	0x45
 8105 1529 25000000 		.4byte	0x25
 8106 152d 03       		.byte	0x3
 8107 152e 5F150000 		.4byte	0x155f
 8108 1532 22       		.uleb128 0x22
 8109 1533 63687000 		.ascii	"chp\000"
 8110 1537 02       		.byte	0x2
 8111 1538 45       		.byte	0x45
 8112 1539 5F150000 		.4byte	0x155f
 8113 153d 22       		.uleb128 0x22
 8114 153e 666D7400 		.ascii	"fmt\000"
 8115 1542 02       		.byte	0x2
 8116 1543 45       		.byte	0x45
 8117 1544 F4060000 		.4byte	0x6f4
 8118 1548 26       		.uleb128 0x26
 8119 1549 27       		.uleb128 0x27
 8120 154a 617000   		.ascii	"ap\000"
 8121 154d 02       		.byte	0x2
 8122 154e 46       		.byte	0x46
 8123 154f 71090000 		.4byte	0x971
 8124 1553 23       		.uleb128 0x23
 8125 1554 61120000 		.4byte	.LASF313
 8126 1558 02       		.byte	0x2
 8127 1559 47       		.byte	0x47
 8128 155a 25000000 		.4byte	0x25
 8129 155e 00       		.byte	0
 8130 155f 0A       		.uleb128 0xa
 8131 1560 04       		.byte	0x4
 8132 1561 80080000 		.4byte	0x880
 8133 1565 28       		.uleb128 0x28
 8134 1566 01040000 		.4byte	.LASF316
 8135 156a 01       		.byte	0x1
 8136 156b F3       		.byte	0xf3
 8137 156c 25000000 		.4byte	0x25
 8138 1570 00000000 		.4byte	.LFB263
 8139 1574 54000000 		.4byte	.LFE263-.LFB263
 8140 1578 01       		.uleb128 0x1
 8141 1579 9C       		.byte	0x9c
 8142 157a AA150000 		.4byte	0x15aa
 8143 157e 29       		.uleb128 0x29
 8144 157f 3C110000 		.4byte	.LASF314
 8145 1583 01       		.byte	0x1
 8146 1584 F3       		.byte	0xf3
 8147 1585 400C0000 		.4byte	0xc40
 8148 1589 00000000 		.4byte	.LLST0
 8149 158d 29       		.uleb128 0x29
 8150 158e 0D000000 		.4byte	.LASF315
 8151 1592 01       		.byte	0x1
 8152 1593 F3       		.byte	0xf3
 8153 1594 25000000 		.4byte	0x25
ARM GAS  C:\Users\jo\AppData\Local\Temp\cc6wN9Ut.s 			page 146


 8154 1598 38000000 		.4byte	.LLST1
 8155 159c 2A       		.uleb128 0x2a
 8156 159d 6900     		.ascii	"i\000"
 8157 159f 01       		.byte	0x1
 8158 15a0 F5       		.byte	0xf5
 8159 15a1 25000000 		.4byte	0x25
 8160 15a5 8B000000 		.4byte	.LLST2
 8161 15a9 00       		.byte	0
 8162 15aa 2B       		.uleb128 0x2b
 8163 15ab 48120000 		.4byte	.LASF317
 8164 15af 01       		.byte	0x1
 8165 15b0 8805     		.2byte	0x588
 8166 15b2 25000000 		.4byte	0x25
 8167 15b6 00000000 		.4byte	.LFB281
 8168 15ba 98000000 		.4byte	.LFE281-.LFB281
 8169 15be 01       		.uleb128 0x1
 8170 15bf 9C       		.byte	0x9c
 8171 15c0 93160000 		.4byte	0x1693
 8172 15c4 2C       		.uleb128 0x2c
 8173 15c5 7300     		.ascii	"s\000"
 8174 15c7 01       		.byte	0x1
 8175 15c8 8805     		.2byte	0x588
 8176 15ca 25000000 		.4byte	0x25
 8177 15ce B7000000 		.4byte	.LLST3
 8178 15d2 2D       		.uleb128 0x2d
 8179 15d3 26000000 		.4byte	.LASF318
 8180 15d7 01       		.byte	0x1
 8181 15d8 8805     		.2byte	0x588
 8182 15da 93160000 		.4byte	0x1693
 8183 15de 20010000 		.4byte	.LLST4
 8184 15e2 2D       		.uleb128 0x2d
 8185 15e3 45080000 		.4byte	.LASF319
 8186 15e7 01       		.byte	0x1
 8187 15e8 8805     		.2byte	0x588
 8188 15ea C3140000 		.4byte	0x14c3
 8189 15ee 62010000 		.4byte	.LLST5
 8190 15f2 2D       		.uleb128 0x2d
 8191 15f3 6E020000 		.4byte	.LASF285
 8192 15f7 01       		.byte	0x1
 8193 15f8 8805     		.2byte	0x588
 8194 15fa 7C090000 		.4byte	0x97c
 8195 15fe A4010000 		.4byte	.LLST6
 8196 1602 2E       		.uleb128 0x2e
 8197 1603 E2030000 		.4byte	.LASF304
 8198 1607 01       		.byte	0x1
 8199 1608 8A05     		.2byte	0x58a
 8200 160a BD140000 		.4byte	0x14bd
 8201 160e 2F       		.uleb128 0x2f
 8202 160f 73696E00 		.ascii	"sin\000"
 8203 1613 01       		.byte	0x1
 8204 1614 8B05     		.2byte	0x58b
 8205 1616 060A0000 		.4byte	0xa06
 8206 161a 02       		.uleb128 0x2
 8207 161b 91       		.byte	0x91
 8208 161c 50       		.sleb128 -48
 8209 161d 30       		.uleb128 0x30
 8210 161e 6E110000 		.4byte	.LASF320
ARM GAS  C:\Users\jo\AppData\Local\Temp\cc6wN9Ut.s 			page 147


 8211 1622 01       		.byte	0x1
 8212 1623 8C05     		.2byte	0x58c
 8213 1625 E2090000 		.4byte	0x9e2
 8214 1629 02       		.uleb128 0x2
 8215 162a 91       		.byte	0x91
 8216 162b 4C       		.sleb128 -52
 8217 162c 31       		.uleb128 0x31
 8218 162d C9140000 		.4byte	0x14c9
 8219 1631 00000000 		.4byte	.LBB106
 8220 1635 00000000 		.4byte	.Ldebug_ranges0+0
 8221 1639 01       		.byte	0x1
 8222 163a 8E05     		.2byte	0x58e
 8223 163c 59160000 		.4byte	0x1659
 8224 1640 32       		.uleb128 0x32
 8225 1641 D9140000 		.4byte	0x14d9
 8226 1645 B7000000 		.4byte	.LLST3
 8227 1649 33       		.uleb128 0x33
 8228 164a 00000000 		.4byte	.Ldebug_ranges0+0
 8229 164e 34       		.uleb128 0x34
 8230 164f E2140000 		.4byte	0x14e2
 8231 1653 D0010000 		.4byte	.LLST8
 8232 1657 00       		.byte	0
 8233 1658 00       		.byte	0
 8234 1659 35       		.uleb128 0x35
 8235 165a 54000000 		.4byte	.LVL15
 8236 165e 87380000 		.4byte	0x3887
 8237 1662 73160000 		.4byte	0x1673
 8238 1666 36       		.uleb128 0x36
 8239 1667 01       		.uleb128 0x1
 8240 1668 52       		.byte	0x52
 8241 1669 02       		.uleb128 0x2
 8242 166a 91       		.byte	0x91
 8243 166b 52       		.sleb128 -46
 8244 166c 36       		.uleb128 0x36
 8245 166d 01       		.uleb128 0x1
 8246 166e 51       		.byte	0x51
 8247 166f 02       		.uleb128 0x2
 8248 1670 91       		.byte	0x91
 8249 1671 4C       		.sleb128 -52
 8250 1672 00       		.byte	0
 8251 1673 37       		.uleb128 0x37
 8252 1674 5C000000 		.4byte	.LVL16
 8253 1678 AB380000 		.4byte	0x38ab
 8254 167c 38       		.uleb128 0x38
 8255 167d 74000000 		.4byte	.LVL17
 8256 1681 C0380000 		.4byte	0x38c0
 8257 1685 36       		.uleb128 0x36
 8258 1686 01       		.uleb128 0x1
 8259 1687 51       		.byte	0x51
 8260 1688 02       		.uleb128 0x2
 8261 1689 91       		.byte	0x91
 8262 168a 50       		.sleb128 -48
 8263 168b 36       		.uleb128 0x36
 8264 168c 01       		.uleb128 0x1
 8265 168d 50       		.byte	0x50
 8266 168e 02       		.uleb128 0x2
 8267 168f 76       		.byte	0x76
ARM GAS  C:\Users\jo\AppData\Local\Temp\cc6wN9Ut.s 			page 148


 8268 1690 00       		.sleb128 0
 8269 1691 00       		.byte	0
 8270 1692 00       		.byte	0
 8271 1693 0A       		.uleb128 0xa
 8272 1694 04       		.byte	0x4
 8273 1695 4F0A0000 		.4byte	0xa4f
 8274 1699 39       		.uleb128 0x39
 8275 169a 22150000 		.4byte	0x1522
 8276 169e 00000000 		.4byte	.LFB290
 8277 16a2 28000000 		.4byte	.LFE290-.LFB290
 8278 16a6 01       		.uleb128 0x1
 8279 16a7 9C       		.byte	0x9c
 8280 16a8 F8160000 		.4byte	0x16f8
 8281 16ac 32       		.uleb128 0x32
 8282 16ad 32150000 		.4byte	0x1532
 8283 16b1 58020000 		.4byte	.LLST9
 8284 16b5 3A       		.uleb128 0x3a
 8285 16b6 3D150000 		.4byte	0x153d
 8286 16ba 02       		.uleb128 0x2
 8287 16bb 91       		.byte	0x91
 8288 16bc 74       		.sleb128 -12
 8289 16bd 26       		.uleb128 0x26
 8290 16be 3B       		.uleb128 0x3b
 8291 16bf 49150000 		.4byte	0x1549
 8292 16c3 02       		.uleb128 0x2
 8293 16c4 91       		.byte	0x91
 8294 16c5 6C       		.sleb128 -20
 8295 16c6 3B       		.uleb128 0x3b
 8296 16c7 53150000 		.4byte	0x1553
 8297 16cb 01       		.uleb128 0x1
 8298 16cc 50       		.byte	0x50
 8299 16cd 3A       		.uleb128 0x3a
 8300 16ce 3D150000 		.4byte	0x153d
 8301 16d2 06       		.uleb128 0x6
 8302 16d3 03       		.byte	0x3
 8303 16d4 00000000 		.4byte	.LC0
 8304 16d8 9F       		.byte	0x9f
 8305 16d9 3C       		.uleb128 0x3c
 8306 16da 32150000 		.4byte	0x1532
 8307 16de 38       		.uleb128 0x38
 8308 16df 14000000 		.4byte	.LVL24
 8309 16e3 DD380000 		.4byte	0x38dd
 8310 16e7 36       		.uleb128 0x36
 8311 16e8 01       		.uleb128 0x1
 8312 16e9 52       		.byte	0x52
 8313 16ea 02       		.uleb128 0x2
 8314 16eb 91       		.byte	0x91
 8315 16ec 60       		.sleb128 -32
 8316 16ed 36       		.uleb128 0x36
 8317 16ee 01       		.uleb128 0x1
 8318 16ef 51       		.byte	0x51
 8319 16f0 05       		.uleb128 0x5
 8320 16f1 03       		.byte	0x3
 8321 16f2 00000000 		.4byte	.LC0
 8322 16f6 00       		.byte	0
 8323 16f7 00       		.byte	0
 8324 16f8 3D       		.uleb128 0x3d
ARM GAS  C:\Users\jo\AppData\Local\Temp\cc6wN9Ut.s 			page 149


 8325 16f9 250C0000 		.4byte	.LASF322
 8326 16fd 01       		.byte	0x1
 8327 16fe 2008     		.2byte	0x820
 8328 1700 00000000 		.4byte	.LFB287
 8329 1704 80010000 		.4byte	.LFE287-.LFB287
 8330 1708 01       		.uleb128 0x1
 8331 1709 9C       		.byte	0x9c
 8332 170a 6C190000 		.4byte	0x196c
 8333 170e 2C       		.uleb128 0x2c
 8334 170f 61726700 		.ascii	"arg\000"
 8335 1713 01       		.byte	0x1
 8336 1714 2008     		.2byte	0x820
 8337 1716 64030000 		.4byte	0x364
 8338 171a 79020000 		.4byte	.LLST10
 8339 171e 3E       		.uleb128 0x3e
 8340 171f E2030000 		.4byte	.LASF304
 8341 1723 01       		.byte	0x1
 8342 1724 2208     		.2byte	0x822
 8343 1726 BD140000 		.4byte	0x14bd
 8344 172a C9020000 		.4byte	.LLST11
 8345 172e 3F       		.uleb128 0x3f
 8346 172f 7300     		.ascii	"s\000"
 8347 1731 01       		.byte	0x1
 8348 1732 2408     		.2byte	0x824
 8349 1734 25000000 		.4byte	0x25
 8350 1738 F2020000 		.4byte	.LLST12
 8351 173c 3E       		.uleb128 0x3e
 8352 173d A9100000 		.4byte	.LASF305
 8353 1741 01       		.byte	0x1
 8354 1742 2608     		.2byte	0x826
 8355 1744 25000000 		.4byte	0x25
 8356 1748 C9030000 		.4byte	.LLST13
 8357 174c 3E       		.uleb128 0x3e
 8358 174d 40120000 		.4byte	.LASF306
 8359 1751 01       		.byte	0x1
 8360 1752 2608     		.2byte	0x826
 8361 1754 25000000 		.4byte	0x25
 8362 1758 DD040000 		.4byte	.LLST14
 8363 175c 3E       		.uleb128 0x3e
 8364 175d 150E0000 		.4byte	.LASF307
 8365 1761 01       		.byte	0x1
 8366 1762 2708     		.2byte	0x827
 8367 1764 FD100000 		.4byte	0x10fd
 8368 1768 FB050000 		.4byte	.LLST15
 8369 176c 3E       		.uleb128 0x3e
 8370 176d AE080000 		.4byte	.LASF321
 8371 1771 01       		.byte	0x1
 8372 1772 2808     		.2byte	0x828
 8373 1774 6C190000 		.4byte	0x196c
 8374 1778 24060000 		.4byte	.LLST16
 8375 177c 40       		.uleb128 0x40
 8376 177d EE140000 		.4byte	0x14ee
 8377 1781 34000000 		.4byte	.LBB112
 8378 1785 08000000 		.4byte	.LBE112-.LBB112
 8379 1789 01       		.byte	0x1
 8380 178a EA08     		.2byte	0x8ea
 8381 178c AD170000 		.4byte	0x17ad
ARM GAS  C:\Users\jo\AppData\Local\Temp\cc6wN9Ut.s 			page 150


 8382 1790 32       		.uleb128 0x32
 8383 1791 FB140000 		.4byte	0x14fb
 8384 1795 53060000 		.4byte	.LLST17
 8385 1799 38       		.uleb128 0x38
 8386 179a 3A000000 		.4byte	.LVL34
 8387 179e FC380000 		.4byte	0x38fc
 8388 17a2 36       		.uleb128 0x36
 8389 17a3 01       		.uleb128 0x1
 8390 17a4 50       		.byte	0x50
 8391 17a5 05       		.uleb128 0x5
 8392 17a6 03       		.byte	0x3
 8393 17a7 6C000000 		.4byte	.LC4
 8394 17ab 00       		.byte	0
 8395 17ac 00       		.byte	0
 8396 17ad 40       		.uleb128 0x40
 8397 17ae EE140000 		.4byte	0x14ee
 8398 17b2 7E000000 		.4byte	.LBB114
 8399 17b6 0A000000 		.4byte	.LBE114-.LBB114
 8400 17ba 01       		.byte	0x1
 8401 17bb 6708     		.2byte	0x867
 8402 17bd DE170000 		.4byte	0x17de
 8403 17c1 32       		.uleb128 0x32
 8404 17c2 FB140000 		.4byte	0x14fb
 8405 17c6 6B060000 		.4byte	.LLST18
 8406 17ca 38       		.uleb128 0x38
 8407 17cb 84000000 		.4byte	.LVL46
 8408 17cf FC380000 		.4byte	0x38fc
 8409 17d3 36       		.uleb128 0x36
 8410 17d4 01       		.uleb128 0x1
 8411 17d5 50       		.byte	0x50
 8412 17d6 05       		.uleb128 0x5
 8413 17d7 03       		.byte	0x3
 8414 17d8 58000000 		.4byte	.LC3
 8415 17dc 00       		.byte	0
 8416 17dd 00       		.byte	0
 8417 17de 40       		.uleb128 0x40
 8418 17df EE140000 		.4byte	0x14ee
 8419 17e3 E6000000 		.4byte	.LBB116
 8420 17e7 0A000000 		.4byte	.LBE116-.LBB116
 8421 17eb 01       		.byte	0x1
 8422 17ec 9C08     		.2byte	0x89c
 8423 17ee 0F180000 		.4byte	0x180f
 8424 17f2 32       		.uleb128 0x32
 8425 17f3 FB140000 		.4byte	0x14fb
 8426 17f7 83060000 		.4byte	.LLST19
 8427 17fb 38       		.uleb128 0x38
 8428 17fc EC000000 		.4byte	.LVL67
 8429 1800 FC380000 		.4byte	0x38fc
 8430 1804 36       		.uleb128 0x36
 8431 1805 01       		.uleb128 0x1
 8432 1806 50       		.byte	0x50
 8433 1807 05       		.uleb128 0x5
 8434 1808 03       		.byte	0x3
 8435 1809 58000000 		.4byte	.LC3
 8436 180d 00       		.byte	0
 8437 180e 00       		.byte	0
 8438 180f 40       		.uleb128 0x40
ARM GAS  C:\Users\jo\AppData\Local\Temp\cc6wN9Ut.s 			page 151


 8439 1810 EE140000 		.4byte	0x14ee
 8440 1814 14010000 		.4byte	.LBB118
 8441 1818 0A000000 		.4byte	.LBE118-.LBB118
 8442 181c 01       		.byte	0x1
 8443 181d C608     		.2byte	0x8c6
 8444 181f 40180000 		.4byte	0x1840
 8445 1823 32       		.uleb128 0x32
 8446 1824 FB140000 		.4byte	0x14fb
 8447 1828 9B060000 		.4byte	.LLST20
 8448 182c 38       		.uleb128 0x38
 8449 182d 1A010000 		.4byte	.LVL76
 8450 1831 FC380000 		.4byte	0x38fc
 8451 1835 36       		.uleb128 0x36
 8452 1836 01       		.uleb128 0x1
 8453 1837 50       		.byte	0x50
 8454 1838 05       		.uleb128 0x5
 8455 1839 03       		.byte	0x3
 8456 183a 58000000 		.4byte	.LC3
 8457 183e 00       		.byte	0
 8458 183f 00       		.byte	0
 8459 1840 40       		.uleb128 0x40
 8460 1841 EE140000 		.4byte	0x14ee
 8461 1845 30010000 		.4byte	.LBB120
 8462 1849 08000000 		.4byte	.LBE120-.LBB120
 8463 184d 01       		.byte	0x1
 8464 184e 2A08     		.2byte	0x82a
 8465 1850 71180000 		.4byte	0x1871
 8466 1854 32       		.uleb128 0x32
 8467 1855 FB140000 		.4byte	0x14fb
 8468 1859 B3060000 		.4byte	.LLST21
 8469 185d 38       		.uleb128 0x38
 8470 185e 36010000 		.4byte	.LVL80
 8471 1862 FC380000 		.4byte	0x38fc
 8472 1866 36       		.uleb128 0x36
 8473 1867 01       		.uleb128 0x1
 8474 1868 50       		.byte	0x50
 8475 1869 05       		.uleb128 0x5
 8476 186a 03       		.byte	0x3
 8477 186b 28000000 		.4byte	.LC1
 8478 186f 00       		.byte	0
 8479 1870 00       		.byte	0
 8480 1871 35       		.uleb128 0x35
 8481 1872 34000000 		.4byte	.LVL33
 8482 1876 99160000 		.4byte	0x1699
 8483 187a A2180000 		.4byte	0x18a2
 8484 187e 36       		.uleb128 0x36
 8485 187f 01       		.uleb128 0x1
 8486 1880 53       		.byte	0x53
 8487 1881 03       		.uleb128 0x3
 8488 1882 0A       		.byte	0xa
 8489 1883 EA08     		.2byte	0x8ea
 8490 1885 36       		.uleb128 0x36
 8491 1886 01       		.uleb128 0x1
 8492 1887 52       		.byte	0x52
 8493 1888 05       		.uleb128 0x5
 8494 1889 03       		.byte	0x3
 8495 188a 6C000000 		.4byte	.LC4
ARM GAS  C:\Users\jo\AppData\Local\Temp\cc6wN9Ut.s 			page 152


 8496 188e 36       		.uleb128 0x36
 8497 188f 01       		.uleb128 0x1
 8498 1890 51       		.byte	0x51
 8499 1891 05       		.uleb128 0x5
 8500 1892 03       		.byte	0x3
 8501 1893 00000000 		.4byte	.LC0
 8502 1897 36       		.uleb128 0x36
 8503 1898 02       		.uleb128 0x2
 8504 1899 7D       		.byte	0x7d
 8505 189a 00       		.sleb128 0
 8506 189b 05       		.uleb128 0x5
 8507 189c 03       		.byte	0x3
 8508 189d 34000000 		.4byte	.LC2
 8509 18a1 00       		.byte	0
 8510 18a2 41       		.uleb128 0x41
 8511 18a3 48000000 		.4byte	.LVL37
 8512 18a7 0E390000 		.4byte	0x390e
 8513 18ab 35       		.uleb128 0x35
 8514 18ac 7E000000 		.4byte	.LVL45
 8515 18b0 99160000 		.4byte	0x1699
 8516 18b4 DC180000 		.4byte	0x18dc
 8517 18b8 36       		.uleb128 0x36
 8518 18b9 01       		.uleb128 0x1
 8519 18ba 53       		.byte	0x53
 8520 18bb 03       		.uleb128 0x3
 8521 18bc 0A       		.byte	0xa
 8522 18bd 6708     		.2byte	0x867
 8523 18bf 36       		.uleb128 0x36
 8524 18c0 01       		.uleb128 0x1
 8525 18c1 52       		.byte	0x52
 8526 18c2 05       		.uleb128 0x5
 8527 18c3 03       		.byte	0x3
 8528 18c4 58000000 		.4byte	.LC3
 8529 18c8 36       		.uleb128 0x36
 8530 18c9 01       		.uleb128 0x1
 8531 18ca 51       		.byte	0x51
 8532 18cb 05       		.uleb128 0x5
 8533 18cc 03       		.byte	0x3
 8534 18cd 00000000 		.4byte	.LC0
 8535 18d1 36       		.uleb128 0x36
 8536 18d2 02       		.uleb128 0x2
 8537 18d3 7D       		.byte	0x7d
 8538 18d4 00       		.sleb128 0
 8539 18d5 05       		.uleb128 0x5
 8540 18d6 03       		.byte	0x3
 8541 18d7 34000000 		.4byte	.LC2
 8542 18db 00       		.byte	0
 8543 18dc 35       		.uleb128 0x35
 8544 18dd E6000000 		.4byte	.LVL66
 8545 18e1 99160000 		.4byte	0x1699
 8546 18e5 0D190000 		.4byte	0x190d
 8547 18e9 36       		.uleb128 0x36
 8548 18ea 01       		.uleb128 0x1
 8549 18eb 53       		.byte	0x53
 8550 18ec 03       		.uleb128 0x3
 8551 18ed 0A       		.byte	0xa
 8552 18ee 9C08     		.2byte	0x89c
ARM GAS  C:\Users\jo\AppData\Local\Temp\cc6wN9Ut.s 			page 153


 8553 18f0 36       		.uleb128 0x36
 8554 18f1 01       		.uleb128 0x1
 8555 18f2 52       		.byte	0x52
 8556 18f3 05       		.uleb128 0x5
 8557 18f4 03       		.byte	0x3
 8558 18f5 58000000 		.4byte	.LC3
 8559 18f9 36       		.uleb128 0x36
 8560 18fa 01       		.uleb128 0x1
 8561 18fb 51       		.byte	0x51
 8562 18fc 05       		.uleb128 0x5
 8563 18fd 03       		.byte	0x3
 8564 18fe 00000000 		.4byte	.LC0
 8565 1902 36       		.uleb128 0x36
 8566 1903 02       		.uleb128 0x2
 8567 1904 7D       		.byte	0x7d
 8568 1905 00       		.sleb128 0
 8569 1906 05       		.uleb128 0x5
 8570 1907 03       		.byte	0x3
 8571 1908 34000000 		.4byte	.LC2
 8572 190c 00       		.byte	0
 8573 190d 35       		.uleb128 0x35
 8574 190e 14010000 		.4byte	.LVL75
 8575 1912 99160000 		.4byte	0x1699
 8576 1916 3E190000 		.4byte	0x193e
 8577 191a 36       		.uleb128 0x36
 8578 191b 01       		.uleb128 0x1
 8579 191c 53       		.byte	0x53
 8580 191d 03       		.uleb128 0x3
 8581 191e 0A       		.byte	0xa
 8582 191f C608     		.2byte	0x8c6
 8583 1921 36       		.uleb128 0x36
 8584 1922 01       		.uleb128 0x1
 8585 1923 52       		.byte	0x52
 8586 1924 05       		.uleb128 0x5
 8587 1925 03       		.byte	0x3
 8588 1926 58000000 		.4byte	.LC3
 8589 192a 36       		.uleb128 0x36
 8590 192b 01       		.uleb128 0x1
 8591 192c 51       		.byte	0x51
 8592 192d 05       		.uleb128 0x5
 8593 192e 03       		.byte	0x3
 8594 192f 00000000 		.4byte	.LC0
 8595 1933 36       		.uleb128 0x36
 8596 1934 02       		.uleb128 0x2
 8597 1935 7D       		.byte	0x7d
 8598 1936 00       		.sleb128 0
 8599 1937 05       		.uleb128 0x5
 8600 1938 03       		.byte	0x3
 8601 1939 34000000 		.4byte	.LC2
 8602 193d 00       		.byte	0
 8603 193e 38       		.uleb128 0x38
 8604 193f 30010000 		.4byte	.LVL79
 8605 1943 99160000 		.4byte	0x1699
 8606 1947 36       		.uleb128 0x36
 8607 1948 01       		.uleb128 0x1
 8608 1949 53       		.byte	0x53
 8609 194a 03       		.uleb128 0x3
ARM GAS  C:\Users\jo\AppData\Local\Temp\cc6wN9Ut.s 			page 154


 8610 194b 0A       		.byte	0xa
 8611 194c 2A08     		.2byte	0x82a
 8612 194e 36       		.uleb128 0x36
 8613 194f 01       		.uleb128 0x1
 8614 1950 52       		.byte	0x52
 8615 1951 05       		.uleb128 0x5
 8616 1952 03       		.byte	0x3
 8617 1953 28000000 		.4byte	.LC1
 8618 1957 36       		.uleb128 0x36
 8619 1958 01       		.uleb128 0x1
 8620 1959 51       		.byte	0x51
 8621 195a 05       		.uleb128 0x5
 8622 195b 03       		.byte	0x3
 8623 195c 00000000 		.4byte	.LC0
 8624 1960 36       		.uleb128 0x36
 8625 1961 02       		.uleb128 0x2
 8626 1962 7D       		.byte	0x7d
 8627 1963 00       		.sleb128 0
 8628 1964 05       		.uleb128 0x5
 8629 1965 03       		.byte	0x3
 8630 1966 34000000 		.4byte	.LC2
 8631 196a 00       		.byte	0
 8632 196b 00       		.byte	0
 8633 196c 0A       		.uleb128 0xa
 8634 196d 04       		.byte	0x4
 8635 196e 5E140000 		.4byte	0x145e
 8636 1972 3D       		.uleb128 0x3d
 8637 1973 52070000 		.4byte	.LASF323
 8638 1977 01       		.byte	0x1
 8639 1978 7F06     		.2byte	0x67f
 8640 197a 00000000 		.4byte	.LFB285
 8641 197e A4010000 		.4byte	.LFE285-.LFB285
 8642 1982 01       		.uleb128 0x1
 8643 1983 9C       		.byte	0x9c
 8644 1984 E61B0000 		.4byte	0x1be6
 8645 1988 2C       		.uleb128 0x2c
 8646 1989 61726700 		.ascii	"arg\000"
 8647 198d 01       		.byte	0x1
 8648 198e 7F06     		.2byte	0x67f
 8649 1990 64030000 		.4byte	0x364
 8650 1994 CB060000 		.4byte	.LLST22
 8651 1998 3E       		.uleb128 0x3e
 8652 1999 E2030000 		.4byte	.LASF304
 8653 199d 01       		.byte	0x1
 8654 199e 8106     		.2byte	0x681
 8655 19a0 BD140000 		.4byte	0x14bd
 8656 19a4 18070000 		.4byte	.LLST23
 8657 19a8 3F       		.uleb128 0x3f
 8658 19a9 7300     		.ascii	"s\000"
 8659 19ab 01       		.byte	0x1
 8660 19ac 8306     		.2byte	0x683
 8661 19ae 25000000 		.4byte	0x25
 8662 19b2 41070000 		.4byte	.LLST24
 8663 19b6 3E       		.uleb128 0x3e
 8664 19b7 A9100000 		.4byte	.LASF305
 8665 19bb 01       		.byte	0x1
 8666 19bc 8506     		.2byte	0x685
ARM GAS  C:\Users\jo\AppData\Local\Temp\cc6wN9Ut.s 			page 155


 8667 19be 25000000 		.4byte	0x25
 8668 19c2 FD070000 		.4byte	.LLST25
 8669 19c6 3E       		.uleb128 0x3e
 8670 19c7 40120000 		.4byte	.LASF306
 8671 19cb 01       		.byte	0x1
 8672 19cc 8506     		.2byte	0x685
 8673 19ce 25000000 		.4byte	0x25
 8674 19d2 1C090000 		.4byte	.LLST26
 8675 19d6 3E       		.uleb128 0x3e
 8676 19d7 150E0000 		.4byte	.LASF307
 8677 19db 01       		.byte	0x1
 8678 19dc 8606     		.2byte	0x686
 8679 19de 64030000 		.4byte	0x364
 8680 19e2 C4090000 		.4byte	.LLST27
 8681 19e6 3E       		.uleb128 0x3e
 8682 19e7 AE080000 		.4byte	.LASF321
 8683 19eb 01       		.byte	0x1
 8684 19ec 8706     		.2byte	0x687
 8685 19ee 6C190000 		.4byte	0x196c
 8686 19f2 030A0000 		.4byte	.LLST28
 8687 19f6 40       		.uleb128 0x40
 8688 19f7 EE140000 		.4byte	0x14ee
 8689 19fb 34000000 		.4byte	.LBB122
 8690 19ff 08000000 		.4byte	.LBE122-.LBB122
 8691 1a03 01       		.byte	0x1
 8692 1a04 4807     		.2byte	0x748
 8693 1a06 271A0000 		.4byte	0x1a27
 8694 1a0a 32       		.uleb128 0x32
 8695 1a0b FB140000 		.4byte	0x14fb
 8696 1a0f 3A0A0000 		.4byte	.LLST29
 8697 1a13 38       		.uleb128 0x38
 8698 1a14 3A000000 		.4byte	.LVL100
 8699 1a18 FC380000 		.4byte	0x38fc
 8700 1a1c 36       		.uleb128 0x36
 8701 1a1d 01       		.uleb128 0x1
 8702 1a1e 50       		.byte	0x50
 8703 1a1f 05       		.uleb128 0x5
 8704 1a20 03       		.byte	0x3
 8705 1a21 6C000000 		.4byte	.LC4
 8706 1a25 00       		.byte	0
 8707 1a26 00       		.byte	0
 8708 1a27 40       		.uleb128 0x40
 8709 1a28 EE140000 		.4byte	0x14ee
 8710 1a2c 8A000000 		.4byte	.LBB124
 8711 1a30 0A000000 		.4byte	.LBE124-.LBB124
 8712 1a34 01       		.byte	0x1
 8713 1a35 E006     		.2byte	0x6e0
 8714 1a37 581A0000 		.4byte	0x1a58
 8715 1a3b 32       		.uleb128 0x32
 8716 1a3c FB140000 		.4byte	0x14fb
 8717 1a40 520A0000 		.4byte	.LLST30
 8718 1a44 38       		.uleb128 0x38
 8719 1a45 90000000 		.4byte	.LVL112
 8720 1a49 FC380000 		.4byte	0x38fc
 8721 1a4d 36       		.uleb128 0x36
 8722 1a4e 01       		.uleb128 0x1
 8723 1a4f 50       		.byte	0x50
ARM GAS  C:\Users\jo\AppData\Local\Temp\cc6wN9Ut.s 			page 156


 8724 1a50 05       		.uleb128 0x5
 8725 1a51 03       		.byte	0x3
 8726 1a52 58000000 		.4byte	.LC3
 8727 1a56 00       		.byte	0
 8728 1a57 00       		.byte	0
 8729 1a58 40       		.uleb128 0x40
 8730 1a59 EE140000 		.4byte	0x14ee
 8731 1a5d 0A010000 		.4byte	.LBB126
 8732 1a61 0A000000 		.4byte	.LBE126-.LBB126
 8733 1a65 01       		.byte	0x1
 8734 1a66 2E07     		.2byte	0x72e
 8735 1a68 891A0000 		.4byte	0x1a89
 8736 1a6c 32       		.uleb128 0x32
 8737 1a6d FB140000 		.4byte	0x14fb
 8738 1a71 6A0A0000 		.4byte	.LLST31
 8739 1a75 38       		.uleb128 0x38
 8740 1a76 10010000 		.4byte	.LVL136
 8741 1a7a FC380000 		.4byte	0x38fc
 8742 1a7e 36       		.uleb128 0x36
 8743 1a7f 01       		.uleb128 0x1
 8744 1a80 50       		.byte	0x50
 8745 1a81 05       		.uleb128 0x5
 8746 1a82 03       		.byte	0x3
 8747 1a83 58000000 		.4byte	.LC3
 8748 1a87 00       		.byte	0
 8749 1a88 00       		.byte	0
 8750 1a89 40       		.uleb128 0x40
 8751 1a8a EE140000 		.4byte	0x14ee
 8752 1a8e 26010000 		.4byte	.LBB128
 8753 1a92 0A000000 		.4byte	.LBE128-.LBB128
 8754 1a96 01       		.byte	0x1
 8755 1a97 0807     		.2byte	0x708
 8756 1a99 BA1A0000 		.4byte	0x1aba
 8757 1a9d 32       		.uleb128 0x32
 8758 1a9e FB140000 		.4byte	0x14fb
 8759 1aa2 820A0000 		.4byte	.LLST32
 8760 1aa6 38       		.uleb128 0x38
 8761 1aa7 2C010000 		.4byte	.LVL143
 8762 1aab FC380000 		.4byte	0x38fc
 8763 1aaf 36       		.uleb128 0x36
 8764 1ab0 01       		.uleb128 0x1
 8765 1ab1 50       		.byte	0x50
 8766 1ab2 05       		.uleb128 0x5
 8767 1ab3 03       		.byte	0x3
 8768 1ab4 58000000 		.4byte	.LC3
 8769 1ab8 00       		.byte	0
 8770 1ab9 00       		.byte	0
 8771 1aba 40       		.uleb128 0x40
 8772 1abb EE140000 		.4byte	0x14ee
 8773 1abf 42010000 		.4byte	.LBB130
 8774 1ac3 08000000 		.4byte	.LBE130-.LBB130
 8775 1ac7 01       		.byte	0x1
 8776 1ac8 8906     		.2byte	0x689
 8777 1aca EB1A0000 		.4byte	0x1aeb
 8778 1ace 32       		.uleb128 0x32
 8779 1acf FB140000 		.4byte	0x14fb
 8780 1ad3 9A0A0000 		.4byte	.LLST33
ARM GAS  C:\Users\jo\AppData\Local\Temp\cc6wN9Ut.s 			page 157


 8781 1ad7 38       		.uleb128 0x38
 8782 1ad8 48010000 		.4byte	.LVL147
 8783 1adc FC380000 		.4byte	0x38fc
 8784 1ae0 36       		.uleb128 0x36
 8785 1ae1 01       		.uleb128 0x1
 8786 1ae2 50       		.byte	0x50
 8787 1ae3 05       		.uleb128 0x5
 8788 1ae4 03       		.byte	0x3
 8789 1ae5 28000000 		.4byte	.LC1
 8790 1ae9 00       		.byte	0
 8791 1aea 00       		.byte	0
 8792 1aeb 35       		.uleb128 0x35
 8793 1aec 34000000 		.4byte	.LVL99
 8794 1af0 99160000 		.4byte	0x1699
 8795 1af4 1C1B0000 		.4byte	0x1b1c
 8796 1af8 36       		.uleb128 0x36
 8797 1af9 01       		.uleb128 0x1
 8798 1afa 53       		.byte	0x53
 8799 1afb 03       		.uleb128 0x3
 8800 1afc 0A       		.byte	0xa
 8801 1afd 4807     		.2byte	0x748
 8802 1aff 36       		.uleb128 0x36
 8803 1b00 01       		.uleb128 0x1
 8804 1b01 52       		.byte	0x52
 8805 1b02 05       		.uleb128 0x5
 8806 1b03 03       		.byte	0x3
 8807 1b04 6C000000 		.4byte	.LC4
 8808 1b08 36       		.uleb128 0x36
 8809 1b09 01       		.uleb128 0x1
 8810 1b0a 51       		.byte	0x51
 8811 1b0b 05       		.uleb128 0x5
 8812 1b0c 03       		.byte	0x3
 8813 1b0d 00000000 		.4byte	.LC0
 8814 1b11 36       		.uleb128 0x36
 8815 1b12 02       		.uleb128 0x2
 8816 1b13 7D       		.byte	0x7d
 8817 1b14 00       		.sleb128 0
 8818 1b15 05       		.uleb128 0x5
 8819 1b16 03       		.byte	0x3
 8820 1b17 34000000 		.4byte	.LC2
 8821 1b1b 00       		.byte	0
 8822 1b1c 41       		.uleb128 0x41
 8823 1b1d 48000000 		.4byte	.LVL103
 8824 1b21 0E390000 		.4byte	0x390e
 8825 1b25 35       		.uleb128 0x35
 8826 1b26 8A000000 		.4byte	.LVL111
 8827 1b2a 99160000 		.4byte	0x1699
 8828 1b2e 561B0000 		.4byte	0x1b56
 8829 1b32 36       		.uleb128 0x36
 8830 1b33 01       		.uleb128 0x1
 8831 1b34 53       		.byte	0x53
 8832 1b35 03       		.uleb128 0x3
 8833 1b36 0A       		.byte	0xa
 8834 1b37 E006     		.2byte	0x6e0
 8835 1b39 36       		.uleb128 0x36
 8836 1b3a 01       		.uleb128 0x1
 8837 1b3b 52       		.byte	0x52
ARM GAS  C:\Users\jo\AppData\Local\Temp\cc6wN9Ut.s 			page 158


 8838 1b3c 05       		.uleb128 0x5
 8839 1b3d 03       		.byte	0x3
 8840 1b3e 58000000 		.4byte	.LC3
 8841 1b42 36       		.uleb128 0x36
 8842 1b43 01       		.uleb128 0x1
 8843 1b44 51       		.byte	0x51
 8844 1b45 05       		.uleb128 0x5
 8845 1b46 03       		.byte	0x3
 8846 1b47 00000000 		.4byte	.LC0
 8847 1b4b 36       		.uleb128 0x36
 8848 1b4c 02       		.uleb128 0x2
 8849 1b4d 7D       		.byte	0x7d
 8850 1b4e 00       		.sleb128 0
 8851 1b4f 05       		.uleb128 0x5
 8852 1b50 03       		.byte	0x3
 8853 1b51 34000000 		.4byte	.LC2
 8854 1b55 00       		.byte	0
 8855 1b56 35       		.uleb128 0x35
 8856 1b57 0A010000 		.4byte	.LVL135
 8857 1b5b 99160000 		.4byte	0x1699
 8858 1b5f 871B0000 		.4byte	0x1b87
 8859 1b63 36       		.uleb128 0x36
 8860 1b64 01       		.uleb128 0x1
 8861 1b65 53       		.byte	0x53
 8862 1b66 03       		.uleb128 0x3
 8863 1b67 0A       		.byte	0xa
 8864 1b68 2E07     		.2byte	0x72e
 8865 1b6a 36       		.uleb128 0x36
 8866 1b6b 01       		.uleb128 0x1
 8867 1b6c 52       		.byte	0x52
 8868 1b6d 05       		.uleb128 0x5
 8869 1b6e 03       		.byte	0x3
 8870 1b6f 58000000 		.4byte	.LC3
 8871 1b73 36       		.uleb128 0x36
 8872 1b74 01       		.uleb128 0x1
 8873 1b75 51       		.byte	0x51
 8874 1b76 05       		.uleb128 0x5
 8875 1b77 03       		.byte	0x3
 8876 1b78 00000000 		.4byte	.LC0
 8877 1b7c 36       		.uleb128 0x36
 8878 1b7d 02       		.uleb128 0x2
 8879 1b7e 7D       		.byte	0x7d
 8880 1b7f 00       		.sleb128 0
 8881 1b80 05       		.uleb128 0x5
 8882 1b81 03       		.byte	0x3
 8883 1b82 34000000 		.4byte	.LC2
 8884 1b86 00       		.byte	0
 8885 1b87 35       		.uleb128 0x35
 8886 1b88 26010000 		.4byte	.LVL142
 8887 1b8c 99160000 		.4byte	0x1699
 8888 1b90 B81B0000 		.4byte	0x1bb8
 8889 1b94 36       		.uleb128 0x36
 8890 1b95 01       		.uleb128 0x1
 8891 1b96 53       		.byte	0x53
 8892 1b97 03       		.uleb128 0x3
 8893 1b98 0A       		.byte	0xa
 8894 1b99 0807     		.2byte	0x708
ARM GAS  C:\Users\jo\AppData\Local\Temp\cc6wN9Ut.s 			page 159


 8895 1b9b 36       		.uleb128 0x36
 8896 1b9c 01       		.uleb128 0x1
 8897 1b9d 52       		.byte	0x52
 8898 1b9e 05       		.uleb128 0x5
 8899 1b9f 03       		.byte	0x3
 8900 1ba0 58000000 		.4byte	.LC3
 8901 1ba4 36       		.uleb128 0x36
 8902 1ba5 01       		.uleb128 0x1
 8903 1ba6 51       		.byte	0x51
 8904 1ba7 05       		.uleb128 0x5
 8905 1ba8 03       		.byte	0x3
 8906 1ba9 00000000 		.4byte	.LC0
 8907 1bad 36       		.uleb128 0x36
 8908 1bae 02       		.uleb128 0x2
 8909 1baf 7D       		.byte	0x7d
 8910 1bb0 00       		.sleb128 0
 8911 1bb1 05       		.uleb128 0x5
 8912 1bb2 03       		.byte	0x3
 8913 1bb3 34000000 		.4byte	.LC2
 8914 1bb7 00       		.byte	0
 8915 1bb8 38       		.uleb128 0x38
 8916 1bb9 42010000 		.4byte	.LVL146
 8917 1bbd 99160000 		.4byte	0x1699
 8918 1bc1 36       		.uleb128 0x36
 8919 1bc2 01       		.uleb128 0x1
 8920 1bc3 53       		.byte	0x53
 8921 1bc4 03       		.uleb128 0x3
 8922 1bc5 0A       		.byte	0xa
 8923 1bc6 8906     		.2byte	0x689
 8924 1bc8 36       		.uleb128 0x36
 8925 1bc9 01       		.uleb128 0x1
 8926 1bca 52       		.byte	0x52
 8927 1bcb 05       		.uleb128 0x5
 8928 1bcc 03       		.byte	0x3
 8929 1bcd 28000000 		.4byte	.LC1
 8930 1bd1 36       		.uleb128 0x36
 8931 1bd2 01       		.uleb128 0x1
 8932 1bd3 51       		.byte	0x51
 8933 1bd4 05       		.uleb128 0x5
 8934 1bd5 03       		.byte	0x3
 8935 1bd6 00000000 		.4byte	.LC0
 8936 1bda 36       		.uleb128 0x36
 8937 1bdb 02       		.uleb128 0x2
 8938 1bdc 7D       		.byte	0x7d
 8939 1bdd 00       		.sleb128 0
 8940 1bde 05       		.uleb128 0x5
 8941 1bdf 03       		.byte	0x3
 8942 1be0 34000000 		.4byte	.LC2
 8943 1be4 00       		.byte	0
 8944 1be5 00       		.byte	0
 8945 1be6 2B       		.uleb128 0x2b
 8946 1be7 750D0000 		.4byte	.LASF324
 8947 1beb 01       		.byte	0x1
 8948 1bec 0204     		.2byte	0x402
 8949 1bee 25000000 		.4byte	0x25
 8950 1bf2 00000000 		.4byte	.LFB277
 8951 1bf6 4C010000 		.4byte	.LFE277-.LFB277
ARM GAS  C:\Users\jo\AppData\Local\Temp\cc6wN9Ut.s 			page 160


 8952 1bfa 01       		.uleb128 0x1
 8953 1bfb 9C       		.byte	0x9c
 8954 1bfc B01D0000 		.4byte	0x1db0
 8955 1c00 2D       		.uleb128 0x2d
 8956 1c01 74020000 		.4byte	.LASF325
 8957 1c05 01       		.byte	0x1
 8958 1c06 0204     		.2byte	0x402
 8959 1c08 25000000 		.4byte	0x25
 8960 1c0c B20A0000 		.4byte	.LLST34
 8961 1c10 2D       		.uleb128 0x2d
 8962 1c11 B6050000 		.4byte	.LASF326
 8963 1c15 01       		.byte	0x1
 8964 1c16 0204     		.2byte	0x402
 8965 1c18 58140000 		.4byte	0x1458
 8966 1c1c DE0A0000 		.4byte	.LLST35
 8967 1c20 42       		.uleb128 0x42
 8968 1c21 6B100000 		.4byte	.LASF327
 8969 1c25 01       		.byte	0x1
 8970 1c26 0204     		.2byte	0x402
 8971 1c28 58140000 		.4byte	0x1458
 8972 1c2c 01       		.uleb128 0x1
 8973 1c2d 52       		.byte	0x52
 8974 1c2e 2D       		.uleb128 0x2d
 8975 1c2f 080C0000 		.4byte	.LASF328
 8976 1c33 01       		.byte	0x1
 8977 1c34 0204     		.2byte	0x402
 8978 1c36 58140000 		.4byte	0x1458
 8979 1c3a 0A0B0000 		.4byte	.LLST36
 8980 1c3e 2D       		.uleb128 0x2d
 8981 1c3f 570B0000 		.4byte	.LASF329
 8982 1c43 01       		.byte	0x1
 8983 1c44 0304     		.2byte	0x403
 8984 1c46 58140000 		.4byte	0x1458
 8985 1c4a 360B0000 		.4byte	.LLST37
 8986 1c4e 2D       		.uleb128 0x2d
 8987 1c4f 090A0000 		.4byte	.LASF330
 8988 1c53 01       		.byte	0x1
 8989 1c54 0304     		.2byte	0x403
 8990 1c56 58140000 		.4byte	0x1458
 8991 1c5a 560B0000 		.4byte	.LLST38
 8992 1c5e 2D       		.uleb128 0x2d
 8993 1c5f 74110000 		.4byte	.LASF331
 8994 1c63 01       		.byte	0x1
 8995 1c64 0304     		.2byte	0x403
 8996 1c66 58140000 		.4byte	0x1458
 8997 1c6a 760B0000 		.4byte	.LLST39
 8998 1c6e 3F       		.uleb128 0x3f
 8999 1c6f 6900     		.ascii	"i\000"
 9000 1c71 01       		.byte	0x1
 9001 1c72 0504     		.2byte	0x405
 9002 1c74 25000000 		.4byte	0x25
 9003 1c78 960B0000 		.4byte	.LLST40
 9004 1c7c 3E       		.uleb128 0x3e
 9005 1c7d 940D0000 		.4byte	.LASF332
 9006 1c81 01       		.byte	0x1
 9007 1c82 0504     		.2byte	0x405
 9008 1c84 25000000 		.4byte	0x25
ARM GAS  C:\Users\jo\AppData\Local\Temp\cc6wN9Ut.s 			page 161


 9009 1c88 C00B0000 		.4byte	.LLST41
 9010 1c8c 30       		.uleb128 0x30
 9011 1c8d 0B070000 		.4byte	.LASF333
 9012 1c91 01       		.byte	0x1
 9013 1c92 0604     		.2byte	0x406
 9014 1c94 DC080000 		.4byte	0x8dc
 9015 1c98 02       		.uleb128 0x2
 9016 1c99 91       		.byte	0x91
 9017 1c9a 40       		.sleb128 -64
 9018 1c9b 30       		.uleb128 0x30
 9019 1c9c 1B0A0000 		.4byte	.LASF334
 9020 1ca0 01       		.byte	0x1
 9021 1ca1 0604     		.2byte	0x406
 9022 1ca3 DC080000 		.4byte	0x8dc
 9023 1ca7 02       		.uleb128 0x2
 9024 1ca8 91       		.byte	0x91
 9025 1ca9 48       		.sleb128 -56
 9026 1caa 30       		.uleb128 0x30
 9027 1cab 02130000 		.4byte	.LASF335
 9028 1caf 01       		.byte	0x1
 9029 1cb0 0604     		.2byte	0x406
 9030 1cb2 DC080000 		.4byte	0x8dc
 9031 1cb6 02       		.uleb128 0x2
 9032 1cb7 91       		.byte	0x91
 9033 1cb8 50       		.sleb128 -48
 9034 1cb9 2E       		.uleb128 0x2e
 9035 1cba E2030000 		.4byte	.LASF304
 9036 1cbe 01       		.byte	0x1
 9037 1cbf 0704     		.2byte	0x407
 9038 1cc1 BD140000 		.4byte	0x14bd
 9039 1cc5 43       		.uleb128 0x43
 9040 1cc6 06000000 		.4byte	.LBB132
 9041 1cca 10000000 		.4byte	.LBE132-.LBB132
 9042 1cce F31C0000 		.4byte	0x1cf3
 9043 1cd2 3F       		.uleb128 0x3f
 9044 1cd3 5F5F6900 		.ascii	"__i\000"
 9045 1cd7 01       		.byte	0x1
 9046 1cd8 0A04     		.2byte	0x40a
 9047 1cda 2C000000 		.4byte	0x2c
 9048 1cde EA0B0000 		.4byte	.LLST42
 9049 1ce2 3E       		.uleb128 0x3e
 9050 1ce3 DB110000 		.4byte	.LASF336
 9051 1ce7 01       		.byte	0x1
 9052 1ce8 0A04     		.2byte	0x40a
 9053 1cea 92080000 		.4byte	0x892
 9054 1cee 100C0000 		.4byte	.LLST43
 9055 1cf2 00       		.byte	0
 9056 1cf3 43       		.uleb128 0x43
 9057 1cf4 16000000 		.4byte	.LBB133
 9058 1cf8 0E000000 		.4byte	.LBE133-.LBB133
 9059 1cfc 211D0000 		.4byte	0x1d21
 9060 1d00 3F       		.uleb128 0x3f
 9061 1d01 5F5F6900 		.ascii	"__i\000"
 9062 1d05 01       		.byte	0x1
 9063 1d06 0B04     		.2byte	0x40b
 9064 1d08 2C000000 		.4byte	0x2c
 9065 1d0c 2E0C0000 		.4byte	.LLST44
ARM GAS  C:\Users\jo\AppData\Local\Temp\cc6wN9Ut.s 			page 162


 9066 1d10 3E       		.uleb128 0x3e
 9067 1d11 DB110000 		.4byte	.LASF336
 9068 1d15 01       		.byte	0x1
 9069 1d16 0B04     		.2byte	0x40b
 9070 1d18 92080000 		.4byte	0x892
 9071 1d1c 480C0000 		.4byte	.LLST45
 9072 1d20 00       		.byte	0
 9073 1d21 43       		.uleb128 0x43
 9074 1d22 24000000 		.4byte	.LBB134
 9075 1d26 0C000000 		.4byte	.LBE134-.LBB134
 9076 1d2a 4F1D0000 		.4byte	0x1d4f
 9077 1d2e 3F       		.uleb128 0x3f
 9078 1d2f 5F5F6900 		.ascii	"__i\000"
 9079 1d33 01       		.byte	0x1
 9080 1d34 0C04     		.2byte	0x40c
 9081 1d36 2C000000 		.4byte	0x2c
 9082 1d3a 5B0C0000 		.4byte	.LLST46
 9083 1d3e 3E       		.uleb128 0x3e
 9084 1d3f DB110000 		.4byte	.LASF336
 9085 1d43 01       		.byte	0x1
 9086 1d44 0C04     		.2byte	0x40c
 9087 1d46 92080000 		.4byte	0x892
 9088 1d4a 750C0000 		.4byte	.LLST47
 9089 1d4e 00       		.byte	0
 9090 1d4f 33       		.uleb128 0x33
 9091 1d50 20000000 		.4byte	.Ldebug_ranges0+0x20
 9092 1d54 3E       		.uleb128 0x3e
 9093 1d55 420E0000 		.4byte	.LASF291
 9094 1d59 01       		.byte	0x1
 9095 1d5a 1104     		.2byte	0x411
 9096 1d5c 64030000 		.4byte	0x364
 9097 1d60 880C0000 		.4byte	.LLST48
 9098 1d64 3E       		.uleb128 0x3e
 9099 1d65 840E0000 		.4byte	.LASF293
 9100 1d69 01       		.byte	0x1
 9101 1d6a 1204     		.2byte	0x412
 9102 1d6c 9D090000 		.4byte	0x99d
 9103 1d70 D50C0000 		.4byte	.LLST49
 9104 1d74 3E       		.uleb128 0x3e
 9105 1d75 9E0F0000 		.4byte	.LASF294
 9106 1d79 01       		.byte	0x1
 9107 1d7a 1304     		.2byte	0x413
 9108 1d7c 92090000 		.4byte	0x992
 9109 1d80 220D0000 		.4byte	.LLST50
 9110 1d84 3E       		.uleb128 0x3e
 9111 1d85 B30B0000 		.4byte	.LASF295
 9112 1d89 01       		.byte	0x1
 9113 1d8a 1404     		.2byte	0x414
 9114 1d8c 92090000 		.4byte	0x992
 9115 1d90 6F0D0000 		.4byte	.LLST51
 9116 1d94 44       		.uleb128 0x44
 9117 1d95 08150000 		.4byte	0x1508
 9118 1d99 3E000000 		.4byte	.LBB136
 9119 1d9d 38000000 		.4byte	.Ldebug_ranges0+0x38
 9120 1da1 01       		.byte	0x1
 9121 1da2 1704     		.2byte	0x417
 9122 1da4 32       		.uleb128 0x32
ARM GAS  C:\Users\jo\AppData\Local\Temp\cc6wN9Ut.s 			page 163


 9123 1da5 18150000 		.4byte	0x1518
 9124 1da9 BC0D0000 		.4byte	.LLST52
 9125 1dad 00       		.byte	0
 9126 1dae 00       		.byte	0
 9127 1daf 00       		.byte	0
 9128 1db0 3D       		.uleb128 0x3d
 9129 1db1 A3060000 		.4byte	.LASF337
 9130 1db5 01       		.byte	0x1
 9131 1db6 DF04     		.2byte	0x4df
 9132 1db8 00000000 		.4byte	.LFB279
 9133 1dbc 48010000 		.4byte	.LFE279-.LFB279
 9134 1dc0 01       		.uleb128 0x1
 9135 1dc1 9C       		.byte	0x9c
 9136 1dc2 EE1E0000 		.4byte	0x1eee
 9137 1dc6 2D       		.uleb128 0x2d
 9138 1dc7 F4060000 		.4byte	.LASF261
 9139 1dcb 01       		.byte	0x1
 9140 1dcc DF04     		.2byte	0x4df
 9141 1dce 400C0000 		.4byte	0xc40
 9142 1dd2 E70D0000 		.4byte	.LLST53
 9143 1dd6 2C       		.uleb128 0x2c
 9144 1dd7 65767400 		.ascii	"evt\000"
 9145 1ddb 01       		.byte	0x1
 9146 1ddc DF04     		.2byte	0x4df
 9147 1dde EF0B0000 		.4byte	0xbef
 9148 1de2 5E0E0000 		.4byte	.LLST54
 9149 1de6 2C       		.uleb128 0x2c
 9150 1de7 6C656E00 		.ascii	"len\000"
 9151 1deb 01       		.byte	0x1
 9152 1dec DF04     		.2byte	0x4df
 9153 1dee 92090000 		.4byte	0x992
 9154 1df2 D50E0000 		.4byte	.LLST55
 9155 1df6 3F       		.uleb128 0x3f
 9156 1df7 7300     		.ascii	"s\000"
 9157 1df9 01       		.byte	0x1
 9158 1dfa E104     		.2byte	0x4e1
 9159 1dfc 25000000 		.4byte	0x25
 9160 1e00 970F0000 		.4byte	.LLST56
 9161 1e04 2E       		.uleb128 0x2e
 9162 1e05 E2030000 		.4byte	.LASF304
 9163 1e09 01       		.byte	0x1
 9164 1e0a E204     		.2byte	0x4e2
 9165 1e0c BD140000 		.4byte	0x14bd
 9166 1e10 3F       		.uleb128 0x3f
 9167 1e11 73636200 		.ascii	"scb\000"
 9168 1e15 01       		.byte	0x1
 9169 1e16 E304     		.2byte	0x4e3
 9170 1e18 52140000 		.4byte	0x1452
 9171 1e1c EF0F0000 		.4byte	.LLST57
 9172 1e20 3E       		.uleb128 0x3e
 9173 1e21 32020000 		.4byte	.LASF338
 9174 1e25 01       		.byte	0x1
 9175 1e26 E404     		.2byte	0x4e4
 9176 1e28 25000000 		.4byte	0x25
 9177 1e2c 0D100000 		.4byte	.LLST58
 9178 1e30 45       		.uleb128 0x45
 9179 1e31 89000000 		.4byte	.LASF429
ARM GAS  C:\Users\jo\AppData\Local\Temp\cc6wN9Ut.s 			page 164


 9180 1e35 01       		.byte	0x1
 9181 1e36 2905     		.2byte	0x529
 9182 1e38 31       		.uleb128 0x31
 9183 1e39 C9140000 		.4byte	0x14c9
 9184 1e3d 14000000 		.4byte	.LBB141
 9185 1e41 50000000 		.4byte	.Ldebug_ranges0+0x50
 9186 1e45 01       		.byte	0x1
 9187 1e46 FE04     		.2byte	0x4fe
 9188 1e48 651E0000 		.4byte	0x1e65
 9189 1e4c 32       		.uleb128 0x32
 9190 1e4d D9140000 		.4byte	0x14d9
 9191 1e51 36100000 		.4byte	.LLST59
 9192 1e55 33       		.uleb128 0x33
 9193 1e56 50000000 		.4byte	.Ldebug_ranges0+0x50
 9194 1e5a 34       		.uleb128 0x34
 9195 1e5b E2140000 		.4byte	0x14e2
 9196 1e5f 6A100000 		.4byte	.LLST60
 9197 1e63 00       		.byte	0
 9198 1e64 00       		.byte	0
 9199 1e65 46       		.uleb128 0x46
 9200 1e66 68000000 		.4byte	.Ldebug_ranges0+0x68
 9201 1e6a 8F1E0000 		.4byte	0x1e8f
 9202 1e6e 3E       		.uleb128 0x3e
 9203 1e6f 40040000 		.4byte	.LASF339
 9204 1e73 01       		.byte	0x1
 9205 1e74 3005     		.2byte	0x530
 9206 1e76 25000000 		.4byte	0x25
 9207 1e7a B1100000 		.4byte	.LLST61
 9208 1e7e 38       		.uleb128 0x38
 9209 1e7f 74000000 		.4byte	.LVL200
 9210 1e83 1F390000 		.4byte	0x391f
 9211 1e87 36       		.uleb128 0x36
 9212 1e88 01       		.uleb128 0x1
 9213 1e89 50       		.byte	0x50
 9214 1e8a 02       		.uleb128 0x2
 9215 1e8b 74       		.byte	0x74
 9216 1e8c 18       		.sleb128 24
 9217 1e8d 00       		.byte	0
 9218 1e8e 00       		.byte	0
 9219 1e8f 40       		.uleb128 0x40
 9220 1e90 EE140000 		.4byte	0x14ee
 9221 1e94 14010000 		.4byte	.LBB148
 9222 1e98 0A000000 		.4byte	.LBE148-.LBB148
 9223 1e9c 01       		.byte	0x1
 9224 1e9d 1905     		.2byte	0x519
 9225 1e9f C01E0000 		.4byte	0x1ec0
 9226 1ea3 32       		.uleb128 0x32
 9227 1ea4 FB140000 		.4byte	0x14fb
 9228 1ea8 D1100000 		.4byte	.LLST62
 9229 1eac 38       		.uleb128 0x38
 9230 1ead 1A010000 		.4byte	.LVL219
 9231 1eb1 FC380000 		.4byte	0x38fc
 9232 1eb5 36       		.uleb128 0x36
 9233 1eb6 01       		.uleb128 0x1
 9234 1eb7 50       		.byte	0x50
 9235 1eb8 05       		.uleb128 0x5
 9236 1eb9 03       		.byte	0x3
ARM GAS  C:\Users\jo\AppData\Local\Temp\cc6wN9Ut.s 			page 165


 9237 1eba 7C000000 		.4byte	.LC5
 9238 1ebe 00       		.byte	0
 9239 1ebf 00       		.byte	0
 9240 1ec0 38       		.uleb128 0x38
 9241 1ec1 14010000 		.4byte	.LVL218
 9242 1ec5 99160000 		.4byte	0x1699
 9243 1ec9 36       		.uleb128 0x36
 9244 1eca 01       		.uleb128 0x1
 9245 1ecb 53       		.byte	0x53
 9246 1ecc 03       		.uleb128 0x3
 9247 1ecd 0A       		.byte	0xa
 9248 1ece 1905     		.2byte	0x519
 9249 1ed0 36       		.uleb128 0x36
 9250 1ed1 01       		.uleb128 0x1
 9251 1ed2 52       		.byte	0x52
 9252 1ed3 05       		.uleb128 0x5
 9253 1ed4 03       		.byte	0x3
 9254 1ed5 7C000000 		.4byte	.LC5
 9255 1ed9 36       		.uleb128 0x36
 9256 1eda 01       		.uleb128 0x1
 9257 1edb 51       		.byte	0x51
 9258 1edc 05       		.uleb128 0x5
 9259 1edd 03       		.byte	0x3
 9260 1ede 00000000 		.4byte	.LC0
 9261 1ee2 36       		.uleb128 0x36
 9262 1ee3 02       		.uleb128 0x2
 9263 1ee4 7D       		.byte	0x7d
 9264 1ee5 00       		.sleb128 0
 9265 1ee6 05       		.uleb128 0x5
 9266 1ee7 03       		.byte	0x3
 9267 1ee8 34000000 		.4byte	.LC2
 9268 1eec 00       		.byte	0
 9269 1eed 00       		.byte	0
 9270 1eee 47       		.uleb128 0x47
 9271 1eef 3D0D0000 		.4byte	.LASF430
 9272 1ef3 01       		.byte	0x1
 9273 1ef4 B8       		.byte	0xb8
 9274 1ef5 00000000 		.4byte	.LFB260
 9275 1ef9 02000000 		.4byte	.LFE260-.LFB260
 9276 1efd 01       		.uleb128 0x1
 9277 1efe 9C       		.byte	0x9c
 9278 1eff 48       		.uleb128 0x48
 9279 1f00 A2120000 		.4byte	.LASF343
 9280 1f04 01       		.byte	0x1
 9281 1f05 3801     		.2byte	0x138
 9282 1f07 25000000 		.4byte	0x25
 9283 1f0b 00000000 		.4byte	.LFB265
 9284 1f0f F8010000 		.4byte	.LFE265-.LFB265
 9285 1f13 01       		.uleb128 0x1
 9286 1f14 9C       		.byte	0x9c
 9287 1f15 F0210000 		.4byte	0x21f0
 9288 1f19 2C       		.uleb128 0x2c
 9289 1f1a 7300     		.ascii	"s\000"
 9290 1f1c 01       		.byte	0x1
 9291 1f1d 3801     		.2byte	0x138
 9292 1f1f 25000000 		.4byte	0x25
 9293 1f23 E9100000 		.4byte	.LLST63
ARM GAS  C:\Users\jo\AppData\Local\Temp\cc6wN9Ut.s 			page 166


 9294 1f27 2D       		.uleb128 0x2d
 9295 1f28 90100000 		.4byte	.LASF151
 9296 1f2c 01       		.byte	0x1
 9297 1f2d 3801     		.2byte	0x138
 9298 1f2f 93160000 		.4byte	0x1693
 9299 1f33 89110000 		.4byte	.LLST64
 9300 1f37 2D       		.uleb128 0x2d
 9301 1f38 66110000 		.4byte	.LASF340
 9302 1f3c 01       		.byte	0x1
 9303 1f3d 3801     		.2byte	0x138
 9304 1f3f C3140000 		.4byte	0x14c3
 9305 1f43 FA110000 		.4byte	.LLST65
 9306 1f47 2E       		.uleb128 0x2e
 9307 1f48 E2030000 		.4byte	.LASF304
 9308 1f4c 01       		.byte	0x1
 9309 1f4d 3A01     		.2byte	0x13a
 9310 1f4f BD140000 		.4byte	0x14bd
 9311 1f53 3E       		.uleb128 0x3e
 9312 1f54 460B0000 		.4byte	.LASF341
 9313 1f58 01       		.byte	0x1
 9314 1f59 3A01     		.2byte	0x13a
 9315 1f5b BD140000 		.4byte	0x14bd
 9316 1f5f 79120000 		.4byte	.LLST66
 9317 1f63 30       		.uleb128 0x30
 9318 1f64 3C110000 		.4byte	.LASF314
 9319 1f68 01       		.byte	0x1
 9320 1f69 3B01     		.2byte	0x13b
 9321 1f6b 400C0000 		.4byte	0xc40
 9322 1f6f 02       		.uleb128 0x2
 9323 1f70 91       		.byte	0x91
 9324 1f71 48       		.sleb128 -56
 9325 1f72 30       		.uleb128 0x30
 9326 1f73 6E110000 		.4byte	.LASF320
 9327 1f77 01       		.byte	0x1
 9328 1f78 3C01     		.2byte	0x13c
 9329 1f7a E2090000 		.4byte	0x9e2
 9330 1f7e 02       		.uleb128 0x2
 9331 1f7f 91       		.byte	0x91
 9332 1f80 4C       		.sleb128 -52
 9333 1f81 30       		.uleb128 0x30
 9334 1f82 4B0E0000 		.4byte	.LASF177
 9335 1f86 01       		.byte	0x1
 9336 1f87 3D01     		.2byte	0x13d
 9337 1f89 92090000 		.4byte	0x992
 9338 1f8d 02       		.uleb128 0x2
 9339 1f8e 91       		.byte	0x91
 9340 1f8f 46       		.sleb128 -58
 9341 1f90 3E       		.uleb128 0x3e
 9342 1f91 19080000 		.4byte	.LASF342
 9343 1f95 01       		.byte	0x1
 9344 1f96 3E01     		.2byte	0x13e
 9345 1f98 25000000 		.4byte	0x25
 9346 1f9c 96120000 		.4byte	.LLST67
 9347 1fa0 2F       		.uleb128 0x2f
 9348 1fa1 73696E00 		.ascii	"sin\000"
 9349 1fa5 01       		.byte	0x1
 9350 1fa6 3F01     		.2byte	0x13f
ARM GAS  C:\Users\jo\AppData\Local\Temp\cc6wN9Ut.s 			page 167


 9351 1fa8 060A0000 		.4byte	0xa06
 9352 1fac 02       		.uleb128 0x2
 9353 1fad 91       		.byte	0x91
 9354 1fae 50       		.sleb128 -48
 9355 1faf 3F       		.uleb128 0x3f
 9356 1fb0 65727200 		.ascii	"err\000"
 9357 1fb4 01       		.byte	0x1
 9358 1fb5 4001     		.2byte	0x140
 9359 1fb7 C30A0000 		.4byte	0xac3
 9360 1fbb CA120000 		.4byte	.LLST68
 9361 1fbf 31       		.uleb128 0x31
 9362 1fc0 C9140000 		.4byte	0x14c9
 9363 1fc4 00000000 		.4byte	.LBB150
 9364 1fc8 88000000 		.4byte	.Ldebug_ranges0+0x88
 9365 1fcc 01       		.byte	0x1
 9366 1fcd 4401     		.2byte	0x144
 9367 1fcf EC1F0000 		.4byte	0x1fec
 9368 1fd3 32       		.uleb128 0x32
 9369 1fd4 D9140000 		.4byte	0x14d9
 9370 1fd8 14130000 		.4byte	.LLST69
 9371 1fdc 33       		.uleb128 0x33
 9372 1fdd 88000000 		.4byte	.Ldebug_ranges0+0x88
 9373 1fe1 34       		.uleb128 0x34
 9374 1fe2 E2140000 		.4byte	0x14e2
 9375 1fe6 B4130000 		.4byte	.LLST70
 9376 1fea 00       		.byte	0
 9377 1feb 00       		.byte	0
 9378 1fec 40       		.uleb128 0x40
 9379 1fed EE140000 		.4byte	0x14ee
 9380 1ff1 EA000000 		.4byte	.LBB158
 9381 1ff5 06000000 		.4byte	.LBE158-.LBB158
 9382 1ff9 01       		.byte	0x1
 9383 1ffa 7E01     		.2byte	0x17e
 9384 1ffc 1D200000 		.4byte	0x201d
 9385 2000 32       		.uleb128 0x32
 9386 2001 FB140000 		.4byte	0x14fb
 9387 2005 A6140000 		.4byte	.LLST71
 9388 2009 38       		.uleb128 0x38
 9389 200a F0000000 		.4byte	.LVL243
 9390 200e FC380000 		.4byte	0x38fc
 9391 2012 36       		.uleb128 0x36
 9392 2013 01       		.uleb128 0x1
 9393 2014 50       		.byte	0x50
 9394 2015 05       		.uleb128 0x5
 9395 2016 03       		.byte	0x3
 9396 2017 B8000000 		.4byte	.LC8
 9397 201b 00       		.byte	0
 9398 201c 00       		.byte	0
 9399 201d 40       		.uleb128 0x40
 9400 201e EE140000 		.4byte	0x14ee
 9401 2022 0C010000 		.4byte	.LBB160
 9402 2026 08000000 		.4byte	.LBE160-.LBB160
 9403 202a 01       		.byte	0x1
 9404 202b 7F01     		.2byte	0x17f
 9405 202d 4E200000 		.4byte	0x204e
 9406 2031 32       		.uleb128 0x32
 9407 2032 FB140000 		.4byte	0x14fb
ARM GAS  C:\Users\jo\AppData\Local\Temp\cc6wN9Ut.s 			page 168


 9408 2036 BE140000 		.4byte	.LLST72
 9409 203a 38       		.uleb128 0x38
 9410 203b 12010000 		.4byte	.LVL246
 9411 203f FC380000 		.4byte	0x38fc
 9412 2043 36       		.uleb128 0x36
 9413 2044 01       		.uleb128 0x1
 9414 2045 50       		.byte	0x50
 9415 2046 05       		.uleb128 0x5
 9416 2047 03       		.byte	0x3
 9417 2048 D0000000 		.4byte	.LC9
 9418 204c 00       		.byte	0
 9419 204d 00       		.byte	0
 9420 204e 40       		.uleb128 0x40
 9421 204f EE140000 		.4byte	0x14ee
 9422 2053 54010000 		.4byte	.LBB162
 9423 2057 0A000000 		.4byte	.LBE162-.LBB162
 9424 205b 01       		.byte	0x1
 9425 205c 5A01     		.2byte	0x15a
 9426 205e 7F200000 		.4byte	0x207f
 9427 2062 32       		.uleb128 0x32
 9428 2063 FB140000 		.4byte	0x14fb
 9429 2067 D6140000 		.4byte	.LLST73
 9430 206b 38       		.uleb128 0x38
 9431 206c 5A010000 		.4byte	.LVL252
 9432 2070 FC380000 		.4byte	0x38fc
 9433 2074 36       		.uleb128 0x36
 9434 2075 01       		.uleb128 0x1
 9435 2076 50       		.byte	0x50
 9436 2077 05       		.uleb128 0x5
 9437 2078 03       		.byte	0x3
 9438 2079 8C000000 		.4byte	.LC6
 9439 207d 00       		.byte	0
 9440 207e 00       		.byte	0
 9441 207f 40       		.uleb128 0x40
 9442 2080 EE140000 		.4byte	0x14ee
 9443 2084 70010000 		.4byte	.LBB164
 9444 2088 08000000 		.4byte	.LBE164-.LBB164
 9445 208c 01       		.byte	0x1
 9446 208d 6B01     		.2byte	0x16b
 9447 208f B0200000 		.4byte	0x20b0
 9448 2093 32       		.uleb128 0x32
 9449 2094 FB140000 		.4byte	0x14fb
 9450 2098 EE140000 		.4byte	.LLST74
 9451 209c 38       		.uleb128 0x38
 9452 209d 76010000 		.4byte	.LVL256
 9453 20a1 FC380000 		.4byte	0x38fc
 9454 20a5 36       		.uleb128 0x36
 9455 20a6 01       		.uleb128 0x1
 9456 20a7 50       		.byte	0x50
 9457 20a8 05       		.uleb128 0x5
 9458 20a9 03       		.byte	0x3
 9459 20aa 9C000000 		.4byte	.LC7
 9460 20ae 00       		.byte	0
 9461 20af 00       		.byte	0
 9462 20b0 35       		.uleb128 0x35
 9463 20b1 44000000 		.4byte	.LVL230
 9464 20b5 30390000 		.4byte	0x3930
ARM GAS  C:\Users\jo\AppData\Local\Temp\cc6wN9Ut.s 			page 169


 9465 20b9 C4200000 		.4byte	0x20c4
 9466 20bd 36       		.uleb128 0x36
 9467 20be 01       		.uleb128 0x1
 9468 20bf 51       		.byte	0x51
 9469 20c0 02       		.uleb128 0x2
 9470 20c1 91       		.byte	0x91
 9471 20c2 48       		.sleb128 -56
 9472 20c3 00       		.byte	0
 9473 20c4 35       		.uleb128 0x35
 9474 20c5 7E000000 		.4byte	.LVL235
 9475 20c9 87380000 		.4byte	0x3887
 9476 20cd E3200000 		.4byte	0x20e3
 9477 20d1 36       		.uleb128 0x36
 9478 20d2 01       		.uleb128 0x1
 9479 20d3 53       		.byte	0x53
 9480 20d4 01       		.uleb128 0x1
 9481 20d5 30       		.byte	0x30
 9482 20d6 36       		.uleb128 0x36
 9483 20d7 01       		.uleb128 0x1
 9484 20d8 52       		.byte	0x52
 9485 20d9 02       		.uleb128 0x2
 9486 20da 91       		.byte	0x91
 9487 20db 46       		.sleb128 -58
 9488 20dc 36       		.uleb128 0x36
 9489 20dd 01       		.uleb128 0x1
 9490 20de 51       		.byte	0x51
 9491 20df 02       		.uleb128 0x2
 9492 20e0 91       		.byte	0x91
 9493 20e1 4C       		.sleb128 -52
 9494 20e2 00       		.byte	0
 9495 20e3 37       		.uleb128 0x37
 9496 20e4 AA000000 		.4byte	.LVL237
 9497 20e8 AB380000 		.4byte	0x38ab
 9498 20ec 35       		.uleb128 0x35
 9499 20ed C6000000 		.4byte	.LVL238
 9500 20f1 C0380000 		.4byte	0x38c0
 9501 20f5 06210000 		.4byte	0x2106
 9502 20f9 36       		.uleb128 0x36
 9503 20fa 01       		.uleb128 0x1
 9504 20fb 51       		.byte	0x51
 9505 20fc 02       		.uleb128 0x2
 9506 20fd 91       		.byte	0x91
 9507 20fe 50       		.sleb128 -48
 9508 20ff 36       		.uleb128 0x36
 9509 2100 01       		.uleb128 0x1
 9510 2101 50       		.byte	0x50
 9511 2102 02       		.uleb128 0x2
 9512 2103 75       		.byte	0x75
 9513 2104 00       		.sleb128 0
 9514 2105 00       		.byte	0
 9515 2106 35       		.uleb128 0x35
 9516 2107 CE000000 		.4byte	.LVL239
 9517 210b 65150000 		.4byte	0x1565
 9518 210f 19210000 		.4byte	0x2119
 9519 2113 36       		.uleb128 0x36
 9520 2114 01       		.uleb128 0x1
 9521 2115 51       		.byte	0x51
ARM GAS  C:\Users\jo\AppData\Local\Temp\cc6wN9Ut.s 			page 170


 9522 2116 01       		.uleb128 0x1
 9523 2117 31       		.byte	0x31
 9524 2118 00       		.byte	0
 9525 2119 35       		.uleb128 0x35
 9526 211a EA000000 		.4byte	.LVL242
 9527 211e 99160000 		.4byte	0x1699
 9528 2122 4A210000 		.4byte	0x214a
 9529 2126 36       		.uleb128 0x36
 9530 2127 01       		.uleb128 0x1
 9531 2128 53       		.byte	0x53
 9532 2129 03       		.uleb128 0x3
 9533 212a 0A       		.byte	0xa
 9534 212b 7E01     		.2byte	0x17e
 9535 212d 36       		.uleb128 0x36
 9536 212e 01       		.uleb128 0x1
 9537 212f 52       		.byte	0x52
 9538 2130 05       		.uleb128 0x5
 9539 2131 03       		.byte	0x3
 9540 2132 B8000000 		.4byte	.LC8
 9541 2136 36       		.uleb128 0x36
 9542 2137 01       		.uleb128 0x1
 9543 2138 51       		.byte	0x51
 9544 2139 05       		.uleb128 0x5
 9545 213a 03       		.byte	0x3
 9546 213b 00000000 		.4byte	.LC0
 9547 213f 36       		.uleb128 0x36
 9548 2140 02       		.uleb128 0x2
 9549 2141 7D       		.byte	0x7d
 9550 2142 00       		.sleb128 0
 9551 2143 05       		.uleb128 0x5
 9552 2144 03       		.byte	0x3
 9553 2145 34000000 		.4byte	.LC2
 9554 2149 00       		.byte	0
 9555 214a 35       		.uleb128 0x35
 9556 214b 0C010000 		.4byte	.LVL245
 9557 214f 99160000 		.4byte	0x1699
 9558 2153 7B210000 		.4byte	0x217b
 9559 2157 36       		.uleb128 0x36
 9560 2158 01       		.uleb128 0x1
 9561 2159 53       		.byte	0x53
 9562 215a 03       		.uleb128 0x3
 9563 215b 0A       		.byte	0xa
 9564 215c 7F01     		.2byte	0x17f
 9565 215e 36       		.uleb128 0x36
 9566 215f 01       		.uleb128 0x1
 9567 2160 52       		.byte	0x52
 9568 2161 05       		.uleb128 0x5
 9569 2162 03       		.byte	0x3
 9570 2163 D0000000 		.4byte	.LC9
 9571 2167 36       		.uleb128 0x36
 9572 2168 01       		.uleb128 0x1
 9573 2169 51       		.byte	0x51
 9574 216a 05       		.uleb128 0x5
 9575 216b 03       		.byte	0x3
 9576 216c 00000000 		.4byte	.LC0
 9577 2170 36       		.uleb128 0x36
 9578 2171 02       		.uleb128 0x2
ARM GAS  C:\Users\jo\AppData\Local\Temp\cc6wN9Ut.s 			page 171


 9579 2172 7D       		.byte	0x7d
 9580 2173 00       		.sleb128 0
 9581 2174 05       		.uleb128 0x5
 9582 2175 03       		.byte	0x3
 9583 2176 34000000 		.4byte	.LC2
 9584 217a 00       		.byte	0
 9585 217b 35       		.uleb128 0x35
 9586 217c 54010000 		.4byte	.LVL251
 9587 2180 99160000 		.4byte	0x1699
 9588 2184 AC210000 		.4byte	0x21ac
 9589 2188 36       		.uleb128 0x36
 9590 2189 01       		.uleb128 0x1
 9591 218a 53       		.byte	0x53
 9592 218b 03       		.uleb128 0x3
 9593 218c 0A       		.byte	0xa
 9594 218d 5A01     		.2byte	0x15a
 9595 218f 36       		.uleb128 0x36
 9596 2190 01       		.uleb128 0x1
 9597 2191 52       		.byte	0x52
 9598 2192 05       		.uleb128 0x5
 9599 2193 03       		.byte	0x3
 9600 2194 8C000000 		.4byte	.LC6
 9601 2198 36       		.uleb128 0x36
 9602 2199 01       		.uleb128 0x1
 9603 219a 51       		.byte	0x51
 9604 219b 05       		.uleb128 0x5
 9605 219c 03       		.byte	0x3
 9606 219d 00000000 		.4byte	.LC0
 9607 21a1 36       		.uleb128 0x36
 9608 21a2 02       		.uleb128 0x2
 9609 21a3 7D       		.byte	0x7d
 9610 21a4 00       		.sleb128 0
 9611 21a5 05       		.uleb128 0x5
 9612 21a6 03       		.byte	0x3
 9613 21a7 34000000 		.4byte	.LC2
 9614 21ab 00       		.byte	0
 9615 21ac 35       		.uleb128 0x35
 9616 21ad 70010000 		.4byte	.LVL255
 9617 21b1 99160000 		.4byte	0x1699
 9618 21b5 DD210000 		.4byte	0x21dd
 9619 21b9 36       		.uleb128 0x36
 9620 21ba 01       		.uleb128 0x1
 9621 21bb 53       		.byte	0x53
 9622 21bc 03       		.uleb128 0x3
 9623 21bd 0A       		.byte	0xa
 9624 21be 6B01     		.2byte	0x16b
 9625 21c0 36       		.uleb128 0x36
 9626 21c1 01       		.uleb128 0x1
 9627 21c2 52       		.byte	0x52
 9628 21c3 05       		.uleb128 0x5
 9629 21c4 03       		.byte	0x3
 9630 21c5 9C000000 		.4byte	.LC7
 9631 21c9 36       		.uleb128 0x36
 9632 21ca 01       		.uleb128 0x1
 9633 21cb 51       		.byte	0x51
 9634 21cc 05       		.uleb128 0x5
 9635 21cd 03       		.byte	0x3
ARM GAS  C:\Users\jo\AppData\Local\Temp\cc6wN9Ut.s 			page 172


 9636 21ce 00000000 		.4byte	.LC0
 9637 21d2 36       		.uleb128 0x36
 9638 21d3 02       		.uleb128 0x2
 9639 21d4 7D       		.byte	0x7d
 9640 21d5 00       		.sleb128 0
 9641 21d6 05       		.uleb128 0x5
 9642 21d7 03       		.byte	0x3
 9643 21d8 34000000 		.4byte	.LC2
 9644 21dc 00       		.byte	0
 9645 21dd 37       		.uleb128 0x37
 9646 21de 8C010000 		.4byte	.LVL261
 9647 21e2 50390000 		.4byte	0x3950
 9648 21e6 37       		.uleb128 0x37
 9649 21e7 C0010000 		.4byte	.LVL266
 9650 21eb 50390000 		.4byte	0x3950
 9651 21ef 00       		.byte	0
 9652 21f0 48       		.uleb128 0x48
 9653 21f1 48070000 		.4byte	.LASF344
 9654 21f5 01       		.byte	0x1
 9655 21f6 9501     		.2byte	0x195
 9656 21f8 25000000 		.4byte	0x25
 9657 21fc 00000000 		.4byte	.LFB266
 9658 2200 C4000000 		.4byte	.LFE266-.LFB266
 9659 2204 01       		.uleb128 0x1
 9660 2205 9C       		.byte	0x9c
 9661 2206 32230000 		.4byte	0x2332
 9662 220a 2C       		.uleb128 0x2c
 9663 220b 7300     		.ascii	"s\000"
 9664 220d 01       		.byte	0x1
 9665 220e 9501     		.2byte	0x195
 9666 2210 25000000 		.4byte	0x25
 9667 2214 06150000 		.4byte	.LLST75
 9668 2218 2D       		.uleb128 0x2d
 9669 2219 26000000 		.4byte	.LASF318
 9670 221d 01       		.byte	0x1
 9671 221e 9501     		.2byte	0x195
 9672 2220 32230000 		.4byte	0x2332
 9673 2224 A1150000 		.4byte	.LLST76
 9674 2228 2D       		.uleb128 0x2d
 9675 2229 45080000 		.4byte	.LASF319
 9676 222d 01       		.byte	0x1
 9677 222e 9501     		.2byte	0x195
 9678 2230 900A0000 		.4byte	0xa90
 9679 2234 F4150000 		.4byte	.LLST77
 9680 2238 2E       		.uleb128 0x2e
 9681 2239 E2030000 		.4byte	.LASF304
 9682 223d 01       		.byte	0x1
 9683 223e 9701     		.2byte	0x197
 9684 2240 BD140000 		.4byte	0x14bd
 9685 2244 30       		.uleb128 0x30
 9686 2245 9C050000 		.4byte	.LASF345
 9687 2249 01       		.byte	0x1
 9688 224a 9801     		.2byte	0x198
 9689 224c E2090000 		.4byte	0x9e2
 9690 2250 02       		.uleb128 0x2
 9691 2251 91       		.byte	0x91
 9692 2252 5C       		.sleb128 -36
ARM GAS  C:\Users\jo\AppData\Local\Temp\cc6wN9Ut.s 			page 173


 9693 2253 3E       		.uleb128 0x3e
 9694 2254 98040000 		.4byte	.LASF218
 9695 2258 01       		.byte	0x1
 9696 2259 9901     		.2byte	0x199
 9697 225b 92090000 		.4byte	0x992
 9698 225f 2E160000 		.4byte	.LLST78
 9699 2263 3F       		.uleb128 0x3f
 9700 2264 65727200 		.ascii	"err\000"
 9701 2268 01       		.byte	0x1
 9702 2269 9A01     		.2byte	0x19a
 9703 226b C30A0000 		.4byte	0xac3
 9704 226f 42160000 		.4byte	.LLST79
 9705 2273 3E       		.uleb128 0x3e
 9706 2274 370A0000 		.4byte	.LASF346
 9707 2278 01       		.byte	0x1
 9708 2279 9B01     		.2byte	0x19b
 9709 227b 3D230000 		.4byte	0x233d
 9710 227f 60160000 		.4byte	.LLST80
 9711 2283 31       		.uleb128 0x31
 9712 2284 C9140000 		.4byte	0x14c9
 9713 2288 00000000 		.4byte	.LBB166
 9714 228c B0000000 		.4byte	.Ldebug_ranges0+0xb0
 9715 2290 01       		.byte	0x1
 9716 2291 9D01     		.2byte	0x19d
 9717 2293 B0220000 		.4byte	0x22b0
 9718 2297 32       		.uleb128 0x32
 9719 2298 D9140000 		.4byte	0x14d9
 9720 229c 06150000 		.4byte	.LLST75
 9721 22a0 33       		.uleb128 0x33
 9722 22a1 B0000000 		.4byte	.Ldebug_ranges0+0xb0
 9723 22a5 34       		.uleb128 0x34
 9724 22a6 E2140000 		.4byte	0x14e2
 9725 22aa 8F160000 		.4byte	.LLST82
 9726 22ae 00       		.byte	0
 9727 22af 00       		.byte	0
 9728 22b0 40       		.uleb128 0x40
 9729 22b1 EE140000 		.4byte	0x14ee
 9730 22b5 6E000000 		.4byte	.LBB172
 9731 22b9 06000000 		.4byte	.LBE172-.LBB172
 9732 22bd 01       		.byte	0x1
 9733 22be A301     		.2byte	0x1a3
 9734 22c0 E1220000 		.4byte	0x22e1
 9735 22c4 32       		.uleb128 0x32
 9736 22c5 FB140000 		.4byte	0x14fb
 9737 22c9 6D170000 		.4byte	.LLST83
 9738 22cd 38       		.uleb128 0x38
 9739 22ce 74000000 		.4byte	.LVL281
 9740 22d2 FC380000 		.4byte	0x38fc
 9741 22d6 36       		.uleb128 0x36
 9742 22d7 01       		.uleb128 0x1
 9743 22d8 50       		.byte	0x50
 9744 22d9 05       		.uleb128 0x5
 9745 22da 03       		.byte	0x3
 9746 22db F4000000 		.4byte	.LC10
 9747 22df 00       		.byte	0
 9748 22e0 00       		.byte	0
 9749 22e1 37       		.uleb128 0x37
ARM GAS  C:\Users\jo\AppData\Local\Temp\cc6wN9Ut.s 			page 174


 9750 22e2 44000000 		.4byte	.LVL274
 9751 22e6 65390000 		.4byte	0x3965
 9752 22ea 35       		.uleb128 0x35
 9753 22eb 4E000000 		.4byte	.LVL275
 9754 22ef 7A390000 		.4byte	0x397a
 9755 22f3 04230000 		.4byte	0x2304
 9756 22f7 36       		.uleb128 0x36
 9757 22f8 01       		.uleb128 0x1
 9758 22f9 51       		.byte	0x51
 9759 22fa 02       		.uleb128 0x2
 9760 22fb 78       		.byte	0x78
 9761 22fc 00       		.sleb128 0
 9762 22fd 36       		.uleb128 0x36
 9763 22fe 01       		.uleb128 0x1
 9764 22ff 50       		.byte	0x50
 9765 2300 02       		.uleb128 0x2
 9766 2301 79       		.byte	0x79
 9767 2302 00       		.sleb128 0
 9768 2303 00       		.byte	0
 9769 2304 38       		.uleb128 0x38
 9770 2305 6E000000 		.4byte	.LVL280
 9771 2309 99160000 		.4byte	0x1699
 9772 230d 36       		.uleb128 0x36
 9773 230e 01       		.uleb128 0x1
 9774 230f 53       		.byte	0x53
 9775 2310 03       		.uleb128 0x3
 9776 2311 0A       		.byte	0xa
 9777 2312 A501     		.2byte	0x1a5
 9778 2314 36       		.uleb128 0x36
 9779 2315 01       		.uleb128 0x1
 9780 2316 52       		.byte	0x52
 9781 2317 05       		.uleb128 0x5
 9782 2318 03       		.byte	0x3
 9783 2319 F4000000 		.4byte	.LC10
 9784 231d 36       		.uleb128 0x36
 9785 231e 01       		.uleb128 0x1
 9786 231f 51       		.byte	0x51
 9787 2320 05       		.uleb128 0x5
 9788 2321 03       		.byte	0x3
 9789 2322 00000000 		.4byte	.LC0
 9790 2326 36       		.uleb128 0x36
 9791 2327 02       		.uleb128 0x2
 9792 2328 7D       		.byte	0x7d
 9793 2329 00       		.sleb128 0
 9794 232a 05       		.uleb128 0x5
 9795 232b 03       		.byte	0x3
 9796 232c 34000000 		.4byte	.LC2
 9797 2330 00       		.byte	0
 9798 2331 00       		.byte	0
 9799 2332 0A       		.uleb128 0xa
 9800 2333 04       		.byte	0x4
 9801 2334 38230000 		.4byte	0x2338
 9802 2338 19       		.uleb128 0x19
 9803 2339 4F0A0000 		.4byte	0xa4f
 9804 233d 0A       		.uleb128 0xa
 9805 233e 04       		.byte	0x4
 9806 233f 43230000 		.4byte	0x2343
ARM GAS  C:\Users\jo\AppData\Local\Temp\cc6wN9Ut.s 			page 175


 9807 2343 19       		.uleb128 0x19
 9808 2344 060A0000 		.4byte	0xa06
 9809 2348 24       		.uleb128 0x24
 9810 2349 8F000000 		.4byte	.LASF348
 9811 234d 01       		.byte	0x1
 9812 234e 1801     		.2byte	0x118
 9813 2350 01       		.byte	0x1
 9814 2351 7A230000 		.4byte	0x237a
 9815 2355 25       		.uleb128 0x25
 9816 2356 E2030000 		.4byte	.LASF304
 9817 235a 01       		.byte	0x1
 9818 235b 1801     		.2byte	0x118
 9819 235d BD140000 		.4byte	0x14bd
 9820 2361 25       		.uleb128 0x25
 9821 2362 E2070000 		.4byte	.LASF349
 9822 2366 01       		.byte	0x1
 9823 2367 1801     		.2byte	0x118
 9824 2369 25000000 		.4byte	0x25
 9825 236d 2E       		.uleb128 0x2e
 9826 236e 420E0000 		.4byte	.LASF291
 9827 2372 01       		.byte	0x1
 9828 2373 1A01     		.2byte	0x11a
 9829 2375 64030000 		.4byte	0x364
 9830 2379 00       		.byte	0
 9831 237a 48       		.uleb128 0x48
 9832 237b 4C0B0000 		.4byte	.LASF350
 9833 237f 01       		.byte	0x1
 9834 2380 BD01     		.2byte	0x1bd
 9835 2382 25000000 		.4byte	0x25
 9836 2386 00000000 		.4byte	.LFB267
 9837 238a 60000000 		.4byte	.LFE267-.LFB267
 9838 238e 01       		.uleb128 0x1
 9839 238f 9C       		.byte	0x9c
 9840 2390 3D240000 		.4byte	0x243d
 9841 2394 2C       		.uleb128 0x2c
 9842 2395 7300     		.ascii	"s\000"
 9843 2397 01       		.byte	0x1
 9844 2398 BD01     		.2byte	0x1bd
 9845 239a 25000000 		.4byte	0x25
 9846 239e 85170000 		.4byte	.LLST84
 9847 23a2 2E       		.uleb128 0x2e
 9848 23a3 E2030000 		.4byte	.LASF304
 9849 23a7 01       		.byte	0x1
 9850 23a8 BF01     		.2byte	0x1bf
 9851 23aa BD140000 		.4byte	0x14bd
 9852 23ae 3E       		.uleb128 0x3e
 9853 23af E2070000 		.4byte	.LASF349
 9854 23b3 01       		.byte	0x1
 9855 23b4 C001     		.2byte	0x1c0
 9856 23b6 25000000 		.4byte	0x25
 9857 23ba BF170000 		.4byte	.LLST85
 9858 23be 31       		.uleb128 0x31
 9859 23bf C9140000 		.4byte	0x14c9
 9860 23c3 00000000 		.4byte	.LBB180
 9861 23c7 D0000000 		.4byte	.Ldebug_ranges0+0xd0
 9862 23cb 01       		.byte	0x1
 9863 23cc C401     		.2byte	0x1c4
ARM GAS  C:\Users\jo\AppData\Local\Temp\cc6wN9Ut.s 			page 176


 9864 23ce EB230000 		.4byte	0x23eb
 9865 23d2 32       		.uleb128 0x32
 9866 23d3 D9140000 		.4byte	0x14d9
 9867 23d7 85170000 		.4byte	.LLST84
 9868 23db 33       		.uleb128 0x33
 9869 23dc D0000000 		.4byte	.Ldebug_ranges0+0xd0
 9870 23e0 34       		.uleb128 0x34
 9871 23e1 E2140000 		.4byte	0x14e2
 9872 23e5 F4170000 		.4byte	.LLST87
 9873 23e9 00       		.byte	0
 9874 23ea 00       		.byte	0
 9875 23eb 31       		.uleb128 0x31
 9876 23ec 48230000 		.4byte	0x2348
 9877 23f0 2A000000 		.4byte	.LBB186
 9878 23f4 F0000000 		.4byte	.Ldebug_ranges0+0xf0
 9879 23f8 01       		.byte	0x1
 9880 23f9 D101     		.2byte	0x1d1
 9881 23fb 33240000 		.4byte	0x2433
 9882 23ff 32       		.uleb128 0x32
 9883 2400 61230000 		.4byte	0x2361
 9884 2404 27180000 		.4byte	.LLST88
 9885 2408 32       		.uleb128 0x32
 9886 2409 55230000 		.4byte	0x2355
 9887 240d 44180000 		.4byte	.LLST89
 9888 2411 33       		.uleb128 0x33
 9889 2412 F0000000 		.4byte	.Ldebug_ranges0+0xf0
 9890 2416 34       		.uleb128 0x34
 9891 2417 6D230000 		.4byte	0x236d
 9892 241b 62180000 		.4byte	.LLST90
 9893 241f 37       		.uleb128 0x37
 9894 2420 42000000 		.4byte	.LVL295
 9895 2424 99390000 		.4byte	0x3999
 9896 2428 37       		.uleb128 0x37
 9897 2429 4C000000 		.4byte	.LVL297
 9898 242d AA390000 		.4byte	0x39aa
 9899 2431 00       		.byte	0
 9900 2432 00       		.byte	0
 9901 2433 37       		.uleb128 0x37
 9902 2434 2A000000 		.4byte	.LVL293
 9903 2438 50390000 		.4byte	0x3950
 9904 243c 00       		.byte	0
 9905 243d 48       		.uleb128 0x48
 9906 243e A3040000 		.4byte	.LASF351
 9907 2442 01       		.byte	0x1
 9908 2443 D701     		.2byte	0x1d7
 9909 2445 25000000 		.4byte	0x25
 9910 2449 00000000 		.4byte	.LFB268
 9911 244d C4000000 		.4byte	.LFE268-.LFB268
 9912 2451 01       		.uleb128 0x1
 9913 2452 9C       		.byte	0x9c
 9914 2453 89250000 		.4byte	0x2589
 9915 2457 2C       		.uleb128 0x2c
 9916 2458 7300     		.ascii	"s\000"
 9917 245a 01       		.byte	0x1
 9918 245b D701     		.2byte	0x1d7
 9919 245d 25000000 		.4byte	0x25
 9920 2461 80180000 		.4byte	.LLST91
ARM GAS  C:\Users\jo\AppData\Local\Temp\cc6wN9Ut.s 			page 177


 9921 2465 2D       		.uleb128 0x2d
 9922 2466 26000000 		.4byte	.LASF318
 9923 246a 01       		.byte	0x1
 9924 246b D701     		.2byte	0x1d7
 9925 246d 32230000 		.4byte	0x2332
 9926 2471 1B190000 		.4byte	.LLST92
 9927 2475 2D       		.uleb128 0x2d
 9928 2476 45080000 		.4byte	.LASF319
 9929 247a 01       		.byte	0x1
 9930 247b D701     		.2byte	0x1d7
 9931 247d 900A0000 		.4byte	0xa90
 9932 2481 6E190000 		.4byte	.LLST93
 9933 2485 2E       		.uleb128 0x2e
 9934 2486 E2030000 		.4byte	.LASF304
 9935 248a 01       		.byte	0x1
 9936 248b D901     		.2byte	0x1d9
 9937 248d BD140000 		.4byte	0x14bd
 9938 2491 3F       		.uleb128 0x3f
 9939 2492 65727200 		.ascii	"err\000"
 9940 2496 01       		.byte	0x1
 9941 2497 DA01     		.2byte	0x1da
 9942 2499 C30A0000 		.4byte	0xac3
 9943 249d A8190000 		.4byte	.LLST94
 9944 24a1 3E       		.uleb128 0x3e
 9945 24a2 370A0000 		.4byte	.LASF346
 9946 24a6 01       		.byte	0x1
 9947 24a7 DB01     		.2byte	0x1db
 9948 24a9 3D230000 		.4byte	0x233d
 9949 24ad C6190000 		.4byte	.LLST95
 9950 24b1 31       		.uleb128 0x31
 9951 24b2 C9140000 		.4byte	0x14c9
 9952 24b6 00000000 		.4byte	.LBB190
 9953 24ba 08010000 		.4byte	.Ldebug_ranges0+0x108
 9954 24be 01       		.byte	0x1
 9955 24bf DD01     		.2byte	0x1dd
 9956 24c1 DE240000 		.4byte	0x24de
 9957 24c5 32       		.uleb128 0x32
 9958 24c6 D9140000 		.4byte	0x14d9
 9959 24ca 80180000 		.4byte	.LLST91
 9960 24ce 33       		.uleb128 0x33
 9961 24cf 08010000 		.4byte	.Ldebug_ranges0+0x108
 9962 24d3 34       		.uleb128 0x34
 9963 24d4 E2140000 		.4byte	0x14e2
 9964 24d8 F5190000 		.4byte	.LLST97
 9965 24dc 00       		.byte	0
 9966 24dd 00       		.byte	0
 9967 24de 43       		.uleb128 0x43
 9968 24df 34000000 		.4byte	.LBB196
 9969 24e3 1A000000 		.4byte	.LBE196-.LBB196
 9970 24e7 2A250000 		.4byte	0x252a
 9971 24eb 30       		.uleb128 0x30
 9972 24ec A70B0000 		.4byte	.LASF352
 9973 24f0 01       		.byte	0x1
 9974 24f1 EC01     		.2byte	0x1ec
 9975 24f3 E2090000 		.4byte	0x9e2
 9976 24f7 02       		.uleb128 0x2
 9977 24f8 91       		.byte	0x91
ARM GAS  C:\Users\jo\AppData\Local\Temp\cc6wN9Ut.s 			page 178


 9978 24f9 5C       		.sleb128 -36
 9979 24fa 3E       		.uleb128 0x3e
 9980 24fb B60A0000 		.4byte	.LASF219
 9981 24ff 01       		.byte	0x1
 9982 2500 ED01     		.2byte	0x1ed
 9983 2502 92090000 		.4byte	0x992
 9984 2506 D31A0000 		.4byte	.LLST98
 9985 250a 37       		.uleb128 0x37
 9986 250b 44000000 		.4byte	.LVL307
 9987 250f 65390000 		.4byte	0x3965
 9988 2513 38       		.uleb128 0x38
 9989 2514 4E000000 		.4byte	.LVL308
 9990 2518 BF390000 		.4byte	0x39bf
 9991 251c 36       		.uleb128 0x36
 9992 251d 01       		.uleb128 0x1
 9993 251e 51       		.byte	0x51
 9994 251f 02       		.uleb128 0x2
 9995 2520 78       		.byte	0x78
 9996 2521 00       		.sleb128 0
 9997 2522 36       		.uleb128 0x36
 9998 2523 01       		.uleb128 0x1
 9999 2524 50       		.byte	0x50
 10000 2525 02       		.uleb128 0x2
 10001 2526 79       		.byte	0x79
 10002 2527 00       		.sleb128 0
 10003 2528 00       		.byte	0
 10004 2529 00       		.byte	0
 10005 252a 40       		.uleb128 0x40
 10006 252b EE140000 		.4byte	0x14ee
 10007 252f 6E000000 		.4byte	.LBB197
 10008 2533 06000000 		.4byte	.LBE197-.LBB197
 10009 2537 01       		.byte	0x1
 10010 2538 E301     		.2byte	0x1e3
 10011 253a 5B250000 		.4byte	0x255b
 10012 253e 32       		.uleb128 0x32
 10013 253f FB140000 		.4byte	0x14fb
 10014 2543 E71A0000 		.4byte	.LLST99
 10015 2547 38       		.uleb128 0x38
 10016 2548 74000000 		.4byte	.LVL314
 10017 254c FC380000 		.4byte	0x38fc
 10018 2550 36       		.uleb128 0x36
 10019 2551 01       		.uleb128 0x1
 10020 2552 50       		.byte	0x50
 10021 2553 05       		.uleb128 0x5
 10022 2554 03       		.byte	0x3
 10023 2555 10010000 		.4byte	.LC11
 10024 2559 00       		.byte	0
 10025 255a 00       		.byte	0
 10026 255b 38       		.uleb128 0x38
 10027 255c 6E000000 		.4byte	.LVL313
 10028 2560 99160000 		.4byte	0x1699
 10029 2564 36       		.uleb128 0x36
 10030 2565 01       		.uleb128 0x1
 10031 2566 53       		.byte	0x53
 10032 2567 03       		.uleb128 0x3
 10033 2568 0A       		.byte	0xa
 10034 2569 E501     		.2byte	0x1e5
ARM GAS  C:\Users\jo\AppData\Local\Temp\cc6wN9Ut.s 			page 179


 10035 256b 36       		.uleb128 0x36
 10036 256c 01       		.uleb128 0x1
 10037 256d 52       		.byte	0x52
 10038 256e 05       		.uleb128 0x5
 10039 256f 03       		.byte	0x3
 10040 2570 10010000 		.4byte	.LC11
 10041 2574 36       		.uleb128 0x36
 10042 2575 01       		.uleb128 0x1
 10043 2576 51       		.byte	0x51
 10044 2577 05       		.uleb128 0x5
 10045 2578 03       		.byte	0x3
 10046 2579 00000000 		.4byte	.LC0
 10047 257d 36       		.uleb128 0x36
 10048 257e 02       		.uleb128 0x2
 10049 257f 7D       		.byte	0x7d
 10050 2580 00       		.sleb128 0
 10051 2581 05       		.uleb128 0x5
 10052 2582 03       		.byte	0x3
 10053 2583 34000000 		.4byte	.LC2
 10054 2587 00       		.byte	0
 10055 2588 00       		.byte	0
 10056 2589 48       		.uleb128 0x48
 10057 258a C8110000 		.4byte	.LASF353
 10058 258e 01       		.byte	0x1
 10059 258f 0D02     		.2byte	0x20d
 10060 2591 25000000 		.4byte	0x25
 10061 2595 00000000 		.4byte	.LFB269
 10062 2599 80000000 		.4byte	.LFE269-.LFB269
 10063 259d 01       		.uleb128 0x1
 10064 259e 9C       		.byte	0x9c
 10065 259f 14260000 		.4byte	0x2614
 10066 25a3 2C       		.uleb128 0x2c
 10067 25a4 7300     		.ascii	"s\000"
 10068 25a6 01       		.byte	0x1
 10069 25a7 0D02     		.2byte	0x20d
 10070 25a9 25000000 		.4byte	0x25
 10071 25ad FF1A0000 		.4byte	.LLST100
 10072 25b1 2D       		.uleb128 0x2d
 10073 25b2 D30D0000 		.4byte	.LASF354
 10074 25b6 01       		.byte	0x1
 10075 25b7 0D02     		.2byte	0x20d
 10076 25b9 25000000 		.4byte	0x25
 10077 25bd 761B0000 		.4byte	.LLST101
 10078 25c1 2E       		.uleb128 0x2e
 10079 25c2 E2030000 		.4byte	.LASF304
 10080 25c6 01       		.byte	0x1
 10081 25c7 0F02     		.2byte	0x20f
 10082 25c9 BD140000 		.4byte	0x14bd
 10083 25cd 3F       		.uleb128 0x3f
 10084 25ce 65727200 		.ascii	"err\000"
 10085 25d2 01       		.byte	0x1
 10086 25d3 1002     		.2byte	0x210
 10087 25d5 C30A0000 		.4byte	0xac3
 10088 25d9 BB1B0000 		.4byte	.LLST102
 10089 25dd 31       		.uleb128 0x31
 10090 25de C9140000 		.4byte	0x14c9
 10091 25e2 00000000 		.4byte	.LBB199
ARM GAS  C:\Users\jo\AppData\Local\Temp\cc6wN9Ut.s 			page 180


 10092 25e6 28010000 		.4byte	.Ldebug_ranges0+0x128
 10093 25ea 01       		.byte	0x1
 10094 25eb 1402     		.2byte	0x214
 10095 25ed 0A260000 		.4byte	0x260a
 10096 25f1 32       		.uleb128 0x32
 10097 25f2 D9140000 		.4byte	0x14d9
 10098 25f6 FF1A0000 		.4byte	.LLST100
 10099 25fa 33       		.uleb128 0x33
 10100 25fb 28010000 		.4byte	.Ldebug_ranges0+0x128
 10101 25ff 34       		.uleb128 0x34
 10102 2600 E2140000 		.4byte	0x14e2
 10103 2604 D91B0000 		.4byte	.LLST104
 10104 2608 00       		.byte	0
 10105 2609 00       		.byte	0
 10106 260a 37       		.uleb128 0x37
 10107 260b 2A000000 		.4byte	.LVL327
 10108 260f DE390000 		.4byte	0x39de
 10109 2613 00       		.byte	0
 10110 2614 48       		.uleb128 0x48
 10111 2615 AA010000 		.4byte	.LASF355
 10112 2619 01       		.byte	0x1
 10113 261a 2D02     		.2byte	0x22d
 10114 261c 25000000 		.4byte	0x25
 10115 2620 00000000 		.4byte	.LFB270
 10116 2624 E0020000 		.4byte	.LFE270-.LFB270
 10117 2628 01       		.uleb128 0x1
 10118 2629 9C       		.byte	0x9c
 10119 262a 1C290000 		.4byte	0x291c
 10120 262e 2C       		.uleb128 0x2c
 10121 262f 7300     		.ascii	"s\000"
 10122 2631 01       		.byte	0x1
 10123 2632 2D02     		.2byte	0x22d
 10124 2634 25000000 		.4byte	0x25
 10125 2638 771C0000 		.4byte	.LLST105
 10126 263c 2C       		.uleb128 0x2c
 10127 263d 6D656D00 		.ascii	"mem\000"
 10128 2641 01       		.byte	0x1
 10129 2642 2D02     		.2byte	0x22d
 10130 2644 64030000 		.4byte	0x364
 10131 2648 BA1C0000 		.4byte	.LLST106
 10132 264c 2C       		.uleb128 0x2c
 10133 264d 6C656E00 		.ascii	"len\000"
 10134 2651 01       		.byte	0x1
 10135 2652 2D02     		.2byte	0x22d
 10136 2654 2C000000 		.4byte	0x2c
 10137 2658 F21C0000 		.4byte	.LLST107
 10138 265c 2D       		.uleb128 0x2d
 10139 265d 9A010000 		.4byte	.LASF175
 10140 2661 01       		.byte	0x1
 10141 2662 2D02     		.2byte	0x22d
 10142 2664 25000000 		.4byte	0x25
 10143 2668 441D0000 		.4byte	.LLST108
 10144 266c 2D       		.uleb128 0x2d
 10145 266d 2B000000 		.4byte	.LASF356
 10146 2671 01       		.byte	0x1
 10147 2672 2E02     		.2byte	0x22e
 10148 2674 93160000 		.4byte	0x1693
ARM GAS  C:\Users\jo\AppData\Local\Temp\cc6wN9Ut.s 			page 181


 10149 2678 781D0000 		.4byte	.LLST109
 10150 267c 2D       		.uleb128 0x2d
 10151 267d CE0C0000 		.4byte	.LASF357
 10152 2681 01       		.byte	0x1
 10153 2682 2E02     		.2byte	0x22e
 10154 2684 C3140000 		.4byte	0x14c3
 10155 2688 981D0000 		.4byte	.LLST110
 10156 268c 2E       		.uleb128 0x2e
 10157 268d E2030000 		.4byte	.LASF304
 10158 2691 01       		.byte	0x1
 10159 2692 3002     		.2byte	0x230
 10160 2694 BD140000 		.4byte	0x14bd
 10161 2698 2F       		.uleb128 0x2f
 10162 2699 62756600 		.ascii	"buf\000"
 10163 269d 01       		.byte	0x1
 10164 269e 3102     		.2byte	0x231
 10165 26a0 64030000 		.4byte	0x364
 10166 26a4 02       		.uleb128 0x2
 10167 26a5 91       		.byte	0x91
 10168 26a6 40       		.sleb128 -64
 10169 26a7 3F       		.uleb128 0x3f
 10170 26a8 7000     		.ascii	"p\000"
 10171 26aa 01       		.byte	0x1
 10172 26ab 3202     		.2byte	0x232
 10173 26ad 2F0B0000 		.4byte	0xb2f
 10174 26b1 B81D0000 		.4byte	.LLST111
 10175 26b5 3E       		.uleb128 0x3e
 10176 26b6 A7050000 		.4byte	.LASF358
 10177 26ba 01       		.byte	0x1
 10178 26bb 3302     		.2byte	0x233
 10179 26bd 92090000 		.4byte	0x992
 10180 26c1 E11D0000 		.4byte	.LLST112
 10181 26c5 3E       		.uleb128 0x3e
 10182 26c6 CD040000 		.4byte	.LASF359
 10183 26ca 01       		.byte	0x1
 10184 26cb 3302     		.2byte	0x233
 10185 26cd 92090000 		.4byte	0x992
 10186 26d1 161E0000 		.4byte	.LLST113
 10187 26d5 3F       		.uleb128 0x3f
 10188 26d6 6F666600 		.ascii	"off\000"
 10189 26da 01       		.byte	0x1
 10190 26db 3402     		.2byte	0x234
 10191 26dd 25000000 		.4byte	0x25
 10192 26e1 4A1E0000 		.4byte	.LLST114
 10193 26e5 3E       		.uleb128 0x3e
 10194 26e6 90100000 		.4byte	.LASF151
 10195 26ea 01       		.byte	0x1
 10196 26eb 3502     		.2byte	0x235
 10197 26ed F7100000 		.4byte	0x10f7
 10198 26f1 801E0000 		.4byte	.LLST115
 10199 26f5 30       		.uleb128 0x30
 10200 26f6 4B0E0000 		.4byte	.LASF177
 10201 26fa 01       		.byte	0x1
 10202 26fb 3602     		.2byte	0x236
 10203 26fd 92090000 		.4byte	0x992
 10204 2701 03       		.uleb128 0x3
 10205 2702 91       		.byte	0x91
ARM GAS  C:\Users\jo\AppData\Local\Temp\cc6wN9Ut.s 			page 182


 10206 2703 BE7F     		.sleb128 -66
 10207 2705 3E       		.uleb128 0x3e
 10208 2706 730B0000 		.4byte	.LASF360
 10209 270a 01       		.byte	0x1
 10210 270b 3702     		.2byte	0x237
 10211 270d 7C090000 		.4byte	0x97c
 10212 2711 BA1E0000 		.4byte	.LLST116
 10213 2715 3F       		.uleb128 0x3f
 10214 2716 65727200 		.ascii	"err\000"
 10215 271a 01       		.byte	0x1
 10216 271b 3802     		.2byte	0x238
 10217 271d C30A0000 		.4byte	0xac3
 10218 2721 221F0000 		.4byte	.LLST117
 10219 2725 31       		.uleb128 0x31
 10220 2726 C9140000 		.4byte	0x14c9
 10221 272a 0A000000 		.4byte	.LBB203
 10222 272e 40010000 		.4byte	.Ldebug_ranges0+0x140
 10223 2732 01       		.byte	0x1
 10224 2733 3B02     		.2byte	0x23b
 10225 2735 5C270000 		.4byte	0x275c
 10226 2739 32       		.uleb128 0x32
 10227 273a D9140000 		.4byte	0x14d9
 10228 273e 611F0000 		.4byte	.LLST118
 10229 2742 33       		.uleb128 0x33
 10230 2743 40010000 		.4byte	.Ldebug_ranges0+0x140
 10231 2747 3B       		.uleb128 0x3b
 10232 2748 E2140000 		.4byte	0x14e2
 10233 274c 0D       		.uleb128 0xd
 10234 274d 91       		.byte	0x91
 10235 274e AC7F     		.sleb128 -84
 10236 2750 06       		.byte	0x6
 10237 2751 48       		.byte	0x48
 10238 2752 1E       		.byte	0x1e
 10239 2753 03       		.byte	0x3
 10240 2754 00000000 		.4byte	sockets
 10241 2758 22       		.byte	0x22
 10242 2759 9F       		.byte	0x9f
 10243 275a 00       		.byte	0
 10244 275b 00       		.byte	0
 10245 275c 46       		.uleb128 0x46
 10246 275d 68010000 		.4byte	.Ldebug_ranges0+0x168
 10247 2761 CB270000 		.4byte	0x27cb
 10248 2765 30       		.uleb128 0x30
 10249 2766 5B100000 		.4byte	.LASF361
 10250 276a 01       		.byte	0x1
 10251 276b 9B02     		.2byte	0x29b
 10252 276d E2090000 		.4byte	0x9e2
 10253 2771 02       		.uleb128 0x2
 10254 2772 91       		.byte	0x91
 10255 2773 44       		.sleb128 -60
 10256 2774 33       		.uleb128 0x33
 10257 2775 80010000 		.4byte	.Ldebug_ranges0+0x180
 10258 2779 2F       		.uleb128 0x2f
 10259 277a 73696E00 		.ascii	"sin\000"
 10260 277e 01       		.byte	0x1
 10261 277f 9D02     		.2byte	0x29d
 10262 2781 060A0000 		.4byte	0xa06
ARM GAS  C:\Users\jo\AppData\Local\Temp\cc6wN9Ut.s 			page 183


 10263 2785 02       		.uleb128 0x2
 10264 2786 91       		.byte	0x91
 10265 2787 48       		.sleb128 -56
 10266 2788 37       		.uleb128 0x37
 10267 2789 EE000000 		.4byte	.LVL360
 10268 278d AB380000 		.4byte	0x38ab
 10269 2791 35       		.uleb128 0x35
 10270 2792 14010000 		.4byte	.LVL361
 10271 2796 C0380000 		.4byte	0x38c0
 10272 279a AB270000 		.4byte	0x27ab
 10273 279e 36       		.uleb128 0x36
 10274 279f 01       		.uleb128 0x1
 10275 27a0 51       		.byte	0x51
 10276 27a1 02       		.uleb128 0x2
 10277 27a2 91       		.byte	0x91
 10278 27a3 48       		.sleb128 -56
 10279 27a4 36       		.uleb128 0x36
 10280 27a5 01       		.uleb128 0x1
 10281 27a6 50       		.byte	0x50
 10282 27a7 02       		.uleb128 0x2
 10283 27a8 7A       		.byte	0x7a
 10284 27a9 00       		.sleb128 0
 10285 27aa 00       		.byte	0
 10286 27ab 38       		.uleb128 0x38
 10287 27ac CC010000 		.4byte	.LVL374
 10288 27b0 87380000 		.4byte	0x3887
 10289 27b4 36       		.uleb128 0x36
 10290 27b5 01       		.uleb128 0x1
 10291 27b6 53       		.byte	0x53
 10292 27b7 01       		.uleb128 0x1
 10293 27b8 30       		.byte	0x30
 10294 27b9 36       		.uleb128 0x36
 10295 27ba 01       		.uleb128 0x1
 10296 27bb 52       		.byte	0x52
 10297 27bc 03       		.uleb128 0x3
 10298 27bd 91       		.byte	0x91
 10299 27be BE7F     		.sleb128 -66
 10300 27c0 36       		.uleb128 0x36
 10301 27c1 01       		.uleb128 0x1
 10302 27c2 51       		.byte	0x51
 10303 27c3 04       		.uleb128 0x4
 10304 27c4 91       		.byte	0x91
 10305 27c5 A47F     		.sleb128 -92
 10306 27c7 06       		.byte	0x6
 10307 27c8 00       		.byte	0
 10308 27c9 00       		.byte	0
 10309 27ca 00       		.byte	0
 10310 27cb 40       		.uleb128 0x40
 10311 27cc EE140000 		.4byte	0x14ee
 10312 27d0 E8010000 		.4byte	.LBB215
 10313 27d4 08000000 		.4byte	.LBE215-.LBB215
 10314 27d8 01       		.byte	0x1
 10315 27d9 8D02     		.2byte	0x28d
 10316 27db FC270000 		.4byte	0x27fc
 10317 27df 32       		.uleb128 0x32
 10318 27e0 FB140000 		.4byte	0x14fb
 10319 27e4 991F0000 		.4byte	.LLST119
ARM GAS  C:\Users\jo\AppData\Local\Temp\cc6wN9Ut.s 			page 184


 10320 27e8 38       		.uleb128 0x38
 10321 27e9 EE010000 		.4byte	.LVL377
 10322 27ed FC380000 		.4byte	0x38fc
 10323 27f1 36       		.uleb128 0x36
 10324 27f2 01       		.uleb128 0x1
 10325 27f3 50       		.byte	0x50
 10326 27f4 05       		.uleb128 0x5
 10327 27f5 03       		.byte	0x3
 10328 27f6 3C010000 		.4byte	.LC13
 10329 27fa 00       		.byte	0
 10330 27fb 00       		.byte	0
 10331 27fc 40       		.uleb128 0x40
 10332 27fd EE140000 		.4byte	0x14ee
 10333 2801 6E020000 		.4byte	.LBB217
 10334 2805 0A000000 		.4byte	.LBE217-.LBB217
 10335 2809 01       		.byte	0x1
 10336 280a 7102     		.2byte	0x271
 10337 280c 2D280000 		.4byte	0x282d
 10338 2810 32       		.uleb128 0x32
 10339 2811 FB140000 		.4byte	0x14fb
 10340 2815 B11F0000 		.4byte	.LLST120
 10341 2819 38       		.uleb128 0x38
 10342 281a 74020000 		.4byte	.LVL390
 10343 281e FC380000 		.4byte	0x38fc
 10344 2822 36       		.uleb128 0x36
 10345 2823 01       		.uleb128 0x1
 10346 2824 50       		.byte	0x50
 10347 2825 05       		.uleb128 0x5
 10348 2826 03       		.byte	0x3
 10349 2827 30010000 		.4byte	.LC12
 10350 282b 00       		.byte	0
 10351 282c 00       		.byte	0
 10352 282d 35       		.uleb128 0x35
 10353 282e 78000000 		.4byte	.LVL352
 10354 2832 F8390000 		.4byte	0x39f8
 10355 2836 52280000 		.4byte	0x2852
 10356 283a 36       		.uleb128 0x36
 10357 283b 01       		.uleb128 0x1
 10358 283c 52       		.byte	0x52
 10359 283d 02       		.uleb128 0x2
 10360 283e 76       		.byte	0x76
 10361 283f 00       		.sleb128 0
 10362 2840 36       		.uleb128 0x36
 10363 2841 01       		.uleb128 0x1
 10364 2842 51       		.byte	0x51
 10365 2843 07       		.uleb128 0x7
 10366 2844 91       		.byte	0x91
 10367 2845 A07F     		.sleb128 -96
 10368 2847 06       		.byte	0x6
 10369 2848 78       		.byte	0x78
 10370 2849 00       		.sleb128 0
 10371 284a 22       		.byte	0x22
 10372 284b 36       		.uleb128 0x36
 10373 284c 01       		.uleb128 0x1
 10374 284d 50       		.byte	0x50
 10375 284e 02       		.uleb128 0x2
 10376 284f 7B       		.byte	0x7b
ARM GAS  C:\Users\jo\AppData\Local\Temp\cc6wN9Ut.s 			page 185


 10377 2850 00       		.sleb128 0
 10378 2851 00       		.byte	0
 10379 2852 35       		.uleb128 0x35
 10380 2853 32010000 		.4byte	.LVL363
 10381 2857 1C3A0000 		.4byte	0x3a1c
 10382 285b 66280000 		.4byte	0x2866
 10383 285f 36       		.uleb128 0x36
 10384 2860 01       		.uleb128 0x1
 10385 2861 51       		.byte	0x51
 10386 2862 02       		.uleb128 0x2
 10387 2863 78       		.byte	0x78
 10388 2864 00       		.sleb128 0
 10389 2865 00       		.byte	0
 10390 2866 37       		.uleb128 0x37
 10391 2867 62010000 		.4byte	.LVL366
 10392 286b 99390000 		.4byte	0x3999
 10393 286f 35       		.uleb128 0x35
 10394 2870 96010000 		.4byte	.LVL368
 10395 2874 323A0000 		.4byte	0x3a32
 10396 2878 83280000 		.4byte	0x2883
 10397 287c 36       		.uleb128 0x36
 10398 287d 01       		.uleb128 0x1
 10399 287e 51       		.byte	0x51
 10400 287f 02       		.uleb128 0x2
 10401 2880 91       		.byte	0x91
 10402 2881 40       		.sleb128 -64
 10403 2882 00       		.byte	0
 10404 2883 35       		.uleb128 0x35
 10405 2884 E8010000 		.4byte	.LVL376
 10406 2888 99160000 		.4byte	0x1699
 10407 288c B4280000 		.4byte	0x28b4
 10408 2890 36       		.uleb128 0x36
 10409 2891 01       		.uleb128 0x1
 10410 2892 53       		.byte	0x53
 10411 2893 03       		.uleb128 0x3
 10412 2894 0A       		.byte	0xa
 10413 2895 8D02     		.2byte	0x28d
 10414 2897 36       		.uleb128 0x36
 10415 2898 01       		.uleb128 0x1
 10416 2899 52       		.byte	0x52
 10417 289a 05       		.uleb128 0x5
 10418 289b 03       		.byte	0x3
 10419 289c 3C010000 		.4byte	.LC13
 10420 28a0 36       		.uleb128 0x36
 10421 28a1 01       		.uleb128 0x1
 10422 28a2 51       		.byte	0x51
 10423 28a3 05       		.uleb128 0x5
 10424 28a4 03       		.byte	0x3
 10425 28a5 00000000 		.4byte	.LC0
 10426 28a9 36       		.uleb128 0x36
 10427 28aa 02       		.uleb128 0x2
 10428 28ab 7D       		.byte	0x7d
 10429 28ac 00       		.sleb128 0
 10430 28ad 05       		.uleb128 0x5
 10431 28ae 03       		.byte	0x3
 10432 28af 34000000 		.4byte	.LC2
 10433 28b3 00       		.byte	0
ARM GAS  C:\Users\jo\AppData\Local\Temp\cc6wN9Ut.s 			page 186


 10434 28b4 37       		.uleb128 0x37
 10435 28b5 0C020000 		.4byte	.LVL382
 10436 28b9 523A0000 		.4byte	0x3a52
 10437 28bd 37       		.uleb128 0x37
 10438 28be 54020000 		.4byte	.LVL386
 10439 28c2 AA390000 		.4byte	0x39aa
 10440 28c6 35       		.uleb128 0x35
 10441 28c7 6E020000 		.4byte	.LVL389
 10442 28cb 99160000 		.4byte	0x1699
 10443 28cf F7280000 		.4byte	0x28f7
 10444 28d3 36       		.uleb128 0x36
 10445 28d4 01       		.uleb128 0x1
 10446 28d5 53       		.byte	0x53
 10447 28d6 03       		.uleb128 0x3
 10448 28d7 0A       		.byte	0xa
 10449 28d8 7102     		.2byte	0x271
 10450 28da 36       		.uleb128 0x36
 10451 28db 01       		.uleb128 0x1
 10452 28dc 52       		.byte	0x52
 10453 28dd 05       		.uleb128 0x5
 10454 28de 03       		.byte	0x3
 10455 28df 30010000 		.4byte	.LC12
 10456 28e3 36       		.uleb128 0x36
 10457 28e4 01       		.uleb128 0x1
 10458 28e5 51       		.byte	0x51
 10459 28e6 05       		.uleb128 0x5
 10460 28e7 03       		.byte	0x3
 10461 28e8 00000000 		.4byte	.LC0
 10462 28ec 36       		.uleb128 0x36
 10463 28ed 02       		.uleb128 0x2
 10464 28ee 7D       		.byte	0x7d
 10465 28ef 00       		.sleb128 0
 10466 28f0 05       		.uleb128 0x5
 10467 28f1 03       		.byte	0x3
 10468 28f2 34000000 		.4byte	.LC2
 10469 28f6 00       		.byte	0
 10470 28f7 35       		.uleb128 0x35
 10471 28f8 86020000 		.4byte	.LVL392
 10472 28fc 1C3A0000 		.4byte	0x3a1c
 10473 2900 0B290000 		.4byte	0x290b
 10474 2904 36       		.uleb128 0x36
 10475 2905 01       		.uleb128 0x1
 10476 2906 51       		.byte	0x51
 10477 2907 02       		.uleb128 0x2
 10478 2908 78       		.byte	0x78
 10479 2909 00       		.sleb128 0
 10480 290a 00       		.byte	0
 10481 290b 38       		.uleb128 0x38
 10482 290c A6020000 		.4byte	.LVL395
 10483 2910 1C3A0000 		.4byte	0x3a1c
 10484 2914 36       		.uleb128 0x36
 10485 2915 01       		.uleb128 0x1
 10486 2916 51       		.byte	0x51
 10487 2917 02       		.uleb128 0x2
 10488 2918 78       		.byte	0x78
 10489 2919 00       		.sleb128 0
 10490 291a 00       		.byte	0
ARM GAS  C:\Users\jo\AppData\Local\Temp\cc6wN9Ut.s 			page 187


 10491 291b 00       		.byte	0
 10492 291c 48       		.uleb128 0x48
 10493 291d D80E0000 		.4byte	.LASF362
 10494 2921 01       		.byte	0x1
 10495 2922 E602     		.2byte	0x2e6
 10496 2924 25000000 		.4byte	0x25
 10497 2928 00000000 		.4byte	.LFB271
 10498 292c 14000000 		.4byte	.LFE271-.LFB271
 10499 2930 01       		.uleb128 0x1
 10500 2931 9C       		.byte	0x9c
 10501 2932 95290000 		.4byte	0x2995
 10502 2936 2C       		.uleb128 0x2c
 10503 2937 7300     		.ascii	"s\000"
 10504 2939 01       		.byte	0x1
 10505 293a E602     		.2byte	0x2e6
 10506 293c 25000000 		.4byte	0x25
 10507 2940 C91F0000 		.4byte	.LLST121
 10508 2944 2C       		.uleb128 0x2c
 10509 2945 6D656D00 		.ascii	"mem\000"
 10510 2949 01       		.byte	0x1
 10511 294a E602     		.2byte	0x2e6
 10512 294c 64030000 		.4byte	0x364
 10513 2950 EA1F0000 		.4byte	.LLST122
 10514 2954 2C       		.uleb128 0x2c
 10515 2955 6C656E00 		.ascii	"len\000"
 10516 2959 01       		.byte	0x1
 10517 295a E602     		.2byte	0x2e6
 10518 295c 2C000000 		.4byte	0x2c
 10519 2960 0B200000 		.4byte	.LLST123
 10520 2964 38       		.uleb128 0x38
 10521 2965 0E000000 		.4byte	.LVL397
 10522 2969 14260000 		.4byte	0x2614
 10523 296d 36       		.uleb128 0x36
 10524 296e 01       		.uleb128 0x1
 10525 296f 53       		.byte	0x53
 10526 2970 01       		.uleb128 0x1
 10527 2971 30       		.byte	0x30
 10528 2972 36       		.uleb128 0x36
 10529 2973 01       		.uleb128 0x1
 10530 2974 52       		.byte	0x52
 10531 2975 03       		.uleb128 0x3
 10532 2976 F3       		.byte	0xf3
 10533 2977 01       		.uleb128 0x1
 10534 2978 52       		.byte	0x52
 10535 2979 36       		.uleb128 0x36
 10536 297a 01       		.uleb128 0x1
 10537 297b 51       		.byte	0x51
 10538 297c 03       		.uleb128 0x3
 10539 297d F3       		.byte	0xf3
 10540 297e 01       		.uleb128 0x1
 10541 297f 51       		.byte	0x51
 10542 2980 36       		.uleb128 0x36
 10543 2981 01       		.uleb128 0x1
 10544 2982 50       		.byte	0x50
 10545 2983 03       		.uleb128 0x3
 10546 2984 F3       		.byte	0xf3
 10547 2985 01       		.uleb128 0x1
ARM GAS  C:\Users\jo\AppData\Local\Temp\cc6wN9Ut.s 			page 188


 10548 2986 50       		.byte	0x50
 10549 2987 36       		.uleb128 0x36
 10550 2988 02       		.uleb128 0x2
 10551 2989 7D       		.byte	0x7d
 10552 298a 04       		.sleb128 4
 10553 298b 01       		.uleb128 0x1
 10554 298c 30       		.byte	0x30
 10555 298d 36       		.uleb128 0x36
 10556 298e 02       		.uleb128 0x2
 10557 298f 7D       		.byte	0x7d
 10558 2990 00       		.sleb128 0
 10559 2991 01       		.uleb128 0x1
 10560 2992 30       		.byte	0x30
 10561 2993 00       		.byte	0
 10562 2994 00       		.byte	0
 10563 2995 48       		.uleb128 0x48
 10564 2996 71120000 		.4byte	.LASF363
 10565 299a 01       		.byte	0x1
 10566 299b EC02     		.2byte	0x2ec
 10567 299d 25000000 		.4byte	0x25
 10568 29a1 00000000 		.4byte	.LFB272
 10569 29a5 12000000 		.4byte	.LFE272-.LFB272
 10570 29a9 01       		.uleb128 0x1
 10571 29aa 9C       		.byte	0x9c
 10572 29ab 222A0000 		.4byte	0x2a22
 10573 29af 2C       		.uleb128 0x2c
 10574 29b0 7300     		.ascii	"s\000"
 10575 29b2 01       		.byte	0x1
 10576 29b3 EC02     		.2byte	0x2ec
 10577 29b5 25000000 		.4byte	0x25
 10578 29b9 2C200000 		.4byte	.LLST124
 10579 29bd 2C       		.uleb128 0x2c
 10580 29be 6D656D00 		.ascii	"mem\000"
 10581 29c2 01       		.byte	0x1
 10582 29c3 EC02     		.2byte	0x2ec
 10583 29c5 64030000 		.4byte	0x364
 10584 29c9 4D200000 		.4byte	.LLST125
 10585 29cd 2C       		.uleb128 0x2c
 10586 29ce 6C656E00 		.ascii	"len\000"
 10587 29d2 01       		.byte	0x1
 10588 29d3 EC02     		.2byte	0x2ec
 10589 29d5 2C000000 		.4byte	0x2c
 10590 29d9 6E200000 		.4byte	.LLST126
 10591 29dd 2D       		.uleb128 0x2d
 10592 29de 9A010000 		.4byte	.LASF175
 10593 29e2 01       		.byte	0x1
 10594 29e3 EC02     		.2byte	0x2ec
 10595 29e5 25000000 		.4byte	0x25
 10596 29e9 8F200000 		.4byte	.LLST127
 10597 29ed 38       		.uleb128 0x38
 10598 29ee 0E000000 		.4byte	.LVL399
 10599 29f2 14260000 		.4byte	0x2614
 10600 29f6 36       		.uleb128 0x36
 10601 29f7 01       		.uleb128 0x1
 10602 29f8 53       		.byte	0x53
 10603 29f9 03       		.uleb128 0x3
 10604 29fa F3       		.byte	0xf3
ARM GAS  C:\Users\jo\AppData\Local\Temp\cc6wN9Ut.s 			page 189


 10605 29fb 01       		.uleb128 0x1
 10606 29fc 53       		.byte	0x53
 10607 29fd 36       		.uleb128 0x36
 10608 29fe 01       		.uleb128 0x1
 10609 29ff 52       		.byte	0x52
 10610 2a00 03       		.uleb128 0x3
 10611 2a01 F3       		.byte	0xf3
 10612 2a02 01       		.uleb128 0x1
 10613 2a03 52       		.byte	0x52
 10614 2a04 36       		.uleb128 0x36
 10615 2a05 01       		.uleb128 0x1
 10616 2a06 51       		.byte	0x51
 10617 2a07 03       		.uleb128 0x3
 10618 2a08 F3       		.byte	0xf3
 10619 2a09 01       		.uleb128 0x1
 10620 2a0a 51       		.byte	0x51
 10621 2a0b 36       		.uleb128 0x36
 10622 2a0c 01       		.uleb128 0x1
 10623 2a0d 50       		.byte	0x50
 10624 2a0e 03       		.uleb128 0x3
 10625 2a0f F3       		.byte	0xf3
 10626 2a10 01       		.uleb128 0x1
 10627 2a11 50       		.byte	0x50
 10628 2a12 36       		.uleb128 0x36
 10629 2a13 02       		.uleb128 0x2
 10630 2a14 7D       		.byte	0x7d
 10631 2a15 04       		.sleb128 4
 10632 2a16 02       		.uleb128 0x2
 10633 2a17 74       		.byte	0x74
 10634 2a18 00       		.sleb128 0
 10635 2a19 36       		.uleb128 0x36
 10636 2a1a 02       		.uleb128 0x2
 10637 2a1b 7D       		.byte	0x7d
 10638 2a1c 00       		.sleb128 0
 10639 2a1d 02       		.uleb128 0x2
 10640 2a1e 74       		.byte	0x74
 10641 2a1f 00       		.sleb128 0
 10642 2a20 00       		.byte	0
 10643 2a21 00       		.byte	0
 10644 2a22 48       		.uleb128 0x48
 10645 2a23 B2060000 		.4byte	.LASF364
 10646 2a27 01       		.byte	0x1
 10647 2a28 1603     		.2byte	0x316
 10648 2a2a 25000000 		.4byte	0x25
 10649 2a2e 00000000 		.4byte	.LFB274
 10650 2a32 44010000 		.4byte	.LFE274-.LFB274
 10651 2a36 01       		.uleb128 0x1
 10652 2a37 9C       		.byte	0x9c
 10653 2a38 542C0000 		.4byte	0x2c54
 10654 2a3c 2C       		.uleb128 0x2c
 10655 2a3d 7300     		.ascii	"s\000"
 10656 2a3f 01       		.byte	0x1
 10657 2a40 1603     		.2byte	0x316
 10658 2a42 25000000 		.4byte	0x25
 10659 2a46 B0200000 		.4byte	.LLST128
 10660 2a4a 2D       		.uleb128 0x2d
 10661 2a4b AE080000 		.4byte	.LASF321
ARM GAS  C:\Users\jo\AppData\Local\Temp\cc6wN9Ut.s 			page 190


 10662 2a4f 01       		.byte	0x1
 10663 2a50 1603     		.2byte	0x316
 10664 2a52 FD100000 		.4byte	0x10fd
 10665 2a56 48210000 		.4byte	.LLST129
 10666 2a5a 2D       		.uleb128 0x2d
 10667 2a5b C20A0000 		.4byte	.LASF365
 10668 2a5f 01       		.byte	0x1
 10669 2a60 1603     		.2byte	0x316
 10670 2a62 2C000000 		.4byte	0x2c
 10671 2a66 AE210000 		.4byte	.LLST130
 10672 2a6a 2D       		.uleb128 0x2d
 10673 2a6b 9A010000 		.4byte	.LASF175
 10674 2a6f 01       		.byte	0x1
 10675 2a70 1603     		.2byte	0x316
 10676 2a72 25000000 		.4byte	0x25
 10677 2a76 25220000 		.4byte	.LLST131
 10678 2a7a 2C       		.uleb128 0x2c
 10679 2a7b 746F00   		.ascii	"to\000"
 10680 2a7e 01       		.byte	0x1
 10681 2a7f 1703     		.2byte	0x317
 10682 2a81 32230000 		.4byte	0x2332
 10683 2a85 91220000 		.4byte	.LLST132
 10684 2a89 2D       		.uleb128 0x2d
 10685 2a8a 41000000 		.4byte	.LASF366
 10686 2a8e 01       		.byte	0x1
 10687 2a8f 1703     		.2byte	0x317
 10688 2a91 900A0000 		.4byte	0xa90
 10689 2a95 B1220000 		.4byte	.LLST133
 10690 2a99 2E       		.uleb128 0x2e
 10691 2a9a E2030000 		.4byte	.LASF304
 10692 2a9e 01       		.byte	0x1
 10693 2a9f 1903     		.2byte	0x319
 10694 2aa1 BD140000 		.4byte	0x14bd
 10695 2aa5 3F       		.uleb128 0x3f
 10696 2aa6 65727200 		.ascii	"err\000"
 10697 2aaa 01       		.byte	0x1
 10698 2aab 1A03     		.2byte	0x31a
 10699 2aad C30A0000 		.4byte	0xac3
 10700 2ab1 D1220000 		.4byte	.LLST134
 10701 2ab5 3E       		.uleb128 0x3e
 10702 2ab6 8E080000 		.4byte	.LASF367
 10703 2aba 01       		.byte	0x1
 10704 2abb 1B03     		.2byte	0x31b
 10705 2abd 92090000 		.4byte	0x992
 10706 2ac1 10230000 		.4byte	.LLST135
 10707 2ac5 3E       		.uleb128 0x3e
 10708 2ac6 7C030000 		.4byte	.LASF368
 10709 2aca 01       		.byte	0x1
 10710 2acb 1C03     		.2byte	0x31c
 10711 2acd 3D230000 		.4byte	0x233d
 10712 2ad1 2E230000 		.4byte	.LLST136
 10713 2ad5 3E       		.uleb128 0x3e
 10714 2ad6 B60A0000 		.4byte	.LASF219
 10715 2ada 01       		.byte	0x1
 10716 2adb 1D03     		.2byte	0x31d
 10717 2add 92090000 		.4byte	0x992
 10718 2ae1 4D230000 		.4byte	.LLST137
ARM GAS  C:\Users\jo\AppData\Local\Temp\cc6wN9Ut.s 			page 191


 10719 2ae5 2F       		.uleb128 0x2f
 10720 2ae6 62756600 		.ascii	"buf\000"
 10721 2aea 01       		.byte	0x1
 10722 2aeb 1F03     		.2byte	0x31f
 10723 2aed 350B0000 		.4byte	0xb35
 10724 2af1 02       		.uleb128 0x2
 10725 2af2 91       		.byte	0x91
 10726 2af3 50       		.sleb128 -48
 10727 2af4 31       		.uleb128 0x31
 10728 2af5 C9140000 		.4byte	0x14c9
 10729 2af9 06000000 		.4byte	.LBB219
 10730 2afd 98010000 		.4byte	.Ldebug_ranges0+0x198
 10731 2b01 01       		.byte	0x1
 10732 2b02 2203     		.2byte	0x322
 10733 2b04 212B0000 		.4byte	0x2b21
 10734 2b08 32       		.uleb128 0x32
 10735 2b09 D9140000 		.4byte	0x14d9
 10736 2b0d 6C230000 		.4byte	.LLST138
 10737 2b11 33       		.uleb128 0x33
 10738 2b12 98010000 		.4byte	.Ldebug_ranges0+0x198
 10739 2b16 34       		.uleb128 0x34
 10740 2b17 E2140000 		.4byte	0x14e2
 10741 2b1b 04240000 		.4byte	.LLST139
 10742 2b1f 00       		.byte	0
 10743 2b20 00       		.byte	0
 10744 2b21 40       		.uleb128 0x40
 10745 2b22 EE140000 		.4byte	0x14ee
 10746 2b26 DE000000 		.4byte	.LBB225
 10747 2b2a 06000000 		.4byte	.LBE225-.LBB225
 10748 2b2e 01       		.byte	0x1
 10749 2b2f 3203     		.2byte	0x332
 10750 2b31 522B0000 		.4byte	0x2b52
 10751 2b35 32       		.uleb128 0x32
 10752 2b36 FB140000 		.4byte	0x14fb
 10753 2b3a E1240000 		.4byte	.LLST140
 10754 2b3e 38       		.uleb128 0x38
 10755 2b3f E4000000 		.4byte	.LVL425
 10756 2b43 FC380000 		.4byte	0x38fc
 10757 2b47 36       		.uleb128 0x36
 10758 2b48 01       		.uleb128 0x1
 10759 2b49 50       		.byte	0x50
 10760 2b4a 05       		.uleb128 0x5
 10761 2b4b 03       		.byte	0x3
 10762 2b4c 64010000 		.4byte	.LC14
 10763 2b50 00       		.byte	0
 10764 2b51 00       		.byte	0
 10765 2b52 40       		.uleb128 0x40
 10766 2b53 EE140000 		.4byte	0x14ee
 10767 2b57 16010000 		.4byte	.LBB227
 10768 2b5b 06000000 		.4byte	.LBE227-.LBB227
 10769 2b5f 01       		.byte	0x1
 10770 2b60 3403     		.2byte	0x334
 10771 2b62 832B0000 		.4byte	0x2b83
 10772 2b66 32       		.uleb128 0x32
 10773 2b67 FB140000 		.4byte	0x14fb
 10774 2b6b F9240000 		.4byte	.LLST141
 10775 2b6f 38       		.uleb128 0x38
ARM GAS  C:\Users\jo\AppData\Local\Temp\cc6wN9Ut.s 			page 192


 10776 2b70 1C010000 		.4byte	.LVL434
 10777 2b74 FC380000 		.4byte	0x38fc
 10778 2b78 36       		.uleb128 0x36
 10779 2b79 01       		.uleb128 0x1
 10780 2b7a 50       		.byte	0x50
 10781 2b7b 05       		.uleb128 0x5
 10782 2b7c 03       		.byte	0x3
 10783 2b7d 88010000 		.4byte	.LC15
 10784 2b81 00       		.byte	0
 10785 2b82 00       		.byte	0
 10786 2b83 37       		.uleb128 0x37
 10787 2b84 68000000 		.4byte	.LVL407
 10788 2b88 65390000 		.4byte	0x3965
 10789 2b8c 35       		.uleb128 0x35
 10790 2b8d 76000000 		.4byte	.LVL409
 10791 2b91 723A0000 		.4byte	0x3a72
 10792 2b95 AC2B0000 		.4byte	0x2bac
 10793 2b99 36       		.uleb128 0x36
 10794 2b9a 01       		.uleb128 0x1
 10795 2b9b 52       		.byte	0x52
 10796 2b9c 02       		.uleb128 0x2
 10797 2b9d 76       		.byte	0x76
 10798 2b9e 00       		.sleb128 0
 10799 2b9f 36       		.uleb128 0x36
 10800 2ba0 01       		.uleb128 0x1
 10801 2ba1 51       		.byte	0x51
 10802 2ba2 02       		.uleb128 0x2
 10803 2ba3 7A       		.byte	0x7a
 10804 2ba4 00       		.sleb128 0
 10805 2ba5 36       		.uleb128 0x36
 10806 2ba6 01       		.uleb128 0x1
 10807 2ba7 50       		.byte	0x50
 10808 2ba8 02       		.uleb128 0x2
 10809 2ba9 91       		.byte	0x91
 10810 2baa 50       		.sleb128 -48
 10811 2bab 00       		.byte	0
 10812 2bac 35       		.uleb128 0x35
 10813 2bad 80000000 		.4byte	.LVL411
 10814 2bb1 913A0000 		.4byte	0x3a91
 10815 2bb5 C02B0000 		.4byte	0x2bc0
 10816 2bb9 36       		.uleb128 0x36
 10817 2bba 01       		.uleb128 0x1
 10818 2bbb 50       		.byte	0x50
 10819 2bbc 02       		.uleb128 0x2
 10820 2bbd 91       		.byte	0x91
 10821 2bbe 50       		.sleb128 -48
 10822 2bbf 00       		.byte	0
 10823 2bc0 35       		.uleb128 0x35
 10824 2bc1 A4000000 		.4byte	.LVL415
 10825 2bc5 A23A0000 		.4byte	0x3aa2
 10826 2bc9 D42B0000 		.4byte	0x2bd4
 10827 2bcd 36       		.uleb128 0x36
 10828 2bce 01       		.uleb128 0x1
 10829 2bcf 51       		.byte	0x51
 10830 2bd0 02       		.uleb128 0x2
 10831 2bd1 91       		.byte	0x91
 10832 2bd2 50       		.sleb128 -48
ARM GAS  C:\Users\jo\AppData\Local\Temp\cc6wN9Ut.s 			page 193


 10833 2bd3 00       		.byte	0
 10834 2bd4 35       		.uleb128 0x35
 10835 2bd5 AC000000 		.4byte	.LVL417
 10836 2bd9 913A0000 		.4byte	0x3a91
 10837 2bdd E82B0000 		.4byte	0x2be8
 10838 2be1 36       		.uleb128 0x36
 10839 2be2 01       		.uleb128 0x1
 10840 2be3 50       		.byte	0x50
 10841 2be4 02       		.uleb128 0x2
 10842 2be5 91       		.byte	0x91
 10843 2be6 50       		.sleb128 -48
 10844 2be7 00       		.byte	0
 10845 2be8 35       		.uleb128 0x35
 10846 2be9 DE000000 		.4byte	.LVL424
 10847 2bed 99160000 		.4byte	0x1699
 10848 2bf1 192C0000 		.4byte	0x2c19
 10849 2bf5 36       		.uleb128 0x36
 10850 2bf6 01       		.uleb128 0x1
 10851 2bf7 53       		.byte	0x53
 10852 2bf8 03       		.uleb128 0x3
 10853 2bf9 0A       		.byte	0xa
 10854 2bfa 3203     		.2byte	0x332
 10855 2bfc 36       		.uleb128 0x36
 10856 2bfd 01       		.uleb128 0x1
 10857 2bfe 52       		.byte	0x52
 10858 2bff 05       		.uleb128 0x5
 10859 2c00 03       		.byte	0x3
 10860 2c01 64010000 		.4byte	.LC14
 10861 2c05 36       		.uleb128 0x36
 10862 2c06 01       		.uleb128 0x1
 10863 2c07 51       		.byte	0x51
 10864 2c08 05       		.uleb128 0x5
 10865 2c09 03       		.byte	0x3
 10866 2c0a 00000000 		.4byte	.LC0
 10867 2c0e 36       		.uleb128 0x36
 10868 2c0f 02       		.uleb128 0x2
 10869 2c10 7D       		.byte	0x7d
 10870 2c11 00       		.sleb128 0
 10871 2c12 05       		.uleb128 0x5
 10872 2c13 03       		.byte	0x3
 10873 2c14 34000000 		.4byte	.LC2
 10874 2c18 00       		.byte	0
 10875 2c19 35       		.uleb128 0x35
 10876 2c1a 12010000 		.4byte	.LVL433
 10877 2c1e 99160000 		.4byte	0x1699
 10878 2c22 4A2C0000 		.4byte	0x2c4a
 10879 2c26 36       		.uleb128 0x36
 10880 2c27 01       		.uleb128 0x1
 10881 2c28 53       		.byte	0x53
 10882 2c29 03       		.uleb128 0x3
 10883 2c2a 0A       		.byte	0xa
 10884 2c2b 3703     		.2byte	0x337
 10885 2c2d 36       		.uleb128 0x36
 10886 2c2e 01       		.uleb128 0x1
 10887 2c2f 52       		.byte	0x52
 10888 2c30 05       		.uleb128 0x5
 10889 2c31 03       		.byte	0x3
ARM GAS  C:\Users\jo\AppData\Local\Temp\cc6wN9Ut.s 			page 194


 10890 2c32 88010000 		.4byte	.LC15
 10891 2c36 36       		.uleb128 0x36
 10892 2c37 01       		.uleb128 0x1
 10893 2c38 51       		.byte	0x51
 10894 2c39 05       		.uleb128 0x5
 10895 2c3a 03       		.byte	0x3
 10896 2c3b 00000000 		.4byte	.LC0
 10897 2c3f 36       		.uleb128 0x36
 10898 2c40 02       		.uleb128 0x2
 10899 2c41 7D       		.byte	0x7d
 10900 2c42 00       		.sleb128 0
 10901 2c43 05       		.uleb128 0x5
 10902 2c44 03       		.byte	0x3
 10903 2c45 34000000 		.4byte	.LC2
 10904 2c49 00       		.byte	0
 10905 2c4a 37       		.uleb128 0x37
 10906 2c4b 26010000 		.4byte	.LVL436
 10907 2c4f 542C0000 		.4byte	0x2c54
 10908 2c53 00       		.byte	0
 10909 2c54 48       		.uleb128 0x48
 10910 2c55 EF040000 		.4byte	.LASF369
 10911 2c59 01       		.byte	0x1
 10912 2c5a F202     		.2byte	0x2f2
 10913 2c5c 25000000 		.4byte	0x25
 10914 2c60 00000000 		.4byte	.LFB273
 10915 2c64 98000000 		.4byte	.LFE273-.LFB273
 10916 2c68 01       		.uleb128 0x1
 10917 2c69 9C       		.byte	0x9c
 10918 2c6a 6C2D0000 		.4byte	0x2d6c
 10919 2c6e 2C       		.uleb128 0x2c
 10920 2c6f 7300     		.ascii	"s\000"
 10921 2c71 01       		.byte	0x1
 10922 2c72 F202     		.2byte	0x2f2
 10923 2c74 25000000 		.4byte	0x25
 10924 2c78 11250000 		.4byte	.LLST142
 10925 2c7c 2D       		.uleb128 0x2d
 10926 2c7d AE080000 		.4byte	.LASF321
 10927 2c81 01       		.byte	0x1
 10928 2c82 F202     		.2byte	0x2f2
 10929 2c84 FD100000 		.4byte	0x10fd
 10930 2c88 6F250000 		.4byte	.LLST143
 10931 2c8c 2D       		.uleb128 0x2d
 10932 2c8d C20A0000 		.4byte	.LASF365
 10933 2c91 01       		.byte	0x1
 10934 2c92 F202     		.2byte	0x2f2
 10935 2c94 2C000000 		.4byte	0x2c
 10936 2c98 C2250000 		.4byte	.LLST144
 10937 2c9c 2D       		.uleb128 0x2d
 10938 2c9d 9A010000 		.4byte	.LASF175
 10939 2ca1 01       		.byte	0x1
 10940 2ca2 F202     		.2byte	0x2f2
 10941 2ca4 25000000 		.4byte	0x25
 10942 2ca8 15260000 		.4byte	.LLST145
 10943 2cac 2E       		.uleb128 0x2e
 10944 2cad E2030000 		.4byte	.LASF304
 10945 2cb1 01       		.byte	0x1
 10946 2cb2 F402     		.2byte	0x2f4
ARM GAS  C:\Users\jo\AppData\Local\Temp\cc6wN9Ut.s 			page 195


 10947 2cb4 BD140000 		.4byte	0x14bd
 10948 2cb8 3F       		.uleb128 0x3f
 10949 2cb9 65727200 		.ascii	"err\000"
 10950 2cbd 01       		.byte	0x1
 10951 2cbe F502     		.2byte	0x2f5
 10952 2cc0 C30A0000 		.4byte	0xac3
 10953 2cc4 73260000 		.4byte	.LLST146
 10954 2cc8 3E       		.uleb128 0x3e
 10955 2cc9 4D080000 		.4byte	.LASF370
 10956 2ccd 01       		.byte	0x1
 10957 2cce F602     		.2byte	0x2f6
 10958 2cd0 7C090000 		.4byte	0x97c
 10959 2cd4 86260000 		.4byte	.LLST147
 10960 2cd8 30       		.uleb128 0x30
 10961 2cd9 E1110000 		.4byte	.LASF371
 10962 2cdd 01       		.byte	0x1
 10963 2cde F702     		.2byte	0x2f7
 10964 2ce0 2C000000 		.4byte	0x2c
 10965 2ce4 02       		.uleb128 0x2
 10966 2ce5 91       		.byte	0x91
 10967 2ce6 64       		.sleb128 -28
 10968 2ce7 31       		.uleb128 0x31
 10969 2ce8 C9140000 		.4byte	0x14c9
 10970 2cec 04000000 		.4byte	.LBB229
 10971 2cf0 B8010000 		.4byte	.Ldebug_ranges0+0x1b8
 10972 2cf4 01       		.byte	0x1
 10973 2cf5 FC02     		.2byte	0x2fc
 10974 2cf7 142D0000 		.4byte	0x2d14
 10975 2cfb 32       		.uleb128 0x32
 10976 2cfc D9140000 		.4byte	0x14d9
 10977 2d00 CF260000 		.4byte	.LLST148
 10978 2d04 33       		.uleb128 0x33
 10979 2d05 B8010000 		.4byte	.Ldebug_ranges0+0x1b8
 10980 2d09 34       		.uleb128 0x34
 10981 2d0a E2140000 		.4byte	0x14e2
 10982 2d0e 2D270000 		.4byte	.LLST149
 10983 2d12 00       		.byte	0
 10984 2d13 00       		.byte	0
 10985 2d14 35       		.uleb128 0x35
 10986 2d15 5C000000 		.4byte	.LVL446
 10987 2d19 BC3A0000 		.4byte	0x3abc
 10988 2d1d 532D0000 		.4byte	0x2d53
 10989 2d21 36       		.uleb128 0x36
 10990 2d22 01       		.uleb128 0x1
 10991 2d23 53       		.byte	0x53
 10992 2d24 26       		.uleb128 0x26
 10993 2d25 31       		.byte	0x31
 10994 2d26 33       		.byte	0x33
 10995 2d27 F3       		.byte	0xf3
 10996 2d28 01       		.uleb128 0x1
 10997 2d29 53       		.byte	0x53
 10998 2d2a F3       		.byte	0xf3
 10999 2d2b 01       		.uleb128 0x1
 11000 2d2c 53       		.byte	0x53
 11001 2d2d 09       		.byte	0x9
 11002 2d2e FF       		.byte	0xff
 11003 2d2f 24       		.byte	0x24
ARM GAS  C:\Users\jo\AppData\Local\Temp\cc6wN9Ut.s 			page 196


 11004 2d30 33       		.byte	0x33
 11005 2d31 25       		.byte	0x25
 11006 2d32 30       		.byte	0x30
 11007 2d33 2E       		.byte	0x2e
 11008 2d34 28       		.byte	0x28
 11009 2d35 0100     		.2byte	0x1
 11010 2d37 16       		.byte	0x16
 11011 2d38 13       		.byte	0x13
 11012 2d39 F3       		.byte	0xf3
 11013 2d3a 01       		.uleb128 0x1
 11014 2d3b 53       		.byte	0x53
 11015 2d3c 09       		.byte	0x9
 11016 2d3d FF       		.byte	0xff
 11017 2d3e 24       		.byte	0x24
 11018 2d3f 33       		.byte	0x33
 11019 2d40 25       		.byte	0x25
 11020 2d41 30       		.byte	0x30
 11021 2d42 29       		.byte	0x29
 11022 2d43 28       		.byte	0x28
 11023 2d44 0100     		.2byte	0x1
 11024 2d46 16       		.byte	0x16
 11025 2d47 13       		.byte	0x13
 11026 2d48 75       		.byte	0x75
 11027 2d49 00       		.sleb128 0
 11028 2d4a 21       		.byte	0x21
 11029 2d4b 36       		.uleb128 0x36
 11030 2d4c 02       		.uleb128 0x2
 11031 2d4d 7D       		.byte	0x7d
 11032 2d4e 00       		.sleb128 0
 11033 2d4f 02       		.uleb128 0x2
 11034 2d50 76       		.byte	0x76
 11035 2d51 00       		.sleb128 0
 11036 2d52 00       		.byte	0
 11037 2d53 38       		.uleb128 0x38
 11038 2d54 8A000000 		.4byte	.LVL450
 11039 2d58 222A0000 		.4byte	0x2a22
 11040 2d5c 36       		.uleb128 0x36
 11041 2d5d 02       		.uleb128 0x2
 11042 2d5e 7D       		.byte	0x7d
 11043 2d5f 04       		.sleb128 4
 11044 2d60 02       		.uleb128 0x2
 11045 2d61 74       		.byte	0x74
 11046 2d62 00       		.sleb128 0
 11047 2d63 36       		.uleb128 0x36
 11048 2d64 02       		.uleb128 0x2
 11049 2d65 7D       		.byte	0x7d
 11050 2d66 00       		.sleb128 0
 11051 2d67 02       		.uleb128 0x2
 11052 2d68 74       		.byte	0x74
 11053 2d69 00       		.sleb128 0
 11054 2d6a 00       		.byte	0
 11055 2d6b 00       		.byte	0
 11056 2d6c 48       		.uleb128 0x48
 11057 2d6d C9050000 		.4byte	.LASF372
 11058 2d71 01       		.byte	0x1
 11059 2d72 B403     		.2byte	0x3b4
 11060 2d74 25000000 		.4byte	0x25
ARM GAS  C:\Users\jo\AppData\Local\Temp\cc6wN9Ut.s 			page 197


 11061 2d78 00000000 		.4byte	.LFB275
 11062 2d7c 78000000 		.4byte	.LFE275-.LFB275
 11063 2d80 01       		.uleb128 0x1
 11064 2d81 9C       		.byte	0x9c
 11065 2d82 792E0000 		.4byte	0x2e79
 11066 2d86 2D       		.uleb128 0x2d
 11067 2d87 DB0D0000 		.4byte	.LASF373
 11068 2d8b 01       		.byte	0x1
 11069 2d8c B403     		.2byte	0x3b4
 11070 2d8e 25000000 		.4byte	0x25
 11071 2d92 A0270000 		.4byte	.LLST150
 11072 2d96 2D       		.uleb128 0x2d
 11073 2d97 990F0000 		.4byte	.LASF174
 11074 2d9b 01       		.byte	0x1
 11075 2d9c B403     		.2byte	0x3b4
 11076 2d9e 25000000 		.4byte	0x25
 11077 2da2 0C280000 		.4byte	.LLST151
 11078 2da6 2D       		.uleb128 0x2d
 11079 2da7 40030000 		.4byte	.LASF374
 11080 2dab 01       		.byte	0x1
 11081 2dac B403     		.2byte	0x3b4
 11082 2dae 25000000 		.4byte	0x25
 11083 2db2 78280000 		.4byte	.LLST152
 11084 2db6 3E       		.uleb128 0x3e
 11085 2db7 F4060000 		.4byte	.LASF261
 11086 2dbb 01       		.byte	0x1
 11087 2dbc B603     		.2byte	0x3b6
 11088 2dbe 400C0000 		.4byte	0xc40
 11089 2dc2 E4280000 		.4byte	.LLST153
 11090 2dc6 3F       		.uleb128 0x3f
 11091 2dc7 6900     		.ascii	"i\000"
 11092 2dc9 01       		.byte	0x1
 11093 2dca B703     		.2byte	0x3b7
 11094 2dcc 25000000 		.4byte	0x25
 11095 2dd0 23290000 		.4byte	.LLST154
 11096 2dd4 35       		.uleb128 0x35
 11097 2dd5 1E000000 		.4byte	.LVL457
 11098 2dd9 EB3A0000 		.4byte	0x3aeb
 11099 2ddd F52D0000 		.4byte	0x2df5
 11100 2de1 36       		.uleb128 0x36
 11101 2de2 01       		.uleb128 0x1
 11102 2de3 52       		.byte	0x52
 11103 2de4 05       		.uleb128 0x5
 11104 2de5 03       		.byte	0x3
 11105 2de6 00000000 		.4byte	event_callback
 11106 2dea 36       		.uleb128 0x36
 11107 2deb 01       		.uleb128 0x1
 11108 2dec 51       		.byte	0x51
 11109 2ded 01       		.uleb128 0x1
 11110 2dee 30       		.byte	0x30
 11111 2def 36       		.uleb128 0x36
 11112 2df0 01       		.uleb128 0x1
 11113 2df1 50       		.byte	0x50
 11114 2df2 01       		.uleb128 0x1
 11115 2df3 40       		.byte	0x40
 11116 2df4 00       		.byte	0
 11117 2df5 35       		.uleb128 0x35
ARM GAS  C:\Users\jo\AppData\Local\Temp\cc6wN9Ut.s 			page 198


 11118 2df6 34000000 		.4byte	.LVL458
 11119 2dfa 65150000 		.4byte	0x1565
 11120 2dfe 0E2E0000 		.4byte	0x2e0e
 11121 2e02 36       		.uleb128 0x36
 11122 2e03 01       		.uleb128 0x1
 11123 2e04 51       		.byte	0x51
 11124 2e05 01       		.uleb128 0x1
 11125 2e06 30       		.byte	0x30
 11126 2e07 36       		.uleb128 0x36
 11127 2e08 01       		.uleb128 0x1
 11128 2e09 50       		.byte	0x50
 11129 2e0a 02       		.uleb128 0x2
 11130 2e0b 75       		.byte	0x75
 11131 2e0c 00       		.sleb128 0
 11132 2e0d 00       		.byte	0
 11133 2e0e 35       		.uleb128 0x35
 11134 2e0f 48000000 		.4byte	.LVL464
 11135 2e13 EB3A0000 		.4byte	0x3aeb
 11136 2e17 2B2E0000 		.4byte	0x2e2b
 11137 2e1b 36       		.uleb128 0x36
 11138 2e1c 01       		.uleb128 0x1
 11139 2e1d 52       		.byte	0x52
 11140 2e1e 05       		.uleb128 0x5
 11141 2e1f 03       		.byte	0x3
 11142 2e20 00000000 		.4byte	event_callback
 11143 2e24 36       		.uleb128 0x36
 11144 2e25 01       		.uleb128 0x1
 11145 2e26 50       		.byte	0x50
 11146 2e27 02       		.uleb128 0x2
 11147 2e28 08       		.byte	0x8
 11148 2e29 40       		.byte	0x40
 11149 2e2a 00       		.byte	0
 11150 2e2b 35       		.uleb128 0x35
 11151 2e2c 60000000 		.4byte	.LVL470
 11152 2e30 EB3A0000 		.4byte	0x3aeb
 11153 2e34 682E0000 		.4byte	0x2e68
 11154 2e38 36       		.uleb128 0x36
 11155 2e39 01       		.uleb128 0x1
 11156 2e3a 52       		.byte	0x52
 11157 2e3b 05       		.uleb128 0x5
 11158 2e3c 03       		.byte	0x3
 11159 2e3d 00000000 		.4byte	event_callback
 11160 2e41 36       		.uleb128 0x36
 11161 2e42 01       		.uleb128 0x1
 11162 2e43 51       		.byte	0x51
 11163 2e44 01       		.uleb128 0x1
 11164 2e45 30       		.byte	0x30
 11165 2e46 36       		.uleb128 0x36
 11166 2e47 01       		.uleb128 0x1
 11167 2e48 50       		.byte	0x50
 11168 2e49 1D       		.uleb128 0x1d
 11169 2e4a 08       		.byte	0x8
 11170 2e4b 20       		.byte	0x20
 11171 2e4c 08       		.byte	0x8
 11172 2e4d 21       		.byte	0x21
 11173 2e4e F3       		.byte	0xf3
 11174 2e4f 01       		.uleb128 0x1
ARM GAS  C:\Users\jo\AppData\Local\Temp\cc6wN9Ut.s 			page 199


 11175 2e50 50       		.byte	0x50
 11176 2e51 F3       		.byte	0xf3
 11177 2e52 01       		.uleb128 0x1
 11178 2e53 52       		.byte	0x52
 11179 2e54 08       		.byte	0x8
 11180 2e55 88       		.byte	0x88
 11181 2e56 29       		.byte	0x29
 11182 2e57 28       		.byte	0x28
 11183 2e58 0100     		.2byte	0x1
 11184 2e5a 16       		.byte	0x16
 11185 2e5b 13       		.byte	0x13
 11186 2e5c F3       		.byte	0xf3
 11187 2e5d 01       		.uleb128 0x1
 11188 2e5e 52       		.byte	0x52
 11189 2e5f 08       		.byte	0x8
 11190 2e60 88       		.byte	0x88
 11191 2e61 2E       		.byte	0x2e
 11192 2e62 28       		.byte	0x28
 11193 2e63 0100     		.2byte	0x1
 11194 2e65 16       		.byte	0x16
 11195 2e66 13       		.byte	0x13
 11196 2e67 00       		.byte	0
 11197 2e68 38       		.uleb128 0x38
 11198 2e69 6E000000 		.4byte	.LVL474
 11199 2e6d 50390000 		.4byte	0x3950
 11200 2e71 36       		.uleb128 0x36
 11201 2e72 01       		.uleb128 0x1
 11202 2e73 50       		.byte	0x50
 11203 2e74 02       		.uleb128 0x2
 11204 2e75 75       		.byte	0x75
 11205 2e76 00       		.sleb128 0
 11206 2e77 00       		.byte	0
 11207 2e78 00       		.byte	0
 11208 2e79 48       		.uleb128 0x48
 11209 2e7a 260E0000 		.4byte	.LASF375
 11210 2e7e 01       		.byte	0x1
 11211 2e7f EC03     		.2byte	0x3ec
 11212 2e81 25000000 		.4byte	0x25
 11213 2e85 00000000 		.4byte	.LFB276
 11214 2e89 06000000 		.4byte	.LFE276-.LFB276
 11215 2e8d 01       		.uleb128 0x1
 11216 2e8e 9C       		.byte	0x9c
 11217 2e8f E62E0000 		.4byte	0x2ee6
 11218 2e93 2C       		.uleb128 0x2c
 11219 2e94 7300     		.ascii	"s\000"
 11220 2e96 01       		.byte	0x1
 11221 2e97 EC03     		.2byte	0x3ec
 11222 2e99 25000000 		.4byte	0x25
 11223 2e9d 57290000 		.4byte	.LLST155
 11224 2ea1 2D       		.uleb128 0x2d
 11225 2ea2 AE080000 		.4byte	.LASF321
 11226 2ea6 01       		.byte	0x1
 11227 2ea7 EC03     		.2byte	0x3ec
 11228 2ea9 FD100000 		.4byte	0x10fd
 11229 2ead 78290000 		.4byte	.LLST156
 11230 2eb1 2D       		.uleb128 0x2d
 11231 2eb2 C20A0000 		.4byte	.LASF365
ARM GAS  C:\Users\jo\AppData\Local\Temp\cc6wN9Ut.s 			page 200


 11232 2eb6 01       		.byte	0x1
 11233 2eb7 EC03     		.2byte	0x3ec
 11234 2eb9 2C000000 		.4byte	0x2c
 11235 2ebd 99290000 		.4byte	.LLST157
 11236 2ec1 49       		.uleb128 0x49
 11237 2ec2 06000000 		.4byte	.LVL477
 11238 2ec6 542C0000 		.4byte	0x2c54
 11239 2eca 36       		.uleb128 0x36
 11240 2ecb 01       		.uleb128 0x1
 11241 2ecc 53       		.byte	0x53
 11242 2ecd 01       		.uleb128 0x1
 11243 2ece 30       		.byte	0x30
 11244 2ecf 36       		.uleb128 0x36
 11245 2ed0 01       		.uleb128 0x1
 11246 2ed1 52       		.byte	0x52
 11247 2ed2 03       		.uleb128 0x3
 11248 2ed3 F3       		.byte	0xf3
 11249 2ed4 01       		.uleb128 0x1
 11250 2ed5 52       		.byte	0x52
 11251 2ed6 36       		.uleb128 0x36
 11252 2ed7 01       		.uleb128 0x1
 11253 2ed8 51       		.byte	0x51
 11254 2ed9 03       		.uleb128 0x3
 11255 2eda F3       		.byte	0xf3
 11256 2edb 01       		.uleb128 0x1
 11257 2edc 51       		.byte	0x51
 11258 2edd 36       		.uleb128 0x36
 11259 2ede 01       		.uleb128 0x1
 11260 2edf 50       		.byte	0x50
 11261 2ee0 03       		.uleb128 0x3
 11262 2ee1 F3       		.byte	0xf3
 11263 2ee2 01       		.uleb128 0x1
 11264 2ee3 50       		.byte	0x50
 11265 2ee4 00       		.byte	0
 11266 2ee5 00       		.byte	0
 11267 2ee6 48       		.uleb128 0x48
 11268 2ee7 21090000 		.4byte	.LASF376
 11269 2eeb 01       		.byte	0x1
 11270 2eec 4004     		.2byte	0x440
 11271 2eee 25000000 		.4byte	0x25
 11272 2ef2 00000000 		.4byte	.LFB278
 11273 2ef6 60030000 		.4byte	.LFE278-.LFB278
 11274 2efa 01       		.uleb128 0x1
 11275 2efb 9C       		.byte	0x9c
 11276 2efc 6E330000 		.4byte	0x336e
 11277 2f00 2D       		.uleb128 0x2d
 11278 2f01 74020000 		.4byte	.LASF325
 11279 2f05 01       		.byte	0x1
 11280 2f06 4004     		.2byte	0x440
 11281 2f08 25000000 		.4byte	0x25
 11282 2f0c BA290000 		.4byte	.LLST158
 11283 2f10 2D       		.uleb128 0x2d
 11284 2f11 21080000 		.4byte	.LASF299
 11285 2f15 01       		.byte	0x1
 11286 2f16 4004     		.2byte	0x440
 11287 2f18 58140000 		.4byte	0x1458
 11288 2f1c 3B2A0000 		.4byte	.LLST159
ARM GAS  C:\Users\jo\AppData\Local\Temp\cc6wN9Ut.s 			page 201


 11289 2f20 2D       		.uleb128 0x2d
 11290 2f21 99120000 		.4byte	.LASF300
 11291 2f25 01       		.byte	0x1
 11292 2f26 4004     		.2byte	0x440
 11293 2f28 58140000 		.4byte	0x1458
 11294 2f2c B12A0000 		.4byte	.LLST160
 11295 2f30 2D       		.uleb128 0x2d
 11296 2f31 AC0A0000 		.4byte	.LASF301
 11297 2f35 01       		.byte	0x1
 11298 2f36 4004     		.2byte	0x440
 11299 2f38 58140000 		.4byte	0x1458
 11300 2f3c 272B0000 		.4byte	.LLST161
 11301 2f40 2D       		.uleb128 0x2d
 11302 2f41 23100000 		.4byte	.LASF377
 11303 2f45 01       		.byte	0x1
 11304 2f46 4104     		.2byte	0x441
 11305 2f48 6E330000 		.4byte	0x336e
 11306 2f4c 452B0000 		.4byte	.LLST162
 11307 2f50 3E       		.uleb128 0x3e
 11308 2f51 910F0000 		.4byte	.LASF378
 11309 2f55 01       		.byte	0x1
 11310 2f56 4304     		.2byte	0x443
 11311 2f58 A8090000 		.4byte	0x9a8
 11312 2f5c 652B0000 		.4byte	.LLST163
 11313 2f60 3E       		.uleb128 0x3e
 11314 2f61 940D0000 		.4byte	.LASF332
 11315 2f65 01       		.byte	0x1
 11316 2f66 4404     		.2byte	0x444
 11317 2f68 25000000 		.4byte	0x25
 11318 2f6c 092C0000 		.4byte	.LLST164
 11319 2f70 30       		.uleb128 0x30
 11320 2f71 0B070000 		.4byte	.LASF333
 11321 2f75 01       		.byte	0x1
 11322 2f76 4504     		.2byte	0x445
 11323 2f78 DC080000 		.4byte	0x8dc
 11324 2f7c 03       		.uleb128 0x3
 11325 2f7d 91       		.byte	0x91
 11326 2f7e A47F     		.sleb128 -92
 11327 2f80 30       		.uleb128 0x30
 11328 2f81 1B0A0000 		.4byte	.LASF334
 11329 2f85 01       		.byte	0x1
 11330 2f86 4504     		.2byte	0x445
 11331 2f88 DC080000 		.4byte	0x8dc
 11332 2f8c 03       		.uleb128 0x3
 11333 2f8d 91       		.byte	0x91
 11334 2f8e AC7F     		.sleb128 -84
 11335 2f90 30       		.uleb128 0x30
 11336 2f91 02130000 		.4byte	.LASF335
 11337 2f95 01       		.byte	0x1
 11338 2f96 4504     		.2byte	0x445
 11339 2f98 DC080000 		.4byte	0x8dc
 11340 2f9c 03       		.uleb128 0x3
 11341 2f9d 91       		.byte	0x91
 11342 2f9e B47F     		.sleb128 -76
 11343 2fa0 3E       		.uleb128 0x3e
 11344 2fa1 8C090000 		.4byte	.LASF379
 11345 2fa5 01       		.byte	0x1
ARM GAS  C:\Users\jo\AppData\Local\Temp\cc6wN9Ut.s 			page 202


 11346 2fa6 4604     		.2byte	0x446
 11347 2fa8 A8090000 		.4byte	0x9a8
 11348 2fac A62C0000 		.4byte	.LLST165
 11349 2fb0 30       		.uleb128 0x30
 11350 2fb1 1C0E0000 		.4byte	.LASF380
 11351 2fb5 01       		.byte	0x1
 11352 2fb6 4704     		.2byte	0x447
 11353 2fb8 F1130000 		.4byte	0x13f1
 11354 2fbc 03       		.uleb128 0x3
 11355 2fbd 91       		.byte	0x91
 11356 2fbe BC7F     		.sleb128 -68
 11357 2fc0 3F       		.uleb128 0x3f
 11358 2fc1 65727200 		.ascii	"err\000"
 11359 2fc5 01       		.byte	0x1
 11360 2fc6 4804     		.2byte	0x448
 11361 2fc8 C30A0000 		.4byte	0xac3
 11362 2fcc D12C0000 		.4byte	.LLST166
 11363 2fd0 3F       		.uleb128 0x3f
 11364 2fd1 6900     		.ascii	"i\000"
 11365 2fd3 01       		.byte	0x1
 11366 2fd4 4904     		.2byte	0x449
 11367 2fd6 25000000 		.4byte	0x25
 11368 2fda FA2C0000 		.4byte	.LLST167
 11369 2fde 4A       		.uleb128 0x4a
 11370 2fdf 040B0000 		.4byte	.LASF431
 11371 2fe3 01       		.byte	0x1
 11372 2fe4 CA04     		.2byte	0x4ca
 11373 2fe6 C0010000 		.4byte	.L505
 11374 2fea 46       		.uleb128 0x46
 11375 2feb D8010000 		.4byte	.Ldebug_ranges0+0x1d8
 11376 2fef 7C300000 		.4byte	0x307c
 11377 2ff3 2E       		.uleb128 0x2e
 11378 2ff4 E2030000 		.4byte	.LASF304
 11379 2ff8 01       		.byte	0x1
 11380 2ff9 8404     		.2byte	0x484
 11381 2ffb BD140000 		.4byte	0x14bd
 11382 2fff 31       		.uleb128 0x31
 11383 3000 08150000 		.4byte	0x1508
 11384 3004 A0000000 		.4byte	.LBB236
 11385 3008 F0010000 		.4byte	.Ldebug_ranges0+0x1f0
 11386 300c 01       		.byte	0x1
 11387 300d 8404     		.2byte	0x484
 11388 300f 1D300000 		.4byte	0x301d
 11389 3013 32       		.uleb128 0x32
 11390 3014 18150000 		.4byte	0x1518
 11391 3018 762D0000 		.4byte	.LLST168
 11392 301c 00       		.byte	0
 11393 301d 40       		.uleb128 0x40
 11394 301e EE140000 		.4byte	0x14ee
 11395 3022 36030000 		.4byte	.LBB240
 11396 3026 08000000 		.4byte	.LBE240-.LBB240
 11397 302a 01       		.byte	0x1
 11398 302b 8804     		.2byte	0x488
 11399 302d 4E300000 		.4byte	0x304e
 11400 3031 32       		.uleb128 0x32
 11401 3032 FB140000 		.4byte	0x14fb
 11402 3036 942D0000 		.4byte	.LLST169
ARM GAS  C:\Users\jo\AppData\Local\Temp\cc6wN9Ut.s 			page 203


 11403 303a 38       		.uleb128 0x38
 11404 303b 3C030000 		.4byte	.LVL540
 11405 303f FC380000 		.4byte	0x38fc
 11406 3043 36       		.uleb128 0x36
 11407 3044 01       		.uleb128 0x1
 11408 3045 50       		.byte	0x50
 11409 3046 05       		.uleb128 0x5
 11410 3047 03       		.byte	0x3
 11411 3048 A8010000 		.4byte	.LC16
 11412 304c 00       		.byte	0
 11413 304d 00       		.byte	0
 11414 304e 38       		.uleb128 0x38
 11415 304f 36030000 		.4byte	.LVL539
 11416 3053 99160000 		.4byte	0x1699
 11417 3057 36       		.uleb128 0x36
 11418 3058 01       		.uleb128 0x1
 11419 3059 53       		.byte	0x53
 11420 305a 03       		.uleb128 0x3
 11421 305b 0A       		.byte	0xa
 11422 305c 8804     		.2byte	0x488
 11423 305e 36       		.uleb128 0x36
 11424 305f 01       		.uleb128 0x1
 11425 3060 52       		.byte	0x52
 11426 3061 05       		.uleb128 0x5
 11427 3062 03       		.byte	0x3
 11428 3063 A8010000 		.4byte	.LC16
 11429 3067 36       		.uleb128 0x36
 11430 3068 01       		.uleb128 0x1
 11431 3069 51       		.byte	0x51
 11432 306a 05       		.uleb128 0x5
 11433 306b 03       		.byte	0x3
 11434 306c 00000000 		.4byte	.LC0
 11435 3070 36       		.uleb128 0x36
 11436 3071 02       		.uleb128 0x2
 11437 3072 7D       		.byte	0x7d
 11438 3073 00       		.sleb128 0
 11439 3074 05       		.uleb128 0x5
 11440 3075 03       		.byte	0x3
 11441 3076 34000000 		.4byte	.LC2
 11442 307a 00       		.byte	0
 11443 307b 00       		.byte	0
 11444 307c 46       		.uleb128 0x46
 11445 307d 08020000 		.4byte	.Ldebug_ranges0+0x208
 11446 3081 48310000 		.4byte	0x3148
 11447 3085 2E       		.uleb128 0x2e
 11448 3086 E2030000 		.4byte	.LASF304
 11449 308a 01       		.byte	0x1
 11450 308b A404     		.2byte	0x4a4
 11451 308d BD140000 		.4byte	0x14bd
 11452 3091 40       		.uleb128 0x40
 11453 3092 EE140000 		.4byte	0x14ee
 11454 3096 B8000000 		.4byte	.LBB243
 11455 309a 06000000 		.4byte	.LBE243-.LBB243
 11456 309e 01       		.byte	0x1
 11457 309f A504     		.2byte	0x4a5
 11458 30a1 C2300000 		.4byte	0x30c2
 11459 30a5 32       		.uleb128 0x32
ARM GAS  C:\Users\jo\AppData\Local\Temp\cc6wN9Ut.s 			page 204


 11460 30a6 FB140000 		.4byte	0x14fb
 11461 30aa AC2D0000 		.4byte	.LLST170
 11462 30ae 38       		.uleb128 0x38
 11463 30af BE000000 		.4byte	.LVL490
 11464 30b3 FC380000 		.4byte	0x38fc
 11465 30b7 36       		.uleb128 0x36
 11466 30b8 01       		.uleb128 0x1
 11467 30b9 50       		.byte	0x50
 11468 30ba 05       		.uleb128 0x5
 11469 30bb 03       		.byte	0x3
 11470 30bc 10020000 		.4byte	.LC20
 11471 30c0 00       		.byte	0
 11472 30c1 00       		.byte	0
 11473 30c2 31       		.uleb128 0x31
 11474 30c3 08150000 		.4byte	0x1508
 11475 30c7 EC010000 		.4byte	.LBB245
 11476 30cb 28020000 		.4byte	.Ldebug_ranges0+0x228
 11477 30cf 01       		.byte	0x1
 11478 30d0 A404     		.2byte	0x4a4
 11479 30d2 E0300000 		.4byte	0x30e0
 11480 30d6 32       		.uleb128 0x32
 11481 30d7 18150000 		.4byte	0x1518
 11482 30db C42D0000 		.4byte	.LLST171
 11483 30df 00       		.byte	0
 11484 30e0 40       		.uleb128 0x40
 11485 30e1 EE140000 		.4byte	0x14ee
 11486 30e5 DA020000 		.4byte	.LBB249
 11487 30e9 36000000 		.4byte	.LBE249-.LBB249
 11488 30ed 01       		.byte	0x1
 11489 30ee A804     		.2byte	0x4a8
 11490 30f0 11310000 		.4byte	0x3111
 11491 30f4 32       		.uleb128 0x32
 11492 30f5 FB140000 		.4byte	0x14fb
 11493 30f9 E22D0000 		.4byte	.LLST172
 11494 30fd 38       		.uleb128 0x38
 11495 30fe E0020000 		.4byte	.LVL537
 11496 3102 FC380000 		.4byte	0x38fc
 11497 3106 36       		.uleb128 0x36
 11498 3107 01       		.uleb128 0x1
 11499 3108 50       		.byte	0x50
 11500 3109 05       		.uleb128 0x5
 11501 310a 03       		.byte	0x3
 11502 310b C4010000 		.4byte	.LC17
 11503 310f 00       		.byte	0
 11504 3110 00       		.byte	0
 11505 3111 37       		.uleb128 0x37
 11506 3112 B8000000 		.4byte	.LVL489
 11507 3116 99160000 		.4byte	0x1699
 11508 311a 38       		.uleb128 0x38
 11509 311b DA020000 		.4byte	.LVL536
 11510 311f 99160000 		.4byte	0x1699
 11511 3123 36       		.uleb128 0x36
 11512 3124 01       		.uleb128 0x1
 11513 3125 53       		.byte	0x53
 11514 3126 03       		.uleb128 0x3
 11515 3127 0A       		.byte	0xa
 11516 3128 A804     		.2byte	0x4a8
ARM GAS  C:\Users\jo\AppData\Local\Temp\cc6wN9Ut.s 			page 205


 11517 312a 36       		.uleb128 0x36
 11518 312b 01       		.uleb128 0x1
 11519 312c 52       		.byte	0x52
 11520 312d 05       		.uleb128 0x5
 11521 312e 03       		.byte	0x3
 11522 312f C4010000 		.4byte	.LC17
 11523 3133 36       		.uleb128 0x36
 11524 3134 01       		.uleb128 0x1
 11525 3135 51       		.byte	0x51
 11526 3136 05       		.uleb128 0x5
 11527 3137 03       		.byte	0x3
 11528 3138 00000000 		.4byte	.LC0
 11529 313c 36       		.uleb128 0x36
 11530 313d 02       		.uleb128 0x2
 11531 313e 7D       		.byte	0x7d
 11532 313f 00       		.sleb128 0
 11533 3140 05       		.uleb128 0x5
 11534 3141 03       		.byte	0x3
 11535 3142 34000000 		.4byte	.LC2
 11536 3146 00       		.byte	0
 11537 3147 00       		.byte	0
 11538 3148 40       		.uleb128 0x40
 11539 3149 EE140000 		.4byte	0x14ee
 11540 314d 52020000 		.4byte	.LBB252
 11541 3151 08000000 		.4byte	.LBE252-.LBB252
 11542 3155 01       		.byte	0x1
 11543 3156 B204     		.2byte	0x4b2
 11544 3158 79310000 		.4byte	0x3179
 11545 315c 32       		.uleb128 0x32
 11546 315d FB140000 		.4byte	0x14fb
 11547 3161 FA2D0000 		.4byte	.LLST173
 11548 3165 38       		.uleb128 0x38
 11549 3166 58020000 		.4byte	.LVL520
 11550 316a FC380000 		.4byte	0x38fc
 11551 316e 36       		.uleb128 0x36
 11552 316f 01       		.uleb128 0x1
 11553 3170 50       		.byte	0x50
 11554 3171 05       		.uleb128 0x5
 11555 3172 03       		.byte	0x3
 11556 3173 E0010000 		.4byte	.LC18
 11557 3177 00       		.byte	0
 11558 3178 00       		.byte	0
 11559 3179 40       		.uleb128 0x40
 11560 317a EE140000 		.4byte	0x14ee
 11561 317e 8E020000 		.4byte	.LBB254
 11562 3182 0C000000 		.4byte	.LBE254-.LBB254
 11563 3186 01       		.byte	0x1
 11564 3187 B504     		.2byte	0x4b5
 11565 3189 AA310000 		.4byte	0x31aa
 11566 318d 32       		.uleb128 0x32
 11567 318e FB140000 		.4byte	0x14fb
 11568 3192 122E0000 		.4byte	.LLST174
 11569 3196 38       		.uleb128 0x38
 11570 3197 94020000 		.4byte	.LVL527
 11571 319b FC380000 		.4byte	0x38fc
 11572 319f 36       		.uleb128 0x36
 11573 31a0 01       		.uleb128 0x1
ARM GAS  C:\Users\jo\AppData\Local\Temp\cc6wN9Ut.s 			page 206


 11574 31a1 50       		.byte	0x50
 11575 31a2 05       		.uleb128 0x5
 11576 31a3 03       		.byte	0x3
 11577 31a4 F8010000 		.4byte	.LC19
 11578 31a8 00       		.byte	0
 11579 31a9 00       		.byte	0
 11580 31aa 35       		.uleb128 0x35
 11581 31ab 20000000 		.4byte	.LVL479
 11582 31af E61B0000 		.4byte	0x1be6
 11583 31b3 E5310000 		.4byte	0x31e5
 11584 31b7 36       		.uleb128 0x36
 11585 31b8 01       		.uleb128 0x1
 11586 31b9 53       		.byte	0x53
 11587 31ba 02       		.uleb128 0x2
 11588 31bb 7B       		.byte	0x7b
 11589 31bc 00       		.sleb128 0
 11590 31bd 36       		.uleb128 0x36
 11591 31be 01       		.uleb128 0x1
 11592 31bf 52       		.byte	0x52
 11593 31c0 02       		.uleb128 0x2
 11594 31c1 76       		.byte	0x76
 11595 31c2 00       		.sleb128 0
 11596 31c3 36       		.uleb128 0x36
 11597 31c4 01       		.uleb128 0x1
 11598 31c5 51       		.byte	0x51
 11599 31c6 02       		.uleb128 0x2
 11600 31c7 75       		.byte	0x75
 11601 31c8 00       		.sleb128 0
 11602 31c9 36       		.uleb128 0x36
 11603 31ca 01       		.uleb128 0x1
 11604 31cb 50       		.byte	0x50
 11605 31cc 02       		.uleb128 0x2
 11606 31cd 77       		.byte	0x77
 11607 31ce 00       		.sleb128 0
 11608 31cf 36       		.uleb128 0x36
 11609 31d0 02       		.uleb128 0x2
 11610 31d1 7D       		.byte	0x7d
 11611 31d2 08       		.sleb128 8
 11612 31d3 02       		.uleb128 0x2
 11613 31d4 7A       		.byte	0x7a
 11614 31d5 00       		.sleb128 0
 11615 31d6 36       		.uleb128 0x36
 11616 31d7 02       		.uleb128 0x2
 11617 31d8 7D       		.byte	0x7d
 11618 31d9 04       		.sleb128 4
 11619 31da 02       		.uleb128 0x2
 11620 31db 79       		.byte	0x79
 11621 31dc 00       		.sleb128 0
 11622 31dd 36       		.uleb128 0x36
 11623 31de 02       		.uleb128 0x2
 11624 31df 7D       		.byte	0x7d
 11625 31e0 00       		.sleb128 0
 11626 31e1 02       		.uleb128 0x2
 11627 31e2 74       		.byte	0x74
 11628 31e3 00       		.sleb128 0
 11629 31e4 00       		.byte	0
 11630 31e5 35       		.uleb128 0x35
ARM GAS  C:\Users\jo\AppData\Local\Temp\cc6wN9Ut.s 			page 207


 11631 31e6 52000000 		.4byte	.LVL481
 11632 31ea 0A3B0000 		.4byte	0x3b0a
 11633 31ee FE310000 		.4byte	0x31fe
 11634 31f2 36       		.uleb128 0x36
 11635 31f3 01       		.uleb128 0x1
 11636 31f4 51       		.byte	0x51
 11637 31f5 01       		.uleb128 0x1
 11638 31f6 30       		.byte	0x30
 11639 31f7 36       		.uleb128 0x36
 11640 31f8 01       		.uleb128 0x1
 11641 31f9 50       		.byte	0x50
 11642 31fa 02       		.uleb128 0x2
 11643 31fb 91       		.byte	0x91
 11644 31fc 54       		.sleb128 -44
 11645 31fd 00       		.byte	0
 11646 31fe 35       		.uleb128 0x35
 11647 31ff 12010000 		.4byte	.LVL496
 11648 3203 E61B0000 		.4byte	0x1be6
 11649 3207 3A320000 		.4byte	0x323a
 11650 320b 36       		.uleb128 0x36
 11651 320c 01       		.uleb128 0x1
 11652 320d 53       		.byte	0x53
 11653 320e 02       		.uleb128 0x2
 11654 320f 7B       		.byte	0x7b
 11655 3210 00       		.sleb128 0
 11656 3211 36       		.uleb128 0x36
 11657 3212 01       		.uleb128 0x1
 11658 3213 52       		.byte	0x52
 11659 3214 02       		.uleb128 0x2
 11660 3215 76       		.byte	0x76
 11661 3216 00       		.sleb128 0
 11662 3217 36       		.uleb128 0x36
 11663 3218 01       		.uleb128 0x1
 11664 3219 51       		.byte	0x51
 11665 321a 02       		.uleb128 0x2
 11666 321b 75       		.byte	0x75
 11667 321c 00       		.sleb128 0
 11668 321d 36       		.uleb128 0x36
 11669 321e 01       		.uleb128 0x1
 11670 321f 50       		.byte	0x50
 11671 3220 02       		.uleb128 0x2
 11672 3221 77       		.byte	0x77
 11673 3222 00       		.sleb128 0
 11674 3223 36       		.uleb128 0x36
 11675 3224 02       		.uleb128 0x2
 11676 3225 7D       		.byte	0x7d
 11677 3226 08       		.sleb128 8
 11678 3227 02       		.uleb128 0x2
 11679 3228 7A       		.byte	0x7a
 11680 3229 00       		.sleb128 0
 11681 322a 36       		.uleb128 0x36
 11682 322b 02       		.uleb128 0x2
 11683 322c 7D       		.byte	0x7d
 11684 322d 04       		.sleb128 4
 11685 322e 02       		.uleb128 0x2
 11686 322f 79       		.byte	0x79
 11687 3230 00       		.sleb128 0
ARM GAS  C:\Users\jo\AppData\Local\Temp\cc6wN9Ut.s 			page 208


 11688 3231 36       		.uleb128 0x36
 11689 3232 02       		.uleb128 0x2
 11690 3233 7D       		.byte	0x7d
 11691 3234 00       		.sleb128 0
 11692 3235 03       		.uleb128 0x3
 11693 3236 91       		.byte	0x91
 11694 3237 A47F     		.sleb128 -92
 11695 3239 00       		.byte	0
 11696 323a 35       		.uleb128 0x35
 11697 323b A6010000 		.4byte	.LVL505
 11698 323f 243B0000 		.4byte	0x3b24
 11699 3243 4E320000 		.4byte	0x324e
 11700 3247 36       		.uleb128 0x36
 11701 3248 01       		.uleb128 0x1
 11702 3249 50       		.byte	0x50
 11703 324a 02       		.uleb128 0x2
 11704 324b 91       		.byte	0x91
 11705 324c 54       		.sleb128 -44
 11706 324d 00       		.byte	0
 11707 324e 35       		.uleb128 0x35
 11708 324f BE010000 		.4byte	.LVL506
 11709 3253 E61B0000 		.4byte	0x1be6
 11710 3257 8A320000 		.4byte	0x328a
 11711 325b 36       		.uleb128 0x36
 11712 325c 01       		.uleb128 0x1
 11713 325d 53       		.byte	0x53
 11714 325e 02       		.uleb128 0x2
 11715 325f 7B       		.byte	0x7b
 11716 3260 00       		.sleb128 0
 11717 3261 36       		.uleb128 0x36
 11718 3262 01       		.uleb128 0x1
 11719 3263 52       		.byte	0x52
 11720 3264 02       		.uleb128 0x2
 11721 3265 76       		.byte	0x76
 11722 3266 00       		.sleb128 0
 11723 3267 36       		.uleb128 0x36
 11724 3268 01       		.uleb128 0x1
 11725 3269 51       		.byte	0x51
 11726 326a 02       		.uleb128 0x2
 11727 326b 75       		.byte	0x75
 11728 326c 00       		.sleb128 0
 11729 326d 36       		.uleb128 0x36
 11730 326e 01       		.uleb128 0x1
 11731 326f 50       		.byte	0x50
 11732 3270 02       		.uleb128 0x2
 11733 3271 77       		.byte	0x77
 11734 3272 00       		.sleb128 0
 11735 3273 36       		.uleb128 0x36
 11736 3274 02       		.uleb128 0x2
 11737 3275 7D       		.byte	0x7d
 11738 3276 08       		.sleb128 8
 11739 3277 02       		.uleb128 0x2
 11740 3278 7A       		.byte	0x7a
 11741 3279 00       		.sleb128 0
 11742 327a 36       		.uleb128 0x36
 11743 327b 02       		.uleb128 0x2
 11744 327c 7D       		.byte	0x7d
ARM GAS  C:\Users\jo\AppData\Local\Temp\cc6wN9Ut.s 			page 209


 11745 327d 04       		.sleb128 4
 11746 327e 02       		.uleb128 0x2
 11747 327f 79       		.byte	0x79
 11748 3280 00       		.sleb128 0
 11749 3281 36       		.uleb128 0x36
 11750 3282 02       		.uleb128 0x2
 11751 3283 7D       		.byte	0x7d
 11752 3284 00       		.sleb128 0
 11753 3285 03       		.uleb128 0x3
 11754 3286 91       		.byte	0x91
 11755 3287 A47F     		.sleb128 -92
 11756 3289 00       		.byte	0
 11757 328a 35       		.uleb128 0x35
 11758 328b 34020000 		.4byte	.LVL516
 11759 328f 353B0000 		.4byte	0x3b35
 11760 3293 9E320000 		.4byte	0x329e
 11761 3297 36       		.uleb128 0x36
 11762 3298 01       		.uleb128 0x1
 11763 3299 50       		.byte	0x50
 11764 329a 02       		.uleb128 0x2
 11765 329b 91       		.byte	0x91
 11766 329c 54       		.sleb128 -44
 11767 329d 00       		.byte	0
 11768 329e 35       		.uleb128 0x35
 11769 329f 52020000 		.4byte	.LVL519
 11770 32a3 99160000 		.4byte	0x1699
 11771 32a7 CF320000 		.4byte	0x32cf
 11772 32ab 36       		.uleb128 0x36
 11773 32ac 01       		.uleb128 0x1
 11774 32ad 53       		.byte	0x53
 11775 32ae 03       		.uleb128 0x3
 11776 32af 0A       		.byte	0xa
 11777 32b0 B204     		.2byte	0x4b2
 11778 32b2 36       		.uleb128 0x36
 11779 32b3 01       		.uleb128 0x1
 11780 32b4 52       		.byte	0x52
 11781 32b5 05       		.uleb128 0x5
 11782 32b6 03       		.byte	0x3
 11783 32b7 E0010000 		.4byte	.LC18
 11784 32bb 36       		.uleb128 0x36
 11785 32bc 01       		.uleb128 0x1
 11786 32bd 51       		.byte	0x51
 11787 32be 05       		.uleb128 0x5
 11788 32bf 03       		.byte	0x3
 11789 32c0 00000000 		.4byte	.LC0
 11790 32c4 36       		.uleb128 0x36
 11791 32c5 02       		.uleb128 0x2
 11792 32c6 7D       		.byte	0x7d
 11793 32c7 00       		.sleb128 0
 11794 32c8 05       		.uleb128 0x5
 11795 32c9 03       		.byte	0x3
 11796 32ca 34000000 		.4byte	.LC2
 11797 32ce 00       		.byte	0
 11798 32cf 35       		.uleb128 0x35
 11799 32d0 72020000 		.4byte	.LVL524
 11800 32d4 E61B0000 		.4byte	0x1be6
 11801 32d8 0A330000 		.4byte	0x330a
ARM GAS  C:\Users\jo\AppData\Local\Temp\cc6wN9Ut.s 			page 210


 11802 32dc 36       		.uleb128 0x36
 11803 32dd 01       		.uleb128 0x1
 11804 32de 53       		.byte	0x53
 11805 32df 02       		.uleb128 0x2
 11806 32e0 7B       		.byte	0x7b
 11807 32e1 00       		.sleb128 0
 11808 32e2 36       		.uleb128 0x36
 11809 32e3 01       		.uleb128 0x1
 11810 32e4 52       		.byte	0x52
 11811 32e5 02       		.uleb128 0x2
 11812 32e6 76       		.byte	0x76
 11813 32e7 00       		.sleb128 0
 11814 32e8 36       		.uleb128 0x36
 11815 32e9 01       		.uleb128 0x1
 11816 32ea 51       		.byte	0x51
 11817 32eb 02       		.uleb128 0x2
 11818 32ec 75       		.byte	0x75
 11819 32ed 00       		.sleb128 0
 11820 32ee 36       		.uleb128 0x36
 11821 32ef 01       		.uleb128 0x1
 11822 32f0 50       		.byte	0x50
 11823 32f1 02       		.uleb128 0x2
 11824 32f2 77       		.byte	0x77
 11825 32f3 00       		.sleb128 0
 11826 32f4 36       		.uleb128 0x36
 11827 32f5 02       		.uleb128 0x2
 11828 32f6 7D       		.byte	0x7d
 11829 32f7 08       		.sleb128 8
 11830 32f8 02       		.uleb128 0x2
 11831 32f9 7A       		.byte	0x7a
 11832 32fa 00       		.sleb128 0
 11833 32fb 36       		.uleb128 0x36
 11834 32fc 02       		.uleb128 0x2
 11835 32fd 7D       		.byte	0x7d
 11836 32fe 04       		.sleb128 4
 11837 32ff 02       		.uleb128 0x2
 11838 3300 79       		.byte	0x79
 11839 3301 00       		.sleb128 0
 11840 3302 36       		.uleb128 0x36
 11841 3303 02       		.uleb128 0x2
 11842 3304 7D       		.byte	0x7d
 11843 3305 00       		.sleb128 0
 11844 3306 02       		.uleb128 0x2
 11845 3307 74       		.byte	0x74
 11846 3308 00       		.sleb128 0
 11847 3309 00       		.byte	0
 11848 330a 35       		.uleb128 0x35
 11849 330b 8E020000 		.4byte	.LVL526
 11850 330f 99160000 		.4byte	0x1699
 11851 3313 3B330000 		.4byte	0x333b
 11852 3317 36       		.uleb128 0x36
 11853 3318 01       		.uleb128 0x1
 11854 3319 53       		.byte	0x53
 11855 331a 03       		.uleb128 0x3
 11856 331b 0A       		.byte	0xa
 11857 331c B504     		.2byte	0x4b5
 11858 331e 36       		.uleb128 0x36
ARM GAS  C:\Users\jo\AppData\Local\Temp\cc6wN9Ut.s 			page 211


 11859 331f 01       		.uleb128 0x1
 11860 3320 52       		.byte	0x52
 11861 3321 05       		.uleb128 0x5
 11862 3322 03       		.byte	0x3
 11863 3323 F8010000 		.4byte	.LC19
 11864 3327 36       		.uleb128 0x36
 11865 3328 01       		.uleb128 0x1
 11866 3329 51       		.byte	0x51
 11867 332a 05       		.uleb128 0x5
 11868 332b 03       		.byte	0x3
 11869 332c 00000000 		.4byte	.LC0
 11870 3330 36       		.uleb128 0x36
 11871 3331 02       		.uleb128 0x2
 11872 3332 7D       		.byte	0x7d
 11873 3333 00       		.sleb128 0
 11874 3334 05       		.uleb128 0x5
 11875 3335 03       		.byte	0x3
 11876 3336 34000000 		.4byte	.LC2
 11877 333a 00       		.byte	0
 11878 333b 35       		.uleb128 0x35
 11879 333c A8020000 		.4byte	.LVL531
 11880 3340 353B0000 		.4byte	0x3b35
 11881 3344 56330000 		.4byte	0x3356
 11882 3348 36       		.uleb128 0x36
 11883 3349 01       		.uleb128 0x1
 11884 334a 51       		.byte	0x51
 11885 334b 03       		.uleb128 0x3
 11886 334c 91       		.byte	0x91
 11887 334d 00       		.sleb128 0
 11888 334e 06       		.byte	0x6
 11889 334f 36       		.uleb128 0x36
 11890 3350 01       		.uleb128 0x1
 11891 3351 50       		.byte	0x50
 11892 3352 02       		.uleb128 0x2
 11893 3353 91       		.byte	0x91
 11894 3354 54       		.sleb128 -44
 11895 3355 00       		.byte	0
 11896 3356 38       		.uleb128 0x38
 11897 3357 46030000 		.4byte	.LVL543
 11898 335b 353B0000 		.4byte	0x3b35
 11899 335f 36       		.uleb128 0x36
 11900 3360 01       		.uleb128 0x1
 11901 3361 51       		.byte	0x51
 11902 3362 03       		.uleb128 0x3
 11903 3363 91       		.byte	0x91
 11904 3364 00       		.sleb128 0
 11905 3365 06       		.byte	0x6
 11906 3366 36       		.uleb128 0x36
 11907 3367 01       		.uleb128 0x1
 11908 3368 50       		.byte	0x50
 11909 3369 02       		.uleb128 0x2
 11910 336a 91       		.byte	0x91
 11911 336b 54       		.sleb128 -44
 11912 336c 00       		.byte	0
 11913 336d 00       		.byte	0
 11914 336e 0A       		.uleb128 0xa
 11915 336f 04       		.byte	0x4
ARM GAS  C:\Users\jo\AppData\Local\Temp\cc6wN9Ut.s 			page 212


 11916 3370 9B0A0000 		.4byte	0xa9b
 11917 3374 48       		.uleb128 0x48
 11918 3375 95100000 		.4byte	.LASF381
 11919 3379 01       		.byte	0x1
 11920 337a 5F05     		.2byte	0x55f
 11921 337c 25000000 		.4byte	0x25
 11922 3380 00000000 		.4byte	.LFB280
 11923 3384 88000000 		.4byte	.LFE280-.LFB280
 11924 3388 01       		.uleb128 0x1
 11925 3389 9C       		.byte	0x9c
 11926 338a 1F340000 		.4byte	0x341f
 11927 338e 2C       		.uleb128 0x2c
 11928 338f 7300     		.ascii	"s\000"
 11929 3391 01       		.byte	0x1
 11930 3392 5F05     		.2byte	0x55f
 11931 3394 25000000 		.4byte	0x25
 11932 3398 2A2E0000 		.4byte	.LLST175
 11933 339c 2C       		.uleb128 0x2c
 11934 339d 686F7700 		.ascii	"how\000"
 11935 33a1 01       		.byte	0x1
 11936 33a2 5F05     		.2byte	0x55f
 11937 33a4 25000000 		.4byte	0x25
 11938 33a8 C52E0000 		.4byte	.LLST176
 11939 33ac 2E       		.uleb128 0x2e
 11940 33ad E2030000 		.4byte	.LASF304
 11941 33b1 01       		.byte	0x1
 11942 33b2 6105     		.2byte	0x561
 11943 33b4 BD140000 		.4byte	0x14bd
 11944 33b8 3F       		.uleb128 0x3f
 11945 33b9 65727200 		.ascii	"err\000"
 11946 33bd 01       		.byte	0x1
 11947 33be 6205     		.2byte	0x562
 11948 33c0 C30A0000 		.4byte	0xac3
 11949 33c4 152F0000 		.4byte	.LLST177
 11950 33c8 3E       		.uleb128 0x3e
 11951 33c9 B6120000 		.4byte	.LASF382
 11952 33cd 01       		.byte	0x1
 11953 33ce 6305     		.2byte	0x563
 11954 33d0 7C090000 		.4byte	0x97c
 11955 33d4 282F0000 		.4byte	.LLST178
 11956 33d8 3E       		.uleb128 0x3e
 11957 33d9 A8020000 		.4byte	.LASF383
 11958 33dd 01       		.byte	0x1
 11959 33de 6305     		.2byte	0x563
 11960 33e0 7C090000 		.4byte	0x97c
 11961 33e4 532F0000 		.4byte	.LLST179
 11962 33e8 31       		.uleb128 0x31
 11963 33e9 C9140000 		.4byte	0x14c9
 11964 33ed 00000000 		.4byte	.LBB258
 11965 33f1 40020000 		.4byte	.Ldebug_ranges0+0x240
 11966 33f5 01       		.byte	0x1
 11967 33f6 6705     		.2byte	0x567
 11968 33f8 15340000 		.4byte	0x3415
 11969 33fc 32       		.uleb128 0x32
 11970 33fd D9140000 		.4byte	0x14d9
 11971 3401 2A2E0000 		.4byte	.LLST175
 11972 3405 33       		.uleb128 0x33
ARM GAS  C:\Users\jo\AppData\Local\Temp\cc6wN9Ut.s 			page 213


 11973 3406 40020000 		.4byte	.Ldebug_ranges0+0x240
 11974 340a 34       		.uleb128 0x34
 11975 340b E2140000 		.4byte	0x14e2
 11976 340f 7E2F0000 		.4byte	.LLST181
 11977 3413 00       		.byte	0
 11978 3414 00       		.byte	0
 11979 3415 37       		.uleb128 0x37
 11980 3416 52000000 		.4byte	.LVL557
 11981 341a 4F3B0000 		.4byte	0x3b4f
 11982 341e 00       		.byte	0
 11983 341f 48       		.uleb128 0x48
 11984 3420 560C0000 		.4byte	.LASF384
 11985 3424 01       		.byte	0x1
 11986 3425 AB05     		.2byte	0x5ab
 11987 3427 25000000 		.4byte	0x25
 11988 342b 00000000 		.4byte	.LFB282
 11989 342f 06000000 		.4byte	.LFE282-.LFB282
 11990 3433 01       		.uleb128 0x1
 11991 3434 9C       		.byte	0x9c
 11992 3435 8C340000 		.4byte	0x348c
 11993 3439 2C       		.uleb128 0x2c
 11994 343a 7300     		.ascii	"s\000"
 11995 343c 01       		.byte	0x1
 11996 343d AB05     		.2byte	0x5ab
 11997 343f 25000000 		.4byte	0x25
 11998 3443 5C300000 		.4byte	.LLST182
 11999 3447 2D       		.uleb128 0x2d
 12000 3448 26000000 		.4byte	.LASF318
 12001 344c 01       		.byte	0x1
 12002 344d AB05     		.2byte	0x5ab
 12003 344f 93160000 		.4byte	0x1693
 12004 3453 7D300000 		.4byte	.LLST183
 12005 3457 2D       		.uleb128 0x2d
 12006 3458 45080000 		.4byte	.LASF319
 12007 345c 01       		.byte	0x1
 12008 345d AB05     		.2byte	0x5ab
 12009 345f C3140000 		.4byte	0x14c3
 12010 3463 9E300000 		.4byte	.LLST184
 12011 3467 49       		.uleb128 0x49
 12012 3468 06000000 		.4byte	.LVL565
 12013 346c AA150000 		.4byte	0x15aa
 12014 3470 36       		.uleb128 0x36
 12015 3471 01       		.uleb128 0x1
 12016 3472 53       		.byte	0x53
 12017 3473 01       		.uleb128 0x1
 12018 3474 30       		.byte	0x30
 12019 3475 36       		.uleb128 0x36
 12020 3476 01       		.uleb128 0x1
 12021 3477 52       		.byte	0x52
 12022 3478 03       		.uleb128 0x3
 12023 3479 F3       		.byte	0xf3
 12024 347a 01       		.uleb128 0x1
 12025 347b 52       		.byte	0x52
 12026 347c 36       		.uleb128 0x36
 12027 347d 01       		.uleb128 0x1
 12028 347e 51       		.byte	0x51
 12029 347f 03       		.uleb128 0x3
ARM GAS  C:\Users\jo\AppData\Local\Temp\cc6wN9Ut.s 			page 214


 12030 3480 F3       		.byte	0xf3
 12031 3481 01       		.uleb128 0x1
 12032 3482 51       		.byte	0x51
 12033 3483 36       		.uleb128 0x36
 12034 3484 01       		.uleb128 0x1
 12035 3485 50       		.byte	0x50
 12036 3486 03       		.uleb128 0x3
 12037 3487 F3       		.byte	0xf3
 12038 3488 01       		.uleb128 0x1
 12039 3489 50       		.byte	0x50
 12040 348a 00       		.byte	0
 12041 348b 00       		.byte	0
 12042 348c 48       		.uleb128 0x48
 12043 348d 98090000 		.4byte	.LASF385
 12044 3491 01       		.byte	0x1
 12045 3492 B105     		.2byte	0x5b1
 12046 3494 25000000 		.4byte	0x25
 12047 3498 00000000 		.4byte	.LFB283
 12048 349c 06000000 		.4byte	.LFE283-.LFB283
 12049 34a0 01       		.uleb128 0x1
 12050 34a1 9C       		.byte	0x9c
 12051 34a2 F9340000 		.4byte	0x34f9
 12052 34a6 2C       		.uleb128 0x2c
 12053 34a7 7300     		.ascii	"s\000"
 12054 34a9 01       		.byte	0x1
 12055 34aa B105     		.2byte	0x5b1
 12056 34ac 25000000 		.4byte	0x25
 12057 34b0 BF300000 		.4byte	.LLST185
 12058 34b4 2D       		.uleb128 0x2d
 12059 34b5 26000000 		.4byte	.LASF318
 12060 34b9 01       		.byte	0x1
 12061 34ba B105     		.2byte	0x5b1
 12062 34bc 93160000 		.4byte	0x1693
 12063 34c0 E0300000 		.4byte	.LLST186
 12064 34c4 2D       		.uleb128 0x2d
 12065 34c5 45080000 		.4byte	.LASF319
 12066 34c9 01       		.byte	0x1
 12067 34ca B105     		.2byte	0x5b1
 12068 34cc C3140000 		.4byte	0x14c3
 12069 34d0 01310000 		.4byte	.LLST187
 12070 34d4 49       		.uleb128 0x49
 12071 34d5 06000000 		.4byte	.LVL567
 12072 34d9 AA150000 		.4byte	0x15aa
 12073 34dd 36       		.uleb128 0x36
 12074 34de 01       		.uleb128 0x1
 12075 34df 53       		.byte	0x53
 12076 34e0 01       		.uleb128 0x1
 12077 34e1 31       		.byte	0x31
 12078 34e2 36       		.uleb128 0x36
 12079 34e3 01       		.uleb128 0x1
 12080 34e4 52       		.byte	0x52
 12081 34e5 03       		.uleb128 0x3
 12082 34e6 F3       		.byte	0xf3
 12083 34e7 01       		.uleb128 0x1
 12084 34e8 52       		.byte	0x52
 12085 34e9 36       		.uleb128 0x36
 12086 34ea 01       		.uleb128 0x1
ARM GAS  C:\Users\jo\AppData\Local\Temp\cc6wN9Ut.s 			page 215


 12087 34eb 51       		.byte	0x51
 12088 34ec 03       		.uleb128 0x3
 12089 34ed F3       		.byte	0xf3
 12090 34ee 01       		.uleb128 0x1
 12091 34ef 51       		.byte	0x51
 12092 34f0 36       		.uleb128 0x36
 12093 34f1 01       		.uleb128 0x1
 12094 34f2 50       		.byte	0x50
 12095 34f3 03       		.uleb128 0x3
 12096 34f4 F3       		.byte	0xf3
 12097 34f5 01       		.uleb128 0x1
 12098 34f6 50       		.byte	0x50
 12099 34f7 00       		.byte	0
 12100 34f8 00       		.byte	0
 12101 34f9 48       		.uleb128 0x48
 12102 34fa C80E0000 		.4byte	.LASF386
 12103 34fe 01       		.byte	0x1
 12104 34ff B705     		.2byte	0x5b7
 12105 3501 25000000 		.4byte	0x25
 12106 3505 00000000 		.4byte	.LFB284
 12107 3509 3C010000 		.4byte	.LFE284-.LFB284
 12108 350d 01       		.uleb128 0x1
 12109 350e 9C       		.byte	0x9c
 12110 350f EC350000 		.4byte	0x35ec
 12111 3513 2C       		.uleb128 0x2c
 12112 3514 7300     		.ascii	"s\000"
 12113 3516 01       		.byte	0x1
 12114 3517 B705     		.2byte	0x5b7
 12115 3519 25000000 		.4byte	0x25
 12116 351d 22310000 		.4byte	.LLST188
 12117 3521 2D       		.uleb128 0x2d
 12118 3522 A9100000 		.4byte	.LASF305
 12119 3526 01       		.byte	0x1
 12120 3527 B705     		.2byte	0x5b7
 12121 3529 25000000 		.4byte	0x25
 12122 352d B2310000 		.4byte	.LLST189
 12123 3531 2D       		.uleb128 0x2d
 12124 3532 40120000 		.4byte	.LASF306
 12125 3536 01       		.byte	0x1
 12126 3537 B705     		.2byte	0x5b7
 12127 3539 25000000 		.4byte	0x25
 12128 353d DB310000 		.4byte	.LLST190
 12129 3541 2D       		.uleb128 0x2d
 12130 3542 150E0000 		.4byte	.LASF307
 12131 3546 01       		.byte	0x1
 12132 3547 B705     		.2byte	0x5b7
 12133 3549 64030000 		.4byte	0x364
 12134 354d 12320000 		.4byte	.LLST191
 12135 3551 2D       		.uleb128 0x2d
 12136 3552 250F0000 		.4byte	.LASF308
 12137 3556 01       		.byte	0x1
 12138 3557 B705     		.2byte	0x5b7
 12139 3559 C3140000 		.4byte	0x14c3
 12140 355d C9320000 		.4byte	.LLST192
 12141 3561 3F       		.uleb128 0x3f
 12142 3562 65727200 		.ascii	"err\000"
 12143 3566 01       		.byte	0x1
ARM GAS  C:\Users\jo\AppData\Local\Temp\cc6wN9Ut.s 			page 216


 12144 3567 B905     		.2byte	0x5b9
 12145 3569 C30A0000 		.4byte	0xac3
 12146 356d E9320000 		.4byte	.LLST193
 12147 3571 2E       		.uleb128 0x2e
 12148 3572 E2030000 		.4byte	.LASF304
 12149 3576 01       		.byte	0x1
 12150 3577 BA05     		.2byte	0x5ba
 12151 3579 BD140000 		.4byte	0x14bd
 12152 357d 30       		.uleb128 0x30
 12153 357e AE080000 		.4byte	.LASF321
 12154 3582 01       		.byte	0x1
 12155 3583 BB05     		.2byte	0x5bb
 12156 3585 5E140000 		.4byte	0x145e
 12157 3589 02       		.uleb128 0x2
 12158 358a 91       		.byte	0x91
 12159 358b 44       		.sleb128 -60
 12160 358c 31       		.uleb128 0x31
 12161 358d C9140000 		.4byte	0x14c9
 12162 3591 06000000 		.4byte	.LBB262
 12163 3595 58020000 		.4byte	.Ldebug_ranges0+0x258
 12164 3599 01       		.byte	0x1
 12165 359a BA05     		.2byte	0x5ba
 12166 359c B9350000 		.4byte	0x35b9
 12167 35a0 32       		.uleb128 0x32
 12168 35a1 D9140000 		.4byte	0x14d9
 12169 35a5 22310000 		.4byte	.LLST188
 12170 35a9 33       		.uleb128 0x33
 12171 35aa 58020000 		.4byte	.Ldebug_ranges0+0x258
 12172 35ae 34       		.uleb128 0x34
 12173 35af E2140000 		.4byte	0x14e2
 12174 35b3 5B330000 		.4byte	.LLST195
 12175 35b7 00       		.byte	0
 12176 35b8 00       		.byte	0
 12177 35b9 35       		.uleb128 0x35
 12178 35ba A6000000 		.4byte	.LVL583
 12179 35be 6E3B0000 		.4byte	0x3b6e
 12180 35c2 DB350000 		.4byte	0x35db
 12181 35c6 36       		.uleb128 0x36
 12182 35c7 01       		.uleb128 0x1
 12183 35c8 52       		.byte	0x52
 12184 35c9 01       		.uleb128 0x1
 12185 35ca 31       		.byte	0x31
 12186 35cb 36       		.uleb128 0x36
 12187 35cc 01       		.uleb128 0x1
 12188 35cd 51       		.byte	0x51
 12189 35ce 02       		.uleb128 0x2
 12190 35cf 91       		.byte	0x91
 12191 35d0 44       		.sleb128 -60
 12192 35d1 36       		.uleb128 0x36
 12193 35d2 01       		.uleb128 0x1
 12194 35d3 50       		.byte	0x50
 12195 35d4 05       		.uleb128 0x5
 12196 35d5 03       		.byte	0x3
 12197 35d6 00000000 		.4byte	lwip_getsockopt_internal
 12198 35da 00       		.byte	0
 12199 35db 38       		.uleb128 0x38
 12200 35dc B4000000 		.4byte	.LVL585
ARM GAS  C:\Users\jo\AppData\Local\Temp\cc6wN9Ut.s 			page 217


 12201 35e0 353B0000 		.4byte	0x3b35
 12202 35e4 36       		.uleb128 0x36
 12203 35e5 01       		.uleb128 0x1
 12204 35e6 51       		.byte	0x51
 12205 35e7 02       		.uleb128 0x2
 12206 35e8 78       		.byte	0x78
 12207 35e9 00       		.sleb128 0
 12208 35ea 00       		.byte	0
 12209 35eb 00       		.byte	0
 12210 35ec 48       		.uleb128 0x48
 12211 35ed C50B0000 		.4byte	.LASF387
 12212 35f1 01       		.byte	0x1
 12213 35f2 4F07     		.2byte	0x74f
 12214 35f4 25000000 		.4byte	0x25
 12215 35f8 00000000 		.4byte	.LFB286
 12216 35fc 14010000 		.4byte	.LFE286-.LFB286
 12217 3600 01       		.uleb128 0x1
 12218 3601 9C       		.byte	0x9c
 12219 3602 DF360000 		.4byte	0x36df
 12220 3606 2C       		.uleb128 0x2c
 12221 3607 7300     		.ascii	"s\000"
 12222 3609 01       		.byte	0x1
 12223 360a 4F07     		.2byte	0x74f
 12224 360c 25000000 		.4byte	0x25
 12225 3610 A4330000 		.4byte	.LLST196
 12226 3614 2D       		.uleb128 0x2d
 12227 3615 A9100000 		.4byte	.LASF305
 12228 3619 01       		.byte	0x1
 12229 361a 4F07     		.2byte	0x74f
 12230 361c 25000000 		.4byte	0x25
 12231 3620 4D340000 		.4byte	.LLST197
 12232 3624 2D       		.uleb128 0x2d
 12233 3625 40120000 		.4byte	.LASF306
 12234 3629 01       		.byte	0x1
 12235 362a 4F07     		.2byte	0x74f
 12236 362c 25000000 		.4byte	0x25
 12237 3630 76340000 		.4byte	.LLST198
 12238 3634 2D       		.uleb128 0x2d
 12239 3635 150E0000 		.4byte	.LASF307
 12240 3639 01       		.byte	0x1
 12241 363a 4F07     		.2byte	0x74f
 12242 363c FD100000 		.4byte	0x10fd
 12243 3640 AD340000 		.4byte	.LLST199
 12244 3644 2D       		.uleb128 0x2d
 12245 3645 250F0000 		.4byte	.LASF308
 12246 3649 01       		.byte	0x1
 12247 364a 4F07     		.2byte	0x74f
 12248 364c 900A0000 		.4byte	0xa90
 12249 3650 57350000 		.4byte	.LLST200
 12250 3654 2E       		.uleb128 0x2e
 12251 3655 E2030000 		.4byte	.LASF304
 12252 3659 01       		.byte	0x1
 12253 365a 5107     		.2byte	0x751
 12254 365c BD140000 		.4byte	0x14bd
 12255 3660 3F       		.uleb128 0x3f
 12256 3661 65727200 		.ascii	"err\000"
 12257 3665 01       		.byte	0x1
ARM GAS  C:\Users\jo\AppData\Local\Temp\cc6wN9Ut.s 			page 218


 12258 3666 5207     		.2byte	0x752
 12259 3668 C30A0000 		.4byte	0xac3
 12260 366c 8F350000 		.4byte	.LLST201
 12261 3670 30       		.uleb128 0x30
 12262 3671 AE080000 		.4byte	.LASF321
 12263 3675 01       		.byte	0x1
 12264 3676 5307     		.2byte	0x753
 12265 3678 5E140000 		.4byte	0x145e
 12266 367c 02       		.uleb128 0x2
 12267 367d 91       		.byte	0x91
 12268 367e 4C       		.sleb128 -52
 12269 367f 31       		.uleb128 0x31
 12270 3680 C9140000 		.4byte	0x14c9
 12271 3684 00000000 		.4byte	.LBB268
 12272 3688 78020000 		.4byte	.Ldebug_ranges0+0x278
 12273 368c 01       		.byte	0x1
 12274 368d 5107     		.2byte	0x751
 12275 368f AC360000 		.4byte	0x36ac
 12276 3693 32       		.uleb128 0x32
 12277 3694 D9140000 		.4byte	0x14d9
 12278 3698 A4330000 		.4byte	.LLST196
 12279 369c 33       		.uleb128 0x33
 12280 369d 78020000 		.4byte	.Ldebug_ranges0+0x278
 12281 36a1 34       		.uleb128 0x34
 12282 36a2 E2140000 		.4byte	0x14e2
 12283 36a6 E9350000 		.4byte	.LLST203
 12284 36aa 00       		.byte	0
 12285 36ab 00       		.byte	0
 12286 36ac 35       		.uleb128 0x35
 12287 36ad 8C000000 		.4byte	.LVL610
 12288 36b1 6E3B0000 		.4byte	0x3b6e
 12289 36b5 CE360000 		.4byte	0x36ce
 12290 36b9 36       		.uleb128 0x36
 12291 36ba 01       		.uleb128 0x1
 12292 36bb 52       		.byte	0x52
 12293 36bc 01       		.uleb128 0x1
 12294 36bd 31       		.byte	0x31
 12295 36be 36       		.uleb128 0x36
 12296 36bf 01       		.uleb128 0x1
 12297 36c0 51       		.byte	0x51
 12298 36c1 02       		.uleb128 0x2
 12299 36c2 91       		.byte	0x91
 12300 36c3 4C       		.sleb128 -52
 12301 36c4 36       		.uleb128 0x36
 12302 36c5 01       		.uleb128 0x1
 12303 36c6 50       		.byte	0x50
 12304 36c7 05       		.uleb128 0x5
 12305 36c8 03       		.byte	0x3
 12306 36c9 00000000 		.4byte	lwip_setsockopt_internal
 12307 36cd 00       		.byte	0
 12308 36ce 38       		.uleb128 0x38
 12309 36cf 9A000000 		.4byte	.LVL612
 12310 36d3 353B0000 		.4byte	0x3b35
 12311 36d7 36       		.uleb128 0x36
 12312 36d8 01       		.uleb128 0x1
 12313 36d9 51       		.byte	0x51
 12314 36da 02       		.uleb128 0x2
ARM GAS  C:\Users\jo\AppData\Local\Temp\cc6wN9Ut.s 			page 219


 12315 36db 76       		.byte	0x76
 12316 36dc 00       		.sleb128 0
 12317 36dd 00       		.byte	0
 12318 36de 00       		.byte	0
 12319 36df 48       		.uleb128 0x48
 12320 36e0 720A0000 		.4byte	.LASF388
 12321 36e4 01       		.byte	0x1
 12322 36e5 F108     		.2byte	0x8f1
 12323 36e7 25000000 		.4byte	0x25
 12324 36eb 00000000 		.4byte	.LFB288
 12325 36ef 60000000 		.4byte	.LFE288-.LFB288
 12326 36f3 01       		.uleb128 0x1
 12327 36f4 9C       		.byte	0x9c
 12328 36f5 6B370000 		.4byte	0x376b
 12329 36f9 2C       		.uleb128 0x2c
 12330 36fa 7300     		.ascii	"s\000"
 12331 36fc 01       		.byte	0x1
 12332 36fd F108     		.2byte	0x8f1
 12333 36ff 25000000 		.4byte	0x25
 12334 3703 32360000 		.4byte	.LLST204
 12335 3707 4B       		.uleb128 0x4b
 12336 3708 636D6400 		.ascii	"cmd\000"
 12337 370c 01       		.byte	0x1
 12338 370d F108     		.2byte	0x8f1
 12339 370f 91000000 		.4byte	0x91
 12340 3713 01       		.uleb128 0x1
 12341 3714 51       		.byte	0x51
 12342 3715 2D       		.uleb128 0x2d
 12343 3716 A20B0000 		.4byte	.LASF389
 12344 371a 01       		.byte	0x1
 12345 371b F108     		.2byte	0x8f1
 12346 371d 64030000 		.4byte	0x364
 12347 3721 9E360000 		.4byte	.LLST205
 12348 3725 2E       		.uleb128 0x2e
 12349 3726 E2030000 		.4byte	.LASF304
 12350 372a 01       		.byte	0x1
 12351 372b F308     		.2byte	0x8f3
 12352 372d BD140000 		.4byte	0x14bd
 12353 3731 3F       		.uleb128 0x3f
 12354 3732 76616C00 		.ascii	"val\000"
 12355 3736 01       		.byte	0x1
 12356 3737 F408     		.2byte	0x8f4
 12357 3739 7C090000 		.4byte	0x97c
 12358 373d D8360000 		.4byte	.LLST206
 12359 3741 44       		.uleb128 0x44
 12360 3742 C9140000 		.4byte	0x14c9
 12361 3746 00000000 		.4byte	.LBB274
 12362 374a 98020000 		.4byte	.Ldebug_ranges0+0x298
 12363 374e 01       		.byte	0x1
 12364 374f F308     		.2byte	0x8f3
 12365 3751 32       		.uleb128 0x32
 12366 3752 D9140000 		.4byte	0x14d9
 12367 3756 32360000 		.4byte	.LLST204
 12368 375a 33       		.uleb128 0x33
 12369 375b 98020000 		.4byte	.Ldebug_ranges0+0x298
 12370 375f 34       		.uleb128 0x34
 12371 3760 E2140000 		.4byte	0x14e2
ARM GAS  C:\Users\jo\AppData\Local\Temp\cc6wN9Ut.s 			page 220


 12372 3764 04370000 		.4byte	.LLST208
 12373 3768 00       		.byte	0
 12374 3769 00       		.byte	0
 12375 376a 00       		.byte	0
 12376 376b 48       		.uleb128 0x48
 12377 376c 47000000 		.4byte	.LASF390
 12378 3770 01       		.byte	0x1
 12379 3771 3309     		.2byte	0x933
 12380 3773 25000000 		.4byte	0x25
 12381 3777 00000000 		.4byte	.LFB289
 12382 377b 48000000 		.4byte	.LFE289-.LFB289
 12383 377f 01       		.uleb128 0x1
 12384 3780 9C       		.byte	0x9c
 12385 3781 F7370000 		.4byte	0x37f7
 12386 3785 2C       		.uleb128 0x2c
 12387 3786 7300     		.ascii	"s\000"
 12388 3788 01       		.byte	0x1
 12389 3789 3309     		.2byte	0x933
 12390 378b 25000000 		.4byte	0x25
 12391 378f 8D370000 		.4byte	.LLST209
 12392 3793 4B       		.uleb128 0x4b
 12393 3794 636D6400 		.ascii	"cmd\000"
 12394 3798 01       		.byte	0x1
 12395 3799 3309     		.2byte	0x933
 12396 379b 25000000 		.4byte	0x25
 12397 379f 01       		.uleb128 0x1
 12398 37a0 51       		.byte	0x51
 12399 37a1 2C       		.uleb128 0x2c
 12400 37a2 76616C00 		.ascii	"val\000"
 12401 37a6 01       		.byte	0x1
 12402 37a7 3309     		.2byte	0x933
 12403 37a9 25000000 		.4byte	0x25
 12404 37ad C7370000 		.4byte	.LLST210
 12405 37b1 2E       		.uleb128 0x2e
 12406 37b2 E2030000 		.4byte	.LASF304
 12407 37b6 01       		.byte	0x1
 12408 37b7 3509     		.2byte	0x935
 12409 37b9 BD140000 		.4byte	0x14bd
 12410 37bd 3F       		.uleb128 0x3f
 12411 37be 72657400 		.ascii	"ret\000"
 12412 37c2 01       		.byte	0x1
 12413 37c3 3609     		.2byte	0x936
 12414 37c5 25000000 		.4byte	0x25
 12415 37c9 01380000 		.4byte	.LLST211
 12416 37cd 44       		.uleb128 0x44
 12417 37ce C9140000 		.4byte	0x14c9
 12418 37d2 00000000 		.4byte	.LBB280
 12419 37d6 B8020000 		.4byte	.Ldebug_ranges0+0x2b8
 12420 37da 01       		.byte	0x1
 12421 37db 3509     		.2byte	0x935
 12422 37dd 32       		.uleb128 0x32
 12423 37de D9140000 		.4byte	0x14d9
 12424 37e2 8D370000 		.4byte	.LLST209
 12425 37e6 33       		.uleb128 0x33
 12426 37e7 B8020000 		.4byte	.Ldebug_ranges0+0x2b8
 12427 37eb 34       		.uleb128 0x34
 12428 37ec E2140000 		.4byte	0x14e2
ARM GAS  C:\Users\jo\AppData\Local\Temp\cc6wN9Ut.s 			page 221


 12429 37f0 2E380000 		.4byte	.LLST213
 12430 37f4 00       		.byte	0
 12431 37f5 00       		.byte	0
 12432 37f6 00       		.byte	0
 12433 37f7 15       		.uleb128 0x15
 12434 37f8 84130000 		.4byte	0x1384
 12435 37fc 07380000 		.4byte	0x3807
 12436 3800 16       		.uleb128 0x16
 12437 3801 C5040000 		.4byte	0x4c5
 12438 3805 01       		.byte	0x1
 12439 3806 00       		.byte	0
 12440 3807 4C       		.uleb128 0x4c
 12441 3808 6A0F0000 		.4byte	.LASF391
 12442 380c 01       		.byte	0x1
 12443 380d 7E       		.byte	0x7e
 12444 380e F7370000 		.4byte	0x37f7
 12445 3812 05       		.uleb128 0x5
 12446 3813 03       		.byte	0x3
 12447 3814 00000000 		.4byte	sockets
 12448 3818 4C       		.uleb128 0x4c
 12449 3819 05110000 		.4byte	.LASF392
 12450 381d 01       		.byte	0x1
 12451 381e 80       		.byte	0x80
 12452 381f 52140000 		.4byte	0x1452
 12453 3823 05       		.uleb128 0x5
 12454 3824 03       		.byte	0x3
 12455 3825 00000000 		.4byte	select_cb_list
 12456 3829 4C       		.uleb128 0x4c
 12457 382a 49110000 		.4byte	.LASF393
 12458 382e 01       		.byte	0x1
 12459 382f 83       		.byte	0x83
 12460 3830 3A380000 		.4byte	0x383a
 12461 3834 05       		.uleb128 0x5
 12462 3835 03       		.byte	0x3
 12463 3836 00000000 		.4byte	select_cb_ctr
 12464 383a 05       		.uleb128 0x5
 12465 383b 25000000 		.4byte	0x25
 12466 383f 15       		.uleb128 0x15
 12467 3840 25000000 		.4byte	0x25
 12468 3844 4F380000 		.4byte	0x384f
 12469 3848 16       		.uleb128 0x16
 12470 3849 C5040000 		.4byte	0x4c5
 12471 384d 0F       		.byte	0xf
 12472 384e 00       		.byte	0
 12473 384f 4C       		.uleb128 0x4c
 12474 3850 990A0000 		.4byte	.LASF394
 12475 3854 01       		.byte	0x1
 12476 3855 87       		.byte	0x87
 12477 3856 60380000 		.4byte	0x3860
 12478 385a 05       		.uleb128 0x5
 12479 385b 03       		.byte	0x3
 12480 385c 00000000 		.4byte	err_to_errno_table
 12481 3860 19       		.uleb128 0x19
 12482 3861 3F380000 		.4byte	0x383f
 12483 3865 4D       		.uleb128 0x4d
 12484 3866 F30C0000 		.4byte	.LASF395
 12485 386a 24       		.byte	0x24
ARM GAS  C:\Users\jo\AppData\Local\Temp\cc6wN9Ut.s 			page 222


 12486 386b A706     		.2byte	0x6a7
 12487 386d 10010000 		.4byte	0x110
 12488 3871 4E       		.uleb128 0x4e
 12489 3872 636800   		.ascii	"ch\000"
 12490 3875 09       		.byte	0x9
 12491 3876 0902     		.2byte	0x209
 12492 3878 5B040000 		.4byte	0x45b
 12493 387c 4F       		.uleb128 0x4f
 12494 387d F9120000 		.4byte	.LASF396
 12495 3881 16       		.byte	0x16
 12496 3882 3D       		.byte	0x3d
 12497 3883 44090000 		.4byte	0x944
 12498 3887 50       		.uleb128 0x50
 12499 3888 DF0A0000 		.4byte	.LASF397
 12500 388c 1E       		.byte	0x1e
 12501 388d DD       		.byte	0xdd
 12502 388e C30A0000 		.4byte	0xac3
 12503 3892 AB380000 		.4byte	0x38ab
 12504 3896 0D       		.uleb128 0xd
 12505 3897 400C0000 		.4byte	0xc40
 12506 389b 0D       		.uleb128 0xd
 12507 389c F7100000 		.4byte	0x10f7
 12508 38a0 0D       		.uleb128 0xd
 12509 38a1 C5120000 		.4byte	0x12c5
 12510 38a5 0D       		.uleb128 0xd
 12511 38a6 7C090000 		.4byte	0x97c
 12512 38aa 00       		.byte	0
 12513 38ab 50       		.uleb128 0x50
 12514 38ac C9030000 		.4byte	.LASF398
 12515 38b0 25       		.byte	0x25
 12516 38b1 63       		.byte	0x63
 12517 38b2 92090000 		.4byte	0x992
 12518 38b6 C0380000 		.4byte	0x38c0
 12519 38ba 0D       		.uleb128 0xd
 12520 38bb 92090000 		.4byte	0x992
 12521 38bf 00       		.byte	0
 12522 38c0 51       		.uleb128 0x51
 12523 38c1 D4110000 		.4byte	.LASF400
 12524 38c5 64030000 		.4byte	0x364
 12525 38c9 DD380000 		.4byte	0x38dd
 12526 38cd 0D       		.uleb128 0xd
 12527 38ce 64030000 		.4byte	0x364
 12528 38d2 0D       		.uleb128 0xd
 12529 38d3 FD100000 		.4byte	0x10fd
 12530 38d7 0D       		.uleb128 0xd
 12531 38d8 C5040000 		.4byte	0x4c5
 12532 38dc 00       		.byte	0
 12533 38dd 50       		.uleb128 0x50
 12534 38de 62000000 		.4byte	.LASF399
 12535 38e2 02       		.byte	0x2
 12536 38e3 28       		.byte	0x28
 12537 38e4 25000000 		.4byte	0x25
 12538 38e8 FC380000 		.4byte	0x38fc
 12539 38ec 0D       		.uleb128 0xd
 12540 38ed 5F150000 		.4byte	0x155f
 12541 38f1 0D       		.uleb128 0xd
 12542 38f2 F4060000 		.4byte	0x6f4
ARM GAS  C:\Users\jo\AppData\Local\Temp\cc6wN9Ut.s 			page 223


 12543 38f6 0D       		.uleb128 0xd
 12544 38f7 71090000 		.4byte	0x971
 12545 38fb 00       		.byte	0
 12546 38fc 52       		.uleb128 0x52
 12547 38fd AF100000 		.4byte	.LASF401
 12548 3901 26       		.byte	0x26
 12549 3902 1601     		.2byte	0x116
 12550 3904 0E390000 		.4byte	0x390e
 12551 3908 0D       		.uleb128 0xd
 12552 3909 F4060000 		.4byte	0x6f4
 12553 390d 00       		.byte	0
 12554 390e 53       		.uleb128 0x53
 12555 390f F4050000 		.4byte	.LASF402
 12556 3913 27       		.byte	0x27
 12557 3914 8E       		.byte	0x8e
 12558 3915 1F390000 		.4byte	0x391f
 12559 3919 0D       		.uleb128 0xd
 12560 391a 7E130000 		.4byte	0x137e
 12561 391e 00       		.byte	0
 12562 391f 53       		.uleb128 0x53
 12563 3920 A80C0000 		.4byte	.LASF403
 12564 3924 27       		.byte	0x27
 12565 3925 91       		.byte	0x91
 12566 3926 30390000 		.4byte	0x3930
 12567 392a 0D       		.uleb128 0xd
 12568 392b 7E130000 		.4byte	0x137e
 12569 392f 00       		.byte	0
 12570 3930 50       		.uleb128 0x50
 12571 3931 7D0A0000 		.4byte	.LASF404
 12572 3935 1E       		.byte	0x1e
 12573 3936 E7       		.byte	0xe7
 12574 3937 C30A0000 		.4byte	0xac3
 12575 393b 4A390000 		.4byte	0x394a
 12576 393f 0D       		.uleb128 0xd
 12577 3940 400C0000 		.4byte	0xc40
 12578 3944 0D       		.uleb128 0xd
 12579 3945 4A390000 		.4byte	0x394a
 12580 3949 00       		.byte	0
 12581 394a 0A       		.uleb128 0xa
 12582 394b 04       		.byte	0x4
 12583 394c 400C0000 		.4byte	0xc40
 12584 3950 50       		.uleb128 0x50
 12585 3951 49030000 		.4byte	.LASF405
 12586 3955 1E       		.byte	0x1e
 12587 3956 D9       		.byte	0xd9
 12588 3957 C30A0000 		.4byte	0xac3
 12589 395b 65390000 		.4byte	0x3965
 12590 395f 0D       		.uleb128 0xd
 12591 3960 400C0000 		.4byte	0xc40
 12592 3964 00       		.byte	0
 12593 3965 50       		.uleb128 0x50
 12594 3966 670C0000 		.4byte	.LASF406
 12595 396a 25       		.byte	0x25
 12596 396b 64       		.byte	0x64
 12597 396c 92090000 		.4byte	0x992
 12598 3970 7A390000 		.4byte	0x397a
 12599 3974 0D       		.uleb128 0xd
ARM GAS  C:\Users\jo\AppData\Local\Temp\cc6wN9Ut.s 			page 224


 12600 3975 92090000 		.4byte	0x992
 12601 3979 00       		.byte	0
 12602 397a 50       		.uleb128 0x50
 12603 397b 650E0000 		.4byte	.LASF407
 12604 397f 1E       		.byte	0x1e
 12605 3980 E2       		.byte	0xe2
 12606 3981 C30A0000 		.4byte	0xac3
 12607 3985 99390000 		.4byte	0x3999
 12608 3989 0D       		.uleb128 0xd
 12609 398a 400C0000 		.4byte	0xc40
 12610 398e 0D       		.uleb128 0xd
 12611 398f F7100000 		.4byte	0x10f7
 12612 3993 0D       		.uleb128 0xd
 12613 3994 92090000 		.4byte	0x992
 12614 3998 00       		.byte	0
 12615 3999 53       		.uleb128 0x53
 12616 399a 01050000 		.4byte	.LASF408
 12617 399e 1C       		.byte	0x1c
 12618 399f 41       		.byte	0x41
 12619 39a0 AA390000 		.4byte	0x39aa
 12620 39a4 0D       		.uleb128 0xd
 12621 39a5 6D130000 		.4byte	0x136d
 12622 39a9 00       		.byte	0
 12623 39aa 50       		.uleb128 0x50
 12624 39ab 70090000 		.4byte	.LASF409
 12625 39af 1B       		.byte	0x1b
 12626 39b0 9B       		.byte	0x9b
 12627 39b1 7C090000 		.4byte	0x97c
 12628 39b5 BF390000 		.4byte	0x39bf
 12629 39b9 0D       		.uleb128 0xd
 12630 39ba 2F0B0000 		.4byte	0xb2f
 12631 39be 00       		.byte	0
 12632 39bf 50       		.uleb128 0x50
 12633 39c0 490F0000 		.4byte	.LASF410
 12634 39c4 1E       		.byte	0x1e
 12635 39c5 E3       		.byte	0xe3
 12636 39c6 C30A0000 		.4byte	0xac3
 12637 39ca DE390000 		.4byte	0x39de
 12638 39ce 0D       		.uleb128 0xd
 12639 39cf 400C0000 		.4byte	0xc40
 12640 39d3 0D       		.uleb128 0xd
 12641 39d4 F7100000 		.4byte	0x10f7
 12642 39d8 0D       		.uleb128 0xd
 12643 39d9 92090000 		.4byte	0x992
 12644 39dd 00       		.byte	0
 12645 39de 50       		.uleb128 0x50
 12646 39df E3100000 		.4byte	.LASF411
 12647 39e3 1E       		.byte	0x1e
 12648 39e4 E5       		.byte	0xe5
 12649 39e5 C30A0000 		.4byte	0xac3
 12650 39e9 F8390000 		.4byte	0x39f8
 12651 39ed 0D       		.uleb128 0xd
 12652 39ee 400C0000 		.4byte	0xc40
 12653 39f2 0D       		.uleb128 0xd
 12654 39f3 7C090000 		.4byte	0x97c
 12655 39f7 00       		.byte	0
 12656 39f8 50       		.uleb128 0x50
ARM GAS  C:\Users\jo\AppData\Local\Temp\cc6wN9Ut.s 			page 225


 12657 39f9 B60E0000 		.4byte	.LASF412
 12658 39fd 1B       		.byte	0x1b
 12659 39fe A1       		.byte	0xa1
 12660 39ff 92090000 		.4byte	0x992
 12661 3a03 1C3A0000 		.4byte	0x3a1c
 12662 3a07 0D       		.uleb128 0xd
 12663 3a08 2F0B0000 		.4byte	0xb2f
 12664 3a0c 0D       		.uleb128 0xd
 12665 3a0d 64030000 		.4byte	0x364
 12666 3a11 0D       		.uleb128 0xd
 12667 3a12 92090000 		.4byte	0x992
 12668 3a16 0D       		.uleb128 0xd
 12669 3a17 92090000 		.4byte	0x992
 12670 3a1b 00       		.byte	0
 12671 3a1c 53       		.uleb128 0x53
 12672 3a1d BB020000 		.4byte	.LASF413
 12673 3a21 1E       		.byte	0x1e
 12674 3a22 EA       		.byte	0xea
 12675 3a23 323A0000 		.4byte	0x3a32
 12676 3a27 0D       		.uleb128 0xd
 12677 3a28 400C0000 		.4byte	0xc40
 12678 3a2c 0D       		.uleb128 0xd
 12679 3a2d A8090000 		.4byte	0x9a8
 12680 3a31 00       		.byte	0
 12681 3a32 50       		.uleb128 0x50
 12682 3a33 590D0000 		.4byte	.LASF414
 12683 3a37 1E       		.byte	0x1e
 12684 3a38 E8       		.byte	0xe8
 12685 3a39 C30A0000 		.4byte	0xac3
 12686 3a3d 4C3A0000 		.4byte	0x3a4c
 12687 3a41 0D       		.uleb128 0xd
 12688 3a42 400C0000 		.4byte	0xc40
 12689 3a46 0D       		.uleb128 0xd
 12690 3a47 4C3A0000 		.4byte	0x3a4c
 12691 3a4b 00       		.byte	0
 12692 3a4c 0A       		.uleb128 0xa
 12693 3a4d 04       		.byte	0x4
 12694 3a4e 6D130000 		.4byte	0x136d
 12695 3a52 50       		.uleb128 0x50
 12696 3a53 0F0F0000 		.4byte	.LASF415
 12697 3a57 1E       		.byte	0x1e
 12698 3a58 E9       		.byte	0xe9
 12699 3a59 C30A0000 		.4byte	0xac3
 12700 3a5d 6C3A0000 		.4byte	0x3a6c
 12701 3a61 0D       		.uleb128 0xd
 12702 3a62 400C0000 		.4byte	0xc40
 12703 3a66 0D       		.uleb128 0xd
 12704 3a67 6C3A0000 		.4byte	0x3a6c
 12705 3a6b 00       		.byte	0
 12706 3a6c 0A       		.uleb128 0xa
 12707 3a6d 04       		.byte	0x4
 12708 3a6e 2F0B0000 		.4byte	0xb2f
 12709 3a72 50       		.uleb128 0x50
 12710 3a73 89030000 		.4byte	.LASF416
 12711 3a77 1C       		.byte	0x1c
 12712 3a78 44       		.byte	0x44
 12713 3a79 C30A0000 		.4byte	0xac3
ARM GAS  C:\Users\jo\AppData\Local\Temp\cc6wN9Ut.s 			page 226


 12714 3a7d 913A0000 		.4byte	0x3a91
 12715 3a81 0D       		.uleb128 0xd
 12716 3a82 6D130000 		.4byte	0x136d
 12717 3a86 0D       		.uleb128 0xd
 12718 3a87 FD100000 		.4byte	0x10fd
 12719 3a8b 0D       		.uleb128 0xd
 12720 3a8c 92090000 		.4byte	0x992
 12721 3a90 00       		.byte	0
 12722 3a91 53       		.uleb128 0x53
 12723 3a92 90060000 		.4byte	.LASF417
 12724 3a96 1C       		.byte	0x1c
 12725 3a97 43       		.byte	0x43
 12726 3a98 A23A0000 		.4byte	0x3aa2
 12727 3a9c 0D       		.uleb128 0xd
 12728 3a9d 6D130000 		.4byte	0x136d
 12729 3aa1 00       		.byte	0
 12730 3aa2 50       		.uleb128 0x50
 12731 3aa3 00000000 		.4byte	.LASF418
 12732 3aa7 1E       		.byte	0x1e
 12733 3aa8 ED       		.byte	0xed
 12734 3aa9 C30A0000 		.4byte	0xac3
 12735 3aad BC3A0000 		.4byte	0x3abc
 12736 3ab1 0D       		.uleb128 0xd
 12737 3ab2 400C0000 		.4byte	0xc40
 12738 3ab6 0D       		.uleb128 0xd
 12739 3ab7 6D130000 		.4byte	0x136d
 12740 3abb 00       		.byte	0
 12741 3abc 50       		.uleb128 0x50
 12742 3abd 99080000 		.4byte	.LASF419
 12743 3ac1 1E       		.byte	0x1e
 12744 3ac2 EE       		.byte	0xee
 12745 3ac3 C30A0000 		.4byte	0xac3
 12746 3ac7 E53A0000 		.4byte	0x3ae5
 12747 3acb 0D       		.uleb128 0xd
 12748 3acc 400C0000 		.4byte	0xc40
 12749 3ad0 0D       		.uleb128 0xd
 12750 3ad1 FD100000 		.4byte	0x10fd
 12751 3ad5 0D       		.uleb128 0xd
 12752 3ad6 2C000000 		.4byte	0x2c
 12753 3ada 0D       		.uleb128 0xd
 12754 3adb 7C090000 		.4byte	0x97c
 12755 3adf 0D       		.uleb128 0xd
 12756 3ae0 E53A0000 		.4byte	0x3ae5
 12757 3ae4 00       		.byte	0
 12758 3ae5 0A       		.uleb128 0xa
 12759 3ae6 04       		.byte	0x4
 12760 3ae7 2C000000 		.4byte	0x2c
 12761 3aeb 50       		.uleb128 0x50
 12762 3aec 58030000 		.4byte	.LASF420
 12763 3af0 1E       		.byte	0x1e
 12764 3af1 D7       		.byte	0xd7
 12765 3af2 400C0000 		.4byte	0xc40
 12766 3af6 0A3B0000 		.4byte	0x3b0a
 12767 3afa 0D       		.uleb128 0xd
 12768 3afb 920B0000 		.4byte	0xb92
 12769 3aff 0D       		.uleb128 0xd
 12770 3b00 7C090000 		.4byte	0x97c
ARM GAS  C:\Users\jo\AppData\Local\Temp\cc6wN9Ut.s 			page 227


 12771 3b04 0D       		.uleb128 0xd
 12772 3b05 1A0C0000 		.4byte	0xc1a
 12773 3b09 00       		.byte	0
 12774 3b0a 50       		.uleb128 0x50
 12775 3b0b BA090000 		.4byte	.LASF421
 12776 3b0f 27       		.byte	0x27
 12777 3b10 8B       		.byte	0x8b
 12778 3b11 C30A0000 		.4byte	0xac3
 12779 3b15 243B0000 		.4byte	0x3b24
 12780 3b19 0D       		.uleb128 0xd
 12781 3b1a 7E130000 		.4byte	0x137e
 12782 3b1e 0D       		.uleb128 0xd
 12783 3b1f 7C090000 		.4byte	0x97c
 12784 3b23 00       		.byte	0
 12785 3b24 53       		.uleb128 0x53
 12786 3b25 500E0000 		.4byte	.LASF422
 12787 3b29 27       		.byte	0x27
 12788 3b2a 9A       		.byte	0x9a
 12789 3b2b 353B0000 		.4byte	0x3b35
 12790 3b2f 0D       		.uleb128 0xd
 12791 3b30 7E130000 		.4byte	0x137e
 12792 3b34 00       		.byte	0
 12793 3b35 50       		.uleb128 0x50
 12794 3b36 820D0000 		.4byte	.LASF423
 12795 3b3a 27       		.byte	0x27
 12796 3b3b 97       		.byte	0x97
 12797 3b3c A8090000 		.4byte	0x9a8
 12798 3b40 4F3B0000 		.4byte	0x3b4f
 12799 3b44 0D       		.uleb128 0xd
 12800 3b45 7E130000 		.4byte	0x137e
 12801 3b49 0D       		.uleb128 0xd
 12802 3b4a A8090000 		.4byte	0x9a8
 12803 3b4e 00       		.byte	0
 12804 3b4f 50       		.uleb128 0x50
 12805 3b50 94030000 		.4byte	.LASF424
 12806 3b54 1E       		.byte	0x1e
 12807 3b55 F3       		.byte	0xf3
 12808 3b56 C30A0000 		.4byte	0xac3
 12809 3b5a 6E3B0000 		.4byte	0x3b6e
 12810 3b5e 0D       		.uleb128 0xd
 12811 3b5f 400C0000 		.4byte	0xc40
 12812 3b63 0D       		.uleb128 0xd
 12813 3b64 7C090000 		.4byte	0x97c
 12814 3b68 0D       		.uleb128 0xd
 12815 3b69 7C090000 		.4byte	0x97c
 12816 3b6d 00       		.byte	0
 12817 3b6e 54       		.uleb128 0x54
 12818 3b6f 82110000 		.4byte	.LASF425
 12819 3b73 23       		.byte	0x23
 12820 3b74 65       		.byte	0x65
 12821 3b75 C30A0000 		.4byte	0xac3
 12822 3b79 0D       		.uleb128 0xd
 12823 3b7a 73130000 		.4byte	0x1373
 12824 3b7e 0D       		.uleb128 0xd
 12825 3b7f 64030000 		.4byte	0x364
 12826 3b83 0D       		.uleb128 0xd
 12827 3b84 7C090000 		.4byte	0x97c
ARM GAS  C:\Users\jo\AppData\Local\Temp\cc6wN9Ut.s 			page 228


 12828 3b88 00       		.byte	0
 12829 3b89 00       		.byte	0
 12830              		.section	.debug_abbrev,"",%progbits
 12831              	.Ldebug_abbrev0:
 12832 0000 01       		.uleb128 0x1
 12833 0001 11       		.uleb128 0x11
 12834 0002 01       		.byte	0x1
 12835 0003 25       		.uleb128 0x25
 12836 0004 0E       		.uleb128 0xe
 12837 0005 13       		.uleb128 0x13
 12838 0006 0B       		.uleb128 0xb
 12839 0007 03       		.uleb128 0x3
 12840 0008 0E       		.uleb128 0xe
 12841 0009 1B       		.uleb128 0x1b
 12842 000a 0E       		.uleb128 0xe
 12843 000b 55       		.uleb128 0x55
 12844 000c 17       		.uleb128 0x17
 12845 000d 11       		.uleb128 0x11
 12846 000e 01       		.uleb128 0x1
 12847 000f 10       		.uleb128 0x10
 12848 0010 17       		.uleb128 0x17
 12849 0011 00       		.byte	0
 12850 0012 00       		.byte	0
 12851 0013 02       		.uleb128 0x2
 12852 0014 24       		.uleb128 0x24
 12853 0015 00       		.byte	0
 12854 0016 0B       		.uleb128 0xb
 12855 0017 0B       		.uleb128 0xb
 12856 0018 3E       		.uleb128 0x3e
 12857 0019 0B       		.uleb128 0xb
 12858 001a 03       		.uleb128 0x3
 12859 001b 08       		.uleb128 0x8
 12860 001c 00       		.byte	0
 12861 001d 00       		.byte	0
 12862 001e 03       		.uleb128 0x3
 12863 001f 16       		.uleb128 0x16
 12864 0020 00       		.byte	0
 12865 0021 03       		.uleb128 0x3
 12866 0022 0E       		.uleb128 0xe
 12867 0023 3A       		.uleb128 0x3a
 12868 0024 0B       		.uleb128 0xb
 12869 0025 3B       		.uleb128 0x3b
 12870 0026 0B       		.uleb128 0xb
 12871 0027 49       		.uleb128 0x49
 12872 0028 13       		.uleb128 0x13
 12873 0029 00       		.byte	0
 12874 002a 00       		.byte	0
 12875 002b 04       		.uleb128 0x4
 12876 002c 24       		.uleb128 0x24
 12877 002d 00       		.byte	0
 12878 002e 0B       		.uleb128 0xb
 12879 002f 0B       		.uleb128 0xb
 12880 0030 3E       		.uleb128 0x3e
 12881 0031 0B       		.uleb128 0xb
 12882 0032 03       		.uleb128 0x3
 12883 0033 0E       		.uleb128 0xe
 12884 0034 00       		.byte	0
ARM GAS  C:\Users\jo\AppData\Local\Temp\cc6wN9Ut.s 			page 229


 12885 0035 00       		.byte	0
 12886 0036 05       		.uleb128 0x5
 12887 0037 35       		.uleb128 0x35
 12888 0038 00       		.byte	0
 12889 0039 49       		.uleb128 0x49
 12890 003a 13       		.uleb128 0x13
 12891 003b 00       		.byte	0
 12892 003c 00       		.byte	0
 12893 003d 06       		.uleb128 0x6
 12894 003e 13       		.uleb128 0x13
 12895 003f 01       		.byte	0x1
 12896 0040 03       		.uleb128 0x3
 12897 0041 0E       		.uleb128 0xe
 12898 0042 0B       		.uleb128 0xb
 12899 0043 0B       		.uleb128 0xb
 12900 0044 3A       		.uleb128 0x3a
 12901 0045 0B       		.uleb128 0xb
 12902 0046 3B       		.uleb128 0x3b
 12903 0047 0B       		.uleb128 0xb
 12904 0048 01       		.uleb128 0x1
 12905 0049 13       		.uleb128 0x13
 12906 004a 00       		.byte	0
 12907 004b 00       		.byte	0
 12908 004c 07       		.uleb128 0x7
 12909 004d 0D       		.uleb128 0xd
 12910 004e 00       		.byte	0
 12911 004f 03       		.uleb128 0x3
 12912 0050 0E       		.uleb128 0xe
 12913 0051 3A       		.uleb128 0x3a
 12914 0052 0B       		.uleb128 0xb
 12915 0053 3B       		.uleb128 0x3b
 12916 0054 0B       		.uleb128 0xb
 12917 0055 49       		.uleb128 0x49
 12918 0056 13       		.uleb128 0x13
 12919 0057 38       		.uleb128 0x38
 12920 0058 0B       		.uleb128 0xb
 12921 0059 00       		.byte	0
 12922 005a 00       		.byte	0
 12923 005b 08       		.uleb128 0x8
 12924 005c 0D       		.uleb128 0xd
 12925 005d 00       		.byte	0
 12926 005e 03       		.uleb128 0x3
 12927 005f 08       		.uleb128 0x8
 12928 0060 3A       		.uleb128 0x3a
 12929 0061 0B       		.uleb128 0xb
 12930 0062 3B       		.uleb128 0x3b
 12931 0063 05       		.uleb128 0x5
 12932 0064 49       		.uleb128 0x49
 12933 0065 13       		.uleb128 0x13
 12934 0066 38       		.uleb128 0x38
 12935 0067 0B       		.uleb128 0xb
 12936 0068 00       		.byte	0
 12937 0069 00       		.byte	0
 12938 006a 09       		.uleb128 0x9
 12939 006b 0D       		.uleb128 0xd
 12940 006c 00       		.byte	0
 12941 006d 03       		.uleb128 0x3
ARM GAS  C:\Users\jo\AppData\Local\Temp\cc6wN9Ut.s 			page 230


 12942 006e 0E       		.uleb128 0xe
 12943 006f 3A       		.uleb128 0x3a
 12944 0070 0B       		.uleb128 0xb
 12945 0071 3B       		.uleb128 0x3b
 12946 0072 05       		.uleb128 0x5
 12947 0073 49       		.uleb128 0x49
 12948 0074 13       		.uleb128 0x13
 12949 0075 38       		.uleb128 0x38
 12950 0076 0B       		.uleb128 0xb
 12951 0077 00       		.byte	0
 12952 0078 00       		.byte	0
 12953 0079 0A       		.uleb128 0xa
 12954 007a 0F       		.uleb128 0xf
 12955 007b 00       		.byte	0
 12956 007c 0B       		.uleb128 0xb
 12957 007d 0B       		.uleb128 0xb
 12958 007e 49       		.uleb128 0x49
 12959 007f 13       		.uleb128 0x13
 12960 0080 00       		.byte	0
 12961 0081 00       		.byte	0
 12962 0082 0B       		.uleb128 0xb
 12963 0083 13       		.uleb128 0x13
 12964 0084 01       		.byte	0x1
 12965 0085 03       		.uleb128 0x3
 12966 0086 0E       		.uleb128 0xe
 12967 0087 0B       		.uleb128 0xb
 12968 0088 0B       		.uleb128 0xb
 12969 0089 3A       		.uleb128 0x3a
 12970 008a 0B       		.uleb128 0xb
 12971 008b 3B       		.uleb128 0x3b
 12972 008c 05       		.uleb128 0x5
 12973 008d 01       		.uleb128 0x1
 12974 008e 13       		.uleb128 0x13
 12975 008f 00       		.byte	0
 12976 0090 00       		.byte	0
 12977 0091 0C       		.uleb128 0xc
 12978 0092 15       		.uleb128 0x15
 12979 0093 01       		.byte	0x1
 12980 0094 27       		.uleb128 0x27
 12981 0095 19       		.uleb128 0x19
 12982 0096 01       		.uleb128 0x1
 12983 0097 13       		.uleb128 0x13
 12984 0098 00       		.byte	0
 12985 0099 00       		.byte	0
 12986 009a 0D       		.uleb128 0xd
 12987 009b 05       		.uleb128 0x5
 12988 009c 00       		.byte	0
 12989 009d 49       		.uleb128 0x49
 12990 009e 13       		.uleb128 0x13
 12991 009f 00       		.byte	0
 12992 00a0 00       		.byte	0
 12993 00a1 0E       		.uleb128 0xe
 12994 00a2 0F       		.uleb128 0xf
 12995 00a3 00       		.byte	0
 12996 00a4 0B       		.uleb128 0xb
 12997 00a5 0B       		.uleb128 0xb
 12998 00a6 00       		.byte	0
ARM GAS  C:\Users\jo\AppData\Local\Temp\cc6wN9Ut.s 			page 231


 12999 00a7 00       		.byte	0
 13000 00a8 0F       		.uleb128 0xf
 13001 00a9 13       		.uleb128 0x13
 13002 00aa 01       		.byte	0x1
 13003 00ab 03       		.uleb128 0x3
 13004 00ac 0E       		.uleb128 0xe
 13005 00ad 0B       		.uleb128 0xb
 13006 00ae 05       		.uleb128 0x5
 13007 00af 3A       		.uleb128 0x3a
 13008 00b0 0B       		.uleb128 0xb
 13009 00b1 3B       		.uleb128 0x3b
 13010 00b2 05       		.uleb128 0x5
 13011 00b3 01       		.uleb128 0x1
 13012 00b4 13       		.uleb128 0x13
 13013 00b5 00       		.byte	0
 13014 00b6 00       		.byte	0
 13015 00b7 10       		.uleb128 0x10
 13016 00b8 0D       		.uleb128 0xd
 13017 00b9 00       		.byte	0
 13018 00ba 03       		.uleb128 0x3
 13019 00bb 0E       		.uleb128 0xe
 13020 00bc 3A       		.uleb128 0x3a
 13021 00bd 0B       		.uleb128 0xb
 13022 00be 3B       		.uleb128 0x3b
 13023 00bf 05       		.uleb128 0x5
 13024 00c0 49       		.uleb128 0x49
 13025 00c1 13       		.uleb128 0x13
 13026 00c2 38       		.uleb128 0x38
 13027 00c3 05       		.uleb128 0x5
 13028 00c4 00       		.byte	0
 13029 00c5 00       		.byte	0
 13030 00c6 11       		.uleb128 0x11
 13031 00c7 0D       		.uleb128 0xd
 13032 00c8 00       		.byte	0
 13033 00c9 03       		.uleb128 0x3
 13034 00ca 08       		.uleb128 0x8
 13035 00cb 3A       		.uleb128 0x3a
 13036 00cc 0B       		.uleb128 0xb
 13037 00cd 3B       		.uleb128 0x3b
 13038 00ce 05       		.uleb128 0x5
 13039 00cf 49       		.uleb128 0x49
 13040 00d0 13       		.uleb128 0x13
 13041 00d1 38       		.uleb128 0x38
 13042 00d2 05       		.uleb128 0x5
 13043 00d3 00       		.byte	0
 13044 00d4 00       		.byte	0
 13045 00d5 12       		.uleb128 0x12
 13046 00d6 0D       		.uleb128 0xd
 13047 00d7 00       		.byte	0
 13048 00d8 03       		.uleb128 0x3
 13049 00d9 08       		.uleb128 0x8
 13050 00da 3A       		.uleb128 0x3a
 13051 00db 0B       		.uleb128 0xb
 13052 00dc 3B       		.uleb128 0x3b
 13053 00dd 0B       		.uleb128 0xb
 13054 00de 49       		.uleb128 0x49
 13055 00df 13       		.uleb128 0x13
ARM GAS  C:\Users\jo\AppData\Local\Temp\cc6wN9Ut.s 			page 232


 13056 00e0 38       		.uleb128 0x38
 13057 00e1 0B       		.uleb128 0xb
 13058 00e2 00       		.byte	0
 13059 00e3 00       		.byte	0
 13060 00e4 13       		.uleb128 0x13
 13061 00e5 13       		.uleb128 0x13
 13062 00e6 01       		.byte	0x1
 13063 00e7 0B       		.uleb128 0xb
 13064 00e8 0B       		.uleb128 0xb
 13065 00e9 3A       		.uleb128 0x3a
 13066 00ea 0B       		.uleb128 0xb
 13067 00eb 3B       		.uleb128 0x3b
 13068 00ec 0B       		.uleb128 0xb
 13069 00ed 01       		.uleb128 0x1
 13070 00ee 13       		.uleb128 0x13
 13071 00ef 00       		.byte	0
 13072 00f0 00       		.byte	0
 13073 00f1 14       		.uleb128 0x14
 13074 00f2 13       		.uleb128 0x13
 13075 00f3 01       		.byte	0x1
 13076 00f4 0B       		.uleb128 0xb
 13077 00f5 05       		.uleb128 0x5
 13078 00f6 3A       		.uleb128 0x3a
 13079 00f7 0B       		.uleb128 0xb
 13080 00f8 3B       		.uleb128 0x3b
 13081 00f9 0B       		.uleb128 0xb
 13082 00fa 01       		.uleb128 0x1
 13083 00fb 13       		.uleb128 0x13
 13084 00fc 00       		.byte	0
 13085 00fd 00       		.byte	0
 13086 00fe 15       		.uleb128 0x15
 13087 00ff 01       		.uleb128 0x1
 13088 0100 01       		.byte	0x1
 13089 0101 49       		.uleb128 0x49
 13090 0102 13       		.uleb128 0x13
 13091 0103 01       		.uleb128 0x1
 13092 0104 13       		.uleb128 0x13
 13093 0105 00       		.byte	0
 13094 0106 00       		.byte	0
 13095 0107 16       		.uleb128 0x16
 13096 0108 21       		.uleb128 0x21
 13097 0109 00       		.byte	0
 13098 010a 49       		.uleb128 0x49
 13099 010b 13       		.uleb128 0x13
 13100 010c 2F       		.uleb128 0x2f
 13101 010d 0B       		.uleb128 0xb
 13102 010e 00       		.byte	0
 13103 010f 00       		.byte	0
 13104 0110 17       		.uleb128 0x17
 13105 0111 17       		.uleb128 0x17
 13106 0112 01       		.byte	0x1
 13107 0113 0B       		.uleb128 0xb
 13108 0114 0B       		.uleb128 0xb
 13109 0115 3A       		.uleb128 0x3a
 13110 0116 0B       		.uleb128 0xb
 13111 0117 3B       		.uleb128 0x3b
 13112 0118 0B       		.uleb128 0xb
ARM GAS  C:\Users\jo\AppData\Local\Temp\cc6wN9Ut.s 			page 233


 13113 0119 01       		.uleb128 0x1
 13114 011a 13       		.uleb128 0x13
 13115 011b 00       		.byte	0
 13116 011c 00       		.byte	0
 13117 011d 18       		.uleb128 0x18
 13118 011e 0D       		.uleb128 0xd
 13119 011f 00       		.byte	0
 13120 0120 03       		.uleb128 0x3
 13121 0121 0E       		.uleb128 0xe
 13122 0122 3A       		.uleb128 0x3a
 13123 0123 0B       		.uleb128 0xb
 13124 0124 3B       		.uleb128 0x3b
 13125 0125 05       		.uleb128 0x5
 13126 0126 49       		.uleb128 0x49
 13127 0127 13       		.uleb128 0x13
 13128 0128 00       		.byte	0
 13129 0129 00       		.byte	0
 13130 012a 19       		.uleb128 0x19
 13131 012b 26       		.uleb128 0x26
 13132 012c 00       		.byte	0
 13133 012d 49       		.uleb128 0x49
 13134 012e 13       		.uleb128 0x13
 13135 012f 00       		.byte	0
 13136 0130 00       		.byte	0
 13137 0131 1A       		.uleb128 0x1a
 13138 0132 15       		.uleb128 0x15
 13139 0133 01       		.byte	0x1
 13140 0134 27       		.uleb128 0x27
 13141 0135 19       		.uleb128 0x19
 13142 0136 49       		.uleb128 0x49
 13143 0137 13       		.uleb128 0x13
 13144 0138 01       		.uleb128 0x1
 13145 0139 13       		.uleb128 0x13
 13146 013a 00       		.byte	0
 13147 013b 00       		.byte	0
 13148 013c 1B       		.uleb128 0x1b
 13149 013d 0D       		.uleb128 0xd
 13150 013e 00       		.byte	0
 13151 013f 03       		.uleb128 0x3
 13152 0140 0E       		.uleb128 0xe
 13153 0141 49       		.uleb128 0x49
 13154 0142 13       		.uleb128 0x13
 13155 0143 38       		.uleb128 0x38
 13156 0144 0B       		.uleb128 0xb
 13157 0145 34       		.uleb128 0x34
 13158 0146 19       		.uleb128 0x19
 13159 0147 00       		.byte	0
 13160 0148 00       		.byte	0
 13161 0149 1C       		.uleb128 0x1c
 13162 014a 04       		.uleb128 0x4
 13163 014b 01       		.byte	0x1
 13164 014c 03       		.uleb128 0x3
 13165 014d 0E       		.uleb128 0xe
 13166 014e 0B       		.uleb128 0xb
 13167 014f 0B       		.uleb128 0xb
 13168 0150 3A       		.uleb128 0x3a
 13169 0151 0B       		.uleb128 0xb
ARM GAS  C:\Users\jo\AppData\Local\Temp\cc6wN9Ut.s 			page 234


 13170 0152 3B       		.uleb128 0x3b
 13171 0153 0B       		.uleb128 0xb
 13172 0154 01       		.uleb128 0x1
 13173 0155 13       		.uleb128 0x13
 13174 0156 00       		.byte	0
 13175 0157 00       		.byte	0
 13176 0158 1D       		.uleb128 0x1d
 13177 0159 28       		.uleb128 0x28
 13178 015a 00       		.byte	0
 13179 015b 03       		.uleb128 0x3
 13180 015c 0E       		.uleb128 0xe
 13181 015d 1C       		.uleb128 0x1c
 13182 015e 0D       		.uleb128 0xd
 13183 015f 00       		.byte	0
 13184 0160 00       		.byte	0
 13185 0161 1E       		.uleb128 0x1e
 13186 0162 0D       		.uleb128 0xd
 13187 0163 00       		.byte	0
 13188 0164 03       		.uleb128 0x3
 13189 0165 08       		.uleb128 0x8
 13190 0166 3A       		.uleb128 0x3a
 13191 0167 0B       		.uleb128 0xb
 13192 0168 3B       		.uleb128 0x3b
 13193 0169 0B       		.uleb128 0xb
 13194 016a 49       		.uleb128 0x49
 13195 016b 13       		.uleb128 0x13
 13196 016c 00       		.byte	0
 13197 016d 00       		.byte	0
 13198 016e 1F       		.uleb128 0x1f
 13199 016f 13       		.uleb128 0x13
 13200 0170 00       		.byte	0
 13201 0171 03       		.uleb128 0x3
 13202 0172 0E       		.uleb128 0xe
 13203 0173 3C       		.uleb128 0x3c
 13204 0174 19       		.uleb128 0x19
 13205 0175 00       		.byte	0
 13206 0176 00       		.byte	0
 13207 0177 20       		.uleb128 0x20
 13208 0178 26       		.uleb128 0x26
 13209 0179 00       		.byte	0
 13210 017a 00       		.byte	0
 13211 017b 00       		.byte	0
 13212 017c 21       		.uleb128 0x21
 13213 017d 2E       		.uleb128 0x2e
 13214 017e 01       		.byte	0x1
 13215 017f 03       		.uleb128 0x3
 13216 0180 0E       		.uleb128 0xe
 13217 0181 3A       		.uleb128 0x3a
 13218 0182 0B       		.uleb128 0xb
 13219 0183 3B       		.uleb128 0x3b
 13220 0184 0B       		.uleb128 0xb
 13221 0185 27       		.uleb128 0x27
 13222 0186 19       		.uleb128 0x19
 13223 0187 49       		.uleb128 0x49
 13224 0188 13       		.uleb128 0x13
 13225 0189 20       		.uleb128 0x20
 13226 018a 0B       		.uleb128 0xb
ARM GAS  C:\Users\jo\AppData\Local\Temp\cc6wN9Ut.s 			page 235


 13227 018b 01       		.uleb128 0x1
 13228 018c 13       		.uleb128 0x13
 13229 018d 00       		.byte	0
 13230 018e 00       		.byte	0
 13231 018f 22       		.uleb128 0x22
 13232 0190 05       		.uleb128 0x5
 13233 0191 00       		.byte	0
 13234 0192 03       		.uleb128 0x3
 13235 0193 08       		.uleb128 0x8
 13236 0194 3A       		.uleb128 0x3a
 13237 0195 0B       		.uleb128 0xb
 13238 0196 3B       		.uleb128 0x3b
 13239 0197 0B       		.uleb128 0xb
 13240 0198 49       		.uleb128 0x49
 13241 0199 13       		.uleb128 0x13
 13242 019a 00       		.byte	0
 13243 019b 00       		.byte	0
 13244 019c 23       		.uleb128 0x23
 13245 019d 34       		.uleb128 0x34
 13246 019e 00       		.byte	0
 13247 019f 03       		.uleb128 0x3
 13248 01a0 0E       		.uleb128 0xe
 13249 01a1 3A       		.uleb128 0x3a
 13250 01a2 0B       		.uleb128 0xb
 13251 01a3 3B       		.uleb128 0x3b
 13252 01a4 0B       		.uleb128 0xb
 13253 01a5 49       		.uleb128 0x49
 13254 01a6 13       		.uleb128 0x13
 13255 01a7 00       		.byte	0
 13256 01a8 00       		.byte	0
 13257 01a9 24       		.uleb128 0x24
 13258 01aa 2E       		.uleb128 0x2e
 13259 01ab 01       		.byte	0x1
 13260 01ac 03       		.uleb128 0x3
 13261 01ad 0E       		.uleb128 0xe
 13262 01ae 3A       		.uleb128 0x3a
 13263 01af 0B       		.uleb128 0xb
 13264 01b0 3B       		.uleb128 0x3b
 13265 01b1 05       		.uleb128 0x5
 13266 01b2 27       		.uleb128 0x27
 13267 01b3 19       		.uleb128 0x19
 13268 01b4 20       		.uleb128 0x20
 13269 01b5 0B       		.uleb128 0xb
 13270 01b6 01       		.uleb128 0x1
 13271 01b7 13       		.uleb128 0x13
 13272 01b8 00       		.byte	0
 13273 01b9 00       		.byte	0
 13274 01ba 25       		.uleb128 0x25
 13275 01bb 05       		.uleb128 0x5
 13276 01bc 00       		.byte	0
 13277 01bd 03       		.uleb128 0x3
 13278 01be 0E       		.uleb128 0xe
 13279 01bf 3A       		.uleb128 0x3a
 13280 01c0 0B       		.uleb128 0xb
 13281 01c1 3B       		.uleb128 0x3b
 13282 01c2 05       		.uleb128 0x5
 13283 01c3 49       		.uleb128 0x49
ARM GAS  C:\Users\jo\AppData\Local\Temp\cc6wN9Ut.s 			page 236


 13284 01c4 13       		.uleb128 0x13
 13285 01c5 00       		.byte	0
 13286 01c6 00       		.byte	0
 13287 01c7 26       		.uleb128 0x26
 13288 01c8 18       		.uleb128 0x18
 13289 01c9 00       		.byte	0
 13290 01ca 00       		.byte	0
 13291 01cb 00       		.byte	0
 13292 01cc 27       		.uleb128 0x27
 13293 01cd 34       		.uleb128 0x34
 13294 01ce 00       		.byte	0
 13295 01cf 03       		.uleb128 0x3
 13296 01d0 08       		.uleb128 0x8
 13297 01d1 3A       		.uleb128 0x3a
 13298 01d2 0B       		.uleb128 0xb
 13299 01d3 3B       		.uleb128 0x3b
 13300 01d4 0B       		.uleb128 0xb
 13301 01d5 49       		.uleb128 0x49
 13302 01d6 13       		.uleb128 0x13
 13303 01d7 00       		.byte	0
 13304 01d8 00       		.byte	0
 13305 01d9 28       		.uleb128 0x28
 13306 01da 2E       		.uleb128 0x2e
 13307 01db 01       		.byte	0x1
 13308 01dc 03       		.uleb128 0x3
 13309 01dd 0E       		.uleb128 0xe
 13310 01de 3A       		.uleb128 0x3a
 13311 01df 0B       		.uleb128 0xb
 13312 01e0 3B       		.uleb128 0x3b
 13313 01e1 0B       		.uleb128 0xb
 13314 01e2 27       		.uleb128 0x27
 13315 01e3 19       		.uleb128 0x19
 13316 01e4 49       		.uleb128 0x49
 13317 01e5 13       		.uleb128 0x13
 13318 01e6 11       		.uleb128 0x11
 13319 01e7 01       		.uleb128 0x1
 13320 01e8 12       		.uleb128 0x12
 13321 01e9 06       		.uleb128 0x6
 13322 01ea 40       		.uleb128 0x40
 13323 01eb 18       		.uleb128 0x18
 13324 01ec 9742     		.uleb128 0x2117
 13325 01ee 19       		.uleb128 0x19
 13326 01ef 01       		.uleb128 0x1
 13327 01f0 13       		.uleb128 0x13
 13328 01f1 00       		.byte	0
 13329 01f2 00       		.byte	0
 13330 01f3 29       		.uleb128 0x29
 13331 01f4 05       		.uleb128 0x5
 13332 01f5 00       		.byte	0
 13333 01f6 03       		.uleb128 0x3
 13334 01f7 0E       		.uleb128 0xe
 13335 01f8 3A       		.uleb128 0x3a
 13336 01f9 0B       		.uleb128 0xb
 13337 01fa 3B       		.uleb128 0x3b
 13338 01fb 0B       		.uleb128 0xb
 13339 01fc 49       		.uleb128 0x49
 13340 01fd 13       		.uleb128 0x13
ARM GAS  C:\Users\jo\AppData\Local\Temp\cc6wN9Ut.s 			page 237


 13341 01fe 02       		.uleb128 0x2
 13342 01ff 17       		.uleb128 0x17
 13343 0200 00       		.byte	0
 13344 0201 00       		.byte	0
 13345 0202 2A       		.uleb128 0x2a
 13346 0203 34       		.uleb128 0x34
 13347 0204 00       		.byte	0
 13348 0205 03       		.uleb128 0x3
 13349 0206 08       		.uleb128 0x8
 13350 0207 3A       		.uleb128 0x3a
 13351 0208 0B       		.uleb128 0xb
 13352 0209 3B       		.uleb128 0x3b
 13353 020a 0B       		.uleb128 0xb
 13354 020b 49       		.uleb128 0x49
 13355 020c 13       		.uleb128 0x13
 13356 020d 02       		.uleb128 0x2
 13357 020e 17       		.uleb128 0x17
 13358 020f 00       		.byte	0
 13359 0210 00       		.byte	0
 13360 0211 2B       		.uleb128 0x2b
 13361 0212 2E       		.uleb128 0x2e
 13362 0213 01       		.byte	0x1
 13363 0214 03       		.uleb128 0x3
 13364 0215 0E       		.uleb128 0xe
 13365 0216 3A       		.uleb128 0x3a
 13366 0217 0B       		.uleb128 0xb
 13367 0218 3B       		.uleb128 0x3b
 13368 0219 05       		.uleb128 0x5
 13369 021a 27       		.uleb128 0x27
 13370 021b 19       		.uleb128 0x19
 13371 021c 49       		.uleb128 0x49
 13372 021d 13       		.uleb128 0x13
 13373 021e 11       		.uleb128 0x11
 13374 021f 01       		.uleb128 0x1
 13375 0220 12       		.uleb128 0x12
 13376 0221 06       		.uleb128 0x6
 13377 0222 40       		.uleb128 0x40
 13378 0223 18       		.uleb128 0x18
 13379 0224 9742     		.uleb128 0x2117
 13380 0226 19       		.uleb128 0x19
 13381 0227 01       		.uleb128 0x1
 13382 0228 13       		.uleb128 0x13
 13383 0229 00       		.byte	0
 13384 022a 00       		.byte	0
 13385 022b 2C       		.uleb128 0x2c
 13386 022c 05       		.uleb128 0x5
 13387 022d 00       		.byte	0
 13388 022e 03       		.uleb128 0x3
 13389 022f 08       		.uleb128 0x8
 13390 0230 3A       		.uleb128 0x3a
 13391 0231 0B       		.uleb128 0xb
 13392 0232 3B       		.uleb128 0x3b
 13393 0233 05       		.uleb128 0x5
 13394 0234 49       		.uleb128 0x49
 13395 0235 13       		.uleb128 0x13
 13396 0236 02       		.uleb128 0x2
 13397 0237 17       		.uleb128 0x17
ARM GAS  C:\Users\jo\AppData\Local\Temp\cc6wN9Ut.s 			page 238


 13398 0238 00       		.byte	0
 13399 0239 00       		.byte	0
 13400 023a 2D       		.uleb128 0x2d
 13401 023b 05       		.uleb128 0x5
 13402 023c 00       		.byte	0
 13403 023d 03       		.uleb128 0x3
 13404 023e 0E       		.uleb128 0xe
 13405 023f 3A       		.uleb128 0x3a
 13406 0240 0B       		.uleb128 0xb
 13407 0241 3B       		.uleb128 0x3b
 13408 0242 05       		.uleb128 0x5
 13409 0243 49       		.uleb128 0x49
 13410 0244 13       		.uleb128 0x13
 13411 0245 02       		.uleb128 0x2
 13412 0246 17       		.uleb128 0x17
 13413 0247 00       		.byte	0
 13414 0248 00       		.byte	0
 13415 0249 2E       		.uleb128 0x2e
 13416 024a 34       		.uleb128 0x34
 13417 024b 00       		.byte	0
 13418 024c 03       		.uleb128 0x3
 13419 024d 0E       		.uleb128 0xe
 13420 024e 3A       		.uleb128 0x3a
 13421 024f 0B       		.uleb128 0xb
 13422 0250 3B       		.uleb128 0x3b
 13423 0251 05       		.uleb128 0x5
 13424 0252 49       		.uleb128 0x49
 13425 0253 13       		.uleb128 0x13
 13426 0254 00       		.byte	0
 13427 0255 00       		.byte	0
 13428 0256 2F       		.uleb128 0x2f
 13429 0257 34       		.uleb128 0x34
 13430 0258 00       		.byte	0
 13431 0259 03       		.uleb128 0x3
 13432 025a 08       		.uleb128 0x8
 13433 025b 3A       		.uleb128 0x3a
 13434 025c 0B       		.uleb128 0xb
 13435 025d 3B       		.uleb128 0x3b
 13436 025e 05       		.uleb128 0x5
 13437 025f 49       		.uleb128 0x49
 13438 0260 13       		.uleb128 0x13
 13439 0261 02       		.uleb128 0x2
 13440 0262 18       		.uleb128 0x18
 13441 0263 00       		.byte	0
 13442 0264 00       		.byte	0
 13443 0265 30       		.uleb128 0x30
 13444 0266 34       		.uleb128 0x34
 13445 0267 00       		.byte	0
 13446 0268 03       		.uleb128 0x3
 13447 0269 0E       		.uleb128 0xe
 13448 026a 3A       		.uleb128 0x3a
 13449 026b 0B       		.uleb128 0xb
 13450 026c 3B       		.uleb128 0x3b
 13451 026d 05       		.uleb128 0x5
 13452 026e 49       		.uleb128 0x49
 13453 026f 13       		.uleb128 0x13
 13454 0270 02       		.uleb128 0x2
ARM GAS  C:\Users\jo\AppData\Local\Temp\cc6wN9Ut.s 			page 239


 13455 0271 18       		.uleb128 0x18
 13456 0272 00       		.byte	0
 13457 0273 00       		.byte	0
 13458 0274 31       		.uleb128 0x31
 13459 0275 1D       		.uleb128 0x1d
 13460 0276 01       		.byte	0x1
 13461 0277 31       		.uleb128 0x31
 13462 0278 13       		.uleb128 0x13
 13463 0279 52       		.uleb128 0x52
 13464 027a 01       		.uleb128 0x1
 13465 027b 55       		.uleb128 0x55
 13466 027c 17       		.uleb128 0x17
 13467 027d 58       		.uleb128 0x58
 13468 027e 0B       		.uleb128 0xb
 13469 027f 59       		.uleb128 0x59
 13470 0280 05       		.uleb128 0x5
 13471 0281 01       		.uleb128 0x1
 13472 0282 13       		.uleb128 0x13
 13473 0283 00       		.byte	0
 13474 0284 00       		.byte	0
 13475 0285 32       		.uleb128 0x32
 13476 0286 05       		.uleb128 0x5
 13477 0287 00       		.byte	0
 13478 0288 31       		.uleb128 0x31
 13479 0289 13       		.uleb128 0x13
 13480 028a 02       		.uleb128 0x2
 13481 028b 17       		.uleb128 0x17
 13482 028c 00       		.byte	0
 13483 028d 00       		.byte	0
 13484 028e 33       		.uleb128 0x33
 13485 028f 0B       		.uleb128 0xb
 13486 0290 01       		.byte	0x1
 13487 0291 55       		.uleb128 0x55
 13488 0292 17       		.uleb128 0x17
 13489 0293 00       		.byte	0
 13490 0294 00       		.byte	0
 13491 0295 34       		.uleb128 0x34
 13492 0296 34       		.uleb128 0x34
 13493 0297 00       		.byte	0
 13494 0298 31       		.uleb128 0x31
 13495 0299 13       		.uleb128 0x13
 13496 029a 02       		.uleb128 0x2
 13497 029b 17       		.uleb128 0x17
 13498 029c 00       		.byte	0
 13499 029d 00       		.byte	0
 13500 029e 35       		.uleb128 0x35
 13501 029f 898201   		.uleb128 0x4109
 13502 02a2 01       		.byte	0x1
 13503 02a3 11       		.uleb128 0x11
 13504 02a4 01       		.uleb128 0x1
 13505 02a5 31       		.uleb128 0x31
 13506 02a6 13       		.uleb128 0x13
 13507 02a7 01       		.uleb128 0x1
 13508 02a8 13       		.uleb128 0x13
 13509 02a9 00       		.byte	0
 13510 02aa 00       		.byte	0
 13511 02ab 36       		.uleb128 0x36
ARM GAS  C:\Users\jo\AppData\Local\Temp\cc6wN9Ut.s 			page 240


 13512 02ac 8A8201   		.uleb128 0x410a
 13513 02af 00       		.byte	0
 13514 02b0 02       		.uleb128 0x2
 13515 02b1 18       		.uleb128 0x18
 13516 02b2 9142     		.uleb128 0x2111
 13517 02b4 18       		.uleb128 0x18
 13518 02b5 00       		.byte	0
 13519 02b6 00       		.byte	0
 13520 02b7 37       		.uleb128 0x37
 13521 02b8 898201   		.uleb128 0x4109
 13522 02bb 00       		.byte	0
 13523 02bc 11       		.uleb128 0x11
 13524 02bd 01       		.uleb128 0x1
 13525 02be 31       		.uleb128 0x31
 13526 02bf 13       		.uleb128 0x13
 13527 02c0 00       		.byte	0
 13528 02c1 00       		.byte	0
 13529 02c2 38       		.uleb128 0x38
 13530 02c3 898201   		.uleb128 0x4109
 13531 02c6 01       		.byte	0x1
 13532 02c7 11       		.uleb128 0x11
 13533 02c8 01       		.uleb128 0x1
 13534 02c9 31       		.uleb128 0x31
 13535 02ca 13       		.uleb128 0x13
 13536 02cb 00       		.byte	0
 13537 02cc 00       		.byte	0
 13538 02cd 39       		.uleb128 0x39
 13539 02ce 2E       		.uleb128 0x2e
 13540 02cf 01       		.byte	0x1
 13541 02d0 31       		.uleb128 0x31
 13542 02d1 13       		.uleb128 0x13
 13543 02d2 11       		.uleb128 0x11
 13544 02d3 01       		.uleb128 0x1
 13545 02d4 12       		.uleb128 0x12
 13546 02d5 06       		.uleb128 0x6
 13547 02d6 40       		.uleb128 0x40
 13548 02d7 18       		.uleb128 0x18
 13549 02d8 9742     		.uleb128 0x2117
 13550 02da 19       		.uleb128 0x19
 13551 02db 01       		.uleb128 0x1
 13552 02dc 13       		.uleb128 0x13
 13553 02dd 00       		.byte	0
 13554 02de 00       		.byte	0
 13555 02df 3A       		.uleb128 0x3a
 13556 02e0 05       		.uleb128 0x5
 13557 02e1 00       		.byte	0
 13558 02e2 31       		.uleb128 0x31
 13559 02e3 13       		.uleb128 0x13
 13560 02e4 02       		.uleb128 0x2
 13561 02e5 18       		.uleb128 0x18
 13562 02e6 00       		.byte	0
 13563 02e7 00       		.byte	0
 13564 02e8 3B       		.uleb128 0x3b
 13565 02e9 34       		.uleb128 0x34
 13566 02ea 00       		.byte	0
 13567 02eb 31       		.uleb128 0x31
 13568 02ec 13       		.uleb128 0x13
ARM GAS  C:\Users\jo\AppData\Local\Temp\cc6wN9Ut.s 			page 241


 13569 02ed 02       		.uleb128 0x2
 13570 02ee 18       		.uleb128 0x18
 13571 02ef 00       		.byte	0
 13572 02f0 00       		.byte	0
 13573 02f1 3C       		.uleb128 0x3c
 13574 02f2 05       		.uleb128 0x5
 13575 02f3 00       		.byte	0
 13576 02f4 31       		.uleb128 0x31
 13577 02f5 13       		.uleb128 0x13
 13578 02f6 00       		.byte	0
 13579 02f7 00       		.byte	0
 13580 02f8 3D       		.uleb128 0x3d
 13581 02f9 2E       		.uleb128 0x2e
 13582 02fa 01       		.byte	0x1
 13583 02fb 03       		.uleb128 0x3
 13584 02fc 0E       		.uleb128 0xe
 13585 02fd 3A       		.uleb128 0x3a
 13586 02fe 0B       		.uleb128 0xb
 13587 02ff 3B       		.uleb128 0x3b
 13588 0300 05       		.uleb128 0x5
 13589 0301 27       		.uleb128 0x27
 13590 0302 19       		.uleb128 0x19
 13591 0303 11       		.uleb128 0x11
 13592 0304 01       		.uleb128 0x1
 13593 0305 12       		.uleb128 0x12
 13594 0306 06       		.uleb128 0x6
 13595 0307 40       		.uleb128 0x40
 13596 0308 18       		.uleb128 0x18
 13597 0309 9742     		.uleb128 0x2117
 13598 030b 19       		.uleb128 0x19
 13599 030c 01       		.uleb128 0x1
 13600 030d 13       		.uleb128 0x13
 13601 030e 00       		.byte	0
 13602 030f 00       		.byte	0
 13603 0310 3E       		.uleb128 0x3e
 13604 0311 34       		.uleb128 0x34
 13605 0312 00       		.byte	0
 13606 0313 03       		.uleb128 0x3
 13607 0314 0E       		.uleb128 0xe
 13608 0315 3A       		.uleb128 0x3a
 13609 0316 0B       		.uleb128 0xb
 13610 0317 3B       		.uleb128 0x3b
 13611 0318 05       		.uleb128 0x5
 13612 0319 49       		.uleb128 0x49
 13613 031a 13       		.uleb128 0x13
 13614 031b 02       		.uleb128 0x2
 13615 031c 17       		.uleb128 0x17
 13616 031d 00       		.byte	0
 13617 031e 00       		.byte	0
 13618 031f 3F       		.uleb128 0x3f
 13619 0320 34       		.uleb128 0x34
 13620 0321 00       		.byte	0
 13621 0322 03       		.uleb128 0x3
 13622 0323 08       		.uleb128 0x8
 13623 0324 3A       		.uleb128 0x3a
 13624 0325 0B       		.uleb128 0xb
 13625 0326 3B       		.uleb128 0x3b
ARM GAS  C:\Users\jo\AppData\Local\Temp\cc6wN9Ut.s 			page 242


 13626 0327 05       		.uleb128 0x5
 13627 0328 49       		.uleb128 0x49
 13628 0329 13       		.uleb128 0x13
 13629 032a 02       		.uleb128 0x2
 13630 032b 17       		.uleb128 0x17
 13631 032c 00       		.byte	0
 13632 032d 00       		.byte	0
 13633 032e 40       		.uleb128 0x40
 13634 032f 1D       		.uleb128 0x1d
 13635 0330 01       		.byte	0x1
 13636 0331 31       		.uleb128 0x31
 13637 0332 13       		.uleb128 0x13
 13638 0333 11       		.uleb128 0x11
 13639 0334 01       		.uleb128 0x1
 13640 0335 12       		.uleb128 0x12
 13641 0336 06       		.uleb128 0x6
 13642 0337 58       		.uleb128 0x58
 13643 0338 0B       		.uleb128 0xb
 13644 0339 59       		.uleb128 0x59
 13645 033a 05       		.uleb128 0x5
 13646 033b 01       		.uleb128 0x1
 13647 033c 13       		.uleb128 0x13
 13648 033d 00       		.byte	0
 13649 033e 00       		.byte	0
 13650 033f 41       		.uleb128 0x41
 13651 0340 898201   		.uleb128 0x4109
 13652 0343 00       		.byte	0
 13653 0344 11       		.uleb128 0x11
 13654 0345 01       		.uleb128 0x1
 13655 0346 9542     		.uleb128 0x2115
 13656 0348 19       		.uleb128 0x19
 13657 0349 31       		.uleb128 0x31
 13658 034a 13       		.uleb128 0x13
 13659 034b 00       		.byte	0
 13660 034c 00       		.byte	0
 13661 034d 42       		.uleb128 0x42
 13662 034e 05       		.uleb128 0x5
 13663 034f 00       		.byte	0
 13664 0350 03       		.uleb128 0x3
 13665 0351 0E       		.uleb128 0xe
 13666 0352 3A       		.uleb128 0x3a
 13667 0353 0B       		.uleb128 0xb
 13668 0354 3B       		.uleb128 0x3b
 13669 0355 05       		.uleb128 0x5
 13670 0356 49       		.uleb128 0x49
 13671 0357 13       		.uleb128 0x13
 13672 0358 02       		.uleb128 0x2
 13673 0359 18       		.uleb128 0x18
 13674 035a 00       		.byte	0
 13675 035b 00       		.byte	0
 13676 035c 43       		.uleb128 0x43
 13677 035d 0B       		.uleb128 0xb
 13678 035e 01       		.byte	0x1
 13679 035f 11       		.uleb128 0x11
 13680 0360 01       		.uleb128 0x1
 13681 0361 12       		.uleb128 0x12
 13682 0362 06       		.uleb128 0x6
ARM GAS  C:\Users\jo\AppData\Local\Temp\cc6wN9Ut.s 			page 243


 13683 0363 01       		.uleb128 0x1
 13684 0364 13       		.uleb128 0x13
 13685 0365 00       		.byte	0
 13686 0366 00       		.byte	0
 13687 0367 44       		.uleb128 0x44
 13688 0368 1D       		.uleb128 0x1d
 13689 0369 01       		.byte	0x1
 13690 036a 31       		.uleb128 0x31
 13691 036b 13       		.uleb128 0x13
 13692 036c 52       		.uleb128 0x52
 13693 036d 01       		.uleb128 0x1
 13694 036e 55       		.uleb128 0x55
 13695 036f 17       		.uleb128 0x17
 13696 0370 58       		.uleb128 0x58
 13697 0371 0B       		.uleb128 0xb
 13698 0372 59       		.uleb128 0x59
 13699 0373 05       		.uleb128 0x5
 13700 0374 00       		.byte	0
 13701 0375 00       		.byte	0
 13702 0376 45       		.uleb128 0x45
 13703 0377 0A       		.uleb128 0xa
 13704 0378 00       		.byte	0
 13705 0379 03       		.uleb128 0x3
 13706 037a 0E       		.uleb128 0xe
 13707 037b 3A       		.uleb128 0x3a
 13708 037c 0B       		.uleb128 0xb
 13709 037d 3B       		.uleb128 0x3b
 13710 037e 05       		.uleb128 0x5
 13711 037f 00       		.byte	0
 13712 0380 00       		.byte	0
 13713 0381 46       		.uleb128 0x46
 13714 0382 0B       		.uleb128 0xb
 13715 0383 01       		.byte	0x1
 13716 0384 55       		.uleb128 0x55
 13717 0385 17       		.uleb128 0x17
 13718 0386 01       		.uleb128 0x1
 13719 0387 13       		.uleb128 0x13
 13720 0388 00       		.byte	0
 13721 0389 00       		.byte	0
 13722 038a 47       		.uleb128 0x47
 13723 038b 2E       		.uleb128 0x2e
 13724 038c 00       		.byte	0
 13725 038d 3F       		.uleb128 0x3f
 13726 038e 19       		.uleb128 0x19
 13727 038f 03       		.uleb128 0x3
 13728 0390 0E       		.uleb128 0xe
 13729 0391 3A       		.uleb128 0x3a
 13730 0392 0B       		.uleb128 0xb
 13731 0393 3B       		.uleb128 0x3b
 13732 0394 0B       		.uleb128 0xb
 13733 0395 27       		.uleb128 0x27
 13734 0396 19       		.uleb128 0x19
 13735 0397 11       		.uleb128 0x11
 13736 0398 01       		.uleb128 0x1
 13737 0399 12       		.uleb128 0x12
 13738 039a 06       		.uleb128 0x6
 13739 039b 40       		.uleb128 0x40
ARM GAS  C:\Users\jo\AppData\Local\Temp\cc6wN9Ut.s 			page 244


 13740 039c 18       		.uleb128 0x18
 13741 039d 9742     		.uleb128 0x2117
 13742 039f 19       		.uleb128 0x19
 13743 03a0 00       		.byte	0
 13744 03a1 00       		.byte	0
 13745 03a2 48       		.uleb128 0x48
 13746 03a3 2E       		.uleb128 0x2e
 13747 03a4 01       		.byte	0x1
 13748 03a5 3F       		.uleb128 0x3f
 13749 03a6 19       		.uleb128 0x19
 13750 03a7 03       		.uleb128 0x3
 13751 03a8 0E       		.uleb128 0xe
 13752 03a9 3A       		.uleb128 0x3a
 13753 03aa 0B       		.uleb128 0xb
 13754 03ab 3B       		.uleb128 0x3b
 13755 03ac 05       		.uleb128 0x5
 13756 03ad 27       		.uleb128 0x27
 13757 03ae 19       		.uleb128 0x19
 13758 03af 49       		.uleb128 0x49
 13759 03b0 13       		.uleb128 0x13
 13760 03b1 11       		.uleb128 0x11
 13761 03b2 01       		.uleb128 0x1
 13762 03b3 12       		.uleb128 0x12
 13763 03b4 06       		.uleb128 0x6
 13764 03b5 40       		.uleb128 0x40
 13765 03b6 18       		.uleb128 0x18
 13766 03b7 9742     		.uleb128 0x2117
 13767 03b9 19       		.uleb128 0x19
 13768 03ba 01       		.uleb128 0x1
 13769 03bb 13       		.uleb128 0x13
 13770 03bc 00       		.byte	0
 13771 03bd 00       		.byte	0
 13772 03be 49       		.uleb128 0x49
 13773 03bf 898201   		.uleb128 0x4109
 13774 03c2 01       		.byte	0x1
 13775 03c3 11       		.uleb128 0x11
 13776 03c4 01       		.uleb128 0x1
 13777 03c5 9542     		.uleb128 0x2115
 13778 03c7 19       		.uleb128 0x19
 13779 03c8 31       		.uleb128 0x31
 13780 03c9 13       		.uleb128 0x13
 13781 03ca 00       		.byte	0
 13782 03cb 00       		.byte	0
 13783 03cc 4A       		.uleb128 0x4a
 13784 03cd 0A       		.uleb128 0xa
 13785 03ce 00       		.byte	0
 13786 03cf 03       		.uleb128 0x3
 13787 03d0 0E       		.uleb128 0xe
 13788 03d1 3A       		.uleb128 0x3a
 13789 03d2 0B       		.uleb128 0xb
 13790 03d3 3B       		.uleb128 0x3b
 13791 03d4 05       		.uleb128 0x5
 13792 03d5 11       		.uleb128 0x11
 13793 03d6 01       		.uleb128 0x1
 13794 03d7 00       		.byte	0
 13795 03d8 00       		.byte	0
 13796 03d9 4B       		.uleb128 0x4b
ARM GAS  C:\Users\jo\AppData\Local\Temp\cc6wN9Ut.s 			page 245


 13797 03da 05       		.uleb128 0x5
 13798 03db 00       		.byte	0
 13799 03dc 03       		.uleb128 0x3
 13800 03dd 08       		.uleb128 0x8
 13801 03de 3A       		.uleb128 0x3a
 13802 03df 0B       		.uleb128 0xb
 13803 03e0 3B       		.uleb128 0x3b
 13804 03e1 05       		.uleb128 0x5
 13805 03e2 49       		.uleb128 0x49
 13806 03e3 13       		.uleb128 0x13
 13807 03e4 02       		.uleb128 0x2
 13808 03e5 18       		.uleb128 0x18
 13809 03e6 00       		.byte	0
 13810 03e7 00       		.byte	0
 13811 03e8 4C       		.uleb128 0x4c
 13812 03e9 34       		.uleb128 0x34
 13813 03ea 00       		.byte	0
 13814 03eb 03       		.uleb128 0x3
 13815 03ec 0E       		.uleb128 0xe
 13816 03ed 3A       		.uleb128 0x3a
 13817 03ee 0B       		.uleb128 0xb
 13818 03ef 3B       		.uleb128 0x3b
 13819 03f0 0B       		.uleb128 0xb
 13820 03f1 49       		.uleb128 0x49
 13821 03f2 13       		.uleb128 0x13
 13822 03f3 02       		.uleb128 0x2
 13823 03f4 18       		.uleb128 0x18
 13824 03f5 00       		.byte	0
 13825 03f6 00       		.byte	0
 13826 03f7 4D       		.uleb128 0x4d
 13827 03f8 34       		.uleb128 0x34
 13828 03f9 00       		.byte	0
 13829 03fa 03       		.uleb128 0x3
 13830 03fb 0E       		.uleb128 0xe
 13831 03fc 3A       		.uleb128 0x3a
 13832 03fd 0B       		.uleb128 0xb
 13833 03fe 3B       		.uleb128 0x3b
 13834 03ff 05       		.uleb128 0x5
 13835 0400 49       		.uleb128 0x49
 13836 0401 13       		.uleb128 0x13
 13837 0402 3F       		.uleb128 0x3f
 13838 0403 19       		.uleb128 0x19
 13839 0404 3C       		.uleb128 0x3c
 13840 0405 19       		.uleb128 0x19
 13841 0406 00       		.byte	0
 13842 0407 00       		.byte	0
 13843 0408 4E       		.uleb128 0x4e
 13844 0409 34       		.uleb128 0x34
 13845 040a 00       		.byte	0
 13846 040b 03       		.uleb128 0x3
 13847 040c 08       		.uleb128 0x8
 13848 040d 3A       		.uleb128 0x3a
 13849 040e 0B       		.uleb128 0xb
 13850 040f 3B       		.uleb128 0x3b
 13851 0410 05       		.uleb128 0x5
 13852 0411 49       		.uleb128 0x49
 13853 0412 13       		.uleb128 0x13
ARM GAS  C:\Users\jo\AppData\Local\Temp\cc6wN9Ut.s 			page 246


 13854 0413 3F       		.uleb128 0x3f
 13855 0414 19       		.uleb128 0x19
 13856 0415 3C       		.uleb128 0x3c
 13857 0416 19       		.uleb128 0x19
 13858 0417 00       		.byte	0
 13859 0418 00       		.byte	0
 13860 0419 4F       		.uleb128 0x4f
 13861 041a 34       		.uleb128 0x34
 13862 041b 00       		.byte	0
 13863 041c 03       		.uleb128 0x3
 13864 041d 0E       		.uleb128 0xe
 13865 041e 3A       		.uleb128 0x3a
 13866 041f 0B       		.uleb128 0xb
 13867 0420 3B       		.uleb128 0x3b
 13868 0421 0B       		.uleb128 0xb
 13869 0422 49       		.uleb128 0x49
 13870 0423 13       		.uleb128 0x13
 13871 0424 3F       		.uleb128 0x3f
 13872 0425 19       		.uleb128 0x19
 13873 0426 3C       		.uleb128 0x3c
 13874 0427 19       		.uleb128 0x19
 13875 0428 00       		.byte	0
 13876 0429 00       		.byte	0
 13877 042a 50       		.uleb128 0x50
 13878 042b 2E       		.uleb128 0x2e
 13879 042c 01       		.byte	0x1
 13880 042d 3F       		.uleb128 0x3f
 13881 042e 19       		.uleb128 0x19
 13882 042f 03       		.uleb128 0x3
 13883 0430 0E       		.uleb128 0xe
 13884 0431 3A       		.uleb128 0x3a
 13885 0432 0B       		.uleb128 0xb
 13886 0433 3B       		.uleb128 0x3b
 13887 0434 0B       		.uleb128 0xb
 13888 0435 27       		.uleb128 0x27
 13889 0436 19       		.uleb128 0x19
 13890 0437 49       		.uleb128 0x49
 13891 0438 13       		.uleb128 0x13
 13892 0439 3C       		.uleb128 0x3c
 13893 043a 19       		.uleb128 0x19
 13894 043b 01       		.uleb128 0x1
 13895 043c 13       		.uleb128 0x13
 13896 043d 00       		.byte	0
 13897 043e 00       		.byte	0
 13898 043f 51       		.uleb128 0x51
 13899 0440 2E       		.uleb128 0x2e
 13900 0441 01       		.byte	0x1
 13901 0442 3F       		.uleb128 0x3f
 13902 0443 19       		.uleb128 0x19
 13903 0444 03       		.uleb128 0x3
 13904 0445 0E       		.uleb128 0xe
 13905 0446 27       		.uleb128 0x27
 13906 0447 19       		.uleb128 0x19
 13907 0448 49       		.uleb128 0x49
 13908 0449 13       		.uleb128 0x13
 13909 044a 34       		.uleb128 0x34
 13910 044b 19       		.uleb128 0x19
ARM GAS  C:\Users\jo\AppData\Local\Temp\cc6wN9Ut.s 			page 247


 13911 044c 3C       		.uleb128 0x3c
 13912 044d 19       		.uleb128 0x19
 13913 044e 01       		.uleb128 0x1
 13914 044f 13       		.uleb128 0x13
 13915 0450 00       		.byte	0
 13916 0451 00       		.byte	0
 13917 0452 52       		.uleb128 0x52
 13918 0453 2E       		.uleb128 0x2e
 13919 0454 01       		.byte	0x1
 13920 0455 3F       		.uleb128 0x3f
 13921 0456 19       		.uleb128 0x19
 13922 0457 03       		.uleb128 0x3
 13923 0458 0E       		.uleb128 0xe
 13924 0459 3A       		.uleb128 0x3a
 13925 045a 0B       		.uleb128 0xb
 13926 045b 3B       		.uleb128 0x3b
 13927 045c 05       		.uleb128 0x5
 13928 045d 27       		.uleb128 0x27
 13929 045e 19       		.uleb128 0x19
 13930 045f 3C       		.uleb128 0x3c
 13931 0460 19       		.uleb128 0x19
 13932 0461 01       		.uleb128 0x1
 13933 0462 13       		.uleb128 0x13
 13934 0463 00       		.byte	0
 13935 0464 00       		.byte	0
 13936 0465 53       		.uleb128 0x53
 13937 0466 2E       		.uleb128 0x2e
 13938 0467 01       		.byte	0x1
 13939 0468 3F       		.uleb128 0x3f
 13940 0469 19       		.uleb128 0x19
 13941 046a 03       		.uleb128 0x3
 13942 046b 0E       		.uleb128 0xe
 13943 046c 3A       		.uleb128 0x3a
 13944 046d 0B       		.uleb128 0xb
 13945 046e 3B       		.uleb128 0x3b
 13946 046f 0B       		.uleb128 0xb
 13947 0470 27       		.uleb128 0x27
 13948 0471 19       		.uleb128 0x19
 13949 0472 3C       		.uleb128 0x3c
 13950 0473 19       		.uleb128 0x19
 13951 0474 01       		.uleb128 0x1
 13952 0475 13       		.uleb128 0x13
 13953 0476 00       		.byte	0
 13954 0477 00       		.byte	0
 13955 0478 54       		.uleb128 0x54
 13956 0479 2E       		.uleb128 0x2e
 13957 047a 01       		.byte	0x1
 13958 047b 3F       		.uleb128 0x3f
 13959 047c 19       		.uleb128 0x19
 13960 047d 03       		.uleb128 0x3
 13961 047e 0E       		.uleb128 0xe
 13962 047f 3A       		.uleb128 0x3a
 13963 0480 0B       		.uleb128 0xb
 13964 0481 3B       		.uleb128 0x3b
 13965 0482 0B       		.uleb128 0xb
 13966 0483 27       		.uleb128 0x27
 13967 0484 19       		.uleb128 0x19
ARM GAS  C:\Users\jo\AppData\Local\Temp\cc6wN9Ut.s 			page 248


 13968 0485 49       		.uleb128 0x49
 13969 0486 13       		.uleb128 0x13
 13970 0487 3C       		.uleb128 0x3c
 13971 0488 19       		.uleb128 0x19
 13972 0489 00       		.byte	0
 13973 048a 00       		.byte	0
 13974 048b 00       		.byte	0
 13975              		.section	.debug_loc,"",%progbits
 13976              	.Ldebug_loc0:
 13977              	.LLST0:
 13978 0000 00000000 		.4byte	.LVL0
 13979 0004 10000000 		.4byte	.LVL2
 13980 0008 0100     		.2byte	0x1
 13981 000a 50       		.byte	0x50
 13982 000b 10000000 		.4byte	.LVL2
 13983 000f 14000000 		.4byte	.LVL3
 13984 0013 0400     		.2byte	0x4
 13985 0015 F3       		.byte	0xf3
 13986 0016 01       		.uleb128 0x1
 13987 0017 50       		.byte	0x50
 13988 0018 9F       		.byte	0x9f
 13989 0019 14000000 		.4byte	.LVL3
 13990 001d 28000000 		.4byte	.LVL5
 13991 0021 0100     		.2byte	0x1
 13992 0023 50       		.byte	0x50
 13993 0024 28000000 		.4byte	.LVL5
 13994 0028 54000000 		.4byte	.LFE263
 13995 002c 0200     		.2byte	0x2
 13996 002e 76       		.byte	0x76
 13997 002f 00       		.sleb128 0
 13998 0030 00000000 		.4byte	0
 13999 0034 00000000 		.4byte	0
 14000              	.LLST1:
 14001 0038 00000000 		.4byte	.LVL0
 14002 003c 10000000 		.4byte	.LVL2
 14003 0040 0100     		.2byte	0x1
 14004 0042 51       		.byte	0x51
 14005 0043 10000000 		.4byte	.LVL2
 14006 0047 14000000 		.4byte	.LVL3
 14007 004b 0400     		.2byte	0x4
 14008 004d F3       		.byte	0xf3
 14009 004e 01       		.uleb128 0x1
 14010 004f 51       		.byte	0x51
 14011 0050 9F       		.byte	0x9f
 14012 0051 14000000 		.4byte	.LVL3
 14013 0055 32000000 		.4byte	.LVL6
 14014 0059 0100     		.2byte	0x1
 14015 005b 51       		.byte	0x51
 14016 005c 32000000 		.4byte	.LVL6
 14017 0060 46000000 		.4byte	.LVL7
 14018 0064 0400     		.2byte	0x4
 14019 0066 F3       		.byte	0xf3
 14020 0067 01       		.uleb128 0x1
 14021 0068 51       		.byte	0x51
 14022 0069 9F       		.byte	0x9f
 14023 006a 46000000 		.4byte	.LVL7
 14024 006e 48000000 		.4byte	.LVL8
ARM GAS  C:\Users\jo\AppData\Local\Temp\cc6wN9Ut.s 			page 249


 14025 0072 0100     		.2byte	0x1
 14026 0074 51       		.byte	0x51
 14027 0075 48000000 		.4byte	.LVL8
 14028 0079 54000000 		.4byte	.LFE263
 14029 007d 0400     		.2byte	0x4
 14030 007f F3       		.byte	0xf3
 14031 0080 01       		.uleb128 0x1
 14032 0081 51       		.byte	0x51
 14033 0082 9F       		.byte	0x9f
 14034 0083 00000000 		.4byte	0
 14035 0087 00000000 		.4byte	0
 14036              	.LLST2:
 14037 008b 00000000 		.4byte	.LVL0
 14038 008f 08000000 		.4byte	.LVL1
 14039 0093 0200     		.2byte	0x2
 14040 0095 30       		.byte	0x30
 14041 0096 9F       		.byte	0x9f
 14042 0097 08000000 		.4byte	.LVL1
 14043 009b 10000000 		.4byte	.LVL2
 14044 009f 0200     		.2byte	0x2
 14045 00a1 31       		.byte	0x31
 14046 00a2 9F       		.byte	0x9f
 14047 00a3 14000000 		.4byte	.LVL3
 14048 00a7 16000000 		.4byte	.LVL4
 14049 00ab 0200     		.2byte	0x2
 14050 00ad 31       		.byte	0x31
 14051 00ae 9F       		.byte	0x9f
 14052 00af 00000000 		.4byte	0
 14053 00b3 00000000 		.4byte	0
 14054              	.LLST3:
 14055 00b7 00000000 		.4byte	.LVL9
 14056 00bb 08000000 		.4byte	.LVL10
 14057 00bf 0100     		.2byte	0x1
 14058 00c1 50       		.byte	0x50
 14059 00c2 08000000 		.4byte	.LVL10
 14060 00c6 0A000000 		.4byte	.LVL11
 14061 00ca 0400     		.2byte	0x4
 14062 00cc F3       		.byte	0xf3
 14063 00cd 01       		.uleb128 0x1
 14064 00ce 50       		.byte	0x50
 14065 00cf 9F       		.byte	0x9f
 14066 00d0 0A000000 		.4byte	.LVL11
 14067 00d4 36000000 		.4byte	.LVL14
 14068 00d8 0100     		.2byte	0x1
 14069 00da 50       		.byte	0x50
 14070 00db 36000000 		.4byte	.LVL14
 14071 00df 80000000 		.4byte	.LVL18
 14072 00e3 0100     		.2byte	0x1
 14073 00e5 54       		.byte	0x54
 14074 00e6 80000000 		.4byte	.LVL18
 14075 00ea 86000000 		.4byte	.LVL19
 14076 00ee 0400     		.2byte	0x4
 14077 00f0 F3       		.byte	0xf3
 14078 00f1 01       		.uleb128 0x1
 14079 00f2 50       		.byte	0x50
 14080 00f3 9F       		.byte	0x9f
 14081 00f4 86000000 		.4byte	.LVL19
ARM GAS  C:\Users\jo\AppData\Local\Temp\cc6wN9Ut.s 			page 250


 14082 00f8 8E000000 		.4byte	.LVL20
 14083 00fc 0100     		.2byte	0x1
 14084 00fe 54       		.byte	0x54
 14085 00ff 8E000000 		.4byte	.LVL20
 14086 0103 92000000 		.4byte	.LVL21
 14087 0107 0100     		.2byte	0x1
 14088 0109 50       		.byte	0x50
 14089 010a 92000000 		.4byte	.LVL21
 14090 010e 98000000 		.4byte	.LFE281
 14091 0112 0400     		.2byte	0x4
 14092 0114 F3       		.byte	0xf3
 14093 0115 01       		.uleb128 0x1
 14094 0116 50       		.byte	0x50
 14095 0117 9F       		.byte	0x9f
 14096 0118 00000000 		.4byte	0
 14097 011c 00000000 		.4byte	0
 14098              	.LLST4:
 14099 0120 00000000 		.4byte	.LVL9
 14100 0124 32000000 		.4byte	.LVL13
 14101 0128 0100     		.2byte	0x1
 14102 012a 51       		.byte	0x51
 14103 012b 32000000 		.4byte	.LVL13
 14104 012f 80000000 		.4byte	.LVL18
 14105 0133 0100     		.2byte	0x1
 14106 0135 56       		.byte	0x56
 14107 0136 80000000 		.4byte	.LVL18
 14108 013a 86000000 		.4byte	.LVL19
 14109 013e 0400     		.2byte	0x4
 14110 0140 F3       		.byte	0xf3
 14111 0141 01       		.uleb128 0x1
 14112 0142 51       		.byte	0x51
 14113 0143 9F       		.byte	0x9f
 14114 0144 86000000 		.4byte	.LVL19
 14115 0148 8E000000 		.4byte	.LVL20
 14116 014c 0100     		.2byte	0x1
 14117 014e 56       		.byte	0x56
 14118 014f 8E000000 		.4byte	.LVL20
 14119 0153 98000000 		.4byte	.LFE281
 14120 0157 0100     		.2byte	0x1
 14121 0159 51       		.byte	0x51
 14122 015a 00000000 		.4byte	0
 14123 015e 00000000 		.4byte	0
 14124              	.LLST5:
 14125 0162 00000000 		.4byte	.LVL9
 14126 0166 30000000 		.4byte	.LVL12
 14127 016a 0100     		.2byte	0x1
 14128 016c 52       		.byte	0x52
 14129 016d 30000000 		.4byte	.LVL12
 14130 0171 80000000 		.4byte	.LVL18
 14131 0175 0100     		.2byte	0x1
 14132 0177 59       		.byte	0x59
 14133 0178 80000000 		.4byte	.LVL18
 14134 017c 86000000 		.4byte	.LVL19
 14135 0180 0400     		.2byte	0x4
 14136 0182 F3       		.byte	0xf3
 14137 0183 01       		.uleb128 0x1
 14138 0184 52       		.byte	0x52
ARM GAS  C:\Users\jo\AppData\Local\Temp\cc6wN9Ut.s 			page 251


 14139 0185 9F       		.byte	0x9f
 14140 0186 86000000 		.4byte	.LVL19
 14141 018a 8E000000 		.4byte	.LVL20
 14142 018e 0100     		.2byte	0x1
 14143 0190 59       		.byte	0x59
 14144 0191 8E000000 		.4byte	.LVL20
 14145 0195 98000000 		.4byte	.LFE281
 14146 0199 0100     		.2byte	0x1
 14147 019b 52       		.byte	0x52
 14148 019c 00000000 		.4byte	0
 14149 01a0 00000000 		.4byte	0
 14150              	.LLST6:
 14151 01a4 00000000 		.4byte	.LVL9
 14152 01a8 53000000 		.4byte	.LVL15-1
 14153 01ac 0100     		.2byte	0x1
 14154 01ae 53       		.byte	0x53
 14155 01af 53000000 		.4byte	.LVL15-1
 14156 01b3 8E000000 		.4byte	.LVL20
 14157 01b7 0400     		.2byte	0x4
 14158 01b9 F3       		.byte	0xf3
 14159 01ba 01       		.uleb128 0x1
 14160 01bb 53       		.byte	0x53
 14161 01bc 9F       		.byte	0x9f
 14162 01bd 8E000000 		.4byte	.LVL20
 14163 01c1 98000000 		.4byte	.LFE281
 14164 01c5 0100     		.2byte	0x1
 14165 01c7 53       		.byte	0x53
 14166 01c8 00000000 		.4byte	0
 14167 01cc 00000000 		.4byte	0
 14168              	.LLST8:
 14169 01d0 0A000000 		.4byte	.LVL11
 14170 01d4 36000000 		.4byte	.LVL14
 14171 01d8 0B00     		.2byte	0xb
 14172 01da 70       		.byte	0x70
 14173 01db 00       		.sleb128 0
 14174 01dc 48       		.byte	0x48
 14175 01dd 1E       		.byte	0x1e
 14176 01de 03       		.byte	0x3
 14177 01df 00000000 		.4byte	sockets
 14178 01e3 22       		.byte	0x22
 14179 01e4 9F       		.byte	0x9f
 14180 01e5 36000000 		.4byte	.LVL14
 14181 01e9 80000000 		.4byte	.LVL18
 14182 01ed 0B00     		.2byte	0xb
 14183 01ef 74       		.byte	0x74
 14184 01f0 00       		.sleb128 0
 14185 01f1 48       		.byte	0x48
 14186 01f2 1E       		.byte	0x1e
 14187 01f3 03       		.byte	0x3
 14188 01f4 00000000 		.4byte	sockets
 14189 01f8 22       		.byte	0x22
 14190 01f9 9F       		.byte	0x9f
 14191 01fa 80000000 		.4byte	.LVL18
 14192 01fe 86000000 		.4byte	.LVL19
 14193 0202 0C00     		.2byte	0xc
 14194 0204 F3       		.byte	0xf3
 14195 0205 01       		.uleb128 0x1
ARM GAS  C:\Users\jo\AppData\Local\Temp\cc6wN9Ut.s 			page 252


 14196 0206 50       		.byte	0x50
 14197 0207 48       		.byte	0x48
 14198 0208 1E       		.byte	0x1e
 14199 0209 03       		.byte	0x3
 14200 020a 00000000 		.4byte	sockets
 14201 020e 22       		.byte	0x22
 14202 020f 9F       		.byte	0x9f
 14203 0210 86000000 		.4byte	.LVL19
 14204 0214 8E000000 		.4byte	.LVL20
 14205 0218 0B00     		.2byte	0xb
 14206 021a 74       		.byte	0x74
 14207 021b 00       		.sleb128 0
 14208 021c 48       		.byte	0x48
 14209 021d 1E       		.byte	0x1e
 14210 021e 03       		.byte	0x3
 14211 021f 00000000 		.4byte	sockets
 14212 0223 22       		.byte	0x22
 14213 0224 9F       		.byte	0x9f
 14214 0225 8E000000 		.4byte	.LVL20
 14215 0229 92000000 		.4byte	.LVL21
 14216 022d 0B00     		.2byte	0xb
 14217 022f 70       		.byte	0x70
 14218 0230 00       		.sleb128 0
 14219 0231 48       		.byte	0x48
 14220 0232 1E       		.byte	0x1e
 14221 0233 03       		.byte	0x3
 14222 0234 00000000 		.4byte	sockets
 14223 0238 22       		.byte	0x22
 14224 0239 9F       		.byte	0x9f
 14225 023a 92000000 		.4byte	.LVL21
 14226 023e 98000000 		.4byte	.LFE281
 14227 0242 0C00     		.2byte	0xc
 14228 0244 F3       		.byte	0xf3
 14229 0245 01       		.uleb128 0x1
 14230 0246 50       		.byte	0x50
 14231 0247 48       		.byte	0x48
 14232 0248 1E       		.byte	0x1e
 14233 0249 03       		.byte	0x3
 14234 024a 00000000 		.4byte	sockets
 14235 024e 22       		.byte	0x22
 14236 024f 9F       		.byte	0x9f
 14237 0250 00000000 		.4byte	0
 14238 0254 00000000 		.4byte	0
 14239              	.LLST9:
 14240 0258 00000000 		.4byte	.LVL22
 14241 025c 0E000000 		.4byte	.LVL23
 14242 0260 0100     		.2byte	0x1
 14243 0262 50       		.byte	0x50
 14244 0263 0E000000 		.4byte	.LVL23
 14245 0267 28000000 		.4byte	.LFE290
 14246 026b 0400     		.2byte	0x4
 14247 026d F3       		.byte	0xf3
 14248 026e 01       		.uleb128 0x1
 14249 026f 50       		.byte	0x50
 14250 0270 9F       		.byte	0x9f
 14251 0271 00000000 		.4byte	0
 14252 0275 00000000 		.4byte	0
ARM GAS  C:\Users\jo\AppData\Local\Temp\cc6wN9Ut.s 			page 253


 14253              	.LLST10:
 14254 0279 00000000 		.4byte	.LVL25
 14255 027d 0C000000 		.4byte	.LVL26
 14256 0281 0100     		.2byte	0x1
 14257 0283 50       		.byte	0x50
 14258 0284 0C000000 		.4byte	.LVL26
 14259 0288 14000000 		.4byte	.LVL29
 14260 028c 0100     		.2byte	0x1
 14261 028e 54       		.byte	0x54
 14262 028f 14000000 		.4byte	.LVL29
 14263 0293 1E010000 		.4byte	.LVL77
 14264 0297 0400     		.2byte	0x4
 14265 0299 F3       		.byte	0xf3
 14266 029a 01       		.uleb128 0x1
 14267 029b 50       		.byte	0x50
 14268 029c 9F       		.byte	0x9f
 14269 029d 1E010000 		.4byte	.LVL77
 14270 02a1 28010000 		.4byte	.LVL78
 14271 02a5 0100     		.2byte	0x1
 14272 02a7 50       		.byte	0x50
 14273 02a8 28010000 		.4byte	.LVL78
 14274 02ac 38010000 		.4byte	.LVL81
 14275 02b0 0100     		.2byte	0x1
 14276 02b2 54       		.byte	0x54
 14277 02b3 38010000 		.4byte	.LVL81
 14278 02b7 80010000 		.4byte	.LFE287
 14279 02bb 0400     		.2byte	0x4
 14280 02bd F3       		.byte	0xf3
 14281 02be 01       		.uleb128 0x1
 14282 02bf 50       		.byte	0x50
 14283 02c0 9F       		.byte	0x9f
 14284 02c1 00000000 		.4byte	0
 14285 02c5 00000000 		.4byte	0
 14286              	.LLST11:
 14287 02c9 10000000 		.4byte	.LVL27
 14288 02cd 44000000 		.4byte	.LVL36
 14289 02d1 0100     		.2byte	0x1
 14290 02d3 55       		.byte	0x55
 14291 02d4 48000000 		.4byte	.LVL37
 14292 02d8 1E010000 		.4byte	.LVL77
 14293 02dc 0100     		.2byte	0x1
 14294 02de 55       		.byte	0x55
 14295 02df 38010000 		.4byte	.LVL81
 14296 02e3 80010000 		.4byte	.LFE287
 14297 02e7 0100     		.2byte	0x1
 14298 02e9 55       		.byte	0x55
 14299 02ea 00000000 		.4byte	0
 14300 02ee 00000000 		.4byte	0
 14301              	.LLST12:
 14302 02f2 10000000 		.4byte	.LVL27
 14303 02f6 14000000 		.4byte	.LVL29
 14304 02fa 0200     		.2byte	0x2
 14305 02fc 74       		.byte	0x74
 14306 02fd 04       		.sleb128 4
 14307 02fe 14000000 		.4byte	.LVL29
 14308 0302 26000000 		.4byte	.LVL31
 14309 0306 0500     		.2byte	0x5
ARM GAS  C:\Users\jo\AppData\Local\Temp\cc6wN9Ut.s 			page 254


 14310 0308 F3       		.byte	0xf3
 14311 0309 01       		.uleb128 0x1
 14312 030a 50       		.byte	0x50
 14313 030b 23       		.byte	0x23
 14314 030c 04       		.uleb128 0x4
 14315 030d 48000000 		.4byte	.LVL37
 14316 0311 58000000 		.4byte	.LVL40
 14317 0315 0500     		.2byte	0x5
 14318 0317 F3       		.byte	0xf3
 14319 0318 01       		.uleb128 0x1
 14320 0319 50       		.byte	0x50
 14321 031a 23       		.byte	0x23
 14322 031b 04       		.uleb128 0x4
 14323 031c 5C000000 		.4byte	.LVL41
 14324 0320 70000000 		.4byte	.LVL43
 14325 0324 0500     		.2byte	0x5
 14326 0326 F3       		.byte	0xf3
 14327 0327 01       		.uleb128 0x1
 14328 0328 50       		.byte	0x50
 14329 0329 23       		.byte	0x23
 14330 032a 04       		.uleb128 0x4
 14331 032b 88000000 		.4byte	.LVL47
 14332 032f 9A000000 		.4byte	.LVL50
 14333 0333 0500     		.2byte	0x5
 14334 0335 F3       		.byte	0xf3
 14335 0336 01       		.uleb128 0x1
 14336 0337 50       		.byte	0x50
 14337 0338 23       		.byte	0x23
 14338 0339 04       		.uleb128 0x4
 14339 033a 9C000000 		.4byte	.LVL51
 14340 033e AE000000 		.4byte	.LVL53
 14341 0342 0500     		.2byte	0x5
 14342 0344 F3       		.byte	0xf3
 14343 0345 01       		.uleb128 0x1
 14344 0346 50       		.byte	0x50
 14345 0347 23       		.byte	0x23
 14346 0348 04       		.uleb128 0x4
 14347 0349 B2000000 		.4byte	.LVL54
 14348 034d C4000000 		.4byte	.LVL57
 14349 0351 0500     		.2byte	0x5
 14350 0353 F3       		.byte	0xf3
 14351 0354 01       		.uleb128 0x1
 14352 0355 50       		.byte	0x50
 14353 0356 23       		.byte	0x23
 14354 0357 04       		.uleb128 0x4
 14355 0358 C8000000 		.4byte	.LVL58
 14356 035c D0000000 		.4byte	.LVL61
 14357 0360 0500     		.2byte	0x5
 14358 0362 F3       		.byte	0xf3
 14359 0363 01       		.uleb128 0x1
 14360 0364 50       		.byte	0x50
 14361 0365 23       		.byte	0x23
 14362 0366 04       		.uleb128 0x4
 14363 0367 D4000000 		.4byte	.LVL62
 14364 036b D8000000 		.4byte	.LVL64
 14365 036f 0500     		.2byte	0x5
 14366 0371 F3       		.byte	0xf3
ARM GAS  C:\Users\jo\AppData\Local\Temp\cc6wN9Ut.s 			page 255


 14367 0372 01       		.uleb128 0x1
 14368 0373 50       		.byte	0x50
 14369 0374 23       		.byte	0x23
 14370 0375 04       		.uleb128 0x4
 14371 0376 F0000000 		.4byte	.LVL68
 14372 037a FE000000 		.4byte	.LVL70
 14373 037e 0500     		.2byte	0x5
 14374 0380 F3       		.byte	0xf3
 14375 0381 01       		.uleb128 0x1
 14376 0382 50       		.byte	0x50
 14377 0383 23       		.byte	0x23
 14378 0384 04       		.uleb128 0x4
 14379 0385 02010000 		.4byte	.LVL71
 14380 0389 06010000 		.4byte	.LVL73
 14381 038d 0500     		.2byte	0x5
 14382 038f F3       		.byte	0xf3
 14383 0390 01       		.uleb128 0x1
 14384 0391 50       		.byte	0x50
 14385 0392 23       		.byte	0x23
 14386 0393 04       		.uleb128 0x4
 14387 0394 38010000 		.4byte	.LVL81
 14388 0398 44010000 		.4byte	.LVL83
 14389 039c 0500     		.2byte	0x5
 14390 039e F3       		.byte	0xf3
 14391 039f 01       		.uleb128 0x1
 14392 03a0 50       		.byte	0x50
 14393 03a1 23       		.byte	0x23
 14394 03a2 04       		.uleb128 0x4
 14395 03a3 48010000 		.4byte	.LVL84
 14396 03a7 54010000 		.4byte	.LVL86
 14397 03ab 0500     		.2byte	0x5
 14398 03ad F3       		.byte	0xf3
 14399 03ae 01       		.uleb128 0x1
 14400 03af 50       		.byte	0x50
 14401 03b0 23       		.byte	0x23
 14402 03b1 04       		.uleb128 0x4
 14403 03b2 58010000 		.4byte	.LVL87
 14404 03b6 64010000 		.4byte	.LVL89
 14405 03ba 0500     		.2byte	0x5
 14406 03bc F3       		.byte	0xf3
 14407 03bd 01       		.uleb128 0x1
 14408 03be 50       		.byte	0x50
 14409 03bf 23       		.byte	0x23
 14410 03c0 04       		.uleb128 0x4
 14411 03c1 00000000 		.4byte	0
 14412 03c5 00000000 		.4byte	0
 14413              	.LLST13:
 14414 03c9 10000000 		.4byte	.LVL27
 14415 03cd 24000000 		.4byte	.LVL30
 14416 03d1 0100     		.2byte	0x1
 14417 03d3 53       		.byte	0x53
 14418 03d4 24000000 		.4byte	.LVL30
 14419 03d8 26000000 		.4byte	.LVL31
 14420 03dc 0500     		.2byte	0x5
 14421 03de F3       		.byte	0xf3
 14422 03df 01       		.uleb128 0x1
 14423 03e0 50       		.byte	0x50
ARM GAS  C:\Users\jo\AppData\Local\Temp\cc6wN9Ut.s 			page 256


 14424 03e1 23       		.byte	0x23
 14425 03e2 08       		.uleb128 0x8
 14426 03e3 48000000 		.4byte	.LVL37
 14427 03e7 52000000 		.4byte	.LVL38
 14428 03eb 0100     		.2byte	0x1
 14429 03ed 53       		.byte	0x53
 14430 03ee 52000000 		.4byte	.LVL38
 14431 03f2 58000000 		.4byte	.LVL40
 14432 03f6 0500     		.2byte	0x5
 14433 03f8 F3       		.byte	0xf3
 14434 03f9 01       		.uleb128 0x1
 14435 03fa 50       		.byte	0x50
 14436 03fb 23       		.byte	0x23
 14437 03fc 08       		.uleb128 0x8
 14438 03fd 5C000000 		.4byte	.LVL41
 14439 0401 64000000 		.4byte	.LVL42
 14440 0405 0100     		.2byte	0x1
 14441 0407 53       		.byte	0x53
 14442 0408 64000000 		.4byte	.LVL42
 14443 040c 70000000 		.4byte	.LVL43
 14444 0410 0500     		.2byte	0x5
 14445 0412 F3       		.byte	0xf3
 14446 0413 01       		.uleb128 0x1
 14447 0414 50       		.byte	0x50
 14448 0415 23       		.byte	0x23
 14449 0416 08       		.uleb128 0x8
 14450 0417 88000000 		.4byte	.LVL47
 14451 041b 96000000 		.4byte	.LVL49
 14452 041f 0100     		.2byte	0x1
 14453 0421 53       		.byte	0x53
 14454 0422 96000000 		.4byte	.LVL49
 14455 0426 AE000000 		.4byte	.LVL53
 14456 042a 0500     		.2byte	0x5
 14457 042c F3       		.byte	0xf3
 14458 042d 01       		.uleb128 0x1
 14459 042e 50       		.byte	0x50
 14460 042f 23       		.byte	0x23
 14461 0430 08       		.uleb128 0x8
 14462 0431 B2000000 		.4byte	.LVL54
 14463 0435 B4000000 		.4byte	.LVL55
 14464 0439 0100     		.2byte	0x1
 14465 043b 53       		.byte	0x53
 14466 043c B4000000 		.4byte	.LVL55
 14467 0440 C4000000 		.4byte	.LVL57
 14468 0444 0500     		.2byte	0x5
 14469 0446 F3       		.byte	0xf3
 14470 0447 01       		.uleb128 0x1
 14471 0448 50       		.byte	0x50
 14472 0449 23       		.byte	0x23
 14473 044a 08       		.uleb128 0x8
 14474 044b C8000000 		.4byte	.LVL58
 14475 044f CA000000 		.4byte	.LVL59
 14476 0453 0100     		.2byte	0x1
 14477 0455 53       		.byte	0x53
 14478 0456 CA000000 		.4byte	.LVL59
 14479 045a D0000000 		.4byte	.LVL61
 14480 045e 0500     		.2byte	0x5
ARM GAS  C:\Users\jo\AppData\Local\Temp\cc6wN9Ut.s 			page 257


 14481 0460 F3       		.byte	0xf3
 14482 0461 01       		.uleb128 0x1
 14483 0462 50       		.byte	0x50
 14484 0463 23       		.byte	0x23
 14485 0464 08       		.uleb128 0x8
 14486 0465 D4000000 		.4byte	.LVL62
 14487 0469 D6000000 		.4byte	.LVL63
 14488 046d 0100     		.2byte	0x1
 14489 046f 53       		.byte	0x53
 14490 0470 D6000000 		.4byte	.LVL63
 14491 0474 D8000000 		.4byte	.LVL64
 14492 0478 0500     		.2byte	0x5
 14493 047a F3       		.byte	0xf3
 14494 047b 01       		.uleb128 0x1
 14495 047c 50       		.byte	0x50
 14496 047d 23       		.byte	0x23
 14497 047e 08       		.uleb128 0x8
 14498 047f F0000000 		.4byte	.LVL68
 14499 0483 FE000000 		.4byte	.LVL70
 14500 0487 0500     		.2byte	0x5
 14501 0489 F3       		.byte	0xf3
 14502 048a 01       		.uleb128 0x1
 14503 048b 50       		.byte	0x50
 14504 048c 23       		.byte	0x23
 14505 048d 08       		.uleb128 0x8
 14506 048e 02010000 		.4byte	.LVL71
 14507 0492 04010000 		.4byte	.LVL72
 14508 0496 0100     		.2byte	0x1
 14509 0498 53       		.byte	0x53
 14510 0499 04010000 		.4byte	.LVL72
 14511 049d 06010000 		.4byte	.LVL73
 14512 04a1 0500     		.2byte	0x5
 14513 04a3 F3       		.byte	0xf3
 14514 04a4 01       		.uleb128 0x1
 14515 04a5 50       		.byte	0x50
 14516 04a6 23       		.byte	0x23
 14517 04a7 08       		.uleb128 0x8
 14518 04a8 38010000 		.4byte	.LVL81
 14519 04ac 44010000 		.4byte	.LVL83
 14520 04b0 0500     		.2byte	0x5
 14521 04b2 F3       		.byte	0xf3
 14522 04b3 01       		.uleb128 0x1
 14523 04b4 50       		.byte	0x50
 14524 04b5 23       		.byte	0x23
 14525 04b6 08       		.uleb128 0x8
 14526 04b7 48010000 		.4byte	.LVL84
 14527 04bb 54010000 		.4byte	.LVL86
 14528 04bf 0500     		.2byte	0x5
 14529 04c1 F3       		.byte	0xf3
 14530 04c2 01       		.uleb128 0x1
 14531 04c3 50       		.byte	0x50
 14532 04c4 23       		.byte	0x23
 14533 04c5 08       		.uleb128 0x8
 14534 04c6 58010000 		.4byte	.LVL87
 14535 04ca 64010000 		.4byte	.LVL89
 14536 04ce 0500     		.2byte	0x5
 14537 04d0 F3       		.byte	0xf3
ARM GAS  C:\Users\jo\AppData\Local\Temp\cc6wN9Ut.s 			page 258


 14538 04d1 01       		.uleb128 0x1
 14539 04d2 50       		.byte	0x50
 14540 04d3 23       		.byte	0x23
 14541 04d4 08       		.uleb128 0x8
 14542 04d5 00000000 		.4byte	0
 14543 04d9 00000000 		.4byte	0
 14544              	.LLST14:
 14545 04dd 12000000 		.4byte	.LVL28
 14546 04e1 2A000000 		.4byte	.LVL32
 14547 04e5 0100     		.2byte	0x1
 14548 04e7 52       		.byte	0x52
 14549 04e8 48000000 		.4byte	.LVL37
 14550 04ec 54000000 		.4byte	.LVL39
 14551 04f0 0100     		.2byte	0x1
 14552 04f2 52       		.byte	0x52
 14553 04f3 54000000 		.4byte	.LVL39
 14554 04f7 58000000 		.4byte	.LVL40
 14555 04fb 0500     		.2byte	0x5
 14556 04fd F3       		.byte	0xf3
 14557 04fe 01       		.uleb128 0x1
 14558 04ff 50       		.byte	0x50
 14559 0500 23       		.byte	0x23
 14560 0501 0C       		.uleb128 0xc
 14561 0502 5C000000 		.4byte	.LVL41
 14562 0506 74000000 		.4byte	.LVL44
 14563 050a 0100     		.2byte	0x1
 14564 050c 52       		.byte	0x52
 14565 050d 88000000 		.4byte	.LVL47
 14566 0511 94000000 		.4byte	.LVL48
 14567 0515 0100     		.2byte	0x1
 14568 0517 52       		.byte	0x52
 14569 0518 94000000 		.4byte	.LVL48
 14570 051c 9C000000 		.4byte	.LVL51
 14571 0520 0500     		.2byte	0x5
 14572 0522 F3       		.byte	0xf3
 14573 0523 01       		.uleb128 0x1
 14574 0524 50       		.byte	0x50
 14575 0525 23       		.byte	0x23
 14576 0526 0C       		.uleb128 0xc
 14577 0527 9C000000 		.4byte	.LVL51
 14578 052b A6000000 		.4byte	.LVL52
 14579 052f 0100     		.2byte	0x1
 14580 0531 52       		.byte	0x52
 14581 0532 A6000000 		.4byte	.LVL52
 14582 0536 AE000000 		.4byte	.LVL53
 14583 053a 0500     		.2byte	0x5
 14584 053c F3       		.byte	0xf3
 14585 053d 01       		.uleb128 0x1
 14586 053e 50       		.byte	0x50
 14587 053f 23       		.byte	0x23
 14588 0540 0C       		.uleb128 0xc
 14589 0541 B2000000 		.4byte	.LVL54
 14590 0545 BC000000 		.4byte	.LVL56
 14591 0549 0100     		.2byte	0x1
 14592 054b 52       		.byte	0x52
 14593 054c BC000000 		.4byte	.LVL56
 14594 0550 C4000000 		.4byte	.LVL57
ARM GAS  C:\Users\jo\AppData\Local\Temp\cc6wN9Ut.s 			page 259


 14595 0554 0500     		.2byte	0x5
 14596 0556 F3       		.byte	0xf3
 14597 0557 01       		.uleb128 0x1
 14598 0558 50       		.byte	0x50
 14599 0559 23       		.byte	0x23
 14600 055a 0C       		.uleb128 0xc
 14601 055b C8000000 		.4byte	.LVL58
 14602 055f CC000000 		.4byte	.LVL60
 14603 0563 0100     		.2byte	0x1
 14604 0565 52       		.byte	0x52
 14605 0566 CC000000 		.4byte	.LVL60
 14606 056a D0000000 		.4byte	.LVL61
 14607 056e 0500     		.2byte	0x5
 14608 0570 F3       		.byte	0xf3
 14609 0571 01       		.uleb128 0x1
 14610 0572 50       		.byte	0x50
 14611 0573 23       		.byte	0x23
 14612 0574 0C       		.uleb128 0xc
 14613 0575 D4000000 		.4byte	.LVL62
 14614 0579 DC000000 		.4byte	.LVL65
 14615 057d 0100     		.2byte	0x1
 14616 057f 52       		.byte	0x52
 14617 0580 F0000000 		.4byte	.LVL68
 14618 0584 FC000000 		.4byte	.LVL69
 14619 0588 0100     		.2byte	0x1
 14620 058a 52       		.byte	0x52
 14621 058b FC000000 		.4byte	.LVL69
 14622 058f FE000000 		.4byte	.LVL70
 14623 0593 0500     		.2byte	0x5
 14624 0595 F3       		.byte	0xf3
 14625 0596 01       		.uleb128 0x1
 14626 0597 50       		.byte	0x50
 14627 0598 23       		.byte	0x23
 14628 0599 0C       		.uleb128 0xc
 14629 059a 02010000 		.4byte	.LVL71
 14630 059e 0A010000 		.4byte	.LVL74
 14631 05a2 0100     		.2byte	0x1
 14632 05a4 52       		.byte	0x52
 14633 05a5 38010000 		.4byte	.LVL81
 14634 05a9 42010000 		.4byte	.LVL82
 14635 05ad 0100     		.2byte	0x1
 14636 05af 52       		.byte	0x52
 14637 05b0 42010000 		.4byte	.LVL82
 14638 05b4 44010000 		.4byte	.LVL83
 14639 05b8 0500     		.2byte	0x5
 14640 05ba F3       		.byte	0xf3
 14641 05bb 01       		.uleb128 0x1
 14642 05bc 50       		.byte	0x50
 14643 05bd 23       		.byte	0x23
 14644 05be 0C       		.uleb128 0xc
 14645 05bf 48010000 		.4byte	.LVL84
 14646 05c3 4C010000 		.4byte	.LVL85
 14647 05c7 0100     		.2byte	0x1
 14648 05c9 52       		.byte	0x52
 14649 05ca 4C010000 		.4byte	.LVL85
 14650 05ce 54010000 		.4byte	.LVL86
 14651 05d2 0500     		.2byte	0x5
ARM GAS  C:\Users\jo\AppData\Local\Temp\cc6wN9Ut.s 			page 260


 14652 05d4 F3       		.byte	0xf3
 14653 05d5 01       		.uleb128 0x1
 14654 05d6 50       		.byte	0x50
 14655 05d7 23       		.byte	0x23
 14656 05d8 0C       		.uleb128 0xc
 14657 05d9 58010000 		.4byte	.LVL87
 14658 05dd 5C010000 		.4byte	.LVL88
 14659 05e1 0100     		.2byte	0x1
 14660 05e3 52       		.byte	0x52
 14661 05e4 5C010000 		.4byte	.LVL88
 14662 05e8 64010000 		.4byte	.LVL89
 14663 05ec 0500     		.2byte	0x5
 14664 05ee F3       		.byte	0xf3
 14665 05ef 01       		.uleb128 0x1
 14666 05f0 50       		.byte	0x50
 14667 05f1 23       		.byte	0x23
 14668 05f2 0C       		.uleb128 0xc
 14669 05f3 00000000 		.4byte	0
 14670 05f7 00000000 		.4byte	0
 14671              	.LLST15:
 14672 05fb 14000000 		.4byte	.LVL29
 14673 05ff 44000000 		.4byte	.LVL36
 14674 0603 0100     		.2byte	0x1
 14675 0605 54       		.byte	0x54
 14676 0606 48000000 		.4byte	.LVL37
 14677 060a 1E010000 		.4byte	.LVL77
 14678 060e 0100     		.2byte	0x1
 14679 0610 54       		.byte	0x54
 14680 0611 38010000 		.4byte	.LVL81
 14681 0615 80010000 		.4byte	.LFE287
 14682 0619 0100     		.2byte	0x1
 14683 061b 54       		.byte	0x54
 14684 061c 00000000 		.4byte	0
 14685 0620 00000000 		.4byte	0
 14686              	.LLST16:
 14687 0624 0C000000 		.4byte	.LVL26
 14688 0628 14000000 		.4byte	.LVL29
 14689 062c 0100     		.2byte	0x1
 14690 062e 54       		.byte	0x54
 14691 062f 14000000 		.4byte	.LVL29
 14692 0633 1E010000 		.4byte	.LVL77
 14693 0637 0400     		.2byte	0x4
 14694 0639 F3       		.byte	0xf3
 14695 063a 01       		.uleb128 0x1
 14696 063b 50       		.byte	0x50
 14697 063c 9F       		.byte	0x9f
 14698 063d 38010000 		.4byte	.LVL81
 14699 0641 80010000 		.4byte	.LFE287
 14700 0645 0400     		.2byte	0x4
 14701 0647 F3       		.byte	0xf3
 14702 0648 01       		.uleb128 0x1
 14703 0649 50       		.byte	0x50
 14704 064a 9F       		.byte	0x9f
 14705 064b 00000000 		.4byte	0
 14706 064f 00000000 		.4byte	0
 14707              	.LLST17:
 14708 0653 34000000 		.4byte	.LVL33
ARM GAS  C:\Users\jo\AppData\Local\Temp\cc6wN9Ut.s 			page 261


 14709 0657 3C000000 		.4byte	.LVL35
 14710 065b 0600     		.2byte	0x6
 14711 065d 03       		.byte	0x3
 14712 065e 6C000000 		.4byte	.LC4
 14713 0662 9F       		.byte	0x9f
 14714 0663 00000000 		.4byte	0
 14715 0667 00000000 		.4byte	0
 14716              	.LLST18:
 14717 066b 7E000000 		.4byte	.LVL45
 14718 066f 88000000 		.4byte	.LVL47
 14719 0673 0600     		.2byte	0x6
 14720 0675 03       		.byte	0x3
 14721 0676 58000000 		.4byte	.LC3
 14722 067a 9F       		.byte	0x9f
 14723 067b 00000000 		.4byte	0
 14724 067f 00000000 		.4byte	0
 14725              	.LLST19:
 14726 0683 E6000000 		.4byte	.LVL66
 14727 0687 F0000000 		.4byte	.LVL68
 14728 068b 0600     		.2byte	0x6
 14729 068d 03       		.byte	0x3
 14730 068e 58000000 		.4byte	.LC3
 14731 0692 9F       		.byte	0x9f
 14732 0693 00000000 		.4byte	0
 14733 0697 00000000 		.4byte	0
 14734              	.LLST20:
 14735 069b 14010000 		.4byte	.LVL75
 14736 069f 1E010000 		.4byte	.LVL77
 14737 06a3 0600     		.2byte	0x6
 14738 06a5 03       		.byte	0x3
 14739 06a6 58000000 		.4byte	.LC3
 14740 06aa 9F       		.byte	0x9f
 14741 06ab 00000000 		.4byte	0
 14742 06af 00000000 		.4byte	0
 14743              	.LLST21:
 14744 06b3 30010000 		.4byte	.LVL79
 14745 06b7 38010000 		.4byte	.LVL81
 14746 06bb 0600     		.2byte	0x6
 14747 06bd 03       		.byte	0x3
 14748 06be 28000000 		.4byte	.LC1
 14749 06c2 9F       		.byte	0x9f
 14750 06c3 00000000 		.4byte	0
 14751 06c7 00000000 		.4byte	0
 14752              	.LLST22:
 14753 06cb 00000000 		.4byte	.LVL90
 14754 06cf 0C000000 		.4byte	.LVL91
 14755 06d3 0100     		.2byte	0x1
 14756 06d5 50       		.byte	0x50
 14757 06d6 0C000000 		.4byte	.LVL91
 14758 06da 44000000 		.4byte	.LVL102
 14759 06de 0100     		.2byte	0x1
 14760 06e0 54       		.byte	0x54
 14761 06e1 44000000 		.4byte	.LVL102
 14762 06e5 48000000 		.4byte	.LVL103
 14763 06e9 0400     		.2byte	0x4
 14764 06eb F3       		.byte	0xf3
 14765 06ec 01       		.uleb128 0x1
ARM GAS  C:\Users\jo\AppData\Local\Temp\cc6wN9Ut.s 			page 262


 14766 06ed 50       		.byte	0x50
 14767 06ee 9F       		.byte	0x9f
 14768 06ef 48000000 		.4byte	.LVL103
 14769 06f3 30010000 		.4byte	.LVL144
 14770 06f7 0100     		.2byte	0x1
 14771 06f9 54       		.byte	0x54
 14772 06fa 30010000 		.4byte	.LVL144
 14773 06fe 3A010000 		.4byte	.LVL145
 14774 0702 0100     		.2byte	0x1
 14775 0704 50       		.byte	0x50
 14776 0705 3A010000 		.4byte	.LVL145
 14777 0709 A4010000 		.4byte	.LFE285
 14778 070d 0100     		.2byte	0x1
 14779 070f 54       		.byte	0x54
 14780 0710 00000000 		.4byte	0
 14781 0714 00000000 		.4byte	0
 14782              	.LLST23:
 14783 0718 10000000 		.4byte	.LVL92
 14784 071c 44000000 		.4byte	.LVL102
 14785 0720 0100     		.2byte	0x1
 14786 0722 55       		.byte	0x55
 14787 0723 48000000 		.4byte	.LVL103
 14788 0727 30010000 		.4byte	.LVL144
 14789 072b 0100     		.2byte	0x1
 14790 072d 55       		.byte	0x55
 14791 072e 4A010000 		.4byte	.LVL148
 14792 0732 A4010000 		.4byte	.LFE285
 14793 0736 0100     		.2byte	0x1
 14794 0738 55       		.byte	0x55
 14795 0739 00000000 		.4byte	0
 14796 073d 00000000 		.4byte	0
 14797              	.LLST24:
 14798 0741 10000000 		.4byte	.LVL92
 14799 0745 26000000 		.4byte	.LVL96
 14800 0749 0200     		.2byte	0x2
 14801 074b 74       		.byte	0x74
 14802 074c 04       		.sleb128 4
 14803 074d 48000000 		.4byte	.LVL103
 14804 0751 58000000 		.4byte	.LVL105
 14805 0755 0200     		.2byte	0x2
 14806 0757 74       		.byte	0x74
 14807 0758 04       		.sleb128 4
 14808 0759 5A000000 		.4byte	.LVL106
 14809 075d 7C000000 		.4byte	.LVL108
 14810 0761 0200     		.2byte	0x2
 14811 0763 74       		.byte	0x74
 14812 0764 04       		.sleb128 4
 14813 0765 94000000 		.4byte	.LVL113
 14814 0769 A6000000 		.4byte	.LVL115
 14815 076d 0200     		.2byte	0x2
 14816 076f 74       		.byte	0x74
 14817 0770 04       		.sleb128 4
 14818 0771 A8000000 		.4byte	.LVL116
 14819 0775 B0000000 		.4byte	.LVL118
 14820 0779 0200     		.2byte	0x2
 14821 077b 74       		.byte	0x74
 14822 077c 04       		.sleb128 4
ARM GAS  C:\Users\jo\AppData\Local\Temp\cc6wN9Ut.s 			page 263


 14823 077d B2000000 		.4byte	.LVL119
 14824 0781 BE000000 		.4byte	.LVL121
 14825 0785 0200     		.2byte	0x2
 14826 0787 74       		.byte	0x74
 14827 0788 04       		.sleb128 4
 14828 0789 C0000000 		.4byte	.LVL122
 14829 078d D2000000 		.4byte	.LVL125
 14830 0791 0200     		.2byte	0x2
 14831 0793 74       		.byte	0x74
 14832 0794 04       		.sleb128 4
 14833 0795 D4000000 		.4byte	.LVL126
 14834 0799 F0000000 		.4byte	.LVL128
 14835 079d 0200     		.2byte	0x2
 14836 079f 74       		.byte	0x74
 14837 07a0 04       		.sleb128 4
 14838 07a1 F8000000 		.4byte	.LVL130
 14839 07a5 FC000000 		.4byte	.LVL132
 14840 07a9 0200     		.2byte	0x2
 14841 07ab 74       		.byte	0x74
 14842 07ac 04       		.sleb128 4
 14843 07ad 14010000 		.4byte	.LVL137
 14844 07b1 18010000 		.4byte	.LVL139
 14845 07b5 0200     		.2byte	0x2
 14846 07b7 74       		.byte	0x74
 14847 07b8 04       		.sleb128 4
 14848 07b9 4A010000 		.4byte	.LVL148
 14849 07bd 56010000 		.4byte	.LVL149
 14850 07c1 0200     		.2byte	0x2
 14851 07c3 74       		.byte	0x74
 14852 07c4 04       		.sleb128 4
 14853 07c5 58010000 		.4byte	.LVL150
 14854 07c9 6E010000 		.4byte	.LVL152
 14855 07cd 0200     		.2byte	0x2
 14856 07cf 74       		.byte	0x74
 14857 07d0 04       		.sleb128 4
 14858 07d1 70010000 		.4byte	.LVL153
 14859 07d5 7A010000 		.4byte	.LVL155
 14860 07d9 0200     		.2byte	0x2
 14861 07db 74       		.byte	0x74
 14862 07dc 04       		.sleb128 4
 14863 07dd 7C010000 		.4byte	.LVL156
 14864 07e1 80010000 		.4byte	.LVL157
 14865 07e5 0200     		.2byte	0x2
 14866 07e7 74       		.byte	0x74
 14867 07e8 04       		.sleb128 4
 14868 07e9 82010000 		.4byte	.LVL158
 14869 07ed 86010000 		.4byte	.LVL159
 14870 07f1 0200     		.2byte	0x2
 14871 07f3 74       		.byte	0x74
 14872 07f4 04       		.sleb128 4
 14873 07f5 00000000 		.4byte	0
 14874 07f9 00000000 		.4byte	0
 14875              	.LLST25:
 14876 07fd 10000000 		.4byte	.LVL92
 14877 0801 24000000 		.4byte	.LVL95
 14878 0805 0100     		.2byte	0x1
 14879 0807 53       		.byte	0x53
ARM GAS  C:\Users\jo\AppData\Local\Temp\cc6wN9Ut.s 			page 264


 14880 0808 24000000 		.4byte	.LVL95
 14881 080c 26000000 		.4byte	.LVL96
 14882 0810 0200     		.2byte	0x2
 14883 0812 74       		.byte	0x74
 14884 0813 08       		.sleb128 8
 14885 0814 48000000 		.4byte	.LVL103
 14886 0818 54000000 		.4byte	.LVL104
 14887 081c 0100     		.2byte	0x1
 14888 081e 53       		.byte	0x53
 14889 081f 54000000 		.4byte	.LVL104
 14890 0823 58000000 		.4byte	.LVL105
 14891 0827 0200     		.2byte	0x2
 14892 0829 74       		.byte	0x74
 14893 082a 08       		.sleb128 8
 14894 082b 5A000000 		.4byte	.LVL106
 14895 082f 64000000 		.4byte	.LVL107
 14896 0833 0100     		.2byte	0x1
 14897 0835 53       		.byte	0x53
 14898 0836 64000000 		.4byte	.LVL107
 14899 083a 7C000000 		.4byte	.LVL108
 14900 083e 0200     		.2byte	0x2
 14901 0840 74       		.byte	0x74
 14902 0841 08       		.sleb128 8
 14903 0842 94000000 		.4byte	.LVL113
 14904 0846 A0000000 		.4byte	.LVL114
 14905 084a 0100     		.2byte	0x1
 14906 084c 53       		.byte	0x53
 14907 084d A0000000 		.4byte	.LVL114
 14908 0851 A6000000 		.4byte	.LVL115
 14909 0855 0200     		.2byte	0x2
 14910 0857 74       		.byte	0x74
 14911 0858 08       		.sleb128 8
 14912 0859 A8000000 		.4byte	.LVL116
 14913 085d AC000000 		.4byte	.LVL117
 14914 0861 0100     		.2byte	0x1
 14915 0863 53       		.byte	0x53
 14916 0864 AC000000 		.4byte	.LVL117
 14917 0868 B0000000 		.4byte	.LVL118
 14918 086c 0200     		.2byte	0x2
 14919 086e 74       		.byte	0x74
 14920 086f 08       		.sleb128 8
 14921 0870 B2000000 		.4byte	.LVL119
 14922 0874 B6000000 		.4byte	.LVL120
 14923 0878 0100     		.2byte	0x1
 14924 087a 53       		.byte	0x53
 14925 087b B6000000 		.4byte	.LVL120
 14926 087f BE000000 		.4byte	.LVL121
 14927 0883 0200     		.2byte	0x2
 14928 0885 74       		.byte	0x74
 14929 0886 08       		.sleb128 8
 14930 0887 C0000000 		.4byte	.LVL122
 14931 088b CC000000 		.4byte	.LVL123
 14932 088f 0100     		.2byte	0x1
 14933 0891 53       		.byte	0x53
 14934 0892 CC000000 		.4byte	.LVL123
 14935 0896 D2000000 		.4byte	.LVL125
 14936 089a 0200     		.2byte	0x2
ARM GAS  C:\Users\jo\AppData\Local\Temp\cc6wN9Ut.s 			page 265


 14937 089c 74       		.byte	0x74
 14938 089d 08       		.sleb128 8
 14939 089e D4000000 		.4byte	.LVL126
 14940 08a2 F4000000 		.4byte	.LVL129
 14941 08a6 0200     		.2byte	0x2
 14942 08a8 74       		.byte	0x74
 14943 08a9 08       		.sleb128 8
 14944 08aa F8000000 		.4byte	.LVL130
 14945 08ae FA000000 		.4byte	.LVL131
 14946 08b2 0100     		.2byte	0x1
 14947 08b4 53       		.byte	0x53
 14948 08b5 FA000000 		.4byte	.LVL131
 14949 08b9 FC000000 		.4byte	.LVL132
 14950 08bd 0200     		.2byte	0x2
 14951 08bf 74       		.byte	0x74
 14952 08c0 08       		.sleb128 8
 14953 08c1 14010000 		.4byte	.LVL137
 14954 08c5 16010000 		.4byte	.LVL138
 14955 08c9 0100     		.2byte	0x1
 14956 08cb 53       		.byte	0x53
 14957 08cc 16010000 		.4byte	.LVL138
 14958 08d0 18010000 		.4byte	.LVL139
 14959 08d4 0200     		.2byte	0x2
 14960 08d6 74       		.byte	0x74
 14961 08d7 08       		.sleb128 8
 14962 08d8 4A010000 		.4byte	.LVL148
 14963 08dc 56010000 		.4byte	.LVL149
 14964 08e0 0200     		.2byte	0x2
 14965 08e2 74       		.byte	0x74
 14966 08e3 08       		.sleb128 8
 14967 08e4 58010000 		.4byte	.LVL150
 14968 08e8 6E010000 		.4byte	.LVL152
 14969 08ec 0200     		.2byte	0x2
 14970 08ee 74       		.byte	0x74
 14971 08ef 08       		.sleb128 8
 14972 08f0 70010000 		.4byte	.LVL153
 14973 08f4 7A010000 		.4byte	.LVL155
 14974 08f8 0200     		.2byte	0x2
 14975 08fa 74       		.byte	0x74
 14976 08fb 08       		.sleb128 8
 14977 08fc 7C010000 		.4byte	.LVL156
 14978 0900 80010000 		.4byte	.LVL157
 14979 0904 0200     		.2byte	0x2
 14980 0906 74       		.byte	0x74
 14981 0907 08       		.sleb128 8
 14982 0908 82010000 		.4byte	.LVL158
 14983 090c 86010000 		.4byte	.LVL159
 14984 0910 0200     		.2byte	0x2
 14985 0912 74       		.byte	0x74
 14986 0913 08       		.sleb128 8
 14987 0914 00000000 		.4byte	0
 14988 0918 00000000 		.4byte	0
 14989              	.LLST26:
 14990 091c 12000000 		.4byte	.LVL93
 14991 0920 2A000000 		.4byte	.LVL98
 14992 0924 0100     		.2byte	0x1
 14993 0926 52       		.byte	0x52
ARM GAS  C:\Users\jo\AppData\Local\Temp\cc6wN9Ut.s 			page 266


 14994 0927 48000000 		.4byte	.LVL103
 14995 092b 80000000 		.4byte	.LVL110
 14996 092f 0100     		.2byte	0x1
 14997 0931 52       		.byte	0x52
 14998 0932 94000000 		.4byte	.LVL113
 14999 0936 D0000000 		.4byte	.LVL124
 15000 093a 0100     		.2byte	0x1
 15001 093c 52       		.byte	0x52
 15002 093d D0000000 		.4byte	.LVL124
 15003 0941 D2000000 		.4byte	.LVL125
 15004 0945 0200     		.2byte	0x2
 15005 0947 74       		.byte	0x74
 15006 0948 0C       		.sleb128 12
 15007 0949 D4000000 		.4byte	.LVL126
 15008 094d E8000000 		.4byte	.LVL127
 15009 0951 0100     		.2byte	0x1
 15010 0953 52       		.byte	0x52
 15011 0954 E8000000 		.4byte	.LVL127
 15012 0958 F4000000 		.4byte	.LVL129
 15013 095c 0200     		.2byte	0x2
 15014 095e 74       		.byte	0x74
 15015 095f 0C       		.sleb128 12
 15016 0960 F8000000 		.4byte	.LVL130
 15017 0964 00010000 		.4byte	.LVL134
 15018 0968 0100     		.2byte	0x1
 15019 096a 52       		.byte	0x52
 15020 096b 14010000 		.4byte	.LVL137
 15021 096f 1C010000 		.4byte	.LVL141
 15022 0973 0100     		.2byte	0x1
 15023 0975 52       		.byte	0x52
 15024 0976 4A010000 		.4byte	.LVL148
 15025 097a 5C010000 		.4byte	.LVL151
 15026 097e 0100     		.2byte	0x1
 15027 0980 52       		.byte	0x52
 15028 0981 5C010000 		.4byte	.LVL151
 15029 0985 6E010000 		.4byte	.LVL152
 15030 0989 0200     		.2byte	0x2
 15031 098b 74       		.byte	0x74
 15032 098c 0C       		.sleb128 12
 15033 098d 70010000 		.4byte	.LVL153
 15034 0991 76010000 		.4byte	.LVL154
 15035 0995 0100     		.2byte	0x1
 15036 0997 52       		.byte	0x52
 15037 0998 76010000 		.4byte	.LVL154
 15038 099c 7A010000 		.4byte	.LVL155
 15039 09a0 0200     		.2byte	0x2
 15040 09a2 74       		.byte	0x74
 15041 09a3 0C       		.sleb128 12
 15042 09a4 7C010000 		.4byte	.LVL156
 15043 09a8 80010000 		.4byte	.LVL157
 15044 09ac 0200     		.2byte	0x2
 15045 09ae 74       		.byte	0x74
 15046 09af 0C       		.sleb128 12
 15047 09b0 82010000 		.4byte	.LVL158
 15048 09b4 86010000 		.4byte	.LVL159
 15049 09b8 0200     		.2byte	0x2
 15050 09ba 74       		.byte	0x74
ARM GAS  C:\Users\jo\AppData\Local\Temp\cc6wN9Ut.s 			page 267


 15051 09bb 0C       		.sleb128 12
 15052 09bc 00000000 		.4byte	0
 15053 09c0 00000000 		.4byte	0
 15054              	.LLST27:
 15055 09c4 14000000 		.4byte	.LVL94
 15056 09c8 28000000 		.4byte	.LVL97
 15057 09cc 0100     		.2byte	0x1
 15058 09ce 51       		.byte	0x51
 15059 09cf 48000000 		.4byte	.LVL103
 15060 09d3 7E000000 		.4byte	.LVL109
 15061 09d7 0100     		.2byte	0x1
 15062 09d9 51       		.byte	0x51
 15063 09da 94000000 		.4byte	.LVL113
 15064 09de FE000000 		.4byte	.LVL133
 15065 09e2 0100     		.2byte	0x1
 15066 09e4 51       		.byte	0x51
 15067 09e5 14010000 		.4byte	.LVL137
 15068 09e9 1A010000 		.4byte	.LVL140
 15069 09ed 0100     		.2byte	0x1
 15070 09ef 51       		.byte	0x51
 15071 09f0 4A010000 		.4byte	.LVL148
 15072 09f4 A4010000 		.4byte	.LFE285
 15073 09f8 0100     		.2byte	0x1
 15074 09fa 51       		.byte	0x51
 15075 09fb 00000000 		.4byte	0
 15076 09ff 00000000 		.4byte	0
 15077              	.LLST28:
 15078 0a03 0C000000 		.4byte	.LVL91
 15079 0a07 44000000 		.4byte	.LVL102
 15080 0a0b 0100     		.2byte	0x1
 15081 0a0d 54       		.byte	0x54
 15082 0a0e 44000000 		.4byte	.LVL102
 15083 0a12 48000000 		.4byte	.LVL103
 15084 0a16 0400     		.2byte	0x4
 15085 0a18 F3       		.byte	0xf3
 15086 0a19 01       		.uleb128 0x1
 15087 0a1a 50       		.byte	0x50
 15088 0a1b 9F       		.byte	0x9f
 15089 0a1c 48000000 		.4byte	.LVL103
 15090 0a20 30010000 		.4byte	.LVL144
 15091 0a24 0100     		.2byte	0x1
 15092 0a26 54       		.byte	0x54
 15093 0a27 4A010000 		.4byte	.LVL148
 15094 0a2b A4010000 		.4byte	.LFE285
 15095 0a2f 0100     		.2byte	0x1
 15096 0a31 54       		.byte	0x54
 15097 0a32 00000000 		.4byte	0
 15098 0a36 00000000 		.4byte	0
 15099              	.LLST29:
 15100 0a3a 34000000 		.4byte	.LVL99
 15101 0a3e 3C000000 		.4byte	.LVL101
 15102 0a42 0600     		.2byte	0x6
 15103 0a44 03       		.byte	0x3
 15104 0a45 6C000000 		.4byte	.LC4
 15105 0a49 9F       		.byte	0x9f
 15106 0a4a 00000000 		.4byte	0
 15107 0a4e 00000000 		.4byte	0
ARM GAS  C:\Users\jo\AppData\Local\Temp\cc6wN9Ut.s 			page 268


 15108              	.LLST30:
 15109 0a52 8A000000 		.4byte	.LVL111
 15110 0a56 94000000 		.4byte	.LVL113
 15111 0a5a 0600     		.2byte	0x6
 15112 0a5c 03       		.byte	0x3
 15113 0a5d 58000000 		.4byte	.LC3
 15114 0a61 9F       		.byte	0x9f
 15115 0a62 00000000 		.4byte	0
 15116 0a66 00000000 		.4byte	0
 15117              	.LLST31:
 15118 0a6a 0A010000 		.4byte	.LVL135
 15119 0a6e 14010000 		.4byte	.LVL137
 15120 0a72 0600     		.2byte	0x6
 15121 0a74 03       		.byte	0x3
 15122 0a75 58000000 		.4byte	.LC3
 15123 0a79 9F       		.byte	0x9f
 15124 0a7a 00000000 		.4byte	0
 15125 0a7e 00000000 		.4byte	0
 15126              	.LLST32:
 15127 0a82 26010000 		.4byte	.LVL142
 15128 0a86 30010000 		.4byte	.LVL144
 15129 0a8a 0600     		.2byte	0x6
 15130 0a8c 03       		.byte	0x3
 15131 0a8d 58000000 		.4byte	.LC3
 15132 0a91 9F       		.byte	0x9f
 15133 0a92 00000000 		.4byte	0
 15134 0a96 00000000 		.4byte	0
 15135              	.LLST33:
 15136 0a9a 42010000 		.4byte	.LVL146
 15137 0a9e 4A010000 		.4byte	.LVL148
 15138 0aa2 0600     		.2byte	0x6
 15139 0aa4 03       		.byte	0x3
 15140 0aa5 28000000 		.4byte	.LC1
 15141 0aa9 9F       		.byte	0x9f
 15142 0aaa 00000000 		.4byte	0
 15143 0aae 00000000 		.4byte	0
 15144              	.LLST34:
 15145 0ab2 00000000 		.4byte	.LVL160
 15146 0ab6 F4000000 		.4byte	.LVL181
 15147 0aba 0100     		.2byte	0x1
 15148 0abc 50       		.byte	0x50
 15149 0abd F4000000 		.4byte	.LVL181
 15150 0ac1 1A010000 		.4byte	.LVL183
 15151 0ac5 0400     		.2byte	0x4
 15152 0ac7 F3       		.byte	0xf3
 15153 0ac8 01       		.uleb128 0x1
 15154 0ac9 50       		.byte	0x50
 15155 0aca 9F       		.byte	0x9f
 15156 0acb 1A010000 		.4byte	.LVL183
 15157 0acf 4C010000 		.4byte	.LFE277
 15158 0ad3 0100     		.2byte	0x1
 15159 0ad5 50       		.byte	0x50
 15160 0ad6 00000000 		.4byte	0
 15161 0ada 00000000 		.4byte	0
 15162              	.LLST35:
 15163 0ade 00000000 		.4byte	.LVL160
 15164 0ae2 F4000000 		.4byte	.LVL181
ARM GAS  C:\Users\jo\AppData\Local\Temp\cc6wN9Ut.s 			page 269


 15165 0ae6 0100     		.2byte	0x1
 15166 0ae8 51       		.byte	0x51
 15167 0ae9 F4000000 		.4byte	.LVL181
 15168 0aed 1A010000 		.4byte	.LVL183
 15169 0af1 0400     		.2byte	0x4
 15170 0af3 F3       		.byte	0xf3
 15171 0af4 01       		.uleb128 0x1
 15172 0af5 51       		.byte	0x51
 15173 0af6 9F       		.byte	0x9f
 15174 0af7 1A010000 		.4byte	.LVL183
 15175 0afb 4C010000 		.4byte	.LFE277
 15176 0aff 0100     		.2byte	0x1
 15177 0b01 51       		.byte	0x51
 15178 0b02 00000000 		.4byte	0
 15179 0b06 00000000 		.4byte	0
 15180              	.LLST36:
 15181 0b0a 00000000 		.4byte	.LVL160
 15182 0b0e F6000000 		.4byte	.LVL182
 15183 0b12 0100     		.2byte	0x1
 15184 0b14 53       		.byte	0x53
 15185 0b15 F6000000 		.4byte	.LVL182
 15186 0b19 1A010000 		.4byte	.LVL183
 15187 0b1d 0400     		.2byte	0x4
 15188 0b1f F3       		.byte	0xf3
 15189 0b20 01       		.uleb128 0x1
 15190 0b21 53       		.byte	0x53
 15191 0b22 9F       		.byte	0x9f
 15192 0b23 1A010000 		.4byte	.LVL183
 15193 0b27 4C010000 		.4byte	.LFE277
 15194 0b2b 0100     		.2byte	0x1
 15195 0b2d 53       		.byte	0x53
 15196 0b2e 00000000 		.4byte	0
 15197 0b32 00000000 		.4byte	0
 15198              	.LLST37:
 15199 0b36 00000000 		.4byte	.LVL160
 15200 0b3a 1A010000 		.4byte	.LVL183
 15201 0b3e 0200     		.2byte	0x2
 15202 0b40 91       		.byte	0x91
 15203 0b41 00       		.sleb128 0
 15204 0b42 1A010000 		.4byte	.LVL183
 15205 0b46 4C010000 		.4byte	.LFE277
 15206 0b4a 0200     		.2byte	0x2
 15207 0b4c 91       		.byte	0x91
 15208 0b4d 00       		.sleb128 0
 15209 0b4e 00000000 		.4byte	0
 15210 0b52 00000000 		.4byte	0
 15211              	.LLST38:
 15212 0b56 00000000 		.4byte	.LVL160
 15213 0b5a 1A010000 		.4byte	.LVL183
 15214 0b5e 0200     		.2byte	0x2
 15215 0b60 91       		.byte	0x91
 15216 0b61 04       		.sleb128 4
 15217 0b62 1A010000 		.4byte	.LVL183
 15218 0b66 4C010000 		.4byte	.LFE277
 15219 0b6a 0200     		.2byte	0x2
 15220 0b6c 91       		.byte	0x91
 15221 0b6d 04       		.sleb128 4
ARM GAS  C:\Users\jo\AppData\Local\Temp\cc6wN9Ut.s 			page 270


 15222 0b6e 00000000 		.4byte	0
 15223 0b72 00000000 		.4byte	0
 15224              	.LLST39:
 15225 0b76 00000000 		.4byte	.LVL160
 15226 0b7a 1A010000 		.4byte	.LVL183
 15227 0b7e 0200     		.2byte	0x2
 15228 0b80 91       		.byte	0x91
 15229 0b81 08       		.sleb128 8
 15230 0b82 1A010000 		.4byte	.LVL183
 15231 0b86 4C010000 		.4byte	.LFE277
 15232 0b8a 0200     		.2byte	0x2
 15233 0b8c 91       		.byte	0x91
 15234 0b8d 08       		.sleb128 8
 15235 0b8e 00000000 		.4byte	0
 15236 0b92 00000000 		.4byte	0
 15237              	.LLST40:
 15238 0b96 30000000 		.4byte	.LVL170
 15239 0b9a 3E000000 		.4byte	.LVL171
 15240 0b9e 0200     		.2byte	0x2
 15241 0ba0 30       		.byte	0x30
 15242 0ba1 9F       		.byte	0x9f
 15243 0ba2 3E000000 		.4byte	.LVL171
 15244 0ba6 F0000000 		.4byte	.LVL180
 15245 0baa 0100     		.2byte	0x1
 15246 0bac 54       		.byte	0x54
 15247 0bad 1A010000 		.4byte	.LVL183
 15248 0bb1 4C010000 		.4byte	.LFE277
 15249 0bb5 0100     		.2byte	0x1
 15250 0bb7 54       		.byte	0x54
 15251 0bb8 00000000 		.4byte	0
 15252 0bbc 00000000 		.4byte	0
 15253              	.LLST41:
 15254 0bc0 00000000 		.4byte	.LVL160
 15255 0bc4 3E000000 		.4byte	.LVL171
 15256 0bc8 0200     		.2byte	0x2
 15257 0bca 30       		.byte	0x30
 15258 0bcb 9F       		.byte	0x9f
 15259 0bcc 3E000000 		.4byte	.LVL171
 15260 0bd0 F0000000 		.4byte	.LVL180
 15261 0bd4 0100     		.2byte	0x1
 15262 0bd6 5C       		.byte	0x5c
 15263 0bd7 1A010000 		.4byte	.LVL183
 15264 0bdb 4C010000 		.4byte	.LFE277
 15265 0bdf 0100     		.2byte	0x1
 15266 0be1 5C       		.byte	0x5c
 15267 0be2 00000000 		.4byte	0
 15268 0be6 00000000 		.4byte	0
 15269              	.LLST42:
 15270 0bea 06000000 		.4byte	.LVL161
 15271 0bee 0A000000 		.4byte	.LVL162
 15272 0bf2 0200     		.2byte	0x2
 15273 0bf4 30       		.byte	0x30
 15274 0bf5 9F       		.byte	0x9f
 15275 0bf6 0A000000 		.4byte	.LVL162
 15276 0bfa 16000000 		.4byte	.LVL164
 15277 0bfe 0800     		.2byte	0x8
 15278 0c00 74       		.byte	0x74
ARM GAS  C:\Users\jo\AppData\Local\Temp\cc6wN9Ut.s 			page 271


 15279 0c01 00       		.sleb128 0
 15280 0c02 91       		.byte	0x91
 15281 0c03 00       		.sleb128 0
 15282 0c04 1C       		.byte	0x1c
 15283 0c05 23       		.byte	0x23
 15284 0c06 40       		.uleb128 0x40
 15285 0c07 9F       		.byte	0x9f
 15286 0c08 00000000 		.4byte	0
 15287 0c0c 00000000 		.4byte	0
 15288              	.LLST43:
 15289 0c10 06000000 		.4byte	.LVL161
 15290 0c14 0A000000 		.4byte	.LVL162
 15291 0c18 0100     		.2byte	0x1
 15292 0c1a 5D       		.byte	0x5d
 15293 0c1b 0A000000 		.4byte	.LVL162
 15294 0c1f 16000000 		.4byte	.LVL164
 15295 0c23 0100     		.2byte	0x1
 15296 0c25 54       		.byte	0x54
 15297 0c26 00000000 		.4byte	0
 15298 0c2a 00000000 		.4byte	0
 15299              	.LLST44:
 15300 0c2e 18000000 		.4byte	.LVL165
 15301 0c32 24000000 		.4byte	.LVL167
 15302 0c36 0800     		.2byte	0x8
 15303 0c38 74       		.byte	0x74
 15304 0c39 00       		.sleb128 0
 15305 0c3a 91       		.byte	0x91
 15306 0c3b 00       		.sleb128 0
 15307 0c3c 1C       		.byte	0x1c
 15308 0c3d 23       		.byte	0x23
 15309 0c3e 38       		.uleb128 0x38
 15310 0c3f 9F       		.byte	0x9f
 15311 0c40 00000000 		.4byte	0
 15312 0c44 00000000 		.4byte	0
 15313              	.LLST45:
 15314 0c48 18000000 		.4byte	.LVL165
 15315 0c4c 24000000 		.4byte	.LVL167
 15316 0c50 0100     		.2byte	0x1
 15317 0c52 54       		.byte	0x54
 15318 0c53 00000000 		.4byte	0
 15319 0c57 00000000 		.4byte	0
 15320              	.LLST46:
 15321 0c5b 26000000 		.4byte	.LVL168
 15322 0c5f 3E000000 		.4byte	.LVL171
 15323 0c63 0800     		.2byte	0x8
 15324 0c65 74       		.byte	0x74
 15325 0c66 00       		.sleb128 0
 15326 0c67 91       		.byte	0x91
 15327 0c68 00       		.sleb128 0
 15328 0c69 1C       		.byte	0x1c
 15329 0c6a 23       		.byte	0x23
 15330 0c6b 30       		.uleb128 0x30
 15331 0c6c 9F       		.byte	0x9f
 15332 0c6d 00000000 		.4byte	0
 15333 0c71 00000000 		.4byte	0
 15334              	.LLST47:
 15335 0c75 26000000 		.4byte	.LVL168
ARM GAS  C:\Users\jo\AppData\Local\Temp\cc6wN9Ut.s 			page 272


 15336 0c79 3E000000 		.4byte	.LVL171
 15337 0c7d 0100     		.2byte	0x1
 15338 0c7f 54       		.byte	0x54
 15339 0c80 00000000 		.4byte	0
 15340 0c84 00000000 		.4byte	0
 15341              	.LLST48:
 15342 0c88 3E000000 		.4byte	.LVL171
 15343 0c8c 4A000000 		.4byte	.LVL172
 15344 0c90 0200     		.2byte	0x2
 15345 0c92 30       		.byte	0x30
 15346 0c93 9F       		.byte	0x9f
 15347 0c94 4A000000 		.4byte	.LVL172
 15348 0c98 F0000000 		.4byte	.LVL180
 15349 0c9c 0100     		.2byte	0x1
 15350 0c9e 5A       		.byte	0x5a
 15351 0c9f 1A010000 		.4byte	.LVL183
 15352 0ca3 26010000 		.4byte	.LVL184
 15353 0ca7 0100     		.2byte	0x1
 15354 0ca9 5A       		.byte	0x5a
 15355 0caa 26010000 		.4byte	.LVL184
 15356 0cae 30010000 		.4byte	.LVL185
 15357 0cb2 0200     		.2byte	0x2
 15358 0cb4 30       		.byte	0x30
 15359 0cb5 9F       		.byte	0x9f
 15360 0cb6 30010000 		.4byte	.LVL185
 15361 0cba 3E010000 		.4byte	.LVL189
 15362 0cbe 0100     		.2byte	0x1
 15363 0cc0 5A       		.byte	0x5a
 15364 0cc1 3E010000 		.4byte	.LVL189
 15365 0cc5 4C010000 		.4byte	.LFE277
 15366 0cc9 0200     		.2byte	0x2
 15367 0ccb 30       		.byte	0x30
 15368 0ccc 9F       		.byte	0x9f
 15369 0ccd 00000000 		.4byte	0
 15370 0cd1 00000000 		.4byte	0
 15371              	.LLST49:
 15372 0cd5 3E000000 		.4byte	.LVL171
 15373 0cd9 4A000000 		.4byte	.LVL172
 15374 0cdd 0200     		.2byte	0x2
 15375 0cdf 30       		.byte	0x30
 15376 0ce0 9F       		.byte	0x9f
 15377 0ce1 4A000000 		.4byte	.LVL172
 15378 0ce5 64000000 		.4byte	.LVL173
 15379 0ce9 0100     		.2byte	0x1
 15380 0ceb 5B       		.byte	0x5b
 15381 0cec 1A010000 		.4byte	.LVL183
 15382 0cf0 26010000 		.4byte	.LVL184
 15383 0cf4 0100     		.2byte	0x1
 15384 0cf6 5B       		.byte	0x5b
 15385 0cf7 26010000 		.4byte	.LVL184
 15386 0cfb 34010000 		.4byte	.LVL186
 15387 0cff 0200     		.2byte	0x2
 15388 0d01 30       		.byte	0x30
 15389 0d02 9F       		.byte	0x9f
 15390 0d03 34010000 		.4byte	.LVL186
 15391 0d07 3E010000 		.4byte	.LVL189
 15392 0d0b 0100     		.2byte	0x1
ARM GAS  C:\Users\jo\AppData\Local\Temp\cc6wN9Ut.s 			page 273


 15393 0d0d 5B       		.byte	0x5b
 15394 0d0e 3E010000 		.4byte	.LVL189
 15395 0d12 4C010000 		.4byte	.LFE277
 15396 0d16 0200     		.2byte	0x2
 15397 0d18 30       		.byte	0x30
 15398 0d19 9F       		.byte	0x9f
 15399 0d1a 00000000 		.4byte	0
 15400 0d1e 00000000 		.4byte	0
 15401              	.LLST50:
 15402 0d22 3E000000 		.4byte	.LVL171
 15403 0d26 4A000000 		.4byte	.LVL172
 15404 0d2a 0200     		.2byte	0x2
 15405 0d2c 30       		.byte	0x30
 15406 0d2d 9F       		.byte	0x9f
 15407 0d2e 4A000000 		.4byte	.LVL172
 15408 0d32 A6000000 		.4byte	.LVL175
 15409 0d36 0100     		.2byte	0x1
 15410 0d38 58       		.byte	0x58
 15411 0d39 1A010000 		.4byte	.LVL183
 15412 0d3d 26010000 		.4byte	.LVL184
 15413 0d41 0100     		.2byte	0x1
 15414 0d43 58       		.byte	0x58
 15415 0d44 26010000 		.4byte	.LVL184
 15416 0d48 38010000 		.4byte	.LVL187
 15417 0d4c 0200     		.2byte	0x2
 15418 0d4e 30       		.byte	0x30
 15419 0d4f 9F       		.byte	0x9f
 15420 0d50 38010000 		.4byte	.LVL187
 15421 0d54 3E010000 		.4byte	.LVL189
 15422 0d58 0100     		.2byte	0x1
 15423 0d5a 58       		.byte	0x58
 15424 0d5b 3E010000 		.4byte	.LVL189
 15425 0d5f 4C010000 		.4byte	.LFE277
 15426 0d63 0200     		.2byte	0x2
 15427 0d65 30       		.byte	0x30
 15428 0d66 9F       		.byte	0x9f
 15429 0d67 00000000 		.4byte	0
 15430 0d6b 00000000 		.4byte	0
 15431              	.LLST51:
 15432 0d6f 3E000000 		.4byte	.LVL171
 15433 0d73 4A000000 		.4byte	.LVL172
 15434 0d77 0200     		.2byte	0x2
 15435 0d79 30       		.byte	0x30
 15436 0d7a 9F       		.byte	0x9f
 15437 0d7b 4A000000 		.4byte	.LVL172
 15438 0d7f CE000000 		.4byte	.LVL177
 15439 0d83 0100     		.2byte	0x1
 15440 0d85 55       		.byte	0x55
 15441 0d86 1A010000 		.4byte	.LVL183
 15442 0d8a 26010000 		.4byte	.LVL184
 15443 0d8e 0100     		.2byte	0x1
 15444 0d90 55       		.byte	0x55
 15445 0d91 26010000 		.4byte	.LVL184
 15446 0d95 3C010000 		.4byte	.LVL188
 15447 0d99 0200     		.2byte	0x2
 15448 0d9b 30       		.byte	0x30
 15449 0d9c 9F       		.byte	0x9f
ARM GAS  C:\Users\jo\AppData\Local\Temp\cc6wN9Ut.s 			page 274


 15450 0d9d 3C010000 		.4byte	.LVL188
 15451 0da1 3E010000 		.4byte	.LVL189
 15452 0da5 0100     		.2byte	0x1
 15453 0da7 55       		.byte	0x55
 15454 0da8 3E010000 		.4byte	.LVL189
 15455 0dac 4C010000 		.4byte	.LFE277
 15456 0db0 0200     		.2byte	0x2
 15457 0db2 30       		.byte	0x30
 15458 0db3 9F       		.byte	0x9f
 15459 0db4 00000000 		.4byte	0
 15460 0db8 00000000 		.4byte	0
 15461              	.LLST52:
 15462 0dbc 3E000000 		.4byte	.LVL171
 15463 0dc0 E8000000 		.4byte	.LVL179
 15464 0dc4 0100     		.2byte	0x1
 15465 0dc6 54       		.byte	0x54
 15466 0dc7 E8000000 		.4byte	.LVL179
 15467 0dcb F0000000 		.4byte	.LVL180
 15468 0dcf 0300     		.2byte	0x3
 15469 0dd1 74       		.byte	0x74
 15470 0dd2 7F       		.sleb128 -1
 15471 0dd3 9F       		.byte	0x9f
 15472 0dd4 1A010000 		.4byte	.LVL183
 15473 0dd8 4C010000 		.4byte	.LFE277
 15474 0ddc 0100     		.2byte	0x1
 15475 0dde 54       		.byte	0x54
 15476 0ddf 00000000 		.4byte	0
 15477 0de3 00000000 		.4byte	0
 15478              	.LLST53:
 15479 0de7 00000000 		.4byte	.LVL190
 15480 0deb 18000000 		.4byte	.LVL193
 15481 0def 0100     		.2byte	0x1
 15482 0df1 50       		.byte	0x50
 15483 0df2 18000000 		.4byte	.LVL193
 15484 0df6 1E000000 		.4byte	.LVL194
 15485 0dfa 0400     		.2byte	0x4
 15486 0dfc F3       		.byte	0xf3
 15487 0dfd 01       		.uleb128 0x1
 15488 0dfe 50       		.byte	0x50
 15489 0dff 9F       		.byte	0x9f
 15490 0e00 1E000000 		.4byte	.LVL194
 15491 0e04 44000000 		.4byte	.LVL196
 15492 0e08 0100     		.2byte	0x1
 15493 0e0a 50       		.byte	0x50
 15494 0e0b 44000000 		.4byte	.LVL196
 15495 0e0f C6000000 		.4byte	.LVL205
 15496 0e13 0400     		.2byte	0x4
 15497 0e15 F3       		.byte	0xf3
 15498 0e16 01       		.uleb128 0x1
 15499 0e17 50       		.byte	0x50
 15500 0e18 9F       		.byte	0x9f
 15501 0e19 C6000000 		.4byte	.LVL205
 15502 0e1d FA000000 		.4byte	.LVL213
 15503 0e21 0100     		.2byte	0x1
 15504 0e23 50       		.byte	0x50
 15505 0e24 FA000000 		.4byte	.LVL213
 15506 0e28 02010000 		.4byte	.LVL214
ARM GAS  C:\Users\jo\AppData\Local\Temp\cc6wN9Ut.s 			page 275


 15507 0e2c 0400     		.2byte	0x4
 15508 0e2e F3       		.byte	0xf3
 15509 0e2f 01       		.uleb128 0x1
 15510 0e30 50       		.byte	0x50
 15511 0e31 9F       		.byte	0x9f
 15512 0e32 02010000 		.4byte	.LVL214
 15513 0e36 0C010000 		.4byte	.LVL217
 15514 0e3a 0100     		.2byte	0x1
 15515 0e3c 50       		.byte	0x50
 15516 0e3d 0C010000 		.4byte	.LVL217
 15517 0e41 1C010000 		.4byte	.LVL220
 15518 0e45 0400     		.2byte	0x4
 15519 0e47 F3       		.byte	0xf3
 15520 0e48 01       		.uleb128 0x1
 15521 0e49 50       		.byte	0x50
 15522 0e4a 9F       		.byte	0x9f
 15523 0e4b 1C010000 		.4byte	.LVL220
 15524 0e4f 48010000 		.4byte	.LFE279
 15525 0e53 0100     		.2byte	0x1
 15526 0e55 50       		.byte	0x50
 15527 0e56 00000000 		.4byte	0
 15528 0e5a 00000000 		.4byte	0
 15529              	.LLST54:
 15530 0e5e 00000000 		.4byte	.LVL190
 15531 0e62 18000000 		.4byte	.LVL193
 15532 0e66 0100     		.2byte	0x1
 15533 0e68 51       		.byte	0x51
 15534 0e69 18000000 		.4byte	.LVL193
 15535 0e6d 1E000000 		.4byte	.LVL194
 15536 0e71 0400     		.2byte	0x4
 15537 0e73 F3       		.byte	0xf3
 15538 0e74 01       		.uleb128 0x1
 15539 0e75 51       		.byte	0x51
 15540 0e76 9F       		.byte	0x9f
 15541 0e77 1E000000 		.4byte	.LVL194
 15542 0e7b 44000000 		.4byte	.LVL196
 15543 0e7f 0100     		.2byte	0x1
 15544 0e81 51       		.byte	0x51
 15545 0e82 44000000 		.4byte	.LVL196
 15546 0e86 C6000000 		.4byte	.LVL205
 15547 0e8a 0400     		.2byte	0x4
 15548 0e8c F3       		.byte	0xf3
 15549 0e8d 01       		.uleb128 0x1
 15550 0e8e 51       		.byte	0x51
 15551 0e8f 9F       		.byte	0x9f
 15552 0e90 C6000000 		.4byte	.LVL205
 15553 0e94 FA000000 		.4byte	.LVL213
 15554 0e98 0100     		.2byte	0x1
 15555 0e9a 51       		.byte	0x51
 15556 0e9b FA000000 		.4byte	.LVL213
 15557 0e9f 02010000 		.4byte	.LVL214
 15558 0ea3 0400     		.2byte	0x4
 15559 0ea5 F3       		.byte	0xf3
 15560 0ea6 01       		.uleb128 0x1
 15561 0ea7 51       		.byte	0x51
 15562 0ea8 9F       		.byte	0x9f
 15563 0ea9 02010000 		.4byte	.LVL214
ARM GAS  C:\Users\jo\AppData\Local\Temp\cc6wN9Ut.s 			page 276


 15564 0ead 08010000 		.4byte	.LVL215
 15565 0eb1 0100     		.2byte	0x1
 15566 0eb3 51       		.byte	0x51
 15567 0eb4 08010000 		.4byte	.LVL215
 15568 0eb8 1C010000 		.4byte	.LVL220
 15569 0ebc 0400     		.2byte	0x4
 15570 0ebe F3       		.byte	0xf3
 15571 0ebf 01       		.uleb128 0x1
 15572 0ec0 51       		.byte	0x51
 15573 0ec1 9F       		.byte	0x9f
 15574 0ec2 1C010000 		.4byte	.LVL220
 15575 0ec6 48010000 		.4byte	.LFE279
 15576 0eca 0100     		.2byte	0x1
 15577 0ecc 51       		.byte	0x51
 15578 0ecd 00000000 		.4byte	0
 15579 0ed1 00000000 		.4byte	0
 15580              	.LLST55:
 15581 0ed5 00000000 		.4byte	.LVL190
 15582 0ed9 18000000 		.4byte	.LVL193
 15583 0edd 0100     		.2byte	0x1
 15584 0edf 52       		.byte	0x52
 15585 0ee0 18000000 		.4byte	.LVL193
 15586 0ee4 1E000000 		.4byte	.LVL194
 15587 0ee8 0400     		.2byte	0x4
 15588 0eea F3       		.byte	0xf3
 15589 0eeb 01       		.uleb128 0x1
 15590 0eec 52       		.byte	0x52
 15591 0eed 9F       		.byte	0x9f
 15592 0eee 1E000000 		.4byte	.LVL194
 15593 0ef2 42000000 		.4byte	.LVL195
 15594 0ef6 0100     		.2byte	0x1
 15595 0ef8 52       		.byte	0x52
 15596 0ef9 42000000 		.4byte	.LVL195
 15597 0efd C6000000 		.4byte	.LVL205
 15598 0f01 0400     		.2byte	0x4
 15599 0f03 F3       		.byte	0xf3
 15600 0f04 01       		.uleb128 0x1
 15601 0f05 52       		.byte	0x52
 15602 0f06 9F       		.byte	0x9f
 15603 0f07 C6000000 		.4byte	.LVL205
 15604 0f0b CE000000 		.4byte	.LVL206
 15605 0f0f 0100     		.2byte	0x1
 15606 0f11 52       		.byte	0x52
 15607 0f12 CE000000 		.4byte	.LVL206
 15608 0f16 D4000000 		.4byte	.LVL207
 15609 0f1a 0400     		.2byte	0x4
 15610 0f1c F3       		.byte	0xf3
 15611 0f1d 01       		.uleb128 0x1
 15612 0f1e 52       		.byte	0x52
 15613 0f1f 9F       		.byte	0x9f
 15614 0f20 D4000000 		.4byte	.LVL207
 15615 0f24 DC000000 		.4byte	.LVL208
 15616 0f28 0100     		.2byte	0x1
 15617 0f2a 52       		.byte	0x52
 15618 0f2b DC000000 		.4byte	.LVL208
 15619 0f2f E0000000 		.4byte	.LVL209
 15620 0f33 0400     		.2byte	0x4
ARM GAS  C:\Users\jo\AppData\Local\Temp\cc6wN9Ut.s 			page 277


 15621 0f35 F3       		.byte	0xf3
 15622 0f36 01       		.uleb128 0x1
 15623 0f37 52       		.byte	0x52
 15624 0f38 9F       		.byte	0x9f
 15625 0f39 E0000000 		.4byte	.LVL209
 15626 0f3d E8000000 		.4byte	.LVL210
 15627 0f41 0100     		.2byte	0x1
 15628 0f43 52       		.byte	0x52
 15629 0f44 E8000000 		.4byte	.LVL210
 15630 0f48 EC000000 		.4byte	.LVL211
 15631 0f4c 0400     		.2byte	0x4
 15632 0f4e F3       		.byte	0xf3
 15633 0f4f 01       		.uleb128 0x1
 15634 0f50 52       		.byte	0x52
 15635 0f51 9F       		.byte	0x9f
 15636 0f52 EC000000 		.4byte	.LVL211
 15637 0f56 F4000000 		.4byte	.LVL212
 15638 0f5a 0100     		.2byte	0x1
 15639 0f5c 52       		.byte	0x52
 15640 0f5d F4000000 		.4byte	.LVL212
 15641 0f61 02010000 		.4byte	.LVL214
 15642 0f65 0400     		.2byte	0x4
 15643 0f67 F3       		.byte	0xf3
 15644 0f68 01       		.uleb128 0x1
 15645 0f69 52       		.byte	0x52
 15646 0f6a 9F       		.byte	0x9f
 15647 0f6b 02010000 		.4byte	.LVL214
 15648 0f6f 0A010000 		.4byte	.LVL216
 15649 0f73 0100     		.2byte	0x1
 15650 0f75 52       		.byte	0x52
 15651 0f76 0A010000 		.4byte	.LVL216
 15652 0f7a 1C010000 		.4byte	.LVL220
 15653 0f7e 0400     		.2byte	0x4
 15654 0f80 F3       		.byte	0xf3
 15655 0f81 01       		.uleb128 0x1
 15656 0f82 52       		.byte	0x52
 15657 0f83 9F       		.byte	0x9f
 15658 0f84 1C010000 		.4byte	.LVL220
 15659 0f88 48010000 		.4byte	.LFE279
 15660 0f8c 0100     		.2byte	0x1
 15661 0f8e 52       		.byte	0x52
 15662 0f8f 00000000 		.4byte	0
 15663 0f93 00000000 		.4byte	0
 15664              	.LLST56:
 15665 0f97 0C000000 		.4byte	.LVL191
 15666 0f9b 18000000 		.4byte	.LVL193
 15667 0f9f 0100     		.2byte	0x1
 15668 0fa1 55       		.byte	0x55
 15669 0fa2 1E000000 		.4byte	.LVL194
 15670 0fa6 5C000000 		.4byte	.LVL197
 15671 0faa 0100     		.2byte	0x1
 15672 0fac 55       		.byte	0x55
 15673 0fad C6000000 		.4byte	.LVL205
 15674 0fb1 FA000000 		.4byte	.LVL213
 15675 0fb5 0100     		.2byte	0x1
 15676 0fb7 55       		.byte	0x55
 15677 0fb8 02010000 		.4byte	.LVL214
ARM GAS  C:\Users\jo\AppData\Local\Temp\cc6wN9Ut.s 			page 278


 15678 0fbc 1C010000 		.4byte	.LVL220
 15679 0fc0 0100     		.2byte	0x1
 15680 0fc2 55       		.byte	0x55
 15681 0fc3 1E010000 		.4byte	.LVL221
 15682 0fc7 26010000 		.4byte	.LVL222
 15683 0fcb 0100     		.2byte	0x1
 15684 0fcd 55       		.byte	0x55
 15685 0fce 26010000 		.4byte	.LVL222
 15686 0fd2 28010000 		.4byte	.LVL223
 15687 0fd6 0200     		.2byte	0x2
 15688 0fd8 70       		.byte	0x70
 15689 0fd9 18       		.sleb128 24
 15690 0fda 28010000 		.4byte	.LVL223
 15691 0fde 48010000 		.4byte	.LFE279
 15692 0fe2 0300     		.2byte	0x3
 15693 0fe4 75       		.byte	0x75
 15694 0fe5 01       		.sleb128 1
 15695 0fe6 9F       		.byte	0x9f
 15696 0fe7 00000000 		.4byte	0
 15697 0feb 00000000 		.4byte	0
 15698              	.LLST57:
 15699 0fef 60000000 		.4byte	.LVL198
 15700 0ff3 C6000000 		.4byte	.LVL205
 15701 0ff7 0100     		.2byte	0x1
 15702 0ff9 54       		.byte	0x54
 15703 0ffa FA000000 		.4byte	.LVL213
 15704 0ffe 02010000 		.4byte	.LVL214
 15705 1002 0100     		.2byte	0x1
 15706 1004 54       		.byte	0x54
 15707 1005 00000000 		.4byte	0
 15708 1009 00000000 		.4byte	0
 15709              	.LLST58:
 15710 100d 68000000 		.4byte	.LVL199
 15711 1011 80000000 		.4byte	.LVL202
 15712 1015 0100     		.2byte	0x1
 15713 1017 56       		.byte	0x56
 15714 1018 84000000 		.4byte	.LVL203
 15715 101c C6000000 		.4byte	.LVL205
 15716 1020 0100     		.2byte	0x1
 15717 1022 56       		.byte	0x56
 15718 1023 FA000000 		.4byte	.LVL213
 15719 1027 02010000 		.4byte	.LVL214
 15720 102b 0100     		.2byte	0x1
 15721 102d 56       		.byte	0x56
 15722 102e 00000000 		.4byte	0
 15723 1032 00000000 		.4byte	0
 15724              	.LLST59:
 15725 1036 14000000 		.4byte	.LVL192
 15726 103a 18000000 		.4byte	.LVL193
 15727 103e 0100     		.2byte	0x1
 15728 1040 55       		.byte	0x55
 15729 1041 1E000000 		.4byte	.LVL194
 15730 1045 5C000000 		.4byte	.LVL197
 15731 1049 0100     		.2byte	0x1
 15732 104b 55       		.byte	0x55
 15733 104c C6000000 		.4byte	.LVL205
 15734 1050 FA000000 		.4byte	.LVL213
ARM GAS  C:\Users\jo\AppData\Local\Temp\cc6wN9Ut.s 			page 279


 15735 1054 0100     		.2byte	0x1
 15736 1056 55       		.byte	0x55
 15737 1057 02010000 		.4byte	.LVL214
 15738 105b 1C010000 		.4byte	.LVL220
 15739 105f 0100     		.2byte	0x1
 15740 1061 55       		.byte	0x55
 15741 1062 00000000 		.4byte	0
 15742 1066 00000000 		.4byte	0
 15743              	.LLST60:
 15744 106a 1E000000 		.4byte	.LVL194
 15745 106e 5C000000 		.4byte	.LVL197
 15746 1072 0B00     		.2byte	0xb
 15747 1074 75       		.byte	0x75
 15748 1075 00       		.sleb128 0
 15749 1076 48       		.byte	0x48
 15750 1077 1E       		.byte	0x1e
 15751 1078 03       		.byte	0x3
 15752 1079 00000000 		.4byte	sockets
 15753 107d 22       		.byte	0x22
 15754 107e 9F       		.byte	0x9f
 15755 107f C6000000 		.4byte	.LVL205
 15756 1083 FA000000 		.4byte	.LVL213
 15757 1087 0B00     		.2byte	0xb
 15758 1089 75       		.byte	0x75
 15759 108a 00       		.sleb128 0
 15760 108b 48       		.byte	0x48
 15761 108c 1E       		.byte	0x1e
 15762 108d 03       		.byte	0x3
 15763 108e 00000000 		.4byte	sockets
 15764 1092 22       		.byte	0x22
 15765 1093 9F       		.byte	0x9f
 15766 1094 02010000 		.4byte	.LVL214
 15767 1098 1C010000 		.4byte	.LVL220
 15768 109c 0B00     		.2byte	0xb
 15769 109e 75       		.byte	0x75
 15770 109f 00       		.sleb128 0
 15771 10a0 48       		.byte	0x48
 15772 10a1 1E       		.byte	0x1e
 15773 10a2 03       		.byte	0x3
 15774 10a3 00000000 		.4byte	sockets
 15775 10a7 22       		.byte	0x22
 15776 10a8 9F       		.byte	0x9f
 15777 10a9 00000000 		.4byte	0
 15778 10ad 00000000 		.4byte	0
 15779              	.LLST61:
 15780 10b1 88000000 		.4byte	.LVL204
 15781 10b5 C6000000 		.4byte	.LVL205
 15782 10b9 0200     		.2byte	0x2
 15783 10bb 30       		.byte	0x30
 15784 10bc 9F       		.byte	0x9f
 15785 10bd FA000000 		.4byte	.LVL213
 15786 10c1 02010000 		.4byte	.LVL214
 15787 10c5 0200     		.2byte	0x2
 15788 10c7 30       		.byte	0x30
 15789 10c8 9F       		.byte	0x9f
 15790 10c9 00000000 		.4byte	0
 15791 10cd 00000000 		.4byte	0
ARM GAS  C:\Users\jo\AppData\Local\Temp\cc6wN9Ut.s 			page 280


 15792              	.LLST62:
 15793 10d1 14010000 		.4byte	.LVL218
 15794 10d5 1C010000 		.4byte	.LVL220
 15795 10d9 0600     		.2byte	0x6
 15796 10db 03       		.byte	0x3
 15797 10dc 7C000000 		.4byte	.LC5
 15798 10e0 9F       		.byte	0x9f
 15799 10e1 00000000 		.4byte	0
 15800 10e5 00000000 		.4byte	0
 15801              	.LLST63:
 15802 10e9 00000000 		.4byte	.LVL224
 15803 10ed 0A000000 		.4byte	.LVL226
 15804 10f1 0100     		.2byte	0x1
 15805 10f3 50       		.byte	0x50
 15806 10f4 0A000000 		.4byte	.LVL226
 15807 10f8 0C000000 		.4byte	.LVL227
 15808 10fc 0100     		.2byte	0x1
 15809 10fe 53       		.byte	0x53
 15810 10ff 0C000000 		.4byte	.LVL227
 15811 1103 1E000000 		.4byte	.LVL228
 15812 1107 0100     		.2byte	0x1
 15813 1109 50       		.byte	0x50
 15814 110a 1E000000 		.4byte	.LVL228
 15815 110e 43000000 		.4byte	.LVL230-1
 15816 1112 0100     		.2byte	0x1
 15817 1114 53       		.byte	0x53
 15818 1115 43000000 		.4byte	.LVL230-1
 15819 1119 5E000000 		.4byte	.LVL232
 15820 111d 0100     		.2byte	0x1
 15821 111f 56       		.byte	0x56
 15822 1120 5E000000 		.4byte	.LVL232
 15823 1124 64000000 		.4byte	.LVL233
 15824 1128 0400     		.2byte	0x4
 15825 112a F3       		.byte	0xf3
 15826 112b 01       		.uleb128 0x1
 15827 112c 50       		.byte	0x50
 15828 112d 9F       		.byte	0x9f
 15829 112e 64000000 		.4byte	.LVL233
 15830 1132 2E010000 		.4byte	.LVL248
 15831 1136 0100     		.2byte	0x1
 15832 1138 56       		.byte	0x56
 15833 1139 2E010000 		.4byte	.LVL248
 15834 113d 3C010000 		.4byte	.LVL249
 15835 1141 0400     		.2byte	0x4
 15836 1143 F3       		.byte	0xf3
 15837 1144 01       		.uleb128 0x1
 15838 1145 50       		.byte	0x50
 15839 1146 9F       		.byte	0x9f
 15840 1147 3C010000 		.4byte	.LVL249
 15841 114b 42010000 		.4byte	.LVL250
 15842 114f 0100     		.2byte	0x1
 15843 1151 53       		.byte	0x53
 15844 1152 42010000 		.4byte	.LVL250
 15845 1156 78010000 		.4byte	.LVL257
 15846 115a 0100     		.2byte	0x1
 15847 115c 56       		.byte	0x56
 15848 115d 78010000 		.4byte	.LVL257
ARM GAS  C:\Users\jo\AppData\Local\Temp\cc6wN9Ut.s 			page 281


 15849 1161 7A010000 		.4byte	.LVL258
 15850 1165 0100     		.2byte	0x1
 15851 1167 53       		.byte	0x53
 15852 1168 7A010000 		.4byte	.LVL258
 15853 116c 82010000 		.4byte	.LVL259
 15854 1170 0400     		.2byte	0x4
 15855 1172 F3       		.byte	0xf3
 15856 1173 01       		.uleb128 0x1
 15857 1174 50       		.byte	0x50
 15858 1175 9F       		.byte	0x9f
 15859 1176 82010000 		.4byte	.LVL259
 15860 117a F8010000 		.4byte	.LFE265
 15861 117e 0100     		.2byte	0x1
 15862 1180 56       		.byte	0x56
 15863 1181 00000000 		.4byte	0
 15864 1185 00000000 		.4byte	0
 15865              	.LLST64:
 15866 1189 00000000 		.4byte	.LVL224
 15867 118d 3C000000 		.4byte	.LVL229
 15868 1191 0100     		.2byte	0x1
 15869 1193 51       		.byte	0x51
 15870 1194 3C000000 		.4byte	.LVL229
 15871 1198 5E000000 		.4byte	.LVL232
 15872 119c 0100     		.2byte	0x1
 15873 119e 55       		.byte	0x55
 15874 119f 5E000000 		.4byte	.LVL232
 15875 11a3 64000000 		.4byte	.LVL233
 15876 11a7 0400     		.2byte	0x4
 15877 11a9 F3       		.byte	0xf3
 15878 11aa 01       		.uleb128 0x1
 15879 11ab 51       		.byte	0x51
 15880 11ac 9F       		.byte	0x9f
 15881 11ad 64000000 		.4byte	.LVL233
 15882 11b1 F2000000 		.4byte	.LVL244
 15883 11b5 0100     		.2byte	0x1
 15884 11b7 55       		.byte	0x55
 15885 11b8 F2000000 		.4byte	.LVL244
 15886 11bc 3C010000 		.4byte	.LVL249
 15887 11c0 0400     		.2byte	0x4
 15888 11c2 F3       		.byte	0xf3
 15889 11c3 01       		.uleb128 0x1
 15890 11c4 51       		.byte	0x51
 15891 11c5 9F       		.byte	0x9f
 15892 11c6 3C010000 		.4byte	.LVL249
 15893 11ca 42010000 		.4byte	.LVL250
 15894 11ce 0100     		.2byte	0x1
 15895 11d0 51       		.byte	0x51
 15896 11d1 42010000 		.4byte	.LVL250
 15897 11d5 78010000 		.4byte	.LVL257
 15898 11d9 0100     		.2byte	0x1
 15899 11db 55       		.byte	0x55
 15900 11dc 78010000 		.4byte	.LVL257
 15901 11e0 82010000 		.4byte	.LVL259
 15902 11e4 0100     		.2byte	0x1
 15903 11e6 51       		.byte	0x51
 15904 11e7 82010000 		.4byte	.LVL259
 15905 11eb F8010000 		.4byte	.LFE265
ARM GAS  C:\Users\jo\AppData\Local\Temp\cc6wN9Ut.s 			page 282


 15906 11ef 0100     		.2byte	0x1
 15907 11f1 55       		.byte	0x55
 15908 11f2 00000000 		.4byte	0
 15909 11f6 00000000 		.4byte	0
 15910              	.LLST65:
 15911 11fa 00000000 		.4byte	.LVL224
 15912 11fe 43000000 		.4byte	.LVL230-1
 15913 1202 0100     		.2byte	0x1
 15914 1204 52       		.byte	0x52
 15915 1205 43000000 		.4byte	.LVL230-1
 15916 1209 5E000000 		.4byte	.LVL232
 15917 120d 0100     		.2byte	0x1
 15918 120f 54       		.byte	0x54
 15919 1210 5E000000 		.4byte	.LVL232
 15920 1214 64000000 		.4byte	.LVL233
 15921 1218 0400     		.2byte	0x4
 15922 121a F3       		.byte	0xf3
 15923 121b 01       		.uleb128 0x1
 15924 121c 52       		.byte	0x52
 15925 121d 9F       		.byte	0x9f
 15926 121e 64000000 		.4byte	.LVL233
 15927 1222 D2000000 		.4byte	.LVL240
 15928 1226 0100     		.2byte	0x1
 15929 1228 54       		.byte	0x54
 15930 1229 D2000000 		.4byte	.LVL240
 15931 122d 3C010000 		.4byte	.LVL249
 15932 1231 0400     		.2byte	0x4
 15933 1233 F3       		.byte	0xf3
 15934 1234 01       		.uleb128 0x1
 15935 1235 52       		.byte	0x52
 15936 1236 9F       		.byte	0x9f
 15937 1237 3C010000 		.4byte	.LVL249
 15938 123b 42010000 		.4byte	.LVL250
 15939 123f 0100     		.2byte	0x1
 15940 1241 52       		.byte	0x52
 15941 1242 42010000 		.4byte	.LVL250
 15942 1246 78010000 		.4byte	.LVL257
 15943 124a 0100     		.2byte	0x1
 15944 124c 54       		.byte	0x54
 15945 124d 78010000 		.4byte	.LVL257
 15946 1251 82010000 		.4byte	.LVL259
 15947 1255 0100     		.2byte	0x1
 15948 1257 52       		.byte	0x52
 15949 1258 82010000 		.4byte	.LVL259
 15950 125c BA010000 		.4byte	.LVL264
 15951 1260 0100     		.2byte	0x1
 15952 1262 54       		.byte	0x54
 15953 1263 BA010000 		.4byte	.LVL264
 15954 1267 F8010000 		.4byte	.LFE265
 15955 126b 0400     		.2byte	0x4
 15956 126d F3       		.byte	0xf3
 15957 126e 01       		.uleb128 0x1
 15958 126f 52       		.byte	0x52
 15959 1270 9F       		.byte	0x9f
 15960 1271 00000000 		.4byte	0
 15961 1275 00000000 		.4byte	0
 15962              	.LLST66:
ARM GAS  C:\Users\jo\AppData\Local\Temp\cc6wN9Ut.s 			page 283


 15963 1279 14010000 		.4byte	.LVL247
 15964 127d 3C010000 		.4byte	.LVL249
 15965 1281 0B00     		.2byte	0xb
 15966 1283 74       		.byte	0x74
 15967 1284 00       		.sleb128 0
 15968 1285 48       		.byte	0x48
 15969 1286 1E       		.byte	0x1e
 15970 1287 03       		.byte	0x3
 15971 1288 00000000 		.4byte	sockets
 15972 128c 22       		.byte	0x22
 15973 128d 9F       		.byte	0x9f
 15974 128e 00000000 		.4byte	0
 15975 1292 00000000 		.4byte	0
 15976              	.LLST67:
 15977 1296 D2000000 		.4byte	.LVL240
 15978 129a DE000000 		.4byte	.LVL241
 15979 129e 0100     		.2byte	0x1
 15980 12a0 50       		.byte	0x50
 15981 12a1 DE000000 		.4byte	.LVL241
 15982 12a5 3C010000 		.4byte	.LVL249
 15983 12a9 0100     		.2byte	0x1
 15984 12ab 54       		.byte	0x54
 15985 12ac BA010000 		.4byte	.LVL264
 15986 12b0 BC010000 		.4byte	.LVL265
 15987 12b4 0100     		.2byte	0x1
 15988 12b6 50       		.byte	0x50
 15989 12b7 BC010000 		.4byte	.LVL265
 15990 12bb F8010000 		.4byte	.LFE265
 15991 12bf 0100     		.2byte	0x1
 15992 12c1 54       		.byte	0x54
 15993 12c2 00000000 		.4byte	0
 15994 12c6 00000000 		.4byte	0
 15995              	.LLST68:
 15996 12ca 44000000 		.4byte	.LVL230
 15997 12ce 5C000000 		.4byte	.LVL231
 15998 12d2 0100     		.2byte	0x1
 15999 12d4 50       		.byte	0x50
 16000 12d5 64000000 		.4byte	.LVL233
 16001 12d9 66000000 		.4byte	.LVL234
 16002 12dd 0100     		.2byte	0x1
 16003 12df 50       		.byte	0x50
 16004 12e0 7E000000 		.4byte	.LVL235
 16005 12e4 8A000000 		.4byte	.LVL236
 16006 12e8 0100     		.2byte	0x1
 16007 12ea 50       		.byte	0x50
 16008 12eb 5E010000 		.4byte	.LVL253
 16009 12ef 68010000 		.4byte	.LVL254
 16010 12f3 0100     		.2byte	0x1
 16011 12f5 50       		.byte	0x50
 16012 12f6 82010000 		.4byte	.LVL259
 16013 12fa 84010000 		.4byte	.LVL260
 16014 12fe 0100     		.2byte	0x1
 16015 1300 50       		.byte	0x50
 16016 1301 AC010000 		.4byte	.LVL262
 16017 1305 AE010000 		.4byte	.LVL263
 16018 1309 0100     		.2byte	0x1
 16019 130b 50       		.byte	0x50
ARM GAS  C:\Users\jo\AppData\Local\Temp\cc6wN9Ut.s 			page 284


 16020 130c 00000000 		.4byte	0
 16021 1310 00000000 		.4byte	0
 16022              	.LLST69:
 16023 1314 04000000 		.4byte	.LVL225
 16024 1318 0A000000 		.4byte	.LVL226
 16025 131c 0100     		.2byte	0x1
 16026 131e 50       		.byte	0x50
 16027 131f 0A000000 		.4byte	.LVL226
 16028 1323 0C000000 		.4byte	.LVL227
 16029 1327 0100     		.2byte	0x1
 16030 1329 53       		.byte	0x53
 16031 132a 0C000000 		.4byte	.LVL227
 16032 132e 1E000000 		.4byte	.LVL228
 16033 1332 0100     		.2byte	0x1
 16034 1334 50       		.byte	0x50
 16035 1335 1E000000 		.4byte	.LVL228
 16036 1339 43000000 		.4byte	.LVL230-1
 16037 133d 0100     		.2byte	0x1
 16038 133f 53       		.byte	0x53
 16039 1340 43000000 		.4byte	.LVL230-1
 16040 1344 5E000000 		.4byte	.LVL232
 16041 1348 0100     		.2byte	0x1
 16042 134a 56       		.byte	0x56
 16043 134b 5E000000 		.4byte	.LVL232
 16044 134f 64000000 		.4byte	.LVL233
 16045 1353 0400     		.2byte	0x4
 16046 1355 F3       		.byte	0xf3
 16047 1356 01       		.uleb128 0x1
 16048 1357 50       		.byte	0x50
 16049 1358 9F       		.byte	0x9f
 16050 1359 64000000 		.4byte	.LVL233
 16051 135d 2E010000 		.4byte	.LVL248
 16052 1361 0100     		.2byte	0x1
 16053 1363 56       		.byte	0x56
 16054 1364 2E010000 		.4byte	.LVL248
 16055 1368 3C010000 		.4byte	.LVL249
 16056 136c 0400     		.2byte	0x4
 16057 136e F3       		.byte	0xf3
 16058 136f 01       		.uleb128 0x1
 16059 1370 50       		.byte	0x50
 16060 1371 9F       		.byte	0x9f
 16061 1372 3C010000 		.4byte	.LVL249
 16062 1376 42010000 		.4byte	.LVL250
 16063 137a 0100     		.2byte	0x1
 16064 137c 53       		.byte	0x53
 16065 137d 42010000 		.4byte	.LVL250
 16066 1381 78010000 		.4byte	.LVL257
 16067 1385 0100     		.2byte	0x1
 16068 1387 56       		.byte	0x56
 16069 1388 78010000 		.4byte	.LVL257
 16070 138c 7A010000 		.4byte	.LVL258
 16071 1390 0100     		.2byte	0x1
 16072 1392 53       		.byte	0x53
 16073 1393 7A010000 		.4byte	.LVL258
 16074 1397 82010000 		.4byte	.LVL259
 16075 139b 0400     		.2byte	0x4
 16076 139d F3       		.byte	0xf3
ARM GAS  C:\Users\jo\AppData\Local\Temp\cc6wN9Ut.s 			page 285


 16077 139e 01       		.uleb128 0x1
 16078 139f 50       		.byte	0x50
 16079 13a0 9F       		.byte	0x9f
 16080 13a1 82010000 		.4byte	.LVL259
 16081 13a5 F8010000 		.4byte	.LFE265
 16082 13a9 0100     		.2byte	0x1
 16083 13ab 56       		.byte	0x56
 16084 13ac 00000000 		.4byte	0
 16085 13b0 00000000 		.4byte	0
 16086              	.LLST70:
 16087 13b4 0C000000 		.4byte	.LVL227
 16088 13b8 1E000000 		.4byte	.LVL228
 16089 13bc 0B00     		.2byte	0xb
 16090 13be 70       		.byte	0x70
 16091 13bf 00       		.sleb128 0
 16092 13c0 48       		.byte	0x48
 16093 13c1 1E       		.byte	0x1e
 16094 13c2 03       		.byte	0x3
 16095 13c3 00000000 		.4byte	sockets
 16096 13c7 22       		.byte	0x22
 16097 13c8 9F       		.byte	0x9f
 16098 13c9 1E000000 		.4byte	.LVL228
 16099 13cd 43000000 		.4byte	.LVL230-1
 16100 13d1 0B00     		.2byte	0xb
 16101 13d3 73       		.byte	0x73
 16102 13d4 00       		.sleb128 0
 16103 13d5 48       		.byte	0x48
 16104 13d6 1E       		.byte	0x1e
 16105 13d7 03       		.byte	0x3
 16106 13d8 00000000 		.4byte	sockets
 16107 13dc 22       		.byte	0x22
 16108 13dd 9F       		.byte	0x9f
 16109 13de 43000000 		.4byte	.LVL230-1
 16110 13e2 5E000000 		.4byte	.LVL232
 16111 13e6 0B00     		.2byte	0xb
 16112 13e8 76       		.byte	0x76
 16113 13e9 00       		.sleb128 0
 16114 13ea 48       		.byte	0x48
 16115 13eb 1E       		.byte	0x1e
 16116 13ec 03       		.byte	0x3
 16117 13ed 00000000 		.4byte	sockets
 16118 13f1 22       		.byte	0x22
 16119 13f2 9F       		.byte	0x9f
 16120 13f3 5E000000 		.4byte	.LVL232
 16121 13f7 64000000 		.4byte	.LVL233
 16122 13fb 0C00     		.2byte	0xc
 16123 13fd F3       		.byte	0xf3
 16124 13fe 01       		.uleb128 0x1
 16125 13ff 50       		.byte	0x50
 16126 1400 48       		.byte	0x48
 16127 1401 1E       		.byte	0x1e
 16128 1402 03       		.byte	0x3
 16129 1403 00000000 		.4byte	sockets
 16130 1407 22       		.byte	0x22
 16131 1408 9F       		.byte	0x9f
 16132 1409 64000000 		.4byte	.LVL233
 16133 140d 2E010000 		.4byte	.LVL248
ARM GAS  C:\Users\jo\AppData\Local\Temp\cc6wN9Ut.s 			page 286


 16134 1411 0B00     		.2byte	0xb
 16135 1413 76       		.byte	0x76
 16136 1414 00       		.sleb128 0
 16137 1415 48       		.byte	0x48
 16138 1416 1E       		.byte	0x1e
 16139 1417 03       		.byte	0x3
 16140 1418 00000000 		.4byte	sockets
 16141 141c 22       		.byte	0x22
 16142 141d 9F       		.byte	0x9f
 16143 141e 2E010000 		.4byte	.LVL248
 16144 1422 3C010000 		.4byte	.LVL249
 16145 1426 0C00     		.2byte	0xc
 16146 1428 F3       		.byte	0xf3
 16147 1429 01       		.uleb128 0x1
 16148 142a 50       		.byte	0x50
 16149 142b 48       		.byte	0x48
 16150 142c 1E       		.byte	0x1e
 16151 142d 03       		.byte	0x3
 16152 142e 00000000 		.4byte	sockets
 16153 1432 22       		.byte	0x22
 16154 1433 9F       		.byte	0x9f
 16155 1434 3C010000 		.4byte	.LVL249
 16156 1438 42010000 		.4byte	.LVL250
 16157 143c 0B00     		.2byte	0xb
 16158 143e 73       		.byte	0x73
 16159 143f 00       		.sleb128 0
 16160 1440 48       		.byte	0x48
 16161 1441 1E       		.byte	0x1e
 16162 1442 03       		.byte	0x3
 16163 1443 00000000 		.4byte	sockets
 16164 1447 22       		.byte	0x22
 16165 1448 9F       		.byte	0x9f
 16166 1449 42010000 		.4byte	.LVL250
 16167 144d 78010000 		.4byte	.LVL257
 16168 1451 0B00     		.2byte	0xb
 16169 1453 76       		.byte	0x76
 16170 1454 00       		.sleb128 0
 16171 1455 48       		.byte	0x48
 16172 1456 1E       		.byte	0x1e
 16173 1457 03       		.byte	0x3
 16174 1458 00000000 		.4byte	sockets
 16175 145c 22       		.byte	0x22
 16176 145d 9F       		.byte	0x9f
 16177 145e 78010000 		.4byte	.LVL257
 16178 1462 7A010000 		.4byte	.LVL258
 16179 1466 0B00     		.2byte	0xb
 16180 1468 73       		.byte	0x73
 16181 1469 00       		.sleb128 0
 16182 146a 48       		.byte	0x48
 16183 146b 1E       		.byte	0x1e
 16184 146c 03       		.byte	0x3
 16185 146d 00000000 		.4byte	sockets
 16186 1471 22       		.byte	0x22
 16187 1472 9F       		.byte	0x9f
 16188 1473 7A010000 		.4byte	.LVL258
 16189 1477 82010000 		.4byte	.LVL259
 16190 147b 0C00     		.2byte	0xc
ARM GAS  C:\Users\jo\AppData\Local\Temp\cc6wN9Ut.s 			page 287


 16191 147d F3       		.byte	0xf3
 16192 147e 01       		.uleb128 0x1
 16193 147f 50       		.byte	0x50
 16194 1480 48       		.byte	0x48
 16195 1481 1E       		.byte	0x1e
 16196 1482 03       		.byte	0x3
 16197 1483 00000000 		.4byte	sockets
 16198 1487 22       		.byte	0x22
 16199 1488 9F       		.byte	0x9f
 16200 1489 82010000 		.4byte	.LVL259
 16201 148d F8010000 		.4byte	.LFE265
 16202 1491 0B00     		.2byte	0xb
 16203 1493 76       		.byte	0x76
 16204 1494 00       		.sleb128 0
 16205 1495 48       		.byte	0x48
 16206 1496 1E       		.byte	0x1e
 16207 1497 03       		.byte	0x3
 16208 1498 00000000 		.4byte	sockets
 16209 149c 22       		.byte	0x22
 16210 149d 9F       		.byte	0x9f
 16211 149e 00000000 		.4byte	0
 16212 14a2 00000000 		.4byte	0
 16213              	.LLST71:
 16214 14a6 EA000000 		.4byte	.LVL242
 16215 14aa F0000000 		.4byte	.LVL243
 16216 14ae 0600     		.2byte	0x6
 16217 14b0 03       		.byte	0x3
 16218 14b1 B8000000 		.4byte	.LC8
 16219 14b5 9F       		.byte	0x9f
 16220 14b6 00000000 		.4byte	0
 16221 14ba 00000000 		.4byte	0
 16222              	.LLST72:
 16223 14be 0C010000 		.4byte	.LVL245
 16224 14c2 14010000 		.4byte	.LVL247
 16225 14c6 0600     		.2byte	0x6
 16226 14c8 03       		.byte	0x3
 16227 14c9 D0000000 		.4byte	.LC9
 16228 14cd 9F       		.byte	0x9f
 16229 14ce 00000000 		.4byte	0
 16230 14d2 00000000 		.4byte	0
 16231              	.LLST73:
 16232 14d6 54010000 		.4byte	.LVL251
 16233 14da 5E010000 		.4byte	.LVL253
 16234 14de 0600     		.2byte	0x6
 16235 14e0 03       		.byte	0x3
 16236 14e1 8C000000 		.4byte	.LC6
 16237 14e5 9F       		.byte	0x9f
 16238 14e6 00000000 		.4byte	0
 16239 14ea 00000000 		.4byte	0
 16240              	.LLST74:
 16241 14ee 70010000 		.4byte	.LVL255
 16242 14f2 78010000 		.4byte	.LVL257
 16243 14f6 0600     		.2byte	0x6
 16244 14f8 03       		.byte	0x3
 16245 14f9 9C000000 		.4byte	.LC7
 16246 14fd 9F       		.byte	0x9f
 16247 14fe 00000000 		.4byte	0
ARM GAS  C:\Users\jo\AppData\Local\Temp\cc6wN9Ut.s 			page 288


 16248 1502 00000000 		.4byte	0
 16249              	.LLST75:
 16250 1506 00000000 		.4byte	.LVL267
 16251 150a 08000000 		.4byte	.LVL268
 16252 150e 0100     		.2byte	0x1
 16253 1510 50       		.byte	0x50
 16254 1511 08000000 		.4byte	.LVL268
 16255 1515 0A000000 		.4byte	.LVL269
 16256 1519 0400     		.2byte	0x4
 16257 151b F3       		.byte	0xf3
 16258 151c 01       		.uleb128 0x1
 16259 151d 50       		.byte	0x50
 16260 151e 9F       		.byte	0x9f
 16261 151f 0A000000 		.4byte	.LVL269
 16262 1523 3C000000 		.4byte	.LVL272
 16263 1527 0100     		.2byte	0x1
 16264 1529 50       		.byte	0x50
 16265 152a 3C000000 		.4byte	.LVL272
 16266 152e 56000000 		.4byte	.LVL276
 16267 1532 0100     		.2byte	0x1
 16268 1534 54       		.byte	0x54
 16269 1535 56000000 		.4byte	.LVL276
 16270 1539 5C000000 		.4byte	.LVL277
 16271 153d 0400     		.2byte	0x4
 16272 153f F3       		.byte	0xf3
 16273 1540 01       		.uleb128 0x1
 16274 1541 50       		.byte	0x50
 16275 1542 9F       		.byte	0x9f
 16276 1543 5C000000 		.4byte	.LVL277
 16277 1547 66000000 		.4byte	.LVL279
 16278 154b 0100     		.2byte	0x1
 16279 154d 50       		.byte	0x50
 16280 154e 66000000 		.4byte	.LVL279
 16281 1552 76000000 		.4byte	.LVL282
 16282 1556 0100     		.2byte	0x1
 16283 1558 54       		.byte	0x54
 16284 1559 76000000 		.4byte	.LVL282
 16285 155d 88000000 		.4byte	.LVL283
 16286 1561 0400     		.2byte	0x4
 16287 1563 F3       		.byte	0xf3
 16288 1564 01       		.uleb128 0x1
 16289 1565 50       		.byte	0x50
 16290 1566 9F       		.byte	0x9f
 16291 1567 88000000 		.4byte	.LVL283
 16292 156b 8C000000 		.4byte	.LVL284
 16293 156f 0100     		.2byte	0x1
 16294 1571 50       		.byte	0x50
 16295 1572 8C000000 		.4byte	.LVL284
 16296 1576 8E000000 		.4byte	.LVL285
 16297 157a 0400     		.2byte	0x4
 16298 157c F3       		.byte	0xf3
 16299 157d 01       		.uleb128 0x1
 16300 157e 50       		.byte	0x50
 16301 157f 9F       		.byte	0x9f
 16302 1580 8E000000 		.4byte	.LVL285
 16303 1584 98000000 		.4byte	.LVL286
 16304 1588 0100     		.2byte	0x1
ARM GAS  C:\Users\jo\AppData\Local\Temp\cc6wN9Ut.s 			page 289


 16305 158a 54       		.byte	0x54
 16306 158b 98000000 		.4byte	.LVL286
 16307 158f C4000000 		.4byte	.LFE266
 16308 1593 0400     		.2byte	0x4
 16309 1595 F3       		.byte	0xf3
 16310 1596 01       		.uleb128 0x1
 16311 1597 50       		.byte	0x50
 16312 1598 9F       		.byte	0x9f
 16313 1599 00000000 		.4byte	0
 16314 159d 00000000 		.4byte	0
 16315              	.LLST76:
 16316 15a1 00000000 		.4byte	.LVL267
 16317 15a5 43000000 		.4byte	.LVL274-1
 16318 15a9 0100     		.2byte	0x1
 16319 15ab 51       		.byte	0x51
 16320 15ac 43000000 		.4byte	.LVL274-1
 16321 15b0 5C000000 		.4byte	.LVL277
 16322 15b4 0400     		.2byte	0x4
 16323 15b6 F3       		.byte	0xf3
 16324 15b7 01       		.uleb128 0x1
 16325 15b8 51       		.byte	0x51
 16326 15b9 9F       		.byte	0x9f
 16327 15ba 5C000000 		.4byte	.LVL277
 16328 15be 62000000 		.4byte	.LVL278
 16329 15c2 0100     		.2byte	0x1
 16330 15c4 51       		.byte	0x51
 16331 15c5 62000000 		.4byte	.LVL278
 16332 15c9 88000000 		.4byte	.LVL283
 16333 15cd 0400     		.2byte	0x4
 16334 15cf F3       		.byte	0xf3
 16335 15d0 01       		.uleb128 0x1
 16336 15d1 51       		.byte	0x51
 16337 15d2 9F       		.byte	0x9f
 16338 15d3 88000000 		.4byte	.LVL283
 16339 15d7 8E000000 		.4byte	.LVL285
 16340 15db 0100     		.2byte	0x1
 16341 15dd 51       		.byte	0x51
 16342 15de 8E000000 		.4byte	.LVL285
 16343 15e2 C4000000 		.4byte	.LFE266
 16344 15e6 0400     		.2byte	0x4
 16345 15e8 F3       		.byte	0xf3
 16346 15e9 01       		.uleb128 0x1
 16347 15ea 51       		.byte	0x51
 16348 15eb 9F       		.byte	0x9f
 16349 15ec 00000000 		.4byte	0
 16350 15f0 00000000 		.4byte	0
 16351              	.LLST77:
 16352 15f4 00000000 		.4byte	.LVL267
 16353 15f8 2C000000 		.4byte	.LVL270
 16354 15fc 0100     		.2byte	0x1
 16355 15fe 52       		.byte	0x52
 16356 15ff 2C000000 		.4byte	.LVL270
 16357 1603 88000000 		.4byte	.LVL283
 16358 1607 0400     		.2byte	0x4
 16359 1609 F3       		.byte	0xf3
 16360 160a 01       		.uleb128 0x1
 16361 160b 52       		.byte	0x52
ARM GAS  C:\Users\jo\AppData\Local\Temp\cc6wN9Ut.s 			page 290


 16362 160c 9F       		.byte	0x9f
 16363 160d 88000000 		.4byte	.LVL283
 16364 1611 8E000000 		.4byte	.LVL285
 16365 1615 0100     		.2byte	0x1
 16366 1617 52       		.byte	0x52
 16367 1618 8E000000 		.4byte	.LVL285
 16368 161c C4000000 		.4byte	.LFE266
 16369 1620 0400     		.2byte	0x4
 16370 1622 F3       		.byte	0xf3
 16371 1623 01       		.uleb128 0x1
 16372 1624 52       		.byte	0x52
 16373 1625 9F       		.byte	0x9f
 16374 1626 00000000 		.4byte	0
 16375 162a 00000000 		.4byte	0
 16376              	.LLST78:
 16377 162e 40000000 		.4byte	.LVL273
 16378 1632 43000000 		.4byte	.LVL274-1
 16379 1636 0200     		.2byte	0x2
 16380 1638 71       		.byte	0x71
 16381 1639 02       		.sleb128 2
 16382 163a 00000000 		.4byte	0
 16383 163e 00000000 		.4byte	0
 16384              	.LLST79:
 16385 1642 4E000000 		.4byte	.LVL275
 16386 1646 56000000 		.4byte	.LVL276
 16387 164a 0100     		.2byte	0x1
 16388 164c 50       		.byte	0x50
 16389 164d 8E000000 		.4byte	.LVL285
 16390 1651 A8000000 		.4byte	.LVL287
 16391 1655 0100     		.2byte	0x1
 16392 1657 50       		.byte	0x50
 16393 1658 00000000 		.4byte	0
 16394 165c 00000000 		.4byte	0
 16395              	.LLST80:
 16396 1660 34000000 		.4byte	.LVL271
 16397 1664 43000000 		.4byte	.LVL274-1
 16398 1668 0100     		.2byte	0x1
 16399 166a 51       		.byte	0x51
 16400 166b 43000000 		.4byte	.LVL274-1
 16401 166f 56000000 		.4byte	.LVL276
 16402 1673 0400     		.2byte	0x4
 16403 1675 F3       		.byte	0xf3
 16404 1676 01       		.uleb128 0x1
 16405 1677 51       		.byte	0x51
 16406 1678 9F       		.byte	0x9f
 16407 1679 8E000000 		.4byte	.LVL285
 16408 167d C4000000 		.4byte	.LFE266
 16409 1681 0400     		.2byte	0x4
 16410 1683 F3       		.byte	0xf3
 16411 1684 01       		.uleb128 0x1
 16412 1685 51       		.byte	0x51
 16413 1686 9F       		.byte	0x9f
 16414 1687 00000000 		.4byte	0
 16415 168b 00000000 		.4byte	0
 16416              	.LLST82:
 16417 168f 0A000000 		.4byte	.LVL269
 16418 1693 3C000000 		.4byte	.LVL272
ARM GAS  C:\Users\jo\AppData\Local\Temp\cc6wN9Ut.s 			page 291


 16419 1697 0B00     		.2byte	0xb
 16420 1699 70       		.byte	0x70
 16421 169a 00       		.sleb128 0
 16422 169b 48       		.byte	0x48
 16423 169c 1E       		.byte	0x1e
 16424 169d 03       		.byte	0x3
 16425 169e 00000000 		.4byte	sockets
 16426 16a2 22       		.byte	0x22
 16427 16a3 9F       		.byte	0x9f
 16428 16a4 3C000000 		.4byte	.LVL272
 16429 16a8 56000000 		.4byte	.LVL276
 16430 16ac 0B00     		.2byte	0xb
 16431 16ae 74       		.byte	0x74
 16432 16af 00       		.sleb128 0
 16433 16b0 48       		.byte	0x48
 16434 16b1 1E       		.byte	0x1e
 16435 16b2 03       		.byte	0x3
 16436 16b3 00000000 		.4byte	sockets
 16437 16b7 22       		.byte	0x22
 16438 16b8 9F       		.byte	0x9f
 16439 16b9 56000000 		.4byte	.LVL276
 16440 16bd 5C000000 		.4byte	.LVL277
 16441 16c1 0C00     		.2byte	0xc
 16442 16c3 F3       		.byte	0xf3
 16443 16c4 01       		.uleb128 0x1
 16444 16c5 50       		.byte	0x50
 16445 16c6 48       		.byte	0x48
 16446 16c7 1E       		.byte	0x1e
 16447 16c8 03       		.byte	0x3
 16448 16c9 00000000 		.4byte	sockets
 16449 16cd 22       		.byte	0x22
 16450 16ce 9F       		.byte	0x9f
 16451 16cf 5C000000 		.4byte	.LVL277
 16452 16d3 66000000 		.4byte	.LVL279
 16453 16d7 0B00     		.2byte	0xb
 16454 16d9 70       		.byte	0x70
 16455 16da 00       		.sleb128 0
 16456 16db 48       		.byte	0x48
 16457 16dc 1E       		.byte	0x1e
 16458 16dd 03       		.byte	0x3
 16459 16de 00000000 		.4byte	sockets
 16460 16e2 22       		.byte	0x22
 16461 16e3 9F       		.byte	0x9f
 16462 16e4 66000000 		.4byte	.LVL279
 16463 16e8 76000000 		.4byte	.LVL282
 16464 16ec 0B00     		.2byte	0xb
 16465 16ee 74       		.byte	0x74
 16466 16ef 00       		.sleb128 0
 16467 16f0 48       		.byte	0x48
 16468 16f1 1E       		.byte	0x1e
 16469 16f2 03       		.byte	0x3
 16470 16f3 00000000 		.4byte	sockets
 16471 16f7 22       		.byte	0x22
 16472 16f8 9F       		.byte	0x9f
 16473 16f9 76000000 		.4byte	.LVL282
 16474 16fd 88000000 		.4byte	.LVL283
 16475 1701 0C00     		.2byte	0xc
ARM GAS  C:\Users\jo\AppData\Local\Temp\cc6wN9Ut.s 			page 292


 16476 1703 F3       		.byte	0xf3
 16477 1704 01       		.uleb128 0x1
 16478 1705 50       		.byte	0x50
 16479 1706 48       		.byte	0x48
 16480 1707 1E       		.byte	0x1e
 16481 1708 03       		.byte	0x3
 16482 1709 00000000 		.4byte	sockets
 16483 170d 22       		.byte	0x22
 16484 170e 9F       		.byte	0x9f
 16485 170f 88000000 		.4byte	.LVL283
 16486 1713 8C000000 		.4byte	.LVL284
 16487 1717 0B00     		.2byte	0xb
 16488 1719 70       		.byte	0x70
 16489 171a 00       		.sleb128 0
 16490 171b 48       		.byte	0x48
 16491 171c 1E       		.byte	0x1e
 16492 171d 03       		.byte	0x3
 16493 171e 00000000 		.4byte	sockets
 16494 1722 22       		.byte	0x22
 16495 1723 9F       		.byte	0x9f
 16496 1724 8C000000 		.4byte	.LVL284
 16497 1728 8E000000 		.4byte	.LVL285
 16498 172c 0C00     		.2byte	0xc
 16499 172e F3       		.byte	0xf3
 16500 172f 01       		.uleb128 0x1
 16501 1730 50       		.byte	0x50
 16502 1731 48       		.byte	0x48
 16503 1732 1E       		.byte	0x1e
 16504 1733 03       		.byte	0x3
 16505 1734 00000000 		.4byte	sockets
 16506 1738 22       		.byte	0x22
 16507 1739 9F       		.byte	0x9f
 16508 173a 8E000000 		.4byte	.LVL285
 16509 173e 98000000 		.4byte	.LVL286
 16510 1742 0B00     		.2byte	0xb
 16511 1744 74       		.byte	0x74
 16512 1745 00       		.sleb128 0
 16513 1746 48       		.byte	0x48
 16514 1747 1E       		.byte	0x1e
 16515 1748 03       		.byte	0x3
 16516 1749 00000000 		.4byte	sockets
 16517 174d 22       		.byte	0x22
 16518 174e 9F       		.byte	0x9f
 16519 174f 98000000 		.4byte	.LVL286
 16520 1753 C4000000 		.4byte	.LFE266
 16521 1757 0C00     		.2byte	0xc
 16522 1759 F3       		.byte	0xf3
 16523 175a 01       		.uleb128 0x1
 16524 175b 50       		.byte	0x50
 16525 175c 48       		.byte	0x48
 16526 175d 1E       		.byte	0x1e
 16527 175e 03       		.byte	0x3
 16528 175f 00000000 		.4byte	sockets
 16529 1763 22       		.byte	0x22
 16530 1764 9F       		.byte	0x9f
 16531 1765 00000000 		.4byte	0
 16532 1769 00000000 		.4byte	0
ARM GAS  C:\Users\jo\AppData\Local\Temp\cc6wN9Ut.s 			page 293


 16533              	.LLST83:
 16534 176d 6E000000 		.4byte	.LVL280
 16535 1771 88000000 		.4byte	.LVL283
 16536 1775 0600     		.2byte	0x6
 16537 1777 03       		.byte	0x3
 16538 1778 F4000000 		.4byte	.LC10
 16539 177c 9F       		.byte	0x9f
 16540 177d 00000000 		.4byte	0
 16541 1781 00000000 		.4byte	0
 16542              	.LLST84:
 16543 1785 00000000 		.4byte	.LVL288
 16544 1789 08000000 		.4byte	.LVL289
 16545 178d 0100     		.2byte	0x1
 16546 178f 50       		.byte	0x50
 16547 1790 08000000 		.4byte	.LVL289
 16548 1794 0A000000 		.4byte	.LVL290
 16549 1798 0400     		.2byte	0x4
 16550 179a F3       		.byte	0xf3
 16551 179b 01       		.uleb128 0x1
 16552 179c 50       		.byte	0x50
 16553 179d 9F       		.byte	0x9f
 16554 179e 0A000000 		.4byte	.LVL290
 16555 17a2 0E000000 		.4byte	.LVL291
 16556 17a6 0100     		.2byte	0x1
 16557 17a8 50       		.byte	0x50
 16558 17a9 0E000000 		.4byte	.LVL291
 16559 17ad 60000000 		.4byte	.LFE267
 16560 17b1 0400     		.2byte	0x4
 16561 17b3 F3       		.byte	0xf3
 16562 17b4 01       		.uleb128 0x1
 16563 17b5 50       		.byte	0x50
 16564 17b6 9F       		.byte	0x9f
 16565 17b7 00000000 		.4byte	0
 16566 17bb 00000000 		.4byte	0
 16567              	.LLST85:
 16568 17bf 00000000 		.4byte	.LVL288
 16569 17c3 26000000 		.4byte	.LVL292
 16570 17c7 0200     		.2byte	0x2
 16571 17c9 30       		.byte	0x30
 16572 17ca 9F       		.byte	0x9f
 16573 17cb 26000000 		.4byte	.LVL292
 16574 17cf 52000000 		.4byte	.LVL298
 16575 17d3 0B00     		.2byte	0xb
 16576 17d5 77       		.byte	0x77
 16577 17d6 00       		.sleb128 0
 16578 17d7 08       		.byte	0x8
 16579 17d8 FF       		.byte	0xff
 16580 17d9 1A       		.byte	0x1a
 16581 17da 40       		.byte	0x40
 16582 17db 29       		.byte	0x29
 16583 17dc 08       		.byte	0x8
 16584 17dd FF       		.byte	0xff
 16585 17de 1A       		.byte	0x1a
 16586 17df 9F       		.byte	0x9f
 16587 17e0 52000000 		.4byte	.LVL298
 16588 17e4 56000000 		.4byte	.LVL299
 16589 17e8 0200     		.2byte	0x2
ARM GAS  C:\Users\jo\AppData\Local\Temp\cc6wN9Ut.s 			page 294


 16590 17ea 30       		.byte	0x30
 16591 17eb 9F       		.byte	0x9f
 16592 17ec 00000000 		.4byte	0
 16593 17f0 00000000 		.4byte	0
 16594              	.LLST87:
 16595 17f4 0A000000 		.4byte	.LVL290
 16596 17f8 0E000000 		.4byte	.LVL291
 16597 17fc 0B00     		.2byte	0xb
 16598 17fe 70       		.byte	0x70
 16599 17ff 00       		.sleb128 0
 16600 1800 48       		.byte	0x48
 16601 1801 1E       		.byte	0x1e
 16602 1802 03       		.byte	0x3
 16603 1803 00000000 		.4byte	sockets
 16604 1807 22       		.byte	0x22
 16605 1808 9F       		.byte	0x9f
 16606 1809 0E000000 		.4byte	.LVL291
 16607 180d 60000000 		.4byte	.LFE267
 16608 1811 0C00     		.2byte	0xc
 16609 1813 F3       		.byte	0xf3
 16610 1814 01       		.uleb128 0x1
 16611 1815 50       		.byte	0x50
 16612 1816 48       		.byte	0x48
 16613 1817 1E       		.byte	0x1e
 16614 1818 03       		.byte	0x3
 16615 1819 00000000 		.4byte	sockets
 16616 181d 22       		.byte	0x22
 16617 181e 9F       		.byte	0x9f
 16618 181f 00000000 		.4byte	0
 16619 1823 00000000 		.4byte	0
 16620              	.LLST88:
 16621 1827 2A000000 		.4byte	.LVL293
 16622 182b 52000000 		.4byte	.LVL298
 16623 182f 0B00     		.2byte	0xb
 16624 1831 77       		.byte	0x77
 16625 1832 00       		.sleb128 0
 16626 1833 08       		.byte	0x8
 16627 1834 FF       		.byte	0xff
 16628 1835 1A       		.byte	0x1a
 16629 1836 40       		.byte	0x40
 16630 1837 29       		.byte	0x29
 16631 1838 08       		.byte	0x8
 16632 1839 FF       		.byte	0xff
 16633 183a 1A       		.byte	0x1a
 16634 183b 9F       		.byte	0x9f
 16635 183c 00000000 		.4byte	0
 16636 1840 00000000 		.4byte	0
 16637              	.LLST89:
 16638 1844 2A000000 		.4byte	.LVL293
 16639 1848 52000000 		.4byte	.LVL298
 16640 184c 0C00     		.2byte	0xc
 16641 184e F3       		.byte	0xf3
 16642 184f 01       		.uleb128 0x1
 16643 1850 50       		.byte	0x50
 16644 1851 48       		.byte	0x48
 16645 1852 1E       		.byte	0x1e
 16646 1853 03       		.byte	0x3
ARM GAS  C:\Users\jo\AppData\Local\Temp\cc6wN9Ut.s 			page 295


 16647 1854 00000000 		.4byte	sockets
 16648 1858 22       		.byte	0x22
 16649 1859 9F       		.byte	0x9f
 16650 185a 00000000 		.4byte	0
 16651 185e 00000000 		.4byte	0
 16652              	.LLST90:
 16653 1862 2C000000 		.4byte	.LVL294
 16654 1866 41000000 		.4byte	.LVL295-1
 16655 186a 0100     		.2byte	0x1
 16656 186c 50       		.byte	0x50
 16657 186d 48000000 		.4byte	.LVL296
 16658 1871 4B000000 		.4byte	.LVL297-1
 16659 1875 0100     		.2byte	0x1
 16660 1877 50       		.byte	0x50
 16661 1878 00000000 		.4byte	0
 16662 187c 00000000 		.4byte	0
 16663              	.LLST91:
 16664 1880 00000000 		.4byte	.LVL300
 16665 1884 08000000 		.4byte	.LVL301
 16666 1888 0100     		.2byte	0x1
 16667 188a 50       		.byte	0x50
 16668 188b 08000000 		.4byte	.LVL301
 16669 188f 0A000000 		.4byte	.LVL302
 16670 1893 0400     		.2byte	0x4
 16671 1895 F3       		.byte	0xf3
 16672 1896 01       		.uleb128 0x1
 16673 1897 50       		.byte	0x50
 16674 1898 9F       		.byte	0x9f
 16675 1899 0A000000 		.4byte	.LVL302
 16676 189d 3C000000 		.4byte	.LVL305
 16677 18a1 0100     		.2byte	0x1
 16678 18a3 50       		.byte	0x50
 16679 18a4 3C000000 		.4byte	.LVL305
 16680 18a8 56000000 		.4byte	.LVL309
 16681 18ac 0100     		.2byte	0x1
 16682 18ae 55       		.byte	0x55
 16683 18af 56000000 		.4byte	.LVL309
 16684 18b3 5C000000 		.4byte	.LVL310
 16685 18b7 0400     		.2byte	0x4
 16686 18b9 F3       		.byte	0xf3
 16687 18ba 01       		.uleb128 0x1
 16688 18bb 50       		.byte	0x50
 16689 18bc 9F       		.byte	0x9f
 16690 18bd 5C000000 		.4byte	.LVL310
 16691 18c1 66000000 		.4byte	.LVL312
 16692 18c5 0100     		.2byte	0x1
 16693 18c7 50       		.byte	0x50
 16694 18c8 66000000 		.4byte	.LVL312
 16695 18cc 76000000 		.4byte	.LVL315
 16696 18d0 0100     		.2byte	0x1
 16697 18d2 55       		.byte	0x55
 16698 18d3 76000000 		.4byte	.LVL315
 16699 18d7 88000000 		.4byte	.LVL316
 16700 18db 0400     		.2byte	0x4
 16701 18dd F3       		.byte	0xf3
 16702 18de 01       		.uleb128 0x1
 16703 18df 50       		.byte	0x50
ARM GAS  C:\Users\jo\AppData\Local\Temp\cc6wN9Ut.s 			page 296


 16704 18e0 9F       		.byte	0x9f
 16705 18e1 88000000 		.4byte	.LVL316
 16706 18e5 8C000000 		.4byte	.LVL317
 16707 18e9 0100     		.2byte	0x1
 16708 18eb 50       		.byte	0x50
 16709 18ec 8C000000 		.4byte	.LVL317
 16710 18f0 8E000000 		.4byte	.LVL318
 16711 18f4 0400     		.2byte	0x4
 16712 18f6 F3       		.byte	0xf3
 16713 18f7 01       		.uleb128 0x1
 16714 18f8 50       		.byte	0x50
 16715 18f9 9F       		.byte	0x9f
 16716 18fa 8E000000 		.4byte	.LVL318
 16717 18fe 98000000 		.4byte	.LVL319
 16718 1902 0100     		.2byte	0x1
 16719 1904 55       		.byte	0x55
 16720 1905 98000000 		.4byte	.LVL319
 16721 1909 C4000000 		.4byte	.LFE268
 16722 190d 0400     		.2byte	0x4
 16723 190f F3       		.byte	0xf3
 16724 1910 01       		.uleb128 0x1
 16725 1911 50       		.byte	0x50
 16726 1912 9F       		.byte	0x9f
 16727 1913 00000000 		.4byte	0
 16728 1917 00000000 		.4byte	0
 16729              	.LLST92:
 16730 191b 00000000 		.4byte	.LVL300
 16731 191f 43000000 		.4byte	.LVL307-1
 16732 1923 0100     		.2byte	0x1
 16733 1925 51       		.byte	0x51
 16734 1926 43000000 		.4byte	.LVL307-1
 16735 192a 5C000000 		.4byte	.LVL310
 16736 192e 0400     		.2byte	0x4
 16737 1930 F3       		.byte	0xf3
 16738 1931 01       		.uleb128 0x1
 16739 1932 51       		.byte	0x51
 16740 1933 9F       		.byte	0x9f
 16741 1934 5C000000 		.4byte	.LVL310
 16742 1938 62000000 		.4byte	.LVL311
 16743 193c 0100     		.2byte	0x1
 16744 193e 51       		.byte	0x51
 16745 193f 62000000 		.4byte	.LVL311
 16746 1943 88000000 		.4byte	.LVL316
 16747 1947 0400     		.2byte	0x4
 16748 1949 F3       		.byte	0xf3
 16749 194a 01       		.uleb128 0x1
 16750 194b 51       		.byte	0x51
 16751 194c 9F       		.byte	0x9f
 16752 194d 88000000 		.4byte	.LVL316
 16753 1951 8E000000 		.4byte	.LVL318
 16754 1955 0100     		.2byte	0x1
 16755 1957 51       		.byte	0x51
 16756 1958 8E000000 		.4byte	.LVL318
 16757 195c C4000000 		.4byte	.LFE268
 16758 1960 0400     		.2byte	0x4
 16759 1962 F3       		.byte	0xf3
 16760 1963 01       		.uleb128 0x1
ARM GAS  C:\Users\jo\AppData\Local\Temp\cc6wN9Ut.s 			page 297


 16761 1964 51       		.byte	0x51
 16762 1965 9F       		.byte	0x9f
 16763 1966 00000000 		.4byte	0
 16764 196a 00000000 		.4byte	0
 16765              	.LLST93:
 16766 196e 00000000 		.4byte	.LVL300
 16767 1972 2C000000 		.4byte	.LVL303
 16768 1976 0100     		.2byte	0x1
 16769 1978 52       		.byte	0x52
 16770 1979 2C000000 		.4byte	.LVL303
 16771 197d 88000000 		.4byte	.LVL316
 16772 1981 0400     		.2byte	0x4
 16773 1983 F3       		.byte	0xf3
 16774 1984 01       		.uleb128 0x1
 16775 1985 52       		.byte	0x52
 16776 1986 9F       		.byte	0x9f
 16777 1987 88000000 		.4byte	.LVL316
 16778 198b 8E000000 		.4byte	.LVL318
 16779 198f 0100     		.2byte	0x1
 16780 1991 52       		.byte	0x52
 16781 1992 8E000000 		.4byte	.LVL318
 16782 1996 C4000000 		.4byte	.LFE268
 16783 199a 0400     		.2byte	0x4
 16784 199c F3       		.byte	0xf3
 16785 199d 01       		.uleb128 0x1
 16786 199e 52       		.byte	0x52
 16787 199f 9F       		.byte	0x9f
 16788 19a0 00000000 		.4byte	0
 16789 19a4 00000000 		.4byte	0
 16790              	.LLST94:
 16791 19a8 4E000000 		.4byte	.LVL308
 16792 19ac 56000000 		.4byte	.LVL309
 16793 19b0 0100     		.2byte	0x1
 16794 19b2 50       		.byte	0x50
 16795 19b3 8E000000 		.4byte	.LVL318
 16796 19b7 A8000000 		.4byte	.LVL320
 16797 19bb 0100     		.2byte	0x1
 16798 19bd 50       		.byte	0x50
 16799 19be 00000000 		.4byte	0
 16800 19c2 00000000 		.4byte	0
 16801              	.LLST95:
 16802 19c6 34000000 		.4byte	.LVL304
 16803 19ca 43000000 		.4byte	.LVL307-1
 16804 19ce 0100     		.2byte	0x1
 16805 19d0 51       		.byte	0x51
 16806 19d1 43000000 		.4byte	.LVL307-1
 16807 19d5 56000000 		.4byte	.LVL309
 16808 19d9 0400     		.2byte	0x4
 16809 19db F3       		.byte	0xf3
 16810 19dc 01       		.uleb128 0x1
 16811 19dd 51       		.byte	0x51
 16812 19de 9F       		.byte	0x9f
 16813 19df 8E000000 		.4byte	.LVL318
 16814 19e3 C4000000 		.4byte	.LFE268
 16815 19e7 0400     		.2byte	0x4
 16816 19e9 F3       		.byte	0xf3
 16817 19ea 01       		.uleb128 0x1
ARM GAS  C:\Users\jo\AppData\Local\Temp\cc6wN9Ut.s 			page 298


 16818 19eb 51       		.byte	0x51
 16819 19ec 9F       		.byte	0x9f
 16820 19ed 00000000 		.4byte	0
 16821 19f1 00000000 		.4byte	0
 16822              	.LLST97:
 16823 19f5 0A000000 		.4byte	.LVL302
 16824 19f9 3C000000 		.4byte	.LVL305
 16825 19fd 0B00     		.2byte	0xb
 16826 19ff 70       		.byte	0x70
 16827 1a00 00       		.sleb128 0
 16828 1a01 48       		.byte	0x48
 16829 1a02 1E       		.byte	0x1e
 16830 1a03 03       		.byte	0x3
 16831 1a04 00000000 		.4byte	sockets
 16832 1a08 22       		.byte	0x22
 16833 1a09 9F       		.byte	0x9f
 16834 1a0a 3C000000 		.4byte	.LVL305
 16835 1a0e 56000000 		.4byte	.LVL309
 16836 1a12 0B00     		.2byte	0xb
 16837 1a14 75       		.byte	0x75
 16838 1a15 00       		.sleb128 0
 16839 1a16 48       		.byte	0x48
 16840 1a17 1E       		.byte	0x1e
 16841 1a18 03       		.byte	0x3
 16842 1a19 00000000 		.4byte	sockets
 16843 1a1d 22       		.byte	0x22
 16844 1a1e 9F       		.byte	0x9f
 16845 1a1f 56000000 		.4byte	.LVL309
 16846 1a23 5C000000 		.4byte	.LVL310
 16847 1a27 0C00     		.2byte	0xc
 16848 1a29 F3       		.byte	0xf3
 16849 1a2a 01       		.uleb128 0x1
 16850 1a2b 50       		.byte	0x50
 16851 1a2c 48       		.byte	0x48
 16852 1a2d 1E       		.byte	0x1e
 16853 1a2e 03       		.byte	0x3
 16854 1a2f 00000000 		.4byte	sockets
 16855 1a33 22       		.byte	0x22
 16856 1a34 9F       		.byte	0x9f
 16857 1a35 5C000000 		.4byte	.LVL310
 16858 1a39 66000000 		.4byte	.LVL312
 16859 1a3d 0B00     		.2byte	0xb
 16860 1a3f 70       		.byte	0x70
 16861 1a40 00       		.sleb128 0
 16862 1a41 48       		.byte	0x48
 16863 1a42 1E       		.byte	0x1e
 16864 1a43 03       		.byte	0x3
 16865 1a44 00000000 		.4byte	sockets
 16866 1a48 22       		.byte	0x22
 16867 1a49 9F       		.byte	0x9f
 16868 1a4a 66000000 		.4byte	.LVL312
 16869 1a4e 76000000 		.4byte	.LVL315
 16870 1a52 0B00     		.2byte	0xb
 16871 1a54 75       		.byte	0x75
 16872 1a55 00       		.sleb128 0
 16873 1a56 48       		.byte	0x48
 16874 1a57 1E       		.byte	0x1e
ARM GAS  C:\Users\jo\AppData\Local\Temp\cc6wN9Ut.s 			page 299


 16875 1a58 03       		.byte	0x3
 16876 1a59 00000000 		.4byte	sockets
 16877 1a5d 22       		.byte	0x22
 16878 1a5e 9F       		.byte	0x9f
 16879 1a5f 76000000 		.4byte	.LVL315
 16880 1a63 88000000 		.4byte	.LVL316
 16881 1a67 0C00     		.2byte	0xc
 16882 1a69 F3       		.byte	0xf3
 16883 1a6a 01       		.uleb128 0x1
 16884 1a6b 50       		.byte	0x50
 16885 1a6c 48       		.byte	0x48
 16886 1a6d 1E       		.byte	0x1e
 16887 1a6e 03       		.byte	0x3
 16888 1a6f 00000000 		.4byte	sockets
 16889 1a73 22       		.byte	0x22
 16890 1a74 9F       		.byte	0x9f
 16891 1a75 88000000 		.4byte	.LVL316
 16892 1a79 8C000000 		.4byte	.LVL317
 16893 1a7d 0B00     		.2byte	0xb
 16894 1a7f 70       		.byte	0x70
 16895 1a80 00       		.sleb128 0
 16896 1a81 48       		.byte	0x48
 16897 1a82 1E       		.byte	0x1e
 16898 1a83 03       		.byte	0x3
 16899 1a84 00000000 		.4byte	sockets
 16900 1a88 22       		.byte	0x22
 16901 1a89 9F       		.byte	0x9f
 16902 1a8a 8C000000 		.4byte	.LVL317
 16903 1a8e 8E000000 		.4byte	.LVL318
 16904 1a92 0C00     		.2byte	0xc
 16905 1a94 F3       		.byte	0xf3
 16906 1a95 01       		.uleb128 0x1
 16907 1a96 50       		.byte	0x50
 16908 1a97 48       		.byte	0x48
 16909 1a98 1E       		.byte	0x1e
 16910 1a99 03       		.byte	0x3
 16911 1a9a 00000000 		.4byte	sockets
 16912 1a9e 22       		.byte	0x22
 16913 1a9f 9F       		.byte	0x9f
 16914 1aa0 8E000000 		.4byte	.LVL318
 16915 1aa4 98000000 		.4byte	.LVL319
 16916 1aa8 0B00     		.2byte	0xb
 16917 1aaa 75       		.byte	0x75
 16918 1aab 00       		.sleb128 0
 16919 1aac 48       		.byte	0x48
 16920 1aad 1E       		.byte	0x1e
 16921 1aae 03       		.byte	0x3
 16922 1aaf 00000000 		.4byte	sockets
 16923 1ab3 22       		.byte	0x22
 16924 1ab4 9F       		.byte	0x9f
 16925 1ab5 98000000 		.4byte	.LVL319
 16926 1ab9 C4000000 		.4byte	.LFE268
 16927 1abd 0C00     		.2byte	0xc
 16928 1abf F3       		.byte	0xf3
 16929 1ac0 01       		.uleb128 0x1
 16930 1ac1 50       		.byte	0x50
 16931 1ac2 48       		.byte	0x48
ARM GAS  C:\Users\jo\AppData\Local\Temp\cc6wN9Ut.s 			page 300


 16932 1ac3 1E       		.byte	0x1e
 16933 1ac4 03       		.byte	0x3
 16934 1ac5 00000000 		.4byte	sockets
 16935 1ac9 22       		.byte	0x22
 16936 1aca 9F       		.byte	0x9f
 16937 1acb 00000000 		.4byte	0
 16938 1acf 00000000 		.4byte	0
 16939              	.LLST98:
 16940 1ad3 40000000 		.4byte	.LVL306
 16941 1ad7 43000000 		.4byte	.LVL307-1
 16942 1adb 0200     		.2byte	0x2
 16943 1add 71       		.byte	0x71
 16944 1ade 02       		.sleb128 2
 16945 1adf 00000000 		.4byte	0
 16946 1ae3 00000000 		.4byte	0
 16947              	.LLST99:
 16948 1ae7 6E000000 		.4byte	.LVL313
 16949 1aeb 88000000 		.4byte	.LVL316
 16950 1aef 0600     		.2byte	0x6
 16951 1af1 03       		.byte	0x3
 16952 1af2 10010000 		.4byte	.LC11
 16953 1af6 9F       		.byte	0x9f
 16954 1af7 00000000 		.4byte	0
 16955 1afb 00000000 		.4byte	0
 16956              	.LLST100:
 16957 1aff 00000000 		.4byte	.LVL321
 16958 1b03 08000000 		.4byte	.LVL322
 16959 1b07 0100     		.2byte	0x1
 16960 1b09 50       		.byte	0x50
 16961 1b0a 08000000 		.4byte	.LVL322
 16962 1b0e 0A000000 		.4byte	.LVL323
 16963 1b12 0400     		.2byte	0x4
 16964 1b14 F3       		.byte	0xf3
 16965 1b15 01       		.uleb128 0x1
 16966 1b16 50       		.byte	0x50
 16967 1b17 9F       		.byte	0x9f
 16968 1b18 0A000000 		.4byte	.LVL323
 16969 1b1c 26000000 		.4byte	.LVL326
 16970 1b20 0100     		.2byte	0x1
 16971 1b22 50       		.byte	0x50
 16972 1b23 26000000 		.4byte	.LVL326
 16973 1b27 46000000 		.4byte	.LVL330
 16974 1b2b 0100     		.2byte	0x1
 16975 1b2d 54       		.byte	0x54
 16976 1b2e 46000000 		.4byte	.LVL330
 16977 1b32 4E000000 		.4byte	.LVL331
 16978 1b36 0400     		.2byte	0x4
 16979 1b38 F3       		.byte	0xf3
 16980 1b39 01       		.uleb128 0x1
 16981 1b3a 50       		.byte	0x50
 16982 1b3b 9F       		.byte	0x9f
 16983 1b3c 4E000000 		.4byte	.LVL331
 16984 1b40 56000000 		.4byte	.LVL334
 16985 1b44 0100     		.2byte	0x1
 16986 1b46 50       		.byte	0x50
 16987 1b47 56000000 		.4byte	.LVL334
 16988 1b4b 58000000 		.4byte	.LVL335
ARM GAS  C:\Users\jo\AppData\Local\Temp\cc6wN9Ut.s 			page 301


 16989 1b4f 0400     		.2byte	0x4
 16990 1b51 F3       		.byte	0xf3
 16991 1b52 01       		.uleb128 0x1
 16992 1b53 50       		.byte	0x50
 16993 1b54 9F       		.byte	0x9f
 16994 1b55 58000000 		.4byte	.LVL335
 16995 1b59 62000000 		.4byte	.LVL336
 16996 1b5d 0100     		.2byte	0x1
 16997 1b5f 54       		.byte	0x54
 16998 1b60 62000000 		.4byte	.LVL336
 16999 1b64 80000000 		.4byte	.LFE269
 17000 1b68 0400     		.2byte	0x4
 17001 1b6a F3       		.byte	0xf3
 17002 1b6b 01       		.uleb128 0x1
 17003 1b6c 50       		.byte	0x50
 17004 1b6d 9F       		.byte	0x9f
 17005 1b6e 00000000 		.4byte	0
 17006 1b72 00000000 		.4byte	0
 17007              	.LLST101:
 17008 1b76 00000000 		.4byte	.LVL321
 17009 1b7a 20000000 		.4byte	.LVL324
 17010 1b7e 0100     		.2byte	0x1
 17011 1b80 51       		.byte	0x51
 17012 1b81 20000000 		.4byte	.LVL324
 17013 1b85 22000000 		.4byte	.LVL325
 17014 1b89 0400     		.2byte	0x4
 17015 1b8b F3       		.byte	0xf3
 17016 1b8c 01       		.uleb128 0x1
 17017 1b8d 51       		.byte	0x51
 17018 1b8e 9F       		.byte	0x9f
 17019 1b8f 4E000000 		.4byte	.LVL331
 17020 1b93 50000000 		.4byte	.LVL332
 17021 1b97 0100     		.2byte	0x1
 17022 1b99 51       		.byte	0x51
 17023 1b9a 50000000 		.4byte	.LVL332
 17024 1b9e 52000000 		.4byte	.LVL333
 17025 1ba2 0400     		.2byte	0x4
 17026 1ba4 F3       		.byte	0xf3
 17027 1ba5 01       		.uleb128 0x1
 17028 1ba6 51       		.byte	0x51
 17029 1ba7 9F       		.byte	0x9f
 17030 1ba8 52000000 		.4byte	.LVL333
 17031 1bac 58000000 		.4byte	.LVL335
 17032 1bb0 0100     		.2byte	0x1
 17033 1bb2 51       		.byte	0x51
 17034 1bb3 00000000 		.4byte	0
 17035 1bb7 00000000 		.4byte	0
 17036              	.LLST102:
 17037 1bbb 2A000000 		.4byte	.LVL327
 17038 1bbf 34000000 		.4byte	.LVL328
 17039 1bc3 0100     		.2byte	0x1
 17040 1bc5 50       		.byte	0x50
 17041 1bc6 44000000 		.4byte	.LVL329
 17042 1bca 4E000000 		.4byte	.LVL331
 17043 1bce 0100     		.2byte	0x1
 17044 1bd0 50       		.byte	0x50
 17045 1bd1 00000000 		.4byte	0
ARM GAS  C:\Users\jo\AppData\Local\Temp\cc6wN9Ut.s 			page 302


 17046 1bd5 00000000 		.4byte	0
 17047              	.LLST104:
 17048 1bd9 0A000000 		.4byte	.LVL323
 17049 1bdd 26000000 		.4byte	.LVL326
 17050 1be1 0B00     		.2byte	0xb
 17051 1be3 70       		.byte	0x70
 17052 1be4 00       		.sleb128 0
 17053 1be5 48       		.byte	0x48
 17054 1be6 1E       		.byte	0x1e
 17055 1be7 03       		.byte	0x3
 17056 1be8 00000000 		.4byte	sockets
 17057 1bec 22       		.byte	0x22
 17058 1bed 9F       		.byte	0x9f
 17059 1bee 26000000 		.4byte	.LVL326
 17060 1bf2 46000000 		.4byte	.LVL330
 17061 1bf6 0B00     		.2byte	0xb
 17062 1bf8 74       		.byte	0x74
 17063 1bf9 00       		.sleb128 0
 17064 1bfa 48       		.byte	0x48
 17065 1bfb 1E       		.byte	0x1e
 17066 1bfc 03       		.byte	0x3
 17067 1bfd 00000000 		.4byte	sockets
 17068 1c01 22       		.byte	0x22
 17069 1c02 9F       		.byte	0x9f
 17070 1c03 46000000 		.4byte	.LVL330
 17071 1c07 4E000000 		.4byte	.LVL331
 17072 1c0b 0C00     		.2byte	0xc
 17073 1c0d F3       		.byte	0xf3
 17074 1c0e 01       		.uleb128 0x1
 17075 1c0f 50       		.byte	0x50
 17076 1c10 48       		.byte	0x48
 17077 1c11 1E       		.byte	0x1e
 17078 1c12 03       		.byte	0x3
 17079 1c13 00000000 		.4byte	sockets
 17080 1c17 22       		.byte	0x22
 17081 1c18 9F       		.byte	0x9f
 17082 1c19 4E000000 		.4byte	.LVL331
 17083 1c1d 56000000 		.4byte	.LVL334
 17084 1c21 0B00     		.2byte	0xb
 17085 1c23 70       		.byte	0x70
 17086 1c24 00       		.sleb128 0
 17087 1c25 48       		.byte	0x48
 17088 1c26 1E       		.byte	0x1e
 17089 1c27 03       		.byte	0x3
 17090 1c28 00000000 		.4byte	sockets
 17091 1c2c 22       		.byte	0x22
 17092 1c2d 9F       		.byte	0x9f
 17093 1c2e 56000000 		.4byte	.LVL334
 17094 1c32 58000000 		.4byte	.LVL335
 17095 1c36 0C00     		.2byte	0xc
 17096 1c38 F3       		.byte	0xf3
 17097 1c39 01       		.uleb128 0x1
 17098 1c3a 50       		.byte	0x50
 17099 1c3b 48       		.byte	0x48
 17100 1c3c 1E       		.byte	0x1e
 17101 1c3d 03       		.byte	0x3
 17102 1c3e 00000000 		.4byte	sockets
ARM GAS  C:\Users\jo\AppData\Local\Temp\cc6wN9Ut.s 			page 303


 17103 1c42 22       		.byte	0x22
 17104 1c43 9F       		.byte	0x9f
 17105 1c44 58000000 		.4byte	.LVL335
 17106 1c48 62000000 		.4byte	.LVL336
 17107 1c4c 0B00     		.2byte	0xb
 17108 1c4e 74       		.byte	0x74
 17109 1c4f 00       		.sleb128 0
 17110 1c50 48       		.byte	0x48
 17111 1c51 1E       		.byte	0x1e
 17112 1c52 03       		.byte	0x3
 17113 1c53 00000000 		.4byte	sockets
 17114 1c57 22       		.byte	0x22
 17115 1c58 9F       		.byte	0x9f
 17116 1c59 62000000 		.4byte	.LVL336
 17117 1c5d 80000000 		.4byte	.LFE269
 17118 1c61 0C00     		.2byte	0xc
 17119 1c63 F3       		.byte	0xf3
 17120 1c64 01       		.uleb128 0x1
 17121 1c65 50       		.byte	0x50
 17122 1c66 48       		.byte	0x48
 17123 1c67 1E       		.byte	0x1e
 17124 1c68 03       		.byte	0x3
 17125 1c69 00000000 		.4byte	sockets
 17126 1c6d 22       		.byte	0x22
 17127 1c6e 9F       		.byte	0x9f
 17128 1c6f 00000000 		.4byte	0
 17129 1c73 00000000 		.4byte	0
 17130              	.LLST105:
 17131 1c77 00000000 		.4byte	.LVL337
 17132 1c7b 10000000 		.4byte	.LVL338
 17133 1c7f 0100     		.2byte	0x1
 17134 1c81 50       		.byte	0x50
 17135 1c82 10000000 		.4byte	.LVL338
 17136 1c86 1C000000 		.4byte	.LVL340
 17137 1c8a 0100     		.2byte	0x1
 17138 1c8c 54       		.byte	0x54
 17139 1c8d 1C000000 		.4byte	.LVL340
 17140 1c91 26000000 		.4byte	.LVL342
 17141 1c95 0300     		.2byte	0x3
 17142 1c97 91       		.byte	0x91
 17143 1c98 AC7F     		.sleb128 -84
 17144 1c9a 26000000 		.4byte	.LVL342
 17145 1c9e 30000000 		.4byte	.LVL344
 17146 1ca2 0100     		.2byte	0x1
 17147 1ca4 54       		.byte	0x54
 17148 1ca5 30000000 		.4byte	.LVL344
 17149 1ca9 E0020000 		.4byte	.LFE270
 17150 1cad 0300     		.2byte	0x3
 17151 1caf 91       		.byte	0x91
 17152 1cb0 AC7F     		.sleb128 -84
 17153 1cb2 00000000 		.4byte	0
 17154 1cb6 00000000 		.4byte	0
 17155              	.LLST106:
 17156 1cba 00000000 		.4byte	.LVL337
 17157 1cbe 20000000 		.4byte	.LVL341
 17158 1cc2 0100     		.2byte	0x1
 17159 1cc4 51       		.byte	0x51
ARM GAS  C:\Users\jo\AppData\Local\Temp\cc6wN9Ut.s 			page 304


 17160 1cc5 20000000 		.4byte	.LVL341
 17161 1cc9 26000000 		.4byte	.LVL342
 17162 1ccd 0300     		.2byte	0x3
 17163 1ccf 91       		.byte	0x91
 17164 1cd0 A07F     		.sleb128 -96
 17165 1cd2 26000000 		.4byte	.LVL342
 17166 1cd6 48000000 		.4byte	.LVL347
 17167 1cda 0100     		.2byte	0x1
 17168 1cdc 51       		.byte	0x51
 17169 1cdd 48000000 		.4byte	.LVL347
 17170 1ce1 E0020000 		.4byte	.LFE270
 17171 1ce5 0300     		.2byte	0x3
 17172 1ce7 91       		.byte	0x91
 17173 1ce8 A07F     		.sleb128 -96
 17174 1cea 00000000 		.4byte	0
 17175 1cee 00000000 		.4byte	0
 17176              	.LLST107:
 17177 1cf2 00000000 		.4byte	.LVL337
 17178 1cf6 1C000000 		.4byte	.LVL340
 17179 1cfa 0100     		.2byte	0x1
 17180 1cfc 52       		.byte	0x52
 17181 1cfd 1C000000 		.4byte	.LVL340
 17182 1d01 20000000 		.4byte	.LVL341
 17183 1d05 0400     		.2byte	0x4
 17184 1d07 F3       		.byte	0xf3
 17185 1d08 01       		.uleb128 0x1
 17186 1d09 52       		.byte	0x52
 17187 1d0a 9F       		.byte	0x9f
 17188 1d0b 26000000 		.4byte	.LVL342
 17189 1d0f 32000000 		.4byte	.LVL345
 17190 1d13 0100     		.2byte	0x1
 17191 1d15 52       		.byte	0x52
 17192 1d16 32000000 		.4byte	.LVL345
 17193 1d1a 8A000000 		.4byte	.LVL354
 17194 1d1e 0100     		.2byte	0x1
 17195 1d20 57       		.byte	0x57
 17196 1d21 8A000000 		.4byte	.LVL354
 17197 1d25 8C000000 		.4byte	.LVL355
 17198 1d29 0600     		.2byte	0x6
 17199 1d2b 77       		.byte	0x77
 17200 1d2c 00       		.sleb128 0
 17201 1d2d 76       		.byte	0x76
 17202 1d2e 00       		.sleb128 0
 17203 1d2f 1C       		.byte	0x1c
 17204 1d30 9F       		.byte	0x9f
 17205 1d31 8C000000 		.4byte	.LVL355
 17206 1d35 E0020000 		.4byte	.LFE270
 17207 1d39 0100     		.2byte	0x1
 17208 1d3b 57       		.byte	0x57
 17209 1d3c 00000000 		.4byte	0
 17210 1d40 00000000 		.4byte	0
 17211              	.LLST108:
 17212 1d44 00000000 		.4byte	.LVL337
 17213 1d48 1C000000 		.4byte	.LVL340
 17214 1d4c 0100     		.2byte	0x1
 17215 1d4e 53       		.byte	0x53
 17216 1d4f 1C000000 		.4byte	.LVL340
ARM GAS  C:\Users\jo\AppData\Local\Temp\cc6wN9Ut.s 			page 305


 17217 1d53 26000000 		.4byte	.LVL342
 17218 1d57 0100     		.2byte	0x1
 17219 1d59 59       		.byte	0x59
 17220 1d5a 26000000 		.4byte	.LVL342
 17221 1d5e 28000000 		.4byte	.LVL343
 17222 1d62 0100     		.2byte	0x1
 17223 1d64 53       		.byte	0x53
 17224 1d65 28000000 		.4byte	.LVL343
 17225 1d69 E0020000 		.4byte	.LFE270
 17226 1d6d 0100     		.2byte	0x1
 17227 1d6f 59       		.byte	0x59
 17228 1d70 00000000 		.4byte	0
 17229 1d74 00000000 		.4byte	0
 17230              	.LLST109:
 17231 1d78 00000000 		.4byte	.LVL337
 17232 1d7c 26000000 		.4byte	.LVL342
 17233 1d80 0200     		.2byte	0x2
 17234 1d82 91       		.byte	0x91
 17235 1d83 00       		.sleb128 0
 17236 1d84 26000000 		.4byte	.LVL342
 17237 1d88 E0020000 		.4byte	.LFE270
 17238 1d8c 0200     		.2byte	0x2
 17239 1d8e 91       		.byte	0x91
 17240 1d8f 00       		.sleb128 0
 17241 1d90 00000000 		.4byte	0
 17242 1d94 00000000 		.4byte	0
 17243              	.LLST110:
 17244 1d98 00000000 		.4byte	.LVL337
 17245 1d9c 26000000 		.4byte	.LVL342
 17246 1da0 0200     		.2byte	0x2
 17247 1da2 91       		.byte	0x91
 17248 1da3 04       		.sleb128 4
 17249 1da4 26000000 		.4byte	.LVL342
 17250 1da8 E0020000 		.4byte	.LFE270
 17251 1dac 0200     		.2byte	0x2
 17252 1dae 91       		.byte	0x91
 17253 1daf 04       		.sleb128 4
 17254 1db0 00000000 		.4byte	0
 17255 1db4 00000000 		.4byte	0
 17256              	.LLST111:
 17257 1db8 5A000000 		.4byte	.LVL348
 17258 1dbc A8000000 		.4byte	.LVL356
 17259 1dc0 0100     		.2byte	0x1
 17260 1dc2 5B       		.byte	0x5b
 17261 1dc3 A6010000 		.4byte	.LVL370
 17262 1dc7 AA010000 		.4byte	.LVL371
 17263 1dcb 0100     		.2byte	0x1
 17264 1dcd 5B       		.byte	0x5b
 17265 1dce D6010000 		.4byte	.LVL375
 17266 1dd2 F0010000 		.4byte	.LVL378
 17267 1dd6 0100     		.2byte	0x1
 17268 1dd8 5B       		.byte	0x5b
 17269 1dd9 00000000 		.4byte	0
 17270 1ddd 00000000 		.4byte	0
 17271              	.LLST112:
 17272 1de1 5A000000 		.4byte	.LVL348
 17273 1de5 64000000 		.4byte	.LVL349
ARM GAS  C:\Users\jo\AppData\Local\Temp\cc6wN9Ut.s 			page 306


 17274 1de9 0200     		.2byte	0x2
 17275 1deb 7B       		.byte	0x7b
 17276 1dec 08       		.sleb128 8
 17277 1ded 64000000 		.4byte	.LVL349
 17278 1df1 1A010000 		.4byte	.LVL362
 17279 1df5 0100     		.2byte	0x1
 17280 1df7 55       		.byte	0x55
 17281 1df8 4A010000 		.4byte	.LVL364
 17282 1dfc 68010000 		.4byte	.LVL367
 17283 1e00 0100     		.2byte	0x1
 17284 1e02 55       		.byte	0x55
 17285 1e03 A6010000 		.4byte	.LVL370
 17286 1e07 F2010000 		.4byte	.LVL379
 17287 1e0b 0100     		.2byte	0x1
 17288 1e0d 55       		.byte	0x55
 17289 1e0e 00000000 		.4byte	0
 17290 1e12 00000000 		.4byte	0
 17291              	.LLST113:
 17292 1e16 6A000000 		.4byte	.LVL350
 17293 1e1a 1A010000 		.4byte	.LVL362
 17294 1e1e 0100     		.2byte	0x1
 17295 1e20 56       		.byte	0x56
 17296 1e21 4A010000 		.4byte	.LVL364
 17297 1e25 68010000 		.4byte	.LVL367
 17298 1e29 0100     		.2byte	0x1
 17299 1e2b 56       		.byte	0x56
 17300 1e2c A6010000 		.4byte	.LVL370
 17301 1e30 FE010000 		.4byte	.LVL380
 17302 1e34 0100     		.2byte	0x1
 17303 1e36 56       		.byte	0x56
 17304 1e37 48020000 		.4byte	.LVL385
 17305 1e3b 5C020000 		.4byte	.LVL387
 17306 1e3f 0100     		.2byte	0x1
 17307 1e41 56       		.byte	0x56
 17308 1e42 00000000 		.4byte	0
 17309 1e46 00000000 		.4byte	0
 17310              	.LLST114:
 17311 1e4a 16000000 		.4byte	.LVL339
 17312 1e4e 20000000 		.4byte	.LVL341
 17313 1e52 0200     		.2byte	0x2
 17314 1e54 30       		.byte	0x30
 17315 1e55 9F       		.byte	0x9f
 17316 1e56 26000000 		.4byte	.LVL342
 17317 1e5a 40000000 		.4byte	.LVL346
 17318 1e5e 0200     		.2byte	0x2
 17319 1e60 30       		.byte	0x30
 17320 1e61 9F       		.byte	0x9f
 17321 1e62 40000000 		.4byte	.LVL346
 17322 1e66 3A020000 		.4byte	.LVL384
 17323 1e6a 0100     		.2byte	0x1
 17324 1e6c 58       		.byte	0x58
 17325 1e6d 48020000 		.4byte	.LVL385
 17326 1e71 E0020000 		.4byte	.LFE270
 17327 1e75 0100     		.2byte	0x1
 17328 1e77 58       		.byte	0x58
 17329 1e78 00000000 		.4byte	0
 17330 1e7c 00000000 		.4byte	0
ARM GAS  C:\Users\jo\AppData\Local\Temp\cc6wN9Ut.s 			page 307


 17331              	.LLST115:
 17332 1e80 CE000000 		.4byte	.LVL358
 17333 1e84 DA000000 		.4byte	.LVL359
 17334 1e88 0300     		.2byte	0x3
 17335 1e8a 91       		.byte	0x91
 17336 1e8b A87F     		.sleb128 -88
 17337 1e8d BE010000 		.4byte	.LVL372
 17338 1e91 C0010000 		.4byte	.LVL373
 17339 1e95 0300     		.2byte	0x3
 17340 1e97 91       		.byte	0x91
 17341 1e98 44       		.sleb128 -60
 17342 1e99 9F       		.byte	0x9f
 17343 1e9a C0010000 		.4byte	.LVL373
 17344 1e9e CB010000 		.4byte	.LVL374-1
 17345 1ea2 0100     		.2byte	0x1
 17346 1ea4 51       		.byte	0x51
 17347 1ea5 CB010000 		.4byte	.LVL374-1
 17348 1ea9 D6010000 		.4byte	.LVL375
 17349 1ead 0300     		.2byte	0x3
 17350 1eaf 91       		.byte	0x91
 17351 1eb0 A47F     		.sleb128 -92
 17352 1eb2 00000000 		.4byte	0
 17353 1eb6 00000000 		.4byte	0
 17354              	.LLST116:
 17355 1eba 16000000 		.4byte	.LVL339
 17356 1ebe AA000000 		.4byte	.LVL357
 17357 1ec2 0200     		.2byte	0x2
 17358 1ec4 30       		.byte	0x30
 17359 1ec5 9F       		.byte	0x9f
 17360 1ec6 AA000000 		.4byte	.LVL357
 17361 1eca 1A010000 		.4byte	.LVL362
 17362 1ece 0200     		.2byte	0x2
 17363 1ed0 31       		.byte	0x31
 17364 1ed1 9F       		.byte	0x9f
 17365 1ed2 4A010000 		.4byte	.LVL364
 17366 1ed6 4E010000 		.4byte	.LVL365
 17367 1eda 0200     		.2byte	0x2
 17368 1edc 31       		.byte	0x31
 17369 1edd 9F       		.byte	0x9f
 17370 1ede 68010000 		.4byte	.LVL367
 17371 1ee2 A6010000 		.4byte	.LVL370
 17372 1ee6 0200     		.2byte	0x2
 17373 1ee8 30       		.byte	0x30
 17374 1ee9 9F       		.byte	0x9f
 17375 1eea A6010000 		.4byte	.LVL370
 17376 1eee D6010000 		.4byte	.LVL375
 17377 1ef2 0200     		.2byte	0x2
 17378 1ef4 31       		.byte	0x31
 17379 1ef5 9F       		.byte	0x9f
 17380 1ef6 D6010000 		.4byte	.LVL375
 17381 1efa F0010000 		.4byte	.LVL378
 17382 1efe 0200     		.2byte	0x2
 17383 1f00 30       		.byte	0x30
 17384 1f01 9F       		.byte	0x9f
 17385 1f02 08020000 		.4byte	.LVL381
 17386 1f06 48020000 		.4byte	.LVL385
 17387 1f0a 0200     		.2byte	0x2
ARM GAS  C:\Users\jo\AppData\Local\Temp\cc6wN9Ut.s 			page 308


 17388 1f0c 30       		.byte	0x30
 17389 1f0d 9F       		.byte	0x9f
 17390 1f0e 5C020000 		.4byte	.LVL387
 17391 1f12 E0020000 		.4byte	.LFE270
 17392 1f16 0200     		.2byte	0x2
 17393 1f18 30       		.byte	0x30
 17394 1f19 9F       		.byte	0x9f
 17395 1f1a 00000000 		.4byte	0
 17396 1f1e 00000000 		.4byte	0
 17397              	.LLST117:
 17398 1f22 96010000 		.4byte	.LVL368
 17399 1f26 A0010000 		.4byte	.LVL369
 17400 1f2a 0100     		.2byte	0x1
 17401 1f2c 50       		.byte	0x50
 17402 1f2d 0C020000 		.4byte	.LVL382
 17403 1f31 22020000 		.4byte	.LVL383
 17404 1f35 0100     		.2byte	0x1
 17405 1f37 50       		.byte	0x50
 17406 1f38 22020000 		.4byte	.LVL383
 17407 1f3c 48020000 		.4byte	.LVL385
 17408 1f40 0100     		.2byte	0x1
 17409 1f42 53       		.byte	0x53
 17410 1f43 5C020000 		.4byte	.LVL387
 17411 1f47 66020000 		.4byte	.LVL388
 17412 1f4b 0100     		.2byte	0x1
 17413 1f4d 50       		.byte	0x50
 17414 1f4e 94020000 		.4byte	.LVL393
 17415 1f52 A2020000 		.4byte	.LVL394
 17416 1f56 0100     		.2byte	0x1
 17417 1f58 50       		.byte	0x50
 17418 1f59 00000000 		.4byte	0
 17419 1f5d 00000000 		.4byte	0
 17420              	.LLST118:
 17421 1f61 16000000 		.4byte	.LVL339
 17422 1f65 1C000000 		.4byte	.LVL340
 17423 1f69 0100     		.2byte	0x1
 17424 1f6b 54       		.byte	0x54
 17425 1f6c 1C000000 		.4byte	.LVL340
 17426 1f70 26000000 		.4byte	.LVL342
 17427 1f74 0300     		.2byte	0x3
 17428 1f76 91       		.byte	0x91
 17429 1f77 AC7F     		.sleb128 -84
 17430 1f79 26000000 		.4byte	.LVL342
 17431 1f7d 30000000 		.4byte	.LVL344
 17432 1f81 0100     		.2byte	0x1
 17433 1f83 54       		.byte	0x54
 17434 1f84 30000000 		.4byte	.LVL344
 17435 1f88 E0020000 		.4byte	.LFE270
 17436 1f8c 0300     		.2byte	0x3
 17437 1f8e 91       		.byte	0x91
 17438 1f8f AC7F     		.sleb128 -84
 17439 1f91 00000000 		.4byte	0
 17440 1f95 00000000 		.4byte	0
 17441              	.LLST119:
 17442 1f99 E8010000 		.4byte	.LVL376
 17443 1f9d F0010000 		.4byte	.LVL378
 17444 1fa1 0600     		.2byte	0x6
ARM GAS  C:\Users\jo\AppData\Local\Temp\cc6wN9Ut.s 			page 309


 17445 1fa3 03       		.byte	0x3
 17446 1fa4 3C010000 		.4byte	.LC13
 17447 1fa8 9F       		.byte	0x9f
 17448 1fa9 00000000 		.4byte	0
 17449 1fad 00000000 		.4byte	0
 17450              	.LLST120:
 17451 1fb1 6E020000 		.4byte	.LVL389
 17452 1fb5 78020000 		.4byte	.LVL391
 17453 1fb9 0600     		.2byte	0x6
 17454 1fbb 03       		.byte	0x3
 17455 1fbc 30010000 		.4byte	.LC12
 17456 1fc0 9F       		.byte	0x9f
 17457 1fc1 00000000 		.4byte	0
 17458 1fc5 00000000 		.4byte	0
 17459              	.LLST121:
 17460 1fc9 00000000 		.4byte	.LVL396
 17461 1fcd 0D000000 		.4byte	.LVL397-1
 17462 1fd1 0100     		.2byte	0x1
 17463 1fd3 50       		.byte	0x50
 17464 1fd4 0D000000 		.4byte	.LVL397-1
 17465 1fd8 14000000 		.4byte	.LFE271
 17466 1fdc 0400     		.2byte	0x4
 17467 1fde F3       		.byte	0xf3
 17468 1fdf 01       		.uleb128 0x1
 17469 1fe0 50       		.byte	0x50
 17470 1fe1 9F       		.byte	0x9f
 17471 1fe2 00000000 		.4byte	0
 17472 1fe6 00000000 		.4byte	0
 17473              	.LLST122:
 17474 1fea 00000000 		.4byte	.LVL396
 17475 1fee 0D000000 		.4byte	.LVL397-1
 17476 1ff2 0100     		.2byte	0x1
 17477 1ff4 51       		.byte	0x51
 17478 1ff5 0D000000 		.4byte	.LVL397-1
 17479 1ff9 14000000 		.4byte	.LFE271
 17480 1ffd 0400     		.2byte	0x4
 17481 1fff F3       		.byte	0xf3
 17482 2000 01       		.uleb128 0x1
 17483 2001 51       		.byte	0x51
 17484 2002 9F       		.byte	0x9f
 17485 2003 00000000 		.4byte	0
 17486 2007 00000000 		.4byte	0
 17487              	.LLST123:
 17488 200b 00000000 		.4byte	.LVL396
 17489 200f 0D000000 		.4byte	.LVL397-1
 17490 2013 0100     		.2byte	0x1
 17491 2015 52       		.byte	0x52
 17492 2016 0D000000 		.4byte	.LVL397-1
 17493 201a 14000000 		.4byte	.LFE271
 17494 201e 0400     		.2byte	0x4
 17495 2020 F3       		.byte	0xf3
 17496 2021 01       		.uleb128 0x1
 17497 2022 52       		.byte	0x52
 17498 2023 9F       		.byte	0x9f
 17499 2024 00000000 		.4byte	0
 17500 2028 00000000 		.4byte	0
 17501              	.LLST124:
ARM GAS  C:\Users\jo\AppData\Local\Temp\cc6wN9Ut.s 			page 310


 17502 202c 00000000 		.4byte	.LVL398
 17503 2030 0D000000 		.4byte	.LVL399-1
 17504 2034 0100     		.2byte	0x1
 17505 2036 50       		.byte	0x50
 17506 2037 0D000000 		.4byte	.LVL399-1
 17507 203b 12000000 		.4byte	.LFE272
 17508 203f 0400     		.2byte	0x4
 17509 2041 F3       		.byte	0xf3
 17510 2042 01       		.uleb128 0x1
 17511 2043 50       		.byte	0x50
 17512 2044 9F       		.byte	0x9f
 17513 2045 00000000 		.4byte	0
 17514 2049 00000000 		.4byte	0
 17515              	.LLST125:
 17516 204d 00000000 		.4byte	.LVL398
 17517 2051 0D000000 		.4byte	.LVL399-1
 17518 2055 0100     		.2byte	0x1
 17519 2057 51       		.byte	0x51
 17520 2058 0D000000 		.4byte	.LVL399-1
 17521 205c 12000000 		.4byte	.LFE272
 17522 2060 0400     		.2byte	0x4
 17523 2062 F3       		.byte	0xf3
 17524 2063 01       		.uleb128 0x1
 17525 2064 51       		.byte	0x51
 17526 2065 9F       		.byte	0x9f
 17527 2066 00000000 		.4byte	0
 17528 206a 00000000 		.4byte	0
 17529              	.LLST126:
 17530 206e 00000000 		.4byte	.LVL398
 17531 2072 0D000000 		.4byte	.LVL399-1
 17532 2076 0100     		.2byte	0x1
 17533 2078 52       		.byte	0x52
 17534 2079 0D000000 		.4byte	.LVL399-1
 17535 207d 12000000 		.4byte	.LFE272
 17536 2081 0400     		.2byte	0x4
 17537 2083 F3       		.byte	0xf3
 17538 2084 01       		.uleb128 0x1
 17539 2085 52       		.byte	0x52
 17540 2086 9F       		.byte	0x9f
 17541 2087 00000000 		.4byte	0
 17542 208b 00000000 		.4byte	0
 17543              	.LLST127:
 17544 208f 00000000 		.4byte	.LVL398
 17545 2093 0D000000 		.4byte	.LVL399-1
 17546 2097 0100     		.2byte	0x1
 17547 2099 53       		.byte	0x53
 17548 209a 0D000000 		.4byte	.LVL399-1
 17549 209e 12000000 		.4byte	.LFE272
 17550 20a2 0400     		.2byte	0x4
 17551 20a4 F3       		.byte	0xf3
 17552 20a5 01       		.uleb128 0x1
 17553 20a6 53       		.byte	0x53
 17554 20a7 9F       		.byte	0x9f
 17555 20a8 00000000 		.4byte	0
 17556 20ac 00000000 		.4byte	0
 17557              	.LLST128:
 17558 20b0 00000000 		.4byte	.LVL400
ARM GAS  C:\Users\jo\AppData\Local\Temp\cc6wN9Ut.s 			page 311


 17559 20b4 10000000 		.4byte	.LVL402
 17560 20b8 0100     		.2byte	0x1
 17561 20ba 50       		.byte	0x50
 17562 20bb 10000000 		.4byte	.LVL402
 17563 20bf 1A000000 		.4byte	.LVL403
 17564 20c3 0400     		.2byte	0x4
 17565 20c5 F3       		.byte	0xf3
 17566 20c6 01       		.uleb128 0x1
 17567 20c7 50       		.byte	0x50
 17568 20c8 9F       		.byte	0x9f
 17569 20c9 1A000000 		.4byte	.LVL403
 17570 20cd 4A000000 		.4byte	.LVL405
 17571 20d1 0100     		.2byte	0x1
 17572 20d3 50       		.byte	0x50
 17573 20d4 4A000000 		.4byte	.LVL405
 17574 20d8 8C000000 		.4byte	.LVL412
 17575 20dc 0100     		.2byte	0x1
 17576 20de 54       		.byte	0x54
 17577 20df 8C000000 		.4byte	.LVL412
 17578 20e3 96000000 		.4byte	.LVL413
 17579 20e7 0400     		.2byte	0x4
 17580 20e9 F3       		.byte	0xf3
 17581 20ea 01       		.uleb128 0x1
 17582 20eb 50       		.byte	0x50
 17583 20ec 9F       		.byte	0x9f
 17584 20ed 96000000 		.4byte	.LVL413
 17585 20f1 BA000000 		.4byte	.LVL418
 17586 20f5 0100     		.2byte	0x1
 17587 20f7 54       		.byte	0x54
 17588 20f8 BA000000 		.4byte	.LVL418
 17589 20fc CC000000 		.4byte	.LVL419
 17590 2100 0400     		.2byte	0x4
 17591 2102 F3       		.byte	0xf3
 17592 2103 01       		.uleb128 0x1
 17593 2104 50       		.byte	0x50
 17594 2105 9F       		.byte	0x9f
 17595 2106 CC000000 		.4byte	.LVL419
 17596 210a D6000000 		.4byte	.LVL423
 17597 210e 0100     		.2byte	0x1
 17598 2110 50       		.byte	0x50
 17599 2111 D6000000 		.4byte	.LVL423
 17600 2115 0E010000 		.4byte	.LVL432
 17601 2119 0100     		.2byte	0x1
 17602 211b 54       		.byte	0x54
 17603 211c 0E010000 		.4byte	.LVL432
 17604 2120 22010000 		.4byte	.LVL435
 17605 2124 0400     		.2byte	0x4
 17606 2126 F3       		.byte	0xf3
 17607 2127 01       		.uleb128 0x1
 17608 2128 50       		.byte	0x50
 17609 2129 9F       		.byte	0x9f
 17610 212a 22010000 		.4byte	.LVL435
 17611 212e 25010000 		.4byte	.LVL436-1
 17612 2132 0100     		.2byte	0x1
 17613 2134 50       		.byte	0x50
 17614 2135 25010000 		.4byte	.LVL436-1
 17615 2139 44010000 		.4byte	.LFE274
ARM GAS  C:\Users\jo\AppData\Local\Temp\cc6wN9Ut.s 			page 312


 17616 213d 0100     		.2byte	0x1
 17617 213f 54       		.byte	0x54
 17618 2140 00000000 		.4byte	0
 17619 2144 00000000 		.4byte	0
 17620              	.LLST129:
 17621 2148 00000000 		.4byte	.LVL400
 17622 214c 10000000 		.4byte	.LVL402
 17623 2150 0100     		.2byte	0x1
 17624 2152 51       		.byte	0x51
 17625 2153 10000000 		.4byte	.LVL402
 17626 2157 1A000000 		.4byte	.LVL403
 17627 215b 0400     		.2byte	0x4
 17628 215d F3       		.byte	0xf3
 17629 215e 01       		.uleb128 0x1
 17630 215f 51       		.byte	0x51
 17631 2160 9F       		.byte	0x9f
 17632 2161 1A000000 		.4byte	.LVL403
 17633 2165 4A000000 		.4byte	.LVL405
 17634 2169 0100     		.2byte	0x1
 17635 216b 51       		.byte	0x51
 17636 216c 4A000000 		.4byte	.LVL405
 17637 2170 CC000000 		.4byte	.LVL419
 17638 2174 0100     		.2byte	0x1
 17639 2176 5A       		.byte	0x5a
 17640 2177 CC000000 		.4byte	.LVL419
 17641 217b D2000000 		.4byte	.LVL421
 17642 217f 0100     		.2byte	0x1
 17643 2181 51       		.byte	0x51
 17644 2182 D2000000 		.4byte	.LVL421
 17645 2186 22010000 		.4byte	.LVL435
 17646 218a 0100     		.2byte	0x1
 17647 218c 5A       		.byte	0x5a
 17648 218d 22010000 		.4byte	.LVL435
 17649 2191 25010000 		.4byte	.LVL436-1
 17650 2195 0100     		.2byte	0x1
 17651 2197 51       		.byte	0x51
 17652 2198 25010000 		.4byte	.LVL436-1
 17653 219c 44010000 		.4byte	.LFE274
 17654 21a0 0400     		.2byte	0x4
 17655 21a2 F3       		.byte	0xf3
 17656 21a3 01       		.uleb128 0x1
 17657 21a4 51       		.byte	0x51
 17658 21a5 9F       		.byte	0x9f
 17659 21a6 00000000 		.4byte	0
 17660 21aa 00000000 		.4byte	0
 17661              	.LLST130:
 17662 21ae 00000000 		.4byte	.LVL400
 17663 21b2 10000000 		.4byte	.LVL402
 17664 21b6 0100     		.2byte	0x1
 17665 21b8 52       		.byte	0x52
 17666 21b9 10000000 		.4byte	.LVL402
 17667 21bd 1A000000 		.4byte	.LVL403
 17668 21c1 0400     		.2byte	0x4
 17669 21c3 F3       		.byte	0xf3
 17670 21c4 01       		.uleb128 0x1
 17671 21c5 52       		.byte	0x52
 17672 21c6 9F       		.byte	0x9f
ARM GAS  C:\Users\jo\AppData\Local\Temp\cc6wN9Ut.s 			page 313


 17673 21c7 1A000000 		.4byte	.LVL403
 17674 21cb 4A000000 		.4byte	.LVL405
 17675 21cf 0100     		.2byte	0x1
 17676 21d1 52       		.byte	0x52
 17677 21d2 4A000000 		.4byte	.LVL405
 17678 21d6 CC000000 		.4byte	.LVL419
 17679 21da 0400     		.2byte	0x4
 17680 21dc F3       		.byte	0xf3
 17681 21dd 01       		.uleb128 0x1
 17682 21de 52       		.byte	0x52
 17683 21df 9F       		.byte	0x9f
 17684 21e0 CC000000 		.4byte	.LVL419
 17685 21e4 D4000000 		.4byte	.LVL422
 17686 21e8 0100     		.2byte	0x1
 17687 21ea 52       		.byte	0x52
 17688 21eb D4000000 		.4byte	.LVL422
 17689 21ef E6000000 		.4byte	.LVL426
 17690 21f3 0100     		.2byte	0x1
 17691 21f5 56       		.byte	0x56
 17692 21f6 E6000000 		.4byte	.LVL426
 17693 21fa 22010000 		.4byte	.LVL435
 17694 21fe 0400     		.2byte	0x4
 17695 2200 F3       		.byte	0xf3
 17696 2201 01       		.uleb128 0x1
 17697 2202 52       		.byte	0x52
 17698 2203 9F       		.byte	0x9f
 17699 2204 22010000 		.4byte	.LVL435
 17700 2208 25010000 		.4byte	.LVL436-1
 17701 220c 0100     		.2byte	0x1
 17702 220e 52       		.byte	0x52
 17703 220f 25010000 		.4byte	.LVL436-1
 17704 2213 44010000 		.4byte	.LFE274
 17705 2217 0400     		.2byte	0x4
 17706 2219 F3       		.byte	0xf3
 17707 221a 01       		.uleb128 0x1
 17708 221b 52       		.byte	0x52
 17709 221c 9F       		.byte	0x9f
 17710 221d 00000000 		.4byte	0
 17711 2221 00000000 		.4byte	0
 17712              	.LLST131:
 17713 2225 00000000 		.4byte	.LVL400
 17714 2229 10000000 		.4byte	.LVL402
 17715 222d 0100     		.2byte	0x1
 17716 222f 53       		.byte	0x53
 17717 2230 10000000 		.4byte	.LVL402
 17718 2234 1A000000 		.4byte	.LVL403
 17719 2238 0400     		.2byte	0x4
 17720 223a F3       		.byte	0xf3
 17721 223b 01       		.uleb128 0x1
 17722 223c 53       		.byte	0x53
 17723 223d 9F       		.byte	0x9f
 17724 223e 1A000000 		.4byte	.LVL403
 17725 2242 4A000000 		.4byte	.LVL405
 17726 2246 0100     		.2byte	0x1
 17727 2248 53       		.byte	0x53
 17728 2249 4A000000 		.4byte	.LVL405
 17729 224d CC000000 		.4byte	.LVL419
ARM GAS  C:\Users\jo\AppData\Local\Temp\cc6wN9Ut.s 			page 314


 17730 2251 0400     		.2byte	0x4
 17731 2253 F3       		.byte	0xf3
 17732 2254 01       		.uleb128 0x1
 17733 2255 53       		.byte	0x53
 17734 2256 9F       		.byte	0x9f
 17735 2257 CC000000 		.4byte	.LVL419
 17736 225b CE000000 		.4byte	.LVL420
 17737 225f 0100     		.2byte	0x1
 17738 2261 53       		.byte	0x53
 17739 2262 CE000000 		.4byte	.LVL420
 17740 2266 22010000 		.4byte	.LVL435
 17741 226a 0400     		.2byte	0x4
 17742 226c F3       		.byte	0xf3
 17743 226d 01       		.uleb128 0x1
 17744 226e 53       		.byte	0x53
 17745 226f 9F       		.byte	0x9f
 17746 2270 22010000 		.4byte	.LVL435
 17747 2274 25010000 		.4byte	.LVL436-1
 17748 2278 0100     		.2byte	0x1
 17749 227a 53       		.byte	0x53
 17750 227b 25010000 		.4byte	.LVL436-1
 17751 227f 44010000 		.4byte	.LFE274
 17752 2283 0400     		.2byte	0x4
 17753 2285 F3       		.byte	0xf3
 17754 2286 01       		.uleb128 0x1
 17755 2287 53       		.byte	0x53
 17756 2288 9F       		.byte	0x9f
 17757 2289 00000000 		.4byte	0
 17758 228d 00000000 		.4byte	0
 17759              	.LLST132:
 17760 2291 00000000 		.4byte	.LVL400
 17761 2295 1A000000 		.4byte	.LVL403
 17762 2299 0200     		.2byte	0x2
 17763 229b 91       		.byte	0x91
 17764 229c 00       		.sleb128 0
 17765 229d 1A000000 		.4byte	.LVL403
 17766 22a1 44010000 		.4byte	.LFE274
 17767 22a5 0200     		.2byte	0x2
 17768 22a7 91       		.byte	0x91
 17769 22a8 00       		.sleb128 0
 17770 22a9 00000000 		.4byte	0
 17771 22ad 00000000 		.4byte	0
 17772              	.LLST133:
 17773 22b1 00000000 		.4byte	.LVL400
 17774 22b5 1A000000 		.4byte	.LVL403
 17775 22b9 0200     		.2byte	0x2
 17776 22bb 91       		.byte	0x91
 17777 22bc 04       		.sleb128 4
 17778 22bd 1A000000 		.4byte	.LVL403
 17779 22c1 44010000 		.4byte	.LFE274
 17780 22c5 0200     		.2byte	0x2
 17781 22c7 91       		.byte	0x91
 17782 22c8 04       		.sleb128 4
 17783 22c9 00000000 		.4byte	0
 17784 22cd 00000000 		.4byte	0
 17785              	.LLST134:
 17786 22d1 76000000 		.4byte	.LVL409
ARM GAS  C:\Users\jo\AppData\Local\Temp\cc6wN9Ut.s 			page 315


 17787 22d5 7A000000 		.4byte	.LVL410
 17788 22d9 0100     		.2byte	0x1
 17789 22db 50       		.byte	0x50
 17790 22dc 7A000000 		.4byte	.LVL410
 17791 22e0 96000000 		.4byte	.LVL413
 17792 22e4 0100     		.2byte	0x1
 17793 22e6 55       		.byte	0x55
 17794 22e7 96000000 		.4byte	.LVL413
 17795 22eb A0000000 		.4byte	.LVL414
 17796 22ef 0100     		.2byte	0x1
 17797 22f1 50       		.byte	0x50
 17798 22f2 A6000000 		.4byte	.LVL416
 17799 22f6 CC000000 		.4byte	.LVL419
 17800 22fa 0100     		.2byte	0x1
 17801 22fc 55       		.byte	0x55
 17802 22fd FA000000 		.4byte	.LVL430
 17803 2301 FE000000 		.4byte	.LVL431
 17804 2305 0100     		.2byte	0x1
 17805 2307 55       		.byte	0x55
 17806 2308 00000000 		.4byte	0
 17807 230c 00000000 		.4byte	0
 17808              	.LLST135:
 17809 2310 46000000 		.4byte	.LVL404
 17810 2314 CC000000 		.4byte	.LVL419
 17811 2318 0100     		.2byte	0x1
 17812 231a 56       		.byte	0x56
 17813 231b E6000000 		.4byte	.LVL426
 17814 231f 22010000 		.4byte	.LVL435
 17815 2323 0100     		.2byte	0x1
 17816 2325 56       		.byte	0x56
 17817 2326 00000000 		.4byte	0
 17818 232a 00000000 		.4byte	0
 17819              	.LLST136:
 17820 232e 5A000000 		.4byte	.LVL406
 17821 2332 6C000000 		.4byte	.LVL408
 17822 2336 0100     		.2byte	0x1
 17823 2338 55       		.byte	0x55
 17824 2339 EE000000 		.4byte	.LVL428
 17825 233d FA000000 		.4byte	.LVL430
 17826 2341 0200     		.2byte	0x2
 17827 2343 30       		.byte	0x30
 17828 2344 9F       		.byte	0x9f
 17829 2345 00000000 		.4byte	0
 17830 2349 00000000 		.4byte	0
 17831              	.LLST137:
 17832 234d 68000000 		.4byte	.LVL407
 17833 2351 6C000000 		.4byte	.LVL408
 17834 2355 0100     		.2byte	0x1
 17835 2357 50       		.byte	0x50
 17836 2358 F2000000 		.4byte	.LVL429
 17837 235c FA000000 		.4byte	.LVL430
 17838 2360 0200     		.2byte	0x2
 17839 2362 30       		.byte	0x30
 17840 2363 9F       		.byte	0x9f
 17841 2364 00000000 		.4byte	0
 17842 2368 00000000 		.4byte	0
 17843              	.LLST138:
ARM GAS  C:\Users\jo\AppData\Local\Temp\cc6wN9Ut.s 			page 316


 17844 236c 0A000000 		.4byte	.LVL401
 17845 2370 10000000 		.4byte	.LVL402
 17846 2374 0100     		.2byte	0x1
 17847 2376 50       		.byte	0x50
 17848 2377 10000000 		.4byte	.LVL402
 17849 237b 1A000000 		.4byte	.LVL403
 17850 237f 0400     		.2byte	0x4
 17851 2381 F3       		.byte	0xf3
 17852 2382 01       		.uleb128 0x1
 17853 2383 50       		.byte	0x50
 17854 2384 9F       		.byte	0x9f
 17855 2385 1A000000 		.4byte	.LVL403
 17856 2389 4A000000 		.4byte	.LVL405
 17857 238d 0100     		.2byte	0x1
 17858 238f 50       		.byte	0x50
 17859 2390 4A000000 		.4byte	.LVL405
 17860 2394 8C000000 		.4byte	.LVL412
 17861 2398 0100     		.2byte	0x1
 17862 239a 54       		.byte	0x54
 17863 239b 8C000000 		.4byte	.LVL412
 17864 239f 96000000 		.4byte	.LVL413
 17865 23a3 0400     		.2byte	0x4
 17866 23a5 F3       		.byte	0xf3
 17867 23a6 01       		.uleb128 0x1
 17868 23a7 50       		.byte	0x50
 17869 23a8 9F       		.byte	0x9f
 17870 23a9 96000000 		.4byte	.LVL413
 17871 23ad BA000000 		.4byte	.LVL418
 17872 23b1 0100     		.2byte	0x1
 17873 23b3 54       		.byte	0x54
 17874 23b4 BA000000 		.4byte	.LVL418
 17875 23b8 CC000000 		.4byte	.LVL419
 17876 23bc 0400     		.2byte	0x4
 17877 23be F3       		.byte	0xf3
 17878 23bf 01       		.uleb128 0x1
 17879 23c0 50       		.byte	0x50
 17880 23c1 9F       		.byte	0x9f
 17881 23c2 CC000000 		.4byte	.LVL419
 17882 23c6 D6000000 		.4byte	.LVL423
 17883 23ca 0100     		.2byte	0x1
 17884 23cc 50       		.byte	0x50
 17885 23cd D6000000 		.4byte	.LVL423
 17886 23d1 0E010000 		.4byte	.LVL432
 17887 23d5 0100     		.2byte	0x1
 17888 23d7 54       		.byte	0x54
 17889 23d8 0E010000 		.4byte	.LVL432
 17890 23dc 22010000 		.4byte	.LVL435
 17891 23e0 0400     		.2byte	0x4
 17892 23e2 F3       		.byte	0xf3
 17893 23e3 01       		.uleb128 0x1
 17894 23e4 50       		.byte	0x50
 17895 23e5 9F       		.byte	0x9f
 17896 23e6 22010000 		.4byte	.LVL435
 17897 23ea 25010000 		.4byte	.LVL436-1
 17898 23ee 0100     		.2byte	0x1
 17899 23f0 50       		.byte	0x50
 17900 23f1 25010000 		.4byte	.LVL436-1
ARM GAS  C:\Users\jo\AppData\Local\Temp\cc6wN9Ut.s 			page 317


 17901 23f5 44010000 		.4byte	.LFE274
 17902 23f9 0100     		.2byte	0x1
 17903 23fb 54       		.byte	0x54
 17904 23fc 00000000 		.4byte	0
 17905 2400 00000000 		.4byte	0
 17906              	.LLST139:
 17907 2404 1A000000 		.4byte	.LVL403
 17908 2408 4A000000 		.4byte	.LVL405
 17909 240c 0B00     		.2byte	0xb
 17910 240e 70       		.byte	0x70
 17911 240f 00       		.sleb128 0
 17912 2410 48       		.byte	0x48
 17913 2411 1E       		.byte	0x1e
 17914 2412 03       		.byte	0x3
 17915 2413 00000000 		.4byte	sockets
 17916 2417 22       		.byte	0x22
 17917 2418 9F       		.byte	0x9f
 17918 2419 4A000000 		.4byte	.LVL405
 17919 241d 8C000000 		.4byte	.LVL412
 17920 2421 0B00     		.2byte	0xb
 17921 2423 74       		.byte	0x74
 17922 2424 00       		.sleb128 0
 17923 2425 48       		.byte	0x48
 17924 2426 1E       		.byte	0x1e
 17925 2427 03       		.byte	0x3
 17926 2428 00000000 		.4byte	sockets
 17927 242c 22       		.byte	0x22
 17928 242d 9F       		.byte	0x9f
 17929 242e 8C000000 		.4byte	.LVL412
 17930 2432 96000000 		.4byte	.LVL413
 17931 2436 0C00     		.2byte	0xc
 17932 2438 F3       		.byte	0xf3
 17933 2439 01       		.uleb128 0x1
 17934 243a 50       		.byte	0x50
 17935 243b 48       		.byte	0x48
 17936 243c 1E       		.byte	0x1e
 17937 243d 03       		.byte	0x3
 17938 243e 00000000 		.4byte	sockets
 17939 2442 22       		.byte	0x22
 17940 2443 9F       		.byte	0x9f
 17941 2444 96000000 		.4byte	.LVL413
 17942 2448 BA000000 		.4byte	.LVL418
 17943 244c 0B00     		.2byte	0xb
 17944 244e 74       		.byte	0x74
 17945 244f 00       		.sleb128 0
 17946 2450 48       		.byte	0x48
 17947 2451 1E       		.byte	0x1e
 17948 2452 03       		.byte	0x3
 17949 2453 00000000 		.4byte	sockets
 17950 2457 22       		.byte	0x22
 17951 2458 9F       		.byte	0x9f
 17952 2459 BA000000 		.4byte	.LVL418
 17953 245d CC000000 		.4byte	.LVL419
 17954 2461 0C00     		.2byte	0xc
 17955 2463 F3       		.byte	0xf3
 17956 2464 01       		.uleb128 0x1
 17957 2465 50       		.byte	0x50
ARM GAS  C:\Users\jo\AppData\Local\Temp\cc6wN9Ut.s 			page 318


 17958 2466 48       		.byte	0x48
 17959 2467 1E       		.byte	0x1e
 17960 2468 03       		.byte	0x3
 17961 2469 00000000 		.4byte	sockets
 17962 246d 22       		.byte	0x22
 17963 246e 9F       		.byte	0x9f
 17964 246f CC000000 		.4byte	.LVL419
 17965 2473 D6000000 		.4byte	.LVL423
 17966 2477 0B00     		.2byte	0xb
 17967 2479 70       		.byte	0x70
 17968 247a 00       		.sleb128 0
 17969 247b 48       		.byte	0x48
 17970 247c 1E       		.byte	0x1e
 17971 247d 03       		.byte	0x3
 17972 247e 00000000 		.4byte	sockets
 17973 2482 22       		.byte	0x22
 17974 2483 9F       		.byte	0x9f
 17975 2484 D6000000 		.4byte	.LVL423
 17976 2488 0E010000 		.4byte	.LVL432
 17977 248c 0B00     		.2byte	0xb
 17978 248e 74       		.byte	0x74
 17979 248f 00       		.sleb128 0
 17980 2490 48       		.byte	0x48
 17981 2491 1E       		.byte	0x1e
 17982 2492 03       		.byte	0x3
 17983 2493 00000000 		.4byte	sockets
 17984 2497 22       		.byte	0x22
 17985 2498 9F       		.byte	0x9f
 17986 2499 0E010000 		.4byte	.LVL432
 17987 249d 22010000 		.4byte	.LVL435
 17988 24a1 0C00     		.2byte	0xc
 17989 24a3 F3       		.byte	0xf3
 17990 24a4 01       		.uleb128 0x1
 17991 24a5 50       		.byte	0x50
 17992 24a6 48       		.byte	0x48
 17993 24a7 1E       		.byte	0x1e
 17994 24a8 03       		.byte	0x3
 17995 24a9 00000000 		.4byte	sockets
 17996 24ad 22       		.byte	0x22
 17997 24ae 9F       		.byte	0x9f
 17998 24af 22010000 		.4byte	.LVL435
 17999 24b3 25010000 		.4byte	.LVL436-1
 18000 24b7 0B00     		.2byte	0xb
 18001 24b9 70       		.byte	0x70
 18002 24ba 00       		.sleb128 0
 18003 24bb 48       		.byte	0x48
 18004 24bc 1E       		.byte	0x1e
 18005 24bd 03       		.byte	0x3
 18006 24be 00000000 		.4byte	sockets
 18007 24c2 22       		.byte	0x22
 18008 24c3 9F       		.byte	0x9f
 18009 24c4 25010000 		.4byte	.LVL436-1
 18010 24c8 44010000 		.4byte	.LFE274
 18011 24cc 0B00     		.2byte	0xb
 18012 24ce 74       		.byte	0x74
 18013 24cf 00       		.sleb128 0
 18014 24d0 48       		.byte	0x48
ARM GAS  C:\Users\jo\AppData\Local\Temp\cc6wN9Ut.s 			page 319


 18015 24d1 1E       		.byte	0x1e
 18016 24d2 03       		.byte	0x3
 18017 24d3 00000000 		.4byte	sockets
 18018 24d7 22       		.byte	0x22
 18019 24d8 9F       		.byte	0x9f
 18020 24d9 00000000 		.4byte	0
 18021 24dd 00000000 		.4byte	0
 18022              	.LLST140:
 18023 24e1 DE000000 		.4byte	.LVL424
 18024 24e5 EA000000 		.4byte	.LVL427
 18025 24e9 0600     		.2byte	0x6
 18026 24eb 03       		.byte	0x3
 18027 24ec 64010000 		.4byte	.LC14
 18028 24f0 9F       		.byte	0x9f
 18029 24f1 00000000 		.4byte	0
 18030 24f5 00000000 		.4byte	0
 18031              	.LLST141:
 18032 24f9 12010000 		.4byte	.LVL433
 18033 24fd 22010000 		.4byte	.LVL435
 18034 2501 0600     		.2byte	0x6
 18035 2503 03       		.byte	0x3
 18036 2504 88010000 		.4byte	.LC15
 18037 2508 9F       		.byte	0x9f
 18038 2509 00000000 		.4byte	0
 18039 250d 00000000 		.4byte	0
 18040              	.LLST142:
 18041 2511 00000000 		.4byte	.LVL437
 18042 2515 0C000000 		.4byte	.LVL439
 18043 2519 0100     		.2byte	0x1
 18044 251b 50       		.byte	0x50
 18045 251c 0C000000 		.4byte	.LVL439
 18046 2520 16000000 		.4byte	.LVL440
 18047 2524 0400     		.2byte	0x4
 18048 2526 F3       		.byte	0xf3
 18049 2527 01       		.uleb128 0x1
 18050 2528 50       		.byte	0x50
 18051 2529 9F       		.byte	0x9f
 18052 252a 16000000 		.4byte	.LVL440
 18053 252e 3E000000 		.4byte	.LVL441
 18054 2532 0100     		.2byte	0x1
 18055 2534 50       		.byte	0x50
 18056 2535 3E000000 		.4byte	.LVL441
 18057 2539 66000000 		.4byte	.LVL447
 18058 253d 0100     		.2byte	0x1
 18059 253f 54       		.byte	0x54
 18060 2540 66000000 		.4byte	.LVL447
 18061 2544 80000000 		.4byte	.LVL449
 18062 2548 0400     		.2byte	0x4
 18063 254a F3       		.byte	0xf3
 18064 254b 01       		.uleb128 0x1
 18065 254c 50       		.byte	0x50
 18066 254d 9F       		.byte	0x9f
 18067 254e 80000000 		.4byte	.LVL449
 18068 2552 89000000 		.4byte	.LVL450-1
 18069 2556 0100     		.2byte	0x1
 18070 2558 50       		.byte	0x50
 18071 2559 89000000 		.4byte	.LVL450-1
ARM GAS  C:\Users\jo\AppData\Local\Temp\cc6wN9Ut.s 			page 320


 18072 255d 98000000 		.4byte	.LFE273
 18073 2561 0400     		.2byte	0x4
 18074 2563 F3       		.byte	0xf3
 18075 2564 01       		.uleb128 0x1
 18076 2565 50       		.byte	0x50
 18077 2566 9F       		.byte	0x9f
 18078 2567 00000000 		.4byte	0
 18079 256b 00000000 		.4byte	0
 18080              	.LLST143:
 18081 256f 00000000 		.4byte	.LVL437
 18082 2573 0C000000 		.4byte	.LVL439
 18083 2577 0100     		.2byte	0x1
 18084 2579 51       		.byte	0x51
 18085 257a 0C000000 		.4byte	.LVL439
 18086 257e 16000000 		.4byte	.LVL440
 18087 2582 0400     		.2byte	0x4
 18088 2584 F3       		.byte	0xf3
 18089 2585 01       		.uleb128 0x1
 18090 2586 51       		.byte	0x51
 18091 2587 9F       		.byte	0x9f
 18092 2588 16000000 		.4byte	.LVL440
 18093 258c 5B000000 		.4byte	.LVL446-1
 18094 2590 0100     		.2byte	0x1
 18095 2592 51       		.byte	0x51
 18096 2593 5B000000 		.4byte	.LVL446-1
 18097 2597 80000000 		.4byte	.LVL449
 18098 259b 0400     		.2byte	0x4
 18099 259d F3       		.byte	0xf3
 18100 259e 01       		.uleb128 0x1
 18101 259f 51       		.byte	0x51
 18102 25a0 9F       		.byte	0x9f
 18103 25a1 80000000 		.4byte	.LVL449
 18104 25a5 89000000 		.4byte	.LVL450-1
 18105 25a9 0100     		.2byte	0x1
 18106 25ab 51       		.byte	0x51
 18107 25ac 89000000 		.4byte	.LVL450-1
 18108 25b0 98000000 		.4byte	.LFE273
 18109 25b4 0400     		.2byte	0x4
 18110 25b6 F3       		.byte	0xf3
 18111 25b7 01       		.uleb128 0x1
 18112 25b8 51       		.byte	0x51
 18113 25b9 9F       		.byte	0x9f
 18114 25ba 00000000 		.4byte	0
 18115 25be 00000000 		.4byte	0
 18116              	.LLST144:
 18117 25c2 00000000 		.4byte	.LVL437
 18118 25c6 0C000000 		.4byte	.LVL439
 18119 25ca 0100     		.2byte	0x1
 18120 25cc 52       		.byte	0x52
 18121 25cd 0C000000 		.4byte	.LVL439
 18122 25d1 16000000 		.4byte	.LVL440
 18123 25d5 0400     		.2byte	0x4
 18124 25d7 F3       		.byte	0xf3
 18125 25d8 01       		.uleb128 0x1
 18126 25d9 52       		.byte	0x52
 18127 25da 9F       		.byte	0x9f
 18128 25db 16000000 		.4byte	.LVL440
ARM GAS  C:\Users\jo\AppData\Local\Temp\cc6wN9Ut.s 			page 321


 18129 25df 5B000000 		.4byte	.LVL446-1
 18130 25e3 0100     		.2byte	0x1
 18131 25e5 52       		.byte	0x52
 18132 25e6 5B000000 		.4byte	.LVL446-1
 18133 25ea 80000000 		.4byte	.LVL449
 18134 25ee 0400     		.2byte	0x4
 18135 25f0 F3       		.byte	0xf3
 18136 25f1 01       		.uleb128 0x1
 18137 25f2 52       		.byte	0x52
 18138 25f3 9F       		.byte	0x9f
 18139 25f4 80000000 		.4byte	.LVL449
 18140 25f8 89000000 		.4byte	.LVL450-1
 18141 25fc 0100     		.2byte	0x1
 18142 25fe 52       		.byte	0x52
 18143 25ff 89000000 		.4byte	.LVL450-1
 18144 2603 98000000 		.4byte	.LFE273
 18145 2607 0400     		.2byte	0x4
 18146 2609 F3       		.byte	0xf3
 18147 260a 01       		.uleb128 0x1
 18148 260b 52       		.byte	0x52
 18149 260c 9F       		.byte	0x9f
 18150 260d 00000000 		.4byte	0
 18151 2611 00000000 		.4byte	0
 18152              	.LLST145:
 18153 2615 00000000 		.4byte	.LVL437
 18154 2619 0C000000 		.4byte	.LVL439
 18155 261d 0100     		.2byte	0x1
 18156 261f 53       		.byte	0x53
 18157 2620 0C000000 		.4byte	.LVL439
 18158 2624 16000000 		.4byte	.LVL440
 18159 2628 0400     		.2byte	0x4
 18160 262a F3       		.byte	0xf3
 18161 262b 01       		.uleb128 0x1
 18162 262c 53       		.byte	0x53
 18163 262d 9F       		.byte	0x9f
 18164 262e 16000000 		.4byte	.LVL440
 18165 2632 46000000 		.4byte	.LVL442
 18166 2636 0100     		.2byte	0x1
 18167 2638 53       		.byte	0x53
 18168 2639 46000000 		.4byte	.LVL442
 18169 263d 50000000 		.4byte	.LVL443
 18170 2641 0100     		.2byte	0x1
 18171 2643 55       		.byte	0x55
 18172 2644 50000000 		.4byte	.LVL443
 18173 2648 80000000 		.4byte	.LVL449
 18174 264c 0400     		.2byte	0x4
 18175 264e F3       		.byte	0xf3
 18176 264f 01       		.uleb128 0x1
 18177 2650 53       		.byte	0x53
 18178 2651 9F       		.byte	0x9f
 18179 2652 80000000 		.4byte	.LVL449
 18180 2656 89000000 		.4byte	.LVL450-1
 18181 265a 0100     		.2byte	0x1
 18182 265c 53       		.byte	0x53
 18183 265d 89000000 		.4byte	.LVL450-1
 18184 2661 98000000 		.4byte	.LFE273
 18185 2665 0400     		.2byte	0x4
ARM GAS  C:\Users\jo\AppData\Local\Temp\cc6wN9Ut.s 			page 322


 18186 2667 F3       		.byte	0xf3
 18187 2668 01       		.uleb128 0x1
 18188 2669 53       		.byte	0x53
 18189 266a 9F       		.byte	0x9f
 18190 266b 00000000 		.4byte	0
 18191 266f 00000000 		.4byte	0
 18192              	.LLST146:
 18193 2673 5C000000 		.4byte	.LVL446
 18194 2677 7A000000 		.4byte	.LVL448
 18195 267b 0100     		.2byte	0x1
 18196 267d 50       		.byte	0x50
 18197 267e 00000000 		.4byte	0
 18198 2682 00000000 		.4byte	0
 18199              	.LLST147:
 18200 2686 52000000 		.4byte	.LVL444
 18201 268a 54000000 		.4byte	.LVL445
 18202 268e 0600     		.2byte	0x6
 18203 2690 75       		.byte	0x75
 18204 2691 00       		.sleb128 0
 18205 2692 73       		.byte	0x73
 18206 2693 00       		.sleb128 0
 18207 2694 21       		.byte	0x21
 18208 2695 9F       		.byte	0x9f
 18209 2696 54000000 		.4byte	.LVL445
 18210 269a 80000000 		.4byte	.LVL449
 18211 269e 2700     		.2byte	0x27
 18212 26a0 31       		.byte	0x31
 18213 26a1 33       		.byte	0x33
 18214 26a2 F3       		.byte	0xf3
 18215 26a3 01       		.uleb128 0x1
 18216 26a4 53       		.byte	0x53
 18217 26a5 F3       		.byte	0xf3
 18218 26a6 01       		.uleb128 0x1
 18219 26a7 53       		.byte	0x53
 18220 26a8 09       		.byte	0x9
 18221 26a9 FF       		.byte	0xff
 18222 26aa 24       		.byte	0x24
 18223 26ab 33       		.byte	0x33
 18224 26ac 25       		.byte	0x25
 18225 26ad 30       		.byte	0x30
 18226 26ae 2E       		.byte	0x2e
 18227 26af 28       		.byte	0x28
 18228 26b0 0100     		.2byte	0x1
 18229 26b2 16       		.byte	0x16
 18230 26b3 13       		.byte	0x13
 18231 26b4 F3       		.byte	0xf3
 18232 26b5 01       		.uleb128 0x1
 18233 26b6 53       		.byte	0x53
 18234 26b7 09       		.byte	0x9
 18235 26b8 FF       		.byte	0xff
 18236 26b9 24       		.byte	0x24
 18237 26ba 33       		.byte	0x33
 18238 26bb 25       		.byte	0x25
 18239 26bc 30       		.byte	0x30
 18240 26bd 29       		.byte	0x29
 18241 26be 28       		.byte	0x28
 18242 26bf 0100     		.2byte	0x1
ARM GAS  C:\Users\jo\AppData\Local\Temp\cc6wN9Ut.s 			page 323


 18243 26c1 16       		.byte	0x16
 18244 26c2 13       		.byte	0x13
 18245 26c3 75       		.byte	0x75
 18246 26c4 00       		.sleb128 0
 18247 26c5 21       		.byte	0x21
 18248 26c6 9F       		.byte	0x9f
 18249 26c7 00000000 		.4byte	0
 18250 26cb 00000000 		.4byte	0
 18251              	.LLST148:
 18252 26cf 0A000000 		.4byte	.LVL438
 18253 26d3 0C000000 		.4byte	.LVL439
 18254 26d7 0100     		.2byte	0x1
 18255 26d9 50       		.byte	0x50
 18256 26da 0C000000 		.4byte	.LVL439
 18257 26de 16000000 		.4byte	.LVL440
 18258 26e2 0400     		.2byte	0x4
 18259 26e4 F3       		.byte	0xf3
 18260 26e5 01       		.uleb128 0x1
 18261 26e6 50       		.byte	0x50
 18262 26e7 9F       		.byte	0x9f
 18263 26e8 16000000 		.4byte	.LVL440
 18264 26ec 3E000000 		.4byte	.LVL441
 18265 26f0 0100     		.2byte	0x1
 18266 26f2 50       		.byte	0x50
 18267 26f3 3E000000 		.4byte	.LVL441
 18268 26f7 66000000 		.4byte	.LVL447
 18269 26fb 0100     		.2byte	0x1
 18270 26fd 54       		.byte	0x54
 18271 26fe 66000000 		.4byte	.LVL447
 18272 2702 80000000 		.4byte	.LVL449
 18273 2706 0400     		.2byte	0x4
 18274 2708 F3       		.byte	0xf3
 18275 2709 01       		.uleb128 0x1
 18276 270a 50       		.byte	0x50
 18277 270b 9F       		.byte	0x9f
 18278 270c 80000000 		.4byte	.LVL449
 18279 2710 89000000 		.4byte	.LVL450-1
 18280 2714 0100     		.2byte	0x1
 18281 2716 50       		.byte	0x50
 18282 2717 89000000 		.4byte	.LVL450-1
 18283 271b 98000000 		.4byte	.LFE273
 18284 271f 0400     		.2byte	0x4
 18285 2721 F3       		.byte	0xf3
 18286 2722 01       		.uleb128 0x1
 18287 2723 50       		.byte	0x50
 18288 2724 9F       		.byte	0x9f
 18289 2725 00000000 		.4byte	0
 18290 2729 00000000 		.4byte	0
 18291              	.LLST149:
 18292 272d 16000000 		.4byte	.LVL440
 18293 2731 3E000000 		.4byte	.LVL441
 18294 2735 0B00     		.2byte	0xb
 18295 2737 70       		.byte	0x70
 18296 2738 00       		.sleb128 0
 18297 2739 48       		.byte	0x48
 18298 273a 1E       		.byte	0x1e
 18299 273b 03       		.byte	0x3
ARM GAS  C:\Users\jo\AppData\Local\Temp\cc6wN9Ut.s 			page 324


 18300 273c 00000000 		.4byte	sockets
 18301 2740 22       		.byte	0x22
 18302 2741 9F       		.byte	0x9f
 18303 2742 3E000000 		.4byte	.LVL441
 18304 2746 66000000 		.4byte	.LVL447
 18305 274a 0B00     		.2byte	0xb
 18306 274c 74       		.byte	0x74
 18307 274d 00       		.sleb128 0
 18308 274e 48       		.byte	0x48
 18309 274f 1E       		.byte	0x1e
 18310 2750 03       		.byte	0x3
 18311 2751 00000000 		.4byte	sockets
 18312 2755 22       		.byte	0x22
 18313 2756 9F       		.byte	0x9f
 18314 2757 66000000 		.4byte	.LVL447
 18315 275b 80000000 		.4byte	.LVL449
 18316 275f 0C00     		.2byte	0xc
 18317 2761 F3       		.byte	0xf3
 18318 2762 01       		.uleb128 0x1
 18319 2763 50       		.byte	0x50
 18320 2764 48       		.byte	0x48
 18321 2765 1E       		.byte	0x1e
 18322 2766 03       		.byte	0x3
 18323 2767 00000000 		.4byte	sockets
 18324 276b 22       		.byte	0x22
 18325 276c 9F       		.byte	0x9f
 18326 276d 80000000 		.4byte	.LVL449
 18327 2771 89000000 		.4byte	.LVL450-1
 18328 2775 0B00     		.2byte	0xb
 18329 2777 70       		.byte	0x70
 18330 2778 00       		.sleb128 0
 18331 2779 48       		.byte	0x48
 18332 277a 1E       		.byte	0x1e
 18333 277b 03       		.byte	0x3
 18334 277c 00000000 		.4byte	sockets
 18335 2780 22       		.byte	0x22
 18336 2781 9F       		.byte	0x9f
 18337 2782 89000000 		.4byte	.LVL450-1
 18338 2786 98000000 		.4byte	.LFE273
 18339 278a 0C00     		.2byte	0xc
 18340 278c F3       		.byte	0xf3
 18341 278d 01       		.uleb128 0x1
 18342 278e 50       		.byte	0x50
 18343 278f 48       		.byte	0x48
 18344 2790 1E       		.byte	0x1e
 18345 2791 03       		.byte	0x3
 18346 2792 00000000 		.4byte	sockets
 18347 2796 22       		.byte	0x22
 18348 2797 9F       		.byte	0x9f
 18349 2798 00000000 		.4byte	0
 18350 279c 00000000 		.4byte	0
 18351              	.LLST150:
 18352 27a0 00000000 		.4byte	.LVL451
 18353 27a4 0E000000 		.4byte	.LVL452
 18354 27a8 0100     		.2byte	0x1
 18355 27aa 50       		.byte	0x50
 18356 27ab 0E000000 		.4byte	.LVL452
ARM GAS  C:\Users\jo\AppData\Local\Temp\cc6wN9Ut.s 			page 325


 18357 27af 14000000 		.4byte	.LVL453
 18358 27b3 0400     		.2byte	0x4
 18359 27b5 F3       		.byte	0xf3
 18360 27b6 01       		.uleb128 0x1
 18361 27b7 50       		.byte	0x50
 18362 27b8 9F       		.byte	0x9f
 18363 27b9 14000000 		.4byte	.LVL453
 18364 27bd 16000000 		.4byte	.LVL454
 18365 27c1 0100     		.2byte	0x1
 18366 27c3 50       		.byte	0x50
 18367 27c4 16000000 		.4byte	.LVL454
 18368 27c8 3E000000 		.4byte	.LVL460
 18369 27cc 0400     		.2byte	0x4
 18370 27ce F3       		.byte	0xf3
 18371 27cf 01       		.uleb128 0x1
 18372 27d0 50       		.byte	0x50
 18373 27d1 9F       		.byte	0x9f
 18374 27d2 3E000000 		.4byte	.LVL460
 18375 27d6 42000000 		.4byte	.LVL462
 18376 27da 0100     		.2byte	0x1
 18377 27dc 50       		.byte	0x50
 18378 27dd 42000000 		.4byte	.LVL462
 18379 27e1 50000000 		.4byte	.LVL466
 18380 27e5 0400     		.2byte	0x4
 18381 27e7 F3       		.byte	0xf3
 18382 27e8 01       		.uleb128 0x1
 18383 27e9 50       		.byte	0x50
 18384 27ea 9F       		.byte	0x9f
 18385 27eb 50000000 		.4byte	.LVL466
 18386 27ef 56000000 		.4byte	.LVL467
 18387 27f3 0100     		.2byte	0x1
 18388 27f5 50       		.byte	0x50
 18389 27f6 56000000 		.4byte	.LVL467
 18390 27fa 78000000 		.4byte	.LFE275
 18391 27fe 0400     		.2byte	0x4
 18392 2800 F3       		.byte	0xf3
 18393 2801 01       		.uleb128 0x1
 18394 2802 50       		.byte	0x50
 18395 2803 9F       		.byte	0x9f
 18396 2804 00000000 		.4byte	0
 18397 2808 00000000 		.4byte	0
 18398              	.LLST151:
 18399 280c 00000000 		.4byte	.LVL451
 18400 2810 0E000000 		.4byte	.LVL452
 18401 2814 0100     		.2byte	0x1
 18402 2816 51       		.byte	0x51
 18403 2817 0E000000 		.4byte	.LVL452
 18404 281b 14000000 		.4byte	.LVL453
 18405 281f 0400     		.2byte	0x4
 18406 2821 F3       		.byte	0xf3
 18407 2822 01       		.uleb128 0x1
 18408 2823 51       		.byte	0x51
 18409 2824 9F       		.byte	0x9f
 18410 2825 14000000 		.4byte	.LVL453
 18411 2829 18000000 		.4byte	.LVL455
 18412 282d 0100     		.2byte	0x1
 18413 282f 51       		.byte	0x51
ARM GAS  C:\Users\jo\AppData\Local\Temp\cc6wN9Ut.s 			page 326


 18414 2830 18000000 		.4byte	.LVL455
 18415 2834 3E000000 		.4byte	.LVL460
 18416 2838 0400     		.2byte	0x4
 18417 283a F3       		.byte	0xf3
 18418 283b 01       		.uleb128 0x1
 18419 283c 51       		.byte	0x51
 18420 283d 9F       		.byte	0x9f
 18421 283e 3E000000 		.4byte	.LVL460
 18422 2842 40000000 		.4byte	.LVL461
 18423 2846 0100     		.2byte	0x1
 18424 2848 51       		.byte	0x51
 18425 2849 40000000 		.4byte	.LVL461
 18426 284d 50000000 		.4byte	.LVL466
 18427 2851 0400     		.2byte	0x4
 18428 2853 F3       		.byte	0xf3
 18429 2854 01       		.uleb128 0x1
 18430 2855 51       		.byte	0x51
 18431 2856 9F       		.byte	0x9f
 18432 2857 50000000 		.4byte	.LVL466
 18433 285b 5A000000 		.4byte	.LVL468
 18434 285f 0100     		.2byte	0x1
 18435 2861 51       		.byte	0x51
 18436 2862 5A000000 		.4byte	.LVL468
 18437 2866 78000000 		.4byte	.LFE275
 18438 286a 0400     		.2byte	0x4
 18439 286c F3       		.byte	0xf3
 18440 286d 01       		.uleb128 0x1
 18441 286e 51       		.byte	0x51
 18442 286f 9F       		.byte	0x9f
 18443 2870 00000000 		.4byte	0
 18444 2874 00000000 		.4byte	0
 18445              	.LLST152:
 18446 2878 00000000 		.4byte	.LVL451
 18447 287c 0E000000 		.4byte	.LVL452
 18448 2880 0100     		.2byte	0x1
 18449 2882 52       		.byte	0x52
 18450 2883 0E000000 		.4byte	.LVL452
 18451 2887 14000000 		.4byte	.LVL453
 18452 288b 0400     		.2byte	0x4
 18453 288d F3       		.byte	0xf3
 18454 288e 01       		.uleb128 0x1
 18455 288f 52       		.byte	0x52
 18456 2890 9F       		.byte	0x9f
 18457 2891 14000000 		.4byte	.LVL453
 18458 2895 1A000000 		.4byte	.LVL456
 18459 2899 0100     		.2byte	0x1
 18460 289b 52       		.byte	0x52
 18461 289c 1A000000 		.4byte	.LVL456
 18462 28a0 3E000000 		.4byte	.LVL460
 18463 28a4 0400     		.2byte	0x4
 18464 28a6 F3       		.byte	0xf3
 18465 28a7 01       		.uleb128 0x1
 18466 28a8 52       		.byte	0x52
 18467 28a9 9F       		.byte	0x9f
 18468 28aa 3E000000 		.4byte	.LVL460
 18469 28ae 44000000 		.4byte	.LVL463
 18470 28b2 0100     		.2byte	0x1
ARM GAS  C:\Users\jo\AppData\Local\Temp\cc6wN9Ut.s 			page 327


 18471 28b4 52       		.byte	0x52
 18472 28b5 44000000 		.4byte	.LVL463
 18473 28b9 50000000 		.4byte	.LVL466
 18474 28bd 0400     		.2byte	0x4
 18475 28bf F3       		.byte	0xf3
 18476 28c0 01       		.uleb128 0x1
 18477 28c1 52       		.byte	0x52
 18478 28c2 9F       		.byte	0x9f
 18479 28c3 50000000 		.4byte	.LVL466
 18480 28c7 5C000000 		.4byte	.LVL469
 18481 28cb 0100     		.2byte	0x1
 18482 28cd 52       		.byte	0x52
 18483 28ce 5C000000 		.4byte	.LVL469
 18484 28d2 78000000 		.4byte	.LFE275
 18485 28d6 0400     		.2byte	0x4
 18486 28d8 F3       		.byte	0xf3
 18487 28d9 01       		.uleb128 0x1
 18488 28da 52       		.byte	0x52
 18489 28db 9F       		.byte	0x9f
 18490 28dc 00000000 		.4byte	0
 18491 28e0 00000000 		.4byte	0
 18492              	.LLST153:
 18493 28e4 1E000000 		.4byte	.LVL457
 18494 28e8 33000000 		.4byte	.LVL458-1
 18495 28ec 0100     		.2byte	0x1
 18496 28ee 50       		.byte	0x50
 18497 28ef 33000000 		.4byte	.LVL458-1
 18498 28f3 3E000000 		.4byte	.LVL460
 18499 28f7 0100     		.2byte	0x1
 18500 28f9 55       		.byte	0x55
 18501 28fa 4A000000 		.4byte	.LVL465
 18502 28fe 50000000 		.4byte	.LVL466
 18503 2902 0100     		.2byte	0x1
 18504 2904 50       		.byte	0x50
 18505 2905 62000000 		.4byte	.LVL471
 18506 2909 68000000 		.4byte	.LVL472
 18507 290d 0100     		.2byte	0x1
 18508 290f 50       		.byte	0x50
 18509 2910 68000000 		.4byte	.LVL472
 18510 2914 72000000 		.4byte	.LVL475
 18511 2918 0100     		.2byte	0x1
 18512 291a 55       		.byte	0x55
 18513 291b 00000000 		.4byte	0
 18514 291f 00000000 		.4byte	0
 18515              	.LLST154:
 18516 2923 38000000 		.4byte	.LVL459
 18517 2927 3E000000 		.4byte	.LVL460
 18518 292b 0100     		.2byte	0x1
 18519 292d 50       		.byte	0x50
 18520 292e 68000000 		.4byte	.LVL472
 18521 2932 6A000000 		.4byte	.LVL473
 18522 2936 0100     		.2byte	0x1
 18523 2938 50       		.byte	0x50
 18524 2939 6A000000 		.4byte	.LVL473
 18525 293d 72000000 		.4byte	.LVL475
 18526 2941 0100     		.2byte	0x1
 18527 2943 54       		.byte	0x54
ARM GAS  C:\Users\jo\AppData\Local\Temp\cc6wN9Ut.s 			page 328


 18528 2944 72000000 		.4byte	.LVL475
 18529 2948 78000000 		.4byte	.LFE275
 18530 294c 0100     		.2byte	0x1
 18531 294e 50       		.byte	0x50
 18532 294f 00000000 		.4byte	0
 18533 2953 00000000 		.4byte	0
 18534              	.LLST155:
 18535 2957 00000000 		.4byte	.LVL476
 18536 295b 05000000 		.4byte	.LVL477-1
 18537 295f 0100     		.2byte	0x1
 18538 2961 50       		.byte	0x50
 18539 2962 05000000 		.4byte	.LVL477-1
 18540 2966 06000000 		.4byte	.LFE276
 18541 296a 0400     		.2byte	0x4
 18542 296c F3       		.byte	0xf3
 18543 296d 01       		.uleb128 0x1
 18544 296e 50       		.byte	0x50
 18545 296f 9F       		.byte	0x9f
 18546 2970 00000000 		.4byte	0
 18547 2974 00000000 		.4byte	0
 18548              	.LLST156:
 18549 2978 00000000 		.4byte	.LVL476
 18550 297c 05000000 		.4byte	.LVL477-1
 18551 2980 0100     		.2byte	0x1
 18552 2982 51       		.byte	0x51
 18553 2983 05000000 		.4byte	.LVL477-1
 18554 2987 06000000 		.4byte	.LFE276
 18555 298b 0400     		.2byte	0x4
 18556 298d F3       		.byte	0xf3
 18557 298e 01       		.uleb128 0x1
 18558 298f 51       		.byte	0x51
 18559 2990 9F       		.byte	0x9f
 18560 2991 00000000 		.4byte	0
 18561 2995 00000000 		.4byte	0
 18562              	.LLST157:
 18563 2999 00000000 		.4byte	.LVL476
 18564 299d 05000000 		.4byte	.LVL477-1
 18565 29a1 0100     		.2byte	0x1
 18566 29a3 52       		.byte	0x52
 18567 29a4 05000000 		.4byte	.LVL477-1
 18568 29a8 06000000 		.4byte	.LFE276
 18569 29ac 0400     		.2byte	0x4
 18570 29ae F3       		.byte	0xf3
 18571 29af 01       		.uleb128 0x1
 18572 29b0 52       		.byte	0x52
 18573 29b1 9F       		.byte	0x9f
 18574 29b2 00000000 		.4byte	0
 18575 29b6 00000000 		.4byte	0
 18576              	.LLST158:
 18577 29ba 00000000 		.4byte	.LVL478
 18578 29be 1F000000 		.4byte	.LVL479-1
 18579 29c2 0100     		.2byte	0x1
 18580 29c4 50       		.byte	0x50
 18581 29c5 1F000000 		.4byte	.LVL479-1
 18582 29c9 8A000000 		.4byte	.LVL484
 18583 29cd 0100     		.2byte	0x1
 18584 29cf 57       		.byte	0x57
ARM GAS  C:\Users\jo\AppData\Local\Temp\cc6wN9Ut.s 			page 329


 18585 29d0 8A000000 		.4byte	.LVL484
 18586 29d4 0E010000 		.4byte	.LVL495
 18587 29d8 0100     		.2byte	0x1
 18588 29da 58       		.byte	0x58
 18589 29db 0E010000 		.4byte	.LVL495
 18590 29df 11010000 		.4byte	.LVL496-1
 18591 29e3 0100     		.2byte	0x1
 18592 29e5 50       		.byte	0x50
 18593 29e6 11010000 		.4byte	.LVL496-1
 18594 29ea 2A010000 		.4byte	.LVL498
 18595 29ee 0100     		.2byte	0x1
 18596 29f0 57       		.byte	0x57
 18597 29f1 2A010000 		.4byte	.LVL498
 18598 29f5 7C010000 		.4byte	.LVL504
 18599 29f9 0100     		.2byte	0x1
 18600 29fb 58       		.byte	0x58
 18601 29fc 7C010000 		.4byte	.LVL504
 18602 2a00 EC010000 		.4byte	.LVL509
 18603 2a04 0100     		.2byte	0x1
 18604 2a06 57       		.byte	0x57
 18605 2a07 EC010000 		.4byte	.LVL509
 18606 2a0b 00020000 		.4byte	.LVL510
 18607 2a0f 0100     		.2byte	0x1
 18608 2a11 58       		.byte	0x58
 18609 2a12 00020000 		.4byte	.LVL510
 18610 2a16 B6020000 		.4byte	.LVL535
 18611 2a1a 0100     		.2byte	0x1
 18612 2a1c 57       		.byte	0x57
 18613 2a1d B6020000 		.4byte	.LVL535
 18614 2a21 3E030000 		.4byte	.LVL541
 18615 2a25 0100     		.2byte	0x1
 18616 2a27 58       		.byte	0x58
 18617 2a28 3E030000 		.4byte	.LVL541
 18618 2a2c 60030000 		.4byte	.LFE278
 18619 2a30 0100     		.2byte	0x1
 18620 2a32 57       		.byte	0x57
 18621 2a33 00000000 		.4byte	0
 18622 2a37 00000000 		.4byte	0
 18623              	.LLST159:
 18624 2a3b 00000000 		.4byte	.LVL478
 18625 2a3f 1F000000 		.4byte	.LVL479-1
 18626 2a43 0100     		.2byte	0x1
 18627 2a45 51       		.byte	0x51
 18628 2a46 1F000000 		.4byte	.LVL479-1
 18629 2a4a 8E000000 		.4byte	.LVL486
 18630 2a4e 0100     		.2byte	0x1
 18631 2a50 55       		.byte	0x55
 18632 2a51 8E000000 		.4byte	.LVL486
 18633 2a55 FC000000 		.4byte	.LVL493
 18634 2a59 0100     		.2byte	0x1
 18635 2a5b 56       		.byte	0x56
 18636 2a5c FC000000 		.4byte	.LVL493
 18637 2a60 2E010000 		.4byte	.LVL500
 18638 2a64 0100     		.2byte	0x1
 18639 2a66 55       		.byte	0x55
 18640 2a67 2E010000 		.4byte	.LVL500
 18641 2a6b 76010000 		.4byte	.LVL502
ARM GAS  C:\Users\jo\AppData\Local\Temp\cc6wN9Ut.s 			page 330


 18642 2a6f 0100     		.2byte	0x1
 18643 2a71 56       		.byte	0x56
 18644 2a72 76010000 		.4byte	.LVL502
 18645 2a76 EC010000 		.4byte	.LVL509
 18646 2a7a 0100     		.2byte	0x1
 18647 2a7c 55       		.byte	0x55
 18648 2a7d EC010000 		.4byte	.LVL509
 18649 2a81 00020000 		.4byte	.LVL510
 18650 2a85 0100     		.2byte	0x1
 18651 2a87 56       		.byte	0x56
 18652 2a88 00020000 		.4byte	.LVL510
 18653 2a8c B6020000 		.4byte	.LVL535
 18654 2a90 0100     		.2byte	0x1
 18655 2a92 55       		.byte	0x55
 18656 2a93 B6020000 		.4byte	.LVL535
 18657 2a97 3E030000 		.4byte	.LVL541
 18658 2a9b 0100     		.2byte	0x1
 18659 2a9d 56       		.byte	0x56
 18660 2a9e 3E030000 		.4byte	.LVL541
 18661 2aa2 60030000 		.4byte	.LFE278
 18662 2aa6 0100     		.2byte	0x1
 18663 2aa8 55       		.byte	0x55
 18664 2aa9 00000000 		.4byte	0
 18665 2aad 00000000 		.4byte	0
 18666              	.LLST160:
 18667 2ab1 00000000 		.4byte	.LVL478
 18668 2ab5 1F000000 		.4byte	.LVL479-1
 18669 2ab9 0100     		.2byte	0x1
 18670 2abb 52       		.byte	0x52
 18671 2abc 1F000000 		.4byte	.LVL479-1
 18672 2ac0 8C000000 		.4byte	.LVL485
 18673 2ac4 0100     		.2byte	0x1
 18674 2ac6 56       		.byte	0x56
 18675 2ac7 8C000000 		.4byte	.LVL485
 18676 2acb FE000000 		.4byte	.LVL494
 18677 2acf 0100     		.2byte	0x1
 18678 2ad1 57       		.byte	0x57
 18679 2ad2 FE000000 		.4byte	.LVL494
 18680 2ad6 2C010000 		.4byte	.LVL499
 18681 2ada 0100     		.2byte	0x1
 18682 2adc 56       		.byte	0x56
 18683 2add 2C010000 		.4byte	.LVL499
 18684 2ae1 78010000 		.4byte	.LVL503
 18685 2ae5 0100     		.2byte	0x1
 18686 2ae7 57       		.byte	0x57
 18687 2ae8 78010000 		.4byte	.LVL503
 18688 2aec EC010000 		.4byte	.LVL509
 18689 2af0 0100     		.2byte	0x1
 18690 2af2 56       		.byte	0x56
 18691 2af3 EC010000 		.4byte	.LVL509
 18692 2af7 00020000 		.4byte	.LVL510
 18693 2afb 0100     		.2byte	0x1
 18694 2afd 57       		.byte	0x57
 18695 2afe 00020000 		.4byte	.LVL510
 18696 2b02 B6020000 		.4byte	.LVL535
 18697 2b06 0100     		.2byte	0x1
 18698 2b08 56       		.byte	0x56
ARM GAS  C:\Users\jo\AppData\Local\Temp\cc6wN9Ut.s 			page 331


 18699 2b09 B6020000 		.4byte	.LVL535
 18700 2b0d 3E030000 		.4byte	.LVL541
 18701 2b11 0100     		.2byte	0x1
 18702 2b13 57       		.byte	0x57
 18703 2b14 3E030000 		.4byte	.LVL541
 18704 2b18 60030000 		.4byte	.LFE278
 18705 2b1c 0100     		.2byte	0x1
 18706 2b1e 56       		.byte	0x56
 18707 2b1f 00000000 		.4byte	0
 18708 2b23 00000000 		.4byte	0
 18709              	.LLST161:
 18710 2b27 00000000 		.4byte	.LVL478
 18711 2b2b 1F000000 		.4byte	.LVL479-1
 18712 2b2f 0100     		.2byte	0x1
 18713 2b31 53       		.byte	0x53
 18714 2b32 1F000000 		.4byte	.LVL479-1
 18715 2b36 60030000 		.4byte	.LFE278
 18716 2b3a 0100     		.2byte	0x1
 18717 2b3c 5B       		.byte	0x5b
 18718 2b3d 00000000 		.4byte	0
 18719 2b41 00000000 		.4byte	0
 18720              	.LLST162:
 18721 2b45 00000000 		.4byte	.LVL478
 18722 2b49 EC010000 		.4byte	.LVL509
 18723 2b4d 0200     		.2byte	0x2
 18724 2b4f 91       		.byte	0x91
 18725 2b50 00       		.sleb128 0
 18726 2b51 EC010000 		.4byte	.LVL509
 18727 2b55 60030000 		.4byte	.LFE278
 18728 2b59 0200     		.2byte	0x2
 18729 2b5b 91       		.byte	0x91
 18730 2b5c 00       		.sleb128 0
 18731 2b5d 00000000 		.4byte	0
 18732 2b61 00000000 		.4byte	0
 18733              	.LLST163:
 18734 2b65 00000000 		.4byte	.LVL478
 18735 2b69 B4000000 		.4byte	.LVL488
 18736 2b6d 0200     		.2byte	0x2
 18737 2b6f 30       		.byte	0x30
 18738 2b70 9F       		.byte	0x9f
 18739 2b71 C4000000 		.4byte	.LVL491
 18740 2b75 1C010000 		.4byte	.LVL497
 18741 2b79 0200     		.2byte	0x2
 18742 2b7b 30       		.byte	0x30
 18743 2b7c 9F       		.byte	0x9f
 18744 2b7d 1C010000 		.4byte	.LVL497
 18745 2b81 7C010000 		.4byte	.LVL504
 18746 2b85 0300     		.2byte	0x3
 18747 2b87 91       		.byte	0x91
 18748 2b88 987F     		.sleb128 -104
 18749 2b8a EC010000 		.4byte	.LVL509
 18750 2b8e 00020000 		.4byte	.LVL510
 18751 2b92 0300     		.2byte	0x3
 18752 2b94 91       		.byte	0x91
 18753 2b95 987F     		.sleb128 -104
 18754 2b97 00020000 		.4byte	.LVL510
 18755 2b9b 38020000 		.4byte	.LVL517
ARM GAS  C:\Users\jo\AppData\Local\Temp\cc6wN9Ut.s 			page 332


 18756 2b9f 0200     		.2byte	0x2
 18757 2ba1 30       		.byte	0x30
 18758 2ba2 9F       		.byte	0x9f
 18759 2ba3 38020000 		.4byte	.LVL517
 18760 2ba7 3E020000 		.4byte	.LVL518
 18761 2bab 0100     		.2byte	0x1
 18762 2bad 50       		.byte	0x50
 18763 2bae 60020000 		.4byte	.LVL522
 18764 2bb2 7C020000 		.4byte	.LVL525
 18765 2bb6 0200     		.2byte	0x2
 18766 2bb8 30       		.byte	0x30
 18767 2bb9 9F       		.byte	0x9f
 18768 2bba 9A020000 		.4byte	.LVL528
 18769 2bbe AE020000 		.4byte	.LVL532
 18770 2bc2 0200     		.2byte	0x2
 18771 2bc4 30       		.byte	0x30
 18772 2bc5 9F       		.byte	0x9f
 18773 2bc6 AE020000 		.4byte	.LVL532
 18774 2bca B0020000 		.4byte	.LVL533
 18775 2bce 0100     		.2byte	0x1
 18776 2bd0 50       		.byte	0x50
 18777 2bd1 B0020000 		.4byte	.LVL533
 18778 2bd5 B6020000 		.4byte	.LVL535
 18779 2bd9 0200     		.2byte	0x2
 18780 2bdb 30       		.byte	0x30
 18781 2bdc 9F       		.byte	0x9f
 18782 2bdd B6020000 		.4byte	.LVL535
 18783 2be1 10030000 		.4byte	.LVL538
 18784 2be5 0300     		.2byte	0x3
 18785 2be7 91       		.byte	0x91
 18786 2be8 987F     		.sleb128 -104
 18787 2bea 10030000 		.4byte	.LVL538
 18788 2bee 4C030000 		.4byte	.LVL544
 18789 2bf2 0200     		.2byte	0x2
 18790 2bf4 30       		.byte	0x30
 18791 2bf5 9F       		.byte	0x9f
 18792 2bf6 4C030000 		.4byte	.LVL544
 18793 2bfa 60030000 		.4byte	.LFE278
 18794 2bfe 0100     		.2byte	0x1
 18795 2c00 50       		.byte	0x50
 18796 2c01 00000000 		.4byte	0
 18797 2c05 00000000 		.4byte	0
 18798              	.LLST164:
 18799 2c09 20000000 		.4byte	.LVL479
 18800 2c0d 40000000 		.4byte	.LVL480
 18801 2c11 0100     		.2byte	0x1
 18802 2c13 50       		.byte	0x50
 18803 2c14 40000000 		.4byte	.LVL480
 18804 2c18 88000000 		.4byte	.LVL483
 18805 2c1c 0100     		.2byte	0x1
 18806 2c1e 58       		.byte	0x58
 18807 2c1f 88000000 		.4byte	.LVL483
 18808 2c23 B4000000 		.4byte	.LVL488
 18809 2c27 0300     		.2byte	0x3
 18810 2c29 91       		.byte	0x91
 18811 2c2a 987F     		.sleb128 -104
 18812 2c2c C4000000 		.4byte	.LVL491
ARM GAS  C:\Users\jo\AppData\Local\Temp\cc6wN9Ut.s 			page 333


 18813 2c30 12010000 		.4byte	.LVL496
 18814 2c34 0300     		.2byte	0x3
 18815 2c36 91       		.byte	0x91
 18816 2c37 987F     		.sleb128 -104
 18817 2c39 12010000 		.4byte	.LVL496
 18818 2c3d 1C010000 		.4byte	.LVL497
 18819 2c41 0100     		.2byte	0x1
 18820 2c43 50       		.byte	0x50
 18821 2c44 C0010000 		.4byte	.LVL507
 18822 2c48 E4010000 		.4byte	.LVL508
 18823 2c4c 0100     		.2byte	0x1
 18824 2c4e 58       		.byte	0x58
 18825 2c4f 00020000 		.4byte	.LVL510
 18826 2c53 1A020000 		.4byte	.LVL512
 18827 2c57 0100     		.2byte	0x1
 18828 2c59 50       		.byte	0x50
 18829 2c5a 60020000 		.4byte	.LVL522
 18830 2c5e 72020000 		.4byte	.LVL524
 18831 2c62 0100     		.2byte	0x1
 18832 2c64 58       		.byte	0x58
 18833 2c65 72020000 		.4byte	.LVL524
 18834 2c69 7C020000 		.4byte	.LVL525
 18835 2c6d 0100     		.2byte	0x1
 18836 2c6f 50       		.byte	0x50
 18837 2c70 9A020000 		.4byte	.LVL528
 18838 2c74 A2020000 		.4byte	.LVL530
 18839 2c78 0100     		.2byte	0x1
 18840 2c7a 50       		.byte	0x50
 18841 2c7b B0020000 		.4byte	.LVL533
 18842 2c7f B4020000 		.4byte	.LVL534
 18843 2c83 0100     		.2byte	0x1
 18844 2c85 58       		.byte	0x58
 18845 2c86 10030000 		.4byte	.LVL538
 18846 2c8a 3E030000 		.4byte	.LVL541
 18847 2c8e 0300     		.2byte	0x3
 18848 2c90 91       		.byte	0x91
 18849 2c91 987F     		.sleb128 -104
 18850 2c93 3E030000 		.4byte	.LVL541
 18851 2c97 40030000 		.4byte	.LVL542
 18852 2c9b 0100     		.2byte	0x1
 18853 2c9d 50       		.byte	0x50
 18854 2c9e 00000000 		.4byte	0
 18855 2ca2 00000000 		.4byte	0
 18856              	.LLST165:
 18857 2ca6 28020000 		.4byte	.LVL513
 18858 2caa 2A020000 		.4byte	.LVL514
 18859 2cae 0100     		.2byte	0x1
 18860 2cb0 51       		.byte	0x51
 18861 2cb1 A0020000 		.4byte	.LVL529
 18862 2cb5 B0020000 		.4byte	.LVL533
 18863 2cb9 0200     		.2byte	0x2
 18864 2cbb 30       		.byte	0x30
 18865 2cbc 9F       		.byte	0x9f
 18866 2cbd 3E030000 		.4byte	.LVL541
 18867 2cc1 60030000 		.4byte	.LFE278
 18868 2cc5 0200     		.2byte	0x2
 18869 2cc7 30       		.byte	0x30
ARM GAS  C:\Users\jo\AppData\Local\Temp\cc6wN9Ut.s 			page 334


 18870 2cc8 9F       		.byte	0x9f
 18871 2cc9 00000000 		.4byte	0
 18872 2ccd 00000000 		.4byte	0
 18873              	.LLST166:
 18874 2cd1 52000000 		.4byte	.LVL481
 18875 2cd5 8E000000 		.4byte	.LVL486
 18876 2cd9 0100     		.2byte	0x1
 18877 2cdb 50       		.byte	0x50
 18878 2cdc 60020000 		.4byte	.LVL522
 18879 2ce0 68020000 		.4byte	.LVL523
 18880 2ce4 0100     		.2byte	0x1
 18881 2ce6 50       		.byte	0x50
 18882 2ce7 B0020000 		.4byte	.LVL533
 18883 2ceb B6020000 		.4byte	.LVL535
 18884 2cef 0100     		.2byte	0x1
 18885 2cf1 50       		.byte	0x50
 18886 2cf2 00000000 		.4byte	0
 18887 2cf6 00000000 		.4byte	0
 18888              	.LLST167:
 18889 2cfa 78000000 		.4byte	.LVL482
 18890 2cfe 8E000000 		.4byte	.LVL486
 18891 2d02 0200     		.2byte	0x2
 18892 2d04 30       		.byte	0x30
 18893 2d05 9F       		.byte	0x9f
 18894 2d06 8E000000 		.4byte	.LVL486
 18895 2d0a 1C010000 		.4byte	.LVL497
 18896 2d0e 0100     		.2byte	0x1
 18897 2d10 54       		.byte	0x54
 18898 2d11 1C010000 		.4byte	.LVL497
 18899 2d15 2E010000 		.4byte	.LVL500
 18900 2d19 0200     		.2byte	0x2
 18901 2d1b 30       		.byte	0x30
 18902 2d1c 9F       		.byte	0x9f
 18903 2d1d 2E010000 		.4byte	.LVL500
 18904 2d21 7C010000 		.4byte	.LVL504
 18905 2d25 0100     		.2byte	0x1
 18906 2d27 54       		.byte	0x54
 18907 2d28 EC010000 		.4byte	.LVL509
 18908 2d2c 08020000 		.4byte	.LVL511
 18909 2d30 0100     		.2byte	0x1
 18910 2d32 54       		.byte	0x54
 18911 2d33 38020000 		.4byte	.LVL517
 18912 2d37 3E020000 		.4byte	.LVL518
 18913 2d3b 0200     		.2byte	0x2
 18914 2d3d 30       		.byte	0x30
 18915 2d3e 9F       		.byte	0x9f
 18916 2d3f 60020000 		.4byte	.LVL522
 18917 2d43 7C020000 		.4byte	.LVL525
 18918 2d47 0200     		.2byte	0x2
 18919 2d49 30       		.byte	0x30
 18920 2d4a 9F       		.byte	0x9f
 18921 2d4b 9A020000 		.4byte	.LVL528
 18922 2d4f B0020000 		.4byte	.LVL533
 18923 2d53 0200     		.2byte	0x2
 18924 2d55 30       		.byte	0x30
 18925 2d56 9F       		.byte	0x9f
 18926 2d57 B6020000 		.4byte	.LVL535
ARM GAS  C:\Users\jo\AppData\Local\Temp\cc6wN9Ut.s 			page 335


 18927 2d5b 4C030000 		.4byte	.LVL544
 18928 2d5f 0100     		.2byte	0x1
 18929 2d61 54       		.byte	0x54
 18930 2d62 4C030000 		.4byte	.LVL544
 18931 2d66 60030000 		.4byte	.LFE278
 18932 2d6a 0200     		.2byte	0x2
 18933 2d6c 30       		.byte	0x30
 18934 2d6d 9F       		.byte	0x9f
 18935 2d6e 00000000 		.4byte	0
 18936 2d72 00000000 		.4byte	0
 18937              	.LLST168:
 18938 2d76 A0000000 		.4byte	.LVL487
 18939 2d7a B4000000 		.4byte	.LVL488
 18940 2d7e 0100     		.2byte	0x1
 18941 2d80 54       		.byte	0x54
 18942 2d81 10030000 		.4byte	.LVL538
 18943 2d85 3E030000 		.4byte	.LVL541
 18944 2d89 0100     		.2byte	0x1
 18945 2d8b 54       		.byte	0x54
 18946 2d8c 00000000 		.4byte	0
 18947 2d90 00000000 		.4byte	0
 18948              	.LLST169:
 18949 2d94 36030000 		.4byte	.LVL539
 18950 2d98 3E030000 		.4byte	.LVL541
 18951 2d9c 0600     		.2byte	0x6
 18952 2d9e 03       		.byte	0x3
 18953 2d9f A8010000 		.4byte	.LC16
 18954 2da3 9F       		.byte	0x9f
 18955 2da4 00000000 		.4byte	0
 18956 2da8 00000000 		.4byte	0
 18957              	.LLST170:
 18958 2dac B8000000 		.4byte	.LVL489
 18959 2db0 C4000000 		.4byte	.LVL491
 18960 2db4 0600     		.2byte	0x6
 18961 2db6 03       		.byte	0x3
 18962 2db7 10020000 		.4byte	.LC20
 18963 2dbb 9F       		.byte	0x9f
 18964 2dbc 00000000 		.4byte	0
 18965 2dc0 00000000 		.4byte	0
 18966              	.LLST171:
 18967 2dc4 EC010000 		.4byte	.LVL509
 18968 2dc8 00020000 		.4byte	.LVL510
 18969 2dcc 0100     		.2byte	0x1
 18970 2dce 54       		.byte	0x54
 18971 2dcf B6020000 		.4byte	.LVL535
 18972 2dd3 10030000 		.4byte	.LVL538
 18973 2dd7 0100     		.2byte	0x1
 18974 2dd9 54       		.byte	0x54
 18975 2dda 00000000 		.4byte	0
 18976 2dde 00000000 		.4byte	0
 18977              	.LLST172:
 18978 2de2 DA020000 		.4byte	.LVL536
 18979 2de6 10030000 		.4byte	.LVL538
 18980 2dea 0600     		.2byte	0x6
 18981 2dec 03       		.byte	0x3
 18982 2ded C4010000 		.4byte	.LC17
 18983 2df1 9F       		.byte	0x9f
ARM GAS  C:\Users\jo\AppData\Local\Temp\cc6wN9Ut.s 			page 336


 18984 2df2 00000000 		.4byte	0
 18985 2df6 00000000 		.4byte	0
 18986              	.LLST173:
 18987 2dfa 52020000 		.4byte	.LVL519
 18988 2dfe 5A020000 		.4byte	.LVL521
 18989 2e02 0600     		.2byte	0x6
 18990 2e04 03       		.byte	0x3
 18991 2e05 E0010000 		.4byte	.LC18
 18992 2e09 9F       		.byte	0x9f
 18993 2e0a 00000000 		.4byte	0
 18994 2e0e 00000000 		.4byte	0
 18995              	.LLST174:
 18996 2e12 8E020000 		.4byte	.LVL526
 18997 2e16 9A020000 		.4byte	.LVL528
 18998 2e1a 0600     		.2byte	0x6
 18999 2e1c 03       		.byte	0x3
 19000 2e1d F8010000 		.4byte	.LC19
 19001 2e21 9F       		.byte	0x9f
 19002 2e22 00000000 		.4byte	0
 19003 2e26 00000000 		.4byte	0
 19004              	.LLST175:
 19005 2e2a 00000000 		.4byte	.LVL545
 19006 2e2e 08000000 		.4byte	.LVL546
 19007 2e32 0100     		.2byte	0x1
 19008 2e34 50       		.byte	0x50
 19009 2e35 08000000 		.4byte	.LVL546
 19010 2e39 0A000000 		.4byte	.LVL547
 19011 2e3d 0400     		.2byte	0x4
 19012 2e3f F3       		.byte	0xf3
 19013 2e40 01       		.uleb128 0x1
 19014 2e41 50       		.byte	0x50
 19015 2e42 9F       		.byte	0x9f
 19016 2e43 0A000000 		.4byte	.LVL547
 19017 2e47 2A000000 		.4byte	.LVL548
 19018 2e4b 0100     		.2byte	0x1
 19019 2e4d 50       		.byte	0x50
 19020 2e4e 2A000000 		.4byte	.LVL548
 19021 2e52 2E000000 		.4byte	.LVL549
 19022 2e56 0400     		.2byte	0x4
 19023 2e58 F3       		.byte	0xf3
 19024 2e59 01       		.uleb128 0x1
 19025 2e5a 50       		.byte	0x50
 19026 2e5b 9F       		.byte	0x9f
 19027 2e5c 2E000000 		.4byte	.LVL549
 19028 2e60 3C000000 		.4byte	.LVL550
 19029 2e64 0100     		.2byte	0x1
 19030 2e66 50       		.byte	0x50
 19031 2e67 3C000000 		.4byte	.LVL550
 19032 2e6b 40000000 		.4byte	.LVL551
 19033 2e6f 0400     		.2byte	0x4
 19034 2e71 F3       		.byte	0xf3
 19035 2e72 01       		.uleb128 0x1
 19036 2e73 50       		.byte	0x50
 19037 2e74 9F       		.byte	0x9f
 19038 2e75 40000000 		.4byte	.LVL551
 19039 2e79 44000000 		.4byte	.LVL552
 19040 2e7d 0100     		.2byte	0x1
ARM GAS  C:\Users\jo\AppData\Local\Temp\cc6wN9Ut.s 			page 337


 19041 2e7f 50       		.byte	0x50
 19042 2e80 44000000 		.4byte	.LVL552
 19043 2e84 46000000 		.4byte	.LVL553
 19044 2e88 0400     		.2byte	0x4
 19045 2e8a F3       		.byte	0xf3
 19046 2e8b 01       		.uleb128 0x1
 19047 2e8c 50       		.byte	0x50
 19048 2e8d 9F       		.byte	0x9f
 19049 2e8e 46000000 		.4byte	.LVL553
 19050 2e92 4E000000 		.4byte	.LVL556
 19051 2e96 0100     		.2byte	0x1
 19052 2e98 50       		.byte	0x50
 19053 2e99 4E000000 		.4byte	.LVL556
 19054 2e9d 5C000000 		.4byte	.LVL558
 19055 2ea1 0100     		.2byte	0x1
 19056 2ea3 54       		.byte	0x54
 19057 2ea4 5C000000 		.4byte	.LVL558
 19058 2ea8 74000000 		.4byte	.LVL560
 19059 2eac 0400     		.2byte	0x4
 19060 2eae F3       		.byte	0xf3
 19061 2eaf 01       		.uleb128 0x1
 19062 2eb0 50       		.byte	0x50
 19063 2eb1 9F       		.byte	0x9f
 19064 2eb2 74000000 		.4byte	.LVL560
 19065 2eb6 88000000 		.4byte	.LFE280
 19066 2eba 0100     		.2byte	0x1
 19067 2ebc 50       		.byte	0x50
 19068 2ebd 00000000 		.4byte	0
 19069 2ec1 00000000 		.4byte	0
 19070              	.LLST176:
 19071 2ec5 00000000 		.4byte	.LVL545
 19072 2ec9 4A000000 		.4byte	.LVL554
 19073 2ecd 0100     		.2byte	0x1
 19074 2ecf 51       		.byte	0x51
 19075 2ed0 4A000000 		.4byte	.LVL554
 19076 2ed4 74000000 		.4byte	.LVL560
 19077 2ed8 0400     		.2byte	0x4
 19078 2eda F3       		.byte	0xf3
 19079 2edb 01       		.uleb128 0x1
 19080 2edc 51       		.byte	0x51
 19081 2edd 9F       		.byte	0x9f
 19082 2ede 74000000 		.4byte	.LVL560
 19083 2ee2 78000000 		.4byte	.LVL561
 19084 2ee6 0100     		.2byte	0x1
 19085 2ee8 51       		.byte	0x51
 19086 2ee9 78000000 		.4byte	.LVL561
 19087 2eed 7A000000 		.4byte	.LVL562
 19088 2ef1 0100     		.2byte	0x1
 19089 2ef3 52       		.byte	0x52
 19090 2ef4 7A000000 		.4byte	.LVL562
 19091 2ef8 7E000000 		.4byte	.LVL563
 19092 2efc 0100     		.2byte	0x1
 19093 2efe 51       		.byte	0x51
 19094 2eff 7E000000 		.4byte	.LVL563
 19095 2f03 88000000 		.4byte	.LFE280
 19096 2f07 0400     		.2byte	0x4
 19097 2f09 F3       		.byte	0xf3
ARM GAS  C:\Users\jo\AppData\Local\Temp\cc6wN9Ut.s 			page 338


 19098 2f0a 01       		.uleb128 0x1
 19099 2f0b 51       		.byte	0x51
 19100 2f0c 9F       		.byte	0x9f
 19101 2f0d 00000000 		.4byte	0
 19102 2f11 00000000 		.4byte	0
 19103              	.LLST177:
 19104 2f15 52000000 		.4byte	.LVL557
 19105 2f19 6A000000 		.4byte	.LVL559
 19106 2f1d 0100     		.2byte	0x1
 19107 2f1f 50       		.byte	0x50
 19108 2f20 00000000 		.4byte	0
 19109 2f24 00000000 		.4byte	0
 19110              	.LLST178:
 19111 2f28 00000000 		.4byte	.LVL545
 19112 2f2c 4C000000 		.4byte	.LVL555
 19113 2f30 0200     		.2byte	0x2
 19114 2f32 30       		.byte	0x30
 19115 2f33 9F       		.byte	0x9f
 19116 2f34 4C000000 		.4byte	.LVL555
 19117 2f38 51000000 		.4byte	.LVL557-1
 19118 2f3c 0100     		.2byte	0x1
 19119 2f3e 51       		.byte	0x51
 19120 2f3f 74000000 		.4byte	.LVL560
 19121 2f43 88000000 		.4byte	.LFE280
 19122 2f47 0200     		.2byte	0x2
 19123 2f49 30       		.byte	0x30
 19124 2f4a 9F       		.byte	0x9f
 19125 2f4b 00000000 		.4byte	0
 19126 2f4f 00000000 		.4byte	0
 19127              	.LLST179:
 19128 2f53 00000000 		.4byte	.LVL545
 19129 2f57 4C000000 		.4byte	.LVL555
 19130 2f5b 0200     		.2byte	0x2
 19131 2f5d 30       		.byte	0x30
 19132 2f5e 9F       		.byte	0x9f
 19133 2f5f 4C000000 		.4byte	.LVL555
 19134 2f63 51000000 		.4byte	.LVL557-1
 19135 2f67 0100     		.2byte	0x1
 19136 2f69 52       		.byte	0x52
 19137 2f6a 74000000 		.4byte	.LVL560
 19138 2f6e 88000000 		.4byte	.LFE280
 19139 2f72 0200     		.2byte	0x2
 19140 2f74 30       		.byte	0x30
 19141 2f75 9F       		.byte	0x9f
 19142 2f76 00000000 		.4byte	0
 19143 2f7a 00000000 		.4byte	0
 19144              	.LLST181:
 19145 2f7e 0A000000 		.4byte	.LVL547
 19146 2f82 2A000000 		.4byte	.LVL548
 19147 2f86 0B00     		.2byte	0xb
 19148 2f88 70       		.byte	0x70
 19149 2f89 00       		.sleb128 0
 19150 2f8a 48       		.byte	0x48
 19151 2f8b 1E       		.byte	0x1e
 19152 2f8c 03       		.byte	0x3
 19153 2f8d 00000000 		.4byte	sockets
 19154 2f91 22       		.byte	0x22
ARM GAS  C:\Users\jo\AppData\Local\Temp\cc6wN9Ut.s 			page 339


 19155 2f92 9F       		.byte	0x9f
 19156 2f93 2A000000 		.4byte	.LVL548
 19157 2f97 2E000000 		.4byte	.LVL549
 19158 2f9b 0C00     		.2byte	0xc
 19159 2f9d F3       		.byte	0xf3
 19160 2f9e 01       		.uleb128 0x1
 19161 2f9f 50       		.byte	0x50
 19162 2fa0 48       		.byte	0x48
 19163 2fa1 1E       		.byte	0x1e
 19164 2fa2 03       		.byte	0x3
 19165 2fa3 00000000 		.4byte	sockets
 19166 2fa7 22       		.byte	0x22
 19167 2fa8 9F       		.byte	0x9f
 19168 2fa9 2E000000 		.4byte	.LVL549
 19169 2fad 3C000000 		.4byte	.LVL550
 19170 2fb1 0B00     		.2byte	0xb
 19171 2fb3 70       		.byte	0x70
 19172 2fb4 00       		.sleb128 0
 19173 2fb5 48       		.byte	0x48
 19174 2fb6 1E       		.byte	0x1e
 19175 2fb7 03       		.byte	0x3
 19176 2fb8 00000000 		.4byte	sockets
 19177 2fbc 22       		.byte	0x22
 19178 2fbd 9F       		.byte	0x9f
 19179 2fbe 3C000000 		.4byte	.LVL550
 19180 2fc2 40000000 		.4byte	.LVL551
 19181 2fc6 0C00     		.2byte	0xc
 19182 2fc8 F3       		.byte	0xf3
 19183 2fc9 01       		.uleb128 0x1
 19184 2fca 50       		.byte	0x50
 19185 2fcb 48       		.byte	0x48
 19186 2fcc 1E       		.byte	0x1e
 19187 2fcd 03       		.byte	0x3
 19188 2fce 00000000 		.4byte	sockets
 19189 2fd2 22       		.byte	0x22
 19190 2fd3 9F       		.byte	0x9f
 19191 2fd4 40000000 		.4byte	.LVL551
 19192 2fd8 44000000 		.4byte	.LVL552
 19193 2fdc 0B00     		.2byte	0xb
 19194 2fde 70       		.byte	0x70
 19195 2fdf 00       		.sleb128 0
 19196 2fe0 48       		.byte	0x48
 19197 2fe1 1E       		.byte	0x1e
 19198 2fe2 03       		.byte	0x3
 19199 2fe3 00000000 		.4byte	sockets
 19200 2fe7 22       		.byte	0x22
 19201 2fe8 9F       		.byte	0x9f
 19202 2fe9 44000000 		.4byte	.LVL552
 19203 2fed 46000000 		.4byte	.LVL553
 19204 2ff1 0C00     		.2byte	0xc
 19205 2ff3 F3       		.byte	0xf3
 19206 2ff4 01       		.uleb128 0x1
 19207 2ff5 50       		.byte	0x50
 19208 2ff6 48       		.byte	0x48
 19209 2ff7 1E       		.byte	0x1e
 19210 2ff8 03       		.byte	0x3
 19211 2ff9 00000000 		.4byte	sockets
ARM GAS  C:\Users\jo\AppData\Local\Temp\cc6wN9Ut.s 			page 340


 19212 2ffd 22       		.byte	0x22
 19213 2ffe 9F       		.byte	0x9f
 19214 2fff 46000000 		.4byte	.LVL553
 19215 3003 4E000000 		.4byte	.LVL556
 19216 3007 0B00     		.2byte	0xb
 19217 3009 70       		.byte	0x70
 19218 300a 00       		.sleb128 0
 19219 300b 48       		.byte	0x48
 19220 300c 1E       		.byte	0x1e
 19221 300d 03       		.byte	0x3
 19222 300e 00000000 		.4byte	sockets
 19223 3012 22       		.byte	0x22
 19224 3013 9F       		.byte	0x9f
 19225 3014 4E000000 		.4byte	.LVL556
 19226 3018 5C000000 		.4byte	.LVL558
 19227 301c 0B00     		.2byte	0xb
 19228 301e 74       		.byte	0x74
 19229 301f 00       		.sleb128 0
 19230 3020 48       		.byte	0x48
 19231 3021 1E       		.byte	0x1e
 19232 3022 03       		.byte	0x3
 19233 3023 00000000 		.4byte	sockets
 19234 3027 22       		.byte	0x22
 19235 3028 9F       		.byte	0x9f
 19236 3029 5C000000 		.4byte	.LVL558
 19237 302d 74000000 		.4byte	.LVL560
 19238 3031 0C00     		.2byte	0xc
 19239 3033 F3       		.byte	0xf3
 19240 3034 01       		.uleb128 0x1
 19241 3035 50       		.byte	0x50
 19242 3036 48       		.byte	0x48
 19243 3037 1E       		.byte	0x1e
 19244 3038 03       		.byte	0x3
 19245 3039 00000000 		.4byte	sockets
 19246 303d 22       		.byte	0x22
 19247 303e 9F       		.byte	0x9f
 19248 303f 74000000 		.4byte	.LVL560
 19249 3043 88000000 		.4byte	.LFE280
 19250 3047 0B00     		.2byte	0xb
 19251 3049 70       		.byte	0x70
 19252 304a 00       		.sleb128 0
 19253 304b 48       		.byte	0x48
 19254 304c 1E       		.byte	0x1e
 19255 304d 03       		.byte	0x3
 19256 304e 00000000 		.4byte	sockets
 19257 3052 22       		.byte	0x22
 19258 3053 9F       		.byte	0x9f
 19259 3054 00000000 		.4byte	0
 19260 3058 00000000 		.4byte	0
 19261              	.LLST182:
 19262 305c 00000000 		.4byte	.LVL564
 19263 3060 05000000 		.4byte	.LVL565-1
 19264 3064 0100     		.2byte	0x1
 19265 3066 50       		.byte	0x50
 19266 3067 05000000 		.4byte	.LVL565-1
 19267 306b 06000000 		.4byte	.LFE282
 19268 306f 0400     		.2byte	0x4
ARM GAS  C:\Users\jo\AppData\Local\Temp\cc6wN9Ut.s 			page 341


 19269 3071 F3       		.byte	0xf3
 19270 3072 01       		.uleb128 0x1
 19271 3073 50       		.byte	0x50
 19272 3074 9F       		.byte	0x9f
 19273 3075 00000000 		.4byte	0
 19274 3079 00000000 		.4byte	0
 19275              	.LLST183:
 19276 307d 00000000 		.4byte	.LVL564
 19277 3081 05000000 		.4byte	.LVL565-1
 19278 3085 0100     		.2byte	0x1
 19279 3087 51       		.byte	0x51
 19280 3088 05000000 		.4byte	.LVL565-1
 19281 308c 06000000 		.4byte	.LFE282
 19282 3090 0400     		.2byte	0x4
 19283 3092 F3       		.byte	0xf3
 19284 3093 01       		.uleb128 0x1
 19285 3094 51       		.byte	0x51
 19286 3095 9F       		.byte	0x9f
 19287 3096 00000000 		.4byte	0
 19288 309a 00000000 		.4byte	0
 19289              	.LLST184:
 19290 309e 00000000 		.4byte	.LVL564
 19291 30a2 05000000 		.4byte	.LVL565-1
 19292 30a6 0100     		.2byte	0x1
 19293 30a8 52       		.byte	0x52
 19294 30a9 05000000 		.4byte	.LVL565-1
 19295 30ad 06000000 		.4byte	.LFE282
 19296 30b1 0400     		.2byte	0x4
 19297 30b3 F3       		.byte	0xf3
 19298 30b4 01       		.uleb128 0x1
 19299 30b5 52       		.byte	0x52
 19300 30b6 9F       		.byte	0x9f
 19301 30b7 00000000 		.4byte	0
 19302 30bb 00000000 		.4byte	0
 19303              	.LLST185:
 19304 30bf 00000000 		.4byte	.LVL566
 19305 30c3 05000000 		.4byte	.LVL567-1
 19306 30c7 0100     		.2byte	0x1
 19307 30c9 50       		.byte	0x50
 19308 30ca 05000000 		.4byte	.LVL567-1
 19309 30ce 06000000 		.4byte	.LFE283
 19310 30d2 0400     		.2byte	0x4
 19311 30d4 F3       		.byte	0xf3
 19312 30d5 01       		.uleb128 0x1
 19313 30d6 50       		.byte	0x50
 19314 30d7 9F       		.byte	0x9f
 19315 30d8 00000000 		.4byte	0
 19316 30dc 00000000 		.4byte	0
 19317              	.LLST186:
 19318 30e0 00000000 		.4byte	.LVL566
 19319 30e4 05000000 		.4byte	.LVL567-1
 19320 30e8 0100     		.2byte	0x1
 19321 30ea 51       		.byte	0x51
 19322 30eb 05000000 		.4byte	.LVL567-1
 19323 30ef 06000000 		.4byte	.LFE283
 19324 30f3 0400     		.2byte	0x4
 19325 30f5 F3       		.byte	0xf3
ARM GAS  C:\Users\jo\AppData\Local\Temp\cc6wN9Ut.s 			page 342


 19326 30f6 01       		.uleb128 0x1
 19327 30f7 51       		.byte	0x51
 19328 30f8 9F       		.byte	0x9f
 19329 30f9 00000000 		.4byte	0
 19330 30fd 00000000 		.4byte	0
 19331              	.LLST187:
 19332 3101 00000000 		.4byte	.LVL566
 19333 3105 05000000 		.4byte	.LVL567-1
 19334 3109 0100     		.2byte	0x1
 19335 310b 52       		.byte	0x52
 19336 310c 05000000 		.4byte	.LVL567-1
 19337 3110 06000000 		.4byte	.LFE283
 19338 3114 0400     		.2byte	0x4
 19339 3116 F3       		.byte	0xf3
 19340 3117 01       		.uleb128 0x1
 19341 3118 52       		.byte	0x52
 19342 3119 9F       		.byte	0x9f
 19343 311a 00000000 		.4byte	0
 19344 311e 00000000 		.4byte	0
 19345              	.LLST188:
 19346 3122 00000000 		.4byte	.LVL568
 19347 3126 10000000 		.4byte	.LVL569
 19348 312a 0100     		.2byte	0x1
 19349 312c 50       		.byte	0x50
 19350 312d 10000000 		.4byte	.LVL569
 19351 3131 16000000 		.4byte	.LVL570
 19352 3135 0400     		.2byte	0x4
 19353 3137 F3       		.byte	0xf3
 19354 3138 01       		.uleb128 0x1
 19355 3139 50       		.byte	0x50
 19356 313a 9F       		.byte	0x9f
 19357 313b 16000000 		.4byte	.LVL570
 19358 313f 48000000 		.4byte	.LVL573
 19359 3143 0100     		.2byte	0x1
 19360 3145 50       		.byte	0x50
 19361 3146 48000000 		.4byte	.LVL573
 19362 314a 54000000 		.4byte	.LVL574
 19363 314e 0400     		.2byte	0x4
 19364 3150 F3       		.byte	0xf3
 19365 3151 01       		.uleb128 0x1
 19366 3152 50       		.byte	0x50
 19367 3153 9F       		.byte	0x9f
 19368 3154 54000000 		.4byte	.LVL574
 19369 3158 64000000 		.4byte	.LVL575
 19370 315c 0100     		.2byte	0x1
 19371 315e 50       		.byte	0x50
 19372 315f 64000000 		.4byte	.LVL575
 19373 3163 66000000 		.4byte	.LVL576
 19374 3167 0400     		.2byte	0x4
 19375 3169 F3       		.byte	0xf3
 19376 316a 01       		.uleb128 0x1
 19377 316b 50       		.byte	0x50
 19378 316c 9F       		.byte	0x9f
 19379 316d 66000000 		.4byte	.LVL576
 19380 3171 8C000000 		.4byte	.LVL582
 19381 3175 0100     		.2byte	0x1
 19382 3177 50       		.byte	0x50
ARM GAS  C:\Users\jo\AppData\Local\Temp\cc6wN9Ut.s 			page 343


 19383 3178 8C000000 		.4byte	.LVL582
 19384 317c AA000000 		.4byte	.LVL584
 19385 3180 0100     		.2byte	0x1
 19386 3182 54       		.byte	0x54
 19387 3183 AA000000 		.4byte	.LVL584
 19388 3187 CC000000 		.4byte	.LVL586
 19389 318b 0400     		.2byte	0x4
 19390 318d F3       		.byte	0xf3
 19391 318e 01       		.uleb128 0x1
 19392 318f 50       		.byte	0x50
 19393 3190 9F       		.byte	0x9f
 19394 3191 CC000000 		.4byte	.LVL586
 19395 3195 24010000 		.4byte	.LVL593
 19396 3199 0100     		.2byte	0x1
 19397 319b 50       		.byte	0x50
 19398 319c 24010000 		.4byte	.LVL593
 19399 31a0 3C010000 		.4byte	.LFE284
 19400 31a4 0400     		.2byte	0x4
 19401 31a6 F3       		.byte	0xf3
 19402 31a7 01       		.uleb128 0x1
 19403 31a8 50       		.byte	0x50
 19404 31a9 9F       		.byte	0x9f
 19405 31aa 00000000 		.4byte	0
 19406 31ae 00000000 		.4byte	0
 19407              	.LLST189:
 19408 31b2 00000000 		.4byte	.LVL568
 19409 31b6 8A000000 		.4byte	.LVL581
 19410 31ba 0100     		.2byte	0x1
 19411 31bc 51       		.byte	0x51
 19412 31bd 8A000000 		.4byte	.LVL581
 19413 31c1 CC000000 		.4byte	.LVL586
 19414 31c5 0100     		.2byte	0x1
 19415 31c7 59       		.byte	0x59
 19416 31c8 CC000000 		.4byte	.LVL586
 19417 31cc 3C010000 		.4byte	.LFE284
 19418 31d0 0100     		.2byte	0x1
 19419 31d2 51       		.byte	0x51
 19420 31d3 00000000 		.4byte	0
 19421 31d7 00000000 		.4byte	0
 19422              	.LLST190:
 19423 31db 00000000 		.4byte	.LVL568
 19424 31df 88000000 		.4byte	.LVL580
 19425 31e3 0100     		.2byte	0x1
 19426 31e5 52       		.byte	0x52
 19427 31e6 88000000 		.4byte	.LVL580
 19428 31ea A5000000 		.4byte	.LVL583-1
 19429 31ee 0100     		.2byte	0x1
 19430 31f0 5C       		.byte	0x5c
 19431 31f1 A5000000 		.4byte	.LVL583-1
 19432 31f5 CC000000 		.4byte	.LVL586
 19433 31f9 0400     		.2byte	0x4
 19434 31fb F3       		.byte	0xf3
 19435 31fc 01       		.uleb128 0x1
 19436 31fd 52       		.byte	0x52
 19437 31fe 9F       		.byte	0x9f
 19438 31ff CC000000 		.4byte	.LVL586
 19439 3203 3C010000 		.4byte	.LFE284
ARM GAS  C:\Users\jo\AppData\Local\Temp\cc6wN9Ut.s 			page 344


 19440 3207 0100     		.2byte	0x1
 19441 3209 52       		.byte	0x52
 19442 320a 00000000 		.4byte	0
 19443 320e 00000000 		.4byte	0
 19444              	.LLST191:
 19445 3212 00000000 		.4byte	.LVL568
 19446 3216 10000000 		.4byte	.LVL569
 19447 321a 0100     		.2byte	0x1
 19448 321c 53       		.byte	0x53
 19449 321d 10000000 		.4byte	.LVL569
 19450 3221 16000000 		.4byte	.LVL570
 19451 3225 0400     		.2byte	0x4
 19452 3227 F3       		.byte	0xf3
 19453 3228 01       		.uleb128 0x1
 19454 3229 53       		.byte	0x53
 19455 322a 9F       		.byte	0x9f
 19456 322b 16000000 		.4byte	.LVL570
 19457 322f 46000000 		.4byte	.LVL572
 19458 3233 0100     		.2byte	0x1
 19459 3235 53       		.byte	0x53
 19460 3236 46000000 		.4byte	.LVL572
 19461 323a 54000000 		.4byte	.LVL574
 19462 323e 0400     		.2byte	0x4
 19463 3240 F3       		.byte	0xf3
 19464 3241 01       		.uleb128 0x1
 19465 3242 53       		.byte	0x53
 19466 3243 9F       		.byte	0x9f
 19467 3244 54000000 		.4byte	.LVL574
 19468 3248 74000000 		.4byte	.LVL577
 19469 324c 0100     		.2byte	0x1
 19470 324e 53       		.byte	0x53
 19471 324f 74000000 		.4byte	.LVL577
 19472 3253 76000000 		.4byte	.LVL578
 19473 3257 0400     		.2byte	0x4
 19474 3259 F3       		.byte	0xf3
 19475 325a 01       		.uleb128 0x1
 19476 325b 53       		.byte	0x53
 19477 325c 9F       		.byte	0x9f
 19478 325d 76000000 		.4byte	.LVL578
 19479 3261 A5000000 		.4byte	.LVL583-1
 19480 3265 0100     		.2byte	0x1
 19481 3267 53       		.byte	0x53
 19482 3268 A5000000 		.4byte	.LVL583-1
 19483 326c CC000000 		.4byte	.LVL586
 19484 3270 0400     		.2byte	0x4
 19485 3272 F3       		.byte	0xf3
 19486 3273 01       		.uleb128 0x1
 19487 3274 53       		.byte	0x53
 19488 3275 9F       		.byte	0x9f
 19489 3276 CC000000 		.4byte	.LVL586
 19490 327a 00010000 		.4byte	.LVL588
 19491 327e 0100     		.2byte	0x1
 19492 3280 53       		.byte	0x53
 19493 3281 00010000 		.4byte	.LVL588
 19494 3285 02010000 		.4byte	.LVL589
 19495 3289 0400     		.2byte	0x4
 19496 328b F3       		.byte	0xf3
ARM GAS  C:\Users\jo\AppData\Local\Temp\cc6wN9Ut.s 			page 345


 19497 328c 01       		.uleb128 0x1
 19498 328d 53       		.byte	0x53
 19499 328e 9F       		.byte	0x9f
 19500 328f 02010000 		.4byte	.LVL589
 19501 3293 20010000 		.4byte	.LVL591
 19502 3297 0100     		.2byte	0x1
 19503 3299 53       		.byte	0x53
 19504 329a 20010000 		.4byte	.LVL591
 19505 329e 22010000 		.4byte	.LVL592
 19506 32a2 0400     		.2byte	0x4
 19507 32a4 F3       		.byte	0xf3
 19508 32a5 01       		.uleb128 0x1
 19509 32a6 53       		.byte	0x53
 19510 32a7 9F       		.byte	0x9f
 19511 32a8 22010000 		.4byte	.LVL592
 19512 32ac 2A010000 		.4byte	.LVL594
 19513 32b0 0100     		.2byte	0x1
 19514 32b2 53       		.byte	0x53
 19515 32b3 2A010000 		.4byte	.LVL594
 19516 32b7 3C010000 		.4byte	.LFE284
 19517 32bb 0400     		.2byte	0x4
 19518 32bd F3       		.byte	0xf3
 19519 32be 01       		.uleb128 0x1
 19520 32bf 53       		.byte	0x53
 19521 32c0 9F       		.byte	0x9f
 19522 32c1 00000000 		.4byte	0
 19523 32c5 00000000 		.4byte	0
 19524              	.LLST192:
 19525 32c9 00000000 		.4byte	.LVL568
 19526 32cd 16000000 		.4byte	.LVL570
 19527 32d1 0200     		.2byte	0x2
 19528 32d3 91       		.byte	0x91
 19529 32d4 00       		.sleb128 0
 19530 32d5 16000000 		.4byte	.LVL570
 19531 32d9 3C010000 		.4byte	.LFE284
 19532 32dd 0200     		.2byte	0x2
 19533 32df 91       		.byte	0x91
 19534 32e0 00       		.sleb128 0
 19535 32e1 00000000 		.4byte	0
 19536 32e5 00000000 		.4byte	0
 19537              	.LLST193:
 19538 32e9 00000000 		.4byte	.LVL568
 19539 32ed 10000000 		.4byte	.LVL569
 19540 32f1 0200     		.2byte	0x2
 19541 32f3 30       		.byte	0x30
 19542 32f4 9F       		.byte	0x9f
 19543 32f5 16000000 		.4byte	.LVL570
 19544 32f9 46000000 		.4byte	.LVL572
 19545 32fd 0200     		.2byte	0x2
 19546 32ff 30       		.byte	0x30
 19547 3300 9F       		.byte	0x9f
 19548 3301 54000000 		.4byte	.LVL574
 19549 3305 7C000000 		.4byte	.LVL579
 19550 3309 0200     		.2byte	0x2
 19551 330b 30       		.byte	0x30
 19552 330c 9F       		.byte	0x9f
 19553 330d B4000000 		.4byte	.LVL585
ARM GAS  C:\Users\jo\AppData\Local\Temp\cc6wN9Ut.s 			page 346


 19554 3311 CC000000 		.4byte	.LVL586
 19555 3315 0200     		.2byte	0x2
 19556 3317 91       		.byte	0x91
 19557 3318 5C       		.sleb128 -36
 19558 3319 CC000000 		.4byte	.LVL586
 19559 331d F8000000 		.4byte	.LVL587
 19560 3321 0200     		.2byte	0x2
 19561 3323 30       		.byte	0x30
 19562 3324 9F       		.byte	0x9f
 19563 3325 F8000000 		.4byte	.LVL587
 19564 3329 02010000 		.4byte	.LVL589
 19565 332d 0100     		.2byte	0x1
 19566 332f 54       		.byte	0x54
 19567 3330 02010000 		.4byte	.LVL589
 19568 3334 0C010000 		.4byte	.LVL590
 19569 3338 0200     		.2byte	0x2
 19570 333a 30       		.byte	0x30
 19571 333b 9F       		.byte	0x9f
 19572 333c 0C010000 		.4byte	.LVL590
 19573 3340 22010000 		.4byte	.LVL592
 19574 3344 0100     		.2byte	0x1
 19575 3346 54       		.byte	0x54
 19576 3347 22010000 		.4byte	.LVL592
 19577 334b 3C010000 		.4byte	.LFE284
 19578 334f 0200     		.2byte	0x2
 19579 3351 30       		.byte	0x30
 19580 3352 9F       		.byte	0x9f
 19581 3353 00000000 		.4byte	0
 19582 3357 00000000 		.4byte	0
 19583              	.LLST195:
 19584 335b 28000000 		.4byte	.LVL571
 19585 335f A5000000 		.4byte	.LVL583-1
 19586 3363 0100     		.2byte	0x1
 19587 3365 5E       		.byte	0x5e
 19588 3366 A5000000 		.4byte	.LVL583-1
 19589 336a AA000000 		.4byte	.LVL584
 19590 336e 0B00     		.2byte	0xb
 19591 3370 77       		.byte	0x77
 19592 3371 00       		.sleb128 0
 19593 3372 74       		.byte	0x74
 19594 3373 00       		.sleb128 0
 19595 3374 22       		.byte	0x22
 19596 3375 33       		.byte	0x33
 19597 3376 24       		.byte	0x24
 19598 3377 76       		.byte	0x76
 19599 3378 00       		.sleb128 0
 19600 3379 22       		.byte	0x22
 19601 337a 9F       		.byte	0x9f
 19602 337b AA000000 		.4byte	.LVL584
 19603 337f CC000000 		.4byte	.LVL586
 19604 3383 0C00     		.2byte	0xc
 19605 3385 77       		.byte	0x77
 19606 3386 00       		.sleb128 0
 19607 3387 F3       		.byte	0xf3
 19608 3388 01       		.uleb128 0x1
 19609 3389 50       		.byte	0x50
 19610 338a 22       		.byte	0x22
ARM GAS  C:\Users\jo\AppData\Local\Temp\cc6wN9Ut.s 			page 347


 19611 338b 33       		.byte	0x33
 19612 338c 24       		.byte	0x24
 19613 338d 76       		.byte	0x76
 19614 338e 00       		.sleb128 0
 19615 338f 22       		.byte	0x22
 19616 3390 9F       		.byte	0x9f
 19617 3391 CC000000 		.4byte	.LVL586
 19618 3395 3C010000 		.4byte	.LFE284
 19619 3399 0100     		.2byte	0x1
 19620 339b 5E       		.byte	0x5e
 19621 339c 00000000 		.4byte	0
 19622 33a0 00000000 		.4byte	0
 19623              	.LLST196:
 19624 33a4 00000000 		.4byte	.LVL595
 19625 33a8 08000000 		.4byte	.LVL596
 19626 33ac 0100     		.2byte	0x1
 19627 33ae 50       		.byte	0x50
 19628 33af 08000000 		.4byte	.LVL596
 19629 33b3 0A000000 		.4byte	.LVL597
 19630 33b7 0400     		.2byte	0x4
 19631 33b9 F3       		.byte	0xf3
 19632 33ba 01       		.uleb128 0x1
 19633 33bb 50       		.byte	0x50
 19634 33bc 9F       		.byte	0x9f
 19635 33bd 0A000000 		.4byte	.LVL597
 19636 33c1 3C000000 		.4byte	.LVL601
 19637 33c5 0100     		.2byte	0x1
 19638 33c7 50       		.byte	0x50
 19639 33c8 3C000000 		.4byte	.LVL601
 19640 33cc 4C000000 		.4byte	.LVL602
 19641 33d0 0400     		.2byte	0x4
 19642 33d2 F3       		.byte	0xf3
 19643 33d3 01       		.uleb128 0x1
 19644 33d4 50       		.byte	0x50
 19645 33d5 9F       		.byte	0x9f
 19646 33d6 4C000000 		.4byte	.LVL602
 19647 33da 72000000 		.4byte	.LVL608
 19648 33de 0100     		.2byte	0x1
 19649 33e0 50       		.byte	0x50
 19650 33e1 72000000 		.4byte	.LVL608
 19651 33e5 90000000 		.4byte	.LVL611
 19652 33e9 0100     		.2byte	0x1
 19653 33eb 54       		.byte	0x54
 19654 33ec 90000000 		.4byte	.LVL611
 19655 33f0 B0000000 		.4byte	.LVL613
 19656 33f4 0400     		.2byte	0x4
 19657 33f6 F3       		.byte	0xf3
 19658 33f7 01       		.uleb128 0x1
 19659 33f8 50       		.byte	0x50
 19660 33f9 9F       		.byte	0x9f
 19661 33fa B0000000 		.4byte	.LVL613
 19662 33fe D0000000 		.4byte	.LVL614
 19663 3402 0100     		.2byte	0x1
 19664 3404 50       		.byte	0x50
 19665 3405 D0000000 		.4byte	.LVL614
 19666 3409 D2000000 		.4byte	.LVL615
 19667 340d 0400     		.2byte	0x4
ARM GAS  C:\Users\jo\AppData\Local\Temp\cc6wN9Ut.s 			page 348


 19668 340f F3       		.byte	0xf3
 19669 3410 01       		.uleb128 0x1
 19670 3411 50       		.byte	0x50
 19671 3412 9F       		.byte	0x9f
 19672 3413 D2000000 		.4byte	.LVL615
 19673 3417 EE000000 		.4byte	.LVL619
 19674 341b 0100     		.2byte	0x1
 19675 341d 50       		.byte	0x50
 19676 341e EE000000 		.4byte	.LVL619
 19677 3422 F0000000 		.4byte	.LVL620
 19678 3426 0400     		.2byte	0x4
 19679 3428 F3       		.byte	0xf3
 19680 3429 01       		.uleb128 0x1
 19681 342a 50       		.byte	0x50
 19682 342b 9F       		.byte	0x9f
 19683 342c F0000000 		.4byte	.LVL620
 19684 3430 0A010000 		.4byte	.LVL624
 19685 3434 0100     		.2byte	0x1
 19686 3436 50       		.byte	0x50
 19687 3437 0A010000 		.4byte	.LVL624
 19688 343b 14010000 		.4byte	.LFE286
 19689 343f 0400     		.2byte	0x4
 19690 3441 F3       		.byte	0xf3
 19691 3442 01       		.uleb128 0x1
 19692 3443 50       		.byte	0x50
 19693 3444 9F       		.byte	0x9f
 19694 3445 00000000 		.4byte	0
 19695 3449 00000000 		.4byte	0
 19696              	.LLST197:
 19697 344d 00000000 		.4byte	.LVL595
 19698 3451 6E000000 		.4byte	.LVL607
 19699 3455 0100     		.2byte	0x1
 19700 3457 51       		.byte	0x51
 19701 3458 6E000000 		.4byte	.LVL607
 19702 345c B0000000 		.4byte	.LVL613
 19703 3460 0100     		.2byte	0x1
 19704 3462 58       		.byte	0x58
 19705 3463 B0000000 		.4byte	.LVL613
 19706 3467 14010000 		.4byte	.LFE286
 19707 346b 0100     		.2byte	0x1
 19708 346d 51       		.byte	0x51
 19709 346e 00000000 		.4byte	0
 19710 3472 00000000 		.4byte	0
 19711              	.LLST198:
 19712 3476 00000000 		.4byte	.LVL595
 19713 347a 6C000000 		.4byte	.LVL606
 19714 347e 0100     		.2byte	0x1
 19715 3480 52       		.byte	0x52
 19716 3481 6C000000 		.4byte	.LVL606
 19717 3485 8B000000 		.4byte	.LVL610-1
 19718 3489 0100     		.2byte	0x1
 19719 348b 5E       		.byte	0x5e
 19720 348c 8B000000 		.4byte	.LVL610-1
 19721 3490 B0000000 		.4byte	.LVL613
 19722 3494 0400     		.2byte	0x4
 19723 3496 F3       		.byte	0xf3
 19724 3497 01       		.uleb128 0x1
ARM GAS  C:\Users\jo\AppData\Local\Temp\cc6wN9Ut.s 			page 349


 19725 3498 52       		.byte	0x52
 19726 3499 9F       		.byte	0x9f
 19727 349a B0000000 		.4byte	.LVL613
 19728 349e 14010000 		.4byte	.LFE286
 19729 34a2 0100     		.2byte	0x1
 19730 34a4 52       		.byte	0x52
 19731 34a5 00000000 		.4byte	0
 19732 34a9 00000000 		.4byte	0
 19733              	.LLST199:
 19734 34ad 00000000 		.4byte	.LVL595
 19735 34b1 3A000000 		.4byte	.LVL600
 19736 34b5 0100     		.2byte	0x1
 19737 34b7 53       		.byte	0x53
 19738 34b8 3A000000 		.4byte	.LVL600
 19739 34bc 4C000000 		.4byte	.LVL602
 19740 34c0 0400     		.2byte	0x4
 19741 34c2 F3       		.byte	0xf3
 19742 34c3 01       		.uleb128 0x1
 19743 34c4 53       		.byte	0x53
 19744 34c5 9F       		.byte	0x9f
 19745 34c6 4C000000 		.4byte	.LVL602
 19746 34ca 5A000000 		.4byte	.LVL603
 19747 34ce 0100     		.2byte	0x1
 19748 34d0 53       		.byte	0x53
 19749 34d1 5A000000 		.4byte	.LVL603
 19750 34d5 5C000000 		.4byte	.LVL604
 19751 34d9 0400     		.2byte	0x4
 19752 34db F3       		.byte	0xf3
 19753 34dc 01       		.uleb128 0x1
 19754 34dd 53       		.byte	0x53
 19755 34de 9F       		.byte	0x9f
 19756 34df 5C000000 		.4byte	.LVL604
 19757 34e3 78000000 		.4byte	.LVL609
 19758 34e7 0100     		.2byte	0x1
 19759 34e9 53       		.byte	0x53
 19760 34ea 78000000 		.4byte	.LVL609
 19761 34ee 8B000000 		.4byte	.LVL610-1
 19762 34f2 0200     		.2byte	0x2
 19763 34f4 73       		.byte	0x73
 19764 34f5 5C       		.sleb128 -36
 19765 34f6 8B000000 		.4byte	.LVL610-1
 19766 34fa B0000000 		.4byte	.LVL613
 19767 34fe 0400     		.2byte	0x4
 19768 3500 F3       		.byte	0xf3
 19769 3501 01       		.uleb128 0x1
 19770 3502 53       		.byte	0x53
 19771 3503 9F       		.byte	0x9f
 19772 3504 B0000000 		.4byte	.LVL613
 19773 3508 E8000000 		.4byte	.LVL617
 19774 350c 0100     		.2byte	0x1
 19775 350e 53       		.byte	0x53
 19776 350f E8000000 		.4byte	.LVL617
 19777 3513 EA000000 		.4byte	.LVL618
 19778 3517 0400     		.2byte	0x4
 19779 3519 F3       		.byte	0xf3
 19780 351a 01       		.uleb128 0x1
 19781 351b 53       		.byte	0x53
ARM GAS  C:\Users\jo\AppData\Local\Temp\cc6wN9Ut.s 			page 350


 19782 351c 9F       		.byte	0x9f
 19783 351d EA000000 		.4byte	.LVL618
 19784 3521 FE000000 		.4byte	.LVL621
 19785 3525 0100     		.2byte	0x1
 19786 3527 53       		.byte	0x53
 19787 3528 FE000000 		.4byte	.LVL621
 19788 352c 00010000 		.4byte	.LVL622
 19789 3530 0400     		.2byte	0x4
 19790 3532 F3       		.byte	0xf3
 19791 3533 01       		.uleb128 0x1
 19792 3534 53       		.byte	0x53
 19793 3535 9F       		.byte	0x9f
 19794 3536 00010000 		.4byte	.LVL622
 19795 353a 02010000 		.4byte	.LVL623
 19796 353e 0100     		.2byte	0x1
 19797 3540 53       		.byte	0x53
 19798 3541 02010000 		.4byte	.LVL623
 19799 3545 14010000 		.4byte	.LFE286
 19800 3549 0400     		.2byte	0x4
 19801 354b F3       		.byte	0xf3
 19802 354c 01       		.uleb128 0x1
 19803 354d 53       		.byte	0x53
 19804 354e 9F       		.byte	0x9f
 19805 354f 00000000 		.4byte	0
 19806 3553 00000000 		.4byte	0
 19807              	.LLST200:
 19808 3557 00000000 		.4byte	.LVL595
 19809 355b 4C000000 		.4byte	.LVL602
 19810 355f 0200     		.2byte	0x2
 19811 3561 91       		.byte	0x91
 19812 3562 00       		.sleb128 0
 19813 3563 4C000000 		.4byte	.LVL602
 19814 3567 78000000 		.4byte	.LVL609
 19815 356b 0200     		.2byte	0x2
 19816 356d 91       		.byte	0x91
 19817 356e 00       		.sleb128 0
 19818 356f 78000000 		.4byte	.LVL609
 19819 3573 8B000000 		.4byte	.LVL610-1
 19820 3577 0200     		.2byte	0x2
 19821 3579 73       		.byte	0x73
 19822 357a 00       		.sleb128 0
 19823 357b 8B000000 		.4byte	.LVL610-1
 19824 357f 14010000 		.4byte	.LFE286
 19825 3583 0200     		.2byte	0x2
 19826 3585 91       		.byte	0x91
 19827 3586 00       		.sleb128 0
 19828 3587 00000000 		.4byte	0
 19829 358b 00000000 		.4byte	0
 19830              	.LLST201:
 19831 358f 26000000 		.4byte	.LVL599
 19832 3593 3A000000 		.4byte	.LVL600
 19833 3597 0200     		.2byte	0x2
 19834 3599 30       		.byte	0x30
 19835 359a 9F       		.byte	0x9f
 19836 359b 4C000000 		.4byte	.LVL602
 19837 359f 62000000 		.4byte	.LVL605
 19838 35a3 0200     		.2byte	0x2
ARM GAS  C:\Users\jo\AppData\Local\Temp\cc6wN9Ut.s 			page 351


 19839 35a5 30       		.byte	0x30
 19840 35a6 9F       		.byte	0x9f
 19841 35a7 9A000000 		.4byte	.LVL612
 19842 35ab B0000000 		.4byte	.LVL613
 19843 35af 0200     		.2byte	0x2
 19844 35b1 91       		.byte	0x91
 19845 35b2 64       		.sleb128 -28
 19846 35b3 B0000000 		.4byte	.LVL613
 19847 35b7 E0000000 		.4byte	.LVL616
 19848 35bb 0200     		.2byte	0x2
 19849 35bd 30       		.byte	0x30
 19850 35be 9F       		.byte	0x9f
 19851 35bf E0000000 		.4byte	.LVL616
 19852 35c3 EA000000 		.4byte	.LVL618
 19853 35c7 0100     		.2byte	0x1
 19854 35c9 54       		.byte	0x54
 19855 35ca F0000000 		.4byte	.LVL620
 19856 35ce 00010000 		.4byte	.LVL622
 19857 35d2 0100     		.2byte	0x1
 19858 35d4 54       		.byte	0x54
 19859 35d5 00010000 		.4byte	.LVL622
 19860 35d9 14010000 		.4byte	.LFE286
 19861 35dd 0200     		.2byte	0x2
 19862 35df 30       		.byte	0x30
 19863 35e0 9F       		.byte	0x9f
 19864 35e1 00000000 		.4byte	0
 19865 35e5 00000000 		.4byte	0
 19866              	.LLST203:
 19867 35e9 22000000 		.4byte	.LVL598
 19868 35ed 8B000000 		.4byte	.LVL610-1
 19869 35f1 0100     		.2byte	0x1
 19870 35f3 5C       		.byte	0x5c
 19871 35f4 8B000000 		.4byte	.LVL610-1
 19872 35f8 90000000 		.4byte	.LVL611
 19873 35fc 0B00     		.2byte	0xb
 19874 35fe 77       		.byte	0x77
 19875 35ff 00       		.sleb128 0
 19876 3600 74       		.byte	0x74
 19877 3601 00       		.sleb128 0
 19878 3602 22       		.byte	0x22
 19879 3603 33       		.byte	0x33
 19880 3604 24       		.byte	0x24
 19881 3605 75       		.byte	0x75
 19882 3606 00       		.sleb128 0
 19883 3607 22       		.byte	0x22
 19884 3608 9F       		.byte	0x9f
 19885 3609 90000000 		.4byte	.LVL611
 19886 360d B0000000 		.4byte	.LVL613
 19887 3611 0C00     		.2byte	0xc
 19888 3613 77       		.byte	0x77
 19889 3614 00       		.sleb128 0
 19890 3615 F3       		.byte	0xf3
 19891 3616 01       		.uleb128 0x1
 19892 3617 50       		.byte	0x50
 19893 3618 22       		.byte	0x22
 19894 3619 33       		.byte	0x33
 19895 361a 24       		.byte	0x24
ARM GAS  C:\Users\jo\AppData\Local\Temp\cc6wN9Ut.s 			page 352


 19896 361b 75       		.byte	0x75
 19897 361c 00       		.sleb128 0
 19898 361d 22       		.byte	0x22
 19899 361e 9F       		.byte	0x9f
 19900 361f B0000000 		.4byte	.LVL613
 19901 3623 14010000 		.4byte	.LFE286
 19902 3627 0100     		.2byte	0x1
 19903 3629 5C       		.byte	0x5c
 19904 362a 00000000 		.4byte	0
 19905 362e 00000000 		.4byte	0
 19906              	.LLST204:
 19907 3632 00000000 		.4byte	.LVL625
 19908 3636 08000000 		.4byte	.LVL626
 19909 363a 0100     		.2byte	0x1
 19910 363c 50       		.byte	0x50
 19911 363d 08000000 		.4byte	.LVL626
 19912 3641 0A000000 		.4byte	.LVL627
 19913 3645 0400     		.2byte	0x4
 19914 3647 F3       		.byte	0xf3
 19915 3648 01       		.uleb128 0x1
 19916 3649 50       		.byte	0x50
 19917 364a 9F       		.byte	0x9f
 19918 364b 0A000000 		.4byte	.LVL627
 19919 364f 2E000000 		.4byte	.LVL632
 19920 3653 0100     		.2byte	0x1
 19921 3655 50       		.byte	0x50
 19922 3656 2E000000 		.4byte	.LVL632
 19923 365a 3A000000 		.4byte	.LVL633
 19924 365e 0400     		.2byte	0x4
 19925 3660 F3       		.byte	0xf3
 19926 3661 01       		.uleb128 0x1
 19927 3662 50       		.byte	0x50
 19928 3663 9F       		.byte	0x9f
 19929 3664 3A000000 		.4byte	.LVL633
 19930 3668 48000000 		.4byte	.LVL635
 19931 366c 0100     		.2byte	0x1
 19932 366e 50       		.byte	0x50
 19933 366f 48000000 		.4byte	.LVL635
 19934 3673 4A000000 		.4byte	.LVL636
 19935 3677 0400     		.2byte	0x4
 19936 3679 F3       		.byte	0xf3
 19937 367a 01       		.uleb128 0x1
 19938 367b 50       		.byte	0x50
 19939 367c 9F       		.byte	0x9f
 19940 367d 4A000000 		.4byte	.LVL636
 19941 3681 54000000 		.4byte	.LVL638
 19942 3685 0100     		.2byte	0x1
 19943 3687 50       		.byte	0x50
 19944 3688 54000000 		.4byte	.LVL638
 19945 368c 60000000 		.4byte	.LFE288
 19946 3690 0400     		.2byte	0x4
 19947 3692 F3       		.byte	0xf3
 19948 3693 01       		.uleb128 0x1
 19949 3694 50       		.byte	0x50
 19950 3695 9F       		.byte	0x9f
 19951 3696 00000000 		.4byte	0
 19952 369a 00000000 		.4byte	0
ARM GAS  C:\Users\jo\AppData\Local\Temp\cc6wN9Ut.s 			page 353


 19953              	.LLST205:
 19954 369e 00000000 		.4byte	.LVL625
 19955 36a2 22000000 		.4byte	.LVL629
 19956 36a6 0100     		.2byte	0x1
 19957 36a8 52       		.byte	0x52
 19958 36a9 22000000 		.4byte	.LVL629
 19959 36ad 44000000 		.4byte	.LVL634
 19960 36b1 0400     		.2byte	0x4
 19961 36b3 F3       		.byte	0xf3
 19962 36b4 01       		.uleb128 0x1
 19963 36b5 52       		.byte	0x52
 19964 36b6 9F       		.byte	0x9f
 19965 36b7 44000000 		.4byte	.LVL634
 19966 36bb 4E000000 		.4byte	.LVL637
 19967 36bf 0100     		.2byte	0x1
 19968 36c1 52       		.byte	0x52
 19969 36c2 4E000000 		.4byte	.LVL637
 19970 36c6 60000000 		.4byte	.LFE288
 19971 36ca 0400     		.2byte	0x4
 19972 36cc F3       		.byte	0xf3
 19973 36cd 01       		.uleb128 0x1
 19974 36ce 52       		.byte	0x52
 19975 36cf 9F       		.byte	0x9f
 19976 36d0 00000000 		.4byte	0
 19977 36d4 00000000 		.4byte	0
 19978              	.LLST206:
 19979 36d8 1E000000 		.4byte	.LVL628
 19980 36dc 24000000 		.4byte	.LVL630
 19981 36e0 0200     		.2byte	0x2
 19982 36e2 30       		.byte	0x30
 19983 36e3 9F       		.byte	0x9f
 19984 36e4 24000000 		.4byte	.LVL630
 19985 36e8 2C000000 		.4byte	.LVL631
 19986 36ec 0200     		.2byte	0x2
 19987 36ee 31       		.byte	0x31
 19988 36ef 9F       		.byte	0x9f
 19989 36f0 3A000000 		.4byte	.LVL633
 19990 36f4 44000000 		.4byte	.LVL634
 19991 36f8 0200     		.2byte	0x2
 19992 36fa 30       		.byte	0x30
 19993 36fb 9F       		.byte	0x9f
 19994 36fc 00000000 		.4byte	0
 19995 3700 00000000 		.4byte	0
 19996              	.LLST208:
 19997 3704 0A000000 		.4byte	.LVL627
 19998 3708 2E000000 		.4byte	.LVL632
 19999 370c 0B00     		.2byte	0xb
 20000 370e 70       		.byte	0x70
 20001 370f 00       		.sleb128 0
 20002 3710 48       		.byte	0x48
 20003 3711 1E       		.byte	0x1e
 20004 3712 03       		.byte	0x3
 20005 3713 00000000 		.4byte	sockets
 20006 3717 22       		.byte	0x22
 20007 3718 9F       		.byte	0x9f
 20008 3719 2E000000 		.4byte	.LVL632
 20009 371d 3A000000 		.4byte	.LVL633
ARM GAS  C:\Users\jo\AppData\Local\Temp\cc6wN9Ut.s 			page 354


 20010 3721 0C00     		.2byte	0xc
 20011 3723 F3       		.byte	0xf3
 20012 3724 01       		.uleb128 0x1
 20013 3725 50       		.byte	0x50
 20014 3726 48       		.byte	0x48
 20015 3727 1E       		.byte	0x1e
 20016 3728 03       		.byte	0x3
 20017 3729 00000000 		.4byte	sockets
 20018 372d 22       		.byte	0x22
 20019 372e 9F       		.byte	0x9f
 20020 372f 3A000000 		.4byte	.LVL633
 20021 3733 48000000 		.4byte	.LVL635
 20022 3737 0B00     		.2byte	0xb
 20023 3739 70       		.byte	0x70
 20024 373a 00       		.sleb128 0
 20025 373b 48       		.byte	0x48
 20026 373c 1E       		.byte	0x1e
 20027 373d 03       		.byte	0x3
 20028 373e 00000000 		.4byte	sockets
 20029 3742 22       		.byte	0x22
 20030 3743 9F       		.byte	0x9f
 20031 3744 48000000 		.4byte	.LVL635
 20032 3748 4A000000 		.4byte	.LVL636
 20033 374c 0C00     		.2byte	0xc
 20034 374e F3       		.byte	0xf3
 20035 374f 01       		.uleb128 0x1
 20036 3750 50       		.byte	0x50
 20037 3751 48       		.byte	0x48
 20038 3752 1E       		.byte	0x1e
 20039 3753 03       		.byte	0x3
 20040 3754 00000000 		.4byte	sockets
 20041 3758 22       		.byte	0x22
 20042 3759 9F       		.byte	0x9f
 20043 375a 4A000000 		.4byte	.LVL636
 20044 375e 54000000 		.4byte	.LVL638
 20045 3762 0B00     		.2byte	0xb
 20046 3764 70       		.byte	0x70
 20047 3765 00       		.sleb128 0
 20048 3766 48       		.byte	0x48
 20049 3767 1E       		.byte	0x1e
 20050 3768 03       		.byte	0x3
 20051 3769 00000000 		.4byte	sockets
 20052 376d 22       		.byte	0x22
 20053 376e 9F       		.byte	0x9f
 20054 376f 54000000 		.4byte	.LVL638
 20055 3773 60000000 		.4byte	.LFE288
 20056 3777 0C00     		.2byte	0xc
 20057 3779 F3       		.byte	0xf3
 20058 377a 01       		.uleb128 0x1
 20059 377b 50       		.byte	0x50
 20060 377c 48       		.byte	0x48
 20061 377d 1E       		.byte	0x1e
 20062 377e 03       		.byte	0x3
 20063 377f 00000000 		.4byte	sockets
 20064 3783 22       		.byte	0x22
 20065 3784 9F       		.byte	0x9f
 20066 3785 00000000 		.4byte	0
ARM GAS  C:\Users\jo\AppData\Local\Temp\cc6wN9Ut.s 			page 355


 20067 3789 00000000 		.4byte	0
 20068              	.LLST209:
 20069 378d 00000000 		.4byte	.LVL639
 20070 3791 04000000 		.4byte	.LVL640
 20071 3795 0100     		.2byte	0x1
 20072 3797 50       		.byte	0x50
 20073 3798 04000000 		.4byte	.LVL640
 20074 379c 0A000000 		.4byte	.LVL641
 20075 37a0 0400     		.2byte	0x4
 20076 37a2 F3       		.byte	0xf3
 20077 37a3 01       		.uleb128 0x1
 20078 37a4 50       		.byte	0x50
 20079 37a5 9F       		.byte	0x9f
 20080 37a6 0A000000 		.4byte	.LVL641
 20081 37aa 0E000000 		.4byte	.LVL642
 20082 37ae 0100     		.2byte	0x1
 20083 37b0 50       		.byte	0x50
 20084 37b1 0E000000 		.4byte	.LVL642
 20085 37b5 48000000 		.4byte	.LFE289
 20086 37b9 0400     		.2byte	0x4
 20087 37bb F3       		.byte	0xf3
 20088 37bc 01       		.uleb128 0x1
 20089 37bd 50       		.byte	0x50
 20090 37be 9F       		.byte	0x9f
 20091 37bf 00000000 		.4byte	0
 20092 37c3 00000000 		.4byte	0
 20093              	.LLST210:
 20094 37c7 00000000 		.4byte	.LVL639
 20095 37cb 2A000000 		.4byte	.LVL644
 20096 37cf 0100     		.2byte	0x1
 20097 37d1 52       		.byte	0x52
 20098 37d2 2A000000 		.4byte	.LVL644
 20099 37d6 32000000 		.4byte	.LVL645
 20100 37da 0400     		.2byte	0x4
 20101 37dc F3       		.byte	0xf3
 20102 37dd 01       		.uleb128 0x1
 20103 37de 52       		.byte	0x52
 20104 37df 9F       		.byte	0x9f
 20105 37e0 32000000 		.4byte	.LVL645
 20106 37e4 3C000000 		.4byte	.LVL648
 20107 37e8 0100     		.2byte	0x1
 20108 37ea 52       		.byte	0x52
 20109 37eb 3C000000 		.4byte	.LVL648
 20110 37ef 48000000 		.4byte	.LFE289
 20111 37f3 0400     		.2byte	0x4
 20112 37f5 F3       		.byte	0xf3
 20113 37f6 01       		.uleb128 0x1
 20114 37f7 52       		.byte	0x52
 20115 37f8 9F       		.byte	0x9f
 20116 37f9 00000000 		.4byte	0
 20117 37fd 00000000 		.4byte	0
 20118              	.LLST211:
 20119 3801 18000000 		.4byte	.LVL643
 20120 3805 38000000 		.4byte	.LVL646
 20121 3809 0300     		.2byte	0x3
 20122 380b 09       		.byte	0x9
 20123 380c FF       		.byte	0xff
ARM GAS  C:\Users\jo\AppData\Local\Temp\cc6wN9Ut.s 			page 356


 20124 380d 9F       		.byte	0x9f
 20125 380e 38000000 		.4byte	.LVL646
 20126 3812 3A000000 		.4byte	.LVL647
 20127 3816 0100     		.2byte	0x1
 20128 3818 50       		.byte	0x50
 20129 3819 3A000000 		.4byte	.LVL647
 20130 381d 48000000 		.4byte	.LFE289
 20131 3821 0300     		.2byte	0x3
 20132 3823 09       		.byte	0x9
 20133 3824 FF       		.byte	0xff
 20134 3825 9F       		.byte	0x9f
 20135 3826 00000000 		.4byte	0
 20136 382a 00000000 		.4byte	0
 20137              	.LLST213:
 20138 382e 0A000000 		.4byte	.LVL641
 20139 3832 0E000000 		.4byte	.LVL642
 20140 3836 0B00     		.2byte	0xb
 20141 3838 70       		.byte	0x70
 20142 3839 00       		.sleb128 0
 20143 383a 48       		.byte	0x48
 20144 383b 1E       		.byte	0x1e
 20145 383c 03       		.byte	0x3
 20146 383d 00000000 		.4byte	sockets
 20147 3841 22       		.byte	0x22
 20148 3842 9F       		.byte	0x9f
 20149 3843 0E000000 		.4byte	.LVL642
 20150 3847 48000000 		.4byte	.LFE289
 20151 384b 0C00     		.2byte	0xc
 20152 384d F3       		.byte	0xf3
 20153 384e 01       		.uleb128 0x1
 20154 384f 50       		.byte	0x50
 20155 3850 48       		.byte	0x48
 20156 3851 1E       		.byte	0x1e
 20157 3852 03       		.byte	0x3
 20158 3853 00000000 		.4byte	sockets
 20159 3857 22       		.byte	0x22
 20160 3858 9F       		.byte	0x9f
 20161 3859 00000000 		.4byte	0
 20162 385d 00000000 		.4byte	0
 20163              		.section	.debug_aranges,"",%progbits
 20164 0000 F4000000 		.4byte	0xf4
 20165 0004 0200     		.2byte	0x2
 20166 0006 00000000 		.4byte	.Ldebug_info0
 20167 000a 04       		.byte	0x4
 20168 000b 00       		.byte	0
 20169 000c 0000     		.2byte	0
 20170 000e 0000     		.2byte	0
 20171 0010 00000000 		.4byte	.LFB263
 20172 0014 54000000 		.4byte	.LFE263-.LFB263
 20173 0018 00000000 		.4byte	.LFB281
 20174 001c 98000000 		.4byte	.LFE281-.LFB281
 20175 0020 00000000 		.4byte	.LFB290
 20176 0024 28000000 		.4byte	.LFE290-.LFB290
 20177 0028 00000000 		.4byte	.LFB287
 20178 002c 80010000 		.4byte	.LFE287-.LFB287
 20179 0030 00000000 		.4byte	.LFB285
 20180 0034 A4010000 		.4byte	.LFE285-.LFB285
ARM GAS  C:\Users\jo\AppData\Local\Temp\cc6wN9Ut.s 			page 357


 20181 0038 00000000 		.4byte	.LFB277
 20182 003c 4C010000 		.4byte	.LFE277-.LFB277
 20183 0040 00000000 		.4byte	.LFB279
 20184 0044 48010000 		.4byte	.LFE279-.LFB279
 20185 0048 00000000 		.4byte	.LFB260
 20186 004c 02000000 		.4byte	.LFE260-.LFB260
 20187 0050 00000000 		.4byte	.LFB265
 20188 0054 F8010000 		.4byte	.LFE265-.LFB265
 20189 0058 00000000 		.4byte	.LFB266
 20190 005c C4000000 		.4byte	.LFE266-.LFB266
 20191 0060 00000000 		.4byte	.LFB267
 20192 0064 60000000 		.4byte	.LFE267-.LFB267
 20193 0068 00000000 		.4byte	.LFB268
 20194 006c C4000000 		.4byte	.LFE268-.LFB268
 20195 0070 00000000 		.4byte	.LFB269
 20196 0074 80000000 		.4byte	.LFE269-.LFB269
 20197 0078 00000000 		.4byte	.LFB270
 20198 007c E0020000 		.4byte	.LFE270-.LFB270
 20199 0080 00000000 		.4byte	.LFB271
 20200 0084 14000000 		.4byte	.LFE271-.LFB271
 20201 0088 00000000 		.4byte	.LFB272
 20202 008c 12000000 		.4byte	.LFE272-.LFB272
 20203 0090 00000000 		.4byte	.LFB274
 20204 0094 44010000 		.4byte	.LFE274-.LFB274
 20205 0098 00000000 		.4byte	.LFB273
 20206 009c 98000000 		.4byte	.LFE273-.LFB273
 20207 00a0 00000000 		.4byte	.LFB275
 20208 00a4 78000000 		.4byte	.LFE275-.LFB275
 20209 00a8 00000000 		.4byte	.LFB276
 20210 00ac 06000000 		.4byte	.LFE276-.LFB276
 20211 00b0 00000000 		.4byte	.LFB278
 20212 00b4 60030000 		.4byte	.LFE278-.LFB278
 20213 00b8 00000000 		.4byte	.LFB280
 20214 00bc 88000000 		.4byte	.LFE280-.LFB280
 20215 00c0 00000000 		.4byte	.LFB282
 20216 00c4 06000000 		.4byte	.LFE282-.LFB282
 20217 00c8 00000000 		.4byte	.LFB283
 20218 00cc 06000000 		.4byte	.LFE283-.LFB283
 20219 00d0 00000000 		.4byte	.LFB284
 20220 00d4 3C010000 		.4byte	.LFE284-.LFB284
 20221 00d8 00000000 		.4byte	.LFB286
 20222 00dc 14010000 		.4byte	.LFE286-.LFB286
 20223 00e0 00000000 		.4byte	.LFB288
 20224 00e4 60000000 		.4byte	.LFE288-.LFB288
 20225 00e8 00000000 		.4byte	.LFB289
 20226 00ec 48000000 		.4byte	.LFE289-.LFB289
 20227 00f0 00000000 		.4byte	0
 20228 00f4 00000000 		.4byte	0
 20229              		.section	.debug_ranges,"",%progbits
 20230              	.Ldebug_ranges0:
 20231 0000 00000000 		.4byte	.LBB106
 20232 0004 04000000 		.4byte	.LBE106
 20233 0008 0E000000 		.4byte	.LBB110
 20234 000c 1C000000 		.4byte	.LBE110
 20235 0010 1E000000 		.4byte	.LBB111
 20236 0014 20000000 		.4byte	.LBE111
 20237 0018 00000000 		.4byte	0
ARM GAS  C:\Users\jo\AppData\Local\Temp\cc6wN9Ut.s 			page 358


 20238 001c 00000000 		.4byte	0
 20239 0020 3E000000 		.4byte	.LBB135
 20240 0024 E6000000 		.4byte	.LBE135
 20241 0028 1A010000 		.4byte	.LBB140
 20242 002c 4C010000 		.4byte	.LBE140
 20243 0030 00000000 		.4byte	0
 20244 0034 00000000 		.4byte	0
 20245 0038 3E000000 		.4byte	.LBB136
 20246 003c 42000000 		.4byte	.LBE136
 20247 0040 26010000 		.4byte	.LBB139
 20248 0044 2C010000 		.4byte	.LBE139
 20249 0048 00000000 		.4byte	0
 20250 004c 00000000 		.4byte	0
 20251 0050 14000000 		.4byte	.LBB141
 20252 0054 18000000 		.4byte	.LBE141
 20253 0058 1E000000 		.4byte	.LBB144
 20254 005c 2C000000 		.4byte	.LBE144
 20255 0060 00000000 		.4byte	0
 20256 0064 00000000 		.4byte	0
 20257 0068 68000000 		.4byte	.LBB145
 20258 006c 74000000 		.4byte	.LBE145
 20259 0070 88000000 		.4byte	.LBB146
 20260 0074 C6000000 		.4byte	.LBE146
 20261 0078 FA000000 		.4byte	.LBB147
 20262 007c 02010000 		.4byte	.LBE147
 20263 0080 00000000 		.4byte	0
 20264 0084 00000000 		.4byte	0
 20265 0088 00000000 		.4byte	.LBB150
 20266 008c 02000000 		.4byte	.LBE150
 20267 0090 04000000 		.4byte	.LBB155
 20268 0094 06000000 		.4byte	.LBE155
 20269 0098 10000000 		.4byte	.LBB156
 20270 009c 1E000000 		.4byte	.LBE156
 20271 00a0 20000000 		.4byte	.LBB157
 20272 00a4 28000000 		.4byte	.LBE157
 20273 00a8 00000000 		.4byte	0
 20274 00ac 00000000 		.4byte	0
 20275 00b0 00000000 		.4byte	.LBB166
 20276 00b4 04000000 		.4byte	.LBE166
 20277 00b8 0E000000 		.4byte	.LBB170
 20278 00bc 1A000000 		.4byte	.LBE170
 20279 00c0 1C000000 		.4byte	.LBB171
 20280 00c4 22000000 		.4byte	.LBE171
 20281 00c8 00000000 		.4byte	0
 20282 00cc 00000000 		.4byte	0
 20283 00d0 00000000 		.4byte	.LBB180
 20284 00d4 04000000 		.4byte	.LBE180
 20285 00d8 0A000000 		.4byte	.LBB184
 20286 00dc 0E000000 		.4byte	.LBE184
 20287 00e0 12000000 		.4byte	.LBB185
 20288 00e4 22000000 		.4byte	.LBE185
 20289 00e8 00000000 		.4byte	0
 20290 00ec 00000000 		.4byte	0
 20291 00f0 2A000000 		.4byte	.LBB186
 20292 00f4 42000000 		.4byte	.LBE186
 20293 00f8 48000000 		.4byte	.LBB189
 20294 00fc 4C000000 		.4byte	.LBE189
ARM GAS  C:\Users\jo\AppData\Local\Temp\cc6wN9Ut.s 			page 359


 20295 0100 00000000 		.4byte	0
 20296 0104 00000000 		.4byte	0
 20297 0108 00000000 		.4byte	.LBB190
 20298 010c 04000000 		.4byte	.LBE190
 20299 0110 0E000000 		.4byte	.LBB194
 20300 0114 1A000000 		.4byte	.LBE194
 20301 0118 1C000000 		.4byte	.LBB195
 20302 011c 22000000 		.4byte	.LBE195
 20303 0120 00000000 		.4byte	0
 20304 0124 00000000 		.4byte	0
 20305 0128 00000000 		.4byte	.LBB199
 20306 012c 04000000 		.4byte	.LBE199
 20307 0130 0C000000 		.4byte	.LBB202
 20308 0134 18000000 		.4byte	.LBE202
 20309 0138 00000000 		.4byte	0
 20310 013c 00000000 		.4byte	0
 20311 0140 0A000000 		.4byte	.LBB203
 20312 0144 0C000000 		.4byte	.LBE203
 20313 0148 1A000000 		.4byte	.LBB208
 20314 014c 1C000000 		.4byte	.LBE208
 20315 0150 26000000 		.4byte	.LBB209
 20316 0154 38000000 		.4byte	.LBE209
 20317 0158 3E000000 		.4byte	.LBB210
 20318 015c 40000000 		.4byte	.LBE210
 20319 0160 00000000 		.4byte	0
 20320 0164 00000000 		.4byte	0
 20321 0168 AA000000 		.4byte	.LBB211
 20322 016c 14010000 		.4byte	.LBE211
 20323 0170 AA010000 		.4byte	.LBB214
 20324 0174 D6010000 		.4byte	.LBE214
 20325 0178 00000000 		.4byte	0
 20326 017c 00000000 		.4byte	0
 20327 0180 BA000000 		.4byte	.LBB212
 20328 0184 14010000 		.4byte	.LBE212
 20329 0188 B6010000 		.4byte	.LBB213
 20330 018c D6010000 		.4byte	.LBE213
 20331 0190 00000000 		.4byte	0
 20332 0194 00000000 		.4byte	0
 20333 0198 06000000 		.4byte	.LBB219
 20334 019c 08000000 		.4byte	.LBE219
 20335 01a0 0E000000 		.4byte	.LBB223
 20336 01a4 10000000 		.4byte	.LBE223
 20337 01a8 1A000000 		.4byte	.LBB224
 20338 01ac 30000000 		.4byte	.LBE224
 20339 01b0 00000000 		.4byte	0
 20340 01b4 00000000 		.4byte	0
 20341 01b8 04000000 		.4byte	.LBB229
 20342 01bc 06000000 		.4byte	.LBE229
 20343 01c0 0A000000 		.4byte	.LBB233
 20344 01c4 0C000000 		.4byte	.LBE233
 20345 01c8 16000000 		.4byte	.LBB234
 20346 01cc 2A000000 		.4byte	.LBE234
 20347 01d0 00000000 		.4byte	0
 20348 01d4 00000000 		.4byte	0
 20349 01d8 A0000000 		.4byte	.LBB235
 20350 01dc B4000000 		.4byte	.LBE235
 20351 01e0 10030000 		.4byte	.LBB257
ARM GAS  C:\Users\jo\AppData\Local\Temp\cc6wN9Ut.s 			page 360


 20352 01e4 3E030000 		.4byte	.LBE257
 20353 01e8 00000000 		.4byte	0
 20354 01ec 00000000 		.4byte	0
 20355 01f0 A0000000 		.4byte	.LBB236
 20356 01f4 A6000000 		.4byte	.LBE236
 20357 01f8 10030000 		.4byte	.LBB239
 20358 01fc 18030000 		.4byte	.LBE239
 20359 0200 00000000 		.4byte	0
 20360 0204 00000000 		.4byte	0
 20361 0208 B4000000 		.4byte	.LBB242
 20362 020c C4000000 		.4byte	.LBE242
 20363 0210 EC010000 		.4byte	.LBB251
 20364 0214 00020000 		.4byte	.LBE251
 20365 0218 B6020000 		.4byte	.LBB256
 20366 021c 10030000 		.4byte	.LBE256
 20367 0220 00000000 		.4byte	0
 20368 0224 00000000 		.4byte	0
 20369 0228 EC010000 		.4byte	.LBB245
 20370 022c F0010000 		.4byte	.LBE245
 20371 0230 B6020000 		.4byte	.LBB248
 20372 0234 BC020000 		.4byte	.LBE248
 20373 0238 00000000 		.4byte	0
 20374 023c 00000000 		.4byte	0
 20375 0240 00000000 		.4byte	.LBB258
 20376 0244 04000000 		.4byte	.LBE258
 20377 0248 0C000000 		.4byte	.LBB261
 20378 024c 1E000000 		.4byte	.LBE261
 20379 0250 00000000 		.4byte	0
 20380 0254 00000000 		.4byte	0
 20381 0258 06000000 		.4byte	.LBB262
 20382 025c 08000000 		.4byte	.LBE262
 20383 0260 0A000000 		.4byte	.LBB266
 20384 0264 0C000000 		.4byte	.LBE266
 20385 0268 16000000 		.4byte	.LBB267
 20386 026c 2E000000 		.4byte	.LBE267
 20387 0270 00000000 		.4byte	0
 20388 0274 00000000 		.4byte	0
 20389 0278 00000000 		.4byte	.LBB268
 20390 027c 04000000 		.4byte	.LBE268
 20391 0280 0E000000 		.4byte	.LBB272
 20392 0284 1E000000 		.4byte	.LBE272
 20393 0288 20000000 		.4byte	.LBB273
 20394 028c 26000000 		.4byte	.LBE273
 20395 0290 00000000 		.4byte	0
 20396 0294 00000000 		.4byte	0
 20397 0298 00000000 		.4byte	.LBB274
 20398 029c 04000000 		.4byte	.LBE274
 20399 02a0 0A000000 		.4byte	.LBB278
 20400 02a4 0C000000 		.4byte	.LBE278
 20401 02a8 0E000000 		.4byte	.LBB279
 20402 02ac 18000000 		.4byte	.LBE279
 20403 02b0 00000000 		.4byte	0
 20404 02b4 00000000 		.4byte	0
 20405 02b8 00000000 		.4byte	.LBB280
 20406 02bc 04000000 		.4byte	.LBE280
 20407 02c0 0A000000 		.4byte	.LBB283
 20408 02c4 18000000 		.4byte	.LBE283
ARM GAS  C:\Users\jo\AppData\Local\Temp\cc6wN9Ut.s 			page 361


 20409 02c8 00000000 		.4byte	0
 20410 02cc 00000000 		.4byte	0
 20411 02d0 00000000 		.4byte	.LFB263
 20412 02d4 54000000 		.4byte	.LFE263
 20413 02d8 00000000 		.4byte	.LFB281
 20414 02dc 98000000 		.4byte	.LFE281
 20415 02e0 00000000 		.4byte	.LFB290
 20416 02e4 28000000 		.4byte	.LFE290
 20417 02e8 00000000 		.4byte	.LFB287
 20418 02ec 80010000 		.4byte	.LFE287
 20419 02f0 00000000 		.4byte	.LFB285
 20420 02f4 A4010000 		.4byte	.LFE285
 20421 02f8 00000000 		.4byte	.LFB277
 20422 02fc 4C010000 		.4byte	.LFE277
 20423 0300 00000000 		.4byte	.LFB279
 20424 0304 48010000 		.4byte	.LFE279
 20425 0308 00000000 		.4byte	.LFB260
 20426 030c 02000000 		.4byte	.LFE260
 20427 0310 00000000 		.4byte	.LFB265
 20428 0314 F8010000 		.4byte	.LFE265
 20429 0318 00000000 		.4byte	.LFB266
 20430 031c C4000000 		.4byte	.LFE266
 20431 0320 00000000 		.4byte	.LFB267
 20432 0324 60000000 		.4byte	.LFE267
 20433 0328 00000000 		.4byte	.LFB268
 20434 032c C4000000 		.4byte	.LFE268
 20435 0330 00000000 		.4byte	.LFB269
 20436 0334 80000000 		.4byte	.LFE269
 20437 0338 00000000 		.4byte	.LFB270
 20438 033c E0020000 		.4byte	.LFE270
 20439 0340 00000000 		.4byte	.LFB271
 20440 0344 14000000 		.4byte	.LFE271
 20441 0348 00000000 		.4byte	.LFB272
 20442 034c 12000000 		.4byte	.LFE272
 20443 0350 00000000 		.4byte	.LFB274
 20444 0354 44010000 		.4byte	.LFE274
 20445 0358 00000000 		.4byte	.LFB273
 20446 035c 98000000 		.4byte	.LFE273
 20447 0360 00000000 		.4byte	.LFB275
 20448 0364 78000000 		.4byte	.LFE275
 20449 0368 00000000 		.4byte	.LFB276
 20450 036c 06000000 		.4byte	.LFE276
 20451 0370 00000000 		.4byte	.LFB278
 20452 0374 60030000 		.4byte	.LFE278
 20453 0378 00000000 		.4byte	.LFB280
 20454 037c 88000000 		.4byte	.LFE280
 20455 0380 00000000 		.4byte	.LFB282
 20456 0384 06000000 		.4byte	.LFE282
 20457 0388 00000000 		.4byte	.LFB283
 20458 038c 06000000 		.4byte	.LFE283
 20459 0390 00000000 		.4byte	.LFB284
 20460 0394 3C010000 		.4byte	.LFE284
 20461 0398 00000000 		.4byte	.LFB286
 20462 039c 14010000 		.4byte	.LFE286
 20463 03a0 00000000 		.4byte	.LFB288
 20464 03a4 60000000 		.4byte	.LFE288
 20465 03a8 00000000 		.4byte	.LFB289
ARM GAS  C:\Users\jo\AppData\Local\Temp\cc6wN9Ut.s 			page 362


 20466 03ac 48000000 		.4byte	.LFE289
 20467 03b0 00000000 		.4byte	0
 20468 03b4 00000000 		.4byte	0
 20469              		.section	.debug_line,"",%progbits
 20470              	.Ldebug_line0:
 20471 0000 1A100000 		.section	.debug_str,"MS",%progbits,1
 20471      02006104 
 20471      00000201 
 20471      FB0E0D00 
 20471      01010101 
 20472              	.LASF418:
 20473 0000 6E657463 		.ascii	"netconn_send\000"
 20473      6F6E6E5F 
 20473      73656E64 
 20473      00
 20474              	.LASF315:
 20475 000d 61636365 		.ascii	"accepted\000"
 20475      70746564 
 20475      00
 20476              	.LASF56:
 20477 0016 74687265 		.ascii	"threads_queue_t\000"
 20477      6164735F 
 20477      71756575 
 20477      655F7400 
 20478              	.LASF318:
 20479 0026 6E616D65 		.ascii	"name\000"
 20479      00
 20480              	.LASF356:
 20481 002b 66726F6D 		.ascii	"from\000"
 20481      00
 20482              	.LASF104:
 20483 0030 746D5F63 		.ascii	"tm_calibration_t\000"
 20483      616C6962 
 20483      72617469 
 20483      6F6E5F74 
 20483      00
 20484              	.LASF366:
 20485 0041 746F6C65 		.ascii	"tolen\000"
 20485      6E00
 20486              	.LASF390:
 20487 0047 6C776970 		.ascii	"lwip_fcntl\000"
 20487      5F66636E 
 20487      746C00
 20488              	.LASF213:
 20489 0052 736F5F6F 		.ascii	"so_options\000"
 20489      7074696F 
 20489      6E7300
 20490              	.LASF119:
 20491 005d 63686172 		.ascii	"char\000"
 20491      00
 20492              	.LASF399:
 20493 0062 63687670 		.ascii	"chvprintf\000"
 20493      72696E74 
 20493      6600
 20494              	.LASF90:
 20495 006c 72656761 		.ascii	"regarm_t\000"
 20495      726D5F74 
ARM GAS  C:\Users\jo\AppData\Local\Temp\cc6wN9Ut.s 			page 363


 20495      00
 20496              	.LASF36:
 20497 0075 705F7072 		.ascii	"p_prio\000"
 20497      696F00
 20498              	.LASF186:
 20499 007c 6E657463 		.ascii	"netconn_type\000"
 20499      6F6E6E5F 
 20499      74797065 
 20499      00
 20500              	.LASF429:
 20501 0089 61676169 		.ascii	"again\000"
 20501      6E00
 20502              	.LASF348:
 20503 008f 66726565 		.ascii	"free_socket\000"
 20503      5F736F63 
 20503      6B657400 
 20504              	.LASF426:
 20505 009b 474E5520 		.ascii	"GNU C 4.9.3 20141119 (release) [ARM/embedded-4_9-br"
 20505      4320342E 
 20505      392E3320 
 20505      32303134 
 20505      31313139 
 20506 00ce 616E6368 		.ascii	"anch revision 218278] -mcpu=cortex-m4 -mno-thumb-in"
 20506      20726576 
 20506      6973696F 
 20506      6E203231 
 20506      38323738 
 20507 0101 74657277 		.ascii	"terwork -mthumb -ggdb -O2 -fomit-frame-pointer -fal"
 20507      6F726B20 
 20507      2D6D7468 
 20507      756D6220 
 20507      2D676764 
 20508 0134 69676E2D 		.ascii	"ign-functions=16 -ffunction-sections -fdata-section"
 20508      66756E63 
 20508      74696F6E 
 20508      733D3136 
 20508      202D6666 
 20509 0167 73202D66 		.ascii	"s -fno-common\000"
 20509      6E6F2D63 
 20509      6F6D6D6F 
 20509      6E00
 20510              	.LASF164:
 20511 0175 73615F64 		.ascii	"sa_data\000"
 20511      61746100 
 20512              	.LASF220:
 20513 017d 706F6C6C 		.ascii	"polltmr\000"
 20513      746D7200 
 20514              	.LASF167:
 20515 0185 74765F73 		.ascii	"tv_sec\000"
 20515      656300
 20516              	.LASF262:
 20517 018c 7463705F 		.ascii	"tcp_accept_fn\000"
 20517      61636365 
 20517      70745F66 
 20517      6E00
 20518              	.LASF175:
 20519 019a 666C6167 		.ascii	"flags\000"
ARM GAS  C:\Users\jo\AppData\Local\Temp\cc6wN9Ut.s 			page 364


 20519      7300
 20520              	.LASF32:
 20521 01a0 73797374 		.ascii	"systime_t\000"
 20521      696D655F 
 20521      7400
 20522              	.LASF355:
 20523 01aa 6C776970 		.ascii	"lwip_recvfrom\000"
 20523      5F726563 
 20523      7666726F 
 20523      6D00
 20524              	.LASF161:
 20525 01b8 736F636B 		.ascii	"sockaddr\000"
 20525      61646472 
 20525      00
 20526              	.LASF117:
 20527 01c1 6D5F6F77 		.ascii	"m_owner\000"
 20527      6E657200 
 20528              	.LASF113:
 20529 01c9 735F7175 		.ascii	"s_queue\000"
 20529      65756500 
 20530              	.LASF204:
 20531 01d1 72656376 		.ascii	"recvmbox\000"
 20531      6D626F78 
 20531      00
 20532              	.LASF280:
 20533 01da 7261775F 		.ascii	"raw_pcb\000"
 20533      70636200 
 20534              	.LASF279:
 20535 01e2 54494D45 		.ascii	"TIME_WAIT\000"
 20535      5F574149 
 20535      5400
 20536              	.LASF97:
 20537 01ec 73655F73 		.ascii	"se_state\000"
 20537      74617465 
 20537      00
 20538              	.LASF0:
 20539 01f5 756E7369 		.ascii	"unsigned int\000"
 20539      676E6564 
 20539      20696E74 
 20539      00
 20540              	.LASF267:
 20541 0202 7463705F 		.ascii	"tcp_connected_fn\000"
 20541      636F6E6E 
 20541      65637465 
 20541      645F666E 
 20541      00
 20542              	.LASF171:
 20543 0213 6E657874 		.ascii	"next\000"
 20543      00
 20544              	.LASF198:
 20545 0218 4E455443 		.ascii	"NETCONN_EVT_ERROR\000"
 20545      4F4E4E5F 
 20545      4556545F 
 20545      4552524F 
 20545      5200
 20546              	.LASF231:
 20547 022a 64757061 		.ascii	"dupacks\000"
ARM GAS  C:\Users\jo\AppData\Local\Temp\cc6wN9Ut.s 			page 365


 20547      636B7300 
 20548              	.LASF338:
 20549 0232 6C617374 		.ascii	"last_select_cb_ctr\000"
 20549      5F73656C 
 20549      6563745F 
 20549      63625F63 
 20549      747200
 20550              	.LASF184:
 20551 0245 4E455443 		.ascii	"NETCONN_UDPNOCHKSUM\000"
 20551      4F4E4E5F 
 20551      5544504E 
 20551      4F43484B 
 20551      53554D00 
 20552              	.LASF53:
 20553 0259 74687265 		.ascii	"threads_list_t\000"
 20553      6164735F 
 20553      6C697374 
 20553      5F7400
 20554              	.LASF169:
 20555 0268 6572725F 		.ascii	"err_t\000"
 20555      7400
 20556              	.LASF285:
 20557 026e 6C6F6361 		.ascii	"local\000"
 20557      6C00
 20558              	.LASF325:
 20559 0274 6D617866 		.ascii	"maxfdp1\000"
 20559      64703100 
 20560              	.LASF45:
 20561 027c 705F7761 		.ascii	"p_waiting\000"
 20561      6974696E 
 20561      6700
 20562              	.LASF10:
 20563 0286 5F5F696E 		.ascii	"__int32_t\000"
 20563      7433325F 
 20563      7400
 20564              	.LASF129:
 20565 0290 42617365 		.ascii	"BaseSequentialStreamVMT\000"
 20565      53657175 
 20565      656E7469 
 20565      616C5374 
 20565      7265616D 
 20566              	.LASF383:
 20567 02a8 73687574 		.ascii	"shut_tx\000"
 20567      5F747800 
 20568              	.LASF298:
 20569 02b0 70726576 		.ascii	"prev\000"
 20569      00
 20570              	.LASF145:
 20571 02b5 7531365F 		.ascii	"u16_t\000"
 20571      7400
 20572              	.LASF413:
 20573 02bb 6E657463 		.ascii	"netconn_recved\000"
 20573      6F6E6E5F 
 20573      72656376 
 20573      656400
 20574              	.LASF428:
 20575 02ca 433A5C55 		.ascii	"C:\\Users\\jo\\Documents\\GitHub\\ChibiOS\\demos\\S"
ARM GAS  C:\Users\jo\AppData\Local\Temp\cc6wN9Ut.s 			page 366


 20575      73657273 
 20575      5C6A6F5C 
 20575      446F6375 
 20575      6D656E74 
 20576 02f6 544D3332 		.ascii	"TM32\\RT-STM32F407-DISCOVERY-uHttp\000"
 20576      5C52542D 
 20576      53544D33 
 20576      32463430 
 20576      372D4449 
 20577              	.LASF86:
 20578 0318 76746C69 		.ascii	"vtlist\000"
 20578      737400
 20579              	.LASF226:
 20580 031f 7263765F 		.ascii	"rcv_ann_right_edge\000"
 20580      616E6E5F 
 20580      72696768 
 20580      745F6564 
 20580      676500
 20581              	.LASF59:
 20582 0332 63685F72 		.ascii	"ch_ready_list\000"
 20582      65616479 
 20582      5F6C6973 
 20582      7400
 20583              	.LASF374:
 20584 0340 70726F74 		.ascii	"protocol\000"
 20584      6F636F6C 
 20584      00
 20585              	.LASF405:
 20586 0349 6E657463 		.ascii	"netconn_delete\000"
 20586      6F6E6E5F 
 20586      64656C65 
 20586      746500
 20587              	.LASF420:
 20588 0358 6E657463 		.ascii	"netconn_new_with_proto_and_callback\000"
 20588      6F6E6E5F 
 20588      6E65775F 
 20588      77697468 
 20588      5F70726F 
 20589              	.LASF368:
 20590 037c 746F5F69 		.ascii	"to_in\000"
 20590      6E00
 20591              	.LASF111:
 20592 0382 65776D61 		.ascii	"ewmask\000"
 20592      736B00
 20593              	.LASF416:
 20594 0389 6E657462 		.ascii	"netbuf_ref\000"
 20594      75665F72 
 20594      656600
 20595              	.LASF424:
 20596 0394 6E657463 		.ascii	"netconn_shutdown\000"
 20596      6F6E6E5F 
 20596      73687574 
 20596      646F776E 
 20596      00
 20597              	.LASF427:
 20598 03a5 2E2E2F2E 		.ascii	"../../../ext/lwip/src/api/sockets.c\000"
 20598      2E2F2E2E 
ARM GAS  C:\Users\jo\AppData\Local\Temp\cc6wN9Ut.s 			page 367


 20598      2F657874 
 20598      2F6C7769 
 20598      702F7372 
 20599              	.LASF398:
 20600 03c9 6C776970 		.ascii	"lwip_htons\000"
 20600      5F68746F 
 20600      6E7300
 20601              	.LASF257:
 20602 03d4 6B656570 		.ascii	"keep_cnt_sent\000"
 20602      5F636E74 
 20602      5F73656E 
 20602      7400
 20603              	.LASF304:
 20604 03e2 736F636B 		.ascii	"sock\000"
 20604      00
 20605              	.LASF264:
 20606 03e7 7463705F 		.ascii	"tcp_sent_fn\000"
 20606      73656E74 
 20606      5F666E00 
 20607              	.LASF187:
 20608 03f3 6E657463 		.ascii	"netconn_state\000"
 20608      6F6E6E5F 
 20608      73746174 
 20608      6500
 20609              	.LASF316:
 20610 0401 616C6C6F 		.ascii	"alloc_socket\000"
 20610      635F736F 
 20610      636B6574 
 20610      00
 20611              	.LASF66:
 20612 040e 76746675 		.ascii	"vtfunc_t\000"
 20612      6E635F74 
 20612      00
 20613              	.LASF107:
 20614 0417 77746F62 		.ascii	"wtobjp\000"
 20614      6A7000
 20615              	.LASF114:
 20616 041e 735F636E 		.ascii	"s_cnt\000"
 20616      7400
 20617              	.LASF78:
 20618 0424 63685F73 		.ascii	"ch_system_debug\000"
 20618      79737465 
 20618      6D5F6465 
 20618      62756700 
 20619              	.LASF3:
 20620 0434 7369676E 		.ascii	"signed char\000"
 20620      65642063 
 20620      68617200 
 20621              	.LASF339:
 20622 0440 646F5F73 		.ascii	"do_signal\000"
 20622      69676E61 
 20622      6C00
 20623              	.LASF224:
 20624 044a 7263765F 		.ascii	"rcv_wnd\000"
 20624      776E6400 
 20625              	.LASF22:
 20626 0452 75696E74 		.ascii	"uint32_t\000"
ARM GAS  C:\Users\jo\AppData\Local\Temp\cc6wN9Ut.s 			page 368


 20626      33325F74 
 20626      00
 20627              	.LASF17:
 20628 045b 696E7438 		.ascii	"int8_t\000"
 20628      5F7400
 20629              	.LASF233:
 20630 0462 63776E64 		.ascii	"cwnd\000"
 20630      00
 20631              	.LASF30:
 20632 0467 6576656E 		.ascii	"eventmask_t\000"
 20632      746D6173 
 20632      6B5F7400 
 20633              	.LASF61:
 20634 0473 725F7072 		.ascii	"r_prio\000"
 20634      696F00
 20635              	.LASF216:
 20636 047a 61636365 		.ascii	"accept\000"
 20636      707400
 20637              	.LASF55:
 20638 0481 63685F74 		.ascii	"ch_threads_list\000"
 20638      68726561 
 20638      64735F6C 
 20638      69737400 
 20639              	.LASF73:
 20640 0491 76745F70 		.ascii	"vt_par\000"
 20640      617200
 20641              	.LASF218:
 20642 0498 6C6F6361 		.ascii	"local_port\000"
 20642      6C5F706F 
 20642      727400
 20643              	.LASF351:
 20644 04a3 6C776970 		.ascii	"lwip_connect\000"
 20644      5F636F6E 
 20644      6E656374 
 20644      00
 20645              	.LASF112:
 20646 04b0 63685F73 		.ascii	"ch_semaphore\000"
 20646      656D6170 
 20646      686F7265 
 20646      00
 20647              	.LASF28:
 20648 04bd 74707269 		.ascii	"tprio_t\000"
 20648      6F5F7400 
 20649              	.LASF156:
 20650 04c5 73696E5F 		.ascii	"sin_len\000"
 20650      6C656E00 
 20651              	.LASF359:
 20652 04cd 636F7079 		.ascii	"copylen\000"
 20652      6C656E00 
 20653              	.LASF136:
 20654 04d5 6664735F 		.ascii	"fds_bits\000"
 20654      62697473 
 20654      00
 20655              	.LASF68:
 20656 04de 63685F76 		.ascii	"ch_virtual_timer\000"
 20656      69727475 
 20656      616C5F74 
ARM GAS  C:\Users\jo\AppData\Local\Temp\cc6wN9Ut.s 			page 369


 20656      696D6572 
 20656      00
 20657              	.LASF369:
 20658 04ef 6C776970 		.ascii	"lwip_send\000"
 20658      5F73656E 
 20658      6400
 20659              	.LASF19:
 20660 04f9 696E7431 		.ascii	"int16_t\000"
 20660      365F7400 
 20661              	.LASF408:
 20662 0501 6E657462 		.ascii	"netbuf_delete\000"
 20662      75665F64 
 20662      656C6574 
 20662      6500
 20663              	.LASF281:
 20664 050f 7463705F 		.ascii	"tcp_seg\000"
 20664      73656700 
 20665              	.LASF16:
 20666 0517 6C6F6E67 		.ascii	"long long unsigned int\000"
 20666      206C6F6E 
 20666      6720756E 
 20666      7369676E 
 20666      65642069 
 20667              	.LASF96:
 20668 052e 73655F77 		.ascii	"se_wtobjp\000"
 20668      746F626A 
 20668      7000
 20669              	.LASF309:
 20670 0538 72656173 		.ascii	"reason\000"
 20670      6F6E00
 20671              	.LASF82:
 20672 053f 74726163 		.ascii	"trace_buffer\000"
 20672      655F6275 
 20672      66666572 
 20672      00
 20673              	.LASF180:
 20674 054c 4E455443 		.ascii	"NETCONN_INVALID\000"
 20674      4F4E4E5F 
 20674      494E5641 
 20674      4C494400 
 20675              	.LASF311:
 20676 055c 74727967 		.ascii	"tryget_socket\000"
 20676      65745F73 
 20676      6F636B65 
 20676      7400
 20677              	.LASF157:
 20678 056a 73696E5F 		.ascii	"sin_family\000"
 20678      66616D69 
 20678      6C7900
 20679              	.LASF8:
 20680 0575 5F5F7569 		.ascii	"__uint16_t\000"
 20680      6E743136 
 20680      5F7400
 20681              	.LASF197:
 20682 0580 4E455443 		.ascii	"NETCONN_EVT_SENDMINUS\000"
 20682      4F4E4E5F 
 20682      4556545F 
ARM GAS  C:\Users\jo\AppData\Local\Temp\cc6wN9Ut.s 			page 370


 20682      53454E44 
 20682      4D494E55 
 20683              	.LASF227:
 20684 0596 7274696D 		.ascii	"rtime\000"
 20684      6500
 20685              	.LASF345:
 20686 059c 6C6F6361 		.ascii	"local_addr\000"
 20686      6C5F6164 
 20686      647200
 20687              	.LASF358:
 20688 05a7 6275666C 		.ascii	"buflen\000"
 20688      656E00
 20689              	.LASF80:
 20690 05ae 6973725F 		.ascii	"isr_cnt\000"
 20690      636E7400 
 20691              	.LASF326:
 20692 05b6 72656164 		.ascii	"readset_in\000"
 20692      7365745F 
 20692      696E00
 20693              	.LASF38:
 20694 05c1 705F6E65 		.ascii	"p_newer\000"
 20694      77657200 
 20695              	.LASF372:
 20696 05c9 6C776970 		.ascii	"lwip_socket\000"
 20696      5F736F63 
 20696      6B657400 
 20697              	.LASF75:
 20698 05d5 63685F76 		.ascii	"ch_virtual_timers_list\000"
 20698      69727475 
 20698      616C5F74 
 20698      696D6572 
 20698      735F6C69 
 20699              	.LASF223:
 20700 05ec 7263765F 		.ascii	"rcv_nxt\000"
 20700      6E787400 
 20701              	.LASF402:
 20702 05f4 7379735F 		.ascii	"sys_sem_signal\000"
 20702      73656D5F 
 20702      7369676E 
 20702      616C00
 20703              	.LASF166:
 20704 0603 74696D65 		.ascii	"timeval\000"
 20704      76616C00 
 20705              	.LASF194:
 20706 060b 4E455443 		.ascii	"NETCONN_EVT_RCVPLUS\000"
 20706      4F4E4E5F 
 20706      4556545F 
 20706      52435650 
 20706      4C555300 
 20707              	.LASF94:
 20708 061f 73655F74 		.ascii	"se_time\000"
 20708      696D6500 
 20709              	.LASF160:
 20710 0627 73696E5F 		.ascii	"sin_zero\000"
 20710      7A65726F 
 20710      00
 20711              	.LASF33:
ARM GAS  C:\Users\jo\AppData\Local\Temp\cc6wN9Ut.s 			page 371


 20712 0630 74687265 		.ascii	"thread_t\000"
 20712      61645F74 
 20712      00
 20713              	.LASF182:
 20714 0639 4E455443 		.ascii	"NETCONN_UDP\000"
 20714      4F4E4E5F 
 20714      55445000 
 20715              	.LASF34:
 20716 0645 705F6E65 		.ascii	"p_next\000"
 20716      787400
 20717              	.LASF139:
 20718 064c 5F5F676E 		.ascii	"__gnuc_va_list\000"
 20718      75635F76 
 20718      615F6C69 
 20718      737400
 20719              	.LASF278:
 20720 065b 4C415354 		.ascii	"LAST_ACK\000"
 20720      5F41434B 
 20720      00
 20721              	.LASF154:
 20722 0664 735F6164 		.ascii	"s_addr\000"
 20722      647200
 20723              	.LASF173:
 20724 066b 746F745F 		.ascii	"tot_len\000"
 20724      6C656E00 
 20725              	.LASF284:
 20726 0673 69706164 		.ascii	"ipaddr\000"
 20726      647200
 20727              	.LASF1:
 20728 067a 73697A65 		.ascii	"size_t\000"
 20728      5F7400
 20729              	.LASF105:
 20730 0681 7264796D 		.ascii	"rdymsg\000"
 20730      736700
 20731              	.LASF172:
 20732 0688 7061796C 		.ascii	"payload\000"
 20732      6F616400 
 20733              	.LASF417:
 20734 0690 6E657462 		.ascii	"netbuf_free\000"
 20734      75665F66 
 20734      72656500 
 20735              	.LASF103:
 20736 069c 6F666673 		.ascii	"offset\000"
 20736      657400
 20737              	.LASF337:
 20738 06a3 6576656E 		.ascii	"event_callback\000"
 20738      745F6361 
 20738      6C6C6261 
 20738      636B00
 20739              	.LASF364:
 20740 06b2 6C776970 		.ascii	"lwip_sendto\000"
 20740      5F73656E 
 20740      64746F00 
 20741              	.LASF296:
 20742 06be 73656C65 		.ascii	"select_waiting\000"
 20742      63745F77 
 20742      61697469 
ARM GAS  C:\Users\jo\AppData\Local\Temp\cc6wN9Ut.s 			page 372


 20742      6E6700
 20743              	.LASF135:
 20744 06cd 5F747970 		.ascii	"_types_fd_set\000"
 20744      65735F66 
 20744      645F7365 
 20744      7400
 20745              	.LASF251:
 20746 06db 636F6E6E 		.ascii	"connected\000"
 20746      65637465 
 20746      6400
 20747              	.LASF133:
 20748 06e5 5F426F6F 		.ascii	"_Bool\000"
 20748      6C00
 20749              	.LASF125:
 20750 06eb 6D625F72 		.ascii	"mb_rdptr\000"
 20750      64707472 
 20750      00
 20751              	.LASF261:
 20752 06f4 636F6E6E 		.ascii	"conn\000"
 20752      00
 20753              	.LASF128:
 20754 06f9 6D61696C 		.ascii	"mailbox_t\000"
 20754      626F785F 
 20754      7400
 20755              	.LASF277:
 20756 0703 434C4F53 		.ascii	"CLOSING\000"
 20756      494E4700 
 20757              	.LASF333:
 20758 070b 6C726561 		.ascii	"lreadset\000"
 20758      64736574 
 20758      00
 20759              	.LASF168:
 20760 0714 74765F75 		.ascii	"tv_usec\000"
 20760      73656300 
 20761              	.LASF303:
 20762 071c 6C776970 		.ascii	"lwip_setgetsockopt_data\000"
 20762      5F736574 
 20762      67657473 
 20762      6F636B6F 
 20762      70745F64 
 20763              	.LASF202:
 20764 0734 6C617374 		.ascii	"last_err\000"
 20764      5F657272 
 20764      00
 20765              	.LASF15:
 20766 073d 5F5F7569 		.ascii	"__uint64_t\000"
 20766      6E743634 
 20766      5F7400
 20767              	.LASF344:
 20768 0748 6C776970 		.ascii	"lwip_bind\000"
 20768      5F62696E 
 20768      6400
 20769              	.LASF323:
 20770 0752 6C776970 		.ascii	"lwip_getsockopt_internal\000"
 20770      5F676574 
 20770      736F636B 
 20770      6F70745F 
ARM GAS  C:\Users\jo\AppData\Local\Temp\cc6wN9Ut.s 			page 373


 20770      696E7465 
 20771              	.LASF148:
 20772 076b 7333325F 		.ascii	"s32_t\000"
 20772      7400
 20773              	.LASF127:
 20774 0771 6D625F65 		.ascii	"mb_emptysem\000"
 20774      6D707479 
 20774      73656D00 
 20775              	.LASF196:
 20776 077d 4E455443 		.ascii	"NETCONN_EVT_SENDPLUS\000"
 20776      4F4E4E5F 
 20776      4556545F 
 20776      53454E44 
 20776      504C5553 
 20777              	.LASF260:
 20778 0792 6170695F 		.ascii	"api_msg_msg\000"
 20778      6D73675F 
 20778      6D736700 
 20779              	.LASF238:
 20780 079e 736E645F 		.ascii	"snd_lbb\000"
 20780      6C626200 
 20781              	.LASF229:
 20782 07a6 72747365 		.ascii	"rtseq\000"
 20782      7100
 20783              	.LASF195:
 20784 07ac 4E455443 		.ascii	"NETCONN_EVT_RCVMINUS\000"
 20784      4F4E4E5F 
 20784      4556545F 
 20784      5243564D 
 20784      494E5553 
 20785              	.LASF40:
 20786 07c1 705F6E61 		.ascii	"p_name\000"
 20786      6D6500
 20787              	.LASF132:
 20788 07c8 42617365 		.ascii	"BaseSequentialStream\000"
 20788      53657175 
 20788      656E7469 
 20788      616C5374 
 20788      7265616D 
 20789              	.LASF144:
 20790 07dd 73385F74 		.ascii	"s8_t\000"
 20790      00
 20791              	.LASF349:
 20792 07e2 69735F74 		.ascii	"is_tcp\000"
 20792      637000
 20793              	.LASF217:
 20794 07e9 7072696F 		.ascii	"prio\000"
 20794      00
 20795              	.LASF221:
 20796 07ee 706F6C6C 		.ascii	"pollinterval\000"
 20796      696E7465 
 20796      7276616C 
 20796      00
 20797              	.LASF252:
 20798 07fb 706F6C6C 		.ascii	"poll\000"
 20798      00
 20799              	.LASF312:
ARM GAS  C:\Users\jo\AppData\Local\Temp\cc6wN9Ut.s 			page 374


 20800 0800 63687072 		.ascii	"chprintf\000"
 20800      696E7466 
 20800      00
 20801              	.LASF176:
 20802 0809 6E657462 		.ascii	"netbuf\000"
 20802      756600
 20803              	.LASF71:
 20804 0810 76745F64 		.ascii	"vt_delta\000"
 20804      656C7461 
 20804      00
 20805              	.LASF342:
 20806 0819 6E657773 		.ascii	"newsock\000"
 20806      6F636B00 
 20807              	.LASF299:
 20808 0821 72656164 		.ascii	"readset\000"
 20808      73657400 
 20809              	.LASF120:
 20810 0829 73656D61 		.ascii	"semaphore_t\000"
 20810      70686F72 
 20810      655F7400 
 20811              	.LASF236:
 20812 0835 736E645F 		.ascii	"snd_wl1\000"
 20812      776C3100 
 20813              	.LASF63:
 20814 083d 725F6E65 		.ascii	"r_newer\000"
 20814      77657200 
 20815              	.LASF319:
 20816 0845 6E616D65 		.ascii	"namelen\000"
 20816      6C656E00 
 20817              	.LASF370:
 20818 084d 77726974 		.ascii	"write_flags\000"
 20818      655F666C 
 20818      61677300 
 20819              	.LASF241:
 20820 0859 61636B65 		.ascii	"acked\000"
 20820      6400
 20821              	.LASF276:
 20822 085f 434C4F53 		.ascii	"CLOSE_WAIT\000"
 20822      455F5741 
 20822      495400
 20823              	.LASF283:
 20824 086a 70726F74 		.ascii	"proto\000"
 20824      6F00
 20825              	.LASF77:
 20826 0870 73797374 		.ascii	"system_debug_t\000"
 20826      656D5F64 
 20826      65627567 
 20826      5F7400
 20827              	.LASF26:
 20828 087f 74737461 		.ascii	"tstate_t\000"
 20828      74655F74 
 20828      00
 20829              	.LASF95:
 20830 0888 73655F74 		.ascii	"se_tp\000"
 20830      7000
 20831              	.LASF367:
 20832 088e 73686F72 		.ascii	"short_size\000"
ARM GAS  C:\Users\jo\AppData\Local\Temp\cc6wN9Ut.s 			page 375


 20832      745F7369 
 20832      7A6500
 20833              	.LASF419:
 20834 0899 6E657463 		.ascii	"netconn_write_partly\000"
 20834      6F6E6E5F 
 20834      77726974 
 20834      655F7061 
 20834      72746C79 
 20835              	.LASF321:
 20836 08ae 64617461 		.ascii	"data\000"
 20836      00
 20837              	.LASF14:
 20838 08b3 6C6F6E67 		.ascii	"long long int\000"
 20838      206C6F6E 
 20838      6720696E 
 20838      7400
 20839              	.LASF192:
 20840 08c1 4E455443 		.ascii	"NETCONN_CLOSE\000"
 20840      4F4E4E5F 
 20840      434C4F53 
 20840      4500
 20841              	.LASF39:
 20842 08cf 705F6F6C 		.ascii	"p_older\000"
 20842      64657200 
 20843              	.LASF122:
 20844 08d7 6D625F62 		.ascii	"mb_buffer\000"
 20844      75666665 
 20844      7200
 20845              	.LASF41:
 20846 08e1 705F7374 		.ascii	"p_stklimit\000"
 20846      6B6C696D 
 20846      697400
 20847              	.LASF12:
 20848 08ec 5F5F7569 		.ascii	"__uint32_t\000"
 20848      6E743332 
 20848      5F7400
 20849              	.LASF249:
 20850 08f7 73656E74 		.ascii	"sent\000"
 20850      00
 20851              	.LASF18:
 20852 08fc 75696E74 		.ascii	"uint8_t\000"
 20852      385F7400 
 20853              	.LASF126:
 20854 0904 6D625F66 		.ascii	"mb_fullsem\000"
 20854      756C6C73 
 20854      656D00
 20855              	.LASF101:
 20856 090f 74625F62 		.ascii	"tb_buffer\000"
 20856      75666665 
 20856      7200
 20857              	.LASF237:
 20858 0919 736E645F 		.ascii	"snd_wl2\000"
 20858      776C3200 
 20859              	.LASF376:
 20860 0921 6C776970 		.ascii	"lwip_select\000"
 20860      5F73656C 
 20860      65637400 
ARM GAS  C:\Users\jo\AppData\Local\Temp\cc6wN9Ut.s 			page 376


 20861              	.LASF51:
 20862 092d 705F6D70 		.ascii	"p_mpool\000"
 20862      6F6F6C00 
 20863              	.LASF124:
 20864 0935 6D625F77 		.ascii	"mb_wrptr\000"
 20864      72707472 
 20864      00
 20865              	.LASF49:
 20866 093e 705F6D74 		.ascii	"p_mtxlist\000"
 20866      786C6973 
 20866      7400
 20867              	.LASF266:
 20868 0948 7463705F 		.ascii	"tcp_err_fn\000"
 20868      6572725F 
 20868      666E00
 20869              	.LASF205:
 20870 0953 61636365 		.ascii	"acceptmbox\000"
 20870      70746D62 
 20870      6F7800
 20871              	.LASF54:
 20872 095e 63685F74 		.ascii	"ch_thread\000"
 20872      68726561 
 20872      6400
 20873              	.LASF99:
 20874 0968 74625F73 		.ascii	"tb_size\000"
 20874      697A6500 
 20875              	.LASF409:
 20876 0970 70627566 		.ascii	"pbuf_free\000"
 20876      5F667265 
 20876      6500
 20877              	.LASF290:
 20878 097a 6C776970 		.ascii	"lwip_sock\000"
 20878      5F736F63 
 20878      6B00
 20879              	.LASF142:
 20880 0984 76615F6C 		.ascii	"va_list\000"
 20880      69737400 
 20881              	.LASF379:
 20882 098c 6D736563 		.ascii	"msectimeout\000"
 20882      74696D65 
 20882      6F757400 
 20883              	.LASF385:
 20884 0998 6C776970 		.ascii	"lwip_getsockname\000"
 20884      5F676574 
 20884      736F636B 
 20884      6E616D65 
 20884      00
 20885              	.LASF57:
 20886 09a9 63685F74 		.ascii	"ch_threads_queue\000"
 20886      68726561 
 20886      64735F71 
 20886      75657565 
 20886      00
 20887              	.LASF421:
 20888 09ba 7379735F 		.ascii	"sys_sem_new\000"
 20888      73656D5F 
 20888      6E657700 
ARM GAS  C:\Users\jo\AppData\Local\Temp\cc6wN9Ut.s 			page 377


 20889              	.LASF60:
 20890 09c6 725F7175 		.ascii	"r_queue\000"
 20890      65756500 
 20891              	.LASF256:
 20892 09ce 70657273 		.ascii	"persist_backoff\000"
 20892      6973745F 
 20892      6261636B 
 20892      6F666600 
 20893              	.LASF158:
 20894 09de 73696E5F 		.ascii	"sin_port\000"
 20894      706F7274 
 20894      00
 20895              	.LASF31:
 20896 09e7 636E745F 		.ascii	"cnt_t\000"
 20896      7400
 20897              	.LASF29:
 20898 09ed 6D73675F 		.ascii	"msg_t\000"
 20898      7400
 20899              	.LASF302:
 20900 09f3 73656D5F 		.ascii	"sem_signalled\000"
 20900      7369676E 
 20900      616C6C65 
 20900      6400
 20901              	.LASF92:
 20902 0a01 636F6E74 		.ascii	"context\000"
 20902      65787400 
 20903              	.LASF330:
 20904 0a09 77726974 		.ascii	"writeset_out\000"
 20904      65736574 
 20904      5F6F7574 
 20904      00
 20905              	.LASF143:
 20906 0a16 75385F74 		.ascii	"u8_t\000"
 20906      00
 20907              	.LASF334:
 20908 0a1b 6C777269 		.ascii	"lwriteset\000"
 20908      74657365 
 20908      7400
 20909              	.LASF43:
 20910 0a25 705F666C 		.ascii	"p_flags\000"
 20910      61677300 
 20911              	.LASF6:
 20912 0a2d 5F5F696E 		.ascii	"__int16_t\000"
 20912      7431365F 
 20912      7400
 20913              	.LASF346:
 20914 0a37 6E616D65 		.ascii	"name_in\000"
 20914      5F696E00 
 20915              	.LASF141:
 20916 0a3f 5F5F6170 		.ascii	"__ap\000"
 20916      00
 20917              	.LASF67:
 20918 0a44 76697274 		.ascii	"virtual_timer_t\000"
 20918      75616C5F 
 20918      74696D65 
 20918      725F7400 
 20919              	.LASF259:
ARM GAS  C:\Users\jo\AppData\Local\Temp\cc6wN9Ut.s 			page 378


 20920 0a54 72656376 		.ascii	"recv_arg\000"
 20920      5F617267 
 20920      00
 20921              	.LASF347:
 20922 0a5d 6F73616C 		.ascii	"osalSysHalt\000"
 20922      53797348 
 20922      616C7400 
 20923              	.LASF89:
 20924 0a69 73697A65 		.ascii	"sizetype\000"
 20924      74797065 
 20924      00
 20925              	.LASF388:
 20926 0a72 6C776970 		.ascii	"lwip_ioctl\000"
 20926      5F696F63 
 20926      746C00
 20927              	.LASF404:
 20928 0a7d 6E657463 		.ascii	"netconn_accept\000"
 20928      6F6E6E5F 
 20928      61636365 
 20928      707400
 20929              	.LASF137:
 20930 0a8c 49544D53 		.ascii	"ITMStreamVMT\000"
 20930      74726561 
 20930      6D564D54 
 20930      00
 20931              	.LASF394:
 20932 0a99 6572725F 		.ascii	"err_to_errno_table\000"
 20932      746F5F65 
 20932      72726E6F 
 20932      5F746162 
 20932      6C6500
 20933              	.LASF301:
 20934 0aac 65786365 		.ascii	"exceptset\000"
 20934      70747365 
 20934      7400
 20935              	.LASF219:
 20936 0ab6 72656D6F 		.ascii	"remote_port\000"
 20936      74655F70 
 20936      6F727400 
 20937              	.LASF365:
 20938 0ac2 73697A65 		.ascii	"size\000"
 20938      00
 20939              	.LASF149:
 20940 0ac7 6D656D5F 		.ascii	"mem_ptr_t\000"
 20940      7074725F 
 20940      7400
 20941              	.LASF123:
 20942 0ad1 6D625F74 		.ascii	"mb_top\000"
 20942      6F7000
 20943              	.LASF100:
 20944 0ad8 74625F70 		.ascii	"tb_ptr\000"
 20944      747200
 20945              	.LASF397:
 20946 0adf 6E657463 		.ascii	"netconn_getaddr\000"
 20946      6F6E6E5F 
 20946      67657461 
 20946      64647200 
ARM GAS  C:\Users\jo\AppData\Local\Temp\cc6wN9Ut.s 			page 379


 20947              	.LASF225:
 20948 0aef 7263765F 		.ascii	"rcv_ann_wnd\000"
 20948      616E6E5F 
 20948      776E6400 
 20949              	.LASF159:
 20950 0afb 73696E5F 		.ascii	"sin_addr\000"
 20950      61646472 
 20950      00
 20951              	.LASF431:
 20952 0b04 72657475 		.ascii	"return_copy_fdsets\000"
 20952      726E5F63 
 20952      6F70795F 
 20952      66647365 
 20952      747300
 20953              	.LASF64:
 20954 0b17 725F6F6C 		.ascii	"r_older\000"
 20954      64657200 
 20955              	.LASF115:
 20956 0b1f 63685F6D 		.ascii	"ch_mutex\000"
 20956      75746578 
 20956      00
 20957              	.LASF263:
 20958 0b28 7463705F 		.ascii	"tcp_recv_fn\000"
 20958      72656376 
 20958      5F666E00 
 20959              	.LASF42:
 20960 0b34 705F7374 		.ascii	"p_state\000"
 20960      61746500 
 20961              	.LASF138:
 20962 0b3c 49544D53 		.ascii	"ITMStream\000"
 20962      74726561 
 20962      6D00
 20963              	.LASF341:
 20964 0b46 6E736F63 		.ascii	"nsock\000"
 20964      6B00
 20965              	.LASF350:
 20966 0b4c 6C776970 		.ascii	"lwip_close\000"
 20966      5F636C6F 
 20966      736500
 20967              	.LASF329:
 20968 0b57 72656164 		.ascii	"readset_out\000"
 20968      7365745F 
 20968      6F757400 
 20969              	.LASF79:
 20970 0b63 70616E69 		.ascii	"panic_msg\000"
 20970      635F6D73 
 20970      6700
 20971              	.LASF146:
 20972 0b6d 7331365F 		.ascii	"s16_t\000"
 20972      7400
 20973              	.LASF360:
 20974 0b73 646F6E65 		.ascii	"done\000"
 20974      00
 20975              	.LASF47:
 20976 0b78 705F6D73 		.ascii	"p_msg\000"
 20976      6700
 20977              	.LASF2:
ARM GAS  C:\Users\jo\AppData\Local\Temp\cc6wN9Ut.s 			page 380


 20978 0b7e 5F5F696E 		.ascii	"__int8_t\000"
 20978      74385F74 
 20978      00
 20979              	.LASF286:
 20980 0b87 64617461 		.ascii	"dataptr\000"
 20980      70747200 
 20981              	.LASF25:
 20982 0b8f 746D6F64 		.ascii	"tmode_t\000"
 20982      655F7400 
 20983              	.LASF87:
 20984 0b97 6D61696E 		.ascii	"mainthread\000"
 20984      74687265 
 20984      616400
 20985              	.LASF389:
 20986 0ba2 61726770 		.ascii	"argp\000"
 20986      00
 20987              	.LASF352:
 20988 0ba7 72656D6F 		.ascii	"remote_addr\000"
 20988      74655F61 
 20988      64647200 
 20989              	.LASF295:
 20990 0bb3 65727265 		.ascii	"errevent\000"
 20990      76656E74 
 20990      00
 20991              	.LASF20:
 20992 0bbc 75696E74 		.ascii	"uint16_t\000"
 20992      31365F74 
 20992      00
 20993              	.LASF387:
 20994 0bc5 6C776970 		.ascii	"lwip_setsockopt\000"
 20994      5F736574 
 20994      736F636B 
 20994      6F707400 
 20995              	.LASF188:
 20996 0bd5 4E455443 		.ascii	"NETCONN_NONE\000"
 20996      4F4E4E5F 
 20996      4E4F4E45 
 20996      00
 20997              	.LASF265:
 20998 0be2 7463705F 		.ascii	"tcp_poll_fn\000"
 20998      706F6C6C 
 20998      5F666E00 
 20999              	.LASF239:
 21000 0bee 736E645F 		.ascii	"snd_wnd\000"
 21000      776E6400 
 21001              	.LASF268:
 21002 0bf6 7463705F 		.ascii	"tcp_state\000"
 21002      73746174 
 21002      6500
 21003              	.LASF24:
 21004 0c00 7274636E 		.ascii	"rtcnt_t\000"
 21004      745F7400 
 21005              	.LASF328:
 21006 0c08 65786365 		.ascii	"exceptset_in\000"
 21006      70747365 
 21006      745F696E 
 21006      00
ARM GAS  C:\Users\jo\AppData\Local\Temp\cc6wN9Ut.s 			page 381


 21007              	.LASF191:
 21008 0c15 4E455443 		.ascii	"NETCONN_CONNECT\000"
 21008      4F4E4E5F 
 21008      434F4E4E 
 21008      45435400 
 21009              	.LASF322:
 21010 0c25 6C776970 		.ascii	"lwip_setsockopt_internal\000"
 21010      5F736574 
 21010      736F636B 
 21010      6F70745F 
 21010      696E7465 
 21011              	.LASF81:
 21012 0c3e 6C6F636B 		.ascii	"lock_cnt\000"
 21012      5F636E74 
 21012      00
 21013              	.LASF247:
 21014 0c47 6F6F7365 		.ascii	"ooseq\000"
 21014      7100
 21015              	.LASF211:
 21016 0c4d 6C6F6361 		.ascii	"local_ip\000"
 21016      6C5F6970 
 21016      00
 21017              	.LASF384:
 21018 0c56 6C776970 		.ascii	"lwip_getpeername\000"
 21018      5F676574 
 21018      70656572 
 21018      6E616D65 
 21018      00
 21019              	.LASF406:
 21020 0c67 6C776970 		.ascii	"lwip_ntohs\000"
 21020      5F6E746F 
 21020      687300
 21021              	.LASF27:
 21022 0c72 74726566 		.ascii	"trefs_t\000"
 21022      735F7400 
 21023              	.LASF50:
 21024 0c7a 705F7265 		.ascii	"p_realprio\000"
 21024      616C7072 
 21024      696F00
 21025              	.LASF269:
 21026 0c85 434C4F53 		.ascii	"CLOSED\000"
 21026      454400
 21027              	.LASF282:
 21028 0c8c 7564705F 		.ascii	"udp_recv_fn\000"
 21028      72656376 
 21028      5F666E00 
 21029              	.LASF147:
 21030 0c98 7533325F 		.ascii	"u32_t\000"
 21030      7400
 21031              	.LASF7:
 21032 0c9e 73686F72 		.ascii	"short int\000"
 21032      7420696E 
 21032      7400
 21033              	.LASF403:
 21034 0ca8 7379735F 		.ascii	"sys_sem_signal_S\000"
 21034      73656D5F 
 21034      7369676E 
ARM GAS  C:\Users\jo\AppData\Local\Temp\cc6wN9Ut.s 			page 382


 21034      616C5F53 
 21034      00
 21035              	.LASF65:
 21036 0cb9 725F6375 		.ascii	"r_current\000"
 21036      7272656E 
 21036      7400
 21037              	.LASF48:
 21038 0cc3 705F6570 		.ascii	"p_epending\000"
 21038      656E6469 
 21038      6E6700
 21039              	.LASF357:
 21040 0cce 66726F6D 		.ascii	"fromlen\000"
 21040      6C656E00 
 21041              	.LASF116:
 21042 0cd6 6D5F7175 		.ascii	"m_queue\000"
 21042      65756500 
 21043              	.LASF11:
 21044 0cde 6C6F6E67 		.ascii	"long int\000"
 21044      20696E74 
 21044      00
 21045              	.LASF93:
 21046 0ce7 706F7274 		.ascii	"port_intctx\000"
 21046      5F696E74 
 21046      63747800 
 21047              	.LASF395:
 21048 0cf3 49544D5F 		.ascii	"ITM_RxBuffer\000"
 21048      52784275 
 21048      66666572 
 21048      00
 21049              	.LASF245:
 21050 0d00 756E7365 		.ascii	"unsent\000"
 21050      6E7400
 21051              	.LASF289:
 21052 0d07 74637069 		.ascii	"tcpip_callback_fn\000"
 21052      705F6361 
 21052      6C6C6261 
 21052      636B5F66 
 21052      6E00
 21053              	.LASF228:
 21054 0d19 72747465 		.ascii	"rttest\000"
 21054      737400
 21055              	.LASF162:
 21056 0d20 73615F6C 		.ascii	"sa_len\000"
 21056      656E00
 21057              	.LASF84:
 21058 0d27 63685F73 		.ascii	"ch_system\000"
 21058      79737465 
 21058      6D00
 21059              	.LASF208:
 21060 0d31 63757272 		.ascii	"current_msg\000"
 21060      656E745F 
 21060      6D736700 
 21061              	.LASF430:
 21062 0d3d 6C776970 		.ascii	"lwip_socket_init\000"
 21062      5F736F63 
 21062      6B65745F 
 21062      696E6974 
ARM GAS  C:\Users\jo\AppData\Local\Temp\cc6wN9Ut.s 			page 383


 21062      00
 21063              	.LASF222:
 21064 0d4e 6C617374 		.ascii	"last_timer\000"
 21064      5F74696D 
 21064      657200
 21065              	.LASF414:
 21066 0d59 6E657463 		.ascii	"netconn_recv\000"
 21066      6F6E6E5F 
 21066      72656376 
 21066      00
 21067              	.LASF23:
 21068 0d66 75696E74 		.ascii	"uint64_t\000"
 21068      36345F74 
 21068      00
 21069              	.LASF37:
 21070 0d6f 705F6374 		.ascii	"p_ctx\000"
 21070      7800
 21071              	.LASF324:
 21072 0d75 6C776970 		.ascii	"lwip_selscan\000"
 21072      5F73656C 
 21072      7363616E 
 21072      00
 21073              	.LASF423:
 21074 0d82 7379735F 		.ascii	"sys_arch_sem_wait\000"
 21074      61726368 
 21074      5F73656D 
 21074      5F776169 
 21074      7400
 21075              	.LASF332:
 21076 0d94 6E726561 		.ascii	"nready\000"
 21076      647900
 21077              	.LASF85:
 21078 0d9b 726C6973 		.ascii	"rlist\000"
 21078      7400
 21079              	.LASF244:
 21080 0da1 756E7365 		.ascii	"unsent_oversize\000"
 21080      6E745F6F 
 21080      76657273 
 21080      697A6500 
 21081              	.LASF271:
 21082 0db1 53594E5F 		.ascii	"SYN_SENT\000"
 21082      53454E54 
 21082      00
 21083              	.LASF178:
 21084 0dba 7379735F 		.ascii	"sys_sem_t\000"
 21084      73656D5F 
 21084      7400
 21085              	.LASF206:
 21086 0dc4 736F636B 		.ascii	"socket\000"
 21086      657400
 21087              	.LASF235:
 21088 0dcb 736E645F 		.ascii	"snd_nxt\000"
 21088      6E787400 
 21089              	.LASF354:
 21090 0dd3 6261636B 		.ascii	"backlog\000"
 21090      6C6F6700 
 21091              	.LASF373:
ARM GAS  C:\Users\jo\AppData\Local\Temp\cc6wN9Ut.s 			page 384


 21092 0ddb 646F6D61 		.ascii	"domain\000"
 21092      696E00
 21093              	.LASF155:
 21094 0de2 736F636B 		.ascii	"sockaddr_in\000"
 21094      61646472 
 21094      5F696E00 
 21095              	.LASF4:
 21096 0dee 5F5F7569 		.ascii	"__uint8_t\000"
 21096      6E74385F 
 21096      7400
 21097              	.LASF273:
 21098 0df8 45535441 		.ascii	"ESTABLISHED\000"
 21098      424C4953 
 21098      48454400 
 21099              	.LASF240:
 21100 0e04 736E645F 		.ascii	"snd_wnd_max\000"
 21100      776E645F 
 21100      6D617800 
 21101              	.LASF131:
 21102 0e10 72656164 		.ascii	"read\000"
 21102      00
 21103              	.LASF307:
 21104 0e15 6F707476 		.ascii	"optval\000"
 21104      616C00
 21105              	.LASF380:
 21106 0e1c 73656C65 		.ascii	"select_cb\000"
 21106      63745F63 
 21106      6200
 21107              	.LASF375:
 21108 0e26 6C776970 		.ascii	"lwip_write\000"
 21108      5F777269 
 21108      746500
 21109              	.LASF234:
 21110 0e31 73737468 		.ascii	"ssthresh\000"
 21110      72657368 
 21110      00
 21111              	.LASF134:
 21112 0e3a 66645F6D 		.ascii	"fd_mask\000"
 21112      61736B00 
 21113              	.LASF291:
 21114 0e42 6C617374 		.ascii	"lastdata\000"
 21114      64617461 
 21114      00
 21115              	.LASF177:
 21116 0e4b 706F7274 		.ascii	"port\000"
 21116      00
 21117              	.LASF422:
 21118 0e50 7379735F 		.ascii	"sys_sem_free\000"
 21118      73656D5F 
 21118      66726565 
 21118      00
 21119              	.LASF232:
 21120 0e5d 6C617374 		.ascii	"lastack\000"
 21120      61636B00 
 21121              	.LASF407:
 21122 0e65 6E657463 		.ascii	"netconn_bind\000"
 21122      6F6E6E5F 
ARM GAS  C:\Users\jo\AppData\Local\Temp\cc6wN9Ut.s 			page 385


 21122      62696E64 
 21122      00
 21123              	.LASF35:
 21124 0e72 705F7072 		.ascii	"p_prev\000"
 21124      657600
 21125              	.LASF179:
 21126 0e79 7379735F 		.ascii	"sys_mbox_t\000"
 21126      6D626F78 
 21126      5F7400
 21127              	.LASF293:
 21128 0e84 72637665 		.ascii	"rcvevent\000"
 21128      76656E74 
 21128      00
 21129              	.LASF163:
 21130 0e8d 73615F66 		.ascii	"sa_family\000"
 21130      616D696C 
 21130      7900
 21131              	.LASF13:
 21132 0e97 6C6F6E67 		.ascii	"long unsigned int\000"
 21132      20756E73 
 21132      69676E65 
 21132      6420696E 
 21132      7400
 21133              	.LASF58:
 21134 0ea9 72656164 		.ascii	"ready_list_t\000"
 21134      795F6C69 
 21134      73745F74 
 21134      00
 21135              	.LASF412:
 21136 0eb6 70627566 		.ascii	"pbuf_copy_partial\000"
 21136      5F636F70 
 21136      795F7061 
 21136      72746961 
 21136      6C00
 21137              	.LASF386:
 21138 0ec8 6C776970 		.ascii	"lwip_getsockopt\000"
 21138      5F676574 
 21138      736F636B 
 21138      6F707400 
 21139              	.LASF362:
 21140 0ed8 6C776970 		.ascii	"lwip_read\000"
 21140      5F726561 
 21140      6400
 21141              	.LASF21:
 21142 0ee2 696E7433 		.ascii	"int32_t\000"
 21142      325F7400 
 21143              	.LASF88:
 21144 0eea 69646C65 		.ascii	"idle_thread_wa\000"
 21144      5F746872 
 21144      6561645F 
 21144      776100
 21145              	.LASF287:
 21146 0ef9 61706966 		.ascii	"apiflags\000"
 21146      6C616773 
 21146      00
 21147              	.LASF248:
 21148 0f02 72656675 		.ascii	"refused_data\000"
ARM GAS  C:\Users\jo\AppData\Local\Temp\cc6wN9Ut.s 			page 386


 21148      7365645F 
 21148      64617461 
 21148      00
 21149              	.LASF415:
 21150 0f0f 6E657463 		.ascii	"netconn_recv_tcp_pbuf\000"
 21150      6F6E6E5F 
 21150      72656376 
 21150      5F746370 
 21150      5F706275 
 21151              	.LASF308:
 21152 0f25 6F70746C 		.ascii	"optlen\000"
 21152      656E00
 21153              	.LASF109:
 21154 0f2c 77747365 		.ascii	"wtsemp\000"
 21154      6D7000
 21155              	.LASF152:
 21156 0f33 69705F61 		.ascii	"ip_addr_t\000"
 21156      6464725F 
 21156      7400
 21157              	.LASF193:
 21158 0f3d 6E657463 		.ascii	"netconn_evt\000"
 21158      6F6E6E5F 
 21158      65767400 
 21159              	.LASF410:
 21160 0f49 6E657463 		.ascii	"netconn_connect\000"
 21160      6F6E6E5F 
 21160      636F6E6E 
 21160      65637400 
 21161              	.LASF199:
 21162 0f59 6E657463 		.ascii	"netconn_callback\000"
 21162      6F6E6E5F 
 21162      63616C6C 
 21162      6261636B 
 21162      00
 21163              	.LASF391:
 21164 0f6a 736F636B 		.ascii	"sockets\000"
 21164      65747300 
 21165              	.LASF98:
 21166 0f72 63685F73 		.ascii	"ch_swc_event_t\000"
 21166      77635F65 
 21166      76656E74 
 21166      5F7400
 21167              	.LASF153:
 21168 0f81 696E5F61 		.ascii	"in_addr\000"
 21168      64647200 
 21169              	.LASF121:
 21170 0f89 6D757465 		.ascii	"mutex_t\000"
 21170      785F7400 
 21171              	.LASF378:
 21172 0f91 77616974 		.ascii	"waitres\000"
 21172      72657300 
 21173              	.LASF174:
 21174 0f99 74797065 		.ascii	"type\000"
 21174      00
 21175              	.LASF294:
 21176 0f9e 73656E64 		.ascii	"sendevent\000"
 21176      6576656E 
ARM GAS  C:\Users\jo\AppData\Local\Temp\cc6wN9Ut.s 			page 387


 21176      7400
 21177              	.LASF5:
 21178 0fa8 756E7369 		.ascii	"unsigned char\000"
 21178      676E6564 
 21178      20636861 
 21178      7200
 21179              	.LASF185:
 21180 0fb6 4E455443 		.ascii	"NETCONN_RAW\000"
 21180      4F4E4E5F 
 21180      52415700 
 21181              	.LASF274:
 21182 0fc2 46494E5F 		.ascii	"FIN_WAIT_1\000"
 21182      57414954 
 21182      5F3100
 21183              	.LASF275:
 21184 0fcd 46494E5F 		.ascii	"FIN_WAIT_2\000"
 21184      57414954 
 21184      5F3200
 21185              	.LASF246:
 21186 0fd8 756E6163 		.ascii	"unacked\000"
 21186      6B656400 
 21187              	.LASF74:
 21188 0fe0 76697274 		.ascii	"virtual_timers_list_t\000"
 21188      75616C5F 
 21188      74696D65 
 21188      72735F6C 
 21188      6973745F 
 21189              	.LASF44:
 21190 0ff6 705F7265 		.ascii	"p_refs\000"
 21190      667300
 21191              	.LASF52:
 21192 0ffd 74687265 		.ascii	"thread_reference_t\000"
 21192      61645F72 
 21192      65666572 
 21192      656E6365 
 21192      5F7400
 21193              	.LASF210:
 21194 1010 69705F70 		.ascii	"ip_pcb\000"
 21194      636200
 21195              	.LASF181:
 21196 1017 4E455443 		.ascii	"NETCONN_TCP\000"
 21196      4F4E4E5F 
 21196      54435000 
 21197              	.LASF377:
 21198 1023 74696D65 		.ascii	"timeout\000"
 21198      6F757400 
 21199              	.LASF170:
 21200 102b 70627566 		.ascii	"pbuf\000"
 21200      00
 21201              	.LASF288:
 21202 1030 73687574 		.ascii	"shut\000"
 21202      00
 21203              	.LASF254:
 21204 1035 6B656570 		.ascii	"keep_idle\000"
 21204      5F69646C 
 21204      6500
 21205              	.LASF190:
ARM GAS  C:\Users\jo\AppData\Local\Temp\cc6wN9Ut.s 			page 388


 21206 103f 4E455443 		.ascii	"NETCONN_LISTEN\000"
 21206      4F4E4E5F 
 21206      4C495354 
 21206      454E00
 21207              	.LASF215:
 21208 104e 63616C6C 		.ascii	"callback_arg\000"
 21208      6261636B 
 21208      5F617267 
 21208      00
 21209              	.LASF361:
 21210 105b 66726F6D 		.ascii	"fromaddr\000"
 21210      61646472 
 21210      00
 21211              	.LASF270:
 21212 1064 4C495354 		.ascii	"LISTEN\000"
 21212      454E00
 21213              	.LASF327:
 21214 106b 77726974 		.ascii	"writeset_in\000"
 21214      65736574 
 21214      5F696E00 
 21215              	.LASF76:
 21216 1077 76745F6C 		.ascii	"vt_lasttime\000"
 21216      61737474 
 21216      696D6500 
 21217              	.LASF207:
 21218 1083 77726974 		.ascii	"write_offset\000"
 21218      655F6F66 
 21218      66736574 
 21218      00
 21219              	.LASF151:
 21220 1090 61646472 		.ascii	"addr\000"
 21220      00
 21221              	.LASF381:
 21222 1095 6C776970 		.ascii	"lwip_shutdown\000"
 21222      5F736875 
 21222      74646F77 
 21222      6E00
 21223              	.LASF201:
 21224 10a3 73746174 		.ascii	"state\000"
 21224      6500
 21225              	.LASF305:
 21226 10a9 6C657665 		.ascii	"level\000"
 21226      6C00
 21227              	.LASF401:
 21228 10af 63685379 		.ascii	"chSysHalt\000"
 21228      7348616C 
 21228      7400
 21229              	.LASF209:
 21230 10b9 63616C6C 		.ascii	"callback\000"
 21230      6261636B 
 21230      00
 21231              	.LASF69:
 21232 10c2 76745F6E 		.ascii	"vt_next\000"
 21232      65787400 
 21233              	.LASF243:
 21234 10ca 736E645F 		.ascii	"snd_queuelen\000"
 21234      71756575 
ARM GAS  C:\Users\jo\AppData\Local\Temp\cc6wN9Ut.s 			page 389


 21234      656C656E 
 21234      00
 21235              	.LASF83:
 21236 10d7 63685F73 		.ascii	"ch_system_t\000"
 21236      79737465 
 21236      6D5F7400 
 21237              	.LASF411:
 21238 10e3 6E657463 		.ascii	"netconn_listen_with_backlog\000"
 21238      6F6E6E5F 
 21238      6C697374 
 21238      656E5F77 
 21238      6974685F 
 21239              	.LASF108:
 21240 10ff 77747472 		.ascii	"wttrp\000"
 21240      7000
 21241              	.LASF392:
 21242 1105 73656C65 		.ascii	"select_cb_list\000"
 21242      63745F63 
 21242      625F6C69 
 21242      737400
 21243              	.LASF140:
 21244 1114 5F5F7661 		.ascii	"__va_list\000"
 21244      5F6C6973 
 21244      7400
 21245              	.LASF250:
 21246 111e 72656376 		.ascii	"recv\000"
 21246      00
 21247              	.LASF102:
 21248 1123 63685F74 		.ascii	"ch_trace_buffer_t\000"
 21248      72616365 
 21248      5F627566 
 21248      6665725F 
 21248      7400
 21249              	.LASF118:
 21250 1135 6D5F6E65 		.ascii	"m_next\000"
 21250      787400
 21251              	.LASF314:
 21252 113c 6E657763 		.ascii	"newconn\000"
 21252      6F6E6E00 
 21253              	.LASF253:
 21254 1144 65727266 		.ascii	"errf\000"
 21254      00
 21255              	.LASF393:
 21256 1149 73656C65 		.ascii	"select_cb_ctr\000"
 21256      63745F63 
 21256      625F6374 
 21256      7200
 21257              	.LASF297:
 21258 1157 6C776970 		.ascii	"lwip_select_cb\000"
 21258      5F73656C 
 21258      6563745F 
 21258      636200
 21259              	.LASF340:
 21260 1166 61646472 		.ascii	"addrlen\000"
 21260      6C656E00 
 21261              	.LASF320:
 21262 116e 6E616464 		.ascii	"naddr\000"
ARM GAS  C:\Users\jo\AppData\Local\Temp\cc6wN9Ut.s 			page 390


 21262      7200
 21263              	.LASF331:
 21264 1174 65786365 		.ascii	"exceptset_out\000"
 21264      70747365 
 21264      745F6F75 
 21264      7400
 21265              	.LASF425:
 21266 1182 74637069 		.ascii	"tcpip_callback_with_block\000"
 21266      705F6361 
 21266      6C6C6261 
 21266      636B5F77 
 21266      6974685F 
 21267              	.LASF214:
 21268 119c 7463705F 		.ascii	"tcp_pcb\000"
 21268      70636200 
 21269              	.LASF9:
 21270 11a4 73686F72 		.ascii	"short unsigned int\000"
 21270      7420756E 
 21270      7369676E 
 21270      65642069 
 21270      6E7400
 21271              	.LASF62:
 21272 11b7 725F6374 		.ascii	"r_ctx\000"
 21272      7800
 21273              	.LASF91:
 21274 11bd 73746B61 		.ascii	"stkalign_t\000"
 21274      6C69676E 
 21274      5F7400
 21275              	.LASF353:
 21276 11c8 6C776970 		.ascii	"lwip_listen\000"
 21276      5F6C6973 
 21276      74656E00 
 21277              	.LASF400:
 21278 11d4 6D656D63 		.ascii	"memcpy\000"
 21278      707900
 21279              	.LASF336:
 21280 11db 5F5F746D 		.ascii	"__tmp\000"
 21280      7000
 21281              	.LASF371:
 21282 11e1 77726974 		.ascii	"written\000"
 21282      74656E00 
 21283              	.LASF130:
 21284 11e9 77726974 		.ascii	"write\000"
 21284      6500
 21285              	.LASF46:
 21286 11ef 705F6D73 		.ascii	"p_msgqueue\000"
 21286      67717565 
 21286      756500
 21287              	.LASF183:
 21288 11fa 4E455443 		.ascii	"NETCONN_UDPLITE\000"
 21288      4F4E4E5F 
 21288      5544504C 
 21288      49544500 
 21289              	.LASF255:
 21290 120a 70657273 		.ascii	"persist_cnt\000"
 21290      6973745F 
 21290      636E7400 
ARM GAS  C:\Users\jo\AppData\Local\Temp\cc6wN9Ut.s 			page 391


 21291              	.LASF212:
 21292 1216 72656D6F 		.ascii	"remote_ip\000"
 21292      74655F69 
 21292      7000
 21293              	.LASF292:
 21294 1220 6C617374 		.ascii	"lastoffset\000"
 21294      6F666673 
 21294      657400
 21295              	.LASF72:
 21296 122b 76745F66 		.ascii	"vt_func\000"
 21296      756E6300 
 21297              	.LASF203:
 21298 1233 6F705F63 		.ascii	"op_completed\000"
 21298      6F6D706C 
 21298      65746564 
 21298      00
 21299              	.LASF306:
 21300 1240 6F70746E 		.ascii	"optname\000"
 21300      616D6500 
 21301              	.LASF317:
 21302 1248 6C776970 		.ascii	"lwip_getaddrname\000"
 21302      5F676574 
 21302      61646472 
 21302      6E616D65 
 21302      00
 21303              	.LASF70:
 21304 1259 76745F70 		.ascii	"vt_prev\000"
 21304      72657600 
 21305              	.LASF313:
 21306 1261 666F726D 		.ascii	"formatted_bytes\000"
 21306      61747465 
 21306      645F6279 
 21306      74657300 
 21307              	.LASF363:
 21308 1271 6C776970 		.ascii	"lwip_recv\000"
 21308      5F726563 
 21308      7600
 21309              	.LASF258:
 21310 127b 7564705F 		.ascii	"udp_pcb\000"
 21310      70636200 
 21311              	.LASF200:
 21312 1283 6E657463 		.ascii	"netconn\000"
 21312      6F6E6E00 
 21313              	.LASF189:
 21314 128b 4E455443 		.ascii	"NETCONN_WRITE\000"
 21314      4F4E4E5F 
 21314      57524954 
 21314      4500
 21315              	.LASF300:
 21316 1299 77726974 		.ascii	"writeset\000"
 21316      65736574 
 21316      00
 21317              	.LASF343:
 21318 12a2 6C776970 		.ascii	"lwip_accept\000"
 21318      5F616363 
 21318      65707400 
 21319              	.LASF242:
ARM GAS  C:\Users\jo\AppData\Local\Temp\cc6wN9Ut.s 			page 392


 21320 12ae 736E645F 		.ascii	"snd_buf\000"
 21320      62756600 
 21321              	.LASF382:
 21322 12b6 73687574 		.ascii	"shut_rx\000"
 21322      5F727800 
 21323              	.LASF165:
 21324 12be 736F636B 		.ascii	"socklen_t\000"
 21324      6C656E5F 
 21324      7400
 21325              	.LASF110:
 21326 12c8 77746D74 		.ascii	"wtmtxp\000"
 21326      787000
 21327              	.LASF230:
 21328 12cf 6E727478 		.ascii	"nrtx\000"
 21328      00
 21329              	.LASF106:
 21330 12d4 65786974 		.ascii	"exitcode\000"
 21330      636F6465 
 21330      00
 21331              	.LASF272:
 21332 12dd 53594E5F 		.ascii	"SYN_RCVD\000"
 21332      52435644 
 21332      00
 21333              	.LASF310:
 21334 12e6 6765745F 		.ascii	"get_socket\000"
 21334      736F636B 
 21334      657400
 21335              	.LASF150:
 21336 12f1 69705F61 		.ascii	"ip_addr\000"
 21336      64647200 
 21337              	.LASF396:
 21338 12f9 69746D5F 		.ascii	"itm_port\000"
 21338      706F7274 
 21338      00
 21339              	.LASF335:
 21340 1302 6C657863 		.ascii	"lexceptset\000"
 21340      65707473 
 21340      657400
 21341              		.ident	"GCC: (GNU Tools for ARM Embedded Processors) 4.9.3 20141119 (release) [ARM/embedded-4_9-br
ARM GAS  C:\Users\jo\AppData\Local\Temp\cc6wN9Ut.s 			page 393


DEFINED SYMBOLS
                            *ABS*:00000000 sockets.c
C:\Users\jo\AppData\Local\Temp\cc6wN9Ut.s:19     .text.alloc_socket:00000000 $t
C:\Users\jo\AppData\Local\Temp\cc6wN9Ut.s:24     .text.alloc_socket:00000000 alloc_socket
C:\Users\jo\AppData\Local\Temp\cc6wN9Ut.s:118    .text.alloc_socket:00000050 $d
C:\Users\jo\AppData\Local\Temp\cc6wN9Ut.s:123    .text.lwip_getaddrname:00000000 $t
C:\Users\jo\AppData\Local\Temp\cc6wN9Ut.s:128    .text.lwip_getaddrname:00000000 lwip_getaddrname
C:\Users\jo\AppData\Local\Temp\cc6wN9Ut.s:256    .text.lwip_getaddrname:00000094 $d
C:\Users\jo\AppData\Local\Temp\cc6wN9Ut.s:261    .text.chprintf.constprop.0:00000000 $t
C:\Users\jo\AppData\Local\Temp\cc6wN9Ut.s:266    .text.chprintf.constprop.0:00000000 chprintf.constprop.0
C:\Users\jo\AppData\Local\Temp\cc6wN9Ut.s:312    .text.chprintf.constprop.0:00000020 $d
C:\Users\jo\AppData\Local\Temp\cc6wN9Ut.s:318    .text.lwip_setsockopt_internal:00000000 $t
C:\Users\jo\AppData\Local\Temp\cc6wN9Ut.s:323    .text.lwip_setsockopt_internal:00000000 lwip_setsockopt_internal
C:\Users\jo\AppData\Local\Temp\cc6wN9Ut.s:639    .text.lwip_setsockopt_internal:00000168 $d
C:\Users\jo\AppData\Local\Temp\cc6wN9Ut.s:649    .text.lwip_getsockopt_internal:00000000 $t
C:\Users\jo\AppData\Local\Temp\cc6wN9Ut.s:654    .text.lwip_getsockopt_internal:00000000 lwip_getsockopt_internal
C:\Users\jo\AppData\Local\Temp\cc6wN9Ut.s:1010   .text.lwip_getsockopt_internal:00000188 $d
C:\Users\jo\AppData\Local\Temp\cc6wN9Ut.s:1021   .text.lwip_selscan:00000000 $t
C:\Users\jo\AppData\Local\Temp\cc6wN9Ut.s:1026   .text.lwip_selscan:00000000 lwip_selscan
C:\Users\jo\AppData\Local\Temp\cc6wN9Ut.s:1269   .text.lwip_selscan:00000148 $d
C:\Users\jo\AppData\Local\Temp\cc6wN9Ut.s:1275   .text.event_callback:00000000 $t
C:\Users\jo\AppData\Local\Temp\cc6wN9Ut.s:1280   .text.event_callback:00000000 event_callback
C:\Users\jo\AppData\Local\Temp\cc6wN9Ut.s:1345   .text.event_callback:00000034 $d
C:\Users\jo\AppData\Local\Temp\cc6wN9Ut.s:1557   .text.event_callback:0000012c $d
C:\Users\jo\AppData\Local\Temp\cc6wN9Ut.s:1568   .text.lwip_socket_init:00000000 $t
C:\Users\jo\AppData\Local\Temp\cc6wN9Ut.s:1574   .text.lwip_socket_init:00000000 lwip_socket_init
C:\Users\jo\AppData\Local\Temp\cc6wN9Ut.s:1586   .text.lwip_accept:00000000 $t
C:\Users\jo\AppData\Local\Temp\cc6wN9Ut.s:1592   .text.lwip_accept:00000000 lwip_accept
C:\Users\jo\AppData\Local\Temp\cc6wN9Ut.s:1971   .text.lwip_accept:000001d0 $d
C:\Users\jo\AppData\Local\Temp\cc6wN9Ut.s:1985   .text.lwip_bind:00000000 $t
C:\Users\jo\AppData\Local\Temp\cc6wN9Ut.s:1991   .text.lwip_bind:00000000 lwip_bind
C:\Users\jo\AppData\Local\Temp\cc6wN9Ut.s:2152   .text.lwip_bind:000000ac $d
C:\Users\jo\AppData\Local\Temp\cc6wN9Ut.s:2162   .text.lwip_close:00000000 $t
C:\Users\jo\AppData\Local\Temp\cc6wN9Ut.s:2168   .text.lwip_close:00000000 lwip_close
C:\Users\jo\AppData\Local\Temp\cc6wN9Ut.s:2273   .text.lwip_close:0000005c $d
C:\Users\jo\AppData\Local\Temp\cc6wN9Ut.s:2278   .text.lwip_connect:00000000 $t
C:\Users\jo\AppData\Local\Temp\cc6wN9Ut.s:2284   .text.lwip_connect:00000000 lwip_connect
C:\Users\jo\AppData\Local\Temp\cc6wN9Ut.s:2447   .text.lwip_connect:000000ac $d
C:\Users\jo\AppData\Local\Temp\cc6wN9Ut.s:2457   .text.lwip_listen:00000000 $t
C:\Users\jo\AppData\Local\Temp\cc6wN9Ut.s:2463   .text.lwip_listen:00000000 lwip_listen
C:\Users\jo\AppData\Local\Temp\cc6wN9Ut.s:2576   .text.lwip_listen:00000078 $d
C:\Users\jo\AppData\Local\Temp\cc6wN9Ut.s:2582   .text.lwip_recvfrom:00000000 $t
C:\Users\jo\AppData\Local\Temp\cc6wN9Ut.s:2588   .text.lwip_recvfrom:00000000 lwip_recvfrom
C:\Users\jo\AppData\Local\Temp\cc6wN9Ut.s:3143   .text.lwip_recvfrom:000002c4 $d
C:\Users\jo\AppData\Local\Temp\cc6wN9Ut.s:3154   .text.lwip_read:00000000 $t
C:\Users\jo\AppData\Local\Temp\cc6wN9Ut.s:3160   .text.lwip_read:00000000 lwip_read
C:\Users\jo\AppData\Local\Temp\cc6wN9Ut.s:3187   .text.lwip_recv:00000000 $t
C:\Users\jo\AppData\Local\Temp\cc6wN9Ut.s:3193   .text.lwip_recv:00000000 lwip_recv
C:\Users\jo\AppData\Local\Temp\cc6wN9Ut.s:3221   .text.lwip_sendto:00000000 $t
C:\Users\jo\AppData\Local\Temp\cc6wN9Ut.s:3227   .text.lwip_sendto:00000000 lwip_sendto
C:\Users\jo\AppData\Local\Temp\cc6wN9Ut.s:3499   .text.lwip_send:00000000 lwip_send
C:\Users\jo\AppData\Local\Temp\cc6wN9Ut.s:3482   .text.lwip_sendto:00000128 $d
C:\Users\jo\AppData\Local\Temp\cc6wN9Ut.s:3493   .text.lwip_send:00000000 $t
C:\Users\jo\AppData\Local\Temp\cc6wN9Ut.s:3628   .text.lwip_send:00000090 $d
C:\Users\jo\AppData\Local\Temp\cc6wN9Ut.s:3634   .text.lwip_socket:00000000 $t
C:\Users\jo\AppData\Local\Temp\cc6wN9Ut.s:3640   .text.lwip_socket:00000000 lwip_socket
C:\Users\jo\AppData\Local\Temp\cc6wN9Ut.s:3755   .text.lwip_socket:00000074 $d
ARM GAS  C:\Users\jo\AppData\Local\Temp\cc6wN9Ut.s 			page 394


C:\Users\jo\AppData\Local\Temp\cc6wN9Ut.s:3760   .text.lwip_write:00000000 $t
C:\Users\jo\AppData\Local\Temp\cc6wN9Ut.s:3766   .text.lwip_write:00000000 lwip_write
C:\Users\jo\AppData\Local\Temp\cc6wN9Ut.s:3782   .text.lwip_select:00000000 $t
C:\Users\jo\AppData\Local\Temp\cc6wN9Ut.s:3788   .text.lwip_select:00000000 lwip_select
C:\Users\jo\AppData\Local\Temp\cc6wN9Ut.s:4332   .text.lwip_select:000002e4 $d
C:\Users\jo\AppData\Local\Temp\cc6wN9Ut.s:4352   .text.lwip_select:00000310 $t
C:\Users\jo\AppData\Local\Temp\cc6wN9Ut.s:4400   .text.lwip_select:00000350 $d
C:\Users\jo\AppData\Local\Temp\cc6wN9Ut.s:4408   .text.lwip_shutdown:00000000 $t
C:\Users\jo\AppData\Local\Temp\cc6wN9Ut.s:4414   .text.lwip_shutdown:00000000 lwip_shutdown
C:\Users\jo\AppData\Local\Temp\cc6wN9Ut.s:4546   .text.lwip_shutdown:00000080 $d
C:\Users\jo\AppData\Local\Temp\cc6wN9Ut.s:4552   .text.lwip_getpeername:00000000 $t
C:\Users\jo\AppData\Local\Temp\cc6wN9Ut.s:4558   .text.lwip_getpeername:00000000 lwip_getpeername
C:\Users\jo\AppData\Local\Temp\cc6wN9Ut.s:4574   .text.lwip_getsockname:00000000 $t
C:\Users\jo\AppData\Local\Temp\cc6wN9Ut.s:4580   .text.lwip_getsockname:00000000 lwip_getsockname
C:\Users\jo\AppData\Local\Temp\cc6wN9Ut.s:4596   .text.lwip_getsockopt:00000000 $t
C:\Users\jo\AppData\Local\Temp\cc6wN9Ut.s:4602   .text.lwip_getsockopt:00000000 lwip_getsockopt
C:\Users\jo\AppData\Local\Temp\cc6wN9Ut.s:4856   .text.lwip_getsockopt:00000134 $d
C:\Users\jo\AppData\Local\Temp\cc6wN9Ut.s:4862   .text.lwip_setsockopt:00000000 $t
C:\Users\jo\AppData\Local\Temp\cc6wN9Ut.s:4868   .text.lwip_setsockopt:00000000 lwip_setsockopt
C:\Users\jo\AppData\Local\Temp\cc6wN9Ut.s:5113   .text.lwip_setsockopt:0000010c $d
C:\Users\jo\AppData\Local\Temp\cc6wN9Ut.s:5119   .text.lwip_ioctl:00000000 $t
C:\Users\jo\AppData\Local\Temp\cc6wN9Ut.s:5125   .text.lwip_ioctl:00000000 lwip_ioctl
C:\Users\jo\AppData\Local\Temp\cc6wN9Ut.s:5232   .text.lwip_ioctl:00000058 $d
C:\Users\jo\AppData\Local\Temp\cc6wN9Ut.s:5238   .text.lwip_fcntl:00000000 $t
C:\Users\jo\AppData\Local\Temp\cc6wN9Ut.s:5244   .text.lwip_fcntl:00000000 lwip_fcntl
C:\Users\jo\AppData\Local\Temp\cc6wN9Ut.s:5314   .text.lwip_fcntl:00000044 $d
C:\Users\jo\AppData\Local\Temp\cc6wN9Ut.s:5319   .rodata.err_to_errno_table:00000000 $d
C:\Users\jo\AppData\Local\Temp\cc6wN9Ut.s:5323   .rodata.err_to_errno_table:00000000 err_to_errno_table
C:\Users\jo\AppData\Local\Temp\cc6wN9Ut.s:5341   .bss.select_cb_list:00000000 $d
C:\Users\jo\AppData\Local\Temp\cc6wN9Ut.s:5345   .bss.select_cb_list:00000000 select_cb_list
C:\Users\jo\AppData\Local\Temp\cc6wN9Ut.s:5348   .bss.sockets:00000000 $d
C:\Users\jo\AppData\Local\Temp\cc6wN9Ut.s:5352   .bss.sockets:00000000 sockets
C:\Users\jo\AppData\Local\Temp\cc6wN9Ut.s:5355   .bss.select_cb_ctr:00000000 $d
C:\Users\jo\AppData\Local\Temp\cc6wN9Ut.s:5359   .bss.select_cb_ctr:00000000 select_cb_ctr
C:\Users\jo\AppData\Local\Temp\cc6wN9Ut.s:5362   .rodata.str1.4:00000000 $d
                     .debug_frame:00000010 $d
C:\Users\jo\AppData\Local\Temp\cc6wN9Ut.s:122    .text.alloc_socket:00000054 $t
C:\Users\jo\AppData\Local\Temp\cc6wN9Ut.s:260    .text.lwip_getaddrname:00000098 $t
C:\Users\jo\AppData\Local\Temp\cc6wN9Ut.s:317    .text.chprintf.constprop.0:00000028 $t
C:\Users\jo\AppData\Local\Temp\cc6wN9Ut.s:1020   .text.lwip_getsockopt_internal:000001a4 $t
C:\Users\jo\AppData\Local\Temp\cc6wN9Ut.s:1274   .text.lwip_selscan:0000014c $t
C:\Users\jo\AppData\Local\Temp\cc6wN9Ut.s:1567   .text.event_callback:00000148 $t
C:\Users\jo\AppData\Local\Temp\cc6wN9Ut.s:1984   .text.lwip_accept:000001f8 $t
C:\Users\jo\AppData\Local\Temp\cc6wN9Ut.s:2161   .text.lwip_bind:000000c4 $t
C:\Users\jo\AppData\Local\Temp\cc6wN9Ut.s:2456   .text.lwip_connect:000000c4 $t
C:\Users\jo\AppData\Local\Temp\cc6wN9Ut.s:21341  .text.lwip_sendto:00000144 $t
C:\Users\jo\AppData\Local\Temp\cc6wN9Ut.s:3633   .text.lwip_send:00000098 $t
C:\Users\jo\AppData\Local\Temp\cc6wN9Ut.s:3759   .text.lwip_socket:00000078 $t
C:\Users\jo\AppData\Local\Temp\cc6wN9Ut.s:4551   .text.lwip_shutdown:00000088 $t
C:\Users\jo\AppData\Local\Temp\cc6wN9Ut.s:4861   .text.lwip_getsockopt:0000013c $t
C:\Users\jo\AppData\Local\Temp\cc6wN9Ut.s:5118   .text.lwip_setsockopt:00000114 $t
C:\Users\jo\AppData\Local\Temp\cc6wN9Ut.s:5318   .text.lwip_fcntl:00000048 $t
C:\Users\jo\AppData\Local\Temp\cc6wN9Ut.s:1350   .text.event_callback:00000039 $d
C:\Users\jo\AppData\Local\Temp\cc6wN9Ut.s:1350   .text.event_callback:0000003a $t

UNDEFINED SYMBOLS
netconn_getaddr
ARM GAS  C:\Users\jo\AppData\Local\Temp\cc6wN9Ut.s 			page 395


lwip_htons
memcpy
chvprintf
itm_port
chSysHalt
sys_sem_signal
sys_sem_signal_S
netconn_accept
netconn_delete
lwip_ntohs
netconn_bind
netbuf_delete
pbuf_free
netconn_connect
netconn_listen_with_backlog
pbuf_copy_partial
netconn_recved
netconn_recv
netconn_recv_tcp_pbuf
netbuf_ref
netbuf_free
netconn_send
netconn_write_partly
netconn_new_with_proto_and_callback
sys_sem_new
sys_sem_free
sys_arch_sem_wait
netconn_shutdown
tcpip_callback_with_block
