ARM GAS  C:\Users\jo\AppData\Local\Temp\ccgxU8bj.s 			page 1


   1              		.syntax unified
   2              		.cpu cortex-m4
   3              		.fpu softvfp
   4              		.eabi_attribute 20, 1
   5              		.eabi_attribute 21, 1
   6              		.eabi_attribute 23, 3
   7              		.eabi_attribute 24, 1
   8              		.eabi_attribute 25, 1
   9              		.eabi_attribute 26, 1
  10              		.eabi_attribute 30, 2
  11              		.eabi_attribute 34, 1
  12              		.eabi_attribute 18, 4
  13              		.thumb
  14              		.file	"ssl_srv.c"
  15              		.text
  16              	.Ltext0:
  17              		.cfi_sections	.debug_frame
  18              		.section	.text.ssl_parse_client_psk_identity,"ax",%progbits
  19              		.align	2
  20              		.p2align 4,,15
  21              		.thumb
  22              		.thumb_func
  23              		.type	ssl_parse_client_psk_identity, %function
  24              	ssl_parse_client_psk_identity:
  25              	.LFB51:
  26              		.file 1 "../../../ext/mbedtls-1.3.11/library/ssl_srv.c"
  27              		.loc 1 2968 0
  28              		.cfi_startproc
  29              		@ args = 0, pretend = 0, frame = 0
  30              		@ frame_needed = 0, uses_anonymous_args = 0
  31              	.LVL0:
  32 0000 2DE9F043 		push	{r4, r5, r6, r7, r8, r9, lr}
  33              		.cfi_def_cfa_offset 28
  34              		.cfi_offset 4, -28
  35              		.cfi_offset 5, -24
  36              		.cfi_offset 6, -20
  37              		.cfi_offset 7, -16
  38              		.cfi_offset 8, -12
  39              		.cfi_offset 9, -8
  40              		.cfi_offset 14, -4
  41              		.loc 1 2972 0
  42 0004 C36E     		ldr	r3, [r0, #108]
  43              		.loc 1 2968 0
  44 0006 85B0     		sub	sp, sp, #20
  45              		.cfi_def_cfa_offset 48
  46              		.loc 1 2968 0
  47 0008 0546     		mov	r5, r0
  48 000a 0E46     		mov	r6, r1
  49              		.loc 1 2972 0
  50 000c 002B     		cmp	r3, #0
  51 000e 50D0     		beq	.L32
  52              	.L2:
  53              		.loc 1 2983 0
  54 0010 3168     		ldr	r1, [r6]
  55              	.LVL1:
  56 0012 8B1C     		adds	r3, r1, #2
  57 0014 9342     		cmp	r3, r2
ARM GAS  C:\Users\jo\AppData\Local\Temp\ccgxU8bj.s 			page 2


  58 0016 73D8     		bhi	.L33
  59              		.loc 1 2989 0
  60 0018 4878     		ldrb	r0, [r1, #1]	@ zero_extendqisi2
  61              	.LVL2:
  62 001a 0C78     		ldrb	r4, [r1]	@ zero_extendqisi2
  63              		.loc 1 2990 0
  64 001c 3360     		str	r3, [r6]
  65              		.loc 1 2989 0
  66 001e 40EA0424 		orr	r4, r0, r4, lsl #8
  67              	.LVL3:
  68              		.loc 1 2992 0
  69 0022 671E     		subs	r7, r4, #1
  70 0024 4FF6FE70 		movw	r0, #65534
  71 0028 8742     		cmp	r7, r0
  72 002a 5CD8     		bhi	.L6
  73              		.loc 1 2992 0 is_stmt 0 discriminator 1
  74 002c 03EB040E 		add	lr, r3, r4
  75 0030 7245     		cmp	r2, lr
  76 0032 58D3     		bcc	.L6
  77              		.loc 1 2998 0 is_stmt 1
  78 0034 EF6E     		ldr	r7, [r5, #108]
  79 0036 1FB3     		cbz	r7, .L8
  80              		.loc 1 3000 0
  81 0038 1A46     		mov	r2, r3
  82              	.LVL4:
  83 003a 286F     		ldr	r0, [r5, #112]
  84 003c 2946     		mov	r1, r5
  85 003e 2346     		mov	r3, r4
  86 0040 B847     		blx	r7
  87              	.LVL5:
  88 0042 30B9     		cbnz	r0, .L9
  89 0044 3368     		ldr	r3, [r6]
  90 0046 1C44     		add	r4, r4, r3
  91              	.LVL6:
  92              	.L13:
  93              		.loc 1 3027 0
  94 0048 3460     		str	r4, [r6]
  95              		.loc 1 3029 0
  96 004a 0020     		movs	r0, #0
  97              	.L27:
  98              		.loc 1 3030 0
  99 004c 05B0     		add	sp, sp, #20
 100              		.cfi_remember_state
 101              		.cfi_def_cfa_offset 28
 102              		@ sp needed
 103 004e BDE8F083 		pop	{r4, r5, r6, r7, r8, r9, pc}
 104              	.LVL7:
 105              	.L9:
 106              		.cfi_restore_state
 107 0052 3368     		ldr	r3, [r6]
 108              	.L11:
 109              	.LVL8:
 110              		.loc 1 3016 0
 111 0054 314A     		ldr	r2, .L34
 112 0056 2846     		mov	r0, r5
 113 0058 8DE81C00 		stmia	sp, {r2, r3, r4}
 114 005c 0321     		movs	r1, #3
ARM GAS  C:\Users\jo\AppData\Local\Temp\ccgxU8bj.s 			page 3


 115 005e 40F6C833 		movw	r3, #3016
 116 0062 2F4A     		ldr	r2, .L34+4
 117 0064 FFF7FEFF 		bl	debug_print_buf
 118              	.LVL9:
 119              		.loc 1 3017 0
 120 0068 2846     		mov	r0, r5
 121 006a 0221     		movs	r1, #2
 122 006c 7322     		movs	r2, #115
 123 006e FFF7FEFF 		bl	ssl_send_alert_message
 124              	.LVL10:
 125 0072 2C4B     		ldr	r3, .L34+8
 126 0074 0028     		cmp	r0, #0
 127 0076 08BF     		it	eq
 128 0078 1846     		moveq	r0, r3
 129              	.LVL11:
 130              		.loc 1 3030 0
 131 007a 05B0     		add	sp, sp, #20
 132              		.cfi_remember_state
 133              		.cfi_def_cfa_offset 28
 134              		@ sp needed
 135 007c BDE8F083 		pop	{r4, r5, r6, r7, r8, r9, pc}
 136              	.LVL12:
 137              	.L8:
 138              		.cfi_restore_state
 139              		.loc 1 3007 0
 140 0080 D5F85CC1 		ldr	ip, [r5, #348]
 141 0084 A445     		cmp	ip, r4
 142 0086 E5D1     		bne	.L11
 143              	.LVL13:
 144 0088 D5F85801 		ldr	r0, [r5, #344]
 145              	.LBB34:
 146              	.LBB35:
 147              		.file 2 "../../../ext/mbedtls-1.3.11/library/../include/polarssl/ssl.h"
 148              		.loc 2 1996 0 discriminator 1
 149 008c 3A46     		mov	r2, r7
 150              	.LVL14:
 151 008e 0131     		adds	r1, r1, #1
 152 0090 00F1FF38 		add	r8, r0, #-1
 153              	.LVL15:
 154              	.L12:
 155              		.loc 2 1999 0
 156 0094 11F8019F 		ldrb	r9, [r1, #1]!	@ zero_extendqisi2
 157 0098 18F8010F 		ldrb	r0, [r8, #1]!	@ zero_extendqisi2
 158              		.loc 2 1998 0
 159 009c 0137     		adds	r7, r7, #1
 160              	.LVL16:
 161              		.loc 2 1999 0
 162 009e 89EA0000 		eor	r0, r9, r0
 163 00a2 0243     		orrs	r2, r2, r0
 164              	.LVL17:
 165              		.loc 2 1998 0
 166 00a4 BC45     		cmp	ip, r7
 167              		.loc 2 1999 0
 168 00a6 D2B2     		uxtb	r2, r2
 169              	.LVL18:
 170              		.loc 2 1998 0
 171 00a8 F4D8     		bhi	.L12
ARM GAS  C:\Users\jo\AppData\Local\Temp\ccgxU8bj.s 			page 4


 172              	.LBE35:
 173              	.LBE34:
 174              		.loc 1 3007 0
 175 00aa 002A     		cmp	r2, #0
 176 00ac D2D1     		bne	.L11
 177 00ae 7446     		mov	r4, lr
 178              	.LVL19:
 179 00b0 CAE7     		b	.L13
 180              	.LVL20:
 181              	.L32:
 182              		.loc 1 2972 0 discriminator 1
 183 00b2 D0F85031 		ldr	r3, [r0, #336]
 184 00b6 4BB1     		cbz	r3, .L3
 185              		.loc 1 2973 0
 186 00b8 D0F85831 		ldr	r3, [r0, #344]
 187 00bc 33B1     		cbz	r3, .L3
 188              		.loc 1 2973 0 is_stmt 0 discriminator 1
 189 00be D0F85C31 		ldr	r3, [r0, #348]
 190 00c2 1BB1     		cbz	r3, .L3
 191              		.loc 1 2974 0 is_stmt 1
 192 00c4 D0F85431 		ldr	r3, [r0, #340]
 193 00c8 002B     		cmp	r3, #0
 194 00ca A1D1     		bne	.L2
 195              	.L3:
 196              		.loc 1 2976 0
 197 00cc 1648     		ldr	r0, .L34+12
 198              	.LVL21:
 199 00ce FFF7FEFF 		bl	debug_fmt
 200              	.LVL22:
 201 00d2 0121     		movs	r1, #1
 202 00d4 0090     		str	r0, [sp]
 203 00d6 124A     		ldr	r2, .L34+4
 204 00d8 2846     		mov	r0, r5
 205 00da 4FF43A63 		mov	r3, #2976
 206 00de FFF7FEFF 		bl	debug_print_msg
 207              	.LVL23:
 208              		.loc 1 2977 0
 209 00e2 1248     		ldr	r0, .L34+16
 210 00e4 B2E7     		b	.L27
 211              	.LVL24:
 212              	.L6:
 213              		.loc 1 2994 0
 214 00e6 1248     		ldr	r0, .L34+20
 215 00e8 FFF7FEFF 		bl	debug_fmt
 216              	.LVL25:
 217 00ec 0121     		movs	r1, #1
 218 00ee 0090     		str	r0, [sp]
 219 00f0 0B4A     		ldr	r2, .L34+4
 220 00f2 2846     		mov	r0, r5
 221 00f4 40F6B233 		movw	r3, #2994
 222 00f8 FFF7FEFF 		bl	debug_print_msg
 223              	.LVL26:
 224              		.loc 1 2995 0
 225 00fc 0D48     		ldr	r0, .L34+24
 226 00fe A5E7     		b	.L27
 227              	.LVL27:
 228              	.L33:
ARM GAS  C:\Users\jo\AppData\Local\Temp\ccgxU8bj.s 			page 5


 229              		.loc 1 2985 0
 230 0100 0B48     		ldr	r0, .L34+20
 231              	.LVL28:
 232 0102 FFF7FEFF 		bl	debug_fmt
 233              	.LVL29:
 234 0106 0121     		movs	r1, #1
 235 0108 0090     		str	r0, [sp]
 236 010a 054A     		ldr	r2, .L34+4
 237 010c 2846     		mov	r0, r5
 238 010e 40F6A933 		movw	r3, #2985
 239 0112 FFF7FEFF 		bl	debug_print_msg
 240              	.LVL30:
 241              		.loc 1 2986 0
 242 0116 0748     		ldr	r0, .L34+24
 243 0118 98E7     		b	.L27
 244              	.L35:
 245 011a 00BF     		.align	2
 246              	.L34:
 247 011c 68000000 		.word	.LC3
 248 0120 18000000 		.word	.LC1
 249 0124 8093FFFF 		.word	-27776
 250 0128 00000000 		.word	.LC0
 251 012c 008AFFFF 		.word	-30208
 252 0130 48000000 		.word	.LC2
 253 0134 0084FFFF 		.word	-31744
 254              		.cfi_endproc
 255              	.LFE51:
 256              		.size	ssl_parse_client_psk_identity, .-ssl_parse_client_psk_identity
 257 0138 AFF30080 		.section	.text.ssl_ciphersuite_match,"ax",%progbits
 257      AFF30080 
 258              		.align	2
 259              		.p2align 4,,15
 260              		.thumb
 261              		.thumb_func
 262              		.type	ssl_ciphersuite_match, %function
 263              	ssl_ciphersuite_match:
 264              	.LFB33:
 265              		.loc 1 926 0
 266              		.cfi_startproc
 267              		@ args = 0, pretend = 0, frame = 8
 268              		@ frame_needed = 0, uses_anonymous_args = 0
 269              	.LVL31:
 270 0000 2DE9F047 		push	{r4, r5, r6, r7, r8, r9, r10, lr}
 271              		.cfi_def_cfa_offset 32
 272              		.cfi_offset 4, -32
 273              		.cfi_offset 5, -28
 274              		.cfi_offset 6, -24
 275              		.cfi_offset 7, -20
 276              		.cfi_offset 8, -16
 277              		.cfi_offset 9, -12
 278              		.cfi_offset 10, -8
 279              		.cfi_offset 14, -4
 280 0004 0446     		mov	r4, r0
 281 0006 84B0     		sub	sp, sp, #16
 282              		.cfi_def_cfa_offset 48
 283              		.loc 1 929 0
 284 0008 0846     		mov	r0, r1
ARM GAS  C:\Users\jo\AppData\Local\Temp\ccgxU8bj.s 			page 6


 285              	.LVL32:
 286              		.loc 1 926 0
 287 000a 9046     		mov	r8, r2
 288              		.loc 1 929 0
 289 000c FFF7FEFF 		bl	ssl_ciphersuite_from_id
 290              	.LVL33:
 291              		.loc 1 930 0
 292 0010 0646     		mov	r6, r0
 293 0012 0028     		cmp	r0, #0
 294 0014 00F02A81 		beq	.L106
 295              		.loc 1 936 0
 296 0018 7168     		ldr	r1, [r6, #4]
 297 001a A148     		ldr	r0, .L116
 298              	.LVL34:
 299 001c FFF7FEFF 		bl	debug_fmt
 300              	.LVL35:
 301 0020 A04A     		ldr	r2, .L116+4
 302 0022 0090     		str	r0, [sp]
 303 0024 4FF46A73 		mov	r3, #936
 304 0028 0321     		movs	r1, #3
 305 002a 2046     		mov	r0, r4
 306 002c FFF7FEFF 		bl	debug_print_msg
 307              	.LVL36:
 308              		.loc 1 938 0
 309 0030 2369     		ldr	r3, [r4, #16]
 310 0032 3269     		ldr	r2, [r6, #16]
 311 0034 9A42     		cmp	r2, r3
 312 0036 33DC     		bgt	.L39
 313              		.loc 1 938 0 is_stmt 0 discriminator 1
 314 0038 B269     		ldr	r2, [r6, #24]
 315 003a 9342     		cmp	r3, r2
 316 003c 30DC     		bgt	.L39
 317              		.loc 1 945 0 is_stmt 1
 318 003e 94F82630 		ldrb	r3, [r4, #38]	@ zero_extendqisi2
 319 0042 012B     		cmp	r3, #1
 320 0044 03D1     		bne	.L41
 321              		.loc 1 945 0 is_stmt 0 discriminator 1
 322 0046 337A     		ldrb	r3, [r6, #8]	@ zero_extendqisi2
 323 0048 2A2B     		cmp	r3, #42
 324 004a 00F00281 		beq	.L107
 325              	.L41:
 326              		.loc 1 953 0 is_stmt 1
 327 004e 3046     		mov	r0, r6
 328 0050 FFF7FEFF 		bl	ssl_ciphersuite_uses_ec
 329              	.LVL37:
 330 0054 50B1     		cbz	r0, .L42
 331              		.loc 1 954 0 discriminator 1
 332 0056 D4F88430 		ldr	r3, [r4, #132]
 333 005a D3F8BC31 		ldr	r3, [r3, #444]
 334              		.loc 1 953 0 discriminator 1
 335 005e 002B     		cmp	r3, #0
 336 0060 00F0CF80 		beq	.L43
 337              		.loc 1 954 0
 338 0064 1B68     		ldr	r3, [r3]
 339 0066 002B     		cmp	r3, #0
 340 0068 00F0CB80 		beq	.L43
 341              	.L42:
ARM GAS  C:\Users\jo\AppData\Local\Temp\ccgxU8bj.s 			page 7


 342              		.loc 1 966 0
 343 006c 3046     		mov	r0, r6
 344 006e FFF7FEFF 		bl	ssl_ciphersuite_uses_psk
 345              	.LVL38:
 346 0072 18B1     		cbz	r0, .L44
 347              		.loc 1 966 0 is_stmt 0 discriminator 1
 348 0074 E36E     		ldr	r3, [r4, #108]
 349 0076 002B     		cmp	r3, #0
 350 0078 00F0D080 		beq	.L108
 351              	.L44:
 352              	.LVL39:
 353              	.LBB40:
 354              	.LBB41:
 355              		.loc 1 831 0 is_stmt 1
 356 007c 3046     		mov	r0, r6
 357 007e FFF7FEFF 		bl	ssl_get_ciphersuite_sig_pk_alg
 358              	.LVL40:
 359              		.loc 1 835 0
 360 0082 D4F88430 		ldr	r3, [r4, #132]
 361 0086 D3F8C451 		ldr	r5, [r3, #452]
 362              		.loc 1 831 0
 363 008a 0746     		mov	r7, r0
 364              	.LVL41:
 365              		.loc 1 835 0
 366 008c BDB1     		cbz	r5, .L109
 367              	.LVL42:
 368              		.loc 1 841 0
 369 008e 0028     		cmp	r0, #0
 370 0090 40F0AB80 		bne	.L110
 371              	.L47:
 372              	.LBE41:
 373              	.LBE40:
 374              		.loc 1 992 0
 375 0094 C8F80060 		str	r6, [r8]
 376              		.loc 1 993 0
 377 0098 0020     		movs	r0, #0
 378              	.LVL43:
 379              	.L115:
 380              		.loc 1 994 0
 381 009a 04B0     		add	sp, sp, #16
 382              		.cfi_remember_state
 383              		.cfi_def_cfa_offset 32
 384              		@ sp needed
 385 009c BDE8F087 		pop	{r4, r5, r6, r7, r8, r9, r10, pc}
 386              	.LVL44:
 387              	.L39:
 388              		.cfi_restore_state
 389              		.loc 1 941 0
 390 00a0 8148     		ldr	r0, .L116+8
 391 00a2 FFF7FEFF 		bl	debug_fmt
 392              	.LVL45:
 393 00a6 0321     		movs	r1, #3
 394 00a8 0090     		str	r0, [sp]
 395 00aa 7E4A     		ldr	r2, .L116+4
 396 00ac 2046     		mov	r0, r4
 397 00ae 40F2AD33 		movw	r3, #941
 398 00b2 FFF7FEFF 		bl	debug_print_msg
ARM GAS  C:\Users\jo\AppData\Local\Temp\ccgxU8bj.s 			page 8


 399              	.LVL46:
 400              		.loc 1 942 0
 401 00b6 0020     		movs	r0, #0
 402              	.L101:
 403              		.loc 1 994 0
 404 00b8 04B0     		add	sp, sp, #16
 405              		.cfi_remember_state
 406              		.cfi_def_cfa_offset 32
 407              		@ sp needed
 408 00ba BDE8F087 		pop	{r4, r5, r6, r7, r8, r9, r10, pc}
 409              	.LVL47:
 410              	.L109:
 411              		.cfi_restore_state
 412              	.LBB47:
 413              	.LBB44:
 414              		.loc 1 839 0
 415 00be D3F8C051 		ldr	r5, [r3, #448]
 416              	.LVL48:
 417              		.loc 1 841 0
 418 00c2 0028     		cmp	r0, #0
 419 00c4 E6D0     		beq	.L47
 420              		.loc 1 844 0
 421 00c6 7948     		ldr	r0, .L116+12
 422              	.LVL49:
 423 00c8 FFF7FEFF 		bl	debug_fmt
 424              	.LVL50:
 425 00cc 0321     		movs	r1, #3
 426 00ce 0090     		str	r0, [sp]
 427 00d0 744A     		ldr	r2, .L116+4
 428 00d2 2046     		mov	r0, r4
 429 00d4 4FF45373 		mov	r3, #844
 430 00d8 FFF7FEFF 		bl	debug_print_msg
 431              	.LVL51:
 432              		.loc 1 846 0
 433 00dc 002D     		cmp	r5, #0
 434 00de 00F0D280 		beq	.L48
 435              	.L62:
 436 00e2 DFF8F891 		ldr	r9, .L116+60
 437              	.LBE44:
 438              	.LBE47:
 439              		.loc 1 926 0
 440 00e6 4FF0000A 		mov	r10, #0
 441 00ea 0DE0     		b	.L60
 442              	.LVL52:
 443              	.L112:
 444              	.LBB48:
 445              	.LBB45:
 446              		.loc 1 853 0
 447 00ec 7048     		ldr	r0, .L116+16
 448 00ee FFF7FEFF 		bl	debug_fmt
 449              	.LVL53:
 450 00f2 0321     		movs	r1, #3
 451 00f4 0090     		str	r0, [sp]
 452 00f6 6B4A     		ldr	r2, .L116+4
 453 00f8 2046     		mov	r0, r4
 454 00fa 40F25533 		movw	r3, #853
 455 00fe FFF7FEFF 		bl	debug_print_msg
ARM GAS  C:\Users\jo\AppData\Local\Temp\ccgxU8bj.s 			page 9


 456              	.LVL54:
 457              	.L50:
 458              		.loc 1 846 0
 459 0102 ED68     		ldr	r5, [r5, #12]
 460              	.LVL55:
 461 0104 002D     		cmp	r5, #0
 462 0106 3DD0     		beq	.L111
 463              	.LVL56:
 464              	.L60:
 465              		.loc 1 848 0
 466 0108 CDF80090 		str	r9, [sp]
 467 010c 2B68     		ldr	r3, [r5]
 468 010e 0193     		str	r3, [sp, #4]
 469 0110 2046     		mov	r0, r4
 470 0112 0321     		movs	r1, #3
 471 0114 634A     		ldr	r2, .L116+4
 472 0116 40F25133 		movw	r3, #849
 473 011a FFF7FEFF 		bl	debug_print_crt
 474              	.LVL57:
 475              		.loc 1 851 0
 476 011e 6868     		ldr	r0, [r5, #4]
 477 0120 3946     		mov	r1, r7
 478 0122 FFF7FEFF 		bl	pk_can_do
 479              	.LVL58:
 480 0126 0028     		cmp	r0, #0
 481 0128 E0D0     		beq	.L112
 482              		.loc 1 865 0
 483 012a 2868     		ldr	r0, [r5]
 484 012c 3146     		mov	r1, r6
 485 012e 0122     		movs	r2, #1
 486 0130 03AB     		add	r3, sp, #12
 487 0132 FFF7FEFF 		bl	ssl_check_cert_usage
 488              	.LVL59:
 489 0136 C8B9     		cbnz	r0, .L113
 490              		.loc 1 874 0
 491 0138 042F     		cmp	r7, #4
 492 013a 3AD0     		beq	.L114
 493              	.L52:
 494              		.loc 1 887 0
 495 013c 2369     		ldr	r3, [r4, #16]
 496 013e 022B     		cmp	r3, #2
 497              		.loc 1 888 0
 498 0140 2B68     		ldr	r3, [r5]
 499              		.loc 1 887 0
 500 0142 24DC     		bgt	.L58
 501 0144 93F83421 		ldrb	r2, [r3, #308]	@ zero_extendqisi2
 502 0148 042A     		cmp	r2, #4
 503 014a 20D0     		beq	.L58
 504              		.loc 1 893 0
 505 014c 5948     		ldr	r0, .L116+20
 506 014e FFF7FEFF 		bl	debug_fmt
 507              	.LVL60:
 508 0152 0321     		movs	r1, #3
 509 0154 0090     		str	r0, [sp]
 510 0156 534A     		ldr	r2, .L116+4
 511 0158 2046     		mov	r0, r4
 512 015a 40F27E33 		movw	r3, #894
ARM GAS  C:\Users\jo\AppData\Local\Temp\ccgxU8bj.s 			page 10


 513              		.loc 1 890 0
 514 015e BAF1000F 		cmp	r10, #0
 515 0162 08BF     		it	eq
 516 0164 AA46     		moveq	r10, r5
 517              	.LVL61:
 518              		.loc 1 893 0
 519 0166 FFF7FEFF 		bl	debug_print_msg
 520              	.LVL62:
 521 016a CAE7     		b	.L50
 522              	.L113:
 523              		.loc 1 868 0
 524 016c 5248     		ldr	r0, .L116+24
 525 016e FFF7FEFF 		bl	debug_fmt
 526              	.LVL63:
 527 0172 0321     		movs	r1, #3
 528 0174 0090     		str	r0, [sp]
 529 0176 4B4A     		ldr	r2, .L116+4
 530 0178 2046     		mov	r0, r4
 531 017a 40F26533 		movw	r3, #869
 532 017e FFF7FEFF 		bl	debug_print_msg
 533              	.LVL64:
 534 0182 BEE7     		b	.L50
 535              	.L111:
 536              	.LVL65:
 537              		.loc 1 908 0
 538 0184 5546     		mov	r5, r10
 539 0186 002D     		cmp	r5, #0
 540 0188 7DD0     		beq	.L48
 541              	.LVL66:
 542 018a DAF80030 		ldr	r3, [r10]
 543              	.LVL67:
 544              	.L58:
 545              		.loc 1 910 0
 546 018e D4F88410 		ldr	r1, [r4, #132]
 547              		.loc 1 911 0
 548 0192 4A4A     		ldr	r2, .L116+28
 549              		.loc 1 910 0
 550 0194 C1F8C051 		str	r5, [r1, #448]
 551              		.loc 1 911 0
 552 0198 2046     		mov	r0, r4
 553 019a 8DE80C00 		stmia	sp, {r2, r3}
 554 019e 0321     		movs	r1, #3
 555 01a0 404A     		ldr	r2, .L116+4
 556 01a2 4FF46473 		mov	r3, #912
 557 01a6 FFF7FEFF 		bl	debug_print_crt
 558              	.LVL68:
 559              	.LBE45:
 560              	.LBE48:
 561              		.loc 1 992 0
 562 01aa C8F80060 		str	r6, [r8]
 563              		.loc 1 993 0
 564 01ae 0020     		movs	r0, #0
 565 01b0 73E7     		b	.L115
 566              	.L114:
 567              	.LBB49:
 568              	.LBB46:
 569              		.loc 1 875 0
ARM GAS  C:\Users\jo\AppData\Local\Temp\ccgxU8bj.s 			page 11


 570 01b2 D4F88420 		ldr	r2, [r4, #132]
 571 01b6 6B68     		ldr	r3, [r5, #4]
 572 01b8 D2F8BC21 		ldr	r2, [r2, #444]
 573              	.LVL69:
 574              	.LBB42:
 575              	.LBB43:
 576              		.loc 1 810 0
 577 01bc 5968     		ldr	r1, [r3, #4]
 578              		.loc 1 812 0
 579 01be 1368     		ldr	r3, [r2]
 580              	.LVL70:
 581              		.loc 1 810 0
 582 01c0 0978     		ldrb	r1, [r1]	@ zero_extendqisi2
 583              	.LVL71:
 584              		.loc 1 812 0
 585 01c2 33B1     		cbz	r3, .L53
 586              	.LVL72:
 587              	.L56:
 588              		.loc 1 814 0
 589 01c4 1B78     		ldrb	r3, [r3]	@ zero_extendqisi2
 590 01c6 8B42     		cmp	r3, r1
 591 01c8 B8D0     		beq	.L52
 592              	.LVL73:
 593              		.loc 1 812 0
 594 01ca 52F8043F 		ldr	r3, [r2, #4]!
 595              	.LVL74:
 596 01ce 002B     		cmp	r3, #0
 597 01d0 F8D1     		bne	.L56
 598              	.LVL75:
 599              	.L53:
 600              	.LBE43:
 601              	.LBE42:
 602              		.loc 1 877 0
 603 01d2 3B48     		ldr	r0, .L116+32
 604 01d4 FFF7FEFF 		bl	debug_fmt
 605              	.LVL76:
 606 01d8 0321     		movs	r1, #3
 607 01da 0090     		str	r0, [sp]
 608 01dc 314A     		ldr	r2, .L116+4
 609 01de 2046     		mov	r0, r4
 610 01e0 40F26D33 		movw	r3, #877
 611 01e4 FFF7FEFF 		bl	debug_print_msg
 612              	.LVL77:
 613 01e8 8BE7     		b	.L50
 614              	.LVL78:
 615              	.L110:
 616              		.loc 1 844 0
 617 01ea 3048     		ldr	r0, .L116+12
 618              	.LVL79:
 619 01ec FFF7FEFF 		bl	debug_fmt
 620              	.LVL80:
 621 01f0 0321     		movs	r1, #3
 622 01f2 0090     		str	r0, [sp]
 623 01f4 2B4A     		ldr	r2, .L116+4
 624 01f6 2046     		mov	r0, r4
 625 01f8 4FF45373 		mov	r3, #844
 626 01fc FFF7FEFF 		bl	debug_print_msg
ARM GAS  C:\Users\jo\AppData\Local\Temp\ccgxU8bj.s 			page 12


 627              	.LVL81:
 628 0200 6FE7     		b	.L62
 629              	.LVL82:
 630              	.L43:
 631              	.LBE46:
 632              	.LBE49:
 633              		.loc 1 957 0
 634 0202 3048     		ldr	r0, .L116+36
 635 0204 FFF7FEFF 		bl	debug_fmt
 636              	.LVL83:
 637 0208 0321     		movs	r1, #3
 638 020a 0090     		str	r0, [sp]
 639 020c 254A     		ldr	r2, .L116+4
 640 020e 2046     		mov	r0, r4
 641 0210 40F2BE33 		movw	r3, #958
 642 0214 FFF7FEFF 		bl	debug_print_msg
 643              	.LVL84:
 644              		.loc 1 959 0
 645 0218 0020     		movs	r0, #0
 646 021a 4DE7     		b	.L101
 647              	.L108:
 648              		.loc 1 967 0
 649 021c D4F85031 		ldr	r3, [r4, #336]
 650 0220 53B1     		cbz	r3, .L45
 651              		.loc 1 968 0
 652 0222 D4F85831 		ldr	r3, [r4, #344]
 653 0226 3BB1     		cbz	r3, .L45
 654              		.loc 1 968 0 is_stmt 0 discriminator 1
 655 0228 D4F85C31 		ldr	r3, [r4, #348]
 656 022c 23B1     		cbz	r3, .L45
 657              		.loc 1 969 0 is_stmt 1
 658 022e D4F85431 		ldr	r3, [r4, #340]
 659 0232 002B     		cmp	r3, #0
 660 0234 7FF422AF 		bne	.L44
 661              	.L45:
 662              		.loc 1 971 0
 663 0238 2348     		ldr	r0, .L116+40
 664 023a FFF7FEFF 		bl	debug_fmt
 665              	.LVL85:
 666 023e 0321     		movs	r1, #3
 667 0240 0090     		str	r0, [sp]
 668 0242 184A     		ldr	r2, .L116+4
 669 0244 2046     		mov	r0, r4
 670 0246 40F2CB33 		movw	r3, #971
 671 024a FFF7FEFF 		bl	debug_print_msg
 672              	.LVL86:
 673              		.loc 1 972 0
 674 024e 0020     		movs	r0, #0
 675 0250 32E7     		b	.L101
 676              	.L107:
 677              		.loc 1 948 0
 678 0252 1E48     		ldr	r0, .L116+44
 679 0254 FFF7FEFF 		bl	debug_fmt
 680              	.LVL87:
 681 0258 0321     		movs	r1, #3
 682 025a 0090     		str	r0, [sp]
 683 025c 114A     		ldr	r2, .L116+4
ARM GAS  C:\Users\jo\AppData\Local\Temp\ccgxU8bj.s 			page 13


 684 025e 2046     		mov	r0, r4
 685 0260 4FF46D73 		mov	r3, #948
 686 0264 FFF7FEFF 		bl	debug_print_msg
 687              	.LVL88:
 688              		.loc 1 949 0
 689 0268 0020     		movs	r0, #0
 690 026a 25E7     		b	.L101
 691              	.LVL89:
 692              	.L106:
 693              		.loc 1 932 0
 694 026c 1848     		ldr	r0, .L116+48
 695              	.LVL90:
 696 026e FFF7FEFF 		bl	debug_fmt
 697              	.LVL91:
 698 0272 0121     		movs	r1, #1
 699 0274 0090     		str	r0, [sp]
 700 0276 0B4A     		ldr	r2, .L116+4
 701 0278 2046     		mov	r0, r4
 702 027a 4FF46973 		mov	r3, #932
 703 027e FFF7FEFF 		bl	debug_print_msg
 704              	.LVL92:
 705              		.loc 1 933 0
 706 0282 1448     		ldr	r0, .L116+52
 707 0284 18E7     		b	.L101
 708              	.LVL93:
 709              	.L48:
 710              		.loc 1 986 0
 711 0286 1448     		ldr	r0, .L116+56
 712 0288 FFF7FEFF 		bl	debug_fmt
 713              	.LVL94:
 714 028c 0321     		movs	r1, #3
 715 028e 0090     		str	r0, [sp]
 716 0290 044A     		ldr	r2, .L116+4
 717 0292 2046     		mov	r0, r4
 718 0294 40F2DB33 		movw	r3, #987
 719 0298 FFF7FEFF 		bl	debug_print_msg
 720              	.LVL95:
 721              		.loc 1 988 0
 722 029c 0020     		movs	r0, #0
 723 029e 0BE7     		b	.L101
 724              	.L117:
 725              		.align	2
 726              	.L116:
 727 02a0 94000000 		.word	.LC5
 728 02a4 18000000 		.word	.LC1
 729 02a8 AC000000 		.word	.LC6
 730 02ac 40010000 		.word	.LC10
 731 02b0 90010000 		.word	.LC12
 732 02b4 E8010000 		.word	.LC14
 733 02b8 B0010000 		.word	.LC13
 734 02bc 24020000 		.word	.LC15
 735 02c0 4C020000 		.word	.LC16
 736 02c4 E8000000 		.word	.LC8
 737 02c8 18010000 		.word	.LC9
 738 02cc CC000000 		.word	.LC7
 739 02d0 80000000 		.word	.LC4
 740 02d4 0094FFFF 		.word	-27648
ARM GAS  C:\Users\jo\AppData\Local\Temp\ccgxU8bj.s 			page 14


 741 02d8 74020000 		.word	.LC17
 742 02dc 64010000 		.word	.LC11
 743              		.cfi_endproc
 744              	.LFE33:
 745              		.size	ssl_ciphersuite_match, .-ssl_ciphersuite_match
 746              		.section	.text.ssl_write_server_key_exchange,"ax",%progbits
 747              		.align	2
 748              		.p2align 4,,15
 749              		.thumb
 750              		.thumb_func
 751              		.type	ssl_write_server_key_exchange, %function
 752              	ssl_write_server_key_exchange:
 753              	.LFB47:
 754              		.loc 1 2467 0
 755              		.cfi_startproc
 756              		@ args = 0, pretend = 0, frame = 512
 757              		@ frame_needed = 0, uses_anonymous_args = 0
 758              	.LVL96:
 759 0000 2DE9F04F 		push	{r4, r5, r6, r7, r8, r9, r10, fp, lr}
 760              		.cfi_def_cfa_offset 36
 761              		.cfi_offset 4, -36
 762              		.cfi_offset 5, -32
 763              		.cfi_offset 6, -28
 764              		.cfi_offset 7, -24
 765              		.cfi_offset 8, -20
 766              		.cfi_offset 9, -16
 767              		.cfi_offset 10, -12
 768              		.cfi_offset 11, -8
 769              		.cfi_offset 14, -4
 770 0004 0446     		mov	r4, r0
 771 0006 ADF5057D 		sub	sp, sp, #532
 772              		.cfi_def_cfa_offset 568
 773              		.loc 1 2470 0
 774 000a D4F89430 		ldr	r3, [r4, #148]
 775              		.loc 1 2485 0
 776 000e B348     		ldr	r0, .L197
 777              	.LVL97:
 778              		.loc 1 2470 0
 779 0010 D3F80080 		ldr	r8, [r3]
 780              	.LVL98:
 781              		.loc 1 2478 0
 782 0014 D4F8D060 		ldr	r6, [r4, #208]
 783              	.LVL99:
 784              		.loc 1 2485 0
 785 0018 FFF7FEFF 		bl	debug_fmt
 786              	.LVL100:
 787 001c 0221     		movs	r1, #2
 788 001e 0090     		str	r0, [sp]
 789 0020 40F6B513 		movw	r3, #2485
 790 0024 AE4A     		ldr	r2, .L197+4
 791 0026 2046     		mov	r0, r4
 792 0028 FFF7FEFF 		bl	debug_print_msg
 793              	.LVL101:
 794              		.loc 1 2490 0
 795 002c 98F80A10 		ldrb	r1, [r8, #10]	@ zero_extendqisi2
 796 0030 01F0FB03 		and	r3, r1, #251
 797 0034 012B     		cmp	r3, #1
ARM GAS  C:\Users\jo\AppData\Local\Temp\ccgxU8bj.s 			page 15


 798 0036 00F0F980 		beq	.L119
 799              		.loc 1 2491 0
 800 003a 0729     		cmp	r1, #7
 801 003c 00F0F680 		beq	.L119
 802              		.loc 1 2502 0
 803 0040 A1F10903 		sub	r3, r1, #9
 804 0044 012B     		cmp	r3, #1
 805 0046 40F25D81 		bls	.L183
 806              		.loc 1 2515 0
 807 004a 0629     		cmp	r1, #6
 808              		.loc 1 2478 0
 809 004c 06F10407 		add	r7, r6, #4
 810              	.LVL102:
 811              		.loc 1 2515 0
 812 0050 00F08D80 		beq	.L127
 813              		.loc 1 2515 0 is_stmt 0 discriminator 1
 814 0054 0829     		cmp	r1, #8
 815 0056 00F08A80 		beq	.L127
 816              		.loc 1 2529 0 is_stmt 1
 817 005a 0229     		cmp	r1, #2
 818 005c 00F0B581 		beq	.L184
 819              		.loc 1 2571 0
 820 0060 CB1E     		subs	r3, r1, #3
 821 0062 012B     		cmp	r3, #1
 822 0064 40F22A81 		bls	.L161
 823              		.loc 1 2480 0
 824 0068 4FF0000A 		mov	r10, #0
 825              		.loc 1 2469 0
 826 006c D146     		mov	r9, r10
 827              		.loc 1 2478 0
 828 006e 3E46     		mov	r6, r7
 829              	.LVL103:
 830              	.L134:
 831              		.loc 1 2634 0
 832 0070 8B1E     		subs	r3, r1, #2
 833 0072 022B     		cmp	r3, #2
 834 0074 00F20181 		bhi	.L138
 835              	.LBB66:
 836              		.loc 1 2647 0
 837 0078 2369     		ldr	r3, [r4, #16]
 838              		.loc 1 2638 0
 839 007a 0025     		movs	r5, #0
 840              		.loc 1 2647 0
 841 007c 032B     		cmp	r3, #3
 842              		.loc 1 2638 0
 843 007e 0695     		str	r5, [sp, #24]
 844              	.LVL104:
 845              		.loc 1 2647 0
 846 0080 00F03882 		beq	.L185
 847              		.loc 1 2661 0
 848 0084 0429     		cmp	r1, #4
 849 0086 00F06B81 		beq	.L186
 850              	.LBB67:
 851              		.loc 1 2682 0
 852 008a 17A8     		add	r0, sp, #92
 853 008c FFF7FEFF 		bl	md5_init
 854              	.LVL105:
ARM GAS  C:\Users\jo\AppData\Local\Temp\ccgxU8bj.s 			page 16


 855              		.loc 1 2683 0
 856 0090 4DA8     		add	r0, sp, #308
 857 0092 FFF7FEFF 		bl	sha1_init
 858              	.LVL106:
 859              		.loc 1 2698 0
 860 0096 17A8     		add	r0, sp, #92
 861 0098 FFF7FEFF 		bl	md5_starts
 862              	.LVL107:
 863              		.loc 1 2699 0
 864 009c D4F88410 		ldr	r1, [r4, #132]
 865 00a0 17A8     		add	r0, sp, #92
 866 00a2 01F25461 		addw	r1, r1, #1620
 867 00a6 4022     		movs	r2, #64
 868 00a8 FFF7FEFF 		bl	md5_update
 869              	.LVL108:
 870              		.loc 1 2701 0
 871 00ac 0DF11C08 		add	r8, sp, #28
 872              	.LVL109:
 873              		.loc 1 2700 0
 874 00b0 5246     		mov	r2, r10
 875 00b2 17A8     		add	r0, sp, #92
 876 00b4 3946     		mov	r1, r7
 877 00b6 FFF7FEFF 		bl	md5_update
 878              	.LVL110:
 879              		.loc 1 2701 0
 880 00ba 4146     		mov	r1, r8
 881 00bc 17A8     		add	r0, sp, #92
 882 00be FFF7FEFF 		bl	md5_finish
 883              	.LVL111:
 884              		.loc 1 2703 0
 885 00c2 4DA8     		add	r0, sp, #308
 886 00c4 FFF7FEFF 		bl	sha1_starts
 887              	.LVL112:
 888              		.loc 1 2704 0
 889 00c8 D4F88410 		ldr	r1, [r4, #132]
 890 00cc 4DA8     		add	r0, sp, #308
 891 00ce 01F25461 		addw	r1, r1, #1620
 892 00d2 4022     		movs	r2, #64
 893 00d4 FFF7FEFF 		bl	sha1_update
 894              	.LVL113:
 895              		.loc 1 2705 0
 896 00d8 5246     		mov	r2, r10
 897 00da 4DA8     		add	r0, sp, #308
 898 00dc 3946     		mov	r1, r7
 899 00de FFF7FEFF 		bl	sha1_update
 900              	.LVL114:
 901              		.loc 1 2706 0
 902 00e2 0BA9     		add	r1, sp, #44
 903 00e4 4DA8     		add	r0, sp, #308
 904 00e6 FFF7FEFF 		bl	sha1_finish
 905              	.LVL115:
 906              		.loc 1 2710 0
 907 00ea 17A8     		add	r0, sp, #92
 908 00ec FFF7FEFF 		bl	md5_free
 909              	.LVL116:
 910              		.loc 1 2708 0
 911 00f0 4FF0240A 		mov	r10, #36
ARM GAS  C:\Users\jo\AppData\Local\Temp\ccgxU8bj.s 			page 17


 912              	.LVL117:
 913              		.loc 1 2711 0
 914 00f4 4DA8     		add	r0, sp, #308
 915 00f6 FFF7FEFF 		bl	sha1_free
 916              	.LVL118:
 917              		.loc 1 2708 0
 918 00fa 5346     		mov	r3, r10
 919              	.LVL119:
 920              	.L150:
 921              	.LBE67:
 922              		.loc 1 2755 0 discriminator 4
 923 00fc 794A     		ldr	r2, .L197+8
 924 00fe 0293     		str	r3, [sp, #8]
 925 0100 0092     		str	r2, [sp]
 926 0102 40F6C423 		movw	r3, #2756
 927 0106 764A     		ldr	r2, .L197+4
 928 0108 CDF80480 		str	r8, [sp, #4]
 929 010c 2046     		mov	r0, r4
 930 010e 0321     		movs	r1, #3
 931 0110 FFF7FEFF 		bl	debug_print_buf
 932              	.LVL120:
 933 0114 D4F88420 		ldr	r2, [r4, #132]
 934              	.LVL121:
 935              	.LBB68:
 936              	.LBB69:
 937              		.loc 2 1965 0 discriminator 4
 938 0118 D2F8C031 		ldr	r3, [r2, #448]
 939              		.loc 2 1966 0 discriminator 4
 940 011c 002B     		cmp	r3, #0
 941 011e 00F02482 		beq	.L143
 942              		.loc 2 1966 0 is_stmt 0
 943 0122 5868     		ldr	r0, [r3, #4]
 944              	.LBE69:
 945              	.LBE68:
 946              		.loc 1 2761 0 is_stmt 1
 947 0124 0028     		cmp	r0, #0
 948 0126 00F02082 		beq	.L143
 949              		.loc 1 2768 0
 950 012a 2369     		ldr	r3, [r4, #16]
 951 012c 032B     		cmp	r3, #3
 952 012e 00F0F781 		beq	.L187
 953              	.LVL122:
 954              	.L147:
 955              		.loc 1 2777 0
 956 0132 236C     		ldr	r3, [r4, #64]
 957 0134 D4F828E0 		ldr	lr, [r4, #40]
 958 0138 0393     		str	r3, [sp, #12]
 959 013a B71C     		adds	r7, r6, #2
 960 013c 06AB     		add	r3, sp, #24
 961 013e 0193     		str	r3, [sp, #4]
 962 0140 2946     		mov	r1, r5
 963 0142 4246     		mov	r2, r8
 964 0144 5346     		mov	r3, r10
 965 0146 0097     		str	r7, [sp]
 966 0148 CDF808E0 		str	lr, [sp, #8]
 967 014c FFF7FEFF 		bl	pk_sign
 968              	.LVL123:
ARM GAS  C:\Users\jo\AppData\Local\Temp\ccgxU8bj.s 			page 18


 969 0150 0546     		mov	r5, r0
 970 0152 0028     		cmp	r0, #0
 971 0154 7DD0     		beq	.L148
 972              		.loc 1 2781 0
 973 0156 644B     		ldr	r3, .L197+12
 974 0158 0190     		str	r0, [sp, #4]
 975 015a 0093     		str	r3, [sp]
 976 015c 2046     		mov	r0, r4
 977              	.LVL124:
 978 015e 0121     		movs	r1, #1
 979 0160 5F4A     		ldr	r2, .L197+4
 980 0162 40F6DD23 		movw	r3, #2781
 981 0166 FFF7FEFF 		bl	debug_print_ret
 982              	.LVL125:
 983              		.loc 1 2782 0
 984 016a 2846     		mov	r0, r5
 985 016c 6DE0     		b	.L174
 986              	.LVL126:
 987              	.L127:
 988              	.LBE66:
 989              		.loc 1 2519 0
 990 016e 4FF0000A 		mov	r10, #0
 991 0172 86F804A0 		strb	r10, [r6, #4]
 992              		.loc 1 2520 0
 993 0176 86F805A0 		strb	r10, [r6, #5]
 994              		.loc 1 2529 0
 995 017a 98F80A10 		ldrb	r1, [r8, #10]	@ zero_extendqisi2
 996 017e 01F0FB09 		and	r9, r1, #251
 997 0182 B9F1020F 		cmp	r9, #2
 998              		.loc 1 2520 0
 999 0186 06F10606 		add	r6, r6, #6
 1000              	.LVL127:
 1001              		.loc 1 2529 0
 1002 018a 00F09281 		beq	.L188
 1003              		.loc 1 2522 0
 1004 018e 4FF00209 		mov	r9, #2
 1005              	.LVL128:
 1006              	.L129:
 1007              		.loc 1 2571 0
 1008 0192 CB1E     		subs	r3, r1, #3
 1009 0194 012B     		cmp	r3, #1
 1010 0196 02D9     		bls	.L133
 1011              		.loc 1 2572 0
 1012 0198 0829     		cmp	r1, #8
 1013 019a 7FF469AF 		bne	.L134
 1014              	.LVL129:
 1015              	.L133:
 1016              	.LBB79:
 1017              		.loc 1 2595 0
 1018 019e D4F88430 		ldr	r3, [r4, #132]
 1019 01a2 D3F8BC51 		ldr	r5, [r3, #444]
 1020              	.LVL130:
 1021              		.loc 1 2598 0
 1022 01a6 2B68     		ldr	r3, [r5]
 1023 01a8 002B     		cmp	r3, #0
 1024 01aa 00F0EB81 		beq	.L189
 1025              		.loc 1 2604 0
ARM GAS  C:\Users\jo\AppData\Local\Temp\ccgxU8bj.s 			page 19


 1026 01ae 9968     		ldr	r1, [r3, #8]
 1027 01b0 4E48     		ldr	r0, .L197+16
 1028 01b2 FFF7FEFF 		bl	debug_fmt
 1029              	.LVL131:
 1030 01b6 0221     		movs	r1, #2
 1031 01b8 0090     		str	r0, [sp]
 1032 01ba 494A     		ldr	r2, .L197+4
 1033 01bc 2046     		mov	r0, r4
 1034 01be 40F62C23 		movw	r3, #2604
 1035 01c2 FFF7FEFF 		bl	debug_print_msg
 1036              	.LVL132:
 1037              		.loc 1 2606 0
 1038 01c6 2B68     		ldr	r3, [r5]
 1039 01c8 D4F88400 		ldr	r0, [r4, #132]
 1040 01cc 1978     		ldrb	r1, [r3]	@ zero_extendqisi2
 1041 01ce 8830     		adds	r0, r0, #136
 1042 01d0 FFF7FEFF 		bl	ecp_use_known_dp
 1043              	.LVL133:
 1044 01d4 0546     		mov	r5, r0
 1045              	.LVL134:
 1046 01d6 0028     		cmp	r0, #0
 1047 01d8 74D1     		bne	.L190
 1048              		.loc 1 2613 0
 1049 01da D4F88400 		ldr	r0, [r4, #132]
 1050              	.LVL135:
 1051 01de A26A     		ldr	r2, [r4, #40]
 1052 01e0 236C     		ldr	r3, [r4, #64]
 1053 01e2 0193     		str	r3, [sp, #4]
 1054 01e4 0092     		str	r2, [sp]
 1055 01e6 8830     		adds	r0, r0, #136
 1056 01e8 05A9     		add	r1, sp, #20
 1057 01ea 3246     		mov	r2, r6
 1058 01ec C9F58043 		rsb	r3, r9, #16384
 1059 01f0 FFF7FEFF 		bl	ecdh_make_params
 1060              	.LVL136:
 1061 01f4 0546     		mov	r5, r0
 1062 01f6 0028     		cmp	r0, #0
 1063 01f8 40F0DB80 		bne	.L191
 1064              	.LVL137:
 1065              		.loc 1 2627 0
 1066 01fc D4F88430 		ldr	r3, [r4, #132]
 1067              		.loc 1 2622 0
 1068 0200 DDF814A0 		ldr	r10, [sp, #20]
 1069              	.LVL138:
 1070              		.loc 1 2627 0
 1071 0204 3A4A     		ldr	r2, .L197+20
 1072 0206 0092     		str	r2, [sp]
 1073 0208 03F58873 		add	r3, r3, #272
 1074 020c 0193     		str	r3, [sp, #4]
 1075 020e 0321     		movs	r1, #3
 1076 0210 40F64323 		movw	r3, #2627
 1077 0214 2046     		mov	r0, r4
 1078              	.LVL139:
 1079 0216 324A     		ldr	r2, .L197+4
 1080 0218 FFF7FEFF 		bl	debug_print_ecp
 1081              	.LVL140:
 1082              		.loc 1 2624 0
ARM GAS  C:\Users\jo\AppData\Local\Temp\ccgxU8bj.s 			page 20


 1083 021c 06EB0A03 		add	r3, r6, r10
 1084              	.LVL141:
 1085              		.loc 1 2627 0
 1086 0220 3746     		mov	r7, r6
 1087 0222 98F80A10 		ldrb	r1, [r8, #10]	@ zero_extendqisi2
 1088              		.loc 1 2625 0
 1089 0226 D144     		add	r9, r9, r10
 1090              	.LVL142:
 1091              		.loc 1 2624 0
 1092 0228 1E46     		mov	r6, r3
 1093              	.LVL143:
 1094 022a 21E7     		b	.L134
 1095              	.LVL144:
 1096              	.L119:
 1097              	.LBE79:
 1098              		.loc 1 2494 0
 1099 022c 3148     		ldr	r0, .L197+24
 1100 022e FFF7FEFF 		bl	debug_fmt
 1101              	.LVL145:
 1102 0232 2B4A     		ldr	r2, .L197+4
 1103 0234 0090     		str	r0, [sp]
 1104 0236 0221     		movs	r1, #2
 1105 0238 2046     		mov	r0, r4
 1106 023a 40F6BE13 		movw	r3, #2494
 1107              	.LVL146:
 1108              	.L179:
 1109              		.loc 1 2507 0
 1110 023e FFF7FEFF 		bl	debug_print_msg
 1111              	.LVL147:
 1112              		.loc 1 2508 0
 1113 0242 2368     		ldr	r3, [r4]
 1114 0244 0133     		adds	r3, r3, #1
 1115 0246 2360     		str	r3, [r4]
 1116              		.loc 1 2509 0
 1117 0248 0020     		movs	r0, #0
 1118              	.LVL148:
 1119              	.L174:
 1120              		.loc 1 2813 0
 1121 024a 0DF5057D 		add	sp, sp, #532
 1122              		.cfi_remember_state
 1123              		.cfi_def_cfa_offset 36
 1124              		@ sp needed
 1125 024e BDE8F08F 		pop	{r4, r5, r6, r7, r8, r9, r10, fp, pc}
 1126              	.LVL149:
 1127              	.L148:
 1128              		.cfi_restore_state
 1129              	.LBB80:
 1130              		.loc 1 2785 0
 1131 0252 069B     		ldr	r3, [sp, #24]
 1132              		.loc 1 2789 0
 1133 0254 2849     		ldr	r1, .L197+28
 1134 0256 224A     		ldr	r2, .L197+4
 1135              		.loc 1 2785 0
 1136 0258 1B0A     		lsrs	r3, r3, #8
 1137 025a 3370     		strb	r3, [r6]
 1138              	.LVL150:
 1139              		.loc 1 2786 0
ARM GAS  C:\Users\jo\AppData\Local\Temp\ccgxU8bj.s 			page 21


 1140 025c 069B     		ldr	r3, [sp, #24]
 1141 025e 7370     		strb	r3, [r6, #1]
 1142              	.LVL151:
 1143              		.loc 1 2789 0
 1144 0260 069B     		ldr	r3, [sp, #24]
 1145 0262 0293     		str	r3, [sp, #8]
 1146 0264 0091     		str	r1, [sp]
 1147 0266 40F6E523 		movw	r3, #2789
 1148 026a 0197     		str	r7, [sp, #4]
 1149 026c 2046     		mov	r0, r4
 1150              	.LVL152:
 1151 026e 0321     		movs	r1, #3
 1152 0270 FFF7FEFF 		bl	debug_print_buf
 1153              	.LVL153:
 1154 0274 069B     		ldr	r3, [sp, #24]
 1155 0276 0233     		adds	r3, r3, #2
 1156              		.loc 1 2792 0
 1157 0278 9944     		add	r9, r9, r3
 1158              	.LVL154:
 1159              	.L138:
 1160              	.LBE80:
 1161              		.loc 1 2800 0
 1162 027a D4F8D030 		ldr	r3, [r4, #208]
 1163              		.loc 1 2798 0
 1164 027e 09F10400 		add	r0, r9, #4
 1165              		.loc 1 2799 0
 1166 0282 1621     		movs	r1, #22
 1167              		.loc 1 2800 0
 1168 0284 0C22     		movs	r2, #12
 1169              		.loc 1 2798 0
 1170 0286 C4F8D800 		str	r0, [r4, #216]
 1171              		.loc 1 2799 0
 1172 028a C4F8D410 		str	r1, [r4, #212]
 1173              		.loc 1 2800 0
 1174 028e 1A70     		strb	r2, [r3]
 1175              		.loc 1 2802 0
 1176 0290 2368     		ldr	r3, [r4]
 1177 0292 0133     		adds	r3, r3, #1
 1178 0294 2360     		str	r3, [r4]
 1179              		.loc 1 2804 0
 1180 0296 2046     		mov	r0, r4
 1181 0298 FFF7FEFF 		bl	ssl_write_record
 1182              	.LVL155:
 1183 029c 0546     		mov	r5, r0
 1184 029e 0028     		cmp	r0, #0
 1185 02a0 7BD1     		bne	.L192
 1186              		.loc 1 2810 0
 1187 02a2 1648     		ldr	r0, .L197+32
 1188              	.LVL156:
 1189 02a4 FFF7FEFF 		bl	debug_fmt
 1190              	.LVL157:
 1191 02a8 0221     		movs	r1, #2
 1192 02aa 0090     		str	r0, [sp]
 1193 02ac 0C4A     		ldr	r2, .L197+4
 1194 02ae 2046     		mov	r0, r4
 1195 02b0 40F6FA23 		movw	r3, #2810
 1196 02b4 FFF7FEFF 		bl	debug_print_msg
ARM GAS  C:\Users\jo\AppData\Local\Temp\ccgxU8bj.s 			page 22


 1197              	.LVL158:
 1198              		.loc 1 2812 0
 1199 02b8 2846     		mov	r0, r5
 1200 02ba C6E7     		b	.L174
 1201              	.LVL159:
 1202              	.L161:
 1203              		.loc 1 2478 0
 1204 02bc 3E46     		mov	r6, r7
 1205              		.loc 1 2469 0
 1206 02be 4FF00009 		mov	r9, #0
 1207 02c2 6CE7     		b	.L133
 1208              	.LVL160:
 1209              	.L190:
 1210              	.LBB81:
 1211              		.loc 1 2609 0
 1212 02c4 0E4B     		ldr	r3, .L197+36
 1213 02c6 0190     		str	r0, [sp, #4]
 1214 02c8 0093     		str	r3, [sp]
 1215 02ca 2046     		mov	r0, r4
 1216              	.LVL161:
 1217 02cc 0121     		movs	r1, #1
 1218 02ce 044A     		ldr	r2, .L197+4
 1219 02d0 40F63123 		movw	r3, #2609
 1220 02d4 FFF7FEFF 		bl	debug_print_ret
 1221              	.LVL162:
 1222              		.loc 1 2610 0
 1223 02d8 2846     		mov	r0, r5
 1224 02da B6E7     		b	.L174
 1225              	.L198:
 1226              		.align	2
 1227              	.L197:
 1228 02dc A4020000 		.word	.LC18
 1229 02e0 18000000 		.word	.LC1
 1230 02e4 BC030000 		.word	.LC34
 1231 02e8 E0030000 		.word	.LC36
 1232 02ec 6C030000 		.word	.LC29
 1233 02f0 A4030000 		.word	.LC32
 1234 02f4 C4020000 		.word	.LC19
 1235 02f8 E8030000 		.word	.LC37
 1236 02fc 0C040000 		.word	.LC39
 1237 0300 7C030000 		.word	.LC30
 1238              	.LVL163:
 1239              	.L183:
 1240              	.LBE81:
 1241              	.LBB82:
 1242              	.LBB83:
 1243              	.LBB84:
 1244              	.LBB85:
 1245              		.loc 2 1965 0
 1246 0304 D4F88430 		ldr	r3, [r4, #132]
 1247 0308 D3F8C001 		ldr	r0, [r3, #448]
 1248              		.loc 2 1966 0
 1249 030c 00B1     		cbz	r0, .L123
 1250 030e 4068     		ldr	r0, [r0, #4]
 1251              	.L123:
 1252              	.LBE85:
 1253              	.LBE84:
ARM GAS  C:\Users\jo\AppData\Local\Temp\ccgxU8bj.s 			page 23


 1254              		.loc 1 2447 0
 1255 0310 0221     		movs	r1, #2
 1256 0312 FFF7FEFF 		bl	pk_can_do
 1257              	.LVL164:
 1258 0316 0028     		cmp	r0, #0
 1259 0318 00F04181 		beq	.L193
 1260              		.loc 1 2453 0
 1261 031c D4F88400 		ldr	r0, [r4, #132]
 1262              	.LBB86:
 1263              	.LBB87:
 1264              		.loc 2 1965 0
 1265 0320 D0F8C031 		ldr	r3, [r0, #448]
 1266              	.LBE87:
 1267              	.LBE86:
 1268              		.loc 1 2453 0
 1269 0324 8830     		adds	r0, r0, #136
 1270              	.LVL165:
 1271              	.LBB89:
 1272              	.LBB88:
 1273              		.loc 2 1966 0
 1274 0326 CBB1     		cbz	r3, .L126
 1275              	.LBE88:
 1276              	.LBE89:
 1277              		.loc 1 2454 0
 1278 0328 5B68     		ldr	r3, [r3, #4]
 1279              		.loc 1 2453 0
 1280 032a 0022     		movs	r2, #0
 1281 032c 5968     		ldr	r1, [r3, #4]
 1282 032e FFF7FEFF 		bl	ecdh_get_params
 1283              	.LVL166:
 1284 0332 48B1     		cbz	r0, .L125
 1285              		.loc 1 2457 0
 1286 0334 A04B     		ldr	r3, .L199
 1287 0336 0190     		str	r0, [sp, #4]
 1288 0338 0093     		str	r3, [sp]
 1289 033a 2046     		mov	r0, r4
 1290              	.LVL167:
 1291 033c 0121     		movs	r1, #1
 1292 033e 9F4A     		ldr	r2, .L199+4
 1293 0340 40F69913 		movw	r3, #2457
 1294 0344 FFF7FEFF 		bl	debug_print_ret
 1295              	.LVL168:
 1296              	.L125:
 1297              	.LBE83:
 1298              	.LBE82:
 1299              		.loc 1 2507 0
 1300 0348 9D48     		ldr	r0, .L199+8
 1301 034a FFF7FEFF 		bl	debug_fmt
 1302              	.LVL169:
 1303 034e 0221     		movs	r1, #2
 1304 0350 0090     		str	r0, [sp]
 1305 0352 9A4A     		ldr	r2, .L199+4
 1306 0354 2046     		mov	r0, r4
 1307 0356 40F6CB13 		movw	r3, #2507
 1308 035a 70E7     		b	.L179
 1309              	.L126:
 1310              	.LBB92:
ARM GAS  C:\Users\jo\AppData\Local\Temp\ccgxU8bj.s 			page 24


 1311              	.LBB90:
 1312              		.loc 1 2454 0
 1313 035c 5B68     		ldr	r3, [r3, #4]
 1314 035e FFDE     		.inst	0xdeff
 1315              	.LVL170:
 1316              	.L186:
 1317              	.LBE90:
 1318              	.LBE92:
 1319              	.LBB93:
 1320              		.loc 1 2664 0
 1321 0360 0D46     		mov	r5, r1
 1322              	.LVL171:
 1323              	.L140:
 1324              	.LBB70:
 1325              		.loc 1 2721 0
 1326 0362 2846     		mov	r0, r5
 1327 0364 FFF7FEFF 		bl	md_info_from_type
 1328              	.LVL172:
 1329 0368 8046     		mov	r8, r0
 1330              	.LVL173:
 1331              		.loc 1 2723 0
 1332 036a 4DA8     		add	r0, sp, #308
 1333              	.LVL174:
 1334 036c FFF7FEFF 		bl	md_init
 1335              	.LVL175:
 1336              		.loc 1 2735 0
 1337 0370 4DA8     		add	r0, sp, #308
 1338 0372 4146     		mov	r1, r8
 1339 0374 FFF7FEFF 		bl	md_init_ctx
 1340              	.LVL176:
 1341 0378 8346     		mov	fp, r0
 1342 037a 0028     		cmp	r0, #0
 1343 037c 00F09B80 		beq	.L194
 1344              		.loc 1 2737 0
 1345 0380 904B     		ldr	r3, .L199+12
 1346 0382 0093     		str	r3, [sp]
 1347 0384 2046     		mov	r0, r4
 1348              	.LVL177:
 1349 0386 CDF804B0 		str	fp, [sp, #4]
 1350 038a 0121     		movs	r1, #1
 1351 038c 8B4A     		ldr	r2, .L199+4
 1352 038e 40F6B123 		movw	r3, #2737
 1353 0392 FFF7FEFF 		bl	debug_print_ret
 1354              	.LVL178:
 1355              		.loc 1 2738 0
 1356 0396 5846     		mov	r0, fp
 1357 0398 57E7     		b	.L174
 1358              	.LVL179:
 1359              	.L192:
 1360              	.LBE70:
 1361              	.LBE93:
 1362              		.loc 1 2806 0
 1363 039a 8B4B     		ldr	r3, .L199+16
 1364 039c 0190     		str	r0, [sp, #4]
 1365 039e 0093     		str	r3, [sp]
 1366 03a0 2046     		mov	r0, r4
 1367              	.LVL180:
ARM GAS  C:\Users\jo\AppData\Local\Temp\ccgxU8bj.s 			page 25


 1368 03a2 0121     		movs	r1, #1
 1369 03a4 854A     		ldr	r2, .L199+4
 1370 03a6 40F6F623 		movw	r3, #2806
 1371 03aa FFF7FEFF 		bl	debug_print_ret
 1372              	.LVL181:
 1373              		.loc 1 2807 0
 1374 03ae 2846     		mov	r0, r5
 1375 03b0 4BE7     		b	.L174
 1376              	.LVL182:
 1377              	.L191:
 1378              	.LBB94:
 1379              		.loc 1 2617 0
 1380 03b2 864B     		ldr	r3, .L199+20
 1381 03b4 0190     		str	r0, [sp, #4]
 1382 03b6 0093     		str	r3, [sp]
 1383 03b8 2046     		mov	r0, r4
 1384              	.LVL183:
 1385 03ba 0121     		movs	r1, #1
 1386 03bc 7F4A     		ldr	r2, .L199+4
 1387 03be 40F63923 		movw	r3, #2617
 1388 03c2 FFF7FEFF 		bl	debug_print_ret
 1389              	.LVL184:
 1390              		.loc 1 2618 0
 1391 03c6 2846     		mov	r0, r5
 1392 03c8 3FE7     		b	.L174
 1393              	.LVL185:
 1394              	.L184:
 1395              	.LBE94:
 1396              		.loc 1 2469 0
 1397 03ca 4FF00009 		mov	r9, #0
 1398              	.LVL186:
 1399              	.L153:
 1400              		.loc 1 2541 0
 1401 03ce D4F88400 		ldr	r0, [r4, #132]
 1402 03d2 04F59C71 		add	r1, r4, #312
 1403 03d6 1030     		adds	r0, r0, #16
 1404 03d8 FFF7FEFF 		bl	mpi_copy
 1405              	.LVL187:
 1406 03dc 0546     		mov	r5, r0
 1407 03de 40B9     		cbnz	r0, .L130
 1408              		.loc 1 2542 0 discriminator 1
 1409 03e0 D4F88400 		ldr	r0, [r4, #132]
 1410              	.LVL188:
 1411              		.loc 1 2541 0 discriminator 1
 1412 03e4 04F5A271 		add	r1, r4, #324
 1413 03e8 1C30     		adds	r0, r0, #28
 1414 03ea FFF7FEFF 		bl	mpi_copy
 1415              	.LVL189:
 1416 03ee 0546     		mov	r5, r0
 1417 03f0 70B1     		cbz	r0, .L131
 1418              	.L130:
 1419              		.loc 1 2544 0
 1420 03f2 774B     		ldr	r3, .L199+24
 1421 03f4 0093     		str	r3, [sp]
 1422 03f6 2046     		mov	r0, r4
 1423              	.LVL190:
 1424 03f8 0195     		str	r5, [sp, #4]
ARM GAS  C:\Users\jo\AppData\Local\Temp\ccgxU8bj.s 			page 26


 1425 03fa 0121     		movs	r1, #1
 1426 03fc 6F4A     		ldr	r2, .L199+4
 1427 03fe 4FF41F63 		mov	r3, #2544
 1428 0402 FFF7FEFF 		bl	debug_print_ret
 1429              	.LVL191:
 1430              		.loc 1 2545 0
 1431 0406 2846     		mov	r0, r5
 1432              		.loc 1 2813 0
 1433 0408 0DF5057D 		add	sp, sp, #532
 1434              		.cfi_remember_state
 1435              		.cfi_def_cfa_offset 36
 1436              		@ sp needed
 1437 040c BDE8F08F 		pop	{r4, r5, r6, r7, r8, r9, r10, fp, pc}
 1438              	.LVL192:
 1439              	.L131:
 1440              		.cfi_restore_state
 1441              		.loc 1 2548 0
 1442 0410 D4F88450 		ldr	r5, [r4, #132]
 1443              		.loc 1 2549 0
 1444 0414 05F11000 		add	r0, r5, #16
 1445              	.LVL193:
 1446 0418 FFF7FEFF 		bl	mpi_size
 1447              	.LVL194:
 1448              		.loc 1 2548 0
 1449 041c A36A     		ldr	r3, [r4, #40]
 1450 041e 226C     		ldr	r2, [r4, #64]
 1451 0420 0192     		str	r2, [sp, #4]
 1452              		.loc 1 2549 0
 1453 0422 0146     		mov	r1, r0
 1454              		.loc 1 2548 0
 1455 0424 0093     		str	r3, [sp]
 1456 0426 05F10C00 		add	r0, r5, #12
 1457 042a 05AB     		add	r3, sp, #20
 1458 042c 3A46     		mov	r2, r7
 1459 042e FFF7FEFF 		bl	dhm_make_params
 1460              	.LVL195:
 1461 0432 0546     		mov	r5, r0
 1462 0434 0028     		cmp	r0, #0
 1463 0436 40F08980 		bne	.L195
 1464              	.LVL196:
 1465              		.loc 1 2562 0
 1466 043a D4F88430 		ldr	r3, [r4, #132]
 1467 043e 654A     		ldr	r2, .L199+28
 1468 0440 0092     		str	r2, [sp]
 1469 0442 2833     		adds	r3, r3, #40
 1470 0444 0193     		str	r3, [sp, #4]
 1471 0446 2046     		mov	r0, r4
 1472              	.LVL197:
 1473 0448 0321     		movs	r1, #3
 1474 044a 5C4A     		ldr	r2, .L199+4
 1475              		.loc 1 2557 0
 1476 044c DDF814A0 		ldr	r10, [sp, #20]
 1477              	.LVL198:
 1478              		.loc 1 2562 0
 1479 0450 40F60223 		movw	r3, #2562
 1480 0454 FFF7FEFF 		bl	debug_print_mpi
 1481              	.LVL199:
ARM GAS  C:\Users\jo\AppData\Local\Temp\ccgxU8bj.s 			page 27


 1482              		.loc 1 2563 0
 1483 0458 D4F88430 		ldr	r3, [r4, #132]
 1484 045c 5E4A     		ldr	r2, .L199+32
 1485 045e 0092     		str	r2, [sp]
 1486 0460 1033     		adds	r3, r3, #16
 1487 0462 0193     		str	r3, [sp, #4]
 1488 0464 2046     		mov	r0, r4
 1489 0466 0321     		movs	r1, #3
 1490 0468 544A     		ldr	r2, .L199+4
 1491 046a 40F60323 		movw	r3, #2563
 1492 046e FFF7FEFF 		bl	debug_print_mpi
 1493              	.LVL200:
 1494              		.loc 1 2564 0
 1495 0472 D4F88430 		ldr	r3, [r4, #132]
 1496 0476 594A     		ldr	r2, .L199+36
 1497 0478 0092     		str	r2, [sp]
 1498 047a 1C33     		adds	r3, r3, #28
 1499 047c 0193     		str	r3, [sp, #4]
 1500 047e 2046     		mov	r0, r4
 1501 0480 0321     		movs	r1, #3
 1502 0482 4E4A     		ldr	r2, .L199+4
 1503 0484 40F60423 		movw	r3, #2564
 1504 0488 FFF7FEFF 		bl	debug_print_mpi
 1505              	.LVL201:
 1506              		.loc 1 2565 0
 1507 048c D4F88430 		ldr	r3, [r4, #132]
 1508 0490 534A     		ldr	r2, .L199+40
 1509 0492 0092     		str	r2, [sp]
 1510 0494 3433     		adds	r3, r3, #52
 1511 0496 0193     		str	r3, [sp, #4]
 1512 0498 0321     		movs	r1, #3
 1513 049a 2046     		mov	r0, r4
 1514 049c 474A     		ldr	r2, .L199+4
 1515 049e 40F60523 		movw	r3, #2565
 1516 04a2 FFF7FEFF 		bl	debug_print_mpi
 1517              	.LVL202:
 1518              		.loc 1 2560 0
 1519 04a6 D144     		add	r9, r9, r10
 1520              		.loc 1 2559 0
 1521 04a8 07EB0A06 		add	r6, r7, r10
 1522              	.LVL203:
 1523 04ac 98F80A10 		ldrb	r1, [r8, #10]	@ zero_extendqisi2
 1524 04b0 6FE6     		b	.L129
 1525              	.LVL204:
 1526              	.L188:
 1527              		.loc 1 2520 0
 1528 04b2 3746     		mov	r7, r6
 1529              	.LVL205:
 1530 04b4 8BE7     		b	.L153
 1531              	.LVL206:
 1532              	.L194:
 1533              	.LBB95:
 1534              	.LBB71:
 1535              		.loc 1 2741 0
 1536 04b6 4DA8     		add	r0, sp, #308
 1537              	.LVL207:
 1538 04b8 FFF7FEFF 		bl	md_starts
ARM GAS  C:\Users\jo\AppData\Local\Temp\ccgxU8bj.s 			page 28


 1539              	.LVL208:
 1540              		.loc 1 2742 0
 1541 04bc D4F88410 		ldr	r1, [r4, #132]
 1542 04c0 4022     		movs	r2, #64
 1543 04c2 01F25461 		addw	r1, r1, #1620
 1544 04c6 4DA8     		add	r0, sp, #308
 1545 04c8 FFF7FEFF 		bl	md_update
 1546              	.LVL209:
 1547              		.loc 1 2744 0
 1548 04cc 0DF11C08 		add	r8, sp, #28
 1549              	.LVL210:
 1550              		.loc 1 2743 0
 1551 04d0 5246     		mov	r2, r10
 1552 04d2 3946     		mov	r1, r7
 1553 04d4 4DA8     		add	r0, sp, #308
 1554 04d6 FFF7FEFF 		bl	md_update
 1555              	.LVL211:
 1556              		.loc 1 2744 0
 1557 04da 4146     		mov	r1, r8
 1558 04dc 4DA8     		add	r0, sp, #308
 1559 04de FFF7FEFF 		bl	md_finish
 1560              	.LVL212:
 1561              		.loc 1 2745 0
 1562 04e2 4DA8     		add	r0, sp, #308
 1563 04e4 FFF7FEFF 		bl	md_free
 1564              	.LVL213:
 1565              	.LBE71:
 1566              		.loc 1 2755 0
 1567 04e8 2846     		mov	r0, r5
 1568 04ea FFF7FEFF 		bl	md_info_from_type
 1569              	.LVL214:
 1570              	.LBB72:
 1571              		.loc 1 2726 0
 1572 04ee DA46     		mov	r10, fp
 1573              	.LVL215:
 1574              	.LBE72:
 1575              		.loc 1 2755 0
 1576 04f0 8368     		ldr	r3, [r0, #8]
 1577 04f2 03E6     		b	.L150
 1578              	.LVL216:
 1579              	.L185:
 1580              		.loc 1 2649 0
 1581 04f4 D4F88430 		ldr	r3, [r4, #132]
 1582 04f8 1878     		ldrb	r0, [r3]	@ zero_extendqisi2
 1583 04fa FFF7FEFF 		bl	ssl_md_alg_from_hash
 1584              	.LVL217:
 1585              		.loc 1 2651 0
 1586 04fe 0546     		mov	r5, r0
 1587 0500 0028     		cmp	r0, #0
 1588 0502 7FF42EAF 		bne	.L140
 1589              		.loc 1 2653 0
 1590 0506 3748     		ldr	r0, .L199+44
 1591              	.LVL218:
 1592 0508 FFF7FEFF 		bl	debug_fmt
 1593              	.LVL219:
 1594 050c 0121     		movs	r1, #1
 1595 050e 0090     		str	r0, [sp]
ARM GAS  C:\Users\jo\AppData\Local\Temp\ccgxU8bj.s 			page 29


 1596 0510 2A4A     		ldr	r2, .L199+4
 1597 0512 2046     		mov	r0, r4
 1598 0514 40F65D23 		movw	r3, #2653
 1599 0518 FFF7FEFF 		bl	debug_print_msg
 1600              	.LVL220:
 1601              		.loc 1 2654 0
 1602 051c 3248     		ldr	r0, .L199+48
 1603 051e 94E6     		b	.L174
 1604              	.LVL221:
 1605              	.L187:
 1606              		.loc 1 2770 0
 1607 0520 3746     		mov	r7, r6
 1608              	.LVL222:
 1609 0522 1368     		ldr	r3, [r2]
 1610 0524 07F8023B 		strb	r3, [r7], #2
 1611              	.LVL223:
 1612              	.LBB73:
 1613              	.LBB74:
 1614              		.loc 2 1965 0
 1615 0528 D4F88430 		ldr	r3, [r4, #132]
 1616 052c D3F8C001 		ldr	r0, [r3, #448]
 1617              		.loc 2 1966 0
 1618 0530 00B1     		cbz	r0, .L146
 1619 0532 4068     		ldr	r0, [r0, #4]
 1620              	.L146:
 1621              	.LBE74:
 1622              	.LBE73:
 1623              		.loc 1 2771 0
 1624 0534 FFF7FEFF 		bl	ssl_sig_from_pk
 1625              	.LVL224:
 1626 0538 7070     		strb	r0, [r6, #1]
 1627              	.LBB75:
 1628              	.LBB76:
 1629              		.loc 2 1965 0
 1630 053a D4F88430 		ldr	r3, [r4, #132]
 1631 053e D3F8C001 		ldr	r0, [r3, #448]
 1632              	.LBE76:
 1633              	.LBE75:
 1634              		.loc 1 2773 0
 1635 0542 09F10209 		add	r9, r9, #2
 1636              	.LVL225:
 1637              	.LBB78:
 1638              	.LBB77:
 1639              		.loc 2 1966 0
 1640 0546 68B9     		cbnz	r0, .L196
 1641              	.LBE77:
 1642              	.LBE78:
 1643              		.loc 1 2771 0
 1644 0548 3E46     		mov	r6, r7
 1645 054a F2E5     		b	.L147
 1646              	.LVL226:
 1647              	.L195:
 1648              	.LBE95:
 1649              		.loc 1 2552 0
 1650 054c 274B     		ldr	r3, .L199+52
 1651 054e 0190     		str	r0, [sp, #4]
 1652 0550 0093     		str	r3, [sp]
ARM GAS  C:\Users\jo\AppData\Local\Temp\ccgxU8bj.s 			page 30


 1653 0552 2046     		mov	r0, r4
 1654              	.LVL227:
 1655 0554 0121     		movs	r1, #1
 1656 0556 194A     		ldr	r2, .L199+4
 1657 0558 40F6F813 		movw	r3, #2552
 1658 055c FFF7FEFF 		bl	debug_print_ret
 1659              	.LVL228:
 1660              		.loc 1 2553 0
 1661 0560 2846     		mov	r0, r5
 1662 0562 72E6     		b	.L174
 1663              	.LVL229:
 1664              	.L196:
 1665 0564 4068     		ldr	r0, [r0, #4]
 1666              	.LBB96:
 1667              		.loc 1 2771 0
 1668 0566 3E46     		mov	r6, r7
 1669 0568 E3E5     		b	.L147
 1670              	.LVL230:
 1671              	.L143:
 1672              		.loc 1 2763 0
 1673 056a 2148     		ldr	r0, .L199+56
 1674 056c FFF7FEFF 		bl	debug_fmt
 1675              	.LVL231:
 1676 0570 0121     		movs	r1, #1
 1677 0572 0090     		str	r0, [sp]
 1678 0574 114A     		ldr	r2, .L199+4
 1679 0576 2046     		mov	r0, r4
 1680 0578 40F6CB23 		movw	r3, #2763
 1681 057c FFF7FEFF 		bl	debug_print_msg
 1682              	.LVL232:
 1683              		.loc 1 2764 0
 1684 0580 1C48     		ldr	r0, .L199+60
 1685 0582 62E6     		b	.L174
 1686              	.LVL233:
 1687              	.L189:
 1688              	.LBE96:
 1689              	.LBB97:
 1690              		.loc 1 2600 0
 1691 0584 1C48     		ldr	r0, .L199+64
 1692 0586 FFF7FEFF 		bl	debug_fmt
 1693              	.LVL234:
 1694 058a 0121     		movs	r1, #1
 1695 058c 0090     		str	r0, [sp]
 1696 058e 0B4A     		ldr	r2, .L199+4
 1697 0590 2046     		mov	r0, r4
 1698 0592 40F62823 		movw	r3, #2600
 1699 0596 FFF7FEFF 		bl	debug_print_msg
 1700              	.LVL235:
 1701              		.loc 1 2601 0
 1702 059a 1848     		ldr	r0, .L199+68
 1703 059c 55E6     		b	.L174
 1704              	.LVL236:
 1705              	.L193:
 1706              	.LBE97:
 1707              	.LBB98:
 1708              	.LBB91:
 1709              		.loc 1 2449 0
ARM GAS  C:\Users\jo\AppData\Local\Temp\ccgxU8bj.s 			page 31


 1710 059e 1848     		ldr	r0, .L199+72
 1711 05a0 FFF7FEFF 		bl	debug_fmt
 1712              	.LVL237:
 1713 05a4 0121     		movs	r1, #1
 1714 05a6 0090     		str	r0, [sp]
 1715 05a8 044A     		ldr	r2, .L199+4
 1716 05aa 2046     		mov	r0, r4
 1717 05ac 40F69113 		movw	r3, #2449
 1718 05b0 FFF7FEFF 		bl	debug_print_msg
 1719              	.LVL238:
 1720 05b4 C8E6     		b	.L125
 1721              	.L200:
 1722 05b6 00BF     		.align	2
 1723              	.L199:
 1724 05b8 04030000 		.word	.LC21
 1725 05bc 18000000 		.word	.LC1
 1726 05c0 C4020000 		.word	.LC19
 1727 05c4 B0030000 		.word	.LC33
 1728 05c8 F8030000 		.word	.LC38
 1729 05cc 90030000 		.word	.LC31
 1730 05d0 14030000 		.word	.LC22
 1731 05d4 30030000 		.word	.LC24
 1732 05d8 38030000 		.word	.LC25
 1733 05dc 40030000 		.word	.LC26
 1734 05e0 48030000 		.word	.LC27
 1735 05e4 80000000 		.word	.LC4
 1736 05e8 0094FFFF 		.word	-27648
 1737 05ec 20030000 		.word	.LC23
 1738 05f0 CC030000 		.word	.LC35
 1739 05f4 008AFFFF 		.word	-30208
 1740 05f8 50030000 		.word	.LC28
 1741 05fc 808CFFFF 		.word	-29568
 1742 0600 E8020000 		.word	.LC20
 1743              	.LBE91:
 1744              	.LBE98:
 1745              		.cfi_endproc
 1746              	.LFE47:
 1747              		.size	ssl_write_server_key_exchange, .-ssl_write_server_key_exchange
 1748 0604 AFF30080 		.section	.text.ssl_parse_client_dh_public,"ax",%progbits
 1748      AFF30080 
 1748      AFF30080 
 1749              		.align	2
 1750              		.p2align 4,,15
 1751              		.thumb
 1752              		.thumb_func
 1753              		.type	ssl_parse_client_dh_public, %function
 1754              	ssl_parse_client_dh_public:
 1755              	.LFB49:
 1756              		.loc 1 2842 0
 1757              		.cfi_startproc
 1758              		@ args = 0, pretend = 0, frame = 0
 1759              		@ frame_needed = 0, uses_anonymous_args = 0
 1760              	.LVL239:
 1761 0000 F0B5     		push	{r4, r5, r6, r7, lr}
 1762              		.cfi_def_cfa_offset 20
 1763              		.cfi_offset 4, -20
 1764              		.cfi_offset 5, -16
ARM GAS  C:\Users\jo\AppData\Local\Temp\ccgxU8bj.s 			page 32


 1765              		.cfi_offset 6, -12
 1766              		.cfi_offset 7, -8
 1767              		.cfi_offset 14, -4
 1768              		.loc 1 2849 0
 1769 0002 0B68     		ldr	r3, [r1]
 1770              		.loc 1 2842 0
 1771 0004 0E46     		mov	r6, r1
 1772              		.loc 1 2849 0
 1773 0006 991C     		adds	r1, r3, #2
 1774              	.LVL240:
 1775 0008 9142     		cmp	r1, r2
 1776              		.loc 1 2842 0
 1777 000a 83B0     		sub	sp, sp, #12
 1778              		.cfi_def_cfa_offset 32
 1779              		.loc 1 2842 0
 1780 000c 0746     		mov	r7, r0
 1781              		.loc 1 2849 0
 1782 000e 3BD8     		bhi	.L207
 1783              		.loc 1 2855 0
 1784 0010 1C78     		ldrb	r4, [r3]	@ zero_extendqisi2
 1785 0012 5B78     		ldrb	r3, [r3, #1]	@ zero_extendqisi2
 1786              		.loc 1 2856 0
 1787 0014 3160     		str	r1, [r6]
 1788              		.loc 1 2855 0
 1789 0016 43EA0424 		orr	r4, r3, r4, lsl #8
 1790              	.LVL241:
 1791              		.loc 1 2858 0
 1792 001a 0B19     		adds	r3, r1, r4
 1793 001c 9A42     		cmp	r2, r3
 1794 001e 1AD3     		bcc	.L208
 1795              		.loc 1 2864 0
 1796 0020 D0F88400 		ldr	r0, [r0, #132]
 1797              	.LVL242:
 1798 0024 2246     		mov	r2, r4
 1799              	.LVL243:
 1800 0026 0C30     		adds	r0, r0, #12
 1801 0028 FFF7FEFF 		bl	dhm_read_public
 1802              	.LVL244:
 1803 002c 0546     		mov	r5, r0
 1804 002e F8B9     		cbnz	r0, .L209
 1805              		.loc 1 2870 0
 1806 0030 3368     		ldr	r3, [r6]
 1807              		.loc 1 2872 0
 1808 0032 1C4A     		ldr	r2, .L210
 1809 0034 0092     		str	r2, [sp]
 1810              		.loc 1 2870 0
 1811 0036 1C44     		add	r4, r4, r3
 1812              	.LVL245:
 1813 0038 3460     		str	r4, [r6]
 1814              		.loc 1 2872 0
 1815 003a D7F88430 		ldr	r3, [r7, #132]
 1816 003e 1A4A     		ldr	r2, .L210+4
 1817 0040 4033     		adds	r3, r3, #64
 1818 0042 0193     		str	r3, [sp, #4]
 1819 0044 3846     		mov	r0, r7
 1820              	.LVL246:
 1821 0046 0321     		movs	r1, #3
ARM GAS  C:\Users\jo\AppData\Local\Temp\ccgxU8bj.s 			page 33


 1822 0048 40F63833 		movw	r3, #2872
 1823 004c FFF7FEFF 		bl	debug_print_mpi
 1824              	.LVL247:
 1825              		.loc 1 2874 0
 1826 0050 2846     		mov	r0, r5
 1827              	.LVL248:
 1828              	.L203:
 1829              		.loc 1 2875 0
 1830 0052 03B0     		add	sp, sp, #12
 1831              		.cfi_remember_state
 1832              		.cfi_def_cfa_offset 20
 1833              		@ sp needed
 1834 0054 F0BD     		pop	{r4, r5, r6, r7, pc}
 1835              	.LVL249:
 1836              	.L208:
 1837              		.cfi_restore_state
 1838              		.loc 1 2860 0
 1839 0056 1548     		ldr	r0, .L210+8
 1840              	.LVL250:
 1841 0058 FFF7FEFF 		bl	debug_fmt
 1842              	.LVL251:
 1843 005c 0121     		movs	r1, #1
 1844 005e 0090     		str	r0, [sp]
 1845 0060 114A     		ldr	r2, .L210+4
 1846 0062 3846     		mov	r0, r7
 1847 0064 40F62C33 		movw	r3, #2860
 1848 0068 FFF7FEFF 		bl	debug_print_msg
 1849              	.LVL252:
 1850              		.loc 1 2861 0
 1851 006c 1048     		ldr	r0, .L210+12
 1852 006e F0E7     		b	.L203
 1853              	.LVL253:
 1854              	.L209:
 1855              		.loc 1 2866 0
 1856 0070 104B     		ldr	r3, .L210+16
 1857 0072 0190     		str	r0, [sp, #4]
 1858 0074 0093     		str	r3, [sp]
 1859 0076 3846     		mov	r0, r7
 1860              	.LVL254:
 1861 0078 0121     		movs	r1, #1
 1862 007a 0B4A     		ldr	r2, .L210+4
 1863 007c 40F63233 		movw	r3, #2866
 1864 0080 FFF7FEFF 		bl	debug_print_ret
 1865              	.LVL255:
 1866              		.loc 1 2867 0
 1867 0084 0C48     		ldr	r0, .L210+20
 1868 0086 E4E7     		b	.L203
 1869              	.LVL256:
 1870              	.L207:
 1871              		.loc 1 2851 0
 1872 0088 0848     		ldr	r0, .L210+8
 1873              	.LVL257:
 1874 008a FFF7FEFF 		bl	debug_fmt
 1875              	.LVL258:
 1876 008e 0121     		movs	r1, #1
 1877 0090 0090     		str	r0, [sp]
 1878 0092 054A     		ldr	r2, .L210+4
ARM GAS  C:\Users\jo\AppData\Local\Temp\ccgxU8bj.s 			page 34


 1879 0094 3846     		mov	r0, r7
 1880 0096 40F62333 		movw	r3, #2851
 1881 009a FFF7FEFF 		bl	debug_print_msg
 1882              	.LVL259:
 1883              		.loc 1 2852 0
 1884 009e 0448     		ldr	r0, .L210+12
 1885 00a0 D7E7     		b	.L203
 1886              	.L211:
 1887 00a2 00BF     		.align	2
 1888              	.L210:
 1889 00a4 3C040000 		.word	.LC41
 1890 00a8 18000000 		.word	.LC1
 1891 00ac 48000000 		.word	.LC2
 1892 00b0 0084FFFF 		.word	-31744
 1893 00b4 2C040000 		.word	.LC40
 1894 00b8 8083FFFF 		.word	-31872
 1895              		.cfi_endproc
 1896              	.LFE49:
 1897              		.size	ssl_parse_client_dh_public, .-ssl_parse_client_dh_public
 1898 00bc AFF30080 		.section	.text.ssl_parse_encrypted_pms,"ax",%progbits
 1899              		.align	2
 1900              		.p2align 4,,15
 1901              		.thumb
 1902              		.thumb_func
 1903              		.type	ssl_parse_encrypted_pms, %function
 1904              	ssl_parse_encrypted_pms:
 1905              	.LFB50:
 1906              		.loc 1 2885 0
 1907              		.cfi_startproc
 1908              		@ args = 0, pretend = 0, frame = 104
 1909              		@ frame_needed = 0, uses_anonymous_args = 0
 1910              	.LVL260:
 1911 0000 2DE9F043 		push	{r4, r5, r6, r7, r8, r9, lr}
 1912              		.cfi_def_cfa_offset 28
 1913              		.cfi_offset 4, -28
 1914              		.cfi_offset 5, -24
 1915              		.cfi_offset 6, -20
 1916              		.cfi_offset 7, -16
 1917              		.cfi_offset 8, -12
 1918              		.cfi_offset 9, -8
 1919              		.cfi_offset 14, -4
 1920 0004 0F46     		mov	r7, r1
 1921              	.LBB99:
 1922              	.LBB100:
 1923              		.loc 2 1965 0
 1924 0006 D0F88410 		ldr	r1, [r0, #132]
 1925              	.LVL261:
 1926              	.LBE100:
 1927              	.LBE99:
 1928              		.loc 1 2885 0
 1929 000a 0646     		mov	r6, r0
 1930              	.LBB103:
 1931              	.LBB101:
 1932              		.loc 2 1965 0
 1933 000c D1F8C001 		ldr	r0, [r1, #448]
 1934              	.LVL262:
 1935              	.LBE101:
ARM GAS  C:\Users\jo\AppData\Local\Temp\ccgxU8bj.s 			page 35


 1936              	.LBE103:
 1937              		.loc 1 2885 0
 1938 0010 9FB0     		sub	sp, sp, #124
 1939              		.cfi_def_cfa_offset 152
 1940              		.loc 1 2885 0
 1941 0012 9146     		mov	r9, r2
 1942 0014 9846     		mov	r8, r3
 1943              	.LBB104:
 1944              	.LBB102:
 1945              		.loc 2 1966 0
 1946 0016 00B1     		cbz	r0, .L213
 1947 0018 4068     		ldr	r0, [r0, #4]
 1948              	.L213:
 1949              	.LVL263:
 1950              	.LBE102:
 1951              	.LBE104:
 1952              	.LBB105:
 1953              	.LBB106:
 1954              		.file 3 "../../../ext/mbedtls-1.3.11/library/../include/polarssl/pk.h"
 1955              		.loc 3 283 0
 1956 001a FFF7FEFF 		bl	pk_get_size
 1957              	.LVL264:
 1958              	.LBE106:
 1959              	.LBE105:
 1960              		.loc 1 2888 0
 1961 001e D6F88440 		ldr	r4, [r6, #132]
 1962              	.LBB108:
 1963              	.LBB109:
 1964              		.loc 2 1965 0
 1965 0022 D4F8C031 		ldr	r3, [r4, #448]
 1966              	.LBE109:
 1967              	.LBE108:
 1968              	.LBB112:
 1969              	.LBB107:
 1970              		.loc 3 283 0
 1971 0026 0730     		adds	r0, r0, #7
 1972 0028 C508     		lsrs	r5, r0, #3
 1973              	.LVL265:
 1974              	.LBE107:
 1975              	.LBE112:
 1976              	.LBB113:
 1977              	.LBB110:
 1978              		.loc 2 1966 0
 1979 002a 002B     		cmp	r3, #0
 1980 002c 00F08180 		beq	.L225
 1981 0030 5868     		ldr	r0, [r3, #4]
 1982              	.L214:
 1983              	.LBE110:
 1984              	.LBE113:
 1985              		.loc 1 2893 0
 1986 0032 0121     		movs	r1, #1
 1987 0034 FFF7FEFF 		bl	pk_can_do
 1988              	.LVL266:
 1989 0038 0028     		cmp	r0, #0
 1990 003a 00F08980 		beq	.L234
 1991              		.loc 1 2904 0
 1992 003e 3369     		ldr	r3, [r6, #16]
ARM GAS  C:\Users\jo\AppData\Local\Temp\ccgxU8bj.s 			page 36


 1993 0040 53B1     		cbz	r3, .L217
 1994              	.LVL267:
 1995              		.loc 1 2906 0
 1996 0042 3A78     		ldrb	r2, [r7]	@ zero_extendqisi2
 1997 0044 C5F30723 		ubfx	r3, r5, #8, #8
 1998 0048 9A42     		cmp	r2, r3
 1999 004a 56D1     		bne	.L218
 2000              		.loc 1 2907 0 discriminator 1
 2001 004c 7A78     		ldrb	r2, [r7, #1]	@ zero_extendqisi2
 2002 004e EBB2     		uxtb	r3, r5
 2003              		.loc 1 2906 0 discriminator 1
 2004 0050 9A42     		cmp	r2, r3
 2005              		.loc 1 2907 0 discriminator 1
 2006 0052 07F10207 		add	r7, r7, #2
 2007              	.LVL268:
 2008              		.loc 1 2906 0 discriminator 1
 2009 0056 50D1     		bne	.L218
 2010              	.L217:
 2011              		.loc 1 2915 0
 2012 0058 7B19     		adds	r3, r7, r5
 2013 005a 9945     		cmp	r9, r3
 2014 005c 5AD1     		bne	.L235
 2015              		.loc 1 2928 0
 2016 005e B36A     		ldr	r3, [r6, #40]
 2017 0060 306C     		ldr	r0, [r6, #64]
 2018 0062 06A9     		add	r1, sp, #24
 2019 0064 3022     		movs	r2, #48
 2020 0066 9847     		blx	r3
 2021              	.LVL269:
 2022              		.loc 1 2929 0
 2023 0068 0028     		cmp	r0, #0
 2024 006a 43D1     		bne	.L216
 2025              	.LVL270:
 2026              	.LBB114:
 2027              	.LBB115:
 2028              		.loc 2 1965 0
 2029 006c D6F88430 		ldr	r3, [r6, #132]
 2030 0070 D3F8C001 		ldr	r0, [r3, #448]
 2031              	.LVL271:
 2032              		.loc 2 1966 0
 2033 0074 00B1     		cbz	r0, .L220
 2034 0076 4068     		ldr	r0, [r0, #4]
 2035              	.L220:
 2036              	.LBE115:
 2037              	.LBE114:
 2038              		.loc 1 2932 0
 2039 0078 B36A     		ldr	r3, [r6, #40]
 2040 007a 316C     		ldr	r1, [r6, #64]
 2041 007c 0391     		str	r1, [sp, #12]
 2042 007e 05AA     		add	r2, sp, #20
 2043 0080 4FF03009 		mov	r9, #48
 2044              	.LVL272:
 2045 0084 0092     		str	r2, [sp]
 2046 0086 0293     		str	r3, [sp, #8]
 2047 0088 2A46     		mov	r2, r5
 2048 008a 12AB     		add	r3, sp, #72
 2049 008c 3946     		mov	r1, r7
ARM GAS  C:\Users\jo\AppData\Local\Temp\ccgxU8bj.s 			page 37


 2050 008e CDF80490 		str	r9, [sp, #4]
 2051 0092 FFF7FEFF 		bl	pk_decrypt
 2052              	.LVL273:
 2053              		.loc 1 2947 0
 2054 0096 40F22443 		movw	r3, #1060
 2055 009a 9845     		cmp	r8, r3
 2056              		.loc 1 2939 0
 2057 009c D6F88420 		ldr	r2, [r6, #132]
 2058              	.LVL274:
 2059              		.loc 1 2947 0
 2060 00a0 49D8     		bhi	.L221
 2061              		.loc 1 2948 0 discriminator 1
 2062 00a2 C8F58463 		rsb	r3, r8, #1056
 2063 00a6 0433     		adds	r3, r3, #4
 2064              		.loc 1 2947 0 discriminator 1
 2065 00a8 2F2B     		cmp	r3, #47
 2066 00aa 44D9     		bls	.L221
 2067              		.loc 1 2956 0
 2068 00ac 0028     		cmp	r0, #0
 2069 00ae 14BF     		ite	ne
 2070 00b0 FF20     		movne	r0, #255
 2071 00b2 0020     		moveq	r0, #0
 2072              	.LVL275:
 2073 00b4 08F29368 		addw	r8, r8, #1683
 2074              	.LVL276:
 2075 00b8 6FEA000E 		mvn	lr, r0
 2076 00bc 4444     		add	r4, r4, r8
 2077              	.LVL277:
 2078              		.loc 1 2953 0
 2079 00be C2F85096 		str	r9, [r2, #1616]
 2080              	.LVL278:
 2081 00c2 5FFA8EFE 		uxtb	lr, lr
 2082 00c6 0DF11707 		add	r7, sp, #23
 2083              	.LVL279:
 2084 00ca 0DF14705 		add	r5, sp, #71
 2085              		.loc 1 2956 0
 2086 00ce 0021     		movs	r1, #0
 2087              	.LVL280:
 2088              	.L223:
 2089              		.loc 1 2958 0 discriminator 3
 2090 00d0 15F8012F 		ldrb	r2, [r5, #1]!	@ zero_extendqisi2
 2091 00d4 17F8013F 		ldrb	r3, [r7, #1]!	@ zero_extendqisi2
 2092 00d8 0EEA0202 		and	r2, lr, r2
 2093 00dc 0340     		ands	r3, r3, r0
 2094 00de 1343     		orrs	r3, r3, r2
 2095 00e0 04F8013F 		strb	r3, [r4, #1]!
 2096              		.loc 1 2957 0 discriminator 3
 2097 00e4 D6F88430 		ldr	r3, [r6, #132]
 2098 00e8 D3F85036 		ldr	r3, [r3, #1616]
 2099 00ec 0131     		adds	r1, r1, #1
 2100              	.LVL281:
 2101 00ee 8B42     		cmp	r3, r1
 2102 00f0 EED8     		bhi	.L223
 2103              		.loc 1 2960 0
 2104 00f2 0020     		movs	r0, #0
 2105              	.LVL282:
 2106              	.L216:
ARM GAS  C:\Users\jo\AppData\Local\Temp\ccgxU8bj.s 			page 38


 2107              		.loc 1 2961 0
 2108 00f4 1FB0     		add	sp, sp, #124
 2109              		.cfi_remember_state
 2110              		.cfi_def_cfa_offset 28
 2111              		@ sp needed
 2112 00f6 BDE8F083 		pop	{r4, r5, r6, r7, r8, r9, pc}
 2113              	.LVL283:
 2114              	.L218:
 2115              		.cfi_restore_state
 2116              		.loc 1 2909 0
 2117 00fa 1C48     		ldr	r0, .L236
 2118 00fc FFF7FEFF 		bl	debug_fmt
 2119              	.LVL284:
 2120 0100 0121     		movs	r1, #1
 2121 0102 0090     		str	r0, [sp]
 2122 0104 1A4A     		ldr	r2, .L236+4
 2123 0106 3046     		mov	r0, r6
 2124 0108 40F65D33 		movw	r3, #2909
 2125 010c FFF7FEFF 		bl	debug_print_msg
 2126              	.LVL285:
 2127              		.loc 1 2910 0
 2128 0110 1848     		ldr	r0, .L236+8
 2129 0112 EFE7     		b	.L216
 2130              	.LVL286:
 2131              	.L235:
 2132              		.loc 1 2917 0
 2133 0114 1548     		ldr	r0, .L236
 2134 0116 FFF7FEFF 		bl	debug_fmt
 2135              	.LVL287:
 2136 011a 0121     		movs	r1, #1
 2137 011c 0090     		str	r0, [sp]
 2138 011e 144A     		ldr	r2, .L236+4
 2139 0120 3046     		mov	r0, r6
 2140 0122 40F66533 		movw	r3, #2917
 2141 0126 FFF7FEFF 		bl	debug_print_msg
 2142              	.LVL288:
 2143              		.loc 1 2918 0
 2144 012a 1248     		ldr	r0, .L236+8
 2145              		.loc 1 2961 0
 2146 012c 1FB0     		add	sp, sp, #124
 2147              		.cfi_remember_state
 2148              		.cfi_def_cfa_offset 28
 2149              		@ sp needed
 2150 012e BDE8F083 		pop	{r4, r5, r6, r7, r8, r9, pc}
 2151              	.LVL289:
 2152              	.L225:
 2153              		.cfi_restore_state
 2154              	.LBB116:
 2155              	.LBB111:
 2156              		.loc 2 1966 0
 2157 0132 1846     		mov	r0, r3
 2158 0134 7DE7     		b	.L214
 2159              	.LVL290:
 2160              	.L221:
 2161              	.LBE111:
 2162              	.LBE116:
 2163              		.loc 1 2950 0
ARM GAS  C:\Users\jo\AppData\Local\Temp\ccgxU8bj.s 			page 39


 2164 0136 1048     		ldr	r0, .L236+12
 2165              	.LVL291:
 2166 0138 FFF7FEFF 		bl	debug_fmt
 2167              	.LVL292:
 2168 013c 0121     		movs	r1, #1
 2169 013e 0090     		str	r0, [sp]
 2170 0140 0B4A     		ldr	r2, .L236+4
 2171 0142 3046     		mov	r0, r6
 2172 0144 40F68633 		movw	r3, #2950
 2173 0148 FFF7FEFF 		bl	debug_print_msg
 2174              	.LVL293:
 2175              		.loc 1 2951 0
 2176 014c 0B48     		ldr	r0, .L236+16
 2177 014e D1E7     		b	.L216
 2178              	.LVL294:
 2179              	.L234:
 2180              		.loc 1 2895 0
 2181 0150 0B48     		ldr	r0, .L236+20
 2182 0152 FFF7FEFF 		bl	debug_fmt
 2183              	.LVL295:
 2184 0156 0121     		movs	r1, #1
 2185 0158 0090     		str	r0, [sp]
 2186 015a 054A     		ldr	r2, .L236+4
 2187 015c 3046     		mov	r0, r6
 2188 015e 40F64F33 		movw	r3, #2895
 2189 0162 FFF7FEFF 		bl	debug_print_msg
 2190              	.LVL296:
 2191              		.loc 1 2896 0
 2192 0166 0748     		ldr	r0, .L236+24
 2193 0168 C4E7     		b	.L216
 2194              	.L237:
 2195 016a 00BF     		.align	2
 2196              	.L236:
 2197 016c 48000000 		.word	.LC2
 2198 0170 18000000 		.word	.LC1
 2199 0174 0084FFFF 		.word	-31744
 2200 0178 80000000 		.word	.LC4
 2201 017c 0094FFFF 		.word	-27648
 2202 0180 44040000 		.word	.LC42
 2203 0184 008AFFFF 		.word	-30208
 2204              		.cfi_endproc
 2205              	.LFE50:
 2206              		.size	ssl_parse_encrypted_pms, .-ssl_parse_encrypted_pms
 2207 0188 AFF30080 		.section	.text.ssl_parse_client_hello,"ax",%progbits
 2207      AFF30080 
 2208              		.align	2
 2209              		.p2align 4,,15
 2210              		.thumb
 2211              		.thumb_func
 2212              		.type	ssl_parse_client_hello, %function
 2213              	ssl_parse_client_hello:
 2214              	.LFB35:
 2215              		.loc 1 1269 0
 2216              		.cfi_startproc
 2217              		@ args = 0, pretend = 0, frame = 184
 2218              		@ frame_needed = 0, uses_anonymous_args = 0
 2219              	.LVL297:
ARM GAS  C:\Users\jo\AppData\Local\Temp\ccgxU8bj.s 			page 40


 2220 0000 2DE9F04F 		push	{r4, r5, r6, r7, r8, r9, r10, fp, lr}
 2221              		.cfi_def_cfa_offset 36
 2222              		.cfi_offset 4, -36
 2223              		.cfi_offset 5, -32
 2224              		.cfi_offset 6, -28
 2225              		.cfi_offset 7, -24
 2226              		.cfi_offset 8, -20
 2227              		.cfi_offset 9, -16
 2228              		.cfi_offset 10, -12
 2229              		.cfi_offset 11, -8
 2230              		.cfi_offset 14, -4
 2231 0004 0646     		mov	r6, r0
 2232 0006 B3B0     		sub	sp, sp, #204
 2233              		.cfi_def_cfa_offset 240
 2234              		.loc 1 1284 0
 2235 0008 CD48     		ldr	r0, .L574
 2236              	.LVL298:
 2237 000a FFF7FEFF 		bl	debug_fmt
 2238              	.LVL299:
 2239 000e 40F20453 		movw	r3, #1284
 2240 0012 0090     		str	r0, [sp]
 2241 0014 0221     		movs	r1, #2
 2242 0016 CB4A     		ldr	r2, .L574+4
 2243 0018 3046     		mov	r0, r6
 2244 001a FFF7FEFF 		bl	debug_print_msg
 2245              	.LVL300:
 2246              		.loc 1 1287 0
 2247 001e 7368     		ldr	r3, [r6, #4]
 2248 0020 002B     		cmp	r3, #0
 2249 0022 00F03D85 		beq	.L533
 2250              	.L239:
 2251              		.loc 1 1297 0
 2252 0026 D6F89C40 		ldr	r4, [r6, #156]
 2253              	.LVL301:
 2254              		.loc 1 1300 0
 2255 002a 94F90030 		ldrsb	r3, [r4]
 2256 002e 002B     		cmp	r3, #0
 2257 0030 C0F27485 		blt	.L534
 2258              		.loc 1 1304 0
 2259 0034 C44A     		ldr	r2, .L574+8
 2260 0036 0092     		str	r2, [sp]
 2261 0038 0523     		movs	r3, #5
 2262 003a C24A     		ldr	r2, .L574+4
 2263 003c 0293     		str	r3, [sp, #8]
 2264 003e 3046     		mov	r0, r6
 2265 0040 4FF4A363 		mov	r3, #1304
 2266 0044 0421     		movs	r1, #4
 2267 0046 0194     		str	r4, [sp, #4]
 2268 0048 FFF7FEFF 		bl	debug_print_buf
 2269              	.LVL302:
 2270              		.loc 1 1306 0
 2271 004c 2178     		ldrb	r1, [r4]	@ zero_extendqisi2
 2272 004e BF48     		ldr	r0, .L574+12
 2273 0050 FFF7FEFF 		bl	debug_fmt
 2274              	.LVL303:
 2275 0054 BB4A     		ldr	r2, .L574+4
 2276 0056 0090     		str	r0, [sp]
ARM GAS  C:\Users\jo\AppData\Local\Temp\ccgxU8bj.s 			page 41


 2277 0058 0321     		movs	r1, #3
 2278 005a 3046     		mov	r0, r6
 2279 005c 40F21B53 		movw	r3, #1307
 2280 0060 FFF7FEFF 		bl	debug_print_msg
 2281              	.LVL304:
 2282              		.loc 1 1308 0
 2283 0064 2379     		ldrb	r3, [r4, #4]	@ zero_extendqisi2
 2284 0066 E178     		ldrb	r1, [r4, #3]	@ zero_extendqisi2
 2285 0068 B948     		ldr	r0, .L574+16
 2286 006a 43EA0121 		orr	r1, r3, r1, lsl #8
 2287 006e FFF7FEFF 		bl	debug_fmt
 2288              	.LVL305:
 2289 0072 40F21D53 		movw	r3, #1309
 2290 0076 0321     		movs	r1, #3
 2291 0078 0090     		str	r0, [sp]
 2292 007a B24A     		ldr	r2, .L574+4
 2293 007c 3046     		mov	r0, r6
 2294 007e FFF7FEFF 		bl	debug_print_msg
 2295              	.LVL306:
 2296              		.loc 1 1310 0
 2297 0082 6178     		ldrb	r1, [r4, #1]	@ zero_extendqisi2
 2298 0084 A278     		ldrb	r2, [r4, #2]	@ zero_extendqisi2
 2299 0086 B348     		ldr	r0, .L574+20
 2300 0088 FFF7FEFF 		bl	debug_fmt
 2301              	.LVL307:
 2302 008c 40F21F53 		movw	r3, #1311
 2303 0090 0090     		str	r0, [sp]
 2304 0092 0321     		movs	r1, #3
 2305 0094 AB4A     		ldr	r2, .L574+4
 2306 0096 3046     		mov	r0, r6
 2307 0098 FFF7FEFF 		bl	debug_print_msg
 2308              	.LVL308:
 2309              		.loc 1 1326 0
 2310 009c 2378     		ldrb	r3, [r4]	@ zero_extendqisi2
 2311 009e 162B     		cmp	r3, #22
 2312 00a0 41F01980 		bne	.L270
 2313              		.loc 1 1326 0 is_stmt 0 discriminator 1
 2314 00a4 6378     		ldrb	r3, [r4, #1]	@ zero_extendqisi2
 2315 00a6 022B     		cmp	r3, #2
 2316 00a8 41F21580 		bls	.L270
 2317              		.loc 1 1333 0 is_stmt 1
 2318 00ac 2379     		ldrb	r3, [r4, #4]	@ zero_extendqisi2
 2319 00ae E178     		ldrb	r1, [r4, #3]	@ zero_extendqisi2
 2320 00b0 43EA0121 		orr	r1, r3, r1, lsl #8
 2321              	.LVL309:
 2322              		.loc 1 1335 0
 2323 00b4 A1F12D02 		sub	r2, r1, #45
 2324 00b8 43F6D373 		movw	r3, #16339
 2325 00bc 9A42     		cmp	r2, r3
 2326 00be 01F2F681 		bhi	.L535
 2327              		.loc 1 1342 0
 2328 00c2 7368     		ldr	r3, [r6, #4]
 2329 00c4 002B     		cmp	r3, #0
 2330 00c6 00F0F781 		beq	.L536
 2331              		.loc 1 1352 0
 2332 00ca D6F8A470 		ldr	r7, [r6, #164]
 2333              	.LVL310:
ARM GAS  C:\Users\jo\AppData\Local\Temp\ccgxU8bj.s 			page 42


 2334              	.L417:
 2335              		.loc 1 1355 0
 2336 00ce D6F8B040 		ldr	r4, [r6, #176]
 2337              	.LVL311:
 2338              	.L276:
 2339              		.loc 1 1360 0
 2340 00d2 D6F88430 		ldr	r3, [r6, #132]
 2341 00d6 3046     		mov	r0, r6
 2342 00d8 D3F84036 		ldr	r3, [r3, #1600]
 2343 00dc 3946     		mov	r1, r7
 2344 00de 2246     		mov	r2, r4
 2345 00e0 9847     		blx	r3
 2346              	.LVL312:
 2347              		.loc 1 1377 0
 2348 00e2 9D4B     		ldr	r3, .L574+24
 2349 00e4 974A     		ldr	r2, .L574+4
 2350 00e6 0093     		str	r3, [sp]
 2351 00e8 3046     		mov	r0, r6
 2352 00ea 40F26153 		movw	r3, #1377
 2353 00ee 0421     		movs	r1, #4
 2354 00f0 0197     		str	r7, [sp, #4]
 2355 00f2 0294     		str	r4, [sp, #8]
 2356 00f4 FFF7FEFF 		bl	debug_print_buf
 2357              	.LVL313:
 2358              		.loc 1 1379 0
 2359 00f8 3978     		ldrb	r1, [r7]	@ zero_extendqisi2
 2360 00fa 9848     		ldr	r0, .L574+28
 2361 00fc FFF7FEFF 		bl	debug_fmt
 2362              	.LVL314:
 2363 0100 0321     		movs	r1, #3
 2364 0102 0090     		str	r0, [sp]
 2365 0104 8F4A     		ldr	r2, .L574+4
 2366 0106 3046     		mov	r0, r6
 2367 0108 40F26453 		movw	r3, #1380
 2368 010c FFF7FEFF 		bl	debug_print_msg
 2369              	.LVL315:
 2370              		.loc 1 1381 0
 2371 0110 BB78     		ldrb	r3, [r7, #2]	@ zero_extendqisi2
 2372 0112 7A78     		ldrb	r2, [r7, #1]	@ zero_extendqisi2
 2373 0114 F978     		ldrb	r1, [r7, #3]	@ zero_extendqisi2
 2374 0116 9248     		ldr	r0, .L574+32
 2375 0118 1B02     		lsls	r3, r3, #8
 2376 011a 43EA0243 		orr	r3, r3, r2, lsl #16
 2377 011e 1943     		orrs	r1, r1, r3
 2378 0120 FFF7FEFF 		bl	debug_fmt
 2379              	.LVL316:
 2380 0124 40F26653 		movw	r3, #1382
 2381 0128 0321     		movs	r1, #3
 2382 012a 0090     		str	r0, [sp]
 2383 012c 854A     		ldr	r2, .L574+4
 2384 012e 3046     		mov	r0, r6
 2385 0130 FFF7FEFF 		bl	debug_print_msg
 2386              	.LVL317:
 2387              		.loc 1 1383 0
 2388 0134 3979     		ldrb	r1, [r7, #4]	@ zero_extendqisi2
 2389 0136 7A79     		ldrb	r2, [r7, #5]	@ zero_extendqisi2
 2390 0138 8A48     		ldr	r0, .L574+36
ARM GAS  C:\Users\jo\AppData\Local\Temp\ccgxU8bj.s 			page 43


 2391 013a FFF7FEFF 		bl	debug_fmt
 2392              	.LVL318:
 2393 013e 4FF4AD63 		mov	r3, #1384
 2394 0142 0090     		str	r0, [sp]
 2395 0144 0321     		movs	r1, #3
 2396 0146 7F4A     		ldr	r2, .L574+4
 2397 0148 3046     		mov	r0, r6
 2398 014a FFF7FEFF 		bl	debug_print_msg
 2399              	.LVL319:
 2400              		.loc 1 1389 0
 2401 014e 3B78     		ldrb	r3, [r7]	@ zero_extendqisi2
 2402 0150 012B     		cmp	r3, #1
 2403 0152 41F0EB80 		bne	.L537
 2404              		.loc 1 1395 0
 2405 0156 3979     		ldrb	r1, [r7, #4]	@ zero_extendqisi2
 2406              		.loc 1 1401 0
 2407 0158 F369     		ldr	r3, [r6, #28]
 2408              		.loc 1 1395 0
 2409 015a F160     		str	r1, [r6, #12]
 2410              		.loc 1 1398 0
 2411 015c D6F88400 		ldr	r0, [r6, #132]
 2412              		.loc 1 1396 0
 2413 0160 7A79     		ldrb	r2, [r7, #5]	@ zero_extendqisi2
 2414 0162 3261     		str	r2, [r6, #16]
 2415              		.loc 1 1401 0
 2416 0164 9942     		cmp	r1, r3
 2417              		.loc 1 1399 0
 2418 0166 C0F8C02A 		str	r2, [r0, #2752]
 2419              		.loc 1 1398 0
 2420 016a C0F8BC1A 		str	r1, [r0, #2748]
 2421 016e 356A     		ldr	r5, [r6, #32]
 2422              		.loc 1 1401 0
 2423 0170 C1F28D80 		blt	.L279
 2424              		.loc 1 1401 0 is_stmt 0 discriminator 1
 2425 0174 AA42     		cmp	r2, r5
 2426 0176 C1F28A80 		blt	.L279
 2427              		.loc 1 1415 0 is_stmt 1
 2428 017a 7369     		ldr	r3, [r6, #20]
 2429 017c 9942     		cmp	r1, r3
 2430 017e 40F38984 		ble	.L281
 2431              		.loc 1 1418 0
 2432 0182 B269     		ldr	r2, [r6, #24]
 2433              		.loc 1 1417 0
 2434 0184 F360     		str	r3, [r6, #12]
 2435              		.loc 1 1418 0
 2436 0186 3261     		str	r2, [r6, #16]
 2437              	.L282:
 2438              		.loc 1 1423 0
 2439 0188 3D46     		mov	r5, r7
 2440 018a 55F806EF 		ldr	lr, [r5, #6]!	@ unaligned
 2441 018e 6968     		ldr	r1, [r5, #4]	@ unaligned
 2442 0190 AA68     		ldr	r2, [r5, #8]	@ unaligned
 2443 0192 D5F80CC0 		ldr	ip, [r5, #12]	@ unaligned
 2444 0196 C0F860C6 		str	ip, [r0, #1632]	@ unaligned
 2445 019a C0F854E6 		str	lr, [r0, #1620]	@ unaligned
 2446 019e C0F85816 		str	r1, [r0, #1624]	@ unaligned
 2447 01a2 C0F85C26 		str	r2, [r0, #1628]	@ unaligned
ARM GAS  C:\Users\jo\AppData\Local\Temp\ccgxU8bj.s 			page 44


 2448 01a6 6969     		ldr	r1, [r5, #20]	@ unaligned
 2449 01a8 D5F810E0 		ldr	lr, [r5, #16]	@ unaligned
 2450 01ac AA69     		ldr	r2, [r5, #24]	@ unaligned
 2451 01ae D5F81CC0 		ldr	ip, [r5, #28]	@ unaligned
 2452 01b2 C0F870C6 		str	ip, [r0, #1648]	@ unaligned
 2453 01b6 C0F864E6 		str	lr, [r0, #1636]	@ unaligned
 2454 01ba C0F86816 		str	r1, [r0, #1640]	@ unaligned
 2455 01be C0F86C26 		str	r2, [r0, #1644]	@ unaligned
 2456              		.loc 1 1428 0
 2457 01c2 7978     		ldrb	r1, [r7, #1]	@ zero_extendqisi2
 2458 01c4 0029     		cmp	r1, #0
 2459 01c6 40F07887 		bne	.L283
 2460              		.loc 1 1428 0 is_stmt 0 discriminator 1
 2461 01ca FB78     		ldrb	r3, [r7, #3]	@ zero_extendqisi2
 2462 01cc BA78     		ldrb	r2, [r7, #2]	@ zero_extendqisi2
 2463 01ce 43EA0222 		orr	r2, r3, r2, lsl #8
 2464 01d2 131D     		adds	r3, r2, #4
 2465 01d4 A342     		cmp	r3, r4
 2466 01d6 40F07087 		bne	.L283
 2467              		.loc 1 1437 0 is_stmt 1
 2468 01da 97F82680 		ldrb	r8, [r7, #38]	@ zero_extendqisi2
 2469              	.LVL320:
 2470              		.loc 1 1439 0
 2471 01de B8F1200F 		cmp	r8, #32
 2472 01e2 00F28687 		bhi	.L285
 2473              		.loc 1 1439 0 is_stmt 0 discriminator 1
 2474 01e6 263A     		subs	r2, r2, #38
 2475 01e8 9045     		cmp	r8, r2
 2476 01ea 00F28287 		bhi	.L285
 2477              		.loc 1 1445 0 is_stmt 1
 2478 01ee D6F88000 		ldr	r0, [r6, #128]
 2479 01f2 0593     		str	r3, [sp, #20]
 2480 01f4 C0F80C80 		str	r8, [r0, #12]
 2481              		.loc 1 1446 0
 2482 01f8 2022     		movs	r2, #32
 2483 01fa 1030     		adds	r0, r0, #16
 2484 01fc FFF7FEFF 		bl	memset
 2485              	.LVL321:
 2486              		.loc 1 1448 0
 2487 0200 D6F88020 		ldr	r2, [r6, #128]
 2488 0204 07F12701 		add	r1, r7, #39
 2489 0208 02F11000 		add	r0, r2, #16
 2490 020c D268     		ldr	r2, [r2, #12]
 2491 020e FFF7FEFF 		bl	memcpy
 2492              	.LVL322:
 2493              		.loc 1 1454 0
 2494 0212 07EB0802 		add	r2, r7, r8
 2495 0216 92F82710 		ldrb	r1, [r2, #39]	@ zero_extendqisi2
 2496              		.loc 1 1455 0
 2497 021a 92F82820 		ldrb	r2, [r2, #40]	@ zero_extendqisi2
 2498 021e 42EA0123 		orr	r3, r2, r1, lsl #8
 2499              		.loc 1 1457 0
 2500 0222 012B     		cmp	r3, #1
 2501              		.loc 1 1455 0
 2502 0224 0493     		str	r3, [sp, #16]
 2503              	.LVL323:
 2504              		.loc 1 1457 0
ARM GAS  C:\Users\jo\AppData\Local\Temp\ccgxU8bj.s 			page 45


 2505 0226 41F31680 		ble	.L287
 2506              		.loc 1 1457 0 is_stmt 0 discriminator 1
 2507 022a 1A46     		mov	r2, r3
 2508 022c D207     		lsls	r2, r2, #31
 2509 022e 01F11280 		bmi	.L287
 2510 0232 6FF02902 		mvn	r2, #41
 2511 0236 C8EB0202 		rsb	r2, r8, r2
 2512              		.loc 1 1457 0 discriminator 2
 2513 023a 2244     		add	r2, r2, r4
 2514 023c 9342     		cmp	r3, r2
 2515 023e 059B     		ldr	r3, [sp, #20]
 2516              	.LVL324:
 2517 0240 01F20980 		bhi	.L287
 2518              		.loc 1 1466 0 is_stmt 1
 2519 0244 0498     		ldr	r0, [sp, #16]
 2520 0246 00EB0809 		add	r9, r0, r8
 2521 024a 07EB0901 		add	r1, r7, r9
 2522 024e 91F829C0 		ldrb	ip, [r1, #41]	@ zero_extendqisi2
 2523              	.LVL325:
 2524              		.loc 1 1468 0
 2525 0252 0CF1FF31 		add	r1, ip, #-1
 2526 0256 0F29     		cmp	r1, #15
 2527 0258 01F2F980 		bhi	.L289
 2528              		.loc 1 1469 0 discriminator 1
 2529 025c 121A     		subs	r2, r2, r0
 2530              		.loc 1 1468 0 discriminator 1
 2531 025e 9445     		cmp	ip, r2
 2532 0260 01F2F580 		bhi	.L289
 2533              		.loc 1 1478 0
 2534 0264 0CEB090A 		add	r10, ip, r9
 2535 0268 0AF12A01 		add	r1, r10, #42
 2536 026c 8C42     		cmp	r4, r1
 2537 026e 40F2BF84 		bls	.L426
 2538              		.loc 1 1481 0
 2539 0272 07EB0A02 		add	r2, r7, r10
 2540              		.loc 1 1480 0
 2541 0276 795C     		ldrb	r1, [r7, r1]	@ zero_extendqisi2
 2542              		.loc 1 1481 0
 2543 0278 92F82B20 		ldrb	r2, [r2, #43]	@ zero_extendqisi2
 2544 027c 42EA012B 		orr	fp, r2, r1, lsl #8
 2545              	.LVL326:
 2546              		.loc 1 1483 0
 2547 0280 0BF1FF32 		add	r2, fp, #-1
 2548 0284 022A     		cmp	r2, #2
 2549 0286 98BF     		it	ls
 2550 0288 0AF12C0A 		addls	r10, r10, #44
 2551 028c 41F21680 		bls	.L293
 2552 0290 0AF12C02 		add	r2, r10, #44
 2553              		.loc 1 1484 0 discriminator 1
 2554 0294 0BEB0201 		add	r1, fp, r2
 2555              		.loc 1 1483 0 discriminator 1
 2556 0298 8B42     		cmp	r3, r1
 2557 029a 41F00E80 		bne	.L538
 2558              	.LVL327:
 2559              	.L291:
 2560              		.loc 1 1492 0
 2561 029e D6F88010 		ldr	r1, [r6, #128]
ARM GAS  C:\Users\jo\AppData\Local\Temp\ccgxU8bj.s 			page 46


 2562              		.loc 1 1504 0
 2563 02a2 3148     		ldr	r0, .L574+40
 2564 02a4 274A     		ldr	r2, .L574+4
 2565 02a6 CDF814C0 		str	ip, [sp, #20]
 2566              	.LVL328:
 2567 02aa 2023     		movs	r3, #32
 2568              		.loc 1 1492 0
 2569 02ac 0024     		movs	r4, #0
 2570              	.LVL329:
 2571 02ae 8C60     		str	r4, [r1, #8]
 2572              		.loc 1 1504 0
 2573 02b0 8DE82100 		stmia	sp, {r0, r5}
 2574 02b4 0293     		str	r3, [sp, #8]
 2575 02b6 3046     		mov	r0, r6
 2576 02b8 0321     		movs	r1, #3
 2577 02ba 40F2E153 		movw	r3, #1505
 2578 02be FFF7FEFF 		bl	debug_print_buf
 2579              	.LVL330:
 2580              		.loc 1 1506 0
 2581 02c2 2A4A     		ldr	r2, .L574+44
 2582 02c4 CDF80880 		str	r8, [sp, #8]
 2583 02c8 07F12603 		add	r3, r7, #38
 2584 02cc 8DE80C00 		stmia	sp, {r2, r3}
 2585 02d0 3046     		mov	r0, r6
 2586 02d2 0321     		movs	r1, #3
 2587 02d4 1B4A     		ldr	r2, .L574+4
 2588 02d6 40F2E353 		movw	r3, #1507
 2589              		.loc 1 1508 0
 2590 02da 08F12908 		add	r8, r8, #41
 2591              	.LVL331:
 2592              		.loc 1 1506 0
 2593 02de FFF7FEFF 		bl	debug_print_buf
 2594              	.LVL332:
 2595              		.loc 1 1508 0
 2596 02e2 07EB0803 		add	r3, r7, r8
 2597 02e6 1D46     		mov	r5, r3
 2598 02e8 049A     		ldr	r2, [sp, #16]
 2599 02ea 0993     		str	r3, [sp, #36]
 2600 02ec 204B     		ldr	r3, .L574+48
 2601 02ee 0195     		str	r5, [sp, #4]
 2602 02f0 0292     		str	r2, [sp, #8]
 2603 02f2 0093     		str	r3, [sp]
 2604 02f4 3046     		mov	r0, r6
 2605 02f6 0321     		movs	r1, #3
 2606 02f8 124A     		ldr	r2, .L574+4
 2607 02fa 40F2E553 		movw	r3, #1509
 2608 02fe FFF7FEFF 		bl	debug_print_buf
 2609              	.LVL333:
 2610              		.loc 1 1510 0
 2611 0302 09F12A03 		add	r3, r9, #42
 2612 0306 3B44     		add	r3, r3, r7
 2613 0308 1A4A     		ldr	r2, .L574+52
 2614 030a DDF814C0 		ldr	ip, [sp, #20]
 2615 030e 0193     		str	r3, [sp, #4]
 2616 0310 0092     		str	r2, [sp]
 2617 0312 0321     		movs	r1, #3
 2618 0314 40F2E753 		movw	r3, #1511
ARM GAS  C:\Users\jo\AppData\Local\Temp\ccgxU8bj.s 			page 47


 2619 0318 CDF808C0 		str	ip, [sp, #8]
 2620 031c 3046     		mov	r0, r6
 2621 031e 094A     		ldr	r2, .L574+4
 2622 0320 FFF7FEFF 		bl	debug_print_buf
 2623              	.LVL334:
 2624 0324 0235     		adds	r5, r5, #2
 2625              	.LVL335:
 2626 0326 0499     		ldr	r1, [sp, #16]
 2627 0328 2B46     		mov	r3, r5
 2628              	.LVL336:
 2629              	.L297:
 2630              		.loc 1 1518 0
 2631 032a 13F8022C 		ldrb	r2, [r3, #-2]	@ zero_extendqisi2
 2632              		.loc 1 1516 0
 2633 032e 0234     		adds	r4, r4, #2
 2634              	.LVL337:
 2635              		.loc 1 1518 0
 2636 0330 12BB     		cbnz	r2, .L294
 2637              		.loc 1 1518 0 is_stmt 0 discriminator 1
 2638 0332 13F8012C 		ldrb	r2, [r3, #-1]	@ zero_extendqisi2
 2639 0336 FF2A     		cmp	r2, #255
 2640 0338 00F04584 		beq	.L539
 2641 033c 1CE0     		b	.L575
 2642              	.L576:
 2643 033e 00BF     		.align	2
 2644              	.L574:
 2645 0340 5C040000 		.word	.LC43
 2646 0344 18000000 		.word	.LC1
 2647 0348 CC040000 		.word	.LC47
 2648 034c 80070000 		.word	.LC67
 2649 0350 A4070000 		.word	.LC68
 2650 0354 C8070000 		.word	.LC69
 2651 0358 A8050000 		.word	.LC53
 2652 035c F0070000 		.word	.LC70
 2653 0360 14080000 		.word	.LC71
 2654 0364 38080000 		.word	.LC72
 2655 0368 64080000 		.word	.LC74
 2656 036c 04060000 		.word	.LC56
 2657 0370 E4050000 		.word	.LC55
 2658 0374 80080000 		.word	.LC75
 2659              	.L575:
 2660              	.L294:
 2661              		.loc 1 1516 0 is_stmt 1 discriminator 2
 2662 0378 A142     		cmp	r1, r4
 2663 037a 03F10203 		add	r3, r3, #2
 2664 037e D4D8     		bhi	.L297
 2665              		.loc 1 1278 0
 2666 0380 0023     		movs	r3, #0
 2667 0382 0893     		str	r3, [sp, #32]
 2668              	.LVL338:
 2669              	.L296:
 2670              		.loc 1 1539 0
 2671 0384 0023     		movs	r3, #0
 2672 0386 049A     		ldr	r2, [sp, #16]
 2673 0388 03E0     		b	.L302
 2674              	.LVL339:
 2675              	.L298:
ARM GAS  C:\Users\jo\AppData\Local\Temp\ccgxU8bj.s 			page 48


 2676              		.loc 1 1539 0 is_stmt 0 discriminator 2
 2677 038a 9A42     		cmp	r2, r3
 2678 038c 05F10205 		add	r5, r5, #2
 2679 0390 1AD9     		bls	.L303
 2680              	.LVL340:
 2681              	.L302:
 2682              		.loc 1 1541 0 is_stmt 1
 2683 0392 15F8024C 		ldrb	r4, [r5, #-2]	@ zero_extendqisi2
 2684 0396 562C     		cmp	r4, #86
 2685              		.loc 1 1539 0
 2686 0398 03F10203 		add	r3, r3, #2
 2687              	.LVL341:
 2688              		.loc 1 1541 0
 2689 039c F5D1     		bne	.L298
 2690              		.loc 1 1541 0 is_stmt 0 discriminator 1
 2691 039e 15F8011C 		ldrb	r1, [r5, #-1]	@ zero_extendqisi2
 2692 03a2 0029     		cmp	r1, #0
 2693 03a4 F1D1     		bne	.L298
 2694              		.loc 1 1544 0 is_stmt 1
 2695 03a6 C248     		ldr	r0, .L577
 2696 03a8 8846     		mov	r8, r1
 2697              	.LVL342:
 2698 03aa FFF7FEFF 		bl	debug_fmt
 2699              	.LVL343:
 2700 03ae C14A     		ldr	r2, .L577+4
 2701 03b0 0090     		str	r0, [sp]
 2702 03b2 4FF4C163 		mov	r3, #1544
 2703 03b6 4146     		mov	r1, r8
 2704 03b8 3046     		mov	r0, r6
 2705 03ba FFF7FEFF 		bl	debug_print_msg
 2706              	.LVL344:
 2707              		.loc 1 1546 0
 2708 03be 3269     		ldr	r2, [r6, #16]
 2709 03c0 B369     		ldr	r3, [r6, #24]
 2710 03c2 9A42     		cmp	r2, r3
 2711 03c4 C1F2D681 		blt	.L299
 2712              	.L303:
 2713              		.loc 1 1561 0
 2714 03c8 0AF12C0A 		add	r10, r10, #44
 2715 03cc 07EB0A05 		add	r5, r7, r10
 2716              	.LVL345:
 2717              		.loc 1 1563 0
 2718 03d0 BBF1000F 		cmp	fp, #0
 2719 03d4 00F03D84 		beq	.L301
 2720              	.LBB153:
 2721              		.loc 1 1567 0
 2722 03d8 A878     		ldrb	r0, [r5, #2]	@ zero_extendqisi2
 2723              		.loc 1 1568 0
 2724 03da EA78     		ldrb	r2, [r5, #3]	@ zero_extendqisi2
 2725              		.loc 1 1565 0
 2726 03dc 17F80A10 		ldrb	r1, [r7, r10]	@ zero_extendqisi2
 2727              		.loc 1 1566 0
 2728 03e0 6B78     		ldrb	r3, [r5, #1]	@ zero_extendqisi2
 2729              		.loc 1 1568 0
 2730 03e2 42EA0027 		orr	r7, r2, r0, lsl #8
 2731              	.LVL346:
 2732              		.loc 1 1570 0
ARM GAS  C:\Users\jo\AppData\Local\Temp\ccgxU8bj.s 			page 49


 2733 03e6 07F1040A 		add	r10, r7, #4
 2734 03ea D345     		cmp	fp, r10
 2735              		.loc 1 1566 0
 2736 03ec 43EA0121 		orr	r1, r3, r1, lsl #8
 2737              	.LVL347:
 2738              		.loc 1 1567 0
 2739 03f0 3C46     		mov	r4, r7
 2740              	.LVL348:
 2741              		.loc 1 1570 0
 2742 03f2 C0F00284 		bcc	.L305
 2743              	.LBB154:
 2744              	.LBB155:
 2745              	.LBB156:
 2746              	.LBB157:
 2747              		.loc 1 270 0
 2748 03f6 B146     		mov	r9, r6
 2749 03f8 D046     		mov	r8, r10
 2750 03fa 5E46     		mov	r6, fp
 2751              	.LVL349:
 2752 03fc 39E0     		b	.L306
 2753              	.LVL350:
 2754              	.L543:
 2755              	.LBE157:
 2756              	.LBE156:
 2757              	.LBE155:
 2758              	.LBE154:
 2759              		.loc 1 1575 0
 2760 03fe 0429     		cmp	r1, #4
 2761 0400 00F06382 		beq	.L310
 2762 0404 00F2A180 		bhi	.L311
 2763 0408 0029     		cmp	r1, #0
 2764 040a 00F01882 		beq	.L312
 2765 040e 0129     		cmp	r1, #1
 2766 0410 40F00882 		bne	.L307
 2767              		.loc 1 1637 0
 2768 0414 A848     		ldr	r0, .L577+8
 2769 0416 FFF7FEFF 		bl	debug_fmt
 2770              	.LVL351:
 2771 041a 0321     		movs	r1, #3
 2772 041c 0090     		str	r0, [sp]
 2773 041e A54A     		ldr	r2, .L577+4
 2774 0420 4846     		mov	r0, r9
 2775 0422 40F26563 		movw	r3, #1637
 2776 0426 FFF7FEFF 		bl	debug_print_msg
 2777              	.LVL352:
 2778              	.LBB195:
 2779              	.LBB196:
 2780              		.loc 1 609 0
 2781 042a 012F     		cmp	r7, #1
 2782 042c 40F07087 		bne	.L368
 2783 0430 2B79     		ldrb	r3, [r5, #4]	@ zero_extendqisi2
 2784 0432 042B     		cmp	r3, #4
 2785 0434 00F26C87 		bhi	.L368
 2786              		.loc 1 615 0
 2787 0438 D9F88020 		ldr	r2, [r9, #128]
 2788 043c 4544     		add	r5, r5, r8
 2789              	.LVL353:
ARM GAS  C:\Users\jo\AppData\Local\Temp\ccgxU8bj.s 			page 50


 2790 043e 82F87430 		strb	r3, [r2, #116]
 2791              	.LVL354:
 2792              	.L323:
 2793              	.LBE196:
 2794              	.LBE195:
 2795              		.loc 1 1700 0
 2796 0442 361B     		subs	r6, r6, r4
 2797              	.LVL355:
 2798              		.loc 1 1703 0
 2799 0444 731F     		subs	r3, r6, #5
 2800 0446 022B     		cmp	r3, #2
 2801              		.loc 1 1700 0
 2802 0448 A6F10406 		sub	r6, r6, #4
 2803              	.LVL356:
 2804              		.loc 1 1703 0
 2805 044c 40F2F285 		bls	.L540
 2806              	.LBE153:
 2807              		.loc 1 1563 0
 2808 0450 002E     		cmp	r6, #0
 2809 0452 00F0FD83 		beq	.L541
 2810              	.LBB276:
 2811              		.loc 1 1567 0
 2812 0456 AC78     		ldrb	r4, [r5, #2]	@ zero_extendqisi2
 2813              		.loc 1 1568 0
 2814 0458 EA78     		ldrb	r2, [r5, #3]	@ zero_extendqisi2
 2815              		.loc 1 1565 0
 2816 045a 2978     		ldrb	r1, [r5]	@ zero_extendqisi2
 2817              		.loc 1 1566 0
 2818 045c 6B78     		ldrb	r3, [r5, #1]	@ zero_extendqisi2
 2819              		.loc 1 1568 0
 2820 045e 42EA0424 		orr	r4, r2, r4, lsl #8
 2821              		.loc 1 1570 0
 2822 0462 04F10408 		add	r8, r4, #4
 2823 0466 B045     		cmp	r8, r6
 2824              		.loc 1 1567 0
 2825 0468 2746     		mov	r7, r4
 2826              		.loc 1 1566 0
 2827 046a 43EA0121 		orr	r1, r3, r1, lsl #8
 2828              	.LVL357:
 2829              		.loc 1 1570 0
 2830 046e 00F2C383 		bhi	.L542
 2831              	.L306:
 2832              		.loc 1 1575 0
 2833 0472 0D29     		cmp	r1, #13
 2834 0474 00F0F280 		beq	.L308
 2835 0478 C1D9     		bls	.L543
 2836 047a 1729     		cmp	r1, #23
 2837 047c 00F04A81 		beq	.L316
 2838 0480 2CD8     		bhi	.L317
 2839 0482 1029     		cmp	r1, #16
 2840 0484 00F09280 		beq	.L318
 2841 0488 1629     		cmp	r1, #22
 2842 048a 40F0CB81 		bne	.L307
 2843              		.loc 1 1657 0
 2844 048e 8B48     		ldr	r0, .L577+12
 2845 0490 FFF7FEFF 		bl	debug_fmt
 2846              	.LVL358:
ARM GAS  C:\Users\jo\AppData\Local\Temp\ccgxU8bj.s 			page 51


 2847 0494 0321     		movs	r1, #3
 2848 0496 0090     		str	r0, [sp]
 2849 0498 864A     		ldr	r2, .L577+4
 2850 049a 4846     		mov	r0, r9
 2851 049c 40F27963 		movw	r3, #1657
 2852 04a0 FFF7FEFF 		bl	debug_print_msg
 2853              	.LVL359:
 2854              	.LBB199:
 2855              	.LBB200:
 2856              		.loc 1 646 0
 2857 04a4 002F     		cmp	r7, #0
 2858 04a6 41F0AE80 		bne	.L544
 2859              		.loc 1 654 0
 2860 04aa 99F82430 		ldrb	r3, [r9, #36]	@ zero_extendqisi2
 2861 04ae 012B     		cmp	r3, #1
 2862 04b0 00F01383 		beq	.L545
 2863              	.LVL360:
 2864              	.L519:
 2865 04b4 4544     		add	r5, r5, r8
 2866              	.LVL361:
 2867 04b6 C4E7     		b	.L323
 2868              	.LVL362:
 2869              	.L536:
 2870              	.LBE200:
 2871              	.LBE199:
 2872              	.LBE276:
 2873              		.loc 1 1345 0
 2874 04b8 0531     		adds	r1, r1, #5
 2875              	.LVL363:
 2876 04ba 3046     		mov	r0, r6
 2877 04bc FFF7FEFF 		bl	ssl_fetch_input
 2878              	.LVL364:
 2879 04c0 0546     		mov	r5, r0
 2880 04c2 0028     		cmp	r0, #0
 2881 04c4 40F02386 		bne	.L546
 2882              		.loc 1 1354 0
 2883 04c8 7368     		ldr	r3, [r6, #4]
 2884              		.loc 1 1352 0
 2885 04ca D6F8A470 		ldr	r7, [r6, #164]
 2886              	.LVL365:
 2887              		.loc 1 1354 0
 2888 04ce 002B     		cmp	r3, #0
 2889 04d0 7FF4FDAD 		bne	.L417
 2890              		.loc 1 1358 0
 2891 04d4 D6F8B440 		ldr	r4, [r6, #180]
 2892 04d8 053C     		subs	r4, r4, #5
 2893              	.LVL366:
 2894 04da FAE5     		b	.L276
 2895              	.LVL367:
 2896              	.L317:
 2897              	.LBB277:
 2898              		.loc 1 1575 0
 2899 04dc 2329     		cmp	r1, #35
 2900 04de 00F01D82 		beq	.L320
 2901 04e2 4FF60173 		movw	r3, #65281
 2902 04e6 9942     		cmp	r1, r3
 2903 04e8 40F09C81 		bne	.L307
ARM GAS  C:\Users\jo\AppData\Local\Temp\ccgxU8bj.s 			page 52


 2904              		.loc 1 1590 0
 2905 04ec 7448     		ldr	r0, .L577+16
 2906 04ee FFF7FEFF 		bl	debug_fmt
 2907              	.LVL368:
 2908 04f2 40F23663 		movw	r3, #1590
 2909 04f6 0090     		str	r0, [sp]
 2910 04f8 0321     		movs	r1, #3
 2911 04fa 6E4A     		ldr	r2, .L577+4
 2912 04fc 4846     		mov	r0, r9
 2913 04fe FFF7FEFF 		bl	debug_print_msg
 2914              	.LVL369:
 2915              	.LBB204:
 2916              	.LBB205:
 2917              		.loc 1 433 0
 2918 0502 D9F80430 		ldr	r3, [r9, #4]
 2919 0506 002B     		cmp	r3, #0
 2920 0508 00F0DD82 		beq	.L333
 2921              		.loc 1 436 0
 2922 050c D9F87431 		ldr	r3, [r9, #372]
 2923 0510 5A1C     		adds	r2, r3, #1
 2924 0512 9442     		cmp	r4, r2
 2925 0514 03D1     		bne	.L334
 2926              		.loc 1 437 0
 2927 0516 2A79     		ldrb	r2, [r5, #4]	@ zero_extendqisi2
 2928              		.loc 1 436 0
 2929 0518 9342     		cmp	r3, r2
 2930 051a 00F05E87 		beq	.L547
 2931              	.L334:
 2932              		.loc 1 441 0
 2933 051e 6948     		ldr	r0, .L577+20
 2934 0520 FFF7FEFF 		bl	debug_fmt
 2935              	.LVL370:
 2936 0524 0121     		movs	r1, #1
 2937 0526 0090     		str	r0, [sp]
 2938 0528 624A     		ldr	r2, .L577+4
 2939 052a 4846     		mov	r0, r9
 2940 052c 40F2B913 		movw	r3, #441
 2941 0530 FFF7FEFF 		bl	debug_print_msg
 2942              	.LVL371:
 2943              		.loc 1 443 0
 2944 0534 4846     		mov	r0, r9
 2945 0536 FFF7FEFF 		bl	ssl_send_fatal_handshake_failure
 2946              	.LVL372:
 2947 053a 0028     		cmp	r0, #0
 2948 053c 00F0EB82 		beq	.L340
 2949              	.LVL373:
 2950              	.L337:
 2951              	.LBE205:
 2952              	.LBE204:
 2953              		.loc 1 1597 0
 2954 0540 0546     		mov	r5, r0
 2955              	.LVL374:
 2956              	.L555:
 2957              	.LBE277:
 2958              		.loc 1 1811 0
 2959 0542 2846     		mov	r0, r5
 2960 0544 33B0     		add	sp, sp, #204
ARM GAS  C:\Users\jo\AppData\Local\Temp\ccgxU8bj.s 			page 53


 2961              		.cfi_remember_state
 2962              		.cfi_def_cfa_offset 36
 2963              		@ sp needed
 2964 0546 BDE8F08F 		pop	{r4, r5, r6, r7, r8, r9, r10, fp, pc}
 2965              	.LVL375:
 2966              	.L311:
 2967              		.cfi_restore_state
 2968              	.LBB278:
 2969              		.loc 1 1575 0
 2970 054a 0A29     		cmp	r1, #10
 2971 054c 00F00081 		beq	.L314
 2972 0550 0B29     		cmp	r1, #11
 2973 0552 40F06781 		bne	.L307
 2974              		.loc 1 1626 0
 2975 0556 5C48     		ldr	r0, .L577+24
 2976 0558 FFF7FEFF 		bl	debug_fmt
 2977              	.LVL376:
 2978 055c 0321     		movs	r1, #3
 2979 055e 0090     		str	r0, [sp]
 2980 0560 40F25A63 		movw	r3, #1626
 2981 0564 534A     		ldr	r2, .L577+4
 2982 0566 4846     		mov	r0, r9
 2983 0568 FFF7FEFF 		bl	debug_print_msg
 2984              	.LVL377:
 2985              		.loc 1 1627 0
 2986 056c D9F88470 		ldr	r7, [r9, #132]
 2987 0570 D7F8C43A 		ldr	r3, [r7, #2756]
 2988 0574 43F00103 		orr	r3, r3, #1
 2989 0578 C7F8C43A 		str	r3, [r7, #2756]
 2990              	.LVL378:
 2991              	.LBB211:
 2992              	.LBB212:
 2993              		.loc 1 578 0
 2994 057c 2979     		ldrb	r1, [r5, #4]	@ zero_extendqisi2
 2995              	.LVL379:
 2996              		.loc 1 579 0
 2997 057e 4B1C     		adds	r3, r1, #1
 2998 0580 9C42     		cmp	r4, r3
 2999 0582 40F08687 		bne	.L548
 3000              		.loc 1 585 0
 3001 0586 A81D     		adds	r0, r5, #6
 3002              	.LVL380:
 3003              		.loc 1 586 0
 3004 0588 0029     		cmp	r1, #0
 3005 058a 93D0     		beq	.L519
 3006              		.loc 1 588 0
 3007 058c AA79     		ldrb	r2, [r5, #6]	@ zero_extendqisi2
 3008 058e 012A     		cmp	r2, #1
 3009 0590 40F2E682 		bls	.L364
 3010 0594 0144     		add	r1, r1, r0
 3011              	.LVL381:
 3012 0596 EB1D     		adds	r3, r5, #7
 3013              	.LVL382:
 3014 0598 04E0     		b	.L366
 3015              	.L367:
 3016 059a 13F8012B 		ldrb	r2, [r3], #1	@ zero_extendqisi2
 3017 059e 012A     		cmp	r2, #1
ARM GAS  C:\Users\jo\AppData\Local\Temp\ccgxU8bj.s 			page 54


 3018 05a0 40F2DE82 		bls	.L364
 3019              	.LVL383:
 3020              	.L366:
 3021              		.loc 1 586 0
 3022 05a4 8B42     		cmp	r3, r1
 3023              		.loc 1 597 0
 3024 05a6 1846     		mov	r0, r3
 3025              	.LVL384:
 3026              		.loc 1 586 0
 3027 05a8 F7D1     		bne	.L367
 3028 05aa 83E7     		b	.L519
 3029              	.LVL385:
 3030              	.L318:
 3031              	.LBE212:
 3032              	.LBE211:
 3033              		.loc 1 1687 0
 3034 05ac 4748     		ldr	r0, .L577+28
 3035 05ae FFF7FEFF 		bl	debug_fmt
 3036              	.LVL386:
 3037 05b2 40F29763 		movw	r3, #1687
 3038 05b6 0090     		str	r0, [sp]
 3039 05b8 0321     		movs	r1, #3
 3040 05ba 4846     		mov	r0, r9
 3041 05bc 3D4A     		ldr	r2, .L577+4
 3042 05be FFF7FEFF 		bl	debug_print_msg
 3043              	.LVL387:
 3044              	.LBB216:
 3045              	.LBB217:
 3046              		.loc 1 742 0
 3047 05c2 D9F86831 		ldr	r3, [r9, #360]
 3048 05c6 0693     		str	r3, [sp, #24]
 3049 05c8 1846     		mov	r0, r3
 3050 05ca 002B     		cmp	r3, #0
 3051 05cc 3FF472AF 		beq	.L519
 3052              		.loc 1 754 0
 3053 05d0 032F     		cmp	r7, #3
 3054 05d2 3EDD     		ble	.L520
 3055              	.LVL388:
 3056              		.loc 1 757 0
 3057 05d4 2979     		ldrb	r1, [r5, #4]	@ zero_extendqisi2
 3058 05d6 6A79     		ldrb	r2, [r5, #5]	@ zero_extendqisi2
 3059              		.loc 1 758 0
 3060 05d8 A31E     		subs	r3, r4, #2
 3061              		.loc 1 757 0
 3062 05da 42EA0122 		orr	r2, r2, r1, lsl #8
 3063              		.loc 1 758 0
 3064 05de 9A42     		cmp	r2, r3
 3065 05e0 37D1     		bne	.L520
 3066              		.loc 1 766 0
 3067 05e2 0368     		ldr	r3, [r0]
 3068              		.loc 1 764 0
 3069 05e4 AA1D     		adds	r2, r5, #6
 3070              		.loc 1 765 0
 3071 05e6 A844     		add	r8, r8, r5
 3072              		.loc 1 764 0
 3073 05e8 0592     		str	r2, [sp, #20]
 3074              	.LVL389:
ARM GAS  C:\Users\jo\AppData\Local\Temp\ccgxU8bj.s 			page 55


 3075              		.loc 1 766 0
 3076 05ea 002B     		cmp	r3, #0
 3077 05ec 00F0E582 		beq	.L514
 3078 05f0 0794     		str	r4, [sp, #28]
 3079 05f2 9A46     		mov	r10, r3
 3080 05f4 C346     		mov	fp, r8
 3081              	.LVL390:
 3082              	.L400:
 3083              		.loc 1 768 0
 3084 05f6 5046     		mov	r0, r10
 3085 05f8 FFF7FEFF 		bl	strlen
 3086              	.LVL391:
 3087              		.loc 1 769 0
 3088 05fc 059B     		ldr	r3, [sp, #20]
 3089 05fe 5B45     		cmp	r3, fp
 3090              		.loc 1 768 0
 3091 0600 8046     		mov	r8, r0
 3092              	.LVL392:
 3093              		.loc 1 769 0
 3094 0602 00F0D282 		beq	.L394
 3095              		.loc 1 772 0
 3096 0606 24D8     		bhi	.L520
 3097              		.loc 1 775 0
 3098 0608 AF79     		ldrb	r7, [r5, #6]	@ zero_extendqisi2
 3099 060a EC1D     		adds	r4, r5, #7
 3100              	.LVL393:
 3101              		.loc 1 778 0
 3102 060c 47B9     		cbnz	r7, .L396
 3103 060e 20E0     		b	.L520
 3104              	.LVL394:
 3105              	.L397:
 3106              		.loc 1 769 0
 3107 0610 E019     		adds	r0, r4, r7
 3108              	.LVL395:
 3109 0612 8345     		cmp	fp, r0
 3110 0614 00F0C982 		beq	.L394
 3111              		.loc 1 772 0
 3112 0618 1BD3     		bcc	.L520
 3113              		.loc 1 775 0
 3114 061a 0778     		ldrb	r7, [r0]	@ zero_extendqisi2
 3115              	.LVL396:
 3116 061c 441C     		adds	r4, r0, #1
 3117              	.LVL397:
 3118              		.loc 1 778 0
 3119 061e C7B1     		cbz	r7, .L520
 3120              	.L396:
 3121              		.loc 1 781 0
 3122 0620 B845     		cmp	r8, r7
 3123 0622 F5D1     		bne	.L397
 3124              		.loc 1 782 0
 3125 0624 2046     		mov	r0, r4
 3126 0626 5146     		mov	r1, r10
 3127 0628 4246     		mov	r2, r8
 3128 062a FFF7FEFF 		bl	memcmp
 3129              	.LVL398:
 3130              		.loc 1 781 0
 3131 062e 0028     		cmp	r0, #0
ARM GAS  C:\Users\jo\AppData\Local\Temp\ccgxU8bj.s 			page 56


 3132 0630 EED1     		bne	.L397
 3133 0632 079C     		ldr	r4, [sp, #28]
 3134              	.LVL399:
 3135              		.loc 1 784 0
 3136 0634 C9F86CA1 		str	r10, [r9, #364]
 3137 0638 5D46     		mov	r5, fp
 3138              	.LVL400:
 3139 063a 02E7     		b	.L323
 3140              	.LVL401:
 3141              	.L550:
 3142              	.LBE217:
 3143              	.LBE216:
 3144              	.LBB219:
 3145              	.LBB220:
 3146              		.loc 1 536 0
 3147 063c 2448     		ldr	r0, .L577+32
 3148 063e FFF7FEFF 		bl	debug_fmt
 3149              	.LVL402:
 3150 0642 0121     		movs	r1, #1
 3151 0644 0090     		str	r0, [sp]
 3152 0646 1B4A     		ldr	r2, .L577+4
 3153 0648 4846     		mov	r0, r9
 3154 064a 4FF40673 		mov	r3, #536
 3155 064e FFF7FEFF 		bl	debug_print_msg
 3156              	.LVL403:
 3157              	.L520:
 3158              		.loc 1 537 0
 3159 0652 204D     		ldr	r5, .L577+36
 3160              	.L504:
 3161              	.LBE220:
 3162              	.LBE219:
 3163              	.LBE278:
 3164              		.loc 1 1811 0
 3165 0654 2846     		mov	r0, r5
 3166 0656 33B0     		add	sp, sp, #204
 3167              		.cfi_remember_state
 3168              		.cfi_def_cfa_offset 36
 3169              		@ sp needed
 3170 0658 BDE8F08F 		pop	{r4, r5, r6, r7, r8, r9, r10, fp, pc}
 3171              	.LVL404:
 3172              	.L308:
 3173              		.cfi_restore_state
 3174              	.LBB279:
 3175              		.loc 1 1603 0
 3176 065c 1E48     		ldr	r0, .L577+40
 3177 065e FFF7FEFF 		bl	debug_fmt
 3178              	.LVL405:
 3179 0662 40F24363 		movw	r3, #1603
 3180 0666 0090     		str	r0, [sp]
 3181 0668 0321     		movs	r1, #3
 3182 066a 124A     		ldr	r2, .L577+4
 3183 066c 4846     		mov	r0, r9
 3184 066e FFF7FEFF 		bl	debug_print_msg
 3185              	.LVL406:
 3186              		.loc 1 1605 0
 3187 0672 D9F80430 		ldr	r3, [r9, #4]
 3188 0676 012B     		cmp	r3, #1
ARM GAS  C:\Users\jo\AppData\Local\Temp\ccgxU8bj.s 			page 57


 3189 0678 3FF41CAF 		beq	.L519
 3190              	.LVL407:
 3191              	.LBB224:
 3192              	.LBB225:
 3193              		.loc 1 480 0
 3194 067c 2A79     		ldrb	r2, [r5, #4]	@ zero_extendqisi2
 3195 067e 6B79     		ldrb	r3, [r5, #5]	@ zero_extendqisi2
 3196 0680 43EA0223 		orr	r3, r3, r2, lsl #8
 3197              		.loc 1 481 0
 3198 0684 9A1C     		adds	r2, r3, #2
 3199 0686 9442     		cmp	r4, r2
 3200              		.loc 1 476 0
 3201 0688 A844     		add	r8, r8, r5
 3202              	.LVL408:
 3203              		.loc 1 481 0
 3204 068a 40F0BE86 		bne	.L342
 3205 068e DB07     		lsls	r3, r3, #31
 3206              	.LVL409:
 3207 0690 00F1BB86 		bmi	.L342
 3208              		.loc 1 494 0
 3209 0694 FFF7FEFF 		bl	md_list
 3210              	.LVL410:
 3211 0698 0368     		ldr	r3, [r0]
 3212 069a 8246     		mov	r10, r0
 3213              	.LVL411:
 3214 069c 05F1060B 		add	fp, r5, #6
 3215 06a0 002B     		cmp	r3, #0
 3216 06a2 00F07282 		beq	.L348
 3217              	.LVL412:
 3218              	.L347:
 3219              		.loc 1 495 0
 3220 06a6 D845     		cmp	r8, fp
 3221 06a8 88BF     		it	hi
 3222 06aa 5F46     		movhi	r7, fp
 3223 06ac 1AD8     		bhi	.L350
 3224 06ae 67E2     		b	.L351
 3225              	.L578:
 3226              		.align	2
 3227              	.L577:
 3228 06b0 94060000 		.word	.LC60
 3229 06b4 18000000 		.word	.LC1
 3230 06b8 340A0000 		.word	.LC88
 3231 06bc 780A0000 		.word	.LC90
 3232 06c0 E4080000 		.word	.LC79
 3233 06c4 04090000 		.word	.LC80
 3234 06c8 F0090000 		.word	.LC86
 3235 06cc 680B0000 		.word	.LC98
 3236 06d0 4C050000 		.word	.LC51
 3237 06d4 0087FFFF 		.word	-30976
 3238 06d8 48090000 		.word	.LC82
 3239              	.LVL413:
 3240              	.L349:
 3241 06dc 0237     		adds	r7, r7, #2
 3242              	.LVL414:
 3243 06de B845     		cmp	r8, r7
 3244 06e0 40F24E82 		bls	.L351
 3245              	.LVL415:
ARM GAS  C:\Users\jo\AppData\Local\Temp\ccgxU8bj.s 			page 58


 3246              	.L350:
 3247              		.loc 1 496 0
 3248 06e4 3878     		ldrb	r0, [r7]	@ zero_extendqisi2
 3249 06e6 DAF80050 		ldr	r5, [r10]
 3250 06ea FFF7FEFF 		bl	ssl_md_alg_from_hash
 3251              	.LVL416:
 3252 06ee 8542     		cmp	r5, r0
 3253 06f0 F4D1     		bne	.L349
 3254              		.loc 1 497 0
 3255 06f2 D9F88430 		ldr	r3, [r9, #132]
 3256 06f6 3978     		ldrb	r1, [r7]	@ zero_extendqisi2
 3257 06f8 1960     		str	r1, [r3]
 3258              	.LDL1:
 3259              		.loc 1 508 0
 3260 06fa 8048     		ldr	r0, .L579
 3261 06fc FFF7FEFF 		bl	debug_fmt
 3262              	.LVL417:
 3263 0700 0321     		movs	r1, #3
 3264 0702 0090     		str	r0, [sp]
 3265 0704 7E4A     		ldr	r2, .L579+4
 3266 0706 4846     		mov	r0, r9
 3267 0708 40F2FD13 		movw	r3, #509
 3268 070c FFF7FEFF 		bl	debug_print_msg
 3269              	.LVL418:
 3270              		.loc 1 476 0
 3271 0710 4546     		mov	r5, r8
 3272 0712 96E6     		b	.L323
 3273              	.LVL419:
 3274              	.L316:
 3275              	.LBE225:
 3276              	.LBE224:
 3277              		.loc 1 1667 0
 3278 0714 7B48     		ldr	r0, .L579+8
 3279 0716 FFF7FEFF 		bl	debug_fmt
 3280              	.LVL420:
 3281 071a 0321     		movs	r1, #3
 3282 071c 0090     		str	r0, [sp]
 3283 071e 784A     		ldr	r2, .L579+4
 3284 0720 4846     		mov	r0, r9
 3285 0722 40F28363 		movw	r3, #1667
 3286 0726 FFF7FEFF 		bl	debug_print_msg
 3287              	.LVL421:
 3288              	.LBB229:
 3289              	.LBB230:
 3290              		.loc 1 669 0
 3291 072a 002F     		cmp	r7, #0
 3292 072c 40F07D87 		bne	.L549
 3293              		.loc 1 677 0
 3294 0730 99F82530 		ldrb	r3, [r9, #37]	@ zero_extendqisi2
 3295 0734 012B     		cmp	r3, #1
 3296 0736 7FF4BDAE 		bne	.L519
 3297 073a D9F81020 		ldr	r2, [r9, #16]
 3298 073e 002A     		cmp	r2, #0
 3299 0740 3FF4B8AE 		beq	.L519
 3300              		.loc 1 680 0
 3301 0744 D9F88420 		ldr	r2, [r9, #132]
 3302 0748 4544     		add	r5, r5, r8
ARM GAS  C:\Users\jo\AppData\Local\Temp\ccgxU8bj.s 			page 59


 3303              	.LVL422:
 3304 074a C2F8CC3A 		str	r3, [r2, #2764]
 3305 074e 78E6     		b	.L323
 3306              	.LVL423:
 3307              	.L314:
 3308              	.LBE230:
 3309              	.LBE229:
 3310              		.loc 1 1618 0
 3311 0750 6D48     		ldr	r0, .L579+12
 3312 0752 FFF7FEFF 		bl	debug_fmt
 3313              	.LVL424:
 3314 0756 40F25263 		movw	r3, #1618
 3315 075a 0090     		str	r0, [sp]
 3316 075c 0321     		movs	r1, #3
 3317 075e 684A     		ldr	r2, .L579+4
 3318 0760 4846     		mov	r0, r9
 3319 0762 FFF7FEFF 		bl	debug_print_msg
 3320              	.LVL425:
 3321              	.LBB233:
 3322              	.LBB221:
 3323              		.loc 1 525 0
 3324 0766 6B79     		ldrb	r3, [r5, #5]	@ zero_extendqisi2
 3325 0768 95F804A0 		ldrb	r10, [r5, #4]	@ zero_extendqisi2
 3326 076c 43EA0A2A 		orr	r10, r3, r10, lsl #8
 3327              	.LVL426:
 3328              		.loc 1 526 0
 3329 0770 0AF10203 		add	r3, r10, #2
 3330 0774 9C42     		cmp	r4, r3
 3331 0776 40F0BD85 		bne	.L352
 3332 077a 1AF0010F 		tst	r10, #1
 3333 077e 40F0B985 		bne	.L352
 3334              		.loc 1 534 0
 3335 0782 D9F88470 		ldr	r7, [r9, #132]
 3336 0786 D7F8BC11 		ldr	r1, [r7, #444]
 3337 078a 0029     		cmp	r1, #0
 3338 078c 7FF456AF 		bne	.L550
 3339              		.loc 1 542 0
 3340 0790 4FEA5A0B 		lsr	fp, r10, #1
 3341 0794 0BF1010B 		add	fp, fp, #1
 3342              	.LVL427:
 3343 0798 BBF10C0F 		cmp	fp, #12
 3344 079c 28BF     		it	cs
 3345 079e 4FF00C0B 		movcs	fp, #12
 3346              	.LVL428:
 3347              		.loc 1 546 0
 3348 07a2 4FEA8B02 		lsl	r2, fp, #2
 3349 07a6 1046     		mov	r0, r2
 3350 07a8 0791     		str	r1, [sp, #28]
 3351 07aa 0692     		str	r2, [sp, #24]
 3352 07ac FFF7FEFF 		bl	malloc
 3353              	.LVL429:
 3354 07b0 0590     		str	r0, [sp, #20]
 3355 07b2 0028     		cmp	r0, #0
 3356 07b4 00F02487 		beq	.L428
 3357              		.loc 1 550 0
 3358 07b8 0799     		ldr	r1, [sp, #28]
 3359 07ba 069A     		ldr	r2, [sp, #24]
ARM GAS  C:\Users\jo\AppData\Local\Temp\ccgxU8bj.s 			page 60


 3360 07bc FFF7FEFF 		bl	memset
 3361              	.LVL430:
 3362              		.loc 1 551 0
 3363 07c0 059B     		ldr	r3, [sp, #20]
 3364 07c2 C7F8BC31 		str	r3, [r7, #444]
 3365              	.LVL431:
 3366              		.loc 1 554 0
 3367 07c6 BAF1000F 		cmp	r10, #0
 3368 07ca 3FF473AE 		beq	.L519
 3369 07ce BBF1010F 		cmp	fp, #1
 3370 07d2 3FF46FAE 		beq	.L519
 3371 07d6 0594     		str	r4, [sp, #20]
 3372 07d8 05F10807 		add	r7, r5, #8
 3373 07dc 5C46     		mov	r4, fp
 3374              	.LVL432:
 3375 07de 9B46     		mov	fp, r3
 3376              	.LVL433:
 3377              	.L358:
 3378              		.loc 1 556 0
 3379 07e0 17F8012C 		ldrb	r2, [r7, #-1]	@ zero_extendqisi2
 3380 07e4 17F8020C 		ldrb	r0, [r7, #-2]	@ zero_extendqisi2
 3381 07e8 42EA0020 		orr	r0, r2, r0, lsl #8
 3382 07ec FFF7FEFF 		bl	ecp_curve_info_from_tls_id
 3383              	.LVL434:
 3384              		.loc 1 560 0
 3385 07f0 0BF10402 		add	r2, fp, #4
 3386              	.LVL435:
 3387              		.loc 1 558 0
 3388 07f4 70B1     		cbz	r0, .L359
 3389              		.loc 1 554 0
 3390 07f6 BAF1020A 		subs	r10, r10, #2
 3391              	.LVL436:
 3392              		.loc 1 560 0
 3393 07fa CBF80000 		str	r0, [fp]
 3394              		.loc 1 561 0
 3395 07fe 04F1FF34 		add	r4, r4, #-1
 3396              	.LVL437:
 3397 0802 07F10207 		add	r7, r7, #2
 3398              	.LVL438:
 3399              		.loc 1 554 0
 3400 0806 00F0CD81 		beq	.L518
 3401 080a 012C     		cmp	r4, #1
 3402 080c 00F06F81 		beq	.L551
 3403 0810 9346     		mov	fp, r2
 3404 0812 E5E7     		b	.L358
 3405              	.LVL439:
 3406              	.L359:
 3407 0814 BAF1020A 		subs	r10, r10, #2
 3408              	.LVL440:
 3409 0818 00F0C481 		beq	.L518
 3410 081c 5A46     		mov	r2, fp
 3411 081e 0237     		adds	r7, r7, #2
 3412              	.LVL441:
 3413 0820 9346     		mov	fp, r2
 3414              	.LVL442:
 3415 0822 DDE7     		b	.L358
 3416              	.LVL443:
ARM GAS  C:\Users\jo\AppData\Local\Temp\ccgxU8bj.s 			page 61


 3417              	.L307:
 3418              	.LBE221:
 3419              	.LBE233:
 3420              		.loc 1 1696 0
 3421 0824 3948     		ldr	r0, .L579+16
 3422 0826 FFF7FEFF 		bl	debug_fmt
 3423              	.LVL444:
 3424 082a 0321     		movs	r1, #3
 3425 082c 0090     		str	r0, [sp]
 3426 082e 344A     		ldr	r2, .L579+4
 3427 0830 4846     		mov	r0, r9
 3428 0832 40F2A163 		movw	r3, #1697
 3429 0836 FFF7FEFF 		bl	debug_print_msg
 3430              	.LVL445:
 3431 083a 4544     		add	r5, r5, r8
 3432              	.LVL446:
 3433 083c 01E6     		b	.L323
 3434              	.LVL447:
 3435              	.L312:
 3436              		.loc 1 1579 0
 3437 083e 3448     		ldr	r0, .L579+20
 3438 0840 FFF7FEFF 		bl	debug_fmt
 3439              	.LVL448:
 3440 0844 40F22B63 		movw	r3, #1579
 3441 0848 0090     		str	r0, [sp]
 3442 084a 0321     		movs	r1, #3
 3443 084c 2C4A     		ldr	r2, .L579+4
 3444 084e 4846     		mov	r0, r9
 3445 0850 FFF7FEFF 		bl	debug_print_msg
 3446              	.LVL449:
 3447              		.loc 1 1580 0
 3448 0854 D9F85C30 		ldr	r3, [r9, #92]
 3449 0858 002B     		cmp	r3, #0
 3450 085a 3FF42BAE 		beq	.L519
 3451              	.LVL450:
 3452              	.LBB234:
 3453              	.LBB235:
 3454              		.loc 1 380 0
 3455 085e 2D48     		ldr	r0, .L579+24
 3456 0860 FFF7FEFF 		bl	debug_fmt
 3457              	.LVL451:
 3458 0864 4FF4BE73 		mov	r3, #380
 3459 0868 0090     		str	r0, [sp]
 3460 086a 0321     		movs	r1, #3
 3461 086c 4846     		mov	r0, r9
 3462 086e 244A     		ldr	r2, .L579+4
 3463 0870 FFF7FEFF 		bl	debug_print_msg
 3464              	.LVL452:
 3465              		.loc 1 382 0
 3466 0874 6B79     		ldrb	r3, [r5, #5]	@ zero_extendqisi2
 3467 0876 2879     		ldrb	r0, [r5, #4]	@ zero_extendqisi2
 3468 0878 43EA0020 		orr	r0, r3, r0, lsl #8
 3469              	.LVL453:
 3470              		.loc 1 383 0
 3471 087c 831C     		adds	r3, r0, #2
 3472 087e 9C42     		cmp	r4, r3
 3473 0880 40F09086 		bne	.L552
ARM GAS  C:\Users\jo\AppData\Local\Temp\ccgxU8bj.s 			page 62


 3474              		.loc 1 389 0
 3475 0884 AA1D     		adds	r2, r5, #6
 3476              	.LVL454:
 3477              		.loc 1 390 0
 3478 0886 0028     		cmp	r0, #0
 3479 0888 3FF414AE 		beq	.L519
 3480              		.loc 1 392 0
 3481 088c E979     		ldrb	r1, [r5, #7]	@ zero_extendqisi2
 3482 088e 2B7A     		ldrb	r3, [r5, #8]	@ zero_extendqisi2
 3483 0890 43EA0123 		orr	r3, r3, r1, lsl #8
 3484              	.LVL455:
 3485              		.loc 1 393 0
 3486 0894 DF1C     		adds	r7, r3, #3
 3487 0896 B842     		cmp	r0, r7
 3488 0898 C0F0DA83 		bcc	.L512
 3489              		.loc 1 399 0
 3490 089c A979     		ldrb	r1, [r5, #6]	@ zero_extendqisi2
 3491 089e 61B9     		cbnz	r1, .L331
 3492 08a0 E3E3     		b	.L328
 3493              	.LVL456:
 3494              	.L332:
 3495              		.loc 1 392 0
 3496 08a2 5178     		ldrb	r1, [r2, #1]	@ zero_extendqisi2
 3497 08a4 9378     		ldrb	r3, [r2, #2]	@ zero_extendqisi2
 3498              	.LVL457:
 3499 08a6 43EA0123 		orr	r3, r3, r1, lsl #8
 3500              	.LVL458:
 3501              		.loc 1 393 0
 3502 08aa DF1C     		adds	r7, r3, #3
 3503 08ac 8742     		cmp	r7, r0
 3504 08ae 00F2CF83 		bhi	.L512
 3505              		.loc 1 399 0
 3506 08b2 1178     		ldrb	r1, [r2]	@ zero_extendqisi2
 3507 08b4 0029     		cmp	r1, #0
 3508 08b6 00F0D883 		beq	.L328
 3509              	.L331:
 3510              	.LVL459:
 3511 08ba 6FF00201 		mvn	r1, #2
 3512 08be C91A     		subs	r1, r1, r3
 3513              	.LVL460:
 3514              		.loc 1 390 0
 3515 08c0 4018     		adds	r0, r0, r1
 3516              	.LVL461:
 3517              		.loc 1 413 0
 3518 08c2 3A44     		add	r2, r2, r7
 3519              	.LVL462:
 3520              		.loc 1 390 0
 3521 08c4 EDD1     		bne	.L332
 3522 08c6 4544     		add	r5, r5, r8
 3523              	.LVL463:
 3524 08c8 BBE5     		b	.L323
 3525              	.LVL464:
 3526              	.L310:
 3527              	.LBE235:
 3528              	.LBE234:
 3529              		.loc 1 1647 0
 3530 08ca 1348     		ldr	r0, .L579+28
ARM GAS  C:\Users\jo\AppData\Local\Temp\ccgxU8bj.s 			page 63


 3531 08cc FFF7FEFF 		bl	debug_fmt
 3532              	.LVL465:
 3533 08d0 0321     		movs	r1, #3
 3534 08d2 0090     		str	r0, [sp]
 3535 08d4 0A4A     		ldr	r2, .L579+4
 3536 08d6 4846     		mov	r0, r9
 3537 08d8 40F26F63 		movw	r3, #1647
 3538 08dc FFF7FEFF 		bl	debug_print_msg
 3539              	.LVL466:
 3540              	.LBB240:
 3541              	.LBB241:
 3542              		.loc 1 626 0
 3543 08e0 002F     		cmp	r7, #0
 3544 08e2 40F07F86 		bne	.L553
 3545              		.loc 1 634 0
 3546 08e6 D9F82C31 		ldr	r3, [r9, #300]
 3547 08ea 012B     		cmp	r3, #1
 3548 08ec 7FF4E2AD 		bne	.L519
 3549              		.loc 1 635 0
 3550 08f0 D9F88020 		ldr	r2, [r9, #128]
 3551 08f4 4544     		add	r5, r5, r8
 3552              	.LVL467:
 3553 08f6 9367     		str	r3, [r2, #120]
 3554 08f8 A3E5     		b	.L323
 3555              	.L580:
 3556 08fa 00BF     		.align	2
 3557              	.L579:
 3558 08fc 94090000 		.word	.LC84
 3559 0900 18000000 		.word	.LC1
 3560 0904 9C0A0000 		.word	.LC91
 3561 0908 C4090000 		.word	.LC85
 3562 090c 800B0000 		.word	.LC99
 3563 0910 9C080000 		.word	.LC76
 3564 0914 B8080000 		.word	.LC77
 3565 0918 580A0000 		.word	.LC89
 3566              	.LVL468:
 3567              	.L320:
 3568              	.LBE241:
 3569              	.LBE240:
 3570              		.loc 1 1677 0
 3571 091c BD48     		ldr	r0, .L581
 3572 091e FFF7FEFF 		bl	debug_fmt
 3573              	.LVL469:
 3574 0922 40F28D63 		movw	r3, #1677
 3575 0926 0090     		str	r0, [sp]
 3576 0928 0321     		movs	r1, #3
 3577 092a BB4A     		ldr	r2, .L581+4
 3578 092c 4846     		mov	r0, r9
 3579 092e FFF7FEFF 		bl	debug_print_msg
 3580              	.LVL470:
 3581              	.LBB244:
 3582              	.LBB186:
 3583              		.loc 1 694 0
 3584 0932 D9F83031 		ldr	r3, [r9, #304]
 3585 0936 002B     		cmp	r3, #0
 3586 0938 3FF4BCAD 		beq	.L519
 3587              		.loc 1 698 0
ARM GAS  C:\Users\jo\AppData\Local\Temp\ccgxU8bj.s 			page 64


 3588 093c D9F88430 		ldr	r3, [r9, #132]
 3589              		.loc 1 700 0
 3590 0940 B648     		ldr	r0, .L581+8
 3591              		.loc 1 698 0
 3592 0942 0122     		movs	r2, #1
 3593 0944 C3F8C82A 		str	r2, [r3, #2760]
 3594              		.loc 1 700 0
 3595 0948 2146     		mov	r1, r4
 3596 094a FFF7FEFF 		bl	debug_fmt
 3597              	.LVL471:
 3598 094e 0321     		movs	r1, #3
 3599 0950 0090     		str	r0, [sp]
 3600 0952 B14A     		ldr	r2, .L581+4
 3601 0954 4846     		mov	r0, r9
 3602 0956 4FF42F73 		mov	r3, #700
 3603 095a FFF7FEFF 		bl	debug_print_msg
 3604              	.LVL472:
 3605              		.loc 1 702 0
 3606 095e 002F     		cmp	r7, #0
 3607 0960 3FF4A8AD 		beq	.L519
 3608              		.loc 1 706 0
 3609 0964 D9F80430 		ldr	r3, [r9, #4]
 3610 0968 002B     		cmp	r3, #0
 3611 096a 40F08284 		bne	.L554
 3612              	.LBE186:
 3613              	.LBE244:
 3614              		.loc 1 1679 0
 3615 096e 2B1D     		adds	r3, r5, #4
 3616              	.LVL473:
 3617 0970 1A46     		mov	r2, r3
 3618 0972 0593     		str	r3, [sp, #20]
 3619              	.LVL474:
 3620              	.LBB245:
 3621              	.LBB187:
 3622              	.LBB178:
 3623              	.LBB170:
 3624              		.loc 1 267 0
 3625 0974 AA4B     		ldr	r3, .L581+12
 3626              	.LVL475:
 3627 0976 0192     		str	r2, [sp, #4]
 3628 0978 0093     		str	r3, [sp]
 3629 097a 0294     		str	r4, [sp, #8]
 3630 097c 4846     		mov	r0, r9
 3631 097e 0321     		movs	r1, #3
 3632 0980 A54A     		ldr	r2, .L581+4
 3633              	.LVL476:
 3634 0982 40F20B13 		movw	r3, #267
 3635              		.loc 1 259 0
 3636 0986 05F11407 		add	r7, r5, #20
 3637 098a 0697     		str	r7, [sp, #24]
 3638              	.LVL477:
 3639              		.loc 1 267 0
 3640 098c FFF7FEFF 		bl	debug_print_buf
 3641              	.LVL478:
 3642              		.loc 1 269 0
 3643 0990 212C     		cmp	r4, #33
 3644              		.loc 1 261 0
ARM GAS  C:\Users\jo\AppData\Local\Temp\ccgxU8bj.s 			page 65


 3645 0992 05F1260B 		add	fp, r5, #38
 3646              	.LVL479:
 3647              		.loc 1 269 0
 3648 0996 40F25B84 		bls	.L431
 3649 099a D9F8F400 		ldr	r0, [r9, #244]
 3650 099e 0028     		cmp	r0, #0
 3651 09a0 00F05684 		beq	.L431
 3652              		.loc 1 272 0
 3653 09a4 95F82530 		ldrb	r3, [r5, #37]	@ zero_extendqisi2
 3654 09a8 95F824A0 		ldrb	r10, [r5, #36]	@ zero_extendqisi2
 3655 09ac 43EA0A2A 		orr	r10, r3, r10, lsl #8
 3656              	.LVL480:
 3657              		.loc 1 275 0
 3658 09b0 0AF14203 		add	r3, r10, #66
 3659 09b4 9C42     		cmp	r4, r3
 3660 09b6 40F04B84 		bne	.L431
 3661 09ba E91C     		adds	r1, r5, #3
 3662 09bc 00F1FF3E 		add	lr, r0, #-1
 3663 09c0 05F1130C 		add	ip, r5, #19
 3664 09c4 0027     		movs	r7, #0
 3665              	.LVL481:
 3666              	.L380:
 3667              		.loc 1 281 0
 3668 09c6 11F8013F 		ldrb	r3, [r1, #1]!	@ zero_extendqisi2
 3669 09ca 1EF8012F 		ldrb	r2, [lr, #1]!	@ zero_extendqisi2
 3670              		.loc 1 280 0
 3671 09ce 6145     		cmp	r1, ip
 3672              		.loc 1 281 0
 3673 09d0 83EA0203 		eor	r3, r3, r2
 3674 09d4 47EA0307 		orr	r7, r7, r3
 3675              	.LVL482:
 3676              		.loc 1 280 0
 3677 09d8 F5D1     		bne	.L380
 3678              		.loc 1 285 0
 3679 09da 0AA9     		add	r1, sp, #40
 3680 09dc 0023     		movs	r3, #0
 3681 09de 8DE80A00 		stmia	sp, {r1, r3}
 3682 09e2 00F51070 		add	r0, r0, #576
 3683 09e6 059A     		ldr	r2, [sp, #20]
 3684 09e8 1021     		movs	r1, #16
 3685 09ea A4F12003 		sub	r3, r4, #32
 3686 09ee FFF7FEFF 		bl	sha256_hmac
 3687              	.LVL483:
 3688 09f2 0AF1FF3C 		add	ip, r10, #-1
 3689 09f6 0AF11F00 		add	r0, r10, #31
 3690 09fa 0BEB0C02 		add	r2, fp, ip
 3691 09fe 5844     		add	r0, r0, fp
 3692 0a00 0DF12701 		add	r1, sp, #39
 3693              	.LVL484:
 3694              	.L381:
 3695              		.loc 1 289 0
 3696 0a04 12F8013F 		ldrb	r3, [r2, #1]!	@ zero_extendqisi2
 3697 0a08 11F801EF 		ldrb	lr, [r1, #1]!	@ zero_extendqisi2
 3698              		.loc 1 288 0
 3699 0a0c 8242     		cmp	r2, r0
 3700              		.loc 1 289 0
 3701 0a0e 8EEA0303 		eor	r3, lr, r3
ARM GAS  C:\Users\jo\AppData\Local\Temp\ccgxU8bj.s 			page 66


 3702 0a12 47EA0307 		orr	r7, r7, r3
 3703              	.LVL485:
 3704              		.loc 1 288 0
 3705 0a16 F5D1     		bne	.L381
 3706 0a18 CDF814C0 		str	ip, [sp, #20]
 3707              	.LVL486:
 3708              		.loc 1 293 0
 3709 0a1c 002F     		cmp	r7, #0
 3710 0a1e 40F00086 		bne	.L432
 3711              		.loc 1 297 0
 3712 0a22 D9F8F400 		ldr	r0, [r9, #244]
 3713 0a26 069B     		ldr	r3, [sp, #24]
 3714 0a28 CDF800B0 		str	fp, [sp]
 3715 0a2c CDF804B0 		str	fp, [sp, #4]
 3716 0a30 3946     		mov	r1, r7
 3717 0a32 00F59470 		add	r0, r0, #296
 3718 0a36 5246     		mov	r2, r10
 3719 0a38 FFF7FEFF 		bl	aes_crypt_cbc
 3720              	.LVL487:
 3721 0a3c E8B9     		cbnz	r0, .L434
 3722              		.loc 1 304 0
 3723 0a3e DDF814C0 		ldr	ip, [sp, #20]
 3724 0a42 1BF80C10 		ldrb	r1, [fp, ip]	@ zero_extendqisi2
 3725              	.LVL488:
 3726              		.loc 1 307 0
 3727 0a46 0229     		cmp	r1, #2
 3728 0a48 98BF     		it	ls
 3729 0a4a C1EB0A0A 		rsbls	r10, r1, r10
 3730              	.LVL489:
 3731 0a4e 40F29583 		bls	.L382
 3732 0a52 AAF10203 		sub	r3, r10, #2
 3733 0a56 C1EB0A0A 		rsb	r10, r1, r10
 3734 0a5a 5B44     		add	r3, r3, fp
 3735 0a5c 0BEB0A07 		add	r7, fp, r10
 3736              	.LVL490:
 3737 0a60 A646     		mov	lr, r4
 3738              	.LVL491:
 3739              	.L384:
 3740              		.loc 1 308 0
 3741 0a62 13F80129 		ldrb	r2, [r3], #-1	@ zero_extendqisi2
 3742              		.loc 1 309 0
 3743 0a66 6F4C     		ldr	r4, .L581+16
 3744 0a68 9142     		cmp	r1, r2
 3745 0a6a 18BF     		it	ne
 3746 0a6c 2046     		movne	r0, r4
 3747              	.LVL492:
 3748              		.loc 1 307 0
 3749 0a6e BB42     		cmp	r3, r7
 3750 0a70 F7D1     		bne	.L384
 3751 0a72 7446     		mov	r4, lr
 3752              		.loc 1 310 0
 3753 0a74 0028     		cmp	r0, #0
 3754 0a76 00F08183 		beq	.L382
 3755              	.LVL493:
 3756              	.L434:
 3757 0a7a 8246     		mov	r10, r0
 3758              	.LVL494:
ARM GAS  C:\Users\jo\AppData\Local\Temp\ccgxU8bj.s 			page 67


 3759              	.L379:
 3760              	.LBE170:
 3761              	.LBE178:
 3762              		.loc 1 718 0
 3763 0a7c 6A4B     		ldr	r3, .L581+20
 3764 0a7e 664A     		ldr	r2, .L581+4
 3765 0a80 8DE80804 		stmia	sp, {r3, r10}
 3766 0a84 4846     		mov	r0, r9
 3767 0a86 0121     		movs	r1, #1
 3768 0a88 40F2CE23 		movw	r3, #718
 3769 0a8c 4544     		add	r5, r5, r8
 3770              	.LVL495:
 3771 0a8e FFF7FEFF 		bl	debug_print_ret
 3772              	.LVL496:
 3773 0a92 D6E4     		b	.L323
 3774              	.LVL497:
 3775              	.L281:
 3776              	.LBE187:
 3777              	.LBE245:
 3778              	.LBE279:
 3779              		.loc 1 1420 0
 3780 0a94 B369     		ldr	r3, [r6, #24]
 3781 0a96 9A42     		cmp	r2, r3
 3782              		.loc 1 1421 0
 3783 0a98 C8BF     		it	gt
 3784 0a9a 3361     		strgt	r3, [r6, #16]
 3785 0a9c FFF774BB 		b	.L282
 3786              	.LVL498:
 3787              	.L533:
 3788              		.loc 1 1290 0
 3789 0aa0 3046     		mov	r0, r6
 3790 0aa2 0521     		movs	r1, #5
 3791 0aa4 FFF7FEFF 		bl	ssl_fetch_input
 3792              	.LVL499:
 3793 0aa8 0546     		mov	r5, r0
 3794 0aaa 0028     		cmp	r0, #0
 3795 0aac 3FF4BBAA 		beq	.L239
 3796              		.loc 1 1292 0
 3797 0ab0 5E4B     		ldr	r3, .L581+24
 3798 0ab2 0190     		str	r0, [sp, #4]
 3799 0ab4 0093     		str	r3, [sp]
 3800 0ab6 3046     		mov	r0, r6
 3801              	.LVL500:
 3802 0ab8 0121     		movs	r1, #1
 3803 0aba 574A     		ldr	r2, .L581+4
 3804 0abc 40F20C53 		movw	r3, #1292
 3805 0ac0 FFF7FEFF 		bl	debug_print_ret
 3806              	.LVL501:
 3807              		.loc 1 1293 0
 3808 0ac4 C6E5     		b	.L504
 3809              	.LVL502:
 3810              	.L333:
 3811              	.LBB280:
 3812              	.LBB246:
 3813              	.LBB208:
 3814              		.loc 1 452 0
 3815 0ac6 012F     		cmp	r7, #1
ARM GAS  C:\Users\jo\AppData\Local\Temp\ccgxU8bj.s 			page 68


 3816 0ac8 14D1     		bne	.L338
 3817 0aca 2B79     		ldrb	r3, [r5, #4]	@ zero_extendqisi2
 3818 0acc 93B9     		cbnz	r3, .L338
 3819              		.loc 1 462 0
 3820 0ace C9F87071 		str	r7, [r9, #368]
 3821              	.L335:
 3822              	.LBE208:
 3823              	.LBE246:
 3824              		.loc 1 1592 0
 3825 0ad2 0123     		movs	r3, #1
 3826 0ad4 4544     		add	r5, r5, r8
 3827              	.LVL503:
 3828 0ad6 0893     		str	r3, [sp, #32]
 3829 0ad8 B3E4     		b	.L323
 3830              	.LVL504:
 3831              	.L545:
 3832              	.LBB247:
 3833              	.LBB201:
 3834              		.loc 1 654 0
 3835 0ada D9F81020 		ldr	r2, [r9, #16]
 3836 0ade 002A     		cmp	r2, #0
 3837 0ae0 3FF4E8AC 		beq	.L519
 3838              		.loc 1 657 0
 3839 0ae4 D9F88020 		ldr	r2, [r9, #128]
 3840 0ae8 4544     		add	r5, r5, r8
 3841              	.LVL505:
 3842 0aea D367     		str	r3, [r2, #124]
 3843 0aec A9E4     		b	.L323
 3844              	.LVL506:
 3845              	.L551:
 3846 0aee 059C     		ldr	r4, [sp, #20]
 3847              	.LVL507:
 3848 0af0 4544     		add	r5, r5, r8
 3849              	.LVL508:
 3850 0af2 A6E4     		b	.L323
 3851              	.LVL509:
 3852              	.L338:
 3853              	.LBE201:
 3854              	.LBE247:
 3855              	.LBB248:
 3856              	.LBB209:
 3857              		.loc 1 454 0
 3858 0af4 4E48     		ldr	r0, .L581+28
 3859 0af6 FFF7FEFF 		bl	debug_fmt
 3860              	.LVL510:
 3861 0afa 0121     		movs	r1, #1
 3862 0afc 0090     		str	r0, [sp]
 3863 0afe 464A     		ldr	r2, .L581+4
 3864 0b00 4846     		mov	r0, r9
 3865 0b02 4FF4E373 		mov	r3, #454
 3866 0b06 FFF7FEFF 		bl	debug_print_msg
 3867              	.LVL511:
 3868              		.loc 1 456 0
 3869 0b0a 4846     		mov	r0, r9
 3870 0b0c FFF7FEFF 		bl	ssl_send_fatal_handshake_failure
 3871              	.LVL512:
 3872 0b10 0028     		cmp	r0, #0
ARM GAS  C:\Users\jo\AppData\Local\Temp\ccgxU8bj.s 			page 69


 3873 0b12 7FF415AD 		bne	.L337
 3874              	.L340:
 3875              		.loc 1 446 0
 3876 0b16 4748     		ldr	r0, .L581+32
 3877              	.LVL513:
 3878              	.LBE209:
 3879              	.LBE248:
 3880              		.loc 1 1597 0
 3881 0b18 0546     		mov	r5, r0
 3882              	.LVL514:
 3883 0b1a 12E5     		b	.L555
 3884              	.LVL515:
 3885              	.L534:
 3886              	.LBE280:
 3887              	.LBB281:
 3888              	.LBB282:
 3889              		.loc 1 1007 0
 3890 0b1c 4648     		ldr	r0, .L581+36
 3891 0b1e FFF7FEFF 		bl	debug_fmt
 3892              	.LVL516:
 3893 0b22 0221     		movs	r1, #2
 3894 0b24 0090     		str	r0, [sp]
 3895 0b26 3C4A     		ldr	r2, .L581+4
 3896 0b28 3046     		mov	r0, r6
 3897 0b2a 40F2EF33 		movw	r3, #1007
 3898 0b2e FFF7FEFF 		bl	debug_print_msg
 3899              	.LVL517:
 3900              		.loc 1 1010 0
 3901 0b32 7568     		ldr	r5, [r6, #4]
 3902 0b34 002D     		cmp	r5, #0
 3903 0b36 00F0E380 		beq	.L242
 3904              		.loc 1 1012 0
 3905 0b3a 4048     		ldr	r0, .L581+40
 3906 0b3c FFF7FEFF 		bl	debug_fmt
 3907              	.LVL518:
 3908 0b40 0121     		movs	r1, #1
 3909 0b42 0090     		str	r0, [sp]
 3910 0b44 344A     		ldr	r2, .L581+4
 3911 0b46 3046     		mov	r0, r6
 3912 0b48 4FF47D73 		mov	r3, #1012
 3913 0b4c FFF7FEFF 		bl	debug_print_msg
 3914              	.LVL519:
 3915              		.loc 1 1014 0
 3916 0b50 3046     		mov	r0, r6
 3917 0b52 FFF7FEFF 		bl	ssl_send_fatal_handshake_failure
 3918              	.LVL520:
 3919 0b56 0028     		cmp	r0, #0
 3920 0b58 3FF47BAD 		beq	.L520
 3921              	.LBE282:
 3922              	.LBE281:
 3923              	.LBB294:
 3924              		.loc 1 1597 0
 3925 0b5c 0546     		mov	r5, r0
 3926 0b5e F0E4     		b	.L555
 3927              	.LVL521:
 3928              	.L364:
 3929              	.LBB249:
ARM GAS  C:\Users\jo\AppData\Local\Temp\ccgxU8bj.s 			page 70


 3930              	.LBB213:
 3931              		.loc 1 591 0
 3932 0b60 C7F86421 		str	r2, [r7, #356]
 3933              		.loc 1 592 0
 3934 0b64 0178     		ldrb	r1, [r0]	@ zero_extendqisi2
 3935 0b66 3648     		ldr	r0, .L581+44
 3936              	.LVL522:
 3937 0b68 FFF7FEFF 		bl	debug_fmt
 3938              	.LVL523:
 3939 0b6c 0421     		movs	r1, #4
 3940 0b6e 0090     		str	r0, [sp]
 3941 0b70 294A     		ldr	r2, .L581+4
 3942 0b72 4846     		mov	r0, r9
 3943 0b74 4FF41473 		mov	r3, #592
 3944 0b78 FFF7FEFF 		bl	debug_print_msg
 3945              	.LVL524:
 3946 0b7c 4544     		add	r5, r5, r8
 3947              	.LVL525:
 3948 0b7e 60E4     		b	.L323
 3949              	.LVL526:
 3950              	.L351:
 3951              	.LBE213:
 3952              	.LBE249:
 3953              	.LBB250:
 3954              	.LBB226:
 3955              		.loc 1 494 0
 3956 0b80 5AF8043F 		ldr	r3, [r10, #4]!
 3957              	.LVL527:
 3958 0b84 002B     		cmp	r3, #0
 3959 0b86 7FF48EAD 		bne	.L347
 3960              	.LVL528:
 3961              	.L348:
 3962              		.loc 1 504 0
 3963 0b8a 2E48     		ldr	r0, .L581+48
 3964 0b8c FFF7FEFF 		bl	debug_fmt
 3965              	.LVL529:
 3966 0b90 0321     		movs	r1, #3
 3967 0b92 0090     		str	r0, [sp]
 3968 0b94 204A     		ldr	r2, .L581+4
 3969 0b96 4846     		mov	r0, r9
 3970 0b98 4FF4FC73 		mov	r3, #504
 3971 0b9c FFF7FEFF 		bl	debug_print_msg
 3972              	.LVL530:
 3973              		.loc 1 476 0
 3974 0ba0 4546     		mov	r5, r8
 3975 0ba2 4EE4     		b	.L323
 3976              	.LVL531:
 3977              	.L518:
 3978 0ba4 059C     		ldr	r4, [sp, #20]
 3979              	.LVL532:
 3980 0ba6 4544     		add	r5, r5, r8
 3981              	.LVL533:
 3982 0ba8 4BE4     		b	.L323
 3983              	.LVL534:
 3984              	.L394:
 3985              	.LBE226:
 3986              	.LBE250:
ARM GAS  C:\Users\jo\AppData\Local\Temp\ccgxU8bj.s 			page 71


 3987              	.LBB251:
 3988              	.LBB218:
 3989              		.loc 1 766 0
 3990 0baa 069B     		ldr	r3, [sp, #24]
 3991 0bac 53F804AF 		ldr	r10, [r3, #4]!
 3992 0bb0 0693     		str	r3, [sp, #24]
 3993              	.LVL535:
 3994 0bb2 BAF1000F 		cmp	r10, #0
 3995 0bb6 7FF41EAD 		bne	.L400
 3996              	.LVL536:
 3997              	.L514:
 3998              		.loc 1 791 0
 3999 0bba 4846     		mov	r0, r9
 4000 0bbc 0221     		movs	r1, #2
 4001 0bbe 7822     		movs	r2, #120
 4002 0bc0 FFF7FEFF 		bl	ssl_send_alert_message
 4003              	.LVL537:
 4004 0bc4 45E5     		b	.L520
 4005              	.LVL538:
 4006              	.L539:
 4007              	.LBE218:
 4008              	.LBE251:
 4009              	.LBE294:
 4010              		.loc 1 1520 0
 4011 0bc6 2048     		ldr	r0, .L581+52
 4012 0bc8 FFF7FEFF 		bl	debug_fmt
 4013              	.LVL539:
 4014 0bcc 0321     		movs	r1, #3
 4015 0bce 0090     		str	r0, [sp]
 4016 0bd0 114A     		ldr	r2, .L581+4
 4017 0bd2 3046     		mov	r0, r6
 4018 0bd4 4FF4BE63 		mov	r3, #1520
 4019 0bd8 FFF7FEFF 		bl	debug_print_msg
 4020              	.LVL540:
 4021              		.loc 1 1522 0
 4022 0bdc 7468     		ldr	r4, [r6, #4]
 4023              	.LVL541:
 4024 0bde 012C     		cmp	r4, #1
 4025 0be0 00F04384 		beq	.L556
 4026              	.LVL542:
 4027              		.loc 1 1533 0
 4028 0be4 0123     		movs	r3, #1
 4029 0be6 C6F87031 		str	r3, [r6, #368]
 4030              		.loc 1 1531 0
 4031 0bea 0893     		str	r3, [sp, #32]
 4032              		.loc 1 1534 0
 4033 0bec FFF7CABB 		b	.L296
 4034              	.LVL543:
 4035              	.L426:
 4036              		.loc 1 1275 0
 4037 0bf0 4FF0000B 		mov	fp, #0
 4038 0bf4 FFF753BB 		b	.L291
 4039              	.LVL544:
 4040              	.L542:
 4041 0bf8 4E46     		mov	r6, r9
 4042              	.LVL545:
 4043              	.L305:
ARM GAS  C:\Users\jo\AppData\Local\Temp\ccgxU8bj.s 			page 72


 4044              	.LBB295:
 4045              		.loc 1 1572 0
 4046 0bfa 1448     		ldr	r0, .L581+56
 4047              		.loc 1 1573 0
 4048 0bfc 0D4D     		ldr	r5, .L581+32
 4049              	.LVL546:
 4050              		.loc 1 1572 0
 4051 0bfe FFF7FEFF 		bl	debug_fmt
 4052              	.LVL547:
 4053 0c02 0121     		movs	r1, #1
 4054 0c04 0090     		str	r0, [sp]
 4055 0c06 044A     		ldr	r2, .L581+4
 4056 0c08 3046     		mov	r0, r6
 4057 0c0a 40F22463 		movw	r3, #1572
 4058 0c0e FFF7FEFF 		bl	debug_print_msg
 4059              	.LVL548:
 4060              		.loc 1 1573 0
 4061 0c12 1FE5     		b	.L504
 4062              	.L582:
 4063              		.align	2
 4064              	.L581:
 4065 0c14 C40A0000 		.word	.LC92
 4066 0c18 18000000 		.word	.LC1
 4067 0c1c E40A0000 		.word	.LC93
 4068 0c20 180B0000 		.word	.LC95
 4069 0c24 008FFFFF 		.word	-28928
 4070 0c28 640C0000 		.word	.LC105
 4071 0c2c 74040000 		.word	.LC44
 4072 0c30 24090000 		.word	.LC81
 4073 0c34 0087FFFF 		.word	-30976
 4074 0c38 84040000 		.word	.LC45
 4075 0c3c A0040000 		.word	.LC46
 4076 0c40 180A0000 		.word	.LC87
 4077 0c44 70090000 		.word	.LC83
 4078 0c48 38060000 		.word	.LC58
 4079 0c4c 4C050000 		.word	.LC51
 4080              	.LVL549:
 4081              	.L541:
 4082 0c50 4E46     		mov	r6, r9
 4083              	.LVL550:
 4084              	.L301:
 4085              	.LBE295:
 4086              		.loc 1 1713 0
 4087 0c52 D6F87031 		ldr	r3, [r6, #368]
 4088 0c56 012B     		cmp	r3, #1
 4089 0c58 00F0E583 		beq	.L403
 4090              		.loc 1 1714 0 discriminator 1
 4091 0c5c D6F81821 		ldr	r2, [r6, #280]
 4092              		.loc 1 1713 0 discriminator 1
 4093 0c60 022A     		cmp	r2, #2
 4094 0c62 00F09384 		beq	.L557
 4095              		.loc 1 1720 0
 4096 0c66 7468     		ldr	r4, [r6, #4]
 4097 0c68 012C     		cmp	r4, #1
 4098 0c6a 00F06982 		beq	.L558
 4099              	.L406:
 4100              	.LVL551:
ARM GAS  C:\Users\jo\AppData\Local\Temp\ccgxU8bj.s 			page 73


 4101              		.loc 1 1757 0
 4102 0c6e 3369     		ldr	r3, [r6, #16]
 4103 0c70 06EB8303 		add	r3, r6, r3, lsl #2
 4104              		.loc 1 1758 0
 4105 0c74 0020     		movs	r0, #0
 4106              		.loc 1 1757 0
 4107 0c76 D3F81C51 		ldr	r5, [r3, #284]
 4108              	.LVL552:
 4109              		.loc 1 1758 0
 4110 0c7a 1290     		str	r0, [sp, #72]
 4111              	.LVL553:
 4112              		.loc 1 1764 0
 4113 0c7c 2968     		ldr	r1, [r5]
 4114 0c7e 0029     		cmp	r1, #0
 4115 0c80 00F02384 		beq	.L408
 4116 0c84 049B     		ldr	r3, [sp, #16]
 4117 0c86 099A     		ldr	r2, [sp, #36]
 4118 0c88 5F1E     		subs	r7, r3, #1
 4119 0c8a 47F00107 		orr	r7, r7, #1
 4120 0c8e 1744     		add	r7, r7, r2
 4121 0c90 02F10108 		add	r8, r2, #1
 4122              	.LVL554:
 4123              	.L409:
 4124 0c94 4446     		mov	r4, r8
 4125 0c96 03E0     		b	.L414
 4126              	.LVL555:
 4127              	.L410:
 4128              		.loc 1 1766 0 discriminator 2
 4129 0c98 BC42     		cmp	r4, r7
 4130 0c9a 1AD0     		beq	.L559
 4131              	.LVL556:
 4132              	.L412:
 4133 0c9c 2968     		ldr	r1, [r5]
 4134 0c9e 0234     		adds	r4, r4, #2
 4135              	.L414:
 4136              	.LVL557:
 4137              		.loc 1 1769 0
 4138 0ca0 14F8012C 		ldrb	r2, [r4, #-1]	@ zero_extendqisi2
 4139 0ca4 C1F30723 		ubfx	r3, r1, #8, #8
 4140 0ca8 9A42     		cmp	r2, r3
 4141 0caa F5D1     		bne	.L410
 4142              		.loc 1 1770 0 discriminator 1
 4143 0cac 2278     		ldrb	r2, [r4]	@ zero_extendqisi2
 4144 0cae CBB2     		uxtb	r3, r1
 4145              		.loc 1 1769 0 discriminator 1
 4146 0cb0 9A42     		cmp	r2, r3
 4147 0cb2 F1D1     		bne	.L410
 4148              	.LVL558:
 4149              		.loc 1 1775 0
 4150 0cb4 3046     		mov	r0, r6
 4151 0cb6 12AA     		add	r2, sp, #72
 4152 0cb8 FFF7FEFF 		bl	ssl_ciphersuite_match
 4153              	.LVL559:
 4154 0cbc 0028     		cmp	r0, #0
 4155 0cbe 40F08983 		bne	.L436
 4156              		.loc 1 1779 0
 4157 0cc2 129B     		ldr	r3, [sp, #72]
ARM GAS  C:\Users\jo\AppData\Local\Temp\ccgxU8bj.s 			page 74


 4158 0cc4 002B     		cmp	r3, #0
 4159 0cc6 40F05983 		bne	.L411
 4160              		.loc 1 1766 0
 4161 0cca BC42     		cmp	r4, r7
 4162              		.loc 1 1773 0
 4163 0ccc 4FF00100 		mov	r0, #1
 4164              	.LVL560:
 4165              		.loc 1 1766 0
 4166 0cd0 E4D1     		bne	.L412
 4167              	.LVL561:
 4168              	.L559:
 4169              		.loc 1 1764 0 discriminator 2
 4170 0cd2 55F8041F 		ldr	r1, [r5, #4]!
 4171 0cd6 0029     		cmp	r1, #0
 4172 0cd8 DCD1     		bne	.L409
 4173              		.loc 1 1784 0
 4174 0cda 0028     		cmp	r0, #0
 4175 0cdc 00F0F583 		beq	.L408
 4176              		.loc 1 1786 0
 4177 0ce0 C648     		ldr	r0, .L583
 4178              		.loc 1 1789 0
 4179 0ce2 C74D     		ldr	r5, .L583+4
 4180              		.loc 1 1786 0
 4181 0ce4 FFF7FEFF 		bl	debug_fmt
 4182              	.LVL562:
 4183 0ce8 0121     		movs	r1, #1
 4184 0cea 0090     		str	r0, [sp]
 4185 0cec C54A     		ldr	r2, .L583+8
 4186 0cee 3046     		mov	r0, r6
 4187 0cf0 40F2FB63 		movw	r3, #1787
 4188 0cf4 FFF7FEFF 		bl	debug_print_msg
 4189              	.LVL563:
 4190              		.loc 1 1788 0
 4191 0cf8 3046     		mov	r0, r6
 4192 0cfa FFF7FEFF 		bl	ssl_send_fatal_handshake_failure
 4193              	.LVL564:
 4194              		.loc 1 1789 0
 4195 0cfe A9E4     		b	.L504
 4196              	.LVL565:
 4197              	.L242:
 4198              	.LBB296:
 4199              	.LBB283:
 4200              		.loc 1 1021 0
 4201 0d00 D6F89C40 		ldr	r4, [r6, #156]
 4202              	.LVL566:
 4203              		.loc 1 1023 0
 4204 0d04 C04A     		ldr	r2, .L583+12
 4205 0d06 0092     		str	r2, [sp]
 4206 0d08 0523     		movs	r3, #5
 4207 0d0a BE4A     		ldr	r2, .L583+8
 4208 0d0c 0293     		str	r3, [sp, #8]
 4209 0d0e 3046     		mov	r0, r6
 4210 0d10 40F2FF33 		movw	r3, #1023
 4211 0d14 0421     		movs	r1, #4
 4212 0d16 0194     		str	r4, [sp, #4]
 4213 0d18 FFF7FEFF 		bl	debug_print_buf
 4214              	.LVL567:
ARM GAS  C:\Users\jo\AppData\Local\Temp\ccgxU8bj.s 			page 75


 4215              		.loc 1 1025 0
 4216 0d1c A178     		ldrb	r1, [r4, #2]	@ zero_extendqisi2
 4217 0d1e BB48     		ldr	r0, .L583+16
 4218 0d20 FFF7FEFF 		bl	debug_fmt
 4219              	.LVL568:
 4220 0d24 B74A     		ldr	r2, .L583+8
 4221 0d26 0090     		str	r0, [sp]
 4222 0d28 0321     		movs	r1, #3
 4223 0d2a 3046     		mov	r0, r6
 4224 0d2c 40F20243 		movw	r3, #1026
 4225 0d30 FFF7FEFF 		bl	debug_print_msg
 4226              	.LVL569:
 4227              		.loc 1 1027 0
 4228 0d34 2378     		ldrb	r3, [r4]	@ zero_extendqisi2
 4229 0d36 6178     		ldrb	r1, [r4, #1]	@ zero_extendqisi2
 4230 0d38 B548     		ldr	r0, .L583+20
 4231 0d3a 03F07F03 		and	r3, r3, #127
 4232 0d3e 41EA0321 		orr	r1, r1, r3, lsl #8
 4233 0d42 FFF7FEFF 		bl	debug_fmt
 4234              	.LVL570:
 4235 0d46 40F20443 		movw	r3, #1028
 4236 0d4a 0321     		movs	r1, #3
 4237 0d4c 0090     		str	r0, [sp]
 4238 0d4e AD4A     		ldr	r2, .L583+8
 4239 0d50 3046     		mov	r0, r6
 4240 0d52 FFF7FEFF 		bl	debug_print_msg
 4241              	.LVL571:
 4242              		.loc 1 1029 0
 4243 0d56 E178     		ldrb	r1, [r4, #3]	@ zero_extendqisi2
 4244 0d58 2279     		ldrb	r2, [r4, #4]	@ zero_extendqisi2
 4245 0d5a AE48     		ldr	r0, .L583+24
 4246 0d5c FFF7FEFF 		bl	debug_fmt
 4247              	.LVL572:
 4248 0d60 0321     		movs	r1, #3
 4249 0d62 0090     		str	r0, [sp]
 4250 0d64 A74A     		ldr	r2, .L583+8
 4251 0d66 3046     		mov	r0, r6
 4252 0d68 40F20643 		movw	r3, #1030
 4253 0d6c FFF7FEFF 		bl	debug_print_msg
 4254              	.LVL573:
 4255              		.loc 1 1042 0
 4256 0d70 94F80280 		ldrb	r8, [r4, #2]	@ zero_extendqisi2
 4257 0d74 B8F1010F 		cmp	r8, #1
 4258 0d78 40F0B883 		bne	.L244
 4259 0d7c 94F80390 		ldrb	r9, [r4, #3]	@ zero_extendqisi2
 4260 0d80 B9F1030F 		cmp	r9, #3
 4261 0d84 40F0B283 		bne	.L244
 4262              		.loc 1 1049 0
 4263 0d88 6378     		ldrb	r3, [r4, #1]	@ zero_extendqisi2
 4264 0d8a 2778     		ldrb	r7, [r4]	@ zero_extendqisi2
 4265 0d8c 43EA0727 		orr	r7, r3, r7, lsl #8
 4266 0d90 C7F30E07 		ubfx	r7, r7, #0, #15
 4267              	.LVL574:
 4268              		.loc 1 1051 0
 4269 0d94 A7F11103 		sub	r3, r7, #17
 4270 0d98 B3F5F87F 		cmp	r3, #496
 4271 0d9c 80F0C284 		bcs	.L560
ARM GAS  C:\Users\jo\AppData\Local\Temp\ccgxU8bj.s 			page 76


 4272              		.loc 1 1057 0
 4273 0da0 C6F80C90 		str	r9, [r6, #12]
 4274              		.loc 1 1059 0
 4275 0da4 2279     		ldrb	r2, [r4, #4]	@ zero_extendqisi2
 4276 0da6 B369     		ldr	r3, [r6, #24]
 4277              		.loc 1 1061 0
 4278 0da8 316A     		ldr	r1, [r6, #32]
 4279              		.loc 1 1059 0
 4280 0daa 9A42     		cmp	r2, r3
 4281 0dac A8BF     		it	ge
 4282 0dae 1A46     		movge	r2, r3
 4283              		.loc 1 1061 0
 4284 0db0 8A42     		cmp	r2, r1
 4285              		.loc 1 1058 0
 4286 0db2 3261     		str	r2, [r6, #16]
 4287              		.loc 1 1061 0
 4288 0db4 C0F2A884 		blt	.L561
 4289              		.loc 1 1073 0
 4290 0db8 D6F88430 		ldr	r3, [r6, #132]
 4291 0dbc E278     		ldrb	r2, [r4, #3]	@ zero_extendqisi2
 4292 0dbe C3F8BC2A 		str	r2, [r3, #2748]
 4293              		.loc 1 1074 0
 4294 0dc2 2279     		ldrb	r2, [r4, #4]	@ zero_extendqisi2
 4295 0dc4 C3F8C02A 		str	r2, [r3, #2752]
 4296              		.loc 1 1076 0
 4297 0dc8 3046     		mov	r0, r6
 4298 0dca B91C     		adds	r1, r7, #2
 4299 0dcc FFF7FEFF 		bl	ssl_fetch_input
 4300              	.LVL575:
 4301 0dd0 8646     		mov	lr, r0
 4302 0dd2 0028     		cmp	r0, #0
 4303 0dd4 40F0A781 		bne	.L562
 4304              		.loc 1 1082 0
 4305 0dd8 D6F88430 		ldr	r3, [r6, #132]
 4306 0ddc A11C     		adds	r1, r4, #2
 4307 0dde 3A46     		mov	r2, r7
 4308 0de0 D3F84036 		ldr	r3, [r3, #1600]
 4309 0de4 3046     		mov	r0, r6
 4310              	.LVL576:
 4311 0de6 9847     		blx	r3
 4312              	.LVL577:
 4313              		.loc 1 1085 0
 4314 0de8 D6F8B420 		ldr	r2, [r6, #180]
 4315              		.loc 1 1084 0
 4316 0dec D6F8A470 		ldr	r7, [r6, #164]
 4317              	.LVL578:
 4318              		.loc 1 1095 0
 4319 0df0 894B     		ldr	r3, .L583+28
 4320 0df2 0093     		str	r3, [sp]
 4321              		.loc 1 1085 0
 4322 0df4 A2F1050B 		sub	fp, r2, #5
 4323              	.LVL579:
 4324              		.loc 1 1095 0
 4325 0df8 3046     		mov	r0, r6
 4326 0dfa 0421     		movs	r1, #4
 4327 0dfc 814A     		ldr	r2, .L583+8
 4328 0dfe 0197     		str	r7, [sp, #4]
ARM GAS  C:\Users\jo\AppData\Local\Temp\ccgxU8bj.s 			page 77


 4329 0e00 40F24743 		movw	r3, #1095
 4330 0e04 CDF808B0 		str	fp, [sp, #8]
 4331 0e08 FFF7FEFF 		bl	debug_print_buf
 4332              	.LVL580:
 4333              		.loc 1 1097 0
 4334 0e0c 7978     		ldrb	r1, [r7, #1]	@ zero_extendqisi2
 4335              		.loc 1 1098 0
 4336 0e0e FA78     		ldrb	r2, [r7, #3]	@ zero_extendqisi2
 4337              		.loc 1 1099 0
 4338 0e10 7B79     		ldrb	r3, [r7, #5]	@ zero_extendqisi2
 4339              		.loc 1 1097 0
 4340 0e12 97F80080 		ldrb	r8, [r7]	@ zero_extendqisi2
 4341              		.loc 1 1098 0
 4342 0e16 97F802A0 		ldrb	r10, [r7, #2]	@ zero_extendqisi2
 4343              		.loc 1 1099 0
 4344 0e1a 3C79     		ldrb	r4, [r7, #4]	@ zero_extendqisi2
 4345              		.loc 1 1101 0
 4346 0e1c 7F48     		ldr	r0, .L583+32
 4347              		.loc 1 1097 0
 4348 0e1e 41EA0828 		orr	r8, r1, r8, lsl #8
 4349              	.LVL581:
 4350              		.loc 1 1098 0
 4351 0e22 42EA0A2A 		orr	r10, r2, r10, lsl #8
 4352              	.LVL582:
 4353              		.loc 1 1099 0
 4354 0e26 43EA0424 		orr	r4, r3, r4, lsl #8
 4355              	.LVL583:
 4356              		.loc 1 1101 0
 4357 0e2a 4146     		mov	r1, r8
 4358 0e2c 5246     		mov	r2, r10
 4359 0e2e 2346     		mov	r3, r4
 4360 0e30 FFF7FEFF 		bl	debug_fmt
 4361              	.LVL584:
 4362 0e34 4946     		mov	r1, r9
 4363 0e36 0090     		str	r0, [sp]
 4364 0e38 724A     		ldr	r2, .L583+8
 4365 0e3a 3046     		mov	r0, r6
 4366 0e3c 40F24E43 		movw	r3, #1102
 4367 0e40 FFF7FEFF 		bl	debug_print_msg
 4368              	.LVL585:
 4369              		.loc 1 1107 0
 4370 0e44 B8F1020F 		cmp	r8, #2
 4371 0e48 40F38684 		ble	.L249
 4372 0e4c 744B     		ldr	r3, .L583+36
 4373 0e4e A3FB0823 		umull	r2, r3, r3, r8
 4374 0e52 5B08     		lsrs	r3, r3, #1
 4375 0e54 03EB4303 		add	r3, r3, r3, lsl #1
 4376 0e58 9845     		cmp	r8, r3
 4377 0e5a 40F07D84 		bne	.L249
 4378              		.loc 1 1113 0
 4379 0e5e BAF1200F 		cmp	r10, #32
 4380 0e62 00F39A84 		bgt	.L563
 4381              		.loc 1 1119 0
 4382 0e66 A4F10803 		sub	r3, r4, #8
 4383 0e6a 182B     		cmp	r3, #24
 4384 0e6c 00F2A384 		bhi	.L564
 4385              		.loc 1 1125 0
ARM GAS  C:\Users\jo\AppData\Local\Temp\ccgxU8bj.s 			page 78


 4386 0e70 0AEB0809 		add	r9, r10, r8
 4387 0e74 A31D     		adds	r3, r4, #6
 4388 0e76 4B44     		add	r3, r3, r9
 4389 0e78 9B45     		cmp	fp, r3
 4390 0e7a 40F03484 		bne	.L565
 4391              		.loc 1 1131 0
 4392 0e7e 694A     		ldr	r2, .L583+40
 4393 0e80 CDF80880 		str	r8, [sp, #8]
 4394 0e84 BB1D     		adds	r3, r7, #6
 4395 0e86 8DE80C00 		stmia	sp, {r2, r3}
 4396 0e8a 3046     		mov	r0, r6
 4397 0e8c 0321     		movs	r1, #3
 4398 0e8e 5D4A     		ldr	r2, .L583+8
 4399 0e90 40F26C43 		movw	r3, #1132
 4400 0e94 FFF7FEFF 		bl	debug_print_buf
 4401              	.LVL586:
 4402              		.loc 1 1133 0
 4403 0e98 08F1060B 		add	fp, r8, #6
 4404              	.LVL587:
 4405 0e9c 624B     		ldr	r3, .L583+44
 4406 0e9e 594A     		ldr	r2, .L583+8
 4407 0ea0 CDF808A0 		str	r10, [sp, #8]
 4408 0ea4 BB44     		add	fp, fp, r7
 4409 0ea6 8DE80808 		stmia	sp, {r3, fp}
 4410 0eaa 3046     		mov	r0, r6
 4411 0eac 0321     		movs	r1, #3
 4412 0eae 40F26E43 		movw	r3, #1134
 4413 0eb2 FFF7FEFF 		bl	debug_print_buf
 4414              	.LVL588:
 4415              		.loc 1 1135 0
 4416 0eb6 5D4A     		ldr	r2, .L583+48
 4417 0eb8 09F10603 		add	r3, r9, #6
 4418 0ebc 3B44     		add	r3, r3, r7
 4419 0ebe 8DE81C00 		stmia	sp, {r2, r3, r4}
 4420 0ec2 3046     		mov	r0, r6
 4421 0ec4 4FF48E63 		mov	r3, #1136
 4422 0ec8 0321     		movs	r1, #3
 4423 0eca 4E4A     		ldr	r2, .L583+8
 4424 0ecc FFF7FEFF 		bl	debug_print_buf
 4425              	.LVL589:
 4426              		.loc 1 1139 0
 4427 0ed0 D6F88000 		ldr	r0, [r6, #128]
 4428              		.loc 1 1140 0
 4429 0ed4 0021     		movs	r1, #0
 4430              		.loc 1 1139 0
 4431 0ed6 C0F80CA0 		str	r10, [r0, #12]
 4432              		.loc 1 1140 0
 4433 0eda 2022     		movs	r2, #32
 4434 0edc 1030     		adds	r0, r0, #16
 4435 0ede FFF7FEFF 		bl	memset
 4436              	.LVL590:
 4437              		.loc 1 1142 0
 4438 0ee2 D6F88030 		ldr	r3, [r6, #128]
 4439 0ee6 5946     		mov	r1, fp
 4440 0ee8 DA68     		ldr	r2, [r3, #12]
 4441 0eea 03F11000 		add	r0, r3, #16
 4442 0eee FFF7FEFF 		bl	memcpy
ARM GAS  C:\Users\jo\AppData\Local\Temp\ccgxU8bj.s 			page 79


 4443              	.LVL591:
 4444              		.loc 1 1145 0
 4445 0ef2 D6F88400 		ldr	r0, [r6, #132]
 4446 0ef6 0021     		movs	r1, #0
 4447 0ef8 4022     		movs	r2, #64
 4448 0efa 00F25460 		addw	r0, r0, #1620
 4449 0efe FFF7FEFF 		bl	memset
 4450              	.LVL592:
 4451              		.loc 1 1146 0
 4452 0f02 D6F88430 		ldr	r3, [r6, #132]
 4453 0f06 181B     		subs	r0, r3, r4
 4454 0f08 0BEB0A01 		add	r1, fp, r10
 4455              	.LVL593:
 4456 0f0c 00F27460 		addw	r0, r0, #1652
 4457 0f10 2246     		mov	r2, r4
 4458 0f12 FFF7FEFF 		bl	memcpy
 4459              	.LVL594:
 4460 0f16 3B46     		mov	r3, r7
 4461              	.LVL595:
 4462              	.L258:
 4463              		.loc 1 1153 0
 4464 0f18 9A79     		ldrb	r2, [r3, #6]	@ zero_extendqisi2
 4465 0f1a 2AB9     		cbnz	r2, .L254
 4466 0f1c DA79     		ldrb	r2, [r3, #7]	@ zero_extendqisi2
 4467 0f1e 1AB9     		cbnz	r2, .L254
 4468 0f20 1A7A     		ldrb	r2, [r3, #8]	@ zero_extendqisi2
 4469 0f22 FF2A     		cmp	r2, #255
 4470 0f24 00F04B83 		beq	.L566
 4471              	.L254:
 4472 0f28 0333     		adds	r3, r3, #3
 4473              	.LVL596:
 4474 0f2a DA1B     		subs	r2, r3, r7
 4475              		.loc 1 1151 0
 4476 0f2c 9045     		cmp	r8, r2
 4477 0f2e F3D8     		bhi	.L258
 4478              	.LVL597:
 4479              	.L259:
 4480              		.loc 1 1146 0
 4481 0f30 3B46     		mov	r3, r7
 4482 0f32 04E0     		b	.L257
 4483              	.LVL598:
 4484              	.L260:
 4485 0f34 0333     		adds	r3, r3, #3
 4486              	.LVL599:
 4487 0f36 DA1B     		subs	r2, r3, r7
 4488              		.loc 1 1174 0
 4489 0f38 9045     		cmp	r8, r2
 4490 0f3a 40F2BC81 		bls	.L567
 4491              	.LVL600:
 4492              	.L257:
 4493              		.loc 1 1176 0
 4494 0f3e 9A79     		ldrb	r2, [r3, #6]	@ zero_extendqisi2
 4495 0f40 002A     		cmp	r2, #0
 4496 0f42 F7D1     		bne	.L260
 4497 0f44 DC79     		ldrb	r4, [r3, #7]	@ zero_extendqisi2
 4498 0f46 562C     		cmp	r4, #86
 4499 0f48 F4D1     		bne	.L260
ARM GAS  C:\Users\jo\AppData\Local\Temp\ccgxU8bj.s 			page 80


 4500              		.loc 1 1177 0
 4501 0f4a 1A7A     		ldrb	r2, [r3, #8]	@ zero_extendqisi2
 4502 0f4c 002A     		cmp	r2, #0
 4503 0f4e F1D1     		bne	.L260
 4504              		.loc 1 1180 0
 4505 0f50 3748     		ldr	r0, .L583+52
 4506 0f52 FFF7FEFF 		bl	debug_fmt
 4507              	.LVL601:
 4508 0f56 2B4A     		ldr	r2, .L583+8
 4509 0f58 0090     		str	r0, [sp]
 4510 0f5a 40F29C43 		movw	r3, #1180
 4511 0f5e 0321     		movs	r1, #3
 4512 0f60 3046     		mov	r0, r6
 4513 0f62 FFF7FEFF 		bl	debug_print_msg
 4514              	.LVL602:
 4515              		.loc 1 1182 0
 4516 0f66 3369     		ldr	r3, [r6, #16]
 4517 0f68 B269     		ldr	r2, [r6, #24]
 4518 0f6a 9342     		cmp	r3, r2
 4519 0f6c C0F25C84 		blt	.L568
 4520              	.L261:
 4521              	.LVL603:
 4522              		.loc 1 1198 0
 4523 0f70 06EB8303 		add	r3, r6, r3, lsl #2
 4524              		.loc 1 1199 0
 4525 0f74 0020     		movs	r0, #0
 4526              		.loc 1 1198 0
 4527 0f76 D3F81C31 		ldr	r3, [r3, #284]
 4528              	.LVL604:
 4529              		.loc 1 1199 0
 4530 0f7a 1290     		str	r0, [sp, #72]
 4531              	.LVL605:
 4532              		.loc 1 1205 0
 4533 0f7c 1A68     		ldr	r2, [r3]
 4534 0f7e 9946     		mov	r9, r3
 4535 0f80 002A     		cmp	r2, #0
 4536 0f82 00F0F582 		beq	.L263
 4537              	.LVL606:
 4538              	.L267:
 4539              		.loc 1 1146 0
 4540 0f86 3C46     		mov	r4, r7
 4541 0f88 03E0     		b	.L266
 4542              	.LVL607:
 4543              	.L264:
 4544 0f8a 0334     		adds	r4, r4, #3
 4545              	.LVL608:
 4546 0f8c E31B     		subs	r3, r4, r7
 4547              		.loc 1 1207 0
 4548 0f8e 4345     		cmp	r3, r8
 4549 0f90 1ED2     		bcs	.L569
 4550              	.LVL609:
 4551              	.L266:
 4552              		.loc 1 1210 0
 4553 0f92 A379     		ldrb	r3, [r4, #6]	@ zero_extendqisi2
 4554 0f94 002B     		cmp	r3, #0
 4555 0f96 F8D1     		bne	.L264
 4556              		.loc 1 1211 0
ARM GAS  C:\Users\jo\AppData\Local\Temp\ccgxU8bj.s 			page 81


 4557 0f98 D9F80010 		ldr	r1, [r9]
 4558 0f9c E279     		ldrb	r2, [r4, #7]	@ zero_extendqisi2
 4559 0f9e C1F30723 		ubfx	r3, r1, #8, #8
 4560              		.loc 1 1210 0
 4561 0fa2 9A42     		cmp	r2, r3
 4562 0fa4 F1D1     		bne	.L264
 4563              		.loc 1 1212 0
 4564 0fa6 227A     		ldrb	r2, [r4, #8]	@ zero_extendqisi2
 4565 0fa8 CBB2     		uxtb	r3, r1
 4566              		.loc 1 1211 0
 4567 0faa 9A42     		cmp	r2, r3
 4568 0fac EDD1     		bne	.L264
 4569              	.LVL610:
 4570              		.loc 1 1217 0
 4571 0fae 3046     		mov	r0, r6
 4572 0fb0 12AA     		add	r2, sp, #72
 4573 0fb2 FFF7FEFF 		bl	ssl_ciphersuite_match
 4574              	.LVL611:
 4575 0fb6 0028     		cmp	r0, #0
 4576 0fb8 7FF4C2AA 		bne	.L337
 4577              		.loc 1 1221 0
 4578 0fbc 129B     		ldr	r3, [sp, #72]
 4579 0fbe 002B     		cmp	r3, #0
 4580 0fc0 40F0A282 		bne	.L265
 4581 0fc4 0334     		adds	r4, r4, #3
 4582              	.LVL612:
 4583 0fc6 E31B     		subs	r3, r4, r7
 4584              		.loc 1 1207 0
 4585 0fc8 4345     		cmp	r3, r8
 4586              		.loc 1 1215 0
 4587 0fca 4FF00100 		mov	r0, #1
 4588              	.LVL613:
 4589              		.loc 1 1207 0
 4590 0fce E0D3     		bcc	.L266
 4591              	.L569:
 4592              		.loc 1 1205 0
 4593 0fd0 59F8043F 		ldr	r3, [r9, #4]!
 4594 0fd4 002B     		cmp	r3, #0
 4595 0fd6 D6D1     		bne	.L267
 4596              		.loc 1 1226 0
 4597 0fd8 0028     		cmp	r0, #0
 4598 0fda 00F0C982 		beq	.L263
 4599              		.loc 1 1228 0
 4600 0fde 0748     		ldr	r0, .L583
 4601              		.loc 1 1230 0
 4602 0fe0 074D     		ldr	r5, .L583+4
 4603              		.loc 1 1228 0
 4604 0fe2 FFF7FEFF 		bl	debug_fmt
 4605              	.LVL614:
 4606 0fe6 0121     		movs	r1, #1
 4607 0fe8 0090     		str	r0, [sp]
 4608 0fea 064A     		ldr	r2, .L583+8
 4609 0fec 3046     		mov	r0, r6
 4610 0fee 40F2CD43 		movw	r3, #1229
 4611 0ff2 FFF7FEFF 		bl	debug_print_msg
 4612              	.LVL615:
 4613 0ff6 FFF72DBB 		b	.L504
ARM GAS  C:\Users\jo\AppData\Local\Temp\ccgxU8bj.s 			page 82


 4614              	.L584:
 4615 0ffa 00BF     		.align	2
 4616              	.L583:
 4617 0ffc C4060000 		.word	.LC62
 4618 1000 8095FFFF 		.word	-27264
 4619 1004 18000000 		.word	.LC1
 4620 1008 CC040000 		.word	.LC47
 4621 100c DC040000 		.word	.LC48
 4622 1010 00050000 		.word	.LC49
 4623 1014 24050000 		.word	.LC50
 4624 1018 A8050000 		.word	.LC53
 4625 101c B8050000 		.word	.LC54
 4626 1020 ABAAAAAA 		.word	-1431655765
 4627 1024 E4050000 		.word	.LC55
 4628 1028 04060000 		.word	.LC56
 4629 102c 20060000 		.word	.LC57
 4630 1030 94060000 		.word	.LC60
 4631              	.LVL616:
 4632              	.L540:
 4633              	.LBE283:
 4634              	.LBE296:
 4635              	.LBB297:
 4636              		.loc 1 1705 0
 4637 1034 C448     		ldr	r0, .L585
 4638              		.loc 1 1706 0
 4639 1036 C54D     		ldr	r5, .L585+4
 4640              	.LVL617:
 4641              		.loc 1 1705 0
 4642 1038 FFF7FEFF 		bl	debug_fmt
 4643              	.LVL618:
 4644 103c 0121     		movs	r1, #1
 4645 103e 0090     		str	r0, [sp]
 4646 1040 C34A     		ldr	r2, .L585+8
 4647 1042 4846     		mov	r0, r9
 4648 1044 40F2A963 		movw	r3, #1705
 4649 1048 FFF7FEFF 		bl	debug_print_msg
 4650              	.LVL619:
 4651              		.loc 1 1706 0
 4652 104c FFF702BB 		b	.L504
 4653              	.LVL620:
 4654              	.L512:
 4655              	.LBB252:
 4656              	.LBB238:
 4657              		.loc 1 395 0
 4658 1050 BD48     		ldr	r0, .L585
 4659 1052 FFF7FEFF 		bl	debug_fmt
 4660              	.LVL621:
 4661 1056 0121     		movs	r1, #1
 4662 1058 0090     		str	r0, [sp]
 4663 105a BD4A     		ldr	r2, .L585+8
 4664 105c 4846     		mov	r0, r9
 4665 105e 40F28B13 		movw	r3, #395
 4666 1062 FFF7FEFF 		bl	debug_print_msg
 4667              	.LVL622:
 4668 1066 FFF7F4BA 		b	.L520
 4669              	.LVL623:
 4670              	.L328:
ARM GAS  C:\Users\jo\AppData\Local\Temp\ccgxU8bj.s 			page 83


 4671              	.LBB236:
 4672              	.LBB237:
 4673              		.loc 1 363 0
 4674 106a 0021     		movs	r1, #0
 4675              		.loc 1 361 0
 4676 106c D9F8E4A0 		ldr	r10, [r9, #228]
 4677              	.LVL624:
 4678              		.loc 1 364 0
 4679 1070 D9F86000 		ldr	r0, [r9, #96]
 4680              		.loc 1 363 0
 4681 1074 C9F8E410 		str	r1, [r9, #228]
 4682              		.loc 1 364 0
 4683 1078 0332     		adds	r2, r2, #3
 4684              	.LVL625:
 4685 107a 4946     		mov	r1, r9
 4686 107c D9F85C70 		ldr	r7, [r9, #92]
 4687 1080 B847     		blx	r7
 4688              	.LVL626:
 4689              		.loc 1 365 0
 4690 1082 D9F88430 		ldr	r3, [r9, #132]
 4691 1086 D9F8E420 		ldr	r2, [r9, #228]
 4692 108a C3F8C421 		str	r2, [r3, #452]
 4693              		.loc 1 367 0
 4694 108e C9F8E4A0 		str	r10, [r9, #228]
 4695              	.LBE237:
 4696              	.LBE236:
 4697              		.loc 1 402 0
 4698 1092 0028     		cmp	r0, #0
 4699 1094 3FF40EAA 		beq	.L519
 4700              		.loc 1 404 0
 4701 1098 AE4B     		ldr	r3, .L585+12
 4702 109a 0190     		str	r0, [sp, #4]
 4703 109c 0093     		str	r3, [sp]
 4704 109e 4846     		mov	r0, r9
 4705              	.LVL627:
 4706 10a0 0121     		movs	r1, #1
 4707 10a2 AB4A     		ldr	r2, .L585+8
 4708 10a4 4FF4CA73 		mov	r3, #404
 4709 10a8 FFF7FEFF 		bl	debug_print_ret
 4710              	.LVL628:
 4711              		.loc 1 405 0
 4712 10ac 4846     		mov	r0, r9
 4713 10ae 0221     		movs	r1, #2
 4714 10b0 7022     		movs	r2, #112
 4715 10b2 FFF7FEFF 		bl	ssl_send_alert_message
 4716              	.LVL629:
 4717 10b6 FFF7CCBA 		b	.L520
 4718              	.LVL630:
 4719              	.L283:
 4720              	.LBE238:
 4721              	.LBE252:
 4722              	.LBE297:
 4723              		.loc 1 1430 0
 4724 10ba A348     		ldr	r0, .L585
 4725              		.loc 1 1431 0
 4726 10bc A34D     		ldr	r5, .L585+4
 4727              		.loc 1 1430 0
ARM GAS  C:\Users\jo\AppData\Local\Temp\ccgxU8bj.s 			page 84


 4728 10be FFF7FEFF 		bl	debug_fmt
 4729              	.LVL631:
 4730 10c2 0121     		movs	r1, #1
 4731 10c4 0090     		str	r0, [sp]
 4732 10c6 A24A     		ldr	r2, .L585+8
 4733 10c8 3046     		mov	r0, r6
 4734 10ca 40F29653 		movw	r3, #1430
 4735 10ce FFF7FEFF 		bl	debug_print_msg
 4736              	.LVL632:
 4737              		.loc 1 1431 0
 4738 10d2 FFF7BFBA 		b	.L504
 4739              	.LVL633:
 4740              	.L270:
 4741              		.loc 1 1329 0
 4742 10d6 9C48     		ldr	r0, .L585
 4743              		.loc 1 1330 0
 4744 10d8 9C4D     		ldr	r5, .L585+4
 4745              		.loc 1 1329 0
 4746 10da FFF7FEFF 		bl	debug_fmt
 4747              	.LVL634:
 4748 10de 0121     		movs	r1, #1
 4749 10e0 0090     		str	r0, [sp]
 4750 10e2 9B4A     		ldr	r2, .L585+8
 4751 10e4 3046     		mov	r0, r6
 4752 10e6 40F23153 		movw	r3, #1329
 4753 10ea FFF7FEFF 		bl	debug_print_msg
 4754              	.LVL635:
 4755              		.loc 1 1330 0
 4756 10ee FFF7B1BA 		b	.L504
 4757              	.LVL636:
 4758              	.L285:
 4759              		.loc 1 1441 0
 4760 10f2 9548     		ldr	r0, .L585
 4761              		.loc 1 1442 0
 4762 10f4 954D     		ldr	r5, .L585+4
 4763              		.loc 1 1441 0
 4764 10f6 FFF7FEFF 		bl	debug_fmt
 4765              	.LVL637:
 4766 10fa 0121     		movs	r1, #1
 4767 10fc 0090     		str	r0, [sp]
 4768 10fe 944A     		ldr	r2, .L585+8
 4769 1100 3046     		mov	r0, r6
 4770 1102 40F2A153 		movw	r3, #1441
 4771 1106 FFF7FEFF 		bl	debug_print_msg
 4772              	.LVL638:
 4773              		.loc 1 1442 0
 4774 110a FFF7A3BA 		b	.L504
 4775              	.LVL639:
 4776              	.L546:
 4777              		.loc 1 1347 0
 4778 110e 924B     		ldr	r3, .L585+16
 4779 1110 0190     		str	r0, [sp, #4]
 4780 1112 0093     		str	r3, [sp]
 4781 1114 3046     		mov	r0, r6
 4782              	.LVL640:
 4783 1116 0121     		movs	r1, #1
 4784 1118 8D4A     		ldr	r2, .L585+8
ARM GAS  C:\Users\jo\AppData\Local\Temp\ccgxU8bj.s 			page 85


 4785 111a 40F24353 		movw	r3, #1347
 4786 111e FFF7FEFF 		bl	debug_print_ret
 4787              	.LVL641:
 4788              		.loc 1 1348 0
 4789 1122 FFF797BA 		b	.L504
 4790              	.LVL642:
 4791              	.L562:
 4792              	.LBB298:
 4793              	.LBB284:
 4794              		.loc 1 1078 0
 4795 1126 8C4B     		ldr	r3, .L585+16
 4796 1128 0190     		str	r0, [sp, #4]
 4797 112a 0093     		str	r3, [sp]
 4798 112c 3046     		mov	r0, r6
 4799              	.LVL643:
 4800 112e 4146     		mov	r1, r8
 4801 1130 874A     		ldr	r2, .L585+8
 4802 1132 40F23643 		movw	r3, #1078
 4803 1136 7546     		mov	r5, lr
 4804 1138 FFF7FEFF 		bl	debug_print_ret
 4805              	.LVL644:
 4806 113c FFF78ABA 		b	.L504
 4807              	.LVL645:
 4808              	.L558:
 4809              	.LBE284:
 4810              	.LBE298:
 4811              		.loc 1 1727 0 discriminator 1
 4812 1140 002B     		cmp	r3, #0
 4813 1142 7FF494AD 		bne	.L406
 4814              		.loc 1 1728 0
 4815 1146 002A     		cmp	r2, #0
 4816 1148 00F0FA82 		beq	.L570
 4817              		.loc 1 1735 0
 4818 114c 089B     		ldr	r3, [sp, #32]
 4819 114e 002B     		cmp	r3, #0
 4820 1150 3FF48DAD 		beq	.L406
 4821              		.loc 1 1738 0
 4822 1154 8148     		ldr	r0, .L585+20
 4823 1156 FFF7FEFF 		bl	debug_fmt
 4824              	.LVL646:
 4825 115a 0899     		ldr	r1, [sp, #32]
 4826 115c 0090     		str	r0, [sp]
 4827 115e 7C4A     		ldr	r2, .L585+8
 4828 1160 3046     		mov	r0, r6
 4829 1162 40F2CA63 		movw	r3, #1738
 4830 1166 FFF7FEFF 		bl	debug_print_msg
 4831              	.LVL647:
 4832              	.L405:
 4833              		.loc 1 1745 0
 4834 116a 3046     		mov	r0, r6
 4835 116c FFF7FEFF 		bl	ssl_send_fatal_handshake_failure
 4836              	.LVL648:
 4837 1170 0028     		cmp	r0, #0
 4838 1172 3FF46EAA 		beq	.L520
 4839              	.LVL649:
 4840              	.LBB299:
 4841              		.loc 1 1597 0
ARM GAS  C:\Users\jo\AppData\Local\Temp\ccgxU8bj.s 			page 86


 4842 1176 0546     		mov	r5, r0
 4843              	.LVL650:
 4844 1178 FFF7E3B9 		b	.L555
 4845              	.LVL651:
 4846              	.L382:
 4847              	.LBB253:
 4848              	.LBB188:
 4849              	.LBB179:
 4850              	.LBB171:
 4851              		.loc 1 315 0
 4852 117c 784B     		ldr	r3, .L585+24
 4853 117e CDF808A0 		str	r10, [sp, #8]
 4854 1182 0093     		str	r3, [sp]
 4855 1184 CDF804B0 		str	fp, [sp, #4]
 4856 1188 40F23B13 		movw	r3, #315
 4857 118c 4846     		mov	r0, r9
 4858 118e 0321     		movs	r1, #3
 4859              	.LVL652:
 4860 1190 6F4A     		ldr	r2, .L585+8
 4861 1192 FFF7FEFF 		bl	debug_print_buf
 4862              	.LVL653:
 4863              	.LBB158:
 4864              	.LBB159:
 4865              		.loc 1 114 0
 4866 1196 DA44     		add	r10, r10, fp
 4867              	.LVL654:
 4868              		.loc 1 119 0
 4869 1198 05F1A603 		add	r3, r5, #166
 4870 119c 9A45     		cmp	r10, r3
 4871 119e 12AF     		add	r7, sp, #72
 4872              	.LVL655:
 4873 11a0 C0F0AF82 		bcc	.L385
 4874              		.loc 1 122 0
 4875 11a4 5946     		mov	r1, fp
 4876 11a6 3846     		mov	r0, r7
 4877 11a8 8022     		movs	r2, #128
 4878              		.loc 1 126 0
 4879 11aa 05F1A90B 		add	fp, r5, #169
 4880              	.LVL656:
 4881              		.loc 1 122 0
 4882 11ae FFF7FEFF 		bl	memcpy
 4883              	.LVL657:
 4884              		.loc 1 126 0
 4885 11b2 DA45     		cmp	r10, fp
 4886 11b4 C0F0A582 		bcc	.L385
 4887              		.loc 1 129 0
 4888 11b8 95F8A730 		ldrb	r3, [r5, #167]	@ zero_extendqisi2
 4889 11bc 95F8A610 		ldrb	r1, [r5, #166]	@ zero_extendqisi2
 4890 11c0 95F8A820 		ldrb	r2, [r5, #168]	@ zero_extendqisi2
 4891 11c4 1B02     		lsls	r3, r3, #8
 4892 11c6 43EA0143 		orr	r3, r3, r1, lsl #16
 4893              	.LVL658:
 4894              		.loc 1 132 0
 4895 11ca 1A43     		orrs	r2, r3, r2
 4896              	.LVL659:
 4897 11cc 40F05882 		bne	.L386
 4898              		.loc 1 134 0
ARM GAS  C:\Users\jo\AppData\Local\Temp\ccgxU8bj.s 			page 87


 4899 11d0 2A92     		str	r2, [sp, #168]
 4900 11d2 5B46     		mov	r3, fp
 4901              	.LVL660:
 4902              	.L387:
 4903              		.loc 1 163 0
 4904 11d4 9A45     		cmp	r10, r3
 4905 11d6 40F09482 		bne	.L385
 4906              	.LBE159:
 4907              	.LBE158:
 4908              		.loc 1 327 0
 4909 11da 0020     		movs	r0, #0
 4910 11dc FFF7FEFF 		bl	time
 4911              	.LVL661:
 4912 11e0 129B     		ldr	r3, [sp, #72]
 4913 11e2 D9F83421 		ldr	r2, [r9, #308]
 4914 11e6 C01A     		subs	r0, r0, r3
 4915 11e8 9042     		cmp	r0, r2
 4916 11ea 00F32883 		bgt	.L571
 4917              		.loc 1 339 0
 4918 11ee D9F880A0 		ldr	r10, [r9, #128]
 4919              	.LVL662:
 4920              		.loc 1 340 0
 4921 11f2 16A8     		add	r0, sp, #88
 4922              		.loc 1 339 0
 4923 11f4 DAF80C20 		ldr	r2, [r10, #12]
 4924 11f8 1592     		str	r2, [sp, #84]
 4925              		.loc 1 340 0
 4926 11fa 0AF11001 		add	r1, r10, #16
 4927 11fe FFF7FEFF 		bl	memcpy
 4928              	.LVL663:
 4929              		.loc 1 342 0
 4930 1202 5046     		mov	r0, r10
 4931 1204 FFF7FEFF 		bl	ssl_session_free
 4932              	.LVL664:
 4933              		.loc 1 343 0
 4934 1208 8022     		movs	r2, #128
 4935 120a D9F88000 		ldr	r0, [r9, #128]
 4936 120e 3946     		mov	r1, r7
 4937 1210 FFF7FEFF 		bl	memcpy
 4938              	.LVL665:
 4939              	.LBB165:
 4940              	.LBB166:
 4941              		.loc 1 55 0
 4942 1214 3B46     		mov	r3, r7
 4943 1216 0022     		movs	r2, #0
 4944              	.LVL666:
 4945              	.L390:
 4946 1218 1A70     		strb	r2, [r3]
 4947              	.LVL667:
 4948 121a 32A9     		add	r1, sp, #200
 4949 121c 0133     		adds	r3, r3, #1
 4950              	.LVL668:
 4951 121e 8B42     		cmp	r3, r1
 4952 1220 4FF00007 		mov	r7, #0
 4953 1224 F8D1     		bne	.L390
 4954              	.LBE166:
 4955              	.LBE165:
ARM GAS  C:\Users\jo\AppData\Local\Temp\ccgxU8bj.s 			page 88


 4956              	.LBE171:
 4957              	.LBE179:
 4958              		.loc 1 722 0
 4959 1226 4F48     		ldr	r0, .L585+28
 4960 1228 FFF7FEFF 		bl	debug_fmt
 4961              	.LVL669:
 4962 122c 484A     		ldr	r2, .L585+8
 4963 122e 0090     		str	r0, [sp]
 4964 1230 40F2D223 		movw	r3, #722
 4965 1234 0321     		movs	r1, #3
 4966 1236 4846     		mov	r0, r9
 4967 1238 FFF7FEFF 		bl	debug_print_msg
 4968              	.LVL670:
 4969              		.loc 1 724 0
 4970 123c D9F88430 		ldr	r3, [r9, #132]
 4971 1240 0122     		movs	r2, #1
 4972 1242 4544     		add	r5, r5, r8
 4973              	.LVL671:
 4974              		.loc 1 727 0
 4975 1244 C3F8C87A 		str	r7, [r3, #2760]
 4976              		.loc 1 724 0
 4977 1248 C3F8B82A 		str	r2, [r3, #2744]
 4978 124c FFF7F9B8 		b	.L323
 4979              	.LVL672:
 4980              	.L431:
 4981              	.LBB180:
 4982              	.LBB172:
 4983              		.loc 1 270 0
 4984 1250 DFF824A1 		ldr	r10, .L585+48
 4985 1254 12E4     		b	.L379
 4986              	.LVL673:
 4987              	.L287:
 4988              	.LBE172:
 4989              	.LBE180:
 4990              	.LBE188:
 4991              	.LBE253:
 4992              	.LBE299:
 4993              		.loc 1 1459 0
 4994 1256 3C48     		ldr	r0, .L585
 4995              		.loc 1 1460 0
 4996 1258 3C4D     		ldr	r5, .L585+4
 4997              		.loc 1 1459 0
 4998 125a FFF7FEFF 		bl	debug_fmt
 4999              	.LVL674:
 5000 125e 0121     		movs	r1, #1
 5001 1260 0090     		str	r0, [sp]
 5002 1262 3B4A     		ldr	r2, .L585+8
 5003 1264 3046     		mov	r0, r6
 5004 1266 40F2B353 		movw	r3, #1459
 5005 126a FFF7FEFF 		bl	debug_print_msg
 5006              	.LVL675:
 5007              		.loc 1 1460 0
 5008 126e FFF7F1B9 		b	.L504
 5009              	.LVL676:
 5010              	.L554:
 5011              	.LBB300:
 5012              	.LBB254:
ARM GAS  C:\Users\jo\AppData\Local\Temp\ccgxU8bj.s 			page 89


 5013              	.LBB189:
 5014              		.loc 1 708 0
 5015 1272 3D48     		ldr	r0, .L585+32
 5016 1274 FFF7FEFF 		bl	debug_fmt
 5017              	.LVL677:
 5018 1278 0321     		movs	r1, #3
 5019 127a 0090     		str	r0, [sp]
 5020 127c 344A     		ldr	r2, .L585+8
 5021 127e 4846     		mov	r0, r9
 5022 1280 4FF43173 		mov	r3, #708
 5023 1284 4544     		add	r5, r5, r8
 5024              	.LVL678:
 5025 1286 FFF7FEFF 		bl	debug_print_msg
 5026              	.LVL679:
 5027 128a FFF7DAB8 		b	.L323
 5028              	.LVL680:
 5029              	.L279:
 5030              	.LBE189:
 5031              	.LBE254:
 5032              	.LBE300:
 5033              		.loc 1 1404 0
 5034 128e 0095     		str	r5, [sp]
 5035 1290 3648     		ldr	r0, .L585+36
 5036              		.loc 1 1412 0
 5037 1292 374D     		ldr	r5, .L585+40
 5038              		.loc 1 1404 0
 5039 1294 FFF7FEFF 		bl	debug_fmt
 5040              	.LVL681:
 5041 1298 2D4A     		ldr	r2, .L585+8
 5042 129a 0090     		str	r0, [sp]
 5043 129c 0121     		movs	r1, #1
 5044 129e 3046     		mov	r0, r6
 5045 12a0 40F27F53 		movw	r3, #1407
 5046              	.LVL682:
 5047              	.L521:
 5048 12a4 FFF7FEFF 		bl	debug_print_msg
 5049              	.LVL683:
 5050              		.loc 1 1409 0
 5051 12a8 3046     		mov	r0, r6
 5052 12aa 0221     		movs	r1, #2
 5053 12ac 4622     		movs	r2, #70
 5054 12ae FFF7FEFF 		bl	ssl_send_alert_message
 5055              	.LVL684:
 5056              		.loc 1 1412 0
 5057 12b2 FFF7CFB9 		b	.L504
 5058              	.LVL685:
 5059              	.L567:
 5060 12b6 3369     		ldr	r3, [r6, #16]
 5061              	.LVL686:
 5062 12b8 5AE6     		b	.L261
 5063              	.LVL687:
 5064              	.L538:
 5065 12ba 9246     		mov	r10, r2
 5066              	.L293:
 5067              		.loc 1 1486 0
 5068 12bc 2248     		ldr	r0, .L585
 5069              	.LVL688:
ARM GAS  C:\Users\jo\AppData\Local\Temp\ccgxU8bj.s 			page 90


 5070              		.loc 1 1488 0
 5071 12be 234D     		ldr	r5, .L585+4
 5072              		.loc 1 1486 0
 5073 12c0 FFF7FEFF 		bl	debug_fmt
 5074              	.LVL689:
 5075 12c4 0121     		movs	r1, #1
 5076 12c6 0090     		str	r0, [sp]
 5077 12c8 214A     		ldr	r2, .L585+8
 5078 12ca 3046     		mov	r0, r6
 5079 12cc 40F2CE53 		movw	r3, #1486
 5080 12d0 FFF7FEFF 		bl	debug_print_msg
 5081              	.LVL690:
 5082              		.loc 1 1487 0
 5083 12d4 07EB0A02 		add	r2, r7, r10
 5084 12d8 264B     		ldr	r3, .L585+44
 5085 12da 0192     		str	r2, [sp, #4]
 5086 12dc 0093     		str	r3, [sp]
 5087 12de CDF808B0 		str	fp, [sp, #8]
 5088 12e2 3046     		mov	r0, r6
 5089 12e4 0321     		movs	r1, #3
 5090 12e6 1A4A     		ldr	r2, .L585+8
 5091 12e8 40F2CF53 		movw	r3, #1487
 5092 12ec FFF7FEFF 		bl	debug_print_buf
 5093              	.LVL691:
 5094              		.loc 1 1488 0
 5095 12f0 FFF7B0B9 		b	.L504
 5096              	.LVL692:
 5097              	.L352:
 5098              	.LBB301:
 5099              	.LBB255:
 5100              	.LBB222:
 5101              		.loc 1 529 0
 5102 12f4 1448     		ldr	r0, .L585
 5103              		.loc 1 530 0
 5104 12f6 154D     		ldr	r5, .L585+4
 5105              	.LVL693:
 5106              		.loc 1 529 0
 5107 12f8 FFF7FEFF 		bl	debug_fmt
 5108              	.LVL694:
 5109 12fc 0121     		movs	r1, #1
 5110 12fe 0090     		str	r0, [sp]
 5111 1300 134A     		ldr	r2, .L585+8
 5112 1302 4846     		mov	r0, r9
 5113 1304 40F21123 		movw	r3, #529
 5114 1308 FFF7FEFF 		bl	debug_print_msg
 5115              	.LVL695:
 5116 130c FFF7A2B9 		b	.L504
 5117              	.LVL696:
 5118              	.L368:
 5119              	.LBE222:
 5120              	.LBE255:
 5121              	.LBB256:
 5122              	.LBB197:
 5123              		.loc 1 611 0
 5124 1310 0D48     		ldr	r0, .L585
 5125              	.LBE197:
 5126              	.LBE256:
ARM GAS  C:\Users\jo\AppData\Local\Temp\ccgxU8bj.s 			page 91


 5127              		.loc 1 1641 0
 5128 1312 0E4D     		ldr	r5, .L585+4
 5129              	.LVL697:
 5130              	.LBB257:
 5131              	.LBB198:
 5132              		.loc 1 611 0
 5133 1314 FFF7FEFF 		bl	debug_fmt
 5134              	.LVL698:
 5135 1318 0121     		movs	r1, #1
 5136 131a 0090     		str	r0, [sp]
 5137 131c 0C4A     		ldr	r2, .L585+8
 5138 131e 4846     		mov	r0, r9
 5139 1320 40F26323 		movw	r3, #611
 5140 1324 FFF7FEFF 		bl	debug_print_msg
 5141              	.LVL699:
 5142              	.LBE198:
 5143              	.LBE257:
 5144              		.loc 1 1641 0
 5145 1328 FFF794B9 		b	.L504
 5146              	.LVL700:
 5147              	.L537:
 5148              	.LBE301:
 5149              		.loc 1 1391 0
 5150 132c 0648     		ldr	r0, .L585
 5151              		.loc 1 1392 0
 5152 132e 074D     		ldr	r5, .L585+4
 5153              		.loc 1 1391 0
 5154 1330 FFF7FEFF 		bl	debug_fmt
 5155              	.LVL701:
 5156 1334 0121     		movs	r1, #1
 5157 1336 0090     		str	r0, [sp]
 5158 1338 054A     		ldr	r2, .L585+8
 5159 133a 3046     		mov	r0, r6
 5160 133c 40F26F53 		movw	r3, #1391
 5161 1340 FFF7FEFF 		bl	debug_print_msg
 5162              	.LVL702:
 5163              		.loc 1 1392 0
 5164 1344 FFF786B9 		b	.L504
 5165              	.L586:
 5166              		.align	2
 5167              	.L585:
 5168 1348 4C050000 		.word	.LC51
 5169 134c 0087FFFF 		.word	-30976
 5170 1350 18000000 		.word	.LC1
 5171 1354 D4080000 		.word	.LC78
 5172 1358 74040000 		.word	.LC44
 5173 135c FC0B0000 		.word	.LC102
 5174 1360 340B0000 		.word	.LC96
 5175 1364 780C0000 		.word	.LC106
 5176 1368 F80A0000 		.word	.LC94
 5177 136c 68050000 		.word	.LC52
 5178 1370 8091FFFF 		.word	-28288
 5179 1374 60080000 		.word	.LC73
 5180 1378 008FFFFF 		.word	-28928
 5181              	.LVL703:
 5182              	.L411:
 5183              	.LDL2:
ARM GAS  C:\Users\jo\AppData\Local\Temp\ccgxU8bj.s 			page 92


 5184 137c 8146     		mov	r9, r0
 5185              		.loc 1 1799 0
 5186 137e 5968     		ldr	r1, [r3, #4]
 5187 1380 B148     		ldr	r0, .L587
 5188              	.LVL704:
 5189 1382 FFF7FEFF 		bl	debug_fmt
 5190              	.LVL705:
 5191 1386 0221     		movs	r1, #2
 5192 1388 0090     		str	r0, [sp]
 5193 138a B04A     		ldr	r2, .L587+4
 5194 138c 3046     		mov	r0, r6
 5195 138e 40F20773 		movw	r3, #1799
 5196 1392 FFF7FEFF 		bl	debug_print_msg
 5197              	.LVL706:
 5198              		.loc 1 1802 0
 5199 1396 129B     		ldr	r3, [sp, #72]
 5200 1398 D6F89420 		ldr	r2, [r6, #148]
 5201              		.loc 1 1801 0
 5202 139c D6F88010 		ldr	r1, [r6, #128]
 5203 13a0 2868     		ldr	r0, [r5]
 5204 13a2 4860     		str	r0, [r1, #4]
 5205              		.loc 1 1803 0
 5206 13a4 1946     		mov	r1, r3
 5207              		.loc 1 1802 0
 5208 13a6 1360     		str	r3, [r2]
 5209              		.loc 1 1803 0
 5210 13a8 3046     		mov	r0, r6
 5211 13aa FFF7FEFF 		bl	ssl_optimize_checksum
 5212              	.LVL707:
 5213              		.loc 1 1806 0
 5214 13ae 3368     		ldr	r3, [r6]
 5215              		.loc 1 1805 0
 5216 13b0 C6F8B490 		str	r9, [r6, #180]
 5217              		.loc 1 1806 0
 5218 13b4 0133     		adds	r3, r3, #1
 5219 13b6 3360     		str	r3, [r6]
 5220              		.loc 1 1808 0
 5221 13b8 A548     		ldr	r0, .L587+8
 5222 13ba FFF7FEFF 		bl	debug_fmt
 5223              	.LVL708:
 5224 13be 0221     		movs	r1, #2
 5225 13c0 0090     		str	r0, [sp]
 5226 13c2 A24A     		ldr	r2, .L587+4
 5227 13c4 3046     		mov	r0, r6
 5228 13c6 4FF4E263 		mov	r3, #1808
 5229              		.loc 1 1810 0
 5230 13ca 4D46     		mov	r5, r9
 5231              		.loc 1 1808 0
 5232 13cc FFF7FEFF 		bl	debug_print_msg
 5233              	.LVL709:
 5234              		.loc 1 1810 0
 5235 13d0 FFF740B9 		b	.L504
 5236              	.LVL710:
 5237              	.L436:
 5238 13d4 0546     		mov	r5, r0
 5239 13d6 FFF73DB9 		b	.L504
 5240              	.LVL711:
ARM GAS  C:\Users\jo\AppData\Local\Temp\ccgxU8bj.s 			page 93


 5241              	.L547:
 5242              	.LBB302:
 5243              	.LBB258:
 5244              	.LBB210:
 5245              		.loc 1 438 0
 5246 13da 09F5CE71 		add	r1, r9, #412
 5247              	.LVL712:
 5248              	.LBB206:
 5249              	.LBB207:
 5250              		.loc 2 1998 0
 5251 13de 002B     		cmp	r3, #0
 5252 13e0 3FF477AB 		beq	.L335
 5253 13e4 C818     		adds	r0, r1, r3
 5254 13e6 05F1040E 		add	lr, r5, #4
 5255 13ea 0027     		movs	r7, #0
 5256              	.LVL713:
 5257              	.L336:
 5258              		.loc 2 1999 0
 5259 13ec 11F8012B 		ldrb	r2, [r1], #1	@ zero_extendqisi2
 5260 13f0 1EF8013F 		ldrb	r3, [lr, #1]!	@ zero_extendqisi2
 5261              		.loc 2 1998 0
 5262 13f4 8142     		cmp	r1, r0
 5263              		.loc 2 1999 0
 5264 13f6 83EA0203 		eor	r3, r3, r2
 5265 13fa 47EA0307 		orr	r7, r7, r3
 5266              	.LVL714:
 5267              		.loc 2 1998 0
 5268 13fe F5D1     		bne	.L336
 5269              	.LBE207:
 5270              	.LBE206:
 5271              		.loc 1 437 0
 5272 1400 002F     		cmp	r7, #0
 5273 1402 7FF48CA8 		bne	.L334
 5274 1406 FFF764BB 		b	.L335
 5275              	.LVL715:
 5276              	.L342:
 5277              	.LBE210:
 5278              	.LBE258:
 5279              	.LBB259:
 5280              	.LBB227:
 5281              		.loc 1 484 0
 5282 140a 9248     		ldr	r0, .L587+12
 5283              	.LBE227:
 5284              	.LBE259:
 5285              		.loc 1 1611 0
 5286 140c 924D     		ldr	r5, .L587+16
 5287              	.LVL716:
 5288              	.LBB260:
 5289              	.LBB228:
 5290              		.loc 1 484 0
 5291 140e FFF7FEFF 		bl	debug_fmt
 5292              	.LVL717:
 5293 1412 0121     		movs	r1, #1
 5294 1414 0090     		str	r0, [sp]
 5295 1416 8D4A     		ldr	r2, .L587+4
 5296 1418 4846     		mov	r0, r9
 5297 141a 4FF4F273 		mov	r3, #484
ARM GAS  C:\Users\jo\AppData\Local\Temp\ccgxU8bj.s 			page 94


 5298 141e FFF7FEFF 		bl	debug_print_msg
 5299              	.LVL718:
 5300              	.LBE228:
 5301              	.LBE260:
 5302              		.loc 1 1611 0
 5303 1422 FFF717B9 		b	.L504
 5304              	.LVL719:
 5305              	.L403:
 5306              	.LBE302:
 5307              		.loc 1 1720 0
 5308 1426 7468     		ldr	r4, [r6, #4]
 5309 1428 012C     		cmp	r4, #1
 5310 142a 7FF420AC 		bne	.L406
 5311              		.loc 1 1721 0
 5312 142e 089B     		ldr	r3, [sp, #32]
 5313 1430 002B     		cmp	r3, #0
 5314 1432 7FF41CAC 		bne	.L406
 5315              		.loc 1 1724 0
 5316 1436 8948     		ldr	r0, .L587+20
 5317 1438 FFF7FEFF 		bl	debug_fmt
 5318              	.LVL720:
 5319 143c 2146     		mov	r1, r4
 5320 143e 0090     		str	r0, [sp]
 5321 1440 824A     		ldr	r2, .L587+4
 5322 1442 3046     		mov	r0, r6
 5323 1444 40F2BC63 		movw	r3, #1724
 5324 1448 FFF7FEFF 		bl	debug_print_msg
 5325              	.LVL721:
 5326              		.loc 1 1725 0
 5327 144c 8DE6     		b	.L405
 5328              	.LVL722:
 5329              	.L289:
 5330              		.loc 1 1471 0
 5331 144e 8148     		ldr	r0, .L587+12
 5332              	.LVL723:
 5333              		.loc 1 1472 0
 5334 1450 814D     		ldr	r5, .L587+16
 5335              		.loc 1 1471 0
 5336 1452 FFF7FEFF 		bl	debug_fmt
 5337              	.LVL724:
 5338 1456 0121     		movs	r1, #1
 5339 1458 0090     		str	r0, [sp]
 5340 145a 7C4A     		ldr	r2, .L587+4
 5341 145c 3046     		mov	r0, r6
 5342 145e 40F2BF53 		movw	r3, #1471
 5343 1462 FFF7FEFF 		bl	debug_print_msg
 5344              	.LVL725:
 5345              		.loc 1 1472 0
 5346 1466 FFF7F5B8 		b	.L504
 5347              	.LVL726:
 5348              	.L556:
 5349              		.loc 1 1524 0
 5350 146a 7D48     		ldr	r0, .L587+24
 5351 146c FFF7FEFF 		bl	debug_fmt
 5352              	.LVL727:
 5353 1470 2146     		mov	r1, r4
 5354 1472 0090     		str	r0, [sp]
ARM GAS  C:\Users\jo\AppData\Local\Temp\ccgxU8bj.s 			page 95


 5355 1474 754A     		ldr	r2, .L587+4
 5356 1476 3046     		mov	r0, r6
 5357 1478 40F2F453 		movw	r3, #1524
 5358 147c FFF7FEFF 		bl	debug_print_msg
 5359              	.LVL728:
 5360              		.loc 1 1526 0
 5361 1480 3046     		mov	r0, r6
 5362 1482 FFF7FEFF 		bl	ssl_send_fatal_handshake_failure
 5363              	.LVL729:
 5364 1486 0028     		cmp	r0, #0
 5365 1488 3FF4E3A8 		beq	.L520
 5366              	.LVL730:
 5367              	.LBB303:
 5368              		.loc 1 1597 0
 5369 148c 0546     		mov	r5, r0
 5370 148e FFF758B8 		b	.L555
 5371              	.LVL731:
 5372              	.L548:
 5373              	.LBB261:
 5374              	.LBB214:
 5375              		.loc 1 581 0
 5376 1492 7048     		ldr	r0, .L587+12
 5377              	.LBE214:
 5378              	.LBE261:
 5379              		.loc 1 1631 0
 5380 1494 704D     		ldr	r5, .L587+16
 5381              	.LVL732:
 5382              	.LBB262:
 5383              	.LBB215:
 5384              		.loc 1 581 0
 5385 1496 FFF7FEFF 		bl	debug_fmt
 5386              	.LVL733:
 5387 149a 0121     		movs	r1, #1
 5388 149c 0090     		str	r0, [sp]
 5389 149e 6B4A     		ldr	r2, .L587+4
 5390 14a0 4846     		mov	r0, r9
 5391 14a2 40F24523 		movw	r3, #581
 5392 14a6 FFF7FEFF 		bl	debug_print_msg
 5393              	.LVL734:
 5394              	.LBE215:
 5395              	.LBE262:
 5396              		.loc 1 1631 0
 5397 14aa FFF7D3B8 		b	.L504
 5398              	.LVL735:
 5399              	.L535:
 5400              	.LBE303:
 5401              		.loc 1 1337 0
 5402 14ae 6948     		ldr	r0, .L587+12
 5403              		.loc 1 1338 0
 5404 14b0 694D     		ldr	r5, .L587+16
 5405              		.loc 1 1337 0
 5406 14b2 FFF7FEFF 		bl	debug_fmt
 5407              	.LVL736:
 5408 14b6 0121     		movs	r1, #1
 5409 14b8 0090     		str	r0, [sp]
 5410 14ba 644A     		ldr	r2, .L587+4
 5411 14bc 3046     		mov	r0, r6
ARM GAS  C:\Users\jo\AppData\Local\Temp\ccgxU8bj.s 			page 96


 5412 14be 40F23953 		movw	r3, #1337
 5413 14c2 FFF7FEFF 		bl	debug_print_msg
 5414              	.LVL737:
 5415              		.loc 1 1338 0
 5416 14c6 FFF7C5B8 		b	.L504
 5417              	.LVL738:
 5418              	.L408:
 5419              		.loc 1 1793 0
 5420 14ca 6648     		ldr	r0, .L587+28
 5421              		.loc 1 1795 0
 5422 14cc 664D     		ldr	r5, .L587+32
 5423              		.loc 1 1793 0
 5424 14ce FFF7FEFF 		bl	debug_fmt
 5425              	.LVL739:
 5426 14d2 0121     		movs	r1, #1
 5427 14d4 0090     		str	r0, [sp]
 5428 14d6 5D4A     		ldr	r2, .L587+4
 5429 14d8 3046     		mov	r0, r6
 5430 14da 40F20173 		movw	r3, #1793
 5431 14de FFF7FEFF 		bl	debug_print_msg
 5432              	.LVL740:
 5433              		.loc 1 1794 0
 5434 14e2 3046     		mov	r0, r6
 5435 14e4 FFF7FEFF 		bl	ssl_send_fatal_handshake_failure
 5436              	.LVL741:
 5437              		.loc 1 1795 0
 5438 14e8 FFF7B4B8 		b	.L504
 5439              	.LVL742:
 5440              	.L244:
 5441              	.LBB304:
 5442              	.LBB285:
 5443              		.loc 1 1045 0
 5444 14ec 5948     		ldr	r0, .L587+12
 5445              		.loc 1 1046 0
 5446 14ee 5A4D     		ldr	r5, .L587+16
 5447              		.loc 1 1045 0
 5448 14f0 FFF7FEFF 		bl	debug_fmt
 5449              	.LVL743:
 5450 14f4 0121     		movs	r1, #1
 5451 14f6 0090     		str	r0, [sp]
 5452 14f8 544A     		ldr	r2, .L587+4
 5453 14fa 3046     		mov	r0, r6
 5454 14fc 40F21543 		movw	r3, #1045
 5455 1500 FFF7FEFF 		bl	debug_print_msg
 5456              	.LVL744:
 5457 1504 FFF7A6B8 		b	.L504
 5458              	.LVL745:
 5459              	.L265:
 5460              	.LDL3:
 5461              		.loc 1 1239 0
 5462 1508 5968     		ldr	r1, [r3, #4]
 5463 150a 4F48     		ldr	r0, .L587
 5464              	.LVL746:
 5465 150c FFF7FEFF 		bl	debug_fmt
 5466              	.LVL747:
 5467 1510 0221     		movs	r1, #2
 5468 1512 0090     		str	r0, [sp]
ARM GAS  C:\Users\jo\AppData\Local\Temp\ccgxU8bj.s 			page 97


 5469 1514 4D4A     		ldr	r2, .L587+4
 5470 1516 3046     		mov	r0, r6
 5471 1518 40F2D743 		movw	r3, #1239
 5472 151c FFF7FEFF 		bl	debug_print_msg
 5473              	.LVL748:
 5474              		.loc 1 1242 0
 5475 1520 129B     		ldr	r3, [sp, #72]
 5476              		.loc 1 1241 0
 5477 1522 D6F88010 		ldr	r1, [r6, #128]
 5478              		.loc 1 1242 0
 5479 1526 D6F89420 		ldr	r2, [r6, #148]
 5480              		.loc 1 1241 0
 5481 152a D9F80000 		ldr	r0, [r9]
 5482 152e 4860     		str	r0, [r1, #4]
 5483              		.loc 1 1243 0
 5484 1530 1946     		mov	r1, r3
 5485              		.loc 1 1242 0
 5486 1532 1360     		str	r3, [r2]
 5487              		.loc 1 1243 0
 5488 1534 3046     		mov	r0, r6
 5489 1536 FFF7FEFF 		bl	ssl_optimize_checksum
 5490              	.LVL749:
 5491              		.loc 1 1248 0
 5492 153a D6F87031 		ldr	r3, [r6, #368]
 5493 153e 23B9     		cbnz	r3, .L269
 5494 1540 D6F81831 		ldr	r3, [r6, #280]
 5495 1544 022B     		cmp	r3, #2
 5496 1546 00F05B81 		beq	.L572
 5497              	.L269:
 5498              		.loc 1 1260 0
 5499 154a 3368     		ldr	r3, [r6]
 5500              		.loc 1 1262 0
 5501 154c 4748     		ldr	r0, .L587+36
 5502              		.loc 1 1260 0
 5503 154e 0133     		adds	r3, r3, #1
 5504              		.loc 1 1259 0
 5505 1550 0022     		movs	r2, #0
 5506              		.loc 1 1260 0
 5507 1552 3360     		str	r3, [r6]
 5508              		.loc 1 1259 0
 5509 1554 C6F8B420 		str	r2, [r6, #180]
 5510              		.loc 1 1262 0
 5511 1558 FFF7FEFF 		bl	debug_fmt
 5512              	.LVL750:
 5513 155c 0221     		movs	r1, #2
 5514 155e 0090     		str	r0, [sp]
 5515 1560 3A4A     		ldr	r2, .L587+4
 5516 1562 3046     		mov	r0, r6
 5517 1564 40F2EE43 		movw	r3, #1262
 5518 1568 FFF7FEFF 		bl	debug_print_msg
 5519              	.LVL751:
 5520 156c FFF772B8 		b	.L504
 5521              	.LVL752:
 5522              	.L263:
 5523              		.loc 1 1234 0
 5524 1570 3C48     		ldr	r0, .L587+28
 5525              		.loc 1 1235 0
ARM GAS  C:\Users\jo\AppData\Local\Temp\ccgxU8bj.s 			page 98


 5526 1572 3D4D     		ldr	r5, .L587+32
 5527              		.loc 1 1234 0
 5528 1574 FFF7FEFF 		bl	debug_fmt
 5529              	.LVL753:
 5530 1578 0121     		movs	r1, #1
 5531 157a 0090     		str	r0, [sp]
 5532 157c 334A     		ldr	r2, .L587+4
 5533 157e 3046     		mov	r0, r6
 5534 1580 40F2D243 		movw	r3, #1234
 5535 1584 FFF7FEFF 		bl	debug_print_msg
 5536              	.LVL754:
 5537 1588 FFF764B8 		b	.L504
 5538              	.LVL755:
 5539              	.L557:
 5540              	.LBE285:
 5541              	.LBE304:
 5542              		.loc 1 1716 0
 5543 158c 3848     		ldr	r0, .L587+40
 5544 158e FFF7FEFF 		bl	debug_fmt
 5545              	.LVL756:
 5546 1592 0121     		movs	r1, #1
 5547 1594 0090     		str	r0, [sp]
 5548 1596 2D4A     		ldr	r2, .L587+4
 5549 1598 3046     		mov	r0, r6
 5550 159a 40F2B463 		movw	r3, #1716
 5551 159e FFF7FEFF 		bl	debug_print_msg
 5552              	.LVL757:
 5553              		.loc 1 1717 0
 5554 15a2 E2E5     		b	.L405
 5555              	.LVL758:
 5556              	.L552:
 5557              	.LBB305:
 5558              	.LBB263:
 5559              	.LBB239:
 5560              		.loc 1 385 0
 5561 15a4 2B48     		ldr	r0, .L587+12
 5562              	.LVL759:
 5563 15a6 FFF7FEFF 		bl	debug_fmt
 5564              	.LVL760:
 5565 15aa 0121     		movs	r1, #1
 5566 15ac 0090     		str	r0, [sp]
 5567 15ae 274A     		ldr	r2, .L587+4
 5568 15b0 4846     		mov	r0, r9
 5569 15b2 40F28113 		movw	r3, #385
 5570 15b6 FFF7FEFF 		bl	debug_print_msg
 5571              	.LVL761:
 5572 15ba FFF74AB8 		b	.L520
 5573              	.LVL762:
 5574              	.L566:
 5575              	.LBE239:
 5576              	.LBE263:
 5577              	.LBE305:
 5578              	.LBB306:
 5579              	.LBB286:
 5580              		.loc 1 1155 0
 5581 15be 2D48     		ldr	r0, .L587+44
 5582 15c0 FFF7FEFF 		bl	debug_fmt
ARM GAS  C:\Users\jo\AppData\Local\Temp\ccgxU8bj.s 			page 99


 5583              	.LVL763:
 5584 15c4 0321     		movs	r1, #3
 5585 15c6 0090     		str	r0, [sp]
 5586 15c8 204A     		ldr	r2, .L587+4
 5587 15ca 3046     		mov	r0, r6
 5588 15cc 40F28343 		movw	r3, #1155
 5589 15d0 FFF7FEFF 		bl	debug_print_msg
 5590              	.LVL764:
 5591              		.loc 1 1157 0
 5592 15d4 7468     		ldr	r4, [r6, #4]
 5593              	.LVL765:
 5594 15d6 012C     		cmp	r4, #1
 5595 15d8 00F0FE80 		beq	.L573
 5596              		.loc 1 1168 0
 5597 15dc 0123     		movs	r3, #1
 5598 15de C6F87031 		str	r3, [r6, #368]
 5599 15e2 A5E4     		b	.L259
 5600              	.LVL766:
 5601              	.L553:
 5602              	.LBE286:
 5603              	.LBE306:
 5604              	.LBB307:
 5605              	.LBB264:
 5606              	.LBB242:
 5607              		.loc 1 628 0
 5608 15e4 1B48     		ldr	r0, .L587+12
 5609              	.LBE242:
 5610              	.LBE264:
 5611              		.loc 1 1651 0
 5612 15e6 1C4D     		ldr	r5, .L587+16
 5613              	.LVL767:
 5614              	.LBB265:
 5615              	.LBB243:
 5616              		.loc 1 628 0
 5617 15e8 FFF7FEFF 		bl	debug_fmt
 5618              	.LVL768:
 5619 15ec 0121     		movs	r1, #1
 5620 15ee 0090     		str	r0, [sp]
 5621 15f0 164A     		ldr	r2, .L587+4
 5622 15f2 4846     		mov	r0, r9
 5623 15f4 4FF41D73 		mov	r3, #628
 5624 15f8 FFF7FEFF 		bl	debug_print_msg
 5625              	.LVL769:
 5626              	.LBE243:
 5627              	.LBE265:
 5628              		.loc 1 1651 0
 5629 15fc FFF72AB8 		b	.L504
 5630              	.LVL770:
 5631              	.L428:
 5632              	.LBB266:
 5633              	.LBB223:
 5634              		.loc 1 547 0
 5635 1600 1D4D     		ldr	r5, .L587+48
 5636              	.LVL771:
 5637              	.LBE223:
 5638              	.LBE266:
 5639              		.loc 1 1622 0
ARM GAS  C:\Users\jo\AppData\Local\Temp\ccgxU8bj.s 			page 100


 5640 1602 FFF727B8 		b	.L504
 5641              	.LVL772:
 5642              	.L544:
 5643              	.LBB267:
 5644              	.LBB202:
 5645              		.loc 1 648 0
 5646 1606 1348     		ldr	r0, .L587+12
 5647              	.LBE202:
 5648              	.LBE267:
 5649              		.loc 1 1661 0
 5650 1608 134D     		ldr	r5, .L587+16
 5651              	.LVL773:
 5652              	.LBB268:
 5653              	.LBB203:
 5654              		.loc 1 648 0
 5655 160a FFF7FEFF 		bl	debug_fmt
 5656              	.LVL774:
 5657 160e 0121     		movs	r1, #1
 5658 1610 0090     		str	r0, [sp]
 5659 1612 0E4A     		ldr	r2, .L587+4
 5660 1614 4846     		mov	r0, r9
 5661 1616 4FF42273 		mov	r3, #648
 5662 161a FFF7FEFF 		bl	debug_print_msg
 5663              	.LVL775:
 5664              	.LBE203:
 5665              	.LBE268:
 5666              		.loc 1 1661 0
 5667 161e FFF719B8 		b	.L504
 5668              	.LVL776:
 5669              	.L432:
 5670              	.LBB269:
 5671              	.LBB190:
 5672              	.LBB181:
 5673              	.LBB173:
 5674              		.loc 1 294 0
 5675 1622 DFF858A0 		ldr	r10, .L587+52
 5676              	.LVL777:
 5677 1626 FFF729BA 		b	.L379
 5678              	.LVL778:
 5679              	.L549:
 5680              	.LBE173:
 5681              	.LBE181:
 5682              	.LBE190:
 5683              	.LBE269:
 5684              	.LBB270:
 5685              	.LBB231:
 5686              		.loc 1 671 0
 5687 162a 0A48     		ldr	r0, .L587+12
 5688              	.LBE231:
 5689              	.LBE270:
 5690              		.loc 1 1671 0
 5691 162c 0A4D     		ldr	r5, .L587+16
 5692              	.LVL779:
 5693              	.LBB271:
 5694              	.LBB232:
 5695              		.loc 1 671 0
 5696 162e FFF7FEFF 		bl	debug_fmt
ARM GAS  C:\Users\jo\AppData\Local\Temp\ccgxU8bj.s 			page 101


 5697              	.LVL780:
 5698 1632 0121     		movs	r1, #1
 5699 1634 0090     		str	r0, [sp]
 5700 1636 054A     		ldr	r2, .L587+4
 5701 1638 4846     		mov	r0, r9
 5702 163a 40F29F23 		movw	r3, #671
 5703 163e FFF7FEFF 		bl	debug_print_msg
 5704              	.LVL781:
 5705              	.LBE232:
 5706              	.LBE271:
 5707              		.loc 1 1671 0
 5708 1642 FFF707B8 		b	.L504
 5709              	.L588:
 5710 1646 00BF     		.align	2
 5711              	.L587:
 5712 1648 18070000 		.word	.LC64
 5713 164c 18000000 		.word	.LC1
 5714 1650 2C0C0000 		.word	.LC103
 5715 1654 4C050000 		.word	.LC51
 5716 1658 0087FFFF 		.word	-30976
 5717 165c A80B0000 		.word	.LC100
 5718 1660 60060000 		.word	.LC59
 5719 1664 F8060000 		.word	.LC63
 5720 1668 808CFFFF 		.word	-29568
 5721 166c 64070000 		.word	.LC66
 5722 1670 34070000 		.word	.LC65
 5723 1674 38060000 		.word	.LC58
 5724 1678 0081FFFF 		.word	-32512
 5725 167c 808EFFFF 		.word	-29056
 5726              	.LVL782:
 5727              	.L386:
 5728              	.LBB272:
 5729              	.LBB191:
 5730              	.LBB182:
 5731              	.LBB174:
 5732              	.LBB167:
 5733              	.LBB162:
 5734              	.LBB160:
 5735              		.loc 1 140 0
 5736 1680 0BEB0203 		add	r3, fp, r2
 5737 1684 9A45     		cmp	r10, r3
 5738 1686 0692     		str	r2, [sp, #24]
 5739              	.LVL783:
 5740 1688 0593     		str	r3, [sp, #20]
 5741              	.LVL784:
 5742 168a 3AD3     		bcc	.L385
 5743              		.loc 1 143 0
 5744 168c 4FF4A070 		mov	r0, #320
 5745 1690 FFF7FEFF 		bl	malloc
 5746              	.LVL785:
 5747 1694 2A90     		str	r0, [sp, #168]
 5748              		.loc 1 145 0
 5749 1696 0028     		cmp	r0, #0
 5750 1698 00F09B80 		beq	.L435
 5751              		.loc 1 148 0
 5752 169c FFF7FEFF 		bl	x509_crt_init
 5753              	.LVL786:
ARM GAS  C:\Users\jo\AppData\Local\Temp\ccgxU8bj.s 			page 102


 5754              		.loc 1 150 0
 5755 16a0 5946     		mov	r1, fp
 5756 16a2 069A     		ldr	r2, [sp, #24]
 5757 16a4 2A98     		ldr	r0, [sp, #168]
 5758 16a6 FFF7FEFF 		bl	x509_crt_parse_der
 5759              	.LVL787:
 5760 16aa 059B     		ldr	r3, [sp, #20]
 5761 16ac 8346     		mov	fp, r0
 5762              	.LVL788:
 5763 16ae 0028     		cmp	r0, #0
 5764 16b0 3FF490AD 		beq	.L387
 5765              		.loc 1 153 0
 5766 16b4 2A98     		ldr	r0, [sp, #168]
 5767              	.LVL789:
 5768 16b6 FFF7FEFF 		bl	x509_crt_free
 5769              	.LVL790:
 5770              		.loc 1 154 0
 5771 16ba 2A98     		ldr	r0, [sp, #168]
 5772 16bc FFF7FEFF 		bl	free
 5773              	.LVL791:
 5774              		.loc 1 155 0
 5775 16c0 0023     		movs	r3, #0
 5776 16c2 DA46     		mov	r10, fp
 5777              	.LVL792:
 5778 16c4 2A93     		str	r3, [sp, #168]
 5779              	.LVL793:
 5780              	.L388:
 5781              	.LBE160:
 5782              	.LBE162:
 5783              	.LBE167:
 5784              		.loc 1 320 0
 5785 16c6 6748     		ldr	r0, .L589
 5786 16c8 FFF7FEFF 		bl	debug_fmt
 5787              	.LVL794:
 5788 16cc 0121     		movs	r1, #1
 5789 16ce 0090     		str	r0, [sp]
 5790 16d0 654A     		ldr	r2, .L589+4
 5791 16d2 4846     		mov	r0, r9
 5792 16d4 4FF4A073 		mov	r3, #320
 5793 16d8 FFF7FEFF 		bl	debug_print_msg
 5794              	.LVL795:
 5795              		.loc 1 321 0
 5796 16dc 3846     		mov	r0, r7
 5797 16de FFF7FEFF 		bl	ssl_session_free
 5798              	.LVL796:
 5799 16e2 FFF7CBB9 		b	.L379
 5800              	.LVL797:
 5801              	.L565:
 5802              	.LBE174:
 5803              	.LBE182:
 5804              	.LBE191:
 5805              	.LBE272:
 5806              	.LBE307:
 5807              	.LBB308:
 5808              	.LBB287:
 5809              		.loc 1 1127 0
 5810 16e6 6148     		ldr	r0, .L589+8
ARM GAS  C:\Users\jo\AppData\Local\Temp\ccgxU8bj.s 			page 103


 5811              		.loc 1 1128 0
 5812 16e8 614D     		ldr	r5, .L589+12
 5813              		.loc 1 1127 0
 5814 16ea FFF7FEFF 		bl	debug_fmt
 5815              	.LVL798:
 5816 16ee 0121     		movs	r1, #1
 5817 16f0 0090     		str	r0, [sp]
 5818 16f2 5D4A     		ldr	r2, .L589+4
 5819 16f4 3046     		mov	r0, r6
 5820 16f6 40F26743 		movw	r3, #1127
 5821 16fa FFF7FEFF 		bl	debug_print_msg
 5822              	.LVL799:
 5823 16fe FEF7A9BF 		b	.L504
 5824              	.LVL800:
 5825              	.L385:
 5826              	.LBE287:
 5827              	.LBE308:
 5828              	.LBB309:
 5829              	.LBB273:
 5830              	.LBB192:
 5831              	.LBB183:
 5832              	.LBB175:
 5833              	.LBB168:
 5834              	.LBB163:
 5835              		.loc 1 120 0
 5836 1702 DFF88CA1 		ldr	r10, .L589+44
 5837              	.LVL801:
 5838 1706 DEE7     		b	.L388
 5839              	.LVL802:
 5840              	.L561:
 5841              	.LBE163:
 5842              	.LBE168:
 5843              	.LBE175:
 5844              	.LBE183:
 5845              	.LBE192:
 5846              	.LBE273:
 5847              	.LBE309:
 5848              	.LBB310:
 5849              	.LBB288:
 5850              		.loc 1 1063 0
 5851 1708 F369     		ldr	r3, [r6, #28]
 5852 170a 5A48     		ldr	r0, .L589+16
 5853 170c 0091     		str	r1, [sp]
 5854 170e 4946     		mov	r1, r9
 5855 1710 FFF7FEFF 		bl	debug_fmt
 5856              	.LVL803:
 5857              		.loc 1 1070 0
 5858 1714 584D     		ldr	r5, .L589+20
 5859              		.loc 1 1063 0
 5860 1716 0090     		str	r0, [sp]
 5861 1718 4146     		mov	r1, r8
 5862 171a 534A     		ldr	r2, .L589+4
 5863 171c 3046     		mov	r0, r6
 5864 171e 40F22A43 		movw	r3, #1066
 5865 1722 BFE5     		b	.L521
 5866              	.L560:
 5867              		.loc 1 1053 0
ARM GAS  C:\Users\jo\AppData\Local\Temp\ccgxU8bj.s 			page 104


 5868 1724 5148     		ldr	r0, .L589+8
 5869              		.loc 1 1054 0
 5870 1726 524D     		ldr	r5, .L589+12
 5871              		.loc 1 1053 0
 5872 1728 FFF7FEFF 		bl	debug_fmt
 5873              	.LVL804:
 5874 172c 4146     		mov	r1, r8
 5875 172e 0090     		str	r0, [sp]
 5876 1730 4D4A     		ldr	r2, .L589+4
 5877 1732 3046     		mov	r0, r6
 5878 1734 40F21D43 		movw	r3, #1053
 5879 1738 FFF7FEFF 		bl	debug_print_msg
 5880              	.LVL805:
 5881 173c FEF78ABF 		b	.L504
 5882              	.LVL806:
 5883              	.L570:
 5884              	.LBE288:
 5885              	.LBE310:
 5886              		.loc 1 1731 0
 5887 1740 4E48     		ldr	r0, .L589+24
 5888 1742 FFF7FEFF 		bl	debug_fmt
 5889              	.LVL807:
 5890 1746 2146     		mov	r1, r4
 5891 1748 0090     		str	r0, [sp]
 5892 174a 474A     		ldr	r2, .L589+4
 5893 174c 3046     		mov	r0, r6
 5894 174e 40F2C363 		movw	r3, #1731
 5895 1752 FFF7FEFF 		bl	debug_print_msg
 5896              	.LVL808:
 5897              		.loc 1 1732 0
 5898 1756 08E5     		b	.L405
 5899              	.LVL809:
 5900              	.L249:
 5901              	.LBB311:
 5902              	.LBB289:
 5903              		.loc 1 1109 0
 5904 1758 4448     		ldr	r0, .L589+8
 5905              		.loc 1 1110 0
 5906 175a 454D     		ldr	r5, .L589+12
 5907              		.loc 1 1109 0
 5908 175c FFF7FEFF 		bl	debug_fmt
 5909              	.LVL810:
 5910 1760 0121     		movs	r1, #1
 5911 1762 0090     		str	r0, [sp]
 5912 1764 404A     		ldr	r2, .L589+4
 5913 1766 3046     		mov	r0, r6
 5914 1768 40F25543 		movw	r3, #1109
 5915 176c FFF7FEFF 		bl	debug_print_msg
 5916              	.LVL811:
 5917 1770 FEF770BF 		b	.L504
 5918              	.LVL812:
 5919              	.L299:
 5920              	.LBE289:
 5921              	.LBE311:
 5922              		.loc 1 1548 0
 5923 1774 4248     		ldr	r0, .L589+28
 5924              		.loc 1 1553 0
ARM GAS  C:\Users\jo\AppData\Local\Temp\ccgxU8bj.s 			page 105


 5925 1776 3E4D     		ldr	r5, .L589+12
 5926              		.loc 1 1548 0
 5927 1778 FFF7FEFF 		bl	debug_fmt
 5928              	.LVL813:
 5929 177c 3A4A     		ldr	r2, .L589+4
 5930 177e 0090     		str	r0, [sp]
 5931 1780 4146     		mov	r1, r8
 5932 1782 3046     		mov	r0, r6
 5933 1784 40F20C63 		movw	r3, #1548
 5934              	.LVL814:
 5935              	.L522:
 5936 1788 FFF7FEFF 		bl	debug_print_msg
 5937              	.LVL815:
 5938              		.loc 1 1550 0
 5939 178c 3046     		mov	r0, r6
 5940 178e 2246     		mov	r2, r4
 5941 1790 0221     		movs	r1, #2
 5942 1792 FFF7FEFF 		bl	ssl_send_alert_message
 5943              	.LVL816:
 5944              		.loc 1 1553 0
 5945 1796 FEF75DBF 		b	.L504
 5946              	.LVL817:
 5947              	.L563:
 5948              	.LBB312:
 5949              	.LBB290:
 5950              		.loc 1 1115 0
 5951 179a 3448     		ldr	r0, .L589+8
 5952              		.loc 1 1116 0
 5953 179c 344D     		ldr	r5, .L589+12
 5954              		.loc 1 1115 0
 5955 179e FFF7FEFF 		bl	debug_fmt
 5956              	.LVL818:
 5957 17a2 0121     		movs	r1, #1
 5958 17a4 0090     		str	r0, [sp]
 5959 17a6 304A     		ldr	r2, .L589+4
 5960 17a8 3046     		mov	r0, r6
 5961 17aa 40F25B43 		movw	r3, #1115
 5962 17ae FFF7FEFF 		bl	debug_print_msg
 5963              	.LVL819:
 5964 17b2 FEF74FBF 		b	.L504
 5965              	.L564:
 5966              		.loc 1 1121 0
 5967 17b6 2D48     		ldr	r0, .L589+8
 5968              		.loc 1 1122 0
 5969 17b8 2D4D     		ldr	r5, .L589+12
 5970              		.loc 1 1121 0
 5971 17ba FFF7FEFF 		bl	debug_fmt
 5972              	.LVL820:
 5973 17be 0121     		movs	r1, #1
 5974 17c0 0090     		str	r0, [sp]
 5975 17c2 294A     		ldr	r2, .L589+4
 5976 17c4 3046     		mov	r0, r6
 5977 17c6 40F26143 		movw	r3, #1121
 5978 17ca FFF7FEFF 		bl	debug_print_msg
 5979              	.LVL821:
 5980 17ce FEF741BF 		b	.L504
 5981              	.LVL822:
ARM GAS  C:\Users\jo\AppData\Local\Temp\ccgxU8bj.s 			page 106


 5982              	.L435:
 5983              	.LBE290:
 5984              	.LBE312:
 5985              	.LBB313:
 5986              	.LBB274:
 5987              	.LBB193:
 5988              	.LBB184:
 5989              	.LBB176:
 5990              	.LBB169:
 5991              	.LBB164:
 5992              	.LBB161:
 5993              		.loc 1 146 0
 5994 17d2 DFF8C0A0 		ldr	r10, .L589+48
 5995              	.LVL823:
 5996 17d6 76E7     		b	.L388
 5997              	.LVL824:
 5998              	.L573:
 5999              	.LBE161:
 6000              	.LBE164:
 6001              	.LBE169:
 6002              	.LBE176:
 6003              	.LBE184:
 6004              	.LBE193:
 6005              	.LBE274:
 6006              	.LBE313:
 6007              	.LBB314:
 6008              	.LBB291:
 6009              		.loc 1 1159 0
 6010 17d8 2A48     		ldr	r0, .L589+32
 6011 17da FFF7FEFF 		bl	debug_fmt
 6012              	.LVL825:
 6013 17de 2146     		mov	r1, r4
 6014 17e0 0090     		str	r0, [sp]
 6015 17e2 214A     		ldr	r2, .L589+4
 6016 17e4 3046     		mov	r0, r6
 6017 17e6 4FF49163 		mov	r3, #1160
 6018 17ea FFF7FEFF 		bl	debug_print_msg
 6019              	.LVL826:
 6020              		.loc 1 1162 0
 6021 17ee 3046     		mov	r0, r6
 6022 17f0 FFF7FEFF 		bl	ssl_send_fatal_handshake_failure
 6023              	.LVL827:
 6024 17f4 0028     		cmp	r0, #0
 6025 17f6 3EF42CAF 		beq	.L520
 6026              	.LBE291:
 6027              	.LBE314:
 6028              	.LBB315:
 6029              		.loc 1 1597 0
 6030 17fa 0546     		mov	r5, r0
 6031 17fc FEF7A1BE 		b	.L555
 6032              	.LVL828:
 6033              	.L572:
 6034              	.LBE315:
 6035              	.LBB316:
 6036              	.LBB292:
 6037              		.loc 1 1251 0
 6038 1800 2148     		ldr	r0, .L589+36
ARM GAS  C:\Users\jo\AppData\Local\Temp\ccgxU8bj.s 			page 107


 6039 1802 FFF7FEFF 		bl	debug_fmt
 6040              	.LVL829:
 6041 1806 0121     		movs	r1, #1
 6042 1808 0090     		str	r0, [sp]
 6043 180a 174A     		ldr	r2, .L589+4
 6044 180c 3046     		mov	r0, r6
 6045 180e 40F2E343 		movw	r3, #1251
 6046 1812 FFF7FEFF 		bl	debug_print_msg
 6047              	.LVL830:
 6048              		.loc 1 1253 0
 6049 1816 3046     		mov	r0, r6
 6050 1818 FFF7FEFF 		bl	ssl_send_fatal_handshake_failure
 6051              	.LVL831:
 6052 181c 0028     		cmp	r0, #0
 6053 181e 3EF418AF 		beq	.L520
 6054              	.LBE292:
 6055              	.LBE316:
 6056              	.LBB317:
 6057              		.loc 1 1597 0
 6058 1822 0546     		mov	r5, r0
 6059 1824 FEF78DBE 		b	.L555
 6060              	.LVL832:
 6061              	.L568:
 6062              	.LBE317:
 6063              	.LBB318:
 6064              	.LBB293:
 6065              		.loc 1 1184 0
 6066 1828 1548     		ldr	r0, .L589+28
 6067              		.loc 1 1189 0
 6068 182a 114D     		ldr	r5, .L589+12
 6069              		.loc 1 1184 0
 6070 182c FFF7FEFF 		bl	debug_fmt
 6071              	.LVL833:
 6072 1830 0121     		movs	r1, #1
 6073 1832 0090     		str	r0, [sp]
 6074 1834 0C4A     		ldr	r2, .L589+4
 6075 1836 3046     		mov	r0, r6
 6076 1838 4FF49463 		mov	r3, #1184
 6077 183c A4E7     		b	.L522
 6078              	.LVL834:
 6079              	.L571:
 6080              	.LBE293:
 6081              	.LBE318:
 6082              	.LBB319:
 6083              	.LBB275:
 6084              	.LBB194:
 6085              	.LBB185:
 6086              	.LBB177:
 6087              		.loc 1 329 0
 6088 183e 1348     		ldr	r0, .L589+40
 6089              		.loc 1 331 0
 6090 1840 DFF854A0 		ldr	r10, .L589+52
 6091              	.LVL835:
 6092              		.loc 1 329 0
 6093 1844 FFF7FEFF 		bl	debug_fmt
 6094              	.LVL836:
 6095 1848 0121     		movs	r1, #1
ARM GAS  C:\Users\jo\AppData\Local\Temp\ccgxU8bj.s 			page 108


 6096 184a 0090     		str	r0, [sp]
 6097 184c 064A     		ldr	r2, .L589+4
 6098 184e 4846     		mov	r0, r9
 6099 1850 40F24913 		movw	r3, #329
 6100 1854 FFF7FEFF 		bl	debug_print_msg
 6101              	.LVL837:
 6102              		.loc 1 330 0
 6103 1858 3846     		mov	r0, r7
 6104 185a FFF7FEFF 		bl	ssl_session_free
 6105              	.LVL838:
 6106 185e FFF70DB9 		b	.L379
 6107              	.L590:
 6108 1862 00BF     		.align	2
 6109              	.L589:
 6110 1864 440C0000 		.word	.LC104
 6111 1868 18000000 		.word	.LC1
 6112 186c 4C050000 		.word	.LC51
 6113 1870 0087FFFF 		.word	-30976
 6114 1874 68050000 		.word	.LC52
 6115 1878 8091FFFF 		.word	-28288
 6116 187c D80B0000 		.word	.LC101
 6117 1880 AC060000 		.word	.LC61
 6118 1884 60060000 		.word	.LC59
 6119 1888 34070000 		.word	.LC65
 6120 188c 500B0000 		.word	.LC97
 6121 1890 008FFFFF 		.word	-28928
 6122 1894 0081FFFF 		.word	-32512
 6123 1898 8092FFFF 		.word	-28032
 6124              	.LBE177:
 6125              	.LBE185:
 6126              	.LBE194:
 6127              	.LBE275:
 6128              	.LBE319:
 6129              		.cfi_endproc
 6130              	.LFE35:
 6131              		.size	ssl_parse_client_hello, .-ssl_parse_client_hello
 6132 189c AFF30080 		.section	.text.ssl_handshake_server_step,"ax",%progbits
 6133              		.align	2
 6134              		.p2align 4,,15
 6135              		.global	ssl_handshake_server_step
 6136              		.thumb
 6137              		.thumb_func
 6138              		.type	ssl_handshake_server_step, %function
 6139              	ssl_handshake_server_step:
 6140              	.LFB55:
 6141              		.loc 1 3515 0
 6142              		.cfi_startproc
 6143              		@ args = 0, pretend = 0, frame = 56
 6144              		@ frame_needed = 0, uses_anonymous_args = 0
 6145              	.LVL839:
 6146              		.loc 1 3518 0
 6147 0000 0168     		ldr	r1, [r0]
 6148 0002 1029     		cmp	r1, #16
 6149 0004 00F0AC84 		beq	.L704
 6150              		.loc 1 3515 0
 6151 0008 2DE9F04F 		push	{r4, r5, r6, r7, r8, r9, r10, fp, lr}
 6152              		.cfi_def_cfa_offset 36
ARM GAS  C:\Users\jo\AppData\Local\Temp\ccgxU8bj.s 			page 109


 6153              		.cfi_offset 4, -36
 6154              		.cfi_offset 5, -32
 6155              		.cfi_offset 6, -28
 6156              		.cfi_offset 7, -24
 6157              		.cfi_offset 8, -20
 6158              		.cfi_offset 9, -16
 6159              		.cfi_offset 10, -12
 6160              		.cfi_offset 11, -8
 6161              		.cfi_offset 14, -4
 6162 000c 0446     		mov	r4, r0
 6163 000e 93B0     		sub	sp, sp, #76
 6164              		.cfi_def_cfa_offset 112
 6165              		.loc 1 3521 0
 6166 0010 1348     		ldr	r0, .L810
 6167              	.LVL840:
 6168 0012 FFF7FEFF 		bl	debug_fmt
 6169              	.LVL841:
 6170 0016 0221     		movs	r1, #2
 6171 0018 0090     		str	r0, [sp]
 6172 001a 124A     		ldr	r2, .L810+4
 6173 001c 2046     		mov	r0, r4
 6174 001e 40F6C153 		movw	r3, #3521
 6175 0022 FFF7FEFF 		bl	debug_print_msg
 6176              	.LVL842:
 6177              		.loc 1 3523 0
 6178 0026 2046     		mov	r0, r4
 6179 0028 FFF7FEFF 		bl	ssl_flush_output
 6180              	.LVL843:
 6181 002c 0028     		cmp	r0, #0
 6182 002e 40F04882 		bne	.L766
 6183              		.loc 1 3526 0
 6184 0032 2068     		ldr	r0, [r4]
 6185              	.LVL844:
 6186 0034 0F28     		cmp	r0, #15
 6187 0036 00F29584 		bhi	.L593
 6188 003a DFE810F0 		tbh	[pc, r0, lsl #1]
 6189              	.L595:
 6190 003e 8E04     		.2byte	(.L594-.L595)/2
 6191 0040 8A04     		.2byte	(.L596-.L595)/2
 6192 0042 1500     		.2byte	(.L597-.L595)/2
 6193 0044 8204     		.2byte	(.L598-.L595)/2
 6194 0046 8604     		.2byte	(.L599-.L595)/2
 6195 0048 F403     		.2byte	(.L600-.L595)/2
 6196 004a C803     		.2byte	(.L601-.L595)/2
 6197 004c C403     		.2byte	(.L602-.L595)/2
 6198 004e 6503     		.2byte	(.L603-.L595)/2
 6199 0050 DC02     		.2byte	(.L604-.L595)/2
 6200 0052 D802     		.2byte	(.L605-.L595)/2
 6201 0054 D402     		.2byte	(.L606-.L595)/2
 6202 0056 5D02     		.2byte	(.L607-.L595)/2
 6203 0058 5902     		.2byte	(.L608-.L595)/2
 6204 005a 4A02     		.2byte	(.L609-.L595)/2
 6205 005c 4502     		.2byte	(.L610-.L595)/2
 6206              		.p2align 1
 6207              	.L811:
 6208 005e 00BF     		.align	2
 6209              	.L810:
ARM GAS  C:\Users\jo\AppData\Local\Temp\ccgxU8bj.s 			page 110


 6210 0060 AC0C0000 		.word	.LC109
 6211 0064 18000000 		.word	.LC1
 6212              	.L597:
 6213              	.LVL845:
 6214              	.LBB357:
 6215              	.LBB358:
 6216              		.loc 1 2077 0
 6217 0068 CA48     		ldr	r0, .L812
 6218 006a FFF7FEFF 		bl	debug_fmt
 6219              	.LVL846:
 6220 006e 40F61D03 		movw	r3, #2077
 6221 0072 0090     		str	r0, [sp]
 6222 0074 0221     		movs	r1, #2
 6223 0076 C84A     		ldr	r2, .L812+4
 6224 0078 2046     		mov	r0, r4
 6225 007a FFF7FEFF 		bl	debug_print_msg
 6226              	.LVL847:
 6227              		.loc 1 2079 0
 6228 007e A36A     		ldr	r3, [r4, #40]
 6229 0080 002B     		cmp	r3, #0
 6230 0082 01F0D480 		beq	.L773
 6231              		.loc 1 2092 0
 6232 0086 D4F8D060 		ldr	r6, [r4, #208]
 6233              	.LVL848:
 6234              		.loc 1 2095 0
 6235 008a E168     		ldr	r1, [r4, #12]
 6236 008c 3171     		strb	r1, [r6, #4]
 6237              	.LVL849:
 6238              		.loc 1 2096 0
 6239 008e 2269     		ldr	r2, [r4, #16]
 6240 0090 7271     		strb	r2, [r6, #5]
 6241              		.loc 1 2098 0
 6242 0092 C9B2     		uxtb	r1, r1
 6243 0094 D2B2     		uxtb	r2, r2
 6244 0096 C148     		ldr	r0, .L812+8
 6245 0098 FFF7FEFF 		bl	debug_fmt
 6246              	.LVL850:
 6247 009c 0321     		movs	r1, #3
 6248 009e BE4A     		ldr	r2, .L812+4
 6249 00a0 0090     		str	r0, [sp]
 6250 00a2 40F63303 		movw	r3, #2099
 6251 00a6 2046     		mov	r0, r4
 6252 00a8 FFF7FEFF 		bl	debug_print_msg
 6253              	.LVL851:
 6254              		.loc 1 2102 0
 6255 00ac 0020     		movs	r0, #0
 6256 00ae FFF7FEFF 		bl	time
 6257              	.LVL852:
 6258 00b2 0146     		mov	r1, r0
 6259              	.LVL853:
 6260              		.loc 1 2104 0
 6261 00b4 0A14     		asrs	r2, r1, #16
 6262              		.loc 1 2105 0
 6263 00b6 0B12     		asrs	r3, r1, #8
 6264              		.loc 1 2103 0
 6265 00b8 0016     		asrs	r0, r0, #24
 6266              	.LVL854:
ARM GAS  C:\Users\jo\AppData\Local\Temp\ccgxU8bj.s 			page 111


 6267              		.loc 1 2106 0
 6268 00ba 7172     		strb	r1, [r6, #9]
 6269              		.loc 1 2103 0
 6270 00bc B071     		strb	r0, [r6, #6]
 6271              	.LVL855:
 6272              		.loc 1 2104 0
 6273 00be F271     		strb	r2, [r6, #7]
 6274              	.LVL856:
 6275              		.loc 1 2105 0
 6276 00c0 3372     		strb	r3, [r6, #8]
 6277              	.LVL857:
 6278              		.loc 1 2108 0
 6279 00c2 B748     		ldr	r0, .L812+12
 6280 00c4 FFF7FEFF 		bl	debug_fmt
 6281              	.LVL858:
 6282 00c8 0321     		movs	r1, #3
 6283 00ca 0090     		str	r0, [sp]
 6284 00cc B24A     		ldr	r2, .L812+4
 6285 00ce 2046     		mov	r0, r4
 6286 00d0 40F63C03 		movw	r3, #2108
 6287 00d4 FFF7FEFF 		bl	debug_print_msg
 6288              	.LVL859:
 6289              		.loc 1 2116 0
 6290 00d8 06F10A01 		add	r1, r6, #10
 6291              	.LVL860:
 6292 00dc A36A     		ldr	r3, [r4, #40]
 6293 00de 206C     		ldr	r0, [r4, #64]
 6294 00e0 1C22     		movs	r2, #28
 6295 00e2 9847     		blx	r3
 6296              	.LVL861:
 6297 00e4 0028     		cmp	r0, #0
 6298 00e6 40F0EC81 		bne	.L766
 6299              	.LVL862:
 6300              		.loc 1 2121 0
 6301 00ea 3346     		mov	r3, r6
 6302 00ec D4F88420 		ldr	r2, [r4, #132]
 6303 00f0 53F8065F 		ldr	r5, [r3, #6]!	@ unaligned
 6304              		.loc 1 2123 0
 6305 00f4 DFF8D8C2 		ldr	ip, .L812+60
 6306              		.loc 1 2121 0
 6307 00f8 5868     		ldr	r0, [r3, #4]	@ unaligned
 6308              	.LVL863:
 6309 00fa 9968     		ldr	r1, [r3, #8]	@ unaligned
 6310 00fc DF68     		ldr	r7, [r3, #12]	@ unaligned
 6311 00fe C2F88076 		str	r7, [r2, #1664]	@ unaligned
 6312 0102 C2F87456 		str	r5, [r2, #1652]	@ unaligned
 6313 0106 C2F87806 		str	r0, [r2, #1656]	@ unaligned
 6314 010a C2F87C16 		str	r1, [r2, #1660]	@ unaligned
 6315 010e 5869     		ldr	r0, [r3, #20]	@ unaligned
 6316 0110 9969     		ldr	r1, [r3, #24]	@ unaligned
 6317 0112 1D69     		ldr	r5, [r3, #16]	@ unaligned
 6318 0114 DF69     		ldr	r7, [r3, #28]	@ unaligned
 6319 0116 C2F89076 		str	r7, [r2, #1680]	@ unaligned
 6320              		.loc 1 2123 0
 6321 011a 4FF0200E 		mov	lr, #32
 6322              		.loc 1 2121 0
 6323 011e C2F88806 		str	r0, [r2, #1672]	@ unaligned
ARM GAS  C:\Users\jo\AppData\Local\Temp\ccgxU8bj.s 			page 112


 6324 0122 C2F88C16 		str	r1, [r2, #1676]	@ unaligned
 6325 0126 C2F88456 		str	r5, [r2, #1668]	@ unaligned
 6326              		.loc 1 2123 0
 6327 012a 2046     		mov	r0, r4
 6328 012c 0193     		str	r3, [sp, #4]
 6329 012e CDF800C0 		str	ip, [sp]
 6330 0132 40F64B03 		movw	r3, #2123
 6331 0136 CDF808E0 		str	lr, [sp, #8]
 6332 013a 0321     		movs	r1, #3
 6333 013c 964A     		ldr	r2, .L812+4
 6334 013e FFF7FEFF 		bl	debug_print_buf
 6335              	.LVL864:
 6336              		.loc 1 2130 0
 6337 0142 D4F88430 		ldr	r3, [r4, #132]
 6338 0146 D3F8B83A 		ldr	r3, [r3, #2744]
 6339 014a 002B     		cmp	r3, #0
 6340 014c 40F0B484 		bne	.L612
 6341 0150 6368     		ldr	r3, [r4, #4]
 6342              		.loc 1 2134 0
 6343 0152 D4F88050 		ldr	r5, [r4, #128]
 6344              		.loc 1 2130 0
 6345 0156 93B9     		cbnz	r3, .L614
 6346              		.loc 1 2132 0
 6347 0158 EB68     		ldr	r3, [r5, #12]
 6348 015a 83B1     		cbz	r3, .L614
 6349              		.loc 1 2135 0
 6350 015c A36B     		ldr	r3, [r4, #56]
 6351              		.loc 1 2134 0
 6352 015e 73B1     		cbz	r3, .L614
 6353              		.loc 1 2136 0
 6354 0160 2946     		mov	r1, r5
 6355 0162 206D     		ldr	r0, [r4, #80]
 6356 0164 9847     		blx	r3
 6357              	.LVL865:
 6358              		.loc 1 2135 0
 6359 0166 0028     		cmp	r0, #0
 6360 0168 01F07280 		beq	.L767
 6361 016c D4F88430 		ldr	r3, [r4, #132]
 6362              	.L615:
 6363              		.loc 1 2142 0
 6364 0170 D3F8B83A 		ldr	r3, [r3, #2744]
 6365 0174 002B     		cmp	r3, #0
 6366 0176 40F09F84 		bne	.L612
 6367 017a D4F88050 		ldr	r5, [r4, #128]
 6368              	.L614:
 6369              		.loc 1 2148 0
 6370 017e 2368     		ldr	r3, [r4]
 6371 0180 0133     		adds	r3, r3, #1
 6372 0182 2360     		str	r3, [r4]
 6373              		.loc 1 2151 0
 6374 0184 0020     		movs	r0, #0
 6375 0186 FFF7FEFF 		bl	time
 6376              	.LVL866:
 6377              		.loc 1 2155 0
 6378 018a D4F88430 		ldr	r3, [r4, #132]
 6379              		.loc 1 2151 0
 6380 018e 2860     		str	r0, [r5]
ARM GAS  C:\Users\jo\AppData\Local\Temp\ccgxU8bj.s 			page 113


 6381              		.loc 1 2155 0
 6382 0190 D3F8C83A 		ldr	r3, [r3, #2760]
 6383 0194 002B     		cmp	r3, #0
 6384 0196 00F0B185 		beq	.L616
 6385              		.loc 1 2157 0
 6386 019a D4F88000 		ldr	r0, [r4, #128]
 6387              	.LVL867:
 6388 019e 0021     		movs	r1, #0
 6389 01a0 C160     		str	r1, [r0, #12]
 6390              		.loc 1 2158 0
 6391 01a2 2022     		movs	r2, #32
 6392 01a4 1030     		adds	r0, r0, #16
 6393              		.loc 1 2157 0
 6394 01a6 0F46     		mov	r7, r1
 6395              		.loc 1 2158 0
 6396 01a8 FFF7FEFF 		bl	memset
 6397              	.LVL868:
 6398              	.L617:
 6399              		.loc 1 2192 0
 6400 01ac D4F88030 		ldr	r3, [r4, #128]
 6401 01b0 DB68     		ldr	r3, [r3, #12]
 6402 01b2 86F82630 		strb	r3, [r6, #38]
 6403              		.loc 1 2193 0
 6404 01b6 D4F88030 		ldr	r3, [r4, #128]
 6405              		.loc 1 2192 0
 6406 01ba 06F12709 		add	r9, r6, #39
 6407              	.LVL869:
 6408              		.loc 1 2193 0
 6409 01be DA68     		ldr	r2, [r3, #12]
 6410 01c0 03F11001 		add	r1, r3, #16
 6411 01c4 4846     		mov	r0, r9
 6412 01c6 FFF7FEFF 		bl	memcpy
 6413              	.LVL870:
 6414              		.loc 1 2194 0
 6415 01ca D4F88030 		ldr	r3, [r4, #128]
 6416              		.loc 1 2196 0
 6417 01ce 7548     		ldr	r0, .L812+16
 6418 01d0 3946     		mov	r1, r7
 6419              		.loc 1 2193 0
 6420 01d2 4D46     		mov	r5, r9
 6421              		.loc 1 2194 0
 6422 01d4 D3F80C90 		ldr	r9, [r3, #12]
 6423              		.loc 1 2196 0
 6424 01d8 FFF7FEFF 		bl	debug_fmt
 6425              	.LVL871:
 6426 01dc 0321     		movs	r1, #3
 6427 01de 0090     		str	r0, [sp]
 6428 01e0 6D4A     		ldr	r2, .L812+4
 6429 01e2 2046     		mov	r0, r4
 6430 01e4 40F69403 		movw	r3, #2196
 6431 01e8 FFF7FEFF 		bl	debug_print_msg
 6432              	.LVL872:
 6433              		.loc 1 2197 0
 6434 01ec 6E4B     		ldr	r3, .L812+20
 6435 01ee 6A4A     		ldr	r2, .L812+4
 6436 01f0 8DE8A800 		stmia	sp, {r3, r5, r7}
 6437 01f4 2046     		mov	r0, r4
ARM GAS  C:\Users\jo\AppData\Local\Temp\ccgxU8bj.s 			page 114


 6438 01f6 0321     		movs	r1, #3
 6439 01f8 40F69503 		movw	r3, #2197
 6440 01fc FFF7FEFF 		bl	debug_print_buf
 6441              	.LVL873:
 6442              		.loc 1 2198 0
 6443 0200 D4F88430 		ldr	r3, [r4, #132]
 6444 0204 694A     		ldr	r2, .L812+24
 6445 0206 D3F8B81A 		ldr	r1, [r3, #2744]
 6446 020a 694B     		ldr	r3, .L812+28
 6447 020c 6948     		ldr	r0, .L812+32
 6448 020e 0029     		cmp	r1, #0
 6449 0210 14BF     		ite	ne
 6450 0212 1146     		movne	r1, r2
 6451 0214 1946     		moveq	r1, r3
 6452 0216 FFF7FEFF 		bl	debug_fmt
 6453              	.LVL874:
 6454 021a 5F4A     		ldr	r2, .L812+4
 6455 021c 0090     		str	r0, [sp]
 6456 021e 0321     		movs	r1, #3
 6457 0220 2046     		mov	r0, r4
 6458 0222 40F69703 		movw	r3, #2199
 6459 0226 FFF7FEFF 		bl	debug_print_msg
 6460              	.LVL875:
 6461              		.loc 1 2201 0
 6462 022a D4F88030 		ldr	r3, [r4, #128]
 6463 022e 5B68     		ldr	r3, [r3, #4]
 6464 0230 1B12     		asrs	r3, r3, #8
 6465 0232 05F80930 		strb	r3, [r5, r9]
 6466              		.loc 1 2202 0
 6467 0236 D4F88030 		ldr	r3, [r4, #128]
 6468              		.loc 1 2194 0
 6469 023a A944     		add	r9, r9, r5
 6470              	.LVL876:
 6471              		.loc 1 2202 0
 6472 023c 5B68     		ldr	r3, [r3, #4]
 6473 023e 89F80130 		strb	r3, [r9, #1]
 6474              		.loc 1 2203 0
 6475 0242 D4F88030 		ldr	r3, [r4, #128]
 6476 0246 9B68     		ldr	r3, [r3, #8]
 6477 0248 89F80230 		strb	r3, [r9, #2]
 6478              		.loc 1 2205 0
 6479 024c D4F88030 		ldr	r3, [r4, #128]
 6480 0250 5868     		ldr	r0, [r3, #4]
 6481 0252 FFF7FEFF 		bl	ssl_get_ciphersuite_name
 6482              	.LVL877:
 6483 0256 0146     		mov	r1, r0
 6484 0258 5748     		ldr	r0, .L812+36
 6485 025a FFF7FEFF 		bl	debug_fmt
 6486              	.LVL878:
 6487 025e 4E4A     		ldr	r2, .L812+4
 6488 0260 0090     		str	r0, [sp]
 6489 0262 0321     		movs	r1, #3
 6490 0264 2046     		mov	r0, r4
 6491 0266 40F69E03 		movw	r3, #2206
 6492 026a FFF7FEFF 		bl	debug_print_msg
 6493              	.LVL879:
 6494              		.loc 1 2207 0
ARM GAS  C:\Users\jo\AppData\Local\Temp\ccgxU8bj.s 			page 115


 6495 026e D4F88030 		ldr	r3, [r4, #128]
 6496 0272 5248     		ldr	r0, .L812+40
 6497 0274 9968     		ldr	r1, [r3, #8]
 6498 0276 FFF7FEFF 		bl	debug_fmt
 6499              	.LVL880:
 6500 027a 0321     		movs	r1, #3
 6501 027c 0090     		str	r0, [sp]
 6502 027e 464A     		ldr	r2, .L812+4
 6503 0280 2046     		mov	r0, r4
 6504 0282 4FF40A63 		mov	r3, #2208
 6505 0286 FFF7FEFF 		bl	debug_print_msg
 6506              	.LVL881:
 6507              	.LBB359:
 6508              	.LBB360:
 6509              		.loc 1 1939 0
 6510 028a D4F87051 		ldr	r5, [r4, #368]
 6511 028e 012D     		cmp	r5, #1
 6512              	.LBE360:
 6513              	.LBE359:
 6514              		.loc 1 2203 0
 6515 0290 09F10308 		add	r8, r9, #3
 6516              	.LVL882:
 6517              	.LBB364:
 6518              	.LBB361:
 6519              		.loc 1 1939 0
 6520 0294 00F0C485 		beq	.L774
 6521 0298 0227     		movs	r7, #2
 6522              	.LVL883:
 6523              		.loc 1 1941 0
 6524 029a 0025     		movs	r5, #0
 6525              	.LVL884:
 6526              	.L619:
 6527              	.LBE361:
 6528              	.LBE364:
 6529              	.LBB365:
 6530              	.LBB366:
 6531              		.loc 1 1982 0
 6532 029c D4F88020 		ldr	r2, [r4, #128]
 6533 02a0 92F87430 		ldrb	r3, [r2, #116]	@ zero_extendqisi2
 6534 02a4 002B     		cmp	r3, #0
 6535 02a6 40F0DE84 		bne	.L775
 6536              		.loc 1 1984 0
 6537 02aa 1946     		mov	r1, r3
 6538              	.LVL885:
 6539              	.L621:
 6540              	.LBE366:
 6541              	.LBE365:
 6542              	.LBB369:
 6543              	.LBB370:
 6544              		.loc 1 1820 0
 6545 02ac 936F     		ldr	r3, [r2, #120]
 6546              	.LBE370:
 6547              	.LBE369:
 6548              		.loc 1 2218 0
 6549 02ae 0D44     		add	r5, r5, r1
 6550              	.LVL886:
 6551              	.LBB374:
ARM GAS  C:\Users\jo\AppData\Local\Temp\ccgxU8bj.s 			page 116


 6552              	.LBB371:
 6553              		.loc 1 1820 0
 6554 02b0 B3B1     		cbz	r3, .L622
 6555              		.loc 1 1826 0
 6556 02b2 4348     		ldr	r0, .L812+44
 6557 02b4 FFF7FEFF 		bl	debug_fmt
 6558              	.LVL887:
 6559              	.LBE371:
 6560              	.LBE374:
 6561              		.loc 1 2222 0
 6562 02b8 AF1C     		adds	r7, r5, #2
 6563              	.LVL888:
 6564              	.LBB375:
 6565              	.LBB372:
 6566              		.loc 1 1826 0
 6567 02ba 0090     		str	r0, [sp]
 6568 02bc 0321     		movs	r1, #3
 6569 02be 364A     		ldr	r2, .L812+4
 6570 02c0 40F22273 		movw	r3, #1826
 6571 02c4 2046     		mov	r0, r4
 6572 02c6 FFF7FEFF 		bl	debug_print_msg
 6573              	.LVL889:
 6574              	.LBE372:
 6575              	.LBE375:
 6576              		.loc 1 2222 0
 6577 02ca 08EB0702 		add	r2, r8, r7
 6578              	.LBB376:
 6579              	.LBB373:
 6580              		.loc 1 1828 0
 6581 02ce 0021     		movs	r1, #0
 6582 02d0 08F80710 		strb	r1, [r8, r7]
 6583              	.LVL890:
 6584              		.loc 1 1829 0
 6585 02d4 0423     		movs	r3, #4
 6586              		.loc 1 1831 0
 6587 02d6 9170     		strb	r1, [r2, #2]
 6588              		.loc 1 1832 0
 6589 02d8 D170     		strb	r1, [r2, #3]
 6590              		.loc 1 1829 0
 6591 02da 5370     		strb	r3, [r2, #1]
 6592              	.LVL891:
 6593 02dc D4F88020 		ldr	r2, [r4, #128]
 6594              	.LVL892:
 6595              	.L622:
 6596              	.LBE373:
 6597              	.LBE376:
 6598              	.LBB377:
 6599              	.LBB378:
 6600              		.loc 1 1847 0
 6601 02e0 D16F     		ldr	r1, [r2, #124]
 6602              	.LBE378:
 6603              	.LBE377:
 6604              		.loc 1 2223 0
 6605 02e2 1D44     		add	r5, r5, r3
 6606              	.LVL893:
 6607              	.LBB382:
 6608              	.LBB379:
ARM GAS  C:\Users\jo\AppData\Local\Temp\ccgxU8bj.s 			page 117


 6609              		.loc 1 1847 0
 6610 02e4 19B1     		cbz	r1, .L625
 6611 02e6 2369     		ldr	r3, [r4, #16]
 6612              	.LVL894:
 6613 02e8 002B     		cmp	r3, #0
 6614 02ea 40F06B85 		bne	.L776
 6615              	.LVL895:
 6616              	.L625:
 6617              		.loc 1 1850 0
 6618 02ee 0027     		movs	r7, #0
 6619              	.LVL896:
 6620              	.L624:
 6621              	.LBE379:
 6622              	.LBE382:
 6623              	.LBB383:
 6624              	.LBB384:
 6625              		.loc 1 1888 0
 6626 02f0 D4F88420 		ldr	r2, [r4, #132]
 6627 02f4 D2F8CC3A 		ldr	r3, [r2, #2764]
 6628              	.LBE384:
 6629              	.LBE383:
 6630              		.loc 1 2228 0
 6631 02f8 2F44     		add	r7, r7, r5
 6632              	.LVL897:
 6633              	.LBB388:
 6634              	.LBB385:
 6635              		.loc 1 1888 0
 6636 02fa CBB1     		cbz	r3, .L626
 6637 02fc 2369     		ldr	r3, [r4, #16]
 6638 02fe BBB1     		cbz	r3, .L626
 6639              		.loc 1 1895 0
 6640 0300 3048     		ldr	r0, .L812+48
 6641 0302 FFF7FEFF 		bl	debug_fmt
 6642              	.LVL898:
 6643              	.LBE385:
 6644              	.LBE388:
 6645              		.loc 1 2232 0
 6646 0306 BD1C     		adds	r5, r7, #2
 6647              	.LVL899:
 6648              	.LBB389:
 6649              	.LBB386:
 6650              		.loc 1 1895 0
 6651 0308 0090     		str	r0, [sp]
 6652 030a 0321     		movs	r1, #3
 6653 030c 224A     		ldr	r2, .L812+4
 6654 030e 4FF4ED63 		mov	r3, #1896
 6655 0312 2046     		mov	r0, r4
 6656 0314 FFF7FEFF 		bl	debug_print_msg
 6657              	.LVL900:
 6658              	.LBE386:
 6659              	.LBE389:
 6660              		.loc 1 2232 0
 6661 0318 08EB0502 		add	r2, r8, r5
 6662              	.LBB390:
 6663              	.LBB387:
 6664              		.loc 1 1898 0
 6665 031c 0021     		movs	r1, #0
ARM GAS  C:\Users\jo\AppData\Local\Temp\ccgxU8bj.s 			page 118


 6666 031e 08F80510 		strb	r1, [r8, r5]
 6667              	.LVL901:
 6668              		.loc 1 1899 0
 6669 0322 1723     		movs	r3, #23
 6670 0324 5370     		strb	r3, [r2, #1]
 6671              	.LVL902:
 6672              		.loc 1 1901 0
 6673 0326 9170     		strb	r1, [r2, #2]
 6674              		.loc 1 1902 0
 6675 0328 D170     		strb	r1, [r2, #3]
 6676 032a D4F88420 		ldr	r2, [r4, #132]
 6677              		.loc 1 1904 0
 6678 032e 0423     		movs	r3, #4
 6679              	.LVL903:
 6680              	.L626:
 6681              	.LBE387:
 6682              	.LBE390:
 6683              	.LBB391:
 6684              	.LBB392:
 6685              		.loc 1 1915 0
 6686 0330 D2F8C85A 		ldr	r5, [r2, #2760]
 6687              	.LBE392:
 6688              	.LBE391:
 6689              		.loc 1 2233 0
 6690 0334 1F44     		add	r7, r7, r3
 6691              	.LVL904:
 6692              	.LBB396:
 6693              	.LBB393:
 6694              		.loc 1 1915 0
 6695 0336 BDB1     		cbz	r5, .L627
 6696              		.loc 1 1921 0
 6697 0338 2348     		ldr	r0, .L812+52
 6698 033a FFF7FEFF 		bl	debug_fmt
 6699              	.LVL905:
 6700              	.LBE393:
 6701              	.LBE396:
 6702              		.loc 1 2237 0
 6703 033e BD1C     		adds	r5, r7, #2
 6704              	.LVL906:
 6705              	.LBB397:
 6706              	.LBB394:
 6707              		.loc 1 1921 0
 6708 0340 0090     		str	r0, [sp]
 6709 0342 0321     		movs	r1, #3
 6710 0344 144A     		ldr	r2, .L812+4
 6711 0346 40F28173 		movw	r3, #1921
 6712 034a 2046     		mov	r0, r4
 6713 034c FFF7FEFF 		bl	debug_print_msg
 6714              	.LVL907:
 6715              	.LBE394:
 6716              	.LBE397:
 6717              		.loc 1 2237 0
 6718 0350 08EB0502 		add	r2, r8, r5
 6719              	.LBB398:
 6720              	.LBB395:
 6721              		.loc 1 1923 0
 6722 0354 0021     		movs	r1, #0
ARM GAS  C:\Users\jo\AppData\Local\Temp\ccgxU8bj.s 			page 119


 6723 0356 08F80510 		strb	r1, [r8, r5]
 6724              	.LVL908:
 6725              		.loc 1 1924 0
 6726 035a 2323     		movs	r3, #35
 6727              		.loc 1 1926 0
 6728 035c 9170     		strb	r1, [r2, #2]
 6729              		.loc 1 1927 0
 6730 035e D170     		strb	r1, [r2, #3]
 6731              		.loc 1 1924 0
 6732 0360 5370     		strb	r3, [r2, #1]
 6733              	.LVL909:
 6734 0362 D4F88420 		ldr	r2, [r4, #132]
 6735              		.loc 1 1929 0
 6736 0366 0425     		movs	r5, #4
 6737              	.LVL910:
 6738              	.L627:
 6739              	.LBE395:
 6740              	.LBE398:
 6741              	.LBB399:
 6742              	.LBB400:
 6743              		.loc 1 2010 0
 6744 0368 D2F8C43A 		ldr	r3, [r2, #2756]
 6745 036c 13F00103 		ands	r3, r3, #1
 6746              	.LBE400:
 6747              	.LBE399:
 6748              		.loc 1 2238 0
 6749 0370 3D44     		add	r5, r5, r7
 6750              	.LVL911:
 6751              	.LBB403:
 6752              	.LBB401:
 6753              		.loc 1 2010 0
 6754 0372 3DD0     		beq	.L628
 6755              		.loc 1 2017 0
 6756 0374 1548     		ldr	r0, .L812+56
 6757 0376 FFF7FEFF 		bl	debug_fmt
 6758              	.LVL912:
 6759              	.LBE401:
 6760              	.LBE403:
 6761              		.loc 1 2242 0
 6762 037a 05F1020A 		add	r10, r5, #2
 6763              	.LVL913:
 6764 037e 08EB0A07 		add	r7, r8, r10
 6765              	.LVL914:
 6766              	.LBB404:
 6767              	.LBB402:
 6768              		.loc 1 2017 0
 6769 0382 0090     		str	r0, [sp]
 6770 0384 0321     		movs	r1, #3
 6771 0386 2046     		mov	r0, r4
 6772 0388 034A     		ldr	r2, .L812+4
 6773 038a 40F2E173 		movw	r3, #2017
 6774 038e FFF7FEFF 		bl	debug_print_msg
 6775              	.LVL915:
 6776 0392 1FE0     		b	.L813
 6777              	.L814:
 6778              		.align	2
 6779              	.L812:
ARM GAS  C:\Users\jo\AppData\Local\Temp\ccgxU8bj.s 			page 120


 6780 0394 C00C0000 		.word	.LC110
 6781 0398 18000000 		.word	.LC1
 6782 039c E80C0000 		.word	.LC112
 6783 03a0 100D0000 		.word	.LC113
 6784 03a4 880D0000 		.word	.LC117
 6785 03a8 AC0D0000 		.word	.LC118
 6786 03ac A40C0000 		.word	.LC107
 6787 03b0 A80C0000 		.word	.LC108
 6788 03b4 C80D0000 		.word	.LC119
 6789 03b8 E40D0000 		.word	.LC120
 6790 03bc 0C0E0000 		.word	.LC121
 6791 03c0 8C0E0000 		.word	.LC124
 6792 03c4 EC0E0000 		.word	.LC126
 6793 03c8 240F0000 		.word	.LC127
 6794 03cc 540F0000 		.word	.LC128
 6795 03d0 300D0000 		.word	.LC114
 6796              	.L813:
 6797              	.LVL916:
 6798              		.loc 1 2019 0
 6799 03d4 0022     		movs	r2, #0
 6800              		.loc 1 2020 0
 6801 03d6 4FF00B0E 		mov	lr, #11
 6802              		.loc 1 2023 0
 6803 03da 0220     		movs	r0, #2
 6804              		.loc 1 2025 0
 6805 03dc 0121     		movs	r1, #1
 6806              		.loc 1 2019 0
 6807 03de 08F80A20 		strb	r2, [r8, r10]
 6808              	.LVL917:
 6809              		.loc 1 2028 0
 6810 03e2 0623     		movs	r3, #6
 6811              		.loc 1 2022 0
 6812 03e4 BA70     		strb	r2, [r7, #2]
 6813              		.loc 1 2026 0
 6814 03e6 7A71     		strb	r2, [r7, #5]
 6815              		.loc 1 2020 0
 6816 03e8 87F801E0 		strb	lr, [r7, #1]
 6817              	.LVL918:
 6818              		.loc 1 2023 0
 6819 03ec F870     		strb	r0, [r7, #3]
 6820              	.LVL919:
 6821              		.loc 1 2025 0
 6822 03ee 3971     		strb	r1, [r7, #4]
 6823              	.LVL920:
 6824              	.L628:
 6825              	.LBE402:
 6826              	.LBE404:
 6827              		.loc 1 2243 0
 6828 03f0 1D44     		add	r5, r5, r3
 6829              	.LVL921:
 6830              	.LBB405:
 6831              	.LBB406:
 6832              		.loc 1 2036 0
 6833 03f2 D4F86C31 		ldr	r3, [r4, #364]
 6834              	.LVL922:
 6835              	.LBE406:
 6836              	.LBE405:
ARM GAS  C:\Users\jo\AppData\Local\Temp\ccgxU8bj.s 			page 121


 6837              		.loc 1 2247 0
 6838 03f6 05F1020B 		add	fp, r5, #2
 6839 03fa 08EB0B07 		add	r7, r8, fp
 6840              	.LVL923:
 6841              	.LBB409:
 6842              	.LBB407:
 6843              		.loc 1 2036 0
 6844 03fe 002B     		cmp	r3, #0
 6845 0400 00F00B85 		beq	.L716
 6846              		.loc 1 2042 0
 6847 0404 B648     		ldr	r0, .L815
 6848 0406 FFF7FEFF 		bl	debug_fmt
 6849              	.LVL924:
 6850 040a 0321     		movs	r1, #3
 6851 040c B54A     		ldr	r2, .L815+4
 6852 040e 0090     		str	r0, [sp]
 6853 0410 40F2FA73 		movw	r3, #2042
 6854 0414 2046     		mov	r0, r4
 6855 0416 FFF7FEFF 		bl	debug_print_msg
 6856              	.LVL925:
 6857              		.loc 1 2051 0
 6858 041a 0023     		movs	r3, #0
 6859 041c 08F80B30 		strb	r3, [r8, fp]
 6860              		.loc 1 2052 0
 6861 0420 1023     		movs	r3, #16
 6862 0422 7B70     		strb	r3, [r7, #1]
 6863              		.loc 1 2054 0
 6864 0424 D4F86C01 		ldr	r0, [r4, #364]
 6865 0428 FFF7FEFF 		bl	strlen
 6866              	.LVL926:
 6867 042c 0246     		mov	r2, r0
 6868 042e 00F1070A 		add	r10, r0, #7
 6869              	.LVL927:
 6870              		.loc 1 2057 0
 6871 0432 5FFA8AF3 		uxtb	r3, r10
 6872              		.loc 1 2056 0
 6873 0436 0330     		adds	r0, r0, #3
 6874              		.loc 1 2059 0
 6875 0438 511C     		adds	r1, r2, #1
 6876              		.loc 1 2057 0
 6877 043a A3F1040C 		sub	ip, r3, #4
 6878              		.loc 1 2060 0
 6879 043e A3F1060E 		sub	lr, r3, #6
 6880              		.loc 1 2056 0
 6881 0442 000A     		lsrs	r0, r0, #8
 6882              		.loc 1 2059 0
 6883 0444 090A     		lsrs	r1, r1, #8
 6884              		.loc 1 2062 0
 6885 0446 073B     		subs	r3, r3, #7
 6886              		.loc 1 2056 0
 6887 0448 B870     		strb	r0, [r7, #2]
 6888              		.loc 1 2057 0
 6889 044a 87F803C0 		strb	ip, [r7, #3]
 6890              		.loc 1 2060 0
 6891 044e 87F805E0 		strb	lr, [r7, #5]
 6892              		.loc 1 2062 0
 6893 0452 BB71     		strb	r3, [r7, #6]
ARM GAS  C:\Users\jo\AppData\Local\Temp\ccgxU8bj.s 			page 122


 6894              		.loc 1 2059 0
 6895 0454 3971     		strb	r1, [r7, #4]
 6896              		.loc 1 2064 0
 6897 0456 F81D     		adds	r0, r7, #7
 6898 0458 D4F86C11 		ldr	r1, [r4, #364]
 6899 045c FFF7FEFF 		bl	memcpy
 6900              	.LVL928:
 6901              	.L629:
 6902              	.LBE407:
 6903              	.LBE409:
 6904              		.loc 1 2248 0
 6905 0460 5544     		add	r5, r5, r10
 6906              	.LVL929:
 6907              		.loc 1 2251 0
 6908 0462 2946     		mov	r1, r5
 6909 0464 A048     		ldr	r0, .L815+8
 6910 0466 FFF7FEFF 		bl	debug_fmt
 6911              	.LVL930:
 6912 046a 0321     		movs	r1, #3
 6913 046c 0090     		str	r0, [sp]
 6914 046e 9D4A     		ldr	r2, .L815+4
 6915 0470 2046     		mov	r0, r4
 6916 0472 40F6CB03 		movw	r3, #2251
 6917 0476 FFF7FEFF 		bl	debug_print_msg
 6918              	.LVL931:
 6919              		.loc 1 2253 0
 6920 047a 3DB1     		cbz	r5, .L630
 6921              	.LVL932:
 6922              		.loc 1 2255 0
 6923 047c 2B0A     		lsrs	r3, r5, #8
 6924              		.loc 1 2213 0
 6925 047e 09F10508 		add	r8, r9, #5
 6926              		.loc 1 2256 0
 6927 0482 89F80450 		strb	r5, [r9, #4]
 6928              		.loc 1 2255 0
 6929 0486 89F80330 		strb	r3, [r9, #3]
 6930              	.LVL933:
 6931              		.loc 1 2257 0
 6932 048a A844     		add	r8, r8, r5
 6933              	.LVL934:
 6934              	.L630:
 6935              		.loc 1 2262 0
 6936 048c D4F8D030 		ldr	r3, [r4, #208]
 6937              		.loc 1 2261 0
 6938 0490 1622     		movs	r2, #22
 6939              		.loc 1 2262 0
 6940 0492 0227     		movs	r7, #2
 6941              	.LVL935:
 6942              		.loc 1 2260 0
 6943 0494 C6EB0806 		rsb	r6, r6, r8
 6944              	.LVL936:
 6945              		.loc 1 2261 0
 6946 0498 C4F8D420 		str	r2, [r4, #212]
 6947              		.loc 1 2260 0
 6948 049c C4F8D860 		str	r6, [r4, #216]
 6949              		.loc 1 2264 0
 6950 04a0 2046     		mov	r0, r4
ARM GAS  C:\Users\jo\AppData\Local\Temp\ccgxU8bj.s 			page 123


 6951              		.loc 1 2262 0
 6952 04a2 1F70     		strb	r7, [r3]
 6953              		.loc 1 2264 0
 6954 04a4 FFF7FEFF 		bl	ssl_write_record
 6955              	.LVL937:
 6956 04a8 0546     		mov	r5, r0
 6957              	.LVL938:
 6958              		.loc 1 2266 0
 6959 04aa 9048     		ldr	r0, .L815+12
 6960              	.LVL939:
 6961 04ac FFF7FEFF 		bl	debug_fmt
 6962              	.LVL940:
 6963 04b0 3946     		mov	r1, r7
 6964 04b2 0090     		str	r0, [sp]
 6965 04b4 8B4A     		ldr	r2, .L815+4
 6966 04b6 2046     		mov	r0, r4
