ARM GAS  C:\Users\jo\AppData\Local\Temp\ccK7XbRr.s 			page 1


   1              		.syntax unified
   2              		.cpu cortex-m4
   3              		.fpu softvfp
   4              		.eabi_attribute 20, 1
   5              		.eabi_attribute 21, 1
   6              		.eabi_attribute 23, 3
   7              		.eabi_attribute 24, 1
   8              		.eabi_attribute 25, 1
   9              		.eabi_attribute 26, 1
  10              		.eabi_attribute 30, 2
  11              		.eabi_attribute 34, 1
  12              		.eabi_attribute 18, 4
  13              		.thumb
  14              		.file	"ssl_tls.c"
  15              		.text
  16              	.Ltext0:
  17              		.cfi_sections	.debug_frame
  18              		.section	.text.ssl_calc_finished_tls_sha256,"ax",%progbits
  19              		.align	2
  20              		.p2align 4,,15
  21              		.thumb
  22              		.thumb_func
  23              		.type	ssl_calc_finished_tls_sha256, %function
  24              	ssl_calc_finished_tls_sha256:
  25              	.LFB46:
  26              		.file 1 "../../../ext/mbedtls-1.3.11/library/ssl_tls.c"
  27              		.loc 1 3158 0
  28              		.cfi_startproc
  29              		@ args = 0, pretend = 0, frame = 272
  30              		@ frame_needed = 0, uses_anonymous_args = 0
  31              	.LVL0:
  32 0000 2DE9F047 		push	{r4, r5, r6, r7, r8, r9, r10, lr}
  33              		.cfi_def_cfa_offset 32
  34              		.cfi_offset 4, -32
  35              		.cfi_offset 5, -28
  36              		.cfi_offset 6, -24
  37              		.cfi_offset 7, -20
  38              		.cfi_offset 8, -16
  39              		.cfi_offset 9, -12
  40              		.cfi_offset 10, -8
  41              		.cfi_offset 14, -4
  42              		.loc 1 3164 0
  43 0004 D0F88070 		ldr	r7, [r0, #128]
  44              	.LVL1:
  45              		.loc 1 3158 0
  46 0008 C8B0     		sub	sp, sp, #288
  47              		.cfi_def_cfa_offset 320
  48              		.loc 1 3158 0
  49 000a 0546     		mov	r5, r0
  50 000c 8846     		mov	r8, r1
  51 000e 1646     		mov	r6, r2
  52              		.loc 1 3165 0
  53 0010 002F     		cmp	r7, #0
  54 0012 5FD0     		beq	.L9
  55              	.L2:
  56              		.loc 1 3168 0
  57 0014 3048     		ldr	r0, .L10
ARM GAS  C:\Users\jo\AppData\Local\Temp\ccK7XbRr.s 			page 2


  58              	.LVL2:
  59 0016 FFF7FEFF 		bl	debug_fmt
  60              	.LVL3:
  61 001a 4FF44663 		mov	r3, #3168
  62 001e 0221     		movs	r1, #2
  63 0020 0090     		str	r0, [sp]
  64 0022 2E4A     		ldr	r2, .L10+4
  65 0024 2846     		mov	r0, r5
  66 0026 FFF7FEFF 		bl	debug_print_msg
  67              	.LVL4:
  68              		.loc 1 3170 0
  69 002a D5F88410 		ldr	r1, [r5, #132]
  70 002e 0DAC     		add	r4, sp, #52
  71 0030 01F55F71 		add	r1, r1, #892
  72 0034 EC22     		movs	r2, #236
  73 0036 2046     		mov	r0, r4
  74 0038 FFF7FEFF 		bl	memcpy
  75              	.LVL5:
  76              		.loc 1 3179 0
  77 003c 284B     		ldr	r3, .L10+8
  78 003e 0093     		str	r3, [sp]
  79 0040 4FF0200A 		mov	r10, #32
  80 0044 0FAB     		add	r3, sp, #60
  81 0046 0193     		str	r3, [sp, #4]
  82 0048 2846     		mov	r0, r5
  83 004a 0421     		movs	r1, #4
  84 004c 234A     		ldr	r2, .L10+4
  85 004e CDF808A0 		str	r10, [sp, #8]
  86 0052 40F66C43 		movw	r3, #3180
  87 0056 FFF7FEFF 		bl	debug_print_buf
  88              	.LVL6:
  89              		.loc 1 3183 0
  90 005a 224B     		ldr	r3, .L10+12
  91 005c 224A     		ldr	r2, .L10+16
  92              		.loc 1 3187 0
  93 005e 2046     		mov	r0, r4
  94 0060 05A9     		add	r1, sp, #20
  95              		.loc 1 3183 0
  96 0062 002E     		cmp	r6, #0
  97 0064 0CBF     		ite	eq
  98 0066 1E46     		moveq	r6, r3
  99 0068 1646     		movne	r6, r2
 100              	.LVL7:
 101              		.loc 1 3189 0
 102 006a 4FF00C09 		mov	r9, #12
 103              		.loc 1 3187 0
 104 006e FFF7FEFF 		bl	sha256_finish
 105              	.LVL8:
 106              		.loc 1 3189 0
 107 0072 D5F88430 		ldr	r3, [r5, #132]
 108 0076 CDF800A0 		str	r10, [sp]
 109 007a CDF80480 		str	r8, [sp, #4]
 110 007e CDF80890 		str	r9, [sp, #8]
 111 0082 3246     		mov	r2, r6
 112 0084 3021     		movs	r1, #48
 113 0086 D3F84C66 		ldr	r6, [r3, #1612]
 114              	.LVL9:
ARM GAS  C:\Users\jo\AppData\Local\Temp\ccK7XbRr.s 			page 3


 115 008a 07F13000 		add	r0, r7, #48
 116 008e 05AB     		add	r3, sp, #20
 117 0090 B047     		blx	r6
 118              	.LVL10:
 119              		.loc 1 3192 0
 120 0092 164B     		ldr	r3, .L10+20
 121 0094 114A     		ldr	r2, .L10+4
 122 0096 8DE80803 		stmia	sp, {r3, r8, r9}
 123 009a 2846     		mov	r0, r5
 124 009c 40F67843 		movw	r3, #3192
 125 00a0 0321     		movs	r1, #3
 126 00a2 FFF7FEFF 		bl	debug_print_buf
 127              	.LVL11:
 128              		.loc 1 3194 0
 129 00a6 2046     		mov	r0, r4
 130 00a8 FFF7FEFF 		bl	sha256_free
 131              	.LVL12:
 132              	.LBB109:
 133              	.LBB110:
 134              		.loc 1 64 0
 135 00ac 05AB     		add	r3, sp, #20
 136              	.LVL13:
 137 00ae 0022     		movs	r2, #0
 138              	.LVL14:
 139              	.L4:
 140 00b0 1A70     		strb	r2, [r3]
 141              	.LVL15:
 142 00b2 0133     		adds	r3, r3, #1
 143              	.LVL16:
 144 00b4 A342     		cmp	r3, r4
 145 00b6 FBD1     		bne	.L4
 146              	.LBE110:
 147              	.LBE109:
 148              		.loc 1 3198 0 discriminator 4
 149 00b8 0D48     		ldr	r0, .L10+24
 150 00ba FFF7FEFF 		bl	debug_fmt
 151              	.LVL17:
 152 00be 0221     		movs	r1, #2
 153 00c0 0090     		str	r0, [sp]
 154 00c2 064A     		ldr	r2, .L10+4
 155 00c4 2846     		mov	r0, r5
 156 00c6 40F67E43 		movw	r3, #3198
 157 00ca FFF7FEFF 		bl	debug_print_msg
 158              	.LVL18:
 159              		.loc 1 3199 0 discriminator 4
 160 00ce 48B0     		add	sp, sp, #288
 161              		.cfi_remember_state
 162              		.cfi_def_cfa_offset 32
 163              		@ sp needed
 164 00d0 BDE8F087 		pop	{r4, r5, r6, r7, r8, r9, r10, pc}
 165              	.LVL19:
 166              	.L9:
 167              		.cfi_restore_state
 168              		.loc 1 3166 0
 169 00d4 C76F     		ldr	r7, [r0, #124]
 170              	.LVL20:
 171 00d6 9DE7     		b	.L2
ARM GAS  C:\Users\jo\AppData\Local\Temp\ccK7XbRr.s 			page 4


 172              	.L11:
 173              		.align	2
 174              	.L10:
 175 00d8 20000000 		.word	.LC2
 176 00dc 40000000 		.word	.LC3
 177 00e0 70000000 		.word	.LC4
 178 00e4 00000000 		.word	.LC0
 179 00e8 10000000 		.word	.LC1
 180 00ec 84000000 		.word	.LC5
 181 00f0 9C000000 		.word	.LC6
 182              		.cfi_endproc
 183              	.LFE46:
 184              		.size	ssl_calc_finished_tls_sha256, .-ssl_calc_finished_tls_sha256
 185 00f4 AFF30080 		.section	.text.ssl_calc_verify_tls_sha256,"ax",%progbits
 185      AFF30080 
 185      AFF30080 
 186              		.align	2
 187              		.p2align 4,,15
 188              		.thumb
 189              		.thumb_func
 190              		.type	ssl_calc_verify_tls_sha256, %function
 191              	ssl_calc_verify_tls_sha256:
 192              	.LFB23:
 193              		.loc 1 901 0
 194              		.cfi_startproc
 195              		@ args = 0, pretend = 0, frame = 240
 196              		@ frame_needed = 0, uses_anonymous_args = 0
 197              	.LVL21:
 198 0000 70B5     		push	{r4, r5, r6, lr}
 199              		.cfi_def_cfa_offset 16
 200              		.cfi_offset 4, -16
 201              		.cfi_offset 5, -12
 202              		.cfi_offset 6, -8
 203              		.cfi_offset 14, -4
 204 0002 0446     		mov	r4, r0
 205 0004 C0B0     		sub	sp, sp, #256
 206              		.cfi_def_cfa_offset 272
 207              		.loc 1 904 0
 208 0006 1A48     		ldr	r0, .L14
 209              	.LVL22:
 210 0008 1A4D     		ldr	r5, .L14+4
 211              		.loc 1 901 0
 212 000a 0E46     		mov	r6, r1
 213              		.loc 1 904 0
 214 000c FFF7FEFF 		bl	debug_fmt
 215              	.LVL23:
 216 0010 4FF46273 		mov	r3, #904
 217 0014 2A46     		mov	r2, r5
 218 0016 0090     		str	r0, [sp]
 219 0018 0221     		movs	r1, #2
 220 001a 2046     		mov	r0, r4
 221 001c FFF7FEFF 		bl	debug_print_msg
 222              	.LVL24:
 223              		.loc 1 906 0
 224 0020 D4F88410 		ldr	r1, [r4, #132]
 225 0024 EC22     		movs	r2, #236
 226 0026 01F55F71 		add	r1, r1, #892
ARM GAS  C:\Users\jo\AppData\Local\Temp\ccK7XbRr.s 			page 5


 227 002a 05A8     		add	r0, sp, #20
 228 002c FFF7FEFF 		bl	memcpy
 229              	.LVL25:
 230              		.loc 1 907 0
 231 0030 05A8     		add	r0, sp, #20
 232 0032 3146     		mov	r1, r6
 233 0034 FFF7FEFF 		bl	sha256_finish
 234              	.LVL26:
 235              		.loc 1 909 0
 236 0038 0F49     		ldr	r1, .L14+8
 237 003a 0091     		str	r1, [sp]
 238 003c 2023     		movs	r3, #32
 239 003e 2A46     		mov	r2, r5
 240 0040 2046     		mov	r0, r4
 241 0042 0293     		str	r3, [sp, #8]
 242 0044 0321     		movs	r1, #3
 243 0046 40F28D33 		movw	r3, #909
 244 004a 0196     		str	r6, [sp, #4]
 245 004c FFF7FEFF 		bl	debug_print_buf
 246              	.LVL27:
 247              		.loc 1 910 0
 248 0050 0A48     		ldr	r0, .L14+12
 249 0052 FFF7FEFF 		bl	debug_fmt
 250              	.LVL28:
 251 0056 2A46     		mov	r2, r5
 252 0058 0090     		str	r0, [sp]
 253 005a 0221     		movs	r1, #2
 254 005c 2046     		mov	r0, r4
 255 005e 40F28E33 		movw	r3, #910
 256 0062 FFF7FEFF 		bl	debug_print_msg
 257              	.LVL29:
 258              		.loc 1 912 0
 259 0066 05A8     		add	r0, sp, #20
 260 0068 FFF7FEFF 		bl	sha256_free
 261              	.LVL30:
 262              		.loc 1 915 0
 263 006c 40B0     		add	sp, sp, #256
 264              		.cfi_def_cfa_offset 16
 265              		@ sp needed
 266 006e 70BD     		pop	{r4, r5, r6, pc}
 267              	.LVL31:
 268              	.L15:
 269              		.align	2
 270              	.L14:
 271 0070 B0000000 		.word	.LC7
 272 0074 40000000 		.word	.LC3
 273 0078 C8000000 		.word	.LC8
 274 007c E4000000 		.word	.LC9
 275              		.cfi_endproc
 276              	.LFE23:
 277              		.size	ssl_calc_verify_tls_sha256, .-ssl_calc_verify_tls_sha256
 278              		.section	.text.tls_prf_sha256,"ax",%progbits
 279              		.align	2
 280              		.p2align 4,,15
 281              		.thumb
 282              		.thumb_func
 283              		.type	tls_prf_sha256, %function
ARM GAS  C:\Users\jo\AppData\Local\Temp\ccK7XbRr.s 			page 6


 284              	tls_prf_sha256:
 285              	.LFB18:
 286              		.loc 1 263 0
 287              		.cfi_startproc
 288              		@ args = 12, pretend = 0, frame = 168
 289              		@ frame_needed = 0, uses_anonymous_args = 0
 290              	.LVL32:
 291 0000 2DE9F04F 		push	{r4, r5, r6, r7, r8, r9, r10, fp, lr}
 292              		.cfi_def_cfa_offset 36
 293              		.cfi_offset 4, -36
 294              		.cfi_offset 5, -32
 295              		.cfi_offset 6, -28
 296              		.cfi_offset 7, -24
 297              		.cfi_offset 8, -20
 298              		.cfi_offset 9, -16
 299              		.cfi_offset 10, -12
 300              		.cfi_offset 11, -8
 301              		.cfi_offset 14, -4
 302 0004 0646     		mov	r6, r0
 303 0006 ADB0     		sub	sp, sp, #180
 304              		.cfi_def_cfa_offset 216
 305              		.loc 1 269 0
 306 0008 1046     		mov	r0, r2
 307              	.LVL33:
 308              		.loc 1 263 0
 309 000a 9846     		mov	r8, r3
 310 000c 9346     		mov	fp, r2
 311 000e 0F46     		mov	r7, r1
 312              		.loc 1 269 0
 313 0010 FFF7FEFF 		bl	strlen
 314              	.LVL34:
 315 0014 369B     		ldr	r3, [sp, #216]
 316              		.loc 1 263 0
 317 0016 389D     		ldr	r5, [sp, #224]
 318              		.loc 1 269 0
 319 0018 00EB030A 		add	r10, r0, r3
 320 001c 0AF12009 		add	r9, r10, #32
 321 0020 B9F1800F 		cmp	r9, #128
 322 0024 0446     		mov	r4, r0
 323 0026 5BD8     		bhi	.L25
 324              	.LVL35:
 325              		.loc 1 273 0
 326 0028 5946     		mov	r1, fp
 327 002a 2246     		mov	r2, r4
 328 002c 14A8     		add	r0, sp, #80
 329              	.LVL36:
 330 002e FFF7FEFF 		bl	memcpy
 331              	.LVL37:
 332 0032 0DF1300B 		add	fp, sp, #48
 333              	.LVL38:
 334              		.loc 1 274 0
 335 0036 04F12000 		add	r0, r4, #32
 336 003a 4146     		mov	r1, r8
 337 003c 369A     		ldr	r2, [sp, #216]
 338 003e 5844     		add	r0, r0, fp
 339              		.loc 1 280 0
 340 0040 0024     		movs	r4, #0
ARM GAS  C:\Users\jo\AppData\Local\Temp\ccK7XbRr.s 			page 7


 341              	.LVL39:
 342              		.loc 1 274 0
 343 0042 FFF7FEFF 		bl	memcpy
 344              	.LVL40:
 345              		.loc 1 280 0
 346 0046 CDF800B0 		str	fp, [sp]
 347 004a 14AA     		add	r2, sp, #80
 348 004c 5346     		mov	r3, r10
 349 004e 0194     		str	r4, [sp, #4]
 350 0050 3046     		mov	r0, r6
 351 0052 3946     		mov	r1, r7
 352 0054 FFF7FEFF 		bl	sha256_hmac
 353              	.LVL41:
 354              		.loc 1 282 0
 355 0058 002D     		cmp	r5, #0
 356 005a 45D0     		beq	.L36
 357 005c A246     		mov	r10, r4
 358              	.LVL42:
 359              		.loc 1 287 0
 360 005e 3895     		str	r5, [sp, #224]
 361 0060 05F01F03 		and	r3, r5, #31
 362 0064 5546     		mov	r5, r10
 363 0066 DDF8E0A0 		ldr	r10, [sp, #224]
 364 006a 0393     		str	r3, [sp, #12]
 365              		.loc 1 284 0
 366 006c A046     		mov	r8, r4
 367              	.LVL43:
 368 006e 04AC     		add	r4, sp, #16
 369              	.LVL44:
 370              	.L20:
 371 0070 3046     		mov	r0, r6
 372 0072 3946     		mov	r1, r7
 373 0074 5A46     		mov	r2, fp
 374 0076 4B46     		mov	r3, r9
 375 0078 8DE81001 		stmia	sp, {r4, r8}
 376 007c FFF7FEFF 		bl	sha256_hmac
 377              	.LVL45:
 378              		.loc 1 285 0
 379 0080 3046     		mov	r0, r6
 380 0082 3946     		mov	r1, r7
 381 0084 CDF800B0 		str	fp, [sp]
 382 0088 CDF80480 		str	r8, [sp, #4]
 383 008c 5A46     		mov	r2, fp
 384 008e 2023     		movs	r3, #32
 385 0090 FFF7FEFF 		bl	sha256_hmac
 386              	.LVL46:
 387              		.loc 1 287 0
 388 0094 05F12000 		add	r0, r5, #32
 389 0098 8245     		cmp	r10, r0
 390 009a 28BF     		it	cs
 391 009c 2021     		movcs	r1, #32
 392 009e 25D3     		bcc	.L37
 393              	.L19:
 394              	.LVL47:
 395 00a0 379B     		ldr	r3, [sp, #220]
 396 00a2 6A1E     		subs	r2, r5, #1
 397 00a4 1A44     		add	r2, r2, r3
ARM GAS  C:\Users\jo\AppData\Local\Temp\ccK7XbRr.s 			page 8


 398 00a6 0DF10F0E 		add	lr, sp, #15
 399              		.loc 1 287 0 is_stmt 0 discriminator 3
 400 00aa 0023     		movs	r3, #0
 401              	.LVL48:
 402              	.L21:
 403              		.loc 1 289 0 is_stmt 1 discriminator 3
 404 00ac 0133     		adds	r3, r3, #1
 405              	.LVL49:
 406              		.loc 1 290 0 discriminator 3
 407 00ae 1EF8015F 		ldrb	r5, [lr, #1]!	@ zero_extendqisi2
 408 00b2 02F8015F 		strb	r5, [r2, #1]!
 409              		.loc 1 289 0 discriminator 3
 410 00b6 8B42     		cmp	r3, r1
 411 00b8 F8D3     		bcc	.L21
 412              	.LVL50:
 413              	.L22:
 414              		.loc 1 282 0
 415 00ba 8245     		cmp	r10, r0
 416 00bc 0546     		mov	r5, r0
 417 00be D7D8     		bhi	.L20
 418              	.LVL51:
 419              	.L18:
 420              		.loc 1 287 0
 421 00c0 5B46     		mov	r3, fp
 422              	.LBB111:
 423              	.LBB112:
 424              		.loc 1 64 0
 425 00c2 0022     		movs	r2, #0
 426              	.LVL52:
 427              	.L23:
 428 00c4 1A70     		strb	r2, [r3]
 429              	.LVL53:
 430 00c6 2CA9     		add	r1, sp, #176
 431 00c8 0133     		adds	r3, r3, #1
 432              	.LVL54:
 433 00ca 8B42     		cmp	r3, r1
 434 00cc FAD1     		bne	.L23
 435              	.LBE112:
 436              	.LBE111:
 437              	.LBB113:
 438              	.LBB114:
 439 00ce 0023     		movs	r3, #0
 440              	.LVL55:
 441              	.L24:
 442 00d0 2370     		strb	r3, [r4]
 443              	.LVL56:
 444 00d2 0134     		adds	r4, r4, #1
 445              	.LVL57:
 446 00d4 5C45     		cmp	r4, fp
 447 00d6 FBD1     		bne	.L24
 448              	.LBE114:
 449              	.LBE113:
 450              		.loc 1 296 0
 451 00d8 0020     		movs	r0, #0
 452              		.loc 1 297 0
 453 00da 2DB0     		add	sp, sp, #180
 454              		.cfi_remember_state
ARM GAS  C:\Users\jo\AppData\Local\Temp\ccK7XbRr.s 			page 9


 455              		.cfi_def_cfa_offset 36
 456              		@ sp needed
 457 00dc BDE8F08F 		pop	{r4, r5, r6, r7, r8, r9, r10, fp, pc}
 458              	.LVL58:
 459              	.L25:
 460              		.cfi_restore_state
 461              		.loc 1 270 0
 462 00e0 0548     		ldr	r0, .L38
 463              		.loc 1 297 0
 464 00e2 2DB0     		add	sp, sp, #180
 465              		.cfi_remember_state
 466              		.cfi_def_cfa_offset 36
 467              		@ sp needed
 468 00e4 BDE8F08F 		pop	{r4, r5, r6, r7, r8, r9, r10, fp, pc}
 469              	.LVL59:
 470              	.L36:
 471              		.cfi_restore_state
 472 00e8 04AC     		add	r4, sp, #16
 473 00ea E9E7     		b	.L18
 474              	.LVL60:
 475              	.L37:
 476              		.loc 1 287 0 discriminator 1
 477 00ec 039B     		ldr	r3, [sp, #12]
 478 00ee 1946     		mov	r1, r3
 479              	.LVL61:
 480              		.loc 1 289 0 discriminator 1
 481 00f0 002B     		cmp	r3, #0
 482 00f2 E2D0     		beq	.L22
 483 00f4 D4E7     		b	.L19
 484              	.L39:
 485 00f6 00BF     		.align	2
 486              	.L38:
 487 00f8 008FFFFF 		.word	-28928
 488              		.cfi_endproc
 489              	.LFE18:
 490              		.size	tls_prf_sha256, .-tls_prf_sha256
 491 00fc AFF30080 		.section	.text.ssl_calc_finished_tls_sha384,"ax",%progbits
 492              		.align	2
 493              		.p2align 4,,15
 494              		.thumb
 495              		.thumb_func
 496              		.type	ssl_calc_finished_tls_sha384, %function
 497              	ssl_calc_finished_tls_sha384:
 498              	.LFB47:
 499              		.loc 1 3205 0
 500              		.cfi_startproc
 501              		@ args = 0, pretend = 0, frame = 520
 502              		@ frame_needed = 0, uses_anonymous_args = 0
 503              	.LVL62:
 504 0000 2DE9F043 		push	{r4, r5, r6, r7, r8, r9, lr}
 505              		.cfi_def_cfa_offset 28
 506              		.cfi_offset 4, -28
 507              		.cfi_offset 5, -24
 508              		.cfi_offset 6, -20
 509              		.cfi_offset 7, -16
 510              		.cfi_offset 8, -12
 511              		.cfi_offset 9, -8
ARM GAS  C:\Users\jo\AppData\Local\Temp\ccK7XbRr.s 			page 10


 512              		.cfi_offset 14, -4
 513              		.loc 1 3211 0
 514 0004 D0F88070 		ldr	r7, [r0, #128]
 515              	.LVL63:
 516              		.loc 1 3205 0
 517 0008 ADF5077D 		sub	sp, sp, #540
 518              		.cfi_def_cfa_offset 568
 519              		.loc 1 3205 0
 520 000c 0546     		mov	r5, r0
 521 000e 8846     		mov	r8, r1
 522 0010 1646     		mov	r6, r2
 523              		.loc 1 3212 0
 524 0012 002F     		cmp	r7, #0
 525 0014 5AD0     		beq	.L47
 526              	.L41:
 527              		.loc 1 3215 0
 528 0016 2E48     		ldr	r0, .L48
 529              	.LVL64:
 530 0018 FFF7FEFF 		bl	debug_fmt
 531              	.LVL65:
 532 001c 40F68F43 		movw	r3, #3215
 533 0020 0221     		movs	r1, #2
 534 0022 0090     		str	r0, [sp]
 535 0024 2B4A     		ldr	r2, .L48+4
 536 0026 2846     		mov	r0, r5
 537 0028 FFF7FEFF 		bl	debug_print_msg
 538              	.LVL66:
 539              		.loc 1 3217 0
 540 002c D5F88410 		ldr	r1, [r5, #132]
 541 0030 10AC     		add	r4, sp, #64
 542 0032 01F58D61 		add	r1, r1, #1128
 543 0036 4FF4EC72 		mov	r2, #472
 544 003a 2046     		mov	r0, r4
 545 003c FFF7FEFF 		bl	memcpy
 546              	.LVL67:
 547              		.loc 1 3226 0
 548 0040 254B     		ldr	r3, .L48+8
 549 0042 0093     		str	r3, [sp]
 550 0044 14AA     		add	r2, sp, #80
 551 0046 4023     		movs	r3, #64
 552 0048 0192     		str	r2, [sp, #4]
 553 004a 0293     		str	r3, [sp, #8]
 554 004c 2846     		mov	r0, r5
 555 004e 0421     		movs	r1, #4
 556 0050 204A     		ldr	r2, .L48+4
 557 0052 40F69B43 		movw	r3, #3227
 558 0056 FFF7FEFF 		bl	debug_print_buf
 559              	.LVL68:
 560              		.loc 1 3230 0
 561 005a 204B     		ldr	r3, .L48+12
 562 005c 204A     		ldr	r2, .L48+16
 563              		.loc 1 3234 0
 564 005e 2046     		mov	r0, r4
 565 0060 04A9     		add	r1, sp, #16
 566              		.loc 1 3230 0
 567 0062 002E     		cmp	r6, #0
 568 0064 0CBF     		ite	eq
ARM GAS  C:\Users\jo\AppData\Local\Temp\ccK7XbRr.s 			page 11


 569 0066 1E46     		moveq	r6, r3
 570 0068 1646     		movne	r6, r2
 571              	.LVL69:
 572              		.loc 1 3236 0
 573 006a 4FF00C09 		mov	r9, #12
 574              		.loc 1 3234 0
 575 006e FFF7FEFF 		bl	sha512_finish
 576              	.LVL70:
 577              		.loc 1 3236 0
 578 0072 3021     		movs	r1, #48
 579 0074 D5F88430 		ldr	r3, [r5, #132]
 580 0078 8DE80203 		stmia	sp, {r1, r8, r9}
 581 007c 3246     		mov	r2, r6
 582 007e 7818     		adds	r0, r7, r1
 583 0080 D3F84C66 		ldr	r6, [r3, #1612]
 584              	.LVL71:
 585 0084 04AB     		add	r3, sp, #16
 586 0086 B047     		blx	r6
 587              	.LVL72:
 588              		.loc 1 3239 0
 589 0088 164B     		ldr	r3, .L48+20
 590 008a 124A     		ldr	r2, .L48+4
 591 008c 8DE80803 		stmia	sp, {r3, r8, r9}
 592 0090 2846     		mov	r0, r5
 593 0092 40F6A743 		movw	r3, #3239
 594 0096 0321     		movs	r1, #3
 595 0098 FFF7FEFF 		bl	debug_print_buf
 596              	.LVL73:
 597              		.loc 1 3241 0
 598 009c 2046     		mov	r0, r4
 599 009e FFF7FEFF 		bl	sha512_free
 600              	.LVL74:
 601              	.LBB115:
 602              	.LBB116:
 603              		.loc 1 64 0
 604 00a2 04AB     		add	r3, sp, #16
 605              	.LVL75:
 606 00a4 0022     		movs	r2, #0
 607              	.LVL76:
 608              	.L43:
 609 00a6 1A70     		strb	r2, [r3]
 610              	.LVL77:
 611 00a8 0133     		adds	r3, r3, #1
 612              	.LVL78:
 613 00aa A342     		cmp	r3, r4
 614 00ac FBD1     		bne	.L43
 615              	.LBE116:
 616              	.LBE115:
 617              		.loc 1 3245 0 discriminator 4
 618 00ae 0E48     		ldr	r0, .L48+24
 619 00b0 FFF7FEFF 		bl	debug_fmt
 620              	.LVL79:
 621 00b4 0221     		movs	r1, #2
 622 00b6 0090     		str	r0, [sp]
 623 00b8 064A     		ldr	r2, .L48+4
 624 00ba 2846     		mov	r0, r5
 625 00bc 40F6AD43 		movw	r3, #3245
ARM GAS  C:\Users\jo\AppData\Local\Temp\ccK7XbRr.s 			page 12


 626 00c0 FFF7FEFF 		bl	debug_print_msg
 627              	.LVL80:
 628              		.loc 1 3246 0 discriminator 4
 629 00c4 0DF5077D 		add	sp, sp, #540
 630              		.cfi_remember_state
 631              		.cfi_def_cfa_offset 28
 632              		@ sp needed
 633 00c8 BDE8F083 		pop	{r4, r5, r6, r7, r8, r9, pc}
 634              	.LVL81:
 635              	.L47:
 636              		.cfi_restore_state
 637              		.loc 1 3213 0
 638 00cc C76F     		ldr	r7, [r0, #124]
 639              	.LVL82:
 640 00ce A2E7     		b	.L41
 641              	.L49:
 642              		.align	2
 643              	.L48:
 644 00d0 F4000000 		.word	.LC10
 645 00d4 40000000 		.word	.LC3
 646 00d8 14010000 		.word	.LC11
 647 00dc 00000000 		.word	.LC0
 648 00e0 10000000 		.word	.LC1
 649 00e4 84000000 		.word	.LC5
 650 00e8 9C000000 		.word	.LC6
 651              		.cfi_endproc
 652              	.LFE47:
 653              		.size	ssl_calc_finished_tls_sha384, .-ssl_calc_finished_tls_sha384
 654 00ec AFF30080 		.section	.text.ssl_calc_verify_tls_sha384,"ax",%progbits
 655              		.align	2
 656              		.p2align 4,,15
 657              		.thumb
 658              		.thumb_func
 659              		.type	ssl_calc_verify_tls_sha384, %function
 660              	ssl_calc_verify_tls_sha384:
 661              	.LFB24:
 662              		.loc 1 920 0
 663              		.cfi_startproc
 664              		@ args = 0, pretend = 0, frame = 472
 665              		@ frame_needed = 0, uses_anonymous_args = 0
 666              	.LVL83:
 667 0000 70B5     		push	{r4, r5, r6, lr}
 668              		.cfi_def_cfa_offset 16
 669              		.cfi_offset 4, -16
 670              		.cfi_offset 5, -12
 671              		.cfi_offset 6, -8
 672              		.cfi_offset 14, -4
 673 0002 0446     		mov	r4, r0
 674 0004 FAB0     		sub	sp, sp, #488
 675              		.cfi_def_cfa_offset 504
 676              		.loc 1 923 0
 677 0006 1B48     		ldr	r0, .L52
 678              	.LVL84:
 679 0008 1B4D     		ldr	r5, .L52+4
 680              		.loc 1 920 0
 681 000a 0E46     		mov	r6, r1
 682              		.loc 1 923 0
ARM GAS  C:\Users\jo\AppData\Local\Temp\ccK7XbRr.s 			page 13


 683 000c FFF7FEFF 		bl	debug_fmt
 684              	.LVL85:
 685 0010 40F29B33 		movw	r3, #923
 686 0014 2A46     		mov	r2, r5
 687 0016 0090     		str	r0, [sp]
 688 0018 0221     		movs	r1, #2
 689 001a 2046     		mov	r0, r4
 690 001c FFF7FEFF 		bl	debug_print_msg
 691              	.LVL86:
 692              		.loc 1 925 0
 693 0020 D4F88410 		ldr	r1, [r4, #132]
 694 0024 4FF4EC72 		mov	r2, #472
 695 0028 01F58D61 		add	r1, r1, #1128
 696 002c 04A8     		add	r0, sp, #16
 697 002e FFF7FEFF 		bl	memcpy
 698              	.LVL87:
 699              		.loc 1 926 0
 700 0032 04A8     		add	r0, sp, #16
 701 0034 3146     		mov	r1, r6
 702 0036 FFF7FEFF 		bl	sha512_finish
 703              	.LVL88:
 704              		.loc 1 928 0
 705 003a 1049     		ldr	r1, .L52+8
 706 003c 0091     		str	r1, [sp]
 707 003e 3023     		movs	r3, #48
 708 0040 2A46     		mov	r2, r5
 709 0042 2046     		mov	r0, r4
 710 0044 0293     		str	r3, [sp, #8]
 711 0046 0321     		movs	r1, #3
 712 0048 4FF46873 		mov	r3, #928
 713 004c 0196     		str	r6, [sp, #4]
 714 004e FFF7FEFF 		bl	debug_print_buf
 715              	.LVL89:
 716              		.loc 1 929 0
 717 0052 0B48     		ldr	r0, .L52+12
 718 0054 FFF7FEFF 		bl	debug_fmt
 719              	.LVL90:
 720 0058 2A46     		mov	r2, r5
 721 005a 0090     		str	r0, [sp]
 722 005c 0221     		movs	r1, #2
 723 005e 2046     		mov	r0, r4
 724 0060 40F2A133 		movw	r3, #929
 725 0064 FFF7FEFF 		bl	debug_print_msg
 726              	.LVL91:
 727              		.loc 1 931 0
 728 0068 04A8     		add	r0, sp, #16
 729 006a FFF7FEFF 		bl	sha512_free
 730              	.LVL92:
 731              		.loc 1 934 0
 732 006e 7AB0     		add	sp, sp, #488
 733              		.cfi_def_cfa_offset 16
 734              		@ sp needed
 735 0070 70BD     		pop	{r4, r5, r6, pc}
 736              	.LVL93:
 737              	.L53:
 738 0072 00BF     		.align	2
 739              	.L52:
ARM GAS  C:\Users\jo\AppData\Local\Temp\ccK7XbRr.s 			page 14


 740 0074 2C010000 		.word	.LC12
 741 0078 40000000 		.word	.LC3
 742 007c C8000000 		.word	.LC8
 743 0080 E4000000 		.word	.LC9
 744              		.cfi_endproc
 745              	.LFE24:
 746              		.size	ssl_calc_verify_tls_sha384, .-ssl_calc_verify_tls_sha384
 747 0084 AFF30080 		.section	.text.tls_prf_sha384,"ax",%progbits
 747      AFF30080 
 747      AFF30080 
 748              		.align	2
 749              		.p2align 4,,15
 750              		.thumb
 751              		.thumb_func
 752              		.type	tls_prf_sha384, %function
 753              	tls_prf_sha384:
 754              	.LFB19:
 755              		.loc 1 305 0
 756              		.cfi_startproc
 757              		@ args = 12, pretend = 0, frame = 184
 758              		@ frame_needed = 0, uses_anonymous_args = 0
 759              	.LVL94:
 760 0000 2DE9F04F 		push	{r4, r5, r6, r7, r8, r9, r10, fp, lr}
 761              		.cfi_def_cfa_offset 36
 762              		.cfi_offset 4, -36
 763              		.cfi_offset 5, -32
 764              		.cfi_offset 6, -28
 765              		.cfi_offset 7, -24
 766              		.cfi_offset 8, -20
 767              		.cfi_offset 9, -16
 768              		.cfi_offset 10, -12
 769              		.cfi_offset 11, -8
 770              		.cfi_offset 14, -4
 771 0004 0746     		mov	r7, r0
 772 0006 B1B0     		sub	sp, sp, #196
 773              		.cfi_def_cfa_offset 232
 774              		.loc 1 311 0
 775 0008 1046     		mov	r0, r2
 776              	.LVL95:
 777              		.loc 1 305 0
 778 000a 1E46     		mov	r6, r3
 779 000c 9346     		mov	fp, r2
 780 000e 8846     		mov	r8, r1
 781              		.loc 1 311 0
 782 0010 FFF7FEFF 		bl	strlen
 783              	.LVL96:
 784 0014 3A9B     		ldr	r3, [sp, #232]
 785              		.loc 1 305 0
 786 0016 3C9D     		ldr	r5, [sp, #240]
 787              		.loc 1 311 0
 788 0018 00EB030A 		add	r10, r0, r3
 789 001c 0AF13009 		add	r9, r10, #48
 790 0020 B9F1800F 		cmp	r9, #128
 791 0024 0446     		mov	r4, r0
 792 0026 61D8     		bhi	.L63
 793              	.LVL97:
 794              		.loc 1 315 0
ARM GAS  C:\Users\jo\AppData\Local\Temp\ccK7XbRr.s 			page 15


 795 0028 5946     		mov	r1, fp
 796 002a 2246     		mov	r2, r4
 797 002c 1CA8     		add	r0, sp, #112
 798              	.LVL98:
 799 002e FFF7FEFF 		bl	memcpy
 800              	.LVL99:
 801 0032 0DF1400B 		add	fp, sp, #64
 802              	.LVL100:
 803              		.loc 1 316 0
 804 0036 04F13000 		add	r0, r4, #48
 805 003a 3146     		mov	r1, r6
 806 003c 3A9A     		ldr	r2, [sp, #232]
 807 003e 5844     		add	r0, r0, fp
 808              		.loc 1 322 0
 809 0040 0126     		movs	r6, #1
 810              	.LVL101:
 811              		.loc 1 316 0
 812 0042 FFF7FEFF 		bl	memcpy
 813              	.LVL102:
 814              		.loc 1 322 0
 815 0046 CDF800B0 		str	fp, [sp]
 816 004a 1CAA     		add	r2, sp, #112
 817 004c 5346     		mov	r3, r10
 818 004e 0196     		str	r6, [sp, #4]
 819 0050 3846     		mov	r0, r7
 820 0052 4146     		mov	r1, r8
 821 0054 FFF7FEFF 		bl	sha512_hmac
 822              	.LVL103:
 823 0058 04AC     		add	r4, sp, #16
 824              		.loc 1 324 0
 825 005a BDB3     		cbz	r5, .L56
 826              		.loc 1 329 0
 827 005c 284B     		ldr	r3, .L76
 828 005e A3FB0523 		umull	r2, r3, r3, r5
 829 0062 5B09     		lsrs	r3, r3, #5
 830 0064 03EB4303 		add	r3, r3, r3, lsl #1
 831 0068 A5EB0313 		sub	r3, r5, r3, lsl #4
 832 006c 04AC     		add	r4, sp, #16
 833 006e 4FF0000A 		mov	r10, #0
 834              	.LVL104:
 835 0072 0393     		str	r3, [sp, #12]
 836 0074 2346     		mov	r3, r4
 837 0076 5446     		mov	r4, r10
 838 0078 AA46     		mov	r10, r5
 839 007a 1D46     		mov	r5, r3
 840              	.LVL105:
 841              	.L58:
 842              		.loc 1 326 0
 843 007c 3846     		mov	r0, r7
 844 007e 4146     		mov	r1, r8
 845 0080 5A46     		mov	r2, fp
 846 0082 4B46     		mov	r3, r9
 847 0084 8DE86000 		stmia	sp, {r5, r6}
 848 0088 FFF7FEFF 		bl	sha512_hmac
 849              	.LVL106:
 850              		.loc 1 327 0
 851 008c 3846     		mov	r0, r7
ARM GAS  C:\Users\jo\AppData\Local\Temp\ccK7XbRr.s 			page 16


 852 008e CDF800B0 		str	fp, [sp]
 853 0092 0196     		str	r6, [sp, #4]
 854 0094 4146     		mov	r1, r8
 855 0096 5A46     		mov	r2, fp
 856 0098 3023     		movs	r3, #48
 857 009a FFF7FEFF 		bl	sha512_hmac
 858              	.LVL107:
 859              		.loc 1 329 0
 860 009e 04F1300E 		add	lr, r4, #48
 861 00a2 F245     		cmp	r10, lr
 862 00a4 28BF     		it	cs
 863 00a6 3020     		movcs	r0, #48
 864 00a8 24D3     		bcc	.L75
 865              	.L57:
 866              	.LVL108:
 867 00aa 3B9B     		ldr	r3, [sp, #236]
 868 00ac 621E     		subs	r2, r4, #1
 869 00ae 1A44     		add	r2, r2, r3
 870 00b0 0DF10F01 		add	r1, sp, #15
 871              		.loc 1 329 0 is_stmt 0 discriminator 3
 872 00b4 0023     		movs	r3, #0
 873              	.LVL109:
 874              	.L59:
 875              		.loc 1 331 0 is_stmt 1 discriminator 3
 876 00b6 0133     		adds	r3, r3, #1
 877              	.LVL110:
 878              		.loc 1 332 0 discriminator 3
 879 00b8 11F8014F 		ldrb	r4, [r1, #1]!	@ zero_extendqisi2
 880 00bc 02F8014F 		strb	r4, [r2, #1]!
 881              		.loc 1 331 0 discriminator 3
 882 00c0 8342     		cmp	r3, r0
 883 00c2 F8D3     		bcc	.L59
 884              	.LVL111:
 885              	.L60:
 886              		.loc 1 324 0
 887 00c4 F245     		cmp	r10, lr
 888 00c6 7446     		mov	r4, lr
 889 00c8 D8D8     		bhi	.L58
 890              	.LVL112:
 891 00ca 2C46     		mov	r4, r5
 892              	.LVL113:
 893              	.L56:
 894              		.loc 1 329 0
 895 00cc 5B46     		mov	r3, fp
 896              	.LBB117:
 897              	.LBB118:
 898              		.loc 1 64 0
 899 00ce 0022     		movs	r2, #0
 900              	.LVL114:
 901              	.L61:
 902 00d0 1A70     		strb	r2, [r3]
 903              	.LVL115:
 904 00d2 30A9     		add	r1, sp, #192
 905 00d4 0133     		adds	r3, r3, #1
 906              	.LVL116:
 907 00d6 8B42     		cmp	r3, r1
 908 00d8 FAD1     		bne	.L61
ARM GAS  C:\Users\jo\AppData\Local\Temp\ccK7XbRr.s 			page 17


 909              	.LBE118:
 910              	.LBE117:
 911              	.LBB119:
 912              	.LBB120:
 913 00da 0023     		movs	r3, #0
 914              	.LVL117:
 915              	.L62:
 916 00dc 2370     		strb	r3, [r4]
 917              	.LVL118:
 918 00de 0134     		adds	r4, r4, #1
 919              	.LVL119:
 920 00e0 5C45     		cmp	r4, fp
 921 00e2 FBD1     		bne	.L62
 922              	.LBE120:
 923              	.LBE119:
 924              		.loc 1 338 0
 925 00e4 0020     		movs	r0, #0
 926              		.loc 1 339 0
 927 00e6 31B0     		add	sp, sp, #196
 928              		.cfi_remember_state
 929              		.cfi_def_cfa_offset 36
 930              		@ sp needed
 931 00e8 BDE8F08F 		pop	{r4, r5, r6, r7, r8, r9, r10, fp, pc}
 932              	.LVL120:
 933              	.L63:
 934              		.cfi_restore_state
 935              		.loc 1 312 0
 936 00ec 0548     		ldr	r0, .L76+4
 937              		.loc 1 339 0
 938 00ee 31B0     		add	sp, sp, #196
 939              		.cfi_remember_state
 940              		.cfi_def_cfa_offset 36
 941              		@ sp needed
 942 00f0 BDE8F08F 		pop	{r4, r5, r6, r7, r8, r9, r10, fp, pc}
 943              	.LVL121:
 944              	.L75:
 945              		.cfi_restore_state
 946              		.loc 1 331 0 discriminator 1
 947 00f4 039B     		ldr	r3, [sp, #12]
 948 00f6 002B     		cmp	r3, #0
 949 00f8 E4D0     		beq	.L60
 950              		.loc 1 331 0 is_stmt 0
 951 00fa 0398     		ldr	r0, [sp, #12]
 952 00fc D5E7     		b	.L57
 953              	.L77:
 954 00fe 00BF     		.align	2
 955              	.L76:
 956 0100 ABAAAAAA 		.word	-1431655765
 957 0104 008FFFFF 		.word	-28928
 958              		.cfi_endproc
 959              	.LFE19:
 960              		.size	tls_prf_sha384, .-tls_prf_sha384
 961 0108 AFF30080 		.section	.text.ssl_calc_finished_tls,"ax",%progbits
 961      AFF30080 
 962              		.align	2
 963              		.p2align 4,,15
 964              		.thumb
ARM GAS  C:\Users\jo\AppData\Local\Temp\ccK7XbRr.s 			page 18


 965              		.thumb_func
 966              		.type	ssl_calc_finished_tls, %function
 967              	ssl_calc_finished_tls:
 968              	.LFB45:
 969              		.loc 1 3101 0 is_stmt 1
 970              		.cfi_startproc
 971              		@ args = 0, pretend = 0, frame = 472
 972              		@ frame_needed = 0, uses_anonymous_args = 0
 973              	.LVL122:
 974 0000 2DE9F043 		push	{r4, r5, r6, r7, r8, r9, lr}
 975              		.cfi_def_cfa_offset 28
 976              		.cfi_offset 4, -28
 977              		.cfi_offset 5, -24
 978              		.cfi_offset 6, -20
 979              		.cfi_offset 7, -16
 980              		.cfi_offset 8, -12
 981              		.cfi_offset 9, -8
 982              		.cfi_offset 14, -4
 983              		.loc 1 3108 0
 984 0004 D0F88070 		ldr	r7, [r0, #128]
 985              	.LVL123:
 986              		.loc 1 3101 0
 987 0008 FBB0     		sub	sp, sp, #492
 988              		.cfi_def_cfa_offset 520
 989              		.loc 1 3101 0
 990 000a 0546     		mov	r5, r0
 991 000c 8846     		mov	r8, r1
 992 000e 9146     		mov	r9, r2
 993              		.loc 1 3109 0
 994 0010 002F     		cmp	r7, #0
 995 0012 75D0     		beq	.L85
 996              	.L79:
 997              		.loc 1 3112 0
 998 0014 3B48     		ldr	r0, .L86
 999              	.LVL124:
 1000 0016 FFF7FEFF 		bl	debug_fmt
 1001              	.LVL125:
 1002 001a 40F62843 		movw	r3, #3112
 1003 001e 0221     		movs	r1, #2
 1004 0020 0090     		str	r0, [sp]
 1005 0022 394A     		ldr	r2, .L86+4
 1006 0024 2846     		mov	r0, r5
 1007 0026 FFF7FEFF 		bl	debug_print_msg
 1008              	.LVL126:
 1009              		.loc 1 3114 0
 1010 002a D5F88460 		ldr	r6, [r5, #132]
 1011 002e 0DAC     		add	r4, sp, #52
 1012 0030 06F5E471 		add	r1, r6, #456
 1013 0034 D822     		movs	r2, #216
 1014 0036 2046     		mov	r0, r4
 1015 0038 FFF7FEFF 		bl	memcpy
 1016              	.LVL127:
 1017              		.loc 1 3115 0
 1018 003c 06F52871 		add	r1, r6, #672
 1019 0040 DC22     		movs	r2, #220
 1020 0042 43A8     		add	r0, sp, #268
 1021 0044 FFF7FEFF 		bl	memcpy
ARM GAS  C:\Users\jo\AppData\Local\Temp\ccK7XbRr.s 			page 19


 1022              	.LVL128:
 1023              		.loc 1 3124 0
 1024 0048 304B     		ldr	r3, .L86+8
 1025 004a 0093     		str	r3, [sp]
 1026 004c 0FAA     		add	r2, sp, #60
 1027 004e 1023     		movs	r3, #16
 1028 0050 0192     		str	r2, [sp, #4]
 1029 0052 0293     		str	r3, [sp, #8]
 1030 0054 2846     		mov	r0, r5
 1031 0056 0421     		movs	r1, #4
 1032 0058 2B4A     		ldr	r2, .L86+4
 1033 005a 40F63543 		movw	r3, #3125
 1034 005e FFF7FEFF 		bl	debug_print_buf
 1035              	.LVL129:
 1036              		.loc 1 3129 0
 1037 0062 2B4B     		ldr	r3, .L86+12
 1038 0064 0093     		str	r3, [sp]
 1039 0066 45AA     		add	r2, sp, #276
 1040 0068 1423     		movs	r3, #20
 1041 006a 0192     		str	r2, [sp, #4]
 1042 006c 0293     		str	r3, [sp, #8]
 1043 006e 2846     		mov	r0, r5
 1044 0070 0421     		movs	r1, #4
 1045 0072 254A     		ldr	r2, .L86+4
 1046 0074 40F63A43 		movw	r3, #3130
 1047 0078 FFF7FEFF 		bl	debug_print_buf
 1048              	.LVL130:
 1049              		.loc 1 3133 0
 1050 007c 254B     		ldr	r3, .L86+16
 1051 007e 264A     		ldr	r2, .L86+20
 1052              		.loc 1 3137 0
 1053 0080 2046     		mov	r0, r4
 1054 0082 04A9     		add	r1, sp, #16
 1055              		.loc 1 3133 0
 1056 0084 B9F1000F 		cmp	r9, #0
 1057 0088 0CBF     		ite	eq
 1058 008a 1E46     		moveq	r6, r3
 1059 008c 1646     		movne	r6, r2
 1060              	.LVL131:
 1061              		.loc 1 3137 0
 1062 008e FFF7FEFF 		bl	md5_finish
 1063              	.LVL132:
 1064              		.loc 1 3138 0
 1065 0092 43A8     		add	r0, sp, #268
 1066 0094 08A9     		add	r1, sp, #32
 1067 0096 FFF7FEFF 		bl	sha1_finish
 1068              	.LVL133:
 1069              		.loc 1 3140 0
 1070 009a 4FF00C09 		mov	r9, #12
 1071              	.LVL134:
 1072 009e 2422     		movs	r2, #36
 1073 00a0 D5F88430 		ldr	r3, [r5, #132]
 1074 00a4 8DE80403 		stmia	sp, {r2, r8, r9}
 1075 00a8 3021     		movs	r1, #48
 1076 00aa 3246     		mov	r2, r6
 1077 00ac 07F13000 		add	r0, r7, #48
 1078 00b0 D3F84C66 		ldr	r6, [r3, #1612]
ARM GAS  C:\Users\jo\AppData\Local\Temp\ccK7XbRr.s 			page 20


 1079              	.LVL135:
 1080 00b4 04AB     		add	r3, sp, #16
 1081 00b6 B047     		blx	r6
 1082              	.LVL136:
 1083              		.loc 1 3143 0
 1084 00b8 184B     		ldr	r3, .L86+24
 1085 00ba 134A     		ldr	r2, .L86+4
 1086 00bc 0321     		movs	r1, #3
 1087 00be 8DE80803 		stmia	sp, {r3, r8, r9}
 1088 00c2 2846     		mov	r0, r5
 1089 00c4 40F64743 		movw	r3, #3143
 1090 00c8 FFF7FEFF 		bl	debug_print_buf
 1091              	.LVL137:
 1092              		.loc 1 3145 0
 1093 00cc 2046     		mov	r0, r4
 1094 00ce FFF7FEFF 		bl	md5_free
 1095              	.LVL138:
 1096              		.loc 1 3146 0
 1097 00d2 43A8     		add	r0, sp, #268
 1098 00d4 FFF7FEFF 		bl	sha1_free
 1099              	.LVL139:
 1100              	.LBB121:
 1101              	.LBB122:
 1102              		.loc 1 64 0
 1103 00d8 04AB     		add	r3, sp, #16
 1104              	.LVL140:
 1105 00da 0022     		movs	r2, #0
 1106              	.LVL141:
 1107              	.L81:
 1108 00dc 1A70     		strb	r2, [r3]
 1109              	.LVL142:
 1110 00de 0133     		adds	r3, r3, #1
 1111              	.LVL143:
 1112 00e0 A342     		cmp	r3, r4
 1113 00e2 FBD1     		bne	.L81
 1114              	.LBE122:
 1115              	.LBE121:
 1116              		.loc 1 3150 0 discriminator 4
 1117 00e4 0E48     		ldr	r0, .L86+28
 1118 00e6 FFF7FEFF 		bl	debug_fmt
 1119              	.LVL144:
 1120 00ea 0221     		movs	r1, #2
 1121 00ec 0090     		str	r0, [sp]
 1122 00ee 064A     		ldr	r2, .L86+4
 1123 00f0 2846     		mov	r0, r5
 1124 00f2 40F64E43 		movw	r3, #3150
 1125 00f6 FFF7FEFF 		bl	debug_print_msg
 1126              	.LVL145:
 1127              		.loc 1 3151 0 discriminator 4
 1128 00fa 7BB0     		add	sp, sp, #492
 1129              		.cfi_remember_state
 1130              		.cfi_def_cfa_offset 28
 1131              		@ sp needed
 1132 00fc BDE8F083 		pop	{r4, r5, r6, r7, r8, r9, pc}
 1133              	.LVL146:
 1134              	.L85:
 1135              		.cfi_restore_state
ARM GAS  C:\Users\jo\AppData\Local\Temp\ccK7XbRr.s 			page 21


 1136              		.loc 1 3110 0
 1137 0100 C76F     		ldr	r7, [r0, #124]
 1138              	.LVL147:
 1139 0102 87E7     		b	.L79
 1140              	.L87:
 1141              		.align	2
 1142              	.L86:
 1143 0104 44010000 		.word	.LC13
 1144 0108 40000000 		.word	.LC3
 1145 010c 5C010000 		.word	.LC14
 1146 0110 70010000 		.word	.LC15
 1147 0114 00000000 		.word	.LC0
 1148 0118 10000000 		.word	.LC1
 1149 011c 84000000 		.word	.LC5
 1150 0120 9C000000 		.word	.LC6
 1151              		.cfi_endproc
 1152              	.LFE45:
 1153              		.size	ssl_calc_finished_tls, .-ssl_calc_finished_tls
 1154 0124 AFF30080 		.section	.text.ssl_calc_verify_tls,"ax",%progbits
 1154      AFF30080 
 1154      AFF30080 
 1155              		.align	2
 1156              		.p2align 4,,15
 1157              		.thumb
 1158              		.thumb_func
 1159              		.type	ssl_calc_verify_tls, %function
 1160              	ssl_calc_verify_tls:
 1161              	.LFB22:
 1162              		.loc 1 876 0
 1163              		.cfi_startproc
 1164              		@ args = 0, pretend = 0, frame = 440
 1165              		@ frame_needed = 0, uses_anonymous_args = 0
 1166              	.LVL148:
 1167 0000 F0B5     		push	{r4, r5, r6, r7, lr}
 1168              		.cfi_def_cfa_offset 20
 1169              		.cfi_offset 4, -20
 1170              		.cfi_offset 5, -16
 1171              		.cfi_offset 6, -12
 1172              		.cfi_offset 7, -8
 1173              		.cfi_offset 14, -4
 1174 0002 0446     		mov	r4, r0
 1175 0004 F3B0     		sub	sp, sp, #460
 1176              		.cfi_def_cfa_offset 480
 1177              		.loc 1 880 0
 1178 0006 2148     		ldr	r0, .L90
 1179              	.LVL149:
 1180 0008 214D     		ldr	r5, .L90+4
 1181              		.loc 1 876 0
 1182 000a 0E46     		mov	r6, r1
 1183              		.loc 1 880 0
 1184 000c FFF7FEFF 		bl	debug_fmt
 1185              	.LVL150:
 1186 0010 4FF45C73 		mov	r3, #880
 1187 0014 2A46     		mov	r2, r5
 1188 0016 0090     		str	r0, [sp]
 1189 0018 0221     		movs	r1, #2
 1190 001a 2046     		mov	r0, r4
ARM GAS  C:\Users\jo\AppData\Local\Temp\ccK7XbRr.s 			page 22


 1191 001c FFF7FEFF 		bl	debug_print_msg
 1192              	.LVL151:
 1193              		.loc 1 882 0
 1194 0020 D4F88470 		ldr	r7, [r4, #132]
 1195 0024 05A8     		add	r0, sp, #20
 1196 0026 07F5E471 		add	r1, r7, #456
 1197 002a D822     		movs	r2, #216
 1198 002c FFF7FEFF 		bl	memcpy
 1199              	.LVL152:
 1200              		.loc 1 883 0
 1201 0030 DC22     		movs	r2, #220
 1202 0032 07F52871 		add	r1, r7, #672
 1203 0036 3BA8     		add	r0, sp, #236
 1204 0038 FFF7FEFF 		bl	memcpy
 1205              	.LVL153:
 1206              		.loc 1 885 0
 1207 003c 05A8     		add	r0, sp, #20
 1208 003e 3146     		mov	r1, r6
 1209 0040 FFF7FEFF 		bl	md5_finish
 1210              	.LVL154:
 1211              		.loc 1 886 0
 1212 0044 3BA8     		add	r0, sp, #236
 1213 0046 06F11001 		add	r1, r6, #16
 1214 004a FFF7FEFF 		bl	sha1_finish
 1215              	.LVL155:
 1216              		.loc 1 888 0
 1217 004e 1149     		ldr	r1, .L90+8
 1218 0050 0091     		str	r1, [sp]
 1219 0052 2423     		movs	r3, #36
 1220 0054 2A46     		mov	r2, r5
 1221 0056 2046     		mov	r0, r4
 1222 0058 0293     		str	r3, [sp, #8]
 1223 005a 0321     		movs	r1, #3
 1224 005c 4FF45E73 		mov	r3, #888
 1225 0060 0196     		str	r6, [sp, #4]
 1226 0062 FFF7FEFF 		bl	debug_print_buf
 1227              	.LVL156:
 1228              		.loc 1 889 0
 1229 0066 0C48     		ldr	r0, .L90+12
 1230 0068 FFF7FEFF 		bl	debug_fmt
 1231              	.LVL157:
 1232 006c 2A46     		mov	r2, r5
 1233 006e 0221     		movs	r1, #2
 1234 0070 40F27933 		movw	r3, #889
 1235 0074 0090     		str	r0, [sp]
 1236 0076 2046     		mov	r0, r4
 1237 0078 FFF7FEFF 		bl	debug_print_msg
 1238              	.LVL158:
 1239              		.loc 1 891 0
 1240 007c 05A8     		add	r0, sp, #20
 1241 007e FFF7FEFF 		bl	md5_free
 1242              	.LVL159:
 1243              		.loc 1 892 0
 1244 0082 3BA8     		add	r0, sp, #236
 1245 0084 FFF7FEFF 		bl	sha1_free
 1246              	.LVL160:
 1247              		.loc 1 895 0
ARM GAS  C:\Users\jo\AppData\Local\Temp\ccK7XbRr.s 			page 23


 1248 0088 73B0     		add	sp, sp, #460
 1249              		.cfi_def_cfa_offset 20
 1250              		@ sp needed
 1251 008a F0BD     		pop	{r4, r5, r6, r7, pc}
 1252              	.LVL161:
 1253              	.L91:
 1254              		.align	2
 1255              	.L90:
 1256 008c 84010000 		.word	.LC16
 1257 0090 40000000 		.word	.LC3
 1258 0094 C8000000 		.word	.LC8
 1259 0098 E4000000 		.word	.LC9
 1260              		.cfi_endproc
 1261              	.LFE22:
 1262              		.size	ssl_calc_verify_tls, .-ssl_calc_verify_tls
 1263 009c AFF30080 		.section	.text.tls1_prf,"ax",%progbits
 1264              		.align	2
 1265              		.p2align 4,,15
 1266              		.thumb
 1267              		.thumb_func
 1268              		.type	tls1_prf, %function
 1269              	tls1_prf:
 1270              	.LFB17:
 1271              		.loc 1 199 0
 1272              		.cfi_startproc
 1273              		@ args = 12, pretend = 0, frame = 168
 1274              		@ frame_needed = 0, uses_anonymous_args = 0
 1275              	.LVL162:
 1276 0000 2DE9F04F 		push	{r4, r5, r6, r7, r8, r9, r10, fp, lr}
 1277              		.cfi_def_cfa_offset 36
 1278              		.cfi_offset 4, -36
 1279              		.cfi_offset 5, -32
 1280              		.cfi_offset 6, -28
 1281              		.cfi_offset 7, -24
 1282              		.cfi_offset 8, -20
 1283              		.cfi_offset 9, -16
 1284              		.cfi_offset 10, -12
 1285              		.cfi_offset 11, -8
 1286              		.cfi_offset 14, -4
 1287 0004 8346     		mov	fp, r0
 1288 0006 ADB0     		sub	sp, sp, #180
 1289              		.cfi_def_cfa_offset 216
 1290              		.loc 1 206 0
 1291 0008 1046     		mov	r0, r2
 1292              	.LVL163:
 1293              		.loc 1 199 0
 1294 000a 0D46     		mov	r5, r1
 1295 000c 9A46     		mov	r10, r3
 1296 000e 9046     		mov	r8, r2
 1297              		.loc 1 206 0
 1298 0010 FFF7FEFF 		bl	strlen
 1299              	.LVL164:
 1300              		.loc 1 199 0
 1301 0014 369C     		ldr	r4, [sp, #216]
 1302 0016 389F     		ldr	r7, [sp, #224]
 1303              		.loc 1 206 0
 1304 0018 0319     		adds	r3, r0, r4
ARM GAS  C:\Users\jo\AppData\Local\Temp\ccK7XbRr.s 			page 24


 1305 001a 03F11401 		add	r1, r3, #20
 1306 001e 8029     		cmp	r1, #128
 1307 0020 8146     		mov	r9, r0
 1308 0022 0293     		str	r3, [sp, #8]
 1309 0024 0391     		str	r1, [sp, #12]
 1310 0026 00F2A380 		bhi	.L107
 1311              		.loc 1 209 0
 1312 002a 6E1C     		adds	r6, r5, #1
 1313 002c 7608     		lsrs	r6, r6, #1
 1314              	.LVL165:
 1315              		.loc 1 214 0
 1316 002e 4146     		mov	r1, r8
 1317              		.loc 1 211 0
 1318 0030 AD1B     		subs	r5, r5, r6
 1319              	.LVL166:
 1320              		.loc 1 214 0
 1321 0032 4A46     		mov	r2, r9
 1322 0034 11A8     		add	r0, sp, #68
 1323 0036 FFF7FEFF 		bl	memcpy
 1324              	.LVL167:
 1325              		.loc 1 211 0
 1326 003a 0BEB0508 		add	r8, fp, r5
 1327              	.LVL168:
 1328              		.loc 1 215 0
 1329 003e 09F11400 		add	r0, r9, #20
 1330              		.loc 1 214 0
 1331 0042 0CAD     		add	r5, sp, #48
 1332              		.loc 1 215 0
 1333 0044 5146     		mov	r1, r10
 1334 0046 2246     		mov	r2, r4
 1335 0048 2844     		add	r0, r0, r5
 1336 004a FFF7FEFF 		bl	memcpy
 1337              	.LVL169:
 1338              		.loc 1 221 0
 1339 004e 029C     		ldr	r4, [sp, #8]
 1340 0050 11A8     		add	r0, sp, #68
 1341 0052 0DF1340A 		add	r10, sp, #52
 1342              	.LVL170:
 1343 0056 0246     		mov	r2, r0
 1344 0058 3146     		mov	r1, r6
 1345 005a CDF800A0 		str	r10, [sp]
 1346 005e 5846     		mov	r0, fp
 1347 0060 2346     		mov	r3, r4
 1348 0062 FFF7FEFF 		bl	md5_hmac
 1349              	.LVL171:
 1350              		.loc 1 223 0
 1351 0066 002F     		cmp	r7, #0
 1352 0068 00F08680 		beq	.L94
 1353 006c 2346     		mov	r3, r4
 1354 006e 1033     		adds	r3, r3, #16
 1355              		.loc 1 228 0
 1356 0070 07F00F02 		and	r2, r7, #15
 1357 0074 CDF81080 		str	r8, [sp, #16]
 1358              		.loc 1 223 0
 1359 0078 4FF00009 		mov	r9, #0
 1360 007c 07AC     		add	r4, sp, #28
 1361              		.loc 1 228 0
ARM GAS  C:\Users\jo\AppData\Local\Temp\ccK7XbRr.s 			page 25


 1362 007e 0592     		str	r2, [sp, #20]
 1363 0080 9846     		mov	r8, r3
 1364              	.LVL172:
 1365              	.L96:
 1366              		.loc 1 225 0
 1367 0082 5846     		mov	r0, fp
 1368 0084 3146     		mov	r1, r6
 1369 0086 5246     		mov	r2, r10
 1370 0088 4346     		mov	r3, r8
 1371 008a 0094     		str	r4, [sp]
 1372 008c FFF7FEFF 		bl	md5_hmac
 1373              	.LVL173:
 1374              		.loc 1 226 0
 1375 0090 5846     		mov	r0, fp
 1376 0092 CDF800A0 		str	r10, [sp]
 1377 0096 3146     		mov	r1, r6
 1378 0098 5246     		mov	r2, r10
 1379 009a 1023     		movs	r3, #16
 1380 009c FFF7FEFF 		bl	md5_hmac
 1381              	.LVL174:
 1382              		.loc 1 228 0
 1383 00a0 09F1100E 		add	lr, r9, #16
 1384 00a4 7745     		cmp	r7, lr
 1385 00a6 28BF     		it	cs
 1386 00a8 1020     		movcs	r0, #16
 1387 00aa 6ED3     		bcc	.L120
 1388              	.L95:
 1389              	.LVL175:
 1390 00ac 379B     		ldr	r3, [sp, #220]
 1391 00ae 09F1FF32 		add	r2, r9, #-1
 1392 00b2 1A44     		add	r2, r2, r3
 1393 00b4 0DF11B01 		add	r1, sp, #27
 1394              		.loc 1 228 0 is_stmt 0 discriminator 3
 1395 00b8 0023     		movs	r3, #0
 1396              	.LVL176:
 1397              	.L98:
 1398              		.loc 1 230 0 is_stmt 1 discriminator 3
 1399 00ba 0133     		adds	r3, r3, #1
 1400              	.LVL177:
 1401              		.loc 1 231 0 discriminator 3
 1402 00bc 11F801CF 		ldrb	ip, [r1, #1]!	@ zero_extendqisi2
 1403 00c0 02F801CF 		strb	ip, [r2, #1]!
 1404              		.loc 1 230 0 discriminator 3
 1405 00c4 9842     		cmp	r0, r3
 1406 00c6 F8D8     		bhi	.L98
 1407              	.LVL178:
 1408              	.L99:
 1409              		.loc 1 223 0
 1410 00c8 7745     		cmp	r7, lr
 1411 00ca F146     		mov	r9, lr
 1412 00cc D9D8     		bhi	.L96
 1413              	.LVL179:
 1414 00ce DDF81080 		ldr	r8, [sp, #16]
 1415              		.loc 1 237 0
 1416 00d2 029B     		ldr	r3, [sp, #8]
 1417 00d4 0095     		str	r5, [sp]
 1418 00d6 11AA     		add	r2, sp, #68
ARM GAS  C:\Users\jo\AppData\Local\Temp\ccK7XbRr.s 			page 26


 1419 00d8 4046     		mov	r0, r8
 1420              	.LVL180:
 1421 00da 3146     		mov	r1, r6
 1422 00dc FFF7FEFF 		bl	sha1_hmac
 1423              	.LVL181:
 1424              		.loc 1 244 0
 1425 00e0 2F4B     		ldr	r3, .L122
 1426 00e2 DDF80C90 		ldr	r9, [sp, #12]
 1427 00e6 A3FB073A 		umull	r3, r10, r3, r7
 1428 00ea 4FEA1A1A 		lsr	r10, r10, #4
 1429 00ee 0AEB8A0A 		add	r10, r10, r10, lsl #2
 1430 00f2 A7EB8A0A 		sub	r10, r7, r10, lsl #2
 1431 00f6 CDF808A0 		str	r10, [sp, #8]
 1432              	.LVL182:
 1433 00fa DDF8DCA0 		ldr	r10, [sp, #220]
 1434 00fe 4FF0000B 		mov	fp, #0
 1435              	.LVL183:
 1436              	.L101:
 1437              		.loc 1 241 0
 1438 0102 4046     		mov	r0, r8
 1439 0104 3146     		mov	r1, r6
 1440 0106 2A46     		mov	r2, r5
 1441 0108 4B46     		mov	r3, r9
 1442 010a 0094     		str	r4, [sp]
 1443 010c FFF7FEFF 		bl	sha1_hmac
 1444              	.LVL184:
 1445              		.loc 1 242 0
 1446 0110 0095     		str	r5, [sp]
 1447 0112 4046     		mov	r0, r8
 1448 0114 3146     		mov	r1, r6
 1449 0116 2A46     		mov	r2, r5
 1450 0118 1423     		movs	r3, #20
 1451 011a FFF7FEFF 		bl	sha1_hmac
 1452              	.LVL185:
 1453              		.loc 1 244 0
 1454 011e 0BF1140C 		add	ip, fp, #20
 1455 0122 6745     		cmp	r7, ip
 1456 0124 28BF     		it	cs
 1457 0126 4FF0140E 		movcs	lr, #20
 1458 012a 33D3     		bcc	.L121
 1459              	.L100:
 1460              	.LVL186:
 1461 012c 0BF1FF31 		add	r1, fp, #-1
 1462 0130 5144     		add	r1, r1, r10
 1463 0132 0DF11B0B 		add	fp, sp, #27
 1464              	.LVL187:
 1465              		.loc 1 244 0 is_stmt 0 discriminator 3
 1466 0136 0020     		movs	r0, #0
 1467              	.LVL188:
 1468              	.L103:
 1469              		.loc 1 247 0 is_stmt 1 discriminator 3
 1470 0138 11F8013F 		ldrb	r3, [r1, #1]!	@ zero_extendqisi2
 1471 013c 1BF8012F 		ldrb	r2, [fp, #1]!	@ zero_extendqisi2
 1472              		.loc 1 246 0 discriminator 3
 1473 0140 0130     		adds	r0, r0, #1
 1474              	.LVL189:
 1475              		.loc 1 247 0 discriminator 3
ARM GAS  C:\Users\jo\AppData\Local\Temp\ccK7XbRr.s 			page 27


 1476 0142 5340     		eors	r3, r3, r2
 1477              		.loc 1 246 0 discriminator 3
 1478 0144 8645     		cmp	lr, r0
 1479              		.loc 1 247 0 discriminator 3
 1480 0146 0B70     		strb	r3, [r1]
 1481              		.loc 1 246 0 discriminator 3
 1482 0148 F6D8     		bhi	.L103
 1483              	.LVL190:
 1484              	.L104:
 1485              		.loc 1 239 0
 1486 014a 6745     		cmp	r7, ip
 1487 014c E346     		mov	fp, ip
 1488 014e D8D8     		bhi	.L101
 1489              	.LVL191:
 1490              	.L102:
 1491              		.loc 1 244 0
 1492 0150 2B46     		mov	r3, r5
 1493              	.LBB123:
 1494              	.LBB124:
 1495              		.loc 1 64 0
 1496 0152 0022     		movs	r2, #0
 1497              	.LVL192:
 1498              	.L105:
 1499 0154 1A70     		strb	r2, [r3]
 1500              	.LVL193:
 1501 0156 2CA9     		add	r1, sp, #176
 1502 0158 0133     		adds	r3, r3, #1
 1503              	.LVL194:
 1504 015a 8B42     		cmp	r3, r1
 1505 015c FAD1     		bne	.L105
 1506              	.LBE124:
 1507              	.LBE123:
 1508              	.LBB125:
 1509              	.LBB126:
 1510 015e 0023     		movs	r3, #0
 1511              	.LVL195:
 1512              	.L106:
 1513 0160 2370     		strb	r3, [r4]
 1514              	.LVL196:
 1515 0162 0134     		adds	r4, r4, #1
 1516              	.LVL197:
 1517 0164 AC42     		cmp	r4, r5
 1518 0166 FBD1     		bne	.L106
 1519              	.LBE126:
 1520              	.LBE125:
 1521              		.loc 1 253 0
 1522 0168 0020     		movs	r0, #0
 1523              		.loc 1 254 0
 1524 016a 2DB0     		add	sp, sp, #180
 1525              		.cfi_remember_state
 1526              		.cfi_def_cfa_offset 36
 1527              		@ sp needed
 1528 016c BDE8F08F 		pop	{r4, r5, r6, r7, r8, r9, r10, fp, pc}
 1529              	.LVL198:
 1530              	.L107:
 1531              		.cfi_restore_state
 1532              		.loc 1 207 0
ARM GAS  C:\Users\jo\AppData\Local\Temp\ccK7XbRr.s 			page 28


 1533 0170 0C48     		ldr	r0, .L122+4
 1534              		.loc 1 254 0
 1535 0172 2DB0     		add	sp, sp, #180
 1536              		.cfi_remember_state
 1537              		.cfi_def_cfa_offset 36
 1538              		@ sp needed
 1539 0174 BDE8F08F 		pop	{r4, r5, r6, r7, r8, r9, r10, fp, pc}
 1540              	.LVL199:
 1541              	.L94:
 1542              		.cfi_restore_state
 1543              		.loc 1 237 0
 1544 0178 0095     		str	r5, [sp]
 1545 017a 4046     		mov	r0, r8
 1546 017c 3146     		mov	r1, r6
 1547 017e 11AA     		add	r2, sp, #68
 1548 0180 029B     		ldr	r3, [sp, #8]
 1549 0182 FFF7FEFF 		bl	sha1_hmac
 1550              	.LVL200:
 1551 0186 07AC     		add	r4, sp, #28
 1552              	.LVL201:
 1553 0188 E2E7     		b	.L102
 1554              	.LVL202:
 1555              	.L120:
 1556              		.loc 1 228 0 discriminator 1
 1557 018a 059B     		ldr	r3, [sp, #20]
 1558 018c 1846     		mov	r0, r3
 1559              	.LVL203:
 1560              		.loc 1 230 0 discriminator 1
 1561 018e 002B     		cmp	r3, #0
 1562 0190 9AD0     		beq	.L99
 1563 0192 8BE7     		b	.L95
 1564              	.LVL204:
 1565              	.L121:
 1566              		.loc 1 246 0 discriminator 1
 1567 0194 029B     		ldr	r3, [sp, #8]
 1568 0196 002B     		cmp	r3, #0
 1569 0198 D7D0     		beq	.L104
 1570              		.loc 1 246 0 is_stmt 0
 1571 019a DDF808E0 		ldr	lr, [sp, #8]
 1572 019e C5E7     		b	.L100
 1573              	.L123:
 1574              		.align	2
 1575              	.L122:
 1576 01a0 CDCCCCCC 		.word	-858993459
 1577 01a4 008FFFFF 		.word	-28928
 1578              		.cfi_endproc
 1579              	.LFE17:
 1580              		.size	tls1_prf, .-tls1_prf
 1581 01a8 AFF30080 		.section	.text.ssl_update_checksum_md5sha1,"ax",%progbits
 1581      AFF30080 
 1582              		.align	2
 1583              		.p2align 4,,15
 1584              		.thumb
 1585              		.thumb_func
 1586              		.type	ssl_update_checksum_md5sha1, %function
 1587              	ssl_update_checksum_md5sha1:
 1588              	.LFB41:
ARM GAS  C:\Users\jo\AppData\Local\Temp\ccK7XbRr.s 			page 29


 1589              		.loc 1 2992 0 is_stmt 1
 1590              		.cfi_startproc
 1591              		@ args = 0, pretend = 0, frame = 0
 1592              		@ frame_needed = 0, uses_anonymous_args = 0
 1593              	.LVL205:
 1594 0000 70B5     		push	{r4, r5, r6, lr}
 1595              		.cfi_def_cfa_offset 16
 1596              		.cfi_offset 4, -16
 1597              		.cfi_offset 5, -12
 1598              		.cfi_offset 6, -8
 1599              		.cfi_offset 14, -4
 1600              		.loc 1 2992 0
 1601 0002 0446     		mov	r4, r0
 1602              		.loc 1 2993 0
 1603 0004 D0F88400 		ldr	r0, [r0, #132]
 1604              	.LVL206:
 1605 0008 00F5E470 		add	r0, r0, #456
 1606              		.loc 1 2992 0
 1607 000c 0E46     		mov	r6, r1
 1608 000e 1546     		mov	r5, r2
 1609              		.loc 1 2993 0
 1610 0010 FFF7FEFF 		bl	md5_update
 1611              	.LVL207:
 1612              		.loc 1 2994 0
 1613 0014 D4F88400 		ldr	r0, [r4, #132]
 1614 0018 3146     		mov	r1, r6
 1615 001a 2A46     		mov	r2, r5
 1616 001c 00F52870 		add	r0, r0, #672
 1617              		.loc 1 2995 0
 1618 0020 BDE87040 		pop	{r4, r5, r6, lr}
 1619              		.cfi_restore 14
 1620              		.cfi_restore 6
 1621              		.cfi_restore 5
 1622              		.cfi_restore 4
 1623              		.cfi_def_cfa_offset 0
 1624              	.LVL208:
 1625              		.loc 1 2994 0
 1626 0024 FFF7FEBF 		b	sha1_update
 1627              	.LVL209:
 1628              		.cfi_endproc
 1629              	.LFE41:
 1630              		.size	ssl_update_checksum_md5sha1, .-ssl_update_checksum_md5sha1
 1631 0028 AFF30080 		.section	.text.ssl_calc_finished_ssl,"ax",%progbits
 1631      AFF30080 
 1632              		.align	2
 1633              		.p2align 4,,15
 1634              		.thumb
 1635              		.thumb_func
 1636              		.type	ssl_calc_finished_ssl, %function
 1637              	ssl_calc_finished_ssl:
 1638              	.LFB44:
 1639              		.loc 1 3019 0
 1640              		.cfi_startproc
 1641              		@ args = 0, pretend = 0, frame = 520
 1642              		@ frame_needed = 0, uses_anonymous_args = 0
 1643              	.LVL210:
 1644 0000 2DE9F04F 		push	{r4, r5, r6, r7, r8, r9, r10, fp, lr}
ARM GAS  C:\Users\jo\AppData\Local\Temp\ccK7XbRr.s 			page 30


 1645              		.cfi_def_cfa_offset 36
 1646              		.cfi_offset 4, -36
 1647              		.cfi_offset 5, -32
 1648              		.cfi_offset 6, -28
 1649              		.cfi_offset 7, -24
 1650              		.cfi_offset 8, -20
 1651              		.cfi_offset 9, -16
 1652              		.cfi_offset 10, -12
 1653              		.cfi_offset 11, -8
 1654              		.cfi_offset 14, -4
 1655              		.loc 1 3028 0
 1656 0004 D0F88080 		ldr	r8, [r0, #128]
 1657              	.LVL211:
 1658              		.loc 1 3019 0
 1659 0008 ADF5077D 		sub	sp, sp, #540
 1660              		.cfi_def_cfa_offset 576
 1661              		.loc 1 3019 0
 1662 000c 0646     		mov	r6, r0
 1663 000e 8946     		mov	r9, r1
 1664 0010 1746     		mov	r7, r2
 1665              		.loc 1 3029 0
 1666 0012 B8F1000F 		cmp	r8, #0
 1667 0016 00F0D380 		beq	.L137
 1668              	.L127:
 1669              		.loc 1 3032 0
 1670 001a 6B48     		ldr	r0, .L138
 1671              	.LVL212:
 1672 001c FFF7FEFF 		bl	debug_fmt
 1673              	.LVL213:
 1674 0020 40F6D833 		movw	r3, #3032
 1675 0024 0221     		movs	r1, #2
 1676 0026 0090     		str	r0, [sp]
 1677 0028 684A     		ldr	r2, .L138+4
 1678 002a 3046     		mov	r0, r6
 1679 002c FFF7FEFF 		bl	debug_print_msg
 1680              	.LVL214:
 1681              		.loc 1 3034 0
 1682 0030 D6F88450 		ldr	r5, [r6, #132]
 1683 0034 19AC     		add	r4, sp, #100
 1684 0036 05F5E471 		add	r1, r5, #456
 1685 003a D822     		movs	r2, #216
 1686 003c 2046     		mov	r0, r4
 1687 003e FFF7FEFF 		bl	memcpy
 1688              	.LVL215:
 1689              		.loc 1 3035 0
 1690 0042 05F52871 		add	r1, r5, #672
 1691 0046 DC22     		movs	r2, #220
 1692 0048 4FA8     		add	r0, sp, #316
 1693 004a FFF7FEFF 		bl	memcpy
 1694              	.LVL216:
 1695              		.loc 1 3047 0
 1696 004e 604B     		ldr	r3, .L138+8
 1697 0050 0093     		str	r3, [sp]
 1698 0052 4FF0100B 		mov	fp, #16
 1699 0056 1BAB     		add	r3, sp, #108
 1700 0058 0193     		str	r3, [sp, #4]
 1701 005a 3046     		mov	r0, r6
ARM GAS  C:\Users\jo\AppData\Local\Temp\ccK7XbRr.s 			page 31


 1702 005c 0421     		movs	r1, #4
 1703 005e 5B4A     		ldr	r2, .L138+4
 1704 0060 CDF808B0 		str	fp, [sp, #8]
 1705 0064 40F6E833 		movw	r3, #3048
 1706 0068 FFF7FEFF 		bl	debug_print_buf
 1707              	.LVL217:
 1708              		.loc 1 3052 0
 1709 006c 594B     		ldr	r3, .L138+12
 1710 006e 0093     		str	r3, [sp]
 1711 0070 4FF0140A 		mov	r10, #20
 1712 0074 51AB     		add	r3, sp, #324
 1713 0076 0193     		str	r3, [sp, #4]
 1714 0078 3046     		mov	r0, r6
 1715 007a 0421     		movs	r1, #4
 1716 007c 534A     		ldr	r2, .L138+4
 1717 007e CDF808A0 		str	r10, [sp, #8]
 1718 0082 40F6ED33 		movw	r3, #3053
 1719 0086 FFF7FEFF 		bl	debug_print_buf
 1720              	.LVL218:
 1721              		.loc 1 3056 0
 1722 008a 534B     		ldr	r3, .L138+16
 1723 008c 534A     		ldr	r2, .L138+20
 1724              		.loc 1 3059 0
 1725 008e 0DAD     		add	r5, sp, #52
 1726              		.loc 1 3056 0
 1727 0090 002F     		cmp	r7, #0
 1728 0092 0CBF     		ite	eq
 1729 0094 1746     		moveq	r7, r2
 1730 0096 1F46     		movne	r7, r3
 1731              	.LVL219:
 1732              		.loc 1 3059 0
 1733 0098 3621     		movs	r1, #54
 1734 009a 3022     		movs	r2, #48
 1735 009c 2846     		mov	r0, r5
 1736              		.loc 1 3062 0
 1737 009e 9044     		add	r8, r8, r2
 1738              	.LVL220:
 1739              		.loc 1 3059 0
 1740 00a0 FFF7FEFF 		bl	memset
 1741              	.LVL221:
 1742              		.loc 1 3061 0
 1743 00a4 3946     		mov	r1, r7
 1744 00a6 2046     		mov	r0, r4
 1745 00a8 0422     		movs	r2, #4
 1746 00aa FFF7FEFF 		bl	md5_update
 1747              	.LVL222:
 1748              		.loc 1 3062 0
 1749 00ae 2046     		mov	r0, r4
 1750 00b0 4146     		mov	r1, r8
 1751 00b2 3022     		movs	r2, #48
 1752 00b4 FFF7FEFF 		bl	md5_update
 1753              	.LVL223:
 1754              		.loc 1 3063 0
 1755 00b8 3022     		movs	r2, #48
 1756 00ba 2046     		mov	r0, r4
 1757 00bc 2946     		mov	r1, r5
 1758 00be FFF7FEFF 		bl	md5_update
ARM GAS  C:\Users\jo\AppData\Local\Temp\ccK7XbRr.s 			page 32


 1759              	.LVL224:
 1760              		.loc 1 3064 0
 1761 00c2 2046     		mov	r0, r4
 1762 00c4 0DEB0B01 		add	r1, sp, fp
 1763 00c8 FFF7FEFF 		bl	md5_finish
 1764              	.LVL225:
 1765              		.loc 1 3066 0
 1766 00cc 3946     		mov	r1, r7
 1767 00ce 4FA8     		add	r0, sp, #316
 1768 00d0 0422     		movs	r2, #4
 1769 00d2 FFF7FEFF 		bl	sha1_update
 1770              	.LVL226:
 1771              		.loc 1 3067 0
 1772 00d6 4FA8     		add	r0, sp, #316
 1773 00d8 4146     		mov	r1, r8
 1774 00da 3022     		movs	r2, #48
 1775 00dc FFF7FEFF 		bl	sha1_update
 1776              	.LVL227:
 1777              		.loc 1 3069 0
 1778 00e0 08AF     		add	r7, sp, #32
 1779              	.LVL228:
 1780              		.loc 1 3068 0
 1781 00e2 2822     		movs	r2, #40
 1782 00e4 4FA8     		add	r0, sp, #316
 1783 00e6 2946     		mov	r1, r5
 1784 00e8 FFF7FEFF 		bl	sha1_update
 1785              	.LVL229:
 1786              		.loc 1 3069 0
 1787 00ec 4FA8     		add	r0, sp, #316
 1788 00ee 3946     		mov	r1, r7
 1789 00f0 FFF7FEFF 		bl	sha1_finish
 1790              	.LVL230:
 1791              		.loc 1 3071 0
 1792 00f4 5C21     		movs	r1, #92
 1793 00f6 3022     		movs	r2, #48
 1794 00f8 2846     		mov	r0, r5
 1795 00fa FFF7FEFF 		bl	memset
 1796              	.LVL231:
 1797              		.loc 1 3073 0
 1798 00fe 2046     		mov	r0, r4
 1799 0100 FFF7FEFF 		bl	md5_starts
 1800              	.LVL232:
 1801              		.loc 1 3074 0
 1802 0104 2046     		mov	r0, r4
 1803 0106 4146     		mov	r1, r8
 1804 0108 3022     		movs	r2, #48
 1805 010a FFF7FEFF 		bl	md5_update
 1806              	.LVL233:
 1807              		.loc 1 3075 0
 1808 010e 2046     		mov	r0, r4
 1809 0110 2946     		mov	r1, r5
 1810 0112 3022     		movs	r2, #48
 1811 0114 FFF7FEFF 		bl	md5_update
 1812              	.LVL234:
 1813              		.loc 1 3076 0
 1814 0118 5A46     		mov	r2, fp
 1815 011a 2046     		mov	r0, r4
ARM GAS  C:\Users\jo\AppData\Local\Temp\ccK7XbRr.s 			page 33


 1816 011c 0DEB0B01 		add	r1, sp, fp
 1817 0120 FFF7FEFF 		bl	md5_update
 1818              	.LVL235:
 1819              		.loc 1 3077 0
 1820 0124 4946     		mov	r1, r9
 1821 0126 2046     		mov	r0, r4
 1822 0128 FFF7FEFF 		bl	md5_finish
 1823              	.LVL236:
 1824              		.loc 1 3079 0
 1825 012c 4FA8     		add	r0, sp, #316
 1826 012e FFF7FEFF 		bl	sha1_starts
 1827              	.LVL237:
 1828              		.loc 1 3080 0
 1829 0132 4FA8     		add	r0, sp, #316
 1830 0134 4146     		mov	r1, r8
 1831 0136 3022     		movs	r2, #48
 1832 0138 FFF7FEFF 		bl	sha1_update
 1833              	.LVL238:
 1834              		.loc 1 3081 0
 1835 013c 4FA8     		add	r0, sp, #316
 1836 013e 2946     		mov	r1, r5
 1837 0140 2822     		movs	r2, #40
 1838 0142 FFF7FEFF 		bl	sha1_update
 1839              	.LVL239:
 1840              		.loc 1 3082 0
 1841 0146 5246     		mov	r2, r10
 1842 0148 4FA8     		add	r0, sp, #316
 1843 014a 3946     		mov	r1, r7
 1844 014c FFF7FEFF 		bl	sha1_update
 1845              	.LVL240:
 1846              		.loc 1 3083 0
 1847 0150 4FA8     		add	r0, sp, #316
 1848 0152 09EB0B01 		add	r1, r9, fp
 1849 0156 FFF7FEFF 		bl	sha1_finish
 1850              	.LVL241:
 1851              		.loc 1 3085 0
 1852 015a 214A     		ldr	r2, .L138+24
 1853 015c 0092     		str	r2, [sp]
 1854 015e 2423     		movs	r3, #36
 1855 0160 1A4A     		ldr	r2, .L138+4
 1856 0162 0293     		str	r3, [sp, #8]
 1857 0164 0321     		movs	r1, #3
 1858 0166 40F60D43 		movw	r3, #3085
 1859 016a 3046     		mov	r0, r6
 1860 016c CDF80490 		str	r9, [sp, #4]
 1861 0170 FFF7FEFF 		bl	debug_print_buf
 1862              	.LVL242:
 1863              		.loc 1 3087 0
 1864 0174 2046     		mov	r0, r4
 1865 0176 FFF7FEFF 		bl	md5_free
 1866              	.LVL243:
 1867              		.loc 1 3088 0
 1868 017a 4FA8     		add	r0, sp, #316
 1869 017c FFF7FEFF 		bl	sha1_free
 1870              	.LVL244:
 1871              	.LBB127:
 1872              	.LBB128:
ARM GAS  C:\Users\jo\AppData\Local\Temp\ccK7XbRr.s 			page 34


 1873              		.loc 1 64 0
 1874 0180 2B46     		mov	r3, r5
 1875 0182 0022     		movs	r2, #0
 1876              	.LVL245:
 1877              	.L129:
 1878 0184 1A70     		strb	r2, [r3]
 1879              	.LVL246:
 1880 0186 0133     		adds	r3, r3, #1
 1881              	.LVL247:
 1882 0188 A342     		cmp	r3, r4
 1883 018a FBD1     		bne	.L129
 1884 018c 04AB     		add	r3, sp, #16
 1885              	.LVL248:
 1886              	.LBE128:
 1887              	.LBE127:
 1888              	.LBB129:
 1889              	.LBB130:
 1890 018e 0022     		movs	r2, #0
 1891              	.L130:
 1892              	.LVL249:
 1893 0190 1A70     		strb	r2, [r3]
 1894              	.LVL250:
 1895 0192 0133     		adds	r3, r3, #1
 1896              	.LVL251:
 1897 0194 BB42     		cmp	r3, r7
 1898 0196 FBD1     		bne	.L130
 1899              	.LBE130:
 1900              	.LBE129:
 1901              	.LBB131:
 1902              	.LBB132:
 1903 0198 0022     		movs	r2, #0
 1904              	.LVL252:
 1905              	.L131:
 1906 019a 1A70     		strb	r2, [r3]
 1907              	.LVL253:
 1908 019c 0133     		adds	r3, r3, #1
 1909              	.LVL254:
 1910 019e AB42     		cmp	r3, r5
 1911 01a0 FBD1     		bne	.L131
 1912              	.LBE132:
 1913              	.LBE131:
 1914              		.loc 1 3094 0 discriminator 4
 1915 01a2 1048     		ldr	r0, .L138+28
 1916 01a4 FFF7FEFF 		bl	debug_fmt
 1917              	.LVL255:
 1918 01a8 0221     		movs	r1, #2
 1919 01aa 0090     		str	r0, [sp]
 1920 01ac 074A     		ldr	r2, .L138+4
 1921 01ae 3046     		mov	r0, r6
 1922 01b0 40F61643 		movw	r3, #3094
 1923 01b4 FFF7FEFF 		bl	debug_print_msg
 1924              	.LVL256:
 1925              		.loc 1 3095 0 discriminator 4
 1926 01b8 0DF5077D 		add	sp, sp, #540
 1927              		.cfi_remember_state
 1928              		.cfi_def_cfa_offset 36
 1929              		@ sp needed
ARM GAS  C:\Users\jo\AppData\Local\Temp\ccK7XbRr.s 			page 35


 1930 01bc BDE8F08F 		pop	{r4, r5, r6, r7, r8, r9, r10, fp, pc}
 1931              	.LVL257:
 1932              	.L137:
 1933              		.cfi_restore_state
 1934              		.loc 1 3030 0
 1935 01c0 D0F87C80 		ldr	r8, [r0, #124]
 1936              	.LVL258:
 1937 01c4 29E7     		b	.L127
 1938              	.L139:
 1939 01c6 00BF     		.align	2
 1940              	.L138:
 1941 01c8 A8010000 		.word	.LC19
 1942 01cc 40000000 		.word	.LC3
 1943 01d0 5C010000 		.word	.LC14
 1944 01d4 70010000 		.word	.LC15
 1945 01d8 A0010000 		.word	.LC18
 1946 01dc 98010000 		.word	.LC17
 1947 01e0 84000000 		.word	.LC5
 1948 01e4 9C000000 		.word	.LC6
 1949              		.cfi_endproc
 1950              	.LFE44:
 1951              		.size	ssl_calc_finished_ssl, .-ssl_calc_finished_ssl
 1952 01e8 AFF30080 		.section	.text.ssl_calc_verify_ssl,"ax",%progbits
 1952      AFF30080 
 1953              		.align	2
 1954              		.p2align 4,,15
 1955              		.thumb
 1956              		.thumb_func
 1957              		.type	ssl_calc_verify_ssl, %function
 1958              	ssl_calc_verify_ssl:
 1959              	.LFB21:
 1960              		.loc 1 830 0
 1961              		.cfi_startproc
 1962              		@ args = 0, pretend = 0, frame = 536
 1963              		@ frame_needed = 0, uses_anonymous_args = 0
 1964              	.LVL259:
 1965 0000 F0B5     		push	{r4, r5, r6, r7, lr}
 1966              		.cfi_def_cfa_offset 20
 1967              		.cfi_offset 4, -20
 1968              		.cfi_offset 5, -16
 1969              		.cfi_offset 6, -12
 1970              		.cfi_offset 7, -8
 1971              		.cfi_offset 14, -4
 1972 0002 0446     		mov	r4, r0
 1973 0004 ADF50B7D 		sub	sp, sp, #556
 1974              		.cfi_def_cfa_offset 576
 1975              		.loc 1 836 0
 1976 0008 4B48     		ldr	r0, .L142
 1977              	.LVL260:
 1978 000a 4C4E     		ldr	r6, .L142+4
 1979              		.loc 1 830 0
 1980 000c 0D46     		mov	r5, r1
 1981              		.loc 1 836 0
 1982 000e FFF7FEFF 		bl	debug_fmt
 1983              	.LVL261:
 1984 0012 4FF45173 		mov	r3, #836
 1985 0016 3246     		mov	r2, r6
ARM GAS  C:\Users\jo\AppData\Local\Temp\ccK7XbRr.s 			page 36


 1986 0018 0090     		str	r0, [sp]
 1987 001a 0221     		movs	r1, #2
 1988 001c 2046     		mov	r0, r4
 1989 001e FFF7FEFF 		bl	debug_print_msg
 1990              	.LVL262:
 1991              		.loc 1 838 0
 1992 0022 D4F88470 		ldr	r7, [r4, #132]
 1993 0026 1DA8     		add	r0, sp, #116
 1994 0028 07F5E471 		add	r1, r7, #456
 1995 002c D822     		movs	r2, #216
 1996 002e FFF7FEFF 		bl	memcpy
 1997              	.LVL263:
 1998              		.loc 1 839 0
 1999 0032 07F52871 		add	r1, r7, #672
 2000 0036 53A8     		add	r0, sp, #332
 2001 0038 DC22     		movs	r2, #220
 2002 003a FFF7FEFF 		bl	memcpy
 2003              	.LVL264:
 2004              		.loc 1 841 0
 2005 003e 05A8     		add	r0, sp, #20
 2006 0040 3621     		movs	r1, #54
 2007 0042 3022     		movs	r2, #48
 2008 0044 FFF7FEFF 		bl	memset
 2009              	.LVL265:
 2010              		.loc 1 842 0
 2011 0048 11A8     		add	r0, sp, #68
 2012 004a 5C21     		movs	r1, #92
 2013 004c 3022     		movs	r2, #48
 2014 004e FFF7FEFF 		bl	memset
 2015              	.LVL266:
 2016              		.loc 1 844 0
 2017 0052 D4F88010 		ldr	r1, [r4, #128]
 2018 0056 1DA8     		add	r0, sp, #116
 2019 0058 3031     		adds	r1, r1, #48
 2020 005a 3022     		movs	r2, #48
 2021 005c FFF7FEFF 		bl	md5_update
 2022              	.LVL267:
 2023              		.loc 1 845 0
 2024 0060 3022     		movs	r2, #48
 2025 0062 1DA8     		add	r0, sp, #116
 2026 0064 05A9     		add	r1, sp, #20
 2027 0066 FFF7FEFF 		bl	md5_update
 2028              	.LVL268:
 2029              		.loc 1 846 0
 2030 006a 2946     		mov	r1, r5
 2031 006c 1DA8     		add	r0, sp, #116
 2032 006e FFF7FEFF 		bl	md5_finish
 2033              	.LVL269:
 2034              		.loc 1 848 0
 2035 0072 1DA8     		add	r0, sp, #116
 2036 0074 FFF7FEFF 		bl	md5_starts
 2037              	.LVL270:
 2038              		.loc 1 849 0
 2039 0078 D4F88010 		ldr	r1, [r4, #128]
 2040 007c 1DA8     		add	r0, sp, #116
 2041 007e 3031     		adds	r1, r1, #48
 2042 0080 3022     		movs	r2, #48
ARM GAS  C:\Users\jo\AppData\Local\Temp\ccK7XbRr.s 			page 37


 2043 0082 FFF7FEFF 		bl	md5_update
 2044              	.LVL271:
 2045              		.loc 1 850 0
 2046 0086 1DA8     		add	r0, sp, #116
 2047 0088 11A9     		add	r1, sp, #68
 2048 008a 3022     		movs	r2, #48
 2049 008c FFF7FEFF 		bl	md5_update
 2050              	.LVL272:
 2051              		.loc 1 851 0
 2052 0090 1DA8     		add	r0, sp, #116
 2053 0092 2946     		mov	r1, r5
 2054 0094 1022     		movs	r2, #16
 2055 0096 FFF7FEFF 		bl	md5_update
 2056              	.LVL273:
 2057              		.loc 1 852 0
 2058 009a 1DA8     		add	r0, sp, #116
 2059 009c 2946     		mov	r1, r5
 2060 009e FFF7FEFF 		bl	md5_finish
 2061              	.LVL274:
 2062              		.loc 1 854 0
 2063 00a2 D4F88010 		ldr	r1, [r4, #128]
 2064 00a6 53A8     		add	r0, sp, #332
 2065 00a8 3031     		adds	r1, r1, #48
 2066 00aa 3022     		movs	r2, #48
 2067 00ac FFF7FEFF 		bl	sha1_update
 2068              	.LVL275:
 2069              		.loc 1 856 0
 2070 00b0 05F11007 		add	r7, r5, #16
 2071              		.loc 1 855 0
 2072 00b4 2822     		movs	r2, #40
 2073 00b6 53A8     		add	r0, sp, #332
 2074 00b8 05A9     		add	r1, sp, #20
 2075 00ba FFF7FEFF 		bl	sha1_update
 2076              	.LVL276:
 2077              		.loc 1 856 0
 2078 00be 3946     		mov	r1, r7
 2079 00c0 53A8     		add	r0, sp, #332
 2080 00c2 FFF7FEFF 		bl	sha1_finish
 2081              	.LVL277:
 2082              		.loc 1 858 0
 2083 00c6 53A8     		add	r0, sp, #332
 2084 00c8 FFF7FEFF 		bl	sha1_starts
 2085              	.LVL278:
 2086              		.loc 1 859 0
 2087 00cc D4F88010 		ldr	r1, [r4, #128]
 2088 00d0 53A8     		add	r0, sp, #332
 2089 00d2 3031     		adds	r1, r1, #48
 2090 00d4 3022     		movs	r2, #48
 2091 00d6 FFF7FEFF 		bl	sha1_update
 2092              	.LVL279:
 2093              		.loc 1 860 0
 2094 00da 53A8     		add	r0, sp, #332
 2095 00dc 11A9     		add	r1, sp, #68
 2096 00de 2822     		movs	r2, #40
 2097 00e0 FFF7FEFF 		bl	sha1_update
 2098              	.LVL280:
 2099              		.loc 1 861 0
ARM GAS  C:\Users\jo\AppData\Local\Temp\ccK7XbRr.s 			page 38


 2100 00e4 53A8     		add	r0, sp, #332
 2101 00e6 3946     		mov	r1, r7
 2102 00e8 1422     		movs	r2, #20
 2103 00ea FFF7FEFF 		bl	sha1_update
 2104              	.LVL281:
 2105              		.loc 1 862 0
 2106 00ee 53A8     		add	r0, sp, #332
 2107 00f0 3946     		mov	r1, r7
 2108 00f2 FFF7FEFF 		bl	sha1_finish
 2109              	.LVL282:
 2110              		.loc 1 864 0
 2111 00f6 1249     		ldr	r1, .L142+8
 2112 00f8 0091     		str	r1, [sp]
 2113 00fa 2423     		movs	r3, #36
 2114 00fc 3246     		mov	r2, r6
 2115 00fe 2046     		mov	r0, r4
 2116 0100 0293     		str	r3, [sp, #8]
 2117 0102 0321     		movs	r1, #3
 2118 0104 4FF45873 		mov	r3, #864
 2119 0108 0195     		str	r5, [sp, #4]
 2120 010a FFF7FEFF 		bl	debug_print_buf
 2121              	.LVL283:
 2122              		.loc 1 865 0
 2123 010e 0D48     		ldr	r0, .L142+12
 2124 0110 FFF7FEFF 		bl	debug_fmt
 2125              	.LVL284:
 2126 0114 3246     		mov	r2, r6
 2127 0116 0221     		movs	r1, #2
 2128 0118 40F26133 		movw	r3, #865
 2129 011c 0090     		str	r0, [sp]
 2130 011e 2046     		mov	r0, r4
 2131 0120 FFF7FEFF 		bl	debug_print_msg
 2132              	.LVL285:
 2133              		.loc 1 867 0
 2134 0124 1DA8     		add	r0, sp, #116
 2135 0126 FFF7FEFF 		bl	md5_free
 2136              	.LVL286:
 2137              		.loc 1 868 0
 2138 012a 53A8     		add	r0, sp, #332
 2139 012c FFF7FEFF 		bl	sha1_free
 2140              	.LVL287:
 2141              		.loc 1 871 0
 2142 0130 0DF50B7D 		add	sp, sp, #556
 2143              		.cfi_def_cfa_offset 20
 2144              		@ sp needed
 2145 0134 F0BD     		pop	{r4, r5, r6, r7, pc}
 2146              	.LVL288:
 2147              	.L143:
 2148 0136 00BF     		.align	2
 2149              	.L142:
 2150 0138 C0010000 		.word	.LC20
 2151 013c 40000000 		.word	.LC3
 2152 0140 C8000000 		.word	.LC8
 2153 0144 E4000000 		.word	.LC9
 2154              		.cfi_endproc
 2155              	.LFE21:
 2156              		.size	ssl_calc_verify_ssl, .-ssl_calc_verify_ssl
ARM GAS  C:\Users\jo\AppData\Local\Temp\ccK7XbRr.s 			page 39


 2157 0148 AFF30080 		.section	.text.ssl3_prf,"ax",%progbits
 2157      AFF30080 
 2158              		.align	2
 2159              		.p2align 4,,15
 2160              		.thumb
 2161              		.thumb_func
 2162              		.type	ssl3_prf, %function
 2163              	ssl3_prf:
 2164              	.LFB16:
 2165              		.loc 1 149 0
 2166              		.cfi_startproc
 2167              		@ args = 12, pretend = 0, frame = 480
 2168              		@ frame_needed = 0, uses_anonymous_args = 0
 2169              	.LVL289:
 2170 0000 2DE9F04F 		push	{r4, r5, r6, r7, r8, r9, r10, fp, lr}
 2171              		.cfi_def_cfa_offset 36
 2172              		.cfi_offset 4, -36
 2173              		.cfi_offset 5, -32
 2174              		.cfi_offset 6, -28
 2175              		.cfi_offset 7, -24
 2176              		.cfi_offset 8, -20
 2177              		.cfi_offset 9, -16
 2178              		.cfi_offset 10, -12
 2179              		.cfi_offset 11, -8
 2180              		.cfi_offset 14, -4
 2181 0004 F9B0     		sub	sp, sp, #484
 2182              		.cfi_def_cfa_offset 520
 2183              		.loc 1 157 0
 2184 0006 0BAD     		add	r5, sp, #44
 2185              		.loc 1 149 0
 2186 0008 849C     		ldr	r4, [sp, #528]
 2187 000a 0193     		str	r3, [sp, #4]
 2188 000c 8046     		mov	r8, r0
 2189              		.loc 1 157 0
 2190 000e 2846     		mov	r0, r5
 2191              	.LVL290:
 2192              		.loc 1 149 0
 2193 0010 8946     		mov	r9, r1
 2194              		.loc 1 157 0
 2195 0012 FFF7FEFF 		bl	md5_init
 2196              	.LVL291:
 2197              		.loc 1 158 0
 2198 0016 41A8     		add	r0, sp, #260
 2199 0018 FFF7FEFF 		bl	sha1_init
 2200              	.LVL292:
 2201              		.loc 1 168 0
 2202 001c 5FEA141B 		lsrs	fp, r4, #4
 2203 0020 4CD0     		beq	.L154
 2204 0022 839F     		ldr	r7, [sp, #524]
 2205 0024 4FF0000A 		mov	r10, #0
 2206 0028 02AC     		add	r4, sp, #8
 2207 002a 06AE     		add	r6, sp, #24
 2208              	.LVL293:
 2209              	.L147:
 2210 002c 0AF14101 		add	r1, r10, #65
 2211              		.loc 1 170 0 discriminator 3
 2212 0030 0AF1010A 		add	r10, r10, #1
ARM GAS  C:\Users\jo\AppData\Local\Temp\ccK7XbRr.s 			page 40


 2213              	.LVL294:
 2214 0034 C9B2     		uxtb	r1, r1
 2215 0036 5246     		mov	r2, r10
 2216 0038 2046     		mov	r0, r4
 2217 003a FFF7FEFF 		bl	memset
 2218              	.LVL295:
 2219              		.loc 1 172 0 discriminator 3
 2220 003e 41A8     		add	r0, sp, #260
 2221 0040 FFF7FEFF 		bl	sha1_starts
 2222              	.LVL296:
 2223              		.loc 1 173 0 discriminator 3
 2224 0044 41A8     		add	r0, sp, #260
 2225 0046 2146     		mov	r1, r4
 2226 0048 5246     		mov	r2, r10
 2227 004a FFF7FEFF 		bl	sha1_update
 2228              	.LVL297:
 2229              		.loc 1 174 0 discriminator 3
 2230 004e 41A8     		add	r0, sp, #260
 2231 0050 4146     		mov	r1, r8
 2232 0052 4A46     		mov	r2, r9
 2233 0054 FFF7FEFF 		bl	sha1_update
 2234              	.LVL298:
 2235              		.loc 1 175 0 discriminator 3
 2236 0058 829A     		ldr	r2, [sp, #520]
 2237 005a 0199     		ldr	r1, [sp, #4]
 2238 005c 41A8     		add	r0, sp, #260
 2239 005e FFF7FEFF 		bl	sha1_update
 2240              	.LVL299:
 2241              		.loc 1 176 0 discriminator 3
 2242 0062 3146     		mov	r1, r6
 2243 0064 41A8     		add	r0, sp, #260
 2244 0066 FFF7FEFF 		bl	sha1_finish
 2245              	.LVL300:
 2246              		.loc 1 178 0 discriminator 3
 2247 006a 2846     		mov	r0, r5
 2248 006c FFF7FEFF 		bl	md5_starts
 2249              	.LVL301:
 2250              		.loc 1 179 0 discriminator 3
 2251 0070 2846     		mov	r0, r5
 2252 0072 4146     		mov	r1, r8
 2253 0074 4A46     		mov	r2, r9
 2254 0076 FFF7FEFF 		bl	md5_update
 2255              	.LVL302:
 2256              		.loc 1 180 0 discriminator 3
 2257 007a 2846     		mov	r0, r5
 2258 007c 3146     		mov	r1, r6
 2259 007e 1422     		movs	r2, #20
 2260 0080 FFF7FEFF 		bl	md5_update
 2261              	.LVL303:
 2262              		.loc 1 181 0 discriminator 3
 2263 0084 3946     		mov	r1, r7
 2264 0086 2846     		mov	r0, r5
 2265 0088 FFF7FEFF 		bl	md5_finish
 2266              	.LVL304:
 2267              		.loc 1 168 0 discriminator 3
 2268 008c DA45     		cmp	r10, fp
 2269 008e 07F11007 		add	r7, r7, #16
ARM GAS  C:\Users\jo\AppData\Local\Temp\ccK7XbRr.s 			page 41


 2270 0092 CBD1     		bne	.L147
 2271              	.LVL305:
 2272              	.L148:
 2273              		.loc 1 184 0
 2274 0094 2846     		mov	r0, r5
 2275 0096 FFF7FEFF 		bl	md5_free
 2276              	.LVL306:
 2277              		.loc 1 185 0
 2278 009a 41A8     		add	r0, sp, #260
 2279 009c FFF7FEFF 		bl	sha1_free
 2280              	.LVL307:
 2281              	.LBB133:
 2282              	.LBB134:
 2283              		.loc 1 64 0
 2284 00a0 0023     		movs	r3, #0
 2285              	.LVL308:
 2286              	.L146:
 2287 00a2 2370     		strb	r3, [r4]
 2288              	.LVL309:
 2289 00a4 0134     		adds	r4, r4, #1
 2290              	.LVL310:
 2291 00a6 B442     		cmp	r4, r6
 2292 00a8 FBD1     		bne	.L146
 2293              	.LBE134:
 2294              	.LBE133:
 2295              	.LBB135:
 2296              	.LBB136:
 2297 00aa 0023     		movs	r3, #0
 2298              	.LVL311:
 2299              	.L149:
 2300 00ac 2370     		strb	r3, [r4]
 2301              	.LVL312:
 2302 00ae 0134     		adds	r4, r4, #1
 2303              	.LVL313:
 2304 00b0 AC42     		cmp	r4, r5
 2305 00b2 FBD1     		bne	.L149
 2306              	.LBE136:
 2307              	.LBE135:
 2308              		.loc 1 191 0
 2309 00b4 0020     		movs	r0, #0
 2310 00b6 79B0     		add	sp, sp, #484
 2311              		.cfi_remember_state
 2312              		.cfi_def_cfa_offset 36
 2313              		@ sp needed
 2314 00b8 BDE8F08F 		pop	{r4, r5, r6, r7, r8, r9, r10, fp, pc}
 2315              	.LVL314:
 2316              	.L154:
 2317              		.cfi_restore_state
 2318 00bc 02AC     		add	r4, sp, #8
 2319 00be 06AE     		add	r6, sp, #24
 2320 00c0 E8E7     		b	.L148
 2321              		.cfi_endproc
 2322              	.LFE16:
 2323              		.size	ssl3_prf, .-ssl3_prf
 2324 00c2 00BFAFF3 		.section	.text.ssl_mac,"ax",%progbits
 2324      0080AFF3 
 2324      0080AFF3 
ARM GAS  C:\Users\jo\AppData\Local\Temp\ccK7XbRr.s 			page 42


 2324      0080
 2325              		.align	2
 2326              		.p2align 4,,15
 2327              		.thumb
 2328              		.thumb_func
 2329              		.type	ssl_mac, %function
 2330              	ssl_mac:
 2331              	.LFB26:
 2332              		.loc 1 1047 0
 2333              		.cfi_startproc
 2334              		@ args = 8, pretend = 0, frame = 64
 2335              		@ frame_needed = 0, uses_anonymous_args = 0
 2336              	.LVL315:
 2337 0000 2DE9F047 		push	{r4, r5, r6, r7, r8, r9, r10, lr}
 2338              		.cfi_def_cfa_offset 32
 2339              		.cfi_offset 4, -32
 2340              		.cfi_offset 5, -28
 2341              		.cfi_offset 6, -24
 2342              		.cfi_offset 7, -20
 2343              		.cfi_offset 8, -16
 2344              		.cfi_offset 9, -12
 2345              		.cfi_offset 10, -8
 2346              		.cfi_offset 14, -4
 2347              		.loc 1 1051 0
 2348 0004 0568     		ldr	r5, [r0]
 2349              	.LVL316:
 2350              		.loc 1 1047 0
 2351 0006 90B0     		sub	sp, sp, #64
 2352              		.cfi_def_cfa_offset 96
 2353              		.loc 1 1047 0
 2354 0008 8846     		mov	r8, r1
 2355 000a 0446     		mov	r4, r0
 2356 000c 1899     		ldr	r1, [sp, #96]
 2357              	.LVL317:
 2358 000e 199E     		ldr	r6, [sp, #100]
 2359 0010 9246     		mov	r10, r2
 2360 0012 1F46     		mov	r7, r3
 2361              	.LBB137:
 2362              	.LBB138:
 2363              		.file 2 "../../../ext/mbedtls-1.3.11/library/../include/polarssl/md.h"
 2364              		.loc 2 232 0
 2365 0014 25B1     		cbz	r5, .L158
 2366              	.LBE138:
 2367              	.LBE137:
 2368              		.loc 1 1052 0
 2369 0016 2B78     		ldrb	r3, [r5]	@ zero_extendqisi2
 2370              	.LVL318:
 2371              	.LBB141:
 2372              	.LBB139:
 2373              		.loc 2 235 0
 2374 0018 AD68     		ldr	r5, [r5, #8]
 2375              	.LVL319:
 2376              	.LBE139:
 2377              	.LBE141:
 2378              		.loc 1 1055 0
 2379 001a 032B     		cmp	r3, #3
 2380 001c EDB2     		uxtb	r5, r5
ARM GAS  C:\Users\jo\AppData\Local\Temp\ccK7XbRr.s 			page 43


 2381 001e 4BD0     		beq	.L160
 2382              	.LVL320:
 2383              	.L158:
 2384              	.LBB142:
 2385              	.LBB140:
 2386              		.loc 2 232 0
 2387 0020 4FF02809 		mov	r9, #40
 2388              	.L156:
 2389              	.LBE140:
 2390              	.LBE142:
 2391              		.loc 1 1060 0
 2392 0024 0868     		ldr	r0, [r1]	@ unaligned
 2393              	.LVL321:
 2394 0026 4968     		ldr	r1, [r1, #4]	@ unaligned
 2395 0028 01AA     		add	r2, sp, #4
 2396              	.LVL322:
 2397              		.loc 1 1062 0
 2398 002a 3B0A     		lsrs	r3, r7, #8
 2399              		.loc 1 1060 0
 2400 002c 03C2     		stmia	r2!, {r0, r1}
 2401              		.loc 1 1065 0
 2402 002e 4A46     		mov	r2, r9
 2403 0030 3621     		movs	r1, #54
 2404 0032 04A8     		add	r0, sp, #16
 2405              		.loc 1 1062 0
 2406 0034 8DF80D30 		strb	r3, [sp, #13]
 2407              		.loc 1 1061 0
 2408 0038 8DF80C60 		strb	r6, [sp, #12]
 2409              		.loc 1 1063 0
 2410 003c 8DF80E70 		strb	r7, [sp, #14]
 2411              		.loc 1 1065 0
 2412 0040 FFF7FEFF 		bl	memset
 2413              	.LVL323:
 2414              		.loc 1 1066 0
 2415 0044 2046     		mov	r0, r4
 2416 0046 FFF7FEFF 		bl	md_starts
 2417              	.LVL324:
 2418              		.loc 1 1067 0
 2419 004a 4146     		mov	r1, r8
 2420 004c 2A46     		mov	r2, r5
 2421 004e 2046     		mov	r0, r4
 2422 0050 FFF7FEFF 		bl	md_update
 2423              	.LVL325:
 2424              		.loc 1 1068 0
 2425 0054 04A9     		add	r1, sp, #16
 2426 0056 4A46     		mov	r2, r9
 2427 0058 2046     		mov	r0, r4
 2428 005a FFF7FEFF 		bl	md_update
 2429              	.LVL326:
 2430              		.loc 1 1069 0
 2431 005e 01A9     		add	r1, sp, #4
 2432 0060 2046     		mov	r0, r4
 2433 0062 0B22     		movs	r2, #11
 2434 0064 FFF7FEFF 		bl	md_update
 2435              	.LVL327:
 2436              		.loc 1 1070 0
 2437 0068 5146     		mov	r1, r10
ARM GAS  C:\Users\jo\AppData\Local\Temp\ccK7XbRr.s 			page 44


 2438              		.loc 1 1071 0
 2439 006a CE19     		adds	r6, r1, r7
 2440              		.loc 1 1070 0
 2441 006c 3A46     		mov	r2, r7
 2442 006e 2046     		mov	r0, r4
 2443 0070 FFF7FEFF 		bl	md_update
 2444              	.LVL328:
 2445              		.loc 1 1071 0
 2446 0074 3146     		mov	r1, r6
 2447 0076 2046     		mov	r0, r4
 2448 0078 FFF7FEFF 		bl	md_finish
 2449              	.LVL329:
 2450              		.loc 1 1073 0
 2451 007c 4A46     		mov	r2, r9
 2452 007e 5C21     		movs	r1, #92
 2453 0080 04A8     		add	r0, sp, #16
 2454 0082 FFF7FEFF 		bl	memset
 2455              	.LVL330:
 2456              		.loc 1 1074 0
 2457 0086 2046     		mov	r0, r4
 2458 0088 FFF7FEFF 		bl	md_starts
 2459              	.LVL331:
 2460              		.loc 1 1075 0
 2461 008c 4146     		mov	r1, r8
 2462 008e 2A46     		mov	r2, r5
 2463 0090 2046     		mov	r0, r4
 2464 0092 FFF7FEFF 		bl	md_update
 2465              	.LVL332:
 2466              		.loc 1 1076 0
 2467 0096 04A9     		add	r1, sp, #16
 2468 0098 4A46     		mov	r2, r9
 2469 009a 2046     		mov	r0, r4
 2470 009c FFF7FEFF 		bl	md_update
 2471              	.LVL333:
 2472              		.loc 1 1077 0
 2473 00a0 3146     		mov	r1, r6
 2474 00a2 2A46     		mov	r2, r5
 2475 00a4 2046     		mov	r0, r4
 2476 00a6 FFF7FEFF 		bl	md_update
 2477              	.LVL334:
 2478              		.loc 1 1078 0
 2479 00aa 2046     		mov	r0, r4
 2480 00ac 3146     		mov	r1, r6
 2481 00ae FFF7FEFF 		bl	md_finish
 2482              	.LVL335:
 2483              		.loc 1 1079 0
 2484 00b2 10B0     		add	sp, sp, #64
 2485              		.cfi_remember_state
 2486              		.cfi_def_cfa_offset 32
 2487              		@ sp needed
 2488 00b4 BDE8F087 		pop	{r4, r5, r6, r7, r8, r9, r10, pc}
 2489              	.LVL336:
 2490              	.L160:
 2491              		.cfi_restore_state
 2492              		.loc 1 1055 0
 2493 00b8 4FF03009 		mov	r9, #48
 2494 00bc B2E7     		b	.L156
ARM GAS  C:\Users\jo\AppData\Local\Temp\ccK7XbRr.s 			page 45


 2495              		.cfi_endproc
 2496              	.LFE26:
 2497              		.size	ssl_mac, .-ssl_mac
 2498 00be 00BF     		.section	.text.ssl_update_checksum_sha256,"ax",%progbits
 2499              		.align	2
 2500              		.p2align 4,,15
 2501              		.thumb
 2502              		.thumb_func
 2503              		.type	ssl_update_checksum_sha256, %function
 2504              	ssl_update_checksum_sha256:
 2505              	.LFB42:
 2506              		.loc 1 3002 0
 2507              		.cfi_startproc
 2508              		@ args = 0, pretend = 0, frame = 0
 2509              		@ frame_needed = 0, uses_anonymous_args = 0
 2510              		@ link register save eliminated.
 2511              	.LVL337:
 2512              		.loc 1 3003 0
 2513 0000 D0F88400 		ldr	r0, [r0, #132]
 2514              	.LVL338:
 2515 0004 00F55F70 		add	r0, r0, #892
 2516 0008 FFF7FEBF 		b	sha256_update
 2517              	.LVL339:
 2518              		.cfi_endproc
 2519              	.LFE42:
 2520              		.size	ssl_update_checksum_sha256, .-ssl_update_checksum_sha256
 2521 000c AFF30080 		.section	.text.ssl_update_checksum_sha384,"ax",%progbits
 2522              		.align	2
 2523              		.p2align 4,,15
 2524              		.thumb
 2525              		.thumb_func
 2526              		.type	ssl_update_checksum_sha384, %function
 2527              	ssl_update_checksum_sha384:
 2528              	.LFB43:
 2529              		.loc 1 3010 0
 2530              		.cfi_startproc
 2531              		@ args = 0, pretend = 0, frame = 0
 2532              		@ frame_needed = 0, uses_anonymous_args = 0
 2533              		@ link register save eliminated.
 2534              	.LVL340:
 2535              		.loc 1 3011 0
 2536 0000 D0F88400 		ldr	r0, [r0, #132]
 2537              	.LVL341:
 2538 0004 00F58D60 		add	r0, r0, #1128
 2539 0008 FFF7FEBF 		b	sha512_update
 2540              	.LVL342:
 2541              		.cfi_endproc
 2542              	.LFE43:
 2543              		.size	ssl_update_checksum_sha384, .-ssl_update_checksum_sha384
 2544 000c AFF30080 		.section	.text.ssl_update_checksum_start,"ax",%progbits
 2545              		.align	2
 2546              		.p2align 4,,15
 2547              		.thumb
 2548              		.thumb_func
 2549              		.type	ssl_update_checksum_start, %function
 2550              	ssl_update_checksum_start:
 2551              	.LFB40:
ARM GAS  C:\Users\jo\AppData\Local\Temp\ccK7XbRr.s 			page 46


 2552              		.loc 1 2972 0
 2553              		.cfi_startproc
 2554              		@ args = 0, pretend = 0, frame = 0
 2555              		@ frame_needed = 0, uses_anonymous_args = 0
 2556              	.LVL343:
 2557 0000 70B5     		push	{r4, r5, r6, lr}
 2558              		.cfi_def_cfa_offset 16
 2559              		.cfi_offset 4, -16
 2560              		.cfi_offset 5, -12
 2561              		.cfi_offset 6, -8
 2562              		.cfi_offset 14, -4
 2563              		.loc 1 2972 0
 2564 0002 0446     		mov	r4, r0
 2565              		.loc 1 2975 0
 2566 0004 D0F88400 		ldr	r0, [r0, #132]
 2567              	.LVL344:
 2568 0008 00F5E470 		add	r0, r0, #456
 2569              		.loc 1 2972 0
 2570 000c 0E46     		mov	r6, r1
 2571 000e 1546     		mov	r5, r2
 2572              		.loc 1 2975 0
 2573 0010 FFF7FEFF 		bl	md5_update
 2574              	.LVL345:
 2575              		.loc 1 2976 0
 2576 0014 D4F88400 		ldr	r0, [r4, #132]
 2577 0018 3146     		mov	r1, r6
 2578 001a 2A46     		mov	r2, r5
 2579 001c 00F52870 		add	r0, r0, #672
 2580 0020 FFF7FEFF 		bl	sha1_update
 2581              	.LVL346:
 2582              		.loc 1 2980 0
 2583 0024 D4F88400 		ldr	r0, [r4, #132]
 2584 0028 3146     		mov	r1, r6
 2585 002a 2A46     		mov	r2, r5
 2586 002c 00F55F70 		add	r0, r0, #892
 2587 0030 FFF7FEFF 		bl	sha256_update
 2588              	.LVL347:
 2589              		.loc 1 2983 0
 2590 0034 D4F88400 		ldr	r0, [r4, #132]
 2591 0038 3146     		mov	r1, r6
 2592 003a 2A46     		mov	r2, r5
 2593 003c 00F58D60 		add	r0, r0, #1128
 2594              		.loc 1 2986 0
 2595 0040 BDE87040 		pop	{r4, r5, r6, lr}
 2596              		.cfi_restore 14
 2597              		.cfi_restore 6
 2598              		.cfi_restore 5
 2599              		.cfi_restore 4
 2600              		.cfi_def_cfa_offset 0
 2601              	.LVL348:
 2602              		.loc 1 2983 0
 2603 0044 FFF7FEBF 		b	sha512_update
 2604              	.LVL349:
 2605              		.cfi_endproc
 2606              	.LFE40:
 2607              		.size	ssl_update_checksum_start, .-ssl_update_checksum_start
 2608 0048 AFF30080 		.section	.text.ssl_ticket_keys_free,"ax",%progbits
ARM GAS  C:\Users\jo\AppData\Local\Temp\ccK7XbRr.s 			page 47


 2608      AFF30080 
 2609              		.align	2
 2610              		.p2align 4,,15
 2611              		.thumb
 2612              		.thumb_func
 2613              		.type	ssl_ticket_keys_free, %function
 2614              	ssl_ticket_keys_free:
 2615              	.LFB57:
 2616              		.loc 1 3759 0
 2617              		.cfi_startproc
 2618              		@ args = 0, pretend = 0, frame = 0
 2619              		@ frame_needed = 0, uses_anonymous_args = 0
 2620              	.LVL350:
 2621 0000 10B5     		push	{r4, lr}
 2622              		.cfi_def_cfa_offset 8
 2623              		.cfi_offset 4, -8
 2624              		.cfi_offset 14, -4
 2625              		.loc 1 3759 0
 2626 0002 0446     		mov	r4, r0
 2627              		.loc 1 3760 0
 2628 0004 1030     		adds	r0, r0, #16
 2629              	.LVL351:
 2630 0006 FFF7FEFF 		bl	aes_free
 2631              	.LVL352:
 2632              		.loc 1 3761 0
 2633 000a 04F59470 		add	r0, r4, #296
 2634 000e FFF7FEFF 		bl	aes_free
 2635              	.LVL353:
 2636 0012 04F51472 		add	r2, r4, #592
 2637              	.LBB143:
 2638              	.LBB144:
 2639              		.loc 1 64 0
 2640 0016 0023     		movs	r3, #0
 2641              	.LVL354:
 2642              	.L166:
 2643 0018 2370     		strb	r3, [r4]
 2644              	.LVL355:
 2645 001a 0134     		adds	r4, r4, #1
 2646              	.LVL356:
 2647 001c 9442     		cmp	r4, r2
 2648 001e FBD1     		bne	.L166
 2649              	.LBE144:
 2650              	.LBE143:
 2651              		.loc 1 3764 0
 2652 0020 10BD     		pop	{r4, pc}
 2653              		.cfi_endproc
 2654              	.LFE57:
 2655              		.size	ssl_ticket_keys_free, .-ssl_ticket_keys_free
 2656              		.section	.text.ssl_add_key_cert.isra.1,"ax",%progbits
 2657              		.align	2
 2658              		.p2align 4,,15
 2659              		.thumb
 2660              		.thumb_func
 2661              		.type	ssl_add_key_cert.isra.1, %function
 2662              	ssl_add_key_cert.isra.1:
 2663              	.LFB121:
 2664              		.loc 1 3931 0
ARM GAS  C:\Users\jo\AppData\Local\Temp\ccK7XbRr.s 			page 48


 2665              		.cfi_startproc
 2666              		@ args = 0, pretend = 0, frame = 0
 2667              		@ frame_needed = 0, uses_anonymous_args = 0
 2668              	.LVL357:
 2669 0000 70B5     		push	{r4, r5, r6, lr}
 2670              		.cfi_def_cfa_offset 16
 2671              		.cfi_offset 4, -16
 2672              		.cfi_offset 5, -12
 2673              		.cfi_offset 6, -8
 2674              		.cfi_offset 14, -4
 2675              		.loc 1 3931 0
 2676 0002 0646     		mov	r6, r0
 2677              		.loc 1 3935 0
 2678 0004 1020     		movs	r0, #16
 2679              		.loc 1 3931 0
 2680 0006 0D46     		mov	r5, r1
 2681              		.loc 1 3935 0
 2682 0008 FFF7FEFF 		bl	malloc
 2683              	.LVL358:
 2684              		.loc 1 3936 0
 2685 000c 80B1     		cbz	r0, .L170
 2686              		.loc 1 3939 0
 2687 000e 0346     		mov	r3, r0
 2688 0010 0024     		movs	r4, #0
 2689 0012 43F8044B 		str	r4, [r3], #4
 2690 0016 0433     		adds	r3, r3, #4
 2691 0018 4460     		str	r4, [r0, #4]
 2692              		.loc 1 3942 0
 2693 001a 2A68     		ldr	r2, [r5]
 2694              		.loc 1 3939 0
 2695 001c 43F8044B 		str	r4, [r3], #4
 2696 0020 1C60     		str	r4, [r3]
 2697              		.loc 1 3942 0
 2698 0022 0AB9     		cbnz	r2, .L172
 2699 0024 05E0     		b	.L179
 2700              	.LVL359:
 2701              	.L175:
 2702              		.loc 1 3951 0
 2703 0026 1A46     		mov	r2, r3
 2704              	.LVL360:
 2705              	.L172:
 2706 0028 D368     		ldr	r3, [r2, #12]
 2707 002a 002B     		cmp	r3, #0
 2708 002c FBD1     		bne	.L175
 2709              		.loc 1 3953 0
 2710 002e D060     		str	r0, [r2, #12]
 2711              	.LVL361:
 2712              	.L170:
 2713              		.loc 1 3957 0
 2714 0030 70BD     		pop	{r4, r5, r6, pc}
 2715              	.L179:
 2716              		.loc 1 3944 0
 2717 0032 2860     		str	r0, [r5]
 2718              		.loc 1 3945 0
 2719 0034 3368     		ldr	r3, [r6]
 2720 0036 002B     		cmp	r3, #0
 2721 0038 FAD0     		beq	.L170
ARM GAS  C:\Users\jo\AppData\Local\Temp\ccK7XbRr.s 			page 49


 2722              		.loc 1 3946 0
 2723 003a C3F8C001 		str	r0, [r3, #448]
 2724 003e 70BD     		pop	{r4, r5, r6, pc}
 2725              		.cfi_endproc
 2726              	.LFE121:
 2727              		.size	ssl_add_key_cert.isra.1, .-ssl_add_key_cert.isra.1
 2728              		.section	.text.ssl_derive_keys,"ax",%progbits
 2729              		.align	2
 2730              		.p2align 4,,15
 2731              		.global	ssl_derive_keys
 2732              		.thumb
 2733              		.thumb_func
 2734              		.type	ssl_derive_keys, %function
 2735              	ssl_derive_keys:
 2736              	.LFB20:
 2737              		.loc 1 375 0
 2738              		.cfi_startproc
 2739              		@ args = 0, pretend = 0, frame = 336
 2740              		@ frame_needed = 0, uses_anonymous_args = 0
 2741              	.LVL362:
 2742 0000 2DE9F04F 		push	{r4, r5, r6, r7, r8, r9, r10, fp, lr}
 2743              		.cfi_def_cfa_offset 36
 2744              		.cfi_offset 4, -36
 2745              		.cfi_offset 5, -32
 2746              		.cfi_offset 6, -28
 2747              		.cfi_offset 7, -24
 2748              		.cfi_offset 8, -20
 2749              		.cfi_offset 9, -16
 2750              		.cfi_offset 10, -12
 2751              		.cfi_offset 11, -8
 2752              		.cfi_offset 14, -4
 2753 0004 8046     		mov	r8, r0
 2754 0006 D9B0     		sub	sp, sp, #356
 2755              		.cfi_def_cfa_offset 392
 2756              		.loc 1 387 0
 2757 0008 D8F88030 		ldr	r3, [r8, #128]
 2758              		.loc 1 391 0
 2759 000c B948     		ldr	r0, .L257
 2760              	.LVL363:
 2761              		.loc 1 387 0
 2762 000e 0593     		str	r3, [sp, #20]
 2763              	.LVL364:
 2764              		.loc 1 388 0
 2765 0010 D8F89460 		ldr	r6, [r8, #148]
 2766              	.LVL365:
 2767              		.loc 1 389 0
 2768 0014 D8F88490 		ldr	r9, [r8, #132]
 2769              	.LVL366:
 2770              		.loc 1 391 0
 2771 0018 FFF7FEFF 		bl	debug_fmt
 2772              	.LVL367:
 2773 001c 0221     		movs	r1, #2
 2774 001e 0090     		str	r0, [sp]
 2775 0020 B54A     		ldr	r2, .L257+4
 2776 0022 4046     		mov	r0, r8
 2777 0024 40F28713 		movw	r3, #391
 2778 0028 FFF7FEFF 		bl	debug_print_msg
ARM GAS  C:\Users\jo\AppData\Local\Temp\ccK7XbRr.s 			page 50


 2779              	.LVL368:
 2780              		.loc 1 393 0
 2781 002c 3368     		ldr	r3, [r6]
 2782 002e 187A     		ldrb	r0, [r3, #8]	@ zero_extendqisi2
 2783 0030 FFF7FEFF 		bl	cipher_info_from_type
 2784              	.LVL369:
 2785              		.loc 1 394 0
 2786 0034 0490     		str	r0, [sp, #16]
 2787 0036 0028     		cmp	r0, #0
 2788 0038 00F02683 		beq	.L242
 2789              		.loc 1 401 0
 2790 003c 3368     		ldr	r3, [r6]
 2791 003e 587A     		ldrb	r0, [r3, #9]	@ zero_extendqisi2
 2792              	.LVL370:
 2793 0040 FFF7FEFF 		bl	md_info_from_type
 2794              	.LVL371:
 2795              		.loc 1 402 0
 2796 0044 0790     		str	r0, [sp, #28]
 2797 0046 0028     		cmp	r0, #0
 2798 0048 00F03A83 		beq	.L243
 2799              		.loc 1 413 0
 2800 004c D8F81030 		ldr	r3, [r8, #16]
 2801 0050 002B     		cmp	r3, #0
 2802 0052 3FD1     		bne	.L184
 2803              		.loc 1 415 0
 2804 0054 A949     		ldr	r1, .L257+8
 2805              		.loc 1 416 0
 2806 0056 AA4A     		ldr	r2, .L257+12
 2807              		.loc 1 417 0
 2808 0058 AA4B     		ldr	r3, .L257+16
 2809              		.loc 1 415 0
 2810 005a C9F84C16 		str	r1, [r9, #1612]
 2811              		.loc 1 416 0
 2812 005e C9F84426 		str	r2, [r9, #1604]
 2813              		.loc 1 417 0
 2814 0062 C9F84836 		str	r3, [r9, #1608]
 2815              	.L185:
 2816              		.loc 1 466 0
 2817 0066 D9F8B83A 		ldr	r3, [r9, #2744]
 2818 006a 002B     		cmp	r3, #0
 2819 006c 42D1     		bne	.L189
 2820              	.L245:
 2821              		.loc 1 468 0
 2822 006e A64B     		ldr	r3, .L257+20
 2823 0070 A14A     		ldr	r2, .L257+4
 2824 0072 09F2946A 		addw	r10, r9, #1684
 2825 0076 8DE80804 		stmia	sp, {r3, r10}
 2826 007a D9F85036 		ldr	r3, [r9, #1616]
 2827 007e 0293     		str	r3, [sp, #8]
 2828 0080 4046     		mov	r0, r8
 2829              	.LVL372:
 2830 0082 40F2D513 		movw	r3, #469
 2831 0086 0321     		movs	r1, #3
 2832 0088 FFF7FEFF 		bl	debug_print_buf
 2833              	.LVL373:
 2834              		.loc 1 472 0
 2835 008c D8F88430 		ldr	r3, [r8, #132]
ARM GAS  C:\Users\jo\AppData\Local\Temp\ccK7XbRr.s 			page 51


 2836 0090 D3F8CC3A 		ldr	r3, [r3, #2764]
 2837 0094 012B     		cmp	r3, #1
 2838              		.loc 1 468 0
 2839 0096 5446     		mov	r4, r10
 2840              		.loc 1 472 0
 2841 0098 00F02C82 		beq	.L244
 2842              		.loc 1 509 0
 2843 009c 059B     		ldr	r3, [sp, #20]
 2844              		.loc 1 507 0
 2845 009e D9F85016 		ldr	r1, [r9, #1616]
 2846              		.loc 1 509 0
 2847 00a2 3033     		adds	r3, r3, #48
 2848              		.loc 1 507 0
 2849 00a4 0193     		str	r3, [sp, #4]
 2850              		.loc 1 509 0
 2851 00a6 0693     		str	r3, [sp, #24]
 2852              		.loc 1 507 0
 2853 00a8 4022     		movs	r2, #64
 2854 00aa 3023     		movs	r3, #48
 2855 00ac 0092     		str	r2, [sp]
 2856 00ae 0293     		str	r3, [sp, #8]
 2857              		.loc 1 509 0
 2858 00b0 09F25467 		addw	r7, r9, #1620
 2859              		.loc 1 507 0
 2860 00b4 D9F84C56 		ldr	r5, [r9, #1612]
 2861 00b8 944A     		ldr	r2, .L257+24
 2862 00ba 3B46     		mov	r3, r7
 2863 00bc 5046     		mov	r0, r10
 2864 00be A847     		blx	r5
 2865              	.LVL374:
 2866 00c0 18AD     		add	r5, sp, #96
 2867              	.L193:
 2868              	.LVL375:
 2869 00c2 09F6B822 		addw	r2, r9, #2744
 2870              	.LBB145:
 2871              	.LBB146:
 2872              		.loc 1 64 0
 2873 00c6 0023     		movs	r3, #0
 2874              	.LVL376:
 2875              	.L192:
 2876 00c8 2370     		strb	r3, [r4]
 2877              	.LVL377:
 2878 00ca 0134     		adds	r4, r4, #1
 2879              	.LVL378:
 2880 00cc 9442     		cmp	r4, r2
 2881 00ce FBD1     		bne	.L192
 2882 00d0 3C46     		mov	r4, r7
 2883              	.LVL379:
 2884 00d2 23E0     		b	.L194
 2885              	.LVL380:
 2886              	.L184:
 2887              	.LBE146:
 2888              	.LBE145:
 2889              		.loc 1 422 0
 2890 00d4 022B     		cmp	r3, #2
 2891 00d6 00F3EE80 		bgt	.L186
 2892              		.loc 1 426 0
ARM GAS  C:\Users\jo\AppData\Local\Temp\ccK7XbRr.s 			page 52


 2893 00da 8D4B     		ldr	r3, .L257+28
 2894 00dc C9F84836 		str	r3, [r9, #1608]
 2895              		.loc 1 466 0
 2896 00e0 D9F8B83A 		ldr	r3, [r9, #2744]
 2897              		.loc 1 424 0
 2898 00e4 8B49     		ldr	r1, .L257+32
 2899              		.loc 1 425 0
 2900 00e6 8C4A     		ldr	r2, .L257+36
 2901              		.loc 1 424 0
 2902 00e8 C9F84C16 		str	r1, [r9, #1612]
 2903              		.loc 1 425 0
 2904 00ec C9F84426 		str	r2, [r9, #1604]
 2905              		.loc 1 466 0
 2906 00f0 002B     		cmp	r3, #0
 2907 00f2 BCD0     		beq	.L245
 2908              	.L189:
 2909              		.loc 1 515 0
 2910 00f4 8948     		ldr	r0, .L257+40
 2911              	.LVL381:
 2912 00f6 FFF7FEFF 		bl	debug_fmt
 2913              	.LVL382:
 2914 00fa 40F20323 		movw	r3, #515
 2915 00fe 0090     		str	r0, [sp]
 2916 0100 0321     		movs	r1, #3
 2917 0102 7D4A     		ldr	r2, .L257+4
 2918 0104 4046     		mov	r0, r8
 2919 0106 FFF7FEFF 		bl	debug_print_msg
 2920              	.LVL383:
 2921 010a 059B     		ldr	r3, [sp, #20]
 2922 010c 09F25467 		addw	r7, r9, #1620
 2923 0110 3033     		adds	r3, r3, #48
 2924 0112 3C46     		mov	r4, r7
 2925 0114 0693     		str	r3, [sp, #24]
 2926 0116 09F2946A 		addw	r10, r9, #1684
 2927 011a 18AD     		add	r5, sp, #96
 2928              	.L194:
 2929              		.loc 1 520 0
 2930 011c 0DF1200B 		add	fp, sp, #32
 2931 0120 BE46     		mov	lr, r7
 2932              	.LVL384:
 2933              	.L195:
 2934 0122 DEF80000 		ldr	r0, [lr]	@ unaligned
 2935 0126 DEF80410 		ldr	r1, [lr, #4]	@ unaligned
 2936 012a DEF80820 		ldr	r2, [lr, #8]	@ unaligned
 2937 012e DEF80C30 		ldr	r3, [lr, #12]	@ unaligned
 2938 0132 DC46     		mov	ip, fp
 2939 0134 ACE80F00 		stmia	ip!, {r0, r1, r2, r3}
 2940 0138 0EF1100E 		add	lr, lr, #16
 2941 013c D645     		cmp	lr, r10
 2942 013e E346     		mov	fp, ip
 2943 0140 EFD1     		bne	.L195
 2944              		.loc 1 521 0
 2945 0142 0DF1400E 		add	lr, sp, #64
 2946 0146 BEE80F00 		ldmia	lr!, {r0, r1, r2, r3}
 2947 014a 3860     		str	r0, [r7]	@ unaligned
 2948 014c 7960     		str	r1, [r7, #4]	@ unaligned
 2949 014e BA60     		str	r2, [r7, #8]	@ unaligned
ARM GAS  C:\Users\jo\AppData\Local\Temp\ccK7XbRr.s 			page 53


 2950 0150 FB60     		str	r3, [r7, #12]	@ unaligned
 2951 0152 BEE80F00 		ldmia	lr!, {r0, r1, r2, r3}
 2952              		.loc 1 522 0
 2953 0156 0DF1200E 		add	lr, sp, #32
 2954              		.loc 1 521 0
 2955 015a 3861     		str	r0, [r7, #16]	@ unaligned
 2956 015c 7961     		str	r1, [r7, #20]	@ unaligned
 2957 015e BA61     		str	r2, [r7, #24]	@ unaligned
 2958 0160 FB61     		str	r3, [r7, #28]	@ unaligned
 2959              		.loc 1 522 0
 2960 0162 BEE80F00 		ldmia	lr!, {r0, r1, r2, r3}
 2961 0166 C9F87406 		str	r0, [r9, #1652]	@ unaligned
 2962 016a C9F87816 		str	r1, [r9, #1656]	@ unaligned
 2963 016e C9F87C26 		str	r2, [r9, #1660]	@ unaligned
 2964 0172 C9F88036 		str	r3, [r9, #1664]	@ unaligned
 2965 0176 BEE80F00 		ldmia	lr!, {r0, r1, r2, r3}
 2966              	.LBB147:
 2967              	.LBB148:
 2968              		.loc 1 64 0
 2969 017a 0DF1200E 		add	lr, sp, #32
 2970              	.LBE148:
 2971              	.LBE147:
 2972              		.loc 1 522 0
 2973 017e C9F89036 		str	r3, [r9, #1680]	@ unaligned
 2974              	.LVL385:
 2975 0182 C9F88406 		str	r0, [r9, #1668]	@ unaligned
 2976 0186 C9F88816 		str	r1, [r9, #1672]	@ unaligned
 2977 018a C9F88C26 		str	r2, [r9, #1676]	@ unaligned
 2978              	.LBB150:
 2979              	.LBB149:
 2980              		.loc 1 64 0
 2981 018e 0023     		movs	r3, #0
 2982              	.LVL386:
 2983              	.L196:
 2984 0190 8EF80030 		strb	r3, [lr]
 2985              	.LVL387:
 2986 0194 0EF1010E 		add	lr, lr, #1
 2987              	.LVL388:
 2988 0198 AE45     		cmp	lr, r5
 2989 019a F9D1     		bne	.L196
 2990              	.LBE149:
 2991              	.LBE150:
 2992              		.loc 1 537 0
 2993 019c 4FF0400B 		mov	fp, #64
 2994 01a0 4FF4807A 		mov	r10, #256
 2995 01a4 0195     		str	r5, [sp, #4]
 2996 01a6 CDF800B0 		str	fp, [sp]
 2997 01aa CDF808A0 		str	r10, [sp, #8]
 2998 01ae D9F84CC6 		ldr	ip, [r9, #1612]
 2999 01b2 DDF81890 		ldr	r9, [sp, #24]
 3000              	.LVL389:
 3001 01b6 5A4A     		ldr	r2, .L257+44
 3002 01b8 3021     		movs	r1, #48
 3003 01ba 3B46     		mov	r3, r7
 3004 01bc 4846     		mov	r0, r9
 3005 01be E047     		blx	ip
 3006              	.LVL390:
ARM GAS  C:\Users\jo\AppData\Local\Temp\ccK7XbRr.s 			page 54


 3007              		.loc 1 540 0
 3008 01c0 059B     		ldr	r3, [sp, #20]
 3009 01c2 5868     		ldr	r0, [r3, #4]
 3010 01c4 FFF7FEFF 		bl	ssl_get_ciphersuite_name
 3011              	.LVL391:
 3012 01c8 0146     		mov	r1, r0
 3013 01ca 5648     		ldr	r0, .L257+48
 3014 01cc FFF7FEFF 		bl	debug_fmt
 3015              	.LVL392:
 3016 01d0 0321     		movs	r1, #3
 3017 01d2 0090     		str	r0, [sp]
 3018 01d4 484A     		ldr	r2, .L257+4
 3019 01d6 4046     		mov	r0, r8
 3020 01d8 40F21D23 		movw	r3, #541
 3021 01dc FFF7FEFF 		bl	debug_print_msg
 3022              	.LVL393:
 3023              		.loc 1 542 0
 3024 01e0 4A4A     		ldr	r2, .L257+24
 3025 01e2 0092     		str	r2, [sp]
 3026 01e4 3023     		movs	r3, #48
 3027 01e6 0293     		str	r3, [sp, #8]
 3028 01e8 4046     		mov	r0, r8
 3029 01ea 0321     		movs	r1, #3
 3030 01ec 424A     		ldr	r2, .L257+4
 3031 01ee CDF80490 		str	r9, [sp, #4]
 3032 01f2 40F21E23 		movw	r3, #542
 3033 01f6 FFF7FEFF 		bl	debug_print_buf
 3034              	.LVL394:
 3035              		.loc 1 543 0
 3036 01fa 4B4B     		ldr	r3, .L257+52
 3037 01fc 3E4A     		ldr	r2, .L257+4
 3038 01fe 8DE88808 		stmia	sp, {r3, r7, fp}
 3039 0202 4046     		mov	r0, r8
 3040 0204 0421     		movs	r1, #4
 3041 0206 40F21F23 		movw	r3, #543
 3042 020a FFF7FEFF 		bl	debug_print_buf
 3043              	.LVL395:
 3044              		.loc 1 544 0
 3045 020e 474B     		ldr	r3, .L257+56
 3046 0210 394A     		ldr	r2, .L257+4
 3047 0212 8DE82804 		stmia	sp, {r3, r5, r10}
 3048 0216 4046     		mov	r0, r8
 3049 0218 4FF40873 		mov	r3, #544
 3050 021c 0421     		movs	r1, #4
 3051 021e FFF7FEFF 		bl	debug_print_buf
 3052              	.LVL396:
 3053 0222 5F44     		add	r7, r7, fp
 3054              	.LBB151:
 3055              	.LBB152:
 3056              		.loc 1 64 0
 3057 0224 0023     		movs	r3, #0
 3058              	.LVL397:
 3059              	.L197:
 3060 0226 2370     		strb	r3, [r4]
 3061              	.LVL398:
 3062 0228 0134     		adds	r4, r4, #1
 3063              	.LVL399:
ARM GAS  C:\Users\jo\AppData\Local\Temp\ccK7XbRr.s 			page 55


 3064 022a BC42     		cmp	r4, r7
 3065 022c FBD1     		bne	.L197
 3066              	.LBE152:
 3067              	.LBE151:
 3068              		.loc 1 552 0
 3069 022e 049A     		ldr	r2, [sp, #16]
 3070 0230 5168     		ldr	r1, [r2, #4]
 3071              		.loc 1 554 0
 3072 0232 5378     		ldrb	r3, [r2, #1]	@ zero_extendqisi2
 3073              		.loc 1 552 0
 3074 0234 C908     		lsrs	r1, r1, #3
 3075              		.loc 1 554 0
 3076 0236 062B     		cmp	r3, #6
 3077              		.loc 1 552 0
 3078 0238 7160     		str	r1, [r6, #4]
 3079              		.loc 1 554 0
 3080 023a 7FD0     		beq	.L198
 3081              		.loc 1 554 0 is_stmt 0 discriminator 1
 3082 023c 082B     		cmp	r3, #8
 3083 023e 7DD0     		beq	.L198
 3084              	.LBB153:
 3085              		.loc 1 572 0 is_stmt 1
 3086 0240 079F     		ldr	r7, [sp, #28]
 3087 0242 06F16000 		add	r0, r6, #96
 3088 0246 3946     		mov	r1, r7
 3089 0248 FFF7FEFF 		bl	md_init_ctx
 3090              	.LVL400:
 3091 024c 0446     		mov	r4, r0
 3092              	.LVL401:
 3093 024e 0028     		cmp	r0, #0
 3094 0250 41D1     		bne	.L202
 3095              		.loc 1 572 0 is_stmt 0 discriminator 1
 3096 0252 06F16800 		add	r0, r6, #104
 3097              	.LVL402:
 3098 0256 3946     		mov	r1, r7
 3099 0258 FFF7FEFF 		bl	md_init_ctx
 3100              	.LVL403:
 3101 025c 0446     		mov	r4, r0
 3102 025e 0028     		cmp	r0, #0
 3103 0260 39D1     		bne	.L202
 3104              	.LVL404:
 3105              		.loc 1 588 0 is_stmt 1
 3106 0262 059B     		ldr	r3, [sp, #20]
 3107 0264 079A     		ldr	r2, [sp, #28]
 3108 0266 9B6F     		ldr	r3, [r3, #120]
 3109              		.loc 1 596 0
 3110 0268 0499     		ldr	r1, [sp, #16]
 3111 026a 107A     		ldrb	r0, [r2, #8]	@ zero_extendqisi2
 3112              	.LVL405:
 3113 026c 4A78     		ldrb	r2, [r1, #1]	@ zero_extendqisi2
 3114              		.loc 1 580 0
 3115 026e 7061     		str	r0, [r6, #20]
 3116              		.loc 1 588 0
 3117 0270 012B     		cmp	r3, #1
 3118              		.loc 1 589 0
 3119 0272 04BF     		itt	eq
 3120 0274 0A20     		moveq	r0, #10
ARM GAS  C:\Users\jo\AppData\Local\Temp\ccK7XbRr.s 			page 56


 3121 0276 7061     		streq	r0, [r6, #20]
 3122              		.loc 1 593 0
 3123 0278 CB68     		ldr	r3, [r1, #12]
 3124 027a F360     		str	r3, [r6, #12]
 3125              		.loc 1 596 0
 3126 027c 072A     		cmp	r2, #7
 3127 027e 00F07681 		beq	.L246
 3128              		.loc 1 607 0
 3129 0282 059A     		ldr	r2, [sp, #20]
 3130 0284 D26F     		ldr	r2, [r2, #124]
 3131 0286 012A     		cmp	r2, #1
 3132              		.loc 1 610 0
 3133 0288 049A     		ldr	r2, [sp, #16]
 3134 028a 5269     		ldr	r2, [r2, #20]
 3135              		.loc 1 617 0
 3136 028c 16BF     		itet	ne
 3137 028e B0FBF2F1 		udivne	r1, r0, r2
 3138              		.loc 1 610 0
 3139 0292 1218     		addeq	r2, r2, r0
 3140              		.loc 1 617 0
 3141 0294 02FB0122 		mlane	r2, r2, r1, r2
 3142              		.loc 1 615 0
 3143 0298 B260     		str	r2, [r6, #8]
 3144              		.loc 1 621 0
 3145 029a D8F81020 		ldr	r2, [r8, #16]
 3146 029e 012A     		cmp	r2, #1
 3147 02a0 40F28281 		bls	.L208
 3148              		.loc 1 627 0
 3149 02a4 023A     		subs	r2, r2, #2
 3150 02a6 012A     		cmp	r2, #1
 3151 02a8 00F2FD81 		bhi	.L209
 3152              		.loc 1 630 0
 3153 02ac B268     		ldr	r2, [r6, #8]
 3154 02ae 7168     		ldr	r1, [r6, #4]
 3155 02b0 1A44     		add	r2, r2, r3
 3156 02b2 B260     		str	r2, [r6, #8]
 3157 02b4 50E0     		b	.L201
 3158              	.LVL406:
 3159              	.L186:
 3160              	.LBE153:
 3161              		.loc 1 432 0
 3162 02b6 032B     		cmp	r3, #3
 3163 02b8 00F0FF80 		beq	.L247
 3164              		.loc 1 452 0
 3165 02bc 1C48     		ldr	r0, .L257+60
 3166              	.LVL407:
 3167 02be FFF7FEFF 		bl	debug_fmt
 3168              	.LVL408:
 3169 02c2 0121     		movs	r1, #1
 3170 02c4 0090     		str	r0, [sp]
 3171 02c6 0C4A     		ldr	r2, .L257+4
 3172 02c8 4046     		mov	r0, r8
 3173 02ca 4FF4E273 		mov	r3, #452
 3174 02ce FFF7FEFF 		bl	debug_print_msg
 3175              	.LVL409:
 3176              		.loc 1 453 0
 3177 02d2 1848     		ldr	r0, .L257+64
ARM GAS  C:\Users\jo\AppData\Local\Temp\ccK7XbRr.s 			page 57


 3178 02d4 0AE0     		b	.L182
 3179              	.LVL410:
 3180              	.L202:
 3181              	.LBB154:
 3182              		.loc 1 575 0
 3183 02d6 184B     		ldr	r3, .L257+68
 3184 02d8 0093     		str	r3, [sp]
 3185 02da 4046     		mov	r0, r8
 3186              	.LVL411:
 3187 02dc 0194     		str	r4, [sp, #4]
 3188 02de 0121     		movs	r1, #1
 3189 02e0 054A     		ldr	r2, .L257+4
 3190 02e2 40F23F23 		movw	r3, #575
 3191 02e6 FFF7FEFF 		bl	debug_print_ret
 3192              	.LVL412:
 3193              		.loc 1 576 0
 3194 02ea 2046     		mov	r0, r4
 3195              	.LVL413:
 3196              	.L182:
 3197              	.LBE154:
 3198              		.loc 1 826 0
 3199 02ec 59B0     		add	sp, sp, #356
 3200              		.cfi_remember_state
 3201              		.cfi_def_cfa_offset 36
 3202              		@ sp needed
 3203 02ee BDE8F08F 		pop	{r4, r5, r6, r7, r8, r9, r10, fp, pc}
 3204              	.LVL414:
 3205              	.L258:
 3206 02f2 00BF     		.align	2
 3207              	.L257:
 3208 02f4 D4010000 		.word	.LC21
 3209 02f8 40000000 		.word	.LC3
 3210 02fc 00000000 		.word	ssl3_prf
 3211 0300 00000000 		.word	ssl_calc_verify_ssl
 3212 0304 00000000 		.word	ssl_calc_finished_ssl
 3213 0308 34020000 		.word	.LC25
 3214 030c 90020000 		.word	.LC29
 3215 0310 00000000 		.word	ssl_calc_finished_tls
 3216 0314 00000000 		.word	tls1_prf
 3217 0318 00000000 		.word	ssl_calc_verify_tls
 3218 031c A0020000 		.word	.LC30
 3219 0320 C0020000 		.word	.LC31
 3220 0324 D0020000 		.word	.LC32
 3221 0328 E4020000 		.word	.LC33
 3222 032c F4020000 		.word	.LC34
 3223 0330 20020000 		.word	.LC24
 3224 0334 0094FFFF 		.word	-27648
 3225 0338 00030000 		.word	.LC35
 3226              	.LVL415:
 3227              	.L198:
 3228              		.cfi_restore_state
 3229              		.loc 1 557 0
 3230 033c 0020     		movs	r0, #0
 3231              		.loc 1 559 0
 3232 033e 0C23     		movs	r3, #12
 3233              		.loc 1 560 0
 3234 0340 0424     		movs	r4, #4
ARM GAS  C:\Users\jo\AppData\Local\Temp\ccK7XbRr.s 			page 58


 3235              	.LVL416:
 3236              		.loc 1 564 0
 3237 0342 3268     		ldr	r2, [r6]
 3238              		.loc 1 557 0
 3239 0344 7061     		str	r0, [r6, #20]
 3240              		.loc 1 559 0
 3241 0346 F360     		str	r3, [r6, #12]
 3242              		.loc 1 560 0
 3243 0348 3461     		str	r4, [r6, #16]
 3244              		.loc 1 564 0
 3245 034a 127F     		ldrb	r2, [r2, #28]	@ zero_extendqisi2
 3246 034c 12F0020F 		tst	r2, #2
 3247 0350 14BF     		ite	ne
 3248 0352 1022     		movne	r2, #16
 3249 0354 1822     		moveq	r2, #24
 3250              		.loc 1 563 0
 3251 0356 B260     		str	r2, [r6, #8]
 3252              	.L201:
 3253              		.loc 1 641 0
 3254 0358 0090     		str	r0, [sp]
 3255 035a BA48     		ldr	r0, .L259
 3256 035c FFF7FEFF 		bl	debug_fmt
 3257              	.LVL417:
 3258 0360 40F28323 		movw	r3, #643
 3259 0364 0090     		str	r0, [sp]
 3260 0366 0321     		movs	r1, #3
 3261 0368 B74A     		ldr	r2, .L259+4
 3262 036a 4046     		mov	r0, r8
 3263 036c FFF7FEFF 		bl	debug_print_msg
 3264              	.LVL418:
 3265              		.loc 1 669 0
 3266 0370 D8F8F830 		ldr	r3, [r8, #248]
 3267 0374 012B     		cmp	r3, #1
 3268 0376 40F0FE80 		bne	.L210
 3269              		.loc 1 671 0
 3270 037a D6F814B0 		ldr	fp, [r6, #20]
 3271 037e 7468     		ldr	r4, [r6, #4]
 3272              		.loc 1 680 0
 3273 0380 D6F81090 		ldr	r9, [r6, #16]
 3274              		.loc 1 671 0
 3275 0384 4FEA4B0A 		lsl	r10, fp, #1
 3276 0388 0AEB0407 		add	r7, r10, r4
 3277              		.loc 1 674 0
 3278 038c 05EB0B03 		add	r3, r5, fp
 3279              		.loc 1 671 0
 3280 0390 2F44     		add	r7, r7, r5
 3281              	.LVL419:
 3282              		.loc 1 674 0
 3283 0392 0593     		str	r3, [sp, #20]
 3284              	.LVL420:
 3285              		.loc 1 681 0
 3286 0394 B9F1000F 		cmp	r9, #0
 3287 0398 01D1     		bne	.L211
 3288              		.loc 1 681 0 is_stmt 0 discriminator 2
 3289 039a D6F80C90 		ldr	r9, [r6, #12]
 3290              	.L211:
 3291              	.LVL421:
ARM GAS  C:\Users\jo\AppData\Local\Temp\ccK7XbRr.s 			page 59


 3292              		.loc 1 682 0 is_stmt 1
 3293 039e 3919     		adds	r1, r7, r4
 3294 03a0 4A46     		mov	r2, r9
 3295 03a2 06F12800 		add	r0, r6, #40
 3296 03a6 FFF7FEFF 		bl	memcpy
 3297              	.LVL422:
 3298              		.loc 1 683 0
 3299 03aa 09EB0401 		add	r1, r9, r4
 3300 03ae 3944     		add	r1, r1, r7
 3301 03b0 4A46     		mov	r2, r9
 3302 03b2 06F11800 		add	r0, r6, #24
 3303 03b6 FFF7FEFF 		bl	memcpy
 3304              	.LVL423:
 3305              		.loc 1 694 0
 3306 03ba D8F81030 		ldr	r3, [r8, #16]
 3307 03be 002B     		cmp	r3, #0
 3308 03c0 50D1     		bne	.L248
 3309              		.loc 1 696 0
 3310 03c2 BBF1140F 		cmp	fp, #20
 3311 03c6 00F21781 		bhi	.L249
 3312              		.loc 1 702 0
 3313 03ca 0599     		ldr	r1, [sp, #20]
 3314 03cc 5A46     		mov	r2, fp
 3315 03ce 06F13800 		add	r0, r6, #56
 3316 03d2 FFF7FEFF 		bl	memcpy
 3317              	.LVL424:
 3318              		.loc 1 703 0
 3319 03d6 5A46     		mov	r2, fp
 3320 03d8 06F14C00 		add	r0, r6, #76
 3321 03dc 2946     		mov	r1, r5
 3322 03de FFF7FEFF 		bl	memcpy
 3323              	.LVL425:
 3324              	.L215:
 3325              		.loc 1 740 0
 3326 03e2 06F17009 		add	r9, r6, #112
 3327              	.LVL426:
 3328 03e6 4846     		mov	r0, r9
 3329 03e8 0499     		ldr	r1, [sp, #16]
 3330 03ea FFF7FEFF 		bl	cipher_init_ctx
 3331              	.LVL427:
 3332 03ee 0446     		mov	r4, r0
 3333 03f0 0028     		cmp	r0, #0
 3334 03f2 46D1     		bne	.L250
 3335              		.loc 1 747 0
 3336 03f4 B036     		adds	r6, r6, #176
 3337              	.LVL428:
 3338 03f6 3046     		mov	r0, r6
 3339              	.LVL429:
 3340 03f8 0499     		ldr	r1, [sp, #16]
 3341 03fa FFF7FEFF 		bl	cipher_init_ctx
 3342              	.LVL430:
 3343 03fe 0446     		mov	r4, r0
 3344 0400 0028     		cmp	r0, #0
 3345 0402 69D1     		bne	.L251
 3346              		.loc 1 754 0
 3347 0404 049B     		ldr	r3, [sp, #16]
 3348 0406 3946     		mov	r1, r7
ARM GAS  C:\Users\jo\AppData\Local\Temp\ccK7XbRr.s 			page 60


 3349 0408 5A68     		ldr	r2, [r3, #4]
 3350 040a 4846     		mov	r0, r9
 3351              	.LVL431:
 3352 040c 0123     		movs	r3, #1
 3353 040e FFF7FEFF 		bl	cipher_setkey
 3354              	.LVL432:
 3355 0412 0446     		mov	r4, r0
 3356 0414 0028     		cmp	r0, #0
 3357 0416 42D1     		bne	.L252
 3358              		.loc 1 762 0
 3359 0418 049A     		ldr	r2, [sp, #16]
 3360 041a 0346     		mov	r3, r0
 3361 041c 05EB0A01 		add	r1, r5, r10
 3362 0420 3046     		mov	r0, r6
 3363              	.LVL433:
 3364 0422 5268     		ldr	r2, [r2, #4]
 3365 0424 FFF7FEFF 		bl	cipher_setkey
 3366              	.LVL434:
 3367 0428 0446     		mov	r4, r0
 3368 042a 0028     		cmp	r0, #0
 3369 042c 40F0B080 		bne	.L253
 3370              		.loc 1 771 0
 3371 0430 049B     		ldr	r3, [sp, #16]
 3372 0432 5B78     		ldrb	r3, [r3, #1]	@ zero_extendqisi2
 3373 0434 022B     		cmp	r3, #2
 3374 0436 00F0BA80 		beq	.L221
 3375              	.L224:
 3376              	.LVL435:
 3377              	.LBB155:
 3378              	.LBB156:
 3379              		.loc 1 64 0
 3380 043a 0023     		movs	r3, #0
 3381              	.LVL436:
 3382              	.L222:
 3383 043c 2B70     		strb	r3, [r5]
 3384              	.LVL437:
 3385 043e 58AA     		add	r2, sp, #352
 3386 0440 0135     		adds	r5, r5, #1
 3387              	.LVL438:
 3388 0442 9542     		cmp	r5, r2
 3389 0444 FAD1     		bne	.L222
 3390              	.LBE156:
 3391              	.LBE155:
 3392              		.loc 1 823 0
 3393 0446 8148     		ldr	r0, .L259+8
 3394              	.LVL439:
 3395 0448 FFF7FEFF 		bl	debug_fmt
 3396              	.LVL440:
 3397 044c 0221     		movs	r1, #2
 3398 044e 0090     		str	r0, [sp]
 3399 0450 7D4A     		ldr	r2, .L259+4
 3400 0452 4046     		mov	r0, r8
 3401 0454 40F23733 		movw	r3, #823
 3402 0458 FFF7FEFF 		bl	debug_print_msg
 3403              	.LVL441:
 3404              		.loc 1 825 0
 3405 045c 0020     		movs	r0, #0
ARM GAS  C:\Users\jo\AppData\Local\Temp\ccK7XbRr.s 			page 61


 3406              		.loc 1 826 0
 3407 045e 59B0     		add	sp, sp, #356
 3408              		.cfi_remember_state
 3409              		.cfi_def_cfa_offset 36
 3410              		@ sp needed
 3411 0460 BDE8F08F 		pop	{r4, r5, r6, r7, r8, r9, r10, fp, pc}
 3412              	.LVL442:
 3413              	.L248:
 3414              		.cfi_restore_state
 3415              		.loc 1 709 0
 3416 0464 40F3D580 		ble	.L216
 3417              		.loc 1 711 0
 3418 0468 0599     		ldr	r1, [sp, #20]
 3419 046a 5A46     		mov	r2, fp
 3420 046c 06F16000 		add	r0, r6, #96
 3421 0470 FFF7FEFF 		bl	md_hmac_starts
 3422              	.LVL443:
 3423              		.loc 1 712 0
 3424 0474 06F16800 		add	r0, r6, #104
 3425 0478 2946     		mov	r1, r5
 3426 047a 7269     		ldr	r2, [r6, #20]
 3427 047c FFF7FEFF 		bl	md_hmac_starts
 3428              	.LVL444:
 3429 0480 AFE7     		b	.L215
 3430              	.LVL445:
 3431              	.L250:
 3432              		.loc 1 743 0
 3433 0482 734B     		ldr	r3, .L259+12
 3434 0484 0190     		str	r0, [sp, #4]
 3435 0486 0093     		str	r3, [sp]
 3436 0488 4046     		mov	r0, r8
 3437              	.LVL446:
 3438 048a 0121     		movs	r1, #1
 3439 048c 6E4A     		ldr	r2, .L259+4
 3440 048e 40F2E723 		movw	r3, #743
 3441 0492 FFF7FEFF 		bl	debug_print_ret
 3442              	.LVL447:
 3443              		.loc 1 744 0
 3444 0496 2046     		mov	r0, r4
 3445              		.loc 1 826 0
 3446 0498 59B0     		add	sp, sp, #356
 3447              		.cfi_remember_state
 3448              		.cfi_def_cfa_offset 36
 3449              		@ sp needed
 3450 049a BDE8F08F 		pop	{r4, r5, r6, r7, r8, r9, r10, fp, pc}
 3451              	.LVL448:
 3452              	.L252:
 3453              		.cfi_restore_state
 3454              		.loc 1 758 0
 3455 049e 6D4B     		ldr	r3, .L259+16
 3456 04a0 0190     		str	r0, [sp, #4]
 3457 04a2 0093     		str	r3, [sp]
 3458 04a4 4046     		mov	r0, r8
 3459              	.LVL449:
 3460 04a6 0121     		movs	r1, #1
 3461 04a8 674A     		ldr	r2, .L259+4
 3462 04aa 40F2F623 		movw	r3, #758
ARM GAS  C:\Users\jo\AppData\Local\Temp\ccK7XbRr.s 			page 62


 3463 04ae FFF7FEFF 		bl	debug_print_ret
 3464              	.LVL450:
 3465              		.loc 1 759 0
 3466 04b2 2046     		mov	r0, r4
 3467              		.loc 1 826 0
 3468 04b4 59B0     		add	sp, sp, #356
 3469              		.cfi_remember_state
 3470              		.cfi_def_cfa_offset 36
 3471              		@ sp needed
 3472 04b6 BDE8F08F 		pop	{r4, r5, r6, r7, r8, r9, r10, fp, pc}
 3473              	.LVL451:
 3474              	.L247:
 3475              		.cfi_restore_state
 3476              		.loc 1 433 0 discriminator 1
 3477 04ba 3368     		ldr	r3, [r6]
 3478              		.loc 1 432 0 discriminator 1
 3479 04bc 5B7A     		ldrb	r3, [r3, #9]	@ zero_extendqisi2
 3480 04be 072B     		cmp	r3, #7
 3481 04c0 00F09080 		beq	.L254
 3482              		.loc 1 444 0
 3483 04c4 6449     		ldr	r1, .L259+20
 3484              		.loc 1 445 0
 3485 04c6 654A     		ldr	r2, .L259+24
 3486              		.loc 1 446 0
 3487 04c8 654B     		ldr	r3, .L259+28
 3488              		.loc 1 444 0
 3489 04ca C9F84C16 		str	r1, [r9, #1612]
 3490              		.loc 1 445 0
 3491 04ce C9F84426 		str	r2, [r9, #1604]
 3492              		.loc 1 446 0
 3493 04d2 C9F84836 		str	r3, [r9, #1608]
 3494 04d6 C6E5     		b	.L185
 3495              	.LVL452:
 3496              	.L251:
 3497              		.loc 1 750 0
 3498 04d8 5D4B     		ldr	r3, .L259+12
 3499 04da 0190     		str	r0, [sp, #4]
 3500 04dc 0093     		str	r3, [sp]
 3501 04de 4046     		mov	r0, r8
 3502              	.LVL453:
 3503 04e0 0121     		movs	r1, #1
 3504 04e2 594A     		ldr	r2, .L259+4
 3505 04e4 40F2EE23 		movw	r3, #750
 3506 04e8 FFF7FEFF 		bl	debug_print_ret
 3507              	.LVL454:
 3508              		.loc 1 751 0
 3509 04ec 2046     		mov	r0, r4
 3510              		.loc 1 826 0
 3511 04ee 59B0     		add	sp, sp, #356
 3512              		.cfi_remember_state
 3513              		.cfi_def_cfa_offset 36
 3514              		@ sp needed
 3515 04f0 BDE8F08F 		pop	{r4, r5, r6, r7, r8, r9, r10, fp, pc}
 3516              	.LVL455:
 3517              	.L244:
 3518              		.cfi_restore_state
 3519              	.LBB157:
ARM GAS  C:\Users\jo\AppData\Local\Temp\ccK7XbRr.s 			page 63


 3520              		.loc 1 477 0
 3521 04f4 5B48     		ldr	r0, .L259+32
 3522 04f6 FFF7FEFF 		bl	debug_fmt
 3523              	.LVL456:
 3524 04fa 0321     		movs	r1, #3
 3525 04fc 0090     		str	r0, [sp]
 3526 04fe 524A     		ldr	r2, .L259+4
 3527 0500 4046     		mov	r0, r8
 3528 0502 40F2DD13 		movw	r3, #477
 3529 0506 FFF7FEFF 		bl	debug_print_msg
 3530              	.LVL457:
 3531              		.loc 1 479 0
 3532 050a D8F88430 		ldr	r3, [r8, #132]
 3533 050e 18AD     		add	r5, sp, #96
 3534 0510 D3F84436 		ldr	r3, [r3, #1604]
 3535 0514 2946     		mov	r1, r5
 3536 0516 4046     		mov	r0, r8
 3537 0518 9847     		blx	r3
 3538              	.LVL458:
 3539              		.loc 1 482 0
 3540 051a D8F81030 		ldr	r3, [r8, #16]
 3541 051e 032B     		cmp	r3, #3
 3542 0520 1CD0     		beq	.L255
 3543              		.loc 1 496 0
 3544 0522 2427     		movs	r7, #36
 3545              	.L191:
 3546              	.LVL459:
 3547              		.loc 1 498 0 discriminator 1
 3548 0524 504B     		ldr	r3, .L259+36
 3549 0526 484A     		ldr	r2, .L259+4
 3550 0528 8DE8A800 		stmia	sp, {r3, r5, r7}
 3551 052c 4046     		mov	r0, r8
 3552 052e 0321     		movs	r1, #3
 3553 0530 4FF4F973 		mov	r3, #498
 3554 0534 FFF7FEFF 		bl	debug_print_buf
 3555              	.LVL460:
 3556              		.loc 1 502 0 discriminator 1
 3557 0538 059B     		ldr	r3, [sp, #20]
 3558              		.loc 1 500 0 discriminator 1
 3559 053a D9F85016 		ldr	r1, [r9, #1616]
 3560 053e 0097     		str	r7, [sp]
 3561              		.loc 1 502 0 discriminator 1
 3562 0540 3033     		adds	r3, r3, #48
 3563              		.loc 1 500 0 discriminator 1
 3564 0542 0193     		str	r3, [sp, #4]
 3565              		.loc 1 502 0 discriminator 1
 3566 0544 0693     		str	r3, [sp, #24]
 3567              		.loc 1 500 0 discriminator 1
 3568 0546 3023     		movs	r3, #48
 3569 0548 0293     		str	r3, [sp, #8]
 3570 054a D9F84C76 		ldr	r7, [r9, #1612]
 3571              	.LVL461:
 3572 054e 474A     		ldr	r2, .L259+40
 3573 0550 5046     		mov	r0, r10
 3574 0552 2B46     		mov	r3, r5
 3575 0554 B847     		blx	r7
 3576              	.LVL462:
ARM GAS  C:\Users\jo\AppData\Local\Temp\ccK7XbRr.s 			page 64


 3577 0556 09F25467 		addw	r7, r9, #1620
 3578              	.LBE157:
 3579 055a B2E5     		b	.L193
 3580              	.L255:
 3581              	.LBB158:
 3582              		.loc 1 485 0
 3583 055c D8F89430 		ldr	r3, [r8, #148]
 3584 0560 1B68     		ldr	r3, [r3]
 3585 0562 5B7A     		ldrb	r3, [r3, #9]	@ zero_extendqisi2
 3586              		.loc 1 492 0
 3587 0564 072B     		cmp	r3, #7
 3588 0566 0CBF     		ite	eq
 3589 0568 3027     		moveq	r7, #48
 3590 056a 2027     		movne	r7, #32
 3591 056c DAE7     		b	.L191
 3592              	.LVL463:
 3593              	.L246:
 3594              	.LBE158:
 3595              	.LBB159:
 3596              		.loc 1 597 0
 3597 056e B060     		str	r0, [r6, #8]
 3598 0570 7168     		ldr	r1, [r6, #4]
 3599 0572 0246     		mov	r2, r0
 3600 0574 F0E6     		b	.L201
 3601              	.LVL464:
 3602              	.L210:
 3603              	.LBE159:
 3604              		.loc 1 689 0
 3605 0576 3E48     		ldr	r0, .L259+44
 3606 0578 FFF7FEFF 		bl	debug_fmt
 3607              	.LVL465:
 3608 057c 0121     		movs	r1, #1
 3609 057e 0090     		str	r0, [sp]
 3610 0580 314A     		ldr	r2, .L259+4
 3611 0582 4046     		mov	r0, r8
 3612 0584 40F2B123 		movw	r3, #689
 3613 0588 FFF7FEFF 		bl	debug_print_msg
 3614              	.LVL466:
 3615              		.loc 1 690 0
 3616 058c 3948     		ldr	r0, .L259+48
 3617 058e ADE6     		b	.L182
 3618              	.LVL467:
 3619              	.L253:
 3620              		.loc 1 766 0
 3621 0590 304B     		ldr	r3, .L259+16
 3622 0592 0190     		str	r0, [sp, #4]
 3623 0594 0093     		str	r3, [sp]
 3624 0596 4046     		mov	r0, r8
 3625              	.LVL468:
 3626 0598 0121     		movs	r1, #1
 3627 059a 2B4A     		ldr	r2, .L259+4
 3628 059c 40F2FE23 		movw	r3, #766
 3629 05a0 FFF7FEFF 		bl	debug_print_ret
 3630              	.LVL469:
 3631              		.loc 1 767 0
 3632 05a4 2046     		mov	r0, r4
 3633 05a6 A1E6     		b	.L182
ARM GAS  C:\Users\jo\AppData\Local\Temp\ccK7XbRr.s 			page 65


 3634              	.LVL470:
 3635              	.L208:
 3636 05a8 7168     		ldr	r1, [r6, #4]
 3637 05aa B268     		ldr	r2, [r6, #8]
 3638 05ac D4E6     		b	.L201
 3639              	.LVL471:
 3640              	.L221:
 3641              		.loc 1 773 0
 3642 05ae 4846     		mov	r0, r9
 3643              	.LVL472:
 3644 05b0 0421     		movs	r1, #4
 3645 05b2 FFF7FEFF 		bl	cipher_set_padding_mode
 3646              	.LVL473:
 3647 05b6 0446     		mov	r4, r0
 3648 05b8 0028     		cmp	r0, #0
 3649 05ba 37D1     		bne	.L256
 3650              		.loc 1 780 0
 3651 05bc 3046     		mov	r0, r6
 3652              	.LVL474:
 3653 05be 0421     		movs	r1, #4
 3654 05c0 FFF7FEFF 		bl	cipher_set_padding_mode
 3655              	.LVL475:
 3656 05c4 0446     		mov	r4, r0
 3657 05c6 0028     		cmp	r0, #0
 3658 05c8 3FF437AF 		beq	.L224
 3659              		.loc 1 783 0
 3660 05cc 2A4B     		ldr	r3, .L259+52
 3661 05ce 0190     		str	r0, [sp, #4]
 3662 05d0 0093     		str	r3, [sp]
 3663 05d2 4046     		mov	r0, r8
 3664              	.LVL476:
 3665 05d4 0121     		movs	r1, #1
 3666 05d6 1C4A     		ldr	r2, .L259+4
 3667 05d8 40F20F33 		movw	r3, #783
 3668 05dc FFF7FEFF 		bl	debug_print_ret
 3669              	.LVL477:
 3670              		.loc 1 784 0
 3671 05e0 2046     		mov	r0, r4
 3672 05e2 83E6     		b	.L182
 3673              	.LVL478:
 3674              	.L254:
 3675              		.loc 1 435 0
 3676 05e4 2549     		ldr	r1, .L259+56
 3677              		.loc 1 436 0
 3678 05e6 264A     		ldr	r2, .L259+60
 3679              		.loc 1 437 0
 3680 05e8 264B     		ldr	r3, .L259+64
 3681              		.loc 1 435 0
 3682 05ea C9F84C16 		str	r1, [r9, #1612]
 3683              		.loc 1 436 0
 3684 05ee C9F84426 		str	r2, [r9, #1604]
 3685              		.loc 1 437 0
 3686 05f2 C9F84836 		str	r3, [r9, #1608]
 3687 05f6 36E5     		b	.L185
 3688              	.LVL479:
 3689              	.L249:
 3690              		.loc 1 698 0
ARM GAS  C:\Users\jo\AppData\Local\Temp\ccK7XbRr.s 			page 66


 3691 05f8 1D48     		ldr	r0, .L259+44
 3692 05fa FFF7FEFF 		bl	debug_fmt
 3693              	.LVL480:
 3694 05fe 0121     		movs	r1, #1
 3695 0600 0090     		str	r0, [sp]
 3696 0602 114A     		ldr	r2, .L259+4
 3697 0604 4046     		mov	r0, r8
 3698 0606 40F2BA23 		movw	r3, #698
 3699 060a FFF7FEFF 		bl	debug_print_msg
 3700              	.LVL481:
 3701              		.loc 1 699 0
 3702 060e 1948     		ldr	r0, .L259+48
 3703 0610 6CE6     		b	.L182
 3704              	.L216:
 3705              		.loc 1 717 0
 3706 0612 1748     		ldr	r0, .L259+44
 3707 0614 FFF7FEFF 		bl	debug_fmt
 3708              	.LVL482:
 3709 0618 0121     		movs	r1, #1
 3710 061a 0090     		str	r0, [sp]
 3711 061c 0A4A     		ldr	r2, .L259+4
 3712 061e 4046     		mov	r0, r8
 3713 0620 40F2CD23 		movw	r3, #717
 3714 0624 FFF7FEFF 		bl	debug_print_msg
 3715              	.LVL483:
 3716              		.loc 1 718 0
 3717 0628 1248     		ldr	r0, .L259+48
 3718 062a 5FE6     		b	.L182
 3719              	.LVL484:
 3720              	.L256:
 3721              		.loc 1 776 0
 3722 062c 124B     		ldr	r3, .L259+52
 3723 062e 0190     		str	r0, [sp, #4]
 3724 0630 0093     		str	r3, [sp]
 3725 0632 4046     		mov	r0, r8
 3726              	.LVL485:
 3727 0634 0121     		movs	r1, #1
 3728 0636 044A     		ldr	r2, .L259+4
 3729 0638 4FF44273 		mov	r3, #776
 3730 063c FFF7FEFF 		bl	debug_print_ret
 3731              	.LVL486:
 3732              		.loc 1 777 0
 3733 0640 2046     		mov	r0, r4
 3734 0642 53E6     		b	.L182
 3735              	.L260:
 3736              		.align	2
 3737              	.L259:
 3738 0644 0C030000 		.word	.LC36
 3739 0648 40000000 		.word	.LC3
 3740 064c 74030000 		.word	.LC40
 3741 0650 3C030000 		.word	.LC37
 3742 0654 4C030000 		.word	.LC38
 3743 0658 00000000 		.word	tls_prf_sha256
 3744 065c 00000000 		.word	ssl_calc_verify_tls_sha256
 3745 0660 00000000 		.word	ssl_calc_finished_tls_sha256
 3746 0664 48020000 		.word	.LC26
 3747 0668 68020000 		.word	.LC27
ARM GAS  C:\Users\jo\AppData\Local\Temp\ccK7XbRr.s 			page 67


 3748 066c 78020000 		.word	.LC28
 3749 0670 20020000 		.word	.LC24
 3750 0674 0094FFFF 		.word	-27648
 3751 0678 5C030000 		.word	.LC39
 3752 067c 00000000 		.word	tls_prf_sha384
 3753 0680 00000000 		.word	ssl_calc_verify_tls_sha384
 3754 0684 00000000 		.word	ssl_calc_finished_tls_sha384
 3755              	.LVL487:
 3756              	.L242:
 3757              		.loc 1 396 0
 3758 0688 3368     		ldr	r3, [r6]
 3759 068a 1548     		ldr	r0, .L261
 3760              	.LVL488:
 3761 068c 197A     		ldrb	r1, [r3, #8]	@ zero_extendqisi2
 3762 068e FFF7FEFF 		bl	debug_fmt
 3763              	.LVL489:
 3764 0692 0121     		movs	r1, #1
 3765 0694 0090     		str	r0, [sp]
 3766 0696 134A     		ldr	r2, .L261+4
 3767 0698 4046     		mov	r0, r8
 3768 069a 40F28D13 		movw	r3, #397
 3769 069e FFF7FEFF 		bl	debug_print_msg
 3770              	.LVL490:
 3771              		.loc 1 398 0
 3772 06a2 1148     		ldr	r0, .L261+8
 3773 06a4 22E6     		b	.L182
 3774              	.LVL491:
 3775              	.L209:
 3776              	.LBB160:
 3777              		.loc 1 635 0
 3778 06a6 1148     		ldr	r0, .L261+12
 3779 06a8 FFF7FEFF 		bl	debug_fmt
 3780              	.LVL492:
 3781 06ac 0121     		movs	r1, #1
 3782 06ae 0090     		str	r0, [sp]
 3783 06b0 0C4A     		ldr	r2, .L261+4
 3784 06b2 4046     		mov	r0, r8
 3785 06b4 40F27B23 		movw	r3, #635
 3786 06b8 FFF7FEFF 		bl	debug_print_msg
 3787              	.LVL493:
 3788              		.loc 1 636 0
 3789 06bc 0C48     		ldr	r0, .L261+16
 3790 06be 15E6     		b	.L182
 3791              	.LVL494:
 3792              	.L243:
 3793              	.LBE160:
 3794              		.loc 1 404 0
 3795 06c0 3368     		ldr	r3, [r6]
 3796 06c2 0C48     		ldr	r0, .L261+20
 3797              	.LVL495:
 3798 06c4 597A     		ldrb	r1, [r3, #9]	@ zero_extendqisi2
 3799 06c6 FFF7FEFF 		bl	debug_fmt
 3800              	.LVL496:
 3801 06ca 0121     		movs	r1, #1
 3802 06cc 0090     		str	r0, [sp]
 3803 06ce 054A     		ldr	r2, .L261+4
 3804 06d0 4046     		mov	r0, r8
ARM GAS  C:\Users\jo\AppData\Local\Temp\ccK7XbRr.s 			page 68


 3805 06d2 40F29513 		movw	r3, #405
 3806 06d6 FFF7FEFF 		bl	debug_print_msg
 3807              	.LVL497:
 3808              		.loc 1 406 0
 3809 06da 0348     		ldr	r0, .L261+8
 3810 06dc 06E6     		b	.L182
 3811              	.L262:
 3812 06de 00BF     		.align	2
 3813              	.L261:
 3814 06e0 E4010000 		.word	.LC22
 3815 06e4 40000000 		.word	.LC3
 3816 06e8 008FFFFF 		.word	-28928
 3817 06ec 20020000 		.word	.LC24
 3818 06f0 0094FFFF 		.word	-27648
 3819 06f4 04020000 		.word	.LC23
 3820              		.cfi_endproc
 3821              	.LFE20:
 3822              		.size	ssl_derive_keys, .-ssl_derive_keys
 3823 06f8 AFF30080 		.section	.text.ssl_psk_derive_premaster,"ax",%progbits
 3823      AFF30080 
 3824              		.align	2
 3825              		.p2align 4,,15
 3826              		.global	ssl_psk_derive_premaster
 3827              		.thumb
 3828              		.thumb_func
 3829              		.type	ssl_psk_derive_premaster, %function
 3830              	ssl_psk_derive_premaster:
 3831              	.LFB25:
 3832              		.loc 1 940 0
 3833              		.cfi_startproc
 3834              		@ args = 0, pretend = 0, frame = 8
 3835              		@ frame_needed = 0, uses_anonymous_args = 0
 3836              	.LVL498:
 3837 0000 2DE9F041 		push	{r4, r5, r6, r7, r8, lr}
 3838              		.cfi_def_cfa_offset 24
 3839              		.cfi_offset 4, -24
 3840              		.cfi_offset 5, -20
 3841              		.cfi_offset 6, -16
 3842              		.cfi_offset 7, -12
 3843              		.cfi_offset 8, -8
 3844              		.cfi_offset 14, -4
 3845              		.loc 1 941 0
 3846 0004 D0F88450 		ldr	r5, [r0, #132]
 3847              	.LVL499:
 3848              		.loc 1 952 0
 3849 0008 0529     		cmp	r1, #5
 3850              		.loc 1 940 0
 3851 000a 84B0     		sub	sp, sp, #16
 3852              		.cfi_def_cfa_offset 40
 3853              		.loc 1 940 0
 3854 000c 0446     		mov	r4, r0
 3855              		.loc 1 942 0
 3856 000e 05F6B827 		addw	r7, r5, #2744
 3857              	.LVL500:
 3858              		.loc 1 952 0
 3859 0012 50D0     		beq	.L275
 3860              		.loc 1 964 0
ARM GAS  C:\Users\jo\AppData\Local\Temp\ccK7XbRr.s 			page 69


 3861 0014 0729     		cmp	r1, #7
 3862 0016 63D0     		beq	.L276
 3863              		.loc 1 977 0
 3864 0018 0629     		cmp	r1, #6
 3865 001a 6CD0     		beq	.L277
 3866              		.loc 1 999 0
 3867 001c 0829     		cmp	r1, #8
 3868 001e 40F0AF80 		bne	.L271
 3869              	.LBB161:
 3870              		.loc 1 1004 0
 3871 0022 836A     		ldr	r3, [r0, #40]
 3872 0024 016C     		ldr	r1, [r0, #64]
 3873              	.LVL501:
 3874 0026 0191     		str	r1, [sp, #4]
 3875              		.loc 1 1005 0
 3876 0028 05F29668 		addw	r8, r5, #1686
 3877              		.loc 1 1004 0
 3878 002c 0093     		str	r3, [sp]
 3879 002e 4246     		mov	r2, r8
 3880 0030 C8EB0703 		rsb	r3, r8, r7
 3881 0034 05F18800 		add	r0, r5, #136
 3882              	.LVL502:
 3883 0038 03A9     		add	r1, sp, #12
 3884 003a FFF7FEFF 		bl	ecdh_calc_secret
 3885              	.LVL503:
 3886 003e 0646     		mov	r6, r0
 3887 0040 0028     		cmp	r0, #0
 3888 0042 40F08180 		bne	.L278
 3889              	.LVL504:
 3890              		.loc 1 1012 0
 3891 0046 039E     		ldr	r6, [sp, #12]
 3892              		.loc 1 1013 0
 3893 0048 85F89566 		strb	r6, [r5, #1685]
 3894              		.loc 1 1012 0
 3895 004c 330A     		lsrs	r3, r6, #8
 3896 004e 85F89436 		strb	r3, [r5, #1684]
 3897              	.LVL505:
 3898              		.loc 1 1016 0
 3899 0052 D4F88430 		ldr	r3, [r4, #132]
 3900 0056 514A     		ldr	r2, .L280
 3901 0058 0092     		str	r2, [sp]
 3902 005a 03F5AC73 		add	r3, r3, #344
 3903 005e 0193     		str	r3, [sp, #4]
 3904 0060 2046     		mov	r0, r4
 3905              	.LVL506:
 3906 0062 4FF47E73 		mov	r3, #1016
 3907 0066 0321     		movs	r1, #3
 3908 0068 4D4A     		ldr	r2, .L280+4
 3909 006a FFF7FEFF 		bl	debug_print_mpi
 3910              	.LVL507:
 3911 006e D4F85431 		ldr	r3, [r4, #340]
 3912              		.loc 1 1014 0
 3913 0072 08EB0605 		add	r5, r8, r6
 3914              	.LVL508:
 3915              	.L267:
 3916              	.LBE161:
 3917              		.loc 1 1026 0
ARM GAS  C:\Users\jo\AppData\Local\Temp\ccK7XbRr.s 			page 70


 3918 0076 7F1B     		subs	r7, r7, r5
 3919              	.LVL509:
 3920 0078 5A1C     		adds	r2, r3, #1
 3921 007a BA42     		cmp	r2, r7
 3922 007c 72DA     		bge	.L273
 3923              	.LVL510:
 3924              		.loc 1 1029 0
 3925 007e 2E46     		mov	r6, r5
 3926 0080 1B0A     		lsrs	r3, r3, #8
 3927 0082 06F8023B 		strb	r3, [r6], #2
 3928              	.LVL511:
 3929              		.loc 1 1030 0
 3930 0086 D4F85431 		ldr	r3, [r4, #340]
 3931 008a 6B70     		strb	r3, [r5, #1]
 3932              		.loc 1 1031 0
 3933 008c D4F85421 		ldr	r2, [r4, #340]
 3934 0090 D4F85011 		ldr	r1, [r4, #336]
 3935 0094 3046     		mov	r0, r6
 3936 0096 FFF7FEFF 		bl	memcpy
 3937              	.LVL512:
 3938              		.loc 1 1032 0
 3939 009a D4F85401 		ldr	r0, [r4, #340]
 3940              		.loc 1 1034 0
 3941 009e D4F88430 		ldr	r3, [r4, #132]
 3942              		.loc 1 1032 0
 3943 00a2 3044     		add	r0, r0, r6
 3944              	.LVL513:
 3945              		.loc 1 1034 0
 3946 00a4 03F29462 		addw	r2, r3, #1684
 3947 00a8 801A     		subs	r0, r0, r2
 3948              	.LVL514:
 3949 00aa C3F85006 		str	r0, [r3, #1616]
 3950              	.LVL515:
 3951              		.loc 1 1036 0
 3952 00ae 0020     		movs	r0, #0
 3953              	.L266:
 3954              		.loc 1 1037 0
 3955 00b0 04B0     		add	sp, sp, #16
 3956              		.cfi_remember_state
 3957              		.cfi_def_cfa_offset 24
 3958              		@ sp needed
 3959 00b2 BDE8F081 		pop	{r4, r5, r6, r7, r8, pc}
 3960              	.LVL516:
 3961              	.L275:
 3962              		.cfi_restore_state
 3963              		.loc 1 954 0
 3964 00b6 D0F85421 		ldr	r2, [r0, #340]
 3965              		.loc 1 941 0
 3966 00ba 05F29463 		addw	r3, r5, #1684
 3967              		.loc 1 954 0
 3968 00be 511C     		adds	r1, r2, #1
 3969              	.LVL517:
 3970 00c0 FB1A     		subs	r3, r7, r3
 3971 00c2 9942     		cmp	r1, r3
 3972 00c4 4EDA     		bge	.L273
 3973              	.LVL518:
 3974              		.loc 1 957 0
ARM GAS  C:\Users\jo\AppData\Local\Temp\ccK7XbRr.s 			page 71


 3975 00c6 120A     		lsrs	r2, r2, #8
 3976 00c8 85F89426 		strb	r2, [r5, #1684]
 3977              		.loc 1 958 0
 3978 00cc D0F85431 		ldr	r3, [r0, #340]
 3979 00d0 85F89536 		strb	r3, [r5, #1685]
 3980              		.loc 1 959 0
 3981 00d4 D0F85431 		ldr	r3, [r0, #340]
 3982              		.loc 1 958 0
 3983 00d8 05F29665 		addw	r5, r5, #1686
 3984              	.LVL519:
 3985              		.loc 1 959 0
 3986 00dc 1D44     		add	r5, r5, r3
 3987              	.LVL520:
 3988 00de CAE7     		b	.L267
 3989              	.LVL521:
 3990              	.L276:
 3991              		.loc 1 971 0
 3992 00e0 3023     		movs	r3, #48
 3993              		.loc 1 970 0
 3994 00e2 0022     		movs	r2, #0
 3995 00e4 85F89426 		strb	r2, [r5, #1684]
 3996              	.LVL522:
 3997              		.loc 1 971 0
 3998 00e8 85F89536 		strb	r3, [r5, #1685]
 3999 00ec D0F85431 		ldr	r3, [r0, #340]
 4000              		.loc 1 972 0
 4001 00f0 05F2C665 		addw	r5, r5, #1734
 4002              	.LVL523:
 4003 00f4 BFE7     		b	.L267
 4004              	.LVL524:
 4005              	.L277:
 4006              	.LBB162:
 4007              		.loc 1 980 0
 4008 00f6 05F29668 		addw	r8, r5, #1686
 4009 00fa 04AA     		add	r2, sp, #16
 4010              		.loc 1 983 0
 4011 00fc 016C     		ldr	r1, [r0, #64]
 4012              	.LVL525:
 4013              		.loc 1 980 0
 4014 00fe C8EB0703 		rsb	r3, r8, r7
 4015 0102 42F8043D 		str	r3, [r2, #-4]!
 4016              		.loc 1 983 0
 4017 0106 836A     		ldr	r3, [r0, #40]
 4018 0108 0091     		str	r1, [sp]
 4019 010a 05F10C00 		add	r0, r5, #12
 4020              	.LVL526:
 4021 010e 4146     		mov	r1, r8
 4022 0110 FFF7FEFF 		bl	dhm_calc_secret
 4023              	.LVL527:
 4024 0114 0646     		mov	r6, r0
 4025 0116 38BB     		cbnz	r0, .L279
 4026              	.LVL528:
 4027              		.loc 1 990 0
 4028 0118 039E     		ldr	r6, [sp, #12]
 4029              		.loc 1 991 0
 4030 011a 85F89566 		strb	r6, [r5, #1685]
 4031              		.loc 1 990 0
ARM GAS  C:\Users\jo\AppData\Local\Temp\ccK7XbRr.s 			page 72


 4032 011e 330A     		lsrs	r3, r6, #8
 4033 0120 85F89436 		strb	r3, [r5, #1684]
 4034              	.LVL529:
 4035              		.loc 1 994 0
 4036 0124 D4F88430 		ldr	r3, [r4, #132]
 4037 0128 1E4A     		ldr	r2, .L280+8
 4038 012a 0092     		str	r2, [sp]
 4039 012c 4C33     		adds	r3, r3, #76
 4040 012e 0193     		str	r3, [sp, #4]
 4041 0130 2046     		mov	r0, r4
 4042              	.LVL530:
 4043 0132 40F2E233 		movw	r3, #994
 4044 0136 0321     		movs	r1, #3
 4045 0138 194A     		ldr	r2, .L280+4
 4046 013a FFF7FEFF 		bl	debug_print_mpi
 4047              	.LVL531:
 4048              		.loc 1 992 0
 4049 013e 08EB0605 		add	r5, r8, r6
 4050              	.LVL532:
 4051 0142 D4F85431 		ldr	r3, [r4, #340]
 4052              	.LBE162:
 4053 0146 96E7     		b	.L267
 4054              	.LVL533:
 4055              	.L278:
 4056              	.LBB163:
 4057              		.loc 1 1008 0
 4058 0148 174B     		ldr	r3, .L280+12
 4059 014a 0190     		str	r0, [sp, #4]
 4060 014c 0093     		str	r3, [sp]
 4061 014e 2046     		mov	r0, r4
 4062              	.LVL534:
 4063 0150 0121     		movs	r1, #1
 4064 0152 134A     		ldr	r2, .L280+4
 4065 0154 4FF47C73 		mov	r3, #1008
 4066 0158 FFF7FEFF 		bl	debug_print_ret
 4067              	.LVL535:
 4068              		.loc 1 1009 0
 4069 015c 3046     		mov	r0, r6
 4070              	.LBE163:
 4071              		.loc 1 1037 0
 4072 015e 04B0     		add	sp, sp, #16
 4073              		.cfi_remember_state
 4074              		.cfi_def_cfa_offset 24
 4075              		@ sp needed
 4076 0160 BDE8F081 		pop	{r4, r5, r6, r7, r8, pc}
 4077              	.LVL536:
 4078              	.L273:
 4079              		.cfi_restore_state
 4080              		.loc 1 955 0
 4081 0164 1148     		ldr	r0, .L280+16
 4082 0166 A3E7     		b	.L266
 4083              	.LVL537:
 4084              	.L279:
 4085              	.LBB164:
 4086              		.loc 1 987 0
 4087 0168 114B     		ldr	r3, .L280+20
 4088 016a 0190     		str	r0, [sp, #4]
ARM GAS  C:\Users\jo\AppData\Local\Temp\ccK7XbRr.s 			page 73


 4089 016c 0093     		str	r3, [sp]
 4090 016e 2046     		mov	r0, r4
 4091              	.LVL538:
 4092 0170 0121     		movs	r1, #1
 4093 0172 0B4A     		ldr	r2, .L280+4
 4094 0174 40F2DB33 		movw	r3, #987
 4095 0178 FFF7FEFF 		bl	debug_print_ret
 4096              	.LVL539:
 4097              		.loc 1 988 0
 4098 017c 3046     		mov	r0, r6
 4099 017e 97E7     		b	.L266
 4100              	.LVL540:
 4101              	.L271:
 4102              	.LBE164:
 4103              		.loc 1 1021 0
 4104 0180 0C48     		ldr	r0, .L280+24
 4105              	.LVL541:
 4106 0182 FFF7FEFF 		bl	debug_fmt
 4107              	.LVL542:
 4108 0186 0121     		movs	r1, #1
 4109 0188 0090     		str	r0, [sp]
 4110 018a 054A     		ldr	r2, .L280+4
 4111 018c 2046     		mov	r0, r4
 4112 018e 40F2FD33 		movw	r3, #1021
 4113 0192 FFF7FEFF 		bl	debug_print_msg
 4114              	.LVL543:
 4115              		.loc 1 1022 0
 4116 0196 0848     		ldr	r0, .L280+28
 4117 0198 8AE7     		b	.L266
 4118              	.L281:
 4119 019a 00BF     		.align	2
 4120              	.L280:
 4121 019c B0030000 		.word	.LC44
 4122 01a0 40000000 		.word	.LC3
 4123 01a4 94030000 		.word	.LC42
 4124 01a8 9C030000 		.word	.LC43
 4125 01ac 008FFFFF 		.word	-28928
 4126 01b0 84030000 		.word	.LC41
 4127 01b4 20020000 		.word	.LC24
 4128 01b8 0094FFFF 		.word	-27648
 4129              		.cfi_endproc
 4130              	.LFE25:
 4131              		.size	ssl_psk_derive_premaster, .-ssl_psk_derive_premaster
 4132 01bc AFF30080 		.section	.text.ssl_fetch_input,"ax",%progbits
 4133              		.align	2
 4134              		.p2align 4,,15
 4135              		.global	ssl_fetch_input
 4136              		.thumb
 4137              		.thumb_func
 4138              		.type	ssl_fetch_input, %function
 4139              	ssl_fetch_input:
 4140              	.LFB29:
 4141              		.loc 1 2010 0
 4142              		.cfi_startproc
 4143              		@ args = 0, pretend = 0, frame = 0
 4144              		@ frame_needed = 0, uses_anonymous_args = 0
 4145              	.LVL544:
ARM GAS  C:\Users\jo\AppData\Local\Temp\ccK7XbRr.s 			page 74


 4146 0000 F0B5     		push	{r4, r5, r6, r7, lr}
 4147              		.cfi_def_cfa_offset 20
 4148              		.cfi_offset 4, -20
 4149              		.cfi_offset 5, -16
 4150              		.cfi_offset 6, -12
 4151              		.cfi_offset 7, -8
 4152              		.cfi_offset 14, -4
 4153 0002 0446     		mov	r4, r0
 4154 0004 83B0     		sub	sp, sp, #12
 4155              		.cfi_def_cfa_offset 32
 4156              		.loc 1 2014 0
 4157 0006 3048     		ldr	r0, .L293
 4158              	.LVL545:
 4159              		.loc 1 2010 0
 4160 0008 0E46     		mov	r6, r1
 4161              		.loc 1 2014 0
 4162 000a FFF7FEFF 		bl	debug_fmt
 4163              	.LVL546:
 4164 000e 40F2DE73 		movw	r3, #2014
 4165 0012 0090     		str	r0, [sp]
 4166 0014 0221     		movs	r1, #2
 4167 0016 2D4A     		ldr	r2, .L293+4
 4168 0018 2046     		mov	r0, r4
 4169 001a FFF7FEFF 		bl	debug_print_msg
 4170              	.LVL547:
 4171              		.loc 1 2016 0
 4172 001e 44F24513 		movw	r3, #16709
 4173 0022 9E42     		cmp	r6, r3
 4174 0024 42D8     		bhi	.L283
 4175              	.LBB167:
 4176              	.LBB168:
 4177              		.loc 1 2022 0
 4178 0026 D4F8B420 		ldr	r2, [r4, #180]
 4179 002a 9642     		cmp	r6, r2
 4180 002c 2DD9     		bls	.L287
 4181 002e 284F     		ldr	r7, .L293+8
 4182 0030 07E0     		b	.L286
 4183              	.LVL548:
 4184              	.L292:
 4185              		.loc 1 2034 0
 4186 0032 38DB     		blt	.L289
 4187              		.loc 1 2037 0
 4188 0034 D4F8B420 		ldr	r2, [r4, #180]
 4189 0038 2A44     		add	r2, r2, r5
 4190              		.loc 1 2022 0
 4191 003a 9642     		cmp	r6, r2
 4192              		.loc 1 2037 0
 4193 003c C4F8B420 		str	r2, [r4, #180]
 4194              		.loc 1 2022 0
 4195 0040 23D9     		bls	.L287
 4196              	.LVL549:
 4197              	.L286:
 4198              		.loc 1 2025 0
 4199 0042 D4F89C10 		ldr	r1, [r4, #156]
 4200 0046 236B     		ldr	r3, [r4, #48]
 4201 0048 A06C     		ldr	r0, [r4, #72]
 4202 004a 1144     		add	r1, r1, r2
ARM GAS  C:\Users\jo\AppData\Local\Temp\ccK7XbRr.s 			page 75


 4203 004c B21A     		subs	r2, r6, r2
 4204              	.LVL550:
 4205 004e 9847     		blx	r3
 4206              	.LVL551:
 4207              		.loc 1 2027 0
 4208 0050 D4F8B410 		ldr	r1, [r4, #180]
 4209              		.loc 1 2025 0
 4210 0054 0546     		mov	r5, r0
 4211              	.LVL552:
 4212              		.loc 1 2027 0
 4213 0056 3246     		mov	r2, r6
 4214 0058 1E48     		ldr	r0, .L293+12
 4215              	.LVL553:
 4216 005a FFF7FEFF 		bl	debug_fmt
 4217              	.LVL554:
 4218 005e 0221     		movs	r1, #2
 4219 0060 0090     		str	r0, [sp]
 4220 0062 1A4A     		ldr	r2, .L293+4
 4221 0064 2046     		mov	r0, r4
 4222 0066 40F2EC73 		movw	r3, #2028
 4223 006a FFF7FEFF 		bl	debug_print_msg
 4224              	.LVL555:
 4225              		.loc 1 2029 0
 4226 006e 0195     		str	r5, [sp, #4]
 4227 0070 0097     		str	r7, [sp]
 4228 0072 2046     		mov	r0, r4
 4229 0074 0221     		movs	r1, #2
 4230 0076 154A     		ldr	r2, .L293+4
 4231 0078 40F2ED73 		movw	r3, #2029
 4232 007c FFF7FEFF 		bl	debug_print_ret
 4233              	.LVL556:
 4234              		.loc 1 2031 0
 4235 0080 002D     		cmp	r5, #0
 4236 0082 D6D1     		bne	.L292
 4237              		.loc 1 2032 0
 4238 0084 1448     		ldr	r0, .L293+16
 4239              	.LVL557:
 4240              	.L285:
 4241              	.LBE168:
 4242              	.LBE167:
 4243              		.loc 1 2043 0
 4244 0086 03B0     		add	sp, sp, #12
 4245              		.cfi_remember_state
 4246              		.cfi_def_cfa_offset 20
 4247              		@ sp needed
 4248 0088 F0BD     		pop	{r4, r5, r6, r7, pc}
 4249              	.LVL558:
 4250              	.L287:
 4251              		.cfi_restore_state
 4252              	.LBB171:
 4253              	.LBB169:
 4254              		.loc 1 2040 0
 4255 008a 1448     		ldr	r0, .L293+20
 4256 008c FFF7FEFF 		bl	debug_fmt
 4257              	.LVL559:
 4258 0090 0221     		movs	r1, #2
 4259 0092 0090     		str	r0, [sp]
ARM GAS  C:\Users\jo\AppData\Local\Temp\ccK7XbRr.s 			page 76


 4260 0094 0D4A     		ldr	r2, .L293+4
 4261 0096 2046     		mov	r0, r4
 4262 0098 4FF4FF63 		mov	r3, #2040
 4263 009c FFF7FEFF 		bl	debug_print_msg
 4264              	.LVL560:
 4265              		.loc 1 2042 0
 4266 00a0 0020     		movs	r0, #0
 4267              	.LBE169:
 4268              	.LBE171:
 4269              		.loc 1 2043 0
 4270 00a2 03B0     		add	sp, sp, #12
 4271              		.cfi_remember_state
 4272              		.cfi_def_cfa_offset 20
 4273              		@ sp needed
 4274 00a4 F0BD     		pop	{r4, r5, r6, r7, pc}
 4275              	.LVL561:
 4276              	.L289:
 4277              		.cfi_restore_state
 4278              	.LBB172:
 4279              	.LBB170:
 4280              		.loc 1 2034 0
 4281 00a6 2846     		mov	r0, r5
 4282              	.LBE170:
 4283              	.LBE172:
 4284              		.loc 1 2043 0
 4285 00a8 03B0     		add	sp, sp, #12
 4286              		.cfi_remember_state
 4287              		.cfi_def_cfa_offset 20
 4288              		@ sp needed
 4289 00aa F0BD     		pop	{r4, r5, r6, r7, pc}
 4290              	.LVL562:
 4291              	.L283:
 4292              		.cfi_restore_state
 4293              		.loc 1 2018 0
 4294 00ac 0C48     		ldr	r0, .L293+24
 4295 00ae FFF7FEFF 		bl	debug_fmt
 4296              	.LVL563:
 4297 00b2 0121     		movs	r1, #1
 4298 00b4 0090     		str	r0, [sp]
 4299 00b6 054A     		ldr	r2, .L293+4
 4300 00b8 2046     		mov	r0, r4
 4301 00ba 40F2E273 		movw	r3, #2018
 4302 00be FFF7FEFF 		bl	debug_print_msg
 4303              	.LVL564:
 4304              		.loc 1 2019 0
 4305 00c2 0848     		ldr	r0, .L293+28
 4306 00c4 DFE7     		b	.L285
 4307              	.L294:
 4308 00c6 00BF     		.align	2
 4309              	.L293:
 4310 00c8 B8030000 		.word	.LC45
 4311 00cc 40000000 		.word	.LC3
 4312 00d0 F4030000 		.word	.LC48
 4313 00d4 D8030000 		.word	.LC47
 4314 00d8 808DFFFF 		.word	-29312
 4315 00dc C8030000 		.word	.LC46
 4316 00e0 00040000 		.word	.LC49
ARM GAS  C:\Users\jo\AppData\Local\Temp\ccK7XbRr.s 			page 77


 4317 00e4 008FFFFF 		.word	-28928
 4318              		.cfi_endproc
 4319              	.LFE29:
 4320              		.size	ssl_fetch_input, .-ssl_fetch_input
 4321 00e8 AFF30080 		.section	.text.ssl_flush_output,"ax",%progbits
 4321      AFF30080 
 4322              		.align	2
 4323              		.p2align 4,,15
 4324              		.global	ssl_flush_output
 4325              		.thumb
 4326              		.thumb_func
 4327              		.type	ssl_flush_output, %function
 4328              	ssl_flush_output:
 4329              	.LFB30:
 4330              		.loc 1 2049 0
 4331              		.cfi_startproc
 4332              		@ args = 0, pretend = 0, frame = 0
 4333              		@ frame_needed = 0, uses_anonymous_args = 0
 4334              	.LVL565:
 4335 0000 70B5     		push	{r4, r5, r6, lr}
 4336              		.cfi_def_cfa_offset 16
 4337              		.cfi_offset 4, -16
 4338              		.cfi_offset 5, -12
 4339              		.cfi_offset 6, -8
 4340              		.cfi_offset 14, -4
 4341 0002 0446     		mov	r4, r0
 4342 0004 82B0     		sub	sp, sp, #8
 4343              		.cfi_def_cfa_offset 24
 4344              		.loc 1 2053 0
 4345 0006 2648     		ldr	r0, .L304
 4346              	.LVL566:
 4347 0008 FFF7FEFF 		bl	debug_fmt
 4348              	.LVL567:
 4349 000c 254A     		ldr	r2, .L304+4
 4350 000e 0090     		str	r0, [sp]
 4351 0010 0221     		movs	r1, #2
 4352 0012 2046     		mov	r0, r4
 4353 0014 40F60503 		movw	r3, #2053
 4354 0018 FFF7FEFF 		bl	debug_print_msg
 4355              	.LVL568:
 4356              		.loc 1 2055 0
 4357 001c D4F8DC20 		ldr	r2, [r4, #220]
 4358 0020 82B3     		cbz	r2, .L299
 4359 0022 214E     		ldr	r6, .L304+8
 4360 0024 05E0     		b	.L298
 4361              	.LVL569:
 4362              	.L303:
 4363              		.loc 1 2068 0
 4364 0026 D4F8DC20 		ldr	r2, [r4, #220]
 4365 002a 521B     		subs	r2, r2, r5
 4366 002c C4F8DC20 		str	r2, [r4, #220]
 4367              		.loc 1 2055 0
 4368 0030 42B3     		cbz	r2, .L299
 4369              	.LVL570:
 4370              	.L298:
 4371              		.loc 1 2057 0
 4372 0032 D4F8D810 		ldr	r1, [r4, #216]
ARM GAS  C:\Users\jo\AppData\Local\Temp\ccK7XbRr.s 			page 78


 4373 0036 1D48     		ldr	r0, .L304+12
 4374 0038 0531     		adds	r1, r1, #5
 4375 003a FFF7FEFF 		bl	debug_fmt
 4376              	.LVL571:
 4377 003e 0221     		movs	r1, #2
 4378 0040 0090     		str	r0, [sp]
 4379 0042 184A     		ldr	r2, .L304+4
 4380 0044 2046     		mov	r0, r4
 4381 0046 40F60A03 		movw	r3, #2058
 4382 004a FFF7FEFF 		bl	debug_print_msg
 4383              	.LVL572:
 4384 004e D4F8D830 		ldr	r3, [r4, #216]
 4385              		.loc 1 2060 0
 4386 0052 D4F8DC20 		ldr	r2, [r4, #220]
 4387              	.LVL573:
 4388 0056 D4F8C810 		ldr	r1, [r4, #200]
 4389              		.loc 1 2061 0
 4390 005a 656B     		ldr	r5, [r4, #52]
 4391 005c E06C     		ldr	r0, [r4, #76]
 4392 005e 0533     		adds	r3, r3, #5
 4393              		.loc 1 2060 0
 4394 0060 9B1A     		subs	r3, r3, r2
 4395              		.loc 1 2061 0
 4396 0062 1944     		add	r1, r1, r3
 4397 0064 A847     		blx	r5
 4398              	.LVL574:
 4399              		.loc 1 2063 0
 4400 0066 0096     		str	r6, [sp]
 4401              		.loc 1 2061 0
 4402 0068 0546     		mov	r5, r0
 4403              	.LVL575:
 4404              		.loc 1 2063 0
 4405 006a 0190     		str	r0, [sp, #4]
 4406 006c 0221     		movs	r1, #2
 4407 006e 2046     		mov	r0, r4
 4408              	.LVL576:
 4409 0070 0C4A     		ldr	r2, .L304+4
 4410 0072 40F60F03 		movw	r3, #2063
 4411 0076 FFF7FEFF 		bl	debug_print_ret
 4412              	.LVL577:
 4413              		.loc 1 2065 0
 4414 007a 002D     		cmp	r5, #0
 4415 007c D3DC     		bgt	.L303
 4416 007e 2846     		mov	r0, r5
 4417              		.loc 1 2074 0
 4418 0080 02B0     		add	sp, sp, #8
 4419              		.cfi_remember_state
 4420              		.cfi_def_cfa_offset 16
 4421              		@ sp needed
 4422 0082 70BD     		pop	{r4, r5, r6, pc}
 4423              	.LVL578:
 4424              	.L299:
 4425              		.cfi_restore_state
 4426              		.loc 1 2071 0
 4427 0084 0A48     		ldr	r0, .L304+16
 4428 0086 FFF7FEFF 		bl	debug_fmt
 4429              	.LVL579:
ARM GAS  C:\Users\jo\AppData\Local\Temp\ccK7XbRr.s 			page 79


 4430 008a 0221     		movs	r1, #2
 4431 008c 0090     		str	r0, [sp]
 4432 008e 054A     		ldr	r2, .L304+4
 4433 0090 2046     		mov	r0, r4
 4434 0092 40F61703 		movw	r3, #2071
 4435 0096 FFF7FEFF 		bl	debug_print_msg
 4436              	.LVL580:
 4437              		.loc 1 2073 0
 4438 009a 0020     		movs	r0, #0
 4439              		.loc 1 2074 0
 4440 009c 02B0     		add	sp, sp, #8
 4441              		.cfi_def_cfa_offset 16
 4442              		@ sp needed
 4443 009e 70BD     		pop	{r4, r5, r6, pc}
 4444              	.LVL581:
 4445              	.L305:
 4446              		.align	2
 4447              	.L304:
 4448 00a0 20040000 		.word	.LC50
 4449 00a4 40000000 		.word	.LC3
 4450 00a8 64040000 		.word	.LC53
 4451 00ac 40040000 		.word	.LC52
 4452 00b0 30040000 		.word	.LC51
 4453              		.cfi_endproc
 4454              	.LFE30:
 4455              		.size	ssl_flush_output, .-ssl_flush_output
 4456 00b4 AFF30080 		.section	.text.ssl_write_record,"ax",%progbits
 4456      AFF30080 
 4456      AFF30080 
 4457              		.align	2
 4458              		.p2align 4,,15
 4459              		.global	ssl_write_record
 4460              		.thumb
 4461              		.thumb_func
 4462              		.type	ssl_write_record, %function
 4463              	ssl_write_record:
 4464              	.LFB31:
 4465              		.loc 1 2080 0
 4466              		.cfi_startproc
 4467              		@ args = 0, pretend = 0, frame = 24
 4468              		@ frame_needed = 0, uses_anonymous_args = 0
 4469              	.LVL582:
 4470 0000 2DE9F04F 		push	{r4, r5, r6, r7, r8, r9, r10, fp, lr}
 4471              		.cfi_def_cfa_offset 36
 4472              		.cfi_offset 4, -36
 4473              		.cfi_offset 5, -32
 4474              		.cfi_offset 6, -28
 4475              		.cfi_offset 7, -24
 4476              		.cfi_offset 8, -20
 4477              		.cfi_offset 9, -16
 4478              		.cfi_offset 10, -12
 4479              		.cfi_offset 11, -8
 4480              		.cfi_offset 14, -4
 4481 0004 0446     		mov	r4, r0
 4482 0006 8FB0     		sub	sp, sp, #60
 4483              		.cfi_def_cfa_offset 96
 4484              		.loc 1 2084 0
ARM GAS  C:\Users\jo\AppData\Local\Temp\ccK7XbRr.s 			page 80


 4485 0008 CB48     		ldr	r0, .L395
 4486              	.LVL583:
 4487              		.loc 1 2082 0
 4488 000a D4F8D850 		ldr	r5, [r4, #216]
 4489              	.LVL584:
 4490              		.loc 1 2084 0
 4491 000e FFF7FEFF 		bl	debug_fmt
 4492              	.LVL585:
 4493 0012 40F62403 		movw	r3, #2084
 4494 0016 0090     		str	r0, [sp]
 4495 0018 0221     		movs	r1, #2
 4496 001a C84A     		ldr	r2, .L395+4
 4497 001c 2046     		mov	r0, r4
 4498 001e FFF7FEFF 		bl	debug_print_msg
 4499              	.LVL586:
 4500              		.loc 1 2086 0
 4501 0022 D4F8D430 		ldr	r3, [r4, #212]
 4502 0026 162B     		cmp	r3, #22
 4503 0028 00F0A281 		beq	.L307
 4504 002c EEB2     		uxtb	r6, r5
 4505              	.L308:
 4506              		.loc 1 2128 0
 4507 002e D4F8C820 		ldr	r2, [r4, #200]
 4508 0032 1370     		strb	r3, [r2]
 4509              		.loc 1 2129 0
 4510 0034 D4F8C830 		ldr	r3, [r4, #200]
 4511 0038 E268     		ldr	r2, [r4, #12]
 4512 003a 5A70     		strb	r2, [r3, #1]
 4513              		.loc 1 2130 0
 4514 003c D4F8C830 		ldr	r3, [r4, #200]
 4515 0040 2269     		ldr	r2, [r4, #16]
 4516 0042 9A70     		strb	r2, [r3, #2]
 4517              		.loc 1 2131 0
 4518 0044 D4F8C820 		ldr	r2, [r4, #200]
 4519 0048 2B0A     		lsrs	r3, r5, #8
 4520 004a D370     		strb	r3, [r2, #3]
 4521              		.loc 1 2132 0
 4522 004c D4F8C830 		ldr	r3, [r4, #200]
 4523 0050 1E71     		strb	r6, [r3, #4]
 4524              		.loc 1 2134 0
 4525 0052 D4F88C30 		ldr	r3, [r4, #140]
 4526 0056 002B     		cmp	r3, #0
 4527 0058 7FD0     		beq	.L310
 4528              	.LVL587:
 4529              	.LBB182:
 4530              	.LBB183:
 4531              		.loc 1 1097 0
 4532 005a B948     		ldr	r0, .L395+8
 4533 005c FFF7FEFF 		bl	debug_fmt
 4534              	.LVL588:
 4535 0060 40F24943 		movw	r3, #1097
 4536 0064 0090     		str	r0, [sp]
 4537 0066 0221     		movs	r1, #2
 4538 0068 B44A     		ldr	r2, .L395+4
 4539 006a 2046     		mov	r0, r4
 4540 006c FFF7FEFF 		bl	debug_print_msg
 4541              	.LVL589:
ARM GAS  C:\Users\jo\AppData\Local\Temp\ccK7XbRr.s 			page 81


 4542              		.loc 1 1099 0
 4543 0070 A36F     		ldr	r3, [r4, #120]
 4544 0072 002B     		cmp	r3, #0
 4545 0074 00F08E83 		beq	.L311
 4546 0078 D4F88C30 		ldr	r3, [r4, #140]
 4547 007c 002B     		cmp	r3, #0
 4548 007e 00F08983 		beq	.L311
 4549              	.LVL590:
 4550              	.LBB184:
 4551              	.LBB185:
 4552              		.file 3 "../../../ext/mbedtls-1.3.11/library/../include/polarssl/cipher.h"
 4553              		.loc 3 422 0
 4554 0082 1D6F     		ldr	r5, [r3, #112]
 4555              	.LVL591:
 4556 0084 002D     		cmp	r5, #0
 4557 0086 00F08981 		beq	.L314
 4558              	.LBE185:
 4559              	.LBE184:
 4560              		.loc 1 1107 0
 4561 008a D4F8D020 		ldr	r2, [r4, #208]
 4562 008e D4F8D830 		ldr	r3, [r4, #216]
 4563              	.LVL592:
 4564 0092 AC49     		ldr	r1, .L395+12
 4565              	.LBB187:
 4566              	.LBB186:
 4567              		.loc 3 425 0
 4568 0094 6D78     		ldrb	r5, [r5, #1]	@ zero_extendqisi2
 4569              	.LBE186:
 4570              	.LBE187:
 4571              		.loc 1 1107 0
 4572 0096 2046     		mov	r0, r4
 4573 0098 8DE80E00 		stmia	sp, {r1, r2, r3}
 4574              	.LVL593:
 4575 009c 0421     		movs	r1, #4
 4576 009e A74A     		ldr	r2, .L395+4
 4577 00a0 40F25443 		movw	r3, #1108
 4578 00a4 FFF7FEFF 		bl	debug_print_buf
 4579              	.LVL594:
 4580              		.loc 1 1114 0
 4581 00a8 072D     		cmp	r5, #7
 4582 00aa 00F09B80 		beq	.L315
 4583 00ae 022D     		cmp	r5, #2
 4584 00b0 00F09380 		beq	.L381
 4585              		.loc 1 1190 0
 4586 00b4 062D     		cmp	r5, #6
 4587 00b6 00F0C881 		beq	.L382
 4588 00ba 082D     		cmp	r5, #8
 4589 00bc 00F0CC81 		beq	.L383
 4590              	.L351:
 4591 00c0 4FF00008 		mov	r8, #0
 4592              	.LVL595:
 4593              	.L325:
 4594              		.loc 1 1281 0
 4595 00c4 022D     		cmp	r5, #2
 4596 00c6 40F05883 		bne	.L332
 4597              	.LBB188:
 4598              		.loc 1 1285 0
ARM GAS  C:\Users\jo\AppData\Local\Temp\ccK7XbRr.s 			page 82


 4599 00ca 0023     		movs	r3, #0
 4600              		.loc 1 1288 0
 4601 00cc D4F88C20 		ldr	r2, [r4, #140]
 4602              		.loc 1 1285 0
 4603 00d0 0993     		str	r3, [sp, #36]
 4604              		.loc 1 1287 0
 4605 00d2 D4F8D800 		ldr	r0, [r4, #216]
 4606              		.loc 1 1288 0
 4607 00d6 D268     		ldr	r2, [r2, #12]
 4608              		.loc 1 1287 0
 4609 00d8 451C     		adds	r5, r0, #1
 4610 00da B5FBF2F1 		udiv	r1, r5, r2
 4611 00de 02FB1155 		mls	r5, r2, r1, r5
 4612 00e2 551B     		subs	r5, r2, r5
 4613              	.LVL596:
 4614              		.loc 1 1289 0
 4615 00e4 AA42     		cmp	r2, r5
 4616 00e6 14BF     		ite	ne
 4617 00e8 EBB2     		uxtbne	r3, r5
 4618              		.loc 1 1290 0
 4619 00ea 1D46     		moveq	r5, r3
 4620              	.LVL597:
 4621              		.loc 1 1292 0
 4622 00ec 0022     		movs	r2, #0
 4623 00ee 01E0     		b	.L335
 4624              	.LVL598:
 4625              	.L384:
 4626 00f0 D4F8D800 		ldr	r0, [r4, #216]
 4627              	.LVL599:
 4628              	.L335:
 4629              		.loc 1 1293 0
 4630 00f4 D4F8D010 		ldr	r1, [r4, #208]
 4631 00f8 1144     		add	r1, r1, r2
 4632              		.loc 1 1292 0
 4633 00fa 0132     		adds	r2, r2, #1
 4634              	.LVL600:
 4635 00fc 9542     		cmp	r5, r2
 4636              		.loc 1 1293 0
 4637 00fe 0B54     		strb	r3, [r1, r0]
 4638              		.loc 1 1292 0
 4639 0100 F6D2     		bcs	.L384
 4640 0102 D4F8D860 		ldr	r6, [r4, #216]
 4641              		.loc 1 1305 0
 4642 0106 2369     		ldr	r3, [r4, #16]
 4643              		.loc 1 1298 0
 4644 0108 D4F8D070 		ldr	r7, [r4, #208]
 4645 010c 0136     		adds	r6, r6, #1
 4646              		.loc 1 1295 0
 4647 010e 2E44     		add	r6, r6, r5
 4648              		.loc 1 1305 0
 4649 0110 012B     		cmp	r3, #1
 4650              		.loc 1 1295 0
 4651 0112 C4F8D860 		str	r6, [r4, #216]
 4652              	.LVL601:
 4653              		.loc 1 1305 0
 4654 0116 40F3C182 		ble	.L385
 4655              	.LBB189:
ARM GAS  C:\Users\jo\AppData\Local\Temp\ccK7XbRr.s 			page 83


 4656              		.loc 1 1310 0
 4657 011a D4F88C10 		ldr	r1, [r4, #140]
 4658 011e A36A     		ldr	r3, [r4, #40]
 4659 0120 CA68     		ldr	r2, [r1, #12]
 4660              	.LVL602:
 4661 0122 206C     		ldr	r0, [r4, #64]
 4662 0124 1831     		adds	r1, r1, #24
 4663 0126 9847     		blx	r3
 4664              	.LVL603:
 4665              		.loc 1 1312 0
 4666 0128 0028     		cmp	r0, #0
 4667 012a 00F04681 		beq	.L386
 4668 012e 0546     		mov	r5, r0
 4669              	.LVL604:
 4670 0130 E6E0     		b	.L313
 4671              	.LVL605:
 4672              	.L393:
 4673              	.LBE189:
 4674              	.LBE188:
 4675              		.loc 1 1420 0
 4676 0132 8548     		ldr	r0, .L395+16
 4677 0134 FFF7FEFF 		bl	debug_fmt
 4678              	.LVL606:
 4679 0138 0221     		movs	r1, #2
 4680 013a 0090     		str	r0, [sp]
 4681 013c 7F4A     		ldr	r2, .L395+4
 4682 013e 40F28C53 		movw	r3, #1420
 4683 0142 2046     		mov	r0, r4
 4684 0144 FFF7FEFF 		bl	debug_print_msg
 4685              	.LVL607:
 4686              	.LBE183:
 4687              	.LBE182:
 4688              		.loc 1 2142 0
 4689 0148 D4F8D830 		ldr	r3, [r4, #216]
 4690              	.LVL608:
 4691              		.loc 1 2143 0
 4692 014c D4F8C820 		ldr	r2, [r4, #200]
 4693 0150 190A     		lsrs	r1, r3, #8
 4694 0152 D170     		strb	r1, [r2, #3]
 4695              		.loc 1 2144 0
 4696 0154 D4F8C820 		ldr	r2, [r4, #200]
 4697 0158 1371     		strb	r3, [r2, #4]
 4698              	.LVL609:
 4699              	.L310:
 4700              		.loc 1 2147 0
 4701 015a D4F8D820 		ldr	r2, [r4, #216]
 4702              		.loc 1 2149 0
 4703 015e D4F8C830 		ldr	r3, [r4, #200]
 4704 0162 7A48     		ldr	r0, .L395+20
 4705              		.loc 1 2147 0
 4706 0164 0532     		adds	r2, r2, #5
 4707 0166 C4F8DC20 		str	r2, [r4, #220]
 4708              		.loc 1 2149 0
 4709 016a DE78     		ldrb	r6, [r3, #3]	@ zero_extendqisi2
 4710 016c 1D79     		ldrb	r5, [r3, #4]	@ zero_extendqisi2
 4711 016e 1978     		ldrb	r1, [r3]	@ zero_extendqisi2
 4712 0170 5A78     		ldrb	r2, [r3, #1]	@ zero_extendqisi2
ARM GAS  C:\Users\jo\AppData\Local\Temp\ccK7XbRr.s 			page 84


 4713 0172 9B78     		ldrb	r3, [r3, #2]	@ zero_extendqisi2
 4714 0174 45EA0625 		orr	r5, r5, r6, lsl #8
 4715 0178 0095     		str	r5, [sp]
 4716 017a FFF7FEFF 		bl	debug_fmt
 4717              	.LVL610:
 4718 017e 0321     		movs	r1, #3
 4719 0180 0090     		str	r0, [sp]
 4720 0182 6E4A     		ldr	r2, .L395+4
 4721 0184 2046     		mov	r0, r4
 4722 0186 40F66803 		movw	r3, #2152
 4723 018a FFF7FEFF 		bl	debug_print_msg
 4724              	.LVL611:
 4725              		.loc 1 2154 0
 4726 018e D4F8D830 		ldr	r3, [r4, #216]
 4727 0192 D4F8C820 		ldr	r2, [r4, #200]
 4728 0196 6E49     		ldr	r1, .L395+24
 4729 0198 0091     		str	r1, [sp]
 4730 019a 0533     		adds	r3, r3, #5
 4731 019c 0293     		str	r3, [sp, #8]
 4732 019e 0192     		str	r2, [sp, #4]
 4733 01a0 2046     		mov	r0, r4
 4734 01a2 0421     		movs	r1, #4
 4735 01a4 654A     		ldr	r2, .L395+4
 4736 01a6 40F66B03 		movw	r3, #2155
 4737 01aa FFF7FEFF 		bl	debug_print_buf
 4738              	.LVL612:
 4739              		.loc 1 2158 0
 4740 01ae 2046     		mov	r0, r4
 4741 01b0 FFF7FEFF 		bl	ssl_flush_output
 4742              	.LVL613:
 4743 01b4 0546     		mov	r5, r0
 4744 01b6 0028     		cmp	r0, #0
 4745 01b8 40F0B080 		bne	.L387
 4746              		.loc 1 2164 0
 4747 01bc 6548     		ldr	r0, .L395+28
 4748              	.LVL614:
 4749 01be FFF7FEFF 		bl	debug_fmt
 4750              	.LVL615:
 4751 01c2 0221     		movs	r1, #2
 4752 01c4 0090     		str	r0, [sp]
 4753 01c6 5D4A     		ldr	r2, .L395+4
 4754 01c8 2046     		mov	r0, r4
 4755 01ca 40F67403 		movw	r3, #2164
 4756 01ce FFF7FEFF 		bl	debug_print_msg
 4757              	.LVL616:
 4758              		.loc 1 2167 0
 4759 01d2 2846     		mov	r0, r5
 4760 01d4 0FB0     		add	sp, sp, #60
 4761              		.cfi_remember_state
 4762              		.cfi_def_cfa_offset 36
 4763              		@ sp needed
 4764 01d6 BDE8F08F 		pop	{r4, r5, r6, r7, r8, r9, r10, fp, pc}
 4765              	.LVL617:
 4766              	.L381:
 4767              		.cfi_restore_state
 4768              	.LBB204:
 4769              	.LBB201:
ARM GAS  C:\Users\jo\AppData\Local\Temp\ccK7XbRr.s 			page 85


 4770              		.loc 1 1117 0
 4771 01da A36F     		ldr	r3, [r4, #120]
 4772 01dc DB6F     		ldr	r3, [r3, #124]
 4773 01de 002B     		cmp	r3, #0
 4774 01e0 7FF46EAF 		bne	.L351
 4775              	.L315:
 4776              		.loc 1 1122 0
 4777 01e4 2369     		ldr	r3, [r4, #16]
 4778 01e6 002B     		cmp	r3, #0
 4779 01e8 00F05C82 		beq	.L388
 4780              		.loc 1 1133 0
 4781 01ec 40F3DF82 		ble	.L319
 4782              		.loc 1 1135 0
 4783 01f0 D4F88C00 		ldr	r0, [r4, #140]
 4784 01f4 D4F8C410 		ldr	r1, [r4, #196]
 4785 01f8 0D22     		movs	r2, #13
 4786 01fa 6030     		adds	r0, r0, #96
 4787 01fc FFF7FEFF 		bl	md_hmac_update
 4788              	.LVL618:
 4789              		.loc 1 1136 0
 4790 0200 D4F88C00 		ldr	r0, [r4, #140]
 4791 0204 D4F8D010 		ldr	r1, [r4, #208]
 4792 0208 D4F8D820 		ldr	r2, [r4, #216]
 4793 020c 6030     		adds	r0, r0, #96
 4794 020e FFF7FEFF 		bl	md_hmac_update
 4795              	.LVL619:
 4796              		.loc 1 1138 0
 4797 0212 D4F88C00 		ldr	r0, [r4, #140]
 4798 0216 D4F8D010 		ldr	r1, [r4, #208]
 4799 021a D4F8D830 		ldr	r3, [r4, #216]
 4800 021e 6030     		adds	r0, r0, #96
 4801 0220 1944     		add	r1, r1, r3
 4802 0222 FFF7FEFF 		bl	md_hmac_finish
 4803              	.LVL620:
 4804              		.loc 1 1140 0
 4805 0226 D4F88C00 		ldr	r0, [r4, #140]
 4806 022a 6030     		adds	r0, r0, #96
 4807 022c FFF7FEFF 		bl	md_hmac_reset
 4808              	.LVL621:
 4809              	.L318:
 4810              		.loc 1 1149 0
 4811 0230 D4F8D010 		ldr	r1, [r4, #208]
 4812 0234 D4F8D830 		ldr	r3, [r4, #216]
 4813 0238 D4F88C20 		ldr	r2, [r4, #140]
 4814 023c 4648     		ldr	r0, .L395+32
 4815 023e 0090     		str	r0, [sp]
 4816 0240 0B44     		add	r3, r3, r1
 4817 0242 0193     		str	r3, [sp, #4]
 4818 0244 5369     		ldr	r3, [r2, #20]
 4819 0246 0293     		str	r3, [sp, #8]
 4820 0248 3C4A     		ldr	r2, .L395+4
 4821 024a 40F27F43 		movw	r3, #1151
 4822 024e 2046     		mov	r0, r4
 4823 0250 0421     		movs	r1, #4
 4824 0252 FFF7FEFF 		bl	debug_print_buf
 4825              	.LVL622:
 4826              		.loc 1 1153 0
ARM GAS  C:\Users\jo\AppData\Local\Temp\ccK7XbRr.s 			page 86


 4827 0256 D4F88C30 		ldr	r3, [r4, #140]
 4828 025a D4F8D860 		ldr	r6, [r4, #216]
 4829 025e 5A69     		ldr	r2, [r3, #20]
 4830              		.loc 1 1162 0
 4831 0260 072D     		cmp	r5, #7
 4832              		.loc 1 1153 0
 4833 0262 1644     		add	r6, r6, r2
 4834 0264 C4F8D860 		str	r6, [r4, #216]
 4835              	.LVL623:
 4836              		.loc 1 1162 0
 4837 0268 00F0FD80 		beq	.L389
 4838              		.loc 1 1190 0
 4839 026c 062D     		cmp	r5, #6
 4840              		.loc 1 1154 0
 4841 026e 4FF00108 		mov	r8, #1
 4842              		.loc 1 1190 0
 4843 0272 7FF427AF 		bne	.L325
 4844              	.LVL624:
 4845              	.L349:
 4846              	.LBB192:
 4847              		.loc 1 1197 0
 4848 0276 1A68     		ldr	r2, [r3]
 4849              		.loc 1 1200 0
 4850 0278 D4F8C430 		ldr	r3, [r4, #196]
 4851              		.loc 1 1197 0
 4852 027c 127F     		ldrb	r2, [r2, #28]	@ zero_extendqisi2
 4853              		.loc 1 1200 0
 4854 027e 1868     		ldr	r0, [r3]	@ unaligned
 4855 0280 5968     		ldr	r1, [r3, #4]	@ unaligned
 4856              		.loc 1 1207 0
 4857 0282 364B     		ldr	r3, .L395+36
 4858 0284 0093     		str	r3, [sp]
 4859              		.loc 1 1200 0
 4860 0286 0DF1280B 		add	fp, sp, #40
 4861 028a 5B46     		mov	r3, fp
 4862              		.loc 1 1207 0
 4863 028c 4FF00D09 		mov	r9, #13
 4864 0290 CDF804B0 		str	fp, [sp, #4]
 4865              		.loc 1 1200 0
 4866 0294 03C3     		stmia	r3!, {r0, r1}
 4867              		.loc 1 1207 0
 4868 0296 CDF80890 		str	r9, [sp, #8]
 4869              		.loc 1 1197 0
 4870 029a 12F0020F 		tst	r2, #2
 4871              		.loc 1 1204 0
 4872 029e 4FEA162C 		lsr	ip, r6, #8
 4873              		.loc 1 1201 0
 4874 02a2 D4F8D470 		ldr	r7, [r4, #212]
 4875              		.loc 1 1203 0
 4876 02a6 2569     		ldr	r5, [r4, #16]
 4877              		.loc 1 1205 0
 4878 02a8 8DF83460 		strb	r6, [sp, #52]
 4879              		.loc 1 1207 0
 4880 02ac 2046     		mov	r0, r4
 4881 02ae 4FF00401 		mov	r1, #4
 4882 02b2 4FF49763 		mov	r3, #1208
 4883              		.loc 1 1202 0
ARM GAS  C:\Users\jo\AppData\Local\Temp\ccK7XbRr.s 			page 87


 4884 02b6 267B     		ldrb	r6, [r4, #12]	@ zero_extendqisi2
 4885              		.loc 1 1207 0
 4886 02b8 204A     		ldr	r2, .L395+4
 4887              		.loc 1 1204 0
 4888 02ba 8DF833C0 		strb	ip, [sp, #51]
 4889              		.loc 1 1197 0
 4890 02be 14BF     		ite	ne
 4891 02c0 4FF0080A 		movne	r10, #8
 4892 02c4 4FF0100A 		moveq	r10, #16
 4893              	.LVL625:
 4894              		.loc 1 1201 0
 4895 02c8 8DF83070 		strb	r7, [sp, #48]
 4896              		.loc 1 1202 0
 4897 02cc 8DF83160 		strb	r6, [sp, #49]
 4898              		.loc 1 1203 0
 4899 02d0 8DF83250 		strb	r5, [sp, #50]
 4900              		.loc 1 1207 0
 4901 02d4 FFF7FEFF 		bl	debug_print_buf
 4902              	.LVL626:
 4903              		.loc 1 1224 0
 4904 02d8 D4F88C10 		ldr	r1, [r4, #140]
 4905 02dc 0869     		ldr	r0, [r1, #16]
 4906 02de CB68     		ldr	r3, [r1, #12]
 4907 02e0 1B1A     		subs	r3, r3, r0
 4908 02e2 082B     		cmp	r3, #8
 4909 02e4 00F07781 		beq	.L327
 4910              		.loc 1 1227 0
 4911 02e8 1D48     		ldr	r0, .L395+40
 4912              		.loc 1 1228 0
 4913 02ea 1E4D     		ldr	r5, .L395+44
 4914              		.loc 1 1227 0
 4915 02ec FFF7FEFF 		bl	debug_fmt
 4916              	.LVL627:
 4917 02f0 0121     		movs	r1, #1
 4918 02f2 0090     		str	r0, [sp]
 4919 02f4 114A     		ldr	r2, .L395+4
 4920 02f6 2046     		mov	r0, r4
 4921 02f8 40F2CB43 		movw	r3, #1227
 4922 02fc FFF7FEFF 		bl	debug_print_msg
 4923              	.LVL628:
 4924              	.L313:
 4925              	.LBE192:
 4926              	.LBE201:
 4927              	.LBE204:
 4928              		.loc 1 2138 0
 4929 0300 194B     		ldr	r3, .L395+48
 4930 0302 0093     		str	r3, [sp]
 4931 0304 2046     		mov	r0, r4
 4932 0306 0195     		str	r5, [sp, #4]
 4933 0308 0121     		movs	r1, #1
 4934 030a 0C4A     		ldr	r2, .L395+4
 4935 030c 40F65A03 		movw	r3, #2138
 4936 0310 FFF7FEFF 		bl	debug_print_ret
 4937              	.LVL629:
 4938              		.loc 1 2167 0
 4939 0314 2846     		mov	r0, r5
 4940 0316 0FB0     		add	sp, sp, #60
ARM GAS  C:\Users\jo\AppData\Local\Temp\ccK7XbRr.s 			page 88


 4941              		.cfi_remember_state
 4942              		.cfi_def_cfa_offset 36
 4943              		@ sp needed
 4944 0318 BDE8F08F 		pop	{r4, r5, r6, r7, r8, r9, r10, fp, pc}
 4945              	.LVL630:
 4946              	.L387:
 4947              		.cfi_restore_state
 4948              		.loc 1 2160 0
 4949 031c 134B     		ldr	r3, .L395+52
 4950 031e 0190     		str	r0, [sp, #4]
 4951 0320 0093     		str	r3, [sp]
 4952 0322 2046     		mov	r0, r4
 4953              	.LVL631:
 4954 0324 0121     		movs	r1, #1
 4955 0326 054A     		ldr	r2, .L395+4
 4956 0328 4FF40763 		mov	r3, #2160
 4957 032c FFF7FEFF 		bl	debug_print_ret
 4958              	.LVL632:
 4959              		.loc 1 2167 0
 4960 0330 2846     		mov	r0, r5
 4961 0332 0FB0     		add	sp, sp, #60
 4962              		.cfi_remember_state
 4963              		.cfi_def_cfa_offset 36
 4964              		@ sp needed
 4965 0334 BDE8F08F 		pop	{r4, r5, r6, r7, r8, r9, r10, fp, pc}
 4966              	.LVL633:
 4967              	.L396:
 4968              		.align	2
 4969              	.L395:
 4970 0338 70040000 		.word	.LC54
 4971 033c 40000000 		.word	.LC3
 4972 0340 80040000 		.word	.LC55
 4973 0344 90040000 		.word	.LC56
 4974 0348 78060000 		.word	.LC72
 4975 034c D4050000 		.word	.LC67
 4976 0350 10060000 		.word	.LC68
 4977 0354 44060000 		.word	.LC70
 4978 0358 B0040000 		.word	.LC57
 4979 035c 0C050000 		.word	.LC60
 4980 0360 20020000 		.word	.LC24
 4981 0364 0094FFFF 		.word	-27648
 4982 0368 88060000 		.word	.LC73
 4983 036c 30060000 		.word	.LC69
 4984              	.LVL634:
 4985              	.L307:
 4986              		.cfi_restore_state
 4987              		.loc 1 2088 0
 4988 0370 D4F8D020 		ldr	r2, [r4, #208]
 4989 0374 2B1F     		subs	r3, r5, #4
 4990 0376 190C     		lsrs	r1, r3, #16
 4991 0378 5170     		strb	r1, [r2, #1]
 4992              		.loc 1 2089 0
 4993 037a D4F8D020 		ldr	r2, [r4, #208]
 4994 037e 1B0A     		lsrs	r3, r3, #8
 4995 0380 9370     		strb	r3, [r2, #2]
 4996              		.loc 1 2090 0
 4997 0382 D4F8D030 		ldr	r3, [r4, #208]
ARM GAS  C:\Users\jo\AppData\Local\Temp\ccK7XbRr.s 			page 89


 4998 0386 EEB2     		uxtb	r6, r5
 4999 0388 321F     		subs	r2, r6, #4
 5000 038a DA70     		strb	r2, [r3, #3]
 5001              		.loc 1 2092 0
 5002 038c D4F8D010 		ldr	r1, [r4, #208]
 5003 0390 0B78     		ldrb	r3, [r1]	@ zero_extendqisi2
 5004 0392 002B     		cmp	r3, #0
 5005 0394 51D1     		bne	.L390
 5006              	.L376:
 5007 0396 D4F8D430 		ldr	r3, [r4, #212]
 5008 039a 48E6     		b	.L308
 5009              	.LVL635:
 5010              	.L314:
 5011              	.LBB205:
 5012              	.LBB202:
 5013              		.loc 1 1107 0
 5014 039c D4F8D020 		ldr	r2, [r4, #208]
 5015 03a0 D4F8D830 		ldr	r3, [r4, #216]
 5016              	.LVL636:
 5017 03a4 C849     		ldr	r1, .L397
 5018 03a6 2046     		mov	r0, r4
 5019 03a8 8DE80E00 		stmia	sp, {r1, r2, r3}
 5020              	.LVL637:
 5021 03ac 0421     		movs	r1, #4
 5022 03ae C74A     		ldr	r2, .L397+4
 5023 03b0 40F25443 		movw	r3, #1108
 5024 03b4 FFF7FEFF 		bl	debug_print_buf
 5025              	.LVL638:
 5026 03b8 82E6     		b	.L351
 5027              	.LVL639:
 5028              	.L386:
 5029              	.LBB193:
 5030              	.LBB190:
 5031              		.loc 1 1315 0
 5032 03ba D4F88C10 		ldr	r1, [r4, #140]
 5033 03be D4F8CC00 		ldr	r0, [r4, #204]
 5034              	.LVL640:
 5035 03c2 CA68     		ldr	r2, [r1, #12]
 5036 03c4 1831     		adds	r1, r1, #24
 5037 03c6 FFF7FEFF 		bl	memcpy
 5038              	.LVL641:
 5039              		.loc 1 1323 0
 5040 03ca D4F88C30 		ldr	r3, [r4, #140]
 5041              		.loc 1 1322 0
 5042 03ce D4F8D860 		ldr	r6, [r4, #216]
 5043              	.LVL642:
 5044              		.loc 1 1323 0
 5045 03d2 D968     		ldr	r1, [r3, #12]
 5046              		.loc 1 1321 0
 5047 03d4 D4F8D070 		ldr	r7, [r4, #208]
 5048              	.LVL643:
 5049              		.loc 1 1323 0
 5050 03d8 3144     		add	r1, r1, r6
 5051 03da C4F8D810 		str	r1, [r4, #216]
 5052              	.L337:
 5053              	.LBE190:
 5054              		.loc 1 1327 0
ARM GAS  C:\Users\jo\AppData\Local\Temp\ccK7XbRr.s 			page 90


 5055 03de DA68     		ldr	r2, [r3, #12]
 5056 03e0 BB48     		ldr	r0, .L397+8
 5057 03e2 6B1C     		adds	r3, r5, #1
 5058 03e4 FFF7FEFF 		bl	debug_fmt
 5059              	.LVL644:
 5060 03e8 0321     		movs	r1, #3
 5061 03ea 0090     		str	r0, [sp]
 5062 03ec B74A     		ldr	r2, .L397+4
 5063 03ee 2046     		mov	r0, r4
 5064 03f0 40F23253 		movw	r3, #1330
 5065 03f4 FFF7FEFF 		bl	debug_print_msg
 5066              	.LVL645:
 5067              		.loc 1 1332 0
 5068 03f8 D4F88C10 		ldr	r1, [r4, #140]
 5069 03fc 09AD     		add	r5, sp, #36
 5070              	.LVL646:
 5071 03fe CA68     		ldr	r2, [r1, #12]
 5072 0400 0295     		str	r5, [sp, #8]
 5073 0402 01F17000 		add	r0, r1, #112
 5074 0406 0096     		str	r6, [sp]
 5075 0408 0197     		str	r7, [sp, #4]
 5076 040a 3B46     		mov	r3, r7
 5077 040c 1831     		adds	r1, r1, #24
 5078 040e FFF7FEFF 		bl	cipher_crypt
 5079              	.LVL647:
 5080 0412 0546     		mov	r5, r0
 5081 0414 0028     		cmp	r0, #0
 5082 0416 40F06D81 		bne	.L391
 5083              		.loc 1 1342 0
 5084 041a 099B     		ldr	r3, [sp, #36]
 5085 041c 9E42     		cmp	r6, r3
 5086 041e 58D0     		beq	.L340
 5087              		.loc 1 1344 0
 5088 0420 AC48     		ldr	r0, .L397+12
 5089              	.LVL648:
 5090              		.loc 1 1345 0
 5091 0422 AD4D     		ldr	r5, .L397+16
 5092              	.LVL649:
 5093              		.loc 1 1344 0
 5094 0424 FFF7FEFF 		bl	debug_fmt
 5095              	.LVL650:
 5096 0428 0121     		movs	r1, #1
 5097 042a 0090     		str	r0, [sp]
 5098 042c A74A     		ldr	r2, .L397+4
 5099 042e 2046     		mov	r0, r4
 5100 0430 4FF4A863 		mov	r3, #1344
 5101 0434 FFF7FEFF 		bl	debug_print_msg
 5102              	.LVL651:
 5103 0438 62E7     		b	.L313
 5104              	.LVL652:
 5105              	.L390:
 5106              	.LBE193:
 5107              	.LBE202:
 5108              	.LBE205:
 5109              		.loc 1 2093 0
 5110 043a D4F88430 		ldr	r3, [r4, #132]
 5111 043e 2046     		mov	r0, r4
ARM GAS  C:\Users\jo\AppData\Local\Temp\ccK7XbRr.s 			page 91


 5112 0440 D3F84036 		ldr	r3, [r3, #1600]
 5113 0444 2A46     		mov	r2, r5
 5114 0446 9847     		blx	r3
 5115              	.LVL653:
 5116 0448 A5E7     		b	.L376
 5117              	.LVL654:
 5118              	.L382:
 5119 044a D4F8D860 		ldr	r6, [r4, #216]
 5120 044e D4F88C30 		ldr	r3, [r4, #140]
 5121              	.LBB206:
 5122              	.LBB203:
 5123              		.loc 1 1190 0
 5124 0452 4FF00008 		mov	r8, #0
 5125 0456 0EE7     		b	.L349
 5126              	.L383:
 5127 0458 4FF00008 		mov	r8, #0
 5128 045c D4F8D860 		ldr	r6, [r4, #216]
 5129 0460 D4F88C30 		ldr	r3, [r4, #140]
 5130 0464 07E7     		b	.L349
 5131              	.LVL655:
 5132              	.L389:
 5133              	.LBB194:
 5134              		.loc 1 1165 0
 5135 0466 0023     		movs	r3, #0
 5136 0468 0EAD     		add	r5, sp, #56
 5137              		.loc 1 1167 0
 5138 046a 3146     		mov	r1, r6
 5139 046c 1A46     		mov	r2, r3
 5140 046e 9B48     		ldr	r0, .L397+20
 5141              		.loc 1 1165 0
 5142 0470 45F8103D 		str	r3, [r5, #-16]!
 5143              		.loc 1 1167 0
 5144 0474 FFF7FEFF 		bl	debug_fmt
 5145              	.LVL656:
 5146 0478 0321     		movs	r1, #3
 5147 047a 0090     		str	r0, [sp]
 5148 047c 934A     		ldr	r2, .L397+4
 5149 047e 2046     		mov	r0, r4
 5150 0480 40F29143 		movw	r3, #1169
 5151 0484 FFF7FEFF 		bl	debug_print_msg
 5152              	.LVL657:
 5153              		.loc 1 1171 0
 5154 0488 D4F88C10 		ldr	r1, [r4, #140]
 5155 048c D4F8D030 		ldr	r3, [r4, #208]
 5156 0490 D4F8D860 		ldr	r6, [r4, #216]
 5157 0494 CA68     		ldr	r2, [r1, #12]
 5158 0496 0295     		str	r5, [sp, #8]
 5159 0498 01F17000 		add	r0, r1, #112
 5160 049c 0193     		str	r3, [sp, #4]
 5161 049e 1831     		adds	r1, r1, #24
 5162 04a0 0096     		str	r6, [sp]
 5163 04a2 FFF7FEFF 		bl	cipher_crypt
 5164              	.LVL658:
 5165 04a6 0546     		mov	r5, r0
 5166 04a8 0028     		cmp	r0, #0
 5167 04aa 40F02E81 		bne	.L392
 5168              		.loc 1 1181 0
ARM GAS  C:\Users\jo\AppData\Local\Temp\ccK7XbRr.s 			page 92


 5169 04ae D4F8D820 		ldr	r2, [r4, #216]
 5170 04b2 0A9B     		ldr	r3, [sp, #40]
 5171 04b4 9A42     		cmp	r2, r3
 5172 04b6 74D0     		beq	.L324
 5173              		.loc 1 1183 0
 5174 04b8 8648     		ldr	r0, .L397+12
 5175              	.LVL659:
 5176              		.loc 1 1184 0
 5177 04ba 874D     		ldr	r5, .L397+16
 5178              	.LVL660:
 5179              		.loc 1 1183 0
 5180 04bc FFF7FEFF 		bl	debug_fmt
 5181              	.LVL661:
 5182 04c0 0121     		movs	r1, #1
 5183 04c2 0090     		str	r0, [sp]
 5184 04c4 814A     		ldr	r2, .L397+4
 5185 04c6 2046     		mov	r0, r4
 5186 04c8 40F29F43 		movw	r3, #1183
 5187 04cc FFF7FEFF 		bl	debug_print_msg
 5188              	.LVL662:
 5189 04d0 16E7     		b	.L313
 5190              	.LVL663:
 5191              	.L340:
 5192              	.LBE194:
 5193              	.LBB195:
 5194              		.loc 1 1349 0
 5195 04d2 2369     		ldr	r3, [r4, #16]
 5196 04d4 012B     		cmp	r3, #1
 5197 04d6 08DC     		bgt	.L341
 5198              		.loc 1 1354 0
 5199 04d8 D4F88C30 		ldr	r3, [r4, #140]
 5200 04dc 03F11800 		add	r0, r3, #24
 5201              	.LVL664:
 5202 04e0 03F19801 		add	r1, r3, #152
 5203 04e4 DA68     		ldr	r2, [r3, #12]
 5204 04e6 FFF7FEFF 		bl	memcpy
 5205              	.LVL665:
 5206              	.L341:
 5207              		.loc 1 1361 0
 5208 04ea B8F1000F 		cmp	r8, #0
 5209 04ee 58D1     		bne	.L324
 5210              	.LBB191:
 5211              		.loc 1 1373 0
 5212 04f0 7B48     		ldr	r0, .L397+24
 5213              		.loc 1 1380 0
 5214 04f2 DFF8FC91 		ldr	r9, .L397+40
 5215              		.loc 1 1373 0
 5216 04f6 FFF7FEFF 		bl	debug_fmt
 5217              	.LVL666:
 5218 04fa 0321     		movs	r1, #3
 5219 04fc 0090     		str	r0, [sp]
 5220 04fe 734A     		ldr	r2, .L397+4
 5221 0500 2046     		mov	r0, r4
 5222 0502 40F25D53 		movw	r3, #1373
 5223 0506 FFF7FEFF 		bl	debug_print_msg
 5224              	.LVL667:
 5225              		.loc 1 1375 0
ARM GAS  C:\Users\jo\AppData\Local\Temp\ccK7XbRr.s 			page 93


 5226 050a D4F8C430 		ldr	r3, [r4, #196]
 5227              		.loc 1 1376 0
 5228 050e D4F8C8E0 		ldr	lr, [r4, #200]
 5229              		.loc 1 1375 0
 5230 0512 1868     		ldr	r0, [r3]	@ unaligned
 5231 0514 5968     		ldr	r1, [r3, #4]	@ unaligned
 5232              		.loc 1 1377 0
 5233 0516 D4F8D870 		ldr	r7, [r4, #216]
 5234              	.LVL668:
 5235              		.loc 1 1380 0
 5236 051a 6C4A     		ldr	r2, .L397+4
 5237              		.loc 1 1375 0
 5238 051c 0AAD     		add	r5, sp, #40
 5239              	.LVL669:
 5240 051e 2B46     		mov	r3, r5
 5241 0520 03C3     		stmia	r3!, {r0, r1}
 5242              		.loc 1 1380 0
 5243 0522 0D26     		movs	r6, #13
 5244              	.LVL670:
 5245              		.loc 1 1376 0
 5246 0524 9EF802C0 		ldrb	ip, [lr, #2]	@ zero_extendqisi2
 5247 0528 BEF80080 		ldrh	r8, [lr]	@ unaligned
 5248              		.loc 1 1380 0
 5249 052c 0195     		str	r5, [sp, #4]
 5250              		.loc 1 1377 0
 5251 052e 4FEA172E 		lsr	lr, r7, #8
 5252              		.loc 1 1380 0
 5253 0532 40F26453 		movw	r3, #1380
 5254 0536 2046     		mov	r0, r4
 5255 0538 0421     		movs	r1, #4
 5256 053a CDF80090 		str	r9, [sp]
 5257 053e 0296     		str	r6, [sp, #8]
 5258              		.loc 1 1376 0
 5259 0540 8DF832C0 		strb	ip, [sp, #50]
 5260              		.loc 1 1377 0
 5261 0544 8DF833E0 		strb	lr, [sp, #51]
 5262              		.loc 1 1376 0
 5263 0548 ADF83080 		strh	r8, [sp, #48]	@ unaligned
 5264              		.loc 1 1378 0
 5265 054c 8DF83470 		strb	r7, [sp, #52]
 5266              		.loc 1 1380 0
 5267 0550 FFF7FEFF 		bl	debug_print_buf
 5268              	.LVL671:
 5269              		.loc 1 1382 0
 5270 0554 D4F88C00 		ldr	r0, [r4, #140]
 5271 0558 2946     		mov	r1, r5
 5272 055a 3246     		mov	r2, r6
 5273 055c 6030     		adds	r0, r0, #96
 5274 055e FFF7FEFF 		bl	md_hmac_update
 5275              	.LVL672:
 5276              		.loc 1 1383 0
 5277 0562 D4F88C00 		ldr	r0, [r4, #140]
 5278 0566 D4F8D820 		ldr	r2, [r4, #216]
 5279 056a D4F8CC10 		ldr	r1, [r4, #204]
 5280 056e 6030     		adds	r0, r0, #96
 5281 0570 FFF7FEFF 		bl	md_hmac_update
 5282              	.LVL673:
ARM GAS  C:\Users\jo\AppData\Local\Temp\ccK7XbRr.s 			page 94


 5283              		.loc 1 1385 0
 5284 0574 D4F8D830 		ldr	r3, [r4, #216]
 5285 0578 D4F88C00 		ldr	r0, [r4, #140]
 5286 057c D4F8CC10 		ldr	r1, [r4, #204]
 5287 0580 6030     		adds	r0, r0, #96
 5288 0582 1944     		add	r1, r1, r3
 5289 0584 FFF7FEFF 		bl	md_hmac_finish
 5290              	.LVL674:
 5291              		.loc 1 1387 0
 5292 0588 D4F88C00 		ldr	r0, [r4, #140]
 5293 058c 6030     		adds	r0, r0, #96
 5294 058e FFF7FEFF 		bl	md_hmac_reset
 5295              	.LVL675:
 5296              		.loc 1 1389 0
 5297 0592 D4F88C30 		ldr	r3, [r4, #140]
 5298 0596 D4F8D820 		ldr	r2, [r4, #216]
 5299 059a 5B69     		ldr	r3, [r3, #20]
 5300 059c 1344     		add	r3, r3, r2
 5301 059e C4F8D830 		str	r3, [r4, #216]
 5302              	.LVL676:
 5303              	.L324:
 5304              	.LBE191:
 5305              		.loc 1 1345 0
 5306 05a2 0822     		movs	r2, #8
 5307              	.LVL677:
 5308              	.L345:
 5309              	.LBE195:
 5310              		.loc 1 1410 0
 5311 05a4 013A     		subs	r2, r2, #1
 5312              	.LVL678:
 5313 05a6 D4F8C410 		ldr	r1, [r4, #196]
 5314 05aa 8B5C     		ldrb	r3, [r1, r2]	@ zero_extendqisi2
 5315 05ac 0133     		adds	r3, r3, #1
 5316 05ae DBB2     		uxtb	r3, r3
 5317 05b0 8B54     		strb	r3, [r1, r2]
 5318 05b2 002B     		cmp	r3, #0
 5319 05b4 7FF4BDAD 		bne	.L393
 5320              		.loc 1 1409 0
 5321 05b8 002A     		cmp	r2, #0
 5322 05ba F3D1     		bne	.L345
 5323              		.loc 1 1416 0
 5324 05bc 4948     		ldr	r0, .L397+28
 5325              		.loc 1 1417 0
 5326 05be 4A4D     		ldr	r5, .L397+32
 5327              		.loc 1 1416 0
 5328 05c0 FFF7FEFF 		bl	debug_fmt
 5329              	.LVL679:
 5330 05c4 0121     		movs	r1, #1
 5331 05c6 0090     		str	r0, [sp]
 5332 05c8 404A     		ldr	r2, .L397+4
 5333 05ca 2046     		mov	r0, r4
 5334 05cc 4FF4B163 		mov	r3, #1416
 5335 05d0 FFF7FEFF 		bl	debug_print_msg
 5336              	.LVL680:
 5337 05d4 94E6     		b	.L313
 5338              	.LVL681:
 5339              	.L327:
ARM GAS  C:\Users\jo\AppData\Local\Temp\ccK7XbRr.s 			page 95


 5340              	.LBB196:
 5341              		.loc 1 1231 0
 5342 05d6 D4F8C430 		ldr	r3, [r4, #196]
 5343              		.loc 1 1236 0
 5344 05da 444D     		ldr	r5, .L397+36
 5345              		.loc 1 1231 0
 5346 05dc 5E68     		ldr	r6, [r3, #4]	@ unaligned
 5347 05de 1F68     		ldr	r7, [r3]	@ unaligned
 5348              		.loc 1 1236 0
 5349 05e0 3A4A     		ldr	r2, .L397+4
 5350              		.loc 1 1231 0
 5351 05e2 1830     		adds	r0, r0, #24
 5352 05e4 0B18     		adds	r3, r1, r0
 5353 05e6 0F50     		str	r7, [r1, r0]	@ unaligned
 5354 05e8 5E60     		str	r6, [r3, #4]	@ unaligned
 5355              		.loc 1 1233 0
 5356 05ea D4F8C410 		ldr	r1, [r4, #196]
 5357 05ee D4F8CC30 		ldr	r3, [r4, #204]
 5358 05f2 0868     		ldr	r0, [r1]	@ unaligned
 5359 05f4 4968     		ldr	r1, [r1, #4]	@ unaligned
 5360 05f6 5960     		str	r1, [r3, #4]	@ unaligned
 5361 05f8 1860     		str	r0, [r3]	@ unaligned
 5362              		.loc 1 1236 0
 5363 05fa D4F88C10 		ldr	r1, [r4, #140]
 5364 05fe D4F8CC30 		ldr	r3, [r4, #204]
 5365 0602 0193     		str	r3, [sp, #4]
 5366 0604 0095     		str	r5, [sp]
 5367 0606 CB68     		ldr	r3, [r1, #12]
 5368 0608 0969     		ldr	r1, [r1, #16]
 5369 060a 5B1A     		subs	r3, r3, r1
 5370 060c 0293     		str	r3, [sp, #8]
 5371 060e 2046     		mov	r0, r4
 5372 0610 0421     		movs	r1, #4
 5373 0612 40F2D543 		movw	r3, #1237
 5374 0616 FFF7FEFF 		bl	debug_print_buf
 5375              	.LVL682:
 5376              		.loc 1 1244 0
 5377 061a D4F88C20 		ldr	r2, [r4, #140]
 5378              		.loc 1 1243 0
 5379 061e D4F8D860 		ldr	r6, [r4, #216]
 5380 0622 D368     		ldr	r3, [r2, #12]
 5381              		.loc 1 1244 0
 5382 0624 1169     		ldr	r1, [r2, #16]
 5383              		.loc 1 1247 0
 5384 0626 2D48     		ldr	r0, .L397+20
 5385              		.loc 1 1242 0
 5386 0628 D4F8D050 		ldr	r5, [r4, #208]
 5387              	.LVL683:
 5388 062c 3344     		add	r3, r3, r6
 5389              		.loc 1 1244 0
 5390 062e 591A     		subs	r1, r3, r1
 5391 0630 C4F8D810 		str	r1, [r4, #216]
 5392              		.loc 1 1247 0
 5393 0634 0022     		movs	r2, #0
 5394 0636 FFF7FEFF 		bl	debug_fmt
 5395              	.LVL684:
 5396 063a 0321     		movs	r1, #3
ARM GAS  C:\Users\jo\AppData\Local\Temp\ccK7XbRr.s 			page 96


 5397 063c 0090     		str	r0, [sp]
 5398 063e 234A     		ldr	r2, .L397+4
 5399 0640 2046     		mov	r0, r4
 5400 0642 40F2E143 		movw	r3, #1249
 5401 0646 FFF7FEFF 		bl	debug_print_msg
 5402              	.LVL685:
 5403              		.loc 1 1254 0
 5404 064a D4F88C10 		ldr	r1, [r4, #140]
 5405 064e AF19     		adds	r7, r5, r6
 5406 0650 0DF1240E 		add	lr, sp, #36
 5407 0654 CA68     		ldr	r2, [r1, #12]
 5408 0656 0195     		str	r5, [sp, #4]
 5409 0658 0395     		str	r5, [sp, #12]
 5410 065a 01F17000 		add	r0, r1, #112
 5411 065e 5B46     		mov	r3, fp
 5412 0660 0597     		str	r7, [sp, #20]
 5413 0662 0296     		str	r6, [sp, #8]
 5414 0664 CDF80090 		str	r9, [sp]
 5415 0668 CDF818A0 		str	r10, [sp, #24]
 5416 066c 1831     		adds	r1, r1, #24
 5417 066e CDF810E0 		str	lr, [sp, #16]
 5418 0672 FFF7FEFF 		bl	cipher_auth_encrypt
 5419              	.LVL686:
 5420 0676 0546     		mov	r5, r0
 5421              	.LVL687:
 5422 0678 0028     		cmp	r0, #0
 5423 067a 51D1     		bne	.L394
 5424              		.loc 1 1266 0
 5425 067c 099B     		ldr	r3, [sp, #36]
 5426 067e 9E42     		cmp	r6, r3
 5427 0680 59D0     		beq	.L330
 5428              		.loc 1 1268 0
 5429 0682 1448     		ldr	r0, .L397+12
 5430              	.LVL688:
 5431              		.loc 1 1269 0
 5432 0684 144D     		ldr	r5, .L397+16
 5433              	.LVL689:
 5434              		.loc 1 1268 0
 5435 0686 FFF7FEFF 		bl	debug_fmt
 5436              	.LVL690:
 5437 068a 0121     		movs	r1, #1
 5438 068c 0090     		str	r0, [sp]
 5439 068e 0F4A     		ldr	r2, .L397+4
 5440 0690 2046     		mov	r0, r4
 5441 0692 40F2F443 		movw	r3, #1268
 5442 0696 FFF7FEFF 		bl	debug_print_msg
 5443              	.LVL691:
 5444 069a 31E6     		b	.L313
 5445              	.LVL692:
 5446              	.L385:
 5447 069c D4F88C30 		ldr	r3, [r4, #140]
 5448              	.LBE196:
 5449              	.LBB197:
 5450              		.loc 1 1305 0
 5451 06a0 3146     		mov	r1, r6
 5452 06a2 9CE6     		b	.L337
 5453              	.LVL693:
ARM GAS  C:\Users\jo\AppData\Local\Temp\ccK7XbRr.s 			page 97


 5454              	.L388:
 5455              	.LBE197:
 5456              		.loc 1 1124 0
 5457 06a4 D4F88C10 		ldr	r1, [r4, #140]
 5458 06a8 D4F8C400 		ldr	r0, [r4, #196]
 5459 06ac D4F8D460 		ldr	r6, [r4, #212]
 5460 06b0 D4F8D020 		ldr	r2, [r4, #208]
 5461 06b4 D4F8D830 		ldr	r3, [r4, #216]
 5462 06b8 0090     		str	r0, [sp]
 5463 06ba 0196     		str	r6, [sp, #4]
 5464 06bc 01F16000 		add	r0, r1, #96
 5465 06c0 3831     		adds	r1, r1, #56
 5466 06c2 FFF7FEFF 		bl	ssl_mac
 5467              	.LVL694:
 5468 06c6 B3E5     		b	.L318
 5469              	.L398:
 5470              		.align	2
 5471              	.L397:
 5472 06c8 90040000 		.word	.LC56
 5473 06cc 40000000 		.word	.LC3
 5474 06d0 5C050000 		.word	.LC64
 5475 06d4 20020000 		.word	.LC24
 5476 06d8 0094FFFF 		.word	-27648
 5477 06dc C0040000 		.word	.LC58
 5478 06e0 AC050000 		.word	.LC65
 5479 06e4 54060000 		.word	.LC71
 5480 06e8 8094FFFF 		.word	-27520
 5481 06ec 2C050000 		.word	.LC61
 5482 06f0 C4050000 		.word	.LC66
 5483              	.LVL695:
 5484              	.L391:
 5485              	.LBB198:
 5486              		.loc 1 1338 0
 5487 06f4 344B     		ldr	r3, .L399
 5488 06f6 354A     		ldr	r2, .L399+4
 5489 06f8 8DE82800 		stmia	sp, {r3, r5}
 5490 06fc 2046     		mov	r0, r4
 5491              	.LVL696:
 5492 06fe 0121     		movs	r1, #1
 5493 0700 40F23A53 		movw	r3, #1338
 5494 0704 FFF7FEFF 		bl	debug_print_ret
 5495              	.LVL697:
 5496 0708 FAE5     		b	.L313
 5497              	.LVL698:
 5498              	.L392:
 5499              	.LBE198:
 5500              	.LBB199:
 5501              		.loc 1 1177 0
 5502 070a 2F4B     		ldr	r3, .L399
 5503 070c 2F4A     		ldr	r2, .L399+4
 5504 070e 8DE82800 		stmia	sp, {r3, r5}
 5505 0712 2046     		mov	r0, r4
 5506              	.LVL699:
 5507 0714 0121     		movs	r1, #1
 5508 0716 40F29943 		movw	r3, #1177
 5509 071a FFF7FEFF 		bl	debug_print_ret
 5510              	.LVL700:
ARM GAS  C:\Users\jo\AppData\Local\Temp\ccK7XbRr.s 			page 98


 5511 071e EFE5     		b	.L313
 5512              	.LVL701:
 5513              	.L394:
 5514              	.LBE199:
 5515              	.LBB200:
 5516              		.loc 1 1262 0
 5517 0720 2B4B     		ldr	r3, .L399+8
 5518 0722 2A4A     		ldr	r2, .L399+4
 5519 0724 8DE82800 		stmia	sp, {r3, r5}
 5520 0728 2046     		mov	r0, r4
 5521              	.LVL702:
 5522 072a 0121     		movs	r1, #1
 5523 072c 40F2EE43 		movw	r3, #1262
 5524 0730 FFF7FEFF 		bl	debug_print_ret
 5525              	.LVL703:
 5526 0734 E4E5     		b	.L313
 5527              	.LVL704:
 5528              	.L330:
 5529              		.loc 1 1272 0
 5530 0736 D4F8D830 		ldr	r3, [r4, #216]
 5531              		.loc 1 1275 0
 5532 073a 264A     		ldr	r2, .L399+12
 5533 073c 0197     		str	r7, [sp, #4]
 5534              		.loc 1 1272 0
 5535 073e 5344     		add	r3, r3, r10
 5536              		.loc 1 1275 0
 5537 0740 CDF808A0 		str	r10, [sp, #8]
 5538 0744 2046     		mov	r0, r4
 5539              	.LVL705:
 5540              		.loc 1 1272 0
 5541 0746 C4F8D830 		str	r3, [r4, #216]
 5542              	.LVL706:
 5543              		.loc 1 1275 0
 5544 074a 0421     		movs	r1, #4
 5545 074c 0092     		str	r2, [sp]
 5546 074e 40F2FB43 		movw	r3, #1275
 5547 0752 1E4A     		ldr	r2, .L399+4
 5548 0754 FFF7FEFF 		bl	debug_print_buf
 5549              	.LVL707:
 5550              	.LBE200:
 5551              		.loc 1 1403 0
 5552 0758 B8F1000F 		cmp	r8, #0
 5553 075c 3FF421AF 		beq	.L324
 5554              		.loc 1 1405 0
 5555 0760 1D48     		ldr	r0, .L399+16
 5556              		.loc 1 1406 0
 5557 0762 1E4D     		ldr	r5, .L399+20
 5558              	.LVL708:
 5559              		.loc 1 1405 0
 5560 0764 FFF7FEFF 		bl	debug_fmt
 5561              	.LVL709:
 5562 0768 0121     		movs	r1, #1
 5563 076a 0090     		str	r0, [sp]
 5564 076c 174A     		ldr	r2, .L399+4
 5565 076e 2046     		mov	r0, r4
 5566 0770 40F27D53 		movw	r3, #1405
 5567 0774 FFF7FEFF 		bl	debug_print_msg
ARM GAS  C:\Users\jo\AppData\Local\Temp\ccK7XbRr.s 			page 99


 5568              	.LVL710:
 5569 0778 C2E5     		b	.L313
 5570              	.LVL711:
 5571              	.L332:
 5572              		.loc 1 1398 0
 5573 077a 1748     		ldr	r0, .L399+16
 5574              		.loc 1 1399 0
 5575 077c 174D     		ldr	r5, .L399+20
 5576              		.loc 1 1398 0
 5577 077e FFF7FEFF 		bl	debug_fmt
 5578              	.LVL712:
 5579 0782 0121     		movs	r1, #1
 5580 0784 0090     		str	r0, [sp]
 5581 0786 114A     		ldr	r2, .L399+4
 5582 0788 2046     		mov	r0, r4
 5583 078a 40F27653 		movw	r3, #1398
 5584 078e FFF7FEFF 		bl	debug_print_msg
 5585              	.LVL713:
 5586 0792 B5E5     		b	.L313
 5587              	.LVL714:
 5588              	.L311:
 5589              		.loc 1 1101 0
 5590 0794 1048     		ldr	r0, .L399+16
 5591              		.loc 1 1102 0
 5592 0796 114D     		ldr	r5, .L399+20
 5593              	.LVL715:
 5594              		.loc 1 1101 0
 5595 0798 FFF7FEFF 		bl	debug_fmt
 5596              	.LVL716:
 5597 079c 0121     		movs	r1, #1
 5598 079e 0090     		str	r0, [sp]
 5599 07a0 0A4A     		ldr	r2, .L399+4
 5600 07a2 2046     		mov	r0, r4
 5601 07a4 40F24D43 		movw	r3, #1101
 5602 07a8 FFF7FEFF 		bl	debug_print_msg
 5603              	.LVL717:
 5604 07ac A8E5     		b	.L313
 5605              	.L319:
 5606              		.loc 1 1145 0
 5607 07ae 0A48     		ldr	r0, .L399+16
 5608              		.loc 1 1146 0
 5609 07b0 0A4D     		ldr	r5, .L399+20
 5610              		.loc 1 1145 0
 5611 07b2 FFF7FEFF 		bl	debug_fmt
 5612              	.LVL718:
 5613 07b6 0121     		movs	r1, #1
 5614 07b8 0090     		str	r0, [sp]
 5615 07ba 044A     		ldr	r2, .L399+4
 5616 07bc 2046     		mov	r0, r4
 5617 07be 40F27943 		movw	r3, #1145
 5618 07c2 FFF7FEFF 		bl	debug_print_msg
 5619              	.LVL719:
 5620 07c6 9BE5     		b	.L313
 5621              	.L400:
 5622              		.align	2
 5623              	.L399:
 5624 07c8 FC040000 		.word	.LC59
ARM GAS  C:\Users\jo\AppData\Local\Temp\ccK7XbRr.s 			page 100


 5625 07cc 40000000 		.word	.LC3
 5626 07d0 34050000 		.word	.LC62
 5627 07d4 48050000 		.word	.LC63
 5628 07d8 20020000 		.word	.LC24
 5629 07dc 0094FFFF 		.word	-27648
 5630              	.LBE203:
 5631              	.LBE206:
 5632              		.cfi_endproc
 5633              	.LFE31:
 5634              		.size	ssl_write_record, .-ssl_write_record
 5635              		.section	.text.ssl_write_real,"ax",%progbits
 5636              		.align	2
 5637              		.p2align 4,,15
 5638              		.thumb
 5639              		.thumb_func
 5640              		.type	ssl_write_real, %function
 5641              	ssl_write_real:
 5642              	.LFB107:
 5643              		.loc 1 4764 0
 5644              		.cfi_startproc
 5645              		@ args = 0, pretend = 0, frame = 0
 5646              		@ frame_needed = 0, uses_anonymous_args = 0
 5647              	.LVL720:
 5648 0000 70B5     		push	{r4, r5, r6, lr}
 5649              		.cfi_def_cfa_offset 16
 5650              		.cfi_offset 4, -16
 5651              		.cfi_offset 5, -12
 5652              		.cfi_offset 6, -8
 5653              		.cfi_offset 14, -4
 5654              		.loc 1 4773 0
 5655 0002 244B     		ldr	r3, .L417
 5656 0004 90F8E040 		ldrb	r4, [r0, #224]	@ zero_extendqisi2
 5657              		.loc 1 4764 0
 5658 0008 0546     		mov	r5, r0
 5659              		.loc 1 4778 0
 5660 000a 806F     		ldr	r0, [r0, #120]
 5661              	.LVL721:
 5662              		.loc 1 4773 0
 5663 000c 53F82440 		ldr	r4, [r3, r4, lsl #2]
 5664              	.LVL722:
 5665              		.loc 1 4764 0
 5666 0010 82B0     		sub	sp, sp, #8
 5667              		.cfi_def_cfa_offset 24
 5668              		.loc 1 4778 0
 5669 0012 30B1     		cbz	r0, .L402
 5670              		.loc 1 4779 0 discriminator 1
 5671 0014 90F87400 		ldrb	r0, [r0, #116]	@ zero_extendqisi2
 5672 0018 53F82030 		ldr	r3, [r3, r0, lsl #2]
 5673 001c 9C42     		cmp	r4, r3
 5674 001e 28BF     		it	cs
 5675 0020 1C46     		movcs	r4, r3
 5676              	.LVL723:
 5677              	.L402:
 5678              		.loc 1 4787 0
 5679 0022 D5F8DC30 		ldr	r3, [r5, #220]
 5680              		.loc 1 4785 0
 5681 0026 9442     		cmp	r4, r2
ARM GAS  C:\Users\jo\AppData\Local\Temp\ccK7XbRr.s 			page 101


 5682 0028 28BF     		it	cs
 5683 002a 1446     		movcs	r4, r2
 5684              	.LVL724:
 5685              		.loc 1 4787 0
 5686 002c 3BB1     		cbz	r3, .L403
 5687              		.loc 1 4789 0
 5688 002e 2846     		mov	r0, r5
 5689 0030 FFF7FEFF 		bl	ssl_flush_output
 5690              	.LVL725:
 5691 0034 0646     		mov	r6, r0
 5692 0036 F8B9     		cbnz	r0, .L416
 5693              	.L404:
 5694              		.loc 1 4808 0
 5695 0038 2046     		mov	r0, r4
 5696              	.LVL726:
 5697              		.loc 1 4809 0
 5698 003a 02B0     		add	sp, sp, #8
 5699              		.cfi_remember_state
 5700              		.cfi_def_cfa_offset 16
 5701              		@ sp needed
 5702 003c 70BD     		pop	{r4, r5, r6, pc}
 5703              	.LVL727:
 5704              	.L403:
 5705              		.cfi_restore_state
 5706              		.loc 1 4798 0
 5707 003e 1723     		movs	r3, #23
 5708 0040 C5F8D430 		str	r3, [r5, #212]
 5709              		.loc 1 4799 0
 5710 0044 2246     		mov	r2, r4
 5711              	.LVL728:
 5712              		.loc 1 4797 0
 5713 0046 C5F8D840 		str	r4, [r5, #216]
 5714              		.loc 1 4799 0
 5715 004a D5F8D000 		ldr	r0, [r5, #208]
 5716 004e FFF7FEFF 		bl	memcpy
 5717              	.LVL729:
 5718              		.loc 1 4801 0
 5719 0052 2846     		mov	r0, r5
 5720 0054 FFF7FEFF 		bl	ssl_write_record
 5721              	.LVL730:
 5722 0058 0646     		mov	r6, r0
 5723 005a 0028     		cmp	r0, #0
 5724 005c ECD0     		beq	.L404
 5725              		.loc 1 4803 0
 5726 005e 0E4B     		ldr	r3, .L417+4
 5727 0060 0190     		str	r0, [sp, #4]
 5728 0062 0093     		str	r3, [sp]
 5729 0064 2846     		mov	r0, r5
 5730              	.LVL731:
 5731 0066 0121     		movs	r1, #1
 5732 0068 0C4A     		ldr	r2, .L417+8
 5733 006a 41F2C323 		movw	r3, #4803
 5734 006e FFF7FEFF 		bl	debug_print_ret
 5735              	.LVL732:
 5736              		.loc 1 4804 0
 5737 0072 3046     		mov	r0, r6
 5738              		.loc 1 4809 0
ARM GAS  C:\Users\jo\AppData\Local\Temp\ccK7XbRr.s 			page 102


 5739 0074 02B0     		add	sp, sp, #8
 5740              		.cfi_remember_state
 5741              		.cfi_def_cfa_offset 16
 5742              		@ sp needed
 5743 0076 70BD     		pop	{r4, r5, r6, pc}
 5744              	.LVL733:
 5745              	.L416:
 5746              		.cfi_restore_state
 5747              		.loc 1 4791 0
 5748 0078 094B     		ldr	r3, .L417+12
 5749 007a 0190     		str	r0, [sp, #4]
 5750 007c 0093     		str	r3, [sp]
 5751 007e 2846     		mov	r0, r5
 5752              	.LVL734:
 5753 0080 0121     		movs	r1, #1
 5754 0082 064A     		ldr	r2, .L417+8
 5755 0084 41F2B723 		movw	r3, #4791
 5756 0088 FFF7FEFF 		bl	debug_print_ret
 5757              	.LVL735:
 5758              		.loc 1 4792 0
 5759 008c 3046     		mov	r0, r6
 5760              		.loc 1 4809 0
 5761 008e 02B0     		add	sp, sp, #8
 5762              		.cfi_def_cfa_offset 16
 5763              		@ sp needed
 5764 0090 70BD     		pop	{r4, r5, r6, pc}
 5765              	.LVL736:
 5766              	.L418:
 5767 0092 00BF     		.align	2
 5768              	.L417:
 5769 0094 00000000 		.word	.LANCHOR0
 5770 0098 98060000 		.word	.LC74
 5771 009c 40000000 		.word	.LC3
 5772 00a0 30060000 		.word	.LC69
 5773              		.cfi_endproc
 5774              	.LFE107:
 5775              		.size	ssl_write_real, .-ssl_write_real
 5776 00a4 AFF30080 		.section	.text.ssl_send_alert_message,"ax",%progbits
 5776      AFF30080 
 5776      AFF30080 
 5777              		.align	2
 5778              		.p2align 4,,15
 5779              		.global	ssl_send_alert_message
 5780              		.thumb
 5781              		.thumb_func
 5782              		.type	ssl_send_alert_message, %function
 5783              	ssl_send_alert_message:
 5784              	.LFB34:
 5785              		.loc 1 2454 0
 5786              		.cfi_startproc
 5787              		@ args = 0, pretend = 0, frame = 0
 5788              		@ frame_needed = 0, uses_anonymous_args = 0
 5789              	.LVL737:
 5790 0000 F0B5     		push	{r4, r5, r6, r7, lr}
 5791              		.cfi_def_cfa_offset 20
 5792              		.cfi_offset 4, -20
 5793              		.cfi_offset 5, -16
ARM GAS  C:\Users\jo\AppData\Local\Temp\ccK7XbRr.s 			page 103


 5794              		.cfi_offset 6, -12
 5795              		.cfi_offset 7, -8
 5796              		.cfi_offset 14, -4
 5797 0002 0446     		mov	r4, r0
 5798 0004 83B0     		sub	sp, sp, #12
 5799              		.cfi_def_cfa_offset 32
 5800              		.loc 1 2457 0
 5801 0006 1C48     		ldr	r0, .L424
 5802              	.LVL738:
 5803              		.loc 1 2454 0
 5804 0008 1546     		mov	r5, r2
 5805 000a 0F46     		mov	r7, r1
 5806              		.loc 1 2457 0
 5807 000c FFF7FEFF 		bl	debug_fmt
 5808              	.LVL739:
 5809 0010 0221     		movs	r1, #2
 5810 0012 0090     		str	r0, [sp]
 5811 0014 194A     		ldr	r2, .L424+4
 5812 0016 2046     		mov	r0, r4
 5813 0018 40F69913 		movw	r3, #2457
 5814 001c FFF7FEFF 		bl	debug_print_msg
 5815              	.LVL740:
 5816              		.loc 1 2461 0
 5817 0020 D4F8D030 		ldr	r3, [r4, #208]
 5818              		.loc 1 2459 0
 5819 0024 1522     		movs	r2, #21
 5820              		.loc 1 2460 0
 5821 0026 0226     		movs	r6, #2
 5822              		.loc 1 2459 0
 5823 0028 C4F8D420 		str	r2, [r4, #212]
 5824              		.loc 1 2460 0
 5825 002c C4F8D860 		str	r6, [r4, #216]
 5826              		.loc 1 2461 0
 5827 0030 1F70     		strb	r7, [r3]
 5828              		.loc 1 2462 0
 5829 0032 D4F8D030 		ldr	r3, [r4, #208]
 5830              		.loc 1 2464 0
 5831 0036 2046     		mov	r0, r4
 5832              		.loc 1 2462 0
 5833 0038 5D70     		strb	r5, [r3, #1]
 5834              		.loc 1 2464 0
 5835 003a FFF7FEFF 		bl	ssl_write_record
 5836              	.LVL741:
 5837 003e 0546     		mov	r5, r0
 5838 0040 68B9     		cbnz	r0, .L423
 5839              	.LVL742:
 5840              	.LBB209:
 5841              	.LBB210:
 5842              		.loc 1 2470 0
 5843 0042 0F48     		ldr	r0, .L424+8
 5844              	.LVL743:
 5845 0044 FFF7FEFF 		bl	debug_fmt
 5846              	.LVL744:
 5847 0048 3146     		mov	r1, r6
 5848 004a 0090     		str	r0, [sp]
 5849 004c 0B4A     		ldr	r2, .L424+4
 5850 004e 2046     		mov	r0, r4
ARM GAS  C:\Users\jo\AppData\Local\Temp\ccK7XbRr.s 			page 104


 5851 0050 40F6A613 		movw	r3, #2470
 5852 0054 FFF7FEFF 		bl	debug_print_msg
 5853              	.LVL745:
 5854              	.LBE210:
 5855              	.LBE209:
 5856              		.loc 1 2473 0
 5857 0058 2846     		mov	r0, r5
 5858 005a 03B0     		add	sp, sp, #12
 5859              		.cfi_remember_state
 5860              		.cfi_def_cfa_offset 20
 5861              		@ sp needed
 5862 005c F0BD     		pop	{r4, r5, r6, r7, pc}
 5863              	.LVL746:
 5864              	.L423:
 5865              		.cfi_restore_state
 5866              		.loc 1 2466 0
 5867 005e 094B     		ldr	r3, .L424+12
 5868 0060 0190     		str	r0, [sp, #4]
 5869 0062 0093     		str	r3, [sp]
 5870 0064 2046     		mov	r0, r4
 5871              	.LVL747:
 5872 0066 0121     		movs	r1, #1
 5873 0068 044A     		ldr	r2, .L424+4
 5874 006a 40F6A213 		movw	r3, #2466
 5875 006e FFF7FEFF 		bl	debug_print_ret
 5876              	.LVL748:
 5877              		.loc 1 2473 0
 5878 0072 2846     		mov	r0, r5
 5879 0074 03B0     		add	sp, sp, #12
 5880              		.cfi_def_cfa_offset 20
 5881              		@ sp needed
 5882 0076 F0BD     		pop	{r4, r5, r6, r7, pc}
 5883              	.LVL749:
 5884              	.L425:
 5885              		.align	2
 5886              	.L424:
 5887 0078 AC060000 		.word	.LC75
 5888 007c 40000000 		.word	.LC3
 5889 0080 C4060000 		.word	.LC76
 5890 0084 98060000 		.word	.LC74
 5891              		.cfi_endproc
 5892              	.LFE34:
 5893              		.size	ssl_send_alert_message, .-ssl_send_alert_message
 5894 0088 AFF30080 		.section	.text.ssl_read_record,"ax",%progbits
 5894      AFF30080 
 5895              		.align	2
 5896              		.p2align 4,,15
 5897              		.global	ssl_read_record
 5898              		.thumb
 5899              		.thumb_func
 5900              		.type	ssl_read_record, %function
 5901              	ssl_read_record:
 5902              	.LFB32:
 5903              		.loc 1 2170 0
 5904              		.cfi_startproc
 5905              		@ args = 0, pretend = 0, frame = 72
 5906              		@ frame_needed = 0, uses_anonymous_args = 0
ARM GAS  C:\Users\jo\AppData\Local\Temp\ccK7XbRr.s 			page 105


 5907              	.LVL750:
 5908 0000 2DE9F04F 		push	{r4, r5, r6, r7, r8, r9, r10, fp, lr}
 5909              		.cfi_def_cfa_offset 36
 5910              		.cfi_offset 4, -36
 5911              		.cfi_offset 5, -32
 5912              		.cfi_offset 6, -28
 5913              		.cfi_offset 7, -24
 5914              		.cfi_offset 8, -20
 5915              		.cfi_offset 9, -16
 5916              		.cfi_offset 10, -12
 5917              		.cfi_offset 11, -8
 5918              		.cfi_offset 14, -4
 5919 0004 0446     		mov	r4, r0
 5920 0006 9BB0     		sub	sp, sp, #108
 5921              		.cfi_def_cfa_offset 144
 5922              		.loc 1 2173 0
 5923 0008 C448     		ldr	r0, .L594
 5924              	.LVL751:
 5925 000a FFF7FEFF 		bl	debug_fmt
 5926              	.LVL752:
 5927 000e 0221     		movs	r1, #2
 5928 0010 0090     		str	r0, [sp]
 5929 0012 C34A     		ldr	r2, .L594+4
 5930 0014 2046     		mov	r0, r4
 5931 0016 40F67D03 		movw	r3, #2173
 5932 001a FFF7FEFF 		bl	debug_print_msg
 5933              	.LVL753:
 5934              		.loc 1 2175 0
 5935 001e D4F8B810 		ldr	r1, [r4, #184]
 5936 0022 21B1     		cbz	r1, .L427
 5937              		.loc 1 2176 0 discriminator 1
 5938 0024 D4F8B020 		ldr	r2, [r4, #176]
 5939              		.loc 1 2175 0 discriminator 1
 5940 0028 9142     		cmp	r1, r2
 5941 002a C0F0FF80 		bcc	.L565
 5942              	.L427:
 5943              		.loc 1 2211 0
 5944 002e 0023     		movs	r3, #0
 5945 0030 C4F8B830 		str	r3, [r4, #184]
 5946              		.loc 1 2216 0
 5947 0034 2046     		mov	r0, r4
 5948 0036 0521     		movs	r1, #5
 5949 0038 FFF7FEFF 		bl	ssl_fetch_input
 5950              	.LVL754:
 5951 003c 0546     		mov	r5, r0
 5952 003e 0028     		cmp	r0, #0
 5953 0040 40F0E680 		bne	.L566
 5954              		.loc 1 2222 0
 5955 0044 D4F89C30 		ldr	r3, [r4, #156]
 5956              		.loc 1 2225 0
 5957 0048 B648     		ldr	r0, .L594+8
 5958              	.LVL755:
 5959              		.loc 1 2222 0
 5960 004a 1A78     		ldrb	r2, [r3]	@ zero_extendqisi2
 5961 004c C4F8AC20 		str	r2, [r4, #172]
 5962              		.loc 1 2223 0
 5963 0050 D978     		ldrb	r1, [r3, #3]	@ zero_extendqisi2
ARM GAS  C:\Users\jo\AppData\Local\Temp\ccK7XbRr.s 			page 106


 5964 0052 1A79     		ldrb	r2, [r3, #4]	@ zero_extendqisi2
 5965 0054 42EA0122 		orr	r2, r2, r1, lsl #8
 5966 0058 C4F8B020 		str	r2, [r4, #176]
 5967              		.loc 1 2225 0
 5968 005c DE78     		ldrb	r6, [r3, #3]	@ zero_extendqisi2
 5969 005e 1D79     		ldrb	r5, [r3, #4]	@ zero_extendqisi2
 5970              	.LVL756:
 5971 0060 1978     		ldrb	r1, [r3]	@ zero_extendqisi2
 5972 0062 5A78     		ldrb	r2, [r3, #1]	@ zero_extendqisi2
 5973 0064 9B78     		ldrb	r3, [r3, #2]	@ zero_extendqisi2
 5974 0066 45EA0625 		orr	r5, r5, r6, lsl #8
 5975 006a 0095     		str	r5, [sp]
 5976 006c FFF7FEFF 		bl	debug_fmt
 5977              	.LVL757:
 5978 0070 0321     		movs	r1, #3
 5979 0072 0090     		str	r0, [sp]
 5980 0074 AA4A     		ldr	r2, .L594+4
 5981 0076 40F6B403 		movw	r3, #2228
 5982 007a 2046     		mov	r0, r4
 5983 007c FFF7FEFF 		bl	debug_print_msg
 5984              	.LVL758:
 5985              		.loc 1 2230 0
 5986 0080 D4F89C30 		ldr	r3, [r4, #156]
 5987 0084 E268     		ldr	r2, [r4, #12]
 5988 0086 5978     		ldrb	r1, [r3, #1]	@ zero_extendqisi2
 5989 0088 9142     		cmp	r1, r2
 5990 008a 40F0C082 		bne	.L567
 5991              		.loc 1 2236 0
 5992 008e 9A78     		ldrb	r2, [r3, #2]	@ zero_extendqisi2
 5993 0090 A369     		ldr	r3, [r4, #24]
 5994 0092 9A42     		cmp	r2, r3
 5995 0094 00F31884 		bgt	.L568
 5996              		.loc 1 2243 0
 5997 0098 D4F8B010 		ldr	r1, [r4, #176]
 5998 009c 44F23F13 		movw	r3, #16703
 5999 00a0 4A1E     		subs	r2, r1, #1
 6000 00a2 9A42     		cmp	r2, r3
 6001 00a4 00F21D84 		bhi	.L569
 6002              		.loc 1 2253 0
 6003 00a8 D4F88830 		ldr	r3, [r4, #136]
 6004 00ac 002B     		cmp	r3, #0
 6005 00ae 00F0DD81 		beq	.L570
 6006              		.loc 1 2263 0
 6007 00b2 9B68     		ldr	r3, [r3, #8]
 6008 00b4 9942     		cmp	r1, r3
 6009 00b6 C0F0C084 		bcc	.L571
 6010              		.loc 1 2270 0
 6011 00ba 2269     		ldr	r2, [r4, #16]
 6012 00bc 002A     		cmp	r2, #0
 6013 00be 00F0F180 		beq	.L572
 6014              		.loc 1 2283 0
 6015 00c2 04DD     		ble	.L437
 6016              		.loc 1 2285 0 discriminator 1
 6017 00c4 03F58243 		add	r3, r3, #16640
 6018              		.loc 1 2283 0 discriminator 1
 6019 00c8 9942     		cmp	r1, r3
 6020 00ca 00F2FC84 		bhi	.L573
ARM GAS  C:\Users\jo\AppData\Local\Temp\ccK7XbRr.s 			page 107


 6021              	.L437:
 6022              		.loc 1 2296 0
 6023 00ce 0531     		adds	r1, r1, #5
 6024 00d0 2046     		mov	r0, r4
 6025 00d2 FFF7FEFF 		bl	ssl_fetch_input
 6026              	.LVL759:
 6027 00d6 0546     		mov	r5, r0
 6028 00d8 0028     		cmp	r0, #0
 6029 00da 40F0F580 		bne	.L574
 6030              		.loc 1 2302 0
 6031 00de D4F8B030 		ldr	r3, [r4, #176]
 6032 00e2 D4F89C20 		ldr	r2, [r4, #156]
 6033 00e6 9049     		ldr	r1, .L594+12
 6034 00e8 0091     		str	r1, [sp]
 6035 00ea 0533     		adds	r3, r3, #5
 6036 00ec 0293     		str	r3, [sp, #8]
 6037 00ee 0192     		str	r2, [sp, #4]
 6038 00f0 40F6FF03 		movw	r3, #2303
 6039 00f4 2046     		mov	r0, r4
 6040              	.LVL760:
 6041 00f6 0421     		movs	r1, #4
 6042 00f8 894A     		ldr	r2, .L594+4
 6043 00fa FFF7FEFF 		bl	debug_print_buf
 6044              	.LVL761:
 6045              		.loc 1 2321 0
 6046 00fe D4F88830 		ldr	r3, [r4, #136]
 6047 0102 002B     		cmp	r3, #0
 6048 0104 00F0EE80 		beq	.L441
 6049              	.LVL762:
 6050              	.LBB226:
 6051              	.LBB227:
 6052              		.loc 1 1436 0
 6053 0108 8848     		ldr	r0, .L594+16
 6054 010a FFF7FEFF 		bl	debug_fmt
 6055              	.LVL763:
 6056 010e 0221     		movs	r1, #2
 6057 0110 0090     		str	r0, [sp]
 6058 0112 834A     		ldr	r2, .L594+4
 6059 0114 2046     		mov	r0, r4
 6060 0116 40F29C53 		movw	r3, #1436
 6061 011a FFF7FEFF 		bl	debug_print_msg
 6062              	.LVL764:
 6063              		.loc 1 1438 0
 6064 011e 606F     		ldr	r0, [r4, #116]
 6065 0120 0028     		cmp	r0, #0
 6066 0122 00F09885 		beq	.L442
 6067 0126 D4F88860 		ldr	r6, [r4, #136]
 6068 012a 002E     		cmp	r6, #0
 6069 012c 00F09385 		beq	.L442
 6070              	.LVL765:
 6071              	.LBB228:
 6072              	.LBB229:
 6073              		.loc 3 422 0
 6074 0130 D6F8B030 		ldr	r3, [r6, #176]
 6075 0134 002B     		cmp	r3, #0
 6076 0136 00F0AA81 		beq	.L445
 6077              	.LBE229:
ARM GAS  C:\Users\jo\AppData\Local\Temp\ccK7XbRr.s 			page 108


 6078              	.LBE228:
 6079              		.loc 1 1446 0
 6080 013a D4F8B090 		ldr	r9, [r4, #176]
 6081 013e B268     		ldr	r2, [r6, #8]
 6082              	.LBB231:
 6083              	.LBB230:
 6084              		.loc 3 425 0
 6085 0140 5B78     		ldrb	r3, [r3, #1]	@ zero_extendqisi2
 6086              	.LBE230:
 6087              	.LBE231:
 6088              		.loc 1 1446 0
 6089 0142 9145     		cmp	r9, r2
 6090 0144 C0F0F081 		bcc	.L508
 6091              		.loc 1 1454 0
 6092 0148 072B     		cmp	r3, #7
 6093 014a 00F03982 		beq	.L575
 6094              		.loc 1 1480 0
 6095 014e 062B     		cmp	r3, #6
 6096 0150 00F0FC80 		beq	.L452
 6097 0154 082B     		cmp	r3, #8
 6098 0156 00F0F980 		beq	.L452
 6099              		.loc 1 1554 0
 6100 015a 022B     		cmp	r3, #2
 6101 015c 40F09C81 		bne	.L461
 6102              	.LVL766:
 6103              	.LBB232:
 6104              		.loc 1 1570 0
 6105 0160 2369     		ldr	r3, [r4, #16]
 6106              		.loc 1 1564 0
 6107 0162 0021     		movs	r1, #0
 6108              		.loc 1 1570 0
 6109 0164 012B     		cmp	r3, #1
 6110              		.loc 1 1564 0
 6111 0166 0991     		str	r1, [sp, #36]
 6112              		.loc 1 1571 0
 6113 0168 CABF     		itet	gt
 6114 016a F168     		ldrgt	r1, [r6, #12]
 6115              	.LVL767:
 6116 016c F268     		ldrle	r2, [r6, #12]
 6117 016e 0A46     		movgt	r2, r1
 6118              		.loc 1 1574 0
 6119 0170 5318     		adds	r3, r2, r1
 6120 0172 9945     		cmp	r9, r3
 6121 0174 7369     		ldr	r3, [r6, #20]
 6122 0176 C0F0BC81 		bcc	.L465
 6123 017a 5D1C     		adds	r5, r3, #1
 6124              	.LVL768:
 6125              		.loc 1 1575 0
 6126 017c 2944     		add	r1, r1, r5
 6127              	.LVL769:
 6128              		.loc 1 1574 0
 6129 017e 8945     		cmp	r9, r1
 6130 0180 C0F0B781 		bcc	.L465
 6131              	.LVL770:
 6132              		.loc 1 1592 0
 6133 0184 C36F     		ldr	r3, [r0, #124]
 6134              		.loc 1 1585 0
ARM GAS  C:\Users\jo\AppData\Local\Temp\ccK7XbRr.s 			page 109


 6135 0186 D4F8A450 		ldr	r5, [r4, #164]
 6136              	.LVL771:
 6137              		.loc 1 1592 0
 6138 018a 012B     		cmp	r3, #1
 6139 018c 00F0A984 		beq	.L576
 6140 0190 4946     		mov	r1, r9
 6141              	.LBE232:
 6142              		.loc 1 1431 0
 6143 0192 0027     		movs	r7, #0
 6144              	.LVL772:
 6145              	.L468:
 6146              	.LBB238:
 6147              		.loc 1 1634 0
 6148 0194 B1FBF2F3 		udiv	r3, r1, r2
 6149 0198 02FB1313 		mls	r3, r2, r3, r1
 6150 019c 002B     		cmp	r3, #0
 6151 019e 40F0AD83 		bne	.L577
 6152              		.loc 1 1645 0
 6153 01a2 2069     		ldr	r0, [r4, #16]
 6154 01a4 0128     		cmp	r0, #1
 6155 01a6 12DD     		ble	.L472
 6156              		.loc 1 1650 0
 6157 01a8 F068     		ldr	r0, [r6, #12]
 6158              		.loc 1 1648 0
 6159 01aa 891A     		subs	r1, r1, r2
 6160 01ac C4F8B010 		str	r1, [r4, #176]
 6161              		.loc 1 1647 0
 6162 01b0 C2EB0909 		rsb	r9, r2, r9
 6163              	.LVL773:
 6164              		.loc 1 1650 0
 6165 01b4 58B1     		cbz	r0, .L472
 6166              	.LVL774:
 6167              	.L473:
 6168              		.loc 1 1651 0
 6169 01b6 D4F8A020 		ldr	r2, [r4, #160]
 6170 01ba 1E44     		add	r6, r6, r3
 6171 01bc D25C     		ldrb	r2, [r2, r3]	@ zero_extendqisi2
 6172 01be 86F82820 		strb	r2, [r6, #40]
 6173              		.loc 1 1650 0
 6174 01c2 D4F88860 		ldr	r6, [r4, #136]
 6175 01c6 F268     		ldr	r2, [r6, #12]
 6176 01c8 0133     		adds	r3, r3, #1
 6177              	.LVL775:
 6178 01ca 9342     		cmp	r3, r2
 6179 01cc F3D3     		bcc	.L473
 6180              	.LVL776:
 6181              	.L472:
 6182              		.loc 1 1655 0
 6183 01ce 09A9     		add	r1, sp, #36
 6184 01d0 0195     		str	r5, [sp, #4]
 6185 01d2 2B46     		mov	r3, r5
 6186 01d4 0291     		str	r1, [sp, #8]
 6187 01d6 CDF80090 		str	r9, [sp]
 6188 01da 06F1B000 		add	r0, r6, #176
 6189 01de 06F12801 		add	r1, r6, #40
 6190 01e2 FFF7FEFF 		bl	cipher_crypt
 6191              	.LVL777:
ARM GAS  C:\Users\jo\AppData\Local\Temp\ccK7XbRr.s 			page 110


 6192 01e6 0546     		mov	r5, r0
 6193              	.LVL778:
 6194 01e8 0028     		cmp	r0, #0
 6195 01ea 40F06184 		bne	.L578
 6196              		.loc 1 1665 0
 6197 01ee 099B     		ldr	r3, [sp, #36]
 6198 01f0 9945     		cmp	r9, r3
 6199 01f2 00F0B783 		beq	.L475
 6200              		.loc 1 1667 0
 6201 01f6 4E48     		ldr	r0, .L594+20
 6202              	.LVL779:
 6203              		.loc 1 1668 0
 6204 01f8 4E4D     		ldr	r5, .L594+24
 6205              	.LVL780:
 6206              		.loc 1 1667 0
 6207 01fa FFF7FEFF 		bl	debug_fmt
 6208              	.LVL781:
 6209 01fe 0121     		movs	r1, #1
 6210 0200 0090     		str	r0, [sp]
 6211 0202 474A     		ldr	r2, .L594+4
 6212 0204 2046     		mov	r0, r4
 6213 0206 40F28363 		movw	r3, #1667
 6214 020a FFF7FEFF 		bl	debug_print_msg
 6215              	.LVL782:
 6216 020e 4FE1     		b	.L499
 6217              	.LVL783:
 6218              	.L566:
 6219              	.LBE238:
 6220              	.LBE227:
 6221              	.LBE226:
 6222              		.loc 1 2218 0
 6223 0210 494B     		ldr	r3, .L594+28
 6224 0212 0190     		str	r0, [sp, #4]
 6225 0214 0093     		str	r3, [sp]
 6226 0216 2046     		mov	r0, r4
 6227              	.LVL784:
 6228 0218 0121     		movs	r1, #1
 6229 021a 414A     		ldr	r2, .L594+4
 6230 021c 40F6AA03 		movw	r3, #2218
 6231 0220 FFF7FEFF 		bl	debug_print_ret
 6232              	.LVL785:
 6233              	.L554:
 6234              		.loc 1 2435 0
 6235 0224 2846     		mov	r0, r5
 6236 0226 1BB0     		add	sp, sp, #108
 6237              		.cfi_remember_state
 6238              		.cfi_def_cfa_offset 36
 6239              		@ sp needed
 6240 0228 BDE8F08F 		pop	{r4, r5, r6, r7, r8, r9, r10, fp, pc}
 6241              	.LVL786:
 6242              	.L565:
 6243              		.cfi_restore_state
 6244              		.loc 1 2183 0
 6245 022c D4F8A400 		ldr	r0, [r4, #164]
 6246              		.loc 1 2181 0
 6247 0230 521A     		subs	r2, r2, r1
 6248 0232 C4F8B020 		str	r2, [r4, #176]
ARM GAS  C:\Users\jo\AppData\Local\Temp\ccK7XbRr.s 			page 111


 6249              		.loc 1 2183 0
 6250 0236 0144     		add	r1, r1, r0
 6251 0238 FFF7FEFF 		bl	memmove
 6252              	.LVL787:
 6253              		.loc 1 2187 0
 6254 023c D4F8A420 		ldr	r2, [r4, #164]
 6255              		.loc 1 2189 0
 6256 0240 D4F8B010 		ldr	r1, [r4, #176]
 6257 0244 3D48     		ldr	r0, .L594+32
 6258              		.loc 1 2186 0
 6259 0246 0423     		movs	r3, #4
 6260 0248 C4F8B830 		str	r3, [r4, #184]
 6261              		.loc 1 2187 0
 6262 024c 9578     		ldrb	r5, [r2, #2]	@ zero_extendqisi2
 6263 024e D378     		ldrb	r3, [r2, #3]	@ zero_extendqisi2
 6264 0250 43EA0523 		orr	r3, r3, r5, lsl #8
 6265 0254 0433     		adds	r3, r3, #4
 6266 0256 C4F8B830 		str	r3, [r4, #184]
 6267              		.loc 1 2189 0
 6268 025a 1278     		ldrb	r2, [r2]	@ zero_extendqisi2
 6269 025c FFF7FEFF 		bl	debug_fmt
 6270              	.LVL788:
 6271 0260 40F68F03 		movw	r3, #2191
 6272 0264 0090     		str	r0, [sp]
 6273 0266 0321     		movs	r1, #3
 6274 0268 2D4A     		ldr	r2, .L594+4
 6275 026a 2046     		mov	r0, r4
 6276 026c FFF7FEFF 		bl	debug_print_msg
 6277              	.LVL789:
 6278              		.loc 1 2193 0
 6279 0270 D4F8B030 		ldr	r3, [r4, #176]
 6280 0274 032B     		cmp	r3, #3
 6281 0276 40F24A81 		bls	.L428
 6282              		.loc 1 2193 0 is_stmt 0 discriminator 1
 6283 027a D4F8A410 		ldr	r1, [r4, #164]
 6284 027e 4D78     		ldrb	r5, [r1, #1]	@ zero_extendqisi2
 6285 0280 002D     		cmp	r5, #0
 6286 0282 40F04481 		bne	.L428
 6287              		.loc 1 2199 0 is_stmt 1
 6288 0286 D4F8B820 		ldr	r2, [r4, #184]
 6289 028a 9342     		cmp	r3, r2
 6290 028c C0F0C284 		bcc	.L579
 6291              		.loc 1 2205 0
 6292 0290 2368     		ldr	r3, [r4]
 6293 0292 102B     		cmp	r3, #16
 6294 0294 C6D0     		beq	.L554
 6295              		.loc 1 2206 0
 6296 0296 D4F88430 		ldr	r3, [r4, #132]
 6297 029a 2046     		mov	r0, r4
 6298 029c D3F84036 		ldr	r3, [r3, #1600]
 6299 02a0 9847     		blx	r3
 6300              	.LVL790:
 6301 02a2 BFE7     		b	.L554
 6302              	.L572:
 6303              		.loc 1 2271 0 discriminator 1
 6304 02a4 03F58043 		add	r3, r3, #16384
 6305              		.loc 1 2270 0 discriminator 1
ARM GAS  C:\Users\jo\AppData\Local\Temp\ccK7XbRr.s 			page 112


 6306 02a8 9942     		cmp	r1, r3
 6307 02aa 7FF610AF 		bls	.L437
 6308              		.loc 1 2273 0
 6309 02ae 2448     		ldr	r0, .L594+36
 6310              		.loc 1 2274 0
 6311 02b0 244D     		ldr	r5, .L594+40
 6312              		.loc 1 2273 0
 6313 02b2 FFF7FEFF 		bl	debug_fmt
 6314              	.LVL791:
 6315 02b6 0121     		movs	r1, #1
 6316 02b8 0090     		str	r0, [sp]
 6317 02ba 194A     		ldr	r2, .L594+4
 6318 02bc 2046     		mov	r0, r4
 6319 02be 40F6E103 		movw	r3, #2273
 6320 02c2 FFF7FEFF 		bl	debug_print_msg
 6321              	.LVL792:
 6322              		.loc 1 2274 0
 6323 02c6 ADE7     		b	.L554
 6324              	.LVL793:
 6325              	.L574:
 6326              		.loc 1 2298 0
 6327 02c8 1B4B     		ldr	r3, .L594+28
 6328 02ca 0190     		str	r0, [sp, #4]
 6329 02cc 0093     		str	r3, [sp]
 6330 02ce 2046     		mov	r0, r4
 6331              	.LVL794:
 6332 02d0 0121     		movs	r1, #1
 6333 02d2 134A     		ldr	r2, .L594+4
 6334 02d4 40F6FA03 		movw	r3, #2298
 6335 02d8 FFF7FEFF 		bl	debug_print_ret
 6336              	.LVL795:
 6337              		.loc 1 2435 0
 6338 02dc 2846     		mov	r0, r5
 6339 02de 1BB0     		add	sp, sp, #108
 6340              		.cfi_remember_state
 6341              		.cfi_def_cfa_offset 36
 6342              		@ sp needed
 6343 02e0 BDE8F08F 		pop	{r4, r5, r6, r7, r8, r9, r10, fp, pc}
 6344              	.LVL796:
 6345              	.L441:
 6346              		.cfi_restore_state
 6347              		.loc 1 2362 0
 6348 02e4 D4F8AC30 		ldr	r3, [r4, #172]
 6349              		.loc 1 2364 0
 6350 02e8 A3F11402 		sub	r2, r3, #20
 6351              		.loc 1 2362 0
 6352 02ec 032A     		cmp	r2, #3
 6353 02ee 00F22981 		bhi	.L580
 6354              		.loc 1 2379 0
 6355 02f2 162B     		cmp	r3, #22
 6356 02f4 00F0BE81 		beq	.L581
 6357              	.L501:
 6358              		.loc 1 2407 0
 6359 02f8 152B     		cmp	r3, #21
 6360 02fa 00F03881 		beq	.L582
 6361              	.L506:
 6362              		.loc 1 2430 0
ARM GAS  C:\Users\jo\AppData\Local\Temp\ccK7XbRr.s 			page 113


 6363 02fe 0025     		movs	r5, #0
 6364 0300 C4F8B450 		str	r5, [r4, #180]
 6365              		.loc 1 2432 0
 6366 0304 1048     		ldr	r0, .L594+44
 6367 0306 FFF7FEFF 		bl	debug_fmt
 6368              	.LVL797:
 6369 030a 0221     		movs	r1, #2
 6370 030c 0090     		str	r0, [sp]
 6371 030e 044A     		ldr	r2, .L594+4
 6372 0310 2046     		mov	r0, r4
 6373 0312 4FF41863 		mov	r3, #2432
 6374 0316 FFF7FEFF 		bl	debug_print_msg
 6375              	.LVL798:
 6376              		.loc 1 2434 0
 6377 031a 83E7     		b	.L554
 6378              	.L595:
 6379              		.align	2
 6380              	.L594:
 6381 031c DC060000 		.word	.LC77
 6382 0320 40000000 		.word	.LC3
 6383 0324 4C070000 		.word	.LC81
 6384 0328 CC070000 		.word	.LC85
 6385 032c E8070000 		.word	.LC86
 6386 0330 20020000 		.word	.LC24
 6387 0334 0094FFFF 		.word	-27648
 6388 0338 3C070000 		.word	.LC80
 6389 033c EC060000 		.word	.LC78
 6390 0340 B8070000 		.word	.LC84
 6391 0344 008EFFFF 		.word	-29184
 6392 0348 DC090000 		.word	.LC102
 6393              	.LVL799:
 6394              	.L452:
 6395              	.LBB276:
 6396              	.LBB261:
 6397              	.LBB239:
 6398              		.loc 1 1488 0
 6399 034c 3368     		ldr	r3, [r6]
 6400              		.loc 1 1490 0
 6401 034e 3169     		ldr	r1, [r6, #16]
 6402              		.loc 1 1488 0
 6403 0350 1B7F     		ldrb	r3, [r3, #28]	@ zero_extendqisi2
 6404              		.loc 1 1490 0
 6405 0352 F268     		ldr	r2, [r6, #12]
 6406              		.loc 1 1488 0
 6407 0354 9B07     		lsls	r3, r3, #30
 6408              		.loc 1 1490 0
 6409 0356 A2EB0102 		sub	r2, r2, r1
 6410              		.loc 1 1488 0
 6411 035a 54BF     		ite	pl
 6412 035c 4FF0100A 		movpl	r10, #16
 6413 0360 4FF0080A 		movmi	r10, #8
 6414              		.loc 1 1490 0
 6415 0364 D2B2     		uxtb	r2, r2
 6416              		.loc 1 1493 0
 6417 0366 0AEB0201 		add	r1, r10, r2
 6418 036a 8945     		cmp	r9, r1
 6419              		.loc 1 1488 0
ARM GAS  C:\Users\jo\AppData\Local\Temp\ccK7XbRr.s 			page 114


 6420 036c 5346     		mov	r3, r10
 6421              	.LVL800:
 6422              		.loc 1 1493 0
 6423 036e C0F0AD80 		bcc	.L583
 6424              		.loc 1 1500 0
 6425 0372 C2EB0908 		rsb	r8, r2, r9
 6426              		.loc 1 1506 0
 6427 0376 D4F89830 		ldr	r3, [r4, #152]
 6428              		.loc 1 1513 0
 6429 037a AB4A     		ldr	r2, .L596
 6430              	.LVL801:
 6431              		.loc 1 1500 0
 6432 037c CAEB0808 		rsb	r8, r10, r8
 6433              	.LVL802:
 6434              		.loc 1 1504 0
 6435 0380 C4F8B080 		str	r8, [r4, #176]
 6436              		.loc 1 1506 0
 6437 0384 1868     		ldr	r0, [r3]	@ unaligned
 6438 0386 5968     		ldr	r1, [r3, #4]	@ unaligned
 6439              		.loc 1 1513 0
 6440 0388 A84B     		ldr	r3, .L596+4
 6441 038a 0093     		str	r3, [sp]
 6442              	.LVL803:
 6443              		.loc 1 1506 0
 6444 038c 0DF13809 		add	r9, sp, #56
 6445              		.loc 1 1513 0
 6446 0390 0D27     		movs	r7, #13
 6447              		.loc 1 1506 0
 6448 0392 4B46     		mov	r3, r9
 6449              		.loc 1 1513 0
 6450 0394 CDF80490 		str	r9, [sp, #4]
 6451              		.loc 1 1510 0
 6452 0398 4FEA182E 		lsr	lr, r8, #8
 6453              		.loc 1 1506 0
 6454 039c 03C3     		stmia	r3!, {r0, r1}
 6455              		.loc 1 1513 0
 6456 039e 0297     		str	r7, [sp, #8]
 6457              		.loc 1 1508 0
 6458 03a0 E668     		ldr	r6, [r4, #12]
 6459              	.LVL804:
 6460              		.loc 1 1509 0
 6461 03a2 2569     		ldr	r5, [r4, #16]
 6462              	.LVL805:
 6463              		.loc 1 1510 0
 6464 03a4 8DF843E0 		strb	lr, [sp, #67]
 6465              		.loc 1 1513 0
 6466 03a8 2046     		mov	r0, r4
 6467              		.loc 1 1507 0
 6468 03aa 94F8ACE0 		ldrb	lr, [r4, #172]	@ zero_extendqisi2
 6469 03ae 8DF840E0 		strb	lr, [sp, #64]
 6470              		.loc 1 1513 0
 6471 03b2 0421     		movs	r1, #4
 6472 03b4 40F2EA53 		movw	r3, #1514
 6473              		.loc 1 1508 0
 6474 03b8 8DF84160 		strb	r6, [sp, #65]
 6475              		.loc 1 1509 0
 6476 03bc 8DF84250 		strb	r5, [sp, #66]
ARM GAS  C:\Users\jo\AppData\Local\Temp\ccK7XbRr.s 			page 115


 6477              		.loc 1 1511 0
 6478 03c0 8DF84480 		strb	r8, [sp, #68]
 6479              		.loc 1 1502 0
 6480 03c4 D4F8A450 		ldr	r5, [r4, #164]
 6481              	.LVL806:
 6482              		.loc 1 1513 0
 6483 03c8 FFF7FEFF 		bl	debug_print_buf
 6484              	.LVL807:
 6485              		.loc 1 1516 0
 6486 03cc D4F88830 		ldr	r3, [r4, #136]
 6487 03d0 D4F8A010 		ldr	r1, [r4, #160]
 6488 03d4 1A69     		ldr	r2, [r3, #16]
 6489 03d6 DE68     		ldr	r6, [r3, #12]
 6490 03d8 02F12800 		add	r0, r2, #40
 6491 03dc 1844     		add	r0, r0, r3
 6492 03de B21A     		subs	r2, r6, r2
 6493 03e0 FFF7FEFF 		bl	memcpy
 6494              	.LVL808:
 6495              		.loc 1 1520 0
 6496 03e4 D4F88830 		ldr	r3, [r4, #136]
 6497 03e8 914A     		ldr	r2, .L596+8
 6498 03ea 0092     		str	r2, [sp]
 6499 03ec 03F12802 		add	r2, r3, #40
 6500 03f0 0192     		str	r2, [sp, #4]
 6501 03f2 DB68     		ldr	r3, [r3, #12]
 6502 03f4 0293     		str	r3, [sp, #8]
 6503 03f6 2046     		mov	r0, r4
 6504 03f8 0421     		movs	r1, #4
 6505 03fa 8B4A     		ldr	r2, .L596
 6506 03fc 40F2F153 		movw	r3, #1521
 6507 0400 FFF7FEFF 		bl	debug_print_buf
 6508              	.LVL809:
 6509              		.loc 1 1522 0
 6510 0404 8B4B     		ldr	r3, .L596+12
 6511 0406 884A     		ldr	r2, .L596
 6512 0408 05EB0806 		add	r6, r5, r8
 6513 040c 8DE84804 		stmia	sp, {r3, r6, r10}
 6514 0410 2046     		mov	r0, r4
 6515 0412 0421     		movs	r1, #4
 6516 0414 40F2F253 		movw	r3, #1522
 6517 0418 FFF7FEFF 		bl	debug_print_buf
 6518              	.LVL810:
 6519              		.loc 1 1527 0
 6520 041c D4F88810 		ldr	r1, [r4, #136]
 6521 0420 CA68     		ldr	r2, [r1, #12]
 6522 0422 0097     		str	r7, [sp]
 6523 0424 0AAF     		add	r7, sp, #40
 6524 0426 0195     		str	r5, [sp, #4]
 6525 0428 0395     		str	r5, [sp, #12]
 6526 042a 01F1B000 		add	r0, r1, #176
 6527 042e 4B46     		mov	r3, r9
 6528 0430 0596     		str	r6, [sp, #20]
 6529 0432 CDF80880 		str	r8, [sp, #8]
 6530 0436 CDF818A0 		str	r10, [sp, #24]
 6531 043a 2831     		adds	r1, r1, #40
 6532 043c 0497     		str	r7, [sp, #16]
 6533 043e FFF7FEFF 		bl	cipher_auth_decrypt
ARM GAS  C:\Users\jo\AppData\Local\Temp\ccK7XbRr.s 			page 116


 6534              	.LVL811:
 6535 0442 0546     		mov	r5, r0
 6536              	.LVL812:
 6537 0444 0028     		cmp	r0, #0
 6538 0446 40F08481 		bne	.L584
 6539              	.LVL813:
 6540              		.loc 1 1544 0
 6541 044a 0A9B     		ldr	r3, [sp, #40]
 6542 044c 9845     		cmp	r8, r3
 6543 044e 00F04781 		beq	.L459
 6544              		.loc 1 1546 0
 6545 0452 7948     		ldr	r0, .L596+16
 6546              	.LVL814:
 6547              		.loc 1 1547 0
 6548 0454 794D     		ldr	r5, .L596+20
 6549              	.LVL815:
 6550              		.loc 1 1546 0
 6551 0456 FFF7FEFF 		bl	debug_fmt
 6552              	.LVL816:
 6553 045a 0121     		movs	r1, #1
 6554 045c 0090     		str	r0, [sp]
 6555 045e 724A     		ldr	r2, .L596
 6556 0460 2046     		mov	r0, r4
 6557 0462 40F20A63 		movw	r3, #1546
 6558 0466 FFF7FEFF 		bl	debug_print_msg
 6559              	.LVL817:
 6560 046a 21E0     		b	.L499
 6561              	.LVL818:
 6562              	.L570:
 6563              	.LBE239:
 6564              	.LBE261:
 6565              	.LBE276:
 6566              		.loc 1 2255 0
 6567 046c B1F5804F 		cmp	r1, #16384
 6568 0470 7FF62DAE 		bls	.L437
 6569              		.loc 1 2257 0
 6570 0474 7248     		ldr	r0, .L596+24
 6571              		.loc 1 2258 0
 6572 0476 734D     		ldr	r5, .L596+28
 6573              		.loc 1 2257 0
 6574 0478 FFF7FEFF 		bl	debug_fmt
 6575              	.LVL819:
 6576 047c 0121     		movs	r1, #1
 6577 047e 0090     		str	r0, [sp]
 6578 0480 694A     		ldr	r2, .L596
 6579 0482 2046     		mov	r0, r4
 6580 0484 40F6D103 		movw	r3, #2257
 6581 0488 FFF7FEFF 		bl	debug_print_msg
 6582              	.LVL820:
 6583              		.loc 1 2258 0
 6584 048c CAE6     		b	.L554
 6585              	.LVL821:
 6586              	.L445:
 6587              	.LBB277:
 6588              	.LBB262:
 6589              		.loc 1 1446 0
 6590 048e B268     		ldr	r2, [r6, #8]
ARM GAS  C:\Users\jo\AppData\Local\Temp\ccK7XbRr.s 			page 117


 6591 0490 D4F8B090 		ldr	r9, [r4, #176]
 6592 0494 4A45     		cmp	r2, r9
 6593 0496 47D8     		bhi	.L508
 6594              	.L461:
 6595              		.loc 1 1767 0
 6596 0498 6748     		ldr	r0, .L596+16
 6597              		.loc 1 1768 0
 6598 049a 684D     		ldr	r5, .L596+20
 6599              	.LVL822:
 6600              		.loc 1 1767 0
 6601 049c FFF7FEFF 		bl	debug_fmt
 6602              	.LVL823:
 6603 04a0 0121     		movs	r1, #1
 6604 04a2 0090     		str	r0, [sp]
 6605 04a4 604A     		ldr	r2, .L596
 6606 04a6 2046     		mov	r0, r4
 6607 04a8 40F2E763 		movw	r3, #1767
 6608 04ac FFF7FEFF 		bl	debug_print_msg
 6609              	.LVL824:
 6610              	.L499:
 6611              	.LBE262:
 6612              	.LBE277:
 6613              		.loc 1 2333 0
 6614 04b0 654B     		ldr	r3, .L596+32
 6615 04b2 0093     		str	r3, [sp]
 6616 04b4 2046     		mov	r0, r4
 6617 04b6 0195     		str	r5, [sp, #4]
 6618 04b8 0121     		movs	r1, #1
 6619 04ba 5B4A     		ldr	r2, .L596
 6620 04bc 40F61D13 		movw	r3, #2333
 6621 04c0 FFF7FEFF 		bl	debug_print_ret
 6622              	.LVL825:
 6623              		.loc 1 2435 0
 6624 04c4 2846     		mov	r0, r5
 6625 04c6 1BB0     		add	sp, sp, #108
 6626              		.cfi_remember_state
 6627              		.cfi_def_cfa_offset 36
 6628              		@ sp needed
 6629 04c8 BDE8F08F 		pop	{r4, r5, r6, r7, r8, r9, r10, fp, pc}
 6630              	.LVL826:
 6631              	.L583:
 6632              		.cfi_restore_state
 6633              	.LBB278:
 6634              	.LBB263:
 6635              	.LBB240:
 6636              		.loc 1 1495 0
 6637 04cc 4946     		mov	r1, r9
 6638 04ce 5F48     		ldr	r0, .L596+36
 6639              		.loc 1 1498 0
 6640 04d0 5F4D     		ldr	r5, .L596+40
 6641              	.LVL827:
 6642              		.loc 1 1495 0
 6643 04d2 FFF7FEFF 		bl	debug_fmt
 6644              	.LVL828:
 6645 04d6 0121     		movs	r1, #1
 6646 04d8 0090     		str	r0, [sp]
 6647 04da 534A     		ldr	r2, .L596
ARM GAS  C:\Users\jo\AppData\Local\Temp\ccK7XbRr.s 			page 118


 6648 04dc 2046     		mov	r0, r4
 6649 04de 40F2D953 		movw	r3, #1497
 6650 04e2 FFF7FEFF 		bl	debug_print_msg
 6651              	.LVL829:
 6652              	.L555:
 6653              	.LBE240:
 6654              	.LBE263:
 6655              	.LBE278:
 6656              		.loc 1 2328 0
 6657 04e6 2046     		mov	r0, r4
 6658 04e8 0221     		movs	r1, #2
 6659 04ea 1422     		movs	r2, #20
 6660 04ec FFF7FEFF 		bl	ssl_send_alert_message
 6661              	.LVL830:
 6662 04f0 DEE7     		b	.L499
 6663              	.LVL831:
 6664              	.L465:
 6665              	.LBB279:
 6666              	.LBB264:
 6667              	.LBB241:
 6668              		.loc 1 1577 0
 6669 04f2 4946     		mov	r1, r9
 6670 04f4 5748     		ldr	r0, .L596+44
 6671              		.loc 1 1581 0
 6672 04f6 564D     		ldr	r5, .L596+40
 6673              		.loc 1 1577 0
 6674 04f8 FFF7FEFF 		bl	debug_fmt
 6675              	.LVL832:
 6676 04fc 0121     		movs	r1, #1
 6677 04fe 0090     		str	r0, [sp]
 6678 0500 494A     		ldr	r2, .L596
 6679 0502 2046     		mov	r0, r4
 6680 0504 40F22C63 		movw	r3, #1580
 6681 0508 FFF7FEFF 		bl	debug_print_msg
 6682              	.LVL833:
 6683 050c EBE7     		b	.L555
 6684              	.LVL834:
 6685              	.L428:
 6686              	.LBE241:
 6687              	.LBE264:
 6688              	.LBE279:
 6689              		.loc 1 2195 0
 6690 050e 5248     		ldr	r0, .L596+48
 6691              		.loc 1 2196 0
 6692 0510 4C4D     		ldr	r5, .L596+28
 6693              		.loc 1 2195 0
 6694 0512 FFF7FEFF 		bl	debug_fmt
 6695              	.LVL835:
 6696 0516 0121     		movs	r1, #1
 6697 0518 0090     		str	r0, [sp]
 6698 051a 434A     		ldr	r2, .L596
 6699 051c 2046     		mov	r0, r4
 6700 051e 40F69303 		movw	r3, #2195
 6701 0522 FFF7FEFF 		bl	debug_print_msg
 6702              	.LVL836:
 6703              		.loc 1 2196 0
 6704 0526 7DE6     		b	.L554
ARM GAS  C:\Users\jo\AppData\Local\Temp\ccK7XbRr.s 			page 119


 6705              	.LVL837:
 6706              	.L508:
 6707              	.LBB280:
 6708              	.LBB265:
 6709              		.loc 1 1448 0
 6710 0528 4946     		mov	r1, r9
 6711 052a 4C48     		ldr	r0, .L596+52
 6712              		.loc 1 1450 0
 6713 052c 484D     		ldr	r5, .L596+40
 6714              	.LVL838:
 6715              		.loc 1 1448 0
 6716 052e FFF7FEFF 		bl	debug_fmt
 6717              	.LVL839:
 6718 0532 0121     		movs	r1, #1
 6719 0534 0090     		str	r0, [sp]
 6720 0536 3C4A     		ldr	r2, .L596
 6721 0538 2046     		mov	r0, r4
 6722 053a 40F2A953 		movw	r3, #1449
 6723 053e FFF7FEFF 		bl	debug_print_msg
 6724              	.LVL840:
 6725 0542 D0E7     		b	.L555
 6726              	.LVL841:
 6727              	.L580:
 6728              	.LBE265:
 6729              	.LBE280:
 6730              		.loc 1 2367 0
 6731 0544 4648     		ldr	r0, .L596+56
 6732              		.loc 1 2369 0
 6733 0546 3F4D     		ldr	r5, .L596+28
 6734              		.loc 1 2367 0
 6735 0548 FFF7FEFF 		bl	debug_fmt
 6736              	.LVL842:
 6737 054c 0121     		movs	r1, #1
 6738 054e 0090     		str	r0, [sp]
 6739 0550 354A     		ldr	r2, .L596
 6740 0552 2046     		mov	r0, r4
 6741 0554 40F63F13 		movw	r3, #2367
 6742 0558 FFF7FEFF 		bl	debug_print_msg
 6743              	.LVL843:
 6744              		.loc 1 2369 0
 6745 055c 2046     		mov	r0, r4
 6746 055e 0221     		movs	r1, #2
 6747 0560 0A22     		movs	r2, #10
 6748 0562 FFF7FEFF 		bl	ssl_send_alert_message
 6749              	.LVL844:
 6750 0566 0028     		cmp	r0, #0
 6751 0568 18BF     		it	ne
 6752 056a 0546     		movne	r5, r0
 6753 056c 5AE6     		b	.L554
 6754              	.LVL845:
 6755              	.L582:
 6756              		.loc 1 2409 0
 6757 056e D4F8A430 		ldr	r3, [r4, #164]
 6758 0572 3C48     		ldr	r0, .L596+60
 6759 0574 1978     		ldrb	r1, [r3]	@ zero_extendqisi2
 6760 0576 5A78     		ldrb	r2, [r3, #1]	@ zero_extendqisi2
 6761 0578 FFF7FEFF 		bl	debug_fmt
ARM GAS  C:\Users\jo\AppData\Local\Temp\ccK7XbRr.s 			page 120


 6762              	.LVL846:
 6763 057c 2A4A     		ldr	r2, .L596
 6764 057e 0090     		str	r0, [sp]
 6765 0580 40F66A13 		movw	r3, #2410
 6766 0584 0221     		movs	r1, #2
 6767 0586 2046     		mov	r0, r4
 6768 0588 FFF7FEFF 		bl	debug_print_msg
 6769              	.LVL847:
 6770              		.loc 1 2415 0
 6771 058c D4F8A420 		ldr	r2, [r4, #164]
 6772 0590 1378     		ldrb	r3, [r2]	@ zero_extendqisi2
 6773 0592 022B     		cmp	r3, #2
 6774 0594 00F0EC83 		beq	.L585
 6775              		.loc 1 2422 0
