ARM GAS  C:\Users\jo\AppData\Local\Temp\ccvmBp0s.s 			page 1


   1              		.syntax unified
   2              		.cpu cortex-m4
   3              		.fpu softvfp
   4              		.eabi_attribute 20, 1
   5              		.eabi_attribute 21, 1
   6              		.eabi_attribute 23, 3
   7              		.eabi_attribute 24, 1
   8              		.eabi_attribute 25, 1
   9              		.eabi_attribute 26, 1
  10              		.eabi_attribute 30, 2
  11              		.eabi_attribute 34, 1
  12              		.eabi_attribute 18, 4
  13              		.thumb
  14              		.file	"st.c"
  15              		.text
  16              	.Ltext0:
  17              		.cfi_sections	.debug_frame
  18              		.section	.text.stInit,"ax",%progbits
  19              		.align	2
  20              		.p2align 4,,15
  21              		.global	stInit
  22              		.thumb
  23              		.thumb_func
  24              		.type	stInit, %function
  25              	stInit:
  26              	.LFB259:
  27              		.file 1 "../../../os/hal/src/st.c"
  28              		.loc 1 60 0
  29              		.cfi_startproc
  30              		@ args = 0, pretend = 0, frame = 0
  31              		@ frame_needed = 0, uses_anonymous_args = 0
  32              		@ link register save eliminated.
  33              		.loc 1 62 0
  34 0000 FFF7FEBF 		b	st_lld_init
  35              	.LVL0:
  36              		.cfi_endproc
  37              	.LFE259:
  38              		.size	stInit, .-stInit
  39 0004 AFF30080 		.section	.text.stStartAlarm,"ax",%progbits
  39      AFF30080 
  39      AFF30080 
  40              		.align	2
  41              		.p2align 4,,15
  42              		.global	stStartAlarm
  43              		.thumb
  44              		.thumb_func
  45              		.type	stStartAlarm, %function
  46              	stStartAlarm:
  47              	.LFB260:
  48              		.loc 1 77 0
  49              		.cfi_startproc
  50              		@ args = 0, pretend = 0, frame = 0
  51              		@ frame_needed = 0, uses_anonymous_args = 0
  52              	.LVL1:
  53              	.LBB16:
  54              	.LBB17:
  55              		.file 2 "../../../os/hal/ports/STM32/LLD/TIMv1/st_lld.h"
ARM GAS  C:\Users\jo\AppData\Local\Temp\ccvmBp0s.s 			page 2


  56              		.loc 2 193 0
  57 0000 4FF08043 		mov	r3, #1073741824
  58              	.LBE17:
  59              	.LBE16:
  60              		.loc 1 77 0
  61 0004 10B5     		push	{r4, lr}
  62              		.cfi_def_cfa_offset 8
  63              		.cfi_offset 4, -8
  64              		.cfi_offset 14, -4
  65              	.LBB19:
  66              	.LBB18:
  67              		.loc 2 193 0
  68 0006 DB68     		ldr	r3, [r3, #12]
  69              	.LBE18:
  70              	.LBE19:
  71              		.loc 1 79 0
  72 0008 9B07     		lsls	r3, r3, #30
  73              		.loc 1 77 0
  74 000a 0446     		mov	r4, r0
  75              		.loc 1 79 0
  76 000c 02D5     		bpl	.L3
  77              		.loc 1 79 0 is_stmt 0 discriminator 2
  78 000e 0548     		ldr	r0, .L9
  79              	.LVL2:
  80 0010 FFF7FEFF 		bl	chSysHalt
  81              	.LVL3:
  82              	.L3:
  83              	.LBB20:
  84              	.LBB21:
  85              		.loc 2 143 0 is_stmt 1
  86 0014 4FF08043 		mov	r3, #1073741824
  87              		.loc 2 144 0
  88 0018 0021     		movs	r1, #0
  89              		.loc 2 145 0
  90 001a 0222     		movs	r2, #2
  91              		.loc 2 143 0
  92 001c 5C63     		str	r4, [r3, #52]
  93              		.loc 2 144 0
  94 001e 1961     		str	r1, [r3, #16]
  95              		.loc 2 145 0
  96 0020 DA60     		str	r2, [r3, #12]
  97 0022 10BD     		pop	{r4, pc}
  98              	.LVL4:
  99              	.L10:
 100              		.align	2
 101              	.L9:
 102 0024 00000000 		.word	.LANCHOR0
 103              	.LBE21:
 104              	.LBE20:
 105              		.cfi_endproc
 106              	.LFE260:
 107              		.size	stStartAlarm, .-stStartAlarm
 108 0028 AFF30080 		.section	.text.stStopAlarm,"ax",%progbits
 108      AFF30080 
 109              		.align	2
 110              		.p2align 4,,15
 111              		.global	stStopAlarm
ARM GAS  C:\Users\jo\AppData\Local\Temp\ccvmBp0s.s 			page 3


 112              		.thumb
 113              		.thumb_func
 114              		.type	stStopAlarm, %function
 115              	stStopAlarm:
 116              	.LFB261:
 117              		.loc 1 91 0
 118              		.cfi_startproc
 119              		@ args = 0, pretend = 0, frame = 0
 120              		@ frame_needed = 0, uses_anonymous_args = 0
 121              		@ link register save eliminated.
 122              	.LBB22:
 123              	.LBB23:
 124              		.loc 2 155 0
 125 0000 4FF08043 		mov	r3, #1073741824
 126 0004 0022     		movs	r2, #0
 127 0006 DA60     		str	r2, [r3, #12]
 128 0008 7047     		bx	lr
 129              	.LBE23:
 130              	.LBE22:
 131              		.cfi_endproc
 132              	.LFE261:
 133              		.size	stStopAlarm, .-stStopAlarm
 134 000a 00BFAFF3 		.section	.text.stSetAlarm,"ax",%progbits
 134      0080
 135              		.align	2
 136              		.p2align 4,,15
 137              		.global	stSetAlarm
 138              		.thumb
 139              		.thumb_func
 140              		.type	stSetAlarm, %function
 141              	stSetAlarm:
 142              	.LFB262:
 143              		.loc 1 105 0
 144              		.cfi_startproc
 145              		@ args = 0, pretend = 0, frame = 0
 146              		@ frame_needed = 0, uses_anonymous_args = 0
 147              	.LVL5:
 148              	.LBB24:
 149              	.LBB25:
 150              		.loc 2 193 0
 151 0000 4FF08043 		mov	r3, #1073741824
 152              	.LBE25:
 153              	.LBE24:
 154              		.loc 1 105 0
 155 0004 10B5     		push	{r4, lr}
 156              		.cfi_def_cfa_offset 8
 157              		.cfi_offset 4, -8
 158              		.cfi_offset 14, -4
 159              	.LBB27:
 160              	.LBB26:
 161              		.loc 2 193 0
 162 0006 DB68     		ldr	r3, [r3, #12]
 163              	.LBE26:
 164              	.LBE27:
 165              		.loc 1 107 0
 166 0008 9B07     		lsls	r3, r3, #30
 167              		.loc 1 105 0
ARM GAS  C:\Users\jo\AppData\Local\Temp\ccvmBp0s.s 			page 4


 168 000a 0446     		mov	r4, r0
 169              		.loc 1 107 0
 170 000c 02D4     		bmi	.L13
 171              		.loc 1 107 0 is_stmt 0 discriminator 2
 172 000e 0348     		ldr	r0, .L15
 173              	.LVL6:
 174 0010 FFF7FEFF 		bl	chSysHalt
 175              	.LVL7:
 176              	.L13:
 177              	.LBB28:
 178              	.LBB29:
 179              		.loc 2 167 0 is_stmt 1
 180 0014 4FF08043 		mov	r3, #1073741824
 181 0018 5C63     		str	r4, [r3, #52]
 182 001a 10BD     		pop	{r4, pc}
 183              	.LVL8:
 184              	.L16:
 185              		.align	2
 186              	.L15:
 187 001c 00000000 		.word	.LANCHOR1
 188              	.LBE29:
 189              	.LBE28:
 190              		.cfi_endproc
 191              	.LFE262:
 192              		.size	stSetAlarm, .-stSetAlarm
 193              		.section	.text.stGetAlarm,"ax",%progbits
 194              		.align	2
 195              		.p2align 4,,15
 196              		.global	stGetAlarm
 197              		.thumb
 198              		.thumb_func
 199              		.type	stGetAlarm, %function
 200              	stGetAlarm:
 201              	.LFB263:
 202              		.loc 1 121 0
 203              		.cfi_startproc
 204              		@ args = 0, pretend = 0, frame = 0
 205              		@ frame_needed = 0, uses_anonymous_args = 0
 206 0000 08B5     		push	{r3, lr}
 207              		.cfi_def_cfa_offset 8
 208              		.cfi_offset 3, -8
 209              		.cfi_offset 14, -4
 210              	.LBB30:
 211              	.LBB31:
 212              		.loc 2 193 0
 213 0002 4FF08043 		mov	r3, #1073741824
 214 0006 DB68     		ldr	r3, [r3, #12]
 215              	.LBE31:
 216              	.LBE30:
 217              		.loc 1 123 0
 218 0008 9B07     		lsls	r3, r3, #30
 219 000a 02D4     		bmi	.L18
 220              		.loc 1 123 0 is_stmt 0 discriminator 2
 221 000c 0348     		ldr	r0, .L20
 222 000e FFF7FEFF 		bl	chSysHalt
 223              	.LVL9:
 224              	.L18:
ARM GAS  C:\Users\jo\AppData\Local\Temp\ccvmBp0s.s 			page 5


 225              	.LBB32:
 226              	.LBB33:
 227              		.loc 2 179 0 is_stmt 1
 228 0012 4FF08043 		mov	r3, #1073741824
 229 0016 586B     		ldr	r0, [r3, #52]
 230              	.LBE33:
 231              	.LBE32:
 232              		.loc 1 126 0
 233 0018 08BD     		pop	{r3, pc}
 234              	.L21:
 235 001a 00BF     		.align	2
 236              	.L20:
 237 001c 00000000 		.word	.LANCHOR2
 238              		.cfi_endproc
 239              	.LFE263:
 240              		.size	stGetAlarm, .-stGetAlarm
 241              		.section	.rodata.__func__.7507,"a",%progbits
 242              		.align	2
 243              		.set	.LANCHOR0,. + 0
 244              		.type	__func__.7507, %object
 245              		.size	__func__.7507, 13
 246              	__func__.7507:
 247 0000 73745374 		.ascii	"stStartAlarm\000"
 247      61727441 
 247      6C61726D 
 247      00
 248 000d 000000   		.section	.rodata.__func__.7514,"a",%progbits
 249              		.align	2
 250              		.set	.LANCHOR1,. + 0
 251              		.type	__func__.7514, %object
 252              		.size	__func__.7514, 11
 253              	__func__.7514:
 254 0000 73745365 		.ascii	"stSetAlarm\000"
 254      74416C61 
 254      726D00
 255 000b 00       		.section	.rodata.__func__.7518,"a",%progbits
 256              		.align	2
 257              		.set	.LANCHOR2,. + 0
 258              		.type	__func__.7518, %object
 259              		.size	__func__.7518, 11
 260              	__func__.7518:
 261 0000 73744765 		.ascii	"stGetAlarm\000"
 261      74416C61 
 261      726D00
 262 000b 00       		.text
 263              	.Letext0:
 264              		.file 3 "c:\\program files\\gnu tools arm embedded\\4.9 2014q4\\arm-none-eabi\\include\\machine\\_
 265              		.file 4 "c:\\program files\\gnu tools arm embedded\\4.9 2014q4\\arm-none-eabi\\include\\stdint.h"
 266              		.file 5 "../../../os/rt/ports/ARMCMx/compilers/GCC/chtypes.h"
 267              		.file 6 "../../../os/rt/include/chsystypes.h"
 268              		.file 7 "../../../os/rt/include/chschd.h"
 269              		.file 8 "../../../os/rt/ports/ARMCMx/chcore.h"
 270              		.file 9 "../../../os/rt/ports/ARMCMx/chcore_v7m.h"
 271              		.file 10 "../../../os/hal/ports/STM32/LLD/TIMv1/stm32_tim.h"
 272              		.file 11 "../../../os/rt/include/chdebug.h"
 273              		.file 12 "../../../os/rt/include/chtm.h"
 274              		.file 13 "../../../os/rt/include/chsem.h"
ARM GAS  C:\Users\jo\AppData\Local\Temp\ccvmBp0s.s 			page 6


 275              		.file 14 "../../../os/rt/include/chmtx.h"
 276              		.file 15 "../../../os/ext/CMSIS/include/core_cm4.h"
 277              		.file 16 "../../../os/rt/include/chsys.h"