ARM GAS  C:\Users\jo\AppData\Local\Temp\ccvmBp0s.s 			page 1


   1              		.syntax unified
   2              		.cpu cortex-m4
   3              		.fpu softvfp
   4              		.eabi_attribute 20, 1
   5              		.eabi_attribute 21, 1
   6              		.eabi_attribute 23, 3
   7              		.eabi_attribute 24, 1
   8              		.eabi_attribute 25, 1
   9              		.eabi_attribute 26, 1
  10              		.eabi_attribute 30, 2
  11              		.eabi_attribute 34, 1
  12              		.eabi_attribute 18, 4
  13              		.thumb
  14              		.file	"st.c"
  15              		.text
  16              	.Ltext0:
  17              		.cfi_sections	.debug_frame
  18              		.section	.text.stInit,"ax",%progbits
  19              		.align	2
  20              		.p2align 4,,15
  21              		.global	stInit
  22              		.thumb
  23              		.thumb_func
  24              		.type	stInit, %function
  25              	stInit:
  26              	.LFB259:
  27              		.file 1 "../../../os/hal/src/st.c"
  28              		.loc 1 60 0
  29              		.cfi_startproc
  30              		@ args = 0, pretend = 0, frame = 0
  31              		@ frame_needed = 0, uses_anonymous_args = 0
  32              		@ link register save eliminated.
  33              		.loc 1 62 0
  34 0000 FFF7FEBF 		b	st_lld_init
  35              	.LVL0:
  36              		.cfi_endproc
  37              	.LFE259:
  38              		.size	stInit, .-stInit
  39 0004 AFF30080 		.section	.text.stStartAlarm,"ax",%progbits
  39      AFF30080 
  39      AFF30080 
  40              		.align	2
  41              		.p2align 4,,15
  42              		.global	stStartAlarm
  43              		.thumb
  44              		.thumb_func
  45              		.type	stStartAlarm, %function
  46              	stStartAlarm:
  47              	.LFB260:
  48              		.loc 1 77 0
  49              		.cfi_startproc
  50              		@ args = 0, pretend = 0, frame = 0
  51              		@ frame_needed = 0, uses_anonymous_args = 0
  52              	.LVL1:
  53              	.LBB16:
  54              	.LBB17:
  55              		.file 2 "../../../os/hal/ports/STM32/LLD/TIMv1/st_lld.h"
ARM GAS  C:\Users\jo\AppData\Local\Temp\ccvmBp0s.s 			page 2


  56              		.loc 2 193 0
  57 0000 4FF08043 		mov	r3, #1073741824
  58              	.LBE17:
  59              	.LBE16:
  60              		.loc 1 77 0
  61 0004 10B5     		push	{r4, lr}
  62              		.cfi_def_cfa_offset 8
  63              		.cfi_offset 4, -8
  64              		.cfi_offset 14, -4
  65              	.LBB19:
  66              	.LBB18:
  67              		.loc 2 193 0
  68 0006 DB68     		ldr	r3, [r3, #12]
  69              	.LBE18:
  70              	.LBE19:
  71              		.loc 1 79 0
  72 0008 9B07     		lsls	r3, r3, #30
  73              		.loc 1 77 0
  74 000a 0446     		mov	r4, r0
  75              		.loc 1 79 0
  76 000c 02D5     		bpl	.L3
  77              		.loc 1 79 0 is_stmt 0 discriminator 2
  78 000e 0548     		ldr	r0, .L9
  79              	.LVL2:
  80 0010 FFF7FEFF 		bl	chSysHalt
  81              	.LVL3:
  82              	.L3:
  83              	.LBB20:
  84              	.LBB21:
  85              		.loc 2 143 0 is_stmt 1
  86 0014 4FF08043 		mov	r3, #1073741824
  87              		.loc 2 144 0
  88 0018 0021     		movs	r1, #0
  89              		.loc 2 145 0
  90 001a 0222     		movs	r2, #2
  91              		.loc 2 143 0
  92 001c 5C63     		str	r4, [r3, #52]
  93              		.loc 2 144 0
  94 001e 1961     		str	r1, [r3, #16]
  95              		.loc 2 145 0
  96 0020 DA60     		str	r2, [r3, #12]
  97 0022 10BD     		pop	{r4, pc}
  98              	.LVL4:
  99              	.L10:
 100              		.align	2
 101              	.L9:
 102 0024 00000000 		.word	.LANCHOR0
 103              	.LBE21:
 104              	.LBE20:
 105              		.cfi_endproc
 106              	.LFE260:
 107              		.size	stStartAlarm, .-stStartAlarm
 108 0028 AFF30080 		.section	.text.stStopAlarm,"ax",%progbits
 108      AFF30080 
 109              		.align	2
 110              		.p2align 4,,15
 111              		.global	stStopAlarm
ARM GAS  C:\Users\jo\AppData\Local\Temp\ccvmBp0s.s 			page 3


 112              		.thumb
 113              		.thumb_func
 114              		.type	stStopAlarm, %function
 115              	stStopAlarm:
 116              	.LFB261:
 117              		.loc 1 91 0
 118              		.cfi_startproc
 119              		@ args = 0, pretend = 0, frame = 0
 120              		@ frame_needed = 0, uses_anonymous_args = 0
 121              		@ link register save eliminated.
 122              	.LBB22:
 123              	.LBB23:
 124              		.loc 2 155 0
 125 0000 4FF08043 		mov	r3, #1073741824
 126 0004 0022     		movs	r2, #0
 127 0006 DA60     		str	r2, [r3, #12]
 128 0008 7047     		bx	lr
 129              	.LBE23:
 130              	.LBE22:
 131              		.cfi_endproc
 132              	.LFE261:
 133              		.size	stStopAlarm, .-stStopAlarm
 134 000a 00BFAFF3 		.section	.text.stSetAlarm,"ax",%progbits
 134      0080
 135              		.align	2
 136              		.p2align 4,,15
 137              		.global	stSetAlarm
 138              		.thumb
 139              		.thumb_func
 140              		.type	stSetAlarm, %function
 141              	stSetAlarm:
 142              	.LFB262:
 143              		.loc 1 105 0
 144              		.cfi_startproc
 145              		@ args = 0, pretend = 0, frame = 0
 146              		@ frame_needed = 0, uses_anonymous_args = 0
 147              	.LVL5:
 148              	.LBB24:
 149              	.LBB25:
 150              		.loc 2 193 0
 151 0000 4FF08043 		mov	r3, #1073741824
 152              	.LBE25:
 153              	.LBE24:
 154              		.loc 1 105 0
 155 0004 10B5     		push	{r4, lr}
 156              		.cfi_def_cfa_offset 8
 157              		.cfi_offset 4, -8
 158              		.cfi_offset 14, -4
 159              	.LBB27:
 160              	.LBB26:
 161              		.loc 2 193 0
 162 0006 DB68     		ldr	r3, [r3, #12]
 163              	.LBE26:
 164              	.LBE27:
 165              		.loc 1 107 0
 166 0008 9B07     		lsls	r3, r3, #30
 167              		.loc 1 105 0
ARM GAS  C:\Users\jo\AppData\Local\Temp\ccvmBp0s.s 			page 4


 168 000a 0446     		mov	r4, r0
 169              		.loc 1 107 0
 170 000c 02D4     		bmi	.L13
 171              		.loc 1 107 0 is_stmt 0 discriminator 2
 172 000e 0348     		ldr	r0, .L15
 173              	.LVL6:
 174 0010 FFF7FEFF 		bl	chSysHalt
 175              	.LVL7:
 176              	.L13:
 177              	.LBB28:
 178              	.LBB29:
 179              		.loc 2 167 0 is_stmt 1
 180 0014 4FF08043 		mov	r3, #1073741824
 181 0018 5C63     		str	r4, [r3, #52]
 182 001a 10BD     		pop	{r4, pc}
 183              	.LVL8:
 184              	.L16:
 185              		.align	2
 186              	.L15:
 187 001c 00000000 		.word	.LANCHOR1
 188              	.LBE29:
 189              	.LBE28:
 190              		.cfi_endproc
 191              	.LFE262:
 192              		.size	stSetAlarm, .-stSetAlarm
 193              		.section	.text.stGetAlarm,"ax",%progbits
 194              		.align	2
 195              		.p2align 4,,15
 196              		.global	stGetAlarm
 197              		.thumb
 198              		.thumb_func
 199              		.type	stGetAlarm, %function
 200              	stGetAlarm:
 201              	.LFB263:
 202              		.loc 1 121 0
 203              		.cfi_startproc
 204              		@ args = 0, pretend = 0, frame = 0
 205              		@ frame_needed = 0, uses_anonymous_args = 0
 206 0000 08B5     		push	{r3, lr}
 207              		.cfi_def_cfa_offset 8
 208              		.cfi_offset 3, -8
 209              		.cfi_offset 14, -4
 210              	.LBB30:
 211              	.LBB31:
 212              		.loc 2 193 0
 213 0002 4FF08043 		mov	r3, #1073741824
 214 0006 DB68     		ldr	r3, [r3, #12]
 215              	.LBE31:
 216              	.LBE30:
 217              		.loc 1 123 0
 218 0008 9B07     		lsls	r3, r3, #30
 219 000a 02D4     		bmi	.L18
 220              		.loc 1 123 0 is_stmt 0 discriminator 2
 221 000c 0348     		ldr	r0, .L20
 222 000e FFF7FEFF 		bl	chSysHalt
 223              	.LVL9:
 224              	.L18:
ARM GAS  C:\Users\jo\AppData\Local\Temp\ccvmBp0s.s 			page 5


 225              	.LBB32:
 226              	.LBB33:
 227              		.loc 2 179 0 is_stmt 1
 228 0012 4FF08043 		mov	r3, #1073741824
 229 0016 586B     		ldr	r0, [r3, #52]
 230              	.LBE33:
 231              	.LBE32:
 232              		.loc 1 126 0
 233 0018 08BD     		pop	{r3, pc}
 234              	.L21:
 235 001a 00BF     		.align	2
 236              	.L20:
 237 001c 00000000 		.word	.LANCHOR2
 238              		.cfi_endproc
 239              	.LFE263:
 240              		.size	stGetAlarm, .-stGetAlarm
 241              		.section	.rodata.__func__.7507,"a",%progbits
 242              		.align	2
 243              		.set	.LANCHOR0,. + 0
 244              		.type	__func__.7507, %object
 245              		.size	__func__.7507, 13
 246              	__func__.7507:
 247 0000 73745374 		.ascii	"stStartAlarm\000"
 247      61727441 
 247      6C61726D 
 247      00
 248 000d 000000   		.section	.rodata.__func__.7514,"a",%progbits
 249              		.align	2
 250              		.set	.LANCHOR1,. + 0
 251              		.type	__func__.7514, %object
 252              		.size	__func__.7514, 11
 253              	__func__.7514:
 254 0000 73745365 		.ascii	"stSetAlarm\000"
 254      74416C61 
 254      726D00
 255 000b 00       		.section	.rodata.__func__.7518,"a",%progbits
 256              		.align	2
 257              		.set	.LANCHOR2,. + 0
 258              		.type	__func__.7518, %object
 259              		.size	__func__.7518, 11
 260              	__func__.7518:
 261 0000 73744765 		.ascii	"stGetAlarm\000"
 261      74416C61 
 261      726D00
 262 000b 00       		.text
 263              	.Letext0:
 264              		.file 3 "c:\\program files\\gnu tools arm embedded\\4.9 2014q4\\arm-none-eabi\\include\\machine\\_
 265              		.file 4 "c:\\program files\\gnu tools arm embedded\\4.9 2014q4\\arm-none-eabi\\include\\stdint.h"
 266              		.file 5 "../../../os/rt/ports/ARMCMx/compilers/GCC/chtypes.h"
 267              		.file 6 "../../../os/rt/include/chsystypes.h"
 268              		.file 7 "../../../os/rt/include/chschd.h"
 269              		.file 8 "../../../os/rt/ports/ARMCMx/chcore.h"
 270              		.file 9 "../../../os/rt/ports/ARMCMx/chcore_v7m.h"
 271              		.file 10 "../../../os/hal/ports/STM32/LLD/TIMv1/stm32_tim.h"
 272              		.file 11 "../../../os/rt/include/chdebug.h"
 273              		.file 12 "../../../os/rt/include/chtm.h"
 274              		.file 13 "../../../os/rt/include/chsem.h"
ARM GAS  C:\Users\jo\AppData\Local\Temp\ccvmBp0s.s 			page 6


 275              		.file 14 "../../../os/rt/include/chmtx.h"
 276              		.file 15 "../../../os/ext/CMSIS/include/core_cm4.h"
 277              		.file 16 "../../../os/rt/include/chsys.h"
 278              		.section	.debug_info,"",%progbits
 279              	.Ldebug_info0:
 280 0000 650A0000 		.4byte	0xa65
 281 0004 0400     		.2byte	0x4
 282 0006 00000000 		.4byte	.Ldebug_abbrev0
 283 000a 04       		.byte	0x4
 284 000b 01       		.uleb128 0x1
 285 000c F9020000 		.4byte	.LASF137
 286 0010 01       		.byte	0x1
 287 0011 60020000 		.4byte	.LASF138
 288 0015 F0000000 		.4byte	.LASF139
 289 0019 30000000 		.4byte	.Ldebug_ranges0+0x30
 290 001d 00000000 		.4byte	0
 291 0021 00000000 		.4byte	.Ldebug_line0
 292 0025 02       		.uleb128 0x2
 293 0026 04       		.byte	0x4
 294 0027 05       		.byte	0x5
 295 0028 696E7400 		.ascii	"int\000"
 296 002c 03       		.uleb128 0x3
 297 002d 04       		.byte	0x4
 298 002e 07       		.byte	0x7
 299 002f 44020000 		.4byte	.LASF0
 300 0033 03       		.uleb128 0x3
 301 0034 01       		.byte	0x1
 302 0035 06       		.byte	0x6
 303 0036 50010000 		.4byte	.LASF1
 304 003a 04       		.uleb128 0x4
 305 003b 2F000000 		.4byte	.LASF5
 306 003f 03       		.byte	0x3
 307 0040 1D       		.byte	0x1d
 308 0041 45000000 		.4byte	0x45
 309 0045 03       		.uleb128 0x3
 310 0046 01       		.byte	0x1
 311 0047 08       		.byte	0x8
 312 0048 C2040000 		.4byte	.LASF2
 313 004c 03       		.uleb128 0x3
 314 004d 02       		.byte	0x2
 315 004e 05       		.byte	0x5
 316 004f DA040000 		.4byte	.LASF3
 317 0053 03       		.uleb128 0x3
 318 0054 02       		.byte	0x2
 319 0055 07       		.byte	0x7
 320 0056 C0010000 		.4byte	.LASF4
 321 005a 04       		.uleb128 0x4
 322 005b D1020000 		.4byte	.LASF6
 323 005f 03       		.byte	0x3
 324 0060 3F       		.byte	0x3f
 325 0061 65000000 		.4byte	0x65
 326 0065 03       		.uleb128 0x3
 327 0066 04       		.byte	0x4
 328 0067 05       		.byte	0x5
 329 0068 7D010000 		.4byte	.LASF7
 330 006c 04       		.uleb128 0x4
 331 006d D8050000 		.4byte	.LASF8
ARM GAS  C:\Users\jo\AppData\Local\Temp\ccvmBp0s.s 			page 7


 332 0071 03       		.byte	0x3
 333 0072 41       		.byte	0x41
 334 0073 77000000 		.4byte	0x77
 335 0077 03       		.uleb128 0x3
 336 0078 04       		.byte	0x4
 337 0079 07       		.byte	0x7
 338 007a 82050000 		.4byte	.LASF9
 339 007e 03       		.uleb128 0x3
 340 007f 08       		.byte	0x8
 341 0080 05       		.byte	0x5
 342 0081 A2010000 		.4byte	.LASF10
 343 0085 04       		.uleb128 0x4
 344 0086 68040000 		.4byte	.LASF11
 345 008a 03       		.byte	0x3
 346 008b 5B       		.byte	0x5b
 347 008c 90000000 		.4byte	0x90
 348 0090 03       		.uleb128 0x3
 349 0091 08       		.byte	0x8
 350 0092 07       		.byte	0x7
 351 0093 5E000000 		.4byte	.LASF12
 352 0097 04       		.uleb128 0x4
 353 0098 01050000 		.4byte	.LASF13
 354 009c 04       		.byte	0x4
 355 009d 15       		.byte	0x15
 356 009e 3A000000 		.4byte	0x3a
 357 00a2 04       		.uleb128 0x4
 358 00a3 BA040000 		.4byte	.LASF14
 359 00a7 04       		.byte	0x4
 360 00a8 2C       		.byte	0x2c
 361 00a9 5A000000 		.4byte	0x5a
 362 00ad 04       		.uleb128 0x4
 363 00ae 51050000 		.4byte	.LASF15
 364 00b2 04       		.byte	0x4
 365 00b3 2D       		.byte	0x2d
 366 00b4 6C000000 		.4byte	0x6c
 367 00b8 04       		.uleb128 0x4
 368 00b9 26000000 		.4byte	.LASF16
 369 00bd 04       		.byte	0x4
 370 00be 39       		.byte	0x39
 371 00bf 85000000 		.4byte	0x85
 372 00c3 05       		.uleb128 0x5
 373 00c4 A2000000 		.4byte	0xa2
 374 00c8 05       		.uleb128 0x5
 375 00c9 AD000000 		.4byte	0xad
 376 00cd 04       		.uleb128 0x4
 377 00ce 0F060000 		.4byte	.LASF17
 378 00d2 05       		.byte	0x5
 379 00d3 45       		.byte	0x45
 380 00d4 AD000000 		.4byte	0xad
 381 00d8 04       		.uleb128 0x4
 382 00d9 86010000 		.4byte	.LASF18
 383 00dd 05       		.byte	0x5
 384 00de 48       		.byte	0x48
 385 00df 97000000 		.4byte	0x97
 386 00e3 04       		.uleb128 0x4
 387 00e4 8E010000 		.4byte	.LASF19
 388 00e8 05       		.byte	0x5
ARM GAS  C:\Users\jo\AppData\Local\Temp\ccvmBp0s.s 			page 8


 389 00e9 49       		.byte	0x49
 390 00ea 97000000 		.4byte	0x97
 391 00ee 04       		.uleb128 0x4
 392 00ef 73040000 		.4byte	.LASF20
 393 00f3 05       		.byte	0x5
 394 00f4 4A       		.byte	0x4a
 395 00f5 97000000 		.4byte	0x97
 396 00f9 04       		.uleb128 0x4
 397 00fa 9C040000 		.4byte	.LASF21
 398 00fe 05       		.byte	0x5
 399 00ff 4C       		.byte	0x4c
 400 0100 AD000000 		.4byte	0xad
 401 0104 04       		.uleb128 0x4
 402 0105 99020000 		.4byte	.LASF22
 403 0109 05       		.byte	0x5
 404 010a 4D       		.byte	0x4d
 405 010b A2000000 		.4byte	0xa2
 406 010f 04       		.uleb128 0x4
 407 0110 C5020000 		.4byte	.LASF23
 408 0114 05       		.byte	0x5
 409 0115 4F       		.byte	0x4f
 410 0116 AD000000 		.4byte	0xad
 411 011a 04       		.uleb128 0x4
 412 011b 33020000 		.4byte	.LASF24
 413 011f 05       		.byte	0x5
 414 0120 51       		.byte	0x51
 415 0121 A2000000 		.4byte	0xa2
 416 0125 04       		.uleb128 0x4
 417 0126 BA050000 		.4byte	.LASF25
 418 012a 06       		.byte	0x6
 419 012b 33       		.byte	0x33
 420 012c AD000000 		.4byte	0xad
 421 0130 04       		.uleb128 0x4
 422 0131 AA050000 		.4byte	.LASF26
 423 0135 06       		.byte	0x6
 424 0136 3F       		.byte	0x3f
 425 0137 3B010000 		.4byte	0x13b
 426 013b 06       		.uleb128 0x6
 427 013c 8F020000 		.4byte	.LASF47
 428 0140 48       		.byte	0x48
 429 0141 07       		.byte	0x7
 430 0142 C2       		.byte	0xc2
 431 0143 34020000 		.4byte	0x234
 432 0147 07       		.uleb128 0x7
 433 0148 FA040000 		.4byte	.LASF27
 434 014c 07       		.byte	0x7
 435 014d C3       		.byte	0xc3
 436 014e 3F020000 		.4byte	0x23f
 437 0152 00       		.byte	0
 438 0153 07       		.uleb128 0x7
 439 0154 95040000 		.4byte	.LASF28
 440 0158 07       		.byte	0x7
 441 0159 C5       		.byte	0xc5
 442 015a 3F020000 		.4byte	0x23f
 443 015e 04       		.byte	0x4
 444 015f 07       		.uleb128 0x7
 445 0160 E9000000 		.4byte	.LASF29
ARM GAS  C:\Users\jo\AppData\Local\Temp\ccvmBp0s.s 			page 9


 446 0164 07       		.byte	0x7
 447 0165 C7       		.byte	0xc7
 448 0166 F9000000 		.4byte	0xf9
 449 016a 08       		.byte	0x8
 450 016b 07       		.uleb128 0x7
 451 016c D1060000 		.4byte	.LASF30
 452 0170 07       		.byte	0x7
 453 0171 C8       		.byte	0xc8
 454 0172 BA040000 		.4byte	0x4ba
 455 0176 0C       		.byte	0xc
 456 0177 07       		.uleb128 0x7
 457 0178 B0010000 		.4byte	.LASF31
 458 017c 07       		.byte	0x7
 459 017d CA       		.byte	0xca
 460 017e 3F020000 		.4byte	0x23f
 461 0182 10       		.byte	0x10
 462 0183 07       		.uleb128 0x7
 463 0184 2B040000 		.4byte	.LASF32
 464 0188 07       		.byte	0x7
 465 0189 CB       		.byte	0xcb
 466 018a 3F020000 		.4byte	0x23f
 467 018e 14       		.byte	0x14
 468 018f 07       		.uleb128 0x7
 469 0190 7B060000 		.4byte	.LASF33
 470 0194 07       		.byte	0x7
 471 0195 D2       		.byte	0xd2
 472 0196 EE070000 		.4byte	0x7ee
 473 019a 18       		.byte	0x18
 474 019b 07       		.uleb128 0x7
 475 019c 39020000 		.4byte	.LASF34
 476 01a0 07       		.byte	0x7
 477 01a1 D8       		.byte	0xd8
 478 01a2 00080000 		.4byte	0x800
 479 01a6 1C       		.byte	0x1c
 480 01a7 07       		.uleb128 0x7
 481 01a8 E4040000 		.4byte	.LASF35
 482 01ac 07       		.byte	0x7
 483 01ad DD       		.byte	0xdd
 484 01ae E3000000 		.4byte	0xe3
 485 01b2 20       		.byte	0x20
 486 01b3 07       		.uleb128 0x7
 487 01b4 A6060000 		.4byte	.LASF36
 488 01b8 07       		.byte	0x7
 489 01b9 E1       		.byte	0xe1
 490 01ba D8000000 		.4byte	0xd8
 491 01be 21       		.byte	0x21
 492 01bf 07       		.uleb128 0x7
 493 01c0 49060000 		.4byte	.LASF37
 494 01c4 07       		.byte	0x7
 495 01c5 E6       		.byte	0xe6
 496 01c6 EE000000 		.4byte	0xee
 497 01ca 22       		.byte	0x22
 498 01cb 08       		.uleb128 0x8
 499 01cc 705F7500 		.ascii	"p_u\000"
 500 01d0 07       		.byte	0x7
 501 01d1 3101     		.2byte	0x131
 502 01d3 29070000 		.4byte	0x729
ARM GAS  C:\Users\jo\AppData\Local\Temp\ccvmBp0s.s 			page 10


 503 01d7 24       		.byte	0x24
 504 01d8 09       		.uleb128 0x9
 505 01d9 D3030000 		.4byte	.LASF38
 506 01dd 07       		.byte	0x7
 507 01de 3601     		.2byte	0x136
 508 01e0 45020000 		.4byte	0x245
 509 01e4 28       		.byte	0x28
 510 01e5 09       		.uleb128 0x9
 511 01e6 79020000 		.4byte	.LASF39
 512 01ea 07       		.byte	0x7
 513 01eb 3C01     		.2byte	0x13c
 514 01ed 69020000 		.4byte	0x269
 515 01f1 2C       		.byte	0x2c
 516 01f2 09       		.uleb128 0x9
 517 01f3 09060000 		.4byte	.LASF40
 518 01f7 07       		.byte	0x7
 519 01f8 4001     		.2byte	0x140
 520 01fa 04010000 		.4byte	0x104
 521 01fe 34       		.byte	0x34
 522 01ff 09       		.uleb128 0x9
 523 0200 46050000 		.4byte	.LASF41
 524 0204 07       		.byte	0x7
 525 0205 4601     		.2byte	0x146
 526 0207 0F010000 		.4byte	0x10f
 527 020b 38       		.byte	0x38
 528 020c 09       		.uleb128 0x9
 529 020d D0040000 		.4byte	.LASF42
 530 0211 07       		.byte	0x7
 531 0212 4D01     		.2byte	0x14d
 532 0214 E8070000 		.4byte	0x7e8
 533 0218 3C       		.byte	0x3c
 534 0219 09       		.uleb128 0x9
 535 021a C4050000 		.4byte	.LASF43
 536 021e 07       		.byte	0x7
 537 021f 5101     		.2byte	0x151
 538 0221 F9000000 		.4byte	0xf9
 539 0225 40       		.byte	0x40
 540 0226 09       		.uleb128 0x9
 541 0227 FA010000 		.4byte	.LASF44
 542 022b 07       		.byte	0x7
 543 022c 5801     		.2byte	0x158
 544 022e 1C030000 		.4byte	0x31c
 545 0232 44       		.byte	0x44
 546 0233 00       		.byte	0
 547 0234 04       		.uleb128 0x4
 548 0235 E6030000 		.4byte	.LASF45
 549 0239 06       		.byte	0x6
 550 023a 44       		.byte	0x44
 551 023b 3F020000 		.4byte	0x23f
 552 023f 0A       		.uleb128 0xa
 553 0240 04       		.byte	0x4
 554 0241 30010000 		.4byte	0x130
 555 0245 04       		.uleb128 0x4
 556 0246 82060000 		.4byte	.LASF46
 557 024a 06       		.byte	0x6
 558 024b 49       		.byte	0x49
 559 024c 50020000 		.4byte	0x250
ARM GAS  C:\Users\jo\AppData\Local\Temp\ccvmBp0s.s 			page 11


 560 0250 06       		.uleb128 0x6
 561 0251 72050000 		.4byte	.LASF48
 562 0255 04       		.byte	0x4
 563 0256 07       		.byte	0x7
 564 0257 B0       		.byte	0xb0
 565 0258 69020000 		.4byte	0x269
 566 025c 07       		.uleb128 0x7
 567 025d FA040000 		.4byte	.LASF27
 568 0261 07       		.byte	0x7
 569 0262 B1       		.byte	0xb1
 570 0263 3F020000 		.4byte	0x23f
 571 0267 00       		.byte	0
 572 0268 00       		.byte	0
 573 0269 04       		.uleb128 0x4
 574 026a 30060000 		.4byte	.LASF49
 575 026e 06       		.byte	0x6
 576 026f 50       		.byte	0x50
 577 0270 74020000 		.4byte	0x274
 578 0274 06       		.uleb128 0x6
 579 0275 D8000000 		.4byte	.LASF50
 580 0279 08       		.byte	0x8
 581 027a 07       		.byte	0x7
 582 027b B7       		.byte	0xb7
 583 027c 99020000 		.4byte	0x299
 584 0280 07       		.uleb128 0x7
 585 0281 FA040000 		.4byte	.LASF27
 586 0285 07       		.byte	0x7
 587 0286 B8       		.byte	0xb8
 588 0287 3F020000 		.4byte	0x23f
 589 028b 00       		.byte	0
 590 028c 07       		.uleb128 0x7
 591 028d 95040000 		.4byte	.LASF28
 592 0291 07       		.byte	0x7
 593 0292 B9       		.byte	0xb9
 594 0293 3F020000 		.4byte	0x23f
 595 0297 04       		.byte	0x4
 596 0298 00       		.byte	0
 597 0299 04       		.uleb128 0x4
 598 029a 07000000 		.4byte	.LASF51
 599 029e 06       		.byte	0x6
 600 029f 57       		.byte	0x57
 601 02a0 A4020000 		.4byte	0x2a4
 602 02a4 0B       		.uleb128 0xb
 603 02a5 B7020000 		.4byte	.LASF52
 604 02a9 1C       		.byte	0x1c
 605 02aa 07       		.byte	0x7
 606 02ab 9001     		.2byte	0x190
 607 02ad 00030000 		.4byte	0x300
 608 02b1 09       		.uleb128 0x9
 609 02b2 61050000 		.4byte	.LASF53
 610 02b6 07       		.byte	0x7
 611 02b7 9101     		.2byte	0x191
 612 02b9 69020000 		.4byte	0x269
 613 02bd 00       		.byte	0
 614 02be 09       		.uleb128 0x9
 615 02bf EC040000 		.4byte	.LASF54
 616 02c3 07       		.byte	0x7
ARM GAS  C:\Users\jo\AppData\Local\Temp\ccvmBp0s.s 			page 12


 617 02c4 9201     		.2byte	0x192
 618 02c6 F9000000 		.4byte	0xf9
 619 02ca 08       		.byte	0x8
 620 02cb 09       		.uleb128 0x9
 621 02cc 3A040000 		.4byte	.LASF55
 622 02d0 07       		.byte	0x7
 623 02d1 9401     		.2byte	0x194
 624 02d3 BA040000 		.4byte	0x4ba
 625 02d7 0C       		.byte	0xc
 626 02d8 09       		.uleb128 0x9
 627 02d9 F2010000 		.4byte	.LASF56
 628 02dd 07       		.byte	0x7
 629 02de 9701     		.2byte	0x197
 630 02e0 3F020000 		.4byte	0x23f
 631 02e4 10       		.byte	0x10
 632 02e5 09       		.uleb128 0x9
 633 02e6 60040000 		.4byte	.LASF57
 634 02ea 07       		.byte	0x7
 635 02eb 9801     		.2byte	0x198
 636 02ed 3F020000 		.4byte	0x23f
 637 02f1 14       		.byte	0x14
 638 02f2 09       		.uleb128 0x9
 639 02f3 56040000 		.4byte	.LASF58
 640 02f7 07       		.byte	0x7
 641 02f8 9B01     		.2byte	0x19b
 642 02fa 3F020000 		.4byte	0x23f
 643 02fe 18       		.byte	0x18
 644 02ff 00       		.byte	0
 645 0300 04       		.uleb128 0x4
 646 0301 CF050000 		.4byte	.LASF59
 647 0305 06       		.byte	0x6
 648 0306 5C       		.byte	0x5c
 649 0307 0B030000 		.4byte	0x30b
 650 030b 0A       		.uleb128 0xa
 651 030c 04       		.byte	0x4
 652 030d 11030000 		.4byte	0x311
 653 0311 0C       		.uleb128 0xc
 654 0312 1C030000 		.4byte	0x31c
 655 0316 0D       		.uleb128 0xd
 656 0317 1C030000 		.4byte	0x31c
 657 031b 00       		.byte	0
 658 031c 0E       		.uleb128 0xe
 659 031d 04       		.byte	0x4
 660 031e 04       		.uleb128 0x4
 661 031f 85040000 		.4byte	.LASF60
 662 0323 06       		.byte	0x6
 663 0324 61       		.byte	0x61
 664 0325 29030000 		.4byte	0x329
 665 0329 0B       		.uleb128 0xb
 666 032a 12050000 		.4byte	.LASF61
 667 032e 14       		.byte	0x14
 668 032f 07       		.byte	0x7
 669 0330 6B01     		.2byte	0x16b
 670 0332 78030000 		.4byte	0x378
 671 0336 09       		.uleb128 0x9
 672 0337 51020000 		.4byte	.LASF62
 673 033b 07       		.byte	0x7
ARM GAS  C:\Users\jo\AppData\Local\Temp\ccvmBp0s.s 			page 13


 674 033c 6C01     		.2byte	0x16c
 675 033e 06080000 		.4byte	0x806
 676 0342 00       		.byte	0
 677 0343 09       		.uleb128 0x9
 678 0344 0B020000 		.4byte	.LASF63
 679 0348 07       		.byte	0x7
 680 0349 6D01     		.2byte	0x16d
 681 034b 06080000 		.4byte	0x806
 682 034f 04       		.byte	0x4
 683 0350 09       		.uleb128 0x9
 684 0351 69050000 		.4byte	.LASF64
 685 0355 07       		.byte	0x7
 686 0356 6E01     		.2byte	0x16e
 687 0358 25010000 		.4byte	0x125
 688 035c 08       		.byte	0x8
 689 035d 09       		.uleb128 0x9
 690 035e D7060000 		.4byte	.LASF65
 691 0362 07       		.byte	0x7
 692 0363 6F01     		.2byte	0x16f
 693 0365 00030000 		.4byte	0x300
 694 0369 0C       		.byte	0xc
 695 036a 09       		.uleb128 0x9
 696 036b 29060000 		.4byte	.LASF66
 697 036f 07       		.byte	0x7
 698 0370 7101     		.2byte	0x171
 699 0372 1C030000 		.4byte	0x31c
 700 0376 10       		.byte	0x10
 701 0377 00       		.byte	0
 702 0378 04       		.uleb128 0x4
 703 0379 A4000000 		.4byte	.LASF67
 704 037d 06       		.byte	0x6
 705 037e 66       		.byte	0x66
 706 037f 83030000 		.4byte	0x383
 707 0383 0B       		.uleb128 0xb
 708 0384 F9030000 		.4byte	.LASF68
 709 0388 10       		.byte	0x10
 710 0389 07       		.byte	0x7
 711 038a 7B01     		.2byte	0x17b
 712 038c C5030000 		.4byte	0x3c5
 713 0390 09       		.uleb128 0x9
 714 0391 51020000 		.4byte	.LASF62
 715 0395 07       		.byte	0x7
 716 0396 7C01     		.2byte	0x17c
 717 0398 06080000 		.4byte	0x806
 718 039c 00       		.byte	0
 719 039d 09       		.uleb128 0x9
 720 039e 0B020000 		.4byte	.LASF63
 721 03a2 07       		.byte	0x7
 722 03a3 7E01     		.2byte	0x17e
 723 03a5 06080000 		.4byte	0x806
 724 03a9 04       		.byte	0x4
 725 03aa 09       		.uleb128 0x9
 726 03ab 69050000 		.4byte	.LASF64
 727 03af 07       		.byte	0x7
 728 03b0 8001     		.2byte	0x180
 729 03b2 25010000 		.4byte	0x125
 730 03b6 08       		.byte	0x8
ARM GAS  C:\Users\jo\AppData\Local\Temp\ccvmBp0s.s 			page 14


 731 03b7 09       		.uleb128 0x9
 732 03b8 1F040000 		.4byte	.LASF69
 733 03bc 07       		.byte	0x7
 734 03bd 8801     		.2byte	0x188
 735 03bf 25010000 		.4byte	0x125
 736 03c3 0C       		.byte	0xc
 737 03c4 00       		.byte	0
 738 03c5 04       		.uleb128 0x4
 739 03c6 45000000 		.4byte	.LASF70
 740 03ca 06       		.byte	0x6
 741 03cb 6B       		.byte	0x6b
 742 03cc D0030000 		.4byte	0x3d0
 743 03d0 0F       		.uleb128 0xf
 744 03d1 A4040000 		.4byte	.LASF71
 745 03d5 1404     		.2byte	0x414
 746 03d7 07       		.byte	0x7
 747 03d8 A201     		.2byte	0x1a2
 748 03da 13040000 		.4byte	0x413
 749 03de 09       		.uleb128 0x9
 750 03df E3050000 		.4byte	.LASF72
 751 03e3 07       		.byte	0x7
 752 03e4 AA01     		.2byte	0x1aa
 753 03e6 0C080000 		.4byte	0x80c
 754 03ea 00       		.byte	0
 755 03eb 09       		.uleb128 0x9
 756 03ec 50060000 		.4byte	.LASF73
 757 03f0 07       		.byte	0x7
 758 03f1 AF01     		.2byte	0x1af
 759 03f3 1A010000 		.4byte	0x11a
 760 03f7 04       		.byte	0x4
 761 03f8 09       		.uleb128 0x9
 762 03f9 1B020000 		.4byte	.LASF74
 763 03fd 07       		.byte	0x7
 764 03fe B301     		.2byte	0x1b3
 765 0400 1A010000 		.4byte	0x11a
 766 0404 08       		.byte	0x8
 767 0405 09       		.uleb128 0x9
 768 0406 99060000 		.4byte	.LASF75
 769 040a 07       		.byte	0x7
 770 040b B901     		.2byte	0x1b9
 771 040d FE060000 		.4byte	0x6fe
 772 0411 0C       		.byte	0xc
 773 0412 00       		.byte	0
 774 0413 04       		.uleb128 0x4
 775 0414 9F020000 		.4byte	.LASF76
 776 0418 06       		.byte	0x6
 777 0419 70       		.byte	0x70
 778 041a 1E040000 		.4byte	0x41e
 779 041e 0F       		.uleb128 0xf
 780 041f 73010000 		.4byte	.LASF77
 781 0423 7005     		.2byte	0x570
 782 0425 07       		.byte	0x7
 783 0426 C201     		.2byte	0x1c2
 784 0428 7D040000 		.4byte	0x47d
 785 042c 09       		.uleb128 0x9
 786 042d 58060000 		.4byte	.LASF78
 787 0431 07       		.byte	0x7
ARM GAS  C:\Users\jo\AppData\Local\Temp\ccvmBp0s.s 			page 15


 788 0432 C601     		.2byte	0x1c6
 789 0434 99020000 		.4byte	0x299
 790 0438 00       		.byte	0
 791 0439 09       		.uleb128 0x9
 792 043a 6C010000 		.4byte	.LASF79
 793 043e 07       		.byte	0x7
 794 043f CA01     		.2byte	0x1ca
 795 0441 78030000 		.4byte	0x378
 796 0445 1C       		.byte	0x1c
 797 0446 08       		.uleb128 0x8
 798 0447 64626700 		.ascii	"dbg\000"
 799 044b 07       		.byte	0x7
 800 044c CE01     		.2byte	0x1ce
 801 044e C5030000 		.4byte	0x3c5
 802 0452 2C       		.byte	0x2c
 803 0453 10       		.uleb128 0x10
 804 0454 99000000 		.4byte	.LASF80
 805 0458 07       		.byte	0x7
 806 0459 D201     		.2byte	0x1d2
 807 045b 30010000 		.4byte	0x130
 808 045f 4004     		.2byte	0x440
 809 0461 11       		.uleb128 0x11
 810 0462 746D00   		.ascii	"tm\000"
 811 0465 07       		.byte	0x7
 812 0466 D701     		.2byte	0x1d7
 813 0468 1E070000 		.4byte	0x71e
 814 046c 8804     		.2byte	0x488
 815 046e 10       		.uleb128 0x10
 816 046f 24020000 		.4byte	.LASF81
 817 0473 07       		.byte	0x7
 818 0474 E301     		.2byte	0x1e3
 819 0476 11080000 		.4byte	0x811
 820 047a 9004     		.2byte	0x490
 821 047c 00       		.byte	0
 822 047d 03       		.uleb128 0x3
 823 047e 04       		.byte	0x4
 824 047f 07       		.byte	0x7
 825 0480 DD030000 		.4byte	.LASF82
 826 0484 12       		.uleb128 0x12
 827 0485 AD000000 		.4byte	0xad
 828 0489 94040000 		.4byte	0x494
 829 048d 13       		.uleb128 0x13
 830 048e 7D040000 		.4byte	0x47d
 831 0492 01       		.byte	0x1
 832 0493 00       		.byte	0
 833 0494 12       		.uleb128 0x12
 834 0495 AD000000 		.4byte	0xad
 835 0499 A4040000 		.4byte	0x4a4
 836 049d 13       		.uleb128 0x13
 837 049e 7D040000 		.4byte	0x47d
 838 04a2 03       		.byte	0x3
 839 04a3 00       		.byte	0
 840 04a4 04       		.uleb128 0x4
 841 04a5 02020000 		.4byte	.LASF83
 842 04a9 08       		.byte	0x8
 843 04aa 65       		.byte	0x65
 844 04ab 1C030000 		.4byte	0x31c
ARM GAS  C:\Users\jo\AppData\Local\Temp\ccvmBp0s.s 			page 16


 845 04af 04       		.uleb128 0x4
 846 04b0 EE020000 		.4byte	.LASF84
 847 04b4 08       		.byte	0x8
 848 04b5 6D       		.byte	0x6d
 849 04b6 B8000000 		.4byte	0xb8
 850 04ba 06       		.uleb128 0x6
 851 04bb 01060000 		.4byte	.LASF85
 852 04bf 04       		.byte	0x4
 853 04c0 08       		.byte	0x8
 854 04c1 89       		.byte	0x89
 855 04c2 D3040000 		.4byte	0x4d3
 856 04c6 14       		.uleb128 0x14
 857 04c7 72313300 		.ascii	"r13\000"
 858 04cb 08       		.byte	0x8
 859 04cc 8A       		.byte	0x8a
 860 04cd 4E050000 		.4byte	0x54e
 861 04d1 00       		.byte	0
 862 04d2 00       		.byte	0
 863 04d3 06       		.uleb128 0x6
 864 04d4 39000000 		.4byte	.LASF86
 865 04d8 24       		.byte	0x24
 866 04d9 09       		.byte	0x9
 867 04da F4       		.byte	0xf4
 868 04db 4E050000 		.4byte	0x54e
 869 04df 08       		.uleb128 0x8
 870 04e0 723400   		.ascii	"r4\000"
 871 04e3 09       		.byte	0x9
 872 04e4 0701     		.2byte	0x107
 873 04e6 A4040000 		.4byte	0x4a4
 874 04ea 00       		.byte	0
 875 04eb 08       		.uleb128 0x8
 876 04ec 723500   		.ascii	"r5\000"
 877 04ef 09       		.byte	0x9
 878 04f0 0801     		.2byte	0x108
 879 04f2 A4040000 		.4byte	0x4a4
 880 04f6 04       		.byte	0x4
 881 04f7 08       		.uleb128 0x8
 882 04f8 723600   		.ascii	"r6\000"
 883 04fb 09       		.byte	0x9
 884 04fc 0901     		.2byte	0x109
 885 04fe A4040000 		.4byte	0x4a4
 886 0502 08       		.byte	0x8
 887 0503 08       		.uleb128 0x8
 888 0504 723700   		.ascii	"r7\000"
 889 0507 09       		.byte	0x9
 890 0508 0A01     		.2byte	0x10a
 891 050a A4040000 		.4byte	0x4a4
 892 050e 0C       		.byte	0xc
 893 050f 08       		.uleb128 0x8
 894 0510 723800   		.ascii	"r8\000"
 895 0513 09       		.byte	0x9
 896 0514 0B01     		.2byte	0x10b
 897 0516 A4040000 		.4byte	0x4a4
 898 051a 10       		.byte	0x10
 899 051b 08       		.uleb128 0x8
 900 051c 723900   		.ascii	"r9\000"
 901 051f 09       		.byte	0x9
ARM GAS  C:\Users\jo\AppData\Local\Temp\ccvmBp0s.s 			page 17


 902 0520 0C01     		.2byte	0x10c
 903 0522 A4040000 		.4byte	0x4a4
 904 0526 14       		.byte	0x14
 905 0527 08       		.uleb128 0x8
 906 0528 72313000 		.ascii	"r10\000"
 907 052c 09       		.byte	0x9
 908 052d 0D01     		.2byte	0x10d
 909 052f A4040000 		.4byte	0x4a4
 910 0533 18       		.byte	0x18
 911 0534 08       		.uleb128 0x8
 912 0535 72313100 		.ascii	"r11\000"
 913 0539 09       		.byte	0x9
 914 053a 0E01     		.2byte	0x10e
 915 053c A4040000 		.4byte	0x4a4
 916 0540 1C       		.byte	0x1c
 917 0541 08       		.uleb128 0x8
 918 0542 6C7200   		.ascii	"lr\000"
 919 0545 09       		.byte	0x9
 920 0546 0F01     		.2byte	0x10f
 921 0548 A4040000 		.4byte	0x4a4
 922 054c 20       		.byte	0x20
 923 054d 00       		.byte	0
 924 054e 0A       		.uleb128 0xa
 925 054f 04       		.byte	0x4
 926 0550 D3040000 		.4byte	0x4d3
 927 0554 15       		.uleb128 0x15
 928 0555 60       		.byte	0x60
 929 0556 0A       		.byte	0xa
 930 0557 9E01     		.2byte	0x19e
 931 0559 60060000 		.4byte	0x660
 932 055d 08       		.uleb128 0x8
 933 055e 43523100 		.ascii	"CR1\000"
 934 0562 0A       		.byte	0xa
 935 0563 9F01     		.2byte	0x19f
 936 0565 C8000000 		.4byte	0xc8
 937 0569 00       		.byte	0
 938 056a 08       		.uleb128 0x8
 939 056b 43523200 		.ascii	"CR2\000"
 940 056f 0A       		.byte	0xa
 941 0570 A001     		.2byte	0x1a0
 942 0572 C8000000 		.4byte	0xc8
 943 0576 04       		.byte	0x4
 944 0577 09       		.uleb128 0x9
 945 0578 8A020000 		.4byte	.LASF87
 946 057c 0A       		.byte	0xa
 947 057d A101     		.2byte	0x1a1
 948 057f C8000000 		.4byte	0xc8
 949 0583 08       		.byte	0x8
 950 0584 09       		.uleb128 0x9
 951 0585 14000000 		.4byte	.LASF88
 952 0589 0A       		.byte	0xa
 953 058a A201     		.2byte	0x1a2
 954 058c C8000000 		.4byte	0xc8
 955 0590 0C       		.byte	0xc
 956 0591 08       		.uleb128 0x8
 957 0592 535200   		.ascii	"SR\000"
 958 0595 0A       		.byte	0xa
ARM GAS  C:\Users\jo\AppData\Local\Temp\ccvmBp0s.s 			page 18


 959 0596 A301     		.2byte	0x1a3
 960 0598 C8000000 		.4byte	0xc8
 961 059c 10       		.byte	0x10
 962 059d 08       		.uleb128 0x8
 963 059e 45475200 		.ascii	"EGR\000"
 964 05a2 0A       		.byte	0xa
 965 05a3 A401     		.2byte	0x1a4
 966 05a5 C8000000 		.4byte	0xc8
 967 05a9 14       		.byte	0x14
 968 05aa 09       		.uleb128 0x9
 969 05ab 3E010000 		.4byte	.LASF89
 970 05af 0A       		.byte	0xa
 971 05b0 A501     		.2byte	0x1a5
 972 05b2 C8000000 		.4byte	0xc8
 973 05b6 18       		.byte	0x18
 974 05b7 09       		.uleb128 0x9
 975 05b8 44010000 		.4byte	.LASF90
 976 05bc 0A       		.byte	0xa
 977 05bd A601     		.2byte	0x1a6
 978 05bf C8000000 		.4byte	0xc8
 979 05c3 1C       		.byte	0x1c
 980 05c4 09       		.uleb128 0x9
 981 05c5 97010000 		.4byte	.LASF91
 982 05c9 0A       		.byte	0xa
 983 05ca A701     		.2byte	0x1a7
 984 05cc C8000000 		.4byte	0xc8
 985 05d0 20       		.byte	0x20
 986 05d1 08       		.uleb128 0x8
 987 05d2 434E5400 		.ascii	"CNT\000"
 988 05d6 0A       		.byte	0xa
 989 05d7 A801     		.2byte	0x1a8
 990 05d9 C8000000 		.4byte	0xc8
 991 05dd 24       		.byte	0x24
 992 05de 08       		.uleb128 0x8
 993 05df 50534300 		.ascii	"PSC\000"
 994 05e3 0A       		.byte	0xa
 995 05e4 A901     		.2byte	0x1a9
 996 05e6 C8000000 		.4byte	0xc8
 997 05ea 28       		.byte	0x28
 998 05eb 08       		.uleb128 0x8
 999 05ec 41525200 		.ascii	"ARR\000"
 1000 05f0 0A       		.byte	0xa
 1001 05f1 AA01     		.2byte	0x1aa
 1002 05f3 C8000000 		.4byte	0xc8
 1003 05f7 2C       		.byte	0x2c
 1004 05f8 08       		.uleb128 0x8
 1005 05f9 52435200 		.ascii	"RCR\000"
 1006 05fd 0A       		.byte	0xa
 1007 05fe AB01     		.2byte	0x1ab
 1008 0600 C8000000 		.4byte	0xc8
 1009 0604 30       		.byte	0x30
 1010 0605 08       		.uleb128 0x8
 1011 0606 43435200 		.ascii	"CCR\000"
 1012 060a 0A       		.byte	0xa
 1013 060b AC01     		.2byte	0x1ac
 1014 060d 60060000 		.4byte	0x660
 1015 0611 34       		.byte	0x34
ARM GAS  C:\Users\jo\AppData\Local\Temp\ccvmBp0s.s 			page 19


 1016 0612 09       		.uleb128 0x9
 1017 0613 D3000000 		.4byte	.LASF92
 1018 0617 0A       		.byte	0xa
 1019 0618 AD01     		.2byte	0x1ad
 1020 061a C8000000 		.4byte	0xc8
 1021 061e 44       		.byte	0x44
 1022 061f 08       		.uleb128 0x8
 1023 0620 44435200 		.ascii	"DCR\000"
 1024 0624 0A       		.byte	0xa
 1025 0625 AE01     		.2byte	0x1ae
 1026 0627 C8000000 		.4byte	0xc8
 1027 062b 48       		.byte	0x48
 1028 062c 09       		.uleb128 0x9
 1029 062d A5050000 		.4byte	.LASF93
 1030 0631 0A       		.byte	0xa
 1031 0632 AF01     		.2byte	0x1af
 1032 0634 C8000000 		.4byte	0xc8
 1033 0638 4C       		.byte	0x4c
 1034 0639 08       		.uleb128 0x8
 1035 063a 4F5200   		.ascii	"OR\000"
 1036 063d 0A       		.byte	0xa
 1037 063e B001     		.2byte	0x1b0
 1038 0640 C8000000 		.4byte	0xc8
 1039 0644 50       		.byte	0x50
 1040 0645 09       		.uleb128 0x9
 1041 0646 4A010000 		.4byte	.LASF94
 1042 064a 0A       		.byte	0xa
 1043 064b B101     		.2byte	0x1b1
 1044 064d C8000000 		.4byte	0xc8
 1045 0651 54       		.byte	0x54
 1046 0652 09       		.uleb128 0x9
 1047 0653 41050000 		.4byte	.LASF95
 1048 0657 0A       		.byte	0xa
 1049 0658 B201     		.2byte	0x1b2
 1050 065a 65060000 		.4byte	0x665
 1051 065e 58       		.byte	0x58
 1052 065f 00       		.byte	0
 1053 0660 05       		.uleb128 0x5
 1054 0661 94040000 		.4byte	0x494
 1055 0665 05       		.uleb128 0x5
 1056 0666 84040000 		.4byte	0x484
 1057 066a 16       		.uleb128 0x16
 1058 066b AB020000 		.4byte	.LASF96
 1059 066f 0A       		.byte	0xa
 1060 0670 B301     		.2byte	0x1b3
 1061 0672 54050000 		.4byte	0x554
 1062 0676 17       		.uleb128 0x17
 1063 0677 10       		.byte	0x10
 1064 0678 0B       		.byte	0xb
 1065 0679 51       		.byte	0x51
 1066 067a AF060000 		.4byte	0x6af
 1067 067e 07       		.uleb128 0x7
 1068 067f 5C010000 		.4byte	.LASF97
 1069 0683 0B       		.byte	0xb
 1070 0684 55       		.byte	0x55
 1071 0685 25010000 		.4byte	0x125
 1072 0689 00       		.byte	0
ARM GAS  C:\Users\jo\AppData\Local\Temp\ccvmBp0s.s 			page 20


 1073 068a 07       		.uleb128 0x7
 1074 068b 9C010000 		.4byte	.LASF98
 1075 068f 0B       		.byte	0xb
 1076 0690 59       		.byte	0x59
 1077 0691 3F020000 		.4byte	0x23f
 1078 0695 04       		.byte	0x4
 1079 0696 07       		.uleb128 0x7
 1080 0697 C7060000 		.4byte	.LASF99
 1081 069b 0B       		.byte	0xb
 1082 069c 5D       		.byte	0x5d
 1083 069d 1C030000 		.4byte	0x31c
 1084 06a1 08       		.byte	0x8
 1085 06a2 07       		.uleb128 0x7
 1086 06a3 87000000 		.4byte	.LASF100
 1087 06a7 0B       		.byte	0xb
 1088 06a8 61       		.byte	0x61
 1089 06a9 97000000 		.4byte	0x97
 1090 06ad 0C       		.byte	0xc
 1091 06ae 00       		.byte	0
 1092 06af 04       		.uleb128 0x4
 1093 06b0 10040000 		.4byte	.LASF101
 1094 06b4 0B       		.byte	0xb
 1095 06b5 62       		.byte	0x62
 1096 06b6 76060000 		.4byte	0x676
 1097 06ba 18       		.uleb128 0x18
 1098 06bb 0804     		.2byte	0x408
 1099 06bd 0B       		.byte	0xb
 1100 06be 67       		.byte	0x67
 1101 06bf E8060000 		.4byte	0x6e8
 1102 06c3 07       		.uleb128 0x7
 1103 06c4 EA010000 		.4byte	.LASF102
 1104 06c8 0B       		.byte	0xb
 1105 06c9 6B       		.byte	0x6b
 1106 06ca 2C000000 		.4byte	0x2c
 1107 06ce 00       		.byte	0
 1108 06cf 07       		.uleb128 0x7
 1109 06d0 00000000 		.4byte	.LASF103
 1110 06d4 0B       		.byte	0xb
 1111 06d5 6F       		.byte	0x6f
 1112 06d6 E8060000 		.4byte	0x6e8
 1113 06da 04       		.byte	0x4
 1114 06db 07       		.uleb128 0x7
 1115 06dc 7B040000 		.4byte	.LASF104
 1116 06e0 0B       		.byte	0xb
 1117 06e1 73       		.byte	0x73
 1118 06e2 EE060000 		.4byte	0x6ee
 1119 06e6 08       		.byte	0x8
 1120 06e7 00       		.byte	0
 1121 06e8 0A       		.uleb128 0xa
 1122 06e9 04       		.byte	0x4
 1123 06ea AF060000 		.4byte	0x6af
 1124 06ee 12       		.uleb128 0x12
 1125 06ef AF060000 		.4byte	0x6af
 1126 06f3 FE060000 		.4byte	0x6fe
 1127 06f7 13       		.uleb128 0x13
 1128 06f8 7D040000 		.4byte	0x47d
 1129 06fc 3F       		.byte	0x3f
ARM GAS  C:\Users\jo\AppData\Local\Temp\ccvmBp0s.s 			page 21


 1130 06fd 00       		.byte	0
 1131 06fe 04       		.uleb128 0x4
 1132 06ff 75000000 		.4byte	.LASF105
 1133 0703 0B       		.byte	0xb
 1134 0704 74       		.byte	0x74
 1135 0705 BA060000 		.4byte	0x6ba
 1136 0709 17       		.uleb128 0x17
 1137 070a 04       		.byte	0x4
 1138 070b 0C       		.byte	0xc
 1139 070c 38       		.byte	0x38
 1140 070d 1E070000 		.4byte	0x71e
 1141 0711 07       		.uleb128 0x7
 1142 0712 ED050000 		.4byte	.LASF106
 1143 0716 0C       		.byte	0xc
 1144 0717 3C       		.byte	0x3c
 1145 0718 CD000000 		.4byte	0xcd
 1146 071c 00       		.byte	0
 1147 071d 00       		.byte	0
 1148 071e 04       		.uleb128 0x4
 1149 071f 40040000 		.4byte	.LASF107
 1150 0723 0C       		.byte	0xc
 1151 0724 3D       		.byte	0x3d
 1152 0725 09070000 		.4byte	0x709
 1153 0729 19       		.uleb128 0x19
 1154 072a 04       		.byte	0x4
 1155 072b 07       		.byte	0x7
 1156 072c FA       		.byte	0xfa
 1157 072d 86070000 		.4byte	0x786
 1158 0731 1A       		.uleb128 0x1a
 1159 0732 1F000000 		.4byte	.LASF108
 1160 0736 07       		.byte	0x7
 1161 0737 0101     		.2byte	0x101
 1162 0739 04010000 		.4byte	0x104
 1163 073d 1A       		.uleb128 0x1a
 1164 073e 90000000 		.4byte	.LASF109
 1165 0742 07       		.byte	0x7
 1166 0743 0801     		.2byte	0x108
 1167 0745 04010000 		.4byte	0x104
 1168 0749 1A       		.uleb128 0x1a
 1169 074a 74060000 		.4byte	.LASF110
 1170 074e 07       		.byte	0x7
 1171 074f 0F01     		.2byte	0x10f
 1172 0751 1C030000 		.4byte	0x31c
 1173 0755 1A       		.uleb128 0x1a
 1174 0756 19000000 		.4byte	.LASF111
 1175 075a 07       		.byte	0x7
 1176 075b 1601     		.2byte	0x116
 1177 075d 86070000 		.4byte	0x786
 1178 0761 1A       		.uleb128 0x1a
 1179 0762 59020000 		.4byte	.LASF112
 1180 0766 07       		.byte	0x7
 1181 0767 1E01     		.2byte	0x11e
 1182 0769 B1070000 		.4byte	0x7b1
 1183 076d 1A       		.uleb128 0x1a
 1184 076e 5A050000 		.4byte	.LASF113
 1185 0772 07       		.byte	0x7
 1186 0773 2701     		.2byte	0x127
ARM GAS  C:\Users\jo\AppData\Local\Temp\ccvmBp0s.s 			page 22


 1187 0775 E8070000 		.4byte	0x7e8
 1188 0779 1A       		.uleb128 0x1a
 1189 077a F3040000 		.4byte	.LASF114
 1190 077e 07       		.byte	0x7
 1191 077f 2F01     		.2byte	0x12f
 1192 0781 0F010000 		.4byte	0x10f
 1193 0785 00       		.byte	0
 1194 0786 0A       		.uleb128 0xa
 1195 0787 04       		.byte	0x4
 1196 0788 34020000 		.4byte	0x234
 1197 078c 06       		.uleb128 0x6
 1198 078d 34050000 		.4byte	.LASF115
 1199 0791 0C       		.byte	0xc
 1200 0792 0D       		.byte	0xd
 1201 0793 34       		.byte	0x34
 1202 0794 B1070000 		.4byte	0x7b1
 1203 0798 07       		.uleb128 0x7
 1204 0799 B8010000 		.4byte	.LASF116
 1205 079d 0D       		.byte	0xd
 1206 079e 35       		.byte	0x35
 1207 079f 69020000 		.4byte	0x269
 1208 07a3 00       		.byte	0
 1209 07a4 07       		.uleb128 0x7
 1210 07a5 84020000 		.4byte	.LASF117
 1211 07a9 0D       		.byte	0xd
 1212 07aa 37       		.byte	0x37
 1213 07ab 1A010000 		.4byte	0x11a
 1214 07af 08       		.byte	0x8
 1215 07b0 00       		.byte	0
 1216 07b1 0A       		.uleb128 0xa
 1217 07b2 04       		.byte	0x4
 1218 07b3 8C070000 		.4byte	0x78c
 1219 07b7 06       		.uleb128 0x6
 1220 07b8 40060000 		.4byte	.LASF118
 1221 07bc 10       		.byte	0x10
 1222 07bd 0E       		.byte	0xe
 1223 07be 39       		.byte	0x39
 1224 07bf E8070000 		.4byte	0x7e8
 1225 07c3 07       		.uleb128 0x7
 1226 07c4 64010000 		.4byte	.LASF119
 1227 07c8 0E       		.byte	0xe
 1228 07c9 3A       		.byte	0x3a
 1229 07ca 69020000 		.4byte	0x269
 1230 07ce 00       		.byte	0
 1231 07cf 07       		.uleb128 0x7
 1232 07d0 BF060000 		.4byte	.LASF120
 1233 07d4 0E       		.byte	0xe
 1234 07d5 3C       		.byte	0x3c
 1235 07d6 3F020000 		.4byte	0x23f
 1236 07da 08       		.byte	0x8
 1237 07db 07       		.uleb128 0x7
 1238 07dc B3050000 		.4byte	.LASF121
 1239 07e0 0E       		.byte	0xe
 1240 07e1 3E       		.byte	0x3e
 1241 07e2 2C080000 		.4byte	0x82c
 1242 07e6 0C       		.byte	0xc
 1243 07e7 00       		.byte	0
ARM GAS  C:\Users\jo\AppData\Local\Temp\ccvmBp0s.s 			page 23


 1244 07e8 0A       		.uleb128 0xa
 1245 07e9 04       		.byte	0x4
 1246 07ea B7070000 		.4byte	0x7b7
 1247 07ee 0A       		.uleb128 0xa
 1248 07ef 04       		.byte	0x4
 1249 07f0 F4070000 		.4byte	0x7f4
 1250 07f4 1B       		.uleb128 0x1b
 1251 07f5 F9070000 		.4byte	0x7f9
 1252 07f9 03       		.uleb128 0x3
 1253 07fa 01       		.byte	0x1
 1254 07fb 08       		.byte	0x8
 1255 07fc A0050000 		.4byte	.LASF122
 1256 0800 0A       		.uleb128 0xa
 1257 0801 04       		.byte	0x4
 1258 0802 AF040000 		.4byte	0x4af
 1259 0806 0A       		.uleb128 0xa
 1260 0807 04       		.byte	0x4
 1261 0808 1E030000 		.4byte	0x31e
 1262 080c 05       		.uleb128 0x5
 1263 080d EE070000 		.4byte	0x7ee
 1264 0811 12       		.uleb128 0x12
 1265 0812 AF040000 		.4byte	0x4af
 1266 0816 21080000 		.4byte	0x821
 1267 081a 13       		.uleb128 0x13
 1268 081b 7D040000 		.4byte	0x47d
 1269 081f 1B       		.byte	0x1b
 1270 0820 00       		.byte	0
 1271 0821 04       		.uleb128 0x4
 1272 0822 13020000 		.4byte	.LASF123
 1273 0826 0E       		.byte	0xe
 1274 0827 34       		.byte	0x34
 1275 0828 B7070000 		.4byte	0x7b7
 1276 082c 0A       		.uleb128 0xa
 1277 082d 04       		.byte	0x4
 1278 082e 21080000 		.4byte	0x821
 1279 0832 03       		.uleb128 0x3
 1280 0833 01       		.byte	0x1
 1281 0834 02       		.byte	0x2
 1282 0835 B4040000 		.4byte	.LASF124
 1283 0839 1C       		.uleb128 0x1c
 1284 083a D3010000 		.4byte	.LASF128
 1285 083e 02       		.byte	0x2
 1286 083f BF       		.byte	0xbf
 1287 0840 32080000 		.4byte	0x832
 1288 0844 03       		.byte	0x3
 1289 0845 1D       		.uleb128 0x1d
 1290 0846 DB020000 		.4byte	.LASF125
 1291 084a 02       		.byte	0x2
 1292 084b 8D       		.byte	0x8d
 1293 084c 03       		.byte	0x3
 1294 084d 5D080000 		.4byte	0x85d
 1295 0851 1E       		.uleb128 0x1e
 1296 0852 51040000 		.4byte	.LASF127
 1297 0856 02       		.byte	0x2
 1298 0857 8D       		.byte	0x8d
 1299 0858 25010000 		.4byte	0x125
 1300 085c 00       		.byte	0
ARM GAS  C:\Users\jo\AppData\Local\Temp\ccvmBp0s.s 			page 24


 1301 085d 1F       		.uleb128 0x1f
 1302 085e 17060000 		.4byte	.LASF140
 1303 0862 02       		.byte	0x2
 1304 0863 99       		.byte	0x99
 1305 0864 03       		.byte	0x3
 1306 0865 1D       		.uleb128 0x1d
 1307 0866 AE060000 		.4byte	.LASF126
 1308 086a 02       		.byte	0x2
 1309 086b A5       		.byte	0xa5
 1310 086c 03       		.byte	0x3
 1311 086d 7D080000 		.4byte	0x87d
 1312 0871 1E       		.uleb128 0x1e
 1313 0872 51040000 		.4byte	.LASF127
 1314 0876 02       		.byte	0x2
 1315 0877 A5       		.byte	0xa5
 1316 0878 25010000 		.4byte	0x125
 1317 087c 00       		.byte	0
 1318 087d 1C       		.uleb128 0x1c
 1319 087e 23050000 		.4byte	.LASF129
 1320 0882 02       		.byte	0x2
 1321 0883 B1       		.byte	0xb1
 1322 0884 25010000 		.4byte	0x125
 1323 0888 03       		.byte	0x3
 1324 0889 20       		.uleb128 0x20
 1325 088a 33040000 		.4byte	.LASF130
 1326 088e 01       		.byte	0x1
 1327 088f 3C       		.byte	0x3c
 1328 0890 00000000 		.4byte	.LFB259
 1329 0894 04000000 		.4byte	.LFE259-.LFB259
 1330 0898 01       		.uleb128 0x1
 1331 0899 9C       		.byte	0x9c
 1332 089a A8080000 		.4byte	0x8a8
 1333 089e 21       		.uleb128 0x21
 1334 089f 04000000 		.4byte	.LVL0
 1335 08a3 530A0000 		.4byte	0xa53
 1336 08a7 00       		.byte	0
 1337 08a8 20       		.uleb128 0x20
 1338 08a9 F4050000 		.4byte	.LASF131
 1339 08ad 01       		.byte	0x1
 1340 08ae 4D       		.byte	0x4d
 1341 08af 00000000 		.4byte	.LFB260
 1342 08b3 28000000 		.4byte	.LFE260-.LFB260
 1343 08b7 01       		.uleb128 0x1
 1344 08b8 9C       		.byte	0x9c
 1345 08b9 1B090000 		.4byte	0x91b
 1346 08bd 22       		.uleb128 0x22
 1347 08be 91060000 		.4byte	.LASF134
 1348 08c2 01       		.byte	0x1
 1349 08c3 4D       		.byte	0x4d
 1350 08c4 25010000 		.4byte	0x125
 1351 08c8 00000000 		.4byte	.LLST0
 1352 08cc 23       		.uleb128 0x23
 1353 08cd 09050000 		.4byte	.LASF135
 1354 08d1 2B090000 		.4byte	0x92b
 1355 08d5 05       		.uleb128 0x5
 1356 08d6 03       		.byte	0x3
 1357 08d7 00000000 		.4byte	__func__.7507
ARM GAS  C:\Users\jo\AppData\Local\Temp\ccvmBp0s.s 			page 25


 1358 08db 24       		.uleb128 0x24
 1359 08dc 39080000 		.4byte	0x839
 1360 08e0 00000000 		.4byte	.LBB16
 1361 08e4 00000000 		.4byte	.Ldebug_ranges0+0
 1362 08e8 01       		.byte	0x1
 1363 08e9 4F       		.byte	0x4f
 1364 08ea 25       		.uleb128 0x25
 1365 08eb 45080000 		.4byte	0x845
 1366 08ef 14000000 		.4byte	.LBB20
 1367 08f3 14000000 		.4byte	.LBE20-.LBB20
 1368 08f7 01       		.byte	0x1
 1369 08f8 51       		.byte	0x51
 1370 08f9 07090000 		.4byte	0x907
 1371 08fd 26       		.uleb128 0x26
 1372 08fe 51080000 		.4byte	0x851
 1373 0902 2C000000 		.4byte	.LLST1
 1374 0906 00       		.byte	0
 1375 0907 27       		.uleb128 0x27
 1376 0908 14000000 		.4byte	.LVL3
 1377 090c 5A0A0000 		.4byte	0xa5a
 1378 0910 28       		.uleb128 0x28
 1379 0911 01       		.uleb128 0x1
 1380 0912 50       		.byte	0x50
 1381 0913 05       		.uleb128 0x5
 1382 0914 03       		.byte	0x3
 1383 0915 00000000 		.4byte	.LANCHOR0
 1384 0919 00       		.byte	0
 1385 091a 00       		.byte	0
 1386 091b 12       		.uleb128 0x12
 1387 091c F9070000 		.4byte	0x7f9
 1388 0920 2B090000 		.4byte	0x92b
 1389 0924 13       		.uleb128 0x13
 1390 0925 7D040000 		.4byte	0x47d
 1391 0929 0C       		.byte	0xc
 1392 092a 00       		.byte	0
 1393 092b 1B       		.uleb128 0x1b
 1394 092c 1B090000 		.4byte	0x91b
 1395 0930 20       		.uleb128 0x20
 1396 0931 94050000 		.4byte	.LASF132
 1397 0935 01       		.byte	0x1
 1398 0936 5B       		.byte	0x5b
 1399 0937 00000000 		.4byte	.LFB261
 1400 093b 0A000000 		.4byte	.LFE261-.LFB261
 1401 093f 01       		.uleb128 0x1
 1402 0940 9C       		.byte	0x9c
 1403 0941 55090000 		.4byte	0x955
 1404 0945 29       		.uleb128 0x29
 1405 0946 5D080000 		.4byte	0x85d
 1406 094a 00000000 		.4byte	.LBB22
 1407 094e 0A000000 		.4byte	.LBE22-.LBB22
 1408 0952 01       		.byte	0x1
 1409 0953 5D       		.byte	0x5d
 1410 0954 00       		.byte	0
 1411 0955 20       		.uleb128 0x20
 1412 0956 5E060000 		.4byte	.LASF133
 1413 095a 01       		.byte	0x1
 1414 095b 69       		.byte	0x69
ARM GAS  C:\Users\jo\AppData\Local\Temp\ccvmBp0s.s 			page 26


 1415 095c 00000000 		.4byte	.LFB262
 1416 0960 20000000 		.4byte	.LFE262-.LFB262
 1417 0964 01       		.uleb128 0x1
 1418 0965 9C       		.byte	0x9c
 1419 0966 C8090000 		.4byte	0x9c8
 1420 096a 22       		.uleb128 0x22
 1421 096b 91060000 		.4byte	.LASF134
 1422 096f 01       		.byte	0x1
 1423 0970 69       		.byte	0x69
 1424 0971 25010000 		.4byte	0x125
 1425 0975 4D000000 		.4byte	.LLST2
 1426 0979 23       		.uleb128 0x23
 1427 097a 09050000 		.4byte	.LASF135
 1428 097e D8090000 		.4byte	0x9d8
 1429 0982 05       		.uleb128 0x5
 1430 0983 03       		.byte	0x3
 1431 0984 00000000 		.4byte	__func__.7514
 1432 0988 24       		.uleb128 0x24
 1433 0989 39080000 		.4byte	0x839
 1434 098d 00000000 		.4byte	.LBB24
 1435 0991 18000000 		.4byte	.Ldebug_ranges0+0x18
 1436 0995 01       		.byte	0x1
 1437 0996 6B       		.byte	0x6b
 1438 0997 25       		.uleb128 0x25
 1439 0998 65080000 		.4byte	0x865
 1440 099c 14000000 		.4byte	.LBB28
 1441 09a0 0C000000 		.4byte	.LBE28-.LBB28
 1442 09a4 01       		.byte	0x1
 1443 09a5 6D       		.byte	0x6d
 1444 09a6 B4090000 		.4byte	0x9b4
 1445 09aa 26       		.uleb128 0x26
 1446 09ab 71080000 		.4byte	0x871
 1447 09af 77000000 		.4byte	.LLST3
 1448 09b3 00       		.byte	0
 1449 09b4 27       		.uleb128 0x27
 1450 09b5 14000000 		.4byte	.LVL7
 1451 09b9 5A0A0000 		.4byte	0xa5a
 1452 09bd 28       		.uleb128 0x28
 1453 09be 01       		.uleb128 0x1
 1454 09bf 50       		.byte	0x50
 1455 09c0 05       		.uleb128 0x5
 1456 09c1 03       		.byte	0x3
 1457 09c2 00000000 		.4byte	.LANCHOR1
 1458 09c6 00       		.byte	0
 1459 09c7 00       		.byte	0
 1460 09c8 12       		.uleb128 0x12
 1461 09c9 F9070000 		.4byte	0x7f9
 1462 09cd D8090000 		.4byte	0x9d8
 1463 09d1 13       		.uleb128 0x13
 1464 09d2 7D040000 		.4byte	0x47d
 1465 09d6 0A       		.byte	0xa
 1466 09d7 00       		.byte	0
 1467 09d8 1B       		.uleb128 0x1b
 1468 09d9 C8090000 		.4byte	0x9c8
 1469 09dd 2A       		.uleb128 0x2a
 1470 09de 69060000 		.4byte	.LASF141
 1471 09e2 01       		.byte	0x1
ARM GAS  C:\Users\jo\AppData\Local\Temp\ccvmBp0s.s 			page 27


 1472 09e3 79       		.byte	0x79
 1473 09e4 25010000 		.4byte	0x125
 1474 09e8 00000000 		.4byte	.LFB263
 1475 09ec 20000000 		.4byte	.LFE263-.LFB263
 1476 09f0 01       		.uleb128 0x1
 1477 09f1 9C       		.byte	0x9c
 1478 09f2 370A0000 		.4byte	0xa37
 1479 09f6 23       		.uleb128 0x23
 1480 09f7 09050000 		.4byte	.LASF135
 1481 09fb 370A0000 		.4byte	0xa37
 1482 09ff 05       		.uleb128 0x5
 1483 0a00 03       		.byte	0x3
 1484 0a01 00000000 		.4byte	__func__.7518
 1485 0a05 29       		.uleb128 0x29
 1486 0a06 39080000 		.4byte	0x839
 1487 0a0a 02000000 		.4byte	.LBB30
 1488 0a0e 06000000 		.4byte	.LBE30-.LBB30
 1489 0a12 01       		.byte	0x1
 1490 0a13 7B       		.byte	0x7b
 1491 0a14 29       		.uleb128 0x29
 1492 0a15 7D080000 		.4byte	0x87d
 1493 0a19 12000000 		.4byte	.LBB32
 1494 0a1d 06000000 		.4byte	.LBE32-.LBB32
 1495 0a21 01       		.byte	0x1
 1496 0a22 7D       		.byte	0x7d
 1497 0a23 27       		.uleb128 0x27
 1498 0a24 12000000 		.4byte	.LVL9
 1499 0a28 5A0A0000 		.4byte	0xa5a
 1500 0a2c 28       		.uleb128 0x28
 1501 0a2d 01       		.uleb128 0x1
 1502 0a2e 50       		.byte	0x50
 1503 0a2f 05       		.uleb128 0x5
 1504 0a30 03       		.byte	0x3
 1505 0a31 00000000 		.4byte	.LANCHOR2
 1506 0a35 00       		.byte	0
 1507 0a36 00       		.byte	0
 1508 0a37 1B       		.uleb128 0x1b
 1509 0a38 C8090000 		.4byte	0x9c8
 1510 0a3c 2B       		.uleb128 0x2b
 1511 0a3d BA000000 		.4byte	.LASF136
 1512 0a41 0F       		.byte	0xf
 1513 0a42 A706     		.2byte	0x6a7
 1514 0a44 C3000000 		.4byte	0xc3
 1515 0a48 2C       		.uleb128 0x2c
 1516 0a49 636800   		.ascii	"ch\000"
 1517 0a4c 07       		.byte	0x7
 1518 0a4d 0902     		.2byte	0x209
 1519 0a4f 13040000 		.4byte	0x413
 1520 0a53 2D       		.uleb128 0x2d
 1521 0a54 C7000000 		.4byte	.LASF142
 1522 0a58 02       		.byte	0x2
 1523 0a59 6F       		.byte	0x6f
 1524 0a5a 2E       		.uleb128 0x2e
 1525 0a5b 54000000 		.4byte	.LASF143
 1526 0a5f 10       		.byte	0x10
 1527 0a60 1601     		.2byte	0x116
 1528 0a62 0D       		.uleb128 0xd
ARM GAS  C:\Users\jo\AppData\Local\Temp\ccvmBp0s.s 			page 28


 1529 0a63 EE070000 		.4byte	0x7ee
 1530 0a67 00       		.byte	0
 1531 0a68 00       		.byte	0
 1532              		.section	.debug_abbrev,"",%progbits
 1533              	.Ldebug_abbrev0:
 1534 0000 01       		.uleb128 0x1
 1535 0001 11       		.uleb128 0x11
 1536 0002 01       		.byte	0x1
 1537 0003 25       		.uleb128 0x25
 1538 0004 0E       		.uleb128 0xe
 1539 0005 13       		.uleb128 0x13
 1540 0006 0B       		.uleb128 0xb
 1541 0007 03       		.uleb128 0x3
 1542 0008 0E       		.uleb128 0xe
 1543 0009 1B       		.uleb128 0x1b
 1544 000a 0E       		.uleb128 0xe
 1545 000b 55       		.uleb128 0x55
 1546 000c 17       		.uleb128 0x17
 1547 000d 11       		.uleb128 0x11
 1548 000e 01       		.uleb128 0x1
 1549 000f 10       		.uleb128 0x10
 1550 0010 17       		.uleb128 0x17
 1551 0011 00       		.byte	0
 1552 0012 00       		.byte	0
 1553 0013 02       		.uleb128 0x2
 1554 0014 24       		.uleb128 0x24
 1555 0015 00       		.byte	0
 1556 0016 0B       		.uleb128 0xb
 1557 0017 0B       		.uleb128 0xb
 1558 0018 3E       		.uleb128 0x3e
 1559 0019 0B       		.uleb128 0xb
 1560 001a 03       		.uleb128 0x3
 1561 001b 08       		.uleb128 0x8
 1562 001c 00       		.byte	0
 1563 001d 00       		.byte	0
 1564 001e 03       		.uleb128 0x3
 1565 001f 24       		.uleb128 0x24
 1566 0020 00       		.byte	0
 1567 0021 0B       		.uleb128 0xb
 1568 0022 0B       		.uleb128 0xb
 1569 0023 3E       		.uleb128 0x3e
 1570 0024 0B       		.uleb128 0xb
 1571 0025 03       		.uleb128 0x3
 1572 0026 0E       		.uleb128 0xe
 1573 0027 00       		.byte	0
 1574 0028 00       		.byte	0
 1575 0029 04       		.uleb128 0x4
 1576 002a 16       		.uleb128 0x16
 1577 002b 00       		.byte	0
 1578 002c 03       		.uleb128 0x3
 1579 002d 0E       		.uleb128 0xe
 1580 002e 3A       		.uleb128 0x3a
 1581 002f 0B       		.uleb128 0xb
 1582 0030 3B       		.uleb128 0x3b
 1583 0031 0B       		.uleb128 0xb
 1584 0032 49       		.uleb128 0x49
 1585 0033 13       		.uleb128 0x13
ARM GAS  C:\Users\jo\AppData\Local\Temp\ccvmBp0s.s 			page 29


 1586 0034 00       		.byte	0
 1587 0035 00       		.byte	0
 1588 0036 05       		.uleb128 0x5
 1589 0037 35       		.uleb128 0x35
 1590 0038 00       		.byte	0
 1591 0039 49       		.uleb128 0x49
 1592 003a 13       		.uleb128 0x13
 1593 003b 00       		.byte	0
 1594 003c 00       		.byte	0
 1595 003d 06       		.uleb128 0x6
 1596 003e 13       		.uleb128 0x13
 1597 003f 01       		.byte	0x1
 1598 0040 03       		.uleb128 0x3
 1599 0041 0E       		.uleb128 0xe
 1600 0042 0B       		.uleb128 0xb
 1601 0043 0B       		.uleb128 0xb
 1602 0044 3A       		.uleb128 0x3a
 1603 0045 0B       		.uleb128 0xb
 1604 0046 3B       		.uleb128 0x3b
 1605 0047 0B       		.uleb128 0xb
 1606 0048 01       		.uleb128 0x1
 1607 0049 13       		.uleb128 0x13
 1608 004a 00       		.byte	0
 1609 004b 00       		.byte	0
 1610 004c 07       		.uleb128 0x7
 1611 004d 0D       		.uleb128 0xd
 1612 004e 00       		.byte	0
 1613 004f 03       		.uleb128 0x3
 1614 0050 0E       		.uleb128 0xe
 1615 0051 3A       		.uleb128 0x3a
 1616 0052 0B       		.uleb128 0xb
 1617 0053 3B       		.uleb128 0x3b
 1618 0054 0B       		.uleb128 0xb
 1619 0055 49       		.uleb128 0x49
 1620 0056 13       		.uleb128 0x13
 1621 0057 38       		.uleb128 0x38
 1622 0058 0B       		.uleb128 0xb
 1623 0059 00       		.byte	0
 1624 005a 00       		.byte	0
 1625 005b 08       		.uleb128 0x8
 1626 005c 0D       		.uleb128 0xd
 1627 005d 00       		.byte	0
 1628 005e 03       		.uleb128 0x3
 1629 005f 08       		.uleb128 0x8
 1630 0060 3A       		.uleb128 0x3a
 1631 0061 0B       		.uleb128 0xb
 1632 0062 3B       		.uleb128 0x3b
 1633 0063 05       		.uleb128 0x5
 1634 0064 49       		.uleb128 0x49
 1635 0065 13       		.uleb128 0x13
 1636 0066 38       		.uleb128 0x38
 1637 0067 0B       		.uleb128 0xb
 1638 0068 00       		.byte	0
 1639 0069 00       		.byte	0
 1640 006a 09       		.uleb128 0x9
 1641 006b 0D       		.uleb128 0xd
 1642 006c 00       		.byte	0
ARM GAS  C:\Users\jo\AppData\Local\Temp\ccvmBp0s.s 			page 30


 1643 006d 03       		.uleb128 0x3
 1644 006e 0E       		.uleb128 0xe
 1645 006f 3A       		.uleb128 0x3a
 1646 0070 0B       		.uleb128 0xb
 1647 0071 3B       		.uleb128 0x3b
 1648 0072 05       		.uleb128 0x5
 1649 0073 49       		.uleb128 0x49
 1650 0074 13       		.uleb128 0x13
 1651 0075 38       		.uleb128 0x38
 1652 0076 0B       		.uleb128 0xb
 1653 0077 00       		.byte	0
 1654 0078 00       		.byte	0
 1655 0079 0A       		.uleb128 0xa
 1656 007a 0F       		.uleb128 0xf
 1657 007b 00       		.byte	0
 1658 007c 0B       		.uleb128 0xb
 1659 007d 0B       		.uleb128 0xb
 1660 007e 49       		.uleb128 0x49
 1661 007f 13       		.uleb128 0x13
 1662 0080 00       		.byte	0
 1663 0081 00       		.byte	0
 1664 0082 0B       		.uleb128 0xb
 1665 0083 13       		.uleb128 0x13
 1666 0084 01       		.byte	0x1
 1667 0085 03       		.uleb128 0x3
 1668 0086 0E       		.uleb128 0xe
 1669 0087 0B       		.uleb128 0xb
 1670 0088 0B       		.uleb128 0xb
 1671 0089 3A       		.uleb128 0x3a
 1672 008a 0B       		.uleb128 0xb
 1673 008b 3B       		.uleb128 0x3b
 1674 008c 05       		.uleb128 0x5
 1675 008d 01       		.uleb128 0x1
 1676 008e 13       		.uleb128 0x13
 1677 008f 00       		.byte	0
 1678 0090 00       		.byte	0
 1679 0091 0C       		.uleb128 0xc
 1680 0092 15       		.uleb128 0x15
 1681 0093 01       		.byte	0x1
 1682 0094 27       		.uleb128 0x27
 1683 0095 19       		.uleb128 0x19
 1684 0096 01       		.uleb128 0x1
 1685 0097 13       		.uleb128 0x13
 1686 0098 00       		.byte	0
 1687 0099 00       		.byte	0
 1688 009a 0D       		.uleb128 0xd
 1689 009b 05       		.uleb128 0x5
 1690 009c 00       		.byte	0
 1691 009d 49       		.uleb128 0x49
 1692 009e 13       		.uleb128 0x13
 1693 009f 00       		.byte	0
 1694 00a0 00       		.byte	0
 1695 00a1 0E       		.uleb128 0xe
 1696 00a2 0F       		.uleb128 0xf
 1697 00a3 00       		.byte	0
 1698 00a4 0B       		.uleb128 0xb
 1699 00a5 0B       		.uleb128 0xb
ARM GAS  C:\Users\jo\AppData\Local\Temp\ccvmBp0s.s 			page 31


 1700 00a6 00       		.byte	0
 1701 00a7 00       		.byte	0
 1702 00a8 0F       		.uleb128 0xf
 1703 00a9 13       		.uleb128 0x13
 1704 00aa 01       		.byte	0x1
 1705 00ab 03       		.uleb128 0x3
 1706 00ac 0E       		.uleb128 0xe
 1707 00ad 0B       		.uleb128 0xb
 1708 00ae 05       		.uleb128 0x5
 1709 00af 3A       		.uleb128 0x3a
 1710 00b0 0B       		.uleb128 0xb
 1711 00b1 3B       		.uleb128 0x3b
 1712 00b2 05       		.uleb128 0x5
 1713 00b3 01       		.uleb128 0x1
 1714 00b4 13       		.uleb128 0x13
 1715 00b5 00       		.byte	0
 1716 00b6 00       		.byte	0
 1717 00b7 10       		.uleb128 0x10
 1718 00b8 0D       		.uleb128 0xd
 1719 00b9 00       		.byte	0
 1720 00ba 03       		.uleb128 0x3
 1721 00bb 0E       		.uleb128 0xe
 1722 00bc 3A       		.uleb128 0x3a
 1723 00bd 0B       		.uleb128 0xb
 1724 00be 3B       		.uleb128 0x3b
 1725 00bf 05       		.uleb128 0x5
 1726 00c0 49       		.uleb128 0x49
 1727 00c1 13       		.uleb128 0x13
 1728 00c2 38       		.uleb128 0x38
 1729 00c3 05       		.uleb128 0x5
 1730 00c4 00       		.byte	0
 1731 00c5 00       		.byte	0
 1732 00c6 11       		.uleb128 0x11
 1733 00c7 0D       		.uleb128 0xd
 1734 00c8 00       		.byte	0
 1735 00c9 03       		.uleb128 0x3
 1736 00ca 08       		.uleb128 0x8
 1737 00cb 3A       		.uleb128 0x3a
 1738 00cc 0B       		.uleb128 0xb
 1739 00cd 3B       		.uleb128 0x3b
 1740 00ce 05       		.uleb128 0x5
 1741 00cf 49       		.uleb128 0x49
 1742 00d0 13       		.uleb128 0x13
 1743 00d1 38       		.uleb128 0x38
 1744 00d2 05       		.uleb128 0x5
 1745 00d3 00       		.byte	0
 1746 00d4 00       		.byte	0
 1747 00d5 12       		.uleb128 0x12
 1748 00d6 01       		.uleb128 0x1
 1749 00d7 01       		.byte	0x1
 1750 00d8 49       		.uleb128 0x49
 1751 00d9 13       		.uleb128 0x13
 1752 00da 01       		.uleb128 0x1
 1753 00db 13       		.uleb128 0x13
 1754 00dc 00       		.byte	0
 1755 00dd 00       		.byte	0
 1756 00de 13       		.uleb128 0x13
ARM GAS  C:\Users\jo\AppData\Local\Temp\ccvmBp0s.s 			page 32


 1757 00df 21       		.uleb128 0x21
 1758 00e0 00       		.byte	0
 1759 00e1 49       		.uleb128 0x49
 1760 00e2 13       		.uleb128 0x13
 1761 00e3 2F       		.uleb128 0x2f
 1762 00e4 0B       		.uleb128 0xb
 1763 00e5 00       		.byte	0
 1764 00e6 00       		.byte	0
 1765 00e7 14       		.uleb128 0x14
 1766 00e8 0D       		.uleb128 0xd
 1767 00e9 00       		.byte	0
 1768 00ea 03       		.uleb128 0x3
 1769 00eb 08       		.uleb128 0x8
 1770 00ec 3A       		.uleb128 0x3a
 1771 00ed 0B       		.uleb128 0xb
 1772 00ee 3B       		.uleb128 0x3b
 1773 00ef 0B       		.uleb128 0xb
 1774 00f0 49       		.uleb128 0x49
 1775 00f1 13       		.uleb128 0x13
 1776 00f2 38       		.uleb128 0x38
 1777 00f3 0B       		.uleb128 0xb
 1778 00f4 00       		.byte	0
 1779 00f5 00       		.byte	0
 1780 00f6 15       		.uleb128 0x15
 1781 00f7 13       		.uleb128 0x13
 1782 00f8 01       		.byte	0x1
 1783 00f9 0B       		.uleb128 0xb
 1784 00fa 0B       		.uleb128 0xb
 1785 00fb 3A       		.uleb128 0x3a
 1786 00fc 0B       		.uleb128 0xb
 1787 00fd 3B       		.uleb128 0x3b
 1788 00fe 05       		.uleb128 0x5
 1789 00ff 01       		.uleb128 0x1
 1790 0100 13       		.uleb128 0x13
 1791 0101 00       		.byte	0
 1792 0102 00       		.byte	0
 1793 0103 16       		.uleb128 0x16
 1794 0104 16       		.uleb128 0x16
 1795 0105 00       		.byte	0
 1796 0106 03       		.uleb128 0x3
 1797 0107 0E       		.uleb128 0xe
 1798 0108 3A       		.uleb128 0x3a
 1799 0109 0B       		.uleb128 0xb
 1800 010a 3B       		.uleb128 0x3b
 1801 010b 05       		.uleb128 0x5
 1802 010c 49       		.uleb128 0x49
 1803 010d 13       		.uleb128 0x13
 1804 010e 00       		.byte	0
 1805 010f 00       		.byte	0
 1806 0110 17       		.uleb128 0x17
 1807 0111 13       		.uleb128 0x13
 1808 0112 01       		.byte	0x1
 1809 0113 0B       		.uleb128 0xb
 1810 0114 0B       		.uleb128 0xb
 1811 0115 3A       		.uleb128 0x3a
 1812 0116 0B       		.uleb128 0xb
 1813 0117 3B       		.uleb128 0x3b
ARM GAS  C:\Users\jo\AppData\Local\Temp\ccvmBp0s.s 			page 33


 1814 0118 0B       		.uleb128 0xb
 1815 0119 01       		.uleb128 0x1
 1816 011a 13       		.uleb128 0x13
 1817 011b 00       		.byte	0
 1818 011c 00       		.byte	0
 1819 011d 18       		.uleb128 0x18
 1820 011e 13       		.uleb128 0x13
 1821 011f 01       		.byte	0x1
 1822 0120 0B       		.uleb128 0xb
 1823 0121 05       		.uleb128 0x5
 1824 0122 3A       		.uleb128 0x3a
 1825 0123 0B       		.uleb128 0xb
 1826 0124 3B       		.uleb128 0x3b
 1827 0125 0B       		.uleb128 0xb
 1828 0126 01       		.uleb128 0x1
 1829 0127 13       		.uleb128 0x13
 1830 0128 00       		.byte	0
 1831 0129 00       		.byte	0
 1832 012a 19       		.uleb128 0x19
 1833 012b 17       		.uleb128 0x17
 1834 012c 01       		.byte	0x1
 1835 012d 0B       		.uleb128 0xb
 1836 012e 0B       		.uleb128 0xb
 1837 012f 3A       		.uleb128 0x3a
 1838 0130 0B       		.uleb128 0xb
 1839 0131 3B       		.uleb128 0x3b
 1840 0132 0B       		.uleb128 0xb
 1841 0133 01       		.uleb128 0x1
 1842 0134 13       		.uleb128 0x13
 1843 0135 00       		.byte	0
 1844 0136 00       		.byte	0
 1845 0137 1A       		.uleb128 0x1a
 1846 0138 0D       		.uleb128 0xd
 1847 0139 00       		.byte	0
 1848 013a 03       		.uleb128 0x3
 1849 013b 0E       		.uleb128 0xe
 1850 013c 3A       		.uleb128 0x3a
 1851 013d 0B       		.uleb128 0xb
 1852 013e 3B       		.uleb128 0x3b
 1853 013f 05       		.uleb128 0x5
 1854 0140 49       		.uleb128 0x49
 1855 0141 13       		.uleb128 0x13
 1856 0142 00       		.byte	0
 1857 0143 00       		.byte	0
 1858 0144 1B       		.uleb128 0x1b
 1859 0145 26       		.uleb128 0x26
 1860 0146 00       		.byte	0
 1861 0147 49       		.uleb128 0x49
 1862 0148 13       		.uleb128 0x13
 1863 0149 00       		.byte	0
 1864 014a 00       		.byte	0
 1865 014b 1C       		.uleb128 0x1c
 1866 014c 2E       		.uleb128 0x2e
 1867 014d 00       		.byte	0
 1868 014e 03       		.uleb128 0x3
 1869 014f 0E       		.uleb128 0xe
 1870 0150 3A       		.uleb128 0x3a
ARM GAS  C:\Users\jo\AppData\Local\Temp\ccvmBp0s.s 			page 34


 1871 0151 0B       		.uleb128 0xb
 1872 0152 3B       		.uleb128 0x3b
 1873 0153 0B       		.uleb128 0xb
 1874 0154 27       		.uleb128 0x27
 1875 0155 19       		.uleb128 0x19
 1876 0156 49       		.uleb128 0x49
 1877 0157 13       		.uleb128 0x13
 1878 0158 20       		.uleb128 0x20
 1879 0159 0B       		.uleb128 0xb
 1880 015a 00       		.byte	0
 1881 015b 00       		.byte	0
 1882 015c 1D       		.uleb128 0x1d
 1883 015d 2E       		.uleb128 0x2e
 1884 015e 01       		.byte	0x1
 1885 015f 03       		.uleb128 0x3
 1886 0160 0E       		.uleb128 0xe
 1887 0161 3A       		.uleb128 0x3a
 1888 0162 0B       		.uleb128 0xb
 1889 0163 3B       		.uleb128 0x3b
 1890 0164 0B       		.uleb128 0xb
 1891 0165 27       		.uleb128 0x27
 1892 0166 19       		.uleb128 0x19
 1893 0167 20       		.uleb128 0x20
 1894 0168 0B       		.uleb128 0xb
 1895 0169 01       		.uleb128 0x1
 1896 016a 13       		.uleb128 0x13
 1897 016b 00       		.byte	0
 1898 016c 00       		.byte	0
 1899 016d 1E       		.uleb128 0x1e
 1900 016e 05       		.uleb128 0x5
 1901 016f 00       		.byte	0
 1902 0170 03       		.uleb128 0x3
 1903 0171 0E       		.uleb128 0xe
 1904 0172 3A       		.uleb128 0x3a
 1905 0173 0B       		.uleb128 0xb
 1906 0174 3B       		.uleb128 0x3b
 1907 0175 0B       		.uleb128 0xb
 1908 0176 49       		.uleb128 0x49
 1909 0177 13       		.uleb128 0x13
 1910 0178 00       		.byte	0
 1911 0179 00       		.byte	0
 1912 017a 1F       		.uleb128 0x1f
 1913 017b 2E       		.uleb128 0x2e
 1914 017c 00       		.byte	0
 1915 017d 03       		.uleb128 0x3
 1916 017e 0E       		.uleb128 0xe
 1917 017f 3A       		.uleb128 0x3a
 1918 0180 0B       		.uleb128 0xb
 1919 0181 3B       		.uleb128 0x3b
 1920 0182 0B       		.uleb128 0xb
 1921 0183 27       		.uleb128 0x27
 1922 0184 19       		.uleb128 0x19
 1923 0185 20       		.uleb128 0x20
 1924 0186 0B       		.uleb128 0xb
 1925 0187 00       		.byte	0
 1926 0188 00       		.byte	0
 1927 0189 20       		.uleb128 0x20
ARM GAS  C:\Users\jo\AppData\Local\Temp\ccvmBp0s.s 			page 35


 1928 018a 2E       		.uleb128 0x2e
 1929 018b 01       		.byte	0x1
 1930 018c 3F       		.uleb128 0x3f
 1931 018d 19       		.uleb128 0x19
 1932 018e 03       		.uleb128 0x3
 1933 018f 0E       		.uleb128 0xe
 1934 0190 3A       		.uleb128 0x3a
 1935 0191 0B       		.uleb128 0xb
 1936 0192 3B       		.uleb128 0x3b
 1937 0193 0B       		.uleb128 0xb
 1938 0194 27       		.uleb128 0x27
 1939 0195 19       		.uleb128 0x19
 1940 0196 11       		.uleb128 0x11
 1941 0197 01       		.uleb128 0x1
 1942 0198 12       		.uleb128 0x12
 1943 0199 06       		.uleb128 0x6
 1944 019a 40       		.uleb128 0x40
 1945 019b 18       		.uleb128 0x18
 1946 019c 9742     		.uleb128 0x2117
 1947 019e 19       		.uleb128 0x19
 1948 019f 01       		.uleb128 0x1
 1949 01a0 13       		.uleb128 0x13
 1950 01a1 00       		.byte	0
 1951 01a2 00       		.byte	0
 1952 01a3 21       		.uleb128 0x21
 1953 01a4 898201   		.uleb128 0x4109
 1954 01a7 00       		.byte	0
 1955 01a8 11       		.uleb128 0x11
 1956 01a9 01       		.uleb128 0x1
 1957 01aa 9542     		.uleb128 0x2115
 1958 01ac 19       		.uleb128 0x19
 1959 01ad 31       		.uleb128 0x31
 1960 01ae 13       		.uleb128 0x13
 1961 01af 00       		.byte	0
 1962 01b0 00       		.byte	0
 1963 01b1 22       		.uleb128 0x22
 1964 01b2 05       		.uleb128 0x5
 1965 01b3 00       		.byte	0
 1966 01b4 03       		.uleb128 0x3
 1967 01b5 0E       		.uleb128 0xe
 1968 01b6 3A       		.uleb128 0x3a
 1969 01b7 0B       		.uleb128 0xb
 1970 01b8 3B       		.uleb128 0x3b
 1971 01b9 0B       		.uleb128 0xb
 1972 01ba 49       		.uleb128 0x49
 1973 01bb 13       		.uleb128 0x13
 1974 01bc 02       		.uleb128 0x2
 1975 01bd 17       		.uleb128 0x17
 1976 01be 00       		.byte	0
 1977 01bf 00       		.byte	0
 1978 01c0 23       		.uleb128 0x23
 1979 01c1 34       		.uleb128 0x34
 1980 01c2 00       		.byte	0
 1981 01c3 03       		.uleb128 0x3
 1982 01c4 0E       		.uleb128 0xe
 1983 01c5 49       		.uleb128 0x49
 1984 01c6 13       		.uleb128 0x13
ARM GAS  C:\Users\jo\AppData\Local\Temp\ccvmBp0s.s 			page 36


 1985 01c7 34       		.uleb128 0x34
 1986 01c8 19       		.uleb128 0x19
 1987 01c9 02       		.uleb128 0x2
 1988 01ca 18       		.uleb128 0x18
 1989 01cb 00       		.byte	0
 1990 01cc 00       		.byte	0
 1991 01cd 24       		.uleb128 0x24
 1992 01ce 1D       		.uleb128 0x1d
 1993 01cf 00       		.byte	0
 1994 01d0 31       		.uleb128 0x31
 1995 01d1 13       		.uleb128 0x13
 1996 01d2 52       		.uleb128 0x52
 1997 01d3 01       		.uleb128 0x1
 1998 01d4 55       		.uleb128 0x55
 1999 01d5 17       		.uleb128 0x17
 2000 01d6 58       		.uleb128 0x58
 2001 01d7 0B       		.uleb128 0xb
 2002 01d8 59       		.uleb128 0x59
 2003 01d9 0B       		.uleb128 0xb
 2004 01da 00       		.byte	0
 2005 01db 00       		.byte	0
 2006 01dc 25       		.uleb128 0x25
 2007 01dd 1D       		.uleb128 0x1d
 2008 01de 01       		.byte	0x1
 2009 01df 31       		.uleb128 0x31
 2010 01e0 13       		.uleb128 0x13
 2011 01e1 11       		.uleb128 0x11
 2012 01e2 01       		.uleb128 0x1
 2013 01e3 12       		.uleb128 0x12
 2014 01e4 06       		.uleb128 0x6
 2015 01e5 58       		.uleb128 0x58
 2016 01e6 0B       		.uleb128 0xb
 2017 01e7 59       		.uleb128 0x59
 2018 01e8 0B       		.uleb128 0xb
 2019 01e9 01       		.uleb128 0x1
 2020 01ea 13       		.uleb128 0x13
 2021 01eb 00       		.byte	0
 2022 01ec 00       		.byte	0
 2023 01ed 26       		.uleb128 0x26
 2024 01ee 05       		.uleb128 0x5
 2025 01ef 00       		.byte	0
 2026 01f0 31       		.uleb128 0x31
 2027 01f1 13       		.uleb128 0x13
 2028 01f2 02       		.uleb128 0x2
 2029 01f3 17       		.uleb128 0x17
 2030 01f4 00       		.byte	0
 2031 01f5 00       		.byte	0
 2032 01f6 27       		.uleb128 0x27
 2033 01f7 898201   		.uleb128 0x4109
 2034 01fa 01       		.byte	0x1
 2035 01fb 11       		.uleb128 0x11
 2036 01fc 01       		.uleb128 0x1
 2037 01fd 31       		.uleb128 0x31
 2038 01fe 13       		.uleb128 0x13
 2039 01ff 00       		.byte	0
 2040 0200 00       		.byte	0
 2041 0201 28       		.uleb128 0x28
ARM GAS  C:\Users\jo\AppData\Local\Temp\ccvmBp0s.s 			page 37


 2042 0202 8A8201   		.uleb128 0x410a
 2043 0205 00       		.byte	0
 2044 0206 02       		.uleb128 0x2
 2045 0207 18       		.uleb128 0x18
 2046 0208 9142     		.uleb128 0x2111
 2047 020a 18       		.uleb128 0x18
 2048 020b 00       		.byte	0
 2049 020c 00       		.byte	0
 2050 020d 29       		.uleb128 0x29
 2051 020e 1D       		.uleb128 0x1d
 2052 020f 00       		.byte	0
 2053 0210 31       		.uleb128 0x31
 2054 0211 13       		.uleb128 0x13
 2055 0212 11       		.uleb128 0x11
 2056 0213 01       		.uleb128 0x1
 2057 0214 12       		.uleb128 0x12
 2058 0215 06       		.uleb128 0x6
 2059 0216 58       		.uleb128 0x58
 2060 0217 0B       		.uleb128 0xb
 2061 0218 59       		.uleb128 0x59
 2062 0219 0B       		.uleb128 0xb
 2063 021a 00       		.byte	0
 2064 021b 00       		.byte	0
 2065 021c 2A       		.uleb128 0x2a
 2066 021d 2E       		.uleb128 0x2e
 2067 021e 01       		.byte	0x1
 2068 021f 3F       		.uleb128 0x3f
 2069 0220 19       		.uleb128 0x19
 2070 0221 03       		.uleb128 0x3
 2071 0222 0E       		.uleb128 0xe
 2072 0223 3A       		.uleb128 0x3a
 2073 0224 0B       		.uleb128 0xb
 2074 0225 3B       		.uleb128 0x3b
 2075 0226 0B       		.uleb128 0xb
 2076 0227 27       		.uleb128 0x27
 2077 0228 19       		.uleb128 0x19
 2078 0229 49       		.uleb128 0x49
 2079 022a 13       		.uleb128 0x13
 2080 022b 11       		.uleb128 0x11
 2081 022c 01       		.uleb128 0x1
 2082 022d 12       		.uleb128 0x12
 2083 022e 06       		.uleb128 0x6
 2084 022f 40       		.uleb128 0x40
 2085 0230 18       		.uleb128 0x18
 2086 0231 9742     		.uleb128 0x2117
 2087 0233 19       		.uleb128 0x19
 2088 0234 01       		.uleb128 0x1
 2089 0235 13       		.uleb128 0x13
 2090 0236 00       		.byte	0
 2091 0237 00       		.byte	0
 2092 0238 2B       		.uleb128 0x2b
 2093 0239 34       		.uleb128 0x34
 2094 023a 00       		.byte	0
 2095 023b 03       		.uleb128 0x3
 2096 023c 0E       		.uleb128 0xe
 2097 023d 3A       		.uleb128 0x3a
 2098 023e 0B       		.uleb128 0xb
ARM GAS  C:\Users\jo\AppData\Local\Temp\ccvmBp0s.s 			page 38


 2099 023f 3B       		.uleb128 0x3b
 2100 0240 05       		.uleb128 0x5
 2101 0241 49       		.uleb128 0x49
 2102 0242 13       		.uleb128 0x13
 2103 0243 3F       		.uleb128 0x3f
 2104 0244 19       		.uleb128 0x19
 2105 0245 3C       		.uleb128 0x3c
 2106 0246 19       		.uleb128 0x19
 2107 0247 00       		.byte	0
 2108 0248 00       		.byte	0
 2109 0249 2C       		.uleb128 0x2c
 2110 024a 34       		.uleb128 0x34
 2111 024b 00       		.byte	0
 2112 024c 03       		.uleb128 0x3
 2113 024d 08       		.uleb128 0x8
 2114 024e 3A       		.uleb128 0x3a
 2115 024f 0B       		.uleb128 0xb
 2116 0250 3B       		.uleb128 0x3b
 2117 0251 05       		.uleb128 0x5
 2118 0252 49       		.uleb128 0x49
 2119 0253 13       		.uleb128 0x13
 2120 0254 3F       		.uleb128 0x3f
 2121 0255 19       		.uleb128 0x19
 2122 0256 3C       		.uleb128 0x3c
 2123 0257 19       		.uleb128 0x19
 2124 0258 00       		.byte	0
 2125 0259 00       		.byte	0
 2126 025a 2D       		.uleb128 0x2d
 2127 025b 2E       		.uleb128 0x2e
 2128 025c 00       		.byte	0
 2129 025d 3F       		.uleb128 0x3f
 2130 025e 19       		.uleb128 0x19
 2131 025f 03       		.uleb128 0x3
 2132 0260 0E       		.uleb128 0xe
 2133 0261 3A       		.uleb128 0x3a
 2134 0262 0B       		.uleb128 0xb
 2135 0263 3B       		.uleb128 0x3b
 2136 0264 0B       		.uleb128 0xb
 2137 0265 27       		.uleb128 0x27
 2138 0266 19       		.uleb128 0x19
 2139 0267 3C       		.uleb128 0x3c
 2140 0268 19       		.uleb128 0x19
 2141 0269 00       		.byte	0
 2142 026a 00       		.byte	0
 2143 026b 2E       		.uleb128 0x2e
 2144 026c 2E       		.uleb128 0x2e
 2145 026d 01       		.byte	0x1
 2146 026e 3F       		.uleb128 0x3f
 2147 026f 19       		.uleb128 0x19
 2148 0270 03       		.uleb128 0x3
 2149 0271 0E       		.uleb128 0xe
 2150 0272 3A       		.uleb128 0x3a
 2151 0273 0B       		.uleb128 0xb
 2152 0274 3B       		.uleb128 0x3b
 2153 0275 05       		.uleb128 0x5
 2154 0276 27       		.uleb128 0x27
 2155 0277 19       		.uleb128 0x19
ARM GAS  C:\Users\jo\AppData\Local\Temp\ccvmBp0s.s 			page 39


 2156 0278 3C       		.uleb128 0x3c
 2157 0279 19       		.uleb128 0x19
 2158 027a 00       		.byte	0
 2159 027b 00       		.byte	0
 2160 027c 00       		.byte	0
 2161              		.section	.debug_loc,"",%progbits
 2162              	.Ldebug_loc0:
 2163              	.LLST0:
 2164 0000 00000000 		.4byte	.LVL1
 2165 0004 10000000 		.4byte	.LVL2
 2166 0008 0100     		.2byte	0x1
 2167 000a 50       		.byte	0x50
 2168 000b 10000000 		.4byte	.LVL2
 2169 000f 24000000 		.4byte	.LVL4
 2170 0013 0100     		.2byte	0x1
 2171 0015 54       		.byte	0x54
 2172 0016 24000000 		.4byte	.LVL4
 2173 001a 28000000 		.4byte	.LFE260
 2174 001e 0400     		.2byte	0x4
 2175 0020 F3       		.byte	0xf3
 2176 0021 01       		.uleb128 0x1
 2177 0022 50       		.byte	0x50
 2178 0023 9F       		.byte	0x9f
 2179 0024 00000000 		.4byte	0
 2180 0028 00000000 		.4byte	0
 2181              	.LLST1:
 2182 002c 14000000 		.4byte	.LVL3
 2183 0030 24000000 		.4byte	.LVL4
 2184 0034 0100     		.2byte	0x1
 2185 0036 54       		.byte	0x54
 2186 0037 24000000 		.4byte	.LVL4
 2187 003b 28000000 		.4byte	.LFE260
 2188 003f 0400     		.2byte	0x4
 2189 0041 F3       		.byte	0xf3
 2190 0042 01       		.uleb128 0x1
 2191 0043 50       		.byte	0x50
 2192 0044 9F       		.byte	0x9f
 2193 0045 00000000 		.4byte	0
 2194 0049 00000000 		.4byte	0
 2195              	.LLST2:
 2196 004d 00000000 		.4byte	.LVL5
 2197 0051 10000000 		.4byte	.LVL6
 2198 0055 0100     		.2byte	0x1
 2199 0057 50       		.byte	0x50
 2200 0058 10000000 		.4byte	.LVL6
 2201 005c 1C000000 		.4byte	.LVL8
 2202 0060 0100     		.2byte	0x1
 2203 0062 54       		.byte	0x54
 2204 0063 1C000000 		.4byte	.LVL8
 2205 0067 20000000 		.4byte	.LFE262
 2206 006b 0200     		.2byte	0x2
 2207 006d 73       		.byte	0x73
 2208 006e 34       		.sleb128 52
 2209 006f 00000000 		.4byte	0
 2210 0073 00000000 		.4byte	0
 2211              	.LLST3:
 2212 0077 14000000 		.4byte	.LVL7
ARM GAS  C:\Users\jo\AppData\Local\Temp\ccvmBp0s.s 			page 40


 2213 007b 1C000000 		.4byte	.LVL8
 2214 007f 0100     		.2byte	0x1
 2215 0081 54       		.byte	0x54
 2216 0082 1C000000 		.4byte	.LVL8
 2217 0086 20000000 		.4byte	.LFE262
 2218 008a 0200     		.2byte	0x2
 2219 008c 73       		.byte	0x73
 2220 008d 34       		.sleb128 52
 2221 008e 00000000 		.4byte	0
 2222 0092 00000000 		.4byte	0
 2223              		.section	.debug_aranges,"",%progbits
 2224 0000 3C000000 		.4byte	0x3c
 2225 0004 0200     		.2byte	0x2
 2226 0006 00000000 		.4byte	.Ldebug_info0
 2227 000a 04       		.byte	0x4
 2228 000b 00       		.byte	0
 2229 000c 0000     		.2byte	0
 2230 000e 0000     		.2byte	0
 2231 0010 00000000 		.4byte	.LFB259
 2232 0014 04000000 		.4byte	.LFE259-.LFB259
 2233 0018 00000000 		.4byte	.LFB260
 2234 001c 28000000 		.4byte	.LFE260-.LFB260
 2235 0020 00000000 		.4byte	.LFB261
 2236 0024 0A000000 		.4byte	.LFE261-.LFB261
 2237 0028 00000000 		.4byte	.LFB262
 2238 002c 20000000 		.4byte	.LFE262-.LFB262
 2239 0030 00000000 		.4byte	.LFB263
 2240 0034 20000000 		.4byte	.LFE263-.LFB263
 2241 0038 00000000 		.4byte	0
 2242 003c 00000000 		.4byte	0
 2243              		.section	.debug_ranges,"",%progbits
 2244              	.Ldebug_ranges0:
 2245 0000 00000000 		.4byte	.LBB16
 2246 0004 04000000 		.4byte	.LBE16
 2247 0008 06000000 		.4byte	.LBB19
 2248 000c 08000000 		.4byte	.LBE19
 2249 0010 00000000 		.4byte	0
 2250 0014 00000000 		.4byte	0
 2251 0018 00000000 		.4byte	.LBB24
 2252 001c 04000000 		.4byte	.LBE24
 2253 0020 06000000 		.4byte	.LBB27
 2254 0024 08000000 		.4byte	.LBE27
 2255 0028 00000000 		.4byte	0
 2256 002c 00000000 		.4byte	0
 2257 0030 00000000 		.4byte	.LFB259
 2258 0034 04000000 		.4byte	.LFE259
 2259 0038 00000000 		.4byte	.LFB260
 2260 003c 28000000 		.4byte	.LFE260
 2261 0040 00000000 		.4byte	.LFB261
 2262 0044 0A000000 		.4byte	.LFE261
 2263 0048 00000000 		.4byte	.LFB262
 2264 004c 20000000 		.4byte	.LFE262
 2265 0050 00000000 		.4byte	.LFB263
 2266 0054 20000000 		.4byte	.LFE263
 2267 0058 00000000 		.4byte	0
 2268 005c 00000000 		.4byte	0
 2269              		.section	.debug_line,"",%progbits
ARM GAS  C:\Users\jo\AppData\Local\Temp\ccvmBp0s.s 			page 41


 2270              	.Ldebug_line0:
 2271 0000 FB020000 		.section	.debug_str,"MS",%progbits,1
 2271      02003002 
 2271      00000201 
 2271      FB0E0D00 
 2271      01010101 
 2272              	.LASF103:
 2273 0000 74625F70 		.ascii	"tb_ptr\000"
 2273      747200
 2274              	.LASF51:
 2275 0007 72656164 		.ascii	"ready_list_t\000"
 2275      795F6C69 
 2275      73745F74 
 2275      00
 2276              	.LASF88:
 2277 0014 44494552 		.ascii	"DIER\000"
 2277      00
 2278              	.LASF111:
 2279 0019 77747472 		.ascii	"wttrp\000"
 2279      7000
 2280              	.LASF108:
 2281 001f 7264796D 		.ascii	"rdymsg\000"
 2281      736700
 2282              	.LASF16:
 2283 0026 75696E74 		.ascii	"uint64_t\000"
 2283      36345F74 
 2283      00
 2284              	.LASF5:
 2285 002f 5F5F7569 		.ascii	"__uint8_t\000"
 2285      6E74385F 
 2285      7400
 2286              	.LASF86:
 2287 0039 706F7274 		.ascii	"port_intctx\000"
 2287      5F696E74 
 2287      63747800 
 2288              	.LASF70:
 2289 0045 73797374 		.ascii	"system_debug_t\000"
 2289      656D5F64 
 2289      65627567 
 2289      5F7400
 2290              	.LASF143:
 2291 0054 63685379 		.ascii	"chSysHalt\000"
 2291      7348616C 
 2291      7400
 2292              	.LASF12:
 2293 005e 6C6F6E67 		.ascii	"long long unsigned int\000"
 2293      206C6F6E 
 2293      6720756E 
 2293      7369676E 
 2293      65642069 
 2294              	.LASF105:
 2295 0075 63685F74 		.ascii	"ch_trace_buffer_t\000"
 2295      72616365 
 2295      5F627566 
 2295      6665725F 
 2295      7400
 2296              	.LASF100:
ARM GAS  C:\Users\jo\AppData\Local\Temp\ccvmBp0s.s 			page 42


 2297 0087 73655F73 		.ascii	"se_state\000"
 2297      74617465 
 2297      00
 2298              	.LASF109:
 2299 0090 65786974 		.ascii	"exitcode\000"
 2299      636F6465 
 2299      00
 2300              	.LASF80:
 2301 0099 6D61696E 		.ascii	"mainthread\000"
 2301      74687265 
 2301      616400
 2302              	.LASF67:
 2303 00a4 76697274 		.ascii	"virtual_timers_list_t\000"
 2303      75616C5F 
 2303      74696D65 
 2303      72735F6C 
 2303      6973745F 
 2304              	.LASF136:
 2305 00ba 49544D5F 		.ascii	"ITM_RxBuffer\000"
 2305      52784275 
 2305      66666572 
 2305      00
 2306              	.LASF142:
 2307 00c7 73745F6C 		.ascii	"st_lld_init\000"
 2307      6C645F69 
 2307      6E697400 
 2308              	.LASF92:
 2309 00d3 42445452 		.ascii	"BDTR\000"
 2309      00
 2310              	.LASF50:
 2311 00d8 63685F74 		.ascii	"ch_threads_queue\000"
 2311      68726561 
 2311      64735F71 
 2311      75657565 
 2311      00
 2312              	.LASF29:
 2313 00e9 705F7072 		.ascii	"p_prio\000"
 2313      696F00
 2314              	.LASF139:
 2315 00f0 433A5C55 		.ascii	"C:\\Users\\jo\\Documents\\GitHub\\ChibiOS\\demos\\S"
 2315      73657273 
 2315      5C6A6F5C 
 2315      446F6375 
 2315      6D656E74 
 2316 011c 544D3332 		.ascii	"TM32\\RT-STM32F407-DISCOVERY-uHttp\000"
 2316      5C52542D 
 2316      53544D33 
 2316      32463430 
 2316      372D4449 
 2317              	.LASF89:
 2318 013e 43434D52 		.ascii	"CCMR1\000"
 2318      3100
 2319              	.LASF90:
 2320 0144 43434D52 		.ascii	"CCMR2\000"
 2320      3200
 2321              	.LASF94:
 2322 014a 43434D52 		.ascii	"CCMR3\000"
ARM GAS  C:\Users\jo\AppData\Local\Temp\ccvmBp0s.s 			page 43


 2322      3300
 2323              	.LASF1:
 2324 0150 7369676E 		.ascii	"signed char\000"
 2324      65642063 
 2324      68617200 
 2325              	.LASF97:
 2326 015c 73655F74 		.ascii	"se_time\000"
 2326      696D6500 
 2327              	.LASF119:
 2328 0164 6D5F7175 		.ascii	"m_queue\000"
 2328      65756500 
 2329              	.LASF79:
 2330 016c 76746C69 		.ascii	"vtlist\000"
 2330      737400
 2331              	.LASF77:
 2332 0173 63685F73 		.ascii	"ch_system\000"
 2332      79737465 
 2332      6D00
 2333              	.LASF7:
 2334 017d 6C6F6E67 		.ascii	"long int\000"
 2334      20696E74 
 2334      00
 2335              	.LASF18:
 2336 0186 746D6F64 		.ascii	"tmode_t\000"
 2336      655F7400 
 2337              	.LASF19:
 2338 018e 74737461 		.ascii	"tstate_t\000"
 2338      74655F74 
 2338      00
 2339              	.LASF91:
 2340 0197 43434552 		.ascii	"CCER\000"
 2340      00
 2341              	.LASF98:
 2342 019c 73655F74 		.ascii	"se_tp\000"
 2342      7000
 2343              	.LASF10:
 2344 01a2 6C6F6E67 		.ascii	"long long int\000"
 2344      206C6F6E 
 2344      6720696E 
 2344      7400
 2345              	.LASF31:
 2346 01b0 705F6E65 		.ascii	"p_newer\000"
 2346      77657200 
 2347              	.LASF116:
 2348 01b8 735F7175 		.ascii	"s_queue\000"
 2348      65756500 
 2349              	.LASF4:
 2350 01c0 73686F72 		.ascii	"short unsigned int\000"
 2350      7420756E 
 2350      7369676E 
 2350      65642069 
 2350      6E7400
 2351              	.LASF128:
 2352 01d3 73745F6C 		.ascii	"st_lld_is_alarm_active\000"
 2352      6C645F69 
 2352      735F616C 
 2352      61726D5F 
ARM GAS  C:\Users\jo\AppData\Local\Temp\ccvmBp0s.s 			page 44


 2352      61637469 
 2353              	.LASF102:
 2354 01ea 74625F73 		.ascii	"tb_size\000"
 2354      697A6500 
 2355              	.LASF56:
 2356 01f2 725F6E65 		.ascii	"r_newer\000"
 2356      77657200 
 2357              	.LASF44:
 2358 01fa 705F6D70 		.ascii	"p_mpool\000"
 2358      6F6F6C00 
 2359              	.LASF83:
 2360 0202 72656761 		.ascii	"regarm_t\000"
 2360      726D5F74 
 2360      00
 2361              	.LASF63:
 2362 020b 76745F70 		.ascii	"vt_prev\000"
 2362      72657600 
 2363              	.LASF123:
 2364 0213 6D757465 		.ascii	"mutex_t\000"
 2364      785F7400 
 2365              	.LASF74:
 2366 021b 6C6F636B 		.ascii	"lock_cnt\000"
 2366      5F636E74 
 2366      00
 2367              	.LASF81:
 2368 0224 69646C65 		.ascii	"idle_thread_wa\000"
 2368      5F746872 
 2368      6561645F 
 2368      776100
 2369              	.LASF24:
 2370 0233 636E745F 		.ascii	"cnt_t\000"
 2370      7400
 2371              	.LASF34:
 2372 0239 705F7374 		.ascii	"p_stklimit\000"
 2372      6B6C696D 
 2372      697400
 2373              	.LASF0:
 2374 0244 756E7369 		.ascii	"unsigned int\000"
 2374      676E6564 
 2374      20696E74 
 2374      00
 2375              	.LASF62:
 2376 0251 76745F6E 		.ascii	"vt_next\000"
 2376      65787400 
 2377              	.LASF112:
 2378 0259 77747365 		.ascii	"wtsemp\000"
 2378      6D7000
 2379              	.LASF138:
 2380 0260 2E2E2F2E 		.ascii	"../../../os/hal/src/st.c\000"
 2380      2E2F2E2E 
 2380      2F6F732F 
 2380      68616C2F 
 2380      7372632F 
 2381              	.LASF39:
 2382 0279 705F6D73 		.ascii	"p_msgqueue\000"
 2382      67717565 
 2382      756500
ARM GAS  C:\Users\jo\AppData\Local\Temp\ccvmBp0s.s 			page 45


 2383              	.LASF117:
 2384 0284 735F636E 		.ascii	"s_cnt\000"
 2384      7400
 2385              	.LASF87:
 2386 028a 534D4352 		.ascii	"SMCR\000"
 2386      00
 2387              	.LASF47:
 2388 028f 63685F74 		.ascii	"ch_thread\000"
 2388      68726561 
 2388      6400
 2389              	.LASF22:
 2390 0299 6D73675F 		.ascii	"msg_t\000"
 2390      7400
 2391              	.LASF76:
 2392 029f 63685F73 		.ascii	"ch_system_t\000"
 2392      79737465 
 2392      6D5F7400 
 2393              	.LASF96:
 2394 02ab 73746D33 		.ascii	"stm32_tim_t\000"
 2394      325F7469 
 2394      6D5F7400 
 2395              	.LASF52:
 2396 02b7 63685F72 		.ascii	"ch_ready_list\000"
 2396      65616479 
 2396      5F6C6973 
 2396      7400
 2397              	.LASF23:
 2398 02c5 6576656E 		.ascii	"eventmask_t\000"
 2398      746D6173 
 2398      6B5F7400 
 2399              	.LASF6:
 2400 02d1 5F5F696E 		.ascii	"__int32_t\000"
 2400      7433325F 
 2400      7400
 2401              	.LASF125:
 2402 02db 73745F6C 		.ascii	"st_lld_start_alarm\000"
 2402      6C645F73 
 2402      74617274 
 2402      5F616C61 
 2402      726D00
 2403              	.LASF84:
 2404 02ee 73746B61 		.ascii	"stkalign_t\000"
 2404      6C69676E 
 2404      5F7400
 2405              	.LASF137:
 2406 02f9 474E5520 		.ascii	"GNU C 4.9.3 20141119 (release) [ARM/embedded-4_9-br"
 2406      4320342E 
 2406      392E3320 
 2406      32303134 
 2406      31313139 
 2407 032c 616E6368 		.ascii	"anch revision 218278] -mcpu=cortex-m4 -mno-thumb-in"
 2407      20726576 
 2407      6973696F 
 2407      6E203231 
 2407      38323738 
 2408 035f 74657277 		.ascii	"terwork -mthumb -ggdb -O2 -fomit-frame-pointer -fal"
 2408      6F726B20 
ARM GAS  C:\Users\jo\AppData\Local\Temp\ccvmBp0s.s 			page 46


 2408      2D6D7468 
 2408      756D6220 
 2408      2D676764 
 2409 0392 69676E2D 		.ascii	"ign-functions=16 -ffunction-sections -fdata-section"
 2409      66756E63 
 2409      74696F6E 
 2409      733D3136 
 2409      202D6666 
 2410 03c5 73202D66 		.ascii	"s -fno-common\000"
 2410      6E6F2D63 
 2410      6F6D6D6F 
 2410      6E00
 2411              	.LASF38:
 2412 03d3 705F7761 		.ascii	"p_waiting\000"
 2412      6974696E 
 2412      6700
 2413              	.LASF82:
 2414 03dd 73697A65 		.ascii	"sizetype\000"
 2414      74797065 
 2414      00
 2415              	.LASF45:
 2416 03e6 74687265 		.ascii	"thread_reference_t\000"
 2416      61645F72 
 2416      65666572 
 2416      656E6365 
 2416      5F7400
 2417              	.LASF68:
 2418 03f9 63685F76 		.ascii	"ch_virtual_timers_list\000"
 2418      69727475 
 2418      616C5F74 
 2418      696D6572 
 2418      735F6C69 
 2419              	.LASF101:
 2420 0410 63685F73 		.ascii	"ch_swc_event_t\000"
 2420      77635F65 
 2420      76656E74 
 2420      5F7400
 2421              	.LASF69:
 2422 041f 76745F6C 		.ascii	"vt_lasttime\000"
 2422      61737474 
 2422      696D6500 
 2423              	.LASF32:
 2424 042b 705F6F6C 		.ascii	"p_older\000"
 2424      64657200 
 2425              	.LASF130:
 2426 0433 7374496E 		.ascii	"stInit\000"
 2426      697400
 2427              	.LASF55:
 2428 043a 725F6374 		.ascii	"r_ctx\000"
 2428      7800
 2429              	.LASF107:
 2430 0440 746D5F63 		.ascii	"tm_calibration_t\000"
 2430      616C6962 
 2430      72617469 
 2430      6F6E5F74 
 2430      00
 2431              	.LASF127:
ARM GAS  C:\Users\jo\AppData\Local\Temp\ccvmBp0s.s 			page 47


 2432 0451 74696D65 		.ascii	"time\000"
 2432      00
 2433              	.LASF58:
 2434 0456 725F6375 		.ascii	"r_current\000"
 2434      7272656E 
 2434      7400
 2435              	.LASF57:
 2436 0460 725F6F6C 		.ascii	"r_older\000"
 2436      64657200 
 2437              	.LASF11:
 2438 0468 5F5F7569 		.ascii	"__uint64_t\000"
 2438      6E743634 
 2438      5F7400
 2439              	.LASF20:
 2440 0473 74726566 		.ascii	"trefs_t\000"
 2440      735F7400 
 2441              	.LASF104:
 2442 047b 74625F62 		.ascii	"tb_buffer\000"
 2442      75666665 
 2442      7200
 2443              	.LASF60:
 2444 0485 76697274 		.ascii	"virtual_timer_t\000"
 2444      75616C5F 
 2444      74696D65 
 2444      725F7400 
 2445              	.LASF28:
 2446 0495 705F7072 		.ascii	"p_prev\000"
 2446      657600
 2447              	.LASF21:
 2448 049c 74707269 		.ascii	"tprio_t\000"
 2448      6F5F7400 
 2449              	.LASF71:
 2450 04a4 63685F73 		.ascii	"ch_system_debug\000"
 2450      79737465 
 2450      6D5F6465 
 2450      62756700 
 2451              	.LASF124:
 2452 04b4 5F426F6F 		.ascii	"_Bool\000"
 2452      6C00
 2453              	.LASF14:
 2454 04ba 696E7433 		.ascii	"int32_t\000"
 2454      325F7400 
 2455              	.LASF2:
 2456 04c2 756E7369 		.ascii	"unsigned char\000"
 2456      676E6564 
 2456      20636861 
 2456      7200
 2457              	.LASF42:
 2458 04d0 705F6D74 		.ascii	"p_mtxlist\000"
 2458      786C6973 
 2458      7400
 2459              	.LASF3:
 2460 04da 73686F72 		.ascii	"short int\000"
 2460      7420696E 
 2460      7400
 2461              	.LASF35:
 2462 04e4 705F7374 		.ascii	"p_state\000"
ARM GAS  C:\Users\jo\AppData\Local\Temp\ccvmBp0s.s 			page 48


 2462      61746500 
 2463              	.LASF54:
 2464 04ec 725F7072 		.ascii	"r_prio\000"
 2464      696F00
 2465              	.LASF114:
 2466 04f3 65776D61 		.ascii	"ewmask\000"
 2466      736B00
 2467              	.LASF27:
 2468 04fa 705F6E65 		.ascii	"p_next\000"
 2468      787400
 2469              	.LASF13:
 2470 0501 75696E74 		.ascii	"uint8_t\000"
 2470      385F7400 
 2471              	.LASF135:
 2472 0509 5F5F6675 		.ascii	"__func__\000"
 2472      6E635F5F 
 2472      00
 2473              	.LASF61:
 2474 0512 63685F76 		.ascii	"ch_virtual_timer\000"
 2474      69727475 
 2474      616C5F74 
 2474      696D6572 
 2474      00
 2475              	.LASF129:
 2476 0523 73745F6C 		.ascii	"st_lld_get_alarm\000"
 2476      6C645F67 
 2476      65745F61 
 2476      6C61726D 
 2476      00
 2477              	.LASF115:
 2478 0534 63685F73 		.ascii	"ch_semaphore\000"
 2478      656D6170 
 2478      686F7265 
 2478      00
 2479              	.LASF95:
 2480 0541 43435852 		.ascii	"CCXR\000"
 2480      00
 2481              	.LASF41:
 2482 0546 705F6570 		.ascii	"p_epending\000"
 2482      656E6469 
 2482      6E6700
 2483              	.LASF15:
 2484 0551 75696E74 		.ascii	"uint32_t\000"
 2484      33325F74 
 2484      00
 2485              	.LASF113:
 2486 055a 77746D74 		.ascii	"wtmtxp\000"
 2486      787000
 2487              	.LASF53:
 2488 0561 725F7175 		.ascii	"r_queue\000"
 2488      65756500 
 2489              	.LASF64:
 2490 0569 76745F64 		.ascii	"vt_delta\000"
 2490      656C7461 
 2490      00
 2491              	.LASF48:
 2492 0572 63685F74 		.ascii	"ch_threads_list\000"
ARM GAS  C:\Users\jo\AppData\Local\Temp\ccvmBp0s.s 			page 49


 2492      68726561 
 2492      64735F6C 
 2492      69737400 
 2493              	.LASF9:
 2494 0582 6C6F6E67 		.ascii	"long unsigned int\000"
 2494      20756E73 
 2494      69676E65 
 2494      6420696E 
 2494      7400
 2495              	.LASF132:
 2496 0594 73745374 		.ascii	"stStopAlarm\000"
 2496      6F70416C 
 2496      61726D00 
 2497              	.LASF122:
 2498 05a0 63686172 		.ascii	"char\000"
 2498      00
 2499              	.LASF93:
 2500 05a5 444D4152 		.ascii	"DMAR\000"
 2500      00
 2501              	.LASF26:
 2502 05aa 74687265 		.ascii	"thread_t\000"
 2502      61645F74 
 2502      00
 2503              	.LASF121:
 2504 05b3 6D5F6E65 		.ascii	"m_next\000"
 2504      787400
 2505              	.LASF25:
 2506 05ba 73797374 		.ascii	"systime_t\000"
 2506      696D655F 
 2506      7400
 2507              	.LASF43:
 2508 05c4 705F7265 		.ascii	"p_realprio\000"
 2508      616C7072 
 2508      696F00
 2509              	.LASF59:
 2510 05cf 76746675 		.ascii	"vtfunc_t\000"
 2510      6E635F74 
 2510      00
 2511              	.LASF8:
 2512 05d8 5F5F7569 		.ascii	"__uint32_t\000"
 2512      6E743332 
 2512      5F7400
 2513              	.LASF72:
 2514 05e3 70616E69 		.ascii	"panic_msg\000"
 2514      635F6D73 
 2514      6700
 2515              	.LASF106:
 2516 05ed 6F666673 		.ascii	"offset\000"
 2516      657400
 2517              	.LASF131:
 2518 05f4 73745374 		.ascii	"stStartAlarm\000"
 2518      61727441 
 2518      6C61726D 
 2518      00
 2519              	.LASF85:
 2520 0601 636F6E74 		.ascii	"context\000"
 2520      65787400 
ARM GAS  C:\Users\jo\AppData\Local\Temp\ccvmBp0s.s 			page 50


 2521              	.LASF40:
 2522 0609 705F6D73 		.ascii	"p_msg\000"
 2522      6700
 2523              	.LASF17:
 2524 060f 7274636E 		.ascii	"rtcnt_t\000"
 2524      745F7400 
 2525              	.LASF140:
 2526 0617 73745F6C 		.ascii	"st_lld_stop_alarm\000"
 2526      6C645F73 
 2526      746F705F 
 2526      616C6172 
 2526      6D00
 2527              	.LASF66:
 2528 0629 76745F70 		.ascii	"vt_par\000"
 2528      617200
 2529              	.LASF49:
 2530 0630 74687265 		.ascii	"threads_queue_t\000"
 2530      6164735F 
 2530      71756575 
 2530      655F7400 
 2531              	.LASF118:
 2532 0640 63685F6D 		.ascii	"ch_mutex\000"
 2532      75746578 
 2532      00
 2533              	.LASF37:
 2534 0649 705F7265 		.ascii	"p_refs\000"
 2534      667300
 2535              	.LASF73:
 2536 0650 6973725F 		.ascii	"isr_cnt\000"
 2536      636E7400 
 2537              	.LASF78:
 2538 0658 726C6973 		.ascii	"rlist\000"
 2538      7400
 2539              	.LASF133:
 2540 065e 73745365 		.ascii	"stSetAlarm\000"
 2540      74416C61 
 2540      726D00
 2541              	.LASF141:
 2542 0669 73744765 		.ascii	"stGetAlarm\000"
 2542      74416C61 
 2542      726D00
 2543              	.LASF110:
 2544 0674 77746F62 		.ascii	"wtobjp\000"
 2544      6A7000
 2545              	.LASF33:
 2546 067b 705F6E61 		.ascii	"p_name\000"
 2546      6D6500
 2547              	.LASF46:
 2548 0682 74687265 		.ascii	"threads_list_t\000"
 2548      6164735F 
 2548      6C697374 
 2548      5F7400
 2549              	.LASF134:
 2550 0691 61627374 		.ascii	"abstime\000"
 2550      696D6500 
 2551              	.LASF75:
 2552 0699 74726163 		.ascii	"trace_buffer\000"
ARM GAS  C:\Users\jo\AppData\Local\Temp\ccvmBp0s.s 			page 51


 2552      655F6275 
 2552      66666572 
 2552      00
 2553              	.LASF36:
 2554 06a6 705F666C 		.ascii	"p_flags\000"
 2554      61677300 
 2555              	.LASF126:
 2556 06ae 73745F6C 		.ascii	"st_lld_set_alarm\000"
 2556      6C645F73 
 2556      65745F61 
 2556      6C61726D 
 2556      00
 2557              	.LASF120:
 2558 06bf 6D5F6F77 		.ascii	"m_owner\000"
 2558      6E657200 
 2559              	.LASF99:
 2560 06c7 73655F77 		.ascii	"se_wtobjp\000"
 2560      746F626A 
 2560      7000
 2561              	.LASF30:
 2562 06d1 705F6374 		.ascii	"p_ctx\000"
 2562      7800
 2563              	.LASF65:
 2564 06d7 76745F66 		.ascii	"vt_func\000"
 2564      756E6300 
 2565              		.ident	"GCC: (GNU Tools for ARM Embedded Processors) 4.9.3 20141119 (release) [ARM/embedded-4_9-br
ARM GAS  C:\Users\jo\AppData\Local\Temp\ccvmBp0s.s 			page 52


DEFINED SYMBOLS
                            *ABS*:00000000 st.c
C:\Users\jo\AppData\Local\Temp\ccvmBp0s.s:19     .text.stInit:00000000 $t
C:\Users\jo\AppData\Local\Temp\ccvmBp0s.s:25     .text.stInit:00000000 stInit
C:\Users\jo\AppData\Local\Temp\ccvmBp0s.s:40     .text.stStartAlarm:00000000 $t
C:\Users\jo\AppData\Local\Temp\ccvmBp0s.s:46     .text.stStartAlarm:00000000 stStartAlarm
C:\Users\jo\AppData\Local\Temp\ccvmBp0s.s:102    .text.stStartAlarm:00000024 $d
C:\Users\jo\AppData\Local\Temp\ccvmBp0s.s:109    .text.stStopAlarm:00000000 $t
C:\Users\jo\AppData\Local\Temp\ccvmBp0s.s:115    .text.stStopAlarm:00000000 stStopAlarm
C:\Users\jo\AppData\Local\Temp\ccvmBp0s.s:135    .text.stSetAlarm:00000000 $t
C:\Users\jo\AppData\Local\Temp\ccvmBp0s.s:141    .text.stSetAlarm:00000000 stSetAlarm
C:\Users\jo\AppData\Local\Temp\ccvmBp0s.s:187    .text.stSetAlarm:0000001c $d
C:\Users\jo\AppData\Local\Temp\ccvmBp0s.s:194    .text.stGetAlarm:00000000 $t
C:\Users\jo\AppData\Local\Temp\ccvmBp0s.s:200    .text.stGetAlarm:00000000 stGetAlarm
C:\Users\jo\AppData\Local\Temp\ccvmBp0s.s:237    .text.stGetAlarm:0000001c $d
C:\Users\jo\AppData\Local\Temp\ccvmBp0s.s:242    .rodata.__func__.7507:00000000 $d
C:\Users\jo\AppData\Local\Temp\ccvmBp0s.s:246    .rodata.__func__.7507:00000000 __func__.7507
C:\Users\jo\AppData\Local\Temp\ccvmBp0s.s:249    .rodata.__func__.7514:00000000 $d
C:\Users\jo\AppData\Local\Temp\ccvmBp0s.s:253    .rodata.__func__.7514:00000000 __func__.7514
C:\Users\jo\AppData\Local\Temp\ccvmBp0s.s:256    .rodata.__func__.7518:00000000 $d
C:\Users\jo\AppData\Local\Temp\ccvmBp0s.s:260    .rodata.__func__.7518:00000000 __func__.7518
                     .debug_frame:00000010 $d
C:\Users\jo\AppData\Local\Temp\ccvmBp0s.s:108    .text.stStartAlarm:00000028 $t

UNDEFINED SYMBOLS
st_lld_init
chSysHalt
