ARM GAS  C:\Users\jo\AppData\Local\Temp\ccs3alFi.s 			page 1


   1              		.syntax unified
   2              		.cpu cortex-m4
   3              		.fpu softvfp
   4              		.eabi_attribute 20, 1
   5              		.eabi_attribute 21, 1
   6              		.eabi_attribute 23, 3
   7              		.eabi_attribute 24, 1
   8              		.eabi_attribute 25, 1
   9              		.eabi_attribute 26, 1
  10              		.eabi_attribute 30, 2
  11              		.eabi_attribute 34, 1
  12              		.eabi_attribute 18, 4
  13              		.thumb
  14              		.file	"stats.c"
  15              		.text
  16              	.Ltext0:
  17              		.cfi_sections	.debug_frame
  18              		.section	.text.chprintf.constprop.0,"ax",%progbits
  19              		.align	2
  20              		.p2align 4,,15
  21              		.thumb
  22              		.thumb_func
  23              		.type	chprintf.constprop.0, %function
  24              	chprintf.constprop.0:
  25              	.LFB266:
  26              		.file 1 "../../../os/hal/lib/streams/chprintf.h"
  27              		.loc 1 69 0
  28              		.cfi_startproc
  29              		@ args = 4, pretend = 12, frame = 8
  30              		@ frame_needed = 0, uses_anonymous_args = 1
  31              	.LVL0:
  32 0000 0EB4     		push	{r1, r2, r3}
  33              		.cfi_def_cfa_offset 12
  34              		.cfi_offset 1, -12
  35              		.cfi_offset 2, -8
  36              		.cfi_offset 3, -4
  37 0002 00B5     		push	{lr}
  38              		.cfi_def_cfa_offset 16
  39              		.cfi_offset 14, -16
  40 0004 82B0     		sub	sp, sp, #8
  41              		.cfi_def_cfa_offset 24
  42              		.loc 1 69 0
  43 0006 03AA     		add	r2, sp, #12
  44              		.loc 1 74 0
  45 0008 0548     		ldr	r0, .L3
  46              	.LVL1:
  47              		.loc 1 69 0
  48 000a 52F8041B 		ldr	r1, [r2], #4
  49              		.loc 1 73 0
  50 000e 0192     		str	r2, [sp, #4]
  51              		.loc 1 74 0
  52 0010 FFF7FEFF 		bl	chvprintf
  53              	.LVL2:
  54              		.loc 1 78 0
  55 0014 02B0     		add	sp, sp, #8
  56              		.cfi_def_cfa_offset 16
  57              		@ sp needed
ARM GAS  C:\Users\jo\AppData\Local\Temp\ccs3alFi.s 			page 2


  58 0016 5DF804EB 		ldr	lr, [sp], #4
  59              		.cfi_restore 14
  60              		.cfi_def_cfa_offset 12
  61 001a 03B0     		add	sp, sp, #12
  62              		.cfi_restore 3
  63              		.cfi_restore 2
  64              		.cfi_restore 1
  65              		.cfi_def_cfa_offset 0
  66 001c 7047     		bx	lr
  67              	.L4:
  68 001e 00BF     		.align	2
  69              	.L3:
  70 0020 00000000 		.word	itm_port
  71              		.cfi_endproc
  72              	.LFE266:
  73              		.size	chprintf.constprop.0, .-chprintf.constprop.0
  74 0024 AFF30080 		.section	.text.stats_init,"ax",%progbits
  74      AFF30080 
  74      AFF30080 
  75              		.align	2
  76              		.p2align 4,,15
  77              		.global	stats_init
  78              		.thumb
  79              		.thumb_func
  80              		.type	stats_init, %function
  81              	stats_init:
  82              	.LFB260:
  83              		.file 2 "../../../ext/lwip/src/core/stats.c"
  84              		.loc 2 52 0
  85              		.cfi_startproc
  86              		@ args = 0, pretend = 0, frame = 56
  87              		@ frame_needed = 0, uses_anonymous_args = 0
  88              		@ link register save eliminated.
  89 0000 70B4     		push	{r4, r5, r6}
  90              		.cfi_def_cfa_offset 12
  91              		.cfi_offset 4, -12
  92              		.cfi_offset 5, -8
  93              		.cfi_offset 6, -4
  94              		.loc 2 55 0
  95 0002 0E4D     		ldr	r5, .L10
  96 0004 0E4E     		ldr	r6, .L10+4
  97 0006 0FCD     		ldmia	r5!, {r0, r1, r2, r3}
  98              		.loc 2 52 0
  99 0008 8FB0     		sub	sp, sp, #60
 100              		.cfi_def_cfa_offset 72
 101              		.loc 2 55 0
 102 000a 01AC     		add	r4, sp, #4
 103 000c 0FC4     		stmia	r4!, {r0, r1, r2, r3}
 104 000e 0FCD     		ldmia	r5!, {r0, r1, r2, r3}
 105 0010 0FC4     		stmia	r4!, {r0, r1, r2, r3}
 106 0012 0FCD     		ldmia	r5!, {r0, r1, r2, r3}
 107 0014 0FC4     		stmia	r4!, {r0, r1, r2, r3}
 108 0016 2B68     		ldr	r3, [r5]
 109 0018 2360     		str	r3, [r4]
 110              	.LVL3:
 111 001a 06F58270 		add	r0, r6, #260
 112 001e 3346     		mov	r3, r6
ARM GAS  C:\Users\jo\AppData\Local\Temp\ccs3alFi.s 			page 3


 113 0020 01AA     		add	r2, sp, #4
 114              	.LVL4:
 115              	.L6:
 116              		.loc 2 61 0 discriminator 3
 117 0022 52F8041B 		ldr	r1, [r2], #4
 118 0026 C3F8BC10 		str	r1, [r3, #188]
 119 002a 1433     		adds	r3, r3, #20
 120              		.loc 2 60 0 discriminator 3
 121 002c 8342     		cmp	r3, r0
 122 002e F8D1     		bne	.L6
 123              		.loc 2 65 0
 124 0030 044B     		ldr	r3, .L10+8
 125 0032 C6F8A830 		str	r3, [r6, #168]
 126              		.loc 2 68 0
 127 0036 0FB0     		add	sp, sp, #60
 128              		.cfi_def_cfa_offset 12
 129              		@ sp needed
 130 0038 70BC     		pop	{r4, r5, r6}
 131              		.cfi_restore 6
 132              		.cfi_restore 5
 133              		.cfi_restore 4
 134              		.cfi_def_cfa_offset 0
 135 003a 7047     		bx	lr
 136              	.L11:
 137              		.align	2
 138              	.L10:
 139 003c 00000000 		.word	.LANCHOR0
 140 0040 00000000 		.word	.LANCHOR1
 141 0044 00000000 		.word	.LC16
 142              		.cfi_endproc
 143              	.LFE260:
 144              		.size	stats_init, .-stats_init
 145 0048 AFF30080 		.section	.text.stats_display_proto,"ax",%progbits
 145      AFF30080 
 146              		.align	2
 147              		.p2align 4,,15
 148              		.global	stats_display_proto
 149              		.thumb
 150              		.thumb_func
 151              		.type	stats_display_proto, %function
 152              	stats_display_proto:
 153              	.LFB261:
 154              		.loc 2 73 0
 155              		.cfi_startproc
 156              		@ args = 0, pretend = 0, frame = 0
 157              		@ frame_needed = 0, uses_anonymous_args = 0
 158              	.LVL5:
 159 0000 38B5     		push	{r3, r4, r5, lr}
 160              		.cfi_def_cfa_offset 16
 161              		.cfi_offset 3, -16
 162              		.cfi_offset 4, -12
 163              		.cfi_offset 5, -8
 164              		.cfi_offset 14, -4
 165              		.loc 2 74 0
 166 0002 224C     		ldr	r4, .L14
 167              		.loc 2 73 0
 168 0004 0546     		mov	r5, r0
ARM GAS  C:\Users\jo\AppData\Local\Temp\ccs3alFi.s 			page 4


 169 0006 0A46     		mov	r2, r1
 170              		.loc 2 74 0
 171 0008 2046     		mov	r0, r4
 172              	.LVL6:
 173 000a 2149     		ldr	r1, .L14+4
 174              	.LVL7:
 175 000c FFF7FEFF 		bl	chprintf.constprop.0
 176              	.LVL8:
 177              		.loc 2 75 0
 178 0010 2A88     		ldrh	r2, [r5]
 179 0012 2049     		ldr	r1, .L14+8
 180 0014 2046     		mov	r0, r4
 181 0016 FFF7FEFF 		bl	chprintf.constprop.0
 182              	.LVL9:
 183              		.loc 2 76 0
 184 001a 6A88     		ldrh	r2, [r5, #2]
 185 001c 1E49     		ldr	r1, .L14+12
 186 001e 2046     		mov	r0, r4
 187 0020 FFF7FEFF 		bl	chprintf.constprop.0
 188              	.LVL10:
 189              		.loc 2 77 0
 190 0024 AA88     		ldrh	r2, [r5, #4]
 191 0026 1D49     		ldr	r1, .L14+16
 192 0028 2046     		mov	r0, r4
 193 002a FFF7FEFF 		bl	chprintf.constprop.0
 194              	.LVL11:
 195              		.loc 2 78 0
 196 002e EA88     		ldrh	r2, [r5, #6]
 197 0030 1B49     		ldr	r1, .L14+20
 198 0032 2046     		mov	r0, r4
 199 0034 FFF7FEFF 		bl	chprintf.constprop.0
 200              	.LVL12:
 201              		.loc 2 79 0
 202 0038 2A89     		ldrh	r2, [r5, #8]
 203 003a 1A49     		ldr	r1, .L14+24
 204 003c 2046     		mov	r0, r4
 205 003e FFF7FEFF 		bl	chprintf.constprop.0
 206              	.LVL13:
 207              		.loc 2 80 0
 208 0042 6A89     		ldrh	r2, [r5, #10]
 209 0044 1849     		ldr	r1, .L14+28
 210 0046 2046     		mov	r0, r4
 211 0048 FFF7FEFF 		bl	chprintf.constprop.0
 212              	.LVL14:
 213              		.loc 2 81 0
 214 004c AA89     		ldrh	r2, [r5, #12]
 215 004e 1749     		ldr	r1, .L14+32
 216 0050 2046     		mov	r0, r4
 217 0052 FFF7FEFF 		bl	chprintf.constprop.0
 218              	.LVL15:
 219              		.loc 2 82 0
 220 0056 EA89     		ldrh	r2, [r5, #14]
 221 0058 1549     		ldr	r1, .L14+36
 222 005a 2046     		mov	r0, r4
 223 005c FFF7FEFF 		bl	chprintf.constprop.0
 224              	.LVL16:
 225              		.loc 2 83 0
ARM GAS  C:\Users\jo\AppData\Local\Temp\ccs3alFi.s 			page 5


 226 0060 2A8A     		ldrh	r2, [r5, #16]
 227 0062 1449     		ldr	r1, .L14+40
 228 0064 2046     		mov	r0, r4
 229 0066 FFF7FEFF 		bl	chprintf.constprop.0
 230              	.LVL17:
 231              		.loc 2 84 0
 232 006a 6A8A     		ldrh	r2, [r5, #18]
 233 006c 1249     		ldr	r1, .L14+44
 234 006e 2046     		mov	r0, r4
 235 0070 FFF7FEFF 		bl	chprintf.constprop.0
 236              	.LVL18:
 237              		.loc 2 85 0
 238 0074 AA8A     		ldrh	r2, [r5, #20]
 239 0076 1149     		ldr	r1, .L14+48
 240 0078 2046     		mov	r0, r4
 241 007a FFF7FEFF 		bl	chprintf.constprop.0
 242              	.LVL19:
 243              		.loc 2 86 0
 244 007e 2046     		mov	r0, r4
 245 0080 EA8A     		ldrh	r2, [r5, #22]
 246 0082 0F49     		ldr	r1, .L14+52
 247              		.loc 2 87 0
 248 0084 BDE83840 		pop	{r3, r4, r5, lr}
 249              		.cfi_restore 14
 250              		.cfi_restore 5
 251              		.cfi_restore 4
 252              		.cfi_restore 3
 253              		.cfi_def_cfa_offset 0
 254              	.LVL20:
 255              		.loc 2 86 0
 256 0088 FFF7FEBF 		b	chprintf.constprop.0
 257              	.LVL21:
 258              	.L15:
 259              		.align	2
 260              	.L14:
 261 008c 00000000 		.word	itm_port
 262 0090 04000000 		.word	.LC17
 263 0094 0C000000 		.word	.LC18
 264 0098 18000000 		.word	.LC19
 265 009c 24000000 		.word	.LC20
 266 00a0 30000000 		.word	.LC21
 267 00a4 3C000000 		.word	.LC22
 268 00a8 4C000000 		.word	.LC23
 269 00ac 5C000000 		.word	.LC24
 270 00b0 6C000000 		.word	.LC25
 271 00b4 78000000 		.word	.LC26
 272 00b8 88000000 		.word	.LC27
 273 00bc 98000000 		.word	.LC28
 274 00c0 A4000000 		.word	.LC29
 275              		.cfi_endproc
 276              	.LFE261:
 277              		.size	stats_display_proto, .-stats_display_proto
 278 00c4 AFF30080 		.section	.text.stats_display_mem,"ax",%progbits
 278      AFF30080 
 278      AFF30080 
 279              		.align	2
 280              		.p2align 4,,15
ARM GAS  C:\Users\jo\AppData\Local\Temp\ccs3alFi.s 			page 6


 281              		.global	stats_display_mem
 282              		.thumb
 283              		.thumb_func
 284              		.type	stats_display_mem, %function
 285              	stats_display_mem:
 286              	.LFB262:
 287              		.loc 2 114 0
 288              		.cfi_startproc
 289              		@ args = 0, pretend = 0, frame = 0
 290              		@ frame_needed = 0, uses_anonymous_args = 0
 291              	.LVL22:
 292 0000 38B5     		push	{r3, r4, r5, lr}
 293              		.cfi_def_cfa_offset 16
 294              		.cfi_offset 3, -16
 295              		.cfi_offset 4, -12
 296              		.cfi_offset 5, -8
 297              		.cfi_offset 14, -4
 298              		.loc 2 115 0
 299 0002 0E4C     		ldr	r4, .L18
 300              		.loc 2 114 0
 301 0004 0546     		mov	r5, r0
 302 0006 0A46     		mov	r2, r1
 303              		.loc 2 115 0
 304 0008 2046     		mov	r0, r4
 305              	.LVL23:
 306 000a 0D49     		ldr	r1, .L18+4
 307              	.LVL24:
 308 000c FFF7FEFF 		bl	chprintf.constprop.0
 309              	.LVL25:
 310              		.loc 2 116 0
 311 0010 6A68     		ldr	r2, [r5, #4]
 312 0012 0C49     		ldr	r1, .L18+8
 313 0014 2046     		mov	r0, r4
 314 0016 FFF7FEFF 		bl	chprintf.constprop.0
 315              	.LVL26:
 316              		.loc 2 117 0
 317 001a AA68     		ldr	r2, [r5, #8]
 318 001c 0A49     		ldr	r1, .L18+12
 319 001e 2046     		mov	r0, r4
 320 0020 FFF7FEFF 		bl	chprintf.constprop.0
 321              	.LVL27:
 322              		.loc 2 118 0
 323 0024 EA68     		ldr	r2, [r5, #12]
 324 0026 0949     		ldr	r1, .L18+16
 325 0028 2046     		mov	r0, r4
 326 002a FFF7FEFF 		bl	chprintf.constprop.0
 327              	.LVL28:
 328              		.loc 2 119 0
 329 002e 2046     		mov	r0, r4
 330 0030 2A8A     		ldrh	r2, [r5, #16]
 331 0032 0749     		ldr	r1, .L18+20
 332              		.loc 2 120 0
 333 0034 BDE83840 		pop	{r3, r4, r5, lr}
 334              		.cfi_restore 14
 335              		.cfi_restore 5
 336              		.cfi_restore 4
 337              		.cfi_restore 3
ARM GAS  C:\Users\jo\AppData\Local\Temp\ccs3alFi.s 			page 7


 338              		.cfi_def_cfa_offset 0
 339              	.LVL29:
 340              		.loc 2 119 0
 341 0038 FFF7FEBF 		b	chprintf.constprop.0
 342              	.LVL30:
 343              	.L19:
 344              		.align	2
 345              	.L18:
 346 003c 00000000 		.word	itm_port
 347 0040 B4000000 		.word	.LC30
 348 0044 C0000000 		.word	.LC31
 349 0048 CC000000 		.word	.LC32
 350 004c D8000000 		.word	.LC33
 351 0050 E4000000 		.word	.LC34
 352              		.cfi_endproc
 353              	.LFE262:
 354              		.size	stats_display_mem, .-stats_display_mem
 355 0054 AFF30080 		.section	.text.stats_display_memp,"ax",%progbits
 355      AFF30080 
 355      AFF30080 
 356              		.align	2
 357              		.p2align 4,,15
 358              		.global	stats_display_memp
 359              		.thumb
 360              		.thumb_func
 361              		.type	stats_display_memp, %function
 362              	stats_display_memp:
 363              	.LFB263:
 364              		.loc 2 125 0
 365              		.cfi_startproc
 366              		@ args = 0, pretend = 0, frame = 56
 367              		@ frame_needed = 0, uses_anonymous_args = 0
 368              		@ link register save eliminated.
 369              	.LVL31:
 370 0000 F0B4     		push	{r4, r5, r6, r7}
 371              		.cfi_def_cfa_offset 16
 372              		.cfi_offset 4, -16
 373              		.cfi_offset 5, -12
 374              		.cfi_offset 6, -8
 375              		.cfi_offset 7, -4
 376              		.loc 2 126 0
 377 0002 0E4D     		ldr	r5, .L24
 378              		.loc 2 125 0
 379 0004 0E46     		mov	r6, r1
 380 0006 0746     		mov	r7, r0
 381              		.loc 2 126 0
 382 0008 0FCD     		ldmia	r5!, {r0, r1, r2, r3}
 383              	.LVL32:
 384              		.loc 2 125 0
 385 000a 8EB0     		sub	sp, sp, #56
 386              		.cfi_def_cfa_offset 72
 387              		.loc 2 126 0
 388 000c 01AC     		add	r4, sp, #4
 389 000e 0FC4     		stmia	r4!, {r0, r1, r2, r3}
 390 0010 0FCD     		ldmia	r5!, {r0, r1, r2, r3}
 391 0012 0FC4     		stmia	r4!, {r0, r1, r2, r3}
 392 0014 0FCD     		ldmia	r5!, {r0, r1, r2, r3}
ARM GAS  C:\Users\jo\AppData\Local\Temp\ccs3alFi.s 			page 8


 393 0016 0FC4     		stmia	r4!, {r0, r1, r2, r3}
 394              		.loc 2 130 0
 395 0018 0C2E     		cmp	r6, #12
 396              		.loc 2 126 0
 397 001a 2B68     		ldr	r3, [r5]
 398 001c 2360     		str	r3, [r4]
 399              		.loc 2 130 0
 400 001e 02DD     		ble	.L23
 401              		.loc 2 133 0
 402 0020 0EB0     		add	sp, sp, #56
 403              		.cfi_remember_state
 404              		.cfi_def_cfa_offset 16
 405              		@ sp needed
 406 0022 F0BC     		pop	{r4, r5, r6, r7}
 407              		.cfi_restore 7
 408              		.cfi_restore 6
 409              		.cfi_restore 5
 410              		.cfi_restore 4
 411              		.cfi_def_cfa_offset 0
 412              	.LVL33:
 413 0024 7047     		bx	lr
 414              	.LVL34:
 415              	.L23:
 416              		.cfi_restore_state
 417              		.loc 2 131 0
 418 0026 0EAB     		add	r3, sp, #56
 419 0028 03EB8606 		add	r6, r3, r6, lsl #2
 420              	.LVL35:
 421 002c 3846     		mov	r0, r7
 422 002e 56F8341C 		ldr	r1, [r6, #-52]
 423              		.loc 2 133 0
 424 0032 0EB0     		add	sp, sp, #56
 425              		.cfi_def_cfa_offset 16
 426              		@ sp needed
 427 0034 F0BC     		pop	{r4, r5, r6, r7}
 428              		.cfi_restore 7
 429              		.cfi_restore 6
 430              		.cfi_restore 5
 431              		.cfi_restore 4
 432              		.cfi_def_cfa_offset 0
 433              	.LVL36:
 434              		.loc 2 131 0
 435 0036 FFF7FEBF 		b	stats_display_mem
 436              	.LVL37:
 437              	.L25:
 438 003a 00BF     		.align	2
 439              	.L24:
 440 003c 00000000 		.word	.LANCHOR0
 441              		.cfi_endproc
 442              	.LFE263:
 443              		.size	stats_display_memp, .-stats_display_memp
 444              		.section	.text.stats_display_sys,"ax",%progbits
 445              		.align	2
 446              		.p2align 4,,15
 447              		.global	stats_display_sys
 448              		.thumb
 449              		.thumb_func
ARM GAS  C:\Users\jo\AppData\Local\Temp\ccs3alFi.s 			page 9


 450              		.type	stats_display_sys, %function
 451              	stats_display_sys:
 452              	.LFB264:
 453              		.loc 2 140 0
 454              		.cfi_startproc
 455              		@ args = 0, pretend = 0, frame = 0
 456              		@ frame_needed = 0, uses_anonymous_args = 0
 457              	.LVL38:
 458 0000 38B5     		push	{r3, r4, r5, lr}
 459              		.cfi_def_cfa_offset 16
 460              		.cfi_offset 3, -16
 461              		.cfi_offset 4, -12
 462              		.cfi_offset 5, -8
 463              		.cfi_offset 14, -4
 464              		.loc 2 141 0
 465 0002 1A4C     		ldr	r4, .L28
 466 0004 1A49     		ldr	r1, .L28+4
 467              		.loc 2 140 0
 468 0006 0546     		mov	r5, r0
 469              		.loc 2 141 0
 470 0008 2046     		mov	r0, r4
 471              	.LVL39:
 472 000a FFF7FEFF 		bl	chprintf.constprop.0
 473              	.LVL40:
 474              		.loc 2 142 0
 475 000e 2A88     		ldrh	r2, [r5]
 476 0010 1849     		ldr	r1, .L28+8
 477 0012 2046     		mov	r0, r4
 478 0014 FFF7FEFF 		bl	chprintf.constprop.0
 479              	.LVL41:
 480              		.loc 2 143 0
 481 0018 6A88     		ldrh	r2, [r5, #2]
 482 001a 1749     		ldr	r1, .L28+12
 483 001c 2046     		mov	r0, r4
 484 001e FFF7FEFF 		bl	chprintf.constprop.0
 485              	.LVL42:
 486              		.loc 2 144 0
 487 0022 AA88     		ldrh	r2, [r5, #4]
 488 0024 1549     		ldr	r1, .L28+16
 489 0026 2046     		mov	r0, r4
 490 0028 FFF7FEFF 		bl	chprintf.constprop.0
 491              	.LVL43:
 492              		.loc 2 145 0
 493 002c EA88     		ldrh	r2, [r5, #6]
 494 002e 1449     		ldr	r1, .L28+20
 495 0030 2046     		mov	r0, r4
 496 0032 FFF7FEFF 		bl	chprintf.constprop.0
 497              	.LVL44:
 498              		.loc 2 146 0
 499 0036 2A89     		ldrh	r2, [r5, #8]
 500 0038 1249     		ldr	r1, .L28+24
 501 003a 2046     		mov	r0, r4
 502 003c FFF7FEFF 		bl	chprintf.constprop.0
 503              	.LVL45:
 504              		.loc 2 147 0
 505 0040 6A89     		ldrh	r2, [r5, #10]
 506 0042 1149     		ldr	r1, .L28+28
ARM GAS  C:\Users\jo\AppData\Local\Temp\ccs3alFi.s 			page 10


 507 0044 2046     		mov	r0, r4
 508 0046 FFF7FEFF 		bl	chprintf.constprop.0
 509              	.LVL46:
 510              		.loc 2 148 0
 511 004a AA89     		ldrh	r2, [r5, #12]
 512 004c 0F49     		ldr	r1, .L28+32
 513 004e 2046     		mov	r0, r4
 514 0050 FFF7FEFF 		bl	chprintf.constprop.0
 515              	.LVL47:
 516              		.loc 2 149 0
 517 0054 EA89     		ldrh	r2, [r5, #14]
 518 0056 0E49     		ldr	r1, .L28+36
 519 0058 2046     		mov	r0, r4
 520 005a FFF7FEFF 		bl	chprintf.constprop.0
 521              	.LVL48:
 522              		.loc 2 150 0
 523 005e 2046     		mov	r0, r4
 524 0060 2A8A     		ldrh	r2, [r5, #16]
 525 0062 0C49     		ldr	r1, .L28+40
 526              		.loc 2 151 0
 527 0064 BDE83840 		pop	{r3, r4, r5, lr}
 528              		.cfi_restore 14
 529              		.cfi_restore 5
 530              		.cfi_restore 4
 531              		.cfi_restore 3
 532              		.cfi_def_cfa_offset 0
 533              	.LVL49:
 534              		.loc 2 150 0
 535 0068 FFF7FEBF 		b	chprintf.constprop.0
 536              	.LVL50:
 537              	.L29:
 538              		.align	2
 539              	.L28:
 540 006c 00000000 		.word	itm_port
 541 0070 F0000000 		.word	.LC35
 542 0074 F8000000 		.word	.LC36
 543 0078 08010000 		.word	.LC37
 544 007c 18010000 		.word	.LC38
 545 0080 28010000 		.word	.LC39
 546 0084 3C010000 		.word	.LC40
 547 0088 50010000 		.word	.LC41
 548 008c 64010000 		.word	.LC42
 549 0090 78010000 		.word	.LC43
 550 0094 8C010000 		.word	.LC44
 551              		.cfi_endproc
 552              	.LFE264:
 553              		.size	stats_display_sys, .-stats_display_sys
 554 0098 AFF30080 		.section	.text.stats_display,"ax",%progbits
 554      AFF30080 
 555              		.align	2
 556              		.p2align 4,,15
 557              		.global	stats_display
 558              		.thumb
 559              		.thumb_func
 560              		.type	stats_display, %function
 561              	stats_display:
 562              	.LFB265:
ARM GAS  C:\Users\jo\AppData\Local\Temp\ccs3alFi.s 			page 11


 563              		.loc 2 156 0
 564              		.cfi_startproc
 565              		@ args = 0, pretend = 0, frame = 0
 566              		@ frame_needed = 0, uses_anonymous_args = 0
 567              		.loc 2 159 0
 568 0000 1C48     		ldr	r0, .L34
 569 0002 1D49     		ldr	r1, .L34+4
 570              		.loc 2 156 0
 571 0004 38B5     		push	{r3, r4, r5, lr}
 572              		.cfi_def_cfa_offset 16
 573              		.cfi_offset 3, -16
 574              		.cfi_offset 4, -12
 575              		.cfi_offset 5, -8
 576              		.cfi_offset 14, -4
 577 0006 00F1BC05 		add	r5, r0, #188
 578              		.loc 2 159 0
 579 000a FFF7FEFF 		bl	stats_display_proto
 580              	.LVL51:
 581              		.loc 2 160 0
 582 000e A5F1A400 		sub	r0, r5, #164
 583 0012 1A49     		ldr	r1, .L34+8
 584 0014 FFF7FEFF 		bl	stats_display_proto
 585              	.LVL52:
 586              		.loc 2 161 0
 587 0018 A5F18C00 		sub	r0, r5, #140
 588 001c 1849     		ldr	r1, .L34+12
 589 001e FFF7FEFF 		bl	stats_display_proto
 590              	.LVL53:
 591              		.loc 2 162 0
 592 0022 A5F17400 		sub	r0, r5, #116
 593 0026 1749     		ldr	r1, .L34+16
 594 0028 FFF7FEFF 		bl	stats_display_proto
 595              	.LVL54:
 596              		.loc 2 164 0
 597 002c A5F15C00 		sub	r0, r5, #92
 598 0030 1549     		ldr	r1, .L34+20
 599 0032 FFF7FEFF 		bl	stats_display_proto
 600              	.LVL55:
 601              		.loc 2 165 0
 602 0036 A5F14400 		sub	r0, r5, #68
 603 003a 1449     		ldr	r1, .L34+24
 604 003c FFF7FEFF 		bl	stats_display_proto
 605              	.LVL56:
 606              		.loc 2 166 0
 607 0040 A5F12C00 		sub	r0, r5, #44
 608 0044 1249     		ldr	r1, .L34+28
 609 0046 FFF7FEFF 		bl	stats_display_proto
 610              	.LVL57:
 611              		.loc 2 167 0
 612 004a A5F11400 		sub	r0, r5, #20
 613 004e 1149     		ldr	r1, .L34+32
 614 0050 FFF7FEFF 		bl	stats_display_mem
 615              	.LVL58:
 616 0054 0024     		movs	r4, #0
 617              	.LVL59:
 618              	.L31:
 619              		.loc 2 169 0 discriminator 3
ARM GAS  C:\Users\jo\AppData\Local\Temp\ccs3alFi.s 			page 12


 620 0056 2846     		mov	r0, r5
 621 0058 2146     		mov	r1, r4
 622 005a 0134     		adds	r4, r4, #1
 623              	.LVL60:
 624 005c FFF7FEFF 		bl	stats_display_memp
 625              	.LVL61:
 626              		.loc 2 168 0 discriminator 3
 627 0060 0D2C     		cmp	r4, #13
 628 0062 05F11405 		add	r5, r5, #20
 629 0066 F6D1     		bne	.L31
 630              		.loc 2 171 0
 631 0068 0B48     		ldr	r0, .L34+36
 632              		.loc 2 172 0
 633 006a BDE83840 		pop	{r3, r4, r5, lr}
 634              		.cfi_restore 14
 635              		.cfi_restore 5
 636              		.cfi_restore 4
 637              		.cfi_restore 3
 638              		.cfi_def_cfa_offset 0
 639              		.loc 2 171 0
 640 006e FFF7FEBF 		b	stats_display_sys
 641              	.LVL62:
 642              	.L35:
 643 0072 00BF     		.align	2
 644              	.L34:
 645 0074 00000000 		.word	.LANCHOR1
 646 0078 A0010000 		.word	.LC45
 647 007c A8010000 		.word	.LC46
 648 0080 B0010000 		.word	.LC47
 649 0084 B8010000 		.word	.LC48
 650 0088 BC010000 		.word	.LC49
 651 008c C4010000 		.word	.LC50
 652 0090 C8010000 		.word	.LC51
 653 0094 CC010000 		.word	.LC52
 654 0098 C0010000 		.word	.LANCHOR1+448
 655              		.cfi_endproc
 656              	.LFE265:
 657              		.size	stats_display, .-stats_display
 658              		.global	lwip_stats
 659 009c AFF30080 		.section	.rodata
 660              		.align	2
 661              		.set	.LANCHOR0,. + 0
 662              	.LC15:
 663 0000 D4010000 		.word	.LC0
 664 0004 DC010000 		.word	.LC1
 665 0008 E4010000 		.word	.LC2
 666 000c F4010000 		.word	.LC3
 667 0010 FC010000 		.word	.LC4
 668 0014 08020000 		.word	.LC5
 669 0018 14020000 		.word	.LC6
 670 001c 1C020000 		.word	.LC7
 671 0020 24020000 		.word	.LC8
 672 0024 34020000 		.word	.LC9
 673 0028 44020000 		.word	.LC10
 674 002c 50020000 		.word	.LC11
 675 0030 60020000 		.word	.LC12
 676              		.section	.rodata.str1.4,"aMS",%progbits,1
ARM GAS  C:\Users\jo\AppData\Local\Temp\ccs3alFi.s 			page 13


 677              		.align	2
 678              	.LC16:
 679 0000 4D454D00 		.ascii	"MEM\000"
 680              	.LC17:
 681 0004 0A25730A 		.ascii	"\012%s\012\011\000"
 681      0900
 682 000a 0000     		.space	2
 683              	.LC18:
 684 000c 786D6974 		.ascii	"xmit: %u\012\011\000"
 684      3A202575 
 684      0A0900
 685 0017 00       		.space	1
 686              	.LC19:
 687 0018 72656376 		.ascii	"recv: %u\012\011\000"
 687      3A202575 
 687      0A0900
 688 0023 00       		.space	1
 689              	.LC20:
 690 0024 66773A20 		.ascii	"fw: %u\012\011\000"
 690      25750A09 
 690      00
 691 002d 000000   		.space	3
 692              	.LC21:
 693 0030 64726F70 		.ascii	"drop: %u\012\011\000"
 693      3A202575 
 693      0A0900
 694 003b 00       		.space	1
 695              	.LC22:
 696 003c 63686B65 		.ascii	"chkerr: %u\012\011\000"
 696      72723A20 
 696      25750A09 
 696      00
 697 0049 000000   		.space	3
 698              	.LC23:
 699 004c 6C656E65 		.ascii	"lenerr: %u\012\011\000"
 699      72723A20 
 699      25750A09 
 699      00
 700 0059 000000   		.space	3
 701              	.LC24:
 702 005c 6D656D65 		.ascii	"memerr: %u\012\011\000"
 702      72723A20 
 702      25750A09 
 702      00
 703 0069 000000   		.space	3
 704              	.LC25:
 705 006c 72746572 		.ascii	"rterr: %u\012\011\000"
 705      723A2025 
 705      750A0900 
 706              	.LC26:
 707 0078 70726F74 		.ascii	"proterr: %u\012\011\000"
 707      6572723A 
 707      2025750A 
 707      0900
 708 0086 0000     		.space	2
 709              	.LC27:
 710 0088 6F707465 		.ascii	"opterr: %u\012\011\000"
ARM GAS  C:\Users\jo\AppData\Local\Temp\ccs3alFi.s 			page 14


 710      72723A20 
 710      25750A09 
 710      00
 711 0095 000000   		.space	3
 712              	.LC28:
 713 0098 6572723A 		.ascii	"err: %u\012\011\000"
 713      2025750A 
 713      0900
 714 00a2 0000     		.space	2
 715              	.LC29:
 716 00a4 63616368 		.ascii	"cachehit: %u\012\000"
 716      65686974 
 716      3A202575 
 716      0A00
 717 00b2 0000     		.space	2
 718              	.LC30:
 719 00b4 0A4D454D 		.ascii	"\012MEM %s\012\011\000"
 719      2025730A 
 719      0900
 720 00be 0000     		.space	2
 721              	.LC31:
 722 00c0 61766169 		.ascii	"avail: %u\012\011\000"
 722      6C3A2025 
 722      750A0900 
 723              	.LC32:
 724 00cc 75736564 		.ascii	"used: %u\012\011\000"
 724      3A202575 
 724      0A0900
 725 00d7 00       		.space	1
 726              	.LC33:
 727 00d8 6D61783A 		.ascii	"max: %u\012\011\000"
 727      2025750A 
 727      0900
 728 00e2 0000     		.space	2
 729              	.LC34:
 730 00e4 6572723A 		.ascii	"err: %u\012\000"
 730      2025750A 
 730      00
 731 00ed 000000   		.space	3
 732              	.LC35:
 733 00f0 0A535953 		.ascii	"\012SYS\012\011\000"
 733      0A0900
 734 00f7 00       		.space	1
 735              	.LC36:
 736 00f8 73656D2E 		.ascii	"sem.used:  %u\012\011\000"
 736      75736564 
 736      3A202025 
 736      750A0900 
 737              	.LC37:
 738 0108 73656D2E 		.ascii	"sem.max:   %u\012\011\000"
 738      6D61783A 
 738      20202025 
 738      750A0900 
 739              	.LC38:
 740 0118 73656D2E 		.ascii	"sem.err:   %u\012\011\000"
 740      6572723A 
 740      20202025 
ARM GAS  C:\Users\jo\AppData\Local\Temp\ccs3alFi.s 			page 15


 740      750A0900 
 741              	.LC39:
 742 0128 6D757465 		.ascii	"mutex.used: %u\012\011\000"
 742      782E7573 
 742      65643A20 
 742      25750A09 
 742      00
 743 0139 000000   		.space	3
 744              	.LC40:
 745 013c 6D757465 		.ascii	"mutex.max:  %u\012\011\000"
 745      782E6D61 
 745      783A2020 
 745      25750A09 
 745      00
 746 014d 000000   		.space	3
 747              	.LC41:
 748 0150 6D757465 		.ascii	"mutex.err:  %u\012\011\000"
 748      782E6572 
 748      723A2020 
 748      25750A09 
 748      00
 749 0161 000000   		.space	3
 750              	.LC42:
 751 0164 6D626F78 		.ascii	"mbox.used:  %u\012\011\000"
 751      2E757365 
 751      643A2020 
 751      25750A09 
 751      00
 752 0175 000000   		.space	3
 753              	.LC43:
 754 0178 6D626F78 		.ascii	"mbox.max:   %u\012\011\000"
 754      2E6D6178 
 754      3A202020 
 754      25750A09 
 754      00
 755 0189 000000   		.space	3
 756              	.LC44:
 757 018c 6D626F78 		.ascii	"mbox.err:   %u\012\011\000"
 757      2E657272 
 757      3A202020 
 757      25750A09 
 757      00
 758 019d 000000   		.space	3
 759              	.LC45:
 760 01a0 4C494E4B 		.ascii	"LINK\000"
 760      00
 761 01a5 000000   		.space	3
 762              	.LC46:
 763 01a8 45544841 		.ascii	"ETHARP\000"
 763      525000
 764 01af 00       		.space	1
 765              	.LC47:
 766 01b0 49505F46 		.ascii	"IP_FRAG\000"
 766      52414700 
 767              	.LC48:
 768 01b8 495000   		.ascii	"IP\000"
 769 01bb 00       		.space	1
ARM GAS  C:\Users\jo\AppData\Local\Temp\ccs3alFi.s 			page 16


 770              	.LC49:
 771 01bc 49434D50 		.ascii	"ICMP\000"
 771      00
 772 01c1 000000   		.space	3
 773              	.LC50:
 774 01c4 55445000 		.ascii	"UDP\000"
 775              	.LC51:
 776 01c8 54435000 		.ascii	"TCP\000"
 777              	.LC52:
 778 01cc 48454150 		.ascii	"HEAP\000"
 778      00
 779 01d1 000000   		.space	3
 780              	.LC0:
 781 01d4 5544505F 		.ascii	"UDP_PCB\000"
 781      50434200 
 782              	.LC1:
 783 01dc 5443505F 		.ascii	"TCP_PCB\000"
 783      50434200 
 784              	.LC2:
 785 01e4 5443505F 		.ascii	"TCP_PCB_LISTEN\000"
 785      5043425F 
 785      4C495354 
 785      454E00
 786 01f3 00       		.space	1
 787              	.LC3:
 788 01f4 5443505F 		.ascii	"TCP_SEG\000"
 788      53454700 
 789              	.LC4:
 790 01fc 52454153 		.ascii	"REASSDATA\000"
 790      53444154 
 790      4100
 791 0206 0000     		.space	2
 792              	.LC5:
 793 0208 46524147 		.ascii	"FRAG_PBUF\000"
 793      5F504255 
 793      4600
 794 0212 0000     		.space	2
 795              	.LC6:
 796 0214 4E455442 		.ascii	"NETBUF\000"
 796      554600
 797 021b 00       		.space	1
 798              	.LC7:
 799 021c 4E455443 		.ascii	"NETCONN\000"
 799      4F4E4E00 
 800              	.LC8:
 801 0224 54435049 		.ascii	"TCPIP_MSG_API\000"
 801      505F4D53 
 801      475F4150 
 801      4900
 802 0232 0000     		.space	2
 803              	.LC9:
 804 0234 54435049 		.ascii	"TCPIP_MSG_INPKT\000"
 804      505F4D53 
 804      475F494E 
 804      504B5400 
 805              	.LC10:
 806 0244 5359535F 		.ascii	"SYS_TIMEOUT\000"
ARM GAS  C:\Users\jo\AppData\Local\Temp\ccs3alFi.s 			page 17


 806      54494D45 
 806      4F555400 
 807              	.LC11:
 808 0250 50425546 		.ascii	"PBUF_REF/ROM\000"
 808      5F524546 
 808      2F524F4D 
 808      00
 809 025d 000000   		.space	3
 810              	.LC12:
 811 0260 50425546 		.ascii	"PBUF_POOL\000"
 811      5F504F4F 
 811      4C00
 812 026a 0000     		.section	.bss.lwip_stats,"aw",%nobits
 813              		.align	2
 814              		.set	.LANCHOR1,. + 0
 815              		.type	lwip_stats, %object
 816              		.size	lwip_stats, 468
 817              	lwip_stats:
 818 0000 00000000 		.space	468
 818      00000000 
 818      00000000 
 818      00000000 
 818      00000000 
 819              		.text
 820              	.Letext0:
 821              		.file 3 "c:\\program files\\gnu tools arm embedded\\4.9 2014q4\\lib\\gcc\\arm-none-eabi\\4.9.3\\in
 822              		.file 4 "c:\\program files\\gnu tools arm embedded\\4.9 2014q4\\arm-none-eabi\\include\\machine\\_
 823              		.file 5 "c:\\program files\\gnu tools arm embedded\\4.9 2014q4\\arm-none-eabi\\include\\stdint.h"
 824              		.file 6 "../../../os/rt/ports/ARMCMx/compilers/GCC/chtypes.h"
 825              		.file 7 "../../../os/rt/include/chsystypes.h"
 826              		.file 8 "../../../os/rt/include/chschd.h"
 827              		.file 9 "../../../os/rt/ports/ARMCMx/chcore.h"
 828              		.file 10 "../../../os/rt/ports/ARMCMx/chcore_v7m.h"
 829              		.file 11 "../../../os/rt/include/chdebug.h"
 830              		.file 12 "../../../os/rt/include/chtm.h"
 831              		.file 13 "../../../os/rt/include/chsem.h"
 832              		.file 14 "../../../os/rt/include/chmtx.h"
 833              		.file 15 "../../../os/rt/include/chstreams.h"
 834              		.file 16 "./ITM_trace.h"
 835              		.file 17 "c:\\program files\\gnu tools arm embedded\\4.9 2014q4\\lib\\gcc\\arm-none-eabi\\4.9.3\\i
 836              		.file 18 "<built-in>"
 837              		.file 19 "../../../os/various/lwip_bindings/arch/cc.h"
 838              		.file 20 "../../../ext/lwip/src/include/lwip/mem.h"
 839              		.file 21 "../../../ext/lwip/src/include/lwip/stats.h"
 840              		.file 22 "../../../os/ext/CMSIS/include/core_cm4.h"
 841              		.file 23 "../../../ext/lwip/src/include/lwip/memp.h"
 842              		.section	.debug_info,"",%progbits
 843              	.Ldebug_info0:
 844 0000 AC110000 		.4byte	0x11ac
 845 0004 0400     		.2byte	0x4
 846 0006 00000000 		.4byte	.Ldebug_abbrev0
 847 000a 04       		.byte	0x4
 848 000b 01       		.uleb128 0x1
 849 000c C3030000 		.4byte	.LASF187
 850 0010 01       		.byte	0x1
 851 0011 56050000 		.4byte	.LASF188
 852 0015 0E010000 		.4byte	.LASF189
ARM GAS  C:\Users\jo\AppData\Local\Temp\ccs3alFi.s 			page 18


 853 0019 00000000 		.4byte	.Ldebug_ranges0+0
 854 001d 00000000 		.4byte	0
 855 0021 00000000 		.4byte	.Ldebug_line0
 856 0025 02       		.uleb128 0x2
 857 0026 04       		.byte	0x4
 858 0027 05       		.byte	0x5
 859 0028 696E7400 		.ascii	"int\000"
 860 002c 03       		.uleb128 0x3
 861 002d 1D000000 		.4byte	.LASF2
 862 0031 03       		.byte	0x3
 863 0032 D4       		.byte	0xd4
 864 0033 37000000 		.4byte	0x37
 865 0037 04       		.uleb128 0x4
 866 0038 04       		.byte	0x4
 867 0039 07       		.byte	0x7
 868 003a BF020000 		.4byte	.LASF0
 869 003e 04       		.uleb128 0x4
 870 003f 01       		.byte	0x1
 871 0040 06       		.byte	0x6
 872 0041 72010000 		.4byte	.LASF1
 873 0045 03       		.uleb128 0x3
 874 0046 40000000 		.4byte	.LASF3
 875 004a 04       		.byte	0x4
 876 004b 1D       		.byte	0x1d
 877 004c 50000000 		.4byte	0x50
 878 0050 04       		.uleb128 0x4
 879 0051 01       		.byte	0x1
 880 0052 08       		.byte	0x8
 881 0053 27060000 		.4byte	.LASF4
 882 0057 03       		.uleb128 0x3
 883 0058 56020000 		.4byte	.LASF5
 884 005c 04       		.byte	0x4
 885 005d 29       		.byte	0x29
 886 005e 62000000 		.4byte	0x62
 887 0062 04       		.uleb128 0x4
 888 0063 02       		.byte	0x2
 889 0064 05       		.byte	0x5
 890 0065 54060000 		.4byte	.LASF6
 891 0069 03       		.uleb128 0x3
 892 006a 65070000 		.4byte	.LASF7
 893 006e 04       		.byte	0x4
 894 006f 2B       		.byte	0x2b
 895 0070 74000000 		.4byte	0x74
 896 0074 04       		.uleb128 0x4
 897 0075 02       		.byte	0x2
 898 0076 07       		.byte	0x7
 899 0077 26030000 		.4byte	.LASF8
 900 007b 03       		.uleb128 0x3
 901 007c 92030000 		.4byte	.LASF9
 902 0080 04       		.byte	0x4
 903 0081 3F       		.byte	0x3f
 904 0082 86000000 		.4byte	0x86
 905 0086 04       		.uleb128 0x4
 906 0087 04       		.byte	0x4
 907 0088 05       		.byte	0x5
 908 0089 BE010000 		.4byte	.LASF10
 909 008d 03       		.uleb128 0x3
ARM GAS  C:\Users\jo\AppData\Local\Temp\ccs3alFi.s 			page 19


 910 008e B0070000 		.4byte	.LASF11
 911 0092 04       		.byte	0x4
 912 0093 41       		.byte	0x41
 913 0094 98000000 		.4byte	0x98
 914 0098 04       		.uleb128 0x4
 915 0099 04       		.byte	0x4
 916 009a 07       		.byte	0x7
 917 009b 7E010000 		.4byte	.LASF12
 918 009f 04       		.uleb128 0x4
 919 00a0 08       		.byte	0x8
 920 00a1 05       		.byte	0x5
 921 00a2 64010000 		.4byte	.LASF13
 922 00a6 03       		.uleb128 0x3
 923 00a7 AE050000 		.4byte	.LASF14
 924 00ab 04       		.byte	0x4
 925 00ac 5B       		.byte	0x5b
 926 00ad B1000000 		.4byte	0xb1
 927 00b1 04       		.uleb128 0x4
 928 00b2 08       		.byte	0x8
 929 00b3 07       		.byte	0x7
 930 00b4 74000000 		.4byte	.LASF15
 931 00b8 03       		.uleb128 0x3
 932 00b9 3D080000 		.4byte	.LASF16
 933 00bd 05       		.byte	0x5
 934 00be 15       		.byte	0x15
 935 00bf 45000000 		.4byte	0x45
 936 00c3 03       		.uleb128 0x3
 937 00c4 5C010000 		.4byte	.LASF17
 938 00c8 05       		.byte	0x5
 939 00c9 20       		.byte	0x20
 940 00ca 57000000 		.4byte	0x57
 941 00ce 03       		.uleb128 0x3
 942 00cf EE010000 		.4byte	.LASF18
 943 00d3 05       		.byte	0x5
 944 00d4 21       		.byte	0x21
 945 00d5 69000000 		.4byte	0x69
 946 00d9 03       		.uleb128 0x3
 947 00da 1F060000 		.4byte	.LASF19
 948 00de 05       		.byte	0x5
 949 00df 2C       		.byte	0x2c
 950 00e0 7B000000 		.4byte	0x7b
 951 00e4 03       		.uleb128 0x3
 952 00e5 EE070000 		.4byte	.LASF20
 953 00e9 05       		.byte	0x5
 954 00ea 2D       		.byte	0x2d
 955 00eb 8D000000 		.4byte	0x8d
 956 00ef 03       		.uleb128 0x3
 957 00f0 2F000000 		.4byte	.LASF21
 958 00f4 05       		.byte	0x5
 959 00f5 39       		.byte	0x39
 960 00f6 A6000000 		.4byte	0xa6
 961 00fa 05       		.uleb128 0x5
 962 00fb D9000000 		.4byte	0xd9
 963 00ff 03       		.uleb128 0x3
 964 0100 D9070000 		.4byte	.LASF22
 965 0104 06       		.byte	0x6
 966 0105 45       		.byte	0x45
ARM GAS  C:\Users\jo\AppData\Local\Temp\ccs3alFi.s 			page 20


 967 0106 E4000000 		.4byte	0xe4
 968 010a 03       		.uleb128 0x3
 969 010b 6A030000 		.4byte	.LASF23
 970 010f 06       		.byte	0x6
 971 0110 48       		.byte	0x48
 972 0111 B8000000 		.4byte	0xb8
 973 0115 03       		.uleb128 0x3
 974 0116 C7010000 		.4byte	.LASF24
 975 011a 06       		.byte	0x6
 976 011b 49       		.byte	0x49
 977 011c B8000000 		.4byte	0xb8
 978 0120 03       		.uleb128 0x3
 979 0121 00000000 		.4byte	.LASF25
 980 0125 06       		.byte	0x6
 981 0126 4A       		.byte	0x4a
 982 0127 B8000000 		.4byte	0xb8
 983 012b 03       		.uleb128 0x3
 984 012c F4050000 		.4byte	.LASF26
 985 0130 06       		.byte	0x6
 986 0131 4C       		.byte	0x4c
 987 0132 E4000000 		.4byte	0xe4
 988 0136 03       		.uleb128 0x3
 989 0137 58030000 		.4byte	.LASF27
 990 013b 06       		.byte	0x6
 991 013c 4D       		.byte	0x4d
 992 013d D9000000 		.4byte	0xd9
 993 0141 03       		.uleb128 0x3
 994 0142 86030000 		.4byte	.LASF28
 995 0146 06       		.byte	0x6
 996 0147 4F       		.byte	0x4f
 997 0148 E4000000 		.4byte	0xe4
 998 014c 03       		.uleb128 0x3
 999 014d A6020000 		.4byte	.LASF29
 1000 0151 06       		.byte	0x6
 1001 0152 51       		.byte	0x51
 1002 0153 D9000000 		.4byte	0xd9
 1003 0157 03       		.uleb128 0x3
 1004 0158 92070000 		.4byte	.LASF30
 1005 015c 07       		.byte	0x7
 1006 015d 33       		.byte	0x33
 1007 015e E4000000 		.4byte	0xe4
 1008 0162 03       		.uleb128 0x3
 1009 0163 82070000 		.4byte	.LASF31
 1010 0167 07       		.byte	0x7
 1011 0168 3F       		.byte	0x3f
 1012 0169 6D010000 		.4byte	0x16d
 1013 016d 06       		.uleb128 0x6
 1014 016e 39030000 		.4byte	.LASF52
 1015 0172 48       		.byte	0x48
 1016 0173 08       		.byte	0x8
 1017 0174 C2       		.byte	0xc2
 1018 0175 66020000 		.4byte	0x266
 1019 0179 07       		.uleb128 0x7
 1020 017a 79060000 		.4byte	.LASF32
 1021 017e 08       		.byte	0x8
 1022 017f C3       		.byte	0xc3
 1023 0180 71020000 		.4byte	0x271
ARM GAS  C:\Users\jo\AppData\Local\Temp\ccs3alFi.s 			page 21


 1024 0184 00       		.byte	0
 1025 0185 07       		.uleb128 0x7
 1026 0186 ED050000 		.4byte	.LASF33
 1027 018a 08       		.byte	0x8
 1028 018b C5       		.byte	0xc5
 1029 018c 71020000 		.4byte	0x271
 1030 0190 04       		.byte	0x4
 1031 0191 07       		.uleb128 0x7
 1032 0192 07010000 		.4byte	.LASF34
 1033 0196 08       		.byte	0x8
 1034 0197 C7       		.byte	0xc7
 1035 0198 2B010000 		.4byte	0x12b
 1036 019c 08       		.byte	0x8
 1037 019d 07       		.uleb128 0x7
 1038 019e CC080000 		.4byte	.LASF35
 1039 01a2 08       		.byte	0x8
 1040 01a3 C8       		.byte	0xc8
 1041 01a4 CC040000 		.4byte	0x4cc
 1042 01a8 0C       		.byte	0xc
 1043 01a9 07       		.uleb128 0x7
 1044 01aa 0C020000 		.4byte	.LASF36
 1045 01ae 08       		.byte	0x8
 1046 01af CA       		.byte	0xca
 1047 01b0 71020000 		.4byte	0x271
 1048 01b4 10       		.byte	0x10
 1049 01b5 07       		.uleb128 0x7
 1050 01b6 37050000 		.4byte	.LASF37
 1051 01ba 08       		.byte	0x8
 1052 01bb CB       		.byte	0xcb
 1053 01bc 71020000 		.4byte	0x271
 1054 01c0 14       		.byte	0x14
 1055 01c1 07       		.uleb128 0x7
 1056 01c2 02060000 		.4byte	.LASF38
 1057 01c6 08       		.byte	0x8
 1058 01c7 D2       		.byte	0xd2
 1059 01c8 DE060000 		.4byte	0x6de
 1060 01cc 18       		.byte	0x18
 1061 01cd 07       		.uleb128 0x7
 1062 01ce B4020000 		.4byte	.LASF39
 1063 01d2 08       		.byte	0x8
 1064 01d3 D8       		.byte	0xd8
 1065 01d4 F0060000 		.4byte	0x6f0
 1066 01d8 1C       		.byte	0x1c
 1067 01d9 07       		.uleb128 0x7
 1068 01da 5E060000 		.4byte	.LASF40
 1069 01de 08       		.byte	0x8
 1070 01df DD       		.byte	0xdd
 1071 01e0 15010000 		.4byte	0x115
 1072 01e4 20       		.byte	0x20
 1073 01e5 07       		.uleb128 0x7
 1074 01e6 86060000 		.4byte	.LASF41
 1075 01ea 08       		.byte	0x8
 1076 01eb E1       		.byte	0xe1
 1077 01ec 0A010000 		.4byte	0x10a
 1078 01f0 21       		.byte	0x21
 1079 01f1 07       		.uleb128 0x7
 1080 01f2 DA010000 		.4byte	.LASF42
ARM GAS  C:\Users\jo\AppData\Local\Temp\ccs3alFi.s 			page 22


 1081 01f6 08       		.byte	0x8
 1082 01f7 E6       		.byte	0xe6
 1083 01f8 20010000 		.4byte	0x120
 1084 01fc 22       		.byte	0x22
 1085 01fd 08       		.uleb128 0x8
 1086 01fe 705F7500 		.ascii	"p_u\000"
 1087 0202 08       		.byte	0x8
 1088 0203 3101     		.2byte	0x131
 1089 0205 19060000 		.4byte	0x619
 1090 0209 24       		.byte	0x24
 1091 020a 09       		.uleb128 0x9
 1092 020b AC040000 		.4byte	.LASF43
 1093 020f 08       		.byte	0x8
 1094 0210 3601     		.2byte	0x136
 1095 0212 77020000 		.4byte	0x277
 1096 0216 28       		.byte	0x28
 1097 0217 09       		.uleb128 0x9
 1098 0218 E5020000 		.4byte	.LASF44
 1099 021c 08       		.byte	0x8
 1100 021d 3C01     		.2byte	0x13c
 1101 021f 9B020000 		.4byte	0x29b
 1102 0223 2C       		.byte	0x2c
 1103 0224 09       		.uleb128 0x9
 1104 0225 B4080000 		.4byte	.LASF45
 1105 0229 08       		.byte	0x8
 1106 022a 4001     		.2byte	0x140
 1107 022c 36010000 		.4byte	0x136
 1108 0230 34       		.byte	0x34
 1109 0231 09       		.uleb128 0x9
 1110 0232 D3060000 		.4byte	.LASF46
 1111 0236 08       		.byte	0x8
 1112 0237 4601     		.2byte	0x146
 1113 0239 41010000 		.4byte	0x141
 1114 023d 38       		.byte	0x38
 1115 023e 09       		.uleb128 0x9
 1116 023f 4A060000 		.4byte	.LASF47
 1117 0243 08       		.byte	0x8
 1118 0244 4D01     		.2byte	0x14d
 1119 0246 D8060000 		.4byte	0x6d8
 1120 024a 3C       		.byte	0x3c
 1121 024b 09       		.uleb128 0x9
 1122 024c 9C070000 		.4byte	.LASF48
 1123 0250 08       		.byte	0x8
 1124 0251 5101     		.2byte	0x151
 1125 0253 2B010000 		.4byte	0x12b
 1126 0257 40       		.byte	0x40
 1127 0258 09       		.uleb128 0x9
 1128 0259 90010000 		.4byte	.LASF49
 1129 025d 08       		.byte	0x8
 1130 025e 5801     		.2byte	0x158
 1131 0260 4E030000 		.4byte	0x34e
 1132 0264 44       		.byte	0x44
 1133 0265 00       		.byte	0
 1134 0266 03       		.uleb128 0x3
 1135 0267 BF040000 		.4byte	.LASF50
 1136 026b 07       		.byte	0x7
 1137 026c 44       		.byte	0x44
ARM GAS  C:\Users\jo\AppData\Local\Temp\ccs3alFi.s 			page 23


 1138 026d 71020000 		.4byte	0x271
 1139 0271 0A       		.uleb128 0xa
 1140 0272 04       		.byte	0x4
 1141 0273 62010000 		.4byte	0x162
 1142 0277 03       		.uleb128 0x3
 1143 0278 79080000 		.4byte	.LASF51
 1144 027c 07       		.byte	0x7
 1145 027d 49       		.byte	0x49
 1146 027e 82020000 		.4byte	0x282
 1147 0282 06       		.uleb128 0x6
 1148 0283 1F070000 		.4byte	.LASF53
 1149 0287 04       		.byte	0x4
 1150 0288 08       		.byte	0x8
 1151 0289 B0       		.byte	0xb0
 1152 028a 9B020000 		.4byte	0x29b
 1153 028e 07       		.uleb128 0x7
 1154 028f 79060000 		.4byte	.LASF32
 1155 0293 08       		.byte	0x8
 1156 0294 B1       		.byte	0xb1
 1157 0295 71020000 		.4byte	0x271
 1158 0299 00       		.byte	0
 1159 029a 00       		.byte	0
 1160 029b 03       		.uleb128 0x3
 1161 029c 0B080000 		.4byte	.LASF54
 1162 02a0 07       		.byte	0x7
 1163 02a1 50       		.byte	0x50
 1164 02a2 A6020000 		.4byte	0x2a6
 1165 02a6 06       		.uleb128 0x6
 1166 02a7 EF000000 		.4byte	.LASF55
 1167 02ab 08       		.byte	0x8
 1168 02ac 08       		.byte	0x8
 1169 02ad B7       		.byte	0xb7
 1170 02ae CB020000 		.4byte	0x2cb
 1171 02b2 07       		.uleb128 0x7
 1172 02b3 79060000 		.4byte	.LASF32
 1173 02b7 08       		.byte	0x8
 1174 02b8 B8       		.byte	0xb8
 1175 02b9 71020000 		.4byte	0x271
 1176 02bd 00       		.byte	0
 1177 02be 07       		.uleb128 0x7
 1178 02bf ED050000 		.4byte	.LASF33
 1179 02c3 08       		.byte	0x8
 1180 02c4 B9       		.byte	0xb9
 1181 02c5 71020000 		.4byte	0x271
 1182 02c9 04       		.byte	0x4
 1183 02ca 00       		.byte	0
 1184 02cb 03       		.uleb128 0x3
 1185 02cc 08000000 		.4byte	.LASF56
 1186 02d0 07       		.byte	0x7
 1187 02d1 57       		.byte	0x57
 1188 02d2 D6020000 		.4byte	0x2d6
 1189 02d6 0B       		.uleb128 0xb
 1190 02d7 78030000 		.4byte	.LASF57
 1191 02db 1C       		.byte	0x1c
 1192 02dc 08       		.byte	0x8
 1193 02dd 9001     		.2byte	0x190
 1194 02df 32030000 		.4byte	0x332
ARM GAS  C:\Users\jo\AppData\Local\Temp\ccs3alFi.s 			page 24


 1195 02e3 09       		.uleb128 0x9
 1196 02e4 0E070000 		.4byte	.LASF58
 1197 02e8 08       		.byte	0x8
 1198 02e9 9101     		.2byte	0x191
 1199 02eb 9B020000 		.4byte	0x29b
 1200 02ef 00       		.byte	0
 1201 02f0 09       		.uleb128 0x9
 1202 02f1 66060000 		.4byte	.LASF59
 1203 02f5 08       		.byte	0x8
 1204 02f6 9201     		.2byte	0x192
 1205 02f8 2B010000 		.4byte	0x12b
 1206 02fc 08       		.byte	0x8
 1207 02fd 09       		.uleb128 0x9
 1208 02fe 3F050000 		.4byte	.LASF60
 1209 0302 08       		.byte	0x8
 1210 0303 9401     		.2byte	0x194
 1211 0305 CC040000 		.4byte	0x4cc
 1212 0309 0C       		.byte	0xc
 1213 030a 09       		.uleb128 0x9
 1214 030b 24020000 		.4byte	.LASF61
 1215 030f 08       		.byte	0x8
 1216 0310 9701     		.2byte	0x197
 1217 0312 71020000 		.4byte	0x271
 1218 0316 10       		.byte	0x10
 1219 0317 09       		.uleb128 0x9
 1220 0318 9A050000 		.4byte	.LASF62
 1221 031c 08       		.byte	0x8
 1222 031d 9801     		.2byte	0x198
 1223 031f 71020000 		.4byte	0x271
 1224 0323 14       		.byte	0x14
 1225 0324 09       		.uleb128 0x9
 1226 0325 90050000 		.4byte	.LASF63
 1227 0329 08       		.byte	0x8
 1228 032a 9B01     		.2byte	0x19b
 1229 032c 71020000 		.4byte	0x271
 1230 0330 18       		.byte	0x18
 1231 0331 00       		.byte	0
 1232 0332 03       		.uleb128 0x3
 1233 0333 A7070000 		.4byte	.LASF64
 1234 0337 07       		.byte	0x7
 1235 0338 5C       		.byte	0x5c
 1236 0339 3D030000 		.4byte	0x33d
 1237 033d 0A       		.uleb128 0xa
 1238 033e 04       		.byte	0x4
 1239 033f 43030000 		.4byte	0x343
 1240 0343 0C       		.uleb128 0xc
 1241 0344 4E030000 		.4byte	0x34e
 1242 0348 0D       		.uleb128 0xd
 1243 0349 4E030000 		.4byte	0x34e
 1244 034d 00       		.byte	0
 1245 034e 0E       		.uleb128 0xe
 1246 034f 04       		.byte	0x4
 1247 0350 03       		.uleb128 0x3
 1248 0351 DD050000 		.4byte	.LASF65
 1249 0355 07       		.byte	0x7
 1250 0356 61       		.byte	0x61
 1251 0357 5B030000 		.4byte	0x35b
ARM GAS  C:\Users\jo\AppData\Local\Temp\ccs3alFi.s 			page 25


 1252 035b 0B       		.uleb128 0xb
 1253 035c A6060000 		.4byte	.LASF66
 1254 0360 14       		.byte	0x14
 1255 0361 08       		.byte	0x8
 1256 0362 6B01     		.2byte	0x16b
 1257 0364 AA030000 		.4byte	0x3aa
 1258 0368 09       		.uleb128 0x9
 1259 0369 CC020000 		.4byte	.LASF67
 1260 036d 08       		.byte	0x8
 1261 036e 6C01     		.2byte	0x16c
 1262 0370 F6060000 		.4byte	0x6f6
 1263 0374 00       		.byte	0
 1264 0375 09       		.uleb128 0x9
 1265 0376 49020000 		.4byte	.LASF68
 1266 037a 08       		.byte	0x8
 1267 037b 6D01     		.2byte	0x16d
 1268 037d F6060000 		.4byte	0x6f6
 1269 0381 04       		.byte	0x4
 1270 0382 09       		.uleb128 0x9
 1271 0383 16070000 		.4byte	.LASF69
 1272 0387 08       		.byte	0x8
 1273 0388 6E01     		.2byte	0x16e
 1274 038a 57010000 		.4byte	0x157
 1275 038e 08       		.byte	0x8
 1276 038f 09       		.uleb128 0x9
 1277 0390 D2080000 		.4byte	.LASF70
 1278 0394 08       		.byte	0x8
 1279 0395 6F01     		.2byte	0x16f
 1280 0397 32030000 		.4byte	0x332
 1281 039b 0C       		.byte	0xc
 1282 039c 09       		.uleb128 0x9
 1283 039d E1070000 		.4byte	.LASF71
 1284 03a1 08       		.byte	0x8
 1285 03a2 7101     		.2byte	0x171
 1286 03a4 4E030000 		.4byte	0x34e
 1287 03a8 10       		.byte	0x10
 1288 03a9 00       		.byte	0
 1289 03aa 03       		.uleb128 0x3
 1290 03ab D0000000 		.4byte	.LASF72
 1291 03af 07       		.byte	0x7
 1292 03b0 66       		.byte	0x66
 1293 03b1 B5030000 		.4byte	0x3b5
 1294 03b5 0B       		.uleb128 0xb
 1295 03b6 D2040000 		.4byte	.LASF73
 1296 03ba 10       		.byte	0x10
 1297 03bb 08       		.byte	0x8
 1298 03bc 7B01     		.2byte	0x17b
 1299 03be F7030000 		.4byte	0x3f7
 1300 03c2 09       		.uleb128 0x9
 1301 03c3 CC020000 		.4byte	.LASF67
 1302 03c7 08       		.byte	0x8
 1303 03c8 7C01     		.2byte	0x17c
 1304 03ca F6060000 		.4byte	0x6f6
 1305 03ce 00       		.byte	0
 1306 03cf 09       		.uleb128 0x9
 1307 03d0 49020000 		.4byte	.LASF68
 1308 03d4 08       		.byte	0x8
ARM GAS  C:\Users\jo\AppData\Local\Temp\ccs3alFi.s 			page 26


 1309 03d5 7E01     		.2byte	0x17e
 1310 03d7 F6060000 		.4byte	0x6f6
 1311 03db 04       		.byte	0x4
 1312 03dc 09       		.uleb128 0x9
 1313 03dd 16070000 		.4byte	.LASF69
 1314 03e1 08       		.byte	0x8
 1315 03e2 8001     		.2byte	0x180
 1316 03e4 57010000 		.4byte	0x157
 1317 03e8 08       		.byte	0x8
 1318 03e9 09       		.uleb128 0x9
 1319 03ea 0E050000 		.4byte	.LASF74
 1320 03ee 08       		.byte	0x8
 1321 03ef 8801     		.2byte	0x188
 1322 03f1 57010000 		.4byte	0x157
 1323 03f5 0C       		.byte	0xc
 1324 03f6 00       		.byte	0
 1325 03f7 03       		.uleb128 0x3
 1326 03f8 5E000000 		.4byte	.LASF75
 1327 03fc 07       		.byte	0x7
 1328 03fd 6B       		.byte	0x6b
 1329 03fe 02040000 		.4byte	0x402
 1330 0402 0F       		.uleb128 0xf
 1331 0403 09060000 		.4byte	.LASF76
 1332 0407 1404     		.2byte	0x414
 1333 0409 08       		.byte	0x8
 1334 040a A201     		.2byte	0x1a2
 1335 040c 45040000 		.4byte	0x445
 1336 0410 09       		.uleb128 0x9
 1337 0411 BB070000 		.4byte	.LASF77
 1338 0415 08       		.byte	0x8
 1339 0416 AA01     		.2byte	0x1aa
 1340 0418 FC060000 		.4byte	0x6fc
 1341 041c 00       		.byte	0
 1342 041d 09       		.uleb128 0x9
 1343 041e 2B080000 		.4byte	.LASF78
 1344 0422 08       		.byte	0x8
 1345 0423 AF01     		.2byte	0x1af
 1346 0425 4C010000 		.4byte	0x14c
 1347 0429 04       		.byte	0x4
 1348 042a 09       		.uleb128 0x9
 1349 042b 87050000 		.4byte	.LASF79
 1350 042f 08       		.byte	0x8
 1351 0430 B301     		.2byte	0x1b3
 1352 0432 4C010000 		.4byte	0x14c
 1353 0436 08       		.byte	0x8
 1354 0437 09       		.uleb128 0x9
 1355 0438 88080000 		.4byte	.LASF80
 1356 043c 08       		.byte	0x8
 1357 043d B901     		.2byte	0x1b9
 1358 043f EE050000 		.4byte	0x5ee
 1359 0443 0C       		.byte	0xc
 1360 0444 00       		.byte	0
 1361 0445 03       		.uleb128 0x3
 1362 0446 5E030000 		.4byte	.LASF81
 1363 044a 07       		.byte	0x7
 1364 044b 70       		.byte	0x70
 1365 044c 50040000 		.4byte	0x450
ARM GAS  C:\Users\jo\AppData\Local\Temp\ccs3alFi.s 			page 27


 1366 0450 0F       		.uleb128 0xf
 1367 0451 B4010000 		.4byte	.LASF82
 1368 0455 7005     		.2byte	0x570
 1369 0457 08       		.byte	0x8
 1370 0458 C201     		.2byte	0x1c2
 1371 045a AF040000 		.4byte	0x4af
 1372 045e 09       		.uleb128 0x9
 1373 045f 72030000 		.4byte	.LASF83
 1374 0463 08       		.byte	0x8
 1375 0464 C601     		.2byte	0x1c6
 1376 0466 CB020000 		.4byte	0x2cb
 1377 046a 00       		.byte	0
 1378 046b 09       		.uleb128 0x9
 1379 046c 98010000 		.4byte	.LASF84
 1380 0470 08       		.byte	0x8
 1381 0471 CA01     		.2byte	0x1ca
 1382 0473 AA030000 		.4byte	0x3aa
 1383 0477 1C       		.byte	0x1c
 1384 0478 08       		.uleb128 0x8
 1385 0479 64626700 		.ascii	"dbg\000"
 1386 047d 08       		.byte	0x8
 1387 047e CE01     		.2byte	0x1ce
 1388 0480 F7030000 		.4byte	0x3f7
 1389 0484 2C       		.byte	0x2c
 1390 0485 10       		.uleb128 0x10
 1391 0486 8E060000 		.4byte	.LASF85
 1392 048a 08       		.byte	0x8
 1393 048b D201     		.2byte	0x1d2
 1394 048d 62010000 		.4byte	0x162
 1395 0491 4004     		.2byte	0x440
 1396 0493 11       		.uleb128 0x11
 1397 0494 746D00   		.ascii	"tm\000"
 1398 0497 08       		.byte	0x8
 1399 0498 D701     		.2byte	0x1d7
 1400 049a 0E060000 		.4byte	0x60e
 1401 049e 8804     		.2byte	0x488
 1402 04a0 10       		.uleb128 0x10
 1403 04a1 97020000 		.4byte	.LASF86
 1404 04a5 08       		.byte	0x8
 1405 04a6 E301     		.2byte	0x1e3
 1406 04a8 01070000 		.4byte	0x701
 1407 04ac 9004     		.2byte	0x490
 1408 04ae 00       		.byte	0
 1409 04af 04       		.uleb128 0x4
 1410 04b0 04       		.byte	0x4
 1411 04b1 07       		.byte	0x7
 1412 04b2 B6040000 		.4byte	.LASF87
 1413 04b6 03       		.uleb128 0x3
 1414 04b7 40020000 		.4byte	.LASF88
 1415 04bb 09       		.byte	0x9
 1416 04bc 65       		.byte	0x65
 1417 04bd 4E030000 		.4byte	0x34e
 1418 04c1 03       		.uleb128 0x3
 1419 04c2 B8030000 		.4byte	.LASF89
 1420 04c6 09       		.byte	0x9
 1421 04c7 6D       		.byte	0x6d
 1422 04c8 EF000000 		.4byte	0xef
ARM GAS  C:\Users\jo\AppData\Local\Temp\ccs3alFi.s 			page 28


 1423 04cc 06       		.uleb128 0x6
 1424 04cd D1070000 		.4byte	.LASF90
 1425 04d1 04       		.byte	0x4
 1426 04d2 09       		.byte	0x9
 1427 04d3 89       		.byte	0x89
 1428 04d4 E5040000 		.4byte	0x4e5
 1429 04d8 12       		.uleb128 0x12
 1430 04d9 72313300 		.ascii	"r13\000"
 1431 04dd 09       		.byte	0x9
 1432 04de 8A       		.byte	0x8a
 1433 04df 60050000 		.4byte	0x560
 1434 04e3 00       		.byte	0
 1435 04e4 00       		.byte	0
 1436 04e5 06       		.uleb128 0x6
 1437 04e6 4A000000 		.4byte	.LASF91
 1438 04ea 24       		.byte	0x24
 1439 04eb 0A       		.byte	0xa
 1440 04ec F4       		.byte	0xf4
 1441 04ed 60050000 		.4byte	0x560
 1442 04f1 08       		.uleb128 0x8
 1443 04f2 723400   		.ascii	"r4\000"
 1444 04f5 0A       		.byte	0xa
 1445 04f6 0701     		.2byte	0x107
 1446 04f8 B6040000 		.4byte	0x4b6
 1447 04fc 00       		.byte	0
 1448 04fd 08       		.uleb128 0x8
 1449 04fe 723500   		.ascii	"r5\000"
 1450 0501 0A       		.byte	0xa
 1451 0502 0801     		.2byte	0x108
 1452 0504 B6040000 		.4byte	0x4b6
 1453 0508 04       		.byte	0x4
 1454 0509 08       		.uleb128 0x8
 1455 050a 723600   		.ascii	"r6\000"
 1456 050d 0A       		.byte	0xa
 1457 050e 0901     		.2byte	0x109
 1458 0510 B6040000 		.4byte	0x4b6
 1459 0514 08       		.byte	0x8
 1460 0515 08       		.uleb128 0x8
 1461 0516 723700   		.ascii	"r7\000"
 1462 0519 0A       		.byte	0xa
 1463 051a 0A01     		.2byte	0x10a
 1464 051c B6040000 		.4byte	0x4b6
 1465 0520 0C       		.byte	0xc
 1466 0521 08       		.uleb128 0x8
 1467 0522 723800   		.ascii	"r8\000"
 1468 0525 0A       		.byte	0xa
 1469 0526 0B01     		.2byte	0x10b
 1470 0528 B6040000 		.4byte	0x4b6
 1471 052c 10       		.byte	0x10
 1472 052d 08       		.uleb128 0x8
 1473 052e 723900   		.ascii	"r9\000"
 1474 0531 0A       		.byte	0xa
 1475 0532 0C01     		.2byte	0x10c
 1476 0534 B6040000 		.4byte	0x4b6
 1477 0538 14       		.byte	0x14
 1478 0539 08       		.uleb128 0x8
 1479 053a 72313000 		.ascii	"r10\000"
ARM GAS  C:\Users\jo\AppData\Local\Temp\ccs3alFi.s 			page 29


 1480 053e 0A       		.byte	0xa
 1481 053f 0D01     		.2byte	0x10d
 1482 0541 B6040000 		.4byte	0x4b6
 1483 0545 18       		.byte	0x18
 1484 0546 08       		.uleb128 0x8
 1485 0547 72313100 		.ascii	"r11\000"
 1486 054b 0A       		.byte	0xa
 1487 054c 0E01     		.2byte	0x10e
 1488 054e B6040000 		.4byte	0x4b6
 1489 0552 1C       		.byte	0x1c
 1490 0553 08       		.uleb128 0x8
 1491 0554 6C7200   		.ascii	"lr\000"
 1492 0557 0A       		.byte	0xa
 1493 0558 0F01     		.2byte	0x10f
 1494 055a B6040000 		.4byte	0x4b6
 1495 055e 20       		.byte	0x20
 1496 055f 00       		.byte	0
 1497 0560 0A       		.uleb128 0xa
 1498 0561 04       		.byte	0x4
 1499 0562 E5040000 		.4byte	0x4e5
 1500 0566 13       		.uleb128 0x13
 1501 0567 10       		.byte	0x10
 1502 0568 0B       		.byte	0xb
 1503 0569 51       		.byte	0x51
 1504 056a 9F050000 		.4byte	0x59f
 1505 056e 07       		.uleb128 0x7
 1506 056f 15000000 		.4byte	.LASF92
 1507 0573 0B       		.byte	0xb
 1508 0574 55       		.byte	0x55
 1509 0575 57010000 		.4byte	0x157
 1510 0579 00       		.byte	0
 1511 057a 07       		.uleb128 0x7
 1512 057b E1010000 		.4byte	.LASF93
 1513 057f 0B       		.byte	0xb
 1514 0580 59       		.byte	0x59
 1515 0581 71020000 		.4byte	0x271
 1516 0585 04       		.byte	0x4
 1517 0586 07       		.uleb128 0x7
 1518 0587 C2080000 		.4byte	.LASF94
 1519 058b 0B       		.byte	0xb
 1520 058c 5D       		.byte	0x5d
 1521 058d 4E030000 		.4byte	0x34e
 1522 0591 08       		.byte	0x8
 1523 0592 07       		.uleb128 0x7
 1524 0593 9B000000 		.4byte	.LASF95
 1525 0597 0B       		.byte	0xb
 1526 0598 61       		.byte	0x61
 1527 0599 B8000000 		.4byte	0xb8
 1528 059d 0C       		.byte	0xc
 1529 059e 00       		.byte	0
 1530 059f 03       		.uleb128 0x3
 1531 05a0 FF040000 		.4byte	.LASF96
 1532 05a4 0B       		.byte	0xb
 1533 05a5 62       		.byte	0x62
 1534 05a6 66050000 		.4byte	0x566
 1535 05aa 14       		.uleb128 0x14
 1536 05ab 0804     		.2byte	0x408
ARM GAS  C:\Users\jo\AppData\Local\Temp\ccs3alFi.s 			page 30


 1537 05ad 0B       		.byte	0xb
 1538 05ae 67       		.byte	0x67
 1539 05af D8050000 		.4byte	0x5d8
 1540 05b3 07       		.uleb128 0x7
 1541 05b4 1C020000 		.4byte	.LASF97
 1542 05b8 0B       		.byte	0xb
 1543 05b9 6B       		.byte	0x6b
 1544 05ba 37000000 		.4byte	0x37
 1545 05be 00       		.byte	0
 1546 05bf 07       		.uleb128 0x7
 1547 05c0 E9040000 		.4byte	.LASF98
 1548 05c4 0B       		.byte	0xb
 1549 05c5 6F       		.byte	0x6f
 1550 05c6 D8050000 		.4byte	0x5d8
 1551 05ca 04       		.byte	0x4
 1552 05cb 07       		.uleb128 0x7
 1553 05cc D3050000 		.4byte	.LASF99
 1554 05d0 0B       		.byte	0xb
 1555 05d1 73       		.byte	0x73
 1556 05d2 DE050000 		.4byte	0x5de
 1557 05d6 08       		.byte	0x8
 1558 05d7 00       		.byte	0
 1559 05d8 0A       		.uleb128 0xa
 1560 05d9 04       		.byte	0x4
 1561 05da 9F050000 		.4byte	0x59f
 1562 05de 15       		.uleb128 0x15
 1563 05df 9F050000 		.4byte	0x59f
 1564 05e3 EE050000 		.4byte	0x5ee
 1565 05e7 16       		.uleb128 0x16
 1566 05e8 AF040000 		.4byte	0x4af
 1567 05ec 3F       		.byte	0x3f
 1568 05ed 00       		.byte	0
 1569 05ee 03       		.uleb128 0x3
 1570 05ef 25050000 		.4byte	.LASF100
 1571 05f3 0B       		.byte	0xb
 1572 05f4 74       		.byte	0x74
 1573 05f5 AA050000 		.4byte	0x5aa
 1574 05f9 13       		.uleb128 0x13
 1575 05fa 04       		.byte	0x4
 1576 05fb 0C       		.byte	0xc
 1577 05fc 38       		.byte	0x38
 1578 05fd 0E060000 		.4byte	0x60e
 1579 0601 07       		.uleb128 0x7
 1580 0602 C5070000 		.4byte	.LASF101
 1581 0606 0C       		.byte	0xc
 1582 0607 3C       		.byte	0x3c
 1583 0608 FF000000 		.4byte	0xff
 1584 060c 00       		.byte	0
 1585 060d 00       		.byte	0
 1586 060e 03       		.uleb128 0x3
 1587 060f 45050000 		.4byte	.LASF102
 1588 0613 0C       		.byte	0xc
 1589 0614 3D       		.byte	0x3d
 1590 0615 F9050000 		.4byte	0x5f9
 1591 0619 17       		.uleb128 0x17
 1592 061a 04       		.byte	0x4
 1593 061b 08       		.byte	0x8
ARM GAS  C:\Users\jo\AppData\Local\Temp\ccs3alFi.s 			page 31


 1594 061c FA       		.byte	0xfa
 1595 061d 76060000 		.4byte	0x676
 1596 0621 18       		.uleb128 0x18
 1597 0622 99060000 		.4byte	.LASF103
 1598 0626 08       		.byte	0x8
 1599 0627 0101     		.2byte	0x101
 1600 0629 36010000 		.4byte	0x136
 1601 062d 18       		.uleb128 0x18
 1602 062e A4000000 		.4byte	.LASF104
 1603 0632 08       		.byte	0x8
 1604 0633 0801     		.2byte	0x108
 1605 0635 36010000 		.4byte	0x136
 1606 0639 18       		.uleb128 0x18
 1607 063a 6C080000 		.4byte	.LASF105
 1608 063e 08       		.byte	0x8
 1609 063f 0F01     		.2byte	0x10f
 1610 0641 4E030000 		.4byte	0x34e
 1611 0645 18       		.uleb128 0x18
 1612 0646 AE010000 		.4byte	.LASF106
 1613 064a 08       		.byte	0x8
 1614 064b 1601     		.2byte	0x116
 1615 064d 76060000 		.4byte	0x676
 1616 0651 18       		.uleb128 0x18
 1617 0652 D4020000 		.4byte	.LASF107
 1618 0656 08       		.byte	0x8
 1619 0657 1E01     		.2byte	0x11e
 1620 0659 A1060000 		.4byte	0x6a1
 1621 065d 18       		.uleb128 0x18
 1622 065e 07070000 		.4byte	.LASF108
 1623 0662 08       		.byte	0x8
 1624 0663 2701     		.2byte	0x127
 1625 0665 D8060000 		.4byte	0x6d8
 1626 0669 18       		.uleb128 0x18
 1627 066a 72060000 		.4byte	.LASF109
 1628 066e 08       		.byte	0x8
 1629 066f 2F01     		.2byte	0x12f
 1630 0671 41010000 		.4byte	0x141
 1631 0675 00       		.byte	0
 1632 0676 0A       		.uleb128 0xa
 1633 0677 04       		.byte	0x4
 1634 0678 66020000 		.4byte	0x266
 1635 067c 06       		.uleb128 0x6
 1636 067d C6060000 		.4byte	.LASF110
 1637 0681 0C       		.byte	0xc
 1638 0682 0D       		.byte	0xd
 1639 0683 34       		.byte	0x34
 1640 0684 A1060000 		.4byte	0x6a1
 1641 0688 07       		.uleb128 0x7
 1642 0689 14020000 		.4byte	.LASF111
 1643 068d 0D       		.byte	0xd
 1644 068e 35       		.byte	0x35
 1645 068f 9B020000 		.4byte	0x29b
 1646 0693 00       		.byte	0
 1647 0694 07       		.uleb128 0x7
 1648 0695 15030000 		.4byte	.LASF112
 1649 0699 0D       		.byte	0xd
 1650 069a 37       		.byte	0x37
ARM GAS  C:\Users\jo\AppData\Local\Temp\ccs3alFi.s 			page 32


 1651 069b 4C010000 		.4byte	0x14c
 1652 069f 08       		.byte	0x8
 1653 06a0 00       		.byte	0
 1654 06a1 0A       		.uleb128 0xa
 1655 06a2 04       		.byte	0x4
 1656 06a3 7C060000 		.4byte	0x67c
 1657 06a7 06       		.uleb128 0x6
 1658 06a8 1B080000 		.4byte	.LASF113
 1659 06ac 10       		.byte	0x10
 1660 06ad 0E       		.byte	0xe
 1661 06ae 39       		.byte	0x39
 1662 06af D8060000 		.4byte	0x6d8
 1663 06b3 07       		.uleb128 0x7
 1664 06b4 35060000 		.4byte	.LASF114
 1665 06b8 0E       		.byte	0xe
 1666 06b9 3A       		.byte	0x3a
 1667 06ba 9B020000 		.4byte	0x29b
 1668 06be 00       		.byte	0
 1669 06bf 07       		.uleb128 0x7
 1670 06c0 BA080000 		.4byte	.LASF115
 1671 06c4 0E       		.byte	0xe
 1672 06c5 3C       		.byte	0x3c
 1673 06c6 71020000 		.4byte	0x271
 1674 06ca 08       		.byte	0x8
 1675 06cb 07       		.uleb128 0x7
 1676 06cc 8B070000 		.4byte	.LASF116
 1677 06d0 0E       		.byte	0xe
 1678 06d1 3E       		.byte	0x3e
 1679 06d2 1C070000 		.4byte	0x71c
 1680 06d6 0C       		.byte	0xc
 1681 06d7 00       		.byte	0
 1682 06d8 0A       		.uleb128 0xa
 1683 06d9 04       		.byte	0x4
 1684 06da A7060000 		.4byte	0x6a7
 1685 06de 0A       		.uleb128 0xa
 1686 06df 04       		.byte	0x4
 1687 06e0 E4060000 		.4byte	0x6e4
 1688 06e4 19       		.uleb128 0x19
 1689 06e5 E9060000 		.4byte	0x6e9
 1690 06e9 04       		.uleb128 0x4
 1691 06ea 01       		.byte	0x1
 1692 06eb 08       		.byte	0x8
 1693 06ec 47070000 		.4byte	.LASF117
 1694 06f0 0A       		.uleb128 0xa
 1695 06f1 04       		.byte	0x4
 1696 06f2 C1040000 		.4byte	0x4c1
 1697 06f6 0A       		.uleb128 0xa
 1698 06f7 04       		.byte	0x4
 1699 06f8 50030000 		.4byte	0x350
 1700 06fc 05       		.uleb128 0x5
 1701 06fd DE060000 		.4byte	0x6de
 1702 0701 15       		.uleb128 0x15
 1703 0702 C1040000 		.4byte	0x4c1
 1704 0706 11070000 		.4byte	0x711
 1705 070a 16       		.uleb128 0x16
 1706 070b AF040000 		.4byte	0x4af
 1707 070f 1B       		.byte	0x1b
ARM GAS  C:\Users\jo\AppData\Local\Temp\ccs3alFi.s 			page 33


 1708 0710 00       		.byte	0
 1709 0711 03       		.uleb128 0x3
 1710 0712 66020000 		.4byte	.LASF118
 1711 0716 0E       		.byte	0xe
 1712 0717 34       		.byte	0x34
 1713 0718 A7060000 		.4byte	0x6a7
 1714 071c 0A       		.uleb128 0xa
 1715 071d 04       		.byte	0x4
 1716 071e 11070000 		.4byte	0x711
 1717 0722 0A       		.uleb128 0xa
 1718 0723 04       		.byte	0x4
 1719 0724 B8000000 		.4byte	0xb8
 1720 0728 06       		.uleb128 0x6
 1721 0729 EF060000 		.4byte	.LASF119
 1722 072d 10       		.byte	0x10
 1723 072e 0F       		.byte	0xf
 1724 072f 40       		.byte	0x40
 1725 0730 65070000 		.4byte	0x765
 1726 0734 07       		.uleb128 0x7
 1727 0735 9D040000 		.4byte	.LASF120
 1728 0739 0F       		.byte	0xf
 1729 073a 41       		.byte	0x41
 1730 073b 89070000 		.4byte	0x789
 1731 073f 00       		.byte	0
 1732 0740 07       		.uleb128 0x7
 1733 0741 42070000 		.4byte	.LASF121
 1734 0745 0F       		.byte	0xf
 1735 0746 41       		.byte	0x41
 1736 0747 A8070000 		.4byte	0x7a8
 1737 074b 04       		.byte	0x4
 1738 074c 12       		.uleb128 0x12
 1739 074d 70757400 		.ascii	"put\000"
 1740 0751 0F       		.byte	0xf
 1741 0752 41       		.byte	0x41
 1742 0753 C2070000 		.4byte	0x7c2
 1743 0757 08       		.byte	0x8
 1744 0758 12       		.uleb128 0x12
 1745 0759 67657400 		.ascii	"get\000"
 1746 075d 0F       		.byte	0xf
 1747 075e 41       		.byte	0x41
 1748 075f D7070000 		.4byte	0x7d7
 1749 0763 0C       		.byte	0xc
 1750 0764 00       		.byte	0
 1751 0765 1A       		.uleb128 0x1a
 1752 0766 2C000000 		.4byte	0x2c
 1753 076a 7E070000 		.4byte	0x77e
 1754 076e 0D       		.uleb128 0xd
 1755 076f 4E030000 		.4byte	0x34e
 1756 0773 0D       		.uleb128 0xd
 1757 0774 7E070000 		.4byte	0x77e
 1758 0778 0D       		.uleb128 0xd
 1759 0779 2C000000 		.4byte	0x2c
 1760 077d 00       		.byte	0
 1761 077e 0A       		.uleb128 0xa
 1762 077f 04       		.byte	0x4
 1763 0780 84070000 		.4byte	0x784
 1764 0784 19       		.uleb128 0x19
ARM GAS  C:\Users\jo\AppData\Local\Temp\ccs3alFi.s 			page 34


 1765 0785 B8000000 		.4byte	0xb8
 1766 0789 0A       		.uleb128 0xa
 1767 078a 04       		.byte	0x4
 1768 078b 65070000 		.4byte	0x765
 1769 078f 1A       		.uleb128 0x1a
 1770 0790 2C000000 		.4byte	0x2c
 1771 0794 A8070000 		.4byte	0x7a8
 1772 0798 0D       		.uleb128 0xd
 1773 0799 4E030000 		.4byte	0x34e
 1774 079d 0D       		.uleb128 0xd
 1775 079e 22070000 		.4byte	0x722
 1776 07a2 0D       		.uleb128 0xd
 1777 07a3 2C000000 		.4byte	0x2c
 1778 07a7 00       		.byte	0
 1779 07a8 0A       		.uleb128 0xa
 1780 07a9 04       		.byte	0x4
 1781 07aa 8F070000 		.4byte	0x78f
 1782 07ae 1A       		.uleb128 0x1a
 1783 07af 36010000 		.4byte	0x136
 1784 07b3 C2070000 		.4byte	0x7c2
 1785 07b7 0D       		.uleb128 0xd
 1786 07b8 4E030000 		.4byte	0x34e
 1787 07bc 0D       		.uleb128 0xd
 1788 07bd B8000000 		.4byte	0xb8
 1789 07c1 00       		.byte	0
 1790 07c2 0A       		.uleb128 0xa
 1791 07c3 04       		.byte	0x4
 1792 07c4 AE070000 		.4byte	0x7ae
 1793 07c8 1A       		.uleb128 0x1a
 1794 07c9 36010000 		.4byte	0x136
 1795 07cd D7070000 		.4byte	0x7d7
 1796 07d1 0D       		.uleb128 0xd
 1797 07d2 4E030000 		.4byte	0x34e
 1798 07d6 00       		.byte	0
 1799 07d7 0A       		.uleb128 0xa
 1800 07d8 04       		.byte	0x4
 1801 07d9 C8070000 		.4byte	0x7c8
 1802 07dd 13       		.uleb128 0x13
 1803 07de 04       		.byte	0x4
 1804 07df 0F       		.byte	0xf
 1805 07e0 49       		.byte	0x49
 1806 07e1 F2070000 		.4byte	0x7f2
 1807 07e5 12       		.uleb128 0x12
 1808 07e6 766D7400 		.ascii	"vmt\000"
 1809 07ea 0F       		.byte	0xf
 1810 07eb 4B       		.byte	0x4b
 1811 07ec F2070000 		.4byte	0x7f2
 1812 07f0 00       		.byte	0
 1813 07f1 00       		.byte	0
 1814 07f2 0A       		.uleb128 0xa
 1815 07f3 04       		.byte	0x4
 1816 07f4 F8070000 		.4byte	0x7f8
 1817 07f8 19       		.uleb128 0x19
 1818 07f9 28070000 		.4byte	0x728
 1819 07fd 03       		.uleb128 0x3
 1820 07fe 82020000 		.4byte	.LASF122
 1821 0802 0F       		.byte	0xf
ARM GAS  C:\Users\jo\AppData\Local\Temp\ccs3alFi.s 			page 35


 1822 0803 4D       		.byte	0x4d
 1823 0804 DD070000 		.4byte	0x7dd
 1824 0808 04       		.uleb128 0x4
 1825 0809 01       		.byte	0x1
 1826 080a 02       		.byte	0x2
 1827 080b 19060000 		.4byte	.LASF123
 1828 080f 0A       		.uleb128 0xa
 1829 0810 04       		.byte	0x4
 1830 0811 E9060000 		.4byte	0x6e9
 1831 0815 06       		.uleb128 0x6
 1832 0816 4C070000 		.4byte	.LASF124
 1833 081a 10       		.byte	0x10
 1834 081b 10       		.byte	0x10
 1835 081c 2E       		.byte	0x2e
 1836 081d 52080000 		.4byte	0x852
 1837 0821 07       		.uleb128 0x7
 1838 0822 9D040000 		.4byte	.LASF120
 1839 0826 10       		.byte	0x10
 1840 0827 2F       		.byte	0x2f
 1841 0828 89070000 		.4byte	0x789
 1842 082c 00       		.byte	0
 1843 082d 07       		.uleb128 0x7
 1844 082e 42070000 		.4byte	.LASF121
 1845 0832 10       		.byte	0x10
 1846 0833 2F       		.byte	0x2f
 1847 0834 A8070000 		.4byte	0x7a8
 1848 0838 04       		.byte	0x4
 1849 0839 12       		.uleb128 0x12
 1850 083a 70757400 		.ascii	"put\000"
 1851 083e 10       		.byte	0x10
 1852 083f 2F       		.byte	0x2f
 1853 0840 C2070000 		.4byte	0x7c2
 1854 0844 08       		.byte	0x8
 1855 0845 12       		.uleb128 0x12
 1856 0846 67657400 		.ascii	"get\000"
 1857 084a 10       		.byte	0x10
 1858 084b 2F       		.byte	0x2f
 1859 084c D7070000 		.4byte	0x7d7
 1860 0850 0C       		.byte	0xc
 1861 0851 00       		.byte	0
 1862 0852 13       		.uleb128 0x13
 1863 0853 04       		.byte	0x4
 1864 0854 10       		.byte	0x10
 1865 0855 39       		.byte	0x39
 1866 0856 67080000 		.4byte	0x867
 1867 085a 12       		.uleb128 0x12
 1868 085b 766D7400 		.ascii	"vmt\000"
 1869 085f 10       		.byte	0x10
 1870 0860 3B       		.byte	0x3b
 1871 0861 67080000 		.4byte	0x867
 1872 0865 00       		.byte	0
 1873 0866 00       		.byte	0
 1874 0867 0A       		.uleb128 0xa
 1875 0868 04       		.byte	0x4
 1876 0869 6D080000 		.4byte	0x86d
 1877 086d 19       		.uleb128 0x19
 1878 086e 15080000 		.4byte	0x815
ARM GAS  C:\Users\jo\AppData\Local\Temp\ccs3alFi.s 			page 36


 1879 0872 03       		.uleb128 0x3
 1880 0873 C9050000 		.4byte	.LASF125
 1881 0877 10       		.byte	0x10
 1882 0878 3D       		.byte	0x3d
 1883 0879 52080000 		.4byte	0x852
 1884 087d 03       		.uleb128 0x3
 1885 087e F0040000 		.4byte	.LASF126
 1886 0882 11       		.byte	0x11
 1887 0883 28       		.byte	0x28
 1888 0884 88080000 		.4byte	0x888
 1889 0888 06       		.uleb128 0x6
 1890 0889 D0010000 		.4byte	.LASF127
 1891 088d 04       		.byte	0x4
 1892 088e 12       		.byte	0x12
 1893 088f 00       		.byte	0
 1894 0890 9F080000 		.4byte	0x89f
 1895 0894 1B       		.uleb128 0x1b
 1896 0895 CC070000 		.4byte	.LASF128
 1897 0899 4E030000 		.4byte	0x34e
 1898 089d 00       		.byte	0
 1899 089e 00       		.byte	0
 1900 089f 03       		.uleb128 0x3
 1901 08a0 56000000 		.4byte	.LASF129
 1902 08a4 11       		.byte	0x11
 1903 08a5 62       		.byte	0x62
 1904 08a6 7D080000 		.4byte	0x87d
 1905 08aa 03       		.uleb128 0x3
 1906 08ab E8070000 		.4byte	.LASF130
 1907 08af 13       		.byte	0x13
 1908 08b0 41       		.byte	0x41
 1909 08b1 CE000000 		.4byte	0xce
 1910 08b5 03       		.uleb128 0x3
 1911 08b6 60020000 		.4byte	.LASF131
 1912 08ba 13       		.byte	0x13
 1913 08bb 42       		.byte	0x42
 1914 08bc C3000000 		.4byte	0xc3
 1915 08c0 03       		.uleb128 0x3
 1916 08c1 80060000 		.4byte	.LASF132
 1917 08c5 13       		.byte	0x13
 1918 08c6 43       		.byte	0x43
 1919 08c7 E4000000 		.4byte	0xe4
 1920 08cb 03       		.uleb128 0x3
 1921 08cc 00080000 		.4byte	.LASF133
 1922 08d0 14       		.byte	0x14
 1923 08d1 2E       		.byte	0x2e
 1924 08d2 2C000000 		.4byte	0x2c
 1925 08d6 1C       		.uleb128 0x1c
 1926 08d7 01       		.byte	0x1
 1927 08d8 17       		.byte	0x17
 1928 08d9 2B       		.byte	0x2b
 1929 08da 33090000 		.4byte	0x933
 1930 08de 1D       		.uleb128 0x1d
 1931 08df FF010000 		.4byte	.LASF134
 1932 08e3 00       		.sleb128 0
 1933 08e4 1D       		.uleb128 0x1d
 1934 08e5 08030000 		.4byte	.LASF135
 1935 08e9 01       		.sleb128 1
ARM GAS  C:\Users\jo\AppData\Local\Temp\ccs3alFi.s 			page 37


 1936 08ea 1D       		.uleb128 0x1d
 1937 08eb 2C020000 		.4byte	.LASF136
 1938 08ef 02       		.sleb128 2
 1939 08f0 1D       		.uleb128 0x1d
 1940 08f1 C3000000 		.4byte	.LASF137
 1941 08f5 03       		.sleb128 3
 1942 08f6 1D       		.uleb128 0x1d
 1943 08f7 9F010000 		.4byte	.LASF138
 1944 08fb 04       		.sleb128 4
 1945 08fc 1D       		.uleb128 0x1d
 1946 08fd B7060000 		.4byte	.LASF139
 1947 0901 05       		.sleb128 5
 1948 0902 1D       		.uleb128 0x1d
 1949 0903 59070000 		.4byte	.LASF140
 1950 0907 06       		.sleb128 6
 1951 0908 1D       		.uleb128 0x1d
 1952 0909 75070000 		.4byte	.LASF141
 1953 090d 07       		.sleb128 7
 1954 090e 1D       		.uleb128 0x1d
 1955 090f 2F070000 		.4byte	.LASF142
 1956 0913 08       		.sleb128 8
 1957 0914 1D       		.uleb128 0x1d
 1958 0915 43030000 		.4byte	.LASF143
 1959 0919 09       		.sleb128 9
 1960 091a 1D       		.uleb128 0x1d
 1961 091b DE060000 		.4byte	.LASF144
 1962 091f 0A       		.sleb128 10
 1963 0920 1D       		.uleb128 0x1d
 1964 0921 DB020000 		.4byte	.LASF145
 1965 0925 0B       		.sleb128 11
 1966 0926 1D       		.uleb128 0x1d
 1967 0927 AD000000 		.4byte	.LASF146
 1968 092b 0C       		.sleb128 12
 1969 092c 1D       		.uleb128 0x1d
 1970 092d A3040000 		.4byte	.LASF147
 1971 0931 0D       		.sleb128 13
 1972 0932 00       		.byte	0
 1973 0933 06       		.uleb128 0x6
 1974 0934 95080000 		.4byte	.LASF148
 1975 0938 18       		.byte	0x18
 1976 0939 15       		.byte	0x15
 1977 093a 3A       		.byte	0x3a
 1978 093b CF090000 		.4byte	0x9cf
 1979 093f 07       		.uleb128 0x7
 1980 0940 61080000 		.4byte	.LASF149
 1981 0944 15       		.byte	0x15
 1982 0945 3B       		.byte	0x3b
 1983 0946 AA080000 		.4byte	0x8aa
 1984 094a 00       		.byte	0
 1985 094b 07       		.uleb128 0x7
 1986 094c F0020000 		.4byte	.LASF150
 1987 0950 15       		.byte	0x15
 1988 0951 3C       		.byte	0x3c
 1989 0952 AA080000 		.4byte	0x8aa
 1990 0956 02       		.byte	0x2
 1991 0957 12       		.uleb128 0x12
 1992 0958 667700   		.ascii	"fw\000"
ARM GAS  C:\Users\jo\AppData\Local\Temp\ccs3alFi.s 			page 38


 1993 095b 15       		.byte	0x15
 1994 095c 3D       		.byte	0x3d
 1995 095d AA080000 		.4byte	0x8aa
 1996 0961 04       		.byte	0x4
 1997 0962 07       		.uleb128 0x7
 1998 0963 6D060000 		.4byte	.LASF151
 1999 0967 15       		.byte	0x15
 2000 0968 3E       		.byte	0x3e
 2001 0969 AA080000 		.4byte	0x8aa
 2002 096d 06       		.byte	0x6
 2003 096e 07       		.uleb128 0x7
 2004 096f 6D000000 		.4byte	.LASF152
 2005 0973 15       		.byte	0x15
 2006 0974 3F       		.byte	0x3f
 2007 0975 AA080000 		.4byte	0x8aa
 2008 0979 08       		.byte	0x8
 2009 097a 07       		.uleb128 0x7
 2010 097b 24080000 		.4byte	.LASF153
 2011 097f 15       		.byte	0x15
 2012 0980 40       		.byte	0x40
 2013 0981 AA080000 		.4byte	0x8aa
 2014 0985 0A       		.byte	0xa
 2015 0986 07       		.uleb128 0x7
 2016 0987 BC000000 		.4byte	.LASF154
 2017 098b 15       		.byte	0x15
 2018 098c 41       		.byte	0x41
 2019 098d AA080000 		.4byte	0x8aa
 2020 0991 0C       		.byte	0xc
 2021 0992 07       		.uleb128 0x7
 2022 0993 C3050000 		.4byte	.LASF155
 2023 0997 15       		.byte	0x15
 2024 0998 42       		.byte	0x42
 2025 0999 AA080000 		.4byte	0x8aa
 2026 099d 0E       		.byte	0xe
 2027 099e 07       		.uleb128 0x7
 2028 099f AC020000 		.4byte	.LASF156
 2029 09a3 15       		.byte	0x15
 2030 09a4 43       		.byte	0x43
 2031 09a5 AA080000 		.4byte	0x8aa
 2032 09a9 10       		.byte	0x10
 2033 09aa 07       		.uleb128 0x7
 2034 09ab 00010000 		.4byte	.LASF157
 2035 09af 15       		.byte	0x15
 2036 09b0 44       		.byte	0x44
 2037 09b1 AA080000 		.4byte	0x8aa
 2038 09b5 12       		.byte	0x12
 2039 09b6 12       		.uleb128 0x12
 2040 09b7 65727200 		.ascii	"err\000"
 2041 09bb 15       		.byte	0x15
 2042 09bc 45       		.byte	0x45
 2043 09bd AA080000 		.4byte	0x8aa
 2044 09c1 14       		.byte	0x14
 2045 09c2 07       		.uleb128 0x7
 2046 09c3 E6000000 		.4byte	.LASF158
 2047 09c7 15       		.byte	0x15
 2048 09c8 46       		.byte	0x46
 2049 09c9 AA080000 		.4byte	0x8aa
ARM GAS  C:\Users\jo\AppData\Local\Temp\ccs3alFi.s 			page 39


 2050 09cd 16       		.byte	0x16
 2051 09ce 00       		.byte	0
 2052 09cf 06       		.uleb128 0x6
 2053 09d0 33080000 		.4byte	.LASF159
 2054 09d4 14       		.byte	0x14
 2055 09d5 15       		.byte	0x15
 2056 09d6 5A       		.byte	0x5a
 2057 09d7 240A0000 		.4byte	0xa24
 2058 09db 07       		.uleb128 0x7
 2059 09dc 03030000 		.4byte	.LASF160
 2060 09e0 15       		.byte	0x15
 2061 09e1 5C       		.byte	0x5c
 2062 09e2 DE060000 		.4byte	0x6de
 2063 09e6 00       		.byte	0
 2064 09e7 07       		.uleb128 0x7
 2065 09e8 66080000 		.4byte	.LASF161
 2066 09ec 15       		.byte	0x15
 2067 09ed 5E       		.byte	0x5e
 2068 09ee CB080000 		.4byte	0x8cb
 2069 09f2 04       		.byte	0x4
 2070 09f3 07       		.uleb128 0x7
 2071 09f4 B9050000 		.4byte	.LASF162
 2072 09f8 15       		.byte	0x15
 2073 09f9 5F       		.byte	0x5f
 2074 09fa CB080000 		.4byte	0x8cb
 2075 09fe 08       		.byte	0x8
 2076 09ff 12       		.uleb128 0x12
 2077 0a00 6D617800 		.ascii	"max\000"
 2078 0a04 15       		.byte	0x15
 2079 0a05 60       		.byte	0x60
 2080 0a06 CB080000 		.4byte	0x8cb
 2081 0a0a 0C       		.byte	0xc
 2082 0a0b 12       		.uleb128 0x12
 2083 0a0c 65727200 		.ascii	"err\000"
 2084 0a10 15       		.byte	0x15
 2085 0a11 61       		.byte	0x61
 2086 0a12 AA080000 		.4byte	0x8aa
 2087 0a16 10       		.byte	0x10
 2088 0a17 07       		.uleb128 0x7
 2089 0a18 F7010000 		.4byte	.LASF163
 2090 0a1c 15       		.byte	0x15
 2091 0a1d 62       		.byte	0x62
 2092 0a1e AA080000 		.4byte	0x8aa
 2093 0a22 12       		.byte	0x12
 2094 0a23 00       		.byte	0
 2095 0a24 06       		.uleb128 0x6
 2096 0a25 79050000 		.4byte	.LASF164
 2097 0a29 06       		.byte	0x6
 2098 0a2a 15       		.byte	0x15
 2099 0a2b 65       		.byte	0x65
 2100 0a2c 550A0000 		.4byte	0xa55
 2101 0a30 07       		.uleb128 0x7
 2102 0a31 B9050000 		.4byte	.LASF162
 2103 0a35 15       		.byte	0x15
 2104 0a36 66       		.byte	0x66
 2105 0a37 AA080000 		.4byte	0x8aa
 2106 0a3b 00       		.byte	0
ARM GAS  C:\Users\jo\AppData\Local\Temp\ccs3alFi.s 			page 40


 2107 0a3c 12       		.uleb128 0x12
 2108 0a3d 6D617800 		.ascii	"max\000"
 2109 0a41 15       		.byte	0x15
 2110 0a42 67       		.byte	0x67
 2111 0a43 AA080000 		.4byte	0x8aa
 2112 0a47 02       		.byte	0x2
 2113 0a48 12       		.uleb128 0x12
 2114 0a49 65727200 		.ascii	"err\000"
 2115 0a4d 15       		.byte	0x15
 2116 0a4e 68       		.byte	0x68
 2117 0a4f AA080000 		.4byte	0x8aa
 2118 0a53 04       		.byte	0x4
 2119 0a54 00       		.byte	0
 2120 0a55 06       		.uleb128 0x6
 2121 0a56 9C030000 		.4byte	.LASF165
 2122 0a5a 12       		.byte	0x12
 2123 0a5b 15       		.byte	0x15
 2124 0a5c 6B       		.byte	0x6b
 2125 0a5d 860A0000 		.4byte	0xa86
 2126 0a61 12       		.uleb128 0x12
 2127 0a62 73656D00 		.ascii	"sem\000"
 2128 0a66 15       		.byte	0x15
 2129 0a67 6C       		.byte	0x6c
 2130 0a68 240A0000 		.4byte	0xa24
 2131 0a6c 00       		.byte	0
 2132 0a6d 07       		.uleb128 0x7
 2133 0a6e FC050000 		.4byte	.LASF166
 2134 0a72 15       		.byte	0x15
 2135 0a73 6D       		.byte	0x6d
 2136 0a74 240A0000 		.4byte	0xa24
 2137 0a78 06       		.byte	0x6
 2138 0a79 07       		.uleb128 0x7
 2139 0a7a BE050000 		.4byte	.LASF167
 2140 0a7e 15       		.byte	0x15
 2141 0a7f 6E       		.byte	0x6e
 2142 0a80 240A0000 		.4byte	0xa24
 2143 0a84 0C       		.byte	0xc
 2144 0a85 00       		.byte	0
 2145 0a86 1E       		.uleb128 0x1e
 2146 0a87 A2050000 		.4byte	.LASF168
 2147 0a8b D401     		.2byte	0x1d4
 2148 0a8d 15       		.byte	0x15
 2149 0a8e 71       		.byte	0x71
 2150 0a8f 0C0B0000 		.4byte	0xb0c
 2151 0a93 07       		.uleb128 0x7
 2152 0a94 51020000 		.4byte	.LASF169
 2153 0a98 15       		.byte	0x15
 2154 0a99 73       		.byte	0x73
 2155 0a9a 33090000 		.4byte	0x933
 2156 0a9e 00       		.byte	0
 2157 0a9f 07       		.uleb128 0x7
 2158 0aa0 E7010000 		.4byte	.LASF170
 2159 0aa4 15       		.byte	0x15
 2160 0aa5 76       		.byte	0x76
 2161 0aa6 33090000 		.4byte	0x933
 2162 0aaa 18       		.byte	0x18
 2163 0aab 07       		.uleb128 0x7
ARM GAS  C:\Users\jo\AppData\Local\Temp\ccs3alFi.s 			page 41


 2164 0aac 38000000 		.4byte	.LASF171
 2165 0ab0 15       		.byte	0x15
 2166 0ab1 79       		.byte	0x79
 2167 0ab2 33090000 		.4byte	0x933
 2168 0ab6 30       		.byte	0x30
 2169 0ab7 12       		.uleb128 0x12
 2170 0ab8 697000   		.ascii	"ip\000"
 2171 0abb 15       		.byte	0x15
 2172 0abc 7C       		.byte	0x7c
 2173 0abd 33090000 		.4byte	0x933
 2174 0ac1 48       		.byte	0x48
 2175 0ac2 07       		.uleb128 0x7
 2176 0ac3 A9050000 		.4byte	.LASF172
 2177 0ac7 15       		.byte	0x15
 2178 0ac8 7F       		.byte	0x7f
 2179 0ac9 33090000 		.4byte	0x933
 2180 0acd 60       		.byte	0x60
 2181 0ace 12       		.uleb128 0x12
 2182 0acf 75647000 		.ascii	"udp\000"
 2183 0ad3 15       		.byte	0x15
 2184 0ad4 85       		.byte	0x85
 2185 0ad5 33090000 		.4byte	0x933
 2186 0ad9 78       		.byte	0x78
 2187 0ada 12       		.uleb128 0x12
 2188 0adb 74637000 		.ascii	"tcp\000"
 2189 0adf 15       		.byte	0x15
 2190 0ae0 88       		.byte	0x88
 2191 0ae1 33090000 		.4byte	0x933
 2192 0ae5 90       		.byte	0x90
 2193 0ae6 12       		.uleb128 0x12
 2194 0ae7 6D656D00 		.ascii	"mem\000"
 2195 0aeb 15       		.byte	0x15
 2196 0aec 8B       		.byte	0x8b
 2197 0aed CF090000 		.4byte	0x9cf
 2198 0af1 A8       		.byte	0xa8
 2199 0af2 07       		.uleb128 0x7
 2200 0af3 70070000 		.4byte	.LASF173
 2201 0af7 15       		.byte	0x15
 2202 0af8 8E       		.byte	0x8e
 2203 0af9 0C0B0000 		.4byte	0xb0c
 2204 0afd BC       		.byte	0xbc
 2205 0afe 1F       		.uleb128 0x1f
 2206 0aff 73797300 		.ascii	"sys\000"
 2207 0b03 15       		.byte	0x15
 2208 0b04 91       		.byte	0x91
 2209 0b05 550A0000 		.4byte	0xa55
 2210 0b09 C001     		.2byte	0x1c0
 2211 0b0b 00       		.byte	0
 2212 0b0c 15       		.uleb128 0x15
 2213 0b0d CF090000 		.4byte	0x9cf
 2214 0b11 1C0B0000 		.4byte	0xb1c
 2215 0b15 16       		.uleb128 0x16
 2216 0b16 AF040000 		.4byte	0x4af
 2217 0b1a 0C       		.byte	0xc
 2218 0b1b 00       		.byte	0
 2219 0b1c 20       		.uleb128 0x20
 2220 0b1d DA080000 		.4byte	.LASF190
ARM GAS  C:\Users\jo\AppData\Local\Temp\ccs3alFi.s 			page 42


 2221 0b21 01       		.byte	0x1
 2222 0b22 45       		.byte	0x45
 2223 0b23 25000000 		.4byte	0x25
 2224 0b27 03       		.byte	0x3
 2225 0b28 590B0000 		.4byte	0xb59
 2226 0b2c 21       		.uleb128 0x21
 2227 0b2d 63687000 		.ascii	"chp\000"
 2228 0b31 01       		.byte	0x1
 2229 0b32 45       		.byte	0x45
 2230 0b33 590B0000 		.4byte	0xb59
 2231 0b37 21       		.uleb128 0x21
 2232 0b38 666D7400 		.ascii	"fmt\000"
 2233 0b3c 01       		.byte	0x1
 2234 0b3d 45       		.byte	0x45
 2235 0b3e DE060000 		.4byte	0x6de
 2236 0b42 22       		.uleb128 0x22
 2237 0b43 23       		.uleb128 0x23
 2238 0b44 617000   		.ascii	"ap\000"
 2239 0b47 01       		.byte	0x1
 2240 0b48 46       		.byte	0x46
 2241 0b49 9F080000 		.4byte	0x89f
 2242 0b4d 24       		.uleb128 0x24
 2243 0b4e 8B000000 		.4byte	.LASF174
 2244 0b52 01       		.byte	0x1
 2245 0b53 47       		.byte	0x47
 2246 0b54 25000000 		.4byte	0x25
 2247 0b58 00       		.byte	0
 2248 0b59 0A       		.uleb128 0xa
 2249 0b5a 04       		.byte	0x4
 2250 0b5b FD070000 		.4byte	0x7fd
 2251 0b5f 25       		.uleb128 0x25
 2252 0b60 1C0B0000 		.4byte	0xb1c
 2253 0b64 00000000 		.4byte	.LFB266
 2254 0b68 24000000 		.4byte	.LFE266-.LFB266
 2255 0b6c 01       		.uleb128 0x1
 2256 0b6d 9C       		.byte	0x9c
 2257 0b6e B00B0000 		.4byte	0xbb0
 2258 0b72 26       		.uleb128 0x26
 2259 0b73 2C0B0000 		.4byte	0xb2c
 2260 0b77 00000000 		.4byte	.LLST0
 2261 0b7b 27       		.uleb128 0x27
 2262 0b7c 370B0000 		.4byte	0xb37
 2263 0b80 02       		.uleb128 0x2
 2264 0b81 91       		.byte	0x91
 2265 0b82 74       		.sleb128 -12
 2266 0b83 22       		.uleb128 0x22
 2267 0b84 28       		.uleb128 0x28
 2268 0b85 430B0000 		.4byte	0xb43
 2269 0b89 02       		.uleb128 0x2
 2270 0b8a 91       		.byte	0x91
 2271 0b8b 6C       		.sleb128 -20
 2272 0b8c 28       		.uleb128 0x28
 2273 0b8d 4D0B0000 		.4byte	0xb4d
 2274 0b91 01       		.uleb128 0x1
 2275 0b92 50       		.byte	0x50
 2276 0b93 29       		.uleb128 0x29
 2277 0b94 2C0B0000 		.4byte	0xb2c
ARM GAS  C:\Users\jo\AppData\Local\Temp\ccs3alFi.s 			page 43


 2278 0b98 2A       		.uleb128 0x2a
 2279 0b99 14000000 		.4byte	.LVL2
 2280 0b9d 94110000 		.4byte	0x1194
 2281 0ba1 2B       		.uleb128 0x2b
 2282 0ba2 01       		.uleb128 0x1
 2283 0ba3 52       		.byte	0x52
 2284 0ba4 02       		.uleb128 0x2
 2285 0ba5 91       		.byte	0x91
 2286 0ba6 60       		.sleb128 -32
 2287 0ba7 2B       		.uleb128 0x2b
 2288 0ba8 01       		.uleb128 0x1
 2289 0ba9 51       		.byte	0x51
 2290 0baa 03       		.uleb128 0x3
 2291 0bab 91       		.byte	0x91
 2292 0bac 5C       		.sleb128 -36
 2293 0bad 06       		.byte	0x6
 2294 0bae 00       		.byte	0
 2295 0baf 00       		.byte	0
 2296 0bb0 2C       		.uleb128 0x2c
 2297 0bb1 1A050000 		.4byte	.LASF176
 2298 0bb5 02       		.byte	0x2
 2299 0bb6 33       		.byte	0x33
 2300 0bb7 00000000 		.4byte	.LFB260
 2301 0bbb 48000000 		.4byte	.LFE260-.LFB260
 2302 0bbf 01       		.uleb128 0x1
 2303 0bc0 9C       		.byte	0x9c
 2304 0bc1 E20B0000 		.4byte	0xbe2
 2305 0bc5 2D       		.uleb128 0x2d
 2306 0bc6 1B030000 		.4byte	.LASF175
 2307 0bca 02       		.byte	0x2
 2308 0bcb 37       		.byte	0x37
 2309 0bcc E20B0000 		.4byte	0xbe2
 2310 0bd0 03       		.uleb128 0x3
 2311 0bd1 91       		.byte	0x91
 2312 0bd2 BC7F     		.sleb128 -68
 2313 0bd4 2E       		.uleb128 0x2e
 2314 0bd5 6900     		.ascii	"i\000"
 2315 0bd7 02       		.byte	0x2
 2316 0bd8 3B       		.byte	0x3b
 2317 0bd9 25000000 		.4byte	0x25
 2318 0bdd 21000000 		.4byte	.LLST1
 2319 0be1 00       		.byte	0
 2320 0be2 15       		.uleb128 0x15
 2321 0be3 DE060000 		.4byte	0x6de
 2322 0be7 F20B0000 		.4byte	0xbf2
 2323 0beb 16       		.uleb128 0x16
 2324 0bec AF040000 		.4byte	0x4af
 2325 0bf0 0C       		.byte	0xc
 2326 0bf1 00       		.byte	0
 2327 0bf2 2C       		.uleb128 0x2c
 2328 0bf3 6E020000 		.4byte	.LASF177
 2329 0bf7 02       		.byte	0x2
 2330 0bf8 48       		.byte	0x48
 2331 0bf9 00000000 		.4byte	.LFB261
 2332 0bfd C4000000 		.4byte	.LFE261-.LFB261
 2333 0c01 01       		.uleb128 0x1
 2334 0c02 9C       		.byte	0x9c
ARM GAS  C:\Users\jo\AppData\Local\Temp\ccs3alFi.s 			page 44


 2335 0c03 9C0D0000 		.4byte	0xd9c
 2336 0c07 2F       		.uleb128 0x2f
 2337 0c08 A0060000 		.4byte	.LASF178
 2338 0c0c 02       		.byte	0x2
 2339 0c0d 48       		.byte	0x48
 2340 0c0e 9C0D0000 		.4byte	0xd9c
 2341 0c12 35000000 		.4byte	.LLST2
 2342 0c16 2F       		.uleb128 0x2f
 2343 0c17 03030000 		.4byte	.LASF160
 2344 0c1b 02       		.byte	0x2
 2345 0c1c 48       		.byte	0x48
 2346 0c1d DE060000 		.4byte	0x6de
 2347 0c21 61000000 		.4byte	.LLST3
 2348 0c25 30       		.uleb128 0x30
 2349 0c26 10000000 		.4byte	.LVL8
 2350 0c2a 5F0B0000 		.4byte	0xb5f
 2351 0c2e 490C0000 		.4byte	0xc49
 2352 0c32 2B       		.uleb128 0x2b
 2353 0c33 01       		.uleb128 0x1
 2354 0c34 52       		.byte	0x52
 2355 0c35 03       		.uleb128 0x3
 2356 0c36 F3       		.byte	0xf3
 2357 0c37 01       		.uleb128 0x1
 2358 0c38 51       		.byte	0x51
 2359 0c39 2B       		.uleb128 0x2b
 2360 0c3a 01       		.uleb128 0x1
 2361 0c3b 51       		.byte	0x51
 2362 0c3c 05       		.uleb128 0x5
 2363 0c3d 03       		.byte	0x3
 2364 0c3e 04000000 		.4byte	.LC17
 2365 0c42 2B       		.uleb128 0x2b
 2366 0c43 01       		.uleb128 0x1
 2367 0c44 50       		.byte	0x50
 2368 0c45 02       		.uleb128 0x2
 2369 0c46 74       		.byte	0x74
 2370 0c47 00       		.sleb128 0
 2371 0c48 00       		.byte	0
 2372 0c49 30       		.uleb128 0x30
 2373 0c4a 1A000000 		.4byte	.LVL9
 2374 0c4e 5F0B0000 		.4byte	0xb5f
 2375 0c52 660C0000 		.4byte	0xc66
 2376 0c56 2B       		.uleb128 0x2b
 2377 0c57 01       		.uleb128 0x1
 2378 0c58 51       		.byte	0x51
 2379 0c59 05       		.uleb128 0x5
 2380 0c5a 03       		.byte	0x3
 2381 0c5b 0C000000 		.4byte	.LC18
 2382 0c5f 2B       		.uleb128 0x2b
 2383 0c60 01       		.uleb128 0x1
 2384 0c61 50       		.byte	0x50
 2385 0c62 02       		.uleb128 0x2
 2386 0c63 74       		.byte	0x74
 2387 0c64 00       		.sleb128 0
 2388 0c65 00       		.byte	0
 2389 0c66 30       		.uleb128 0x30
 2390 0c67 24000000 		.4byte	.LVL10
 2391 0c6b 5F0B0000 		.4byte	0xb5f
ARM GAS  C:\Users\jo\AppData\Local\Temp\ccs3alFi.s 			page 45


 2392 0c6f 830C0000 		.4byte	0xc83
 2393 0c73 2B       		.uleb128 0x2b
 2394 0c74 01       		.uleb128 0x1
 2395 0c75 51       		.byte	0x51
 2396 0c76 05       		.uleb128 0x5
 2397 0c77 03       		.byte	0x3
 2398 0c78 18000000 		.4byte	.LC19
 2399 0c7c 2B       		.uleb128 0x2b
 2400 0c7d 01       		.uleb128 0x1
 2401 0c7e 50       		.byte	0x50
 2402 0c7f 02       		.uleb128 0x2
 2403 0c80 74       		.byte	0x74
 2404 0c81 00       		.sleb128 0
 2405 0c82 00       		.byte	0
 2406 0c83 30       		.uleb128 0x30
 2407 0c84 2E000000 		.4byte	.LVL11
 2408 0c88 5F0B0000 		.4byte	0xb5f
 2409 0c8c A00C0000 		.4byte	0xca0
 2410 0c90 2B       		.uleb128 0x2b
 2411 0c91 01       		.uleb128 0x1
 2412 0c92 51       		.byte	0x51
 2413 0c93 05       		.uleb128 0x5
 2414 0c94 03       		.byte	0x3
 2415 0c95 24000000 		.4byte	.LC20
 2416 0c99 2B       		.uleb128 0x2b
 2417 0c9a 01       		.uleb128 0x1
 2418 0c9b 50       		.byte	0x50
 2419 0c9c 02       		.uleb128 0x2
 2420 0c9d 74       		.byte	0x74
 2421 0c9e 00       		.sleb128 0
 2422 0c9f 00       		.byte	0
 2423 0ca0 30       		.uleb128 0x30
 2424 0ca1 38000000 		.4byte	.LVL12
 2425 0ca5 5F0B0000 		.4byte	0xb5f
 2426 0ca9 BD0C0000 		.4byte	0xcbd
 2427 0cad 2B       		.uleb128 0x2b
 2428 0cae 01       		.uleb128 0x1
 2429 0caf 51       		.byte	0x51
 2430 0cb0 05       		.uleb128 0x5
 2431 0cb1 03       		.byte	0x3
 2432 0cb2 30000000 		.4byte	.LC21
 2433 0cb6 2B       		.uleb128 0x2b
 2434 0cb7 01       		.uleb128 0x1
 2435 0cb8 50       		.byte	0x50
 2436 0cb9 02       		.uleb128 0x2
 2437 0cba 74       		.byte	0x74
 2438 0cbb 00       		.sleb128 0
 2439 0cbc 00       		.byte	0
 2440 0cbd 30       		.uleb128 0x30
 2441 0cbe 42000000 		.4byte	.LVL13
 2442 0cc2 5F0B0000 		.4byte	0xb5f
 2443 0cc6 DA0C0000 		.4byte	0xcda
 2444 0cca 2B       		.uleb128 0x2b
 2445 0ccb 01       		.uleb128 0x1
 2446 0ccc 51       		.byte	0x51
 2447 0ccd 05       		.uleb128 0x5
 2448 0cce 03       		.byte	0x3
ARM GAS  C:\Users\jo\AppData\Local\Temp\ccs3alFi.s 			page 46


 2449 0ccf 3C000000 		.4byte	.LC22
 2450 0cd3 2B       		.uleb128 0x2b
 2451 0cd4 01       		.uleb128 0x1
 2452 0cd5 50       		.byte	0x50
 2453 0cd6 02       		.uleb128 0x2
 2454 0cd7 74       		.byte	0x74
 2455 0cd8 00       		.sleb128 0
 2456 0cd9 00       		.byte	0
 2457 0cda 30       		.uleb128 0x30
 2458 0cdb 4C000000 		.4byte	.LVL14
 2459 0cdf 5F0B0000 		.4byte	0xb5f
 2460 0ce3 F70C0000 		.4byte	0xcf7
 2461 0ce7 2B       		.uleb128 0x2b
 2462 0ce8 01       		.uleb128 0x1
 2463 0ce9 51       		.byte	0x51
 2464 0cea 05       		.uleb128 0x5
 2465 0ceb 03       		.byte	0x3
 2466 0cec 4C000000 		.4byte	.LC23
 2467 0cf0 2B       		.uleb128 0x2b
 2468 0cf1 01       		.uleb128 0x1
 2469 0cf2 50       		.byte	0x50
 2470 0cf3 02       		.uleb128 0x2
 2471 0cf4 74       		.byte	0x74
 2472 0cf5 00       		.sleb128 0
 2473 0cf6 00       		.byte	0
 2474 0cf7 30       		.uleb128 0x30
 2475 0cf8 56000000 		.4byte	.LVL15
 2476 0cfc 5F0B0000 		.4byte	0xb5f
 2477 0d00 140D0000 		.4byte	0xd14
 2478 0d04 2B       		.uleb128 0x2b
 2479 0d05 01       		.uleb128 0x1
 2480 0d06 51       		.byte	0x51
 2481 0d07 05       		.uleb128 0x5
 2482 0d08 03       		.byte	0x3
 2483 0d09 5C000000 		.4byte	.LC24
 2484 0d0d 2B       		.uleb128 0x2b
 2485 0d0e 01       		.uleb128 0x1
 2486 0d0f 50       		.byte	0x50
 2487 0d10 02       		.uleb128 0x2
 2488 0d11 74       		.byte	0x74
 2489 0d12 00       		.sleb128 0
 2490 0d13 00       		.byte	0
 2491 0d14 30       		.uleb128 0x30
 2492 0d15 60000000 		.4byte	.LVL16
 2493 0d19 5F0B0000 		.4byte	0xb5f
 2494 0d1d 310D0000 		.4byte	0xd31
 2495 0d21 2B       		.uleb128 0x2b
 2496 0d22 01       		.uleb128 0x1
 2497 0d23 51       		.byte	0x51
 2498 0d24 05       		.uleb128 0x5
 2499 0d25 03       		.byte	0x3
 2500 0d26 6C000000 		.4byte	.LC25
 2501 0d2a 2B       		.uleb128 0x2b
 2502 0d2b 01       		.uleb128 0x1
 2503 0d2c 50       		.byte	0x50
 2504 0d2d 02       		.uleb128 0x2
 2505 0d2e 74       		.byte	0x74
ARM GAS  C:\Users\jo\AppData\Local\Temp\ccs3alFi.s 			page 47


 2506 0d2f 00       		.sleb128 0
 2507 0d30 00       		.byte	0
 2508 0d31 30       		.uleb128 0x30
 2509 0d32 6A000000 		.4byte	.LVL17
 2510 0d36 5F0B0000 		.4byte	0xb5f
 2511 0d3a 4E0D0000 		.4byte	0xd4e
 2512 0d3e 2B       		.uleb128 0x2b
 2513 0d3f 01       		.uleb128 0x1
 2514 0d40 51       		.byte	0x51
 2515 0d41 05       		.uleb128 0x5
 2516 0d42 03       		.byte	0x3
 2517 0d43 78000000 		.4byte	.LC26
 2518 0d47 2B       		.uleb128 0x2b
 2519 0d48 01       		.uleb128 0x1
 2520 0d49 50       		.byte	0x50
 2521 0d4a 02       		.uleb128 0x2
 2522 0d4b 74       		.byte	0x74
 2523 0d4c 00       		.sleb128 0
 2524 0d4d 00       		.byte	0
 2525 0d4e 30       		.uleb128 0x30
 2526 0d4f 74000000 		.4byte	.LVL18
 2527 0d53 5F0B0000 		.4byte	0xb5f
 2528 0d57 6B0D0000 		.4byte	0xd6b
 2529 0d5b 2B       		.uleb128 0x2b
 2530 0d5c 01       		.uleb128 0x1
 2531 0d5d 51       		.byte	0x51
 2532 0d5e 05       		.uleb128 0x5
 2533 0d5f 03       		.byte	0x3
 2534 0d60 88000000 		.4byte	.LC27
 2535 0d64 2B       		.uleb128 0x2b
 2536 0d65 01       		.uleb128 0x1
 2537 0d66 50       		.byte	0x50
 2538 0d67 02       		.uleb128 0x2
 2539 0d68 74       		.byte	0x74
 2540 0d69 00       		.sleb128 0
 2541 0d6a 00       		.byte	0
 2542 0d6b 30       		.uleb128 0x30
 2543 0d6c 7E000000 		.4byte	.LVL19
 2544 0d70 5F0B0000 		.4byte	0xb5f
 2545 0d74 880D0000 		.4byte	0xd88
 2546 0d78 2B       		.uleb128 0x2b
 2547 0d79 01       		.uleb128 0x1
 2548 0d7a 51       		.byte	0x51
 2549 0d7b 05       		.uleb128 0x5
 2550 0d7c 03       		.byte	0x3
 2551 0d7d 98000000 		.4byte	.LC28
 2552 0d81 2B       		.uleb128 0x2b
 2553 0d82 01       		.uleb128 0x1
 2554 0d83 50       		.byte	0x50
 2555 0d84 02       		.uleb128 0x2
 2556 0d85 74       		.byte	0x74
 2557 0d86 00       		.sleb128 0
 2558 0d87 00       		.byte	0
 2559 0d88 31       		.uleb128 0x31
 2560 0d89 8C000000 		.4byte	.LVL21
 2561 0d8d 5F0B0000 		.4byte	0xb5f
 2562 0d91 2B       		.uleb128 0x2b
ARM GAS  C:\Users\jo\AppData\Local\Temp\ccs3alFi.s 			page 48


 2563 0d92 01       		.uleb128 0x1
 2564 0d93 51       		.byte	0x51
 2565 0d94 05       		.uleb128 0x5
 2566 0d95 03       		.byte	0x3
 2567 0d96 A4000000 		.4byte	.LC29
 2568 0d9a 00       		.byte	0
 2569 0d9b 00       		.byte	0
 2570 0d9c 0A       		.uleb128 0xa
 2571 0d9d 04       		.byte	0x4
 2572 0d9e 33090000 		.4byte	0x933
 2573 0da2 2C       		.uleb128 0x2c
 2574 0da3 45080000 		.4byte	.LASF179
 2575 0da7 02       		.byte	0x2
 2576 0da8 71       		.byte	0x71
 2577 0da9 00000000 		.4byte	.LFB262
 2578 0dad 54000000 		.4byte	.LFE262-.LFB262
 2579 0db1 01       		.uleb128 0x1
 2580 0db2 9C       		.byte	0x9c
 2581 0db3 640E0000 		.4byte	0xe64
 2582 0db7 32       		.uleb128 0x32
 2583 0db8 6D656D00 		.ascii	"mem\000"
 2584 0dbc 02       		.byte	0x2
 2585 0dbd 71       		.byte	0x71
 2586 0dbe 640E0000 		.4byte	0xe64
 2587 0dc2 8D000000 		.4byte	.LLST4
 2588 0dc6 2F       		.uleb128 0x2f
 2589 0dc7 03030000 		.4byte	.LASF160
 2590 0dcb 02       		.byte	0x2
 2591 0dcc 71       		.byte	0x71
 2592 0dcd DE060000 		.4byte	0x6de
 2593 0dd1 B9000000 		.4byte	.LLST5
 2594 0dd5 30       		.uleb128 0x30
 2595 0dd6 10000000 		.4byte	.LVL25
 2596 0dda 5F0B0000 		.4byte	0xb5f
 2597 0dde F90D0000 		.4byte	0xdf9
 2598 0de2 2B       		.uleb128 0x2b
 2599 0de3 01       		.uleb128 0x1
 2600 0de4 52       		.byte	0x52
 2601 0de5 03       		.uleb128 0x3
 2602 0de6 F3       		.byte	0xf3
 2603 0de7 01       		.uleb128 0x1
 2604 0de8 51       		.byte	0x51
 2605 0de9 2B       		.uleb128 0x2b
 2606 0dea 01       		.uleb128 0x1
 2607 0deb 51       		.byte	0x51
 2608 0dec 05       		.uleb128 0x5
 2609 0ded 03       		.byte	0x3
 2610 0dee B4000000 		.4byte	.LC30
 2611 0df2 2B       		.uleb128 0x2b
 2612 0df3 01       		.uleb128 0x1
 2613 0df4 50       		.byte	0x50
 2614 0df5 02       		.uleb128 0x2
 2615 0df6 74       		.byte	0x74
 2616 0df7 00       		.sleb128 0
 2617 0df8 00       		.byte	0
 2618 0df9 30       		.uleb128 0x30
 2619 0dfa 1A000000 		.4byte	.LVL26
ARM GAS  C:\Users\jo\AppData\Local\Temp\ccs3alFi.s 			page 49


 2620 0dfe 5F0B0000 		.4byte	0xb5f
 2621 0e02 160E0000 		.4byte	0xe16
 2622 0e06 2B       		.uleb128 0x2b
 2623 0e07 01       		.uleb128 0x1
 2624 0e08 51       		.byte	0x51
 2625 0e09 05       		.uleb128 0x5
 2626 0e0a 03       		.byte	0x3
 2627 0e0b C0000000 		.4byte	.LC31
 2628 0e0f 2B       		.uleb128 0x2b
 2629 0e10 01       		.uleb128 0x1
 2630 0e11 50       		.byte	0x50
 2631 0e12 02       		.uleb128 0x2
 2632 0e13 74       		.byte	0x74
 2633 0e14 00       		.sleb128 0
 2634 0e15 00       		.byte	0
 2635 0e16 30       		.uleb128 0x30
 2636 0e17 24000000 		.4byte	.LVL27
 2637 0e1b 5F0B0000 		.4byte	0xb5f
 2638 0e1f 330E0000 		.4byte	0xe33
 2639 0e23 2B       		.uleb128 0x2b
 2640 0e24 01       		.uleb128 0x1
 2641 0e25 51       		.byte	0x51
 2642 0e26 05       		.uleb128 0x5
 2643 0e27 03       		.byte	0x3
 2644 0e28 CC000000 		.4byte	.LC32
 2645 0e2c 2B       		.uleb128 0x2b
 2646 0e2d 01       		.uleb128 0x1
 2647 0e2e 50       		.byte	0x50
 2648 0e2f 02       		.uleb128 0x2
 2649 0e30 74       		.byte	0x74
 2650 0e31 00       		.sleb128 0
 2651 0e32 00       		.byte	0
 2652 0e33 30       		.uleb128 0x30
 2653 0e34 2E000000 		.4byte	.LVL28
 2654 0e38 5F0B0000 		.4byte	0xb5f
 2655 0e3c 500E0000 		.4byte	0xe50
 2656 0e40 2B       		.uleb128 0x2b
 2657 0e41 01       		.uleb128 0x1
 2658 0e42 51       		.byte	0x51
 2659 0e43 05       		.uleb128 0x5
 2660 0e44 03       		.byte	0x3
 2661 0e45 D8000000 		.4byte	.LC33
 2662 0e49 2B       		.uleb128 0x2b
 2663 0e4a 01       		.uleb128 0x1
 2664 0e4b 50       		.byte	0x50
 2665 0e4c 02       		.uleb128 0x2
 2666 0e4d 74       		.byte	0x74
 2667 0e4e 00       		.sleb128 0
 2668 0e4f 00       		.byte	0
 2669 0e50 31       		.uleb128 0x31
 2670 0e51 3C000000 		.4byte	.LVL30
 2671 0e55 5F0B0000 		.4byte	0xb5f
 2672 0e59 2B       		.uleb128 0x2b
 2673 0e5a 01       		.uleb128 0x1
 2674 0e5b 51       		.byte	0x51
 2675 0e5c 05       		.uleb128 0x5
 2676 0e5d 03       		.byte	0x3
ARM GAS  C:\Users\jo\AppData\Local\Temp\ccs3alFi.s 			page 50


 2677 0e5e E4000000 		.4byte	.LC34
 2678 0e62 00       		.byte	0
 2679 0e63 00       		.byte	0
 2680 0e64 0A       		.uleb128 0xa
 2681 0e65 04       		.byte	0x4
 2682 0e66 CF090000 		.4byte	0x9cf
 2683 0e6a 2C       		.uleb128 0x2c
 2684 0e6b A1080000 		.4byte	.LASF180
 2685 0e6f 02       		.byte	0x2
 2686 0e70 7C       		.byte	0x7c
 2687 0e71 00000000 		.4byte	.LFB263
 2688 0e75 40000000 		.4byte	.LFE263-.LFB263
 2689 0e79 01       		.uleb128 0x1
 2690 0e7a 9C       		.byte	0x9c
 2691 0e7b CE0E0000 		.4byte	0xece
 2692 0e7f 32       		.uleb128 0x32
 2693 0e80 6D656D00 		.ascii	"mem\000"
 2694 0e84 02       		.byte	0x2
 2695 0e85 7C       		.byte	0x7c
 2696 0e86 640E0000 		.4byte	0xe64
 2697 0e8a E5000000 		.4byte	.LLST6
 2698 0e8e 2F       		.uleb128 0x2f
 2699 0e8f 73080000 		.4byte	.LASF181
 2700 0e93 02       		.byte	0x2
 2701 0e94 7C       		.byte	0x7c
 2702 0e95 25000000 		.4byte	0x25
 2703 0e99 35010000 		.4byte	.LLST7
 2704 0e9d 2D       		.uleb128 0x2d
 2705 0e9e 1B030000 		.4byte	.LASF175
 2706 0ea2 02       		.byte	0x2
 2707 0ea3 7E       		.byte	0x7e
 2708 0ea4 CE0E0000 		.4byte	0xece
 2709 0ea8 03       		.uleb128 0x3
 2710 0ea9 91       		.byte	0x91
 2711 0eaa BC7F     		.sleb128 -68
 2712 0eac 31       		.uleb128 0x31
 2713 0ead 3A000000 		.4byte	.LVL37
 2714 0eb1 A20D0000 		.4byte	0xda2
 2715 0eb5 2B       		.uleb128 0x2b
 2716 0eb6 01       		.uleb128 0x1
 2717 0eb7 51       		.byte	0x51
 2718 0eb8 0C       		.uleb128 0xc
 2719 0eb9 F3       		.byte	0xf3
 2720 0eba 01       		.uleb128 0x1
 2721 0ebb 51       		.byte	0x51
 2722 0ebc 32       		.byte	0x32
 2723 0ebd 24       		.byte	0x24
 2724 0ebe 7D       		.byte	0x7d
 2725 0ebf 00       		.sleb128 0
 2726 0ec0 22       		.byte	0x22
 2727 0ec1 08       		.byte	0x8
 2728 0ec2 44       		.byte	0x44
 2729 0ec3 1C       		.byte	0x1c
 2730 0ec4 06       		.byte	0x6
 2731 0ec5 2B       		.uleb128 0x2b
 2732 0ec6 01       		.uleb128 0x1
 2733 0ec7 50       		.byte	0x50
ARM GAS  C:\Users\jo\AppData\Local\Temp\ccs3alFi.s 			page 51


 2734 0ec8 03       		.uleb128 0x3
 2735 0ec9 F3       		.byte	0xf3
 2736 0eca 01       		.uleb128 0x1
 2737 0ecb 50       		.byte	0x50
 2738 0ecc 00       		.byte	0
 2739 0ecd 00       		.byte	0
 2740 0ece 15       		.uleb128 0x15
 2741 0ecf 0F080000 		.4byte	0x80f
 2742 0ed3 DE0E0000 		.4byte	0xede
 2743 0ed7 16       		.uleb128 0x16
 2744 0ed8 AF040000 		.4byte	0x4af
 2745 0edc 0C       		.byte	0xc
 2746 0edd 00       		.byte	0
 2747 0ede 2C       		.uleb128 0x2c
 2748 0edf A6030000 		.4byte	.LASF182
 2749 0ee3 02       		.byte	0x2
 2750 0ee4 8B       		.byte	0x8b
 2751 0ee5 00000000 		.4byte	.LFB264
 2752 0ee9 98000000 		.4byte	.LFE264-.LFB264
 2753 0eed 01       		.uleb128 0x1
 2754 0eee 9C       		.byte	0x9c
 2755 0eef 1B100000 		.4byte	0x101b
 2756 0ef3 32       		.uleb128 0x32
 2757 0ef4 73797300 		.ascii	"sys\000"
 2758 0ef8 02       		.byte	0x2
 2759 0ef9 8B       		.byte	0x8b
 2760 0efa 1B100000 		.4byte	0x101b
 2761 0efe 7A010000 		.4byte	.LLST8
 2762 0f02 30       		.uleb128 0x30
 2763 0f03 0E000000 		.4byte	.LVL40
 2764 0f07 5F0B0000 		.4byte	0xb5f
 2765 0f0b 1F0F0000 		.4byte	0xf1f
 2766 0f0f 2B       		.uleb128 0x2b
 2767 0f10 01       		.uleb128 0x1
 2768 0f11 51       		.byte	0x51
 2769 0f12 05       		.uleb128 0x5
 2770 0f13 03       		.byte	0x3
 2771 0f14 F0000000 		.4byte	.LC35
 2772 0f18 2B       		.uleb128 0x2b
 2773 0f19 01       		.uleb128 0x1
 2774 0f1a 50       		.byte	0x50
 2775 0f1b 02       		.uleb128 0x2
 2776 0f1c 74       		.byte	0x74
 2777 0f1d 00       		.sleb128 0
 2778 0f1e 00       		.byte	0
 2779 0f1f 30       		.uleb128 0x30
 2780 0f20 18000000 		.4byte	.LVL41
 2781 0f24 5F0B0000 		.4byte	0xb5f
 2782 0f28 3C0F0000 		.4byte	0xf3c
 2783 0f2c 2B       		.uleb128 0x2b
 2784 0f2d 01       		.uleb128 0x1
 2785 0f2e 51       		.byte	0x51
 2786 0f2f 05       		.uleb128 0x5
 2787 0f30 03       		.byte	0x3
 2788 0f31 F8000000 		.4byte	.LC36
 2789 0f35 2B       		.uleb128 0x2b
 2790 0f36 01       		.uleb128 0x1
ARM GAS  C:\Users\jo\AppData\Local\Temp\ccs3alFi.s 			page 52


 2791 0f37 50       		.byte	0x50
 2792 0f38 02       		.uleb128 0x2
 2793 0f39 74       		.byte	0x74
 2794 0f3a 00       		.sleb128 0
 2795 0f3b 00       		.byte	0
 2796 0f3c 30       		.uleb128 0x30
 2797 0f3d 22000000 		.4byte	.LVL42
 2798 0f41 5F0B0000 		.4byte	0xb5f
 2799 0f45 590F0000 		.4byte	0xf59
 2800 0f49 2B       		.uleb128 0x2b
 2801 0f4a 01       		.uleb128 0x1
 2802 0f4b 51       		.byte	0x51
 2803 0f4c 05       		.uleb128 0x5
 2804 0f4d 03       		.byte	0x3
 2805 0f4e 08010000 		.4byte	.LC37
 2806 0f52 2B       		.uleb128 0x2b
 2807 0f53 01       		.uleb128 0x1
 2808 0f54 50       		.byte	0x50
 2809 0f55 02       		.uleb128 0x2
 2810 0f56 74       		.byte	0x74
 2811 0f57 00       		.sleb128 0
 2812 0f58 00       		.byte	0
 2813 0f59 30       		.uleb128 0x30
 2814 0f5a 2C000000 		.4byte	.LVL43
 2815 0f5e 5F0B0000 		.4byte	0xb5f
 2816 0f62 760F0000 		.4byte	0xf76
 2817 0f66 2B       		.uleb128 0x2b
 2818 0f67 01       		.uleb128 0x1
 2819 0f68 51       		.byte	0x51
 2820 0f69 05       		.uleb128 0x5
 2821 0f6a 03       		.byte	0x3
 2822 0f6b 18010000 		.4byte	.LC38
 2823 0f6f 2B       		.uleb128 0x2b
 2824 0f70 01       		.uleb128 0x1
 2825 0f71 50       		.byte	0x50
 2826 0f72 02       		.uleb128 0x2
 2827 0f73 74       		.byte	0x74
 2828 0f74 00       		.sleb128 0
 2829 0f75 00       		.byte	0
 2830 0f76 30       		.uleb128 0x30
 2831 0f77 36000000 		.4byte	.LVL44
 2832 0f7b 5F0B0000 		.4byte	0xb5f
 2833 0f7f 930F0000 		.4byte	0xf93
 2834 0f83 2B       		.uleb128 0x2b
 2835 0f84 01       		.uleb128 0x1
 2836 0f85 51       		.byte	0x51
 2837 0f86 05       		.uleb128 0x5
 2838 0f87 03       		.byte	0x3
 2839 0f88 28010000 		.4byte	.LC39
 2840 0f8c 2B       		.uleb128 0x2b
 2841 0f8d 01       		.uleb128 0x1
 2842 0f8e 50       		.byte	0x50
 2843 0f8f 02       		.uleb128 0x2
 2844 0f90 74       		.byte	0x74
 2845 0f91 00       		.sleb128 0
 2846 0f92 00       		.byte	0
 2847 0f93 30       		.uleb128 0x30
ARM GAS  C:\Users\jo\AppData\Local\Temp\ccs3alFi.s 			page 53


 2848 0f94 40000000 		.4byte	.LVL45
 2849 0f98 5F0B0000 		.4byte	0xb5f
 2850 0f9c B00F0000 		.4byte	0xfb0
 2851 0fa0 2B       		.uleb128 0x2b
 2852 0fa1 01       		.uleb128 0x1
 2853 0fa2 51       		.byte	0x51
 2854 0fa3 05       		.uleb128 0x5
 2855 0fa4 03       		.byte	0x3
 2856 0fa5 3C010000 		.4byte	.LC40
 2857 0fa9 2B       		.uleb128 0x2b
 2858 0faa 01       		.uleb128 0x1
 2859 0fab 50       		.byte	0x50
 2860 0fac 02       		.uleb128 0x2
 2861 0fad 74       		.byte	0x74
 2862 0fae 00       		.sleb128 0
 2863 0faf 00       		.byte	0
 2864 0fb0 30       		.uleb128 0x30
 2865 0fb1 4A000000 		.4byte	.LVL46
 2866 0fb5 5F0B0000 		.4byte	0xb5f
 2867 0fb9 CD0F0000 		.4byte	0xfcd
 2868 0fbd 2B       		.uleb128 0x2b
 2869 0fbe 01       		.uleb128 0x1
 2870 0fbf 51       		.byte	0x51
 2871 0fc0 05       		.uleb128 0x5
 2872 0fc1 03       		.byte	0x3
 2873 0fc2 50010000 		.4byte	.LC41
 2874 0fc6 2B       		.uleb128 0x2b
 2875 0fc7 01       		.uleb128 0x1
 2876 0fc8 50       		.byte	0x50
 2877 0fc9 02       		.uleb128 0x2
 2878 0fca 74       		.byte	0x74
 2879 0fcb 00       		.sleb128 0
 2880 0fcc 00       		.byte	0
 2881 0fcd 30       		.uleb128 0x30
 2882 0fce 54000000 		.4byte	.LVL47
 2883 0fd2 5F0B0000 		.4byte	0xb5f
 2884 0fd6 EA0F0000 		.4byte	0xfea
 2885 0fda 2B       		.uleb128 0x2b
 2886 0fdb 01       		.uleb128 0x1
 2887 0fdc 51       		.byte	0x51
 2888 0fdd 05       		.uleb128 0x5
 2889 0fde 03       		.byte	0x3
 2890 0fdf 64010000 		.4byte	.LC42
 2891 0fe3 2B       		.uleb128 0x2b
 2892 0fe4 01       		.uleb128 0x1
 2893 0fe5 50       		.byte	0x50
 2894 0fe6 02       		.uleb128 0x2
 2895 0fe7 74       		.byte	0x74
 2896 0fe8 00       		.sleb128 0
 2897 0fe9 00       		.byte	0
 2898 0fea 30       		.uleb128 0x30
 2899 0feb 5E000000 		.4byte	.LVL48
 2900 0fef 5F0B0000 		.4byte	0xb5f
 2901 0ff3 07100000 		.4byte	0x1007
 2902 0ff7 2B       		.uleb128 0x2b
 2903 0ff8 01       		.uleb128 0x1
 2904 0ff9 51       		.byte	0x51
ARM GAS  C:\Users\jo\AppData\Local\Temp\ccs3alFi.s 			page 54


 2905 0ffa 05       		.uleb128 0x5
 2906 0ffb 03       		.byte	0x3
 2907 0ffc 78010000 		.4byte	.LC43
 2908 1000 2B       		.uleb128 0x2b
 2909 1001 01       		.uleb128 0x1
 2910 1002 50       		.byte	0x50
 2911 1003 02       		.uleb128 0x2
 2912 1004 74       		.byte	0x74
 2913 1005 00       		.sleb128 0
 2914 1006 00       		.byte	0
 2915 1007 31       		.uleb128 0x31
 2916 1008 6C000000 		.4byte	.LVL50
 2917 100c 5F0B0000 		.4byte	0xb5f
 2918 1010 2B       		.uleb128 0x2b
 2919 1011 01       		.uleb128 0x1
 2920 1012 51       		.byte	0x51
 2921 1013 05       		.uleb128 0x5
 2922 1014 03       		.byte	0x3
 2923 1015 8C010000 		.4byte	.LC44
 2924 1019 00       		.byte	0
 2925 101a 00       		.byte	0
 2926 101b 0A       		.uleb128 0xa
 2927 101c 04       		.byte	0x4
 2928 101d 550A0000 		.4byte	0xa55
 2929 1021 2C       		.uleb128 0x2c
 2930 1022 F5020000 		.4byte	.LASF183
 2931 1026 02       		.byte	0x2
 2932 1027 9B       		.byte	0x9b
 2933 1028 00000000 		.4byte	.LFB265
 2934 102c 9C000000 		.4byte	.LFE265-.LFB265
 2935 1030 01       		.uleb128 0x1
 2936 1031 9C       		.byte	0x9c
 2937 1032 61110000 		.4byte	0x1161
 2938 1036 2E       		.uleb128 0x2e
 2939 1037 6900     		.ascii	"i\000"
 2940 1039 02       		.byte	0x2
 2941 103a 9D       		.byte	0x9d
 2942 103b B5080000 		.4byte	0x8b5
 2943 103f A6010000 		.4byte	.LLST9
 2944 1043 30       		.uleb128 0x30
 2945 1044 0E000000 		.4byte	.LVL51
 2946 1048 F20B0000 		.4byte	0xbf2
 2947 104c 63100000 		.4byte	0x1063
 2948 1050 2B       		.uleb128 0x2b
 2949 1051 01       		.uleb128 0x1
 2950 1052 51       		.byte	0x51
 2951 1053 05       		.uleb128 0x5
 2952 1054 03       		.byte	0x3
 2953 1055 A0010000 		.4byte	.LC45
 2954 1059 2B       		.uleb128 0x2b
 2955 105a 01       		.uleb128 0x1
 2956 105b 50       		.byte	0x50
 2957 105c 05       		.uleb128 0x5
 2958 105d 03       		.byte	0x3
 2959 105e 00000000 		.4byte	.LANCHOR1
 2960 1062 00       		.byte	0
 2961 1063 30       		.uleb128 0x30
ARM GAS  C:\Users\jo\AppData\Local\Temp\ccs3alFi.s 			page 55


 2962 1064 18000000 		.4byte	.LVL52
 2963 1068 F20B0000 		.4byte	0xbf2
 2964 106c 81100000 		.4byte	0x1081
 2965 1070 2B       		.uleb128 0x2b
 2966 1071 01       		.uleb128 0x1
 2967 1072 51       		.byte	0x51
 2968 1073 05       		.uleb128 0x5
 2969 1074 03       		.byte	0x3
 2970 1075 A8010000 		.4byte	.LC46
 2971 1079 2B       		.uleb128 0x2b
 2972 107a 01       		.uleb128 0x1
 2973 107b 50       		.byte	0x50
 2974 107c 03       		.uleb128 0x3
 2975 107d 75       		.byte	0x75
 2976 107e DC7E     		.sleb128 -164
 2977 1080 00       		.byte	0
 2978 1081 30       		.uleb128 0x30
 2979 1082 22000000 		.4byte	.LVL53
 2980 1086 F20B0000 		.4byte	0xbf2
 2981 108a 9F100000 		.4byte	0x109f
 2982 108e 2B       		.uleb128 0x2b
 2983 108f 01       		.uleb128 0x1
 2984 1090 51       		.byte	0x51
 2985 1091 05       		.uleb128 0x5
 2986 1092 03       		.byte	0x3
 2987 1093 B0010000 		.4byte	.LC47
 2988 1097 2B       		.uleb128 0x2b
 2989 1098 01       		.uleb128 0x1
 2990 1099 50       		.byte	0x50
 2991 109a 03       		.uleb128 0x3
 2992 109b 75       		.byte	0x75
 2993 109c F47E     		.sleb128 -140
 2994 109e 00       		.byte	0
 2995 109f 30       		.uleb128 0x30
 2996 10a0 2C000000 		.4byte	.LVL54
 2997 10a4 F20B0000 		.4byte	0xbf2
 2998 10a8 BD100000 		.4byte	0x10bd
 2999 10ac 2B       		.uleb128 0x2b
 3000 10ad 01       		.uleb128 0x1
 3001 10ae 51       		.byte	0x51
 3002 10af 05       		.uleb128 0x5
 3003 10b0 03       		.byte	0x3
 3004 10b1 B8010000 		.4byte	.LC48
 3005 10b5 2B       		.uleb128 0x2b
 3006 10b6 01       		.uleb128 0x1
 3007 10b7 50       		.byte	0x50
 3008 10b8 03       		.uleb128 0x3
 3009 10b9 75       		.byte	0x75
 3010 10ba 8C7F     		.sleb128 -116
 3011 10bc 00       		.byte	0
 3012 10bd 30       		.uleb128 0x30
 3013 10be 36000000 		.4byte	.LVL55
 3014 10c2 F20B0000 		.4byte	0xbf2
 3015 10c6 DB100000 		.4byte	0x10db
 3016 10ca 2B       		.uleb128 0x2b
 3017 10cb 01       		.uleb128 0x1
 3018 10cc 51       		.byte	0x51
ARM GAS  C:\Users\jo\AppData\Local\Temp\ccs3alFi.s 			page 56


 3019 10cd 05       		.uleb128 0x5
 3020 10ce 03       		.byte	0x3
 3021 10cf BC010000 		.4byte	.LC49
 3022 10d3 2B       		.uleb128 0x2b
 3023 10d4 01       		.uleb128 0x1
 3024 10d5 50       		.byte	0x50
 3025 10d6 03       		.uleb128 0x3
 3026 10d7 75       		.byte	0x75
 3027 10d8 A47F     		.sleb128 -92
 3028 10da 00       		.byte	0
 3029 10db 30       		.uleb128 0x30
 3030 10dc 40000000 		.4byte	.LVL56
 3031 10e0 F20B0000 		.4byte	0xbf2
 3032 10e4 F9100000 		.4byte	0x10f9
 3033 10e8 2B       		.uleb128 0x2b
 3034 10e9 01       		.uleb128 0x1
 3035 10ea 51       		.byte	0x51
 3036 10eb 05       		.uleb128 0x5
 3037 10ec 03       		.byte	0x3
 3038 10ed C4010000 		.4byte	.LC50
 3039 10f1 2B       		.uleb128 0x2b
 3040 10f2 01       		.uleb128 0x1
 3041 10f3 50       		.byte	0x50
 3042 10f4 03       		.uleb128 0x3
 3043 10f5 75       		.byte	0x75
 3044 10f6 BC7F     		.sleb128 -68
 3045 10f8 00       		.byte	0
 3046 10f9 30       		.uleb128 0x30
 3047 10fa 4A000000 		.4byte	.LVL57
 3048 10fe F20B0000 		.4byte	0xbf2
 3049 1102 16110000 		.4byte	0x1116
 3050 1106 2B       		.uleb128 0x2b
 3051 1107 01       		.uleb128 0x1
 3052 1108 51       		.byte	0x51
 3053 1109 05       		.uleb128 0x5
 3054 110a 03       		.byte	0x3
 3055 110b C8010000 		.4byte	.LC51
 3056 110f 2B       		.uleb128 0x2b
 3057 1110 01       		.uleb128 0x1
 3058 1111 50       		.byte	0x50
 3059 1112 02       		.uleb128 0x2
 3060 1113 75       		.byte	0x75
 3061 1114 54       		.sleb128 -44
 3062 1115 00       		.byte	0
 3063 1116 30       		.uleb128 0x30
 3064 1117 54000000 		.4byte	.LVL58
 3065 111b A20D0000 		.4byte	0xda2
 3066 111f 33110000 		.4byte	0x1133
 3067 1123 2B       		.uleb128 0x2b
 3068 1124 01       		.uleb128 0x1
 3069 1125 51       		.byte	0x51
 3070 1126 05       		.uleb128 0x5
 3071 1127 03       		.byte	0x3
 3072 1128 CC010000 		.4byte	.LC52
 3073 112c 2B       		.uleb128 0x2b
 3074 112d 01       		.uleb128 0x1
 3075 112e 50       		.byte	0x50
ARM GAS  C:\Users\jo\AppData\Local\Temp\ccs3alFi.s 			page 57


 3076 112f 02       		.uleb128 0x2
 3077 1130 75       		.byte	0x75
 3078 1131 6C       		.sleb128 -20
 3079 1132 00       		.byte	0
 3080 1133 30       		.uleb128 0x30
 3081 1134 60000000 		.4byte	.LVL61
 3082 1138 6A0E0000 		.4byte	0xe6a
 3083 113c 4D110000 		.4byte	0x114d
 3084 1140 2B       		.uleb128 0x2b
 3085 1141 01       		.uleb128 0x1
 3086 1142 51       		.byte	0x51
 3087 1143 02       		.uleb128 0x2
 3088 1144 74       		.byte	0x74
 3089 1145 7F       		.sleb128 -1
 3090 1146 2B       		.uleb128 0x2b
 3091 1147 01       		.uleb128 0x1
 3092 1148 50       		.byte	0x50
 3093 1149 02       		.uleb128 0x2
 3094 114a 75       		.byte	0x75
 3095 114b 00       		.sleb128 0
 3096 114c 00       		.byte	0
 3097 114d 31       		.uleb128 0x31
 3098 114e 72000000 		.4byte	.LVL62
 3099 1152 DE0E0000 		.4byte	0xede
 3100 1156 2B       		.uleb128 0x2b
 3101 1157 01       		.uleb128 0x1
 3102 1158 50       		.byte	0x50
 3103 1159 05       		.uleb128 0x5
 3104 115a 03       		.byte	0x3
 3105 115b C0010000 		.4byte	.LANCHOR1+448
 3106 115f 00       		.byte	0
 3107 1160 00       		.byte	0
 3108 1161 33       		.uleb128 0x33
 3109 1162 3D060000 		.4byte	.LASF184
 3110 1166 16       		.byte	0x16
 3111 1167 A706     		.2byte	0x6a7
 3112 1169 FA000000 		.4byte	0xfa
 3113 116d 34       		.uleb128 0x34
 3114 116e 636800   		.ascii	"ch\000"
 3115 1171 08       		.byte	0x8
 3116 1172 0902     		.2byte	0x209
 3117 1174 45040000 		.4byte	0x445
 3118 1178 35       		.uleb128 0x35
 3119 1179 F7070000 		.4byte	.LASF185
 3120 117d 13       		.byte	0x13
 3121 117e 3D       		.byte	0x3d
 3122 117f 72080000 		.4byte	0x872
 3123 1183 36       		.uleb128 0x36
 3124 1184 24000000 		.4byte	.LASF186
 3125 1188 02       		.byte	0x2
 3126 1189 31       		.byte	0x31
 3127 118a 860A0000 		.4byte	0xa86
 3128 118e 05       		.uleb128 0x5
 3129 118f 03       		.byte	0x3
 3130 1190 00000000 		.4byte	lwip_stats
 3131 1194 37       		.uleb128 0x37
 3132 1195 57080000 		.4byte	.LASF191
ARM GAS  C:\Users\jo\AppData\Local\Temp\ccs3alFi.s 			page 58


 3133 1199 01       		.byte	0x1
 3134 119a 28       		.byte	0x28
 3135 119b 25000000 		.4byte	0x25
 3136 119f 0D       		.uleb128 0xd
 3137 11a0 590B0000 		.4byte	0xb59
 3138 11a4 0D       		.uleb128 0xd
 3139 11a5 DE060000 		.4byte	0x6de
 3140 11a9 0D       		.uleb128 0xd
 3141 11aa 9F080000 		.4byte	0x89f
 3142 11ae 00       		.byte	0
 3143 11af 00       		.byte	0
 3144              		.section	.debug_abbrev,"",%progbits
 3145              	.Ldebug_abbrev0:
 3146 0000 01       		.uleb128 0x1
 3147 0001 11       		.uleb128 0x11
 3148 0002 01       		.byte	0x1
 3149 0003 25       		.uleb128 0x25
 3150 0004 0E       		.uleb128 0xe
 3151 0005 13       		.uleb128 0x13
 3152 0006 0B       		.uleb128 0xb
 3153 0007 03       		.uleb128 0x3
 3154 0008 0E       		.uleb128 0xe
 3155 0009 1B       		.uleb128 0x1b
 3156 000a 0E       		.uleb128 0xe
 3157 000b 55       		.uleb128 0x55
 3158 000c 17       		.uleb128 0x17
 3159 000d 11       		.uleb128 0x11
 3160 000e 01       		.uleb128 0x1
 3161 000f 10       		.uleb128 0x10
 3162 0010 17       		.uleb128 0x17
 3163 0011 00       		.byte	0
 3164 0012 00       		.byte	0
 3165 0013 02       		.uleb128 0x2
 3166 0014 24       		.uleb128 0x24
 3167 0015 00       		.byte	0
 3168 0016 0B       		.uleb128 0xb
 3169 0017 0B       		.uleb128 0xb
 3170 0018 3E       		.uleb128 0x3e
 3171 0019 0B       		.uleb128 0xb
 3172 001a 03       		.uleb128 0x3
 3173 001b 08       		.uleb128 0x8
 3174 001c 00       		.byte	0
 3175 001d 00       		.byte	0
 3176 001e 03       		.uleb128 0x3
 3177 001f 16       		.uleb128 0x16
 3178 0020 00       		.byte	0
 3179 0021 03       		.uleb128 0x3
 3180 0022 0E       		.uleb128 0xe
 3181 0023 3A       		.uleb128 0x3a
 3182 0024 0B       		.uleb128 0xb
 3183 0025 3B       		.uleb128 0x3b
 3184 0026 0B       		.uleb128 0xb
 3185 0027 49       		.uleb128 0x49
 3186 0028 13       		.uleb128 0x13
 3187 0029 00       		.byte	0
 3188 002a 00       		.byte	0
 3189 002b 04       		.uleb128 0x4
ARM GAS  C:\Users\jo\AppData\Local\Temp\ccs3alFi.s 			page 59


 3190 002c 24       		.uleb128 0x24
 3191 002d 00       		.byte	0
 3192 002e 0B       		.uleb128 0xb
 3193 002f 0B       		.uleb128 0xb
 3194 0030 3E       		.uleb128 0x3e
 3195 0031 0B       		.uleb128 0xb
 3196 0032 03       		.uleb128 0x3
 3197 0033 0E       		.uleb128 0xe
 3198 0034 00       		.byte	0
 3199 0035 00       		.byte	0
 3200 0036 05       		.uleb128 0x5
 3201 0037 35       		.uleb128 0x35
 3202 0038 00       		.byte	0
 3203 0039 49       		.uleb128 0x49
 3204 003a 13       		.uleb128 0x13
 3205 003b 00       		.byte	0
 3206 003c 00       		.byte	0
 3207 003d 06       		.uleb128 0x6
 3208 003e 13       		.uleb128 0x13
 3209 003f 01       		.byte	0x1
 3210 0040 03       		.uleb128 0x3
 3211 0041 0E       		.uleb128 0xe
 3212 0042 0B       		.uleb128 0xb
 3213 0043 0B       		.uleb128 0xb
 3214 0044 3A       		.uleb128 0x3a
 3215 0045 0B       		.uleb128 0xb
 3216 0046 3B       		.uleb128 0x3b
 3217 0047 0B       		.uleb128 0xb
 3218 0048 01       		.uleb128 0x1
 3219 0049 13       		.uleb128 0x13
 3220 004a 00       		.byte	0
 3221 004b 00       		.byte	0
 3222 004c 07       		.uleb128 0x7
 3223 004d 0D       		.uleb128 0xd
 3224 004e 00       		.byte	0
 3225 004f 03       		.uleb128 0x3
 3226 0050 0E       		.uleb128 0xe
 3227 0051 3A       		.uleb128 0x3a
 3228 0052 0B       		.uleb128 0xb
 3229 0053 3B       		.uleb128 0x3b
 3230 0054 0B       		.uleb128 0xb
 3231 0055 49       		.uleb128 0x49
 3232 0056 13       		.uleb128 0x13
 3233 0057 38       		.uleb128 0x38
 3234 0058 0B       		.uleb128 0xb
 3235 0059 00       		.byte	0
 3236 005a 00       		.byte	0
 3237 005b 08       		.uleb128 0x8
 3238 005c 0D       		.uleb128 0xd
 3239 005d 00       		.byte	0
 3240 005e 03       		.uleb128 0x3
 3241 005f 08       		.uleb128 0x8
 3242 0060 3A       		.uleb128 0x3a
 3243 0061 0B       		.uleb128 0xb
 3244 0062 3B       		.uleb128 0x3b
 3245 0063 05       		.uleb128 0x5
 3246 0064 49       		.uleb128 0x49
ARM GAS  C:\Users\jo\AppData\Local\Temp\ccs3alFi.s 			page 60


 3247 0065 13       		.uleb128 0x13
 3248 0066 38       		.uleb128 0x38
 3249 0067 0B       		.uleb128 0xb
 3250 0068 00       		.byte	0
 3251 0069 00       		.byte	0
 3252 006a 09       		.uleb128 0x9
 3253 006b 0D       		.uleb128 0xd
 3254 006c 00       		.byte	0
 3255 006d 03       		.uleb128 0x3
 3256 006e 0E       		.uleb128 0xe
 3257 006f 3A       		.uleb128 0x3a
 3258 0070 0B       		.uleb128 0xb
 3259 0071 3B       		.uleb128 0x3b
 3260 0072 05       		.uleb128 0x5
 3261 0073 49       		.uleb128 0x49
 3262 0074 13       		.uleb128 0x13
 3263 0075 38       		.uleb128 0x38
 3264 0076 0B       		.uleb128 0xb
 3265 0077 00       		.byte	0
 3266 0078 00       		.byte	0
 3267 0079 0A       		.uleb128 0xa
 3268 007a 0F       		.uleb128 0xf
 3269 007b 00       		.byte	0
 3270 007c 0B       		.uleb128 0xb
 3271 007d 0B       		.uleb128 0xb
 3272 007e 49       		.uleb128 0x49
 3273 007f 13       		.uleb128 0x13
 3274 0080 00       		.byte	0
 3275 0081 00       		.byte	0
 3276 0082 0B       		.uleb128 0xb
 3277 0083 13       		.uleb128 0x13
 3278 0084 01       		.byte	0x1
 3279 0085 03       		.uleb128 0x3
 3280 0086 0E       		.uleb128 0xe
 3281 0087 0B       		.uleb128 0xb
 3282 0088 0B       		.uleb128 0xb
 3283 0089 3A       		.uleb128 0x3a
 3284 008a 0B       		.uleb128 0xb
 3285 008b 3B       		.uleb128 0x3b
 3286 008c 05       		.uleb128 0x5
 3287 008d 01       		.uleb128 0x1
 3288 008e 13       		.uleb128 0x13
 3289 008f 00       		.byte	0
 3290 0090 00       		.byte	0
 3291 0091 0C       		.uleb128 0xc
 3292 0092 15       		.uleb128 0x15
 3293 0093 01       		.byte	0x1
 3294 0094 27       		.uleb128 0x27
 3295 0095 19       		.uleb128 0x19
 3296 0096 01       		.uleb128 0x1
 3297 0097 13       		.uleb128 0x13
 3298 0098 00       		.byte	0
 3299 0099 00       		.byte	0
 3300 009a 0D       		.uleb128 0xd
 3301 009b 05       		.uleb128 0x5
 3302 009c 00       		.byte	0
 3303 009d 49       		.uleb128 0x49
ARM GAS  C:\Users\jo\AppData\Local\Temp\ccs3alFi.s 			page 61


 3304 009e 13       		.uleb128 0x13
 3305 009f 00       		.byte	0
 3306 00a0 00       		.byte	0
 3307 00a1 0E       		.uleb128 0xe
 3308 00a2 0F       		.uleb128 0xf
 3309 00a3 00       		.byte	0
 3310 00a4 0B       		.uleb128 0xb
 3311 00a5 0B       		.uleb128 0xb
 3312 00a6 00       		.byte	0
 3313 00a7 00       		.byte	0
 3314 00a8 0F       		.uleb128 0xf
 3315 00a9 13       		.uleb128 0x13
 3316 00aa 01       		.byte	0x1
 3317 00ab 03       		.uleb128 0x3
 3318 00ac 0E       		.uleb128 0xe
 3319 00ad 0B       		.uleb128 0xb
 3320 00ae 05       		.uleb128 0x5
 3321 00af 3A       		.uleb128 0x3a
 3322 00b0 0B       		.uleb128 0xb
 3323 00b1 3B       		.uleb128 0x3b
 3324 00b2 05       		.uleb128 0x5
 3325 00b3 01       		.uleb128 0x1
 3326 00b4 13       		.uleb128 0x13
 3327 00b5 00       		.byte	0
 3328 00b6 00       		.byte	0
 3329 00b7 10       		.uleb128 0x10
 3330 00b8 0D       		.uleb128 0xd
 3331 00b9 00       		.byte	0
 3332 00ba 03       		.uleb128 0x3
 3333 00bb 0E       		.uleb128 0xe
 3334 00bc 3A       		.uleb128 0x3a
 3335 00bd 0B       		.uleb128 0xb
 3336 00be 3B       		.uleb128 0x3b
 3337 00bf 05       		.uleb128 0x5
 3338 00c0 49       		.uleb128 0x49
 3339 00c1 13       		.uleb128 0x13
 3340 00c2 38       		.uleb128 0x38
 3341 00c3 05       		.uleb128 0x5
 3342 00c4 00       		.byte	0
 3343 00c5 00       		.byte	0
 3344 00c6 11       		.uleb128 0x11
 3345 00c7 0D       		.uleb128 0xd
 3346 00c8 00       		.byte	0
 3347 00c9 03       		.uleb128 0x3
 3348 00ca 08       		.uleb128 0x8
 3349 00cb 3A       		.uleb128 0x3a
 3350 00cc 0B       		.uleb128 0xb
 3351 00cd 3B       		.uleb128 0x3b
 3352 00ce 05       		.uleb128 0x5
 3353 00cf 49       		.uleb128 0x49
 3354 00d0 13       		.uleb128 0x13
 3355 00d1 38       		.uleb128 0x38
 3356 00d2 05       		.uleb128 0x5
 3357 00d3 00       		.byte	0
 3358 00d4 00       		.byte	0
 3359 00d5 12       		.uleb128 0x12
 3360 00d6 0D       		.uleb128 0xd
ARM GAS  C:\Users\jo\AppData\Local\Temp\ccs3alFi.s 			page 62


 3361 00d7 00       		.byte	0
 3362 00d8 03       		.uleb128 0x3
 3363 00d9 08       		.uleb128 0x8
 3364 00da 3A       		.uleb128 0x3a
 3365 00db 0B       		.uleb128 0xb
 3366 00dc 3B       		.uleb128 0x3b
 3367 00dd 0B       		.uleb128 0xb
 3368 00de 49       		.uleb128 0x49
 3369 00df 13       		.uleb128 0x13
 3370 00e0 38       		.uleb128 0x38
 3371 00e1 0B       		.uleb128 0xb
 3372 00e2 00       		.byte	0
 3373 00e3 00       		.byte	0
 3374 00e4 13       		.uleb128 0x13
 3375 00e5 13       		.uleb128 0x13
 3376 00e6 01       		.byte	0x1
 3377 00e7 0B       		.uleb128 0xb
 3378 00e8 0B       		.uleb128 0xb
 3379 00e9 3A       		.uleb128 0x3a
 3380 00ea 0B       		.uleb128 0xb
 3381 00eb 3B       		.uleb128 0x3b
 3382 00ec 0B       		.uleb128 0xb
 3383 00ed 01       		.uleb128 0x1
 3384 00ee 13       		.uleb128 0x13
 3385 00ef 00       		.byte	0
 3386 00f0 00       		.byte	0
 3387 00f1 14       		.uleb128 0x14
 3388 00f2 13       		.uleb128 0x13
 3389 00f3 01       		.byte	0x1
 3390 00f4 0B       		.uleb128 0xb
 3391 00f5 05       		.uleb128 0x5
 3392 00f6 3A       		.uleb128 0x3a
 3393 00f7 0B       		.uleb128 0xb
 3394 00f8 3B       		.uleb128 0x3b
 3395 00f9 0B       		.uleb128 0xb
 3396 00fa 01       		.uleb128 0x1
 3397 00fb 13       		.uleb128 0x13
 3398 00fc 00       		.byte	0
 3399 00fd 00       		.byte	0
 3400 00fe 15       		.uleb128 0x15
 3401 00ff 01       		.uleb128 0x1
 3402 0100 01       		.byte	0x1
 3403 0101 49       		.uleb128 0x49
 3404 0102 13       		.uleb128 0x13
 3405 0103 01       		.uleb128 0x1
 3406 0104 13       		.uleb128 0x13
 3407 0105 00       		.byte	0
 3408 0106 00       		.byte	0
 3409 0107 16       		.uleb128 0x16
 3410 0108 21       		.uleb128 0x21
 3411 0109 00       		.byte	0
 3412 010a 49       		.uleb128 0x49
 3413 010b 13       		.uleb128 0x13
 3414 010c 2F       		.uleb128 0x2f
 3415 010d 0B       		.uleb128 0xb
 3416 010e 00       		.byte	0
 3417 010f 00       		.byte	0
ARM GAS  C:\Users\jo\AppData\Local\Temp\ccs3alFi.s 			page 63


 3418 0110 17       		.uleb128 0x17
 3419 0111 17       		.uleb128 0x17
 3420 0112 01       		.byte	0x1
 3421 0113 0B       		.uleb128 0xb
 3422 0114 0B       		.uleb128 0xb
 3423 0115 3A       		.uleb128 0x3a
 3424 0116 0B       		.uleb128 0xb
 3425 0117 3B       		.uleb128 0x3b
 3426 0118 0B       		.uleb128 0xb
 3427 0119 01       		.uleb128 0x1
 3428 011a 13       		.uleb128 0x13
 3429 011b 00       		.byte	0
 3430 011c 00       		.byte	0
 3431 011d 18       		.uleb128 0x18
 3432 011e 0D       		.uleb128 0xd
 3433 011f 00       		.byte	0
 3434 0120 03       		.uleb128 0x3
 3435 0121 0E       		.uleb128 0xe
 3436 0122 3A       		.uleb128 0x3a
 3437 0123 0B       		.uleb128 0xb
 3438 0124 3B       		.uleb128 0x3b
 3439 0125 05       		.uleb128 0x5
 3440 0126 49       		.uleb128 0x49
 3441 0127 13       		.uleb128 0x13
 3442 0128 00       		.byte	0
 3443 0129 00       		.byte	0
 3444 012a 19       		.uleb128 0x19
 3445 012b 26       		.uleb128 0x26
 3446 012c 00       		.byte	0
 3447 012d 49       		.uleb128 0x49
 3448 012e 13       		.uleb128 0x13
 3449 012f 00       		.byte	0
 3450 0130 00       		.byte	0
 3451 0131 1A       		.uleb128 0x1a
 3452 0132 15       		.uleb128 0x15
 3453 0133 01       		.byte	0x1
 3454 0134 27       		.uleb128 0x27
 3455 0135 19       		.uleb128 0x19
 3456 0136 49       		.uleb128 0x49
 3457 0137 13       		.uleb128 0x13
 3458 0138 01       		.uleb128 0x1
 3459 0139 13       		.uleb128 0x13
 3460 013a 00       		.byte	0
 3461 013b 00       		.byte	0
 3462 013c 1B       		.uleb128 0x1b
 3463 013d 0D       		.uleb128 0xd
 3464 013e 00       		.byte	0
 3465 013f 03       		.uleb128 0x3
 3466 0140 0E       		.uleb128 0xe
 3467 0141 49       		.uleb128 0x49
 3468 0142 13       		.uleb128 0x13
 3469 0143 38       		.uleb128 0x38
 3470 0144 0B       		.uleb128 0xb
 3471 0145 34       		.uleb128 0x34
 3472 0146 19       		.uleb128 0x19
 3473 0147 00       		.byte	0
 3474 0148 00       		.byte	0
ARM GAS  C:\Users\jo\AppData\Local\Temp\ccs3alFi.s 			page 64


 3475 0149 1C       		.uleb128 0x1c
 3476 014a 04       		.uleb128 0x4
 3477 014b 01       		.byte	0x1
 3478 014c 0B       		.uleb128 0xb
 3479 014d 0B       		.uleb128 0xb
 3480 014e 3A       		.uleb128 0x3a
 3481 014f 0B       		.uleb128 0xb
 3482 0150 3B       		.uleb128 0x3b
 3483 0151 0B       		.uleb128 0xb
 3484 0152 01       		.uleb128 0x1
 3485 0153 13       		.uleb128 0x13
 3486 0154 00       		.byte	0
 3487 0155 00       		.byte	0
 3488 0156 1D       		.uleb128 0x1d
 3489 0157 28       		.uleb128 0x28
 3490 0158 00       		.byte	0
 3491 0159 03       		.uleb128 0x3
 3492 015a 0E       		.uleb128 0xe
 3493 015b 1C       		.uleb128 0x1c
 3494 015c 0D       		.uleb128 0xd
 3495 015d 00       		.byte	0
 3496 015e 00       		.byte	0
 3497 015f 1E       		.uleb128 0x1e
 3498 0160 13       		.uleb128 0x13
 3499 0161 01       		.byte	0x1
 3500 0162 03       		.uleb128 0x3
 3501 0163 0E       		.uleb128 0xe
 3502 0164 0B       		.uleb128 0xb
 3503 0165 05       		.uleb128 0x5
 3504 0166 3A       		.uleb128 0x3a
 3505 0167 0B       		.uleb128 0xb
 3506 0168 3B       		.uleb128 0x3b
 3507 0169 0B       		.uleb128 0xb
 3508 016a 01       		.uleb128 0x1
 3509 016b 13       		.uleb128 0x13
 3510 016c 00       		.byte	0
 3511 016d 00       		.byte	0
 3512 016e 1F       		.uleb128 0x1f
 3513 016f 0D       		.uleb128 0xd
 3514 0170 00       		.byte	0
 3515 0171 03       		.uleb128 0x3
 3516 0172 08       		.uleb128 0x8
 3517 0173 3A       		.uleb128 0x3a
 3518 0174 0B       		.uleb128 0xb
 3519 0175 3B       		.uleb128 0x3b
 3520 0176 0B       		.uleb128 0xb
 3521 0177 49       		.uleb128 0x49
 3522 0178 13       		.uleb128 0x13
 3523 0179 38       		.uleb128 0x38
 3524 017a 05       		.uleb128 0x5
 3525 017b 00       		.byte	0
 3526 017c 00       		.byte	0
 3527 017d 20       		.uleb128 0x20
 3528 017e 2E       		.uleb128 0x2e
 3529 017f 01       		.byte	0x1
 3530 0180 03       		.uleb128 0x3
 3531 0181 0E       		.uleb128 0xe
ARM GAS  C:\Users\jo\AppData\Local\Temp\ccs3alFi.s 			page 65


 3532 0182 3A       		.uleb128 0x3a
 3533 0183 0B       		.uleb128 0xb
 3534 0184 3B       		.uleb128 0x3b
 3535 0185 0B       		.uleb128 0xb
 3536 0186 27       		.uleb128 0x27
 3537 0187 19       		.uleb128 0x19
 3538 0188 49       		.uleb128 0x49
 3539 0189 13       		.uleb128 0x13
 3540 018a 20       		.uleb128 0x20
 3541 018b 0B       		.uleb128 0xb
 3542 018c 01       		.uleb128 0x1
 3543 018d 13       		.uleb128 0x13
 3544 018e 00       		.byte	0
 3545 018f 00       		.byte	0
 3546 0190 21       		.uleb128 0x21
 3547 0191 05       		.uleb128 0x5
 3548 0192 00       		.byte	0
 3549 0193 03       		.uleb128 0x3
 3550 0194 08       		.uleb128 0x8
 3551 0195 3A       		.uleb128 0x3a
 3552 0196 0B       		.uleb128 0xb
 3553 0197 3B       		.uleb128 0x3b
 3554 0198 0B       		.uleb128 0xb
 3555 0199 49       		.uleb128 0x49
 3556 019a 13       		.uleb128 0x13
 3557 019b 00       		.byte	0
 3558 019c 00       		.byte	0
 3559 019d 22       		.uleb128 0x22
 3560 019e 18       		.uleb128 0x18
 3561 019f 00       		.byte	0
 3562 01a0 00       		.byte	0
 3563 01a1 00       		.byte	0
 3564 01a2 23       		.uleb128 0x23
 3565 01a3 34       		.uleb128 0x34
 3566 01a4 00       		.byte	0
 3567 01a5 03       		.uleb128 0x3
 3568 01a6 08       		.uleb128 0x8
 3569 01a7 3A       		.uleb128 0x3a
 3570 01a8 0B       		.uleb128 0xb
 3571 01a9 3B       		.uleb128 0x3b
 3572 01aa 0B       		.uleb128 0xb
 3573 01ab 49       		.uleb128 0x49
 3574 01ac 13       		.uleb128 0x13
 3575 01ad 00       		.byte	0
 3576 01ae 00       		.byte	0
 3577 01af 24       		.uleb128 0x24
 3578 01b0 34       		.uleb128 0x34
 3579 01b1 00       		.byte	0
 3580 01b2 03       		.uleb128 0x3
 3581 01b3 0E       		.uleb128 0xe
 3582 01b4 3A       		.uleb128 0x3a
 3583 01b5 0B       		.uleb128 0xb
 3584 01b6 3B       		.uleb128 0x3b
 3585 01b7 0B       		.uleb128 0xb
 3586 01b8 49       		.uleb128 0x49
 3587 01b9 13       		.uleb128 0x13
 3588 01ba 00       		.byte	0
ARM GAS  C:\Users\jo\AppData\Local\Temp\ccs3alFi.s 			page 66


 3589 01bb 00       		.byte	0
 3590 01bc 25       		.uleb128 0x25
 3591 01bd 2E       		.uleb128 0x2e
 3592 01be 01       		.byte	0x1
 3593 01bf 31       		.uleb128 0x31
 3594 01c0 13       		.uleb128 0x13
 3595 01c1 11       		.uleb128 0x11
 3596 01c2 01       		.uleb128 0x1
 3597 01c3 12       		.uleb128 0x12
 3598 01c4 06       		.uleb128 0x6
 3599 01c5 40       		.uleb128 0x40
 3600 01c6 18       		.uleb128 0x18
 3601 01c7 9742     		.uleb128 0x2117
 3602 01c9 19       		.uleb128 0x19
 3603 01ca 01       		.uleb128 0x1
 3604 01cb 13       		.uleb128 0x13
 3605 01cc 00       		.byte	0
 3606 01cd 00       		.byte	0
 3607 01ce 26       		.uleb128 0x26
 3608 01cf 05       		.uleb128 0x5
 3609 01d0 00       		.byte	0
 3610 01d1 31       		.uleb128 0x31
 3611 01d2 13       		.uleb128 0x13
 3612 01d3 02       		.uleb128 0x2
 3613 01d4 17       		.uleb128 0x17
 3614 01d5 00       		.byte	0
 3615 01d6 00       		.byte	0
 3616 01d7 27       		.uleb128 0x27
 3617 01d8 05       		.uleb128 0x5
 3618 01d9 00       		.byte	0
 3619 01da 31       		.uleb128 0x31
 3620 01db 13       		.uleb128 0x13
 3621 01dc 02       		.uleb128 0x2
 3622 01dd 18       		.uleb128 0x18
 3623 01de 00       		.byte	0
 3624 01df 00       		.byte	0
 3625 01e0 28       		.uleb128 0x28
 3626 01e1 34       		.uleb128 0x34
 3627 01e2 00       		.byte	0
 3628 01e3 31       		.uleb128 0x31
 3629 01e4 13       		.uleb128 0x13
 3630 01e5 02       		.uleb128 0x2
 3631 01e6 18       		.uleb128 0x18
 3632 01e7 00       		.byte	0
 3633 01e8 00       		.byte	0
 3634 01e9 29       		.uleb128 0x29
 3635 01ea 05       		.uleb128 0x5
 3636 01eb 00       		.byte	0
 3637 01ec 31       		.uleb128 0x31
 3638 01ed 13       		.uleb128 0x13
 3639 01ee 00       		.byte	0
 3640 01ef 00       		.byte	0
 3641 01f0 2A       		.uleb128 0x2a
 3642 01f1 898201   		.uleb128 0x4109
 3643 01f4 01       		.byte	0x1
 3644 01f5 11       		.uleb128 0x11
 3645 01f6 01       		.uleb128 0x1
ARM GAS  C:\Users\jo\AppData\Local\Temp\ccs3alFi.s 			page 67


 3646 01f7 31       		.uleb128 0x31
 3647 01f8 13       		.uleb128 0x13
 3648 01f9 00       		.byte	0
 3649 01fa 00       		.byte	0
 3650 01fb 2B       		.uleb128 0x2b
 3651 01fc 8A8201   		.uleb128 0x410a
 3652 01ff 00       		.byte	0
 3653 0200 02       		.uleb128 0x2
 3654 0201 18       		.uleb128 0x18
 3655 0202 9142     		.uleb128 0x2111
 3656 0204 18       		.uleb128 0x18
 3657 0205 00       		.byte	0
 3658 0206 00       		.byte	0
 3659 0207 2C       		.uleb128 0x2c
 3660 0208 2E       		.uleb128 0x2e
 3661 0209 01       		.byte	0x1
 3662 020a 3F       		.uleb128 0x3f
 3663 020b 19       		.uleb128 0x19
 3664 020c 03       		.uleb128 0x3
 3665 020d 0E       		.uleb128 0xe
 3666 020e 3A       		.uleb128 0x3a
 3667 020f 0B       		.uleb128 0xb
 3668 0210 3B       		.uleb128 0x3b
 3669 0211 0B       		.uleb128 0xb
 3670 0212 27       		.uleb128 0x27
 3671 0213 19       		.uleb128 0x19
 3672 0214 11       		.uleb128 0x11
 3673 0215 01       		.uleb128 0x1
 3674 0216 12       		.uleb128 0x12
 3675 0217 06       		.uleb128 0x6
 3676 0218 40       		.uleb128 0x40
 3677 0219 18       		.uleb128 0x18
 3678 021a 9742     		.uleb128 0x2117
 3679 021c 19       		.uleb128 0x19
 3680 021d 01       		.uleb128 0x1
 3681 021e 13       		.uleb128 0x13
 3682 021f 00       		.byte	0
 3683 0220 00       		.byte	0
 3684 0221 2D       		.uleb128 0x2d
 3685 0222 34       		.uleb128 0x34
 3686 0223 00       		.byte	0
 3687 0224 03       		.uleb128 0x3
 3688 0225 0E       		.uleb128 0xe
 3689 0226 3A       		.uleb128 0x3a
 3690 0227 0B       		.uleb128 0xb
 3691 0228 3B       		.uleb128 0x3b
 3692 0229 0B       		.uleb128 0xb
 3693 022a 49       		.uleb128 0x49
 3694 022b 13       		.uleb128 0x13
 3695 022c 02       		.uleb128 0x2
 3696 022d 18       		.uleb128 0x18
 3697 022e 00       		.byte	0
 3698 022f 00       		.byte	0
 3699 0230 2E       		.uleb128 0x2e
 3700 0231 34       		.uleb128 0x34
 3701 0232 00       		.byte	0
 3702 0233 03       		.uleb128 0x3
ARM GAS  C:\Users\jo\AppData\Local\Temp\ccs3alFi.s 			page 68


 3703 0234 08       		.uleb128 0x8
 3704 0235 3A       		.uleb128 0x3a
 3705 0236 0B       		.uleb128 0xb
 3706 0237 3B       		.uleb128 0x3b
 3707 0238 0B       		.uleb128 0xb
 3708 0239 49       		.uleb128 0x49
 3709 023a 13       		.uleb128 0x13
 3710 023b 02       		.uleb128 0x2
 3711 023c 17       		.uleb128 0x17
 3712 023d 00       		.byte	0
 3713 023e 00       		.byte	0
 3714 023f 2F       		.uleb128 0x2f
 3715 0240 05       		.uleb128 0x5
 3716 0241 00       		.byte	0
 3717 0242 03       		.uleb128 0x3
 3718 0243 0E       		.uleb128 0xe
 3719 0244 3A       		.uleb128 0x3a
 3720 0245 0B       		.uleb128 0xb
 3721 0246 3B       		.uleb128 0x3b
 3722 0247 0B       		.uleb128 0xb
 3723 0248 49       		.uleb128 0x49
 3724 0249 13       		.uleb128 0x13
 3725 024a 02       		.uleb128 0x2
 3726 024b 17       		.uleb128 0x17
 3727 024c 00       		.byte	0
 3728 024d 00       		.byte	0
 3729 024e 30       		.uleb128 0x30
 3730 024f 898201   		.uleb128 0x4109
 3731 0252 01       		.byte	0x1
 3732 0253 11       		.uleb128 0x11
 3733 0254 01       		.uleb128 0x1
 3734 0255 31       		.uleb128 0x31
 3735 0256 13       		.uleb128 0x13
 3736 0257 01       		.uleb128 0x1
 3737 0258 13       		.uleb128 0x13
 3738 0259 00       		.byte	0
 3739 025a 00       		.byte	0
 3740 025b 31       		.uleb128 0x31
 3741 025c 898201   		.uleb128 0x4109
 3742 025f 01       		.byte	0x1
 3743 0260 11       		.uleb128 0x11
 3744 0261 01       		.uleb128 0x1
 3745 0262 9542     		.uleb128 0x2115
 3746 0264 19       		.uleb128 0x19
 3747 0265 31       		.uleb128 0x31
 3748 0266 13       		.uleb128 0x13
 3749 0267 00       		.byte	0
 3750 0268 00       		.byte	0
 3751 0269 32       		.uleb128 0x32
 3752 026a 05       		.uleb128 0x5
 3753 026b 00       		.byte	0
 3754 026c 03       		.uleb128 0x3
 3755 026d 08       		.uleb128 0x8
 3756 026e 3A       		.uleb128 0x3a
 3757 026f 0B       		.uleb128 0xb
 3758 0270 3B       		.uleb128 0x3b
 3759 0271 0B       		.uleb128 0xb
ARM GAS  C:\Users\jo\AppData\Local\Temp\ccs3alFi.s 			page 69


 3760 0272 49       		.uleb128 0x49
 3761 0273 13       		.uleb128 0x13
 3762 0274 02       		.uleb128 0x2
 3763 0275 17       		.uleb128 0x17
 3764 0276 00       		.byte	0
 3765 0277 00       		.byte	0
 3766 0278 33       		.uleb128 0x33
 3767 0279 34       		.uleb128 0x34
 3768 027a 00       		.byte	0
 3769 027b 03       		.uleb128 0x3
 3770 027c 0E       		.uleb128 0xe
 3771 027d 3A       		.uleb128 0x3a
 3772 027e 0B       		.uleb128 0xb
 3773 027f 3B       		.uleb128 0x3b
 3774 0280 05       		.uleb128 0x5
 3775 0281 49       		.uleb128 0x49
 3776 0282 13       		.uleb128 0x13
 3777 0283 3F       		.uleb128 0x3f
 3778 0284 19       		.uleb128 0x19
 3779 0285 3C       		.uleb128 0x3c
 3780 0286 19       		.uleb128 0x19
 3781 0287 00       		.byte	0
 3782 0288 00       		.byte	0
 3783 0289 34       		.uleb128 0x34
 3784 028a 34       		.uleb128 0x34
 3785 028b 00       		.byte	0
 3786 028c 03       		.uleb128 0x3
 3787 028d 08       		.uleb128 0x8
 3788 028e 3A       		.uleb128 0x3a
 3789 028f 0B       		.uleb128 0xb
 3790 0290 3B       		.uleb128 0x3b
 3791 0291 05       		.uleb128 0x5
 3792 0292 49       		.uleb128 0x49
 3793 0293 13       		.uleb128 0x13
 3794 0294 3F       		.uleb128 0x3f
 3795 0295 19       		.uleb128 0x19
 3796 0296 3C       		.uleb128 0x3c
 3797 0297 19       		.uleb128 0x19
 3798 0298 00       		.byte	0
 3799 0299 00       		.byte	0
 3800 029a 35       		.uleb128 0x35
 3801 029b 34       		.uleb128 0x34
 3802 029c 00       		.byte	0
 3803 029d 03       		.uleb128 0x3
 3804 029e 0E       		.uleb128 0xe
 3805 029f 3A       		.uleb128 0x3a
 3806 02a0 0B       		.uleb128 0xb
 3807 02a1 3B       		.uleb128 0x3b
 3808 02a2 0B       		.uleb128 0xb
 3809 02a3 49       		.uleb128 0x49
 3810 02a4 13       		.uleb128 0x13
 3811 02a5 3F       		.uleb128 0x3f
 3812 02a6 19       		.uleb128 0x19
 3813 02a7 3C       		.uleb128 0x3c
 3814 02a8 19       		.uleb128 0x19
 3815 02a9 00       		.byte	0
 3816 02aa 00       		.byte	0
ARM GAS  C:\Users\jo\AppData\Local\Temp\ccs3alFi.s 			page 70


 3817 02ab 36       		.uleb128 0x36
 3818 02ac 34       		.uleb128 0x34
 3819 02ad 00       		.byte	0
 3820 02ae 03       		.uleb128 0x3
 3821 02af 0E       		.uleb128 0xe
 3822 02b0 3A       		.uleb128 0x3a
 3823 02b1 0B       		.uleb128 0xb
 3824 02b2 3B       		.uleb128 0x3b
 3825 02b3 0B       		.uleb128 0xb
 3826 02b4 49       		.uleb128 0x49
 3827 02b5 13       		.uleb128 0x13
 3828 02b6 3F       		.uleb128 0x3f
 3829 02b7 19       		.uleb128 0x19
 3830 02b8 02       		.uleb128 0x2
 3831 02b9 18       		.uleb128 0x18
 3832 02ba 00       		.byte	0
 3833 02bb 00       		.byte	0
 3834 02bc 37       		.uleb128 0x37
 3835 02bd 2E       		.uleb128 0x2e
 3836 02be 01       		.byte	0x1
 3837 02bf 3F       		.uleb128 0x3f
 3838 02c0 19       		.uleb128 0x19
 3839 02c1 03       		.uleb128 0x3
 3840 02c2 0E       		.uleb128 0xe
 3841 02c3 3A       		.uleb128 0x3a
 3842 02c4 0B       		.uleb128 0xb
 3843 02c5 3B       		.uleb128 0x3b
 3844 02c6 0B       		.uleb128 0xb
 3845 02c7 27       		.uleb128 0x27
 3846 02c8 19       		.uleb128 0x19
 3847 02c9 49       		.uleb128 0x49
 3848 02ca 13       		.uleb128 0x13
 3849 02cb 3C       		.uleb128 0x3c
 3850 02cc 19       		.uleb128 0x19
 3851 02cd 00       		.byte	0
 3852 02ce 00       		.byte	0
 3853 02cf 00       		.byte	0
 3854              		.section	.debug_loc,"",%progbits
 3855              	.Ldebug_loc0:
 3856              	.LLST0:
 3857 0000 00000000 		.4byte	.LVL0
 3858 0004 0A000000 		.4byte	.LVL1
 3859 0008 0100     		.2byte	0x1
 3860 000a 50       		.byte	0x50
 3861 000b 0A000000 		.4byte	.LVL1
 3862 000f 24000000 		.4byte	.LFE266
 3863 0013 0400     		.2byte	0x4
 3864 0015 F3       		.byte	0xf3
 3865 0016 01       		.uleb128 0x1
 3866 0017 50       		.byte	0x50
 3867 0018 9F       		.byte	0x9f
 3868 0019 00000000 		.4byte	0
 3869 001d 00000000 		.4byte	0
 3870              	.LLST1:
 3871 0021 1A000000 		.4byte	.LVL3
 3872 0025 22000000 		.4byte	.LVL4
 3873 0029 0200     		.2byte	0x2
ARM GAS  C:\Users\jo\AppData\Local\Temp\ccs3alFi.s 			page 71


 3874 002b 30       		.byte	0x30
 3875 002c 9F       		.byte	0x9f
 3876 002d 00000000 		.4byte	0
 3877 0031 00000000 		.4byte	0
 3878              	.LLST2:
 3879 0035 00000000 		.4byte	.LVL5
 3880 0039 0A000000 		.4byte	.LVL6
 3881 003d 0100     		.2byte	0x1
 3882 003f 50       		.byte	0x50
 3883 0040 0A000000 		.4byte	.LVL6
 3884 0044 88000000 		.4byte	.LVL20
 3885 0048 0100     		.2byte	0x1
 3886 004a 55       		.byte	0x55
 3887 004b 88000000 		.4byte	.LVL20
 3888 004f C4000000 		.4byte	.LFE261
 3889 0053 0400     		.2byte	0x4
 3890 0055 F3       		.byte	0xf3
 3891 0056 01       		.uleb128 0x1
 3892 0057 50       		.byte	0x50
 3893 0058 9F       		.byte	0x9f
 3894 0059 00000000 		.4byte	0
 3895 005d 00000000 		.4byte	0
 3896              	.LLST3:
 3897 0061 00000000 		.4byte	.LVL5
 3898 0065 0C000000 		.4byte	.LVL7
 3899 0069 0100     		.2byte	0x1
 3900 006b 51       		.byte	0x51
 3901 006c 0C000000 		.4byte	.LVL7
 3902 0070 0F000000 		.4byte	.LVL8-1
 3903 0074 0100     		.2byte	0x1
 3904 0076 52       		.byte	0x52
 3905 0077 0F000000 		.4byte	.LVL8-1
 3906 007b C4000000 		.4byte	.LFE261
 3907 007f 0400     		.2byte	0x4
 3908 0081 F3       		.byte	0xf3
 3909 0082 01       		.uleb128 0x1
 3910 0083 51       		.byte	0x51
 3911 0084 9F       		.byte	0x9f
 3912 0085 00000000 		.4byte	0
 3913 0089 00000000 		.4byte	0
 3914              	.LLST4:
 3915 008d 00000000 		.4byte	.LVL22
 3916 0091 0A000000 		.4byte	.LVL23
 3917 0095 0100     		.2byte	0x1
 3918 0097 50       		.byte	0x50
 3919 0098 0A000000 		.4byte	.LVL23
 3920 009c 38000000 		.4byte	.LVL29
 3921 00a0 0100     		.2byte	0x1
 3922 00a2 55       		.byte	0x55
 3923 00a3 38000000 		.4byte	.LVL29
 3924 00a7 54000000 		.4byte	.LFE262
 3925 00ab 0400     		.2byte	0x4
 3926 00ad F3       		.byte	0xf3
 3927 00ae 01       		.uleb128 0x1
 3928 00af 50       		.byte	0x50
 3929 00b0 9F       		.byte	0x9f
 3930 00b1 00000000 		.4byte	0
ARM GAS  C:\Users\jo\AppData\Local\Temp\ccs3alFi.s 			page 72


 3931 00b5 00000000 		.4byte	0
 3932              	.LLST5:
 3933 00b9 00000000 		.4byte	.LVL22
 3934 00bd 0C000000 		.4byte	.LVL24
 3935 00c1 0100     		.2byte	0x1
 3936 00c3 51       		.byte	0x51
 3937 00c4 0C000000 		.4byte	.LVL24
 3938 00c8 0F000000 		.4byte	.LVL25-1
 3939 00cc 0100     		.2byte	0x1
 3940 00ce 52       		.byte	0x52
 3941 00cf 0F000000 		.4byte	.LVL25-1
 3942 00d3 54000000 		.4byte	.LFE262
 3943 00d7 0400     		.2byte	0x4
 3944 00d9 F3       		.byte	0xf3
 3945 00da 01       		.uleb128 0x1
 3946 00db 51       		.byte	0x51
 3947 00dc 9F       		.byte	0x9f
 3948 00dd 00000000 		.4byte	0
 3949 00e1 00000000 		.4byte	0
 3950              	.LLST6:
 3951 00e5 00000000 		.4byte	.LVL31
 3952 00e9 0A000000 		.4byte	.LVL32
 3953 00ed 0100     		.2byte	0x1
 3954 00ef 50       		.byte	0x50
 3955 00f0 0A000000 		.4byte	.LVL32
 3956 00f4 24000000 		.4byte	.LVL33
 3957 00f8 0100     		.2byte	0x1
 3958 00fa 57       		.byte	0x57
 3959 00fb 24000000 		.4byte	.LVL33
 3960 00ff 26000000 		.4byte	.LVL34
 3961 0103 0400     		.2byte	0x4
 3962 0105 F3       		.byte	0xf3
 3963 0106 01       		.uleb128 0x1
 3964 0107 50       		.byte	0x50
 3965 0108 9F       		.byte	0x9f
 3966 0109 26000000 		.4byte	.LVL34
 3967 010d 36000000 		.4byte	.LVL36
 3968 0111 0100     		.2byte	0x1
 3969 0113 57       		.byte	0x57
 3970 0114 36000000 		.4byte	.LVL36
 3971 0118 39000000 		.4byte	.LVL37-1
 3972 011c 0100     		.2byte	0x1
 3973 011e 50       		.byte	0x50
 3974 011f 39000000 		.4byte	.LVL37-1
 3975 0123 40000000 		.4byte	.LFE263
 3976 0127 0400     		.2byte	0x4
 3977 0129 F3       		.byte	0xf3
 3978 012a 01       		.uleb128 0x1
 3979 012b 50       		.byte	0x50
 3980 012c 9F       		.byte	0x9f
 3981 012d 00000000 		.4byte	0
 3982 0131 00000000 		.4byte	0
 3983              	.LLST7:
 3984 0135 00000000 		.4byte	.LVL31
 3985 0139 0A000000 		.4byte	.LVL32
 3986 013d 0100     		.2byte	0x1
 3987 013f 51       		.byte	0x51
ARM GAS  C:\Users\jo\AppData\Local\Temp\ccs3alFi.s 			page 73


 3988 0140 0A000000 		.4byte	.LVL32
 3989 0144 24000000 		.4byte	.LVL33
 3990 0148 0100     		.2byte	0x1
 3991 014a 56       		.byte	0x56
 3992 014b 24000000 		.4byte	.LVL33
 3993 014f 26000000 		.4byte	.LVL34
 3994 0153 0400     		.2byte	0x4
 3995 0155 F3       		.byte	0xf3
 3996 0156 01       		.uleb128 0x1
 3997 0157 51       		.byte	0x51
 3998 0158 9F       		.byte	0x9f
 3999 0159 26000000 		.4byte	.LVL34
 4000 015d 2C000000 		.4byte	.LVL35
 4001 0161 0100     		.2byte	0x1
 4002 0163 56       		.byte	0x56
 4003 0164 2C000000 		.4byte	.LVL35
 4004 0168 40000000 		.4byte	.LFE263
 4005 016c 0400     		.2byte	0x4
 4006 016e F3       		.byte	0xf3
 4007 016f 01       		.uleb128 0x1
 4008 0170 51       		.byte	0x51
 4009 0171 9F       		.byte	0x9f
 4010 0172 00000000 		.4byte	0
 4011 0176 00000000 		.4byte	0
 4012              	.LLST8:
 4013 017a 00000000 		.4byte	.LVL38
 4014 017e 0A000000 		.4byte	.LVL39
 4015 0182 0100     		.2byte	0x1
 4016 0184 50       		.byte	0x50
 4017 0185 0A000000 		.4byte	.LVL39
 4018 0189 68000000 		.4byte	.LVL49
 4019 018d 0100     		.2byte	0x1
 4020 018f 55       		.byte	0x55
 4021 0190 68000000 		.4byte	.LVL49
 4022 0194 98000000 		.4byte	.LFE264
 4023 0198 0400     		.2byte	0x4
 4024 019a F3       		.byte	0xf3
 4025 019b 01       		.uleb128 0x1
 4026 019c 50       		.byte	0x50
 4027 019d 9F       		.byte	0x9f
 4028 019e 00000000 		.4byte	0
 4029 01a2 00000000 		.4byte	0
 4030              	.LLST9:
 4031 01a6 54000000 		.4byte	.LVL58
 4032 01aa 56000000 		.4byte	.LVL59
 4033 01ae 0200     		.2byte	0x2
 4034 01b0 30       		.byte	0x30
 4035 01b1 9F       		.byte	0x9f
 4036 01b2 56000000 		.4byte	.LVL59
 4037 01b6 5C000000 		.4byte	.LVL60
 4038 01ba 0100     		.2byte	0x1
 4039 01bc 54       		.byte	0x54
 4040 01bd 00000000 		.4byte	0
 4041 01c1 00000000 		.4byte	0
 4042              		.section	.debug_aranges,"",%progbits
 4043 0000 4C000000 		.4byte	0x4c
 4044 0004 0200     		.2byte	0x2
ARM GAS  C:\Users\jo\AppData\Local\Temp\ccs3alFi.s 			page 74


 4045 0006 00000000 		.4byte	.Ldebug_info0
 4046 000a 04       		.byte	0x4
 4047 000b 00       		.byte	0
 4048 000c 0000     		.2byte	0
 4049 000e 0000     		.2byte	0
 4050 0010 00000000 		.4byte	.LFB266
 4051 0014 24000000 		.4byte	.LFE266-.LFB266
 4052 0018 00000000 		.4byte	.LFB260
 4053 001c 48000000 		.4byte	.LFE260-.LFB260
 4054 0020 00000000 		.4byte	.LFB261
 4055 0024 C4000000 		.4byte	.LFE261-.LFB261
 4056 0028 00000000 		.4byte	.LFB262
 4057 002c 54000000 		.4byte	.LFE262-.LFB262
 4058 0030 00000000 		.4byte	.LFB263
 4059 0034 40000000 		.4byte	.LFE263-.LFB263
 4060 0038 00000000 		.4byte	.LFB264
 4061 003c 98000000 		.4byte	.LFE264-.LFB264
 4062 0040 00000000 		.4byte	.LFB265
 4063 0044 9C000000 		.4byte	.LFE265-.LFB265
 4064 0048 00000000 		.4byte	0
 4065 004c 00000000 		.4byte	0
 4066              		.section	.debug_ranges,"",%progbits
 4067              	.Ldebug_ranges0:
 4068 0000 00000000 		.4byte	.LFB266
 4069 0004 24000000 		.4byte	.LFE266
 4070 0008 00000000 		.4byte	.LFB260
 4071 000c 48000000 		.4byte	.LFE260
 4072 0010 00000000 		.4byte	.LFB261
 4073 0014 C4000000 		.4byte	.LFE261
 4074 0018 00000000 		.4byte	.LFB262
 4075 001c 54000000 		.4byte	.LFE262
 4076 0020 00000000 		.4byte	.LFB263
 4077 0024 40000000 		.4byte	.LFE263
 4078 0028 00000000 		.4byte	.LFB264
 4079 002c 98000000 		.4byte	.LFE264
 4080 0030 00000000 		.4byte	.LFB265
 4081 0034 9C000000 		.4byte	.LFE265
 4082 0038 00000000 		.4byte	0
 4083 003c 00000000 		.4byte	0
 4084              		.section	.debug_line,"",%progbits
 4085              	.Ldebug_line0:
 4086 0000 06040000 		.section	.debug_str,"MS",%progbits,1
 4086      02002503 
 4086      00000201 
 4086      FB0E0D00 
 4086      01010101 
 4087              	.LASF25:
 4088 0000 74726566 		.ascii	"trefs_t\000"
 4088      735F7400 
 4089              	.LASF56:
 4090 0008 72656164 		.ascii	"ready_list_t\000"
 4090      795F6C69 
 4090      73745F74 
 4090      00
 4091              	.LASF92:
 4092 0015 73655F74 		.ascii	"se_time\000"
 4092      696D6500 
ARM GAS  C:\Users\jo\AppData\Local\Temp\ccs3alFi.s 			page 75


 4093              	.LASF2:
 4094 001d 73697A65 		.ascii	"size_t\000"
 4094      5F7400
 4095              	.LASF186:
 4096 0024 6C776970 		.ascii	"lwip_stats\000"
 4096      5F737461 
 4096      747300
 4097              	.LASF21:
 4098 002f 75696E74 		.ascii	"uint64_t\000"
 4098      36345F74 
 4098      00
 4099              	.LASF171:
 4100 0038 69705F66 		.ascii	"ip_frag\000"
 4100      72616700 
 4101              	.LASF3:
 4102 0040 5F5F7569 		.ascii	"__uint8_t\000"
 4102      6E74385F 
 4102      7400
 4103              	.LASF91:
 4104 004a 706F7274 		.ascii	"port_intctx\000"
 4104      5F696E74 
 4104      63747800 
 4105              	.LASF129:
 4106 0056 76615F6C 		.ascii	"va_list\000"
 4106      69737400 
 4107              	.LASF75:
 4108 005e 73797374 		.ascii	"system_debug_t\000"
 4108      656D5F64 
 4108      65627567 
 4108      5F7400
 4109              	.LASF152:
 4110 006d 63686B65 		.ascii	"chkerr\000"
 4110      727200
 4111              	.LASF15:
 4112 0074 6C6F6E67 		.ascii	"long long unsigned int\000"
 4112      206C6F6E 
 4112      6720756E 
 4112      7369676E 
 4112      65642069 
 4113              	.LASF174:
 4114 008b 666F726D 		.ascii	"formatted_bytes\000"
 4114      61747465 
 4114      645F6279 
 4114      74657300 
 4115              	.LASF95:
 4116 009b 73655F73 		.ascii	"se_state\000"
 4116      74617465 
 4116      00
 4117              	.LASF104:
 4118 00a4 65786974 		.ascii	"exitcode\000"
 4118      636F6465 
 4118      00
 4119              	.LASF146:
 4120 00ad 4D454D50 		.ascii	"MEMP_PBUF_POOL\000"
 4120      5F504255 
 4120      465F504F 
 4120      4F4C00
ARM GAS  C:\Users\jo\AppData\Local\Temp\ccs3alFi.s 			page 76


 4121              	.LASF154:
 4122 00bc 6D656D65 		.ascii	"memerr\000"
 4122      727200
 4123              	.LASF137:
 4124 00c3 4D454D50 		.ascii	"MEMP_TCP_SEG\000"
 4124      5F544350 
 4124      5F534547 
 4124      00
 4125              	.LASF72:
 4126 00d0 76697274 		.ascii	"virtual_timers_list_t\000"
 4126      75616C5F 
 4126      74696D65 
 4126      72735F6C 
 4126      6973745F 
 4127              	.LASF158:
 4128 00e6 63616368 		.ascii	"cachehit\000"
 4128      65686974 
 4128      00
 4129              	.LASF55:
 4130 00ef 63685F74 		.ascii	"ch_threads_queue\000"
 4130      68726561 
 4130      64735F71 
 4130      75657565 
 4130      00
 4131              	.LASF157:
 4132 0100 6F707465 		.ascii	"opterr\000"
 4132      727200
 4133              	.LASF34:
 4134 0107 705F7072 		.ascii	"p_prio\000"
 4134      696F00
 4135              	.LASF189:
 4136 010e 433A5C55 		.ascii	"C:\\Users\\jo\\Documents\\GitHub\\ChibiOS\\demos\\S"
 4136      73657273 
 4136      5C6A6F5C 
 4136      446F6375 
 4136      6D656E74 
 4137 013a 544D3332 		.ascii	"TM32\\RT-STM32F407-DISCOVERY-uHttp\000"
 4137      5C52542D 
 4137      53544D33 
 4137      32463430 
 4137      372D4449 
 4138              	.LASF17:
 4139 015c 696E7431 		.ascii	"int16_t\000"
 4139      365F7400 
 4140              	.LASF13:
 4141 0164 6C6F6E67 		.ascii	"long long int\000"
 4141      206C6F6E 
 4141      6720696E 
 4141      7400
 4142              	.LASF1:
 4143 0172 7369676E 		.ascii	"signed char\000"
 4143      65642063 
 4143      68617200 
 4144              	.LASF12:
 4145 017e 6C6F6E67 		.ascii	"long unsigned int\000"
 4145      20756E73 
 4145      69676E65 
ARM GAS  C:\Users\jo\AppData\Local\Temp\ccs3alFi.s 			page 77


 4145      6420696E 
 4145      7400
 4146              	.LASF49:
 4147 0190 705F6D70 		.ascii	"p_mpool\000"
 4147      6F6F6C00 
 4148              	.LASF84:
 4149 0198 76746C69 		.ascii	"vtlist\000"
 4149      737400
 4150              	.LASF138:
 4151 019f 4D454D50 		.ascii	"MEMP_REASSDATA\000"
 4151      5F524541 
 4151      53534441 
 4151      544100
 4152              	.LASF106:
 4153 01ae 77747472 		.ascii	"wttrp\000"
 4153      7000
 4154              	.LASF82:
 4155 01b4 63685F73 		.ascii	"ch_system\000"
 4155      79737465 
 4155      6D00
 4156              	.LASF10:
 4157 01be 6C6F6E67 		.ascii	"long int\000"
 4157      20696E74 
 4157      00
 4158              	.LASF24:
 4159 01c7 74737461 		.ascii	"tstate_t\000"
 4159      74655F74 
 4159      00
 4160              	.LASF127:
 4161 01d0 5F5F7661 		.ascii	"__va_list\000"
 4161      5F6C6973 
 4161      7400
 4162              	.LASF42:
 4163 01da 705F7265 		.ascii	"p_refs\000"
 4163      667300
 4164              	.LASF93:
 4165 01e1 73655F74 		.ascii	"se_tp\000"
 4165      7000
 4166              	.LASF170:
 4167 01e7 65746861 		.ascii	"etharp\000"
 4167      727000
 4168              	.LASF18:
 4169 01ee 75696E74 		.ascii	"uint16_t\000"
 4169      31365F74 
 4169      00
 4170              	.LASF163:
 4171 01f7 696C6C65 		.ascii	"illegal\000"
 4171      67616C00 
 4172              	.LASF134:
 4173 01ff 4D454D50 		.ascii	"MEMP_UDP_PCB\000"
 4173      5F554450 
 4173      5F504342 
 4173      00
 4174              	.LASF36:
 4175 020c 705F6E65 		.ascii	"p_newer\000"
 4175      77657200 
 4176              	.LASF111:
ARM GAS  C:\Users\jo\AppData\Local\Temp\ccs3alFi.s 			page 78


 4177 0214 735F7175 		.ascii	"s_queue\000"
 4177      65756500 
 4178              	.LASF97:
 4179 021c 74625F73 		.ascii	"tb_size\000"
 4179      697A6500 
 4180              	.LASF61:
 4181 0224 725F6E65 		.ascii	"r_newer\000"
 4181      77657200 
 4182              	.LASF136:
 4183 022c 4D454D50 		.ascii	"MEMP_TCP_PCB_LISTEN\000"
 4183      5F544350 
 4183      5F504342 
 4183      5F4C4953 
 4183      54454E00 
 4184              	.LASF88:
 4185 0240 72656761 		.ascii	"regarm_t\000"
 4185      726D5F74 
 4185      00
 4186              	.LASF68:
 4187 0249 76745F70 		.ascii	"vt_prev\000"
 4187      72657600 
 4188              	.LASF169:
 4189 0251 6C696E6B 		.ascii	"link\000"
 4189      00
 4190              	.LASF5:
 4191 0256 5F5F696E 		.ascii	"__int16_t\000"
 4191      7431365F 
 4191      7400
 4192              	.LASF131:
 4193 0260 7331365F 		.ascii	"s16_t\000"
 4193      7400
 4194              	.LASF118:
 4195 0266 6D757465 		.ascii	"mutex_t\000"
 4195      785F7400 
 4196              	.LASF177:
 4197 026e 73746174 		.ascii	"stats_display_proto\000"
 4197      735F6469 
 4197      73706C61 
 4197      795F7072 
 4197      6F746F00 
 4198              	.LASF122:
 4199 0282 42617365 		.ascii	"BaseSequentialStream\000"
 4199      53657175 
 4199      656E7469 
 4199      616C5374 
 4199      7265616D 
 4200              	.LASF86:
 4201 0297 69646C65 		.ascii	"idle_thread_wa\000"
 4201      5F746872 
 4201      6561645F 
 4201      776100
 4202              	.LASF29:
 4203 02a6 636E745F 		.ascii	"cnt_t\000"
 4203      7400
 4204              	.LASF156:
 4205 02ac 70726F74 		.ascii	"proterr\000"
 4205      65727200 
ARM GAS  C:\Users\jo\AppData\Local\Temp\ccs3alFi.s 			page 79


 4206              	.LASF39:
 4207 02b4 705F7374 		.ascii	"p_stklimit\000"
 4207      6B6C696D 
 4207      697400
 4208              	.LASF0:
 4209 02bf 756E7369 		.ascii	"unsigned int\000"
 4209      676E6564 
 4209      20696E74 
 4209      00
 4210              	.LASF67:
 4211 02cc 76745F6E 		.ascii	"vt_next\000"
 4211      65787400 
 4212              	.LASF107:
 4213 02d4 77747365 		.ascii	"wtsemp\000"
 4213      6D7000
 4214              	.LASF145:
 4215 02db 4D454D50 		.ascii	"MEMP_PBUF\000"
 4215      5F504255 
 4215      4600
 4216              	.LASF44:
 4217 02e5 705F6D73 		.ascii	"p_msgqueue\000"
 4217      67717565 
 4217      756500
 4218              	.LASF150:
 4219 02f0 72656376 		.ascii	"recv\000"
 4219      00
 4220              	.LASF183:
 4221 02f5 73746174 		.ascii	"stats_display\000"
 4221      735F6469 
 4221      73706C61 
 4221      7900
 4222              	.LASF160:
 4223 0303 6E616D65 		.ascii	"name\000"
 4223      00
 4224              	.LASF135:
 4225 0308 4D454D50 		.ascii	"MEMP_TCP_PCB\000"
 4225      5F544350 
 4225      5F504342 
 4225      00
 4226              	.LASF112:
 4227 0315 735F636E 		.ascii	"s_cnt\000"
 4227      7400
 4228              	.LASF175:
 4229 031b 6D656D70 		.ascii	"memp_names\000"
 4229      5F6E616D 
 4229      657300
 4230              	.LASF8:
 4231 0326 73686F72 		.ascii	"short unsigned int\000"
 4231      7420756E 
 4231      7369676E 
 4231      65642069 
 4231      6E7400
 4232              	.LASF52:
 4233 0339 63685F74 		.ascii	"ch_thread\000"
 4233      68726561 
 4233      6400
 4234              	.LASF143:
ARM GAS  C:\Users\jo\AppData\Local\Temp\ccs3alFi.s 			page 80


 4235 0343 4D454D50 		.ascii	"MEMP_TCPIP_MSG_INPKT\000"
 4235      5F544350 
 4235      49505F4D 
 4235      53475F49 
 4235      4E504B54 
 4236              	.LASF27:
 4237 0358 6D73675F 		.ascii	"msg_t\000"
 4237      7400
 4238              	.LASF81:
 4239 035e 63685F73 		.ascii	"ch_system_t\000"
 4239      79737465 
 4239      6D5F7400 
 4240              	.LASF23:
 4241 036a 746D6F64 		.ascii	"tmode_t\000"
 4241      655F7400 
 4242              	.LASF83:
 4243 0372 726C6973 		.ascii	"rlist\000"
 4243      7400
 4244              	.LASF57:
 4245 0378 63685F72 		.ascii	"ch_ready_list\000"
 4245      65616479 
 4245      5F6C6973 
 4245      7400
 4246              	.LASF28:
 4247 0386 6576656E 		.ascii	"eventmask_t\000"
 4247      746D6173 
 4247      6B5F7400 
 4248              	.LASF9:
 4249 0392 5F5F696E 		.ascii	"__int32_t\000"
 4249      7433325F 
 4249      7400
 4250              	.LASF165:
 4251 039c 73746174 		.ascii	"stats_sys\000"
 4251      735F7379 
 4251      7300
 4252              	.LASF182:
 4253 03a6 73746174 		.ascii	"stats_display_sys\000"
 4253      735F6469 
 4253      73706C61 
 4253      795F7379 
 4253      7300
 4254              	.LASF89:
 4255 03b8 73746B61 		.ascii	"stkalign_t\000"
 4255      6C69676E 
 4255      5F7400
 4256              	.LASF187:
 4257 03c3 474E5520 		.ascii	"GNU C 4.9.3 20141119 (release) [ARM/embedded-4_9-br"
 4257      4320342E 
 4257      392E3320 
 4257      32303134 
 4257      31313139 
 4258 03f6 616E6368 		.ascii	"anch revision 218278] -mcpu=cortex-m4 -mno-thumb-in"
 4258      20726576 
 4258      6973696F 
 4258      6E203231 
 4258      38323738 
 4259 0429 74657277 		.ascii	"terwork -mthumb -ggdb -O2 -fomit-frame-pointer -fal"
ARM GAS  C:\Users\jo\AppData\Local\Temp\ccs3alFi.s 			page 81


 4259      6F726B20 
 4259      2D6D7468 
 4259      756D6220 
 4259      2D676764 
 4260 045c 69676E2D 		.ascii	"ign-functions=16 -ffunction-sections -fdata-section"
 4260      66756E63 
 4260      74696F6E 
 4260      733D3136 
 4260      202D6666 
 4261 048f 73202D66 		.ascii	"s -fno-common\000"
 4261      6E6F2D63 
 4261      6F6D6D6F 
 4261      6E00
 4262              	.LASF120:
 4263 049d 77726974 		.ascii	"write\000"
 4263      6500
 4264              	.LASF147:
 4265 04a3 4D454D50 		.ascii	"MEMP_MAX\000"
 4265      5F4D4158 
 4265      00
 4266              	.LASF43:
 4267 04ac 705F7761 		.ascii	"p_waiting\000"
 4267      6974696E 
 4267      6700
 4268              	.LASF87:
 4269 04b6 73697A65 		.ascii	"sizetype\000"
 4269      74797065 
 4269      00
 4270              	.LASF50:
 4271 04bf 74687265 		.ascii	"thread_reference_t\000"
 4271      61645F72 
 4271      65666572 
 4271      656E6365 
 4271      5F7400
 4272              	.LASF73:
 4273 04d2 63685F76 		.ascii	"ch_virtual_timers_list\000"
 4273      69727475 
 4273      616C5F74 
 4273      696D6572 
 4273      735F6C69 
 4274              	.LASF98:
 4275 04e9 74625F70 		.ascii	"tb_ptr\000"
 4275      747200
 4276              	.LASF126:
 4277 04f0 5F5F676E 		.ascii	"__gnuc_va_list\000"
 4277      75635F76 
 4277      615F6C69 
 4277      737400
 4278              	.LASF96:
 4279 04ff 63685F73 		.ascii	"ch_swc_event_t\000"
 4279      77635F65 
 4279      76656E74 
 4279      5F7400
 4280              	.LASF74:
 4281 050e 76745F6C 		.ascii	"vt_lasttime\000"
 4281      61737474 
 4281      696D6500 
ARM GAS  C:\Users\jo\AppData\Local\Temp\ccs3alFi.s 			page 82


 4282              	.LASF176:
 4283 051a 73746174 		.ascii	"stats_init\000"
 4283      735F696E 
 4283      697400
 4284              	.LASF100:
 4285 0525 63685F74 		.ascii	"ch_trace_buffer_t\000"
 4285      72616365 
 4285      5F627566 
 4285      6665725F 
 4285      7400
 4286              	.LASF37:
 4287 0537 705F6F6C 		.ascii	"p_older\000"
 4287      64657200 
 4288              	.LASF60:
 4289 053f 725F6374 		.ascii	"r_ctx\000"
 4289      7800
 4290              	.LASF102:
 4291 0545 746D5F63 		.ascii	"tm_calibration_t\000"
 4291      616C6962 
 4291      72617469 
 4291      6F6E5F74 
 4291      00
 4292              	.LASF188:
 4293 0556 2E2E2F2E 		.ascii	"../../../ext/lwip/src/core/stats.c\000"
 4293      2E2F2E2E 
 4293      2F657874 
 4293      2F6C7769 
 4293      702F7372 
 4294              	.LASF164:
 4295 0579 73746174 		.ascii	"stats_syselem\000"
 4295      735F7379 
 4295      73656C65 
 4295      6D00
 4296              	.LASF79:
 4297 0587 6C6F636B 		.ascii	"lock_cnt\000"
 4297      5F636E74 
 4297      00
 4298              	.LASF63:
 4299 0590 725F6375 		.ascii	"r_current\000"
 4299      7272656E 
 4299      7400
 4300              	.LASF62:
 4301 059a 725F6F6C 		.ascii	"r_older\000"
 4301      64657200 
 4302              	.LASF168:
 4303 05a2 73746174 		.ascii	"stats_\000"
 4303      735F00
 4304              	.LASF172:
 4305 05a9 69636D70 		.ascii	"icmp\000"
 4305      00
 4306              	.LASF14:
 4307 05ae 5F5F7569 		.ascii	"__uint64_t\000"
 4307      6E743634 
 4307      5F7400
 4308              	.LASF162:
 4309 05b9 75736564 		.ascii	"used\000"
 4309      00
ARM GAS  C:\Users\jo\AppData\Local\Temp\ccs3alFi.s 			page 83


 4310              	.LASF167:
 4311 05be 6D626F78 		.ascii	"mbox\000"
 4311      00
 4312              	.LASF155:
 4313 05c3 72746572 		.ascii	"rterr\000"
 4313      7200
 4314              	.LASF125:
 4315 05c9 49544D53 		.ascii	"ITMStream\000"
 4315      74726561 
 4315      6D00
 4316              	.LASF99:
 4317 05d3 74625F62 		.ascii	"tb_buffer\000"
 4317      75666665 
 4317      7200
 4318              	.LASF65:
 4319 05dd 76697274 		.ascii	"virtual_timer_t\000"
 4319      75616C5F 
 4319      74696D65 
 4319      725F7400 
 4320              	.LASF33:
 4321 05ed 705F7072 		.ascii	"p_prev\000"
 4321      657600
 4322              	.LASF26:
 4323 05f4 74707269 		.ascii	"tprio_t\000"
 4323      6F5F7400 
 4324              	.LASF166:
 4325 05fc 6D757465 		.ascii	"mutex\000"
 4325      7800
 4326              	.LASF38:
 4327 0602 705F6E61 		.ascii	"p_name\000"
 4327      6D6500
 4328              	.LASF76:
 4329 0609 63685F73 		.ascii	"ch_system_debug\000"
 4329      79737465 
 4329      6D5F6465 
 4329      62756700 
 4330              	.LASF123:
 4331 0619 5F426F6F 		.ascii	"_Bool\000"
 4331      6C00
 4332              	.LASF19:
 4333 061f 696E7433 		.ascii	"int32_t\000"
 4333      325F7400 
 4334              	.LASF4:
 4335 0627 756E7369 		.ascii	"unsigned char\000"
 4335      676E6564 
 4335      20636861 
 4335      7200
 4336              	.LASF114:
 4337 0635 6D5F7175 		.ascii	"m_queue\000"
 4337      65756500 
 4338              	.LASF184:
 4339 063d 49544D5F 		.ascii	"ITM_RxBuffer\000"
 4339      52784275 
 4339      66666572 
 4339      00
 4340              	.LASF47:
 4341 064a 705F6D74 		.ascii	"p_mtxlist\000"
ARM GAS  C:\Users\jo\AppData\Local\Temp\ccs3alFi.s 			page 84


 4341      786C6973 
 4341      7400
 4342              	.LASF6:
 4343 0654 73686F72 		.ascii	"short int\000"
 4343      7420696E 
 4343      7400
 4344              	.LASF40:
 4345 065e 705F7374 		.ascii	"p_state\000"
 4345      61746500 
 4346              	.LASF59:
 4347 0666 725F7072 		.ascii	"r_prio\000"
 4347      696F00
 4348              	.LASF151:
 4349 066d 64726F70 		.ascii	"drop\000"
 4349      00
 4350              	.LASF109:
 4351 0672 65776D61 		.ascii	"ewmask\000"
 4351      736B00
 4352              	.LASF32:
 4353 0679 705F6E65 		.ascii	"p_next\000"
 4353      787400
 4354              	.LASF132:
 4355 0680 7533325F 		.ascii	"u32_t\000"
 4355      7400
 4356              	.LASF41:
 4357 0686 705F666C 		.ascii	"p_flags\000"
 4357      61677300 
 4358              	.LASF85:
 4359 068e 6D61696E 		.ascii	"mainthread\000"
 4359      74687265 
 4359      616400
 4360              	.LASF103:
 4361 0699 7264796D 		.ascii	"rdymsg\000"
 4361      736700
 4362              	.LASF178:
 4363 06a0 70726F74 		.ascii	"proto\000"
 4363      6F00
 4364              	.LASF66:
 4365 06a6 63685F76 		.ascii	"ch_virtual_timer\000"
 4365      69727475 
 4365      616C5F74 
 4365      696D6572 
 4365      00
 4366              	.LASF139:
 4367 06b7 4D454D50 		.ascii	"MEMP_FRAG_PBUF\000"
 4367      5F465241 
 4367      475F5042 
 4367      554600
 4368              	.LASF110:
 4369 06c6 63685F73 		.ascii	"ch_semaphore\000"
 4369      656D6170 
 4369      686F7265 
 4369      00
 4370              	.LASF46:
 4371 06d3 705F6570 		.ascii	"p_epending\000"
 4371      656E6469 
 4371      6E6700
ARM GAS  C:\Users\jo\AppData\Local\Temp\ccs3alFi.s 			page 85


 4372              	.LASF144:
 4373 06de 4D454D50 		.ascii	"MEMP_SYS_TIMEOUT\000"
 4373      5F535953 
 4373      5F54494D 
 4373      454F5554 
 4373      00
 4374              	.LASF119:
 4375 06ef 42617365 		.ascii	"BaseSequentialStreamVMT\000"
 4375      53657175 
 4375      656E7469 
 4375      616C5374 
 4375      7265616D 
 4376              	.LASF108:
 4377 0707 77746D74 		.ascii	"wtmtxp\000"
 4377      787000
 4378              	.LASF58:
 4379 070e 725F7175 		.ascii	"r_queue\000"
 4379      65756500 
 4380              	.LASF69:
 4381 0716 76745F64 		.ascii	"vt_delta\000"
 4381      656C7461 
 4381      00
 4382              	.LASF53:
 4383 071f 63685F74 		.ascii	"ch_threads_list\000"
 4383      68726561 
 4383      64735F6C 
 4383      69737400 
 4384              	.LASF142:
 4385 072f 4D454D50 		.ascii	"MEMP_TCPIP_MSG_API\000"
 4385      5F544350 
 4385      49505F4D 
 4385      53475F41 
 4385      504900
 4386              	.LASF121:
 4387 0742 72656164 		.ascii	"read\000"
 4387      00
 4388              	.LASF117:
 4389 0747 63686172 		.ascii	"char\000"
 4389      00
 4390              	.LASF124:
 4391 074c 49544D53 		.ascii	"ITMStreamVMT\000"
 4391      74726561 
 4391      6D564D54 
 4391      00
 4392              	.LASF140:
 4393 0759 4D454D50 		.ascii	"MEMP_NETBUF\000"
 4393      5F4E4554 
 4393      42554600 
 4394              	.LASF7:
 4395 0765 5F5F7569 		.ascii	"__uint16_t\000"
 4395      6E743136 
 4395      5F7400
 4396              	.LASF173:
 4397 0770 6D656D70 		.ascii	"memp\000"
 4397      00
 4398              	.LASF141:
 4399 0775 4D454D50 		.ascii	"MEMP_NETCONN\000"
ARM GAS  C:\Users\jo\AppData\Local\Temp\ccs3alFi.s 			page 86


 4399      5F4E4554 
 4399      434F4E4E 
 4399      00
 4400              	.LASF31:
 4401 0782 74687265 		.ascii	"thread_t\000"
 4401      61645F74 
 4401      00
 4402              	.LASF116:
 4403 078b 6D5F6E65 		.ascii	"m_next\000"
 4403      787400
 4404              	.LASF30:
 4405 0792 73797374 		.ascii	"systime_t\000"
 4405      696D655F 
 4405      7400
 4406              	.LASF48:
 4407 079c 705F7265 		.ascii	"p_realprio\000"
 4407      616C7072 
 4407      696F00
 4408              	.LASF64:
 4409 07a7 76746675 		.ascii	"vtfunc_t\000"
 4409      6E635F74 
 4409      00
 4410              	.LASF11:
 4411 07b0 5F5F7569 		.ascii	"__uint32_t\000"
 4411      6E743332 
 4411      5F7400
 4412              	.LASF77:
 4413 07bb 70616E69 		.ascii	"panic_msg\000"
 4413      635F6D73 
 4413      6700
 4414              	.LASF101:
 4415 07c5 6F666673 		.ascii	"offset\000"
 4415      657400
 4416              	.LASF128:
 4417 07cc 5F5F6170 		.ascii	"__ap\000"
 4417      00
 4418              	.LASF90:
 4419 07d1 636F6E74 		.ascii	"context\000"
 4419      65787400 
 4420              	.LASF22:
 4421 07d9 7274636E 		.ascii	"rtcnt_t\000"
 4421      745F7400 
 4422              	.LASF71:
 4423 07e1 76745F70 		.ascii	"vt_par\000"
 4423      617200
 4424              	.LASF130:
 4425 07e8 7531365F 		.ascii	"u16_t\000"
 4425      7400
 4426              	.LASF20:
 4427 07ee 75696E74 		.ascii	"uint32_t\000"
 4427      33325F74 
 4427      00
 4428              	.LASF185:
 4429 07f7 69746D5F 		.ascii	"itm_port\000"
 4429      706F7274 
 4429      00
 4430              	.LASF133:
ARM GAS  C:\Users\jo\AppData\Local\Temp\ccs3alFi.s 			page 87


 4431 0800 6D656D5F 		.ascii	"mem_size_t\000"
 4431      73697A65 
 4431      5F7400
 4432              	.LASF54:
 4433 080b 74687265 		.ascii	"threads_queue_t\000"
 4433      6164735F 
 4433      71756575 
 4433      655F7400 
 4434              	.LASF113:
 4435 081b 63685F6D 		.ascii	"ch_mutex\000"
 4435      75746578 
 4435      00
 4436              	.LASF153:
 4437 0824 6C656E65 		.ascii	"lenerr\000"
 4437      727200
 4438              	.LASF78:
 4439 082b 6973725F 		.ascii	"isr_cnt\000"
 4439      636E7400 
 4440              	.LASF159:
 4441 0833 73746174 		.ascii	"stats_mem\000"
 4441      735F6D65 
 4441      6D00
 4442              	.LASF16:
 4443 083d 75696E74 		.ascii	"uint8_t\000"
 4443      385F7400 
 4444              	.LASF179:
 4445 0845 73746174 		.ascii	"stats_display_mem\000"
 4445      735F6469 
 4445      73706C61 
 4445      795F6D65 
 4445      6D00
 4446              	.LASF191:
 4447 0857 63687670 		.ascii	"chvprintf\000"
 4447      72696E74 
 4447      6600
 4448              	.LASF149:
 4449 0861 786D6974 		.ascii	"xmit\000"
 4449      00
 4450              	.LASF161:
 4451 0866 61766169 		.ascii	"avail\000"
 4451      6C00
 4452              	.LASF105:
 4453 086c 77746F62 		.ascii	"wtobjp\000"
 4453      6A7000
 4454              	.LASF181:
 4455 0873 696E6465 		.ascii	"index\000"
 4455      7800
 4456              	.LASF51:
 4457 0879 74687265 		.ascii	"threads_list_t\000"
 4457      6164735F 
 4457      6C697374 
 4457      5F7400
 4458              	.LASF80:
 4459 0888 74726163 		.ascii	"trace_buffer\000"
 4459      655F6275 
 4459      66666572 
 4459      00
ARM GAS  C:\Users\jo\AppData\Local\Temp\ccs3alFi.s 			page 88


 4460              	.LASF148:
 4461 0895 73746174 		.ascii	"stats_proto\000"
 4461      735F7072 
 4461      6F746F00 
 4462              	.LASF180:
 4463 08a1 73746174 		.ascii	"stats_display_memp\000"
 4463      735F6469 
 4463      73706C61 
 4463      795F6D65 
 4463      6D7000
 4464              	.LASF45:
 4465 08b4 705F6D73 		.ascii	"p_msg\000"
 4465      6700
 4466              	.LASF115:
 4467 08ba 6D5F6F77 		.ascii	"m_owner\000"
 4467      6E657200 
 4468              	.LASF94:
 4469 08c2 73655F77 		.ascii	"se_wtobjp\000"
 4469      746F626A 
 4469      7000
 4470              	.LASF35:
 4471 08cc 705F6374 		.ascii	"p_ctx\000"
 4471      7800
 4472              	.LASF70:
 4473 08d2 76745F66 		.ascii	"vt_func\000"
 4473      756E6300 
 4474              	.LASF190:
 4475 08da 63687072 		.ascii	"chprintf\000"
 4475      696E7466 
 4475      00
 4476              		.ident	"GCC: (GNU Tools for ARM Embedded Processors) 4.9.3 20141119 (release) [ARM/embedded-4_9-br
ARM GAS  C:\Users\jo\AppData\Local\Temp\ccs3alFi.s 			page 89


DEFINED SYMBOLS
                            *ABS*:00000000 stats.c
C:\Users\jo\AppData\Local\Temp\ccs3alFi.s:19     .text.chprintf.constprop.0:00000000 $t
C:\Users\jo\AppData\Local\Temp\ccs3alFi.s:24     .text.chprintf.constprop.0:00000000 chprintf.constprop.0
C:\Users\jo\AppData\Local\Temp\ccs3alFi.s:70     .text.chprintf.constprop.0:00000020 $d
C:\Users\jo\AppData\Local\Temp\ccs3alFi.s:75     .text.stats_init:00000000 $t
C:\Users\jo\AppData\Local\Temp\ccs3alFi.s:81     .text.stats_init:00000000 stats_init
C:\Users\jo\AppData\Local\Temp\ccs3alFi.s:139    .text.stats_init:0000003c $d
C:\Users\jo\AppData\Local\Temp\ccs3alFi.s:146    .text.stats_display_proto:00000000 $t
C:\Users\jo\AppData\Local\Temp\ccs3alFi.s:152    .text.stats_display_proto:00000000 stats_display_proto
C:\Users\jo\AppData\Local\Temp\ccs3alFi.s:261    .text.stats_display_proto:0000008c $d
C:\Users\jo\AppData\Local\Temp\ccs3alFi.s:279    .text.stats_display_mem:00000000 $t
C:\Users\jo\AppData\Local\Temp\ccs3alFi.s:285    .text.stats_display_mem:00000000 stats_display_mem
C:\Users\jo\AppData\Local\Temp\ccs3alFi.s:346    .text.stats_display_mem:0000003c $d
C:\Users\jo\AppData\Local\Temp\ccs3alFi.s:356    .text.stats_display_memp:00000000 $t
C:\Users\jo\AppData\Local\Temp\ccs3alFi.s:362    .text.stats_display_memp:00000000 stats_display_memp
C:\Users\jo\AppData\Local\Temp\ccs3alFi.s:440    .text.stats_display_memp:0000003c $d
C:\Users\jo\AppData\Local\Temp\ccs3alFi.s:445    .text.stats_display_sys:00000000 $t
C:\Users\jo\AppData\Local\Temp\ccs3alFi.s:451    .text.stats_display_sys:00000000 stats_display_sys
C:\Users\jo\AppData\Local\Temp\ccs3alFi.s:540    .text.stats_display_sys:0000006c $d
C:\Users\jo\AppData\Local\Temp\ccs3alFi.s:555    .text.stats_display:00000000 $t
C:\Users\jo\AppData\Local\Temp\ccs3alFi.s:561    .text.stats_display:00000000 stats_display
C:\Users\jo\AppData\Local\Temp\ccs3alFi.s:645    .text.stats_display:00000074 $d
C:\Users\jo\AppData\Local\Temp\ccs3alFi.s:817    .bss.lwip_stats:00000000 lwip_stats
C:\Users\jo\AppData\Local\Temp\ccs3alFi.s:660    .rodata:00000000 $d
C:\Users\jo\AppData\Local\Temp\ccs3alFi.s:677    .rodata.str1.4:00000000 $d
C:\Users\jo\AppData\Local\Temp\ccs3alFi.s:813    .bss.lwip_stats:00000000 $d
                     .debug_frame:00000010 $d
C:\Users\jo\AppData\Local\Temp\ccs3alFi.s:74     .text.chprintf.constprop.0:00000024 $t
C:\Users\jo\AppData\Local\Temp\ccs3alFi.s:145    .text.stats_init:00000048 $t
C:\Users\jo\AppData\Local\Temp\ccs3alFi.s:278    .text.stats_display_proto:000000c4 $t
C:\Users\jo\AppData\Local\Temp\ccs3alFi.s:355    .text.stats_display_mem:00000054 $t
C:\Users\jo\AppData\Local\Temp\ccs3alFi.s:554    .text.stats_display_sys:00000098 $t
C:\Users\jo\AppData\Local\Temp\ccs3alFi.s:659    .text.stats_display:0000009c $t

UNDEFINED SYMBOLS
chvprintf
itm_port
