ARM GAS  C:\Users\jo\AppData\Local\Temp\ccs3alFi.s 			page 1


   1              		.syntax unified
   2              		.cpu cortex-m4
   3              		.fpu softvfp
   4              		.eabi_attribute 20, 1
   5              		.eabi_attribute 21, 1
   6              		.eabi_attribute 23, 3
   7              		.eabi_attribute 24, 1
   8              		.eabi_attribute 25, 1
   9              		.eabi_attribute 26, 1
  10              		.eabi_attribute 30, 2
  11              		.eabi_attribute 34, 1
  12              		.eabi_attribute 18, 4
  13              		.thumb
  14              		.file	"stats.c"
  15              		.text
  16              	.Ltext0:
  17              		.cfi_sections	.debug_frame
  18              		.section	.text.chprintf.constprop.0,"ax",%progbits
  19              		.align	2
  20              		.p2align 4,,15
  21              		.thumb
  22              		.thumb_func
  23              		.type	chprintf.constprop.0, %function
  24              	chprintf.constprop.0:
  25              	.LFB266:
  26              		.file 1 "../../../os/hal/lib/streams/chprintf.h"
  27              		.loc 1 69 0
  28              		.cfi_startproc
  29              		@ args = 4, pretend = 12, frame = 8
  30              		@ frame_needed = 0, uses_anonymous_args = 1
  31              	.LVL0:
  32 0000 0EB4     		push	{r1, r2, r3}
  33              		.cfi_def_cfa_offset 12
  34              		.cfi_offset 1, -12
  35              		.cfi_offset 2, -8
  36              		.cfi_offset 3, -4
  37 0002 00B5     		push	{lr}
  38              		.cfi_def_cfa_offset 16
  39              		.cfi_offset 14, -16
  40 0004 82B0     		sub	sp, sp, #8
  41              		.cfi_def_cfa_offset 24
  42              		.loc 1 69 0
  43 0006 03AA     		add	r2, sp, #12
  44              		.loc 1 74 0
  45 0008 0548     		ldr	r0, .L3
  46              	.LVL1:
  47              		.loc 1 69 0
  48 000a 52F8041B 		ldr	r1, [r2], #4
  49              		.loc 1 73 0
  50 000e 0192     		str	r2, [sp, #4]
  51              		.loc 1 74 0
  52 0010 FFF7FEFF 		bl	chvprintf
  53              	.LVL2:
  54              		.loc 1 78 0
  55 0014 02B0     		add	sp, sp, #8
  56              		.cfi_def_cfa_offset 16
  57              		@ sp needed
ARM GAS  C:\Users\jo\AppData\Local\Temp\ccs3alFi.s 			page 2


  58 0016 5DF804EB 		ldr	lr, [sp], #4
  59              		.cfi_restore 14
  60              		.cfi_def_cfa_offset 12
  61 001a 03B0     		add	sp, sp, #12
  62              		.cfi_restore 3
  63              		.cfi_restore 2
  64              		.cfi_restore 1
  65              		.cfi_def_cfa_offset 0
  66 001c 7047     		bx	lr
  67              	.L4:
  68 001e 00BF     		.align	2
  69              	.L3:
  70 0020 00000000 		.word	itm_port
  71              		.cfi_endproc
  72              	.LFE266:
  73              		.size	chprintf.constprop.0, .-chprintf.constprop.0
  74 0024 AFF30080 		.section	.text.stats_init,"ax",%progbits
  74      AFF30080 
  74      AFF30080 
  75              		.align	2
  76              		.p2align 4,,15
  77              		.global	stats_init
  78              		.thumb
  79              		.thumb_func
  80              		.type	stats_init, %function
  81              	stats_init:
  82              	.LFB260:
  83              		.file 2 "../../../ext/lwip/src/core/stats.c"
  84              		.loc 2 52 0
  85              		.cfi_startproc
  86              		@ args = 0, pretend = 0, frame = 56
  87              		@ frame_needed = 0, uses_anonymous_args = 0
  88              		@ link register save eliminated.
  89 0000 70B4     		push	{r4, r5, r6}
  90              		.cfi_def_cfa_offset 12
  91              		.cfi_offset 4, -12
  92              		.cfi_offset 5, -8
  93              		.cfi_offset 6, -4
  94              		.loc 2 55 0
  95 0002 0E4D     		ldr	r5, .L10
  96 0004 0E4E     		ldr	r6, .L10+4
  97 0006 0FCD     		ldmia	r5!, {r0, r1, r2, r3}
  98              		.loc 2 52 0
  99 0008 8FB0     		sub	sp, sp, #60
 100              		.cfi_def_cfa_offset 72
 101              		.loc 2 55 0
 102 000a 01AC     		add	r4, sp, #4
 103 000c 0FC4     		stmia	r4!, {r0, r1, r2, r3}
 104 000e 0FCD     		ldmia	r5!, {r0, r1, r2, r3}
 105 0010 0FC4     		stmia	r4!, {r0, r1, r2, r3}
 106 0012 0FCD     		ldmia	r5!, {r0, r1, r2, r3}
 107 0014 0FC4     		stmia	r4!, {r0, r1, r2, r3}
 108 0016 2B68     		ldr	r3, [r5]
 109 0018 2360     		str	r3, [r4]
 110              	.LVL3:
 111 001a 06F58270 		add	r0, r6, #260
 112 001e 3346     		mov	r3, r6
ARM GAS  C:\Users\jo\AppData\Local\Temp\ccs3alFi.s 			page 3


 113 0020 01AA     		add	r2, sp, #4
 114              	.LVL4:
 115              	.L6:
 116              		.loc 2 61 0 discriminator 3
 117 0022 52F8041B 		ldr	r1, [r2], #4
 118 0026 C3F8BC10 		str	r1, [r3, #188]
 119 002a 1433     		adds	r3, r3, #20
 120              		.loc 2 60 0 discriminator 3
 121 002c 8342     		cmp	r3, r0
 122 002e F8D1     		bne	.L6
 123              		.loc 2 65 0
 124 0030 044B     		ldr	r3, .L10+8
 125 0032 C6F8A830 		str	r3, [r6, #168]
 126              		.loc 2 68 0
 127 0036 0FB0     		add	sp, sp, #60
 128              		.cfi_def_cfa_offset 12
 129              		@ sp needed
 130 0038 70BC     		pop	{r4, r5, r6}
 131              		.cfi_restore 6
 132              		.cfi_restore 5
 133              		.cfi_restore 4
 134              		.cfi_def_cfa_offset 0
 135 003a 7047     		bx	lr
 136              	.L11:
 137              		.align	2
 138              	.L10:
 139 003c 00000000 		.word	.LANCHOR0
 140 0040 00000000 		.word	.LANCHOR1
 141 0044 00000000 		.word	.LC16
 142              		.cfi_endproc
 143              	.LFE260:
 144              		.size	stats_init, .-stats_init
 145 0048 AFF30080 		.section	.text.stats_display_proto,"ax",%progbits
 145      AFF30080 
 146              		.align	2
 147              		.p2align 4,,15
 148              		.global	stats_display_proto
 149              		.thumb
 150              		.thumb_func
 151              		.type	stats_display_proto, %function
 152              	stats_display_proto:
 153              	.LFB261:
 154              		.loc 2 73 0
 155              		.cfi_startproc
 156              		@ args = 0, pretend = 0, frame = 0
 157              		@ frame_needed = 0, uses_anonymous_args = 0
 158              	.LVL5:
 159 0000 38B5     		push	{r3, r4, r5, lr}
 160              		.cfi_def_cfa_offset 16
 161              		.cfi_offset 3, -16
 162              		.cfi_offset 4, -12
 163              		.cfi_offset 5, -8
 164              		.cfi_offset 14, -4
 165              		.loc 2 74 0
 166 0002 224C     		ldr	r4, .L14
 167              		.loc 2 73 0
 168 0004 0546     		mov	r5, r0
ARM GAS  C:\Users\jo\AppData\Local\Temp\ccs3alFi.s 			page 4


 169 0006 0A46     		mov	r2, r1
 170              		.loc 2 74 0
 171 0008 2046     		mov	r0, r4
 172              	.LVL6:
 173 000a 2149     		ldr	r1, .L14+4
 174              	.LVL7:
 175 000c FFF7FEFF 		bl	chprintf.constprop.0
 176              	.LVL8:
 177              		.loc 2 75 0
 178 0010 2A88     		ldrh	r2, [r5]
 179 0012 2049     		ldr	r1, .L14+8
 180 0014 2046     		mov	r0, r4
 181 0016 FFF7FEFF 		bl	chprintf.constprop.0
 182              	.LVL9:
 183              		.loc 2 76 0
 184 001a 6A88     		ldrh	r2, [r5, #2]
 185 001c 1E49     		ldr	r1, .L14+12
 186 001e 2046     		mov	r0, r4
 187 0020 FFF7FEFF 		bl	chprintf.constprop.0
 188              	.LVL10:
 189              		.loc 2 77 0
 190 0024 AA88     		ldrh	r2, [r5, #4]
 191 0026 1D49     		ldr	r1, .L14+16
 192 0028 2046     		mov	r0, r4
 193 002a FFF7FEFF 		bl	chprintf.constprop.0
 194              	.LVL11:
 195              		.loc 2 78 0
 196 002e EA88     		ldrh	r2, [r5, #6]
 197 0030 1B49     		ldr	r1, .L14+20
 198 0032 2046     		mov	r0, r4
 199 0034 FFF7FEFF 		bl	chprintf.constprop.0
 200              	.LVL12:
 201              		.loc 2 79 0
 202 0038 2A89     		ldrh	r2, [r5, #8]
 203 003a 1A49     		ldr	r1, .L14+24
 204 003c 2046     		mov	r0, r4
 205 003e FFF7FEFF 		bl	chprintf.constprop.0
 206              	.LVL13:
 207              		.loc 2 80 0
 208 0042 6A89     		ldrh	r2, [r5, #10]
 209 0044 1849     		ldr	r1, .L14+28
 210 0046 2046     		mov	r0, r4
 211 0048 FFF7FEFF 		bl	chprintf.constprop.0
 212              	.LVL14:
 213              		.loc 2 81 0
 214 004c AA89     		ldrh	r2, [r5, #12]
 215 004e 1749     		ldr	r1, .L14+32
 216 0050 2046     		mov	r0, r4
 217 0052 FFF7FEFF 		bl	chprintf.constprop.0
 218              	.LVL15:
 219              		.loc 2 82 0
 220 0056 EA89     		ldrh	r2, [r5, #14]
 221 0058 1549     		ldr	r1, .L14+36
 222 005a 2046     		mov	r0, r4
 223 005c FFF7FEFF 		bl	chprintf.constprop.0
 224              	.LVL16:
 225              		.loc 2 83 0
ARM GAS  C:\Users\jo\AppData\Local\Temp\ccs3alFi.s 			page 5


 226 0060 2A8A     		ldrh	r2, [r5, #16]
 227 0062 1449     		ldr	r1, .L14+40
 228 0064 2046     		mov	r0, r4
 229 0066 FFF7FEFF 		bl	chprintf.constprop.0
 230              	.LVL17:
 231              		.loc 2 84 0
 232 006a 6A8A     		ldrh	r2, [r5, #18]
 233 006c 1249     		ldr	r1, .L14+44
 234 006e 2046     		mov	r0, r4
 235 0070 FFF7FEFF 		bl	chprintf.constprop.0
 236              	.LVL18:
 237              		.loc 2 85 0
 238 0074 AA8A     		ldrh	r2, [r5, #20]
 239 0076 1149     		ldr	r1, .L14+48
 240 0078 2046     		mov	r0, r4
 241 007a FFF7FEFF 		bl	chprintf.constprop.0
 242              	.LVL19:
 243              		.loc 2 86 0
 244 007e 2046     		mov	r0, r4
 245 0080 EA8A     		ldrh	r2, [r5, #22]
 246 0082 0F49     		ldr	r1, .L14+52
 247              		.loc 2 87 0
 248 0084 BDE83840 		pop	{r3, r4, r5, lr}
 249              		.cfi_restore 14
 250              		.cfi_restore 5
 251              		.cfi_restore 4
 252              		.cfi_restore 3
 253              		.cfi_def_cfa_offset 0
 254              	.LVL20:
 255              		.loc 2 86 0
 256 0088 FFF7FEBF 		b	chprintf.constprop.0
 257              	.LVL21:
 258              	.L15:
 259              		.align	2
 260              	.L14:
 261 008c 00000000 		.word	itm_port
 262 0090 04000000 		.word	.LC17
 263 0094 0C000000 		.word	.LC18
 264 0098 18000000 		.word	.LC19
 265 009c 24000000 		.word	.LC20
 266 00a0 30000000 		.word	.LC21
 267 00a4 3C000000 		.word	.LC22
 268 00a8 4C000000 		.word	.LC23
 269 00ac 5C000000 		.word	.LC24
 270 00b0 6C000000 		.word	.LC25
 271 00b4 78000000 		.word	.LC26
 272 00b8 88000000 		.word	.LC27
 273 00bc 98000000 		.word	.LC28
 274 00c0 A4000000 		.word	.LC29
 275              		.cfi_endproc
 276              	.LFE261:
 277              		.size	stats_display_proto, .-stats_display_proto
 278 00c4 AFF30080 		.section	.text.stats_display_mem,"ax",%progbits
 278      AFF30080 
 278      AFF30080 
 279              		.align	2
 280              		.p2align 4,,15
ARM GAS  C:\Users\jo\AppData\Local\Temp\ccs3alFi.s 			page 6


 281              		.global	stats_display_mem
 282              		.thumb
 283              		.thumb_func
 284              		.type	stats_display_mem, %function
 285              	stats_display_mem:
 286              	.LFB262:
 287              		.loc 2 114 0
 288              		.cfi_startproc
 289              		@ args = 0, pretend = 0, frame = 0
 290              		@ frame_needed = 0, uses_anonymous_args = 0
 291              	.LVL22:
 292 0000 38B5     		push	{r3, r4, r5, lr}
 293              		.cfi_def_cfa_offset 16
 294              		.cfi_offset 3, -16
 295              		.cfi_offset 4, -12
 296              		.cfi_offset 5, -8
 297              		.cfi_offset 14, -4
 298              		.loc 2 115 0
 299 0002 0E4C     		ldr	r4, .L18
 300              		.loc 2 114 0
 301 0004 0546     		mov	r5, r0
 302 0006 0A46     		mov	r2, r1
 303              		.loc 2 115 0
 304 0008 2046     		mov	r0, r4
 305              	.LVL23:
 306 000a 0D49     		ldr	r1, .L18+4
 307              	.LVL24:
 308 000c FFF7FEFF 		bl	chprintf.constprop.0
 309              	.LVL25:
 310              		.loc 2 116 0
 311 0010 6A68     		ldr	r2, [r5, #4]
 312 0012 0C49     		ldr	r1, .L18+8
 313 0014 2046     		mov	r0, r4
 314 0016 FFF7FEFF 		bl	chprintf.constprop.0
 315              	.LVL26:
 316              		.loc 2 117 0
 317 001a AA68     		ldr	r2, [r5, #8]
 318 001c 0A49     		ldr	r1, .L18+12
 319 001e 2046     		mov	r0, r4
 320 0020 FFF7FEFF 		bl	chprintf.constprop.0
 321              	.LVL27:
 322              		.loc 2 118 0
 323 0024 EA68     		ldr	r2, [r5, #12]
 324 0026 0949     		ldr	r1, .L18+16
 325 0028 2046     		mov	r0, r4
 326 002a FFF7FEFF 		bl	chprintf.constprop.0
 327              	.LVL28:
 328              		.loc 2 119 0
 329 002e 2046     		mov	r0, r4
 330 0030 2A8A     		ldrh	r2, [r5, #16]
 331 0032 0749     		ldr	r1, .L18+20
 332              		.loc 2 120 0
 333 0034 BDE83840 		pop	{r3, r4, r5, lr}
 334              		.cfi_restore 14
 335              		.cfi_restore 5
 336              		.cfi_restore 4
 337              		.cfi_restore 3
ARM GAS  C:\Users\jo\AppData\Local\Temp\ccs3alFi.s 			page 7


 338              		.cfi_def_cfa_offset 0
 339              	.LVL29:
 340              		.loc 2 119 0
 341 0038 FFF7FEBF 		b	chprintf.constprop.0
 342              	.LVL30:
 343              	.L19:
 344              		.align	2
 345              	.L18:
 346 003c 00000000 		.word	itm_port
 347 0040 B4000000 		.word	.LC30
 348 0044 C0000000 		.word	.LC31
 349 0048 CC000000 		.word	.LC32
 350 004c D8000000 		.word	.LC33
 351 0050 E4000000 		.word	.LC34
 352              		.cfi_endproc
 353              	.LFE262:
 354              		.size	stats_display_mem, .-stats_display_mem
 355 0054 AFF30080 		.section	.text.stats_display_memp,"ax",%progbits
 355      AFF30080 
 355      AFF30080 
 356              		.align	2
 357              		.p2align 4,,15
 358              		.global	stats_display_memp
 359              		.thumb
 360              		.thumb_func
 361              		.type	stats_display_memp, %function
 362              	stats_display_memp:
 363              	.LFB263:
 364              		.loc 2 125 0
 365              		.cfi_startproc
 366              		@ args = 0, pretend = 0, frame = 56
 367              		@ frame_needed = 0, uses_anonymous_args = 0
 368              		@ link register save eliminated.
 369              	.LVL31:
 370 0000 F0B4     		push	{r4, r5, r6, r7}
 371              		.cfi_def_cfa_offset 16
 372              		.cfi_offset 4, -16
 373              		.cfi_offset 5, -12
 374              		.cfi_offset 6, -8
 375              		.cfi_offset 7, -4
 376              		.loc 2 126 0
 377 0002 0E4D     		ldr	r5, .L24
 378              		.loc 2 125 0
 379 0004 0E46     		mov	r6, r1
 380 0006 0746     		mov	r7, r0
 381              		.loc 2 126 0
 382 0008 0FCD     		ldmia	r5!, {r0, r1, r2, r3}
 383              	.LVL32:
 384              		.loc 2 125 0
 385 000a 8EB0     		sub	sp, sp, #56
 386              		.cfi_def_cfa_offset 72
 387              		.loc 2 126 0
 388 000c 01AC     		add	r4, sp, #4
 389 000e 0FC4     		stmia	r4!, {r0, r1, r2, r3}
 390 0010 0FCD     		ldmia	r5!, {r0, r1, r2, r3}
 391 0012 0FC4     		stmia	r4!, {r0, r1, r2, r3}
 392 0014 0FCD     		ldmia	r5!, {r0, r1, r2, r3}
ARM GAS  C:\Users\jo\AppData\Local\Temp\ccs3alFi.s 			page 8


 393 0016 0FC4     		stmia	r4!, {r0, r1, r2, r3}
 394              		.loc 2 130 0
 395 0018 0C2E     		cmp	r6, #12
 396              		.loc 2 126 0
 397 001a 2B68     		ldr	r3, [r5]
 398 001c 2360     		str	r3, [r4]
 399              		.loc 2 130 0
 400 001e 02DD     		ble	.L23
 401              		.loc 2 133 0
 402 0020 0EB0     		add	sp, sp, #56
 403              		.cfi_remember_state
 404              		.cfi_def_cfa_offset 16
 405              		@ sp needed
 406 0022 F0BC     		pop	{r4, r5, r6, r7}
 407              		.cfi_restore 7
 408              		.cfi_restore 6
 409              		.cfi_restore 5
 410              		.cfi_restore 4
 411              		.cfi_def_cfa_offset 0
 412              	.LVL33:
 413 0024 7047     		bx	lr
 414              	.LVL34:
 415              	.L23:
 416              		.cfi_restore_state
 417              		.loc 2 131 0
 418 0026 0EAB     		add	r3, sp, #56
 419 0028 03EB8606 		add	r6, r3, r6, lsl #2
 420              	.LVL35:
 421 002c 3846     		mov	r0, r7
 422 002e 56F8341C 		ldr	r1, [r6, #-52]
 423              		.loc 2 133 0
 424 0032 0EB0     		add	sp, sp, #56
 425              		.cfi_def_cfa_offset 16
 426              		@ sp needed
 427 0034 F0BC     		pop	{r4, r5, r6, r7}
 428              		.cfi_restore 7
 429              		.cfi_restore 6
 430              		.cfi_restore 5
 431              		.cfi_restore 4
 432              		.cfi_def_cfa_offset 0
 433              	.LVL36:
 434              		.loc 2 131 0
 435 0036 FFF7FEBF 		b	stats_display_mem
 436              	.LVL37:
 437              	.L25:
 438 003a 00BF     		.align	2
 439              	.L24:
 440 003c 00000000 		.word	.LANCHOR0
 441              		.cfi_endproc
 442              	.LFE263:
 443              		.size	stats_display_memp, .-stats_display_memp
 444              		.section	.text.stats_display_sys,"ax",%progbits
 445              		.align	2
 446              		.p2align 4,,15
 447              		.global	stats_display_sys
 448              		.thumb
 449              		.thumb_func
ARM GAS  C:\Users\jo\AppData\Local\Temp\ccs3alFi.s 			page 9


 450              		.type	stats_display_sys, %function
 451              	stats_display_sys:
 452              	.LFB264:
 453              		.loc 2 140 0
 454              		.cfi_startproc
 455              		@ args = 0, pretend = 0, frame = 0
 456              		@ frame_needed = 0, uses_anonymous_args = 0
 457              	.LVL38:
 458 0000 38B5     		push	{r3, r4, r5, lr}
 459              		.cfi_def_cfa_offset 16
 460              		.cfi_offset 3, -16
 461              		.cfi_offset 4, -12
 462              		.cfi_offset 5, -8
 463              		.cfi_offset 14, -4
 464              		.loc 2 141 0
 465 0002 1A4C     		ldr	r4, .L28
 466 0004 1A49     		ldr	r1, .L28+4
 467              		.loc 2 140 0
 468 0006 0546     		mov	r5, r0
 469              		.loc 2 141 0
 470 0008 2046     		mov	r0, r4
 471              	.LVL39:
 472 000a FFF7FEFF 		bl	chprintf.constprop.0
 473              	.LVL40:
 474              		.loc 2 142 0
 475 000e 2A88     		ldrh	r2, [r5]
 476 0010 1849     		ldr	r1, .L28+8
 477 0012 2046     		mov	r0, r4
 478 0014 FFF7FEFF 		bl	chprintf.constprop.0
 479              	.LVL41:
 480              		.loc 2 143 0
 481 0018 6A88     		ldrh	r2, [r5, #2]
 482 001a 1749     		ldr	r1, .L28+12
 483 001c 2046     		mov	r0, r4
 484 001e FFF7FEFF 		bl	chprintf.constprop.0
 485              	.LVL42:
 486              		.loc 2 144 0
 487 0022 AA88     		ldrh	r2, [r5, #4]
 488 0024 1549     		ldr	r1, .L28+16
 489 0026 2046     		mov	r0, r4
 490 0028 FFF7FEFF 		bl	chprintf.constprop.0
 491              	.LVL43:
 492              		.loc 2 145 0
 493 002c EA88     		ldrh	r2, [r5, #6]
 494 002e 1449     		ldr	r1, .L28+20
 495 0030 2046     		mov	r0, r4
 496 0032 FFF7FEFF 		bl	chprintf.constprop.0
 497              	.LVL44:
 498              		.loc 2 146 0
 499 0036 2A89     		ldrh	r2, [r5, #8]
 500 0038 1249     		ldr	r1, .L28+24
 501 003a 2046     		mov	r0, r4
 502 003c FFF7FEFF 		bl	chprintf.constprop.0
 503              	.LVL45:
 504              		.loc 2 147 0
 505 0040 6A89     		ldrh	r2, [r5, #10]
 506 0042 1149     		ldr	r1, .L28+28
ARM GAS  C:\Users\jo\AppData\Local\Temp\ccs3alFi.s 			page 10


 507 0044 2046     		mov	r0, r4
 508 0046 FFF7FEFF 		bl	chprintf.constprop.0
 509              	.LVL46:
 510              		.loc 2 148 0
 511 004a AA89     		ldrh	r2, [r5, #12]
 512 004c 0F49     		ldr	r1, .L28+32
 513 004e 2046     		mov	r0, r4
 514 0050 FFF7FEFF 		bl	chprintf.constprop.0
 515              	.LVL47:
 516              		.loc 2 149 0
 517 0054 EA89     		ldrh	r2, [r5, #14]
 518 0056 0E49     		ldr	r1, .L28+36
 519 0058 2046     		mov	r0, r4
 520 005a FFF7FEFF 		bl	chprintf.constprop.0
 521              	.LVL48:
 522              		.loc 2 150 0
 523 005e 2046     		mov	r0, r4
 524 0060 2A8A     		ldrh	r2, [r5, #16]
 525 0062 0C49     		ldr	r1, .L28+40
 526              		.loc 2 151 0
 527 0064 BDE83840 		pop	{r3, r4, r5, lr}
 528              		.cfi_restore 14
 529              		.cfi_restore 5
 530              		.cfi_restore 4
 531              		.cfi_restore 3
 532              		.cfi_def_cfa_offset 0
 533              	.LVL49:
 534              		.loc 2 150 0
 535 0068 FFF7FEBF 		b	chprintf.constprop.0
 536              	.LVL50:
 537              	.L29:
 538              		.align	2
 539              	.L28:
 540 006c 00000000 		.word	itm_port
 541 0070 F0000000 		.word	.LC35
 542 0074 F8000000 		.word	.LC36
 543 0078 08010000 		.word	.LC37
 544 007c 18010000 		.word	.LC38
 545 0080 28010000 		.word	.LC39
 546 0084 3C010000 		.word	.LC40
 547 0088 50010000 		.word	.LC41
 548 008c 64010000 		.word	.LC42
 549 0090 78010000 		.word	.LC43
 550 0094 8C010000 		.word	.LC44
 551              		.cfi_endproc
 552              	.LFE264:
 553              		.size	stats_display_sys, .-stats_display_sys
 554 0098 AFF30080 		.section	.text.stats_display,"ax",%progbits
 554      AFF30080 
 555              		.align	2
 556              		.p2align 4,,15
 557              		.global	stats_display
 558              		.thumb
 559              		.thumb_func
 560              		.type	stats_display, %function
 561              	stats_display:
 562              	.LFB265:
ARM GAS  C:\Users\jo\AppData\Local\Temp\ccs3alFi.s 			page 11


 563              		.loc 2 156 0
 564              		.cfi_startproc
 565              		@ args = 0, pretend = 0, frame = 0
 566              		@ frame_needed = 0, uses_anonymous_args = 0
 567              		.loc 2 159 0
 568 0000 1C48     		ldr	r0, .L34
 569 0002 1D49     		ldr	r1, .L34+4
 570              		.loc 2 156 0
 571 0004 38B5     		push	{r3, r4, r5, lr}
 572              		.cfi_def_cfa_offset 16
 573              		.cfi_offset 3, -16
 574              		.cfi_offset 4, -12
 575              		.cfi_offset 5, -8
 576              		.cfi_offset 14, -4
 577 0006 00F1BC05 		add	r5, r0, #188
 578              		.loc 2 159 0
 579 000a FFF7FEFF 		bl	stats_display_proto
 580              	.LVL51:
 581              		.loc 2 160 0
 582 000e A5F1A400 		sub	r0, r5, #164
 583 0012 1A49     		ldr	r1, .L34+8
 584 0014 FFF7FEFF 		bl	stats_display_proto
 585              	.LVL52:
 586              		.loc 2 161 0
 587 0018 A5F18C00 		sub	r0, r5, #140
 588 001c 1849     		ldr	r1, .L34+12
 589 001e FFF7FEFF 		bl	stats_display_proto
 590              	.LVL53:
 591              		.loc 2 162 0
 592 0022 A5F17400 		sub	r0, r5, #116
 593 0026 1749     		ldr	r1, .L34+16
 594 0028 FFF7FEFF 		bl	stats_display_proto
 595              	.LVL54:
 596              		.loc 2 164 0
 597 002c A5F15C00 		sub	r0, r5, #92
 598 0030 1549     		ldr	r1, .L34+20
 599 0032 FFF7FEFF 		bl	stats_display_proto
 600              	.LVL55:
 601              		.loc 2 165 0
 602 0036 A5F14400 		sub	r0, r5, #68
 603 003a 1449     		ldr	r1, .L34+24
 604 003c FFF7FEFF 		bl	stats_display_proto
 605              	.LVL56:
 606              		.loc 2 166 0
 607 0040 A5F12C00 		sub	r0, r5, #44
 608 0044 1249     		ldr	r1, .L34+28
 609 0046 FFF7FEFF 		bl	stats_display_proto
 610              	.LVL57:
 611              		.loc 2 167 0
 612 004a A5F11400 		sub	r0, r5, #20
 613 004e 1149     		ldr	r1, .L34+32
 614 0050 FFF7FEFF 		bl	stats_display_mem
 615              	.LVL58:
 616 0054 0024     		movs	r4, #0
 617              	.LVL59:
 618              	.L31:
 619              		.loc 2 169 0 discriminator 3
ARM GAS  C:\Users\jo\AppData\Local\Temp\ccs3alFi.s 			page 12


 620 0056 2846     		mov	r0, r5
 621 0058 2146     		mov	r1, r4
 622 005a 0134     		adds	r4, r4, #1
 623              	.LVL60:
 624 005c FFF7FEFF 		bl	stats_display_memp
 625              	.LVL61:
 626              		.loc 2 168 0 discriminator 3
 627 0060 0D2C     		cmp	r4, #13
 628 0062 05F11405 		add	r5, r5, #20
 629 0066 F6D1     		bne	.L31
 630              		.loc 2 171 0
 631 0068 0B48     		ldr	r0, .L34+36
 632              		.loc 2 172 0
 633 006a BDE83840 		pop	{r3, r4, r5, lr}
 634              		.cfi_restore 14
 635              		.cfi_restore 5
 636              		.cfi_restore 4
 637              		.cfi_restore 3
 638              		.cfi_def_cfa_offset 0
 639              		.loc 2 171 0
 640 006e FFF7FEBF 		b	stats_display_sys
 641              	.LVL62:
 642              	.L35:
 643 0072 00BF     		.align	2
 644              	.L34:
 645 0074 00000000 		.word	.LANCHOR1
 646 0078 A0010000 		.word	.LC45
 647 007c A8010000 		.word	.LC46
 648 0080 B0010000 		.word	.LC47
 649 0084 B8010000 		.word	.LC48
 650 0088 BC010000 		.word	.LC49
 651 008c C4010000 		.word	.LC50
 652 0090 C8010000 		.word	.LC51
 653 0094 CC010000 		.word	.LC52
 654 0098 C0010000 		.word	.LANCHOR1+448
 655              		.cfi_endproc
 656              	.LFE265:
 657              		.size	stats_display, .-stats_display
 658              		.global	lwip_stats
 659 009c AFF30080 		.section	.rodata
 660              		.align	2
 661              		.set	.LANCHOR0,. + 0
 662              	.LC15:
 663 0000 D4010000 		.word	.LC0
 664 0004 DC010000 		.word	.LC1
 665 0008 E4010000 		.word	.LC2
 666 000c F4010000 		.word	.LC3
 667 0010 FC010000 		.word	.LC4
 668 0014 08020000 		.word	.LC5
 669 0018 14020000 		.word	.LC6
 670 001c 1C020000 		.word	.LC7
 671 0020 24020000 		.word	.LC8
 672 0024 34020000 		.word	.LC9
 673 0028 44020000 		.word	.LC10
 674 002c 50020000 		.word	.LC11
 675 0030 60020000 		.word	.LC12
 676              		.section	.rodata.str1.4,"aMS",%progbits,1
ARM GAS  C:\Users\jo\AppData\Local\Temp\ccs3alFi.s 			page 13


 677              		.align	2
 678              	.LC16:
 679 0000 4D454D00 		.ascii	"MEM\000"
 680              	.LC17:
 681 0004 0A25730A 		.ascii	"\012%s\012\011\000"
 681      0900
 682 000a 0000     		.space	2
 683              	.LC18:
 684 000c 786D6974 		.ascii	"xmit: %u\012\011\000"
 684      3A202575 
 684      0A0900
 685 0017 00       		.space	1
 686              	.LC19:
 687 0018 72656376 		.ascii	"recv: %u\012\011\000"
 687      3A202575 
 687      0A0900
 688 0023 00       		.space	1
 689              	.LC20:
 690 0024 66773A20 		.ascii	"fw: %u\012\011\000"
 690      25750A09 
 690      00
 691 002d 000000   		.space	3
 692              	.LC21:
 693 0030 64726F70 		.ascii	"drop: %u\012\011\000"
 693      3A202575 
 693      0A0900
 694 003b 00       		.space	1
 695              	.LC22:
 696 003c 63686B65 		.ascii	"chkerr: %u\012\011\000"
 696      72723A20 
 696      25750A09 
 696      00
 697 0049 000000   		.space	3
 698              	.LC23:
 699 004c 6C656E65 		.ascii	"lenerr: %u\012\011\000"
 699      72723A20 
 699      25750A09 
 699      00
 700 0059 000000   		.space	3
 701              	.LC24:
 702 005c 6D656D65 		.ascii	"memerr: %u\012\011\000"
 702      72723A20 
 702      25750A09 
 702      00
 703 0069 000000   		.space	3
 704              	.LC25:
 705 006c 72746572 		.ascii	"rterr: %u\012\011\000"
 705      723A2025 
 705      750A0900 
 706              	.LC26:
 707 0078 70726F74 		.ascii	"proterr: %u\012\011\000"
 707      6572723A 
 707      2025750A 
 707      0900
 708 0086 0000     		.space	2
 709              	.LC27:
 710 0088 6F707465 		.ascii	"opterr: %u\012\011\000"
ARM GAS  C:\Users\jo\AppData\Local\Temp\ccs3alFi.s 			page 14


 710      72723A20 
 710      25750A09 
 710      00
 711 0095 000000   		.space	3
 712              	.LC28:
 713 0098 6572723A 		.ascii	"err: %u\012\011\000"
 713      2025750A 
 713      0900
 714 00a2 0000     		.space	2
 715              	.LC29:
 716 00a4 63616368 		.ascii	"cachehit: %u\012\000"
 716      65686974 
 716      3A202575 
 716      0A00
 717 00b2 0000     		.space	2
 718              	.LC30:
 719 00b4 0A4D454D 		.ascii	"\012MEM %s\012\011\000"
 719      2025730A 
 719      0900
 720 00be 0000     		.space	2
 721              	.LC31:
 722 00c0 61766169 		.ascii	"avail: %u\012\011\000"
 722      6C3A2025 
 722      750A0900 
 723              	.LC32:
 724 00cc 75736564 		.ascii	"used: %u\012\011\000"
 724      3A202575 
 724      0A0900
 725 00d7 00       		.space	1
 726              	.LC33:
 727 00d8 6D61783A 		.ascii	"max: %u\012\011\000"
 727      2025750A 
 727      0900
 728 00e2 0000     		.space	2
 729              	.LC34:
 730 00e4 6572723A 		.ascii	"err: %u\012\000"
 730      2025750A 
 730      00
 731 00ed 000000   		.space	3
 732              	.LC35:
 733 00f0 0A535953 		.ascii	"\012SYS\012\011\000"
 733      0A0900
 734 00f7 00       		.space	1
 735              	.LC36:
 736 00f8 73656D2E 		.ascii	"sem.used:  %u\012\011\000"
 736      75736564 
 736      3A202025 
 736      750A0900 
 737              	.LC37:
 738 0108 73656D2E 		.ascii	"sem.max:   %u\012\011\000"
 738      6D61783A 
 738      20202025 
 738      750A0900 
 739              	.LC38:
 740 0118 73656D2E 		.ascii	"sem.err:   %u\012\011\000"
 740      6572723A 
 740      20202025 
ARM GAS  C:\Users\jo\AppData\Local\Temp\ccs3alFi.s 			page 15


 740      750A0900 
 741              	.LC39:
 742 0128 6D757465 		.ascii	"mutex.used: %u\012\011\000"
 742      782E7573 
 742      65643A20 
 742      25750A09 
 742      00
 743 0139 000000   		.space	3
 744              	.LC40:
 745 013c 6D757465 		.ascii	"mutex.max:  %u\012\011\000"
 745      782E6D61 
 745      783A2020 
 745      25750A09 
 745      00
 746 014d 000000   		.space	3
 747              	.LC41:
 748 0150 6D757465 		.ascii	"mutex.err:  %u\012\011\000"
 748      782E6572 
 748      723A2020 
 748      25750A09 
 748      00
 749 0161 000000   		.space	3
 750              	.LC42:
 751 0164 6D626F78 		.ascii	"mbox.used:  %u\012\011\000"
 751      2E757365 
 751      643A2020 
 751      25750A09 
 751      00
 752 0175 000000   		.space	3
 753              	.LC43:
 754 0178 6D626F78 		.ascii	"mbox.max:   %u\012\011\000"
 754      2E6D6178 
 754      3A202020 
 754      25750A09 
 754      00
 755 0189 000000   		.space	3
 756              	.LC44:
 757 018c 6D626F78 		.ascii	"mbox.err:   %u\012\011\000"
 757      2E657272 
 757      3A202020 
 757      25750A09 
 757      00
 758 019d 000000   		.space	3
 759              	.LC45:
 760 01a0 4C494E4B 		.ascii	"LINK\000"
 760      00
 761 01a5 000000   		.space	3
 762              	.LC46:
 763 01a8 45544841 		.ascii	"ETHARP\000"
 763      525000
 764 01af 00       		.space	1
 765              	.LC47:
 766 01b0 49505F46 		.ascii	"IP_FRAG\000"
 766      52414700 
 767              	.LC48:
 768 01b8 495000   		.ascii	"IP\000"
 769 01bb 00       		.space	1
ARM GAS  C:\Users\jo\AppData\Local\Temp\ccs3alFi.s 			page 16


 770              	.LC49:
 771 01bc 49434D50 		.ascii	"ICMP\000"
 771      00
 772 01c1 000000   		.space	3
 773              	.LC50:
 774 01c4 55445000 		.ascii	"UDP\000"
 775              	.LC51:
 776 01c8 54435000 		.ascii	"TCP\000"
 777              	.LC52:
 778 01cc 48454150 		.ascii	"HEAP\000"
 778      00
 779 01d1 000000   		.space	3
 780              	.LC0:
 781 01d4 5544505F 		.ascii	"UDP_PCB\000"
 781      50434200 
 782              	.LC1:
 783 01dc 5443505F 		.ascii	"TCP_PCB\000"
 783      50434200 
 784              	.LC2:
 785 01e4 5443505F 		.ascii	"TCP_PCB_LISTEN\000"
 785      5043425F 
 785      4C495354 
 785      454E00
 786 01f3 00       		.space	1
 787              	.LC3:
 788 01f4 5443505F 		.ascii	"TCP_SEG\000"
 788      53454700 
 789              	.LC4:
 790 01fc 52454153 		.ascii	"REASSDATA\000"
 790      53444154 
 790      4100
 791 0206 0000     		.space	2
 792              	.LC5:
 793 0208 46524147 		.ascii	"FRAG_PBUF\000"
 793      5F504255 
 793      4600
 794 0212 0000     		.space	2
 795              	.LC6:
 796 0214 4E455442 		.ascii	"NETBUF\000"
 796      554600
 797 021b 00       		.space	1
 798              	.LC7:
 799 021c 4E455443 		.ascii	"NETCONN\000"
 799      4F4E4E00 
 800              	.LC8:
 801 0224 54435049 		.ascii	"TCPIP_MSG_API\000"
 801      505F4D53 
 801      475F4150 
 801      4900
 802 0232 0000     		.space	2
 803              	.LC9:
 804 0234 54435049 		.ascii	"TCPIP_MSG_INPKT\000"
 804      505F4D53 
 804      475F494E 
 804      504B5400 
 805              	.LC10:
 806 0244 5359535F 		.ascii	"SYS_TIMEOUT\000"
ARM GAS  C:\Users\jo\AppData\Local\Temp\ccs3alFi.s 			page 17


 806      54494D45 
 806      4F555400 
 807              	.LC11:
 808 0250 50425546 		.ascii	"PBUF_REF/ROM\000"
 808      5F524546 
 808      2F524F4D 
 808      00
 809 025d 000000   		.space	3
 810              	.LC12:
 811 0260 50425546 		.ascii	"PBUF_POOL\000"
 811      5F504F4F 
 811      4C00
 812 026a 0000     		.section	.bss.lwip_stats,"aw",%nobits
 813              		.align	2
 814              		.set	.LANCHOR1,. + 0
 815              		.type	lwip_stats, %object
 816              		.size	lwip_stats, 468
 817              	lwip_stats:
 818 0000 00000000 		.space	468
 818      00000000 
 818      00000000 
 818      00000000 
 818      00000000 
 819              		.text
 820              	.Letext0:
 821              		.file 3 "c:\\program files\\gnu tools arm embedded\\4.9 2014q4\\lib\\gcc\\arm-none-eabi\\4.9.3\\in
 822              		.file 4 "c:\\program files\\gnu tools arm embedded\\4.9 2014q4\\arm-none-eabi\\include\\machine\\_
 823              		.file 5 "c:\\program files\\gnu tools arm embedded\\4.9 2014q4\\arm-none-eabi\\include\\stdint.h"
 824              		.file 6 "../../../os/rt/ports/ARMCMx/compilers/GCC/chtypes.h"
 825              		.file 7 "../../../os/rt/include/chsystypes.h"
 826              		.file 8 "../../../os/rt/include/chschd.h"
 827              		.file 9 "../../../os/rt/ports/ARMCMx/chcore.h"
 828              		.file 10 "../../../os/rt/ports/ARMCMx/chcore_v7m.h"
 829              		.file 11 "../../../os/rt/include/chdebug.h"
 830              		.file 12 "../../../os/rt/include/chtm.h"
 831              		.file 13 "../../../os/rt/include/chsem.h"
 832              		.file 14 "../../../os/rt/include/chmtx.h"
 833              		.file 15 "../../../os/rt/include/chstreams.h"
 834              		.file 16 "./ITM_trace.h"
 835              		.file 17 "c:\\program files\\gnu tools arm embedded\\4.9 2014q4\\lib\\gcc\\arm-none-eabi\\4.9.3\\i
 836              		.file 18 "<built-in>"
 837              		.file 19 "../../../os/various/lwip_bindings/arch/cc.h"
 838              		.file 20 "../../../ext/lwip/src/include/lwip/mem.h"
 839              		.file 21 "../../../ext/lwip/src/include/lwip/stats.h"
 840              		.file 22 "../../../os/ext/CMSIS/include/core_cm4.h"
 841              		.file 23 "../../../ext/lwip/src/include/lwip/memp.h"