ARM GAS  C:\Users\jo\AppData\Local\Temp\cc2TisZq.s 			page 1


   1              		.syntax unified
   2              		.cpu cortex-m4
   3              		.fpu softvfp
   4              		.eabi_attribute 20, 1
   5              		.eabi_attribute 21, 1
   6              		.eabi_attribute 23, 3
   7              		.eabi_attribute 24, 1
   8              		.eabi_attribute 25, 1
   9              		.eabi_attribute 26, 1
  10              		.eabi_attribute 30, 2
  11              		.eabi_attribute 34, 1
  12              		.eabi_attribute 18, 4
  13              		.thumb
  14              		.file	"sys_arch.c"
  15              		.text
  16              	.Ltext0:
  17              		.cfi_sections	.debug_frame
  18              		.section	.text.sys_init,"ax",%progbits
  19              		.align	2
  20              		.p2align 4,,15
  21              		.global	sys_init
  22              		.thumb
  23              		.thumb_func
  24              		.type	sys_init, %function
  25              	sys_init:
  26              	.LFB260:
  27              		.file 1 "../../../os/various/lwip_bindings/arch/sys_arch.c"
  28              		.loc 1 63 0
  29              		.cfi_startproc
  30              		@ args = 0, pretend = 0, frame = 0
  31              		@ frame_needed = 0, uses_anonymous_args = 0
  32              		@ link register save eliminated.
  33 0000 7047     		bx	lr
  34              		.cfi_endproc
  35              	.LFE260:
  36              		.size	sys_init, .-sys_init
  37 0002 00BFAFF3 		.section	.text.sys_sem_new,"ax",%progbits
  37      0080AFF3 
  37      0080AFF3 
  37      0080
  38              		.align	2
  39              		.p2align 4,,15
  40              		.global	sys_sem_new
  41              		.thumb
  42              		.thumb_func
  43              		.type	sys_sem_new, %function
  44              	sys_sem_new:
  45              	.LFB261:
  46              		.loc 1 67 0
  47              		.cfi_startproc
  48              		@ args = 0, pretend = 0, frame = 0
  49              		@ frame_needed = 0, uses_anonymous_args = 0
  50              	.LVL0:
  51              		.loc 1 67 0
  52 0000 38B5     		push	{r3, r4, r5, lr}
  53              		.cfi_def_cfa_offset 16
  54              		.cfi_offset 3, -16
ARM GAS  C:\Users\jo\AppData\Local\Temp\cc2TisZq.s 			page 2


  55              		.cfi_offset 4, -12
  56              		.cfi_offset 5, -8
  57              		.cfi_offset 14, -4
  58              		.loc 1 67 0
  59 0002 0446     		mov	r4, r0
  60 0004 0D46     		mov	r5, r1
  61              		.loc 1 69 0
  62 0006 0020     		movs	r0, #0
  63              	.LVL1:
  64 0008 0C21     		movs	r1, #12
  65              	.LVL2:
  66 000a FFF7FEFF 		bl	chHeapAlloc
  67              	.LVL3:
  68 000e 2060     		str	r0, [r4]
  69              		.loc 1 70 0
  70 0010 90B1     		cbz	r0, .L8
  71              		.loc 1 75 0
  72 0012 2946     		mov	r1, r5
  73 0014 FFF7FEFF 		bl	chSemObjectInit
  74              	.LVL4:
  75              		.loc 1 76 0
  76 0018 0B4A     		ldr	r2, .L9
  77 001a B2F8C031 		ldrh	r3, [r2, #448]
  78 001e B2F8C211 		ldrh	r1, [r2, #450]
  79 0022 0133     		adds	r3, r3, #1
  80 0024 9BB2     		uxth	r3, r3
  81 0026 9942     		cmp	r1, r3
  82 0028 A2F8C031 		strh	r3, [r2, #448]	@ movhi
  83 002c 38BF     		it	cc
  84 002e A2F8C231 		strhcc	r3, [r2, #450]	@ movhi
  85              		.loc 1 77 0
  86 0032 0020     		movs	r0, #0
  87              	.L4:
  88              		.loc 1 79 0
  89 0034 40B2     		sxtb	r0, r0
  90 0036 38BD     		pop	{r3, r4, r5, pc}
  91              	.LVL5:
  92              	.L8:
  93              		.loc 1 71 0
  94 0038 034A     		ldr	r2, .L9
  95 003a B2F8C431 		ldrh	r3, [r2, #452]
  96 003e 0133     		adds	r3, r3, #1
  97 0040 A2F8C431 		strh	r3, [r2, #452]	@ movhi
  98              		.loc 1 72 0
  99 0044 FF20     		movs	r0, #255
 100 0046 F5E7     		b	.L4
 101              	.L10:
 102              		.align	2
 103              	.L9:
 104 0048 00000000 		.word	lwip_stats
 105              		.cfi_endproc
 106              	.LFE261:
 107              		.size	sys_sem_new, .-sys_sem_new
 108 004c AFF30080 		.section	.text.sys_sem_free,"ax",%progbits
 109              		.align	2
 110              		.p2align 4,,15
 111              		.global	sys_sem_free
ARM GAS  C:\Users\jo\AppData\Local\Temp\cc2TisZq.s 			page 3


 112              		.thumb
 113              		.thumb_func
 114              		.type	sys_sem_free, %function
 115              	sys_sem_free:
 116              	.LFB262:
 117              		.loc 1 81 0
 118              		.cfi_startproc
 119              		@ args = 0, pretend = 0, frame = 0
 120              		@ frame_needed = 0, uses_anonymous_args = 0
 121              	.LVL6:
 122 0000 10B5     		push	{r4, lr}
 123              		.cfi_def_cfa_offset 8
 124              		.cfi_offset 4, -8
 125              		.cfi_offset 14, -4
 126              		.loc 1 81 0
 127 0002 0446     		mov	r4, r0
 128              		.loc 1 83 0
 129 0004 0068     		ldr	r0, [r0]
 130              	.LVL7:
 131 0006 FFF7FEFF 		bl	chHeapFree
 132              	.LVL8:
 133              		.loc 1 85 0
 134 000a 044A     		ldr	r2, .L13
 135 000c B2F8C031 		ldrh	r3, [r2, #448]
 136              		.loc 1 84 0
 137 0010 0021     		movs	r1, #0
 138              		.loc 1 85 0
 139 0012 013B     		subs	r3, r3, #1
 140              		.loc 1 84 0
 141 0014 2160     		str	r1, [r4]
 142              		.loc 1 85 0
 143 0016 A2F8C031 		strh	r3, [r2, #448]	@ movhi
 144 001a 10BD     		pop	{r4, pc}
 145              	.LVL9:
 146              	.L14:
 147              		.align	2
 148              	.L13:
 149 001c 00000000 		.word	lwip_stats
 150              		.cfi_endproc
 151              	.LFE262:
 152              		.size	sys_sem_free, .-sys_sem_free
 153              		.section	.text.sys_sem_signal,"ax",%progbits
 154              		.align	2
 155              		.p2align 4,,15
 156              		.global	sys_sem_signal
 157              		.thumb
 158              		.thumb_func
 159              		.type	sys_sem_signal, %function
 160              	sys_sem_signal:
 161              	.LFB263:
 162              		.loc 1 88 0
 163              		.cfi_startproc
 164              		@ args = 0, pretend = 0, frame = 0
 165              		@ frame_needed = 0, uses_anonymous_args = 0
 166              		@ link register save eliminated.
 167              	.LVL10:
 168              		.loc 1 90 0
ARM GAS  C:\Users\jo\AppData\Local\Temp\cc2TisZq.s 			page 4


 169 0000 0068     		ldr	r0, [r0]
 170              	.LVL11:
 171 0002 FFF7FEBF 		b	chSemSignal
 172              	.LVL12:
 173              		.cfi_endproc
 174              	.LFE263:
 175              		.size	sys_sem_signal, .-sys_sem_signal
 176 0006 00BFAFF3 		.section	.text.sys_sem_signal_S,"ax",%progbits
 176      0080AFF3 
 176      0080
 177              		.align	2
 178              		.p2align 4,,15
 179              		.global	sys_sem_signal_S
 180              		.thumb
 181              		.thumb_func
 182              		.type	sys_sem_signal_S, %function
 183              	sys_sem_signal_S:
 184              	.LFB264:
 185              		.loc 1 95 0
 186              		.cfi_startproc
 187              		@ args = 0, pretend = 0, frame = 0
 188              		@ frame_needed = 0, uses_anonymous_args = 0
 189              	.LVL13:
 190 0000 08B5     		push	{r3, lr}
 191              		.cfi_def_cfa_offset 8
 192              		.cfi_offset 3, -8
 193              		.cfi_offset 14, -4
 194              		.loc 1 97 0
 195 0002 0068     		ldr	r0, [r0]
 196              	.LVL14:
 197 0004 FFF7FEFF 		bl	chSemSignalI
 198              	.LVL15:
 199              		.loc 1 99 0
 200 0008 BDE80840 		pop	{r3, lr}
 201              		.cfi_restore 14
 202              		.cfi_restore 3
 203              		.cfi_def_cfa_offset 0
 204              		.loc 1 98 0
 205 000c FFF7FEBF 		b	chSchRescheduleS
 206              	.LVL16:
 207              		.cfi_endproc
 208              	.LFE264:
 209              		.size	sys_sem_signal_S, .-sys_sem_signal_S
 210              		.section	.text.sys_arch_sem_wait,"ax",%progbits
 211              		.align	2
 212              		.p2align 4,,15
 213              		.global	sys_arch_sem_wait
 214              		.thumb
 215              		.thumb_func
 216              		.type	sys_arch_sem_wait, %function
 217              	sys_arch_sem_wait:
 218              	.LFB265:
 219              		.loc 1 101 0
 220              		.cfi_startproc
 221              		@ args = 0, pretend = 0, frame = 0
 222              		@ frame_needed = 0, uses_anonymous_args = 0
 223              	.LVL17:
ARM GAS  C:\Users\jo\AppData\Local\Temp\cc2TisZq.s 			page 5


 224 0000 70B5     		push	{r4, r5, r6, lr}
 225              		.cfi_def_cfa_offset 16
 226              		.cfi_offset 4, -16
 227              		.cfi_offset 5, -12
 228              		.cfi_offset 6, -8
 229              		.cfi_offset 14, -4
 230              	.LBB120:
 231              	.LBB121:
 232              	.LBB122:
 233              	.LBB123:
 234              	.LBB124:
 235              	.LBB125:
 236              		.file 2 "../../../os/ext/CMSIS/include/core_cmFunc.h"
 237              		.loc 2 546 0
 238 0002 2023     		movs	r3, #32
 239              	.LBE125:
 240              	.LBE124:
 241              	.LBE123:
 242              	.LBE122:
 243              	.LBE121:
 244              	.LBE120:
 245              		.loc 1 101 0
 246 0004 0646     		mov	r6, r0
 247 0006 0C46     		mov	r4, r1
 248              	.LBB131:
 249              	.LBB130:
 250              	.LBB129:
 251              	.LBB128:
 252              	.LBB127:
 253              	.LBB126:
 254              		.loc 2 546 0
 255              	@ 546 "../../../os/ext/CMSIS/include/core_cmFunc.h" 1
 256 0008 83F31188 		MSR basepri, r3
 257              	@ 0 "" 2
 258              		.thumb
 259              	.LBE126:
 260              	.LBE127:
 261              	.LBE128:
 262              		.file 3 "../../../os/rt/include/chsys.h"
 263              		.loc 3 350 0
 264 000c FFF7FEFF 		bl	_dbg_check_lock
 265              	.LVL18:
 266              	.LBE129:
 267              	.LBE130:
 268              	.LBE131:
 269              	.LBB132:
 270              	.LBB133:
 271              	.LBB134:
 272              	.LBB135:
 273              	.LBB136:
 274              		.file 4 "../../../os/hal/ports/STM32/LLD/TIMv1/st_lld.h"
 275              		.loc 4 129 0
 276 0010 4FF08045 		mov	r5, #1073741824
 277              	.LBE136:
 278              	.LBE135:
 279              	.LBE134:
 280              	.LBE133:
ARM GAS  C:\Users\jo\AppData\Local\Temp\cc2TisZq.s 			page 6


 281              	.LBE132:
 282              		.loc 1 105 0
 283 0014 002C     		cmp	r4, #0
 284              	.LVL19:
 285              		.loc 1 107 0
 286 0016 14BF     		ite	ne
 287 0018 2146     		movne	r1, r4
 288 001a 4FF0FF31 		moveq	r1, #-1
 289 001e 3068     		ldr	r0, [r6]
 290              	.LBB141:
 291              	.LBB140:
 292              	.LBB139:
 293              	.LBB138:
 294              	.LBB137:
 295              		.loc 4 129 0
 296 0020 6C6A     		ldr	r4, [r5, #36]
 297              	.LVL20:
 298              	.LBE137:
 299              	.LBE138:
 300              	.LBE139:
 301              	.LBE140:
 302              	.LBE141:
 303              		.loc 1 107 0
 304 0022 FFF7FEFF 		bl	chSemWaitTimeoutS
 305              	.LVL21:
 306 0026 A0B1     		cbz	r0, .L25
 307              		.loc 1 108 0
 308 0028 4FF0FF34 		mov	r4, #-1
 309              	.L20:
 310              	.LVL22:
 311              	.LBB142:
 312              	.LBB143:
 313              	.LBB144:
 314              		.loc 3 360 0
 315 002c FFF7FEFF 		bl	_dbg_check_unlock
 316              	.LVL23:
 317              		.loc 3 367 0
 318 0030 094B     		ldr	r3, .L26
 319 0032 1A68     		ldr	r2, [r3]
 320 0034 9A42     		cmp	r2, r3
 321 0036 07D0     		beq	.L21
 322 0038 9969     		ldr	r1, [r3, #24]
 323 003a 9368     		ldr	r3, [r2, #8]
 324 003c 8A68     		ldr	r2, [r1, #8]
 325 003e 9A42     		cmp	r2, r3
 326 0040 02D2     		bcs	.L21
 327 0042 0648     		ldr	r0, .L26+4
 328 0044 FFF7FEFF 		bl	chSysHalt
 329              	.LVL24:
 330              	.L21:
 331              	.LBB145:
 332              	.LBB146:
 333              	.LBB147:
 334              		.loc 2 546 0
 335 0048 0023     		movs	r3, #0
 336              	@ 546 "../../../os/ext/CMSIS/include/core_cmFunc.h" 1
 337 004a 83F31188 		MSR basepri, r3
ARM GAS  C:\Users\jo\AppData\Local\Temp\cc2TisZq.s 			page 7


 338              	@ 0 "" 2
 339              		.thumb
 340              	.LBE147:
 341              	.LBE146:
 342              	.LBE145:
 343              	.LBE144:
 344              	.LBE143:
 345              	.LBE142:
 346              		.loc 1 113 0
 347 004e 2046     		mov	r0, r4
 348 0050 70BD     		pop	{r4, r5, r6, pc}
 349              	.LVL25:
 350              	.L25:
 351              	.LBB148:
 352              	.LBB149:
 353              	.LBB150:
 354              	.LBB151:
 355              	.LBB152:
 356              		.loc 4 129 0
 357 0052 6B6A     		ldr	r3, [r5, #36]
 358              	.LBE152:
 359              	.LBE151:
 360              	.LBE150:
 361              	.LBE149:
 362              	.LBE148:
 363              		.loc 1 110 0
 364 0054 1C1B     		subs	r4, r3, r4
 365              	.LVL26:
 366 0056 E9E7     		b	.L20
 367              	.L27:
 368              		.align	2
 369              	.L26:
 370 0058 00000000 		.word	ch
 371 005c 00000000 		.word	.LANCHOR0
 372              		.cfi_endproc
 373              	.LFE265:
 374              		.size	sys_arch_sem_wait, .-sys_arch_sem_wait
 375              		.section	.text.sys_sem_valid,"ax",%progbits
 376              		.align	2
 377              		.p2align 4,,15
 378              		.global	sys_sem_valid
 379              		.thumb
 380              		.thumb_func
 381              		.type	sys_sem_valid, %function
 382              	sys_sem_valid:
 383              	.LFB266:
 384              		.loc 1 115 0
 385              		.cfi_startproc
 386              		@ args = 0, pretend = 0, frame = 0
 387              		@ frame_needed = 0, uses_anonymous_args = 0
 388              		@ link register save eliminated.
 389              	.LVL27:
 390              		.loc 1 116 0
 391 0000 0068     		ldr	r0, [r0]
 392              	.LVL28:
 393              		.loc 1 117 0
 394 0002 0030     		adds	r0, r0, #0
ARM GAS  C:\Users\jo\AppData\Local\Temp\cc2TisZq.s 			page 8


 395 0004 18BF     		it	ne
 396 0006 0120     		movne	r0, #1
 397 0008 7047     		bx	lr
 398              		.cfi_endproc
 399              	.LFE266:
 400              		.size	sys_sem_valid, .-sys_sem_valid
 401 000a 00BFAFF3 		.section	.text.sys_sem_set_invalid,"ax",%progbits
 401      0080
 402              		.align	2
 403              		.p2align 4,,15
 404              		.global	sys_sem_set_invalid
 405              		.thumb
 406              		.thumb_func
 407              		.type	sys_sem_set_invalid, %function
 408              	sys_sem_set_invalid:
 409              	.LFB267:
 410              		.loc 1 121 0
 411              		.cfi_startproc
 412              		@ args = 0, pretend = 0, frame = 0
 413              		@ frame_needed = 0, uses_anonymous_args = 0
 414              		@ link register save eliminated.
 415              	.LVL29:
 416              		.loc 1 122 0
 417 0000 0023     		movs	r3, #0
 418 0002 0360     		str	r3, [r0]
 419 0004 7047     		bx	lr
 420              		.cfi_endproc
 421              	.LFE267:
 422              		.size	sys_sem_set_invalid, .-sys_sem_set_invalid
 423 0006 00BFAFF3 		.section	.text.sys_mbox_new,"ax",%progbits
 423      0080AFF3 
 423      0080
 424              		.align	2
 425              		.p2align 4,,15
 426              		.global	sys_mbox_new
 427              		.thumb
 428              		.thumb_func
 429              		.type	sys_mbox_new, %function
 430              	sys_mbox_new:
 431              	.LFB268:
 432              		.loc 1 125 0
 433              		.cfi_startproc
 434              		@ args = 0, pretend = 0, frame = 0
 435              		@ frame_needed = 0, uses_anonymous_args = 0
 436              	.LVL30:
 437 0000 38B5     		push	{r3, r4, r5, lr}
 438              		.cfi_def_cfa_offset 16
 439              		.cfi_offset 3, -16
 440              		.cfi_offset 4, -12
 441              		.cfi_offset 5, -8
 442              		.cfi_offset 14, -4
 443              		.loc 1 125 0
 444 0002 0C46     		mov	r4, r1
 445              		.loc 1 127 0
 446 0004 0A31     		adds	r1, r1, #10
 447              	.LVL31:
 448              		.loc 1 125 0
ARM GAS  C:\Users\jo\AppData\Local\Temp\cc2TisZq.s 			page 9


 449 0006 0546     		mov	r5, r0
 450              		.loc 1 127 0
 451 0008 8900     		lsls	r1, r1, #2
 452 000a 0020     		movs	r0, #0
 453              	.LVL32:
 454 000c FFF7FEFF 		bl	chHeapAlloc
 455              	.LVL33:
 456 0010 0146     		mov	r1, r0
 457 0012 2860     		str	r0, [r5]
 458              		.loc 1 128 0
 459 0014 60B1     		cbz	r0, .L34
 460              		.loc 1 133 0
 461 0016 2246     		mov	r2, r4
 462 0018 2831     		adds	r1, r1, #40
 463 001a FFF7FEFF 		bl	chMBObjectInit
 464              	.LVL34:
 465              		.loc 1 134 0
 466 001e 084A     		ldr	r2, .L35
 467 0020 B2F8CC31 		ldrh	r3, [r2, #460]
 468 0024 0133     		adds	r3, r3, #1
 469 0026 A2F8CC31 		strh	r3, [r2, #460]	@ movhi
 470              		.loc 1 135 0
 471 002a 0020     		movs	r0, #0
 472              	.L32:
 473              		.loc 1 137 0
 474 002c 40B2     		sxtb	r0, r0
 475 002e 38BD     		pop	{r3, r4, r5, pc}
 476              	.LVL35:
 477              	.L34:
 478              		.loc 1 129 0
 479 0030 034A     		ldr	r2, .L35
 480 0032 B2F8D031 		ldrh	r3, [r2, #464]
 481 0036 0133     		adds	r3, r3, #1
 482 0038 A2F8D031 		strh	r3, [r2, #464]	@ movhi
 483              		.loc 1 130 0
 484 003c FF20     		movs	r0, #255
 485 003e F5E7     		b	.L32
 486              	.L36:
 487              		.align	2
 488              	.L35:
 489 0040 00000000 		.word	lwip_stats
 490              		.cfi_endproc
 491              	.LFE268:
 492              		.size	sys_mbox_new, .-sys_mbox_new
 493 0044 AFF30080 		.section	.text.sys_mbox_free,"ax",%progbits
 493      AFF30080 
 493      AFF30080 
 494              		.align	2
 495              		.p2align 4,,15
 496              		.global	sys_mbox_free
 497              		.thumb
 498              		.thumb_func
 499              		.type	sys_mbox_free, %function
 500              	sys_mbox_free:
 501              	.LFB269:
 502              		.loc 1 139 0
 503              		.cfi_startproc
ARM GAS  C:\Users\jo\AppData\Local\Temp\cc2TisZq.s 			page 10


 504              		@ args = 0, pretend = 0, frame = 0
 505              		@ frame_needed = 0, uses_anonymous_args = 0
 506              	.LVL36:
 507 0000 38B5     		push	{r3, r4, r5, lr}
 508              		.cfi_def_cfa_offset 16
 509              		.cfi_offset 3, -16
 510              		.cfi_offset 4, -12
 511              		.cfi_offset 5, -8
 512              		.cfi_offset 14, -4
 513              		.loc 1 139 0
 514 0002 0446     		mov	r4, r0
 515              	.LBB170:
 516              	.LBB171:
 517              	.LBB172:
 518              	.LBB173:
 519              	.LBB174:
 520              	.LBB175:
 521              		.loc 2 546 0
 522 0004 2023     		movs	r3, #32
 523              	@ 546 "../../../os/ext/CMSIS/include/core_cmFunc.h" 1
 524 0006 83F31188 		MSR basepri, r3
 525              	@ 0 "" 2
 526              		.thumb
 527              	.LBE175:
 528              	.LBE174:
 529              	.LBE173:
 530              		.loc 3 350 0
 531 000a FFF7FEFF 		bl	_dbg_check_lock
 532              	.LVL37:
 533              	.LBE172:
 534              	.LBE171:
 535              	.LBE170:
 536              		.loc 1 143 0
 537 000e 2568     		ldr	r5, [r4]
 538              	.LVL38:
 539              	.LBB176:
 540              	.LBB177:
 541              		.file 5 "../../../os/rt/include/chmboxes.h"
 542              		.loc 5 179 0
 543 0010 FFF7FEFF 		bl	chDbgCheckClassI
 544              	.LVL39:
 545              	.LBB178:
 546              	.LBB179:
 547              		.file 6 "../../../os/rt/include/chsem.h"
 548              		.loc 6 151 0
 549 0014 FFF7FEFF 		bl	chDbgCheckClassI
 550              	.LVL40:
 551              		.loc 6 153 0
 552 0018 AD69     		ldr	r5, [r5, #24]
 553              	.LVL41:
 554              	.LBE179:
 555              	.LBE178:
 556              	.LBE177:
 557              	.LBE176:
 558              	.LBB180:
 559              	.LBB181:
 560              	.LBB182:
ARM GAS  C:\Users\jo\AppData\Local\Temp\cc2TisZq.s 			page 11


 561              		.loc 3 360 0
 562 001a FFF7FEFF 		bl	_dbg_check_unlock
 563              	.LVL42:
 564              		.loc 3 367 0
 565 001e 134B     		ldr	r3, .L44
 566 0020 1A68     		ldr	r2, [r3]
 567 0022 9A42     		cmp	r2, r3
 568 0024 07D0     		beq	.L38
 569 0026 9969     		ldr	r1, [r3, #24]
 570 0028 9368     		ldr	r3, [r2, #8]
 571 002a 8A68     		ldr	r2, [r1, #8]
 572 002c 9A42     		cmp	r2, r3
 573 002e 02D2     		bcs	.L38
 574 0030 0F48     		ldr	r0, .L44+4
 575 0032 FFF7FEFF 		bl	chSysHalt
 576              	.LVL43:
 577              	.L38:
 578              	.LBB183:
 579              	.LBB184:
 580              	.LBB185:
 581              		.loc 2 546 0
 582 0036 0023     		movs	r3, #0
 583              	@ 546 "../../../os/ext/CMSIS/include/core_cmFunc.h" 1
 584 0038 83F31188 		MSR basepri, r3
 585              	@ 0 "" 2
 586              		.thumb
 587              	.LBE185:
 588              	.LBE184:
 589              	.LBE183:
 590              	.LBE182:
 591              	.LBE181:
 592              	.LBE180:
 593              		.loc 1 146 0
 594 003c 5DB9     		cbnz	r5, .L42
 595 003e 0D4D     		ldr	r5, .L44+8
 596              	.L39:
 597              		.loc 1 153 0
 598 0040 2068     		ldr	r0, [r4]
 599 0042 FFF7FEFF 		bl	chHeapFree
 600              	.LVL44:
 601              		.loc 1 155 0
 602 0046 B5F8CC31 		ldrh	r3, [r5, #460]
 603              		.loc 1 154 0
 604 004a 0022     		movs	r2, #0
 605              		.loc 1 155 0
 606 004c 013B     		subs	r3, r3, #1
 607              		.loc 1 154 0
 608 004e 2260     		str	r2, [r4]
 609              		.loc 1 155 0
 610 0050 A5F8CC31 		strh	r3, [r5, #460]	@ movhi
 611 0054 38BD     		pop	{r3, r4, r5, pc}
 612              	.LVL45:
 613              	.L42:
 614              		.loc 1 150 0
 615 0056 074D     		ldr	r5, .L44+8
 616              		.loc 1 151 0
 617 0058 2068     		ldr	r0, [r4]
ARM GAS  C:\Users\jo\AppData\Local\Temp\cc2TisZq.s 			page 12


 618              		.loc 1 150 0
 619 005a B5F8D031 		ldrh	r3, [r5, #464]
 620 005e 0133     		adds	r3, r3, #1
 621 0060 A5F8D031 		strh	r3, [r5, #464]	@ movhi
 622              		.loc 1 151 0
 623 0064 FFF7FEFF 		bl	chMBReset
 624              	.LVL46:
 625 0068 EAE7     		b	.L39
 626              	.L45:
 627 006a 00BF     		.align	2
 628              	.L44:
 629 006c 00000000 		.word	ch
 630 0070 00000000 		.word	.LANCHOR0
 631 0074 00000000 		.word	lwip_stats
 632              		.cfi_endproc
 633              	.LFE269:
 634              		.size	sys_mbox_free, .-sys_mbox_free
 635 0078 AFF30080 		.section	.text.sys_mbox_post,"ax",%progbits
 635      AFF30080 
 636              		.align	2
 637              		.p2align 4,,15
 638              		.global	sys_mbox_post
 639              		.thumb
 640              		.thumb_func
 641              		.type	sys_mbox_post, %function
 642              	sys_mbox_post:
 643              	.LFB270:
 644              		.loc 1 158 0
 645              		.cfi_startproc
 646              		@ args = 0, pretend = 0, frame = 0
 647              		@ frame_needed = 0, uses_anonymous_args = 0
 648              		@ link register save eliminated.
 649              	.LVL47:
 650              		.loc 1 160 0
 651 0000 0068     		ldr	r0, [r0]
 652              	.LVL48:
 653 0002 4FF0FF32 		mov	r2, #-1
 654 0006 FFF7FEBF 		b	chMBPost
 655              	.LVL49:
 656              		.cfi_endproc
 657              	.LFE270:
 658              		.size	sys_mbox_post, .-sys_mbox_post
 659              		.section	.text.sys_mbox_trypost,"ax",%progbits
 660              		.align	2
 661              		.p2align 4,,15
 662              		.global	sys_mbox_trypost
 663              		.thumb
 664              		.thumb_func
 665              		.type	sys_mbox_trypost, %function
 666              	sys_mbox_trypost:
 667              	.LFB271:
 668              		.loc 1 163 0
 669              		.cfi_startproc
 670              		@ args = 0, pretend = 0, frame = 0
 671              		@ frame_needed = 0, uses_anonymous_args = 0
 672              	.LVL50:
 673 0000 08B5     		push	{r3, lr}
ARM GAS  C:\Users\jo\AppData\Local\Temp\cc2TisZq.s 			page 13


 674              		.cfi_def_cfa_offset 8
 675              		.cfi_offset 3, -8
 676              		.cfi_offset 14, -4
 677              		.loc 1 165 0
 678 0002 0068     		ldr	r0, [r0]
 679              	.LVL51:
 680 0004 0022     		movs	r2, #0
 681 0006 FFF7FEFF 		bl	chMBPost
 682              	.LVL52:
 683 000a 0130     		adds	r0, r0, #1
 684              		.loc 1 169 0
 685 000c 18BF     		it	ne
 686 000e 0020     		movne	r0, #0
 687              		.loc 1 165 0
 688 0010 01D0     		beq	.L51
 689              	.L48:
 690              		.loc 1 170 0
 691 0012 40B2     		sxtb	r0, r0
 692 0014 08BD     		pop	{r3, pc}
 693              	.L51:
 694              		.loc 1 166 0
 695 0016 044A     		ldr	r2, .L52
 696 0018 B2F8D031 		ldrh	r3, [r2, #464]
 697 001c 0133     		adds	r3, r3, #1
 698 001e A2F8D031 		strh	r3, [r2, #464]	@ movhi
 699              		.loc 1 167 0
 700 0022 FF20     		movs	r0, #255
 701 0024 F5E7     		b	.L48
 702              	.L53:
 703 0026 00BF     		.align	2
 704              	.L52:
 705 0028 00000000 		.word	lwip_stats
 706              		.cfi_endproc
 707              	.LFE271:
 708              		.size	sys_mbox_trypost, .-sys_mbox_trypost
 709 002c AFF30080 		.section	.text.sys_arch_mbox_fetch,"ax",%progbits
 710              		.align	2
 711              		.p2align 4,,15
 712              		.global	sys_arch_mbox_fetch
 713              		.thumb
 714              		.thumb_func
 715              		.type	sys_arch_mbox_fetch, %function
 716              	sys_arch_mbox_fetch:
 717              	.LFB272:
 718              		.loc 1 172 0
 719              		.cfi_startproc
 720              		@ args = 0, pretend = 0, frame = 0
 721              		@ frame_needed = 0, uses_anonymous_args = 0
 722              	.LVL53:
 723 0000 F8B5     		push	{r3, r4, r5, r6, r7, lr}
 724              		.cfi_def_cfa_offset 24
 725              		.cfi_offset 3, -24
 726              		.cfi_offset 4, -20
 727              		.cfi_offset 5, -16
 728              		.cfi_offset 6, -12
 729              		.cfi_offset 7, -8
 730              		.cfi_offset 14, -4
ARM GAS  C:\Users\jo\AppData\Local\Temp\cc2TisZq.s 			page 14


 731              		.loc 1 172 0
 732 0002 0746     		mov	r7, r0
 733 0004 0E46     		mov	r6, r1
 734 0006 1446     		mov	r4, r2
 735              	.LBB209:
 736              	.LBB210:
 737              	.LBB211:
 738              	.LBB212:
 739              	.LBB213:
 740              	.LBB214:
 741              		.loc 2 546 0
 742 0008 2023     		movs	r3, #32
 743              	@ 546 "../../../os/ext/CMSIS/include/core_cmFunc.h" 1
 744 000a 83F31188 		MSR basepri, r3
 745              	@ 0 "" 2
 746              		.thumb
 747              	.LBE214:
 748              	.LBE213:
 749              	.LBE212:
 750              		.loc 3 350 0
 751 000e FFF7FEFF 		bl	_dbg_check_lock
 752              	.LVL54:
 753              	.LBE211:
 754              	.LBE210:
 755              	.LBE209:
 756              	.LBB215:
 757              	.LBB216:
 758              	.LBB217:
 759              	.LBB218:
 760              	.LBB219:
 761              		.loc 4 129 0
 762 0012 4FF08045 		mov	r5, #1073741824
 763              	.LBE219:
 764              	.LBE218:
 765              	.LBE217:
 766              	.LBE216:
 767              	.LBE215:
 768              		.loc 1 176 0
 769 0016 002C     		cmp	r4, #0
 770              	.LVL55:
 771              		.loc 1 178 0
 772 0018 14BF     		ite	ne
 773 001a 2246     		movne	r2, r4
 774 001c 4FF0FF32 		moveq	r2, #-1
 775 0020 3868     		ldr	r0, [r7]
 776              	.LBB224:
 777              	.LBB223:
 778              	.LBB222:
 779              	.LBB221:
 780              	.LBB220:
 781              		.loc 4 129 0
 782 0022 6C6A     		ldr	r4, [r5, #36]
 783              	.LVL56:
 784              	.LBE220:
 785              	.LBE221:
 786              	.LBE222:
 787              	.LBE223:
ARM GAS  C:\Users\jo\AppData\Local\Temp\cc2TisZq.s 			page 15


 788              	.LBE224:
 789              		.loc 1 178 0
 790 0024 3146     		mov	r1, r6
 791 0026 FFF7FEFF 		bl	chMBFetchS
 792              	.LVL57:
 793 002a A0B1     		cbz	r0, .L61
 794              		.loc 1 179 0
 795 002c 4FF0FF34 		mov	r4, #-1
 796              	.L56:
 797              	.LVL58:
 798              	.LBB225:
 799              	.LBB226:
 800              	.LBB227:
 801              		.loc 3 360 0
 802 0030 FFF7FEFF 		bl	_dbg_check_unlock
 803              	.LVL59:
 804              		.loc 3 367 0
 805 0034 094B     		ldr	r3, .L62
 806 0036 1A68     		ldr	r2, [r3]
 807 0038 9A42     		cmp	r2, r3
 808 003a 07D0     		beq	.L57
 809 003c 9969     		ldr	r1, [r3, #24]
 810 003e 9368     		ldr	r3, [r2, #8]
 811 0040 8A68     		ldr	r2, [r1, #8]
 812 0042 9A42     		cmp	r2, r3
 813 0044 02D2     		bcs	.L57
 814 0046 0648     		ldr	r0, .L62+4
 815 0048 FFF7FEFF 		bl	chSysHalt
 816              	.LVL60:
 817              	.L57:
 818              	.LBB228:
 819              	.LBB229:
 820              	.LBB230:
 821              		.loc 2 546 0
 822 004c 0023     		movs	r3, #0
 823              	@ 546 "../../../os/ext/CMSIS/include/core_cmFunc.h" 1
 824 004e 83F31188 		MSR basepri, r3
 825              	@ 0 "" 2
 826              		.thumb
 827              	.LBE230:
 828              	.LBE229:
 829              	.LBE228:
 830              	.LBE227:
 831              	.LBE226:
 832              	.LBE225:
 833              		.loc 1 184 0
 834 0052 2046     		mov	r0, r4
 835 0054 F8BD     		pop	{r3, r4, r5, r6, r7, pc}
 836              	.LVL61:
 837              	.L61:
 838              	.LBB231:
 839              	.LBB232:
 840              	.LBB233:
 841              	.LBB234:
 842              	.LBB235:
 843              		.loc 4 129 0
 844 0056 6B6A     		ldr	r3, [r5, #36]
ARM GAS  C:\Users\jo\AppData\Local\Temp\cc2TisZq.s 			page 16


 845              	.LBE235:
 846              	.LBE234:
 847              	.LBE233:
 848              	.LBE232:
 849              	.LBE231:
 850              		.loc 1 181 0
 851 0058 1C1B     		subs	r4, r3, r4
 852              	.LVL62:
 853 005a E9E7     		b	.L56
 854              	.L63:
 855              		.align	2
 856              	.L62:
 857 005c 00000000 		.word	ch
 858 0060 00000000 		.word	.LANCHOR0
 859              		.cfi_endproc
 860              	.LFE272:
 861              		.size	sys_arch_mbox_fetch, .-sys_arch_mbox_fetch
 862 0064 AFF30080 		.section	.text.sys_arch_mbox_tryfetch,"ax",%progbits
 862      AFF30080 
 862      AFF30080 
 863              		.align	2
 864              		.p2align 4,,15
 865              		.global	sys_arch_mbox_tryfetch
 866              		.thumb
 867              		.thumb_func
 868              		.type	sys_arch_mbox_tryfetch, %function
 869              	sys_arch_mbox_tryfetch:
 870              	.LFB273:
 871              		.loc 1 186 0
 872              		.cfi_startproc
 873              		@ args = 0, pretend = 0, frame = 0
 874              		@ frame_needed = 0, uses_anonymous_args = 0
 875              	.LVL63:
 876 0000 08B5     		push	{r3, lr}
 877              		.cfi_def_cfa_offset 8
 878              		.cfi_offset 3, -8
 879              		.cfi_offset 14, -4
 880              		.loc 1 188 0
 881 0002 0022     		movs	r2, #0
 882 0004 0068     		ldr	r0, [r0]
 883              	.LVL64:
 884 0006 FFF7FEFF 		bl	chMBFetch
 885              	.LVL65:
 886              		.loc 1 191 0
 887 000a 0130     		adds	r0, r0, #1
 888 000c 4FF0FF30 		mov	r0, #-1
 889 0010 18BF     		it	ne
 890 0012 0020     		movne	r0, #0
 891 0014 08BD     		pop	{r3, pc}
 892              		.cfi_endproc
 893              	.LFE273:
 894              		.size	sys_arch_mbox_tryfetch, .-sys_arch_mbox_tryfetch
 895 0016 00BFAFF3 		.section	.text.sys_mbox_valid,"ax",%progbits
 895      0080AFF3 
 895      0080
 896              		.align	2
 897              		.p2align 4,,15
ARM GAS  C:\Users\jo\AppData\Local\Temp\cc2TisZq.s 			page 17


 898              		.global	sys_mbox_valid
 899              		.thumb
 900              		.thumb_func
 901              		.type	sys_mbox_valid, %function
 902              	sys_mbox_valid:
 903              	.LFB274:
 904              		.loc 1 193 0
 905              		.cfi_startproc
 906              		@ args = 0, pretend = 0, frame = 0
 907              		@ frame_needed = 0, uses_anonymous_args = 0
 908              		@ link register save eliminated.
 909              	.LVL66:
 910              		.loc 1 194 0
 911 0000 0068     		ldr	r0, [r0]
 912              	.LVL67:
 913              		.loc 1 195 0
 914 0002 0030     		adds	r0, r0, #0
 915 0004 18BF     		it	ne
 916 0006 0120     		movne	r0, #1
 917 0008 7047     		bx	lr
 918              		.cfi_endproc
 919              	.LFE274:
 920              		.size	sys_mbox_valid, .-sys_mbox_valid
 921 000a 00BFAFF3 		.section	.text.sys_mbox_set_invalid,"ax",%progbits
 921      0080
 922              		.align	2
 923              		.p2align 4,,15
 924              		.global	sys_mbox_set_invalid
 925              		.thumb
 926              		.thumb_func
 927              		.type	sys_mbox_set_invalid, %function
 928              	sys_mbox_set_invalid:
 929              	.LFB275:
 930              		.loc 1 199 0
 931              		.cfi_startproc
 932              		@ args = 0, pretend = 0, frame = 0
 933              		@ frame_needed = 0, uses_anonymous_args = 0
 934              		@ link register save eliminated.
 935              	.LVL68:
 936              		.loc 1 200 0
 937 0000 0023     		movs	r3, #0
 938 0002 0360     		str	r3, [r0]
 939 0004 7047     		bx	lr
 940              		.cfi_endproc
 941              	.LFE275:
 942              		.size	sys_mbox_set_invalid, .-sys_mbox_set_invalid
 943 0006 00BFAFF3 		.section	.text.sys_thread_new,"ax",%progbits
 943      0080AFF3 
 943      0080
 944              		.align	2
 945              		.p2align 4,,15
 946              		.global	sys_thread_new
 947              		.thumb
 948              		.thumb_func
 949              		.type	sys_thread_new, %function
 950              	sys_thread_new:
 951              	.LFB276:
ARM GAS  C:\Users\jo\AppData\Local\Temp\cc2TisZq.s 			page 18


 952              		.loc 1 204 0
 953              		.cfi_startproc
 954              		@ args = 4, pretend = 0, frame = 0
 955              		@ frame_needed = 0, uses_anonymous_args = 0
 956              	.LVL69:
 957 0000 2DE9F043 		push	{r4, r5, r6, r7, r8, r9, lr}
 958              		.cfi_def_cfa_offset 28
 959              		.cfi_offset 4, -28
 960              		.cfi_offset 5, -24
 961              		.cfi_offset 6, -20
 962              		.cfi_offset 7, -16
 963              		.cfi_offset 8, -12
 964              		.cfi_offset 9, -8
 965              		.cfi_offset 14, -4
 966              		.loc 1 211 0
 967 0004 CB33     		adds	r3, r3, #203
 968              	.LVL70:
 969 0006 43F00705 		orr	r5, r3, #7
 970 000a 0135     		adds	r5, r5, #1
 971              	.LVL71:
 972              		.loc 1 204 0
 973 000c 83B0     		sub	sp, sp, #12
 974              		.cfi_def_cfa_offset 40
 975              		.loc 1 204 0
 976 000e 0746     		mov	r7, r0
 977              		.loc 1 212 0
 978 0010 2846     		mov	r0, r5
 979              	.LVL72:
 980              		.loc 1 204 0
 981 0012 8846     		mov	r8, r1
 982 0014 9146     		mov	r9, r2
 983              		.loc 1 212 0
 984 0016 FFF7FEFF 		bl	chCoreAlloc
 985              	.LVL73:
 986              		.loc 1 213 0
 987 001a 0446     		mov	r4, r0
 988 001c 28B3     		cbz	r0, .L69
 989              		.loc 1 217 0
 990 001e 00F14806 		add	r6, r0, #72
 991 0022 3146     		mov	r1, r6
 992 0024 FF22     		movs	r2, #255
 993 0026 FFF7FEFF 		bl	_thread_memfill
 994              	.LVL74:
 995              		.loc 1 220 0
 996 002a 6119     		adds	r1, r4, r5
 997 002c 3046     		mov	r0, r6
 998 002e 5522     		movs	r2, #85
 999 0030 FFF7FEFF 		bl	_thread_memfill
 1000              	.LVL75:
 1001              		.loc 1 225 0
 1002 0034 FFF7FEFF 		bl	chSysGetStatusAndLockX
 1003              	.LVL76:
 1004              		.loc 1 226 0
 1005 0038 4346     		mov	r3, r8
 1006              		.loc 1 225 0
 1007 003a 0646     		mov	r6, r0
 1008              	.LVL77:
ARM GAS  C:\Users\jo\AppData\Local\Temp\cc2TisZq.s 			page 19


 1009              		.loc 1 226 0
 1010 003c CDF80090 		str	r9, [sp]
 1011 0040 2046     		mov	r0, r4
 1012              	.LVL78:
 1013 0042 2946     		mov	r1, r5
 1014 0044 0A9A     		ldr	r2, [sp, #40]
 1015 0046 FFF7FEFF 		bl	chThdCreateI
 1016              	.LVL79:
 1017              	.LBB240:
 1018              	.LBB241:
 1019              		.file 7 "../../../os/rt/include/chthreads.h"
 1020              		.loc 7 247 0
 1021 004a 90F82030 		ldrb	r3, [r0, #32]	@ zero_extendqisi2
 1022              	.LBE241:
 1023              	.LBE240:
 1024              	.LBB244:
 1025              	.LBB245:
 1026              		.file 8 "../../../os/rt/include/chregistry.h"
 1027              		.loc 8 176 0
 1028 004e 8761     		str	r7, [r0, #24]
 1029              	.LBE245:
 1030              	.LBE244:
 1031              	.LBB246:
 1032              	.LBB242:
 1033              		.loc 7 247 0
 1034 0050 022B     		cmp	r3, #2
 1035              	.LBE242:
 1036              	.LBE246:
 1037              		.loc 1 226 0
 1038 0052 0446     		mov	r4, r0
 1039              	.LVL80:
 1040              	.LBB247:
 1041              	.LBB243:
 1042              		.loc 7 247 0
 1043 0054 02D0     		beq	.L70
 1044 0056 0648     		ldr	r0, .L76
 1045              	.LVL81:
 1046 0058 FFF7FEFF 		bl	chSysHalt
 1047              	.LVL82:
 1048              	.L70:
 1049              		.loc 7 249 0
 1050 005c 2046     		mov	r0, r4
 1051 005e FFF7FEFF 		bl	chSchReadyI
 1052              	.LVL83:
 1053              	.LBE243:
 1054              	.LBE247:
 1055              		.loc 1 229 0
 1056 0062 3046     		mov	r0, r6
 1057 0064 FFF7FEFF 		bl	chSysRestoreStatusX
 1058              	.LVL84:
 1059              		.loc 1 231 0
 1060 0068 2046     		mov	r0, r4
 1061              	.LVL85:
 1062              	.L69:
 1063              		.loc 1 232 0
 1064 006a 03B0     		add	sp, sp, #12
 1065              		.cfi_def_cfa_offset 28
ARM GAS  C:\Users\jo\AppData\Local\Temp\cc2TisZq.s 			page 20


 1066              		@ sp needed
 1067 006c BDE8F083 		pop	{r4, r5, r6, r7, r8, r9, pc}
 1068              	.LVL86:
 1069              	.L77:
 1070              		.align	2
 1071              	.L76:
 1072 0070 00000000 		.word	.LANCHOR1
 1073              		.cfi_endproc
 1074              	.LFE276:
 1075              		.size	sys_thread_new, .-sys_thread_new
 1076 0074 AFF30080 		.section	.text.sys_arch_protect,"ax",%progbits
 1076      AFF30080 
 1076      AFF30080 
 1077              		.align	2
 1078              		.p2align 4,,15
 1079              		.global	sys_arch_protect
 1080              		.thumb
 1081              		.thumb_func
 1082              		.type	sys_arch_protect, %function
 1083              	sys_arch_protect:
 1084              	.LFB277:
 1085              		.loc 1 234 0
 1086              		.cfi_startproc
 1087              		@ args = 0, pretend = 0, frame = 0
 1088              		@ frame_needed = 0, uses_anonymous_args = 0
 1089              		@ link register save eliminated.
 1090              		.loc 1 236 0
 1091 0000 FFF7FEBF 		b	chSysGetStatusAndLockX
 1092              	.LVL87:
 1093              		.cfi_endproc
 1094              	.LFE277:
 1095              		.size	sys_arch_protect, .-sys_arch_protect
 1096 0004 AFF30080 		.section	.text.sys_arch_unprotect,"ax",%progbits
 1096      AFF30080 
 1096      AFF30080 
 1097              		.align	2
 1098              		.p2align 4,,15
 1099              		.global	sys_arch_unprotect
 1100              		.thumb
 1101              		.thumb_func
 1102              		.type	sys_arch_unprotect, %function
 1103              	sys_arch_unprotect:
 1104              	.LFB278:
 1105              		.loc 1 239 0
 1106              		.cfi_startproc
 1107              		@ args = 0, pretend = 0, frame = 0
 1108              		@ frame_needed = 0, uses_anonymous_args = 0
 1109              		@ link register save eliminated.
 1110              	.LVL88:
 1111              	.LBB248:
 1112              	.LBB249:
 1113              		.file 9 "../../../os/hal/osal/rt/osal.h"
 1114              		.loc 9 512 0
 1115 0000 FFF7FEBF 		b	chSysRestoreStatusX
 1116              	.LVL89:
 1117              	.LBE249:
 1118              	.LBE248:
ARM GAS  C:\Users\jo\AppData\Local\Temp\cc2TisZq.s 			page 21


 1119              		.cfi_endproc
 1120              	.LFE278:
 1121              		.size	sys_arch_unprotect, .-sys_arch_unprotect
 1122 0004 AFF30080 		.section	.text.sys_now,"ax",%progbits
 1122      AFF30080 
 1122      AFF30080 
 1123              		.align	2
 1124              		.p2align 4,,15
 1125              		.global	sys_now
 1126              		.thumb
 1127              		.thumb_func
 1128              		.type	sys_now, %function
 1129              	sys_now:
 1130              	.LFB279:
 1131              		.loc 1 244 0
 1132              		.cfi_startproc
 1133              		@ args = 0, pretend = 0, frame = 0
 1134              		@ frame_needed = 0, uses_anonymous_args = 0
 1135              		@ link register save eliminated.
 1136              	.LBB250:
 1137              	.LBB251:
 1138              	.LBB252:
 1139              	.LBB253:
 1140              	.LBB254:
 1141              		.loc 4 129 0
 1142 0000 4FF08042 		mov	r2, #1073741824
 1143              	.LBE254:
 1144              	.LBE253:
 1145              	.LBE252:
 1146              	.LBE251:
 1147              	.LBE250:
 1148              		.loc 1 249 0
 1149 0004 034B     		ldr	r3, .L81
 1150              	.LBB259:
 1151              	.LBB258:
 1152              	.LBB257:
 1153              	.LBB256:
 1154              	.LBB255:
 1155              		.loc 4 129 0
 1156 0006 506A     		ldr	r0, [r2, #36]
 1157              	.LBE255:
 1158              	.LBE256:
 1159              	.LBE257:
 1160              	.LBE258:
 1161              	.LBE259:
 1162              		.loc 1 249 0
 1163 0008 0138     		subs	r0, r0, #1
 1164 000a A3FB0030 		umull	r3, r0, r3, r0
 1165 000e 0009     		lsrs	r0, r0, #4
 1166              		.loc 1 255 0
 1167 0010 0130     		adds	r0, r0, #1
 1168 0012 7047     		bx	lr
 1169              	.L82:
 1170              		.align	2
 1171              	.L81:
 1172 0014 1F85EB51 		.word	1374389535
 1173              		.cfi_endproc
ARM GAS  C:\Users\jo\AppData\Local\Temp\cc2TisZq.s 			page 22


 1174              	.LFE279:
 1175              		.size	sys_now, .-sys_now
 1176 0018 AFF30080 		.section	.rodata.__func__.6021,"a",%progbits
 1176      AFF30080 
 1177              		.align	2
 1178              		.set	.LANCHOR1,. + 0
 1179              		.type	__func__.6021, %object
 1180              		.size	__func__.6021, 12
 1181              	__func__.6021:
 1182 0000 63685468 		.ascii	"chThdStartI\000"
 1182      64537461 
 1182      72744900 
 1183              		.section	.rodata.__func__.5854,"a",%progbits
 1184              		.align	2
 1185              		.set	.LANCHOR0,. + 0
 1186              		.type	__func__.5854, %object
 1187              		.size	__func__.5854, 12
 1188              	__func__.5854:
 1189 0000 63685379 		.ascii	"chSysUnlock\000"
 1189      73556E6C 
 1189      6F636B00 
 1190              		.text
 1191              	.Letext0:
 1192              		.file 10 "c:\\program files\\gnu tools arm embedded\\4.9 2014q4\\lib\\gcc\\arm-none-eabi\\4.9.3\\i
 1193              		.file 11 "c:\\program files\\gnu tools arm embedded\\4.9 2014q4\\arm-none-eabi\\include\\machine\\
 1194              		.file 12 "c:\\program files\\gnu tools arm embedded\\4.9 2014q4\\arm-none-eabi\\include\\stdint.h"
 1195              		.file 13 "../../../os/rt/ports/ARMCMx/compilers/GCC/chtypes.h"
 1196              		.file 14 "../../../os/rt/include/chsystypes.h"
 1197              		.file 15 "../../../os/rt/include/chschd.h"
 1198              		.file 16 "../../../os/rt/ports/ARMCMx/chcore.h"
 1199              		.file 17 "../../../os/rt/ports/ARMCMx/chcore_v7m.h"
 1200              		.file 18 "../../../os/hal/ports/STM32/LLD/TIMv1/stm32_tim.h"
 1201              		.file 19 "../../../os/rt/include/chdebug.h"
 1202              		.file 20 "../../../os/rt/include/chtm.h"
 1203              		.file 21 "../../../os/rt/include/chmtx.h"
 1204              		.file 22 "../../../os/rt/include/chmemcore.h"
 1205              		.file 23 "../../../os/rt/include/chheap.h"
 1206              		.file 24 "../../../os/various/lwip_bindings/arch/cc.h"
 1207              		.file 25 "../../../ext/lwip/src/include/lwip/mem.h"
 1208              		.file 26 "../../../ext/lwip/src/include/lwip/err.h"
 1209              		.file 27 "../../../os/various/lwip_bindings/arch/sys_arch.h"
 1210              		.file 28 "../../../ext/lwip/src/include/lwip/sys.h"
 1211              		.file 29 "../../../ext/lwip/src/include/lwip/stats.h"
 1212              		.file 30 "../../../os/rt/ports/ARMCMx/chcore_timer.h"
 1213              		.file 31 "../../../os/rt/include/chvt.h"
 1214              		.file 32 "../../../os/ext/CMSIS/include/core_cm4.h"