ARM GAS  C:\Users\jo\AppData\Local\Temp\ccQTqoh0.s 			page 1


   1              		.syntax unified
   2              		.cpu cortex-m4
   3              		.fpu softvfp
   4              		.eabi_attribute 20, 1
   5              		.eabi_attribute 21, 1
   6              		.eabi_attribute 23, 3
   7              		.eabi_attribute 24, 1
   8              		.eabi_attribute 25, 1
   9              		.eabi_attribute 26, 1
  10              		.eabi_attribute 30, 2
  11              		.eabi_attribute 34, 1
  12              		.eabi_attribute 18, 4
  13              		.thumb
  14              		.file	"tcp.c"
  15              		.text
  16              	.Ltext0:
  17              		.cfi_sections	.debug_frame
  18              		.section	.text.tcp_accept_null,"ax",%progbits
  19              		.align	2
  20              		.p2align 4,,15
  21              		.thumb
  22              		.thumb_func
  23              		.type	tcp_accept_null, %function
  24              	tcp_accept_null:
  25              	.LFB268:
  26              		.file 1 "../../../ext/lwip/src/core/tcp.c"
  27              		.loc 1 495 0
  28              		.cfi_startproc
  29              		@ args = 0, pretend = 0, frame = 0
  30              		@ frame_needed = 0, uses_anonymous_args = 0
  31              		@ link register save eliminated.
  32              	.LVL0:
  33              		.loc 1 501 0
  34 0000 6FF00900 		mvn	r0, #9
  35              	.LVL1:
  36 0004 7047     		bx	lr
  37              		.cfi_endproc
  38              	.LFE268:
  39              		.size	tcp_accept_null, .-tcp_accept_null
  40 0006 00BFAFF3 		.section	.text.tcp_new_port,"ax",%progbits
  40      0080AFF3 
  40      0080
  41              		.align	2
  42              		.p2align 4,,15
  43              		.thumb
  44              		.thumb_func
  45              		.type	tcp_new_port, %function
  46              	tcp_new_port:
  47              	.LFB272:
  48              		.loc 1 648 0
  49              		.cfi_startproc
  50              		@ args = 0, pretend = 0, frame = 0
  51              		@ frame_needed = 0, uses_anonymous_args = 0
  52              		@ link register save eliminated.
  53              	.LVL2:
  54 0000 F0B4     		push	{r4, r5, r6, r7}
  55              		.cfi_def_cfa_offset 16
ARM GAS  C:\Users\jo\AppData\Local\Temp\ccQTqoh0.s 			page 2


  56              		.cfi_offset 4, -16
  57              		.cfi_offset 5, -12
  58              		.cfi_offset 6, -8
  59              		.cfi_offset 7, -4
  60 0002 124E     		ldr	r6, .L22
  61 0004 124F     		ldr	r7, .L22+4
  62 0006 3088     		ldrh	r0, [r6]
  63              		.loc 1 648 0
  64 0008 4FF48044 		mov	r4, #16384
  65              		.loc 1 654 0
  66 000c 4FF6FF75 		movw	r5, #65535
  67              	.LVL3:
  68              	.L3:
  69 0010 A842     		cmp	r0, r5
  70 0012 18BF     		it	ne
  71 0014 0130     		addne	r0, r0, #1
  72 0016 0F49     		ldr	r1, .L22+8
  73 0018 14BF     		ite	ne
  74 001a 80B2     		uxthne	r0, r0
  75 001c 4FF44040 		moveq	r0, #49152
  76              	.LVL4:
  77              	.L12:
  78              		.loc 1 659 0
  79 0020 51F8043B 		ldr	r3, [r1], #4
  80 0024 1B68     		ldr	r3, [r3]
  81              	.LVL5:
  82 0026 13B9     		cbnz	r3, .L20
  83 0028 0BE0     		b	.L5
  84              	.L9:
  85              		.loc 1 659 0 is_stmt 0 discriminator 2
  86 002a DB68     		ldr	r3, [r3, #12]
  87              	.LVL6:
  88 002c 4BB1     		cbz	r3, .L5
  89              	.L20:
  90              		.loc 1 660 0 is_stmt 1
  91 002e 5A8B     		ldrh	r2, [r3, #26]
  92 0030 8242     		cmp	r2, r0
  93 0032 FAD1     		bne	.L9
  94              	.LVL7:
  95 0034 013C     		subs	r4, r4, #1
  96              	.LVL8:
  97 0036 A4B2     		uxth	r4, r4
  98              		.loc 1 661 0
  99 0038 002C     		cmp	r4, #0
 100 003a E9D1     		bne	.L3
 101 003c 3080     		strh	r0, [r6]	@ movhi
 102              		.loc 1 662 0
 103 003e 2046     		mov	r0, r4
 104 0040 02E0     		b	.L10
 105              	.LVL9:
 106              	.L5:
 107              		.loc 1 658 0 discriminator 2
 108 0042 B942     		cmp	r1, r7
 109 0044 ECD1     		bne	.L12
 110 0046 3080     		strh	r0, [r6]	@ movhi
 111              	.LVL10:
 112              	.L10:
ARM GAS  C:\Users\jo\AppData\Local\Temp\ccQTqoh0.s 			page 3


 113              		.loc 1 669 0
 114 0048 F0BC     		pop	{r4, r5, r6, r7}
 115              		.cfi_restore 7
 116              		.cfi_restore 6
 117              		.cfi_restore 5
 118              		.cfi_restore 4
 119              		.cfi_def_cfa_offset 0
 120 004a 7047     		bx	lr
 121              	.L23:
 122              		.align	2
 123              	.L22:
 124 004c 00000000 		.word	.LANCHOR0
 125 0050 10000000 		.word	.LANCHOR1+16
 126 0054 00000000 		.word	.LANCHOR1
 127              		.cfi_endproc
 128              	.LFE272:
 129              		.size	tcp_new_port, .-tcp_new_port
 130 0058 AFF30080 		.section	.text.chprintf.constprop.4,"ax",%progbits
 130      AFF30080 
 131              		.align	2
 132              		.p2align 4,,15
 133              		.thumb
 134              		.thumb_func
 135              		.type	chprintf.constprop.4, %function
 136              	chprintf.constprop.4:
 137              	.LFB301:
 138              		.file 2 "../../../os/hal/lib/streams/chprintf.h"
 139              		.loc 2 69 0
 140              		.cfi_startproc
 141              		@ args = 4, pretend = 12, frame = 8
 142              		@ frame_needed = 0, uses_anonymous_args = 1
 143              	.LVL11:
 144 0000 0EB4     		push	{r1, r2, r3}
 145              		.cfi_def_cfa_offset 12
 146              		.cfi_offset 1, -12
 147              		.cfi_offset 2, -8
 148              		.cfi_offset 3, -4
 149 0002 00B5     		push	{lr}
 150              		.cfi_def_cfa_offset 16
 151              		.cfi_offset 14, -16
 152 0004 82B0     		sub	sp, sp, #8
 153              		.cfi_def_cfa_offset 24
 154              		.loc 2 73 0
 155 0006 04AB     		add	r3, sp, #16
 156              		.loc 2 74 0
 157 0008 1A46     		mov	r2, r3
 158 000a 0549     		ldr	r1, .L26
 159 000c 0548     		ldr	r0, .L26+4
 160              	.LVL12:
 161              		.loc 2 73 0
 162 000e 0193     		str	r3, [sp, #4]
 163              		.loc 2 74 0
 164 0010 FFF7FEFF 		bl	chvprintf
 165              	.LVL13:
 166              		.loc 2 78 0
 167 0014 02B0     		add	sp, sp, #8
 168              		.cfi_def_cfa_offset 16
ARM GAS  C:\Users\jo\AppData\Local\Temp\ccQTqoh0.s 			page 4


 169              		@ sp needed
 170 0016 5DF804EB 		ldr	lr, [sp], #4
 171              		.cfi_restore 14
 172              		.cfi_def_cfa_offset 12
 173 001a 03B0     		add	sp, sp, #12
 174              		.cfi_restore 3
 175              		.cfi_restore 2
 176              		.cfi_restore 1
 177              		.cfi_def_cfa_offset 0
 178 001c 7047     		bx	lr
 179              	.L27:
 180 001e 00BF     		.align	2
 181              	.L26:
 182 0020 00000000 		.word	.LC0
 183 0024 00000000 		.word	itm_port
 184              		.cfi_endproc
 185              	.LFE301:
 186              		.size	chprintf.constprop.4, .-chprintf.constprop.4
 187 0028 AFF30080 		.section	.text.tcp_init,"ax",%progbits
 187      AFF30080 
 188              		.align	2
 189              		.p2align 4,,15
 190              		.global	tcp_init
 191              		.thumb
 192              		.thumb_func
 193              		.type	tcp_init, %function
 194              	tcp_init:
 195              	.LFB260:
 196              		.loc 1 131 0
 197              		.cfi_startproc
 198              		@ args = 0, pretend = 0, frame = 0
 199              		@ frame_needed = 0, uses_anonymous_args = 0
 200              		@ link register save eliminated.
 201 0000 7047     		bx	lr
 202              		.cfi_endproc
 203              	.LFE260:
 204              		.size	tcp_init, .-tcp_init
 205 0002 00BFAFF3 		.section	.text.tcp_bind,"ax",%progbits
 205      0080AFF3 
 205      0080AFF3 
 205      0080
 206              		.align	2
 207              		.p2align 4,,15
 208              		.global	tcp_bind
 209              		.thumb
 210              		.thumb_func
 211              		.type	tcp_bind, %function
 212              	tcp_bind:
 213              	.LFB267:
 214              		.loc 1 434 0
 215              		.cfi_startproc
 216              		@ args = 0, pretend = 0, frame = 0
 217              		@ frame_needed = 0, uses_anonymous_args = 0
 218              	.LVL14:
 219              		.loc 1 434 0
 220 0000 F0B5     		push	{r4, r5, r6, r7, lr}
 221              		.cfi_def_cfa_offset 20
ARM GAS  C:\Users\jo\AppData\Local\Temp\ccQTqoh0.s 			page 5


 222              		.cfi_offset 4, -20
 223              		.cfi_offset 5, -16
 224              		.cfi_offset 6, -12
 225              		.cfi_offset 7, -8
 226              		.cfi_offset 14, -4
 227              		.loc 1 439 0
 228 0002 037E     		ldrb	r3, [r0, #24]	@ zero_extendqisi2
 229              		.loc 1 434 0
 230 0004 83B0     		sub	sp, sp, #12
 231              		.cfi_def_cfa_offset 32
 232              		.loc 1 434 0
 233 0006 0646     		mov	r6, r0
 234              		.loc 1 439 0
 235 0008 002B     		cmp	r3, #0
 236 000a 31D1     		bne	.L55
 237 000c 0D46     		mov	r5, r1
 238              		.loc 1 452 0
 239 000e 42B3     		cbz	r2, .L56
 240              	.LVL15:
 241              	.L32:
 242 0010 1E49     		ldr	r1, .L57
 243 0012 01F11007 		add	r7, r1, #16
 244              	.LVL16:
 245              	.L36:
 246              		.loc 1 461 0
 247 0016 51F8043B 		ldr	r3, [r1], #4
 248 001a 1B68     		ldr	r3, [r3]
 249              	.LVL17:
 250 001c 13B9     		cbnz	r3, .L35
 251 001e 0FE0     		b	.L33
 252              	.L34:
 253              		.loc 1 461 0 is_stmt 0 discriminator 2
 254 0020 DB68     		ldr	r3, [r3, #12]
 255              	.LVL18:
 256 0022 6BB1     		cbz	r3, .L33
 257              	.L35:
 258              		.loc 1 462 0 is_stmt 1
 259 0024 5C8B     		ldrh	r4, [r3, #26]
 260 0026 9442     		cmp	r4, r2
 261 0028 FAD1     		bne	.L34
 262              		.loc 1 471 0
 263 002a 1868     		ldr	r0, [r3]
 264 002c 20B1     		cbz	r0, .L42
 265              		.loc 1 471 0 is_stmt 0 discriminator 2
 266 002e 1DB1     		cbz	r5, .L42
 267              		.loc 1 472 0 is_stmt 1
 268 0030 2C68     		ldr	r4, [r5]
 269 0032 0CB1     		cbz	r4, .L42
 270              		.loc 1 472 0 is_stmt 0 discriminator 1
 271 0034 A042     		cmp	r0, r4
 272 0036 F3D1     		bne	.L34
 273              	.L42:
 274              		.loc 1 474 0 is_stmt 1
 275 0038 F820     		movs	r0, #248
 276              	.LVL19:
 277              	.L31:
 278              		.loc 1 488 0
ARM GAS  C:\Users\jo\AppData\Local\Temp\ccQTqoh0.s 			page 6


 279 003a 40B2     		sxtb	r0, r0
 280 003c 03B0     		add	sp, sp, #12
 281              		.cfi_remember_state
 282              		.cfi_def_cfa_offset 20
 283              		@ sp needed
 284 003e F0BD     		pop	{r4, r5, r6, r7, pc}
 285              	.LVL20:
 286              	.L33:
 287              		.cfi_restore_state
 288              		.loc 1 460 0 discriminator 2
 289 0040 B942     		cmp	r1, r7
 290 0042 E8D1     		bne	.L36
 291              		.loc 1 481 0
 292 0044 15B1     		cbz	r5, .L37
 293              		.loc 1 481 0 is_stmt 0 discriminator 1
 294 0046 2B68     		ldr	r3, [r5]
 295              	.LVL21:
 296 0048 03B1     		cbz	r3, .L37
 297              		.loc 1 482 0 is_stmt 1
 298 004a 3360     		str	r3, [r6]
 299              	.L37:
 300              		.loc 1 485 0
 301 004c 104B     		ldr	r3, .L57+4
 302              		.loc 1 484 0
 303 004e 7283     		strh	r2, [r6, #26]	@ movhi
 304              		.loc 1 485 0
 305 0050 1A68     		ldr	r2, [r3]
 306              	.LVL22:
 307 0052 F260     		str	r2, [r6, #12]
 308 0054 1E60     		str	r6, [r3]
 309 0056 FFF7FEFF 		bl	tcp_timer_needed
 310              	.LVL23:
 311              		.loc 1 487 0
 312 005a 0020     		movs	r0, #0
 313              		.loc 1 488 0
 314 005c 40B2     		sxtb	r0, r0
 315 005e 03B0     		add	sp, sp, #12
 316              		.cfi_remember_state
 317              		.cfi_def_cfa_offset 20
 318              		@ sp needed
 319 0060 F0BD     		pop	{r4, r5, r6, r7, pc}
 320              	.LVL24:
 321              	.L56:
 322              		.cfi_restore_state
 323              		.loc 1 453 0
 324 0062 FFF7FEFF 		bl	tcp_new_port
 325              	.LVL25:
 326              		.loc 1 454 0
 327 0066 0246     		mov	r2, r0
 328 0068 0028     		cmp	r0, #0
 329 006a D1D1     		bne	.L32
 330              		.loc 1 455 0
 331 006c FE20     		movs	r0, #254
 332              	.LVL26:
 333 006e E4E7     		b	.L31
 334              	.LVL27:
 335              	.L55:
ARM GAS  C:\Users\jo\AppData\Local\Temp\ccQTqoh0.s 			page 7


 336              		.loc 1 439 0 discriminator 1
 337 0070 084B     		ldr	r3, .L57+8
 338 0072 0093     		str	r3, [sp]
 339 0074 0849     		ldr	r1, .L57+12
 340              	.LVL28:
 341 0076 094A     		ldr	r2, .L57+16
 342              	.LVL29:
 343 0078 0948     		ldr	r0, .L57+20
 344              	.LVL30:
 345 007a 40F2B713 		movw	r3, #439
 346 007e FFF7FEFF 		bl	chprintf.constprop.4
 347              	.LVL31:
 348              	.LBB94:
 349              	.LBB95:
 350              		.file 3 "../../../os/hal/osal/rt/osal.h"
 351              		.loc 3 416 0 discriminator 1
 352 0082 0648     		ldr	r0, .L57+16
 353 0084 FFF7FEFF 		bl	chSysHalt
 354              	.LVL32:
 355              	.LBE95:
 356              	.LBE94:
 357              		.loc 1 439 0 discriminator 1
 358 0088 FA20     		movs	r0, #250
 359 008a D6E7     		b	.L31
 360              	.L58:
 361              		.align	2
 362              	.L57:
 363 008c 00000000 		.word	.LANCHOR1
 364 0090 00000000 		.word	.LANCHOR2
 365 0094 50000000 		.word	.LC2
 366 0098 00000000 		.word	.LC0
 367 009c 28000000 		.word	.LC1
 368 00a0 00000000 		.word	itm_port
 369              		.cfi_endproc
 370              	.LFE267:
 371              		.size	tcp_bind, .-tcp_bind
 372 00a4 AFF30080 		.section	.text.tcp_listen_with_backlog,"ax",%progbits
 372      AFF30080 
 372      AFF30080 
 373              		.align	2
 374              		.p2align 4,,15
 375              		.global	tcp_listen_with_backlog
 376              		.thumb
 377              		.thumb_func
 378              		.type	tcp_listen_with_backlog, %function
 379              	tcp_listen_with_backlog:
 380              	.LFB269:
 381              		.loc 1 520 0
 382              		.cfi_startproc
 383              		@ args = 0, pretend = 0, frame = 0
 384              		@ frame_needed = 0, uses_anonymous_args = 0
 385              	.LVL33:
 386 0000 F0B5     		push	{r4, r5, r6, r7, lr}
 387              		.cfi_def_cfa_offset 20
 388              		.cfi_offset 4, -20
 389              		.cfi_offset 5, -16
 390              		.cfi_offset 6, -12
ARM GAS  C:\Users\jo\AppData\Local\Temp\ccQTqoh0.s 			page 8


 391              		.cfi_offset 7, -8
 392              		.cfi_offset 14, -4
 393              		.loc 1 524 0
 394 0002 037E     		ldrb	r3, [r0, #24]	@ zero_extendqisi2
 395              		.loc 1 520 0
 396 0004 83B0     		sub	sp, sp, #12
 397              		.cfi_def_cfa_offset 32
 398              		.loc 1 520 0
 399 0006 0546     		mov	r5, r0
 400              		.loc 1 524 0
 401 0008 002B     		cmp	r3, #0
 402 000a 45D1     		bne	.L77
 403              		.loc 1 545 0
 404 000c 294B     		ldr	r3, .L81
 405 000e 9888     		ldrh	r0, [r3, #4]
 406              	.LVL34:
 407 0010 FFF7FEFF 		bl	malloc
 408              	.LVL35:
 409              		.loc 1 546 0
 410 0014 0446     		mov	r4, r0
 411 0016 0028     		cmp	r0, #0
 412 0018 34D0     		beq	.L61
 413              		.loc 1 554 0
 414 001a 2B7A     		ldrb	r3, [r5, #8]	@ zero_extendqisi2
 415              		.loc 1 550 0
 416 001c 6A8B     		ldrh	r2, [r5, #26]
 417              		.loc 1 549 0
 418 001e 2E69     		ldr	r6, [r5, #16]
 419              		.loc 1 552 0
 420 0020 95F819E0 		ldrb	lr, [r5, #25]	@ zero_extendqisi2
 421              		.loc 1 555 0
 422 0024 AF7A     		ldrb	r7, [r5, #10]	@ zero_extendqisi2
 423              		.loc 1 556 0
 424 0026 687A     		ldrb	r0, [r5, #9]	@ zero_extendqisi2
 425              	.LVL36:
 426              		.loc 1 557 0
 427 0028 2968     		ldr	r1, [r5]
 428              		.loc 1 550 0
 429 002a 6283     		strh	r2, [r4, #26]	@ movhi
 430              		.loc 1 554 0
 431 002c 43F00203 		orr	r3, r3, #2
 432              		.loc 1 551 0
 433 0030 4FF0010C 		mov	ip, #1
 434              		.loc 1 554 0
 435 0034 2372     		strb	r3, [r4, #8]
 436              		.loc 1 549 0
 437 0036 2661     		str	r6, [r4, #16]
 438              		.loc 1 551 0
 439 0038 84F818C0 		strb	ip, [r4, #24]
 440              		.loc 1 552 0
 441 003c 84F819E0 		strb	lr, [r4, #25]
 442              		.loc 1 555 0
 443 0040 A772     		strb	r7, [r4, #10]
 444              		.loc 1 556 0
 445 0042 6072     		strb	r0, [r4, #9]
 446              		.loc 1 557 0
 447 0044 2160     		str	r1, [r4]
ARM GAS  C:\Users\jo\AppData\Local\Temp\ccQTqoh0.s 			page 9


 448              		.loc 1 558 0
 449 0046 8AB1     		cbz	r2, .L62
 450              		.loc 1 559 0
 451 0048 1B4B     		ldr	r3, .L81+4
 452 004a 1A68     		ldr	r2, [r3]
 453 004c AA42     		cmp	r2, r5
 454 004e 20D0     		beq	.L78
 455              		.loc 1 559 0 is_stmt 0 discriminator 2
 456 0050 1A49     		ldr	r1, .L81+8
 457 0052 0A60     		str	r2, [r1]
 458 0054 52B1     		cbz	r2, .L62
 459              		.loc 1 559 0
 460 0056 D368     		ldr	r3, [r2, #12]
 461 0058 AB42     		cmp	r3, r5
 462 005a 17D0     		beq	.L66
 463              		.loc 1 559 0 discriminator 6
 464 005c 2BB1     		cbz	r3, .L79
 465              	.L69:
 466              		.loc 1 559 0 discriminator 9
 467 005e DA68     		ldr	r2, [r3, #12]
 468 0060 AA42     		cmp	r2, r5
 469 0062 11D0     		beq	.L80
 470 0064 1346     		mov	r3, r2
 471              		.loc 1 559 0
 472 0066 002B     		cmp	r3, #0
 473 0068 F9D1     		bne	.L69
 474              	.L79:
 475 006a 0B60     		str	r3, [r1]
 476              	.L62:
 477              		.loc 1 561 0 is_stmt 1
 478 006c 2846     		mov	r0, r5
 479 006e FFF7FEFF 		bl	free
 480              	.LVL37:
 481              		.loc 1 569 0
 482 0072 134B     		ldr	r3, .L81+12
 483              		.loc 1 563 0
 484 0074 134A     		ldr	r2, .L81+16
 485              		.loc 1 569 0
 486 0076 1968     		ldr	r1, [r3]
 487 0078 E160     		str	r1, [r4, #12]
 488              		.loc 1 563 0
 489 007a 6261     		str	r2, [r4, #20]
 490              		.loc 1 569 0
 491 007c 1C60     		str	r4, [r3]
 492 007e FFF7FEFF 		bl	tcp_timer_needed
 493              	.LVL38:
 494              		.loc 1 570 0
 495 0082 2046     		mov	r0, r4
 496              	.LVL39:
 497              	.L61:
 498              		.loc 1 571 0
 499 0084 03B0     		add	sp, sp, #12
 500              		.cfi_remember_state
 501              		.cfi_def_cfa_offset 20
 502              		@ sp needed
 503 0086 F0BD     		pop	{r4, r5, r6, r7, pc}
 504              	.LVL40:
ARM GAS  C:\Users\jo\AppData\Local\Temp\ccQTqoh0.s 			page 10


 505              	.L80:
 506              		.cfi_restore_state
 507 0088 1A46     		mov	r2, r3
 508 008a 0B60     		str	r3, [r1]
 509              	.L66:
 510              		.loc 1 559 0 discriminator 5
 511 008c EB68     		ldr	r3, [r5, #12]
 512 008e D360     		str	r3, [r2, #12]
 513 0090 ECE7     		b	.L62
 514              	.L78:
 515              		.loc 1 559 0 is_stmt 0 discriminator 1
 516 0092 EA68     		ldr	r2, [r5, #12]
 517 0094 1A60     		str	r2, [r3]
 518 0096 E9E7     		b	.L62
 519              	.LVL41:
 520              	.L77:
 521              		.loc 1 524 0 is_stmt 1 discriminator 1
 522 0098 0B4B     		ldr	r3, .L81+20
 523 009a 0093     		str	r3, [sp]
 524 009c 0B49     		ldr	r1, .L81+24
 525              	.LVL42:
 526 009e 0C4A     		ldr	r2, .L81+28
 527 00a0 0C48     		ldr	r0, .L81+32
 528              	.LVL43:
 529 00a2 4FF40373 		mov	r3, #524
 530 00a6 FFF7FEFF 		bl	chprintf.constprop.4
 531              	.LVL44:
 532              	.LBB96:
 533              	.LBB97:
 534              		.loc 3 416 0 discriminator 1
 535 00aa 0948     		ldr	r0, .L81+28
 536 00ac FFF7FEFF 		bl	chSysHalt
 537              	.LVL45:
 538              	.LBE97:
 539              	.LBE96:
 540              		.loc 1 524 0 discriminator 1
 541 00b0 0020     		movs	r0, #0
 542 00b2 E7E7     		b	.L61
 543              	.L82:
 544              		.align	2
 545              	.L81:
 546 00b4 00000000 		.word	memp_sizes
 547 00b8 00000000 		.word	.LANCHOR2
 548 00bc 00000000 		.word	.LANCHOR3
 549 00c0 00000000 		.word	.LANCHOR4
 550 00c4 00000000 		.word	tcp_accept_null
 551 00c8 50000000 		.word	.LC2
 552 00cc 00000000 		.word	.LC0
 553 00d0 74000000 		.word	.LC3
 554 00d4 00000000 		.word	itm_port
 555              		.cfi_endproc
 556              	.LFE269:
 557              		.size	tcp_listen_with_backlog, .-tcp_listen_with_backlog
 558 00d8 AFF30080 		.section	.text.tcp_update_rcv_ann_wnd,"ax",%progbits
 558      AFF30080 
 559              		.align	2
 560              		.p2align 4,,15
ARM GAS  C:\Users\jo\AppData\Local\Temp\ccQTqoh0.s 			page 11


 561              		.global	tcp_update_rcv_ann_wnd
 562              		.thumb
 563              		.thumb_func
 564              		.type	tcp_update_rcv_ann_wnd, %function
 565              	tcp_update_rcv_ann_wnd:
 566              	.LFB270:
 567              		.loc 1 580 0
 568              		.cfi_startproc
 569              		@ args = 0, pretend = 0, frame = 0
 570              		@ frame_needed = 0, uses_anonymous_args = 0
 571              	.LVL46:
 572 0000 70B5     		push	{r4, r5, r6, lr}
 573              		.cfi_def_cfa_offset 16
 574              		.cfi_offset 4, -16
 575              		.cfi_offset 5, -12
 576              		.cfi_offset 6, -8
 577              		.cfi_offset 14, -4
 578              		.loc 1 583 0
 579 0002 016B     		ldr	r1, [r0, #48]
 580              		.loc 1 581 0
 581 0004 848D     		ldrh	r4, [r0, #44]
 582              		.loc 1 583 0
 583 0006 C28E     		ldrh	r2, [r0, #54]
 584              		.loc 1 581 0
 585 0008 856A     		ldr	r5, [r0, #40]
 586              	.LVL47:
 587              		.loc 1 583 0
 588 000a 40F66836 		movw	r6, #2920
 589              		.loc 1 580 0
 590 000e 0346     		mov	r3, r0
 591 0010 601A     		subs	r0, r4, r1
 592              	.LVL48:
 593              		.loc 1 583 0
 594 0012 B242     		cmp	r2, r6
 595 0014 2844     		add	r0, r0, r5
 596 0016 94BF     		ite	ls
 597 0018 821A     		subls	r2, r0, r2
 598 001a 821B     		subhi	r2, r0, r6
 599 001c 002A     		cmp	r2, #0
 600              		.loc 1 580 0
 601 001e 82B0     		sub	sp, sp, #8
 602              		.cfi_def_cfa_offset 24
 603              		.loc 1 583 0
 604 0020 02DB     		blt	.L85
 605              		.loc 1 585 0
 606 0022 DC85     		strh	r4, [r3, #46]	@ movhi
 607              		.loc 1 600 0
 608 0024 02B0     		add	sp, sp, #8
 609              		.cfi_remember_state
 610              		.cfi_def_cfa_offset 16
 611              		@ sp needed
 612 0026 70BD     		pop	{r4, r5, r6, pc}
 613              	.LVL49:
 614              	.L85:
 615              		.cfi_restore_state
 616              		.loc 1 588 0
 617 0028 6A1A     		subs	r2, r5, r1
ARM GAS  C:\Users\jo\AppData\Local\Temp\ccQTqoh0.s 			page 12


 618 002a 002A     		cmp	r2, #0
 619 002c 03DD     		ble	.L87
 620              		.loc 1 591 0
 621 002e 0020     		movs	r0, #0
 622 0030 D885     		strh	r0, [r3, #46]	@ movhi
 623              		.loc 1 600 0
 624 0032 02B0     		add	sp, sp, #8
 625              		.cfi_remember_state
 626              		.cfi_def_cfa_offset 16
 627              		@ sp needed
 628 0034 70BD     		pop	{r4, r5, r6, pc}
 629              	.LVL50:
 630              	.L87:
 631              		.cfi_restore_state
 632              	.LBB98:
 633              		.loc 1 594 0
 634 0036 4D1B     		subs	r5, r1, r5
 635              	.LVL51:
 636              		.loc 1 595 0
 637 0038 B5F5803F 		cmp	r5, #65536
 638 003c 1C46     		mov	r4, r3
 639              	.LVL52:
 640 003e 03D2     		bcs	.L91
 641              	.LVL53:
 642              	.L88:
 643              	.LBE98:
 644              		.loc 1 598 0
 645 0040 0020     		movs	r0, #0
 646              	.LBB101:
 647              		.loc 1 596 0
 648 0042 E585     		strh	r5, [r4, #46]	@ movhi
 649              	.LBE101:
 650              		.loc 1 600 0
 651 0044 02B0     		add	sp, sp, #8
 652              		.cfi_remember_state
 653              		.cfi_def_cfa_offset 16
 654              		@ sp needed
 655 0046 70BD     		pop	{r4, r5, r6, pc}
 656              	.LVL54:
 657              	.L91:
 658              		.cfi_restore_state
 659              	.LBB102:
 660              		.loc 1 595 0 discriminator 1
 661 0048 064B     		ldr	r3, .L92
 662              	.LVL55:
 663 004a 0093     		str	r3, [sp]
 664              	.LVL56:
 665 004c 0649     		ldr	r1, .L92+4
 666 004e 074A     		ldr	r2, .L92+8
 667 0050 0748     		ldr	r0, .L92+12
 668 0052 40F25323 		movw	r3, #595
 669 0056 FFF7FEFF 		bl	chprintf.constprop.4
 670              	.LVL57:
 671              	.LBB99:
 672              	.LBB100:
 673              		.loc 3 416 0 discriminator 1
 674 005a 0448     		ldr	r0, .L92+8
ARM GAS  C:\Users\jo\AppData\Local\Temp\ccQTqoh0.s 			page 13


 675 005c FFF7FEFF 		bl	chSysHalt
 676              	.LVL58:
 677 0060 EEE7     		b	.L88
 678              	.L93:
 679 0062 00BF     		.align	2
 680              	.L92:
 681 0064 50000000 		.word	.LC2
 682 0068 00000000 		.word	.LC0
 683 006c 98000000 		.word	.LC4
 684 0070 00000000 		.word	itm_port
 685              	.LBE100:
 686              	.LBE99:
 687              	.LBE102:
 688              		.cfi_endproc
 689              	.LFE270:
 690              		.size	tcp_update_rcv_ann_wnd, .-tcp_update_rcv_ann_wnd
 691 0074 AFF30080 		.section	.text.tcp_recved,"ax",%progbits
 691      AFF30080 
 691      AFF30080 
 692              		.align	2
 693              		.p2align 4,,15
 694              		.global	tcp_recved
 695              		.thumb
 696              		.thumb_func
 697              		.type	tcp_recved, %function
 698              	tcp_recved:
 699              	.LFB271:
 700              		.loc 1 612 0
 701              		.cfi_startproc
 702              		@ args = 0, pretend = 0, frame = 0
 703              		@ frame_needed = 0, uses_anonymous_args = 0
 704              	.LVL59:
 705 0000 30B5     		push	{r4, r5, lr}
 706              		.cfi_def_cfa_offset 12
 707              		.cfi_offset 4, -12
 708              		.cfi_offset 5, -8
 709              		.cfi_offset 14, -4
 710              		.loc 1 616 0
 711 0002 037E     		ldrb	r3, [r0, #24]	@ zero_extendqisi2
 712 0004 012B     		cmp	r3, #1
 713              		.loc 1 612 0
 714 0006 83B0     		sub	sp, sp, #12
 715              		.cfi_def_cfa_offset 24
 716              		.loc 1 612 0
 717 0008 0546     		mov	r5, r0
 718 000a 0C46     		mov	r4, r1
 719              		.loc 1 616 0
 720 000c 2ED0     		beq	.L101
 721              	.LVL60:
 722              	.L95:
 723              		.loc 1 618 0
 724 000e AA8D     		ldrh	r2, [r5, #44]
 725 0010 C2F57F43 		rsb	r3, r2, #65280
 726 0014 FF33     		adds	r3, r3, #255
 727 0016 9C42     		cmp	r4, r3
 728 0018 1ADC     		bgt	.L102
 729              	.L96:
ARM GAS  C:\Users\jo\AppData\Local\Temp\ccQTqoh0.s 			page 14


 730              		.loc 1 621 0
 731 001a 1444     		add	r4, r4, r2
 732              		.loc 1 622 0
 733 001c 41F2D063 		movw	r3, #5840
 734              		.loc 1 621 0
 735 0020 A4B2     		uxth	r4, r4
 736              		.loc 1 622 0
 737 0022 9C42     		cmp	r4, r3
 738              		.loc 1 623 0
 739 0024 8CBF     		ite	hi
 740 0026 AB85     		strhhi	r3, [r5, #44]	@ movhi
 741              		.loc 1 621 0
 742 0028 AC85     		strhls	r4, [r5, #44]	@ movhi
 743              		.loc 1 626 0
 744 002a 2846     		mov	r0, r5
 745 002c FFF7FEFF 		bl	tcp_update_rcv_ann_wnd
 746              	.LVL61:
 747              		.loc 1 632 0
 748 0030 40F2B353 		movw	r3, #1459
 749 0034 9842     		cmp	r0, r3
 750 0036 01DC     		bgt	.L103
 751              		.loc 1 639 0
 752 0038 03B0     		add	sp, sp, #12
 753              		.cfi_remember_state
 754              		.cfi_def_cfa_offset 12
 755              		@ sp needed
 756 003a 30BD     		pop	{r4, r5, pc}
 757              	.LVL62:
 758              	.L103:
 759              		.cfi_restore_state
 760              	.LBB113:
 761              	.LBB114:
 762              		.loc 1 633 0
 763 003c AB7F     		ldrb	r3, [r5, #30]	@ zero_extendqisi2
 764              		.loc 1 634 0
 765 003e 2846     		mov	r0, r5
 766              	.LVL63:
 767              		.loc 1 633 0
 768 0040 43F00203 		orr	r3, r3, #2
 769 0044 AB77     		strb	r3, [r5, #30]
 770              	.LBE114:
 771              	.LBE113:
 772              		.loc 1 639 0
 773 0046 03B0     		add	sp, sp, #12
 774              		.cfi_remember_state
 775              		.cfi_def_cfa_offset 12
 776              		@ sp needed
 777 0048 BDE83040 		pop	{r4, r5, lr}
 778              		.cfi_restore 14
 779              		.cfi_restore 5
 780              		.cfi_restore 4
 781              		.cfi_def_cfa_offset 0
 782              	.LVL64:
 783              	.LBB116:
 784              	.LBB115:
 785              		.loc 1 634 0
 786 004c FFF7FEBF 		b	tcp_output
ARM GAS  C:\Users\jo\AppData\Local\Temp\ccQTqoh0.s 			page 15


 787              	.LVL65:
 788              	.L102:
 789              		.cfi_restore_state
 790              	.LBE115:
 791              	.LBE116:
 792              		.loc 1 618 0 discriminator 1
 793 0050 0D4B     		ldr	r3, .L104
 794 0052 0E4A     		ldr	r2, .L104+4
 795 0054 0093     		str	r3, [sp]
 796 0056 0E49     		ldr	r1, .L104+8
 797 0058 0E48     		ldr	r0, .L104+12
 798 005a 40F26B23 		movw	r3, #619
 799 005e FFF7FEFF 		bl	chprintf.constprop.4
 800              	.LVL66:
 801              	.LBB117:
 802              	.LBB118:
 803              		.loc 3 416 0 discriminator 1
 804 0062 0A48     		ldr	r0, .L104+4
 805 0064 FFF7FEFF 		bl	chSysHalt
 806              	.LVL67:
 807 0068 AA8D     		ldrh	r2, [r5, #44]
 808 006a D6E7     		b	.L96
 809              	.LVL68:
 810              	.L101:
 811              	.LBE118:
 812              	.LBE117:
 813              		.loc 1 616 0 discriminator 1
 814 006c 064B     		ldr	r3, .L104
 815 006e 0093     		str	r3, [sp]
 816 0070 0749     		ldr	r1, .L104+8
 817              	.LVL69:
 818 0072 094A     		ldr	r2, .L104+16
 819 0074 0748     		ldr	r0, .L104+12
 820              	.LVL70:
 821 0076 40F26923 		movw	r3, #617
 822 007a FFF7FEFF 		bl	chprintf.constprop.4
 823              	.LVL71:
 824              	.LBB119:
 825              	.LBB120:
 826              		.loc 3 416 0 discriminator 1
 827 007e 0648     		ldr	r0, .L104+16
 828 0080 FFF7FEFF 		bl	chSysHalt
 829              	.LVL72:
 830 0084 C3E7     		b	.L95
 831              	.L105:
 832 0086 00BF     		.align	2
 833              	.L104:
 834 0088 50000000 		.word	.LC2
 835 008c DC000000 		.word	.LC6
 836 0090 00000000 		.word	.LC0
 837 0094 00000000 		.word	itm_port
 838 0098 B4000000 		.word	.LC5
 839              	.LBE120:
 840              	.LBE119:
 841              		.cfi_endproc
 842              	.LFE271:
 843              		.size	tcp_recved, .-tcp_recved
ARM GAS  C:\Users\jo\AppData\Local\Temp\ccQTqoh0.s 			page 16


 844 009c AFF30080 		.section	.text.tcp_seg_free,"ax",%progbits
 845              		.align	2
 846              		.p2align 4,,15
 847              		.global	tcp_seg_free
 848              		.thumb
 849              		.thumb_func
 850              		.type	tcp_seg_free, %function
 851              	tcp_seg_free:
 852              	.LFB278:
 853              		.loc 1 1144 0
 854              		.cfi_startproc
 855              		@ args = 0, pretend = 0, frame = 0
 856              		@ frame_needed = 0, uses_anonymous_args = 0
 857              	.LVL73:
 858              		.loc 1 1145 0
 859 0000 50B1     		cbz	r0, .L113
 860              		.loc 1 1144 0
 861 0002 10B5     		push	{r4, lr}
 862              		.cfi_def_cfa_offset 8
 863              		.cfi_offset 4, -8
 864              		.cfi_offset 14, -4
 865 0004 0446     		mov	r4, r0
 866              		.loc 1 1146 0
 867 0006 4068     		ldr	r0, [r0, #4]
 868              	.LVL74:
 869 0008 08B1     		cbz	r0, .L108
 870              		.loc 1 1147 0
 871 000a FFF7FEFF 		bl	pbuf_free
 872              	.LVL75:
 873              	.L108:
 874              		.loc 1 1152 0
 875 000e 2046     		mov	r0, r4
 876              		.loc 1 1154 0
 877 0010 BDE81040 		pop	{r4, lr}
 878              		.cfi_restore 14
 879              		.cfi_restore 4
 880              		.cfi_def_cfa_offset 0
 881              	.LVL76:
 882              		.loc 1 1152 0
 883 0014 FFF7FEBF 		b	free
 884              	.LVL77:
 885              	.L113:
 886 0018 7047     		bx	lr
 887              		.cfi_endproc
 888              	.LFE278:
 889              		.size	tcp_seg_free, .-tcp_seg_free
 890 001a 00BFAFF3 		.section	.text.tcp_segs_free,"ax",%progbits
 890      0080
 891              		.align	2
 892              		.p2align 4,,15
 893              		.global	tcp_segs_free
 894              		.thumb
 895              		.thumb_func
 896              		.type	tcp_segs_free, %function
 897              	tcp_segs_free:
 898              	.LFB277:
 899              		.loc 1 1129 0
ARM GAS  C:\Users\jo\AppData\Local\Temp\ccQTqoh0.s 			page 17


 900              		.cfi_startproc
 901              		@ args = 0, pretend = 0, frame = 0
 902              		@ frame_needed = 0, uses_anonymous_args = 0
 903              	.LVL78:
 904              		.loc 1 1130 0
 905 0000 38B1     		cbz	r0, .L120
 906              		.loc 1 1129 0
 907 0002 10B5     		push	{r4, lr}
 908              		.cfi_def_cfa_offset 8
 909              		.cfi_offset 4, -8
 910              		.cfi_offset 14, -4
 911              	.L116:
 912              	.LBB121:
 913              		.loc 1 1131 0
 914 0004 0468     		ldr	r4, [r0]
 915              	.LVL79:
 916              		.loc 1 1132 0
 917 0006 FFF7FEFF 		bl	tcp_seg_free
 918              	.LVL80:
 919              	.LBE121:
 920              		.loc 1 1130 0
 921 000a 2046     		mov	r0, r4
 922 000c 002C     		cmp	r4, #0
 923 000e F9D1     		bne	.L116
 924 0010 10BD     		pop	{r4, pc}
 925              	.LVL81:
 926              	.L120:
 927              		.cfi_def_cfa_offset 0
 928              		.cfi_restore 4
 929              		.cfi_restore 14
 930 0012 7047     		bx	lr
 931              		.cfi_endproc
 932              	.LFE277:
 933              		.size	tcp_segs_free, .-tcp_segs_free
 934 0014 AFF30080 		.section	.text.tcp_setprio,"ax",%progbits
 934      AFF30080 
 934      AFF30080 
 935              		.align	2
 936              		.p2align 4,,15
 937              		.global	tcp_setprio
 938              		.thumb
 939              		.thumb_func
 940              		.type	tcp_setprio, %function
 941              	tcp_setprio:
 942              	.LFB279:
 943              		.loc 1 1164 0
 944              		.cfi_startproc
 945              		@ args = 0, pretend = 0, frame = 0
 946              		@ frame_needed = 0, uses_anonymous_args = 0
 947              		@ link register save eliminated.
 948              	.LVL82:
 949              		.loc 1 1165 0
 950 0000 4176     		strb	r1, [r0, #25]
 951 0002 7047     		bx	lr
 952              		.cfi_endproc
 953              	.LFE279:
 954              		.size	tcp_setprio, .-tcp_setprio
ARM GAS  C:\Users\jo\AppData\Local\Temp\ccQTqoh0.s 			page 18


 955 0004 AFF30080 		.section	.text.tcp_seg_copy,"ax",%progbits
 955      AFF30080 
 955      AFF30080 
 956              		.align	2
 957              		.p2align 4,,15
 958              		.global	tcp_seg_copy
 959              		.thumb
 960              		.thumb_func
 961              		.type	tcp_seg_copy, %function
 962              	tcp_seg_copy:
 963              	.LFB280:
 964              		.loc 1 1178 0
 965              		.cfi_startproc
 966              		@ args = 0, pretend = 0, frame = 0
 967              		@ frame_needed = 0, uses_anonymous_args = 0
 968              	.LVL83:
 969              		.loc 1 1181 0
 970 0000 0A4B     		ldr	r3, .L128
 971              		.loc 1 1178 0
 972 0002 70B5     		push	{r4, r5, r6, lr}
 973              		.cfi_def_cfa_offset 16
 974              		.cfi_offset 4, -16
 975              		.cfi_offset 5, -12
 976              		.cfi_offset 6, -8
 977              		.cfi_offset 14, -4
 978              		.loc 1 1178 0
 979 0004 0546     		mov	r5, r0
 980              		.loc 1 1181 0
 981 0006 D888     		ldrh	r0, [r3, #6]
 982              	.LVL84:
 983 0008 FFF7FEFF 		bl	malloc
 984              	.LVL85:
 985              		.loc 1 1182 0
 986 000c 0646     		mov	r6, r0
 987 000e 50B1     		cbz	r0, .L123
 988              		.loc 1 1185 0
 989 0010 2868     		ldr	r0, [r5]	@ unaligned
 990              	.LVL86:
 991 0012 6968     		ldr	r1, [r5, #4]	@ unaligned
 992 0014 AA68     		ldr	r2, [r5, #8]	@ unaligned
 993 0016 EB68     		ldr	r3, [r5, #12]	@ unaligned
 994 0018 3446     		mov	r4, r6
 995 001a 0FC4     		stmia	r4!, {r0, r1, r2, r3}
 996 001c 2869     		ldr	r0, [r5, #16]	@ unaligned
 997 001e 2060     		str	r0, [r4]	@ unaligned
 998              		.loc 1 1186 0
 999 0020 7068     		ldr	r0, [r6, #4]
 1000 0022 FFF7FEFF 		bl	pbuf_ref
 1001              	.LVL87:
 1002              	.L123:
 1003              		.loc 1 1188 0
 1004 0026 3046     		mov	r0, r6
 1005 0028 70BD     		pop	{r4, r5, r6, pc}
 1006              	.LVL88:
 1007              	.L129:
 1008 002a 00BF     		.align	2
 1009              	.L128:
ARM GAS  C:\Users\jo\AppData\Local\Temp\ccQTqoh0.s 			page 19


 1010 002c 00000000 		.word	memp_sizes
 1011              		.cfi_endproc
 1012              	.LFE280:
 1013              		.size	tcp_seg_copy, .-tcp_seg_copy
 1014              		.section	.text.tcp_arg,"ax",%progbits
 1015              		.align	2
 1016              		.p2align 4,,15
 1017              		.global	tcp_arg
 1018              		.thumb
 1019              		.thumb_func
 1020              		.type	tcp_arg, %function
 1021              	tcp_arg:
 1022              	.LFB286:
 1023              		.loc 1 1377 0
 1024              		.cfi_startproc
 1025              		@ args = 0, pretend = 0, frame = 0
 1026              		@ frame_needed = 0, uses_anonymous_args = 0
 1027              		@ link register save eliminated.
 1028              	.LVL89:
 1029              		.loc 1 1380 0
 1030 0000 0161     		str	r1, [r0, #16]
 1031 0002 7047     		bx	lr
 1032              		.cfi_endproc
 1033              	.LFE286:
 1034              		.size	tcp_arg, .-tcp_arg
 1035 0004 AFF30080 		.section	.text.tcp_recv,"ax",%progbits
 1035      AFF30080 
 1035      AFF30080 
 1036              		.align	2
 1037              		.p2align 4,,15
 1038              		.global	tcp_recv
 1039              		.thumb
 1040              		.thumb_func
 1041              		.type	tcp_recv, %function
 1042              	tcp_recv:
 1043              	.LFB287:
 1044              		.loc 1 1393 0
 1045              		.cfi_startproc
 1046              		@ args = 0, pretend = 0, frame = 0
 1047              		@ frame_needed = 0, uses_anonymous_args = 0
 1048              	.LVL90:
 1049 0000 30B5     		push	{r4, r5, lr}
 1050              		.cfi_def_cfa_offset 12
 1051              		.cfi_offset 4, -12
 1052              		.cfi_offset 5, -8
 1053              		.cfi_offset 14, -4
 1054              		.loc 1 1394 0
 1055 0002 037E     		ldrb	r3, [r0, #24]	@ zero_extendqisi2
 1056 0004 012B     		cmp	r3, #1
 1057              		.loc 1 1393 0
 1058 0006 83B0     		sub	sp, sp, #12
 1059              		.cfi_def_cfa_offset 24
 1060              		.loc 1 1393 0
 1061 0008 0446     		mov	r4, r0
 1062 000a 0D46     		mov	r5, r1
 1063              		.loc 1 1394 0
 1064 000c 03D0     		beq	.L134
ARM GAS  C:\Users\jo\AppData\Local\Temp\ccQTqoh0.s 			page 20


 1065              		.loc 1 1395 0
 1066 000e C4F88050 		str	r5, [r4, #128]
 1067              		.loc 1 1396 0
 1068 0012 03B0     		add	sp, sp, #12
 1069              		.cfi_remember_state
 1070              		.cfi_def_cfa_offset 12
 1071              		@ sp needed
 1072 0014 30BD     		pop	{r4, r5, pc}
 1073              	.L134:
 1074              		.cfi_restore_state
 1075              		.loc 1 1394 0 discriminator 1
 1076 0016 084B     		ldr	r3, .L135
 1077 0018 0093     		str	r3, [sp]
 1078 001a 0849     		ldr	r1, .L135+4
 1079              	.LVL91:
 1080 001c 084A     		ldr	r2, .L135+8
 1081 001e 0948     		ldr	r0, .L135+12
 1082              	.LVL92:
 1083 0020 40F27253 		movw	r3, #1394
 1084 0024 FFF7FEFF 		bl	chprintf.constprop.4
 1085              	.LVL93:
 1086              	.LBB122:
 1087              	.LBB123:
 1088              		.loc 3 416 0 discriminator 1
 1089 0028 0548     		ldr	r0, .L135+8
 1090 002a FFF7FEFF 		bl	chSysHalt
 1091              	.LVL94:
 1092              	.LBE123:
 1093              	.LBE122:
 1094              		.loc 1 1395 0 discriminator 1
 1095 002e C4F88050 		str	r5, [r4, #128]
 1096              		.loc 1 1396 0 discriminator 1
 1097 0032 03B0     		add	sp, sp, #12
 1098              		.cfi_def_cfa_offset 12
 1099              		@ sp needed
 1100 0034 30BD     		pop	{r4, r5, pc}
 1101              	.LVL95:
 1102              	.L136:
 1103 0036 00BF     		.align	2
 1104              	.L135:
 1105 0038 50000000 		.word	.LC2
 1106 003c 00000000 		.word	.LC0
 1107 0040 00010000 		.word	.LC7
 1108 0044 00000000 		.word	itm_port
 1109              		.cfi_endproc
 1110              	.LFE287:
 1111              		.size	tcp_recv, .-tcp_recv
 1112 0048 AFF30080 		.section	.text.tcp_sent,"ax",%progbits
 1112      AFF30080 
 1113              		.align	2
 1114              		.p2align 4,,15
 1115              		.global	tcp_sent
 1116              		.thumb
 1117              		.thumb_func
 1118              		.type	tcp_sent, %function
 1119              	tcp_sent:
 1120              	.LFB288:
ARM GAS  C:\Users\jo\AppData\Local\Temp\ccQTqoh0.s 			page 21


 1121              		.loc 1 1407 0
 1122              		.cfi_startproc
 1123              		@ args = 0, pretend = 0, frame = 0
 1124              		@ frame_needed = 0, uses_anonymous_args = 0
 1125              	.LVL96:
 1126 0000 30B5     		push	{r4, r5, lr}
 1127              		.cfi_def_cfa_offset 12
 1128              		.cfi_offset 4, -12
 1129              		.cfi_offset 5, -8
 1130              		.cfi_offset 14, -4
 1131              		.loc 1 1408 0
 1132 0002 037E     		ldrb	r3, [r0, #24]	@ zero_extendqisi2
 1133 0004 012B     		cmp	r3, #1
 1134              		.loc 1 1407 0
 1135 0006 83B0     		sub	sp, sp, #12
 1136              		.cfi_def_cfa_offset 24
 1137              		.loc 1 1407 0
 1138 0008 0446     		mov	r4, r0
 1139 000a 0D46     		mov	r5, r1
 1140              		.loc 1 1408 0
 1141 000c 02D0     		beq	.L140
 1142              		.loc 1 1409 0
 1143 000e E567     		str	r5, [r4, #124]
 1144              		.loc 1 1410 0
 1145 0010 03B0     		add	sp, sp, #12
 1146              		.cfi_remember_state
 1147              		.cfi_def_cfa_offset 12
 1148              		@ sp needed
 1149 0012 30BD     		pop	{r4, r5, pc}
 1150              	.L140:
 1151              		.cfi_restore_state
 1152              		.loc 1 1408 0 discriminator 1
 1153 0014 074B     		ldr	r3, .L141
 1154 0016 0093     		str	r3, [sp]
 1155 0018 0749     		ldr	r1, .L141+4
 1156              	.LVL97:
 1157 001a 084A     		ldr	r2, .L141+8
 1158 001c 0848     		ldr	r0, .L141+12
 1159              	.LVL98:
 1160 001e 4FF4B063 		mov	r3, #1408
 1161 0022 FFF7FEFF 		bl	chprintf.constprop.4
 1162              	.LVL99:
 1163              	.LBB124:
 1164              	.LBB125:
 1165              		.loc 3 416 0 discriminator 1
 1166 0026 0548     		ldr	r0, .L141+8
 1167 0028 FFF7FEFF 		bl	chSysHalt
 1168              	.LVL100:
 1169              	.LBE125:
 1170              	.LBE124:
 1171              		.loc 1 1409 0 discriminator 1
 1172 002c E567     		str	r5, [r4, #124]
 1173              		.loc 1 1410 0 discriminator 1
 1174 002e 03B0     		add	sp, sp, #12
 1175              		.cfi_def_cfa_offset 12
 1176              		@ sp needed
 1177 0030 30BD     		pop	{r4, r5, pc}
ARM GAS  C:\Users\jo\AppData\Local\Temp\ccQTqoh0.s 			page 22


 1178              	.LVL101:
 1179              	.L142:
 1180 0032 00BF     		.align	2
 1181              	.L141:
 1182 0034 50000000 		.word	.LC2
 1183 0038 00000000 		.word	.LC0
 1184 003c 28010000 		.word	.LC8
 1185 0040 00000000 		.word	itm_port
 1186              		.cfi_endproc
 1187              	.LFE288:
 1188              		.size	tcp_sent, .-tcp_sent
 1189 0044 AFF30080 		.section	.text.tcp_err,"ax",%progbits
 1189      AFF30080 
 1189      AFF30080 
 1190              		.align	2
 1191              		.p2align 4,,15
 1192              		.global	tcp_err
 1193              		.thumb
 1194              		.thumb_func
 1195              		.type	tcp_err, %function
 1196              	tcp_err:
 1197              	.LFB289:
 1198              		.loc 1 1422 0
 1199              		.cfi_startproc
 1200              		@ args = 0, pretend = 0, frame = 0
 1201              		@ frame_needed = 0, uses_anonymous_args = 0
 1202              	.LVL102:
 1203 0000 30B5     		push	{r4, r5, lr}
 1204              		.cfi_def_cfa_offset 12
 1205              		.cfi_offset 4, -12
 1206              		.cfi_offset 5, -8
 1207              		.cfi_offset 14, -4
 1208              		.loc 1 1423 0
 1209 0002 037E     		ldrb	r3, [r0, #24]	@ zero_extendqisi2
 1210 0004 012B     		cmp	r3, #1
 1211              		.loc 1 1422 0
 1212 0006 83B0     		sub	sp, sp, #12
 1213              		.cfi_def_cfa_offset 24
 1214              		.loc 1 1422 0
 1215 0008 0446     		mov	r4, r0
 1216 000a 0D46     		mov	r5, r1
 1217              		.loc 1 1423 0
 1218 000c 03D0     		beq	.L146
 1219              		.loc 1 1424 0
 1220 000e C4F88C50 		str	r5, [r4, #140]
 1221              		.loc 1 1425 0
 1222 0012 03B0     		add	sp, sp, #12
 1223              		.cfi_remember_state
 1224              		.cfi_def_cfa_offset 12
 1225              		@ sp needed
 1226 0014 30BD     		pop	{r4, r5, pc}
 1227              	.L146:
 1228              		.cfi_restore_state
 1229              		.loc 1 1423 0 discriminator 1
 1230 0016 084B     		ldr	r3, .L147
 1231 0018 0093     		str	r3, [sp]
 1232 001a 0849     		ldr	r1, .L147+4
ARM GAS  C:\Users\jo\AppData\Local\Temp\ccQTqoh0.s 			page 23


 1233              	.LVL103:
 1234 001c 084A     		ldr	r2, .L147+8
 1235 001e 0948     		ldr	r0, .L147+12
 1236              	.LVL104:
 1237 0020 40F28F53 		movw	r3, #1423
 1238 0024 FFF7FEFF 		bl	chprintf.constprop.4
 1239              	.LVL105:
 1240              	.LBB126:
 1241              	.LBB127:
 1242              		.loc 3 416 0 discriminator 1
 1243 0028 0548     		ldr	r0, .L147+8
 1244 002a FFF7FEFF 		bl	chSysHalt
 1245              	.LVL106:
 1246              	.LBE127:
 1247              	.LBE126:
 1248              		.loc 1 1424 0 discriminator 1
 1249 002e C4F88C50 		str	r5, [r4, #140]
 1250              		.loc 1 1425 0 discriminator 1
 1251 0032 03B0     		add	sp, sp, #12
 1252              		.cfi_def_cfa_offset 12
 1253              		@ sp needed
 1254 0034 30BD     		pop	{r4, r5, pc}
 1255              	.LVL107:
 1256              	.L148:
 1257 0036 00BF     		.align	2
 1258              	.L147:
 1259 0038 50000000 		.word	.LC2
 1260 003c 00000000 		.word	.LC0
 1261 0040 50010000 		.word	.LC9
 1262 0044 00000000 		.word	itm_port
 1263              		.cfi_endproc
 1264              	.LFE289:
 1265              		.size	tcp_err, .-tcp_err
 1266 0048 AFF30080 		.section	.text.tcp_accept,"ax",%progbits
 1266      AFF30080 
 1267              		.align	2
 1268              		.p2align 4,,15
 1269              		.global	tcp_accept
 1270              		.thumb
 1271              		.thumb_func
 1272              		.type	tcp_accept, %function
 1273              	tcp_accept:
 1274              	.LFB290:
 1275              		.loc 1 1437 0
 1276              		.cfi_startproc
 1277              		@ args = 0, pretend = 0, frame = 0
 1278              		@ frame_needed = 0, uses_anonymous_args = 0
 1279              		@ link register save eliminated.
 1280              	.LVL108:
 1281              		.loc 1 1440 0
 1282 0000 4161     		str	r1, [r0, #20]
 1283 0002 7047     		bx	lr
 1284              		.cfi_endproc
 1285              	.LFE290:
 1286              		.size	tcp_accept, .-tcp_accept
 1287 0004 AFF30080 		.section	.text.tcp_poll,"ax",%progbits
 1287      AFF30080 
ARM GAS  C:\Users\jo\AppData\Local\Temp\ccQTqoh0.s 			page 24


 1287      AFF30080 
 1288              		.align	2
 1289              		.p2align 4,,15
 1290              		.global	tcp_poll
 1291              		.thumb
 1292              		.thumb_func
 1293              		.type	tcp_poll, %function
 1294              	tcp_poll:
 1295              	.LFB291:
 1296              		.loc 1 1453 0
 1297              		.cfi_startproc
 1298              		@ args = 0, pretend = 0, frame = 0
 1299              		@ frame_needed = 0, uses_anonymous_args = 0
 1300              	.LVL109:
 1301 0000 70B5     		push	{r4, r5, r6, lr}
 1302              		.cfi_def_cfa_offset 16
 1303              		.cfi_offset 4, -16
 1304              		.cfi_offset 5, -12
 1305              		.cfi_offset 6, -8
 1306              		.cfi_offset 14, -4
 1307              		.loc 1 1454 0
 1308 0002 037E     		ldrb	r3, [r0, #24]	@ zero_extendqisi2
 1309 0004 012B     		cmp	r3, #1
 1310              		.loc 1 1453 0
 1311 0006 82B0     		sub	sp, sp, #8
 1312              		.cfi_def_cfa_offset 24
 1313              		.loc 1 1453 0
 1314 0008 0446     		mov	r4, r0
 1315 000a 0E46     		mov	r6, r1
 1316 000c 1546     		mov	r5, r2
 1317              		.loc 1 1454 0
 1318 000e 05D0     		beq	.L153
 1319              		.loc 1 1456 0
 1320 0010 C4F88860 		str	r6, [r4, #136]
 1321              		.loc 1 1460 0
 1322 0014 84F82050 		strb	r5, [r4, #32]
 1323              		.loc 1 1461 0
 1324 0018 02B0     		add	sp, sp, #8
 1325              		.cfi_remember_state
 1326              		.cfi_def_cfa_offset 16
 1327              		@ sp needed
 1328 001a 70BD     		pop	{r4, r5, r6, pc}
 1329              	.L153:
 1330              		.cfi_restore_state
 1331              		.loc 1 1454 0 discriminator 1
 1332 001c 084B     		ldr	r3, .L154
 1333 001e 0093     		str	r3, [sp]
 1334 0020 0849     		ldr	r1, .L154+4
 1335              	.LVL110:
 1336 0022 094A     		ldr	r2, .L154+8
 1337              	.LVL111:
 1338 0024 0948     		ldr	r0, .L154+12
 1339              	.LVL112:
 1340 0026 40F2AE53 		movw	r3, #1454
 1341 002a FFF7FEFF 		bl	chprintf.constprop.4
 1342              	.LVL113:
 1343              	.LBB128:
ARM GAS  C:\Users\jo\AppData\Local\Temp\ccQTqoh0.s 			page 25


 1344              	.LBB129:
 1345              		.loc 3 416 0 discriminator 1
 1346 002e 0648     		ldr	r0, .L154+8
 1347 0030 FFF7FEFF 		bl	chSysHalt
 1348              	.LVL114:
 1349              	.LBE129:
 1350              	.LBE128:
 1351              		.loc 1 1456 0 discriminator 1
 1352 0034 C4F88860 		str	r6, [r4, #136]
 1353              		.loc 1 1460 0 discriminator 1
 1354 0038 84F82050 		strb	r5, [r4, #32]
 1355              		.loc 1 1461 0 discriminator 1
 1356 003c 02B0     		add	sp, sp, #8
 1357              		.cfi_def_cfa_offset 16
 1358              		@ sp needed
 1359 003e 70BD     		pop	{r4, r5, r6, pc}
 1360              	.LVL115:
 1361              	.L155:
 1362              		.align	2
 1363              	.L154:
 1364 0040 50000000 		.word	.LC2
 1365 0044 00000000 		.word	.LC0
 1366 0048 78010000 		.word	.LC10
 1367 004c 00000000 		.word	itm_port
 1368              		.cfi_endproc
 1369              	.LFE291:
 1370              		.size	tcp_poll, .-tcp_poll
 1371              		.section	.text.tcp_pcb_purge,"ax",%progbits
 1372              		.align	2
 1373              		.p2align 4,,15
 1374              		.global	tcp_pcb_purge
 1375              		.thumb
 1376              		.thumb_func
 1377              		.type	tcp_pcb_purge, %function
 1378              	tcp_pcb_purge:
 1379              	.LFB292:
 1380              		.loc 1 1471 0
 1381              		.cfi_startproc
 1382              		@ args = 0, pretend = 0, frame = 0
 1383              		@ frame_needed = 0, uses_anonymous_args = 0
 1384              	.LVL116:
 1385 0000 38B5     		push	{r3, r4, r5, lr}
 1386              		.cfi_def_cfa_offset 16
 1387              		.cfi_offset 3, -16
 1388              		.cfi_offset 4, -12
 1389              		.cfi_offset 5, -8
 1390              		.cfi_offset 14, -4
 1391              		.loc 1 1472 0
 1392 0002 037E     		ldrb	r3, [r0, #24]	@ zero_extendqisi2
 1393 0004 012B     		cmp	r3, #1
 1394 0006 2BD9     		bls	.L156
 1395              		.loc 1 1472 0 is_stmt 0 discriminator 1
 1396 0008 0A2B     		cmp	r3, #10
 1397 000a 29D0     		beq	.L156
 1398              	.LVL117:
 1399 000c 0546     		mov	r5, r0
 1400              	.LBB141:
ARM GAS  C:\Users\jo\AppData\Local\Temp\ccQTqoh0.s 			page 26


 1401              	.LBB142:
 1402              		.loc 1 1499 0 is_stmt 1
 1403 000e 806F     		ldr	r0, [r0, #120]
 1404              	.LVL118:
 1405 0010 18B1     		cbz	r0, .L158
 1406              		.loc 1 1501 0
 1407 0012 FFF7FEFF 		bl	pbuf_free
 1408              	.LVL119:
 1409              		.loc 1 1502 0
 1410 0016 0023     		movs	r3, #0
 1411 0018 AB67     		str	r3, [r5, #120]
 1412              	.L158:
 1413              		.loc 1 1514 0
 1414 001a 686F     		ldr	r0, [r5, #116]
 1415              	.LVL120:
 1416              	.LBB143:
 1417              	.LBB144:
 1418              		.loc 1 1130 0
 1419 001c 28B1     		cbz	r0, .L163
 1420              	.L162:
 1421              	.LBB145:
 1422              		.loc 1 1131 0
 1423 001e 0468     		ldr	r4, [r0]
 1424              	.LVL121:
 1425              		.loc 1 1132 0
 1426 0020 FFF7FEFF 		bl	tcp_seg_free
 1427              	.LVL122:
 1428              	.LBE145:
 1429              		.loc 1 1130 0
 1430 0024 2046     		mov	r0, r4
 1431 0026 002C     		cmp	r4, #0
 1432 0028 F9D1     		bne	.L162
 1433              	.LVL123:
 1434              	.L163:
 1435              	.LBE144:
 1436              	.LBE143:
 1437              		.loc 1 1522 0
 1438 002a E86E     		ldr	r0, [r5, #108]
 1439              	.LVL124:
 1440              		.loc 1 1515 0
 1441 002c 0022     		movs	r2, #0
 1442              		.loc 1 1520 0
 1443 002e 4FF6FF73 		movw	r3, #65535
 1444              		.loc 1 1515 0
 1445 0032 6A67     		str	r2, [r5, #116]
 1446              		.loc 1 1520 0
 1447 0034 AB86     		strh	r3, [r5, #52]	@ movhi
 1448              	.LBB146:
 1449              	.LBB147:
 1450              		.loc 1 1130 0
 1451 0036 28B1     		cbz	r0, .L161
 1452              	.L166:
 1453              	.LBB148:
 1454              		.loc 1 1131 0
 1455 0038 0468     		ldr	r4, [r0]
 1456              	.LVL125:
 1457              		.loc 1 1132 0
ARM GAS  C:\Users\jo\AppData\Local\Temp\ccQTqoh0.s 			page 27


 1458 003a FFF7FEFF 		bl	tcp_seg_free
 1459              	.LVL126:
 1460              	.LBE148:
 1461              		.loc 1 1130 0
 1462 003e 2046     		mov	r0, r4
 1463 0040 002C     		cmp	r4, #0
 1464 0042 F9D1     		bne	.L166
 1465              	.LVL127:
 1466              	.L161:
 1467              	.LBE147:
 1468              	.LBE146:
 1469              		.loc 1 1523 0
 1470 0044 286F     		ldr	r0, [r5, #112]
 1471              	.LVL128:
 1472              	.LBB149:
 1473              	.LBB150:
 1474              		.loc 1 1130 0
 1475 0046 28B1     		cbz	r0, .L165
 1476              	.L167:
 1477              	.LBB151:
 1478              		.loc 1 1131 0
 1479 0048 0468     		ldr	r4, [r0]
 1480              	.LVL129:
 1481              		.loc 1 1132 0
 1482 004a FFF7FEFF 		bl	tcp_seg_free
 1483              	.LVL130:
 1484              	.LBE151:
 1485              		.loc 1 1130 0
 1486 004e 2046     		mov	r0, r4
 1487 0050 002C     		cmp	r4, #0
 1488 0052 F9D1     		bne	.L167
 1489              	.LVL131:
 1490              	.L165:
 1491              	.LBE150:
 1492              	.LBE149:
 1493              		.loc 1 1524 0
 1494 0054 0023     		movs	r3, #0
 1495 0056 EB66     		str	r3, [r5, #108]
 1496 0058 2B67     		str	r3, [r5, #112]
 1497              		.loc 1 1526 0
 1498 005a A5F86A30 		strh	r3, [r5, #106]	@ movhi
 1499 005e 38BD     		pop	{r3, r4, r5, pc}
 1500              	.LVL132:
 1501              	.L156:
 1502 0060 38BD     		pop	{r3, r4, r5, pc}
 1503              	.LBE142:
 1504              	.LBE141:
 1505              		.cfi_endproc
 1506              	.LFE292:
 1507              		.size	tcp_pcb_purge, .-tcp_pcb_purge
 1508 0062 00BFAFF3 		.section	.text.tcp_slowtmr,"ax",%progbits
 1508      0080AFF3 
 1508      0080AFF3 
 1508      0080
 1509              		.align	2
 1510              		.p2align 4,,15
 1511              		.global	tcp_slowtmr
ARM GAS  C:\Users\jo\AppData\Local\Temp\ccQTqoh0.s 			page 28


 1512              		.thumb
 1513              		.thumb_func
 1514              		.type	tcp_slowtmr, %function
 1515              	tcp_slowtmr:
 1516              	.LFB274:
 1517              		.loc 1 789 0
 1518              		.cfi_startproc
 1519              		@ args = 0, pretend = 0, frame = 8
 1520              		@ frame_needed = 0, uses_anonymous_args = 0
 1521              	.LVL133:
 1522 0000 2DE9F04F 		push	{r4, r5, r6, r7, r8, r9, r10, fp, lr}
 1523              		.cfi_def_cfa_offset 36
 1524              		.cfi_offset 4, -36
 1525              		.cfi_offset 5, -32
 1526              		.cfi_offset 6, -28
 1527              		.cfi_offset 7, -24
 1528              		.cfi_offset 8, -20
 1529              		.cfi_offset 9, -16
 1530              		.cfi_offset 10, -12
 1531              		.cfi_offset 11, -8
 1532              		.cfi_offset 14, -4
 1533              		.loc 1 798 0
 1534 0004 B14C     		ldr	r4, .L285
 1535              		.loc 1 799 0
 1536 0006 B24D     		ldr	r5, .L285+4
 1537              		.loc 1 798 0
 1538 0008 2268     		ldr	r2, [r4]
 1539              		.loc 1 799 0
 1540 000a 2B78     		ldrb	r3, [r5]	@ zero_extendqisi2
 1541 000c DFF8E8B2 		ldr	fp, .L285+44
 1542              		.loc 1 798 0
 1543 0010 0132     		adds	r2, r2, #1
 1544              		.loc 1 799 0
 1545 0012 0133     		adds	r3, r3, #1
 1546              		.loc 1 789 0
 1547 0014 85B0     		sub	sp, sp, #20
 1548              		.cfi_def_cfa_offset 56
 1549              		.loc 1 798 0
 1550 0016 2260     		str	r2, [r4]
 1551              		.loc 1 799 0
 1552 0018 2B70     		strb	r3, [r5]
 1553              	.LVL134:
 1554              	.L179:
 1555              		.loc 1 804 0
 1556 001a DBF80070 		ldr	r7, [fp]
 1557              	.LVL135:
 1558              		.loc 1 808 0
 1559 001e 002F     		cmp	r7, #0
 1560 0020 00F08580 		beq	.L217
 1561 0024 0026     		movs	r6, #0
 1562              	.LVL136:
 1563              	.L216:
 1564              		.loc 1 810 0
 1565 0026 3B7E     		ldrb	r3, [r7, #24]	@ zero_extendqisi2
 1566 0028 002B     		cmp	r3, #0
 1567 002a 00F00481 		beq	.L272
 1568              		.loc 1 811 0
ARM GAS  C:\Users\jo\AppData\Local\Temp\ccQTqoh0.s 			page 29


 1569 002e 012B     		cmp	r3, #1
 1570 0030 00F01181 		beq	.L273
 1571              	.L184:
 1572              		.loc 1 812 0
 1573 0034 0A2B     		cmp	r3, #10
 1574 0036 00F01E81 		beq	.L274
 1575              	.L185:
 1576              		.loc 1 813 0
 1577 003a 2B78     		ldrb	r3, [r5]	@ zero_extendqisi2
 1578 003c 97F82120 		ldrb	r2, [r7, #33]	@ zero_extendqisi2
 1579 0040 9A42     		cmp	r2, r3
 1580 0042 00F02A81 		beq	.L275
 1581              	.L186:
 1582              		.loc 1 823 0
 1583 0046 3A7E     		ldrb	r2, [r7, #24]	@ zero_extendqisi2
 1584              		.loc 1 818 0
 1585 0048 87F82130 		strb	r3, [r7, #33]
 1586              	.LVL137:
 1587              		.loc 1 823 0
 1588 004c 022A     		cmp	r2, #2
 1589 004e 97F84630 		ldrb	r3, [r7, #70]	@ zero_extendqisi2
 1590 0052 00F08B81 		beq	.L276
 1591              		.loc 1 827 0
 1592 0056 0C2B     		cmp	r3, #12
 1593 0058 00F09281 		beq	.L230
 1594              	.L228:
 1595              		.loc 1 831 0
 1596 005c 97F89510 		ldrb	r1, [r7, #149]	@ zero_extendqisi2
 1597 0060 0029     		cmp	r1, #0
 1598 0062 00F04D81 		beq	.L192
 1599              		.loc 1 835 0
 1600 0066 9B48     		ldr	r0, .L285+8
 1601              		.loc 1 834 0
 1602 0068 97F89430 		ldrb	r3, [r7, #148]	@ zero_extendqisi2
 1603              		.loc 1 835 0
 1604 006c 0844     		add	r0, r0, r1
 1605              		.loc 1 834 0
 1606 006e 0133     		adds	r3, r3, #1
 1607              		.loc 1 835 0
 1608 0070 10F8010C 		ldrb	r0, [r0, #-1]	@ zero_extendqisi2
 1609              		.loc 1 834 0
 1610 0074 DBB2     		uxtb	r3, r3
 1611              		.loc 1 835 0
 1612 0076 9842     		cmp	r0, r3
 1613              		.loc 1 834 0
 1614 0078 87F89430 		strb	r3, [r7, #148]
 1615              		.loc 1 835 0
 1616 007c 00F21281 		bhi	.L233
 1617              		.loc 1 837 0
 1618 0080 0629     		cmp	r1, #6
 1619              		.loc 1 836 0
 1620 0082 4FF00003 		mov	r3, #0
 1621              		.loc 1 838 0
 1622 0086 98BF     		it	ls
 1623 0088 0131     		addls	r1, r1, #1
 1624              		.loc 1 836 0
 1625 008a 87F89430 		strb	r3, [r7, #148]
ARM GAS  C:\Users\jo\AppData\Local\Temp\ccQTqoh0.s 			page 30


 1626              		.loc 1 838 0
 1627 008e 98BF     		it	ls
 1628 0090 87F89510 		strbls	r1, [r7, #149]
 1629              		.loc 1 840 0
 1630 0094 3846     		mov	r0, r7
 1631 0096 FFF7FEFF 		bl	tcp_zero_window_probe
 1632              	.LVL138:
 1633 009a 3A7E     		ldrb	r2, [r7, #24]	@ zero_extendqisi2
 1634              		.loc 1 820 0
 1635 009c 4FF00008 		mov	r8, #0
 1636              	.L191:
 1637              	.LVL139:
 1638              		.loc 1 881 0
 1639 00a0 062A     		cmp	r2, #6
 1640 00a2 00F00481 		beq	.L277
 1641              	.L197:
 1642              		.loc 1 895 0
 1643 00a6 3B7A     		ldrb	r3, [r7, #8]	@ zero_extendqisi2
 1644 00a8 03F00803 		and	r3, r3, #8
 1645 00ac 03F0FF09 		and	r9, r3, #255
 1646 00b0 3BB1     		cbz	r3, .L189
 1647              		.loc 1 895 0 is_stmt 0 discriminator 1
 1648 00b2 042A     		cmp	r2, #4
 1649 00b4 00F06781 		beq	.L199
 1650              		.loc 1 896 0 is_stmt 1
 1651 00b8 072A     		cmp	r2, #7
 1652 00ba 00F06481 		beq	.L199
 1653              	.L198:
 1654              		.loc 1 821 0
 1655 00be 4FF00009 		mov	r9, #0
 1656              	.LVL140:
 1657              	.L189:
 1658              		.loc 1 921 0
 1659 00c2 786F     		ldr	r0, [r7, #116]
 1660 00c4 48B1     		cbz	r0, .L201
 1661              		.loc 1 922 0 discriminator 1
 1662 00c6 2268     		ldr	r2, [r4]
 1663 00c8 796A     		ldr	r1, [r7, #36]
 1664 00ca B7F94430 		ldrsh	r3, [r7, #68]
 1665 00ce 521A     		subs	r2, r2, r1
 1666 00d0 03EB4303 		add	r3, r3, r3, lsl #1
 1667              		.loc 1 921 0 discriminator 1
 1668 00d4 B2EB430F 		cmp	r2, r3, lsl #1
 1669 00d8 5CD2     		bcs	.L202
 1670              	.L201:
 1671              		.loc 1 930 0
 1672 00da 3B7E     		ldrb	r3, [r7, #24]	@ zero_extendqisi2
 1673 00dc 032B     		cmp	r3, #3
 1674 00de 65D0     		beq	.L278
 1675              	.L203:
 1676              		.loc 1 939 0
 1677 00e0 092B     		cmp	r3, #9
 1678 00e2 6DD0     		beq	.L279
 1679              	.L205:
 1680              		.loc 1 947 0
 1681 00e4 B8F1000F 		cmp	r8, #0
 1682 00e8 6FD1     		bne	.L206
ARM GAS  C:\Users\jo\AppData\Local\Temp\ccQTqoh0.s 			page 31


 1683              	.LVL141:
 1684              		.loc 1 984 0
 1685 00ea FB7F     		ldrb	r3, [r7, #31]	@ zero_extendqisi2
 1686              		.loc 1 985 0
 1687 00ec 97F82020 		ldrb	r2, [r7, #32]	@ zero_extendqisi2
 1688              		.loc 1 981 0
 1689 00f0 D7F80C90 		ldr	r9, [r7, #12]
 1690              	.LVL142:
 1691              		.loc 1 984 0
 1692 00f4 0133     		adds	r3, r3, #1
 1693 00f6 DBB2     		uxtb	r3, r3
 1694              		.loc 1 985 0
 1695 00f8 9A42     		cmp	r2, r3
 1696              		.loc 1 984 0
 1697 00fa FB77     		strb	r3, [r7, #31]
 1698              		.loc 1 985 0
 1699 00fc 12D8     		bhi	.L238
 1700              		.loc 1 988 0
 1701 00fe 764E     		ldr	r6, .L285+12
 1702              		.loc 1 989 0
 1703 0100 D7F88830 		ldr	r3, [r7, #136]
 1704              		.loc 1 986 0
 1705 0104 87F81F80 		strb	r8, [r7, #31]
 1706              		.loc 1 988 0
 1707 0108 86F80080 		strb	r8, [r6]
 1708              		.loc 1 989 0
 1709 010c 002B     		cmp	r3, #0
 1710 010e 00F08980 		beq	.L215
 1711              		.loc 1 989 0 is_stmt 0 discriminator 1
 1712 0112 3869     		ldr	r0, [r7, #16]
 1713 0114 3946     		mov	r1, r7
 1714 0116 9847     		blx	r3
 1715              	.LVL143:
 1716              		.loc 1 990 0 is_stmt 1 discriminator 1
 1717 0118 3378     		ldrb	r3, [r6]	@ zero_extendqisi2
 1718 011a 002B     		cmp	r3, #0
 1719 011c 7FF47DAF 		bne	.L179
 1720              		.loc 1 994 0
 1721 0120 0028     		cmp	r0, #0
 1722 0122 7FD0     		beq	.L215
 1723              	.LVL144:
 1724              	.L238:
 1725 0124 3E46     		mov	r6, r7
 1726              	.LVL145:
 1727              	.L268:
 1728              		.loc 1 981 0
 1729 0126 4F46     		mov	r7, r9
 1730              	.LVL146:
 1731              	.L187:
 1732              		.loc 1 808 0
 1733 0128 002F     		cmp	r7, #0
 1734 012a 7FF47CAF 		bne	.L216
 1735              	.LVL147:
 1736              	.L217:
 1737              		.loc 1 1004 0
 1738 012e DFF8CC81 		ldr	r8, .L285+48
 1739 0132 D8F80050 		ldr	r5, [r8]
ARM GAS  C:\Users\jo\AppData\Local\Temp\ccQTqoh0.s 			page 32


 1740              	.LVL148:
 1741              		.loc 1 1005 0
 1742 0136 55B3     		cbz	r5, .L178
 1743              		.loc 1 1006 0
 1744 0138 684F     		ldr	r7, .L285+16
 1745              		.loc 1 1005 0
 1746 013a 0026     		movs	r6, #0
 1747              	.LVL149:
 1748              	.L224:
 1749              		.loc 1 1006 0
 1750 013c 2B7E     		ldrb	r3, [r5, #24]	@ zero_extendqisi2
 1751 013e 0A2B     		cmp	r3, #10
 1752 0140 0AD0     		beq	.L218
 1753              		.loc 1 1006 0 is_stmt 0 discriminator 1
 1754 0142 0097     		str	r7, [sp]
 1755 0144 6648     		ldr	r0, .L285+20
 1756 0146 6749     		ldr	r1, .L285+24
 1757 0148 674A     		ldr	r2, .L285+28
 1758 014a 40F2EE33 		movw	r3, #1006
 1759 014e FFF7FEFF 		bl	chprintf.constprop.4
 1760              	.LVL150:
 1761              	.LBB152:
 1762              	.LBB153:
 1763              		.loc 3 416 0 is_stmt 1 discriminator 1
 1764 0152 6548     		ldr	r0, .L285+28
 1765 0154 FFF7FEFF 		bl	chSysHalt
 1766              	.LVL151:
 1767              	.L218:
 1768              	.LBE153:
 1769              	.LBE152:
 1770              		.loc 1 1010 0
 1771 0158 2368     		ldr	r3, [r4]
 1772 015a 6A6A     		ldr	r2, [r5, #36]
 1773 015c 9B1A     		subs	r3, r3, r2
 1774 015e F02B     		cmp	r3, #240
 1775 0160 40F22981 		bls	.L280
 1776              	.LVL152:
 1777              	.LBB154:
 1778              		.loc 1 1019 0
 1779 0164 2846     		mov	r0, r5
 1780 0166 FFF7FEFF 		bl	tcp_pcb_purge
 1781              	.LVL153:
 1782              		.loc 1 1021 0
 1783 016a 002E     		cmp	r6, #0
 1784 016c 00F05D81 		beq	.L281
 1785              		.loc 1 1022 0
 1786 0170 D8F80030 		ldr	r3, [r8]
 1787 0174 9D42     		cmp	r5, r3
 1788 0176 00F07981 		beq	.L282
 1789              	.L221:
 1790              		.loc 1 1023 0
 1791 017a EB68     		ldr	r3, [r5, #12]
 1792 017c F360     		str	r3, [r6, #12]
 1793 017e D5F80C90 		ldr	r9, [r5, #12]
 1794              	.L222:
 1795              	.LVL154:
 1796              		.loc 1 1031 0
ARM GAS  C:\Users\jo\AppData\Local\Temp\ccQTqoh0.s 			page 33


 1797 0182 2846     		mov	r0, r5
 1798              		.loc 1 1030 0
 1799 0184 4D46     		mov	r5, r9
 1800              	.LVL155:
 1801              		.loc 1 1031 0
 1802 0186 FFF7FEFF 		bl	free
 1803              	.LVL156:
 1804              	.LBE154:
 1805              		.loc 1 1005 0
 1806 018a 002D     		cmp	r5, #0
 1807 018c D6D1     		bne	.L224
 1808              	.LVL157:
 1809              	.L178:
 1810              		.loc 1 1037 0
 1811 018e 05B0     		add	sp, sp, #20
 1812              		.cfi_remember_state
 1813              		.cfi_def_cfa_offset 36
 1814              		@ sp needed
 1815 0190 BDE8F08F 		pop	{r4, r5, r6, r7, r8, r9, r10, fp, pc}
 1816              	.LVL158:
 1817              	.L202:
 1818              		.cfi_restore_state
 1819              	.LBB159:
 1820              	.LBB160:
 1821              	.LBB161:
 1822              		.loc 1 1131 0
 1823 0194 D0F800A0 		ldr	r10, [r0]
 1824              	.LVL159:
 1825              		.loc 1 1132 0
 1826 0198 FFF7FEFF 		bl	tcp_seg_free
 1827              	.LVL160:
 1828              	.LBE161:
 1829              		.loc 1 1130 0
 1830 019c 5046     		mov	r0, r10
 1831 019e 0028     		cmp	r0, #0
 1832 01a0 F8D1     		bne	.L202
 1833              	.LBE160:
 1834              	.LBE159:
 1835              		.loc 1 930 0
 1836 01a2 3B7E     		ldrb	r3, [r7, #24]	@ zero_extendqisi2
 1837              		.loc 1 924 0
 1838 01a4 C7F874A0 		str	r10, [r7, #116]
 1839              		.loc 1 930 0
 1840 01a8 032B     		cmp	r3, #3
 1841 01aa 99D1     		bne	.L203
 1842              	.LVL161:
 1843              	.L278:
 1844              		.loc 1 931 0
 1845 01ac 2368     		ldr	r3, [r4]
 1846 01ae 7A6A     		ldr	r2, [r7, #36]
 1847 01b0 9B1A     		subs	r3, r3, r2
 1848 01b2 282B     		cmp	r3, #40
 1849 01b4 96D9     		bls	.L205
 1850              		.loc 1 933 0
 1851 01b6 08F10108 		add	r8, r8, #1
 1852              	.LVL162:
 1853 01ba 5FFA88F8 		uxtb	r8, r8
ARM GAS  C:\Users\jo\AppData\Local\Temp\ccQTqoh0.s 			page 34


 1854              	.LVL163:
 1855 01be 91E7     		b	.L205
 1856              	.L279:
 1857              		.loc 1 940 0
 1858 01c0 2368     		ldr	r3, [r4]
 1859 01c2 7A6A     		ldr	r2, [r7, #36]
 1860 01c4 9B1A     		subs	r3, r3, r2
 1861 01c6 F02B     		cmp	r3, #240
 1862 01c8 8CD9     		bls	.L205
 1863              	.L206:
 1864              	.LVL164:
 1865              	.LBB162:
 1866              		.loc 1 951 0
 1867 01ca 3846     		mov	r0, r7
 1868 01cc FFF7FEFF 		bl	tcp_pcb_purge
 1869              	.LVL165:
 1870              		.loc 1 954 0
 1871 01d0 DBF80030 		ldr	r3, [fp]
 1872              		.loc 1 953 0
 1873 01d4 002E     		cmp	r6, #0
 1874 01d6 00F01681 		beq	.L208
 1875              		.loc 1 954 0
 1876 01da 9F42     		cmp	r7, r3
 1877 01dc 00F03981 		beq	.L283
 1878              	.L209:
 1879              		.loc 1 955 0
 1880 01e0 FB68     		ldr	r3, [r7, #12]
 1881 01e2 F360     		str	r3, [r6, #12]
 1882              	.L210:
 1883              		.loc 1 962 0
 1884 01e4 B9F1000F 		cmp	r9, #0
 1885 01e8 40F00281 		bne	.L284
 1886              	.L212:
 1887              		.loc 1 968 0
 1888 01ec 3B69     		ldr	r3, [r7, #16]
 1889              		.loc 1 967 0
 1890 01ee D7F88CA0 		ldr	r10, [r7, #140]
 1891              	.LVL166:
 1892              		.loc 1 973 0
 1893 01f2 DFF8E480 		ldr	r8, .L285+12
 1894              		.loc 1 968 0
 1895 01f6 0393     		str	r3, [sp, #12]
 1896              	.LVL167:
 1897              		.loc 1 971 0
 1898 01f8 3846     		mov	r0, r7
 1899              		.loc 1 970 0
 1900 01fa D7F80C90 		ldr	r9, [r7, #12]
 1901              	.LVL168:
 1902              		.loc 1 971 0
 1903 01fe FFF7FEFF 		bl	free
 1904              	.LVL169:
 1905              		.loc 1 973 0
 1906 0202 0022     		movs	r2, #0
 1907 0204 88F80020 		strb	r2, [r8]
 1908              		.loc 1 974 0
 1909 0208 BAF1000F 		cmp	r10, #0
 1910 020c 8BD0     		beq	.L268
ARM GAS  C:\Users\jo\AppData\Local\Temp\ccQTqoh0.s 			page 35


 1911              		.loc 1 974 0 is_stmt 0 discriminator 1
 1912 020e 0398     		ldr	r0, [sp, #12]
 1913 0210 6FF00901 		mvn	r1, #9
 1914 0214 D047     		blx	r10
 1915              	.LVL170:
 1916              		.loc 1 975 0 is_stmt 1 discriminator 1
 1917 0216 98F80030 		ldrb	r3, [r8]	@ zero_extendqisi2
 1918 021a 002B     		cmp	r3, #0
 1919 021c 7FF4FDAE 		bne	.L179
 1920              	.LBE162:
 1921              		.loc 1 981 0
 1922 0220 4F46     		mov	r7, r9
 1923              	.LVL171:
 1924 0222 81E7     		b	.L187
 1925              	.LVL172:
 1926              	.L215:
 1927              		.loc 1 995 0
 1928 0224 3846     		mov	r0, r7
 1929 0226 3E46     		mov	r6, r7
 1930              		.loc 1 981 0
 1931 0228 4F46     		mov	r7, r9
 1932              	.LVL173:
 1933              		.loc 1 995 0
 1934 022a FFF7FEFF 		bl	tcp_output
 1935              	.LVL174:
 1936              		.loc 1 808 0
 1937 022e 002F     		cmp	r7, #0
 1938 0230 7FF4F9AE 		bne	.L216
 1939 0234 7BE7     		b	.L217
 1940              	.LVL175:
 1941              	.L272:
 1942              		.loc 1 810 0 discriminator 1
 1943 0236 294B     		ldr	r3, .L285+16
 1944 0238 0093     		str	r3, [sp]
 1945 023a 2A49     		ldr	r1, .L285+24
 1946 023c 2B4A     		ldr	r2, .L285+32
 1947 023e 2848     		ldr	r0, .L285+20
 1948 0240 40F22A33 		movw	r3, #810
 1949 0244 FFF7FEFF 		bl	chprintf.constprop.4
 1950              	.LVL176:
 1951              	.LBB167:
 1952              	.LBB168:
 1953              		.loc 3 416 0 discriminator 1
 1954 0248 2848     		ldr	r0, .L285+32
 1955 024a FFF7FEFF 		bl	chSysHalt
 1956              	.LVL177:
 1957 024e 3B7E     		ldrb	r3, [r7, #24]	@ zero_extendqisi2
 1958              	.LBE168:
 1959              	.LBE167:
 1960              		.loc 1 811 0 discriminator 1
 1961 0250 012B     		cmp	r3, #1
 1962 0252 7FF4EFAE 		bne	.L184
 1963              	.LVL178:
 1964              	.L273:
 1965 0256 214B     		ldr	r3, .L285+16
 1966 0258 0093     		str	r3, [sp]
 1967 025a 2249     		ldr	r1, .L285+24
ARM GAS  C:\Users\jo\AppData\Local\Temp\ccQTqoh0.s 			page 36


 1968 025c 244A     		ldr	r2, .L285+36
 1969 025e 2048     		ldr	r0, .L285+20
 1970 0260 40F22B33 		movw	r3, #811
 1971 0264 FFF7FEFF 		bl	chprintf.constprop.4
 1972              	.LVL179:
 1973              	.LBB169:
 1974              	.LBB170:
 1975              		.loc 3 416 0 discriminator 1
 1976 0268 2148     		ldr	r0, .L285+36
 1977 026a FFF7FEFF 		bl	chSysHalt
 1978              	.LVL180:
 1979 026e 3B7E     		ldrb	r3, [r7, #24]	@ zero_extendqisi2
 1980              	.LBE170:
 1981              	.LBE169:
 1982              		.loc 1 812 0 discriminator 1
 1983 0270 0A2B     		cmp	r3, #10
 1984 0272 7FF4E2AE 		bne	.L185
 1985              	.LVL181:
 1986              	.L274:
 1987 0276 194B     		ldr	r3, .L285+16
 1988 0278 1E4A     		ldr	r2, .L285+40
 1989 027a 0093     		str	r3, [sp]
 1990 027c 1949     		ldr	r1, .L285+24
 1991 027e 1848     		ldr	r0, .L285+20
 1992 0280 4FF44B73 		mov	r3, #812
 1993 0284 FFF7FEFF 		bl	chprintf.constprop.4
 1994              	.LVL182:
 1995              	.LBB171:
 1996              	.LBB172:
 1997              		.loc 3 416 0 discriminator 1
 1998 0288 1A48     		ldr	r0, .L285+40
 1999 028a FFF7FEFF 		bl	chSysHalt
 2000              	.LVL183:
 2001              	.LBE172:
 2002              	.LBE171:
 2003              		.loc 1 813 0 discriminator 1
 2004 028e 2B78     		ldrb	r3, [r5]	@ zero_extendqisi2
 2005 0290 97F82120 		ldrb	r2, [r7, #33]	@ zero_extendqisi2
 2006 0294 9A42     		cmp	r2, r3
 2007 0296 7FF4D6AE 		bne	.L186
 2008              	.LVL184:
 2009              	.L275:
 2010              		.loc 1 815 0
 2011 029a FF68     		ldr	r7, [r7, #12]
 2012              	.LVL185:
 2013              		.loc 1 808 0
 2014 029c 002F     		cmp	r7, #0
 2015 029e 7FF4C2AE 		bne	.L216
 2016 02a2 44E7     		b	.L217
 2017              	.LVL186:
 2018              	.L233:
 2019              		.loc 1 881 0
 2020 02a4 062A     		cmp	r2, #6
 2021              		.loc 1 820 0
 2022 02a6 4FF00008 		mov	r8, #0
 2023              	.LVL187:
 2024              		.loc 1 881 0
ARM GAS  C:\Users\jo\AppData\Local\Temp\ccQTqoh0.s 			page 37


 2025 02aa 7FF4FCAE 		bne	.L197
 2026              	.L277:
 2027              		.loc 1 883 0
 2028 02ae BB7F     		ldrb	r3, [r7, #30]	@ zero_extendqisi2
 2029 02b0 DB06     		lsls	r3, r3, #27
 2030 02b2 7FF504AF 		bpl	.L198
 2031              		.loc 1 886 0
 2032 02b6 2368     		ldr	r3, [r4]
 2033 02b8 7A6A     		ldr	r2, [r7, #36]
 2034 02ba 9B1A     		subs	r3, r3, r2
 2035 02bc 282B     		cmp	r3, #40
 2036 02be 7FF6FEAE 		bls	.L198
 2037              		.loc 1 888 0
 2038 02c2 08F10108 		add	r8, r8, #1
 2039              	.LVL188:
 2040 02c6 5FFA88F8 		uxtb	r8, r8
 2041              	.LVL189:
 2042 02ca F8E6     		b	.L198
 2043              	.L286:
 2044              		.align	2
 2045              	.L285:
 2046 02cc 00000000 		.word	.LANCHOR5
 2047 02d0 00000000 		.word	.LANCHOR6
 2048 02d4 00000000 		.word	.LANCHOR9
 2049 02d8 00000000 		.word	.LANCHOR11
 2050 02dc 50000000 		.word	.LC2
 2051 02e0 00000000 		.word	itm_port
 2052 02e4 00000000 		.word	.LC0
 2053 02e8 78020000 		.word	.LC16
 2054 02ec 98010000 		.word	.LC11
 2055 02f0 C4010000 		.word	.LC12
 2056 02f4 F0010000 		.word	.LC13
 2057 02f8 00000000 		.word	.LANCHOR7
 2058 02fc 00000000 		.word	.LANCHOR8
 2059              	.LVL190:
 2060              	.L192:
 2061              		.loc 1 844 0
 2062 0300 B98E     		ldrh	r1, [r7, #52]
 2063 0302 0804     		lsls	r0, r1, #16
 2064              		.loc 1 845 0
 2065 0304 5CBF     		itt	pl
 2066 0306 0131     		addpl	r1, r1, #1
 2067 0308 B986     		strhpl	r1, [r7, #52]	@ movhi
 2068              		.loc 1 848 0
 2069 030a 396F     		ldr	r1, [r7, #112]
 2070 030c 0029     		cmp	r1, #0
 2071 030e C9D0     		beq	.L233
 2072              		.loc 1 848 0 is_stmt 0 discriminator 1
 2073 0310 B7F93400 		ldrsh	r0, [r7, #52]
 2074 0314 B7F94410 		ldrsh	r1, [r7, #68]
 2075 0318 8842     		cmp	r0, r1
 2076 031a C3DB     		blt	.L233
 2077              		.loc 1 856 0 is_stmt 1
 2078 031c 022A     		cmp	r2, #2
 2079 031e 0AD0     		beq	.L195
 2080              		.loc 1 857 0
 2081 0320 5849     		ldr	r1, .L287
ARM GAS  C:\Users\jo\AppData\Local\Temp\ccQTqoh0.s 			page 38


 2082 0322 B7F94000 		ldrsh	r0, [r7, #64]
 2083 0326 B7F94220 		ldrsh	r2, [r7, #66]
 2084 032a C95C     		ldrb	r1, [r1, r3]	@ zero_extendqisi2
 2085 032c 02EBE003 		add	r3, r2, r0, asr #3
 2086 0330 8B40     		lsls	r3, r3, r1
 2087 0332 A7F84430 		strh	r3, [r7, #68]	@ movhi
 2088              	.L195:
 2089              		.loc 1 864 0
 2090 0336 B7F84C10 		ldrh	r1, [r7, #76]
 2091 033a B7F86030 		ldrh	r3, [r7, #96]
 2092              		.loc 1 866 0
 2093 033e FA8E     		ldrh	r2, [r7, #54]
 2094              		.loc 1 869 0
 2095 0340 A7F84C20 		strh	r2, [r7, #76]	@ movhi
 2096              		.loc 1 865 0
 2097 0344 8B42     		cmp	r3, r1
 2098 0346 28BF     		it	cs
 2099 0348 0B46     		movcs	r3, r1
 2100 034a 5B08     		lsrs	r3, r3, #1
 2101              		.loc 1 866 0
 2102 034c 5100     		lsls	r1, r2, #1
 2103              		.loc 1 861 0
 2104 034e 0020     		movs	r0, #0
 2105              		.loc 1 866 0
 2106 0350 8B42     		cmp	r3, r1
 2107              		.loc 1 865 0
 2108 0352 A7F84E30 		strh	r3, [r7, #78]	@ movhi
 2109              		.loc 1 861 0
 2110 0356 B886     		strh	r0, [r7, #52]	@ movhi
 2111              		.loc 1 867 0
 2112 0358 B8BF     		it	lt
 2113 035a A7F84E10 		strhlt	r1, [r7, #78]	@ movhi
 2114              		.loc 1 876 0
 2115 035e 3846     		mov	r0, r7
 2116 0360 FFF7FEFF 		bl	tcp_rexmit_rto
 2117              	.LVL191:
 2118              		.loc 1 820 0
 2119 0364 4FF00008 		mov	r8, #0
 2120 0368 3A7E     		ldrb	r2, [r7, #24]	@ zero_extendqisi2
 2121 036a 99E6     		b	.L191
 2122              	.L276:
 2123              		.loc 1 823 0 discriminator 1
 2124 036c 062B     		cmp	r3, #6
 2125 036e 02D0     		beq	.L239
 2126              		.loc 1 827 0
 2127 0370 0C2B     		cmp	r3, #12
 2128 0372 7FF473AE 		bne	.L228
 2129              	.L239:
 2130              		.loc 1 821 0
 2131 0376 4FF00009 		mov	r9, #0
 2132              		.loc 1 827 0
 2133 037a 4FF00108 		mov	r8, #1
 2134 037e A0E6     		b	.L189
 2135              	.L230:
 2136              		.loc 1 828 0
 2137 0380 4FF00108 		mov	r8, #1
 2138 0384 8CE6     		b	.L191
ARM GAS  C:\Users\jo\AppData\Local\Temp\ccQTqoh0.s 			page 39


 2139              	.LVL192:
 2140              	.L199:
 2141              		.loc 1 899 0
 2142 0386 D7F89000 		ldr	r0, [r7, #144]
 2143              		.loc 1 898 0
 2144 038a 7A6A     		ldr	r2, [r7, #36]
 2145 038c 0392     		str	r2, [sp, #12]
 2146              		.loc 1 899 0
 2147 038e 00F52423 		add	r3, r0, #671744
 2148 0392 3D4A     		ldr	r2, .L287+4
 2149              		.loc 1 898 0
 2150 0394 2168     		ldr	r1, [r4]
 2151              		.loc 1 899 0
 2152 0396 03F6B843 		addw	r3, r3, #3256
 2153 039a A2FB0323 		umull	r2, r3, r2, r3
 2154              		.loc 1 898 0
 2155 039e 039A     		ldr	r2, [sp, #12]
 2156 03a0 8A1A     		subs	r2, r1, r2
 2157 03a2 B2EB531F 		cmp	r2, r3, lsr #5
 2158 03a6 0CD9     		bls	.L200
 2159              		.loc 1 905 0
 2160 03a8 08F10108 		add	r8, r8, #1
 2161              	.LVL193:
 2162 03ac 5FFA88F8 		uxtb	r8, r8
 2163              	.LVL194:
 2164              		.loc 1 906 0
 2165 03b0 4FF00109 		mov	r9, #1
 2166 03b4 85E6     		b	.L189
 2167              	.LVL195:
 2168              	.L280:
 2169              		.loc 1 1034 0
 2170 03b6 2E46     		mov	r6, r5
 2171 03b8 ED68     		ldr	r5, [r5, #12]
 2172              	.LVL196:
 2173              		.loc 1 1005 0
 2174 03ba 002D     		cmp	r5, #0
 2175 03bc 7FF4BEAE 		bne	.L224
 2176 03c0 E5E6     		b	.L178
 2177              	.LVL197:
 2178              	.L200:
 2179              		.loc 1 909 0
 2180 03c2 97F89610 		ldrb	r1, [r7, #150]	@ zero_extendqisi2
 2181 03c6 314B     		ldr	r3, .L287+8
 2182 03c8 03FB0103 		mla	r3, r3, r1, r0
 2183              		.loc 1 910 0
 2184 03cc 2E49     		ldr	r1, .L287+4
 2185 03ce A1FB0313 		umull	r1, r3, r1, r3
 2186              		.loc 1 908 0
 2187 03d2 B2EB531F 		cmp	r2, r3, lsr #5
 2188 03d6 7FF672AE 		bls	.L198
 2189              		.loc 1 912 0
 2190 03da 3846     		mov	r0, r7
 2191 03dc FFF7FEFF 		bl	tcp_keepalive
 2192              	.LVL198:
 2193              		.loc 1 913 0
 2194 03e0 97F89630 		ldrb	r3, [r7, #150]	@ zero_extendqisi2
 2195 03e4 0133     		adds	r3, r3, #1
ARM GAS  C:\Users\jo\AppData\Local\Temp\ccQTqoh0.s 			page 40


 2196 03e6 87F89630 		strb	r3, [r7, #150]
 2197              		.loc 1 821 0
 2198 03ea 4FF00009 		mov	r9, #0
 2199 03ee 68E6     		b	.L189
 2200              	.LVL199:
 2201              	.L284:
 2202              	.LBB173:
 2203              		.loc 1 963 0
 2204 03f0 7B8B     		ldrh	r3, [r7, #26]
 2205 03f2 386D     		ldr	r0, [r7, #80]
 2206 03f4 B96A     		ldr	r1, [r7, #40]
 2207 03f6 0093     		str	r3, [sp]
 2208 03f8 BB8B     		ldrh	r3, [r7, #28]
 2209 03fa 0193     		str	r3, [sp, #4]
 2210 03fc 3A46     		mov	r2, r7
 2211 03fe 3B1D     		adds	r3, r7, #4
 2212 0400 FFF7FEFF 		bl	tcp_rst
 2213              	.LVL200:
 2214 0404 F2E6     		b	.L212
 2215              	.L208:
 2216              		.loc 1 958 0
 2217 0406 BB42     		cmp	r3, r7
 2218 0408 0BD0     		beq	.L211
 2219              		.loc 1 958 0 is_stmt 0 discriminator 1
 2220 040a 214B     		ldr	r3, .L287+12
 2221 040c 0093     		str	r3, [sp]
 2222 040e 2148     		ldr	r0, .L287+16
 2223 0410 2149     		ldr	r1, .L287+20
 2224 0412 224A     		ldr	r2, .L287+24
 2225 0414 40F2BE33 		movw	r3, #958
 2226 0418 FFF7FEFF 		bl	chprintf.constprop.4
 2227              	.LVL201:
 2228              	.LBB163:
 2229              	.LBB164:
 2230              		.loc 3 416 0 is_stmt 1 discriminator 1
 2231 041c 1F48     		ldr	r0, .L287+24
 2232 041e FFF7FEFF 		bl	chSysHalt
 2233              	.LVL202:
 2234              	.L211:
 2235              	.LBE164:
 2236              	.LBE163:
 2237              		.loc 1 959 0
 2238 0422 FB68     		ldr	r3, [r7, #12]
 2239 0424 CBF80030 		str	r3, [fp]
 2240 0428 DCE6     		b	.L210
 2241              	.LVL203:
 2242              	.L281:
 2243              	.LBE173:
 2244              	.LBB174:
 2245              		.loc 1 1026 0
 2246 042a D8F80030 		ldr	r3, [r8]
 2247 042e AB42     		cmp	r3, r5
 2248 0430 0AD0     		beq	.L223
 2249              		.loc 1 1026 0 is_stmt 0 discriminator 1
 2250 0432 0097     		str	r7, [sp]
 2251 0434 1748     		ldr	r0, .L287+16
 2252 0436 1849     		ldr	r1, .L287+20
ARM GAS  C:\Users\jo\AppData\Local\Temp\ccQTqoh0.s 			page 41


 2253 0438 194A     		ldr	r2, .L287+28
 2254 043a 40F20243 		movw	r3, #1026
 2255 043e FFF7FEFF 		bl	chprintf.constprop.4
 2256              	.LVL204:
 2257              	.LBB155:
 2258              	.LBB156:
 2259              		.loc 3 416 0 is_stmt 1 discriminator 1
 2260 0442 1748     		ldr	r0, .L287+28
 2261 0444 FFF7FEFF 		bl	chSysHalt
 2262              	.LVL205:
 2263              	.L223:
 2264              	.LBE156:
 2265              	.LBE155:
 2266              		.loc 1 1027 0
 2267 0448 EB68     		ldr	r3, [r5, #12]
 2268 044a C8F80030 		str	r3, [r8]
 2269 044e 9946     		mov	r9, r3
 2270 0450 97E6     		b	.L222
 2271              	.LVL206:
 2272              	.L283:
 2273              	.LBE174:
 2274              	.LBB175:
 2275              		.loc 1 954 0 discriminator 1
 2276 0452 0F4B     		ldr	r3, .L287+12
 2277 0454 0093     		str	r3, [sp]
 2278 0456 1049     		ldr	r1, .L287+20
 2279 0458 124A     		ldr	r2, .L287+32
 2280 045a 0E48     		ldr	r0, .L287+16
 2281 045c 40F2BA33 		movw	r3, #954
 2282 0460 FFF7FEFF 		bl	chprintf.constprop.4
 2283              	.LVL207:
 2284              	.LBB165:
 2285              	.LBB166:
 2286              		.loc 3 416 0 discriminator 1
 2287 0464 0F48     		ldr	r0, .L287+32
 2288 0466 FFF7FEFF 		bl	chSysHalt
 2289              	.LVL208:
 2290 046a B9E6     		b	.L209
 2291              	.LVL209:
 2292              	.L282:
 2293              	.LBE166:
 2294              	.LBE165:
 2295              	.LBE175:
 2296              	.LBB176:
 2297              		.loc 1 1022 0 discriminator 1
 2298 046c 0097     		str	r7, [sp]
 2299 046e 0A49     		ldr	r1, .L287+20
 2300 0470 0D4A     		ldr	r2, .L287+36
 2301 0472 0848     		ldr	r0, .L287+16
 2302 0474 40F2FE33 		movw	r3, #1022
 2303 0478 FFF7FEFF 		bl	chprintf.constprop.4
 2304              	.LVL210:
 2305              	.LBB157:
 2306              	.LBB158:
 2307              		.loc 3 416 0 discriminator 1
 2308 047c 0A48     		ldr	r0, .L287+36
 2309 047e FFF7FEFF 		bl	chSysHalt
ARM GAS  C:\Users\jo\AppData\Local\Temp\ccQTqoh0.s 			page 42


 2310              	.LVL211:
 2311 0482 7AE6     		b	.L221
 2312              	.L288:
 2313              		.align	2
 2314              	.L287:
 2315 0484 00000000 		.word	.LANCHOR10
 2316 0488 D34D6210 		.word	274877907
 2317 048c F8240100 		.word	75000
 2318 0490 50000000 		.word	.LC2
 2319 0494 00000000 		.word	itm_port
 2320 0498 00000000 		.word	.LC0
 2321 049c 4C020000 		.word	.LC15
 2322 04a0 D0020000 		.word	.LC18
 2323 04a4 20020000 		.word	.LC14
 2324 04a8 A8020000 		.word	.LC17
 2325              	.LBE158:
 2326              	.LBE157:
 2327              	.LBE176:
 2328              		.cfi_endproc
 2329              	.LFE274:
 2330              		.size	tcp_slowtmr, .-tcp_slowtmr
 2331 04ac AFF30080 		.section	.text.tcp_pcb_remove,"ax",%progbits
 2332              		.align	2
 2333              		.p2align 4,,15
 2334              		.global	tcp_pcb_remove
 2335              		.thumb
 2336              		.thumb_func
 2337              		.type	tcp_pcb_remove, %function
 2338              	tcp_pcb_remove:
 2339              	.LFB293:
 2340              		.loc 1 1539 0
 2341              		.cfi_startproc
 2342              		@ args = 0, pretend = 0, frame = 0
 2343              		@ frame_needed = 0, uses_anonymous_args = 0
 2344              	.LVL212:
 2345 0000 10B5     		push	{r4, lr}
 2346              		.cfi_def_cfa_offset 8
 2347              		.cfi_offset 4, -8
 2348              		.cfi_offset 14, -4
 2349              		.loc 1 1540 0
 2350 0002 0268     		ldr	r2, [r0]
 2351 0004 8A42     		cmp	r2, r1
 2352              		.loc 1 1539 0
 2353 0006 82B0     		sub	sp, sp, #8
 2354              		.cfi_def_cfa_offset 16
 2355              		.loc 1 1539 0
 2356 0008 0C46     		mov	r4, r1
 2357              		.loc 1 1540 0
 2358 000a 56D0     		beq	.L319
 2359              		.loc 1 1540 0 is_stmt 0 discriminator 2
 2360 000c 2D49     		ldr	r1, .L324
 2361              	.LVL213:
 2362 000e 0A60     		str	r2, [r1]
 2363 0010 52B1     		cbz	r2, .L291
 2364              		.loc 1 1540 0
 2365 0012 D368     		ldr	r3, [r2, #12]
 2366 0014 A342     		cmp	r3, r4
ARM GAS  C:\Users\jo\AppData\Local\Temp\ccQTqoh0.s 			page 43


 2367 0016 53D0     		beq	.L320
 2368              		.loc 1 1540 0 discriminator 6
 2369 0018 2BB1     		cbz	r3, .L321
 2370              	.L296:
 2371              		.loc 1 1540 0 discriminator 9
 2372 001a DA68     		ldr	r2, [r3, #12]
 2373 001c A242     		cmp	r2, r4
 2374 001e 3ED0     		beq	.L322
 2375 0020 1346     		mov	r3, r2
 2376              		.loc 1 1540 0
 2377 0022 002B     		cmp	r3, #0
 2378 0024 F9D1     		bne	.L296
 2379              	.L321:
 2380 0026 0B60     		str	r3, [r1]
 2381              	.L291:
 2382              		.loc 1 1540 0 discriminator 10
 2383 0028 0023     		movs	r3, #0
 2384 002a E360     		str	r3, [r4, #12]
 2385              		.loc 1 1542 0 is_stmt 1 discriminator 10
 2386 002c 2046     		mov	r0, r4
 2387              	.LVL214:
 2388 002e FFF7FEFF 		bl	tcp_pcb_purge
 2389              	.LVL215:
 2390              		.loc 1 1545 0 discriminator 10
 2391 0032 237E     		ldrb	r3, [r4, #24]	@ zero_extendqisi2
 2392 0034 0A2B     		cmp	r3, #10
 2393 0036 04D0     		beq	.L303
 2394              		.loc 1 1545 0 is_stmt 0 discriminator 1
 2395 0038 012B     		cmp	r3, #1
 2396 003a 2CD0     		beq	.L302
 2397              		.loc 1 1547 0 is_stmt 1
 2398 003c A37F     		ldrb	r3, [r4, #30]	@ zero_extendqisi2
 2399              		.loc 1 1546 0
 2400 003e DA07     		lsls	r2, r3, #31
 2401 0040 31D4     		bmi	.L323
 2402              	.L303:
 2403              		.loc 1 1553 0
 2404 0042 E36E     		ldr	r3, [r4, #108]
 2405 0044 5BB1     		cbz	r3, .L300
 2406              		.loc 1 1553 0 is_stmt 0 discriminator 1
 2407 0046 204B     		ldr	r3, .L324+4
 2408 0048 0093     		str	r3, [sp]
 2409 004a 2048     		ldr	r0, .L324+8
 2410 004c 2049     		ldr	r1, .L324+12
 2411 004e 214A     		ldr	r2, .L324+16
 2412 0050 40F21163 		movw	r3, #1553
 2413 0054 FFF7FEFF 		bl	chprintf.constprop.4
 2414              	.LVL216:
 2415              	.LBB177:
 2416              	.LBB178:
 2417              		.loc 3 416 0 is_stmt 1 discriminator 1
 2418 0058 1E48     		ldr	r0, .L324+16
 2419 005a FFF7FEFF 		bl	chSysHalt
 2420              	.LVL217:
 2421              	.L300:
 2422              	.LBE178:
 2423              	.LBE177:
ARM GAS  C:\Users\jo\AppData\Local\Temp\ccQTqoh0.s 			page 44


 2424              		.loc 1 1554 0
 2425 005e 236F     		ldr	r3, [r4, #112]
 2426 0060 5BB1     		cbz	r3, .L305
 2427              		.loc 1 1554 0 is_stmt 0 discriminator 1
 2428 0062 194B     		ldr	r3, .L324+4
 2429 0064 0093     		str	r3, [sp]
 2430 0066 1948     		ldr	r0, .L324+8
 2431 0068 1949     		ldr	r1, .L324+12
 2432 006a 1B4A     		ldr	r2, .L324+20
 2433 006c 40F21263 		movw	r3, #1554
 2434 0070 FFF7FEFF 		bl	chprintf.constprop.4
 2435              	.LVL218:
 2436              	.LBB179:
 2437              	.LBB180:
 2438              		.loc 3 416 0 is_stmt 1 discriminator 1
 2439 0074 1848     		ldr	r0, .L324+20
 2440 0076 FFF7FEFF 		bl	chSysHalt
 2441              	.LVL219:
 2442              	.L305:
 2443              	.LBE180:
 2444              	.LBE179:
 2445              		.loc 1 1556 0
 2446 007a 636F     		ldr	r3, [r4, #116]
 2447 007c 5BB1     		cbz	r3, .L302
 2448              		.loc 1 1556 0 is_stmt 0 discriminator 1
 2449 007e 124B     		ldr	r3, .L324+4
 2450 0080 0093     		str	r3, [sp]
 2451 0082 1248     		ldr	r0, .L324+8
 2452 0084 1249     		ldr	r1, .L324+12
 2453 0086 154A     		ldr	r2, .L324+24
 2454 0088 40F21463 		movw	r3, #1556
 2455 008c FFF7FEFF 		bl	chprintf.constprop.4
 2456              	.LVL220:
 2457              	.LBB181:
 2458              	.LBB182:
 2459              		.loc 3 416 0 is_stmt 1 discriminator 1
 2460 0090 1248     		ldr	r0, .L324+24
 2461 0092 FFF7FEFF 		bl	chSysHalt
 2462              	.LVL221:
 2463              	.L302:
 2464              	.LBE182:
 2465              	.LBE181:
 2466              		.loc 1 1560 0
 2467 0096 0023     		movs	r3, #0
 2468 0098 2376     		strb	r3, [r4, #24]
 2469              		.loc 1 1563 0
 2470 009a 02B0     		add	sp, sp, #8
 2471              		.cfi_remember_state
 2472              		.cfi_def_cfa_offset 8
 2473              		@ sp needed
 2474 009c 10BD     		pop	{r4, pc}
 2475              	.LVL222:
 2476              	.L322:
 2477              		.cfi_restore_state
 2478 009e 0B60     		str	r3, [r1]
 2479              	.L293:
 2480              		.loc 1 1540 0 discriminator 5
ARM GAS  C:\Users\jo\AppData\Local\Temp\ccQTqoh0.s 			page 45


 2481 00a0 E268     		ldr	r2, [r4, #12]
 2482 00a2 DA60     		str	r2, [r3, #12]
 2483 00a4 C0E7     		b	.L291
 2484              	.LVL223:
 2485              	.L323:
 2486              		.loc 1 1548 0
 2487 00a6 43F00203 		orr	r3, r3, #2
 2488 00aa A377     		strb	r3, [r4, #30]
 2489              		.loc 1 1549 0
 2490 00ac 2046     		mov	r0, r4
 2491 00ae FFF7FEFF 		bl	tcp_output
 2492              	.LVL224:
 2493              		.loc 1 1552 0
 2494 00b2 237E     		ldrb	r3, [r4, #24]	@ zero_extendqisi2
 2495 00b4 012B     		cmp	r3, #1
 2496 00b6 C4D1     		bne	.L303
 2497 00b8 EDE7     		b	.L302
 2498              	.LVL225:
 2499              	.L319:
 2500              		.loc 1 1540 0 discriminator 1
 2501 00ba CB68     		ldr	r3, [r1, #12]
 2502 00bc 0360     		str	r3, [r0]
 2503 00be B3E7     		b	.L291
 2504              	.LVL226:
 2505              	.L320:
 2506              		.loc 1 1540 0 is_stmt 0
 2507 00c0 1346     		mov	r3, r2
 2508 00c2 EDE7     		b	.L293
 2509              	.L325:
 2510              		.align	2
 2511              	.L324:
 2512 00c4 00000000 		.word	.LANCHOR3
 2513 00c8 50000000 		.word	.LC2
 2514 00cc 00000000 		.word	itm_port
 2515 00d0 00000000 		.word	.LC0
 2516 00d4 F8020000 		.word	.LC19
 2517 00d8 10030000 		.word	.LC20
 2518 00dc 2C030000 		.word	.LC21
 2519              		.cfi_endproc
 2520              	.LFE293:
 2521              		.size	tcp_pcb_remove, .-tcp_pcb_remove
 2522              		.section	.text.tcp_close_shutdown,"ax",%progbits
 2523              		.align	2
 2524              		.p2align 4,,15
 2525              		.thumb
 2526              		.thumb_func
 2527              		.type	tcp_close_shutdown, %function
 2528              	tcp_close_shutdown:
 2529              	.LFB262:
 2530              		.loc 1 171 0 is_stmt 1
 2531              		.cfi_startproc
 2532              		@ args = 0, pretend = 0, frame = 0
 2533              		@ frame_needed = 0, uses_anonymous_args = 0
 2534              	.LVL227:
 2535 0000 30B5     		push	{r4, r5, lr}
 2536              		.cfi_def_cfa_offset 12
 2537              		.cfi_offset 4, -12
ARM GAS  C:\Users\jo\AppData\Local\Temp\ccQTqoh0.s 			page 46


 2538              		.cfi_offset 5, -8
 2539              		.cfi_offset 14, -4
 2540              		.loc 1 174 0
 2541 0002 037E     		ldrb	r3, [r0, #24]	@ zero_extendqisi2
 2542              		.loc 1 171 0
 2543 0004 83B0     		sub	sp, sp, #12
 2544              		.cfi_def_cfa_offset 24
 2545              		.loc 1 171 0
 2546 0006 0446     		mov	r4, r0
 2547              		.loc 1 174 0
 2548 0008 19B1     		cbz	r1, .L329
 2549              		.loc 1 174 0 is_stmt 0 discriminator 1
 2550 000a 042B     		cmp	r3, #4
 2551 000c 1ED0     		beq	.L328
 2552              		.loc 1 174 0 discriminator 2
 2553 000e 072B     		cmp	r3, #7
 2554 0010 1CD0     		beq	.L328
 2555              	.LVL228:
 2556              	.L329:
 2557              		.loc 1 199 0 is_stmt 1
 2558 0012 072B     		cmp	r3, #7
 2559 0014 0ED8     		bhi	.L378
 2560 0016 DFE803F0 		tbb	[pc, r3]
 2561              	.L344:
 2562 001a 3E       		.byte	(.L343-.L344)/2
 2563 001b 51       		.byte	(.L345-.L344)/2
 2564 001c 59       		.byte	(.L346-.L344)/2
 2565 001d 11       		.byte	(.L347-.L344)/2
 2566 001e 11       		.byte	(.L347-.L344)/2
 2567 001f 0D       		.byte	(.L378-.L344)/2
 2568 0020 0D       		.byte	(.L378-.L344)/2
 2569 0021 04       		.byte	(.L349-.L344)/2
 2570              		.p2align 1
 2571              	.L349:
 2572              		.loc 1 243 0
 2573 0022 2046     		mov	r0, r4
 2574              	.LVL229:
 2575 0024 FFF7FEFF 		bl	tcp_send_fin
 2576              	.LVL230:
 2577              		.loc 1 244 0
 2578 0028 28B9     		cbnz	r0, .L341
 2579              		.loc 1 246 0
 2580 002a 0923     		movs	r3, #9
 2581 002c 2376     		strb	r3, [r4, #24]
 2582              	.L360:
 2583              	.LVL231:
 2584              		.loc 1 265 0
 2585 002e 2046     		mov	r0, r4
 2586 0030 FFF7FEFF 		bl	tcp_output
 2587              	.LVL232:
 2588              	.L378:
 2589 0034 0020     		movs	r0, #0
 2590              	.L341:
 2591 0036 40B2     		sxtb	r0, r0
 2592              		.loc 1 268 0
 2593 0038 03B0     		add	sp, sp, #12
 2594              		.cfi_remember_state
ARM GAS  C:\Users\jo\AppData\Local\Temp\ccQTqoh0.s 			page 47


 2595              		.cfi_def_cfa_offset 12
 2596              		@ sp needed
 2597 003a 30BD     		pop	{r4, r5, pc}
 2598              	.LVL233:
 2599              	.L347:
 2600              		.cfi_restore_state
 2601              		.loc 1 229 0
 2602 003c 2046     		mov	r0, r4
 2603              	.LVL234:
 2604 003e FFF7FEFF 		bl	tcp_send_fin
 2605              	.LVL235:
 2606              		.loc 1 230 0
 2607 0042 0028     		cmp	r0, #0
 2608 0044 F7D1     		bne	.L341
 2609              		.loc 1 232 0
 2610 0046 0523     		movs	r3, #5
 2611 0048 2376     		strb	r3, [r4, #24]
 2612 004a F0E7     		b	.L360
 2613              	.LVL236:
 2614              	.L328:
 2615              		.loc 1 175 0
 2616 004c A26F     		ldr	r2, [r4, #120]
 2617 004e 002A     		cmp	r2, #0
 2618 0050 7DD0     		beq	.L381
 2619              	.LVL237:
 2620              	.L330:
 2621              		.loc 1 178 0
 2622 0052 A37F     		ldrb	r3, [r4, #30]	@ zero_extendqisi2
 2623 0054 DB06     		lsls	r3, r3, #27
 2624 0056 44D5     		bpl	.L382
 2625              	.LVL238:
 2626              	.L331:
 2627              		.loc 1 182 0
 2628 0058 628B     		ldrh	r2, [r4, #26]
 2629 005a A38B     		ldrh	r3, [r4, #28]
 2630 005c 206D     		ldr	r0, [r4, #80]
 2631 005e A16A     		ldr	r1, [r4, #40]
 2632 0060 8DE80C00 		stmia	sp, {r2, r3}
 2633 0064 2246     		mov	r2, r4
 2634 0066 231D     		adds	r3, r4, #4
 2635 0068 FFF7FEFF 		bl	tcp_rst
 2636              	.LVL239:
 2637              		.loc 1 185 0
 2638 006c 2046     		mov	r0, r4
 2639 006e FFF7FEFF 		bl	tcp_pcb_purge
 2640              	.LVL240:
 2641              		.loc 1 186 0
 2642 0072 3C4B     		ldr	r3, .L392
 2643 0074 1A68     		ldr	r2, [r3]
 2644 0076 A242     		cmp	r2, r4
 2645 0078 5DD0     		beq	.L383
 2646              		.loc 1 186 0 is_stmt 0 discriminator 2
 2647 007a 3B49     		ldr	r1, .L392+4
 2648 007c 0A60     		str	r2, [r1]
 2649 007e 002A     		cmp	r2, #0
 2650 0080 3ED0     		beq	.L333
 2651              		.loc 1 186 0
ARM GAS  C:\Users\jo\AppData\Local\Temp\ccQTqoh0.s 			page 48


 2652 0082 D368     		ldr	r3, [r2, #12]
 2653 0084 A342     		cmp	r3, r4
 2654 0086 59D0     		beq	.L384
 2655              	.L337:
 2656              		.loc 1 186 0 discriminator 6
 2657 0088 002B     		cmp	r3, #0
 2658 008a 48D0     		beq	.L385
 2659              		.loc 1 186 0 discriminator 9
 2660 008c DA68     		ldr	r2, [r3, #12]
 2661 008e A242     		cmp	r2, r4
 2662 0090 33D0     		beq	.L386
 2663 0092 1346     		mov	r3, r2
 2664 0094 F8E7     		b	.L337
 2665              	.LVL241:
 2666              	.L343:
 2667              		.loc 1 209 0 is_stmt 1
 2668 0096 638B     		ldrh	r3, [r4, #26]
 2669 0098 A3B1     		cbz	r3, .L377
 2670              		.loc 1 210 0
 2671 009a 344B     		ldr	r3, .L392+8
 2672 009c 1A68     		ldr	r2, [r3]
 2673 009e A242     		cmp	r2, r4
 2674 00a0 4ED0     		beq	.L387
 2675              		.loc 1 210 0 is_stmt 0 discriminator 2
 2676 00a2 3149     		ldr	r1, .L392+4
 2677 00a4 0A60     		str	r2, [r1]
 2678 00a6 6AB1     		cbz	r2, .L377
 2679              		.loc 1 210 0
 2680 00a8 D368     		ldr	r3, [r2, #12]
 2681 00aa A342     		cmp	r3, r4
 2682 00ac 4BD0     		beq	.L388
 2683              	.L356:
 2684              		.loc 1 210 0 discriminator 6
 2685 00ae 002B     		cmp	r3, #0
 2686 00b0 54D0     		beq	.L389
 2687              		.loc 1 210 0 discriminator 9
 2688 00b2 DA68     		ldr	r2, [r3, #12]
 2689 00b4 A242     		cmp	r2, r4
 2690 00b6 53D0     		beq	.L390
 2691 00b8 1346     		mov	r3, r2
 2692 00ba F8E7     		b	.L356
 2693              	.LVL242:
 2694              	.L345:
 2695              		.loc 1 217 0 is_stmt 1
 2696 00bc 2C48     		ldr	r0, .L392+12
 2697              	.LVL243:
 2698 00be 2146     		mov	r1, r4
 2699 00c0 FFF7FEFF 		bl	tcp_pcb_remove
 2700              	.LVL244:
 2701              	.L377:
 2702              		.loc 1 218 0
 2703 00c4 2046     		mov	r0, r4
 2704 00c6 FFF7FEFF 		bl	free
 2705              	.LVL245:
 2706              		.loc 1 220 0
 2707 00ca B3E7     		b	.L378
 2708              	.LVL246:
ARM GAS  C:\Users\jo\AppData\Local\Temp\ccQTqoh0.s 			page 49


 2709              	.L346:
 2710              		.loc 1 223 0
 2711 00cc 2548     		ldr	r0, .L392
 2712              	.LVL247:
 2713 00ce 2146     		mov	r1, r4
 2714 00d0 FFF7FEFF 		bl	tcp_pcb_remove
 2715              	.LVL248:
 2716 00d4 274B     		ldr	r3, .L392+16
 2717 00d6 0122     		movs	r2, #1
 2718              		.loc 1 224 0
 2719 00d8 2046     		mov	r0, r4
 2720              		.loc 1 223 0
 2721 00da 1A70     		strb	r2, [r3]
 2722              		.loc 1 224 0
 2723 00dc FFF7FEFF 		bl	free
 2724              	.LVL249:
 2725              		.loc 1 227 0
 2726 00e0 A8E7     		b	.L378
 2727              	.LVL250:
 2728              	.L382:
 2729              		.loc 1 178 0 discriminator 1
 2730 00e2 254B     		ldr	r3, .L392+20
 2731 00e4 0093     		str	r3, [sp]
 2732 00e6 2549     		ldr	r1, .L392+24
 2733 00e8 254A     		ldr	r2, .L392+28
 2734 00ea 2648     		ldr	r0, .L392+32
 2735              	.LVL251:
 2736 00ec B223     		movs	r3, #178
 2737 00ee FFF7FEFF 		bl	chprintf.constprop.4
 2738              	.LVL252:
 2739              	.LBB183:
 2740              	.LBB184:
 2741              		.loc 3 416 0 discriminator 1
 2742 00f2 2348     		ldr	r0, .L392+28
 2743 00f4 FFF7FEFF 		bl	chSysHalt
 2744              	.LVL253:
 2745 00f8 AEE7     		b	.L331
 2746              	.LVL254:
 2747              	.L386:
 2748 00fa 0B60     		str	r3, [r1]
 2749              	.L335:
 2750              	.LBE184:
 2751              	.LBE183:
 2752              		.loc 1 186 0 discriminator 5
 2753 00fc E268     		ldr	r2, [r4, #12]
 2754 00fe DA60     		str	r2, [r3, #12]
 2755              	.L333:
 2756              		.loc 1 187 0 discriminator 10
 2757 0100 237E     		ldrb	r3, [r4, #24]	@ zero_extendqisi2
 2758              		.loc 1 186 0 discriminator 10
 2759 0102 1C4A     		ldr	r2, .L392+16
 2760 0104 0121     		movs	r1, #1
 2761 0106 0025     		movs	r5, #0
 2762              		.loc 1 187 0 discriminator 10
 2763 0108 042B     		cmp	r3, #4
 2764              		.loc 1 186 0 discriminator 10
 2765 010a 1170     		strb	r1, [r2]
ARM GAS  C:\Users\jo\AppData\Local\Temp\ccQTqoh0.s 			page 50


 2766 010c E560     		str	r5, [r4, #12]
 2767              		.loc 1 187 0 discriminator 10
 2768 010e 08D0     		beq	.L391
 2769              		.loc 1 193 0
 2770 0110 2046     		mov	r0, r4
 2771 0112 FFF7FEFF 		bl	free
 2772              	.LVL255:
 2773              		.loc 1 195 0
 2774 0116 2846     		mov	r0, r5
 2775 0118 40B2     		sxtb	r0, r0
 2776              		.loc 1 268 0
 2777 011a 03B0     		add	sp, sp, #12
 2778              		.cfi_remember_state
 2779              		.cfi_def_cfa_offset 12
 2780              		@ sp needed
 2781 011c 30BD     		pop	{r4, r5, pc}
 2782              	.LVL256:
 2783              	.L385:
 2784              		.cfi_restore_state
 2785 011e 0B60     		str	r3, [r1]
 2786 0120 EEE7     		b	.L333
 2787              	.L391:
 2788              		.loc 1 190 0
 2789 0122 194B     		ldr	r3, .L392+36
 2790              		.loc 1 189 0
 2791 0124 0A22     		movs	r2, #10
 2792              		.loc 1 190 0
 2793 0126 1968     		ldr	r1, [r3]
 2794 0128 E160     		str	r1, [r4, #12]
 2795              		.loc 1 189 0
 2796 012a 2276     		strb	r2, [r4, #24]
 2797              		.loc 1 190 0
 2798 012c 1C60     		str	r4, [r3]
 2799 012e FFF7FEFF 		bl	tcp_timer_needed
 2800              	.LVL257:
 2801              		.loc 1 195 0
 2802 0132 2846     		mov	r0, r5
 2803 0134 7FE7     		b	.L341
 2804              	.L383:
 2805              		.loc 1 186 0 discriminator 1
 2806 0136 E268     		ldr	r2, [r4, #12]
 2807 0138 1A60     		str	r2, [r3]
 2808 013a E1E7     		b	.L333
 2809              	.L384:
 2810              		.loc 1 186 0 is_stmt 0
 2811 013c 1346     		mov	r3, r2
 2812 013e DDE7     		b	.L335
 2813              	.LVL258:
 2814              	.L387:
 2815              		.loc 1 210 0 is_stmt 1 discriminator 1
 2816 0140 E268     		ldr	r2, [r4, #12]
 2817 0142 1A60     		str	r2, [r3]
 2818 0144 BEE7     		b	.L377
 2819              	.L388:
 2820              		.loc 1 210 0 is_stmt 0
 2821 0146 1346     		mov	r3, r2
 2822              	.L354:
ARM GAS  C:\Users\jo\AppData\Local\Temp\ccQTqoh0.s 			page 51


 2823              		.loc 1 210 0 discriminator 5
 2824 0148 E268     		ldr	r2, [r4, #12]
 2825 014a DA60     		str	r2, [r3, #12]
 2826 014c BAE7     		b	.L377
 2827              	.LVL259:
 2828              	.L381:
 2829              		.loc 1 175 0 is_stmt 1 discriminator 1
 2830 014e A18D     		ldrh	r1, [r4, #44]
 2831              	.LVL260:
 2832 0150 41F2D062 		movw	r2, #5840
 2833 0154 9142     		cmp	r1, r2
 2834 0156 7FF47CAF 		bne	.L330
 2835 015a 5AE7     		b	.L329
 2836              	.LVL261:
 2837              	.L389:
 2838 015c 0B60     		str	r3, [r1]
 2839 015e B1E7     		b	.L377
 2840              	.L390:
 2841 0160 0B60     		str	r3, [r1]
 2842 0162 F1E7     		b	.L354
 2843              	.L393:
 2844              		.align	2
 2845              	.L392:
 2846 0164 00000000 		.word	.LANCHOR7
 2847 0168 00000000 		.word	.LANCHOR3
 2848 016c 00000000 		.word	.LANCHOR2
 2849 0170 00000000 		.word	.LANCHOR4
 2850 0174 00000000 		.word	.LANCHOR11
 2851 0178 50000000 		.word	.LC2
 2852 017c 00000000 		.word	.LC0
 2853 0180 44030000 		.word	.LC22
 2854 0184 00000000 		.word	itm_port
 2855 0188 00000000 		.word	.LANCHOR8
 2856              		.cfi_endproc
 2857              	.LFE262:
 2858              		.size	tcp_close_shutdown, .-tcp_close_shutdown
 2859 018c AFF30080 		.section	.text.tcp_close,"ax",%progbits
 2860              		.align	2
 2861              		.p2align 4,,15
 2862              		.global	tcp_close
 2863              		.thumb
 2864              		.thumb_func
 2865              		.type	tcp_close, %function
 2866              	tcp_close:
 2867              	.LFB263:
 2868              		.loc 1 286 0
 2869              		.cfi_startproc
 2870              		@ args = 0, pretend = 0, frame = 0
 2871              		@ frame_needed = 0, uses_anonymous_args = 0
 2872              		@ link register save eliminated.
 2873              	.LVL262:
 2874              		.loc 1 292 0
 2875 0000 037E     		ldrb	r3, [r0, #24]	@ zero_extendqisi2
 2876 0002 012B     		cmp	r3, #1
 2877 0004 03D0     		beq	.L395
 2878              		.loc 1 294 0
 2879 0006 837F     		ldrb	r3, [r0, #30]	@ zero_extendqisi2
ARM GAS  C:\Users\jo\AppData\Local\Temp\ccQTqoh0.s 			page 52


 2880 0008 43F01003 		orr	r3, r3, #16
 2881 000c 8377     		strb	r3, [r0, #30]
 2882              	.L395:
 2883              		.loc 1 297 0
 2884 000e 0121     		movs	r1, #1
 2885 0010 FFF7FEBF 		b	tcp_close_shutdown
 2886              	.LVL263:
 2887              		.cfi_endproc
 2888              	.LFE263:
 2889              		.size	tcp_close, .-tcp_close
 2890 0014 AFF30080 		.section	.text.tcp_recv_null,"ax",%progbits
 2890      AFF30080 
 2890      AFF30080 
 2891              		.align	2
 2892              		.p2align 4,,15
 2893              		.global	tcp_recv_null
 2894              		.thumb
 2895              		.thumb_func
 2896              		.type	tcp_recv_null, %function
 2897              	tcp_recv_null:
 2898              	.LFB281:
 2899              		.loc 1 1198 0
 2900              		.cfi_startproc
 2901              		@ args = 0, pretend = 0, frame = 0
 2902              		@ frame_needed = 0, uses_anonymous_args = 0
 2903              	.LVL264:
 2904              		.loc 1 1200 0
 2905 0000 52B1     		cbz	r2, .L400
 2906              		.loc 1 1198 0
 2907 0002 10B5     		push	{r4, lr}
 2908              		.cfi_def_cfa_offset 8
 2909              		.cfi_offset 4, -8
 2910              		.cfi_offset 14, -4
 2911 0004 0846     		mov	r0, r1
 2912              	.LVL265:
 2913 0006 1446     		mov	r4, r2
 2914              		.loc 1 1201 0
 2915 0008 1189     		ldrh	r1, [r2, #8]
 2916              	.LVL266:
 2917 000a FFF7FEFF 		bl	tcp_recved
 2918              	.LVL267:
 2919              		.loc 1 1202 0
 2920 000e 2046     		mov	r0, r4
 2921 0010 FFF7FEFF 		bl	pbuf_free
 2922              	.LVL268:
 2923              		.loc 1 1207 0
 2924 0014 0020     		movs	r0, #0
 2925 0016 10BD     		pop	{r4, pc}
 2926              	.LVL269:
 2927              	.L400:
 2928              		.cfi_def_cfa_offset 0
 2929              		.cfi_restore 4
 2930              		.cfi_restore 14
 2931              	.LBB187:
 2932              	.LBB188:
 2933              		.loc 1 1203 0
 2934 0018 0BB1     		cbz	r3, .L405
ARM GAS  C:\Users\jo\AppData\Local\Temp\ccQTqoh0.s 			page 53


 2935              	.LBE188:
 2936              	.LBE187:
 2937              		.loc 1 1207 0
 2938 001a 0020     		movs	r0, #0
 2939              	.LVL270:
 2940 001c 7047     		bx	lr
 2941              	.LVL271:
 2942              	.L405:
 2943              	.LBB190:
 2944              	.LBB189:
 2945              		.loc 1 1204 0
 2946 001e 0846     		mov	r0, r1
 2947              	.LVL272:
 2948 0020 FFF7FEBF 		b	tcp_close
 2949              	.LVL273:
 2950              	.LBE189:
 2951              	.LBE190:
 2952              		.cfi_endproc
 2953              	.LFE281:
 2954              		.size	tcp_recv_null, .-tcp_recv_null
 2955 0024 AFF30080 		.section	.text.tcp_process_refused_data,"ax",%progbits
 2955      AFF30080 
 2955      AFF30080 
 2956              		.align	2
 2957              		.p2align 4,,15
 2958              		.global	tcp_process_refused_data
 2959              		.thumb
 2960              		.thumb_func
 2961              		.type	tcp_process_refused_data, %function
 2962              	tcp_process_refused_data:
 2963              	.LFB276:
 2964              		.loc 1 1086 0
 2965              		.cfi_startproc
 2966              		@ args = 0, pretend = 0, frame = 0
 2967              		@ frame_needed = 0, uses_anonymous_args = 0
 2968              	.LVL274:
 2969 0000 F8B5     		push	{r3, r4, r5, r6, r7, lr}
 2970              		.cfi_def_cfa_offset 24
 2971              		.cfi_offset 3, -24
 2972              		.cfi_offset 4, -20
 2973              		.cfi_offset 5, -16
 2974              		.cfi_offset 6, -12
 2975              		.cfi_offset 7, -8
 2976              		.cfi_offset 14, -4
 2977              		.loc 1 1088 0
 2978 0002 856F     		ldr	r5, [r0, #120]
 2979              		.loc 1 1095 0
 2980 0004 D0F88060 		ldr	r6, [r0, #128]
 2981              		.loc 1 1088 0
 2982 0008 6F7B     		ldrb	r7, [r5, #13]	@ zero_extendqisi2
 2983              	.LVL275:
 2984              		.loc 1 1092 0
 2985 000a 0023     		movs	r3, #0
 2986              		.loc 1 1086 0
 2987 000c 0446     		mov	r4, r0
 2988              		.loc 1 1092 0
 2989 000e 8367     		str	r3, [r0, #120]
ARM GAS  C:\Users\jo\AppData\Local\Temp\ccQTqoh0.s 			page 54


 2990              		.loc 1 1095 0
 2991 0010 0EB3     		cbz	r6, .L407
 2992              		.loc 1 1095 0 is_stmt 0 discriminator 1
 2993 0012 0069     		ldr	r0, [r0, #16]
 2994              	.LVL276:
 2995 0014 2146     		mov	r1, r4
 2996 0016 2A46     		mov	r2, r5
 2997 0018 B047     		blx	r6
 2998              	.LVL277:
 2999              	.L408:
 3000              		.loc 1 1096 0 is_stmt 1
 3001 001a A8B9     		cbnz	r0, .L409
 3002              		.loc 1 1098 0
 3003 001c BB06     		lsls	r3, r7, #26
 3004 001e 10D5     		bpl	.L415
 3005              	.LVL278:
 3006              	.LBB193:
 3007              	.LBB194:
 3008              		.loc 1 1101 0
 3009 0020 A38D     		ldrh	r3, [r4, #44]
 3010              		.loc 1 1104 0
 3011 0022 D4F88050 		ldr	r5, [r4, #128]
 3012              	.LVL279:
 3013              		.loc 1 1101 0
 3014 0026 41F2D062 		movw	r2, #5840
 3015 002a 9342     		cmp	r3, r2
 3016              		.loc 1 1102 0
 3017 002c 1CBF     		itt	ne
 3018 002e 0133     		addne	r3, r3, #1
 3019 0030 A385     		strhne	r3, [r4, #44]	@ movhi
 3020              		.loc 1 1104 0
 3021 0032 35B1     		cbz	r5, .L415
 3022 0034 0022     		movs	r2, #0
 3023 0036 1346     		mov	r3, r2
 3024 0038 2069     		ldr	r0, [r4, #16]
 3025              	.LVL280:
 3026 003a 2146     		mov	r1, r4
 3027 003c A847     		blx	r5
 3028              	.LVL281:
 3029              		.loc 1 1105 0
 3030 003e 0A30     		adds	r0, r0, #10
 3031              	.LVL282:
 3032 0040 10D0     		beq	.L414
 3033              	.LVL283:
 3034              	.L415:
 3035              		.loc 1 1119 0
 3036 0042 0020     		movs	r0, #0
 3037              	.LBE194:
 3038              	.LBE193:
 3039              		.loc 1 1120 0
 3040 0044 40B2     		sxtb	r0, r0
 3041 0046 F8BD     		pop	{r3, r4, r5, r6, r7, pc}
 3042              	.LVL284:
 3043              	.L409:
 3044              		.loc 1 1109 0
 3045 0048 40B2     		sxtb	r0, r0
 3046 004a 0A30     		adds	r0, r0, #10
ARM GAS  C:\Users\jo\AppData\Local\Temp\ccQTqoh0.s 			page 55


 3047              	.LVL285:
 3048 004c 0AD0     		beq	.L414
 3049              		.loc 1 1117 0
 3050 004e A567     		str	r5, [r4, #120]
 3051              		.loc 1 1119 0
 3052 0050 0020     		movs	r0, #0
 3053              	.LVL286:
 3054              	.L411:
 3055              		.loc 1 1120 0
 3056 0052 40B2     		sxtb	r0, r0
 3057 0054 F8BD     		pop	{r3, r4, r5, r6, r7, pc}
 3058              	.LVL287:
 3059              	.L407:
 3060              		.loc 1 1095 0 discriminator 2
 3061 0056 3046     		mov	r0, r6
 3062              	.LVL288:
 3063 0058 3346     		mov	r3, r6
 3064 005a 2146     		mov	r1, r4
 3065 005c 2A46     		mov	r2, r5
 3066 005e FFF7FEFF 		bl	tcp_recv_null
 3067              	.LVL289:
 3068 0062 DAE7     		b	.L408
 3069              	.LVL290:
 3070              	.L414:
 3071              	.LBB196:
 3072              	.LBB195:
 3073              		.loc 1 1106 0
 3074 0064 F620     		movs	r0, #246
 3075 0066 F4E7     		b	.L411
 3076              	.LBE195:
 3077              	.LBE196:
 3078              		.cfi_endproc
 3079              	.LFE276:
 3080              		.size	tcp_process_refused_data, .-tcp_process_refused_data
 3081 0068 AFF30080 		.section	.text.tcp_fasttmr,"ax",%progbits
 3081      AFF30080 
 3082              		.align	2
 3083              		.p2align 4,,15
 3084              		.global	tcp_fasttmr
 3085              		.thumb
 3086              		.thumb_func
 3087              		.type	tcp_fasttmr, %function
 3088              	tcp_fasttmr:
 3089              	.LFB275:
 3090              		.loc 1 1047 0
 3091              		.cfi_startproc
 3092              		@ args = 0, pretend = 0, frame = 0
 3093              		@ frame_needed = 0, uses_anonymous_args = 0
 3094 0000 2DE9F041 		push	{r4, r5, r6, r7, r8, lr}
 3095              		.cfi_def_cfa_offset 24
 3096              		.cfi_offset 4, -24
 3097              		.cfi_offset 5, -20
 3098              		.cfi_offset 6, -16
 3099              		.cfi_offset 7, -12
 3100              		.cfi_offset 8, -8
 3101              		.cfi_offset 14, -4
 3102              		.loc 1 1050 0
ARM GAS  C:\Users\jo\AppData\Local\Temp\ccQTqoh0.s 			page 56


 3103 0004 174D     		ldr	r5, .L438
 3104 0006 184F     		ldr	r7, .L438+4
 3105 0008 2B78     		ldrb	r3, [r5]	@ zero_extendqisi2
 3106              	.LBB197:
 3107              		.loc 1 1071 0
 3108 000a DFF86080 		ldr	r8, .L438+8
 3109              	.LBE197:
 3110              		.loc 1 1050 0
 3111 000e 0133     		adds	r3, r3, #1
 3112 0010 2B70     		strb	r3, [r5]
 3113              	.LBB198:
 3114              		.loc 1 1071 0
 3115 0012 0026     		movs	r6, #0
 3116              	.L424:
 3117              	.LBE198:
 3118              		.loc 1 1053 0
 3119 0014 3C68     		ldr	r4, [r7]
 3120              	.LVL291:
 3121              	.L425:
 3122              		.loc 1 1055 0
 3123 0016 2CB1     		cbz	r4, .L423
 3124              		.loc 1 1056 0
 3125 0018 2B78     		ldrb	r3, [r5]	@ zero_extendqisi2
 3126 001a 94F82120 		ldrb	r2, [r4, #33]	@ zero_extendqisi2
 3127 001e 9A42     		cmp	r2, r3
 3128 0020 02D1     		bne	.L431
 3129              	.L426:
 3130 0022 FEE7     		b	.L426
 3131              	.L423:
 3132 0024 BDE8F081 		pop	{r4, r5, r6, r7, r8, pc}
 3133              	.L431:
 3134              	.LBB199:
 3135              		.loc 1 1060 0
 3136 0028 A27F     		ldrb	r2, [r4, #30]	@ zero_extendqisi2
 3137              		.loc 1 1058 0
 3138 002a 84F82130 		strb	r3, [r4, #33]
 3139              		.loc 1 1060 0
 3140 002e D307     		lsls	r3, r2, #31
 3141 0030 0DD4     		bmi	.L437
 3142              	.L427:
 3143              		.loc 1 1070 0
 3144 0032 A36F     		ldr	r3, [r4, #120]
 3145              		.loc 1 1072 0
 3146 0034 2046     		mov	r0, r4
 3147              		.loc 1 1067 0
 3148 0036 E468     		ldr	r4, [r4, #12]
 3149              	.LVL292:
 3150              		.loc 1 1070 0
 3151 0038 002B     		cmp	r3, #0
 3152 003a ECD0     		beq	.L425
 3153              		.loc 1 1071 0
 3154 003c 88F80060 		strb	r6, [r8]
 3155              		.loc 1 1072 0
 3156 0040 FFF7FEFF 		bl	tcp_process_refused_data
 3157              	.LVL293:
 3158              		.loc 1 1073 0
 3159 0044 98F80030 		ldrb	r3, [r8]	@ zero_extendqisi2
ARM GAS  C:\Users\jo\AppData\Local\Temp\ccQTqoh0.s 			page 57


 3160 0048 002B     		cmp	r3, #0
 3161 004a E4D0     		beq	.L425
 3162 004c E2E7     		b	.L424
 3163              	.LVL294:
 3164              	.L437:
 3165              		.loc 1 1062 0
 3166 004e 42F00202 		orr	r2, r2, #2
 3167 0052 A277     		strb	r2, [r4, #30]
 3168              		.loc 1 1063 0
 3169 0054 2046     		mov	r0, r4
 3170 0056 FFF7FEFF 		bl	tcp_output
 3171              	.LVL295:
 3172              		.loc 1 1064 0
 3173 005a A37F     		ldrb	r3, [r4, #30]	@ zero_extendqisi2
 3174 005c 23F00303 		bic	r3, r3, #3
 3175 0060 A377     		strb	r3, [r4, #30]
 3176 0062 E6E7     		b	.L427
 3177              	.L439:
 3178              		.align	2
 3179              	.L438:
 3180 0064 00000000 		.word	.LANCHOR6
 3181 0068 00000000 		.word	.LANCHOR7
 3182 006c 00000000 		.word	.LANCHOR11
 3183              	.LBE199:
 3184              		.cfi_endproc
 3185              	.LFE275:
 3186              		.size	tcp_fasttmr, .-tcp_fasttmr
 3187              		.section	.text.tcp_tmr,"ax",%progbits
 3188              		.align	2
 3189              		.p2align 4,,15
 3190              		.global	tcp_tmr
 3191              		.thumb
 3192              		.thumb_func
 3193              		.type	tcp_tmr, %function
 3194              	tcp_tmr:
 3195              	.LFB261:
 3196              		.loc 1 142 0
 3197              		.cfi_startproc
 3198              		@ args = 0, pretend = 0, frame = 0
 3199              		@ frame_needed = 0, uses_anonymous_args = 0
 3200 0000 08B5     		push	{r3, lr}
 3201              		.cfi_def_cfa_offset 8
 3202              		.cfi_offset 3, -8
 3203              		.cfi_offset 14, -4
 3204              		.loc 1 144 0
 3205 0002 FFF7FEFF 		bl	tcp_fasttmr
 3206              	.LVL296:
 3207              		.loc 1 146 0
 3208 0006 064A     		ldr	r2, .L444
 3209 0008 1378     		ldrb	r3, [r2]	@ zero_extendqisi2
 3210 000a 0133     		adds	r3, r3, #1
 3211 000c DBB2     		uxtb	r3, r3
 3212 000e 1370     		strb	r3, [r2]
 3213 0010 DB07     		lsls	r3, r3, #31
 3214 0012 00D4     		bmi	.L443
 3215 0014 08BD     		pop	{r3, pc}
 3216              	.L443:
ARM GAS  C:\Users\jo\AppData\Local\Temp\ccQTqoh0.s 			page 58


 3217              		.loc 1 151 0
 3218 0016 BDE80840 		pop	{r3, lr}
 3219              		.cfi_restore 14
 3220              		.cfi_restore 3
 3221              		.cfi_def_cfa_offset 0
 3222              		.loc 1 149 0
 3223 001a FFF7FEBF 		b	tcp_slowtmr
 3224              	.LVL297:
 3225              	.L445:
 3226 001e 00BF     		.align	2
 3227              	.L444:
 3228 0020 00000000 		.word	.LANCHOR12
 3229              		.cfi_endproc
 3230              	.LFE261:
 3231              		.size	tcp_tmr, .-tcp_tmr
 3232 0024 AFF30080 		.section	.text.tcp_shutdown,"ax",%progbits
 3232      AFF30080 
 3232      AFF30080 
 3233              		.align	2
 3234              		.p2align 4,,15
 3235              		.global	tcp_shutdown
 3236              		.thumb
 3237              		.thumb_func
 3238              		.type	tcp_shutdown, %function
 3239              	tcp_shutdown:
 3240              	.LFB264:
 3241              		.loc 1 314 0
 3242              		.cfi_startproc
 3243              		@ args = 0, pretend = 0, frame = 0
 3244              		@ frame_needed = 0, uses_anonymous_args = 0
 3245              	.LVL298:
 3246 0000 38B5     		push	{r3, r4, r5, lr}
 3247              		.cfi_def_cfa_offset 16
 3248              		.cfi_offset 3, -16
 3249              		.cfi_offset 4, -12
 3250              		.cfi_offset 5, -8
 3251              		.cfi_offset 14, -4
 3252              		.loc 1 315 0
 3253 0002 037E     		ldrb	r3, [r0, #24]	@ zero_extendqisi2
 3254 0004 012B     		cmp	r3, #1
 3255              		.loc 1 314 0
 3256 0006 0546     		mov	r5, r0
 3257              		.loc 1 315 0
 3258 0008 23D0     		beq	.L454
 3259              		.loc 1 318 0
 3260 000a 69B1     		cbz	r1, .L448
 3261              		.loc 1 320 0
 3262 000c 837F     		ldrb	r3, [r0, #30]	@ zero_extendqisi2
 3263 000e 43F01003 		orr	r3, r3, #16
 3264 0012 8377     		strb	r3, [r0, #30]
 3265              		.loc 1 321 0
 3266 0014 C2B9     		cbnz	r2, .L460
 3267              		.loc 1 326 0
 3268 0016 806F     		ldr	r0, [r0, #120]
 3269              	.LVL299:
 3270 0018 18B1     		cbz	r0, .L450
 3271 001a 1446     		mov	r4, r2
ARM GAS  C:\Users\jo\AppData\Local\Temp\ccQTqoh0.s 			page 59


 3272              		.loc 1 327 0
 3273 001c FFF7FEFF 		bl	pbuf_free
 3274              	.LVL300:
 3275              		.loc 1 328 0
 3276 0020 AC67     		str	r4, [r5, #120]
 3277              	.LVL301:
 3278              	.L450:
 3279              		.loc 1 345 0
 3280 0022 0020     		movs	r0, #0
 3281              	.L447:
 3282 0024 40B2     		sxtb	r0, r0
 3283              		.loc 1 346 0
 3284 0026 38BD     		pop	{r3, r4, r5, pc}
 3285              	.LVL302:
 3286              	.L448:
 3287              		.loc 1 331 0
 3288 0028 002A     		cmp	r2, #0
 3289 002a FAD0     		beq	.L450
 3290 002c 033B     		subs	r3, r3, #3
 3291 002e DBB2     		uxtb	r3, r3
 3292 0030 042B     		cmp	r3, #4
 3293 0032 0ED8     		bhi	.L454
 3294 0034 0122     		movs	r2, #1
 3295              	.LVL303:
 3296 0036 02FA03F3 		lsl	r3, r2, r3
 3297 003a 13F0130F 		tst	r3, #19
 3298 003e 08D0     		beq	.L454
 3299              		.loc 1 346 0
 3300 0040 BDE83840 		pop	{r3, r4, r5, lr}
 3301              		.cfi_remember_state
 3302              		.cfi_restore 14
 3303              		.cfi_restore 5
 3304              		.cfi_restore 4
 3305              		.cfi_restore 3
 3306              		.cfi_def_cfa_offset 0
 3307              		.loc 1 338 0
 3308 0044 FFF7FEBF 		b	tcp_close_shutdown
 3309              	.LVL304:
 3310              	.L460:
 3311              		.cfi_restore_state
 3312              		.loc 1 323 0
 3313 0048 0121     		movs	r1, #1
 3314              	.LVL305:
 3315              		.loc 1 346 0
 3316 004a BDE83840 		pop	{r3, r4, r5, lr}
 3317              		.cfi_remember_state
 3318              		.cfi_restore 14
 3319              		.cfi_restore 5
 3320              		.cfi_restore 4
 3321              		.cfi_restore 3
 3322              		.cfi_def_cfa_offset 0
 3323              		.loc 1 323 0
 3324 004e FFF7FEBF 		b	tcp_close_shutdown
 3325              	.LVL306:
 3326              	.L454:
 3327              		.cfi_restore_state
 3328              		.loc 1 316 0
ARM GAS  C:\Users\jo\AppData\Local\Temp\ccQTqoh0.s 			page 60


 3329 0052 F320     		movs	r0, #243
 3330              	.LVL307:
 3331 0054 E6E7     		b	.L447
 3332              		.cfi_endproc
 3333              	.LFE264:
 3334              		.size	tcp_shutdown, .-tcp_shutdown
 3335 0056 00BFAFF3 		.section	.text.tcp_abandon,"ax",%progbits
 3335      0080AFF3 
 3335      0080
 3336              		.align	2
 3337              		.p2align 4,,15
 3338              		.global	tcp_abandon
 3339              		.thumb
 3340              		.thumb_func
 3341              		.type	tcp_abandon, %function
 3342              	tcp_abandon:
 3343              	.LFB265:
 3344              		.loc 1 358 0
 3345              		.cfi_startproc
 3346              		@ args = 0, pretend = 0, frame = 0
 3347              		@ frame_needed = 0, uses_anonymous_args = 0
 3348              	.LVL308:
 3349 0000 2DE9F047 		push	{r4, r5, r6, r7, r8, r9, r10, lr}
 3350              		.cfi_def_cfa_offset 32
 3351              		.cfi_offset 4, -32
 3352              		.cfi_offset 5, -28
 3353              		.cfi_offset 6, -24
 3354              		.cfi_offset 7, -20
 3355              		.cfi_offset 8, -16
 3356              		.cfi_offset 9, -12
 3357              		.cfi_offset 10, -8
 3358              		.cfi_offset 14, -4
 3359              		.loc 1 366 0
 3360 0004 037E     		ldrb	r3, [r0, #24]	@ zero_extendqisi2
 3361 0006 012B     		cmp	r3, #1
 3362              		.loc 1 358 0
 3363 0008 82B0     		sub	sp, sp, #8
 3364              		.cfi_def_cfa_offset 40
 3365              		.loc 1 358 0
 3366 000a 0446     		mov	r4, r0
 3367 000c 0E46     		mov	r6, r1
 3368              		.loc 1 366 0
 3369 000e 53D0     		beq	.L481
 3370              	.LVL309:
 3371              	.L462:
 3372              		.loc 1 371 0
 3373 0010 0A2B     		cmp	r3, #10
 3374 0012 47D0     		beq	.L482
 3375              		.loc 1 381 0
 3376 0014 2F48     		ldr	r0, .L485
 3377              		.loc 1 375 0
 3378 0016 D4F85090 		ldr	r9, [r4, #80]
 3379              	.LVL310:
 3380              		.loc 1 376 0
 3381 001a D4F82880 		ldr	r8, [r4, #40]
 3382              	.LVL311:
 3383              		.loc 1 378 0
ARM GAS  C:\Users\jo\AppData\Local\Temp\ccQTqoh0.s 			page 61


 3384 001e D4F88C50 		ldr	r5, [r4, #140]
 3385              	.LVL312:
 3386              		.loc 1 380 0
 3387 0022 2769     		ldr	r7, [r4, #16]
 3388              	.LVL313:
 3389              		.loc 1 381 0
 3390 0024 2146     		mov	r1, r4
 3391 0026 FFF7FEFF 		bl	tcp_pcb_remove
 3392              	.LVL314:
 3393 002a 2B4B     		ldr	r3, .L485+4
 3394              		.loc 1 382 0
 3395 002c 206F     		ldr	r0, [r4, #112]
 3396              		.loc 1 381 0
 3397 002e 0122     		movs	r2, #1
 3398 0030 1A70     		strb	r2, [r3]
 3399              		.loc 1 382 0
 3400 0032 30B1     		cbz	r0, .L468
 3401              	.L467:
 3402              	.LVL315:
 3403              	.LBB200:
 3404              	.LBB201:
 3405              	.LBB202:
 3406              		.loc 1 1131 0
 3407 0034 D0F800A0 		ldr	r10, [r0]
 3408              	.LVL316:
 3409              		.loc 1 1132 0
 3410 0038 FFF7FEFF 		bl	tcp_seg_free
 3411              	.LVL317:
 3412              	.LBE202:
 3413              		.loc 1 1130 0
 3414 003c 5046     		mov	r0, r10
 3415 003e 0028     		cmp	r0, #0
 3416 0040 F8D1     		bne	.L467
 3417              	.LVL318:
 3418              	.L468:
 3419              	.LBE201:
 3420              	.LBE200:
 3421              		.loc 1 385 0
 3422 0042 E06E     		ldr	r0, [r4, #108]
 3423 0044 30B1     		cbz	r0, .L466
 3424              	.L471:
 3425              	.LVL319:
 3426              	.LBB203:
 3427              	.LBB204:
 3428              	.LBB205:
 3429              		.loc 1 1131 0
 3430 0046 D0F800A0 		ldr	r10, [r0]
 3431              	.LVL320:
 3432              		.loc 1 1132 0
 3433 004a FFF7FEFF 		bl	tcp_seg_free
 3434              	.LVL321:
 3435              	.LBE205:
 3436              		.loc 1 1130 0
 3437 004e 5046     		mov	r0, r10
 3438 0050 0028     		cmp	r0, #0
 3439 0052 F8D1     		bne	.L471
 3440              	.LVL322:
ARM GAS  C:\Users\jo\AppData\Local\Temp\ccQTqoh0.s 			page 62


 3441              	.L466:
 3442              	.LBE204:
 3443              	.LBE203:
 3444              		.loc 1 389 0
 3445 0054 606F     		ldr	r0, [r4, #116]
 3446 0056 30B1     		cbz	r0, .L470
 3447              	.L474:
 3448              	.LVL323:
 3449              	.LBB206:
 3450              	.LBB207:
 3451              	.LBB208:
 3452              		.loc 1 1131 0
 3453 0058 D0F800A0 		ldr	r10, [r0]
 3454              	.LVL324:
 3455              		.loc 1 1132 0
 3456 005c FFF7FEFF 		bl	tcp_seg_free
 3457              	.LVL325:
 3458              	.LBE208:
 3459              		.loc 1 1130 0
 3460 0060 5046     		mov	r0, r10
 3461 0062 0028     		cmp	r0, #0
 3462 0064 F8D1     		bne	.L474
 3463              	.LVL326:
 3464              	.L470:
 3465              	.LBE207:
 3466              	.LBE206:
 3467              		.loc 1 393 0
 3468 0066 5EB9     		cbnz	r6, .L483
 3469              		.loc 1 397 0
 3470 0068 2046     		mov	r0, r4
 3471 006a FFF7FEFF 		bl	free
 3472              	.LVL327:
 3473              		.loc 1 398 0
 3474 006e B5B1     		cbz	r5, .L461
 3475              	.L484:
 3476              		.loc 1 398 0 is_stmt 0 discriminator 1
 3477 0070 3846     		mov	r0, r7
 3478 0072 6FF00901 		mvn	r1, #9
 3479 0076 2B46     		mov	r3, r5
 3480              		.loc 1 400 0 is_stmt 1 discriminator 1
 3481 0078 02B0     		add	sp, sp, #8
 3482              		.cfi_remember_state
 3483              		.cfi_def_cfa_offset 32
 3484              		@ sp needed
 3485 007a BDE8F047 		pop	{r4, r5, r6, r7, r8, r9, r10, lr}
 3486              		.cfi_restore 14
 3487              		.cfi_restore 10
 3488              		.cfi_restore 9
 3489              		.cfi_restore 8
 3490              		.cfi_restore 7
 3491              		.cfi_restore 6
 3492              		.cfi_restore 5
 3493              		.cfi_restore 4
 3494              		.cfi_def_cfa_offset 0
 3495              	.LVL328:
 3496              		.loc 1 398 0 discriminator 1
 3497 007e 1847     		bx	r3	@ indirect register sibling call
ARM GAS  C:\Users\jo\AppData\Local\Temp\ccQTqoh0.s 			page 63


 3498              	.LVL329:
 3499              	.L483:
 3500              		.cfi_restore_state
 3501              		.loc 1 395 0
 3502 0080 628B     		ldrh	r2, [r4, #26]
 3503 0082 A38B     		ldrh	r3, [r4, #28]
 3504 0084 0193     		str	r3, [sp, #4]
 3505 0086 0092     		str	r2, [sp]
 3506 0088 4846     		mov	r0, r9
 3507 008a 4146     		mov	r1, r8
 3508 008c 2246     		mov	r2, r4
 3509 008e 231D     		adds	r3, r4, #4
 3510 0090 FFF7FEFF 		bl	tcp_rst
 3511              	.LVL330:
 3512              		.loc 1 397 0
 3513 0094 2046     		mov	r0, r4
 3514 0096 FFF7FEFF 		bl	free
 3515              	.LVL331:
 3516              		.loc 1 398 0
 3517 009a 002D     		cmp	r5, #0
 3518 009c E8D1     		bne	.L484
 3519              	.L461:
 3520              		.loc 1 400 0
 3521 009e 02B0     		add	sp, sp, #8
 3522              		.cfi_remember_state
 3523              		.cfi_def_cfa_offset 32
 3524              		@ sp needed
 3525 00a0 BDE8F087 		pop	{r4, r5, r6, r7, r8, r9, r10, pc}
 3526              	.LVL332:
 3527              	.L482:
 3528              		.cfi_restore_state
 3529              		.loc 1 372 0
 3530 00a4 0D48     		ldr	r0, .L485+8
 3531 00a6 2146     		mov	r1, r4
 3532 00a8 FFF7FEFF 		bl	tcp_pcb_remove
 3533              	.LVL333:
 3534              		.loc 1 373 0
 3535 00ac 2046     		mov	r0, r4
 3536              		.loc 1 400 0
 3537 00ae 02B0     		add	sp, sp, #8
 3538              		.cfi_remember_state
 3539              		.cfi_def_cfa_offset 32
 3540              		@ sp needed
 3541 00b0 BDE8F047 		pop	{r4, r5, r6, r7, r8, r9, r10, lr}
 3542              		.cfi_restore 14
 3543              		.cfi_restore 10
 3544              		.cfi_restore 9
 3545              		.cfi_restore 8
 3546              		.cfi_restore 7
 3547              		.cfi_restore 6
 3548              		.cfi_restore 5
 3549              		.cfi_restore 4
 3550              		.cfi_def_cfa_offset 0
 3551              	.LVL334:
 3552              		.loc 1 373 0
 3553 00b4 FFF7FEBF 		b	free
 3554              	.LVL335:
ARM GAS  C:\Users\jo\AppData\Local\Temp\ccQTqoh0.s 			page 64


 3555              	.L481:
 3556              		.cfi_restore_state
 3557              		.loc 1 366 0 discriminator 1
 3558 00b8 094B     		ldr	r3, .L485+12
 3559 00ba 0093     		str	r3, [sp]
 3560 00bc 0949     		ldr	r1, .L485+16
 3561              	.LVL336:
 3562 00be 0A4A     		ldr	r2, .L485+20
 3563 00c0 0A48     		ldr	r0, .L485+24
 3564              	.LVL337:
 3565 00c2 40F26F13 		movw	r3, #367
 3566 00c6 FFF7FEFF 		bl	chprintf.constprop.4
 3567              	.LVL338:
 3568              	.LBB209:
 3569              	.LBB210:
 3570              		.loc 3 416 0 discriminator 1
 3571 00ca 0748     		ldr	r0, .L485+20
 3572 00cc FFF7FEFF 		bl	chSysHalt
 3573              	.LVL339:
 3574 00d0 237E     		ldrb	r3, [r4, #24]	@ zero_extendqisi2
 3575 00d2 9DE7     		b	.L462
 3576              	.L486:
 3577              		.align	2
 3578              	.L485:
 3579 00d4 00000000 		.word	.LANCHOR7
 3580 00d8 00000000 		.word	.LANCHOR11
 3581 00dc 00000000 		.word	.LANCHOR8
 3582 00e0 50000000 		.word	.LC2
 3583 00e4 00000000 		.word	.LC0
 3584 00e8 60030000 		.word	.LC23
 3585 00ec 00000000 		.word	itm_port
 3586              	.LBE210:
 3587              	.LBE209:
 3588              		.cfi_endproc
 3589              	.LFE265:
 3590              		.size	tcp_abandon, .-tcp_abandon
 3591              		.section	.text.tcp_abort,"ax",%progbits
 3592              		.align	2
 3593              		.p2align 4,,15
 3594              		.global	tcp_abort
 3595              		.thumb
 3596              		.thumb_func
 3597              		.type	tcp_abort, %function
 3598              	tcp_abort:
 3599              	.LFB266:
 3600              		.loc 1 414 0
 3601              		.cfi_startproc
 3602              		@ args = 0, pretend = 0, frame = 0
 3603              		@ frame_needed = 0, uses_anonymous_args = 0
 3604              		@ link register save eliminated.
 3605              	.LVL340:
 3606              		.loc 1 415 0
 3607 0000 0121     		movs	r1, #1
 3608 0002 FFF7FEBF 		b	tcp_abandon
 3609              	.LVL341:
 3610              		.cfi_endproc
 3611              	.LFE266:
ARM GAS  C:\Users\jo\AppData\Local\Temp\ccQTqoh0.s 			page 65


 3612              		.size	tcp_abort, .-tcp_abort
 3613 0006 00BFAFF3 		.section	.text.tcp_alloc,"ax",%progbits
 3613      0080AFF3 
 3613      0080
 3614              		.align	2
 3615              		.p2align 4,,15
 3616              		.global	tcp_alloc
 3617              		.thumb
 3618              		.thumb_func
 3619              		.type	tcp_alloc, %function
 3620              	tcp_alloc:
 3621              	.LFB284:
 3622              		.loc 1 1279 0
 3623              		.cfi_startproc
 3624              		@ args = 0, pretend = 0, frame = 0
 3625              		@ frame_needed = 0, uses_anonymous_args = 0
 3626              	.LVL342:
 3627 0000 2DE9F84F 		push	{r3, r4, r5, r6, r7, r8, r9, r10, fp, lr}
 3628              		.cfi_def_cfa_offset 40
 3629              		.cfi_offset 3, -40
 3630              		.cfi_offset 4, -36
 3631              		.cfi_offset 5, -32
 3632              		.cfi_offset 6, -28
 3633              		.cfi_offset 7, -24
 3634              		.cfi_offset 8, -20
 3635              		.cfi_offset 9, -16
 3636              		.cfi_offset 10, -12
 3637              		.cfi_offset 11, -8
 3638              		.cfi_offset 14, -4
 3639              		.loc 1 1283 0
 3640 0004 4A4B     		ldr	r3, .L515
 3641 0006 5D88     		ldrh	r5, [r3, #2]
 3642              		.loc 1 1279 0
 3643 0008 0746     		mov	r7, r0
 3644              		.loc 1 1283 0
 3645 000a 2846     		mov	r0, r5
 3646              	.LVL343:
 3647 000c FFF7FEFF 		bl	malloc
 3648              	.LVL344:
 3649              		.loc 1 1284 0
 3650 0010 0446     		mov	r4, r0
 3651 0012 0028     		cmp	r0, #0
 3652 0014 43D0     		beq	.L513
 3653              	.L489:
 3654              		.loc 1 1307 0
 3655 0016 0021     		movs	r1, #0
 3656 0018 9822     		movs	r2, #152
 3657 001a 2046     		mov	r0, r4
 3658 001c FFF7FEFF 		bl	memset
 3659              	.LVL345:
 3660              	.LBB221:
 3661              	.LBB222:
 3662              		.loc 1 1575 0
 3663 0020 444D     		ldr	r5, .L515+4
 3664 0022 454B     		ldr	r3, .L515+8
 3665              	.LBE222:
 3666              	.LBE221:
ARM GAS  C:\Users\jo\AppData\Local\Temp\ccQTqoh0.s 			page 66


 3667              		.loc 1 1329 0
 3668 0024 454A     		ldr	r2, .L515+12
 3669              	.LBB226:
 3670              	.LBB223:
 3671              		.loc 1 1575 0
 3672 0026 1E68     		ldr	r6, [r3]
 3673 0028 2B68     		ldr	r3, [r5]
 3674              	.LBE223:
 3675              	.LBE226:
 3676              		.loc 1 1329 0
 3677 002a 92F80090 		ldrb	r9, [r2]	@ zero_extendqisi2
 3678              		.loc 1 1334 0
 3679 002e DFF81CC1 		ldr	ip, .L515+28
 3680              		.loc 1 1338 0
 3681 0032 DFF81CE1 		ldr	lr, .L515+32
 3682              		.loc 1 1308 0
 3683 0036 6776     		strb	r7, [r4, #25]
 3684              	.LBB227:
 3685              	.LBB224:
 3686              		.loc 1 1575 0
 3687 0038 3344     		add	r3, r3, r6
 3688              	.LBE224:
 3689              	.LBE227:
 3690              		.loc 1 1310 0
 3691 003a 0022     		movs	r2, #0
 3692              		.loc 1 1309 0
 3693 003c 41F2D061 		movw	r1, #5840
 3694              		.loc 1 1318 0
 3695 0040 0620     		movs	r0, #6
 3696              		.loc 1 1314 0
 3697 0042 4FF0FF0B 		mov	fp, #255
 3698              		.loc 1 1317 0
 3699 0046 4FF4067A 		mov	r10, #536
 3700              		.loc 1 1321 0
 3701 004a 4FF6FF78 		movw	r8, #65535
 3702              		.loc 1 1322 0
 3703 004e 0127     		movs	r7, #1
 3704              		.loc 1 1328 0
 3705 0050 6662     		str	r6, [r4, #36]
 3706              	.LBB228:
 3707              	.LBB225:
 3708              		.loc 1 1575 0
 3709 0052 2B60     		str	r3, [r5]
 3710              	.LBE225:
 3711              	.LBE228:
 3712              		.loc 1 1324 0
 3713 0054 A365     		str	r3, [r4, #88]
 3714              		.loc 1 1325 0
 3715 0056 2365     		str	r3, [r4, #80]
 3716              		.loc 1 1326 0
 3717 0058 A364     		str	r3, [r4, #72]
 3718              		.loc 1 1327 0
 3719 005a E365     		str	r3, [r4, #92]
 3720              		.loc 1 1329 0
 3721 005c 84F82190 		strb	r9, [r4, #33]
 3722              		.loc 1 1309 0
 3723 0060 A4F86610 		strh	r1, [r4, #102]	@ movhi
ARM GAS  C:\Users\jo\AppData\Local\Temp\ccQTqoh0.s 			page 67


 3724              		.loc 1 1311 0
 3725 0064 A185     		strh	r1, [r4, #44]	@ movhi
 3726              		.loc 1 1312 0
 3727 0066 E185     		strh	r1, [r4, #46]	@ movhi
 3728              		.loc 1 1310 0
 3729 0068 A4F86820 		strh	r2, [r4, #104]	@ movhi
 3730              		.loc 1 1313 0
 3731 006c 6272     		strb	r2, [r4, #9]
 3732              		.loc 1 1319 0
 3733 006e A4F84020 		strh	r2, [r4, #64]	@ movhi
 3734              		.loc 1 1331 0
 3735 0072 E277     		strb	r2, [r4, #31]
 3736              		.loc 1 1345 0
 3737 0074 84F89620 		strb	r2, [r4, #150]
 3738              		.loc 1 1314 0
 3739 0078 84F80AB0 		strb	fp, [r4, #10]
 3740              		.loc 1 1317 0
 3741 007c A4F836A0 		strh	r10, [r4, #54]	@ movhi
 3742              		.loc 1 1318 0
 3743 0080 A4F84400 		strh	r0, [r4, #68]	@ movhi
 3744              		.loc 1 1320 0
 3745 0084 A4F84200 		strh	r0, [r4, #66]	@ movhi
 3746              		.loc 1 1321 0
 3747 0088 A4F83480 		strh	r8, [r4, #52]	@ movhi
 3748              		.loc 1 1322 0
 3749 008c A4F84C70 		strh	r7, [r4, #76]	@ movhi
 3750              		.loc 1 1334 0
 3751 0090 C4F880C0 		str	ip, [r4, #128]
 3752              		.loc 1 1338 0
 3753 0094 C4F890E0 		str	lr, [r4, #144]
 3754              	.L504:
 3755              		.loc 1 1348 0
 3756 0098 2046     		mov	r0, r4
 3757 009a BDE8F88F 		pop	{r3, r4, r5, r6, r7, r8, r9, r10, fp, pc}
 3758              	.LVL346:
 3759              	.L513:
 3760              	.LBB229:
 3761              	.LBB230:
 3762              		.loc 1 1258 0
 3763 009e 284B     		ldr	r3, .L515+16
 3764 00a0 1868     		ldr	r0, [r3]
 3765              	.LVL347:
 3766 00a2 88B1     		cbz	r0, .L491
 3767              		.loc 1 1259 0
 3768 00a4 244B     		ldr	r3, .L515+8
 3769 00a6 416A     		ldr	r1, [r0, #36]
 3770 00a8 1C68     		ldr	r4, [r3]
 3771              	.LVL348:
 3772 00aa 0346     		mov	r3, r0
 3773 00ac 611A     		subs	r1, r4, r1
 3774 00ae 05E0     		b	.L500
 3775              	.LVL349:
 3776              	.L493:
 3777 00b0 5A6A     		ldr	r2, [r3, #36]
 3778 00b2 A21A     		subs	r2, r4, r2
 3779 00b4 8A42     		cmp	r2, r1
 3780 00b6 24BF     		itt	cs
ARM GAS  C:\Users\jo\AppData\Local\Temp\ccQTqoh0.s 			page 68


 3781 00b8 1146     		movcs	r1, r2
 3782              	.LVL350:
 3783 00ba 1846     		movcs	r0, r3
 3784              	.L500:
 3785              	.LVL351:
 3786              		.loc 1 1258 0
 3787 00bc DB68     		ldr	r3, [r3, #12]
 3788              	.LVL352:
 3789 00be 002B     		cmp	r3, #0
 3790 00c0 F6D1     		bne	.L493
 3791              	.LVL353:
 3792              	.LBB231:
 3793              	.LBB232:
 3794              		.loc 1 415 0
 3795 00c2 0121     		movs	r1, #1
 3796              	.LVL354:
 3797 00c4 FFF7FEFF 		bl	tcp_abandon
 3798              	.LVL355:
 3799              	.L491:
 3800              	.LBE232:
 3801              	.LBE231:
 3802              	.LBE230:
 3803              	.LBE229:
 3804              		.loc 1 1289 0
 3805 00c8 2846     		mov	r0, r5
 3806 00ca FFF7FEFF 		bl	malloc
 3807              	.LVL356:
 3808              		.loc 1 1290 0
 3809 00ce 0446     		mov	r4, r0
 3810 00d0 30B1     		cbz	r0, .L514
 3811 00d2 1C4A     		ldr	r2, .L515+20
 3812 00d4 B2F8E030 		ldrh	r3, [r2, #224]
 3813              	.L499:
 3814              		.loc 1 1303 0
 3815 00d8 013B     		subs	r3, r3, #1
 3816 00da A2F8E030 		strh	r3, [r2, #224]	@ movhi
 3817 00de 9AE7     		b	.L489
 3818              	.L514:
 3819              	.LVL357:
 3820              	.LBB233:
 3821              	.LBB234:
 3822              		.loc 1 1229 0
 3823 00e0 194B     		ldr	r3, .L515+24
 3824 00e2 1B68     		ldr	r3, [r3]
 3825              	.LVL358:
 3826 00e4 BBB1     		cbz	r3, .L495
 3827              		.loc 1 1232 0
 3828 00e6 144A     		ldr	r2, .L515+8
 3829 00e8 D2F800E0 		ldr	lr, [r2]
 3830 00ec 7F26     		movs	r6, #127
 3831              	.LVL359:
 3832              	.L497:
 3833              		.loc 1 1230 0
 3834 00ee 5A7E     		ldrb	r2, [r3, #25]	@ zero_extendqisi2
 3835 00f0 9742     		cmp	r7, r2
 3836 00f2 09D3     		bcc	.L496
 3837 00f4 B242     		cmp	r2, r6
ARM GAS  C:\Users\jo\AppData\Local\Temp\ccQTqoh0.s 			page 69


 3838 00f6 07D8     		bhi	.L496
 3839              		.loc 1 1232 0
 3840 00f8 596A     		ldr	r1, [r3, #36]
 3841 00fa C1EB0E01 		rsb	r1, r1, lr
 3842              		.loc 1 1231 0
 3843 00fe A142     		cmp	r1, r4
 3844 0100 02D3     		bcc	.L496
 3845 0102 1646     		mov	r6, r2
 3846              	.LVL360:
 3847 0104 0C46     		mov	r4, r1
 3848              	.LVL361:
 3849 0106 1846     		mov	r0, r3
 3850              	.L496:
 3851              	.LVL362:
 3852              		.loc 1 1229 0
 3853 0108 DB68     		ldr	r3, [r3, #12]
 3854              	.LVL363:
 3855 010a 002B     		cmp	r3, #0
 3856 010c EFD1     		bne	.L497
 3857              		.loc 1 1238 0
 3858 010e 10B1     		cbz	r0, .L495
 3859              	.LVL364:
 3860              	.LBB235:
 3861              	.LBB236:
 3862              		.loc 1 415 0
 3863 0110 0121     		movs	r1, #1
 3864 0112 FFF7FEFF 		bl	tcp_abandon
 3865              	.LVL365:
 3866              	.L495:
 3867              	.LBE236:
 3868              	.LBE235:
 3869              	.LBE234:
 3870              	.LBE233:
 3871              		.loc 1 1295 0
 3872 0116 2846     		mov	r0, r5
 3873 0118 FFF7FEFF 		bl	malloc
 3874              	.LVL366:
 3875              		.loc 1 1296 0
 3876 011c 0446     		mov	r4, r0
 3877 011e 0028     		cmp	r0, #0
 3878 0120 BAD0     		beq	.L504
 3879              		.loc 1 1298 0
 3880 0122 084A     		ldr	r2, .L515+20
 3881 0124 B2F8E030 		ldrh	r3, [r2, #224]
 3882 0128 013B     		subs	r3, r3, #1
 3883 012a 9BB2     		uxth	r3, r3
 3884 012c D4E7     		b	.L499
 3885              	.L516:
 3886 012e 00BF     		.align	2
 3887              	.L515:
 3888 0130 00000000 		.word	memp_sizes
 3889 0134 00000000 		.word	.LANCHOR13
 3890 0138 00000000 		.word	.LANCHOR5
 3891 013c 00000000 		.word	.LANCHOR6
 3892 0140 00000000 		.word	.LANCHOR8
 3893 0144 00000000 		.word	lwip_stats
 3894 0148 00000000 		.word	.LANCHOR7
ARM GAS  C:\Users\jo\AppData\Local\Temp\ccQTqoh0.s 			page 70


 3895 014c 00000000 		.word	tcp_recv_null
 3896 0150 00DD6D00 		.word	7200000
 3897              		.cfi_endproc
 3898              	.LFE284:
 3899              		.size	tcp_alloc, .-tcp_alloc
 3900 0154 AFF30080 		.section	.text.tcp_new,"ax",%progbits
 3900      AFF30080 
 3900      AFF30080 
 3901              		.align	2
 3902              		.p2align 4,,15
 3903              		.global	tcp_new
 3904              		.thumb
 3905              		.thumb_func
 3906              		.type	tcp_new, %function
 3907              	tcp_new:
 3908              	.LFB285:
 3909              		.loc 1 1364 0
 3910              		.cfi_startproc
 3911              		@ args = 0, pretend = 0, frame = 0
 3912              		@ frame_needed = 0, uses_anonymous_args = 0
 3913              		@ link register save eliminated.
 3914              		.loc 1 1365 0
 3915 0000 4020     		movs	r0, #64
 3916 0002 FFF7FEBF 		b	tcp_alloc
 3917              	.LVL367:
 3918              		.cfi_endproc
 3919              	.LFE285:
 3920              		.size	tcp_new, .-tcp_new
 3921 0006 00BFAFF3 		.section	.text.tcp_next_iss,"ax",%progbits
 3921      0080AFF3 
 3921      0080
 3922              		.align	2
 3923              		.p2align 4,,15
 3924              		.global	tcp_next_iss
 3925              		.thumb
 3926              		.thumb_func
 3927              		.type	tcp_next_iss, %function
 3928              	tcp_next_iss:
 3929              	.LFB294:
 3930              		.loc 1 1572 0
 3931              		.cfi_startproc
 3932              		@ args = 0, pretend = 0, frame = 0
 3933              		@ frame_needed = 0, uses_anonymous_args = 0
 3934              		@ link register save eliminated.
 3935              		.loc 1 1575 0
 3936 0000 034A     		ldr	r2, .L519
 3937 0002 044B     		ldr	r3, .L519+4
 3938 0004 1868     		ldr	r0, [r3]
 3939 0006 1368     		ldr	r3, [r2]
 3940 0008 1844     		add	r0, r0, r3
 3941 000a 1060     		str	r0, [r2]
 3942              		.loc 1 1577 0
 3943 000c 7047     		bx	lr
 3944              	.L520:
 3945 000e 00BF     		.align	2
 3946              	.L519:
 3947 0010 00000000 		.word	.LANCHOR13
ARM GAS  C:\Users\jo\AppData\Local\Temp\ccQTqoh0.s 			page 71


 3948 0014 00000000 		.word	.LANCHOR5
 3949              		.cfi_endproc
 3950              	.LFE294:
 3951              		.size	tcp_next_iss, .-tcp_next_iss
 3952 0018 AFF30080 		.section	.text.tcp_eff_send_mss,"ax",%progbits
 3952      AFF30080 
 3953              		.align	2
 3954              		.p2align 4,,15
 3955              		.global	tcp_eff_send_mss
 3956              		.thumb
 3957              		.thumb_func
 3958              		.type	tcp_eff_send_mss, %function
 3959              	tcp_eff_send_mss:
 3960              	.LFB295:
 3961              		.loc 1 1587 0
 3962              		.cfi_startproc
 3963              		@ args = 0, pretend = 0, frame = 0
 3964              		@ frame_needed = 0, uses_anonymous_args = 0
 3965              	.LVL368:
 3966 0000 10B5     		push	{r4, lr}
 3967              		.cfi_def_cfa_offset 8
 3968              		.cfi_offset 4, -8
 3969              		.cfi_offset 14, -4
 3970              		.loc 1 1587 0
 3971 0002 0446     		mov	r4, r0
 3972              		.loc 1 1591 0
 3973 0004 0846     		mov	r0, r1
 3974              	.LVL369:
 3975 0006 FFF7FEFF 		bl	ip_route
 3976              	.LVL370:
 3977              		.loc 1 1592 0
 3978 000a 30B1     		cbz	r0, .L522
 3979              		.loc 1 1592 0 is_stmt 0 discriminator 1
 3980 000c 038C     		ldrh	r3, [r0, #32]
 3981 000e 23B1     		cbz	r3, .L522
 3982              	.LVL371:
 3983              		.loc 1 1593 0 is_stmt 1
 3984 0010 283B     		subs	r3, r3, #40
 3985              	.LVL372:
 3986              		.loc 1 1598 0
 3987 0012 9BB2     		uxth	r3, r3
 3988              	.LVL373:
 3989 0014 9C42     		cmp	r4, r3
 3990 0016 28BF     		it	cs
 3991 0018 1C46     		movcs	r4, r3
 3992              	.LVL374:
 3993              	.L522:
 3994              		.loc 1 1601 0
 3995 001a 2046     		mov	r0, r4
 3996              	.LVL375:
 3997 001c 10BD     		pop	{r4, pc}
 3998              		.cfi_endproc
 3999              	.LFE295:
 4000              		.size	tcp_eff_send_mss, .-tcp_eff_send_mss
 4001 001e 00BF     		.section	.text.tcp_connect,"ax",%progbits
 4002              		.align	2
 4003              		.p2align 4,,15
ARM GAS  C:\Users\jo\AppData\Local\Temp\ccQTqoh0.s 			page 72


 4004              		.global	tcp_connect
 4005              		.thumb
 4006              		.thumb_func
 4007              		.type	tcp_connect, %function
 4008              	tcp_connect:
 4009              	.LFB273:
 4010              		.loc 1 686 0
 4011              		.cfi_startproc
 4012              		@ args = 0, pretend = 0, frame = 0
 4013              		@ frame_needed = 0, uses_anonymous_args = 0
 4014              	.LVL376:
 4015 0000 2DE9F041 		push	{r4, r5, r6, r7, r8, lr}
 4016              		.cfi_def_cfa_offset 24
 4017              		.cfi_offset 4, -24
 4018              		.cfi_offset 5, -20
 4019              		.cfi_offset 6, -16
 4020              		.cfi_offset 7, -12
 4021              		.cfi_offset 8, -8
 4022              		.cfi_offset 14, -4
 4023 0004 0D46     		mov	r5, r1
 4024              		.loc 1 691 0
 4025 0006 017E     		ldrb	r1, [r0, #24]	@ zero_extendqisi2
 4026              	.LVL377:
 4027              		.loc 1 686 0
 4028 0008 82B0     		sub	sp, sp, #8
 4029              		.cfi_def_cfa_offset 32
 4030              		.loc 1 686 0
 4031 000a 0446     		mov	r4, r0
 4032              		.loc 1 691 0
 4033 000c 0029     		cmp	r1, #0
 4034 000e 77D1     		bne	.L555
 4035              		.loc 1 694 0
 4036 0010 002D     		cmp	r5, #0
 4037 0012 00F08380 		beq	.L546
 4038 0016 1F46     		mov	r7, r3
 4039              		.loc 1 702 0
 4040 0018 0368     		ldr	r3, [r0]
 4041              	.LVL378:
 4042              		.loc 1 695 0
 4043 001a 2968     		ldr	r1, [r5]
 4044 001c 4160     		str	r1, [r0, #4]
 4045              		.loc 1 699 0
 4046 001e 8283     		strh	r2, [r0, #28]	@ movhi
 4047              		.loc 1 702 0
 4048 0020 33B9     		cbnz	r3, .L533
 4049              	.LBB237:
 4050              		.loc 1 704 0
 4051 0022 0430     		adds	r0, r0, #4
 4052              	.LVL379:
 4053 0024 FFF7FEFF 		bl	ip_route
 4054              	.LVL380:
 4055              		.loc 1 705 0
 4056 0028 0028     		cmp	r0, #0
 4057 002a 79D0     		beq	.L547
 4058              		.loc 1 711 0
 4059 002c 4368     		ldr	r3, [r0, #4]
 4060 002e 2360     		str	r3, [r4]
ARM GAS  C:\Users\jo\AppData\Local\Temp\ccQTqoh0.s 			page 73


 4061              	.LVL381:
 4062              	.L533:
 4063              	.LBE237:
 4064              		.loc 1 714 0
 4065 0030 668B     		ldrh	r6, [r4, #26]
 4066              	.LVL382:
 4067              		.loc 1 715 0
 4068 0032 26B9     		cbnz	r6, .L536
 4069              		.loc 1 716 0
 4070 0034 FFF7FEFF 		bl	tcp_new_port
 4071              	.LVL383:
 4072 0038 6083     		strh	r0, [r4, #26]	@ movhi
 4073              		.loc 1 717 0
 4074 003a 0028     		cmp	r0, #0
 4075 003c 5BD0     		beq	.L556
 4076              	.L536:
 4077              	.LBB238:
 4078              	.LBB239:
 4079              		.loc 1 1575 0
 4080 003e DFF808E1 		ldr	lr, .L560+36
 4081 0042 384B     		ldr	r3, .L560
 4082 0044 1A68     		ldr	r2, [r3]
 4083 0046 DEF80030 		ldr	r3, [lr]
 4084 004a 1344     		add	r3, r3, r2
 4085              	.LBE239:
 4086              	.LBE238:
 4087              		.loc 1 744 0
 4088 004c 03F1FF38 		add	r8, r3, #-1
 4089              		.loc 1 746 0
 4090 0050 41F2D062 		movw	r2, #5840
 4091              		.loc 1 742 0
 4092 0054 4FF0000C 		mov	ip, #0
 4093              		.loc 1 752 0
 4094 0058 4FF40670 		mov	r0, #536
 4095              		.loc 1 754 0
 4096 005c 2946     		mov	r1, r5
 4097              		.loc 1 743 0
 4098 005e 2365     		str	r3, [r4, #80]
 4099              		.loc 1 746 0
 4100 0060 A285     		strh	r2, [r4, #44]	@ movhi
 4101              		.loc 1 747 0
 4102 0062 E285     		strh	r2, [r4, #46]	@ movhi
 4103              		.loc 1 749 0
 4104 0064 A4F86020 		strh	r2, [r4, #96]	@ movhi
 4105              		.loc 1 744 0
 4106 0068 C4F84880 		str	r8, [r4, #72]
 4107              		.loc 1 745 0
 4108 006c C4F85C80 		str	r8, [r4, #92]
 4109              		.loc 1 742 0
 4110 0070 C4F828C0 		str	ip, [r4, #40]
 4111              		.loc 1 748 0
 4112 0074 C4F830C0 		str	ip, [r4, #48]
 4113              		.loc 1 752 0
 4114 0078 E086     		strh	r0, [r4, #54]	@ movhi
 4115              	.LBB241:
 4116              	.LBB240:
 4117              		.loc 1 1575 0
ARM GAS  C:\Users\jo\AppData\Local\Temp\ccQTqoh0.s 			page 74


 4118 007a CEF80030 		str	r3, [lr]
 4119              	.LBE240:
 4120              	.LBE241:
 4121              		.loc 1 754 0
 4122 007e FFF7FEFF 		bl	tcp_eff_send_mss
 4123              	.LVL384:
 4124              		.loc 1 757 0
 4125 0082 00EB8003 		add	r3, r0, r0, lsl #2
 4126 0086 5B00     		lsls	r3, r3, #1
 4127              		.loc 1 756 0
 4128 0088 0122     		movs	r2, #1
 4129              		.loc 1 754 0
 4130 008a E086     		strh	r0, [r4, #54]	@ movhi
 4131              		.loc 1 757 0
 4132 008c A4F84E30 		strh	r3, [r4, #78]	@ movhi
 4133              		.loc 1 759 0
 4134 0090 C4F88470 		str	r7, [r4, #132]
 4135              		.loc 1 756 0
 4136 0094 A4F84C20 		strh	r2, [r4, #76]	@ movhi
 4137              		.loc 1 765 0
 4138 0098 2046     		mov	r0, r4
 4139 009a 0221     		movs	r1, #2
 4140 009c FFF7FEFF 		bl	tcp_enqueue_flags
 4141              	.LVL385:
 4142              		.loc 1 766 0
 4143 00a0 00BB     		cbnz	r0, .L532
 4144              		.loc 1 768 0
 4145 00a2 0223     		movs	r3, #2
 4146 00a4 2376     		strb	r3, [r4, #24]
 4147              		.loc 1 769 0
 4148 00a6 86B1     		cbz	r6, .L537
 4149              		.loc 1 770 0
 4150 00a8 1F4B     		ldr	r3, .L560+4
 4151 00aa 1A68     		ldr	r2, [r3]
 4152 00ac A242     		cmp	r2, r4
 4153 00ae 24D0     		beq	.L557
 4154              		.loc 1 770 0 is_stmt 0 discriminator 2
 4155 00b0 1E49     		ldr	r1, .L560+8
 4156 00b2 0A60     		str	r2, [r1]
 4157 00b4 4AB1     		cbz	r2, .L537
 4158              		.loc 1 770 0
 4159 00b6 D368     		ldr	r3, [r2, #12]
 4160 00b8 A342     		cmp	r3, r4
 4161 00ba 19D0     		beq	.L541
 4162              	.L543:
 4163              		.loc 1 770 0 discriminator 6
 4164 00bc 23B1     		cbz	r3, .L558
 4165              		.loc 1 770 0 discriminator 9
 4166 00be DA68     		ldr	r2, [r3, #12]
 4167 00c0 A242     		cmp	r2, r4
 4168 00c2 13D0     		beq	.L559
 4169 00c4 1346     		mov	r3, r2
 4170 00c6 F9E7     		b	.L543
 4171              	.L558:
 4172 00c8 0B60     		str	r3, [r1]
 4173              	.L537:
 4174              		.loc 1 772 0 is_stmt 1
ARM GAS  C:\Users\jo\AppData\Local\Temp\ccQTqoh0.s 			page 75


 4175 00ca 194B     		ldr	r3, .L560+12
 4176 00cc 1A68     		ldr	r2, [r3]
 4177 00ce E260     		str	r2, [r4, #12]
 4178 00d0 1C60     		str	r4, [r3]
 4179 00d2 FFF7FEFF 		bl	tcp_timer_needed
 4180              	.LVL386:
 4181 00d6 174B     		ldr	r3, .L560+16
 4182 00d8 0122     		movs	r2, #1
 4183              		.loc 1 775 0
 4184 00da 2046     		mov	r0, r4
 4185              		.loc 1 772 0
 4186 00dc 1A70     		strb	r2, [r3]
 4187              		.loc 1 775 0
 4188 00de FFF7FEFF 		bl	tcp_output
 4189              	.LVL387:
 4190 00e2 0020     		movs	r0, #0
 4191              	.LVL388:
 4192              	.L532:
 4193              		.loc 1 778 0
 4194 00e4 40B2     		sxtb	r0, r0
 4195 00e6 02B0     		add	sp, sp, #8
 4196              		.cfi_remember_state
 4197              		.cfi_def_cfa_offset 24
 4198              		@ sp needed
 4199 00e8 BDE8F081 		pop	{r4, r5, r6, r7, r8, pc}
 4200              	.LVL389:
 4201              	.L559:
 4202              		.cfi_restore_state
 4203 00ec 1A46     		mov	r2, r3
 4204 00ee 0B60     		str	r3, [r1]
 4205              	.L541:
 4206              		.loc 1 770 0 discriminator 5
 4207 00f0 E368     		ldr	r3, [r4, #12]
 4208 00f2 D360     		str	r3, [r2, #12]
 4209 00f4 E9E7     		b	.L537
 4210              	.LVL390:
 4211              	.L556:
 4212              		.loc 1 718 0
 4213 00f6 FE20     		movs	r0, #254
 4214 00f8 F4E7     		b	.L532
 4215              	.LVL391:
 4216              	.L557:
 4217              		.loc 1 770 0 discriminator 1
 4218 00fa E268     		ldr	r2, [r4, #12]
 4219 00fc 1A60     		str	r2, [r3]
 4220 00fe E4E7     		b	.L537
 4221              	.LVL392:
 4222              	.L555:
 4223              		.loc 1 691 0 discriminator 1
 4224 0100 0D4B     		ldr	r3, .L560+20
 4225              	.LVL393:
 4226 0102 0093     		str	r3, [sp]
 4227 0104 0D49     		ldr	r1, .L560+24
 4228 0106 0E4A     		ldr	r2, .L560+28
 4229              	.LVL394:
 4230 0108 0E48     		ldr	r0, .L560+32
 4231              	.LVL395:
ARM GAS  C:\Users\jo\AppData\Local\Temp\ccQTqoh0.s 			page 76


 4232 010a 40F2B323 		movw	r3, #691
 4233 010e FFF7FEFF 		bl	chprintf.constprop.4
 4234              	.LVL396:
 4235              	.LBB242:
 4236              	.LBB243:
 4237              		.loc 3 416 0 discriminator 1
 4238 0112 0B48     		ldr	r0, .L560+28
 4239 0114 FFF7FEFF 		bl	chSysHalt
 4240              	.LVL397:
 4241              	.LBE243:
 4242              	.LBE242:
 4243              		.loc 1 691 0 discriminator 1
 4244 0118 F720     		movs	r0, #247
 4245 011a E3E7     		b	.L532
 4246              	.LVL398:
 4247              	.L546:
 4248              		.loc 1 697 0
 4249 011c FA20     		movs	r0, #250
 4250              	.LVL399:
 4251 011e E1E7     		b	.L532
 4252              	.LVL400:
 4253              	.L547:
 4254              	.LBB244:
 4255              		.loc 1 708 0
 4256 0120 FC20     		movs	r0, #252
 4257              	.LVL401:
 4258 0122 DFE7     		b	.L532
 4259              	.L561:
 4260              		.align	2
 4261              	.L560:
 4262 0124 00000000 		.word	.LANCHOR5
 4263 0128 00000000 		.word	.LANCHOR2
 4264 012c 00000000 		.word	.LANCHOR3
 4265 0130 00000000 		.word	.LANCHOR7
 4266 0134 00000000 		.word	.LANCHOR11
 4267 0138 50000000 		.word	.LC2
 4268 013c 00000000 		.word	.LC0
 4269 0140 94030000 		.word	.LC24
 4270 0144 00000000 		.word	itm_port
 4271 0148 00000000 		.word	.LANCHOR13
 4272              	.LBE244:
 4273              		.cfi_endproc
 4274              	.LFE273:
 4275              		.size	tcp_connect, .-tcp_connect
 4276 014c AFF30080 		.section	.text.tcp_debug_state_str,"ax",%progbits
 4277              		.align	2
 4278              		.p2align 4,,15
 4279              		.global	tcp_debug_state_str
 4280              		.thumb
 4281              		.thumb_func
 4282              		.type	tcp_debug_state_str, %function
 4283              	tcp_debug_state_str:
 4284              	.LFB296:
 4285              		.loc 1 1606 0
 4286              		.cfi_startproc
 4287              		@ args = 0, pretend = 0, frame = 0
 4288              		@ frame_needed = 0, uses_anonymous_args = 0
ARM GAS  C:\Users\jo\AppData\Local\Temp\ccQTqoh0.s 			page 77


 4289              		@ link register save eliminated.
 4290              	.LVL402:
 4291              		.loc 1 1607 0
 4292 0000 014B     		ldr	r3, .L563
 4293              		.loc 1 1608 0
 4294 0002 53F82000 		ldr	r0, [r3, r0, lsl #2]
 4295              	.LVL403:
 4296 0006 7047     		bx	lr
 4297              	.L564:
 4298              		.align	2
 4299              	.L563:
 4300 0008 00000000 		.word	.LANCHOR14
 4301              		.cfi_endproc
 4302              	.LFE296:
 4303              		.size	tcp_debug_state_str, .-tcp_debug_state_str
 4304              		.global	tcp_active_pcbs_changed
 4305              		.global	tcp_tmp_pcb
 4306              		.global	tcp_pcb_lists
 4307              		.global	tcp_tw_pcbs
 4308              		.global	tcp_active_pcbs
 4309              		.global	tcp_listen_pcbs
 4310              		.global	tcp_bound_pcbs
 4311              		.global	tcp_persist_backoff
 4312              		.global	tcp_backoff
 4313              		.global	tcp_ticks
 4314              		.global	tcp_state_str
 4315 000c AFF30080 		.section	.bss.tcp_active_pcbs_changed,"aw",%nobits
 4316              		.set	.LANCHOR11,. + 0
 4317              		.type	tcp_active_pcbs_changed, %object
 4318              		.size	tcp_active_pcbs_changed, 1
 4319              	tcp_active_pcbs_changed:
 4320 0000 00       		.space	1
 4321              		.section	.bss.tcp_tw_pcbs,"aw",%nobits
 4322              		.align	2
 4323              		.set	.LANCHOR8,. + 0
 4324              		.type	tcp_tw_pcbs, %object
 4325              		.size	tcp_tw_pcbs, 4
 4326              	tcp_tw_pcbs:
 4327 0000 00000000 		.space	4
 4328              		.section	.rodata.tcp_state_str,"a",%progbits
 4329              		.align	2
 4330              		.set	.LANCHOR14,. + 0
 4331              		.type	tcp_state_str, %object
 4332              		.size	tcp_state_str, 44
 4333              	tcp_state_str:
 4334 0000 C4030000 		.word	.LC25
 4335 0004 CC030000 		.word	.LC26
 4336 0008 D4030000 		.word	.LC27
 4337 000c E0030000 		.word	.LC28
 4338 0010 EC030000 		.word	.LC29
 4339 0014 F8030000 		.word	.LC30
 4340 0018 04040000 		.word	.LC31
 4341 001c 10040000 		.word	.LC32
 4342 0020 1C040000 		.word	.LC33
 4343 0024 24040000 		.word	.LC34
 4344 0028 30040000 		.word	.LC35
 4345              		.section	.rodata.tcp_pcb_lists,"a",%progbits
ARM GAS  C:\Users\jo\AppData\Local\Temp\ccQTqoh0.s 			page 78


 4346              		.align	2
 4347              		.set	.LANCHOR1,. + 0
 4348              		.type	tcp_pcb_lists, %object
 4349              		.size	tcp_pcb_lists, 16
 4350              	tcp_pcb_lists:
 4351 0000 00000000 		.word	tcp_listen_pcbs
 4352 0004 00000000 		.word	tcp_bound_pcbs
 4353 0008 00000000 		.word	tcp_active_pcbs
 4354 000c 00000000 		.word	tcp_tw_pcbs
 4355              		.section	.bss.tcp_ticks,"aw",%nobits
 4356              		.align	2
 4357              		.set	.LANCHOR5,. + 0
 4358              		.type	tcp_ticks, %object
 4359              		.size	tcp_ticks, 4
 4360              	tcp_ticks:
 4361 0000 00000000 		.space	4
 4362              		.section	.bss.tcp_timer,"aw",%nobits
 4363              		.set	.LANCHOR12,. + 0
 4364              		.type	tcp_timer, %object
 4365              		.size	tcp_timer, 1
 4366              	tcp_timer:
 4367 0000 00       		.space	1
 4368              		.section	.data.iss.9034,"aw",%progbits
 4369              		.align	2
 4370              		.set	.LANCHOR13,. + 0
 4371              		.type	iss.9034, %object
 4372              		.size	iss.9034, 4
 4373              	iss.9034:
 4374 0000 6E190000 		.word	6510
 4375              		.section	.rodata.tcp_backoff,"a",%progbits
 4376              		.align	2
 4377              		.set	.LANCHOR10,. + 0
 4378              		.type	tcp_backoff, %object
 4379              		.size	tcp_backoff, 13
 4380              	tcp_backoff:
 4381 0000 01       		.byte	1
 4382 0001 02       		.byte	2
 4383 0002 03       		.byte	3
 4384 0003 04       		.byte	4
 4385 0004 05       		.byte	5
 4386 0005 06       		.byte	6
 4387 0006 07       		.byte	7
 4388 0007 07       		.byte	7
 4389 0008 07       		.byte	7
 4390 0009 07       		.byte	7
 4391 000a 07       		.byte	7
 4392 000b 07       		.byte	7
 4393 000c 07       		.byte	7
 4394 000d 000000   		.section	.bss.tcp_listen_pcbs,"aw",%nobits
 4395              		.align	2
 4396              		.set	.LANCHOR4,. + 0
 4397              		.type	tcp_listen_pcbs, %object
 4398              		.size	tcp_listen_pcbs, 4
 4399              	tcp_listen_pcbs:
 4400 0000 00000000 		.space	4
 4401              		.section	.data.tcp_port,"aw",%progbits
 4402              		.align	1
ARM GAS  C:\Users\jo\AppData\Local\Temp\ccQTqoh0.s 			page 79


 4403              		.set	.LANCHOR0,. + 0
 4404              		.type	tcp_port, %object
 4405              		.size	tcp_port, 2
 4406              	tcp_port:
 4407 0000 00C0     		.short	-16384
 4408              		.section	.bss.tcp_active_pcbs,"aw",%nobits
 4409              		.align	2
 4410              		.set	.LANCHOR7,. + 0
 4411              		.type	tcp_active_pcbs, %object
 4412              		.size	tcp_active_pcbs, 4
 4413              	tcp_active_pcbs:
 4414 0000 00000000 		.space	4
 4415              		.section	.bss.tcp_timer_ctr,"aw",%nobits
 4416              		.set	.LANCHOR6,. + 0
 4417              		.type	tcp_timer_ctr, %object
 4418              		.size	tcp_timer_ctr, 1
 4419              	tcp_timer_ctr:
 4420 0000 00       		.space	1
 4421              		.section	.rodata.str1.4,"aMS",%progbits,1
 4422              		.align	2
 4423              	.LC0:
 4424 0000 41737365 		.ascii	"Assertion \"%s\" failed at line %d in %s\012\000"
 4424      7274696F 
 4424      6E202225 
 4424      73222066 
 4424      61696C65 
 4425              	.LC1:
 4426 0028 7463705F 		.ascii	"tcp_bind: can only bind in state CLOSED\000"
 4426      62696E64 
 4426      3A206361 
 4426      6E206F6E 
 4426      6C792062 
 4427              	.LC2:
 4428 0050 2E2E2F2E 		.ascii	"../../../ext/lwip/src/core/tcp.c\000"
 4428      2E2F2E2E 
 4428      2F657874 
 4428      2F6C7769 
 4428      702F7372 
 4429 0071 000000   		.space	3
 4430              	.LC3:
 4431 0074 7463705F 		.ascii	"tcp_listen: pcb already connected\000"
 4431      6C697374 
 4431      656E3A20 
 4431      70636220 
 4431      616C7265 
 4432 0096 0000     		.space	2
 4433              	.LC4:
 4434 0098 6E65775F 		.ascii	"new_rcv_ann_wnd <= 0xffff\000"
 4434      7263765F 
 4434      616E6E5F 
 4434      776E6420 
 4434      3C3D2030 
 4435 00b2 0000     		.space	2
 4436              	.LC5:
 4437 00b4 646F6E27 		.ascii	"don't call tcp_recved for listen-pcbs\000"
 4437      74206361 
 4437      6C6C2074 
ARM GAS  C:\Users\jo\AppData\Local\Temp\ccQTqoh0.s 			page 80


 4437      63705F72 
 4437      65637665 
 4438 00da 0000     		.space	2
 4439              	.LC6:
 4440 00dc 7463705F 		.ascii	"tcp_recved: len would wrap rcv_wnd\012\000"
 4440      72656376 
 4440      65643A20 
 4440      6C656E20 
 4440      776F756C 
 4441              	.LC7:
 4442 0100 696E7661 		.ascii	"invalid socket state for recv callback\000"
 4442      6C696420 
 4442      736F636B 
 4442      65742073 
 4442      74617465 
 4443 0127 00       		.space	1
 4444              	.LC8:
 4445 0128 696E7661 		.ascii	"invalid socket state for sent callback\000"
 4445      6C696420 
 4445      736F636B 
 4445      65742073 
 4445      74617465 
 4446 014f 00       		.space	1
 4447              	.LC9:
 4448 0150 696E7661 		.ascii	"invalid socket state for err callback\000"
 4448      6C696420 
 4448      736F636B 
 4448      65742073 
 4448      74617465 
 4449 0176 0000     		.space	2
 4450              	.LC10:
 4451 0178 696E7661 		.ascii	"invalid socket state for poll\000"
 4451      6C696420 
 4451      736F636B 
 4451      65742073 
 4451      74617465 
 4452 0196 0000     		.space	2
 4453              	.LC11:
 4454 0198 7463705F 		.ascii	"tcp_slowtmr: active pcb->state != CLOSED\012\000"
 4454      736C6F77 
 4454      746D723A 
 4454      20616374 
 4454      69766520 
 4455 01c2 0000     		.space	2
 4456              	.LC12:
 4457 01c4 7463705F 		.ascii	"tcp_slowtmr: active pcb->state != LISTEN\012\000"
 4457      736C6F77 
 4457      746D723A 
 4457      20616374 
 4457      69766520 
 4458 01ee 0000     		.space	2
 4459              	.LC13:
 4460 01f0 7463705F 		.ascii	"tcp_slowtmr: active pcb->state != TIME-WAIT\012\000"
 4460      736C6F77 
 4460      746D723A 
 4460      20616374 
 4460      69766520 
ARM GAS  C:\Users\jo\AppData\Local\Temp\ccQTqoh0.s 			page 81


 4461 021d 000000   		.space	3
 4462              	.LC14:
 4463 0220 7463705F 		.ascii	"tcp_slowtmr: middle tcp != tcp_active_pcbs\000"
 4463      736C6F77 
 4463      746D723A 
 4463      206D6964 
 4463      646C6520 
 4464 024b 00       		.space	1
 4465              	.LC15:
 4466 024c 7463705F 		.ascii	"tcp_slowtmr: first pcb == tcp_active_pcbs\000"
 4466      736C6F77 
 4466      746D723A 
 4466      20666972 
 4466      73742070 
 4467 0276 0000     		.space	2
 4468              	.LC16:
 4469 0278 7463705F 		.ascii	"tcp_slowtmr: TIME-WAIT pcb->state == TIME-WAIT\000"
 4469      736C6F77 
 4469      746D723A 
 4469      2054494D 
 4469      452D5741 
 4470 02a7 00       		.space	1
 4471              	.LC17:
 4472 02a8 7463705F 		.ascii	"tcp_slowtmr: middle tcp != tcp_tw_pcbs\000"
 4472      736C6F77 
 4472      746D723A 
 4472      206D6964 
 4472      646C6520 
 4473 02cf 00       		.space	1
 4474              	.LC18:
 4475 02d0 7463705F 		.ascii	"tcp_slowtmr: first pcb == tcp_tw_pcbs\000"
 4475      736C6F77 
 4475      746D723A 
 4475      20666972 
 4475      73742070 
 4476 02f6 0000     		.space	2
 4477              	.LC19:
 4478 02f8 756E7365 		.ascii	"unsent segments leaking\000"
 4478      6E742073 
 4478      65676D65 
 4478      6E747320 
 4478      6C65616B 
 4479              	.LC20:
 4480 0310 756E6163 		.ascii	"unacked segments leaking\000"
 4480      6B656420 
 4480      7365676D 
 4480      656E7473 
 4480      206C6561 
 4481 0329 000000   		.space	3
 4482              	.LC21:
 4483 032c 6F6F7365 		.ascii	"ooseq segments leaking\000"
 4483      71207365 
 4483      676D656E 
 4483      7473206C 
 4483      65616B69 
 4484 0343 00       		.space	1
 4485              	.LC22:
ARM GAS  C:\Users\jo\AppData\Local\Temp\ccQTqoh0.s 			page 82


 4486 0344 7063622D 		.ascii	"pcb->flags & TF_RXCLOSED\000"
 4486      3E666C61 
 4486      67732026 
 4486      2054465F 
 4486      5258434C 
 4487 035d 000000   		.space	3
 4488              	.LC23:
 4489 0360 646F6E27 		.ascii	"don't call tcp_abort/tcp_abandon for listen-pcbs\000"
 4489      74206361 
 4489      6C6C2074 
 4489      63705F61 
 4489      626F7274 
 4490 0391 000000   		.space	3
 4491              	.LC24:
 4492 0394 7463705F 		.ascii	"tcp_connect: can only connect from state CLOSED\000"
 4492      636F6E6E 
 4492      6563743A 
 4492      2063616E 
 4492      206F6E6C 
 4493              	.LC25:
 4494 03c4 434C4F53 		.ascii	"CLOSED\000"
 4494      454400
 4495 03cb 00       		.space	1
 4496              	.LC26:
 4497 03cc 4C495354 		.ascii	"LISTEN\000"
 4497      454E00
 4498 03d3 00       		.space	1
 4499              	.LC27:
 4500 03d4 53594E5F 		.ascii	"SYN_SENT\000"
 4500      53454E54 
 4500      00
 4501 03dd 000000   		.space	3
 4502              	.LC28:
 4503 03e0 53594E5F 		.ascii	"SYN_RCVD\000"
 4503      52435644 
 4503      00
 4504 03e9 000000   		.space	3
 4505              	.LC29:
 4506 03ec 45535441 		.ascii	"ESTABLISHED\000"
 4506      424C4953 
 4506      48454400 
 4507              	.LC30:
 4508 03f8 46494E5F 		.ascii	"FIN_WAIT_1\000"
 4508      57414954 
 4508      5F3100
 4509 0403 00       		.space	1
 4510              	.LC31:
 4511 0404 46494E5F 		.ascii	"FIN_WAIT_2\000"
 4511      57414954 
 4511      5F3200
 4512 040f 00       		.space	1
 4513              	.LC32:
 4514 0410 434C4F53 		.ascii	"CLOSE_WAIT\000"
 4514      455F5741 
 4514      495400
 4515 041b 00       		.space	1
 4516              	.LC33:
ARM GAS  C:\Users\jo\AppData\Local\Temp\ccQTqoh0.s 			page 83


 4517 041c 434C4F53 		.ascii	"CLOSING\000"
 4517      494E4700 
 4518              	.LC34:
 4519 0424 4C415354 		.ascii	"LAST_ACK\000"
 4519      5F41434B 
 4519      00
 4520 042d 000000   		.space	3
 4521              	.LC35:
 4522 0430 54494D45 		.ascii	"TIME_WAIT\000"
 4522      5F574149 
 4522      5400
 4523 043a 0000     		.section	.bss.tcp_tmp_pcb,"aw",%nobits
 4524              		.align	2
 4525              		.set	.LANCHOR3,. + 0
 4526              		.type	tcp_tmp_pcb, %object
 4527              		.size	tcp_tmp_pcb, 4
 4528              	tcp_tmp_pcb:
 4529 0000 00000000 		.space	4
 4530              		.section	.rodata.tcp_persist_backoff,"a",%progbits
 4531              		.align	2
 4532              		.set	.LANCHOR9,. + 0
 4533              		.type	tcp_persist_backoff, %object
 4534              		.size	tcp_persist_backoff, 7
 4535              	tcp_persist_backoff:
 4536 0000 03       		.byte	3
 4537 0001 06       		.byte	6
 4538 0002 0C       		.byte	12
 4539 0003 18       		.byte	24
 4540 0004 30       		.byte	48
 4541 0005 60       		.byte	96
 4542 0006 78       		.byte	120
 4543 0007 00       		.section	.bss.tcp_bound_pcbs,"aw",%nobits
 4544              		.align	2
 4545              		.set	.LANCHOR2,. + 0
 4546              		.type	tcp_bound_pcbs, %object
 4547              		.size	tcp_bound_pcbs, 4
 4548              	tcp_bound_pcbs:
 4549 0000 00000000 		.space	4
 4550              		.text
 4551              	.Letext0:
 4552              		.file 4 "c:\\program files\\gnu tools arm embedded\\4.9 2014q4\\lib\\gcc\\arm-none-eabi\\4.9.3\\in
 4553              		.file 5 "c:\\program files\\gnu tools arm embedded\\4.9 2014q4\\arm-none-eabi\\include\\machine\\_
 4554              		.file 6 "c:\\program files\\gnu tools arm embedded\\4.9 2014q4\\arm-none-eabi\\include\\stdint.h"
 4555              		.file 7 "../../../os/rt/ports/ARMCMx/compilers/GCC/chtypes.h"
 4556              		.file 8 "../../../os/rt/include/chsystypes.h"
 4557              		.file 9 "../../../os/rt/include/chschd.h"
 4558              		.file 10 "../../../os/rt/ports/ARMCMx/chcore.h"
 4559              		.file 11 "../../../os/rt/ports/ARMCMx/chcore_v7m.h"
 4560              		.file 12 "../../../os/rt/include/chdebug.h"
 4561              		.file 13 "../../../os/rt/include/chtm.h"
 4562              		.file 14 "../../../os/rt/include/chsem.h"
 4563              		.file 15 "../../../os/rt/include/chmtx.h"
 4564              		.file 16 "../../../os/rt/include/chstreams.h"
 4565              		.file 17 "./ITM_trace.h"
 4566              		.file 18 "c:\\program files\\gnu tools arm embedded\\4.9 2014q4\\lib\\gcc\\arm-none-eabi\\4.9.3\\i
 4567              		.file 19 "<built-in>"
 4568              		.file 20 "../../../os/various/lwip_bindings/arch/cc.h"
ARM GAS  C:\Users\jo\AppData\Local\Temp\ccQTqoh0.s 			page 84


 4569              		.file 21 "../../../ext/lwip/src/include/lwip/mem.h"
 4570              		.file 22 "../../../ext/lwip/src/include/ipv4/lwip/ip_addr.h"
 4571              		.file 23 "../../../ext/lwip/src/include/lwip/err.h"
 4572              		.file 24 "../../../ext/lwip/src/include/lwip/pbuf.h"
 4573              		.file 25 "../../../ext/lwip/src/include/lwip/netif.h"
 4574              		.file 26 "../../../ext/lwip/src/include/lwip/tcp.h"
 4575              		.file 27 "../../../ext/lwip/src/include/lwip/tcp_impl.h"
 4576              		.file 28 "../../../ext/lwip/src/include/lwip/stats.h"
 4577              		.file 29 "../../../os/ext/CMSIS/include/core_cm4.h"
 4578              		.file 30 "../../../ext/lwip/src/include/lwip/memp.h"
 4579              		.file 31 "../../../os/rt/include/chsys.h"
 4580              		.file 32 "c:\\program files\\gnu tools arm embedded\\4.9 2014q4\\arm-none-eabi\\include\\stdlib.h"
 4581              		.file 33 "../../../ext/lwip/src/include/ipv4/lwip/ip.h"
 4582              		.section	.debug_info,"",%progbits
 4583              	.Ldebug_info0:
 4584 0000 E0310000 		.4byte	0x31e0
 4585 0004 0400     		.2byte	0x4
 4586 0006 00000000 		.4byte	.Ldebug_abbrev0
 4587 000a 04       		.byte	0x4
 4588 000b 01       		.uleb128 0x1
 4589 000c 290B0000 		.4byte	.LASF382
 4590 0010 01       		.byte	0x1
 4591 0011 A0090000 		.4byte	.LASF383
 4592 0015 FA010000 		.4byte	.LASF384
 4593 0019 20010000 		.4byte	.Ldebug_ranges0+0x120
 4594 001d 00000000 		.4byte	0
 4595 0021 00000000 		.4byte	.Ldebug_line0
 4596 0025 02       		.uleb128 0x2
 4597 0026 04       		.byte	0x4
 4598 0027 05       		.byte	0x5
 4599 0028 696E7400 		.ascii	"int\000"
 4600 002c 03       		.uleb128 0x3
 4601 002d 990A0000 		.4byte	.LASF1
 4602 0031 04       		.byte	0x4
 4603 0032 D4       		.byte	0xd4
 4604 0033 37000000 		.4byte	0x37
 4605 0037 04       		.uleb128 0x4
 4606 0038 04       		.byte	0x4
 4607 0039 07       		.byte	0x7
 4608 003a 2E010000 		.4byte	.LASF0
 4609 003e 03       		.uleb128 0x3
 4610 003f F10F0000 		.4byte	.LASF2
 4611 0043 05       		.byte	0x5
 4612 0044 1B       		.byte	0x1b
 4613 0045 49000000 		.4byte	0x49
 4614 0049 04       		.uleb128 0x4
 4615 004a 01       		.byte	0x1
 4616 004b 06       		.byte	0x6
 4617 004c B90F0000 		.4byte	.LASF3
 4618 0050 03       		.uleb128 0x3
 4619 0051 E20C0000 		.4byte	.LASF4
 4620 0055 05       		.byte	0x5
 4621 0056 1D       		.byte	0x1d
 4622 0057 5B000000 		.4byte	0x5b
 4623 005b 04       		.uleb128 0x4
 4624 005c 01       		.byte	0x1
 4625 005d 08       		.byte	0x8
ARM GAS  C:\Users\jo\AppData\Local\Temp\ccQTqoh0.s 			page 85


 4626 005e 4A0E0000 		.4byte	.LASF5
 4627 0062 03       		.uleb128 0x3
 4628 0063 76080000 		.4byte	.LASF6
 4629 0067 05       		.byte	0x5
 4630 0068 29       		.byte	0x29
 4631 0069 6D000000 		.4byte	0x6d
 4632 006d 04       		.uleb128 0x4
 4633 006e 02       		.byte	0x2
 4634 006f 05       		.byte	0x5
 4635 0070 FA0F0000 		.4byte	.LASF7
 4636 0074 03       		.uleb128 0x3
 4637 0075 93040000 		.4byte	.LASF8
 4638 0079 05       		.byte	0x5
 4639 007a 2B       		.byte	0x2b
 4640 007b 7F000000 		.4byte	0x7f
 4641 007f 04       		.uleb128 0x4
 4642 0080 02       		.byte	0x2
 4643 0081 07       		.byte	0x7
 4644 0082 CD0F0000 		.4byte	.LASF9
 4645 0086 03       		.uleb128 0x3
 4646 0087 C5010000 		.4byte	.LASF10
 4647 008b 05       		.byte	0x5
 4648 008c 3F       		.byte	0x3f
 4649 008d 91000000 		.4byte	0x91
 4650 0091 04       		.uleb128 0x4
 4651 0092 04       		.byte	0x4
 4652 0093 05       		.byte	0x5
 4653 0094 250C0000 		.4byte	.LASF11
 4654 0098 03       		.uleb128 0x3
 4655 0099 06070000 		.4byte	.LASF12
 4656 009d 05       		.byte	0x5
 4657 009e 41       		.byte	0x41
 4658 009f A3000000 		.4byte	0xa3
 4659 00a3 04       		.uleb128 0x4
 4660 00a4 04       		.byte	0x4
 4661 00a5 07       		.byte	0x7
 4662 00a6 990D0000 		.4byte	.LASF13
 4663 00aa 04       		.uleb128 0x4
 4664 00ab 08       		.byte	0x8
 4665 00ac 05       		.byte	0x5
 4666 00ad D8060000 		.4byte	.LASF14
 4667 00b1 03       		.uleb128 0x3
 4668 00b2 CA050000 		.4byte	.LASF15
 4669 00b6 05       		.byte	0x5
 4670 00b7 5B       		.byte	0x5b
 4671 00b8 BC000000 		.4byte	0xbc
 4672 00bc 04       		.uleb128 0x4
 4673 00bd 08       		.byte	0x8
 4674 00be 07       		.byte	0x7
 4675 00bf 4B040000 		.4byte	.LASF16
 4676 00c3 03       		.uleb128 0x3
 4677 00c4 19060000 		.4byte	.LASF17
 4678 00c8 06       		.byte	0x6
 4679 00c9 14       		.byte	0x14
 4680 00ca 3E000000 		.4byte	0x3e
 4681 00ce 03       		.uleb128 0x3
 4682 00cf 16070000 		.4byte	.LASF18
ARM GAS  C:\Users\jo\AppData\Local\Temp\ccQTqoh0.s 			page 86


 4683 00d3 06       		.byte	0x6
 4684 00d4 15       		.byte	0x15
 4685 00d5 50000000 		.4byte	0x50
 4686 00d9 03       		.uleb128 0x3
 4687 00da 2D040000 		.4byte	.LASF19
 4688 00de 06       		.byte	0x6
 4689 00df 20       		.byte	0x20
 4690 00e0 62000000 		.4byte	0x62
 4691 00e4 03       		.uleb128 0x3
 4692 00e5 720A0000 		.4byte	.LASF20
 4693 00e9 06       		.byte	0x6
 4694 00ea 21       		.byte	0x21
 4695 00eb 74000000 		.4byte	0x74
 4696 00ef 03       		.uleb128 0x3
 4697 00f0 D60D0000 		.4byte	.LASF21
 4698 00f4 06       		.byte	0x6
 4699 00f5 2C       		.byte	0x2c
 4700 00f6 86000000 		.4byte	0x86
 4701 00fa 03       		.uleb128 0x3
 4702 00fb 6A030000 		.4byte	.LASF22
 4703 00ff 06       		.byte	0x6
 4704 0100 2D       		.byte	0x2d
 4705 0101 98000000 		.4byte	0x98
 4706 0105 03       		.uleb128 0x3
 4707 0106 220F0000 		.4byte	.LASF23
 4708 010a 06       		.byte	0x6
 4709 010b 39       		.byte	0x39
 4710 010c B1000000 		.4byte	0xb1
 4711 0110 05       		.uleb128 0x5
 4712 0111 EF000000 		.4byte	0xef
 4713 0115 03       		.uleb128 0x3
 4714 0116 B50A0000 		.4byte	.LASF24
 4715 011a 07       		.byte	0x7
 4716 011b 45       		.byte	0x45
 4717 011c FA000000 		.4byte	0xfa
 4718 0120 03       		.uleb128 0x3
 4719 0121 1B0A0000 		.4byte	.LASF25
 4720 0125 07       		.byte	0x7
 4721 0126 48       		.byte	0x48
 4722 0127 CE000000 		.4byte	0xce
 4723 012b 03       		.uleb128 0x3
 4724 012c 0C0E0000 		.4byte	.LASF26
 4725 0130 07       		.byte	0x7
 4726 0131 49       		.byte	0x49
 4727 0132 CE000000 		.4byte	0xce
 4728 0136 03       		.uleb128 0x3
 4729 0137 910D0000 		.4byte	.LASF27
 4730 013b 07       		.byte	0x7
 4731 013c 4A       		.byte	0x4a
 4732 013d CE000000 		.4byte	0xce
 4733 0141 03       		.uleb128 0x3
 4734 0142 14040000 		.4byte	.LASF28
 4735 0146 07       		.byte	0x7
 4736 0147 4C       		.byte	0x4c
 4737 0148 FA000000 		.4byte	0xfa
 4738 014c 03       		.uleb128 0x3
 4739 014d 34080000 		.4byte	.LASF29
ARM GAS  C:\Users\jo\AppData\Local\Temp\ccQTqoh0.s 			page 87


 4740 0151 07       		.byte	0x7
 4741 0152 4D       		.byte	0x4d
 4742 0153 EF000000 		.4byte	0xef
 4743 0157 03       		.uleb128 0x3
 4744 0158 A9030000 		.4byte	.LASF30
 4745 015c 07       		.byte	0x7
 4746 015d 4F       		.byte	0x4f
 4747 015e FA000000 		.4byte	0xfa
 4748 0162 03       		.uleb128 0x3
 4749 0163 9E040000 		.4byte	.LASF31
 4750 0167 07       		.byte	0x7
 4751 0168 51       		.byte	0x51
 4752 0169 EF000000 		.4byte	0xef
 4753 016d 03       		.uleb128 0x3
 4754 016e D8000000 		.4byte	.LASF32
 4755 0172 08       		.byte	0x8
 4756 0173 33       		.byte	0x33
 4757 0174 FA000000 		.4byte	0xfa
 4758 0178 03       		.uleb128 0x3
 4759 0179 20050000 		.4byte	.LASF33
 4760 017d 08       		.byte	0x8
 4761 017e 3F       		.byte	0x3f
 4762 017f 83010000 		.4byte	0x183
 4763 0183 06       		.uleb128 0x6
 4764 0184 68070000 		.4byte	.LASF54
 4765 0188 48       		.byte	0x48
 4766 0189 09       		.byte	0x9
 4767 018a C2       		.byte	0xc2
 4768 018b 7C020000 		.4byte	0x27c
 4769 018f 07       		.uleb128 0x7
 4770 0190 29050000 		.4byte	.LASF34
 4771 0194 09       		.byte	0x9
 4772 0195 C3       		.byte	0xc3
 4773 0196 87020000 		.4byte	0x287
 4774 019a 00       		.byte	0
 4775 019b 07       		.uleb128 0x7
 4776 019c 810D0000 		.4byte	.LASF35
 4777 01a0 09       		.byte	0x9
 4778 01a1 C5       		.byte	0xc5
 4779 01a2 87020000 		.4byte	0x287
 4780 01a6 04       		.byte	0x4
 4781 01a7 07       		.uleb128 0x7
 4782 01a8 91000000 		.4byte	.LASF36
 4783 01ac 09       		.byte	0x9
 4784 01ad C7       		.byte	0xc7
 4785 01ae 41010000 		.4byte	0x141
 4786 01b2 08       		.byte	0x8
 4787 01b3 07       		.uleb128 0x7
 4788 01b4 AA0C0000 		.4byte	.LASF37
 4789 01b8 09       		.byte	0x9
 4790 01b9 C8       		.byte	0xc8
 4791 01ba E2040000 		.4byte	0x4e2
 4792 01be 0C       		.byte	0xc
 4793 01bf 07       		.uleb128 0x7
 4794 01c0 CC040000 		.4byte	.LASF38
 4795 01c4 09       		.byte	0x9
 4796 01c5 CA       		.byte	0xca
ARM GAS  C:\Users\jo\AppData\Local\Temp\ccQTqoh0.s 			page 88


 4797 01c6 87020000 		.4byte	0x287
 4798 01ca 10       		.byte	0x10
 4799 01cb 07       		.uleb128 0x7
 4800 01cc EB060000 		.4byte	.LASF39
 4801 01d0 09       		.byte	0x9
 4802 01d1 CB       		.byte	0xcb
 4803 01d2 87020000 		.4byte	0x287
 4804 01d6 14       		.byte	0x14
 4805 01d7 07       		.uleb128 0x7
 4806 01d8 20060000 		.4byte	.LASF40
 4807 01dc 09       		.byte	0x9
 4808 01dd D2       		.byte	0xd2
 4809 01de F4060000 		.4byte	0x6f4
 4810 01e2 18       		.byte	0x18
 4811 01e3 07       		.uleb128 0x7
 4812 01e4 FB060000 		.4byte	.LASF41
 4813 01e8 09       		.byte	0x9
 4814 01e9 D8       		.byte	0xd8
 4815 01ea 06070000 		.4byte	0x706
 4816 01ee 1C       		.byte	0x1c
 4817 01ef 07       		.uleb128 0x7
 4818 01f0 60070000 		.4byte	.LASF42
 4819 01f4 09       		.byte	0x9
 4820 01f5 DD       		.byte	0xdd
 4821 01f6 2B010000 		.4byte	0x12b
 4822 01fa 20       		.byte	0x20
 4823 01fb 07       		.uleb128 0x7
 4824 01fc 6E080000 		.4byte	.LASF43
 4825 0200 09       		.byte	0x9
 4826 0201 E1       		.byte	0xe1
 4827 0202 20010000 		.4byte	0x120
 4828 0206 21       		.byte	0x21
 4829 0207 07       		.uleb128 0x7
 4830 0208 ED0E0000 		.4byte	.LASF44
 4831 020c 09       		.byte	0x9
 4832 020d E6       		.byte	0xe6
 4833 020e 36010000 		.4byte	0x136
 4834 0212 22       		.byte	0x22
 4835 0213 08       		.uleb128 0x8
 4836 0214 705F7500 		.ascii	"p_u\000"
 4837 0218 09       		.byte	0x9
 4838 0219 3101     		.2byte	0x131
 4839 021b 2F060000 		.4byte	0x62f
 4840 021f 24       		.byte	0x24
 4841 0220 09       		.uleb128 0x9
 4842 0221 BB010000 		.4byte	.LASF45
 4843 0225 09       		.byte	0x9
 4844 0226 3601     		.2byte	0x136
 4845 0228 8D020000 		.4byte	0x28d
 4846 022c 28       		.byte	0x28
 4847 022d 09       		.uleb128 0x9
 4848 022e AB0D0000 		.4byte	.LASF46
 4849 0232 09       		.byte	0x9
 4850 0233 3C01     		.2byte	0x13c
 4851 0235 B1020000 		.4byte	0x2b1
 4852 0239 2C       		.byte	0x2c
 4853 023a 09       		.uleb128 0x9
ARM GAS  C:\Users\jo\AppData\Local\Temp\ccQTqoh0.s 			page 89


 4854 023b FE090000 		.4byte	.LASF47
 4855 023f 09       		.byte	0x9
 4856 0240 4001     		.2byte	0x140
 4857 0242 4C010000 		.4byte	0x14c
 4858 0246 34       		.byte	0x34
 4859 0247 09       		.uleb128 0x9
 4860 0248 120C0000 		.4byte	.LASF48
 4861 024c 09       		.byte	0x9
 4862 024d 4601     		.2byte	0x146
 4863 024f 57010000 		.4byte	0x157
 4864 0253 38       		.byte	0x38
 4865 0254 09       		.uleb128 0x9
 4866 0255 4B070000 		.4byte	.LASF49
 4867 0259 09       		.byte	0x9
 4868 025a 4D01     		.2byte	0x14d
 4869 025c EE060000 		.4byte	0x6ee
 4870 0260 3C       		.byte	0x3c
 4871 0261 09       		.uleb128 0x9
 4872 0262 080B0000 		.4byte	.LASF50
 4873 0266 09       		.byte	0x9
 4874 0267 5101     		.2byte	0x151
 4875 0269 41010000 		.4byte	0x141
 4876 026d 40       		.byte	0x40
 4877 026e 09       		.uleb128 0x9
 4878 026f 4D0F0000 		.4byte	.LASF51
 4879 0273 09       		.byte	0x9
 4880 0274 5801     		.2byte	0x158
 4881 0276 64030000 		.4byte	0x364
 4882 027a 44       		.byte	0x44
 4883 027b 00       		.byte	0
 4884 027c 03       		.uleb128 0x3
 4885 027d 4F000000 		.4byte	.LASF52
 4886 0281 08       		.byte	0x8
 4887 0282 44       		.byte	0x44
 4888 0283 87020000 		.4byte	0x287
 4889 0287 0A       		.uleb128 0xa
 4890 0288 04       		.byte	0x4
 4891 0289 78010000 		.4byte	0x178
 4892 028d 03       		.uleb128 0x3
 4893 028e 8A010000 		.4byte	.LASF53
 4894 0292 08       		.byte	0x8
 4895 0293 49       		.byte	0x49
 4896 0294 98020000 		.4byte	0x298
 4897 0298 06       		.uleb128 0x6
 4898 0299 AD080000 		.4byte	.LASF55
 4899 029d 04       		.byte	0x4
 4900 029e 09       		.byte	0x9
 4901 029f B0       		.byte	0xb0
 4902 02a0 B1020000 		.4byte	0x2b1
 4903 02a4 07       		.uleb128 0x7
 4904 02a5 29050000 		.4byte	.LASF34
 4905 02a9 09       		.byte	0x9
 4906 02aa B1       		.byte	0xb1
 4907 02ab 87020000 		.4byte	0x287
 4908 02af 00       		.byte	0
 4909 02b0 00       		.byte	0
 4910 02b1 03       		.uleb128 0x3
ARM GAS  C:\Users\jo\AppData\Local\Temp\ccQTqoh0.s 			page 90


 4911 02b2 00000000 		.4byte	.LASF56
 4912 02b6 08       		.byte	0x8
 4913 02b7 50       		.byte	0x50
 4914 02b8 BC020000 		.4byte	0x2bc
 4915 02bc 06       		.uleb128 0x6
 4916 02bd DC070000 		.4byte	.LASF57
 4917 02c1 08       		.byte	0x8
 4918 02c2 09       		.byte	0x9
 4919 02c3 B7       		.byte	0xb7
 4920 02c4 E1020000 		.4byte	0x2e1
 4921 02c8 07       		.uleb128 0x7
 4922 02c9 29050000 		.4byte	.LASF34
 4923 02cd 09       		.byte	0x9
 4924 02ce B8       		.byte	0xb8
 4925 02cf 87020000 		.4byte	0x287
 4926 02d3 00       		.byte	0
 4927 02d4 07       		.uleb128 0x7
 4928 02d5 810D0000 		.4byte	.LASF35
 4929 02d9 09       		.byte	0x9
 4930 02da B9       		.byte	0xb9
 4931 02db 87020000 		.4byte	0x287
 4932 02df 04       		.byte	0x4
 4933 02e0 00       		.byte	0
 4934 02e1 03       		.uleb128 0x3
 4935 02e2 B60D0000 		.4byte	.LASF58
 4936 02e6 08       		.byte	0x8
 4937 02e7 57       		.byte	0x57
 4938 02e8 EC020000 		.4byte	0x2ec
 4939 02ec 0B       		.uleb128 0xb
 4940 02ed 69020000 		.4byte	.LASF59
 4941 02f1 1C       		.byte	0x1c
 4942 02f2 09       		.byte	0x9
 4943 02f3 9001     		.2byte	0x190
 4944 02f5 48030000 		.4byte	0x348
 4945 02f9 09       		.uleb128 0x9
 4946 02fa 08080000 		.4byte	.LASF60
 4947 02fe 09       		.byte	0x9
 4948 02ff 9101     		.2byte	0x191
 4949 0301 B1020000 		.4byte	0x2b1
 4950 0305 00       		.byte	0
 4951 0306 09       		.uleb128 0x9
 4952 0307 B5030000 		.4byte	.LASF61
 4953 030b 09       		.byte	0x9
 4954 030c 9201     		.2byte	0x192
 4955 030e 41010000 		.4byte	0x141
 4956 0312 08       		.byte	0x8
 4957 0313 09       		.uleb128 0x9
 4958 0314 E00F0000 		.4byte	.LASF62
 4959 0318 09       		.byte	0x9
 4960 0319 9401     		.2byte	0x194
 4961 031b E2040000 		.4byte	0x4e2
 4962 031f 0C       		.byte	0xc
 4963 0320 09       		.uleb128 0x9
 4964 0321 90060000 		.4byte	.LASF63
 4965 0325 09       		.byte	0x9
 4966 0326 9701     		.2byte	0x197
 4967 0328 87020000 		.4byte	0x287
ARM GAS  C:\Users\jo\AppData\Local\Temp\ccQTqoh0.s 			page 91


 4968 032c 10       		.byte	0x10
 4969 032d 09       		.uleb128 0x9
 4970 032e 74090000 		.4byte	.LASF64
 4971 0332 09       		.byte	0x9
 4972 0333 9801     		.2byte	0x198
 4973 0335 87020000 		.4byte	0x287
 4974 0339 14       		.byte	0x14
 4975 033a 09       		.uleb128 0x9
 4976 033b 080C0000 		.4byte	.LASF65
 4977 033f 09       		.byte	0x9
 4978 0340 9B01     		.2byte	0x19b
 4979 0342 87020000 		.4byte	0x287
 4980 0346 18       		.byte	0x18
 4981 0347 00       		.byte	0
 4982 0348 03       		.uleb128 0x3
 4983 0349 EF020000 		.4byte	.LASF66
 4984 034d 08       		.byte	0x8
 4985 034e 5C       		.byte	0x5c
 4986 034f 53030000 		.4byte	0x353
 4987 0353 0A       		.uleb128 0xa
 4988 0354 04       		.byte	0x4
 4989 0355 59030000 		.4byte	0x359
 4990 0359 0C       		.uleb128 0xc
 4991 035a 64030000 		.4byte	0x364
 4992 035e 0D       		.uleb128 0xd
 4993 035f 64030000 		.4byte	0x364
 4994 0363 00       		.byte	0
 4995 0364 0E       		.uleb128 0xe
 4996 0365 04       		.byte	0x4
 4997 0366 03       		.uleb128 0x3
 4998 0367 91080000 		.4byte	.LASF67
 4999 036b 08       		.byte	0x8
 5000 036c 61       		.byte	0x61
 5001 036d 71030000 		.4byte	0x371
 5002 0371 0B       		.uleb128 0xb
 5003 0372 1C040000 		.4byte	.LASF68
 5004 0376 14       		.byte	0x14
 5005 0377 09       		.byte	0x9
 5006 0378 6B01     		.2byte	0x16b
 5007 037a C0030000 		.4byte	0x3c0
 5008 037e 09       		.uleb128 0x9
 5009 037f 1A0F0000 		.4byte	.LASF69
 5010 0383 09       		.byte	0x9
 5011 0384 6C01     		.2byte	0x16c
 5012 0386 0C070000 		.4byte	0x70c
 5013 038a 00       		.byte	0
 5014 038b 09       		.uleb128 0x9
 5015 038c 47100000 		.4byte	.LASF70
 5016 0390 09       		.byte	0x9
 5017 0391 6D01     		.2byte	0x16d
 5018 0393 0C070000 		.4byte	0x70c
 5019 0397 04       		.byte	0x4
 5020 0398 09       		.uleb128 0x9
 5021 0399 EB040000 		.4byte	.LASF71
 5022 039d 09       		.byte	0x9
 5023 039e 6E01     		.2byte	0x16e
 5024 03a0 6D010000 		.4byte	0x16d
ARM GAS  C:\Users\jo\AppData\Local\Temp\ccQTqoh0.s 			page 92


 5025 03a4 08       		.byte	0x8
 5026 03a5 09       		.uleb128 0x9
 5027 03a6 27100000 		.4byte	.LASF72
 5028 03aa 09       		.byte	0x9
 5029 03ab 6F01     		.2byte	0x16f
 5030 03ad 48030000 		.4byte	0x348
 5031 03b1 0C       		.byte	0xc
 5032 03b2 09       		.uleb128 0x9
 5033 03b3 340E0000 		.4byte	.LASF73
 5034 03b7 09       		.byte	0x9
 5035 03b8 7101     		.2byte	0x171
 5036 03ba 64030000 		.4byte	0x364
 5037 03be 10       		.byte	0x10
 5038 03bf 00       		.byte	0
 5039 03c0 03       		.uleb128 0x3
 5040 03c1 770E0000 		.4byte	.LASF74
 5041 03c5 08       		.byte	0x8
 5042 03c6 66       		.byte	0x66
 5043 03c7 CB030000 		.4byte	0x3cb
 5044 03cb 0B       		.uleb128 0xb
 5045 03cc D4040000 		.4byte	.LASF75
 5046 03d0 10       		.byte	0x10
 5047 03d1 09       		.byte	0x9
 5048 03d2 7B01     		.2byte	0x17b
 5049 03d4 0D040000 		.4byte	0x40d
 5050 03d8 09       		.uleb128 0x9
 5051 03d9 1A0F0000 		.4byte	.LASF69
 5052 03dd 09       		.byte	0x9
 5053 03de 7C01     		.2byte	0x17c
 5054 03e0 0C070000 		.4byte	0x70c
 5055 03e4 00       		.byte	0
 5056 03e5 09       		.uleb128 0x9
 5057 03e6 47100000 		.4byte	.LASF70
 5058 03ea 09       		.byte	0x9
 5059 03eb 7E01     		.2byte	0x17e
 5060 03ed 0C070000 		.4byte	0x70c
 5061 03f1 04       		.byte	0x4
 5062 03f2 09       		.uleb128 0x9
 5063 03f3 EB040000 		.4byte	.LASF71
 5064 03f7 09       		.byte	0x9
 5065 03f8 8001     		.2byte	0x180
 5066 03fa 6D010000 		.4byte	0x16d
 5067 03fe 08       		.byte	0x8
 5068 03ff 09       		.uleb128 0x9
 5069 0400 98060000 		.4byte	.LASF76
 5070 0404 09       		.byte	0x9
 5071 0405 8801     		.2byte	0x188
 5072 0407 6D010000 		.4byte	0x16d
 5073 040b 0C       		.byte	0xc
 5074 040c 00       		.byte	0
 5075 040d 03       		.uleb128 0x3
 5076 040e A7070000 		.4byte	.LASF77
 5077 0412 08       		.byte	0x8
 5078 0413 6B       		.byte	0x6b
 5079 0414 18040000 		.4byte	0x418
 5080 0418 0F       		.uleb128 0xf
 5081 0419 14030000 		.4byte	.LASF78
ARM GAS  C:\Users\jo\AppData\Local\Temp\ccQTqoh0.s 			page 93


 5082 041d 1404     		.2byte	0x414
 5083 041f 09       		.byte	0x9
 5084 0420 A201     		.2byte	0x1a2
 5085 0422 5B040000 		.4byte	0x45b
 5086 0426 09       		.uleb128 0x9
 5087 0427 E2090000 		.4byte	.LASF79
 5088 042b 09       		.byte	0x9
 5089 042c AA01     		.2byte	0x1aa
 5090 042e 12070000 		.4byte	0x712
 5091 0432 00       		.byte	0
 5092 0433 09       		.uleb128 0x9
 5093 0434 C4040000 		.4byte	.LASF80
 5094 0438 09       		.byte	0x9
 5095 0439 AF01     		.2byte	0x1af
 5096 043b 62010000 		.4byte	0x162
 5097 043f 04       		.byte	0x4
 5098 0440 09       		.uleb128 0x9
 5099 0441 DF0A0000 		.4byte	.LASF81
 5100 0445 09       		.byte	0x9
 5101 0446 B301     		.2byte	0x1b3
 5102 0448 62010000 		.4byte	0x162
 5103 044c 08       		.byte	0x8
 5104 044d 09       		.uleb128 0x9
 5105 044e F00D0000 		.4byte	.LASF82
 5106 0452 09       		.byte	0x9
 5107 0453 B901     		.2byte	0x1b9
 5108 0455 04060000 		.4byte	0x604
 5109 0459 0C       		.byte	0xc
 5110 045a 00       		.byte	0
 5111 045b 03       		.uleb128 0x3
 5112 045c 620F0000 		.4byte	.LASF83
 5113 0460 08       		.byte	0x8
 5114 0461 70       		.byte	0x70
 5115 0462 66040000 		.4byte	0x466
 5116 0466 0F       		.uleb128 0xf
 5117 0467 6E0C0000 		.4byte	.LASF84
 5118 046b 7005     		.2byte	0x570
 5119 046d 09       		.byte	0x9
 5120 046e C201     		.2byte	0x1c2
 5121 0470 C5040000 		.4byte	0x4c5
 5122 0474 09       		.uleb128 0x9
 5123 0475 B50C0000 		.4byte	.LASF85
 5124 0479 09       		.byte	0x9
 5125 047a C601     		.2byte	0x1c6
 5126 047c E1020000 		.4byte	0x2e1
 5127 0480 00       		.byte	0
 5128 0481 09       		.uleb128 0x9
 5129 0482 48020000 		.4byte	.LASF86
 5130 0486 09       		.byte	0x9
 5131 0487 CA01     		.2byte	0x1ca
 5132 0489 C0030000 		.4byte	0x3c0
 5133 048d 1C       		.byte	0x1c
 5134 048e 08       		.uleb128 0x8
 5135 048f 64626700 		.ascii	"dbg\000"
 5136 0493 09       		.byte	0x9
 5137 0494 CE01     		.2byte	0x1ce
 5138 0496 0D040000 		.4byte	0x40d
ARM GAS  C:\Users\jo\AppData\Local\Temp\ccQTqoh0.s 			page 94


 5139 049a 2C       		.byte	0x2c
 5140 049b 10       		.uleb128 0x10
 5141 049c 3A0A0000 		.4byte	.LASF87
 5142 04a0 09       		.byte	0x9
 5143 04a1 D201     		.2byte	0x1d2
 5144 04a3 78010000 		.4byte	0x178
 5145 04a7 4004     		.2byte	0x440
 5146 04a9 11       		.uleb128 0x11
 5147 04aa 746D00   		.ascii	"tm\000"
 5148 04ad 09       		.byte	0x9
 5149 04ae D701     		.2byte	0x1d7
 5150 04b0 24060000 		.4byte	0x624
 5151 04b4 8804     		.2byte	0x488
 5152 04b6 10       		.uleb128 0x10
 5153 04b7 77020000 		.4byte	.LASF88
 5154 04bb 09       		.byte	0x9
 5155 04bc E301     		.2byte	0x1e3
 5156 04be 17070000 		.4byte	0x717
 5157 04c2 9004     		.2byte	0x490
 5158 04c4 00       		.byte	0
 5159 04c5 04       		.uleb128 0x4
 5160 04c6 04       		.byte	0x4
 5161 04c7 07       		.byte	0x7
 5162 04c8 880D0000 		.4byte	.LASF89
 5163 04cc 03       		.uleb128 0x3
 5164 04cd 580E0000 		.4byte	.LASF90
 5165 04d1 0A       		.byte	0xa
 5166 04d2 65       		.byte	0x65
 5167 04d3 64030000 		.4byte	0x364
 5168 04d7 03       		.uleb128 0x3
 5169 04d8 E60F0000 		.4byte	.LASF91
 5170 04dc 0A       		.byte	0xa
 5171 04dd 6D       		.byte	0x6d
 5172 04de 05010000 		.4byte	0x105
 5173 04e2 06       		.uleb128 0x6
 5174 04e3 F6090000 		.4byte	.LASF92
 5175 04e7 04       		.byte	0x4
 5176 04e8 0A       		.byte	0xa
 5177 04e9 89       		.byte	0x89
 5178 04ea FB040000 		.4byte	0x4fb
 5179 04ee 12       		.uleb128 0x12
 5180 04ef 72313300 		.ascii	"r13\000"
 5181 04f3 0A       		.byte	0xa
 5182 04f4 8A       		.byte	0x8a
 5183 04f5 76050000 		.4byte	0x576
 5184 04f9 00       		.byte	0
 5185 04fa 00       		.byte	0
 5186 04fb 06       		.uleb128 0x6
 5187 04fc 2E0C0000 		.4byte	.LASF93
 5188 0500 24       		.byte	0x24
 5189 0501 0B       		.byte	0xb
 5190 0502 F4       		.byte	0xf4
 5191 0503 76050000 		.4byte	0x576
 5192 0507 08       		.uleb128 0x8
 5193 0508 723400   		.ascii	"r4\000"
 5194 050b 0B       		.byte	0xb
 5195 050c 0701     		.2byte	0x107
ARM GAS  C:\Users\jo\AppData\Local\Temp\ccQTqoh0.s 			page 95


 5196 050e CC040000 		.4byte	0x4cc
 5197 0512 00       		.byte	0
 5198 0513 08       		.uleb128 0x8
 5199 0514 723500   		.ascii	"r5\000"
 5200 0517 0B       		.byte	0xb
 5201 0518 0801     		.2byte	0x108
 5202 051a CC040000 		.4byte	0x4cc
 5203 051e 04       		.byte	0x4
 5204 051f 08       		.uleb128 0x8
 5205 0520 723600   		.ascii	"r6\000"
 5206 0523 0B       		.byte	0xb
 5207 0524 0901     		.2byte	0x109
 5208 0526 CC040000 		.4byte	0x4cc
 5209 052a 08       		.byte	0x8
 5210 052b 08       		.uleb128 0x8
 5211 052c 723700   		.ascii	"r7\000"
 5212 052f 0B       		.byte	0xb
 5213 0530 0A01     		.2byte	0x10a
 5214 0532 CC040000 		.4byte	0x4cc
 5215 0536 0C       		.byte	0xc
 5216 0537 08       		.uleb128 0x8
 5217 0538 723800   		.ascii	"r8\000"
 5218 053b 0B       		.byte	0xb
 5219 053c 0B01     		.2byte	0x10b
 5220 053e CC040000 		.4byte	0x4cc
 5221 0542 10       		.byte	0x10
 5222 0543 08       		.uleb128 0x8
 5223 0544 723900   		.ascii	"r9\000"
 5224 0547 0B       		.byte	0xb
 5225 0548 0C01     		.2byte	0x10c
 5226 054a CC040000 		.4byte	0x4cc
 5227 054e 14       		.byte	0x14
 5228 054f 08       		.uleb128 0x8
 5229 0550 72313000 		.ascii	"r10\000"
 5230 0554 0B       		.byte	0xb
 5231 0555 0D01     		.2byte	0x10d
 5232 0557 CC040000 		.4byte	0x4cc
 5233 055b 18       		.byte	0x18
 5234 055c 08       		.uleb128 0x8
 5235 055d 72313100 		.ascii	"r11\000"
 5236 0561 0B       		.byte	0xb
 5237 0562 0E01     		.2byte	0x10e
 5238 0564 CC040000 		.4byte	0x4cc
 5239 0568 1C       		.byte	0x1c
 5240 0569 08       		.uleb128 0x8
 5241 056a 6C7200   		.ascii	"lr\000"
 5242 056d 0B       		.byte	0xb
 5243 056e 0F01     		.2byte	0x10f
 5244 0570 CC040000 		.4byte	0x4cc
 5245 0574 20       		.byte	0x20
 5246 0575 00       		.byte	0
 5247 0576 0A       		.uleb128 0xa
 5248 0577 04       		.byte	0x4
 5249 0578 FB040000 		.4byte	0x4fb
 5250 057c 13       		.uleb128 0x13
 5251 057d 10       		.byte	0x10
 5252 057e 0C       		.byte	0xc
ARM GAS  C:\Users\jo\AppData\Local\Temp\ccQTqoh0.s 			page 96


 5253 057f 51       		.byte	0x51
 5254 0580 B5050000 		.4byte	0x5b5
 5255 0584 07       		.uleb128 0x7
 5256 0585 F3060000 		.4byte	.LASF94
 5257 0589 0C       		.byte	0xc
 5258 058a 55       		.byte	0x55
 5259 058b 6D010000 		.4byte	0x16d
 5260 058f 00       		.byte	0
 5261 0590 07       		.uleb128 0x7
 5262 0591 D2060000 		.4byte	.LASF95
 5263 0595 0C       		.byte	0xc
 5264 0596 59       		.byte	0x59
 5265 0597 87020000 		.4byte	0x287
 5266 059b 04       		.byte	0x4
 5267 059c 07       		.uleb128 0x7
 5268 059d 62040000 		.4byte	.LASF96
 5269 05a1 0C       		.byte	0xc
 5270 05a2 5D       		.byte	0x5d
 5271 05a3 64030000 		.4byte	0x364
 5272 05a7 08       		.byte	0x8
 5273 05a8 07       		.uleb128 0x7
 5274 05a9 1C010000 		.4byte	.LASF97
 5275 05ad 0C       		.byte	0xc
 5276 05ae 61       		.byte	0x61
 5277 05af CE000000 		.4byte	0xce
 5278 05b3 0C       		.byte	0xc
 5279 05b4 00       		.byte	0
 5280 05b5 03       		.uleb128 0x3
 5281 05b6 150E0000 		.4byte	.LASF98
 5282 05ba 0C       		.byte	0xc
 5283 05bb 62       		.byte	0x62
 5284 05bc 7C050000 		.4byte	0x57c
 5285 05c0 14       		.uleb128 0x14
 5286 05c1 0804     		.2byte	0x408
 5287 05c3 0C       		.byte	0xc
 5288 05c4 67       		.byte	0x67
 5289 05c5 EE050000 		.4byte	0x5ee
 5290 05c9 07       		.uleb128 0x7
 5291 05ca 84070000 		.4byte	.LASF99
 5292 05ce 0C       		.byte	0xc
 5293 05cf 6B       		.byte	0x6b
 5294 05d0 37000000 		.4byte	0x37
 5295 05d4 00       		.byte	0
 5296 05d5 07       		.uleb128 0x7
 5297 05d6 35090000 		.4byte	.LASF100
 5298 05da 0C       		.byte	0xc
 5299 05db 6F       		.byte	0x6f
 5300 05dc EE050000 		.4byte	0x5ee
 5301 05e0 04       		.byte	0x4
 5302 05e1 07       		.uleb128 0x7
 5303 05e2 1E070000 		.4byte	.LASF101
 5304 05e6 0C       		.byte	0xc
 5305 05e7 73       		.byte	0x73
 5306 05e8 F4050000 		.4byte	0x5f4
 5307 05ec 08       		.byte	0x8
 5308 05ed 00       		.byte	0
 5309 05ee 0A       		.uleb128 0xa
ARM GAS  C:\Users\jo\AppData\Local\Temp\ccQTqoh0.s 			page 97


 5310 05ef 04       		.byte	0x4
 5311 05f0 B5050000 		.4byte	0x5b5
 5312 05f4 15       		.uleb128 0x15
 5313 05f5 B5050000 		.4byte	0x5b5
 5314 05f9 04060000 		.4byte	0x604
 5315 05fd 16       		.uleb128 0x16
 5316 05fe C5040000 		.4byte	0x4c5
 5317 0602 3F       		.byte	0x3f
 5318 0603 00       		.byte	0
 5319 0604 03       		.uleb128 0x3
 5320 0605 A00F0000 		.4byte	.LASF102
 5321 0609 0C       		.byte	0xc
 5322 060a 74       		.byte	0x74
 5323 060b C0050000 		.4byte	0x5c0
 5324 060f 13       		.uleb128 0x13
 5325 0610 04       		.byte	0x4
 5326 0611 0D       		.byte	0xd
 5327 0612 38       		.byte	0x38
 5328 0613 24060000 		.4byte	0x624
 5329 0617 07       		.uleb128 0x7
 5330 0618 65050000 		.4byte	.LASF103
 5331 061c 0D       		.byte	0xd
 5332 061d 3C       		.byte	0x3c
 5333 061e 15010000 		.4byte	0x115
 5334 0622 00       		.byte	0
 5335 0623 00       		.byte	0
 5336 0624 03       		.uleb128 0x3
 5337 0625 040A0000 		.4byte	.LASF104
 5338 0629 0D       		.byte	0xd
 5339 062a 3D       		.byte	0x3d
 5340 062b 0F060000 		.4byte	0x60f
 5341 062f 17       		.uleb128 0x17
 5342 0630 04       		.byte	0x4
 5343 0631 09       		.byte	0x9
 5344 0632 FA       		.byte	0xfa
 5345 0633 8C060000 		.4byte	0x68c
 5346 0637 18       		.uleb128 0x18
 5347 0638 56050000 		.4byte	.LASF105
 5348 063c 09       		.byte	0x9
 5349 063d 0101     		.2byte	0x101
 5350 063f 4C010000 		.4byte	0x14c
 5351 0643 18       		.uleb128 0x18
 5352 0644 C6100000 		.4byte	.LASF106
 5353 0648 09       		.byte	0x9
 5354 0649 0801     		.2byte	0x108
 5355 064b 4C010000 		.4byte	0x14c
 5356 064f 18       		.uleb128 0x18
 5357 0650 F8020000 		.4byte	.LASF107
 5358 0654 09       		.byte	0x9
 5359 0655 0F01     		.2byte	0x10f
 5360 0657 64030000 		.4byte	0x364
 5361 065b 18       		.uleb128 0x18
 5362 065c 790F0000 		.4byte	.LASF108
 5363 0660 09       		.byte	0x9
 5364 0661 1601     		.2byte	0x116
 5365 0663 8C060000 		.4byte	0x68c
 5366 0667 18       		.uleb128 0x18
ARM GAS  C:\Users\jo\AppData\Local\Temp\ccQTqoh0.s 			page 98


 5367 0668 050E0000 		.4byte	.LASF109
 5368 066c 09       		.byte	0x9
 5369 066d 1E01     		.2byte	0x11e
 5370 066f B7060000 		.4byte	0x6b7
 5371 0673 18       		.uleb128 0x18
 5372 0674 AA100000 		.4byte	.LASF110
 5373 0678 09       		.byte	0x9
 5374 0679 2701     		.2byte	0x127
 5375 067b EE060000 		.4byte	0x6ee
 5376 067f 18       		.uleb128 0x18
 5377 0680 90020000 		.4byte	.LASF111
 5378 0684 09       		.byte	0x9
 5379 0685 2F01     		.2byte	0x12f
 5380 0687 57010000 		.4byte	0x157
 5381 068b 00       		.byte	0
 5382 068c 0A       		.uleb128 0xa
 5383 068d 04       		.byte	0x4
 5384 068e 7C020000 		.4byte	0x27c
 5385 0692 06       		.uleb128 0x6
 5386 0693 00040000 		.4byte	.LASF112
 5387 0697 0C       		.byte	0xc
 5388 0698 0E       		.byte	0xe
 5389 0699 34       		.byte	0x34
 5390 069a B7060000 		.4byte	0x6b7
 5391 069e 07       		.uleb128 0x7
 5392 069f F3000000 		.4byte	.LASF113
 5393 06a3 0E       		.byte	0xe
 5394 06a4 35       		.byte	0x35
 5395 06a5 B1020000 		.4byte	0x2b1
 5396 06a9 00       		.byte	0
 5397 06aa 07       		.uleb128 0x7
 5398 06ab FF020000 		.4byte	.LASF114
 5399 06af 0E       		.byte	0xe
 5400 06b0 37       		.byte	0x37
 5401 06b1 62010000 		.4byte	0x162
 5402 06b5 08       		.byte	0x8
 5403 06b6 00       		.byte	0
 5404 06b7 0A       		.uleb128 0xa
 5405 06b8 04       		.byte	0x4
 5406 06b9 92060000 		.4byte	0x692
 5407 06bd 06       		.uleb128 0x6
 5408 06be 8B090000 		.4byte	.LASF115
 5409 06c2 10       		.byte	0x10
 5410 06c3 0F       		.byte	0xf
 5411 06c4 39       		.byte	0x39
 5412 06c5 EE060000 		.4byte	0x6ee
 5413 06c9 07       		.uleb128 0x7
 5414 06ca 1D0C0000 		.4byte	.LASF116
 5415 06ce 0F       		.byte	0xf
 5416 06cf 3A       		.byte	0x3a
 5417 06d0 B1020000 		.4byte	0x2b1
 5418 06d4 00       		.byte	0
 5419 06d5 07       		.uleb128 0x7
 5420 06d6 EB000000 		.4byte	.LASF117
 5421 06da 0F       		.byte	0xf
 5422 06db 3C       		.byte	0x3c
 5423 06dc 87020000 		.4byte	0x287
ARM GAS  C:\Users\jo\AppData\Local\Temp\ccQTqoh0.s 			page 99


 5424 06e0 08       		.byte	0x8
 5425 06e1 07       		.uleb128 0x7
 5426 06e2 B20F0000 		.4byte	.LASF118
 5427 06e6 0F       		.byte	0xf
 5428 06e7 3E       		.byte	0x3e
 5429 06e8 32070000 		.4byte	0x732
 5430 06ec 0C       		.byte	0xc
 5431 06ed 00       		.byte	0
 5432 06ee 0A       		.uleb128 0xa
 5433 06ef 04       		.byte	0x4
 5434 06f0 BD060000 		.4byte	0x6bd
 5435 06f4 0A       		.uleb128 0xa
 5436 06f5 04       		.byte	0x4
 5437 06f6 FA060000 		.4byte	0x6fa
 5438 06fa 19       		.uleb128 0x19
 5439 06fb FF060000 		.4byte	0x6ff
 5440 06ff 04       		.uleb128 0x4
 5441 0700 01       		.byte	0x1
 5442 0701 08       		.byte	0x8
 5443 0702 7B000000 		.4byte	.LASF119
 5444 0706 0A       		.uleb128 0xa
 5445 0707 04       		.byte	0x4
 5446 0708 D7040000 		.4byte	0x4d7
 5447 070c 0A       		.uleb128 0xa
 5448 070d 04       		.byte	0x4
 5449 070e 66030000 		.4byte	0x366
 5450 0712 05       		.uleb128 0x5
 5451 0713 F4060000 		.4byte	0x6f4
 5452 0717 15       		.uleb128 0x15
 5453 0718 D7040000 		.4byte	0x4d7
 5454 071c 27070000 		.4byte	0x727
 5455 0720 16       		.uleb128 0x16
 5456 0721 C5040000 		.4byte	0x4c5
 5457 0725 1B       		.byte	0x1b
 5458 0726 00       		.byte	0
 5459 0727 03       		.uleb128 0x3
 5460 0728 240E0000 		.4byte	.LASF120
 5461 072c 0F       		.byte	0xf
 5462 072d 34       		.byte	0x34
 5463 072e BD060000 		.4byte	0x6bd
 5464 0732 0A       		.uleb128 0xa
 5465 0733 04       		.byte	0x4
 5466 0734 27070000 		.4byte	0x727
 5467 0738 0A       		.uleb128 0xa
 5468 0739 04       		.byte	0x4
 5469 073a CE000000 		.4byte	0xce
 5470 073e 06       		.uleb128 0x6
 5471 073f CF010000 		.4byte	.LASF121
 5472 0743 10       		.byte	0x10
 5473 0744 10       		.byte	0x10
 5474 0745 40       		.byte	0x40
 5475 0746 7B070000 		.4byte	0x77b
 5476 074a 07       		.uleb128 0x7
 5477 074b FC070000 		.4byte	.LASF122
 5478 074f 10       		.byte	0x10
 5479 0750 41       		.byte	0x41
 5480 0751 9F070000 		.4byte	0x79f
ARM GAS  C:\Users\jo\AppData\Local\Temp\ccQTqoh0.s 			page 100


 5481 0755 00       		.byte	0
 5482 0756 07       		.uleb128 0x7
 5483 0757 1A0D0000 		.4byte	.LASF123
 5484 075b 10       		.byte	0x10
 5485 075c 41       		.byte	0x41
 5486 075d BE070000 		.4byte	0x7be
 5487 0761 04       		.byte	0x4
 5488 0762 12       		.uleb128 0x12
 5489 0763 70757400 		.ascii	"put\000"
 5490 0767 10       		.byte	0x10
 5491 0768 41       		.byte	0x41
 5492 0769 D8070000 		.4byte	0x7d8
 5493 076d 08       		.byte	0x8
 5494 076e 12       		.uleb128 0x12
 5495 076f 67657400 		.ascii	"get\000"
 5496 0773 10       		.byte	0x10
 5497 0774 41       		.byte	0x41
 5498 0775 ED070000 		.4byte	0x7ed
 5499 0779 0C       		.byte	0xc
 5500 077a 00       		.byte	0
 5501 077b 1A       		.uleb128 0x1a
 5502 077c 2C000000 		.4byte	0x2c
 5503 0780 94070000 		.4byte	0x794
 5504 0784 0D       		.uleb128 0xd
 5505 0785 64030000 		.4byte	0x364
 5506 0789 0D       		.uleb128 0xd
 5507 078a 94070000 		.4byte	0x794
 5508 078e 0D       		.uleb128 0xd
 5509 078f 2C000000 		.4byte	0x2c
 5510 0793 00       		.byte	0
 5511 0794 0A       		.uleb128 0xa
 5512 0795 04       		.byte	0x4
 5513 0796 9A070000 		.4byte	0x79a
 5514 079a 19       		.uleb128 0x19
 5515 079b CE000000 		.4byte	0xce
 5516 079f 0A       		.uleb128 0xa
 5517 07a0 04       		.byte	0x4
 5518 07a1 7B070000 		.4byte	0x77b
 5519 07a5 1A       		.uleb128 0x1a
 5520 07a6 2C000000 		.4byte	0x2c
 5521 07aa BE070000 		.4byte	0x7be
 5522 07ae 0D       		.uleb128 0xd
 5523 07af 64030000 		.4byte	0x364
 5524 07b3 0D       		.uleb128 0xd
 5525 07b4 38070000 		.4byte	0x738
 5526 07b8 0D       		.uleb128 0xd
 5527 07b9 2C000000 		.4byte	0x2c
 5528 07bd 00       		.byte	0
 5529 07be 0A       		.uleb128 0xa
 5530 07bf 04       		.byte	0x4
 5531 07c0 A5070000 		.4byte	0x7a5
 5532 07c4 1A       		.uleb128 0x1a
 5533 07c5 4C010000 		.4byte	0x14c
 5534 07c9 D8070000 		.4byte	0x7d8
 5535 07cd 0D       		.uleb128 0xd
 5536 07ce 64030000 		.4byte	0x364
 5537 07d2 0D       		.uleb128 0xd
ARM GAS  C:\Users\jo\AppData\Local\Temp\ccQTqoh0.s 			page 101


 5538 07d3 CE000000 		.4byte	0xce
 5539 07d7 00       		.byte	0
 5540 07d8 0A       		.uleb128 0xa
 5541 07d9 04       		.byte	0x4
 5542 07da C4070000 		.4byte	0x7c4
 5543 07de 1A       		.uleb128 0x1a
 5544 07df 4C010000 		.4byte	0x14c
 5545 07e3 ED070000 		.4byte	0x7ed
 5546 07e7 0D       		.uleb128 0xd
 5547 07e8 64030000 		.4byte	0x364
 5548 07ec 00       		.byte	0
 5549 07ed 0A       		.uleb128 0xa
 5550 07ee 04       		.byte	0x4
 5551 07ef DE070000 		.4byte	0x7de
 5552 07f3 13       		.uleb128 0x13
 5553 07f4 04       		.byte	0x4
 5554 07f5 10       		.byte	0x10
 5555 07f6 49       		.byte	0x49
 5556 07f7 08080000 		.4byte	0x808
 5557 07fb 12       		.uleb128 0x12
 5558 07fc 766D7400 		.ascii	"vmt\000"
 5559 0800 10       		.byte	0x10
 5560 0801 4B       		.byte	0x4b
 5561 0802 08080000 		.4byte	0x808
 5562 0806 00       		.byte	0
 5563 0807 00       		.byte	0
 5564 0808 0A       		.uleb128 0xa
 5565 0809 04       		.byte	0x4
 5566 080a 0E080000 		.4byte	0x80e
 5567 080e 19       		.uleb128 0x19
 5568 080f 3E070000 		.4byte	0x73e
 5569 0813 03       		.uleb128 0x3
 5570 0814 27060000 		.4byte	.LASF124
 5571 0818 10       		.byte	0x10
 5572 0819 4D       		.byte	0x4d
 5573 081a F3070000 		.4byte	0x7f3
 5574 081e 04       		.uleb128 0x4
 5575 081f 01       		.byte	0x1
 5576 0820 02       		.byte	0x2
 5577 0821 89050000 		.4byte	.LASF125
 5578 0825 06       		.uleb128 0x6
 5579 0826 D6080000 		.4byte	.LASF126
 5580 082a 10       		.byte	0x10
 5581 082b 11       		.byte	0x11
 5582 082c 2E       		.byte	0x2e
 5583 082d 62080000 		.4byte	0x862
 5584 0831 07       		.uleb128 0x7
 5585 0832 FC070000 		.4byte	.LASF122
 5586 0836 11       		.byte	0x11
 5587 0837 2F       		.byte	0x2f
 5588 0838 9F070000 		.4byte	0x79f
 5589 083c 00       		.byte	0
 5590 083d 07       		.uleb128 0x7
 5591 083e 1A0D0000 		.4byte	.LASF123
 5592 0842 11       		.byte	0x11
 5593 0843 2F       		.byte	0x2f
 5594 0844 BE070000 		.4byte	0x7be
ARM GAS  C:\Users\jo\AppData\Local\Temp\ccQTqoh0.s 			page 102


 5595 0848 04       		.byte	0x4
 5596 0849 12       		.uleb128 0x12
 5597 084a 70757400 		.ascii	"put\000"
 5598 084e 11       		.byte	0x11
 5599 084f 2F       		.byte	0x2f
 5600 0850 D8070000 		.4byte	0x7d8
 5601 0854 08       		.byte	0x8
 5602 0855 12       		.uleb128 0x12
 5603 0856 67657400 		.ascii	"get\000"
 5604 085a 11       		.byte	0x11
 5605 085b 2F       		.byte	0x2f
 5606 085c ED070000 		.4byte	0x7ed
 5607 0860 0C       		.byte	0xc
 5608 0861 00       		.byte	0
 5609 0862 13       		.uleb128 0x13
 5610 0863 04       		.byte	0x4
 5611 0864 11       		.byte	0x11
 5612 0865 39       		.byte	0x39
 5613 0866 77080000 		.4byte	0x877
 5614 086a 12       		.uleb128 0x12
 5615 086b 766D7400 		.ascii	"vmt\000"
 5616 086f 11       		.byte	0x11
 5617 0870 3B       		.byte	0x3b
 5618 0871 77080000 		.4byte	0x877
 5619 0875 00       		.byte	0
 5620 0876 00       		.byte	0
 5621 0877 0A       		.uleb128 0xa
 5622 0878 04       		.byte	0x4
 5623 0879 7D080000 		.4byte	0x87d
 5624 087d 19       		.uleb128 0x19
 5625 087e 25080000 		.4byte	0x825
 5626 0882 03       		.uleb128 0x3
 5627 0883 C1090000 		.4byte	.LASF127
 5628 0887 11       		.byte	0x11
 5629 0888 3D       		.byte	0x3d
 5630 0889 62080000 		.4byte	0x862
 5631 088d 03       		.uleb128 0x3
 5632 088e 30050000 		.4byte	.LASF128
 5633 0892 12       		.byte	0x12
 5634 0893 28       		.byte	0x28
 5635 0894 98080000 		.4byte	0x898
 5636 0898 06       		.uleb128 0x6
 5637 0899 910F0000 		.4byte	.LASF129
 5638 089d 04       		.byte	0x4
 5639 089e 13       		.byte	0x13
 5640 089f 00       		.byte	0
 5641 08a0 AF080000 		.4byte	0x8af
 5642 08a4 1B       		.uleb128 0x1b
 5643 08a5 8C080000 		.4byte	.LASF130
 5644 08a9 64030000 		.4byte	0x364
 5645 08ad 00       		.byte	0
 5646 08ae 00       		.byte	0
 5647 08af 03       		.uleb128 0x3
 5648 08b0 9F070000 		.4byte	.LASF131
 5649 08b4 12       		.byte	0x12
 5650 08b5 62       		.byte	0x62
 5651 08b6 8D080000 		.4byte	0x88d
ARM GAS  C:\Users\jo\AppData\Local\Temp\ccQTqoh0.s 			page 103


 5652 08ba 03       		.uleb128 0x3
 5653 08bb 59080000 		.4byte	.LASF132
 5654 08bf 14       		.byte	0x14
 5655 08c0 3F       		.byte	0x3f
 5656 08c1 CE000000 		.4byte	0xce
 5657 08c5 03       		.uleb128 0x3
 5658 08c6 E8050000 		.4byte	.LASF133
 5659 08ca 14       		.byte	0x14
 5660 08cb 40       		.byte	0x40
 5661 08cc C3000000 		.4byte	0xc3
 5662 08d0 03       		.uleb128 0x3
 5663 08d1 F4010000 		.4byte	.LASF134
 5664 08d5 14       		.byte	0x14
 5665 08d6 41       		.byte	0x41
 5666 08d7 E4000000 		.4byte	0xe4
 5667 08db 03       		.uleb128 0x3
 5668 08dc D00D0000 		.4byte	.LASF135
 5669 08e0 14       		.byte	0x14
 5670 08e1 42       		.byte	0x42
 5671 08e2 D9000000 		.4byte	0xd9
 5672 08e6 03       		.uleb128 0x3
 5673 08e7 230B0000 		.4byte	.LASF136
 5674 08eb 14       		.byte	0x14
 5675 08ec 43       		.byte	0x43
 5676 08ed FA000000 		.4byte	0xfa
 5677 08f1 03       		.uleb128 0x3
 5678 08f2 ED050000 		.4byte	.LASF137
 5679 08f6 14       		.byte	0x14
 5680 08f7 44       		.byte	0x44
 5681 08f8 EF000000 		.4byte	0xef
 5682 08fc 03       		.uleb128 0x3
 5683 08fd 7D060000 		.4byte	.LASF138
 5684 0901 15       		.byte	0x15
 5685 0902 2E       		.byte	0x2e
 5686 0903 2C000000 		.4byte	0x2c
 5687 0907 1C       		.uleb128 0x1c
 5688 0908 01       		.byte	0x1
 5689 0909 1E       		.byte	0x1e
 5690 090a 2B       		.byte	0x2b
 5691 090b 64090000 		.4byte	0x964
 5692 090f 1D       		.uleb128 0x1d
 5693 0910 940C0000 		.4byte	.LASF139
 5694 0914 00       		.sleb128 0
 5695 0915 1D       		.uleb128 0x1d
 5696 0916 4C080000 		.4byte	.LASF140
 5697 091a 01       		.sleb128 1
 5698 091b 1D       		.uleb128 0x1d
 5699 091c 36000000 		.4byte	.LASF141
 5700 0920 02       		.sleb128 2
 5701 0921 1D       		.uleb128 0x1d
 5702 0922 940E0000 		.4byte	.LASF142
 5703 0926 03       		.sleb128 3
 5704 0927 1D       		.uleb128 0x1d
 5705 0928 7C090000 		.4byte	.LASF143
 5706 092c 04       		.sleb128 4
 5707 092d 1D       		.uleb128 0x1d
 5708 092e 330D0000 		.4byte	.LASF144
ARM GAS  C:\Users\jo\AppData\Local\Temp\ccQTqoh0.s 			page 104


 5709 0932 05       		.sleb128 5
 5710 0933 1D       		.uleb128 0x1d
 5711 0934 06010000 		.4byte	.LASF145
 5712 0938 06       		.sleb128 6
 5713 0939 1D       		.uleb128 0x1d
 5714 093a 73030000 		.4byte	.LASF146
 5715 093e 07       		.sleb128 7
 5716 093f 1D       		.uleb128 0x1d
 5717 0940 C3030000 		.4byte	.LASF147
 5718 0944 08       		.sleb128 8
 5719 0945 1D       		.uleb128 0x1d
 5720 0946 FC040000 		.4byte	.LASF148
 5721 094a 09       		.sleb128 9
 5722 094b 1D       		.uleb128 0x1d
 5723 094c 780C0000 		.4byte	.LASF149
 5724 0950 0A       		.sleb128 10
 5725 0951 1D       		.uleb128 0x1d
 5726 0952 56060000 		.4byte	.LASF150
 5727 0956 0B       		.sleb128 11
 5728 0957 1D       		.uleb128 0x1d
 5729 0958 B5020000 		.4byte	.LASF151
 5730 095c 0C       		.sleb128 12
 5731 095d 1D       		.uleb128 0x1d
 5732 095e D5050000 		.4byte	.LASF152
 5733 0962 0D       		.sleb128 13
 5734 0963 00       		.byte	0
 5735 0964 06       		.uleb128 0x6
 5736 0965 D8100000 		.4byte	.LASF153
 5737 0969 04       		.byte	0x4
 5738 096a 16       		.byte	0x16
 5739 096b 2C       		.byte	0x2c
 5740 096c 7D090000 		.4byte	0x97d
 5741 0970 07       		.uleb128 0x7
 5742 0971 E80E0000 		.4byte	.LASF154
 5743 0975 16       		.byte	0x16
 5744 0976 2D       		.byte	0x2d
 5745 0977 E6080000 		.4byte	0x8e6
 5746 097b 00       		.byte	0
 5747 097c 00       		.byte	0
 5748 097d 03       		.uleb128 0x3
 5749 097e 5F100000 		.4byte	.LASF155
 5750 0982 16       		.byte	0x16
 5751 0983 40       		.byte	0x40
 5752 0984 64090000 		.4byte	0x964
 5753 0988 03       		.uleb128 0x3
 5754 0989 99010000 		.4byte	.LASF156
 5755 098d 17       		.byte	0x17
 5756 098e 2F       		.byte	0x2f
 5757 098f C5080000 		.4byte	0x8c5
 5758 0993 06       		.uleb128 0x6
 5759 0994 A10E0000 		.4byte	.LASF157
 5760 0998 10       		.byte	0x10
 5761 0999 18       		.byte	0x18
 5762 099a 4F       		.byte	0x4f
 5763 099b F4090000 		.4byte	0x9f4
 5764 099f 07       		.uleb128 0x7
 5765 09a0 4C010000 		.4byte	.LASF158
ARM GAS  C:\Users\jo\AppData\Local\Temp\ccQTqoh0.s 			page 105


 5766 09a4 18       		.byte	0x18
 5767 09a5 51       		.byte	0x51
 5768 09a6 F4090000 		.4byte	0x9f4
 5769 09aa 00       		.byte	0
 5770 09ab 07       		.uleb128 0x7
 5771 09ac 5D050000 		.4byte	.LASF159
 5772 09b0 18       		.byte	0x18
 5773 09b1 54       		.byte	0x54
 5774 09b2 64030000 		.4byte	0x364
 5775 09b6 04       		.byte	0x4
 5776 09b7 07       		.uleb128 0x7
 5777 09b8 FF0E0000 		.4byte	.LASF160
 5778 09bc 18       		.byte	0x18
 5779 09bd 5D       		.byte	0x5d
 5780 09be D0080000 		.4byte	0x8d0
 5781 09c2 08       		.byte	0x8
 5782 09c3 12       		.uleb128 0x12
 5783 09c4 6C656E00 		.ascii	"len\000"
 5784 09c8 18       		.byte	0x18
 5785 09c9 60       		.byte	0x60
 5786 09ca D0080000 		.4byte	0x8d0
 5787 09ce 0A       		.byte	0xa
 5788 09cf 07       		.uleb128 0x7
 5789 09d0 3B0E0000 		.4byte	.LASF161
 5790 09d4 18       		.byte	0x18
 5791 09d5 63       		.byte	0x63
 5792 09d6 BA080000 		.4byte	0x8ba
 5793 09da 0C       		.byte	0xc
 5794 09db 07       		.uleb128 0x7
 5795 09dc D2000000 		.4byte	.LASF162
 5796 09e0 18       		.byte	0x18
 5797 09e1 66       		.byte	0x66
 5798 09e2 BA080000 		.4byte	0x8ba
 5799 09e6 0D       		.byte	0xd
 5800 09e7 12       		.uleb128 0x12
 5801 09e8 72656600 		.ascii	"ref\000"
 5802 09ec 18       		.byte	0x18
 5803 09ed 6D       		.byte	0x6d
 5804 09ee D0080000 		.4byte	0x8d0
 5805 09f2 0E       		.byte	0xe
 5806 09f3 00       		.byte	0
 5807 09f4 0A       		.uleb128 0xa
 5808 09f5 04       		.byte	0x4
 5809 09f6 93090000 		.4byte	0x993
 5810 09fa 0A       		.uleb128 0xa
 5811 09fb 04       		.byte	0x4
 5812 09fc 000A0000 		.4byte	0xa00
 5813 0a00 06       		.uleb128 0x6
 5814 0a01 2B0F0000 		.4byte	.LASF163
 5815 0a05 30       		.byte	0x30
 5816 0a06 19       		.byte	0x19
 5817 0a07 88       		.byte	0x88
 5818 0a08 B40A0000 		.4byte	0xab4
 5819 0a0c 07       		.uleb128 0x7
 5820 0a0d 4C010000 		.4byte	.LASF158
 5821 0a11 19       		.byte	0x19
 5822 0a12 8A       		.byte	0x8a
ARM GAS  C:\Users\jo\AppData\Local\Temp\ccQTqoh0.s 			page 106


 5823 0a13 FA090000 		.4byte	0x9fa
 5824 0a17 00       		.byte	0
 5825 0a18 07       		.uleb128 0x7
 5826 0a19 D8100000 		.4byte	.LASF153
 5827 0a1d 19       		.byte	0x19
 5828 0a1e 8D       		.byte	0x8d
 5829 0a1f 7D090000 		.4byte	0x97d
 5830 0a23 04       		.byte	0x4
 5831 0a24 07       		.uleb128 0x7
 5832 0a25 D4070000 		.4byte	.LASF164
 5833 0a29 19       		.byte	0x19
 5834 0a2a 8E       		.byte	0x8e
 5835 0a2b 7D090000 		.4byte	0x97d
 5836 0a2f 08       		.byte	0x8
 5837 0a30 12       		.uleb128 0x12
 5838 0a31 677700   		.ascii	"gw\000"
 5839 0a34 19       		.byte	0x19
 5840 0a35 8F       		.byte	0x8f
 5841 0a36 7D090000 		.4byte	0x97d
 5842 0a3a 0C       		.byte	0xc
 5843 0a3b 07       		.uleb128 0x7
 5844 0a3c CB090000 		.4byte	.LASF165
 5845 0a40 19       		.byte	0x19
 5846 0a41 93       		.byte	0x93
 5847 0a42 B40A0000 		.4byte	0xab4
 5848 0a46 10       		.byte	0x10
 5849 0a47 07       		.uleb128 0x7
 5850 0a48 8A000000 		.4byte	.LASF166
 5851 0a4c 19       		.byte	0x19
 5852 0a4d 97       		.byte	0x97
 5853 0a4e D90A0000 		.4byte	0xad9
 5854 0a52 14       		.byte	0x14
 5855 0a53 07       		.uleb128 0x7
 5856 0a54 B6100000 		.4byte	.LASF167
 5857 0a58 19       		.byte	0x19
 5858 0a59 9B       		.byte	0x9b
 5859 0a5a 090B0000 		.4byte	0xb09
 5860 0a5e 18       		.byte	0x18
 5861 0a5f 07       		.uleb128 0x7
 5862 0a60 F90E0000 		.4byte	.LASF168
 5863 0a64 19       		.byte	0x19
 5864 0a65 AC       		.byte	0xac
 5865 0a66 64030000 		.4byte	0x364
 5866 0a6a 1C       		.byte	0x1c
 5867 0a6b 12       		.uleb128 0x12
 5868 0a6c 6D747500 		.ascii	"mtu\000"
 5869 0a70 19       		.byte	0x19
 5870 0a71 BA       		.byte	0xba
 5871 0a72 D0080000 		.4byte	0x8d0
 5872 0a76 20       		.byte	0x20
 5873 0a77 07       		.uleb128 0x7
 5874 0a78 670A0000 		.4byte	.LASF169
 5875 0a7c 19       		.byte	0x19
 5876 0a7d BC       		.byte	0xbc
 5877 0a7e BA080000 		.4byte	0x8ba
 5878 0a82 22       		.byte	0x22
 5879 0a83 07       		.uleb128 0x7
ARM GAS  C:\Users\jo\AppData\Local\Temp\ccQTqoh0.s 			page 107


 5880 0a84 35040000 		.4byte	.LASF170
 5881 0a88 19       		.byte	0x19
 5882 0a89 BE       		.byte	0xbe
 5883 0a8a 2E0B0000 		.4byte	0xb2e
 5884 0a8e 23       		.byte	0x23
 5885 0a8f 07       		.uleb128 0x7
 5886 0a90 D2000000 		.4byte	.LASF162
 5887 0a94 19       		.byte	0x19
 5888 0a95 C0       		.byte	0xc0
 5889 0a96 BA080000 		.4byte	0x8ba
 5890 0a9a 29       		.byte	0x29
 5891 0a9b 07       		.uleb128 0x7
 5892 0a9c 31000000 		.4byte	.LASF171
 5893 0aa0 19       		.byte	0x19
 5894 0aa1 C2       		.byte	0xc2
 5895 0aa2 3E0B0000 		.4byte	0xb3e
 5896 0aa6 2A       		.byte	0x2a
 5897 0aa7 12       		.uleb128 0x12
 5898 0aa8 6E756D00 		.ascii	"num\000"
 5899 0aac 19       		.byte	0x19
 5900 0aad C4       		.byte	0xc4
 5901 0aae BA080000 		.4byte	0x8ba
 5902 0ab2 2C       		.byte	0x2c
 5903 0ab3 00       		.byte	0
 5904 0ab4 03       		.uleb128 0x3
 5905 0ab5 46030000 		.4byte	.LASF172
 5906 0ab9 19       		.byte	0x19
 5907 0aba 6D       		.byte	0x6d
 5908 0abb BF0A0000 		.4byte	0xabf
 5909 0abf 0A       		.uleb128 0xa
 5910 0ac0 04       		.byte	0x4
 5911 0ac1 C50A0000 		.4byte	0xac5
 5912 0ac5 1A       		.uleb128 0x1a
 5913 0ac6 88090000 		.4byte	0x988
 5914 0aca D90A0000 		.4byte	0xad9
 5915 0ace 0D       		.uleb128 0xd
 5916 0acf F4090000 		.4byte	0x9f4
 5917 0ad3 0D       		.uleb128 0xd
 5918 0ad4 FA090000 		.4byte	0x9fa
 5919 0ad8 00       		.byte	0
 5920 0ad9 03       		.uleb128 0x3
 5921 0ada 97020000 		.4byte	.LASF173
 5922 0ade 19       		.byte	0x19
 5923 0adf 76       		.byte	0x76
 5924 0ae0 E40A0000 		.4byte	0xae4
 5925 0ae4 0A       		.uleb128 0xa
 5926 0ae5 04       		.byte	0x4
 5927 0ae6 EA0A0000 		.4byte	0xaea
 5928 0aea 1A       		.uleb128 0x1a
 5929 0aeb 88090000 		.4byte	0x988
 5930 0aef 030B0000 		.4byte	0xb03
 5931 0af3 0D       		.uleb128 0xd
 5932 0af4 FA090000 		.4byte	0x9fa
 5933 0af8 0D       		.uleb128 0xd
 5934 0af9 F4090000 		.4byte	0x9f4
 5935 0afd 0D       		.uleb128 0xd
 5936 0afe 030B0000 		.4byte	0xb03
ARM GAS  C:\Users\jo\AppData\Local\Temp\ccQTqoh0.s 			page 108


 5937 0b02 00       		.byte	0
 5938 0b03 0A       		.uleb128 0xa
 5939 0b04 04       		.byte	0x4
 5940 0b05 7D090000 		.4byte	0x97d
 5941 0b09 03       		.uleb128 0x3
 5942 0b0a 1F0D0000 		.4byte	.LASF174
 5943 0b0e 19       		.byte	0x19
 5944 0b0f 7E       		.byte	0x7e
 5945 0b10 140B0000 		.4byte	0xb14
 5946 0b14 0A       		.uleb128 0xa
 5947 0b15 04       		.byte	0x4
 5948 0b16 1A0B0000 		.4byte	0xb1a
 5949 0b1a 1A       		.uleb128 0x1a
 5950 0b1b 88090000 		.4byte	0x988
 5951 0b1f 2E0B0000 		.4byte	0xb2e
 5952 0b23 0D       		.uleb128 0xd
 5953 0b24 FA090000 		.4byte	0x9fa
 5954 0b28 0D       		.uleb128 0xd
 5955 0b29 F4090000 		.4byte	0x9f4
 5956 0b2d 00       		.byte	0
 5957 0b2e 15       		.uleb128 0x15
 5958 0b2f BA080000 		.4byte	0x8ba
 5959 0b33 3E0B0000 		.4byte	0xb3e
 5960 0b37 16       		.uleb128 0x16
 5961 0b38 C5040000 		.4byte	0x4c5
 5962 0b3c 05       		.byte	0x5
 5963 0b3d 00       		.byte	0
 5964 0b3e 15       		.uleb128 0x15
 5965 0b3f FF060000 		.4byte	0x6ff
 5966 0b43 4E0B0000 		.4byte	0xb4e
 5967 0b47 16       		.uleb128 0x16
 5968 0b48 C5040000 		.4byte	0x4c5
 5969 0b4c 01       		.byte	0x1
 5970 0b4d 00       		.byte	0
 5971 0b4e 03       		.uleb128 0x3
 5972 0b4f C4000000 		.4byte	.LASF175
 5973 0b53 1A       		.byte	0x1a
 5974 0b54 3C       		.byte	0x3c
 5975 0b55 590B0000 		.4byte	0xb59
 5976 0b59 0A       		.uleb128 0xa
 5977 0b5a 04       		.byte	0x4
 5978 0b5b 5F0B0000 		.4byte	0xb5f
 5979 0b5f 1A       		.uleb128 0x1a
 5980 0b60 88090000 		.4byte	0x988
 5981 0b64 780B0000 		.4byte	0xb78
 5982 0b68 0D       		.uleb128 0xd
 5983 0b69 64030000 		.4byte	0x364
 5984 0b6d 0D       		.uleb128 0xd
 5985 0b6e 780B0000 		.4byte	0xb78
 5986 0b72 0D       		.uleb128 0xd
 5987 0b73 88090000 		.4byte	0x988
 5988 0b77 00       		.byte	0
 5989 0b78 0A       		.uleb128 0xa
 5990 0b79 04       		.byte	0x4
 5991 0b7a 7E0B0000 		.4byte	0xb7e
 5992 0b7e 06       		.uleb128 0x6
 5993 0b7f C50F0000 		.4byte	.LASF176
ARM GAS  C:\Users\jo\AppData\Local\Temp\ccQTqoh0.s 			page 109


 5994 0b83 98       		.byte	0x98
 5995 0b84 1A       		.byte	0x1a
 5996 0b85 A8       		.byte	0xa8
 5997 0b86 300E0000 		.4byte	0xe30
 5998 0b8a 07       		.uleb128 0x7
 5999 0b8b A10C0000 		.4byte	.LASF177
 6000 0b8f 1A       		.byte	0x1a
 6001 0b90 AA       		.byte	0xaa
 6002 0b91 7D090000 		.4byte	0x97d
 6003 0b95 00       		.byte	0
 6004 0b96 07       		.uleb128 0x7
 6005 0b97 1D100000 		.4byte	.LASF178
 6006 0b9b 1A       		.byte	0x1a
 6007 0b9c AA       		.byte	0xaa
 6008 0b9d 7D090000 		.4byte	0x97d
 6009 0ba1 04       		.byte	0x4
 6010 0ba2 07       		.uleb128 0x7
 6011 0ba3 70000000 		.4byte	.LASF179
 6012 0ba7 1A       		.byte	0x1a
 6013 0ba8 AA       		.byte	0xaa
 6014 0ba9 BA080000 		.4byte	0x8ba
 6015 0bad 08       		.byte	0x8
 6016 0bae 12       		.uleb128 0x12
 6017 0baf 746F7300 		.ascii	"tos\000"
 6018 0bb3 1A       		.byte	0x1a
 6019 0bb4 AA       		.byte	0xaa
 6020 0bb5 BA080000 		.4byte	0x8ba
 6021 0bb9 09       		.byte	0x9
 6022 0bba 12       		.uleb128 0x12
 6023 0bbb 74746C00 		.ascii	"ttl\000"
 6024 0bbf 1A       		.byte	0x1a
 6025 0bc0 AA       		.byte	0xaa
 6026 0bc1 BA080000 		.4byte	0x8ba
 6027 0bc5 0A       		.byte	0xa
 6028 0bc6 07       		.uleb128 0x7
 6029 0bc7 4C010000 		.4byte	.LASF158
 6030 0bcb 1A       		.byte	0x1a
 6031 0bcc AC       		.byte	0xac
 6032 0bcd 780B0000 		.4byte	0xb78
 6033 0bd1 0C       		.byte	0xc
 6034 0bd2 07       		.uleb128 0x7
 6035 0bd3 CC0E0000 		.4byte	.LASF180
 6036 0bd7 1A       		.byte	0x1a
 6037 0bd8 AC       		.byte	0xac
 6038 0bd9 64030000 		.4byte	0x364
 6039 0bdd 10       		.byte	0x10
 6040 0bde 07       		.uleb128 0x7
 6041 0bdf BC030000 		.4byte	.LASF181
 6042 0be3 1A       		.byte	0x1a
 6043 0be4 AC       		.byte	0xac
 6044 0be5 4E0B0000 		.4byte	0xb4e
 6045 0be9 14       		.byte	0x14
 6046 0bea 07       		.uleb128 0x7
 6047 0beb F90E0000 		.4byte	.LASF168
 6048 0bef 1A       		.byte	0x1a
 6049 0bf0 AC       		.byte	0xac
 6050 0bf1 DA0E0000 		.4byte	0xeda
ARM GAS  C:\Users\jo\AppData\Local\Temp\ccQTqoh0.s 			page 110


 6051 0bf5 18       		.byte	0x18
 6052 0bf6 07       		.uleb128 0x7
 6053 0bf7 44060000 		.4byte	.LASF182
 6054 0bfb 1A       		.byte	0x1a
 6055 0bfc AC       		.byte	0xac
 6056 0bfd BA080000 		.4byte	0x8ba
 6057 0c01 19       		.byte	0x19
 6058 0c02 07       		.uleb128 0x7
 6059 0c03 FB000000 		.4byte	.LASF183
 6060 0c07 1A       		.byte	0x1a
 6061 0c08 AC       		.byte	0xac
 6062 0c09 D0080000 		.4byte	0x8d0
 6063 0c0d 1A       		.byte	0x1a
 6064 0c0e 07       		.uleb128 0x7
 6065 0c0f 03090000 		.4byte	.LASF184
 6066 0c13 1A       		.byte	0x1a
 6067 0c14 AF       		.byte	0xaf
 6068 0c15 D0080000 		.4byte	0x8d0
 6069 0c19 1C       		.byte	0x1c
 6070 0c1a 07       		.uleb128 0x7
 6071 0c1b D2000000 		.4byte	.LASF162
 6072 0c1f 1A       		.byte	0x1a
 6073 0c20 B1       		.byte	0xb1
 6074 0c21 BA080000 		.4byte	0x8ba
 6075 0c25 1E       		.byte	0x1e
 6076 0c26 07       		.uleb128 0x7
 6077 0c27 BC000000 		.4byte	.LASF185
 6078 0c2b 1A       		.byte	0x1a
 6079 0c2c BF       		.byte	0xbf
 6080 0c2d BA080000 		.4byte	0x8ba
 6081 0c31 1F       		.byte	0x1f
 6082 0c32 07       		.uleb128 0x7
 6083 0c33 49060000 		.4byte	.LASF186
 6084 0c37 1A       		.byte	0x1a
 6085 0c38 BF       		.byte	0xbf
 6086 0c39 BA080000 		.4byte	0x8ba
 6087 0c3d 20       		.byte	0x20
 6088 0c3e 07       		.uleb128 0x7
 6089 0c3f 890C0000 		.4byte	.LASF187
 6090 0c43 1A       		.byte	0x1a
 6091 0c44 C0       		.byte	0xc0
 6092 0c45 BA080000 		.4byte	0x8ba
 6093 0c49 21       		.byte	0x21
 6094 0c4a 12       		.uleb128 0x12
 6095 0c4b 746D7200 		.ascii	"tmr\000"
 6096 0c4f 1A       		.byte	0x1a
 6097 0c50 C1       		.byte	0xc1
 6098 0c51 E6080000 		.4byte	0x8e6
 6099 0c55 24       		.byte	0x24
 6100 0c56 07       		.uleb128 0x7
 6101 0c57 F4040000 		.4byte	.LASF188
 6102 0c5b 1A       		.byte	0x1a
 6103 0c5c C4       		.byte	0xc4
 6104 0c5d E6080000 		.4byte	0x8e6
 6105 0c61 28       		.byte	0x28
 6106 0c62 07       		.uleb128 0x7
 6107 0c63 5A0C0000 		.4byte	.LASF189
ARM GAS  C:\Users\jo\AppData\Local\Temp\ccQTqoh0.s 			page 111


 6108 0c67 1A       		.byte	0x1a
 6109 0c68 C5       		.byte	0xc5
 6110 0c69 D0080000 		.4byte	0x8d0
 6111 0c6d 2C       		.byte	0x2c
 6112 0c6e 07       		.uleb128 0x7
 6113 0c6f 9D030000 		.4byte	.LASF190
 6114 0c73 1A       		.byte	0x1a
 6115 0c74 C6       		.byte	0xc6
 6116 0c75 D0080000 		.4byte	0x8d0
 6117 0c79 2E       		.byte	0x2e
 6118 0c7a 07       		.uleb128 0x7
 6119 0c7b 4F020000 		.4byte	.LASF191
 6120 0c7f 1A       		.byte	0x1a
 6121 0c80 C7       		.byte	0xc7
 6122 0c81 E6080000 		.4byte	0x8e6
 6123 0c85 30       		.byte	0x30
 6124 0c86 07       		.uleb128 0x7
 6125 0c87 150A0000 		.4byte	.LASF192
 6126 0c8b 1A       		.byte	0x1a
 6127 0c8c CA       		.byte	0xca
 6128 0c8d DB080000 		.4byte	0x8db
 6129 0c91 34       		.byte	0x34
 6130 0c92 12       		.uleb128 0x12
 6131 0c93 6D737300 		.ascii	"mss\000"
 6132 0c97 1A       		.byte	0x1a
 6133 0c98 CC       		.byte	0xcc
 6134 0c99 D0080000 		.4byte	0x8d0
 6135 0c9d 36       		.byte	0x36
 6136 0c9e 07       		.uleb128 0x7
 6137 0c9f 620C0000 		.4byte	.LASF193
 6138 0ca3 1A       		.byte	0x1a
 6139 0ca4 CF       		.byte	0xcf
 6140 0ca5 E6080000 		.4byte	0x8e6
 6141 0ca9 38       		.byte	0x38
 6142 0caa 07       		.uleb128 0x7
 6143 0cab 8D040000 		.4byte	.LASF194
 6144 0caf 1A       		.byte	0x1a
 6145 0cb0 D0       		.byte	0xd0
 6146 0cb1 E6080000 		.4byte	0x8e6
 6147 0cb5 3C       		.byte	0x3c
 6148 0cb6 12       		.uleb128 0x12
 6149 0cb7 736100   		.ascii	"sa\000"
 6150 0cba 1A       		.byte	0x1a
 6151 0cbb D1       		.byte	0xd1
 6152 0cbc DB080000 		.4byte	0x8db
 6153 0cc0 40       		.byte	0x40
 6154 0cc1 12       		.uleb128 0x12
 6155 0cc2 737600   		.ascii	"sv\000"
 6156 0cc5 1A       		.byte	0x1a
 6157 0cc6 D1       		.byte	0xd1
 6158 0cc7 DB080000 		.4byte	0x8db
 6159 0ccb 42       		.byte	0x42
 6160 0ccc 12       		.uleb128 0x12
 6161 0ccd 72746F00 		.ascii	"rto\000"
 6162 0cd1 1A       		.byte	0x1a
 6163 0cd2 D3       		.byte	0xd3
 6164 0cd3 DB080000 		.4byte	0x8db
ARM GAS  C:\Users\jo\AppData\Local\Temp\ccQTqoh0.s 			page 112


 6165 0cd7 44       		.byte	0x44
 6166 0cd8 07       		.uleb128 0x7
 6167 0cd9 B1100000 		.4byte	.LASF195
 6168 0cdd 1A       		.byte	0x1a
 6169 0cde D4       		.byte	0xd4
 6170 0cdf BA080000 		.4byte	0x8ba
 6171 0ce3 46       		.byte	0x46
 6172 0ce4 07       		.uleb128 0x7
 6173 0ce5 3C060000 		.4byte	.LASF196
 6174 0ce9 1A       		.byte	0x1a
 6175 0cea D7       		.byte	0xd7
 6176 0ceb BA080000 		.4byte	0x8ba
 6177 0cef 47       		.byte	0x47
 6178 0cf0 07       		.uleb128 0x7
 6179 0cf1 4C090000 		.4byte	.LASF197
 6180 0cf5 1A       		.byte	0x1a
 6181 0cf6 D8       		.byte	0xd8
 6182 0cf7 E6080000 		.4byte	0x8e6
 6183 0cfb 48       		.byte	0x48
 6184 0cfc 07       		.uleb128 0x7
 6185 0cfd 80030000 		.4byte	.LASF198
 6186 0d01 1A       		.byte	0x1a
 6187 0d02 DB       		.byte	0xdb
 6188 0d03 D0080000 		.4byte	0x8d0
 6189 0d07 4C       		.byte	0x4c
 6190 0d08 07       		.uleb128 0x7
 6191 0d09 480D0000 		.4byte	.LASF199
 6192 0d0d 1A       		.byte	0x1a
 6193 0d0e DC       		.byte	0xdc
 6194 0d0f D0080000 		.4byte	0x8d0
 6195 0d13 4E       		.byte	0x4e
 6196 0d14 07       		.uleb128 0x7
 6197 0d15 DA0C0000 		.4byte	.LASF200
 6198 0d19 1A       		.byte	0x1a
 6199 0d1a DF       		.byte	0xdf
 6200 0d1b E6080000 		.4byte	0x8e6
 6201 0d1f 50       		.byte	0x50
 6202 0d20 07       		.uleb128 0x7
 6203 0d21 88060000 		.4byte	.LASF201
 6204 0d25 1A       		.byte	0x1a
 6205 0d26 E0       		.byte	0xe0
 6206 0d27 E6080000 		.4byte	0x8e6
 6207 0d2b 54       		.byte	0x54
 6208 0d2c 07       		.uleb128 0x7
 6209 0d2d 28070000 		.4byte	.LASF202
 6210 0d31 1A       		.byte	0x1a
 6211 0d32 E0       		.byte	0xe0
 6212 0d33 E6080000 		.4byte	0x8e6
 6213 0d37 58       		.byte	0x58
 6214 0d38 07       		.uleb128 0x7
 6215 0d39 0C060000 		.4byte	.LASF203
 6216 0d3d 1A       		.byte	0x1a
 6217 0d3e E2       		.byte	0xe2
 6218 0d3f E6080000 		.4byte	0x8e6
 6219 0d43 5C       		.byte	0x5c
 6220 0d44 07       		.uleb128 0x7
 6221 0d45 09100000 		.4byte	.LASF204
ARM GAS  C:\Users\jo\AppData\Local\Temp\ccQTqoh0.s 			page 113


 6222 0d49 1A       		.byte	0x1a
 6223 0d4a E3       		.byte	0xe3
 6224 0d4b D0080000 		.4byte	0x8d0
 6225 0d4f 60       		.byte	0x60
 6226 0d50 07       		.uleb128 0x7
 6227 0d51 0E0D0000 		.4byte	.LASF205
 6228 0d55 1A       		.byte	0x1a
 6229 0d56 E4       		.byte	0xe4
 6230 0d57 D0080000 		.4byte	0x8d0
 6231 0d5b 62       		.byte	0x62
 6232 0d5c 07       		.uleb128 0x7
 6233 0d5d A4060000 		.4byte	.LASF206
 6234 0d61 1A       		.byte	0x1a
 6235 0d62 E6       		.byte	0xe6
 6236 0d63 D0080000 		.4byte	0x8d0
 6237 0d67 64       		.byte	0x64
 6238 0d68 07       		.uleb128 0x7
 6239 0d69 5A0D0000 		.4byte	.LASF207
 6240 0d6d 1A       		.byte	0x1a
 6241 0d6e E8       		.byte	0xe8
 6242 0d6f D0080000 		.4byte	0x8d0
 6243 0d73 66       		.byte	0x66
 6244 0d74 07       		.uleb128 0x7
 6245 0d75 550F0000 		.4byte	.LASF208
 6246 0d79 1A       		.byte	0x1a
 6247 0d7a EA       		.byte	0xea
 6248 0d7b D0080000 		.4byte	0x8d0
 6249 0d7f 68       		.byte	0x68
 6250 0d80 07       		.uleb128 0x7
 6251 0d81 BB0C0000 		.4byte	.LASF209
 6252 0d85 1A       		.byte	0x1a
 6253 0d86 EE       		.byte	0xee
 6254 0d87 D0080000 		.4byte	0x8d0
 6255 0d8b 6A       		.byte	0x6a
 6256 0d8c 07       		.uleb128 0x7
 6257 0d8d 530C0000 		.4byte	.LASF210
 6258 0d91 1A       		.byte	0x1a
 6259 0d92 F2       		.byte	0xf2
 6260 0d93 830F0000 		.4byte	0xf83
 6261 0d97 6C       		.byte	0x6c
 6262 0d98 07       		.uleb128 0x7
 6263 0d99 11050000 		.4byte	.LASF211
 6264 0d9d 1A       		.byte	0x1a
 6265 0d9e F3       		.byte	0xf3
 6266 0d9f 830F0000 		.4byte	0xf83
 6267 0da3 70       		.byte	0x70
 6268 0da4 07       		.uleb128 0x7
 6269 0da5 5F010000 		.4byte	.LASF212
 6270 0da9 1A       		.byte	0x1a
 6271 0daa F5       		.byte	0xf5
 6272 0dab 830F0000 		.4byte	0xf83
 6273 0daf 74       		.byte	0x74
 6274 0db0 07       		.uleb128 0x7
 6275 0db1 E30D0000 		.4byte	.LASF213
 6276 0db5 1A       		.byte	0x1a
 6277 0db6 F8       		.byte	0xf8
 6278 0db7 F4090000 		.4byte	0x9f4
ARM GAS  C:\Users\jo\AppData\Local\Temp\ccQTqoh0.s 			page 114


 6279 0dbb 78       		.byte	0x78
 6280 0dbc 07       		.uleb128 0x7
 6281 0dbd 11070000 		.4byte	.LASF214
 6282 0dc1 1A       		.byte	0x1a
 6283 0dc2 FC       		.byte	0xfc
 6284 0dc3 5F0E0000 		.4byte	0xe5f
 6285 0dc7 7C       		.byte	0x7c
 6286 0dc8 07       		.uleb128 0x7
 6287 0dc9 9B0F0000 		.4byte	.LASF215
 6288 0dcd 1A       		.byte	0x1a
 6289 0dce FE       		.byte	0xfe
 6290 0dcf 300E0000 		.4byte	0xe30
 6291 0dd3 80       		.byte	0x80
 6292 0dd4 09       		.uleb128 0x9
 6293 0dd5 7F050000 		.4byte	.LASF216
 6294 0dd9 1A       		.byte	0x1a
 6295 0dda 0001     		.2byte	0x100
 6296 0ddc CF0E0000 		.4byte	0xecf
 6297 0de0 84       		.byte	0x84
 6298 0de1 09       		.uleb128 0x9
 6299 0de2 DD090000 		.4byte	.LASF217
 6300 0de6 1A       		.byte	0x1a
 6301 0de7 0201     		.2byte	0x102
 6302 0de9 890E0000 		.4byte	0xe89
 6303 0ded 88       		.byte	0x88
 6304 0dee 09       		.uleb128 0x9
 6305 0def 880A0000 		.4byte	.LASF218
 6306 0df3 1A       		.byte	0x1a
 6307 0df4 0401     		.2byte	0x104
 6308 0df6 AE0E0000 		.4byte	0xeae
 6309 0dfa 8C       		.byte	0x8c
 6310 0dfb 09       		.uleb128 0x9
 6311 0dfc B50E0000 		.4byte	.LASF219
 6312 0e00 1A       		.byte	0x1a
 6313 0e01 0D01     		.2byte	0x10d
 6314 0e03 E6080000 		.4byte	0x8e6
 6315 0e07 90       		.byte	0x90
 6316 0e08 09       		.uleb128 0x9
 6317 0e09 11100000 		.4byte	.LASF220
 6318 0e0d 1A       		.byte	0x1a
 6319 0e0e 1401     		.2byte	0x114
 6320 0e10 BA080000 		.4byte	0x8ba
 6321 0e14 94       		.byte	0x94
 6322 0e15 09       		.uleb128 0x9
 6323 0e16 24080000 		.4byte	.LASF221
 6324 0e1a 1A       		.byte	0x1a
 6325 0e1b 1601     		.2byte	0x116
 6326 0e1d BA080000 		.4byte	0x8ba
 6327 0e21 95       		.byte	0x95
 6328 0e22 09       		.uleb128 0x9
 6329 0e23 A7020000 		.4byte	.LASF222
 6330 0e27 1A       		.byte	0x1a
 6331 0e28 1901     		.2byte	0x119
 6332 0e2a BA080000 		.4byte	0x8ba
 6333 0e2e 96       		.byte	0x96
 6334 0e2f 00       		.byte	0
 6335 0e30 03       		.uleb128 0x3
ARM GAS  C:\Users\jo\AppData\Local\Temp\ccQTqoh0.s 			page 115


 6336 0e31 94090000 		.4byte	.LASF223
 6337 0e35 1A       		.byte	0x1a
 6338 0e36 48       		.byte	0x48
 6339 0e37 3B0E0000 		.4byte	0xe3b
 6340 0e3b 0A       		.uleb128 0xa
 6341 0e3c 04       		.byte	0x4
 6342 0e3d 410E0000 		.4byte	0xe41
 6343 0e41 1A       		.uleb128 0x1a
 6344 0e42 88090000 		.4byte	0x988
 6345 0e46 5F0E0000 		.4byte	0xe5f
 6346 0e4a 0D       		.uleb128 0xd
 6347 0e4b 64030000 		.4byte	0x364
 6348 0e4f 0D       		.uleb128 0xd
 6349 0e50 780B0000 		.4byte	0xb78
 6350 0e54 0D       		.uleb128 0xd
 6351 0e55 F4090000 		.4byte	0x9f4
 6352 0e59 0D       		.uleb128 0xd
 6353 0e5a 88090000 		.4byte	0x988
 6354 0e5e 00       		.byte	0
 6355 0e5f 03       		.uleb128 0x3
 6356 0e60 CF020000 		.4byte	.LASF224
 6357 0e64 1A       		.byte	0x1a
 6358 0e65 56       		.byte	0x56
 6359 0e66 6A0E0000 		.4byte	0xe6a
 6360 0e6a 0A       		.uleb128 0xa
 6361 0e6b 04       		.byte	0x4
 6362 0e6c 700E0000 		.4byte	0xe70
 6363 0e70 1A       		.uleb128 0x1a
 6364 0e71 88090000 		.4byte	0x988
 6365 0e75 890E0000 		.4byte	0xe89
 6366 0e79 0D       		.uleb128 0xd
 6367 0e7a 64030000 		.4byte	0x364
 6368 0e7e 0D       		.uleb128 0xd
 6369 0e7f 780B0000 		.4byte	0xb78
 6370 0e83 0D       		.uleb128 0xd
 6371 0e84 D0080000 		.4byte	0x8d0
 6372 0e88 00       		.byte	0
 6373 0e89 03       		.uleb128 0x3
 6374 0e8a 8D0A0000 		.4byte	.LASF225
 6375 0e8e 1A       		.byte	0x1a
 6376 0e8f 62       		.byte	0x62
 6377 0e90 940E0000 		.4byte	0xe94
 6378 0e94 0A       		.uleb128 0xa
 6379 0e95 04       		.byte	0x4
 6380 0e96 9A0E0000 		.4byte	0xe9a
 6381 0e9a 1A       		.uleb128 0x1a
 6382 0e9b 88090000 		.4byte	0x988
 6383 0e9f AE0E0000 		.4byte	0xeae
 6384 0ea3 0D       		.uleb128 0xd
 6385 0ea4 64030000 		.4byte	0x364
 6386 0ea8 0D       		.uleb128 0xd
 6387 0ea9 780B0000 		.4byte	0xb78
 6388 0ead 00       		.byte	0
 6389 0eae 03       		.uleb128 0x3
 6390 0eaf 55070000 		.4byte	.LASF226
 6391 0eb3 1A       		.byte	0x1a
 6392 0eb4 6E       		.byte	0x6e
ARM GAS  C:\Users\jo\AppData\Local\Temp\ccQTqoh0.s 			page 116


 6393 0eb5 B90E0000 		.4byte	0xeb9
 6394 0eb9 0A       		.uleb128 0xa
 6395 0eba 04       		.byte	0x4
 6396 0ebb BF0E0000 		.4byte	0xebf
 6397 0ebf 0C       		.uleb128 0xc
 6398 0ec0 CF0E0000 		.4byte	0xecf
 6399 0ec4 0D       		.uleb128 0xd
 6400 0ec5 64030000 		.4byte	0x364
 6401 0ec9 0D       		.uleb128 0xd
 6402 0eca 88090000 		.4byte	0x988
 6403 0ece 00       		.byte	0
 6404 0ecf 03       		.uleb128 0x3
 6405 0ed0 3B010000 		.4byte	.LASF227
 6406 0ed4 1A       		.byte	0x1a
 6407 0ed5 7C       		.byte	0x7c
 6408 0ed6 590B0000 		.4byte	0xb59
 6409 0eda 1E       		.uleb128 0x1e
 6410 0edb AB0A0000 		.4byte	.LASF385
 6411 0edf 01       		.byte	0x1
 6412 0ee0 1A       		.byte	0x1a
 6413 0ee1 7E       		.byte	0x7e
 6414 0ee2 290F0000 		.4byte	0xf29
 6415 0ee6 1D       		.uleb128 0x1d
 6416 0ee7 130B0000 		.4byte	.LASF228
 6417 0eeb 00       		.sleb128 0
 6418 0eec 1D       		.uleb128 0x1d
 6419 0eed D90E0000 		.4byte	.LASF229
 6420 0ef1 01       		.sleb128 1
 6421 0ef2 1D       		.uleb128 0x1d
 6422 0ef3 CB0C0000 		.4byte	.LASF230
 6423 0ef7 02       		.sleb128 2
 6424 0ef8 1D       		.uleb128 0x1d
 6425 0ef9 CF100000 		.4byte	.LASF231
 6426 0efd 03       		.sleb128 3
 6427 0efe 1D       		.uleb128 0x1d
 6428 0eff EC0C0000 		.4byte	.LASF232
 6429 0f03 04       		.sleb128 4
 6430 0f04 1D       		.uleb128 0x1d
 6431 0f05 610E0000 		.4byte	.LASF233
 6432 0f09 05       		.sleb128 5
 6433 0f0a 1D       		.uleb128 0x1d
 6434 0f0b 6C0E0000 		.4byte	.LASF234
 6435 0f0f 06       		.sleb128 6
 6436 0f10 1D       		.uleb128 0x1d
 6437 0f11 AA060000 		.4byte	.LASF235
 6438 0f15 07       		.sleb128 7
 6439 0f16 1D       		.uleb128 0x1d
 6440 0f17 B5050000 		.4byte	.LASF236
 6441 0f1b 08       		.sleb128 8
 6442 0f1c 1D       		.uleb128 0x1d
 6443 0f1d 3F050000 		.4byte	.LASF237
 6444 0f21 09       		.sleb128 9
 6445 0f22 1D       		.uleb128 0x1d
 6446 0f23 12010000 		.4byte	.LASF238
 6447 0f27 0A       		.sleb128 10
 6448 0f28 00       		.byte	0
 6449 0f29 0B       		.uleb128 0xb
ARM GAS  C:\Users\jo\AppData\Local\Temp\ccQTqoh0.s 			page 117


 6450 0f2a 43040000 		.4byte	.LASF239
 6451 0f2e 14       		.byte	0x14
 6452 0f2f 1B       		.byte	0x1b
 6453 0f30 1501     		.2byte	0x115
 6454 0f32 830F0000 		.4byte	0xf83
 6455 0f36 09       		.uleb128 0x9
 6456 0f37 4C010000 		.4byte	.LASF158
 6457 0f3b 1B       		.byte	0x1b
 6458 0f3c 1601     		.2byte	0x116
 6459 0f3e 830F0000 		.4byte	0xf83
 6460 0f42 00       		.byte	0
 6461 0f43 08       		.uleb128 0x8
 6462 0f44 7000     		.ascii	"p\000"
 6463 0f46 1B       		.byte	0x1b
 6464 0f47 1701     		.2byte	0x117
 6465 0f49 F4090000 		.4byte	0x9f4
 6466 0f4d 04       		.byte	0x4
 6467 0f4e 08       		.uleb128 0x8
 6468 0f4f 6C656E00 		.ascii	"len\000"
 6469 0f53 1B       		.byte	0x1b
 6470 0f54 1801     		.2byte	0x118
 6471 0f56 D0080000 		.4byte	0x8d0
 6472 0f5a 08       		.byte	0x8
 6473 0f5b 09       		.uleb128 0x9
 6474 0f5c 30070000 		.4byte	.LASF240
 6475 0f60 1B       		.byte	0x1b
 6476 0f61 1A01     		.2byte	0x11a
 6477 0f63 D0080000 		.4byte	0x8d0
 6478 0f67 0A       		.byte	0xa
 6479 0f68 09       		.uleb128 0x9
 6480 0f69 D2000000 		.4byte	.LASF162
 6481 0f6d 1B       		.byte	0x1b
 6482 0f6e 2201     		.2byte	0x122
 6483 0f70 BA080000 		.4byte	0x8ba
 6484 0f74 0C       		.byte	0xc
 6485 0f75 09       		.uleb128 0x9
 6486 0f76 C90D0000 		.4byte	.LASF241
 6487 0f7a 1B       		.byte	0x1b
 6488 0f7b 2701     		.2byte	0x127
 6489 0f7d 99100000 		.4byte	0x1099
 6490 0f81 10       		.byte	0x10
 6491 0f82 00       		.byte	0
 6492 0f83 0A       		.uleb128 0xa
 6493 0f84 04       		.byte	0x4
 6494 0f85 290F0000 		.4byte	0xf29
 6495 0f89 0B       		.uleb128 0xb
 6496 0f8a ED070000 		.4byte	.LASF242
 6497 0f8e 1C       		.byte	0x1c
 6498 0f8f 1A       		.byte	0x1a
 6499 0f90 1C01     		.2byte	0x11c
 6500 0f92 26100000 		.4byte	0x1026
 6501 0f96 09       		.uleb128 0x9
 6502 0f97 A10C0000 		.4byte	.LASF177
 6503 0f9b 1A       		.byte	0x1a
 6504 0f9c 1E01     		.2byte	0x11e
 6505 0f9e 7D090000 		.4byte	0x97d
 6506 0fa2 00       		.byte	0
ARM GAS  C:\Users\jo\AppData\Local\Temp\ccQTqoh0.s 			page 118


 6507 0fa3 09       		.uleb128 0x9
 6508 0fa4 1D100000 		.4byte	.LASF178
 6509 0fa8 1A       		.byte	0x1a
 6510 0fa9 1E01     		.2byte	0x11e
 6511 0fab 7D090000 		.4byte	0x97d
 6512 0faf 04       		.byte	0x4
 6513 0fb0 09       		.uleb128 0x9
 6514 0fb1 70000000 		.4byte	.LASF179
 6515 0fb5 1A       		.byte	0x1a
 6516 0fb6 1E01     		.2byte	0x11e
 6517 0fb8 BA080000 		.4byte	0x8ba
 6518 0fbc 08       		.byte	0x8
 6519 0fbd 08       		.uleb128 0x8
 6520 0fbe 746F7300 		.ascii	"tos\000"
 6521 0fc2 1A       		.byte	0x1a
 6522 0fc3 1E01     		.2byte	0x11e
 6523 0fc5 BA080000 		.4byte	0x8ba
 6524 0fc9 09       		.byte	0x9
 6525 0fca 08       		.uleb128 0x8
 6526 0fcb 74746C00 		.ascii	"ttl\000"
 6527 0fcf 1A       		.byte	0x1a
 6528 0fd0 1E01     		.2byte	0x11e
 6529 0fd2 BA080000 		.4byte	0x8ba
 6530 0fd6 0A       		.byte	0xa
 6531 0fd7 09       		.uleb128 0x9
 6532 0fd8 4C010000 		.4byte	.LASF158
 6533 0fdc 1A       		.byte	0x1a
 6534 0fdd 2001     		.2byte	0x120
 6535 0fdf 26100000 		.4byte	0x1026
 6536 0fe3 0C       		.byte	0xc
 6537 0fe4 09       		.uleb128 0x9
 6538 0fe5 CC0E0000 		.4byte	.LASF180
 6539 0fe9 1A       		.byte	0x1a
 6540 0fea 2001     		.2byte	0x120
 6541 0fec 64030000 		.4byte	0x364
 6542 0ff0 10       		.byte	0x10
 6543 0ff1 09       		.uleb128 0x9
 6544 0ff2 BC030000 		.4byte	.LASF181
 6545 0ff6 1A       		.byte	0x1a
 6546 0ff7 2001     		.2byte	0x120
 6547 0ff9 4E0B0000 		.4byte	0xb4e
 6548 0ffd 14       		.byte	0x14
 6549 0ffe 09       		.uleb128 0x9
 6550 0fff F90E0000 		.4byte	.LASF168
 6551 1003 1A       		.byte	0x1a
 6552 1004 2001     		.2byte	0x120
 6553 1006 DA0E0000 		.4byte	0xeda
 6554 100a 18       		.byte	0x18
 6555 100b 09       		.uleb128 0x9
 6556 100c 44060000 		.4byte	.LASF182
 6557 1010 1A       		.byte	0x1a
 6558 1011 2001     		.2byte	0x120
 6559 1013 BA080000 		.4byte	0x8ba
 6560 1017 19       		.byte	0x19
 6561 1018 09       		.uleb128 0x9
 6562 1019 FB000000 		.4byte	.LASF183
 6563 101d 1A       		.byte	0x1a
ARM GAS  C:\Users\jo\AppData\Local\Temp\ccQTqoh0.s 			page 119


 6564 101e 2001     		.2byte	0x120
 6565 1020 D0080000 		.4byte	0x8d0
 6566 1024 1A       		.byte	0x1a
 6567 1025 00       		.byte	0
 6568 1026 0A       		.uleb128 0xa
 6569 1027 04       		.byte	0x4
 6570 1028 890F0000 		.4byte	0xf89
 6571 102c 06       		.uleb128 0x6
 6572 102d 2C0E0000 		.4byte	.LASF243
 6573 1031 14       		.byte	0x14
 6574 1032 1B       		.byte	0x1b
 6575 1033 9F       		.byte	0x9f
 6576 1034 99100000 		.4byte	0x1099
 6577 1038 12       		.uleb128 0x12
 6578 1039 73726300 		.ascii	"src\000"
 6579 103d 1B       		.byte	0x1b
 6580 103e A0       		.byte	0xa0
 6581 103f D0080000 		.4byte	0x8d0
 6582 1043 00       		.byte	0
 6583 1044 07       		.uleb128 0x7
 6584 1045 C1100000 		.4byte	.LASF244
 6585 1049 1B       		.byte	0x1b
 6586 104a A1       		.byte	0xa1
 6587 104b D0080000 		.4byte	0x8d0
 6588 104f 02       		.byte	0x2
 6589 1050 07       		.uleb128 0x7
 6590 1051 32030000 		.4byte	.LASF245
 6591 1055 1B       		.byte	0x1b
 6592 1056 A2       		.byte	0xa2
 6593 1057 E6080000 		.4byte	0x8e6
 6594 105b 04       		.byte	0x4
 6595 105c 07       		.uleb128 0x7
 6596 105d 02080000 		.4byte	.LASF246
 6597 1061 1B       		.byte	0x1b
 6598 1062 A3       		.byte	0xa3
 6599 1063 E6080000 		.4byte	0x8e6
 6600 1067 08       		.byte	0x8
 6601 1068 07       		.uleb128 0x7
 6602 1069 670D0000 		.4byte	.LASF247
 6603 106d 1B       		.byte	0x1b
 6604 106e A4       		.byte	0xa4
 6605 106f D0080000 		.4byte	0x8d0
 6606 1073 0C       		.byte	0xc
 6607 1074 12       		.uleb128 0x12
 6608 1075 776E6400 		.ascii	"wnd\000"
 6609 1079 1B       		.byte	0x1b
 6610 107a A5       		.byte	0xa5
 6611 107b D0080000 		.4byte	0x8d0
 6612 107f 0E       		.byte	0xe
 6613 1080 07       		.uleb128 0x7
 6614 1081 48050000 		.4byte	.LASF248
 6615 1085 1B       		.byte	0x1b
 6616 1086 A6       		.byte	0xa6
 6617 1087 D0080000 		.4byte	0x8d0
 6618 108b 10       		.byte	0x10
 6619 108c 07       		.uleb128 0x7
 6620 108d 9E000000 		.4byte	.LASF249
ARM GAS  C:\Users\jo\AppData\Local\Temp\ccQTqoh0.s 			page 120


 6621 1091 1B       		.byte	0x1b
 6622 1092 A7       		.byte	0xa7
 6623 1093 D0080000 		.4byte	0x8d0
 6624 1097 12       		.byte	0x12
 6625 1098 00       		.byte	0
 6626 1099 0A       		.uleb128 0xa
 6627 109a 04       		.byte	0x4
 6628 109b 2C100000 		.4byte	0x102c
 6629 109f 1F       		.uleb128 0x1f
 6630 10a0 72070000 		.4byte	.LASF386
 6631 10a4 04       		.byte	0x4
 6632 10a5 1B       		.byte	0x1b
 6633 10a6 3701     		.2byte	0x137
 6634 10a8 C5100000 		.4byte	0x10c5
 6635 10ac 18       		.uleb128 0x18
 6636 10ad 10000000 		.4byte	.LASF250
 6637 10b1 1B       		.byte	0x1b
 6638 10b2 3801     		.2byte	0x138
 6639 10b4 26100000 		.4byte	0x1026
 6640 10b8 18       		.uleb128 0x18
 6641 10b9 E0100000 		.4byte	.LASF251
 6642 10bd 1B       		.byte	0x1b
 6643 10be 3901     		.2byte	0x139
 6644 10c0 780B0000 		.4byte	0xb78
 6645 10c4 00       		.byte	0
 6646 10c5 06       		.uleb128 0x6
 6647 10c6 25000000 		.4byte	.LASF252
 6648 10ca 18       		.byte	0x18
 6649 10cb 1C       		.byte	0x1c
 6650 10cc 3A       		.byte	0x3a
 6651 10cd 61110000 		.4byte	0x1161
 6652 10d1 07       		.uleb128 0x7
 6653 10d2 F80C0000 		.4byte	.LASF253
 6654 10d6 1C       		.byte	0x1c
 6655 10d7 3B       		.byte	0x3b
 6656 10d8 D0080000 		.4byte	0x8d0
 6657 10dc 00       		.byte	0
 6658 10dd 07       		.uleb128 0x7
 6659 10de 9B0F0000 		.4byte	.LASF215
 6660 10e2 1C       		.byte	0x1c
 6661 10e3 3C       		.byte	0x3c
 6662 10e4 D0080000 		.4byte	0x8d0
 6663 10e8 02       		.byte	0x2
 6664 10e9 12       		.uleb128 0x12
 6665 10ea 667700   		.ascii	"fw\000"
 6666 10ed 1C       		.byte	0x1c
 6667 10ee 3D       		.byte	0x3d
 6668 10ef D0080000 		.4byte	0x8d0
 6669 10f3 04       		.byte	0x4
 6670 10f4 07       		.uleb128 0x7
 6671 10f5 F40E0000 		.4byte	.LASF254
 6672 10f9 1C       		.byte	0x1c
 6673 10fa 3E       		.byte	0x3e
 6674 10fb D0080000 		.4byte	0x8d0
 6675 10ff 06       		.byte	0x6
 6676 1100 07       		.uleb128 0x7
 6677 1101 6D090000 		.4byte	.LASF255
ARM GAS  C:\Users\jo\AppData\Local\Temp\ccQTqoh0.s 			page 121


 6678 1105 1C       		.byte	0x1c
 6679 1106 3F       		.byte	0x3f
 6680 1107 D0080000 		.4byte	0x8d0
 6681 110b 08       		.byte	0x8
 6682 110c 07       		.uleb128 0x7
 6683 110d 7A0D0000 		.4byte	.LASF256
 6684 1111 1C       		.byte	0x1c
 6685 1112 40       		.byte	0x40
 6686 1113 D0080000 		.4byte	0x8d0
 6687 1117 0A       		.byte	0xa
 6688 1118 07       		.uleb128 0x7
 6689 1119 8D0E0000 		.4byte	.LASF257
 6690 111d 1C       		.byte	0x1c
 6691 111e 41       		.byte	0x41
 6692 111f D0080000 		.4byte	0x8d0
 6693 1123 0C       		.byte	0xc
 6694 1124 07       		.uleb128 0x7
 6695 1125 3A0C0000 		.4byte	.LASF258
 6696 1129 1C       		.byte	0x1c
 6697 112a 42       		.byte	0x42
 6698 112b D0080000 		.4byte	0x8d0
 6699 112f 0E       		.byte	0xe
 6700 1130 07       		.uleb128 0x7
 6701 1131 FD0D0000 		.4byte	.LASF259
 6702 1135 1C       		.byte	0x1c
 6703 1136 43       		.byte	0x43
 6704 1137 D0080000 		.4byte	0x8d0
 6705 113b 10       		.byte	0x10
 6706 113c 07       		.uleb128 0x7
 6707 113d E3030000 		.4byte	.LASF260
 6708 1141 1C       		.byte	0x1c
 6709 1142 44       		.byte	0x44
 6710 1143 D0080000 		.4byte	0x8d0
 6711 1147 12       		.byte	0x12
 6712 1148 12       		.uleb128 0x12
 6713 1149 65727200 		.ascii	"err\000"
 6714 114d 1C       		.byte	0x1c
 6715 114e 45       		.byte	0x45
 6716 114f D0080000 		.4byte	0x8d0
 6717 1153 14       		.byte	0x14
 6718 1154 07       		.uleb128 0x7
 6719 1155 FD0C0000 		.4byte	.LASF261
 6720 1159 1C       		.byte	0x1c
 6721 115a 46       		.byte	0x46
 6722 115b D0080000 		.4byte	0x8d0
 6723 115f 16       		.byte	0x16
 6724 1160 00       		.byte	0
 6725 1161 06       		.uleb128 0x6
 6726 1162 86020000 		.4byte	.LASF262
 6727 1166 14       		.byte	0x14
 6728 1167 1C       		.byte	0x1c
 6729 1168 5A       		.byte	0x5a
 6730 1169 B6110000 		.4byte	0x11b6
 6731 116d 07       		.uleb128 0x7
 6732 116e 31000000 		.4byte	.LASF171
 6733 1172 1C       		.byte	0x1c
 6734 1173 5C       		.byte	0x5c
ARM GAS  C:\Users\jo\AppData\Local\Temp\ccQTqoh0.s 			page 122


 6735 1174 F4060000 		.4byte	0x6f4
 6736 1178 00       		.byte	0
 6737 1179 07       		.uleb128 0x7
 6738 117a 4D0C0000 		.4byte	.LASF263
 6739 117e 1C       		.byte	0x1c
 6740 117f 5E       		.byte	0x5e
 6741 1180 FC080000 		.4byte	0x8fc
 6742 1184 04       		.byte	0x4
 6743 1185 07       		.uleb128 0x7
 6744 1186 E6060000 		.4byte	.LASF264
 6745 118a 1C       		.byte	0x1c
 6746 118b 5F       		.byte	0x5f
 6747 118c FC080000 		.4byte	0x8fc
 6748 1190 08       		.byte	0x8
 6749 1191 12       		.uleb128 0x12
 6750 1192 6D617800 		.ascii	"max\000"
 6751 1196 1C       		.byte	0x1c
 6752 1197 60       		.byte	0x60
 6753 1198 FC080000 		.4byte	0x8fc
 6754 119c 0C       		.byte	0xc
 6755 119d 12       		.uleb128 0x12
 6756 119e 65727200 		.ascii	"err\000"
 6757 11a2 1C       		.byte	0x1c
 6758 11a3 61       		.byte	0x61
 6759 11a4 D0080000 		.4byte	0x8d0
 6760 11a8 10       		.byte	0x10
 6761 11a9 07       		.uleb128 0x7
 6762 11aa 75060000 		.4byte	.LASF265
 6763 11ae 1C       		.byte	0x1c
 6764 11af 62       		.byte	0x62
 6765 11b0 D0080000 		.4byte	0x8d0
 6766 11b4 12       		.byte	0x12
 6767 11b5 00       		.byte	0
 6768 11b6 06       		.uleb128 0x6
 6769 11b7 24030000 		.4byte	.LASF266
 6770 11bb 06       		.byte	0x6
 6771 11bc 1C       		.byte	0x1c
 6772 11bd 65       		.byte	0x65
 6773 11be E7110000 		.4byte	0x11e7
 6774 11c2 07       		.uleb128 0x7
 6775 11c3 E6060000 		.4byte	.LASF264
 6776 11c7 1C       		.byte	0x1c
 6777 11c8 66       		.byte	0x66
 6778 11c9 D0080000 		.4byte	0x8d0
 6779 11cd 00       		.byte	0
 6780 11ce 12       		.uleb128 0x12
 6781 11cf 6D617800 		.ascii	"max\000"
 6782 11d3 1C       		.byte	0x1c
 6783 11d4 67       		.byte	0x67
 6784 11d5 D0080000 		.4byte	0x8d0
 6785 11d9 02       		.byte	0x2
 6786 11da 12       		.uleb128 0x12
 6787 11db 65727200 		.ascii	"err\000"
 6788 11df 1C       		.byte	0x1c
 6789 11e0 68       		.byte	0x68
 6790 11e1 D0080000 		.4byte	0x8d0
 6791 11e5 04       		.byte	0x4
ARM GAS  C:\Users\jo\AppData\Local\Temp\ccQTqoh0.s 			page 123


 6792 11e6 00       		.byte	0
 6793 11e7 06       		.uleb128 0x6
 6794 11e8 400E0000 		.4byte	.LASF267
 6795 11ec 12       		.byte	0x12
 6796 11ed 1C       		.byte	0x1c
 6797 11ee 6B       		.byte	0x6b
 6798 11ef 18120000 		.4byte	0x1218
 6799 11f3 12       		.uleb128 0x12
 6800 11f4 73656D00 		.ascii	"sem\000"
 6801 11f8 1C       		.byte	0x1c
 6802 11f9 6C       		.byte	0x6c
 6803 11fa B6110000 		.4byte	0x11b6
 6804 11fe 00       		.byte	0
 6805 11ff 07       		.uleb128 0x7
 6806 1200 F2030000 		.4byte	.LASF268
 6807 1204 1C       		.byte	0x1c
 6808 1205 6D       		.byte	0x6d
 6809 1206 B6110000 		.4byte	0x11b6
 6810 120a 06       		.byte	0x6
 6811 120b 07       		.uleb128 0x7
 6812 120c B00C0000 		.4byte	.LASF269
 6813 1210 1C       		.byte	0x1c
 6814 1211 6E       		.byte	0x6e
 6815 1212 B6110000 		.4byte	0x11b6
 6816 1216 0C       		.byte	0xc
 6817 1217 00       		.byte	0
 6818 1218 20       		.uleb128 0x20
 6819 1219 19050000 		.4byte	.LASF270
 6820 121d D401     		.2byte	0x1d4
 6821 121f 1C       		.byte	0x1c
 6822 1220 71       		.byte	0x71
 6823 1221 9E120000 		.4byte	0x129e
 6824 1225 07       		.uleb128 0x7
 6825 1226 14060000 		.4byte	.LASF271
 6826 122a 1C       		.byte	0x1c
 6827 122b 73       		.byte	0x73
 6828 122c C5100000 		.4byte	0x10c5
 6829 1230 00       		.byte	0
 6830 1231 07       		.uleb128 0x7
 6831 1232 3C040000 		.4byte	.LASF272
 6832 1236 1C       		.byte	0x1c
 6833 1237 76       		.byte	0x76
 6834 1238 C5100000 		.4byte	0x10c5
 6835 123c 18       		.byte	0x18
 6836 123d 07       		.uleb128 0x7
 6837 123e F8030000 		.4byte	.LASF273
 6838 1242 1C       		.byte	0x1c
 6839 1243 79       		.byte	0x79
 6840 1244 C5100000 		.4byte	0x10c5
 6841 1248 30       		.byte	0x30
 6842 1249 12       		.uleb128 0x12
 6843 124a 697000   		.ascii	"ip\000"
 6844 124d 1C       		.byte	0x1c
 6845 124e 7C       		.byte	0x7c
 6846 124f C5100000 		.4byte	0x10c5
 6847 1253 48       		.byte	0x48
 6848 1254 07       		.uleb128 0x7
ARM GAS  C:\Users\jo\AppData\Local\Temp\ccQTqoh0.s 			page 124


 6849 1255 030C0000 		.4byte	.LASF274
 6850 1259 1C       		.byte	0x1c
 6851 125a 7F       		.byte	0x7f
 6852 125b C5100000 		.4byte	0x10c5
 6853 125f 60       		.byte	0x60
 6854 1260 12       		.uleb128 0x12
 6855 1261 75647000 		.ascii	"udp\000"
 6856 1265 1C       		.byte	0x1c
 6857 1266 85       		.byte	0x85
 6858 1267 C5100000 		.4byte	0x10c5
 6859 126b 78       		.byte	0x78
 6860 126c 12       		.uleb128 0x12
 6861 126d 74637000 		.ascii	"tcp\000"
 6862 1271 1C       		.byte	0x1c
 6863 1272 88       		.byte	0x88
 6864 1273 C5100000 		.4byte	0x10c5
 6865 1277 90       		.byte	0x90
 6866 1278 12       		.uleb128 0x12
 6867 1279 6D656D00 		.ascii	"mem\000"
 6868 127d 1C       		.byte	0x1c
 6869 127e 8B       		.byte	0x8b
 6870 127f 61110000 		.4byte	0x1161
 6871 1283 A8       		.byte	0xa8
 6872 1284 07       		.uleb128 0x7
 6873 1285 620D0000 		.4byte	.LASF275
 6874 1289 1C       		.byte	0x1c
 6875 128a 8E       		.byte	0x8e
 6876 128b 9E120000 		.4byte	0x129e
 6877 128f BC       		.byte	0xbc
 6878 1290 21       		.uleb128 0x21
 6879 1291 73797300 		.ascii	"sys\000"
 6880 1295 1C       		.byte	0x1c
 6881 1296 91       		.byte	0x91
 6882 1297 E7110000 		.4byte	0x11e7
 6883 129b C001     		.2byte	0x1c0
 6884 129d 00       		.byte	0
 6885 129e 15       		.uleb128 0x15
 6886 129f 61110000 		.4byte	0x1161
 6887 12a3 AE120000 		.4byte	0x12ae
 6888 12a7 16       		.uleb128 0x16
 6889 12a8 C5040000 		.4byte	0x4c5
 6890 12ac 0C       		.byte	0xc
 6891 12ad 00       		.byte	0
 6892 12ae 22       		.uleb128 0x22
 6893 12af A1080000 		.4byte	.LASF334
 6894 12b3 03       		.byte	0x3
 6895 12b4 9E01     		.2byte	0x19e
 6896 12b6 03       		.byte	0x3
 6897 12b7 C8120000 		.4byte	0x12c8
 6898 12bb 23       		.uleb128 0x23
 6899 12bc 6C040000 		.4byte	.LASF276
 6900 12c0 03       		.byte	0x3
 6901 12c1 9E01     		.2byte	0x19e
 6902 12c3 F4060000 		.4byte	0x6f4
 6903 12c7 00       		.byte	0
 6904 12c8 24       		.uleb128 0x24
 6905 12c9 B9040000 		.4byte	.LASF277
ARM GAS  C:\Users\jo\AppData\Local\Temp\ccQTqoh0.s 			page 125


 6906 12cd 01       		.byte	0x1
 6907 12ce 6302     		.2byte	0x263
 6908 12d0 01       		.byte	0x1
 6909 12d1 FA120000 		.4byte	0x12fa
 6910 12d5 25       		.uleb128 0x25
 6911 12d6 70636200 		.ascii	"pcb\000"
 6912 12da 01       		.byte	0x1
 6913 12db 6302     		.2byte	0x263
 6914 12dd 780B0000 		.4byte	0xb78
 6915 12e1 25       		.uleb128 0x25
 6916 12e2 6C656E00 		.ascii	"len\000"
 6917 12e6 01       		.byte	0x1
 6918 12e7 6302     		.2byte	0x263
 6919 12e9 D0080000 		.4byte	0x8d0
 6920 12ed 26       		.uleb128 0x26
 6921 12ee C4060000 		.4byte	.LASF279
 6922 12f2 01       		.byte	0x1
 6923 12f3 6502     		.2byte	0x265
 6924 12f5 25000000 		.4byte	0x25
 6925 12f9 00       		.byte	0
 6926 12fa 24       		.uleb128 0x24
 6927 12fb 7A100000 		.4byte	.LASF278
 6928 12ff 01       		.byte	0x1
 6929 1300 6804     		.2byte	0x468
 6930 1302 01       		.byte	0x1
 6931 1303 22130000 		.4byte	0x1322
 6932 1307 25       		.uleb128 0x25
 6933 1308 73656700 		.ascii	"seg\000"
 6934 130c 01       		.byte	0x1
 6935 130d 6804     		.2byte	0x468
 6936 130f 830F0000 		.4byte	0xf83
 6937 1313 27       		.uleb128 0x27
 6938 1314 26       		.uleb128 0x26
 6939 1315 4C010000 		.4byte	.LASF158
 6940 1319 01       		.byte	0x1
 6941 131a 6B04     		.2byte	0x46b
 6942 131c 830F0000 		.4byte	0xf83
 6943 1320 00       		.byte	0
 6944 1321 00       		.byte	0
 6945 1322 24       		.uleb128 0x24
 6946 1323 A7050000 		.4byte	.LASF280
 6947 1327 01       		.byte	0x1
 6948 1328 BE05     		.2byte	0x5be
 6949 132a 01       		.byte	0x1
 6950 132b 3C130000 		.4byte	0x133c
 6951 132f 25       		.uleb128 0x25
 6952 1330 70636200 		.ascii	"pcb\000"
 6953 1334 01       		.byte	0x1
 6954 1335 BE05     		.2byte	0x5be
 6955 1337 780B0000 		.4byte	0xb78
 6956 133b 00       		.byte	0
 6957 133c 28       		.uleb128 0x28
 6958 133d F3050000 		.4byte	.LASF281
 6959 1341 01       		.byte	0x1
 6960 1342 AD04     		.2byte	0x4ad
 6961 1344 88090000 		.4byte	0x988
 6962 1348 01       		.byte	0x1
ARM GAS  C:\Users\jo\AppData\Local\Temp\ccQTqoh0.s 			page 126


 6963 1349 7C130000 		.4byte	0x137c
 6964 134d 25       		.uleb128 0x25
 6965 134e 61726700 		.ascii	"arg\000"
 6966 1352 01       		.byte	0x1
 6967 1353 AD04     		.2byte	0x4ad
 6968 1355 64030000 		.4byte	0x364
 6969 1359 25       		.uleb128 0x25
 6970 135a 70636200 		.ascii	"pcb\000"
 6971 135e 01       		.byte	0x1
 6972 135f AD04     		.2byte	0x4ad
 6973 1361 780B0000 		.4byte	0xb78
 6974 1365 25       		.uleb128 0x25
 6975 1366 7000     		.ascii	"p\000"
 6976 1368 01       		.byte	0x1
 6977 1369 AD04     		.2byte	0x4ad
 6978 136b F4090000 		.4byte	0x9f4
 6979 136f 25       		.uleb128 0x25
 6980 1370 65727200 		.ascii	"err\000"
 6981 1374 01       		.byte	0x1
 6982 1375 AD04     		.2byte	0x4ad
 6983 1377 88090000 		.4byte	0x988
 6984 137b 00       		.byte	0
 6985 137c 28       		.uleb128 0x28
 6986 137d A3000000 		.4byte	.LASF282
 6987 1381 01       		.byte	0x1
 6988 1382 3D04     		.2byte	0x43d
 6989 1384 88090000 		.4byte	0x988
 6990 1388 01       		.byte	0x1
 6991 1389 BE130000 		.4byte	0x13be
 6992 138d 25       		.uleb128 0x25
 6993 138e 70636200 		.ascii	"pcb\000"
 6994 1392 01       		.byte	0x1
 6995 1393 3D04     		.2byte	0x43d
 6996 1395 780B0000 		.4byte	0xb78
 6997 1399 29       		.uleb128 0x29
 6998 139a 65727200 		.ascii	"err\000"
 6999 139e 01       		.byte	0x1
 7000 139f 3F04     		.2byte	0x43f
 7001 13a1 88090000 		.4byte	0x988
 7002 13a5 26       		.uleb128 0x26
 7003 13a6 38030000 		.4byte	.LASF283
 7004 13aa 01       		.byte	0x1
 7005 13ab 4004     		.2byte	0x440
 7006 13ad BA080000 		.4byte	0x8ba
 7007 13b1 26       		.uleb128 0x26
 7008 13b2 E30D0000 		.4byte	.LASF213
 7009 13b6 01       		.byte	0x1
 7010 13b7 4304     		.2byte	0x443
 7011 13b9 F4090000 		.4byte	0x9f4
 7012 13bd 00       		.byte	0
 7013 13be 24       		.uleb128 0x24
 7014 13bf EC090000 		.4byte	.LASF284
 7015 13c3 01       		.byte	0x1
 7016 13c4 9D01     		.2byte	0x19d
 7017 13c6 01       		.byte	0x1
 7018 13c7 D8130000 		.4byte	0x13d8
 7019 13cb 25       		.uleb128 0x25
ARM GAS  C:\Users\jo\AppData\Local\Temp\ccQTqoh0.s 			page 127


 7020 13cc 70636200 		.ascii	"pcb\000"
 7021 13d0 01       		.byte	0x1
 7022 13d1 9D01     		.2byte	0x19d
 7023 13d3 780B0000 		.4byte	0xb78
 7024 13d7 00       		.byte	0
 7025 13d8 28       		.uleb128 0x28
 7026 13d9 CA0A0000 		.4byte	.LASF285
 7027 13dd 01       		.byte	0x1
 7028 13de 2306     		.2byte	0x623
 7029 13e0 E6080000 		.4byte	0x8e6
 7030 13e4 01       		.byte	0x1
 7031 13e5 F6130000 		.4byte	0x13f6
 7032 13e9 29       		.uleb128 0x29
 7033 13ea 69737300 		.ascii	"iss\000"
 7034 13ee 01       		.byte	0x1
 7035 13ef 2506     		.2byte	0x625
 7036 13f1 E6080000 		.4byte	0x8e6
 7037 13f5 00       		.byte	0
 7038 13f6 2A       		.uleb128 0x2a
 7039 13f7 6C060000 		.4byte	.LASF387
 7040 13fb 02       		.byte	0x2
 7041 13fc 45       		.byte	0x45
 7042 13fd 25000000 		.4byte	0x25
 7043 1401 03       		.byte	0x3
 7044 1402 33140000 		.4byte	0x1433
 7045 1406 2B       		.uleb128 0x2b
 7046 1407 63687000 		.ascii	"chp\000"
 7047 140b 02       		.byte	0x2
 7048 140c 45       		.byte	0x45
 7049 140d 33140000 		.4byte	0x1433
 7050 1411 2B       		.uleb128 0x2b
 7051 1412 666D7400 		.ascii	"fmt\000"
 7052 1416 02       		.byte	0x2
 7053 1417 45       		.byte	0x45
 7054 1418 F4060000 		.4byte	0x6f4
 7055 141c 2C       		.uleb128 0x2c
 7056 141d 2D       		.uleb128 0x2d
 7057 141e 617000   		.ascii	"ap\000"
 7058 1421 02       		.byte	0x2
 7059 1422 46       		.byte	0x46
 7060 1423 AF080000 		.4byte	0x8af
 7061 1427 2E       		.uleb128 0x2e
 7062 1428 4F100000 		.4byte	.LASF286
 7063 142c 02       		.byte	0x2
 7064 142d 47       		.byte	0x47
 7065 142e 25000000 		.4byte	0x25
 7066 1432 00       		.byte	0
 7067 1433 0A       		.uleb128 0xa
 7068 1434 04       		.byte	0x4
 7069 1435 13080000 		.4byte	0x813
 7070 1439 2F       		.uleb128 0x2f
 7071 143a 5E080000 		.4byte	.LASF287
 7072 143e 01       		.byte	0x1
 7073 143f EE01     		.2byte	0x1ee
 7074 1441 88090000 		.4byte	0x988
 7075 1445 00000000 		.4byte	.LFB268
 7076 1449 06000000 		.4byte	.LFE268-.LFB268
ARM GAS  C:\Users\jo\AppData\Local\Temp\ccQTqoh0.s 			page 128


 7077 144d 01       		.uleb128 0x1
 7078 144e 9C       		.byte	0x9c
 7079 144f 80140000 		.4byte	0x1480
 7080 1453 30       		.uleb128 0x30
 7081 1454 61726700 		.ascii	"arg\000"
 7082 1458 01       		.byte	0x1
 7083 1459 EE01     		.2byte	0x1ee
 7084 145b 64030000 		.4byte	0x364
 7085 145f 00000000 		.4byte	.LLST0
 7086 1463 31       		.uleb128 0x31
 7087 1464 70636200 		.ascii	"pcb\000"
 7088 1468 01       		.byte	0x1
 7089 1469 EE01     		.2byte	0x1ee
 7090 146b 780B0000 		.4byte	0xb78
 7091 146f 01       		.uleb128 0x1
 7092 1470 51       		.byte	0x51
 7093 1471 31       		.uleb128 0x31
 7094 1472 65727200 		.ascii	"err\000"
 7095 1476 01       		.byte	0x1
 7096 1477 EE01     		.2byte	0x1ee
 7097 1479 88090000 		.4byte	0x988
 7098 147d 01       		.uleb128 0x1
 7099 147e 52       		.byte	0x52
 7100 147f 00       		.byte	0
 7101 1480 2F       		.uleb128 0x2f
 7102 1481 BF0E0000 		.4byte	.LASF288
 7103 1485 01       		.byte	0x1
 7104 1486 8702     		.2byte	0x287
 7105 1488 D0080000 		.4byte	0x8d0
 7106 148c 00000000 		.4byte	.LFB272
 7107 1490 58000000 		.4byte	.LFE272-.LFB272
 7108 1494 01       		.uleb128 0x1
 7109 1495 9C       		.byte	0x9c
 7110 1496 CD140000 		.4byte	0x14cd
 7111 149a 29       		.uleb128 0x29
 7112 149b 6900     		.ascii	"i\000"
 7113 149d 01       		.byte	0x1
 7114 149e 8902     		.2byte	0x289
 7115 14a0 BA080000 		.4byte	0x8ba
 7116 14a4 32       		.uleb128 0x32
 7117 14a5 6E00     		.ascii	"n\000"
 7118 14a7 01       		.byte	0x1
 7119 14a8 8A02     		.2byte	0x28a
 7120 14aa D0080000 		.4byte	0x8d0
 7121 14ae 21000000 		.4byte	.LLST1
 7122 14b2 33       		.uleb128 0x33
 7123 14b3 70636200 		.ascii	"pcb\000"
 7124 14b7 01       		.byte	0x1
 7125 14b8 8B02     		.2byte	0x28b
 7126 14ba 780B0000 		.4byte	0xb78
 7127 14be 01       		.uleb128 0x1
 7128 14bf 53       		.byte	0x53
 7129 14c0 34       		.uleb128 0x34
 7130 14c1 98000000 		.4byte	.LASF325
 7131 14c5 01       		.byte	0x1
 7132 14c6 8D02     		.2byte	0x28d
 7133 14c8 10000000 		.4byte	.L3
ARM GAS  C:\Users\jo\AppData\Local\Temp\ccQTqoh0.s 			page 129


 7134 14cc 00       		.byte	0
 7135 14cd 35       		.uleb128 0x35
 7136 14ce F6130000 		.4byte	0x13f6
 7137 14d2 00000000 		.4byte	.LFB301
 7138 14d6 28000000 		.4byte	.LFE301-.LFB301
 7139 14da 01       		.uleb128 0x1
 7140 14db 9C       		.byte	0x9c
 7141 14dc 2C150000 		.4byte	0x152c
 7142 14e0 36       		.uleb128 0x36
 7143 14e1 06140000 		.4byte	0x1406
 7144 14e5 68000000 		.4byte	.LLST2
 7145 14e9 37       		.uleb128 0x37
 7146 14ea 11140000 		.4byte	0x1411
 7147 14ee 02       		.uleb128 0x2
 7148 14ef 91       		.byte	0x91
 7149 14f0 74       		.sleb128 -12
 7150 14f1 2C       		.uleb128 0x2c
 7151 14f2 38       		.uleb128 0x38
 7152 14f3 1D140000 		.4byte	0x141d
 7153 14f7 02       		.uleb128 0x2
 7154 14f8 91       		.byte	0x91
 7155 14f9 6C       		.sleb128 -20
 7156 14fa 38       		.uleb128 0x38
 7157 14fb 27140000 		.4byte	0x1427
 7158 14ff 01       		.uleb128 0x1
 7159 1500 50       		.byte	0x50
 7160 1501 37       		.uleb128 0x37
 7161 1502 11140000 		.4byte	0x1411
 7162 1506 06       		.uleb128 0x6
 7163 1507 03       		.byte	0x3
 7164 1508 00000000 		.4byte	.LC0
 7165 150c 9F       		.byte	0x9f
 7166 150d 39       		.uleb128 0x39
 7167 150e 06140000 		.4byte	0x1406
 7168 1512 3A       		.uleb128 0x3a
 7169 1513 14000000 		.4byte	.LVL13
 7170 1517 89300000 		.4byte	0x3089
 7171 151b 3B       		.uleb128 0x3b
 7172 151c 01       		.uleb128 0x1
 7173 151d 52       		.byte	0x52
 7174 151e 02       		.uleb128 0x2
 7175 151f 91       		.byte	0x91
 7176 1520 60       		.sleb128 -32
 7177 1521 3B       		.uleb128 0x3b
 7178 1522 01       		.uleb128 0x1
 7179 1523 51       		.byte	0x51
 7180 1524 05       		.uleb128 0x5
 7181 1525 03       		.byte	0x3
 7182 1526 00000000 		.4byte	.LC0
 7183 152a 00       		.byte	0
 7184 152b 00       		.byte	0
 7185 152c 3C       		.uleb128 0x3c
 7186 152d 64090000 		.4byte	.LASF388
 7187 1531 01       		.byte	0x1
 7188 1532 82       		.byte	0x82
 7189 1533 00000000 		.4byte	.LFB260
 7190 1537 02000000 		.4byte	.LFE260-.LFB260
ARM GAS  C:\Users\jo\AppData\Local\Temp\ccQTqoh0.s 			page 130


 7191 153b 01       		.uleb128 0x1
 7192 153c 9C       		.byte	0x9c
 7193 153d 3D       		.uleb128 0x3d
 7194 153e E2000000 		.4byte	.LASF293
 7195 1542 01       		.byte	0x1
 7196 1543 B101     		.2byte	0x1b1
 7197 1545 88090000 		.4byte	0x988
 7198 1549 00000000 		.4byte	.LFB267
 7199 154d A4000000 		.4byte	.LFE267-.LFB267
 7200 1551 01       		.uleb128 0x1
 7201 1552 9C       		.byte	0x9c
 7202 1553 26160000 		.4byte	0x1626
 7203 1557 30       		.uleb128 0x30
 7204 1558 70636200 		.ascii	"pcb\000"
 7205 155c 01       		.byte	0x1
 7206 155d B101     		.2byte	0x1b1
 7207 155f 780B0000 		.4byte	0xb78
 7208 1563 89000000 		.4byte	.LLST3
 7209 1567 3E       		.uleb128 0x3e
 7210 1568 4F050000 		.4byte	.LASF289
 7211 156c 01       		.byte	0x1
 7212 156d B101     		.2byte	0x1b1
 7213 156f 030B0000 		.4byte	0xb03
 7214 1573 D3000000 		.4byte	.LLST4
 7215 1577 3E       		.uleb128 0x3e
 7216 1578 DE0D0000 		.4byte	.LASF290
 7217 157c 01       		.byte	0x1
 7218 157d B101     		.2byte	0x1b1
 7219 157f D0080000 		.4byte	0x8d0
 7220 1583 39010000 		.4byte	.LLST5
 7221 1587 32       		.uleb128 0x32
 7222 1588 6900     		.ascii	"i\000"
 7223 158a 01       		.byte	0x1
 7224 158b B301     		.2byte	0x1b3
 7225 158d 25000000 		.4byte	0x25
 7226 1591 AB010000 		.4byte	.LLST6
 7227 1595 3F       		.uleb128 0x3f
 7228 1596 D6030000 		.4byte	.LASF291
 7229 159a 01       		.byte	0x1
 7230 159b B401     		.2byte	0x1b4
 7231 159d 25000000 		.4byte	0x25
 7232 15a1 04       		.byte	0x4
 7233 15a2 40       		.uleb128 0x40
 7234 15a3 690C0000 		.4byte	.LASF292
 7235 15a7 01       		.byte	0x1
 7236 15a8 B501     		.2byte	0x1b5
 7237 15aa 780B0000 		.4byte	0xb78
 7238 15ae BF010000 		.4byte	.LLST7
 7239 15b2 41       		.uleb128 0x41
 7240 15b3 AE120000 		.4byte	0x12ae
 7241 15b7 82000000 		.4byte	.LBB94
 7242 15bb 06000000 		.4byte	.LBE94-.LBB94
 7243 15bf 01       		.byte	0x1
 7244 15c0 B701     		.2byte	0x1b7
 7245 15c2 E6150000 		.4byte	0x15e6
 7246 15c6 37       		.uleb128 0x37
 7247 15c7 BB120000 		.4byte	0x12bb
ARM GAS  C:\Users\jo\AppData\Local\Temp\ccQTqoh0.s 			page 131


 7248 15cb 06       		.uleb128 0x6
 7249 15cc 03       		.byte	0x3
 7250 15cd 28000000 		.4byte	.LC1
 7251 15d1 9F       		.byte	0x9f
 7252 15d2 3A       		.uleb128 0x3a
 7253 15d3 88000000 		.4byte	.LVL32
 7254 15d7 A8300000 		.4byte	0x30a8
 7255 15db 3B       		.uleb128 0x3b
 7256 15dc 01       		.uleb128 0x1
 7257 15dd 50       		.byte	0x50
 7258 15de 05       		.uleb128 0x5
 7259 15df 03       		.byte	0x3
 7260 15e0 28000000 		.4byte	.LC1
 7261 15e4 00       		.byte	0
 7262 15e5 00       		.byte	0
 7263 15e6 42       		.uleb128 0x42
 7264 15e7 5A000000 		.4byte	.LVL23
 7265 15eb BA300000 		.4byte	0x30ba
 7266 15ef 42       		.uleb128 0x42
 7267 15f0 66000000 		.4byte	.LVL25
 7268 15f4 80140000 		.4byte	0x1480
 7269 15f8 3A       		.uleb128 0x3a
 7270 15f9 82000000 		.4byte	.LVL31
 7271 15fd CD140000 		.4byte	0x14cd
 7272 1601 3B       		.uleb128 0x3b
 7273 1602 01       		.uleb128 0x1
 7274 1603 53       		.byte	0x53
 7275 1604 03       		.uleb128 0x3
 7276 1605 0A       		.byte	0xa
 7277 1606 B701     		.2byte	0x1b7
 7278 1608 3B       		.uleb128 0x3b
 7279 1609 01       		.uleb128 0x1
 7280 160a 52       		.byte	0x52
 7281 160b 05       		.uleb128 0x5
 7282 160c 03       		.byte	0x3
 7283 160d 28000000 		.4byte	.LC1
 7284 1611 3B       		.uleb128 0x3b
 7285 1612 01       		.uleb128 0x1
 7286 1613 51       		.byte	0x51
 7287 1614 05       		.uleb128 0x5
 7288 1615 03       		.byte	0x3
 7289 1616 00000000 		.4byte	.LC0
 7290 161a 3B       		.uleb128 0x3b
 7291 161b 02       		.uleb128 0x2
 7292 161c 7D       		.byte	0x7d
 7293 161d 00       		.sleb128 0
 7294 161e 05       		.uleb128 0x5
 7295 161f 03       		.byte	0x3
 7296 1620 50000000 		.4byte	.LC2
 7297 1624 00       		.byte	0
 7298 1625 00       		.byte	0
 7299 1626 3D       		.uleb128 0x3d
 7300 1627 E3080000 		.4byte	.LASF294
 7301 162b 01       		.byte	0x1
 7302 162c 0702     		.2byte	0x207
 7303 162e 780B0000 		.4byte	0xb78
 7304 1632 00000000 		.4byte	.LFB269
ARM GAS  C:\Users\jo\AppData\Local\Temp\ccQTqoh0.s 			page 132


 7305 1636 D8000000 		.4byte	.LFE269-.LFB269
 7306 163a 01       		.uleb128 0x1
 7307 163b 9C       		.byte	0x9c
 7308 163c F8160000 		.4byte	0x16f8
 7309 1640 30       		.uleb128 0x30
 7310 1641 70636200 		.ascii	"pcb\000"
 7311 1645 01       		.byte	0x1
 7312 1646 0702     		.2byte	0x207
 7313 1648 780B0000 		.4byte	0xb78
 7314 164c DD010000 		.4byte	.LLST8
 7315 1650 3E       		.uleb128 0x3e
 7316 1651 BD050000 		.4byte	.LASF295
 7317 1655 01       		.byte	0x1
 7318 1656 0702     		.2byte	0x207
 7319 1658 BA080000 		.4byte	0x8ba
 7320 165c 11020000 		.4byte	.LLST9
 7321 1660 40       		.uleb128 0x40
 7322 1661 6E0F0000 		.4byte	.LASF296
 7323 1665 01       		.byte	0x1
 7324 1666 0902     		.2byte	0x209
 7325 1668 26100000 		.4byte	0x1026
 7326 166c 4B020000 		.4byte	.LLST10
 7327 1670 41       		.uleb128 0x41
 7328 1671 AE120000 		.4byte	0x12ae
 7329 1675 AA000000 		.4byte	.LBB96
 7330 1679 06000000 		.4byte	.LBE96-.LBB96
 7331 167d 01       		.byte	0x1
 7332 167e 0C02     		.2byte	0x20c
 7333 1680 A4160000 		.4byte	0x16a4
 7334 1684 37       		.uleb128 0x37
 7335 1685 BB120000 		.4byte	0x12bb
 7336 1689 06       		.uleb128 0x6
 7337 168a 03       		.byte	0x3
 7338 168b 74000000 		.4byte	.LC3
 7339 168f 9F       		.byte	0x9f
 7340 1690 3A       		.uleb128 0x3a
 7341 1691 B0000000 		.4byte	.LVL45
 7342 1695 A8300000 		.4byte	0x30a8
 7343 1699 3B       		.uleb128 0x3b
 7344 169a 01       		.uleb128 0x1
 7345 169b 50       		.byte	0x50
 7346 169c 05       		.uleb128 0x5
 7347 169d 03       		.byte	0x3
 7348 169e 74000000 		.4byte	.LC3
 7349 16a2 00       		.byte	0
 7350 16a3 00       		.byte	0
 7351 16a4 42       		.uleb128 0x42
 7352 16a5 14000000 		.4byte	.LVL35
 7353 16a9 C2300000 		.4byte	0x30c2
 7354 16ad 43       		.uleb128 0x43
 7355 16ae 72000000 		.4byte	.LVL37
 7356 16b2 D7300000 		.4byte	0x30d7
 7357 16b6 C1160000 		.4byte	0x16c1
 7358 16ba 3B       		.uleb128 0x3b
 7359 16bb 01       		.uleb128 0x1
 7360 16bc 50       		.byte	0x50
 7361 16bd 02       		.uleb128 0x2
ARM GAS  C:\Users\jo\AppData\Local\Temp\ccQTqoh0.s 			page 133


 7362 16be 75       		.byte	0x75
 7363 16bf 00       		.sleb128 0
 7364 16c0 00       		.byte	0
 7365 16c1 42       		.uleb128 0x42
 7366 16c2 82000000 		.4byte	.LVL38
 7367 16c6 BA300000 		.4byte	0x30ba
 7368 16ca 3A       		.uleb128 0x3a
 7369 16cb AA000000 		.4byte	.LVL44
 7370 16cf CD140000 		.4byte	0x14cd
 7371 16d3 3B       		.uleb128 0x3b
 7372 16d4 01       		.uleb128 0x1
 7373 16d5 53       		.byte	0x53
 7374 16d6 03       		.uleb128 0x3
 7375 16d7 0A       		.byte	0xa
 7376 16d8 0C02     		.2byte	0x20c
 7377 16da 3B       		.uleb128 0x3b
 7378 16db 01       		.uleb128 0x1
 7379 16dc 52       		.byte	0x52
 7380 16dd 05       		.uleb128 0x5
 7381 16de 03       		.byte	0x3
 7382 16df 74000000 		.4byte	.LC3
 7383 16e3 3B       		.uleb128 0x3b
 7384 16e4 01       		.uleb128 0x1
 7385 16e5 51       		.byte	0x51
 7386 16e6 05       		.uleb128 0x5
 7387 16e7 03       		.byte	0x3
 7388 16e8 00000000 		.4byte	.LC0
 7389 16ec 3B       		.uleb128 0x3b
 7390 16ed 02       		.uleb128 0x2
 7391 16ee 7D       		.byte	0x7d
 7392 16ef 00       		.sleb128 0
 7393 16f0 05       		.uleb128 0x5
 7394 16f1 03       		.byte	0x3
 7395 16f2 50000000 		.4byte	.LC2
 7396 16f6 00       		.byte	0
 7397 16f7 00       		.byte	0
 7398 16f8 3D       		.uleb128 0x3d
 7399 16f9 230A0000 		.4byte	.LASF297
 7400 16fd 01       		.byte	0x1
 7401 16fe 4302     		.2byte	0x243
 7402 1700 E6080000 		.4byte	0x8e6
 7403 1704 00000000 		.4byte	.LFB270
 7404 1708 74000000 		.4byte	.LFE270-.LFB270
 7405 170c 01       		.uleb128 0x1
 7406 170d 9C       		.byte	0x9c
 7407 170e A8170000 		.4byte	0x17a8
 7408 1712 30       		.uleb128 0x30
 7409 1713 70636200 		.ascii	"pcb\000"
 7410 1717 01       		.byte	0x1
 7411 1718 4302     		.2byte	0x243
 7412 171a 780B0000 		.4byte	0xb78
 7413 171e 74020000 		.4byte	.LLST11
 7414 1722 40       		.uleb128 0x40
 7415 1723 7B010000 		.4byte	.LASF298
 7416 1727 01       		.byte	0x1
 7417 1728 4502     		.2byte	0x245
 7418 172a E6080000 		.4byte	0x8e6
ARM GAS  C:\Users\jo\AppData\Local\Temp\ccQTqoh0.s 			page 134


 7419 172e B3020000 		.4byte	.LLST12
 7420 1732 44       		.uleb128 0x44
 7421 1733 00000000 		.4byte	.Ldebug_ranges0+0
 7422 1737 45       		.uleb128 0x45
 7423 1738 54090000 		.4byte	.LASF299
 7424 173c 01       		.byte	0x1
 7425 173d 5202     		.2byte	0x252
 7426 173f E6080000 		.4byte	0x8e6
 7427 1743 01       		.uleb128 0x1
 7428 1744 55       		.byte	0x55
 7429 1745 41       		.uleb128 0x41
 7430 1746 AE120000 		.4byte	0x12ae
 7431 174a 5A000000 		.4byte	.LBB99
 7432 174e 1A000000 		.4byte	.LBE99-.LBB99
 7433 1752 01       		.byte	0x1
 7434 1753 5302     		.2byte	0x253
 7435 1755 79170000 		.4byte	0x1779
 7436 1759 37       		.uleb128 0x37
 7437 175a BB120000 		.4byte	0x12bb
 7438 175e 06       		.uleb128 0x6
 7439 175f 03       		.byte	0x3
 7440 1760 98000000 		.4byte	.LC4
 7441 1764 9F       		.byte	0x9f
 7442 1765 3A       		.uleb128 0x3a
 7443 1766 60000000 		.4byte	.LVL58
 7444 176a A8300000 		.4byte	0x30a8
 7445 176e 3B       		.uleb128 0x3b
 7446 176f 01       		.uleb128 0x1
 7447 1770 50       		.byte	0x50
 7448 1771 05       		.uleb128 0x5
 7449 1772 03       		.byte	0x3
 7450 1773 98000000 		.4byte	.LC4
 7451 1777 00       		.byte	0
 7452 1778 00       		.byte	0
 7453 1779 3A       		.uleb128 0x3a
 7454 177a 5A000000 		.4byte	.LVL57
 7455 177e CD140000 		.4byte	0x14cd
 7456 1782 3B       		.uleb128 0x3b
 7457 1783 01       		.uleb128 0x1
 7458 1784 53       		.byte	0x53
 7459 1785 03       		.uleb128 0x3
 7460 1786 0A       		.byte	0xa
 7461 1787 5302     		.2byte	0x253
 7462 1789 3B       		.uleb128 0x3b
 7463 178a 01       		.uleb128 0x1
 7464 178b 52       		.byte	0x52
 7465 178c 05       		.uleb128 0x5
 7466 178d 03       		.byte	0x3
 7467 178e 98000000 		.4byte	.LC4
 7468 1792 3B       		.uleb128 0x3b
 7469 1793 01       		.uleb128 0x1
 7470 1794 51       		.byte	0x51
 7471 1795 05       		.uleb128 0x5
 7472 1796 03       		.byte	0x3
 7473 1797 00000000 		.4byte	.LC0
 7474 179b 3B       		.uleb128 0x3b
 7475 179c 02       		.uleb128 0x2
ARM GAS  C:\Users\jo\AppData\Local\Temp\ccQTqoh0.s 			page 135


 7476 179d 7D       		.byte	0x7d
 7477 179e 00       		.sleb128 0
 7478 179f 05       		.uleb128 0x5
 7479 17a0 03       		.byte	0x3
 7480 17a1 50000000 		.4byte	.LC2
 7481 17a5 00       		.byte	0
 7482 17a6 00       		.byte	0
 7483 17a7 00       		.byte	0
 7484 17a8 35       		.uleb128 0x35
 7485 17a9 C8120000 		.4byte	0x12c8
 7486 17ad 00000000 		.4byte	.LFB271
 7487 17b1 9C000000 		.4byte	.LFE271-.LFB271
 7488 17b5 01       		.uleb128 0x1
 7489 17b6 9C       		.byte	0x9c
 7490 17b7 E2180000 		.4byte	0x18e2
 7491 17bb 36       		.uleb128 0x36
 7492 17bc D5120000 		.4byte	0x12d5
 7493 17c0 21030000 		.4byte	.LLST13
 7494 17c4 36       		.uleb128 0x36
 7495 17c5 E1120000 		.4byte	0x12e1
 7496 17c9 79030000 		.4byte	.LLST14
 7497 17cd 46       		.uleb128 0x46
 7498 17ce ED120000 		.4byte	0x12ed
 7499 17d2 B3030000 		.4byte	.LLST15
 7500 17d6 47       		.uleb128 0x47
 7501 17d7 20000000 		.4byte	.Ldebug_ranges0+0x20
 7502 17db 0A180000 		.4byte	0x180a
 7503 17df 39       		.uleb128 0x39
 7504 17e0 E1120000 		.4byte	0x12e1
 7505 17e4 36       		.uleb128 0x36
 7506 17e5 D5120000 		.4byte	0x12d5
 7507 17e9 C6030000 		.4byte	.LLST16
 7508 17ed 44       		.uleb128 0x44
 7509 17ee 20000000 		.4byte	.Ldebug_ranges0+0x20
 7510 17f2 48       		.uleb128 0x48
 7511 17f3 ED120000 		.4byte	0x12ed
 7512 17f7 49       		.uleb128 0x49
 7513 17f8 50000000 		.4byte	.LVL65
 7514 17fc E8300000 		.4byte	0x30e8
 7515 1800 3B       		.uleb128 0x3b
 7516 1801 01       		.uleb128 0x1
 7517 1802 50       		.byte	0x50
 7518 1803 03       		.uleb128 0x3
 7519 1804 F3       		.byte	0xf3
 7520 1805 01       		.uleb128 0x1
 7521 1806 50       		.byte	0x50
 7522 1807 00       		.byte	0
 7523 1808 00       		.byte	0
 7524 1809 00       		.byte	0
 7525 180a 41       		.uleb128 0x41
 7526 180b AE120000 		.4byte	0x12ae
 7527 180f 62000000 		.4byte	.LBB117
 7528 1813 0A000000 		.4byte	.LBE117-.LBB117
 7529 1817 01       		.byte	0x1
 7530 1818 6A02     		.2byte	0x26a
 7531 181a 3B180000 		.4byte	0x183b
 7532 181e 36       		.uleb128 0x36
ARM GAS  C:\Users\jo\AppData\Local\Temp\ccQTqoh0.s 			page 136


 7533 181f BB120000 		.4byte	0x12bb
 7534 1823 F2030000 		.4byte	.LLST17
 7535 1827 3A       		.uleb128 0x3a
 7536 1828 68000000 		.4byte	.LVL67
 7537 182c A8300000 		.4byte	0x30a8
 7538 1830 3B       		.uleb128 0x3b
 7539 1831 01       		.uleb128 0x1
 7540 1832 50       		.byte	0x50
 7541 1833 05       		.uleb128 0x5
 7542 1834 03       		.byte	0x3
 7543 1835 DC000000 		.4byte	.LC6
 7544 1839 00       		.byte	0
 7545 183a 00       		.byte	0
 7546 183b 41       		.uleb128 0x41
 7547 183c AE120000 		.4byte	0x12ae
 7548 1840 7E000000 		.4byte	.LBB119
 7549 1844 1E000000 		.4byte	.LBE119-.LBB119
 7550 1848 01       		.byte	0x1
 7551 1849 6802     		.2byte	0x268
 7552 184b 6F180000 		.4byte	0x186f
 7553 184f 37       		.uleb128 0x37
 7554 1850 BB120000 		.4byte	0x12bb
 7555 1854 06       		.uleb128 0x6
 7556 1855 03       		.byte	0x3
 7557 1856 B4000000 		.4byte	.LC5
 7558 185a 9F       		.byte	0x9f
 7559 185b 3A       		.uleb128 0x3a
 7560 185c 84000000 		.4byte	.LVL72
 7561 1860 A8300000 		.4byte	0x30a8
 7562 1864 3B       		.uleb128 0x3b
 7563 1865 01       		.uleb128 0x1
 7564 1866 50       		.byte	0x50
 7565 1867 05       		.uleb128 0x5
 7566 1868 03       		.byte	0x3
 7567 1869 B4000000 		.4byte	.LC5
 7568 186d 00       		.byte	0
 7569 186e 00       		.byte	0
 7570 186f 43       		.uleb128 0x43
 7571 1870 30000000 		.4byte	.LVL61
 7572 1874 F8160000 		.4byte	0x16f8
 7573 1878 83180000 		.4byte	0x1883
 7574 187c 3B       		.uleb128 0x3b
 7575 187d 01       		.uleb128 0x1
 7576 187e 50       		.byte	0x50
 7577 187f 02       		.uleb128 0x2
 7578 1880 75       		.byte	0x75
 7579 1881 00       		.sleb128 0
 7580 1882 00       		.byte	0
 7581 1883 43       		.uleb128 0x43
 7582 1884 62000000 		.4byte	.LVL66
 7583 1888 CD140000 		.4byte	0x14cd
 7584 188c B4180000 		.4byte	0x18b4
 7585 1890 3B       		.uleb128 0x3b
 7586 1891 01       		.uleb128 0x1
 7587 1892 53       		.byte	0x53
 7588 1893 03       		.uleb128 0x3
 7589 1894 0A       		.byte	0xa
ARM GAS  C:\Users\jo\AppData\Local\Temp\ccQTqoh0.s 			page 137


 7590 1895 6B02     		.2byte	0x26b
 7591 1897 3B       		.uleb128 0x3b
 7592 1898 01       		.uleb128 0x1
 7593 1899 52       		.byte	0x52
 7594 189a 05       		.uleb128 0x5
 7595 189b 03       		.byte	0x3
 7596 189c DC000000 		.4byte	.LC6
 7597 18a0 3B       		.uleb128 0x3b
 7598 18a1 01       		.uleb128 0x1
 7599 18a2 51       		.byte	0x51
 7600 18a3 05       		.uleb128 0x5
 7601 18a4 03       		.byte	0x3
 7602 18a5 00000000 		.4byte	.LC0
 7603 18a9 3B       		.uleb128 0x3b
 7604 18aa 02       		.uleb128 0x2
 7605 18ab 7D       		.byte	0x7d
 7606 18ac 00       		.sleb128 0
 7607 18ad 05       		.uleb128 0x5
 7608 18ae 03       		.byte	0x3
 7609 18af 50000000 		.4byte	.LC2
 7610 18b3 00       		.byte	0
 7611 18b4 3A       		.uleb128 0x3a
 7612 18b5 7E000000 		.4byte	.LVL71
 7613 18b9 CD140000 		.4byte	0x14cd
 7614 18bd 3B       		.uleb128 0x3b
 7615 18be 01       		.uleb128 0x1
 7616 18bf 53       		.byte	0x53
 7617 18c0 03       		.uleb128 0x3
 7618 18c1 0A       		.byte	0xa
 7619 18c2 6902     		.2byte	0x269
 7620 18c4 3B       		.uleb128 0x3b
 7621 18c5 01       		.uleb128 0x1
 7622 18c6 52       		.byte	0x52
 7623 18c7 05       		.uleb128 0x5
 7624 18c8 03       		.byte	0x3
 7625 18c9 B4000000 		.4byte	.LC5
 7626 18cd 3B       		.uleb128 0x3b
 7627 18ce 01       		.uleb128 0x1
 7628 18cf 51       		.byte	0x51
 7629 18d0 05       		.uleb128 0x5
 7630 18d1 03       		.byte	0x3
 7631 18d2 00000000 		.4byte	.LC0
 7632 18d6 3B       		.uleb128 0x3b
 7633 18d7 02       		.uleb128 0x2
 7634 18d8 7D       		.byte	0x7d
 7635 18d9 00       		.sleb128 0
 7636 18da 05       		.uleb128 0x5
 7637 18db 03       		.byte	0x3
 7638 18dc 50000000 		.4byte	.LC2
 7639 18e0 00       		.byte	0
 7640 18e1 00       		.byte	0
 7641 18e2 4A       		.uleb128 0x4a
 7642 18e3 BD0A0000 		.4byte	.LASF300
 7643 18e7 01       		.byte	0x1
 7644 18e8 7704     		.2byte	0x477
 7645 18ea 00000000 		.4byte	.LFB278
 7646 18ee 1A000000 		.4byte	.LFE278-.LFB278
ARM GAS  C:\Users\jo\AppData\Local\Temp\ccQTqoh0.s 			page 138


 7647 18f2 01       		.uleb128 0x1
 7648 18f3 9C       		.byte	0x9c
 7649 18f4 23190000 		.4byte	0x1923
 7650 18f8 30       		.uleb128 0x30
 7651 18f9 73656700 		.ascii	"seg\000"
 7652 18fd 01       		.byte	0x1
 7653 18fe 7704     		.2byte	0x477
 7654 1900 830F0000 		.4byte	0xf83
 7655 1904 0A040000 		.4byte	.LLST18
 7656 1908 42       		.uleb128 0x42
 7657 1909 0E000000 		.4byte	.LVL75
 7658 190d FE300000 		.4byte	0x30fe
 7659 1911 49       		.uleb128 0x49
 7660 1912 18000000 		.4byte	.LVL77
 7661 1916 D7300000 		.4byte	0x30d7
 7662 191a 3B       		.uleb128 0x3b
 7663 191b 01       		.uleb128 0x1
 7664 191c 50       		.byte	0x50
 7665 191d 03       		.uleb128 0x3
 7666 191e F3       		.byte	0xf3
 7667 191f 01       		.uleb128 0x1
 7668 1920 50       		.byte	0x50
 7669 1921 00       		.byte	0
 7670 1922 00       		.byte	0
 7671 1923 35       		.uleb128 0x35
 7672 1924 FA120000 		.4byte	0x12fa
 7673 1928 00000000 		.4byte	.LFB277
 7674 192c 14000000 		.4byte	.LFE277-.LFB277
 7675 1930 01       		.uleb128 0x1
 7676 1931 9C       		.byte	0x9c
 7677 1932 5C190000 		.4byte	0x195c
 7678 1936 36       		.uleb128 0x36
 7679 1937 07130000 		.4byte	0x1307
 7680 193b 4C040000 		.4byte	.LLST19
 7681 193f 4B       		.uleb128 0x4b
 7682 1940 04000000 		.4byte	.LBB121
 7683 1944 06000000 		.4byte	.LBE121-.LBB121
 7684 1948 46       		.uleb128 0x46
 7685 1949 14130000 		.4byte	0x1314
 7686 194d 75040000 		.4byte	.LLST20
 7687 1951 42       		.uleb128 0x42
 7688 1952 0A000000 		.4byte	.LVL80
 7689 1956 E2180000 		.4byte	0x18e2
 7690 195a 00       		.byte	0
 7691 195b 00       		.byte	0
 7692 195c 4A       		.uleb128 0x4a
 7693 195d C8070000 		.4byte	.LASF301
 7694 1961 01       		.byte	0x1
 7695 1962 8B04     		.2byte	0x48b
 7696 1964 00000000 		.4byte	.LFB279
 7697 1968 04000000 		.4byte	.LFE279-.LFB279
 7698 196c 01       		.uleb128 0x1
 7699 196d 9C       		.byte	0x9c
 7700 196e 8F190000 		.4byte	0x198f
 7701 1972 31       		.uleb128 0x31
 7702 1973 70636200 		.ascii	"pcb\000"
 7703 1977 01       		.byte	0x1
ARM GAS  C:\Users\jo\AppData\Local\Temp\ccQTqoh0.s 			page 139


 7704 1978 8B04     		.2byte	0x48b
 7705 197a 780B0000 		.4byte	0xb78
 7706 197e 01       		.uleb128 0x1
 7707 197f 50       		.byte	0x50
 7708 1980 4C       		.uleb128 0x4c
 7709 1981 44060000 		.4byte	.LASF182
 7710 1985 01       		.byte	0x1
 7711 1986 8B04     		.2byte	0x48b
 7712 1988 BA080000 		.4byte	0x8ba
 7713 198c 01       		.uleb128 0x1
 7714 198d 51       		.byte	0x51
 7715 198e 00       		.byte	0
 7716 198f 3D       		.uleb128 0x3d
 7717 1990 3E070000 		.4byte	.LASF302
 7718 1994 01       		.byte	0x1
 7719 1995 9904     		.2byte	0x499
 7720 1997 830F0000 		.4byte	0xf83
 7721 199b 00000000 		.4byte	.LFB280
 7722 199f 30000000 		.4byte	.LFE280-.LFB280
 7723 19a3 01       		.uleb128 0x1
 7724 19a4 9C       		.byte	0x9c
 7725 19a5 DC190000 		.4byte	0x19dc
 7726 19a9 30       		.uleb128 0x30
 7727 19aa 73656700 		.ascii	"seg\000"
 7728 19ae 01       		.byte	0x1
 7729 19af 9904     		.2byte	0x499
 7730 19b1 830F0000 		.4byte	0xf83
 7731 19b5 88040000 		.4byte	.LLST21
 7732 19b9 40       		.uleb128 0x40
 7733 19ba 4A000000 		.4byte	.LASF303
 7734 19be 01       		.byte	0x1
 7735 19bf 9B04     		.2byte	0x49b
 7736 19c1 830F0000 		.4byte	0xf83
 7737 19c5 B4040000 		.4byte	.LLST22
 7738 19c9 42       		.uleb128 0x42
 7739 19ca 0C000000 		.4byte	.LVL85
 7740 19ce C2300000 		.4byte	0x30c2
 7741 19d2 42       		.uleb128 0x42
 7742 19d3 26000000 		.4byte	.LVL87
 7743 19d7 13310000 		.4byte	0x3113
 7744 19db 00       		.byte	0
 7745 19dc 4A       		.uleb128 0x4a
 7746 19dd E00E0000 		.4byte	.LASF304
 7747 19e1 01       		.byte	0x1
 7748 19e2 6005     		.2byte	0x560
 7749 19e4 00000000 		.4byte	.LFB286
 7750 19e8 04000000 		.4byte	.LFE286-.LFB286
 7751 19ec 01       		.uleb128 0x1
 7752 19ed 9C       		.byte	0x9c
 7753 19ee 0F1A0000 		.4byte	0x1a0f
 7754 19f2 31       		.uleb128 0x31
 7755 19f3 70636200 		.ascii	"pcb\000"
 7756 19f7 01       		.byte	0x1
 7757 19f8 6005     		.2byte	0x560
 7758 19fa 780B0000 		.4byte	0xb78
 7759 19fe 01       		.uleb128 0x1
 7760 19ff 50       		.byte	0x50
ARM GAS  C:\Users\jo\AppData\Local\Temp\ccQTqoh0.s 			page 140


 7761 1a00 31       		.uleb128 0x31
 7762 1a01 61726700 		.ascii	"arg\000"
 7763 1a05 01       		.byte	0x1
 7764 1a06 6005     		.2byte	0x560
 7765 1a08 64030000 		.4byte	0x364
 7766 1a0c 01       		.uleb128 0x1
 7767 1a0d 51       		.byte	0x51
 7768 1a0e 00       		.byte	0
 7769 1a0f 4A       		.uleb128 0x4a
 7770 1a10 070F0000 		.4byte	.LASF305
 7771 1a14 01       		.byte	0x1
 7772 1a15 7005     		.2byte	0x570
 7773 1a17 00000000 		.4byte	.LFB287
 7774 1a1b 48000000 		.4byte	.LFE287-.LFB287
 7775 1a1f 01       		.uleb128 0x1
 7776 1a20 9C       		.byte	0x9c
 7777 1a21 A71A0000 		.4byte	0x1aa7
 7778 1a25 30       		.uleb128 0x30
 7779 1a26 70636200 		.ascii	"pcb\000"
 7780 1a2a 01       		.byte	0x1
 7781 1a2b 7005     		.2byte	0x570
 7782 1a2d 780B0000 		.4byte	0xb78
 7783 1a31 DD040000 		.4byte	.LLST23
 7784 1a35 3E       		.uleb128 0x3e
 7785 1a36 9B0F0000 		.4byte	.LASF215
 7786 1a3a 01       		.byte	0x1
 7787 1a3b 7005     		.2byte	0x570
 7788 1a3d 300E0000 		.4byte	0xe30
 7789 1a41 09050000 		.4byte	.LLST24
 7790 1a45 41       		.uleb128 0x41
 7791 1a46 AE120000 		.4byte	0x12ae
 7792 1a4a 28000000 		.4byte	.LBB122
 7793 1a4e 06000000 		.4byte	.LBE122-.LBB122
 7794 1a52 01       		.byte	0x1
 7795 1a53 7205     		.2byte	0x572
 7796 1a55 791A0000 		.4byte	0x1a79
 7797 1a59 37       		.uleb128 0x37
 7798 1a5a BB120000 		.4byte	0x12bb
 7799 1a5e 06       		.uleb128 0x6
 7800 1a5f 03       		.byte	0x3
 7801 1a60 00010000 		.4byte	.LC7
 7802 1a64 9F       		.byte	0x9f
 7803 1a65 3A       		.uleb128 0x3a
 7804 1a66 2E000000 		.4byte	.LVL94
 7805 1a6a A8300000 		.4byte	0x30a8
 7806 1a6e 3B       		.uleb128 0x3b
 7807 1a6f 01       		.uleb128 0x1
 7808 1a70 50       		.byte	0x50
 7809 1a71 05       		.uleb128 0x5
 7810 1a72 03       		.byte	0x3
 7811 1a73 00010000 		.4byte	.LC7
 7812 1a77 00       		.byte	0
 7813 1a78 00       		.byte	0
 7814 1a79 3A       		.uleb128 0x3a
 7815 1a7a 28000000 		.4byte	.LVL93
 7816 1a7e CD140000 		.4byte	0x14cd
 7817 1a82 3B       		.uleb128 0x3b
ARM GAS  C:\Users\jo\AppData\Local\Temp\ccQTqoh0.s 			page 141


 7818 1a83 01       		.uleb128 0x1
 7819 1a84 53       		.byte	0x53
 7820 1a85 03       		.uleb128 0x3
 7821 1a86 0A       		.byte	0xa
 7822 1a87 7205     		.2byte	0x572
 7823 1a89 3B       		.uleb128 0x3b
 7824 1a8a 01       		.uleb128 0x1
 7825 1a8b 52       		.byte	0x52
 7826 1a8c 05       		.uleb128 0x5
 7827 1a8d 03       		.byte	0x3
 7828 1a8e 00010000 		.4byte	.LC7
 7829 1a92 3B       		.uleb128 0x3b
 7830 1a93 01       		.uleb128 0x1
 7831 1a94 51       		.byte	0x51
 7832 1a95 05       		.uleb128 0x5
 7833 1a96 03       		.byte	0x3
 7834 1a97 00000000 		.4byte	.LC0
 7835 1a9b 3B       		.uleb128 0x3b
 7836 1a9c 02       		.uleb128 0x2
 7837 1a9d 7D       		.byte	0x7d
 7838 1a9e 00       		.sleb128 0
 7839 1a9f 05       		.uleb128 0x5
 7840 1aa0 03       		.byte	0x3
 7841 1aa1 50000000 		.4byte	.LC2
 7842 1aa5 00       		.byte	0
 7843 1aa6 00       		.byte	0
 7844 1aa7 4A       		.uleb128 0x4a
 7845 1aa8 B6070000 		.4byte	.LASF306
 7846 1aac 01       		.byte	0x1
 7847 1aad 7E05     		.2byte	0x57e
 7848 1aaf 00000000 		.4byte	.LFB288
 7849 1ab3 44000000 		.4byte	.LFE288-.LFB288
 7850 1ab7 01       		.uleb128 0x1
 7851 1ab8 9C       		.byte	0x9c
 7852 1ab9 3F1B0000 		.4byte	0x1b3f
 7853 1abd 30       		.uleb128 0x30
 7854 1abe 70636200 		.ascii	"pcb\000"
 7855 1ac2 01       		.byte	0x1
 7856 1ac3 7E05     		.2byte	0x57e
 7857 1ac5 780B0000 		.4byte	0xb78
 7858 1ac9 37050000 		.4byte	.LLST25
 7859 1acd 3E       		.uleb128 0x3e
 7860 1ace 11070000 		.4byte	.LASF214
 7861 1ad2 01       		.byte	0x1
 7862 1ad3 7E05     		.2byte	0x57e
 7863 1ad5 5F0E0000 		.4byte	0xe5f
 7864 1ad9 63050000 		.4byte	.LLST26
 7865 1add 41       		.uleb128 0x41
 7866 1ade AE120000 		.4byte	0x12ae
 7867 1ae2 26000000 		.4byte	.LBB124
 7868 1ae6 06000000 		.4byte	.LBE124-.LBB124
 7869 1aea 01       		.byte	0x1
 7870 1aeb 8005     		.2byte	0x580
 7871 1aed 111B0000 		.4byte	0x1b11
 7872 1af1 37       		.uleb128 0x37
 7873 1af2 BB120000 		.4byte	0x12bb
 7874 1af6 06       		.uleb128 0x6
ARM GAS  C:\Users\jo\AppData\Local\Temp\ccQTqoh0.s 			page 142


 7875 1af7 03       		.byte	0x3
 7876 1af8 28010000 		.4byte	.LC8
 7877 1afc 9F       		.byte	0x9f
 7878 1afd 3A       		.uleb128 0x3a
 7879 1afe 2C000000 		.4byte	.LVL100
 7880 1b02 A8300000 		.4byte	0x30a8
 7881 1b06 3B       		.uleb128 0x3b
 7882 1b07 01       		.uleb128 0x1
 7883 1b08 50       		.byte	0x50
 7884 1b09 05       		.uleb128 0x5
 7885 1b0a 03       		.byte	0x3
 7886 1b0b 28010000 		.4byte	.LC8
 7887 1b0f 00       		.byte	0
 7888 1b10 00       		.byte	0
 7889 1b11 3A       		.uleb128 0x3a
 7890 1b12 26000000 		.4byte	.LVL99
 7891 1b16 CD140000 		.4byte	0x14cd
 7892 1b1a 3B       		.uleb128 0x3b
 7893 1b1b 01       		.uleb128 0x1
 7894 1b1c 53       		.byte	0x53
 7895 1b1d 03       		.uleb128 0x3
 7896 1b1e 0A       		.byte	0xa
 7897 1b1f 8005     		.2byte	0x580
 7898 1b21 3B       		.uleb128 0x3b
 7899 1b22 01       		.uleb128 0x1
 7900 1b23 52       		.byte	0x52
 7901 1b24 05       		.uleb128 0x5
 7902 1b25 03       		.byte	0x3
 7903 1b26 28010000 		.4byte	.LC8
 7904 1b2a 3B       		.uleb128 0x3b
 7905 1b2b 01       		.uleb128 0x1
 7906 1b2c 51       		.byte	0x51
 7907 1b2d 05       		.uleb128 0x5
 7908 1b2e 03       		.byte	0x3
 7909 1b2f 00000000 		.4byte	.LC0
 7910 1b33 3B       		.uleb128 0x3b
 7911 1b34 02       		.uleb128 0x2
 7912 1b35 7D       		.byte	0x7d
 7913 1b36 00       		.sleb128 0
 7914 1b37 05       		.uleb128 0x5
 7915 1b38 03       		.byte	0x3
 7916 1b39 50000000 		.4byte	.LC2
 7917 1b3d 00       		.byte	0
 7918 1b3e 00       		.byte	0
 7919 1b3f 4A       		.uleb128 0x4a
 7920 1b40 FB080000 		.4byte	.LASF307
 7921 1b44 01       		.byte	0x1
 7922 1b45 8D05     		.2byte	0x58d
 7923 1b47 00000000 		.4byte	.LFB289
 7924 1b4b 48000000 		.4byte	.LFE289-.LFB289
 7925 1b4f 01       		.uleb128 0x1
 7926 1b50 9C       		.byte	0x9c
 7927 1b51 D71B0000 		.4byte	0x1bd7
 7928 1b55 30       		.uleb128 0x30
 7929 1b56 70636200 		.ascii	"pcb\000"
 7930 1b5a 01       		.byte	0x1
 7931 1b5b 8D05     		.2byte	0x58d
ARM GAS  C:\Users\jo\AppData\Local\Temp\ccQTqoh0.s 			page 143


 7932 1b5d 780B0000 		.4byte	0xb78
 7933 1b61 90050000 		.4byte	.LLST27
 7934 1b65 30       		.uleb128 0x30
 7935 1b66 65727200 		.ascii	"err\000"
 7936 1b6a 01       		.byte	0x1
 7937 1b6b 8D05     		.2byte	0x58d
 7938 1b6d AE0E0000 		.4byte	0xeae
 7939 1b71 BC050000 		.4byte	.LLST28
 7940 1b75 41       		.uleb128 0x41
 7941 1b76 AE120000 		.4byte	0x12ae
 7942 1b7a 28000000 		.4byte	.LBB126
 7943 1b7e 06000000 		.4byte	.LBE126-.LBB126
 7944 1b82 01       		.byte	0x1
 7945 1b83 8F05     		.2byte	0x58f
 7946 1b85 A91B0000 		.4byte	0x1ba9
 7947 1b89 37       		.uleb128 0x37
 7948 1b8a BB120000 		.4byte	0x12bb
 7949 1b8e 06       		.uleb128 0x6
 7950 1b8f 03       		.byte	0x3
 7951 1b90 50010000 		.4byte	.LC9
 7952 1b94 9F       		.byte	0x9f
 7953 1b95 3A       		.uleb128 0x3a
 7954 1b96 2E000000 		.4byte	.LVL106
 7955 1b9a A8300000 		.4byte	0x30a8
 7956 1b9e 3B       		.uleb128 0x3b
 7957 1b9f 01       		.uleb128 0x1
 7958 1ba0 50       		.byte	0x50
 7959 1ba1 05       		.uleb128 0x5
 7960 1ba2 03       		.byte	0x3
 7961 1ba3 50010000 		.4byte	.LC9
 7962 1ba7 00       		.byte	0
 7963 1ba8 00       		.byte	0
 7964 1ba9 3A       		.uleb128 0x3a
 7965 1baa 28000000 		.4byte	.LVL105
 7966 1bae CD140000 		.4byte	0x14cd
 7967 1bb2 3B       		.uleb128 0x3b
 7968 1bb3 01       		.uleb128 0x1
 7969 1bb4 53       		.byte	0x53
 7970 1bb5 03       		.uleb128 0x3
 7971 1bb6 0A       		.byte	0xa
 7972 1bb7 8F05     		.2byte	0x58f
 7973 1bb9 3B       		.uleb128 0x3b
 7974 1bba 01       		.uleb128 0x1
 7975 1bbb 52       		.byte	0x52
 7976 1bbc 05       		.uleb128 0x5
 7977 1bbd 03       		.byte	0x3
 7978 1bbe 50010000 		.4byte	.LC9
 7979 1bc2 3B       		.uleb128 0x3b
 7980 1bc3 01       		.uleb128 0x1
 7981 1bc4 51       		.byte	0x51
 7982 1bc5 05       		.uleb128 0x5
 7983 1bc6 03       		.byte	0x3
 7984 1bc7 00000000 		.4byte	.LC0
 7985 1bcb 3B       		.uleb128 0x3b
 7986 1bcc 02       		.uleb128 0x2
 7987 1bcd 7D       		.byte	0x7d
 7988 1bce 00       		.sleb128 0
ARM GAS  C:\Users\jo\AppData\Local\Temp\ccQTqoh0.s 			page 144


 7989 1bcf 05       		.uleb128 0x5
 7990 1bd0 03       		.byte	0x3
 7991 1bd1 50000000 		.4byte	.LC2
 7992 1bd5 00       		.byte	0
 7993 1bd6 00       		.byte	0
 7994 1bd7 4A       		.uleb128 0x4a
 7995 1bd8 A00A0000 		.4byte	.LASF308
 7996 1bdc 01       		.byte	0x1
 7997 1bdd 9C05     		.2byte	0x59c
 7998 1bdf 00000000 		.4byte	.LFB290
 7999 1be3 04000000 		.4byte	.LFE290-.LFB290
 8000 1be7 01       		.uleb128 0x1
 8001 1be8 9C       		.byte	0x9c
 8002 1be9 0A1C0000 		.4byte	0x1c0a
 8003 1bed 31       		.uleb128 0x31
 8004 1bee 70636200 		.ascii	"pcb\000"
 8005 1bf2 01       		.byte	0x1
 8006 1bf3 9C05     		.2byte	0x59c
 8007 1bf5 780B0000 		.4byte	0xb78
 8008 1bf9 01       		.uleb128 0x1
 8009 1bfa 50       		.byte	0x50
 8010 1bfb 4C       		.uleb128 0x4c
 8011 1bfc BC030000 		.4byte	.LASF181
 8012 1c00 01       		.byte	0x1
 8013 1c01 9C05     		.2byte	0x59c
 8014 1c03 4E0B0000 		.4byte	0xb4e
 8015 1c07 01       		.uleb128 0x1
 8016 1c08 51       		.byte	0x51
 8017 1c09 00       		.byte	0
 8018 1c0a 4A       		.uleb128 0x4a
 8019 1c0b 8C070000 		.4byte	.LASF309
 8020 1c0f 01       		.byte	0x1
 8021 1c10 AC05     		.2byte	0x5ac
 8022 1c12 00000000 		.4byte	.LFB291
 8023 1c16 50000000 		.4byte	.LFE291-.LFB291
 8024 1c1a 01       		.uleb128 0x1
 8025 1c1b 9C       		.byte	0x9c
 8026 1c1c B21C0000 		.4byte	0x1cb2
 8027 1c20 30       		.uleb128 0x30
 8028 1c21 70636200 		.ascii	"pcb\000"
 8029 1c25 01       		.byte	0x1
 8030 1c26 AC05     		.2byte	0x5ac
 8031 1c28 780B0000 		.4byte	0xb78
 8032 1c2c EA050000 		.4byte	.LLST29
 8033 1c30 3E       		.uleb128 0x3e
 8034 1c31 DD090000 		.4byte	.LASF217
 8035 1c35 01       		.byte	0x1
 8036 1c36 AC05     		.2byte	0x5ac
 8037 1c38 890E0000 		.4byte	0xe89
 8038 1c3c 16060000 		.4byte	.LLST30
 8039 1c40 3E       		.uleb128 0x3e
 8040 1c41 1C000000 		.4byte	.LASF310
 8041 1c45 01       		.byte	0x1
 8042 1c46 AC05     		.2byte	0x5ac
 8043 1c48 BA080000 		.4byte	0x8ba
 8044 1c4c 44060000 		.4byte	.LLST31
 8045 1c50 41       		.uleb128 0x41
ARM GAS  C:\Users\jo\AppData\Local\Temp\ccQTqoh0.s 			page 145


 8046 1c51 AE120000 		.4byte	0x12ae
 8047 1c55 2E000000 		.4byte	.LBB128
 8048 1c59 06000000 		.4byte	.LBE128-.LBB128
 8049 1c5d 01       		.byte	0x1
 8050 1c5e AE05     		.2byte	0x5ae
 8051 1c60 841C0000 		.4byte	0x1c84
 8052 1c64 37       		.uleb128 0x37
 8053 1c65 BB120000 		.4byte	0x12bb
 8054 1c69 06       		.uleb128 0x6
 8055 1c6a 03       		.byte	0x3
 8056 1c6b 78010000 		.4byte	.LC10
 8057 1c6f 9F       		.byte	0x9f
 8058 1c70 3A       		.uleb128 0x3a
 8059 1c71 34000000 		.4byte	.LVL114
 8060 1c75 A8300000 		.4byte	0x30a8
 8061 1c79 3B       		.uleb128 0x3b
 8062 1c7a 01       		.uleb128 0x1
 8063 1c7b 50       		.byte	0x50
 8064 1c7c 05       		.uleb128 0x5
 8065 1c7d 03       		.byte	0x3
 8066 1c7e 78010000 		.4byte	.LC10
 8067 1c82 00       		.byte	0
 8068 1c83 00       		.byte	0
 8069 1c84 3A       		.uleb128 0x3a
 8070 1c85 2E000000 		.4byte	.LVL113
 8071 1c89 CD140000 		.4byte	0x14cd
 8072 1c8d 3B       		.uleb128 0x3b
 8073 1c8e 01       		.uleb128 0x1
 8074 1c8f 53       		.byte	0x53
 8075 1c90 03       		.uleb128 0x3
 8076 1c91 0A       		.byte	0xa
 8077 1c92 AE05     		.2byte	0x5ae
 8078 1c94 3B       		.uleb128 0x3b
 8079 1c95 01       		.uleb128 0x1
 8080 1c96 52       		.byte	0x52
 8081 1c97 05       		.uleb128 0x5
 8082 1c98 03       		.byte	0x3
 8083 1c99 78010000 		.4byte	.LC10
 8084 1c9d 3B       		.uleb128 0x3b
 8085 1c9e 01       		.uleb128 0x1
 8086 1c9f 51       		.byte	0x51
 8087 1ca0 05       		.uleb128 0x5
 8088 1ca1 03       		.byte	0x3
 8089 1ca2 00000000 		.4byte	.LC0
 8090 1ca6 3B       		.uleb128 0x3b
 8091 1ca7 02       		.uleb128 0x2
 8092 1ca8 7D       		.byte	0x7d
 8093 1ca9 00       		.sleb128 0
 8094 1caa 05       		.uleb128 0x5
 8095 1cab 03       		.byte	0x3
 8096 1cac 50000000 		.4byte	.LC2
 8097 1cb0 00       		.byte	0
 8098 1cb1 00       		.byte	0
 8099 1cb2 35       		.uleb128 0x35
 8100 1cb3 22130000 		.4byte	0x1322
 8101 1cb7 00000000 		.4byte	.LFB292
 8102 1cbb 62000000 		.4byte	.LFE292-.LFB292
ARM GAS  C:\Users\jo\AppData\Local\Temp\ccQTqoh0.s 			page 146


 8103 1cbf 01       		.uleb128 0x1
 8104 1cc0 9C       		.byte	0x9c
 8105 1cc1 991D0000 		.4byte	0x1d99
 8106 1cc5 36       		.uleb128 0x36
 8107 1cc6 2F130000 		.4byte	0x132f
 8108 1cca 65060000 		.4byte	.LLST32
 8109 1cce 4B       		.uleb128 0x4b
 8110 1ccf 0E000000 		.4byte	.LBB141
 8111 1cd3 54000000 		.4byte	.LBE141-.LBB141
 8112 1cd7 36       		.uleb128 0x36
 8113 1cd8 2F130000 		.4byte	0x132f
 8114 1cdc 8E060000 		.4byte	.LLST33
 8115 1ce0 41       		.uleb128 0x41
 8116 1ce1 FA120000 		.4byte	0x12fa
 8117 1ce5 1C000000 		.4byte	.LBB143
 8118 1ce9 0E000000 		.4byte	.LBE143-.LBB143
 8119 1ced 01       		.byte	0x1
 8120 1cee EA05     		.2byte	0x5ea
 8121 1cf0 1A1D0000 		.4byte	0x1d1a
 8122 1cf4 36       		.uleb128 0x36
 8123 1cf5 07130000 		.4byte	0x1307
 8124 1cf9 AC060000 		.4byte	.LLST34
 8125 1cfd 4B       		.uleb128 0x4b
 8126 1cfe 1E000000 		.4byte	.LBB145
 8127 1d02 06000000 		.4byte	.LBE145-.LBB145
 8128 1d06 46       		.uleb128 0x46
 8129 1d07 14130000 		.4byte	0x1314
 8130 1d0b D5060000 		.4byte	.LLST35
 8131 1d0f 42       		.uleb128 0x42
 8132 1d10 24000000 		.4byte	.LVL122
 8133 1d14 E2180000 		.4byte	0x18e2
 8134 1d18 00       		.byte	0
 8135 1d19 00       		.byte	0
 8136 1d1a 41       		.uleb128 0x41
 8137 1d1b FA120000 		.4byte	0x12fa
 8138 1d1f 36000000 		.4byte	.LBB146
 8139 1d23 0E000000 		.4byte	.LBE146-.LBB146
 8140 1d27 01       		.byte	0x1
 8141 1d28 F205     		.2byte	0x5f2
 8142 1d2a 541D0000 		.4byte	0x1d54
 8143 1d2e 36       		.uleb128 0x36
 8144 1d2f 07130000 		.4byte	0x1307
 8145 1d33 E8060000 		.4byte	.LLST36
 8146 1d37 4B       		.uleb128 0x4b
 8147 1d38 38000000 		.4byte	.LBB148
 8148 1d3c 06000000 		.4byte	.LBE148-.LBB148
 8149 1d40 46       		.uleb128 0x46
 8150 1d41 14130000 		.4byte	0x1314
 8151 1d45 11070000 		.4byte	.LLST37
 8152 1d49 42       		.uleb128 0x42
 8153 1d4a 3E000000 		.4byte	.LVL126
 8154 1d4e E2180000 		.4byte	0x18e2
 8155 1d52 00       		.byte	0
 8156 1d53 00       		.byte	0
 8157 1d54 41       		.uleb128 0x41
 8158 1d55 FA120000 		.4byte	0x12fa
 8159 1d59 46000000 		.4byte	.LBB149
ARM GAS  C:\Users\jo\AppData\Local\Temp\ccQTqoh0.s 			page 147


 8160 1d5d 0E000000 		.4byte	.LBE149-.LBB149
 8161 1d61 01       		.byte	0x1
 8162 1d62 F305     		.2byte	0x5f3
 8163 1d64 8E1D0000 		.4byte	0x1d8e
 8164 1d68 36       		.uleb128 0x36
 8165 1d69 07130000 		.4byte	0x1307
 8166 1d6d 24070000 		.4byte	.LLST38
 8167 1d71 4B       		.uleb128 0x4b
 8168 1d72 48000000 		.4byte	.LBB151
 8169 1d76 06000000 		.4byte	.LBE151-.LBB151
 8170 1d7a 46       		.uleb128 0x46
 8171 1d7b 14130000 		.4byte	0x1314
 8172 1d7f 4D070000 		.4byte	.LLST39
 8173 1d83 42       		.uleb128 0x42
 8174 1d84 4E000000 		.4byte	.LVL130
 8175 1d88 E2180000 		.4byte	0x18e2
 8176 1d8c 00       		.byte	0
 8177 1d8d 00       		.byte	0
 8178 1d8e 42       		.uleb128 0x42
 8179 1d8f 16000000 		.4byte	.LVL119
 8180 1d93 FE300000 		.4byte	0x30fe
 8181 1d97 00       		.byte	0
 8182 1d98 00       		.byte	0
 8183 1d99 4A       		.uleb128 0x4a
 8184 1d9a D1090000 		.4byte	.LASF311
 8185 1d9e 01       		.byte	0x1
 8186 1d9f 1403     		.2byte	0x314
 8187 1da1 00000000 		.4byte	.LFB274
 8188 1da5 AC040000 		.4byte	.LFE274-.LFB274
 8189 1da9 01       		.uleb128 0x1
 8190 1daa 9C       		.byte	0x9c
 8191 1dab 79220000 		.4byte	0x2279
 8192 1daf 32       		.uleb128 0x32
 8193 1db0 70636200 		.ascii	"pcb\000"
 8194 1db4 01       		.byte	0x1
 8195 1db5 1603     		.2byte	0x316
 8196 1db7 780B0000 		.4byte	0xb78
 8197 1dbb 60070000 		.4byte	.LLST40
 8198 1dbf 40       		.uleb128 0x40
 8199 1dc0 EF010000 		.4byte	.LASF312
 8200 1dc4 01       		.byte	0x1
 8201 1dc5 1603     		.2byte	0x316
 8202 1dc7 780B0000 		.4byte	0xb78
 8203 1dcb 0E080000 		.4byte	.LLST41
 8204 1dcf 26       		.uleb128 0x26
 8205 1dd0 B3010000 		.4byte	.LASF313
 8206 1dd4 01       		.byte	0x1
 8207 1dd5 1703     		.2byte	0x317
 8208 1dd7 D0080000 		.4byte	0x8d0
 8209 1ddb 40       		.uleb128 0x40
 8210 1ddc 6C050000 		.4byte	.LASF314
 8211 1de0 01       		.byte	0x1
 8212 1de1 1803     		.2byte	0x318
 8213 1de3 BA080000 		.4byte	0x8ba
 8214 1de7 9C080000 		.4byte	.LLST42
 8215 1deb 40       		.uleb128 0x40
 8216 1dec 55030000 		.4byte	.LASF315
ARM GAS  C:\Users\jo\AppData\Local\Temp\ccQTqoh0.s 			page 148


 8217 1df0 01       		.byte	0x1
 8218 1df1 1903     		.2byte	0x319
 8219 1df3 BA080000 		.4byte	0x8ba
 8220 1df7 67090000 		.4byte	.LLST43
 8221 1dfb 32       		.uleb128 0x32
 8222 1dfc 65727200 		.ascii	"err\000"
 8223 1e00 01       		.byte	0x1
 8224 1e01 1A03     		.2byte	0x31a
 8225 1e03 88090000 		.4byte	0x988
 8226 1e07 CB090000 		.4byte	.LLST44
 8227 1e0b 4D       		.uleb128 0x4d
 8228 1e0c C4080000 		.4byte	.LASF389
 8229 1e10 01       		.byte	0x1
 8230 1e11 2103     		.2byte	0x321
 8231 1e13 41       		.uleb128 0x41
 8232 1e14 AE120000 		.4byte	0x12ae
 8233 1e18 52010000 		.4byte	.LBB152
 8234 1e1c 06000000 		.4byte	.LBE152-.LBB152
 8235 1e20 01       		.byte	0x1
 8236 1e21 EE03     		.2byte	0x3ee
 8237 1e23 441E0000 		.4byte	0x1e44
 8238 1e27 36       		.uleb128 0x36
 8239 1e28 BB120000 		.4byte	0x12bb
 8240 1e2c EA090000 		.4byte	.LLST45
 8241 1e30 3A       		.uleb128 0x3a
 8242 1e31 58010000 		.4byte	.LVL151
 8243 1e35 A8300000 		.4byte	0x30a8
 8244 1e39 3B       		.uleb128 0x3b
 8245 1e3a 01       		.uleb128 0x1
 8246 1e3b 50       		.byte	0x50
 8247 1e3c 05       		.uleb128 0x5
 8248 1e3d 03       		.byte	0x3
 8249 1e3e 78020000 		.4byte	.LC16
 8250 1e42 00       		.byte	0
 8251 1e43 00       		.byte	0
 8252 1e44 47       		.uleb128 0x47
 8253 1e45 38000000 		.4byte	.Ldebug_ranges0+0x38
 8254 1e49 381F0000 		.4byte	0x1f38
 8255 1e4d 40       		.uleb128 0x40
 8256 1e4e 04100000 		.4byte	.LASF316
 8257 1e52 01       		.byte	0x1
 8258 1e53 FA03     		.2byte	0x3fa
 8259 1e55 780B0000 		.4byte	0xb78
 8260 1e59 020A0000 		.4byte	.LLST46
 8261 1e5d 41       		.uleb128 0x41
 8262 1e5e AE120000 		.4byte	0x12ae
 8263 1e62 42040000 		.4byte	.LBB155
 8264 1e66 06000000 		.4byte	.LBE155-.LBB155
 8265 1e6a 01       		.byte	0x1
 8266 1e6b 0204     		.2byte	0x402
 8267 1e6d 8E1E0000 		.4byte	0x1e8e
 8268 1e71 36       		.uleb128 0x36
 8269 1e72 BB120000 		.4byte	0x12bb
 8270 1e76 200A0000 		.4byte	.LLST47
 8271 1e7a 3A       		.uleb128 0x3a
 8272 1e7b 48040000 		.4byte	.LVL205
 8273 1e7f A8300000 		.4byte	0x30a8
ARM GAS  C:\Users\jo\AppData\Local\Temp\ccQTqoh0.s 			page 149


 8274 1e83 3B       		.uleb128 0x3b
 8275 1e84 01       		.uleb128 0x1
 8276 1e85 50       		.byte	0x50
 8277 1e86 05       		.uleb128 0x5
 8278 1e87 03       		.byte	0x3
 8279 1e88 D0020000 		.4byte	.LC18
 8280 1e8c 00       		.byte	0
 8281 1e8d 00       		.byte	0
 8282 1e8e 41       		.uleb128 0x41
 8283 1e8f AE120000 		.4byte	0x12ae
 8284 1e93 7C040000 		.4byte	.LBB157
 8285 1e97 30000000 		.4byte	.LBE157-.LBB157
 8286 1e9b 01       		.byte	0x1
 8287 1e9c FE03     		.2byte	0x3fe
 8288 1e9e C21E0000 		.4byte	0x1ec2
 8289 1ea2 37       		.uleb128 0x37
 8290 1ea3 BB120000 		.4byte	0x12bb
 8291 1ea7 06       		.uleb128 0x6
 8292 1ea8 03       		.byte	0x3
 8293 1ea9 A8020000 		.4byte	.LC17
 8294 1ead 9F       		.byte	0x9f
 8295 1eae 3A       		.uleb128 0x3a
 8296 1eaf 82040000 		.4byte	.LVL211
 8297 1eb3 A8300000 		.4byte	0x30a8
 8298 1eb7 3B       		.uleb128 0x3b
 8299 1eb8 01       		.uleb128 0x1
 8300 1eb9 50       		.byte	0x50
 8301 1eba 05       		.uleb128 0x5
 8302 1ebb 03       		.byte	0x3
 8303 1ebc A8020000 		.4byte	.LC17
 8304 1ec0 00       		.byte	0
 8305 1ec1 00       		.byte	0
 8306 1ec2 43       		.uleb128 0x43
 8307 1ec3 6A010000 		.4byte	.LVL153
 8308 1ec7 22130000 		.4byte	0x1322
 8309 1ecb D61E0000 		.4byte	0x1ed6
 8310 1ecf 3B       		.uleb128 0x3b
 8311 1ed0 01       		.uleb128 0x1
 8312 1ed1 50       		.byte	0x50
 8313 1ed2 02       		.uleb128 0x2
 8314 1ed3 75       		.byte	0x75
 8315 1ed4 00       		.sleb128 0
 8316 1ed5 00       		.byte	0
 8317 1ed6 42       		.uleb128 0x42
 8318 1ed7 8A010000 		.4byte	.LVL156
 8319 1edb D7300000 		.4byte	0x30d7
 8320 1edf 43       		.uleb128 0x43
 8321 1ee0 42040000 		.4byte	.LVL204
 8322 1ee4 CD140000 		.4byte	0x14cd
 8323 1ee8 0D1F0000 		.4byte	0x1f0d
 8324 1eec 3B       		.uleb128 0x3b
 8325 1eed 01       		.uleb128 0x1
 8326 1eee 53       		.byte	0x53
 8327 1eef 03       		.uleb128 0x3
 8328 1ef0 0A       		.byte	0xa
 8329 1ef1 0204     		.2byte	0x402
 8330 1ef3 3B       		.uleb128 0x3b
ARM GAS  C:\Users\jo\AppData\Local\Temp\ccQTqoh0.s 			page 150


 8331 1ef4 01       		.uleb128 0x1
 8332 1ef5 52       		.byte	0x52
 8333 1ef6 05       		.uleb128 0x5
 8334 1ef7 03       		.byte	0x3
 8335 1ef8 D0020000 		.4byte	.LC18
 8336 1efc 3B       		.uleb128 0x3b
 8337 1efd 01       		.uleb128 0x1
 8338 1efe 51       		.byte	0x51
 8339 1eff 05       		.uleb128 0x5
 8340 1f00 03       		.byte	0x3
 8341 1f01 00000000 		.4byte	.LC0
 8342 1f05 3B       		.uleb128 0x3b
 8343 1f06 02       		.uleb128 0x2
 8344 1f07 7D       		.byte	0x7d
 8345 1f08 00       		.sleb128 0
 8346 1f09 02       		.uleb128 0x2
 8347 1f0a 77       		.byte	0x77
 8348 1f0b 00       		.sleb128 0
 8349 1f0c 00       		.byte	0
 8350 1f0d 3A       		.uleb128 0x3a
 8351 1f0e 7C040000 		.4byte	.LVL210
 8352 1f12 CD140000 		.4byte	0x14cd
 8353 1f16 3B       		.uleb128 0x3b
 8354 1f17 01       		.uleb128 0x1
 8355 1f18 53       		.byte	0x53
 8356 1f19 03       		.uleb128 0x3
 8357 1f1a 0A       		.byte	0xa
 8358 1f1b FE03     		.2byte	0x3fe
 8359 1f1d 3B       		.uleb128 0x3b
 8360 1f1e 01       		.uleb128 0x1
 8361 1f1f 52       		.byte	0x52
 8362 1f20 05       		.uleb128 0x5
 8363 1f21 03       		.byte	0x3
 8364 1f22 A8020000 		.4byte	.LC17
 8365 1f26 3B       		.uleb128 0x3b
 8366 1f27 01       		.uleb128 0x1
 8367 1f28 51       		.byte	0x51
 8368 1f29 05       		.uleb128 0x5
 8369 1f2a 03       		.byte	0x3
 8370 1f2b 00000000 		.4byte	.LC0
 8371 1f2f 3B       		.uleb128 0x3b
 8372 1f30 02       		.uleb128 0x2
 8373 1f31 7D       		.byte	0x7d
 8374 1f32 00       		.sleb128 0
 8375 1f33 02       		.uleb128 0x2
 8376 1f34 77       		.byte	0x77
 8377 1f35 00       		.sleb128 0
 8378 1f36 00       		.byte	0
 8379 1f37 00       		.byte	0
 8380 1f38 41       		.uleb128 0x41
 8381 1f39 FA120000 		.4byte	0x12fa
 8382 1f3d 94010000 		.4byte	.LBB159
 8383 1f41 0E000000 		.4byte	.LBE159-.LBB159
 8384 1f45 01       		.byte	0x1
 8385 1f46 9B03     		.2byte	0x39b
 8386 1f48 721F0000 		.4byte	0x1f72
 8387 1f4c 36       		.uleb128 0x36
ARM GAS  C:\Users\jo\AppData\Local\Temp\ccQTqoh0.s 			page 151


 8388 1f4d 07130000 		.4byte	0x1307
 8389 1f51 380A0000 		.4byte	.LLST48
 8390 1f55 4B       		.uleb128 0x4b
 8391 1f56 94010000 		.4byte	.LBB161
 8392 1f5a 08000000 		.4byte	.LBE161-.LBB161
 8393 1f5e 46       		.uleb128 0x46
 8394 1f5f 14130000 		.4byte	0x1314
 8395 1f63 560A0000 		.4byte	.LLST49
 8396 1f67 42       		.uleb128 0x42
 8397 1f68 9C010000 		.4byte	.LVL160
 8398 1f6c E2180000 		.4byte	0x18e2
 8399 1f70 00       		.byte	0
 8400 1f71 00       		.byte	0
 8401 1f72 47       		.uleb128 0x47
 8402 1f73 58000000 		.4byte	.Ldebug_ranges0+0x58
 8403 1f77 C8200000 		.4byte	0x20c8
 8404 1f7b 40       		.uleb128 0x40
 8405 1f7c 04100000 		.4byte	.LASF316
 8406 1f80 01       		.byte	0x1
 8407 1f81 B403     		.2byte	0x3b4
 8408 1f83 780B0000 		.4byte	0xb78
 8409 1f87 690A0000 		.4byte	.LLST50
 8410 1f8b 40       		.uleb128 0x40
 8411 1f8c 62020000 		.4byte	.LASF317
 8412 1f90 01       		.byte	0x1
 8413 1f91 B503     		.2byte	0x3b5
 8414 1f93 AE0E0000 		.4byte	0xeae
 8415 1f97 7C0A0000 		.4byte	.LLST51
 8416 1f9b 40       		.uleb128 0x40
 8417 1f9c 72100000 		.4byte	.LASF318
 8418 1fa0 01       		.byte	0x1
 8419 1fa1 B603     		.2byte	0x3b6
 8420 1fa3 64030000 		.4byte	0x364
 8421 1fa7 8F0A0000 		.4byte	.LLST52
 8422 1fab 41       		.uleb128 0x41
 8423 1fac AE120000 		.4byte	0x12ae
 8424 1fb0 1C040000 		.4byte	.LBB163
 8425 1fb4 06000000 		.4byte	.LBE163-.LBB163
 8426 1fb8 01       		.byte	0x1
 8427 1fb9 BE03     		.2byte	0x3be
 8428 1fbb DC1F0000 		.4byte	0x1fdc
 8429 1fbf 36       		.uleb128 0x36
 8430 1fc0 BB120000 		.4byte	0x12bb
 8431 1fc4 A30A0000 		.4byte	.LLST53
 8432 1fc8 3A       		.uleb128 0x3a
 8433 1fc9 22040000 		.4byte	.LVL202
 8434 1fcd A8300000 		.4byte	0x30a8
 8435 1fd1 3B       		.uleb128 0x3b
 8436 1fd2 01       		.uleb128 0x1
 8437 1fd3 50       		.byte	0x50
 8438 1fd4 05       		.uleb128 0x5
 8439 1fd5 03       		.byte	0x3
 8440 1fd6 4C020000 		.4byte	.LC15
 8441 1fda 00       		.byte	0
 8442 1fdb 00       		.byte	0
 8443 1fdc 41       		.uleb128 0x41
 8444 1fdd AE120000 		.4byte	0x12ae
ARM GAS  C:\Users\jo\AppData\Local\Temp\ccQTqoh0.s 			page 152


 8445 1fe1 64040000 		.4byte	.LBB165
 8446 1fe5 08000000 		.4byte	.LBE165-.LBB165
 8447 1fe9 01       		.byte	0x1
 8448 1fea BA03     		.2byte	0x3ba
 8449 1fec 0D200000 		.4byte	0x200d
 8450 1ff0 36       		.uleb128 0x36
 8451 1ff1 BB120000 		.4byte	0x12bb
 8452 1ff5 BB0A0000 		.4byte	.LLST54
 8453 1ff9 3A       		.uleb128 0x3a
 8454 1ffa 6A040000 		.4byte	.LVL208
 8455 1ffe A8300000 		.4byte	0x30a8
 8456 2002 3B       		.uleb128 0x3b
 8457 2003 01       		.uleb128 0x1
 8458 2004 50       		.byte	0x50
 8459 2005 05       		.uleb128 0x5
 8460 2006 03       		.byte	0x3
 8461 2007 20020000 		.4byte	.LC14
 8462 200b 00       		.byte	0
 8463 200c 00       		.byte	0
 8464 200d 43       		.uleb128 0x43
 8465 200e D0010000 		.4byte	.LVL165
 8466 2012 22130000 		.4byte	0x1322
 8467 2016 21200000 		.4byte	0x2021
 8468 201a 3B       		.uleb128 0x3b
 8469 201b 01       		.uleb128 0x1
 8470 201c 50       		.byte	0x50
 8471 201d 02       		.uleb128 0x2
 8472 201e 77       		.byte	0x77
 8473 201f 00       		.sleb128 0
 8474 2020 00       		.byte	0
 8475 2021 43       		.uleb128 0x43
 8476 2022 02020000 		.4byte	.LVL169
 8477 2026 D7300000 		.4byte	0x30d7
 8478 202a 35200000 		.4byte	0x2035
 8479 202e 3B       		.uleb128 0x3b
 8480 202f 01       		.uleb128 0x1
 8481 2030 50       		.byte	0x50
 8482 2031 02       		.uleb128 0x2
 8483 2032 77       		.byte	0x77
 8484 2033 00       		.sleb128 0
 8485 2034 00       		.byte	0
 8486 2035 4E       		.uleb128 0x4e
 8487 2036 16020000 		.4byte	.LVL170
 8488 203a 02       		.uleb128 0x2
 8489 203b 7A       		.byte	0x7a
 8490 203c 00       		.sleb128 0
 8491 203d 4F200000 		.4byte	0x204f
 8492 2041 3B       		.uleb128 0x3b
 8493 2042 01       		.uleb128 0x1
 8494 2043 51       		.byte	0x51
 8495 2044 02       		.uleb128 0x2
 8496 2045 09       		.byte	0x9
 8497 2046 F6       		.byte	0xf6
 8498 2047 3B       		.uleb128 0x3b
 8499 2048 01       		.uleb128 0x1
 8500 2049 50       		.byte	0x50
 8501 204a 03       		.uleb128 0x3
ARM GAS  C:\Users\jo\AppData\Local\Temp\ccQTqoh0.s 			page 153


 8502 204b 91       		.byte	0x91
 8503 204c 54       		.sleb128 -44
 8504 204d 06       		.byte	0x6
 8505 204e 00       		.byte	0
 8506 204f 43       		.uleb128 0x43
 8507 2050 04040000 		.4byte	.LVL200
 8508 2054 24310000 		.4byte	0x3124
 8509 2058 69200000 		.4byte	0x2069
 8510 205c 3B       		.uleb128 0x3b
 8511 205d 01       		.uleb128 0x1
 8512 205e 53       		.byte	0x53
 8513 205f 02       		.uleb128 0x2
 8514 2060 77       		.byte	0x77
 8515 2061 04       		.sleb128 4
 8516 2062 3B       		.uleb128 0x3b
 8517 2063 01       		.uleb128 0x1
 8518 2064 52       		.byte	0x52
 8519 2065 02       		.uleb128 0x2
 8520 2066 77       		.byte	0x77
 8521 2067 00       		.sleb128 0
 8522 2068 00       		.byte	0
 8523 2069 43       		.uleb128 0x43
 8524 206a 1C040000 		.4byte	.LVL201
 8525 206e CD140000 		.4byte	0x14cd
 8526 2072 9A200000 		.4byte	0x209a
 8527 2076 3B       		.uleb128 0x3b
 8528 2077 01       		.uleb128 0x1
 8529 2078 53       		.byte	0x53
 8530 2079 03       		.uleb128 0x3
 8531 207a 0A       		.byte	0xa
 8532 207b BE03     		.2byte	0x3be
 8533 207d 3B       		.uleb128 0x3b
 8534 207e 01       		.uleb128 0x1
 8535 207f 52       		.byte	0x52
 8536 2080 05       		.uleb128 0x5
 8537 2081 03       		.byte	0x3
 8538 2082 4C020000 		.4byte	.LC15
 8539 2086 3B       		.uleb128 0x3b
 8540 2087 01       		.uleb128 0x1
 8541 2088 51       		.byte	0x51
 8542 2089 05       		.uleb128 0x5
 8543 208a 03       		.byte	0x3
 8544 208b 00000000 		.4byte	.LC0
 8545 208f 3B       		.uleb128 0x3b
 8546 2090 02       		.uleb128 0x2
 8547 2091 7D       		.byte	0x7d
 8548 2092 00       		.sleb128 0
 8549 2093 05       		.uleb128 0x5
 8550 2094 03       		.byte	0x3
 8551 2095 50000000 		.4byte	.LC2
 8552 2099 00       		.byte	0
 8553 209a 3A       		.uleb128 0x3a
 8554 209b 64040000 		.4byte	.LVL207
 8555 209f CD140000 		.4byte	0x14cd
 8556 20a3 3B       		.uleb128 0x3b
 8557 20a4 01       		.uleb128 0x1
 8558 20a5 53       		.byte	0x53
ARM GAS  C:\Users\jo\AppData\Local\Temp\ccQTqoh0.s 			page 154


 8559 20a6 03       		.uleb128 0x3
 8560 20a7 0A       		.byte	0xa
 8561 20a8 BA03     		.2byte	0x3ba
 8562 20aa 3B       		.uleb128 0x3b
 8563 20ab 01       		.uleb128 0x1
 8564 20ac 52       		.byte	0x52
 8565 20ad 05       		.uleb128 0x5
 8566 20ae 03       		.byte	0x3
 8567 20af 20020000 		.4byte	.LC14
 8568 20b3 3B       		.uleb128 0x3b
 8569 20b4 01       		.uleb128 0x1
 8570 20b5 51       		.byte	0x51
 8571 20b6 05       		.uleb128 0x5
 8572 20b7 03       		.byte	0x3
 8573 20b8 00000000 		.4byte	.LC0
 8574 20bc 3B       		.uleb128 0x3b
 8575 20bd 02       		.uleb128 0x2
 8576 20be 7D       		.byte	0x7d
 8577 20bf 00       		.sleb128 0
 8578 20c0 05       		.uleb128 0x5
 8579 20c1 03       		.byte	0x3
 8580 20c2 50000000 		.4byte	.LC2
 8581 20c6 00       		.byte	0
 8582 20c7 00       		.byte	0
 8583 20c8 41       		.uleb128 0x41
 8584 20c9 AE120000 		.4byte	0x12ae
 8585 20cd 48020000 		.4byte	.LBB167
 8586 20d1 08000000 		.4byte	.LBE167-.LBB167
 8587 20d5 01       		.byte	0x1
 8588 20d6 2A03     		.2byte	0x32a
 8589 20d8 F9200000 		.4byte	0x20f9
 8590 20dc 36       		.uleb128 0x36
 8591 20dd BB120000 		.4byte	0x12bb
 8592 20e1 D30A0000 		.4byte	.LLST55
 8593 20e5 3A       		.uleb128 0x3a
 8594 20e6 4E020000 		.4byte	.LVL177
 8595 20ea A8300000 		.4byte	0x30a8
 8596 20ee 3B       		.uleb128 0x3b
 8597 20ef 01       		.uleb128 0x1
 8598 20f0 50       		.byte	0x50
 8599 20f1 05       		.uleb128 0x5
 8600 20f2 03       		.byte	0x3
 8601 20f3 98010000 		.4byte	.LC11
 8602 20f7 00       		.byte	0
 8603 20f8 00       		.byte	0
 8604 20f9 41       		.uleb128 0x41
 8605 20fa AE120000 		.4byte	0x12ae
 8606 20fe 68020000 		.4byte	.LBB169
 8607 2102 08000000 		.4byte	.LBE169-.LBB169
 8608 2106 01       		.byte	0x1
 8609 2107 2B03     		.2byte	0x32b
 8610 2109 2A210000 		.4byte	0x212a
 8611 210d 36       		.uleb128 0x36
 8612 210e BB120000 		.4byte	0x12bb
 8613 2112 EB0A0000 		.4byte	.LLST56
 8614 2116 3A       		.uleb128 0x3a
 8615 2117 6E020000 		.4byte	.LVL180
ARM GAS  C:\Users\jo\AppData\Local\Temp\ccQTqoh0.s 			page 155


 8616 211b A8300000 		.4byte	0x30a8
 8617 211f 3B       		.uleb128 0x3b
 8618 2120 01       		.uleb128 0x1
 8619 2121 50       		.byte	0x50
 8620 2122 05       		.uleb128 0x5
 8621 2123 03       		.byte	0x3
 8622 2124 C4010000 		.4byte	.LC12
 8623 2128 00       		.byte	0
 8624 2129 00       		.byte	0
 8625 212a 41       		.uleb128 0x41
 8626 212b AE120000 		.4byte	0x12ae
 8627 212f 88020000 		.4byte	.LBB171
 8628 2133 06000000 		.4byte	.LBE171-.LBB171
 8629 2137 01       		.byte	0x1
 8630 2138 2C03     		.2byte	0x32c
 8631 213a 5B210000 		.4byte	0x215b
 8632 213e 36       		.uleb128 0x36
 8633 213f BB120000 		.4byte	0x12bb
 8634 2143 030B0000 		.4byte	.LLST57
 8635 2147 3A       		.uleb128 0x3a
 8636 2148 8E020000 		.4byte	.LVL183
 8637 214c A8300000 		.4byte	0x30a8
 8638 2150 3B       		.uleb128 0x3b
 8639 2151 01       		.uleb128 0x1
 8640 2152 50       		.byte	0x50
 8641 2153 05       		.uleb128 0x5
 8642 2154 03       		.byte	0x3
 8643 2155 F0010000 		.4byte	.LC13
 8644 2159 00       		.byte	0
 8645 215a 00       		.byte	0
 8646 215b 43       		.uleb128 0x43
 8647 215c 9A000000 		.4byte	.LVL138
 8648 2160 4F310000 		.4byte	0x314f
 8649 2164 6F210000 		.4byte	0x216f
 8650 2168 3B       		.uleb128 0x3b
 8651 2169 01       		.uleb128 0x1
 8652 216a 50       		.byte	0x50
 8653 216b 02       		.uleb128 0x2
 8654 216c 77       		.byte	0x77
 8655 216d 00       		.sleb128 0
 8656 216e 00       		.byte	0
 8657 216f 4F       		.uleb128 0x4f
 8658 2170 18010000 		.4byte	.LVL143
 8659 2174 7F210000 		.4byte	0x217f
 8660 2178 3B       		.uleb128 0x3b
 8661 2179 01       		.uleb128 0x1
 8662 217a 51       		.byte	0x51
 8663 217b 02       		.uleb128 0x2
 8664 217c 77       		.byte	0x77
 8665 217d 00       		.sleb128 0
 8666 217e 00       		.byte	0
 8667 217f 43       		.uleb128 0x43
 8668 2180 52010000 		.4byte	.LVL150
 8669 2184 CD140000 		.4byte	0x14cd
 8670 2188 AD210000 		.4byte	0x21ad
 8671 218c 3B       		.uleb128 0x3b
 8672 218d 01       		.uleb128 0x1
ARM GAS  C:\Users\jo\AppData\Local\Temp\ccQTqoh0.s 			page 156


 8673 218e 53       		.byte	0x53
 8674 218f 03       		.uleb128 0x3
 8675 2190 0A       		.byte	0xa
 8676 2191 EE03     		.2byte	0x3ee
 8677 2193 3B       		.uleb128 0x3b
 8678 2194 01       		.uleb128 0x1
 8679 2195 52       		.byte	0x52
 8680 2196 05       		.uleb128 0x5
 8681 2197 03       		.byte	0x3
 8682 2198 78020000 		.4byte	.LC16
 8683 219c 3B       		.uleb128 0x3b
 8684 219d 01       		.uleb128 0x1
 8685 219e 51       		.byte	0x51
 8686 219f 05       		.uleb128 0x5
 8687 21a0 03       		.byte	0x3
 8688 21a1 00000000 		.4byte	.LC0
 8689 21a5 3B       		.uleb128 0x3b
 8690 21a6 02       		.uleb128 0x2
 8691 21a7 7D       		.byte	0x7d
 8692 21a8 00       		.sleb128 0
 8693 21a9 02       		.uleb128 0x2
 8694 21aa 77       		.byte	0x77
 8695 21ab 00       		.sleb128 0
 8696 21ac 00       		.byte	0
 8697 21ad 43       		.uleb128 0x43
 8698 21ae 2E020000 		.4byte	.LVL174
 8699 21b2 E8300000 		.4byte	0x30e8
 8700 21b6 C1210000 		.4byte	0x21c1
 8701 21ba 3B       		.uleb128 0x3b
 8702 21bb 01       		.uleb128 0x1
 8703 21bc 50       		.byte	0x50
 8704 21bd 02       		.uleb128 0x2
 8705 21be 76       		.byte	0x76
 8706 21bf 00       		.sleb128 0
 8707 21c0 00       		.byte	0
 8708 21c1 43       		.uleb128 0x43
 8709 21c2 48020000 		.4byte	.LVL176
 8710 21c6 CD140000 		.4byte	0x14cd
 8711 21ca F2210000 		.4byte	0x21f2
 8712 21ce 3B       		.uleb128 0x3b
 8713 21cf 01       		.uleb128 0x1
 8714 21d0 53       		.byte	0x53
 8715 21d1 03       		.uleb128 0x3
 8716 21d2 0A       		.byte	0xa
 8717 21d3 2A03     		.2byte	0x32a
 8718 21d5 3B       		.uleb128 0x3b
 8719 21d6 01       		.uleb128 0x1
 8720 21d7 52       		.byte	0x52
 8721 21d8 05       		.uleb128 0x5
 8722 21d9 03       		.byte	0x3
 8723 21da 98010000 		.4byte	.LC11
 8724 21de 3B       		.uleb128 0x3b
 8725 21df 01       		.uleb128 0x1
 8726 21e0 51       		.byte	0x51
 8727 21e1 05       		.uleb128 0x5
 8728 21e2 03       		.byte	0x3
 8729 21e3 00000000 		.4byte	.LC0
ARM GAS  C:\Users\jo\AppData\Local\Temp\ccQTqoh0.s 			page 157


 8730 21e7 3B       		.uleb128 0x3b
 8731 21e8 02       		.uleb128 0x2
 8732 21e9 7D       		.byte	0x7d
 8733 21ea 00       		.sleb128 0
 8734 21eb 05       		.uleb128 0x5
 8735 21ec 03       		.byte	0x3
 8736 21ed 50000000 		.4byte	.LC2
 8737 21f1 00       		.byte	0
 8738 21f2 43       		.uleb128 0x43
 8739 21f3 68020000 		.4byte	.LVL179
 8740 21f7 CD140000 		.4byte	0x14cd
 8741 21fb 23220000 		.4byte	0x2223
 8742 21ff 3B       		.uleb128 0x3b
 8743 2200 01       		.uleb128 0x1
 8744 2201 53       		.byte	0x53
 8745 2202 03       		.uleb128 0x3
 8746 2203 0A       		.byte	0xa
 8747 2204 2B03     		.2byte	0x32b
 8748 2206 3B       		.uleb128 0x3b
 8749 2207 01       		.uleb128 0x1
 8750 2208 52       		.byte	0x52
 8751 2209 05       		.uleb128 0x5
 8752 220a 03       		.byte	0x3
 8753 220b C4010000 		.4byte	.LC12
 8754 220f 3B       		.uleb128 0x3b
 8755 2210 01       		.uleb128 0x1
 8756 2211 51       		.byte	0x51
 8757 2212 05       		.uleb128 0x5
 8758 2213 03       		.byte	0x3
 8759 2214 00000000 		.4byte	.LC0
 8760 2218 3B       		.uleb128 0x3b
 8761 2219 02       		.uleb128 0x2
 8762 221a 7D       		.byte	0x7d
 8763 221b 00       		.sleb128 0
 8764 221c 05       		.uleb128 0x5
 8765 221d 03       		.byte	0x3
 8766 221e 50000000 		.4byte	.LC2
 8767 2222 00       		.byte	0
 8768 2223 43       		.uleb128 0x43
 8769 2224 88020000 		.4byte	.LVL182
 8770 2228 CD140000 		.4byte	0x14cd
 8771 222c 54220000 		.4byte	0x2254
 8772 2230 3B       		.uleb128 0x3b
 8773 2231 01       		.uleb128 0x1
 8774 2232 53       		.byte	0x53
 8775 2233 03       		.uleb128 0x3
 8776 2234 0A       		.byte	0xa
 8777 2235 2C03     		.2byte	0x32c
 8778 2237 3B       		.uleb128 0x3b
 8779 2238 01       		.uleb128 0x1
 8780 2239 52       		.byte	0x52
 8781 223a 05       		.uleb128 0x5
 8782 223b 03       		.byte	0x3
 8783 223c F0010000 		.4byte	.LC13
 8784 2240 3B       		.uleb128 0x3b
 8785 2241 01       		.uleb128 0x1
 8786 2242 51       		.byte	0x51
ARM GAS  C:\Users\jo\AppData\Local\Temp\ccQTqoh0.s 			page 158


 8787 2243 05       		.uleb128 0x5
 8788 2244 03       		.byte	0x3
 8789 2245 00000000 		.4byte	.LC0
 8790 2249 3B       		.uleb128 0x3b
 8791 224a 02       		.uleb128 0x2
 8792 224b 7D       		.byte	0x7d
 8793 224c 00       		.sleb128 0
 8794 224d 05       		.uleb128 0x5
 8795 224e 03       		.byte	0x3
 8796 224f 50000000 		.4byte	.LC2
 8797 2253 00       		.byte	0
 8798 2254 43       		.uleb128 0x43
 8799 2255 64030000 		.4byte	.LVL191
 8800 2259 61310000 		.4byte	0x3161
 8801 225d 68220000 		.4byte	0x2268
 8802 2261 3B       		.uleb128 0x3b
 8803 2262 01       		.uleb128 0x1
 8804 2263 50       		.byte	0x50
 8805 2264 02       		.uleb128 0x2
 8806 2265 77       		.byte	0x77
 8807 2266 00       		.sleb128 0
 8808 2267 00       		.byte	0
 8809 2268 3A       		.uleb128 0x3a
 8810 2269 E0030000 		.4byte	.LVL198
 8811 226d 72310000 		.4byte	0x3172
 8812 2271 3B       		.uleb128 0x3b
 8813 2272 01       		.uleb128 0x1
 8814 2273 50       		.byte	0x50
 8815 2274 02       		.uleb128 0x2
 8816 2275 77       		.byte	0x77
 8817 2276 00       		.sleb128 0
 8818 2277 00       		.byte	0
 8819 2278 00       		.byte	0
 8820 2279 4A       		.uleb128 0x4a
 8821 227a 05030000 		.4byte	.LASF319
 8822 227e 01       		.byte	0x1
 8823 227f 0206     		.2byte	0x602
 8824 2281 00000000 		.4byte	.LFB293
 8825 2285 E0000000 		.4byte	.LFE293-.LFB293
 8826 2289 01       		.uleb128 0x1
 8827 228a 9C       		.byte	0x9c
 8828 228b FA230000 		.4byte	0x23fa
 8829 228f 3E       		.uleb128 0x3e
 8830 2290 77050000 		.4byte	.LASF320
 8831 2294 01       		.byte	0x1
 8832 2295 0206     		.2byte	0x602
 8833 2297 FA230000 		.4byte	0x23fa
 8834 229b 1B0B0000 		.4byte	.LLST58
 8835 229f 30       		.uleb128 0x30
 8836 22a0 70636200 		.ascii	"pcb\000"
 8837 22a4 01       		.byte	0x1
 8838 22a5 0206     		.2byte	0x602
 8839 22a7 780B0000 		.4byte	0xb78
 8840 22ab 600B0000 		.4byte	.LLST59
 8841 22af 41       		.uleb128 0x41
 8842 22b0 AE120000 		.4byte	0x12ae
 8843 22b4 58000000 		.4byte	.LBB177
ARM GAS  C:\Users\jo\AppData\Local\Temp\ccQTqoh0.s 			page 159


 8844 22b8 06000000 		.4byte	.LBE177-.LBB177
 8845 22bc 01       		.byte	0x1
 8846 22bd 1106     		.2byte	0x611
 8847 22bf E0220000 		.4byte	0x22e0
 8848 22c3 36       		.uleb128 0x36
 8849 22c4 BB120000 		.4byte	0x12bb
 8850 22c8 940B0000 		.4byte	.LLST60
 8851 22cc 3A       		.uleb128 0x3a
 8852 22cd 5E000000 		.4byte	.LVL217
 8853 22d1 A8300000 		.4byte	0x30a8
 8854 22d5 3B       		.uleb128 0x3b
 8855 22d6 01       		.uleb128 0x1
 8856 22d7 50       		.byte	0x50
 8857 22d8 05       		.uleb128 0x5
 8858 22d9 03       		.byte	0x3
 8859 22da F8020000 		.4byte	.LC19
 8860 22de 00       		.byte	0
 8861 22df 00       		.byte	0
 8862 22e0 41       		.uleb128 0x41
 8863 22e1 AE120000 		.4byte	0x12ae
 8864 22e5 74000000 		.4byte	.LBB179
 8865 22e9 06000000 		.4byte	.LBE179-.LBB179
 8866 22ed 01       		.byte	0x1
 8867 22ee 1206     		.2byte	0x612
 8868 22f0 11230000 		.4byte	0x2311
 8869 22f4 36       		.uleb128 0x36
 8870 22f5 BB120000 		.4byte	0x12bb
 8871 22f9 AC0B0000 		.4byte	.LLST61
 8872 22fd 3A       		.uleb128 0x3a
 8873 22fe 7A000000 		.4byte	.LVL219
 8874 2302 A8300000 		.4byte	0x30a8
 8875 2306 3B       		.uleb128 0x3b
 8876 2307 01       		.uleb128 0x1
 8877 2308 50       		.byte	0x50
 8878 2309 05       		.uleb128 0x5
 8879 230a 03       		.byte	0x3
 8880 230b 10030000 		.4byte	.LC20
 8881 230f 00       		.byte	0
 8882 2310 00       		.byte	0
 8883 2311 41       		.uleb128 0x41
 8884 2312 AE120000 		.4byte	0x12ae
 8885 2316 90000000 		.4byte	.LBB181
 8886 231a 06000000 		.4byte	.LBE181-.LBB181
 8887 231e 01       		.byte	0x1
 8888 231f 1406     		.2byte	0x614
 8889 2321 42230000 		.4byte	0x2342
 8890 2325 36       		.uleb128 0x36
 8891 2326 BB120000 		.4byte	0x12bb
 8892 232a C40B0000 		.4byte	.LLST62
 8893 232e 3A       		.uleb128 0x3a
 8894 232f 96000000 		.4byte	.LVL221
 8895 2333 A8300000 		.4byte	0x30a8
 8896 2337 3B       		.uleb128 0x3b
 8897 2338 01       		.uleb128 0x1
 8898 2339 50       		.byte	0x50
 8899 233a 05       		.uleb128 0x5
 8900 233b 03       		.byte	0x3
ARM GAS  C:\Users\jo\AppData\Local\Temp\ccQTqoh0.s 			page 160


 8901 233c 2C030000 		.4byte	.LC21
 8902 2340 00       		.byte	0
 8903 2341 00       		.byte	0
 8904 2342 43       		.uleb128 0x43
 8905 2343 32000000 		.4byte	.LVL215
 8906 2347 22130000 		.4byte	0x1322
 8907 234b 56230000 		.4byte	0x2356
 8908 234f 3B       		.uleb128 0x3b
 8909 2350 01       		.uleb128 0x1
 8910 2351 50       		.byte	0x50
 8911 2352 02       		.uleb128 0x2
 8912 2353 74       		.byte	0x74
 8913 2354 00       		.sleb128 0
 8914 2355 00       		.byte	0
 8915 2356 43       		.uleb128 0x43
 8916 2357 58000000 		.4byte	.LVL216
 8917 235b CD140000 		.4byte	0x14cd
 8918 235f 87230000 		.4byte	0x2387
 8919 2363 3B       		.uleb128 0x3b
 8920 2364 01       		.uleb128 0x1
 8921 2365 53       		.byte	0x53
 8922 2366 03       		.uleb128 0x3
 8923 2367 0A       		.byte	0xa
 8924 2368 1106     		.2byte	0x611
 8925 236a 3B       		.uleb128 0x3b
 8926 236b 01       		.uleb128 0x1
 8927 236c 52       		.byte	0x52
 8928 236d 05       		.uleb128 0x5
 8929 236e 03       		.byte	0x3
 8930 236f F8020000 		.4byte	.LC19
 8931 2373 3B       		.uleb128 0x3b
 8932 2374 01       		.uleb128 0x1
 8933 2375 51       		.byte	0x51
 8934 2376 05       		.uleb128 0x5
 8935 2377 03       		.byte	0x3
 8936 2378 00000000 		.4byte	.LC0
 8937 237c 3B       		.uleb128 0x3b
 8938 237d 02       		.uleb128 0x2
 8939 237e 7D       		.byte	0x7d
 8940 237f 00       		.sleb128 0
 8941 2380 05       		.uleb128 0x5
 8942 2381 03       		.byte	0x3
 8943 2382 50000000 		.4byte	.LC2
 8944 2386 00       		.byte	0
 8945 2387 43       		.uleb128 0x43
 8946 2388 74000000 		.4byte	.LVL218
 8947 238c CD140000 		.4byte	0x14cd
 8948 2390 B8230000 		.4byte	0x23b8
 8949 2394 3B       		.uleb128 0x3b
 8950 2395 01       		.uleb128 0x1
 8951 2396 53       		.byte	0x53
 8952 2397 03       		.uleb128 0x3
 8953 2398 0A       		.byte	0xa
 8954 2399 1206     		.2byte	0x612
 8955 239b 3B       		.uleb128 0x3b
 8956 239c 01       		.uleb128 0x1
 8957 239d 52       		.byte	0x52
ARM GAS  C:\Users\jo\AppData\Local\Temp\ccQTqoh0.s 			page 161


 8958 239e 05       		.uleb128 0x5
 8959 239f 03       		.byte	0x3
 8960 23a0 10030000 		.4byte	.LC20
 8961 23a4 3B       		.uleb128 0x3b
 8962 23a5 01       		.uleb128 0x1
 8963 23a6 51       		.byte	0x51
 8964 23a7 05       		.uleb128 0x5
 8965 23a8 03       		.byte	0x3
 8966 23a9 00000000 		.4byte	.LC0
 8967 23ad 3B       		.uleb128 0x3b
 8968 23ae 02       		.uleb128 0x2
 8969 23af 7D       		.byte	0x7d
 8970 23b0 00       		.sleb128 0
 8971 23b1 05       		.uleb128 0x5
 8972 23b2 03       		.byte	0x3
 8973 23b3 50000000 		.4byte	.LC2
 8974 23b7 00       		.byte	0
 8975 23b8 43       		.uleb128 0x43
 8976 23b9 90000000 		.4byte	.LVL220
 8977 23bd CD140000 		.4byte	0x14cd
 8978 23c1 E9230000 		.4byte	0x23e9
 8979 23c5 3B       		.uleb128 0x3b
 8980 23c6 01       		.uleb128 0x1
 8981 23c7 53       		.byte	0x53
 8982 23c8 03       		.uleb128 0x3
 8983 23c9 0A       		.byte	0xa
 8984 23ca 1406     		.2byte	0x614
 8985 23cc 3B       		.uleb128 0x3b
 8986 23cd 01       		.uleb128 0x1
 8987 23ce 52       		.byte	0x52
 8988 23cf 05       		.uleb128 0x5
 8989 23d0 03       		.byte	0x3
 8990 23d1 2C030000 		.4byte	.LC21
 8991 23d5 3B       		.uleb128 0x3b
 8992 23d6 01       		.uleb128 0x1
 8993 23d7 51       		.byte	0x51
 8994 23d8 05       		.uleb128 0x5
 8995 23d9 03       		.byte	0x3
 8996 23da 00000000 		.4byte	.LC0
 8997 23de 3B       		.uleb128 0x3b
 8998 23df 02       		.uleb128 0x2
 8999 23e0 7D       		.byte	0x7d
 9000 23e1 00       		.sleb128 0
 9001 23e2 05       		.uleb128 0x5
 9002 23e3 03       		.byte	0x3
 9003 23e4 50000000 		.4byte	.LC2
 9004 23e8 00       		.byte	0
 9005 23e9 3A       		.uleb128 0x3a
 9006 23ea B2000000 		.4byte	.LVL224
 9007 23ee E8300000 		.4byte	0x30e8
 9008 23f2 3B       		.uleb128 0x3b
 9009 23f3 01       		.uleb128 0x1
 9010 23f4 50       		.byte	0x50
 9011 23f5 02       		.uleb128 0x2
 9012 23f6 74       		.byte	0x74
 9013 23f7 00       		.sleb128 0
 9014 23f8 00       		.byte	0
ARM GAS  C:\Users\jo\AppData\Local\Temp\ccQTqoh0.s 			page 162


 9015 23f9 00       		.byte	0
 9016 23fa 0A       		.uleb128 0xa
 9017 23fb 04       		.byte	0x4
 9018 23fc 780B0000 		.4byte	0xb78
 9019 2400 50       		.uleb128 0x50
 9020 2401 19090000 		.4byte	.LASF321
 9021 2405 01       		.byte	0x1
 9022 2406 AA       		.byte	0xaa
 9023 2407 88090000 		.4byte	0x988
 9024 240b 00000000 		.4byte	.LFB262
 9025 240f 8C010000 		.4byte	.LFE262-.LFB262
 9026 2413 01       		.uleb128 0x1
 9027 2414 9C       		.byte	0x9c
 9028 2415 90250000 		.4byte	0x2590
 9029 2419 51       		.uleb128 0x51
 9030 241a 70636200 		.ascii	"pcb\000"
 9031 241e 01       		.byte	0x1
 9032 241f AA       		.byte	0xaa
 9033 2420 780B0000 		.4byte	0xb78
 9034 2424 DC0B0000 		.4byte	.LLST63
 9035 2428 52       		.uleb128 0x52
 9036 2429 DB020000 		.4byte	.LASF322
 9037 242d 01       		.byte	0x1
 9038 242e AA       		.byte	0xaa
 9039 242f BA080000 		.4byte	0x8ba
 9040 2433 8B0C0000 		.4byte	.LLST64
 9041 2437 53       		.uleb128 0x53
 9042 2438 65727200 		.ascii	"err\000"
 9043 243c 01       		.byte	0x1
 9044 243d AC       		.byte	0xac
 9045 243e 88090000 		.4byte	0x988
 9046 2442 DE0C0000 		.4byte	.LLST65
 9047 2446 54       		.uleb128 0x54
 9048 2447 AE120000 		.4byte	0x12ae
 9049 244b F2000000 		.4byte	.LBB183
 9050 244f 0A000000 		.4byte	.LBE183-.LBB183
 9051 2453 01       		.byte	0x1
 9052 2454 B2       		.byte	0xb2
 9053 2455 76240000 		.4byte	0x2476
 9054 2459 36       		.uleb128 0x36
 9055 245a BB120000 		.4byte	0x12bb
 9056 245e 2C0D0000 		.4byte	.LLST66
 9057 2462 3A       		.uleb128 0x3a
 9058 2463 F8000000 		.4byte	.LVL253
 9059 2467 A8300000 		.4byte	0x30a8
 9060 246b 3B       		.uleb128 0x3b
 9061 246c 01       		.uleb128 0x1
 9062 246d 50       		.byte	0x50
 9063 246e 05       		.uleb128 0x5
 9064 246f 03       		.byte	0x3
 9065 2470 44030000 		.4byte	.LC22
 9066 2474 00       		.byte	0
 9067 2475 00       		.byte	0
 9068 2476 43       		.uleb128 0x43
 9069 2477 28000000 		.4byte	.LVL230
 9070 247b 84310000 		.4byte	0x3184
 9071 247f 8A240000 		.4byte	0x248a
ARM GAS  C:\Users\jo\AppData\Local\Temp\ccQTqoh0.s 			page 163


 9072 2483 3B       		.uleb128 0x3b
 9073 2484 01       		.uleb128 0x1
 9074 2485 50       		.byte	0x50
 9075 2486 02       		.uleb128 0x2
 9076 2487 74       		.byte	0x74
 9077 2488 00       		.sleb128 0
 9078 2489 00       		.byte	0
 9079 248a 43       		.uleb128 0x43
 9080 248b 34000000 		.4byte	.LVL232
 9081 248f E8300000 		.4byte	0x30e8
 9082 2493 9E240000 		.4byte	0x249e
 9083 2497 3B       		.uleb128 0x3b
 9084 2498 01       		.uleb128 0x1
 9085 2499 50       		.byte	0x50
 9086 249a 02       		.uleb128 0x2
 9087 249b 74       		.byte	0x74
 9088 249c 00       		.sleb128 0
 9089 249d 00       		.byte	0
 9090 249e 43       		.uleb128 0x43
 9091 249f 42000000 		.4byte	.LVL235
 9092 24a3 84310000 		.4byte	0x3184
 9093 24a7 B2240000 		.4byte	0x24b2
 9094 24ab 3B       		.uleb128 0x3b
 9095 24ac 01       		.uleb128 0x1
 9096 24ad 50       		.byte	0x50
 9097 24ae 02       		.uleb128 0x2
 9098 24af 74       		.byte	0x74
 9099 24b0 00       		.sleb128 0
 9100 24b1 00       		.byte	0
 9101 24b2 43       		.uleb128 0x43
 9102 24b3 6C000000 		.4byte	.LVL239
 9103 24b7 24310000 		.4byte	0x3124
 9104 24bb CC240000 		.4byte	0x24cc
 9105 24bf 3B       		.uleb128 0x3b
 9106 24c0 01       		.uleb128 0x1
 9107 24c1 53       		.byte	0x53
 9108 24c2 02       		.uleb128 0x2
 9109 24c3 74       		.byte	0x74
 9110 24c4 04       		.sleb128 4
 9111 24c5 3B       		.uleb128 0x3b
 9112 24c6 01       		.uleb128 0x1
 9113 24c7 52       		.byte	0x52
 9114 24c8 02       		.uleb128 0x2
 9115 24c9 74       		.byte	0x74
 9116 24ca 00       		.sleb128 0
 9117 24cb 00       		.byte	0
 9118 24cc 43       		.uleb128 0x43
 9119 24cd 72000000 		.4byte	.LVL240
 9120 24d1 22130000 		.4byte	0x1322
 9121 24d5 E0240000 		.4byte	0x24e0
 9122 24d9 3B       		.uleb128 0x3b
 9123 24da 01       		.uleb128 0x1
 9124 24db 50       		.byte	0x50
 9125 24dc 02       		.uleb128 0x2
 9126 24dd 74       		.byte	0x74
 9127 24de 00       		.sleb128 0
 9128 24df 00       		.byte	0
ARM GAS  C:\Users\jo\AppData\Local\Temp\ccQTqoh0.s 			page 164


 9129 24e0 43       		.uleb128 0x43
 9130 24e1 C4000000 		.4byte	.LVL244
 9131 24e5 79220000 		.4byte	0x2279
 9132 24e9 FD240000 		.4byte	0x24fd
 9133 24ed 3B       		.uleb128 0x3b
 9134 24ee 01       		.uleb128 0x1
 9135 24ef 51       		.byte	0x51
 9136 24f0 02       		.uleb128 0x2
 9137 24f1 74       		.byte	0x74
 9138 24f2 00       		.sleb128 0
 9139 24f3 3B       		.uleb128 0x3b
 9140 24f4 01       		.uleb128 0x1
 9141 24f5 50       		.byte	0x50
 9142 24f6 05       		.uleb128 0x5
 9143 24f7 03       		.byte	0x3
 9144 24f8 00000000 		.4byte	.LANCHOR4
 9145 24fc 00       		.byte	0
 9146 24fd 43       		.uleb128 0x43
 9147 24fe CA000000 		.4byte	.LVL245
 9148 2502 D7300000 		.4byte	0x30d7
 9149 2506 11250000 		.4byte	0x2511
 9150 250a 3B       		.uleb128 0x3b
 9151 250b 01       		.uleb128 0x1
 9152 250c 50       		.byte	0x50
 9153 250d 02       		.uleb128 0x2
 9154 250e 74       		.byte	0x74
 9155 250f 00       		.sleb128 0
 9156 2510 00       		.byte	0
 9157 2511 43       		.uleb128 0x43
 9158 2512 D4000000 		.4byte	.LVL248
 9159 2516 79220000 		.4byte	0x2279
 9160 251a 2E250000 		.4byte	0x252e
 9161 251e 3B       		.uleb128 0x3b
 9162 251f 01       		.uleb128 0x1
 9163 2520 51       		.byte	0x51
 9164 2521 02       		.uleb128 0x2
 9165 2522 74       		.byte	0x74
 9166 2523 00       		.sleb128 0
 9167 2524 3B       		.uleb128 0x3b
 9168 2525 01       		.uleb128 0x1
 9169 2526 50       		.byte	0x50
 9170 2527 05       		.uleb128 0x5
 9171 2528 03       		.byte	0x3
 9172 2529 00000000 		.4byte	.LANCHOR7
 9173 252d 00       		.byte	0
 9174 252e 43       		.uleb128 0x43
 9175 252f E0000000 		.4byte	.LVL249
 9176 2533 D7300000 		.4byte	0x30d7
 9177 2537 42250000 		.4byte	0x2542
 9178 253b 3B       		.uleb128 0x3b
 9179 253c 01       		.uleb128 0x1
 9180 253d 50       		.byte	0x50
 9181 253e 02       		.uleb128 0x2
 9182 253f 74       		.byte	0x74
 9183 2540 00       		.sleb128 0
 9184 2541 00       		.byte	0
 9185 2542 43       		.uleb128 0x43
ARM GAS  C:\Users\jo\AppData\Local\Temp\ccQTqoh0.s 			page 165


 9186 2543 F2000000 		.4byte	.LVL252
 9187 2547 CD140000 		.4byte	0x14cd
 9188 254b 72250000 		.4byte	0x2572
 9189 254f 3B       		.uleb128 0x3b
 9190 2550 01       		.uleb128 0x1
 9191 2551 53       		.byte	0x53
 9192 2552 02       		.uleb128 0x2
 9193 2553 08       		.byte	0x8
 9194 2554 B2       		.byte	0xb2
 9195 2555 3B       		.uleb128 0x3b
 9196 2556 01       		.uleb128 0x1
 9197 2557 52       		.byte	0x52
 9198 2558 05       		.uleb128 0x5
 9199 2559 03       		.byte	0x3
 9200 255a 44030000 		.4byte	.LC22
 9201 255e 3B       		.uleb128 0x3b
 9202 255f 01       		.uleb128 0x1
 9203 2560 51       		.byte	0x51
 9204 2561 05       		.uleb128 0x5
 9205 2562 03       		.byte	0x3
 9206 2563 00000000 		.4byte	.LC0
 9207 2567 3B       		.uleb128 0x3b
 9208 2568 02       		.uleb128 0x2
 9209 2569 7D       		.byte	0x7d
 9210 256a 00       		.sleb128 0
 9211 256b 05       		.uleb128 0x5
 9212 256c 03       		.byte	0x3
 9213 256d 50000000 		.4byte	.LC2
 9214 2571 00       		.byte	0
 9215 2572 43       		.uleb128 0x43
 9216 2573 16010000 		.4byte	.LVL255
 9217 2577 D7300000 		.4byte	0x30d7
 9218 257b 86250000 		.4byte	0x2586
 9219 257f 3B       		.uleb128 0x3b
 9220 2580 01       		.uleb128 0x1
 9221 2581 50       		.byte	0x50
 9222 2582 02       		.uleb128 0x2
 9223 2583 74       		.byte	0x74
 9224 2584 00       		.sleb128 0
 9225 2585 00       		.byte	0
 9226 2586 42       		.uleb128 0x42
 9227 2587 32010000 		.4byte	.LVL257
 9228 258b BA300000 		.4byte	0x30ba
 9229 258f 00       		.byte	0
 9230 2590 3D       		.uleb128 0x3d
 9231 2591 0F090000 		.4byte	.LASF323
 9232 2595 01       		.byte	0x1
 9233 2596 1D01     		.2byte	0x11d
 9234 2598 88090000 		.4byte	0x988
 9235 259c 00000000 		.4byte	.LFB263
 9236 25a0 14000000 		.4byte	.LFE263-.LFB263
 9237 25a4 01       		.uleb128 0x1
 9238 25a5 9C       		.byte	0x9c
 9239 25a6 CA250000 		.4byte	0x25ca
 9240 25aa 30       		.uleb128 0x30
 9241 25ab 70636200 		.ascii	"pcb\000"
 9242 25af 01       		.byte	0x1
ARM GAS  C:\Users\jo\AppData\Local\Temp\ccQTqoh0.s 			page 166


 9243 25b0 1D01     		.2byte	0x11d
 9244 25b2 780B0000 		.4byte	0xb78
 9245 25b6 440D0000 		.4byte	.LLST67
 9246 25ba 49       		.uleb128 0x49
 9247 25bb 14000000 		.4byte	.LVL263
 9248 25bf 00240000 		.4byte	0x2400
 9249 25c3 3B       		.uleb128 0x3b
 9250 25c4 01       		.uleb128 0x1
 9251 25c5 51       		.byte	0x51
 9252 25c6 01       		.uleb128 0x1
 9253 25c7 31       		.byte	0x31
 9254 25c8 00       		.byte	0
 9255 25c9 00       		.byte	0
 9256 25ca 35       		.uleb128 0x35
 9257 25cb 3C130000 		.4byte	0x133c
 9258 25cf 00000000 		.4byte	.LFB281
 9259 25d3 24000000 		.4byte	.LFE281-.LFB281
 9260 25d7 01       		.uleb128 0x1
 9261 25d8 9C       		.byte	0x9c
 9262 25d9 63260000 		.4byte	0x2663
 9263 25dd 36       		.uleb128 0x36
 9264 25de 4D130000 		.4byte	0x134d
 9265 25e2 650D0000 		.4byte	.LLST68
 9266 25e6 36       		.uleb128 0x36
 9267 25e7 59130000 		.4byte	0x1359
 9268 25eb B80D0000 		.4byte	.LLST69
 9269 25ef 36       		.uleb128 0x36
 9270 25f0 65130000 		.4byte	0x1365
 9271 25f4 FD0D0000 		.4byte	.LLST70
 9272 25f8 36       		.uleb128 0x36
 9273 25f9 6F130000 		.4byte	0x136f
 9274 25fd 340E0000 		.4byte	.LLST71
 9275 2601 47       		.uleb128 0x47
 9276 2602 78000000 		.4byte	.Ldebug_ranges0+0x78
 9277 2606 3D260000 		.4byte	0x263d
 9278 260a 36       		.uleb128 0x36
 9279 260b 4D130000 		.4byte	0x134d
 9280 260f 6E0E0000 		.4byte	.LLST72
 9281 2613 55       		.uleb128 0x55
 9282 2614 65130000 		.4byte	0x1365
 9283 2618 00       		.byte	0
 9284 2619 36       		.uleb128 0x36
 9285 261a 6F130000 		.4byte	0x136f
 9286 261e A80E0000 		.4byte	.LLST73
 9287 2622 36       		.uleb128 0x36
 9288 2623 59130000 		.4byte	0x1359
 9289 2627 C90E0000 		.4byte	.LLST74
 9290 262b 49       		.uleb128 0x49
 9291 262c 24000000 		.4byte	.LVL273
 9292 2630 90250000 		.4byte	0x2590
 9293 2634 3B       		.uleb128 0x3b
 9294 2635 01       		.uleb128 0x1
 9295 2636 50       		.byte	0x50
 9296 2637 03       		.uleb128 0x3
 9297 2638 F3       		.byte	0xf3
 9298 2639 01       		.uleb128 0x1
 9299 263a 51       		.byte	0x51
ARM GAS  C:\Users\jo\AppData\Local\Temp\ccQTqoh0.s 			page 167


 9300 263b 00       		.byte	0
 9301 263c 00       		.byte	0
 9302 263d 43       		.uleb128 0x43
 9303 263e 0E000000 		.4byte	.LVL267
 9304 2642 C8120000 		.4byte	0x12c8
 9305 2646 52260000 		.4byte	0x2652
 9306 264a 3B       		.uleb128 0x3b
 9307 264b 01       		.uleb128 0x1
 9308 264c 50       		.byte	0x50
 9309 264d 03       		.uleb128 0x3
 9310 264e F3       		.byte	0xf3
 9311 264f 01       		.uleb128 0x1
 9312 2650 51       		.byte	0x51
 9313 2651 00       		.byte	0
 9314 2652 3A       		.uleb128 0x3a
 9315 2653 14000000 		.4byte	.LVL268
 9316 2657 FE300000 		.4byte	0x30fe
 9317 265b 3B       		.uleb128 0x3b
 9318 265c 01       		.uleb128 0x1
 9319 265d 50       		.byte	0x50
 9320 265e 02       		.uleb128 0x2
 9321 265f 74       		.byte	0x74
 9322 2660 00       		.sleb128 0
 9323 2661 00       		.byte	0
 9324 2662 00       		.byte	0
 9325 2663 35       		.uleb128 0x35
 9326 2664 7C130000 		.4byte	0x137c
 9327 2668 00000000 		.4byte	.LFB276
 9328 266c 68000000 		.4byte	.LFE276-.LFB276
 9329 2670 01       		.uleb128 0x1
 9330 2671 9C       		.byte	0x9c
 9331 2672 1E270000 		.4byte	0x271e
 9332 2676 36       		.uleb128 0x36
 9333 2677 8D130000 		.4byte	0x138d
 9334 267b EA0E0000 		.4byte	.LLST75
 9335 267f 46       		.uleb128 0x46
 9336 2680 99130000 		.4byte	0x1399
 9337 2684 1E0F0000 		.4byte	.LLST76
 9338 2688 38       		.uleb128 0x38
 9339 2689 A5130000 		.4byte	0x13a5
 9340 268d 01       		.uleb128 0x1
 9341 268e 57       		.byte	0x57
 9342 268f 46       		.uleb128 0x46
 9343 2690 B1130000 		.4byte	0x13b1
 9344 2694 540F0000 		.4byte	.LLST77
 9345 2698 47       		.uleb128 0x47
 9346 2699 90000000 		.4byte	.Ldebug_ranges0+0x90
 9347 269d DD260000 		.4byte	0x26dd
 9348 26a1 36       		.uleb128 0x36
 9349 26a2 8D130000 		.4byte	0x138d
 9350 26a6 7D0F0000 		.4byte	.LLST78
 9351 26aa 44       		.uleb128 0x44
 9352 26ab 90000000 		.4byte	.Ldebug_ranges0+0x90
 9353 26af 46       		.uleb128 0x46
 9354 26b0 99130000 		.4byte	0x1399
 9355 26b4 900F0000 		.4byte	.LLST79
 9356 26b8 48       		.uleb128 0x48
ARM GAS  C:\Users\jo\AppData\Local\Temp\ccQTqoh0.s 			page 168


 9357 26b9 A5130000 		.4byte	0x13a5
 9358 26bd 48       		.uleb128 0x48
 9359 26be B1130000 		.4byte	0x13b1
 9360 26c2 56       		.uleb128 0x56
 9361 26c3 3E000000 		.4byte	.LVL281
 9362 26c7 02       		.uleb128 0x2
 9363 26c8 75       		.byte	0x75
 9364 26c9 00       		.sleb128 0
 9365 26ca 3B       		.uleb128 0x3b
 9366 26cb 01       		.uleb128 0x1
 9367 26cc 53       		.byte	0x53
 9368 26cd 01       		.uleb128 0x1
 9369 26ce 30       		.byte	0x30
 9370 26cf 3B       		.uleb128 0x3b
 9371 26d0 01       		.uleb128 0x1
 9372 26d1 52       		.byte	0x52
 9373 26d2 01       		.uleb128 0x1
 9374 26d3 30       		.byte	0x30
 9375 26d4 3B       		.uleb128 0x3b
 9376 26d5 01       		.uleb128 0x1
 9377 26d6 51       		.byte	0x51
 9378 26d7 02       		.uleb128 0x2
 9379 26d8 74       		.byte	0x74
 9380 26d9 00       		.sleb128 0
 9381 26da 00       		.byte	0
 9382 26db 00       		.byte	0
 9383 26dc 00       		.byte	0
 9384 26dd 4E       		.uleb128 0x4e
 9385 26de 1A000000 		.4byte	.LVL277
 9386 26e2 02       		.uleb128 0x2
 9387 26e3 76       		.byte	0x76
 9388 26e4 00       		.sleb128 0
 9389 26e5 FB260000 		.4byte	0x26fb
 9390 26e9 3B       		.uleb128 0x3b
 9391 26ea 01       		.uleb128 0x1
 9392 26eb 53       		.byte	0x53
 9393 26ec 01       		.uleb128 0x1
 9394 26ed 30       		.byte	0x30
 9395 26ee 3B       		.uleb128 0x3b
 9396 26ef 01       		.uleb128 0x1
 9397 26f0 52       		.byte	0x52
 9398 26f1 02       		.uleb128 0x2
 9399 26f2 75       		.byte	0x75
 9400 26f3 00       		.sleb128 0
 9401 26f4 3B       		.uleb128 0x3b
 9402 26f5 01       		.uleb128 0x1
 9403 26f6 51       		.byte	0x51
 9404 26f7 02       		.uleb128 0x2
 9405 26f8 74       		.byte	0x74
 9406 26f9 00       		.sleb128 0
 9407 26fa 00       		.byte	0
 9408 26fb 3A       		.uleb128 0x3a
 9409 26fc 62000000 		.4byte	.LVL289
 9410 2700 3C130000 		.4byte	0x133c
 9411 2704 3B       		.uleb128 0x3b
 9412 2705 01       		.uleb128 0x1
 9413 2706 53       		.byte	0x53
ARM GAS  C:\Users\jo\AppData\Local\Temp\ccQTqoh0.s 			page 169


 9414 2707 02       		.uleb128 0x2
 9415 2708 76       		.byte	0x76
 9416 2709 00       		.sleb128 0
 9417 270a 3B       		.uleb128 0x3b
 9418 270b 01       		.uleb128 0x1
 9419 270c 52       		.byte	0x52
 9420 270d 02       		.uleb128 0x2
 9421 270e 75       		.byte	0x75
 9422 270f 00       		.sleb128 0
 9423 2710 3B       		.uleb128 0x3b
 9424 2711 01       		.uleb128 0x1
 9425 2712 51       		.byte	0x51
 9426 2713 02       		.uleb128 0x2
 9427 2714 74       		.byte	0x74
 9428 2715 00       		.sleb128 0
 9429 2716 3B       		.uleb128 0x3b
 9430 2717 01       		.uleb128 0x1
 9431 2718 50       		.byte	0x50
 9432 2719 02       		.uleb128 0x2
 9433 271a 76       		.byte	0x76
 9434 271b 00       		.sleb128 0
 9435 271c 00       		.byte	0
 9436 271d 00       		.byte	0
 9437 271e 4A       		.uleb128 0x4a
 9438 271f 80080000 		.4byte	.LASF324
 9439 2723 01       		.byte	0x1
 9440 2724 1604     		.2byte	0x416
 9441 2726 00000000 		.4byte	.LFB275
 9442 272a 70000000 		.4byte	.LFE275-.LFB275
 9443 272e 01       		.uleb128 0x1
 9444 272f 9C       		.byte	0x9c
 9445 2730 7C270000 		.4byte	0x277c
 9446 2734 29       		.uleb128 0x29
 9447 2735 70636200 		.ascii	"pcb\000"
 9448 2739 01       		.byte	0x1
 9449 273a 1804     		.2byte	0x418
 9450 273c 780B0000 		.4byte	0xb78
 9451 2740 34       		.uleb128 0x34
 9452 2741 7F0F0000 		.4byte	.LASF326
 9453 2745 01       		.byte	0x1
 9454 2746 1C04     		.2byte	0x41c
 9455 2748 14000000 		.4byte	.L424
 9456 274c 44       		.uleb128 0x44
 9457 274d A8000000 		.4byte	.Ldebug_ranges0+0xa8
 9458 2751 40       		.uleb128 0x40
 9459 2752 4C010000 		.4byte	.LASF158
 9460 2756 01       		.byte	0x1
 9461 2757 2104     		.2byte	0x421
 9462 2759 780B0000 		.4byte	0xb78
 9463 275d A30F0000 		.4byte	.LLST80
 9464 2761 42       		.uleb128 0x42
 9465 2762 44000000 		.4byte	.LVL293
 9466 2766 7C130000 		.4byte	0x137c
 9467 276a 3A       		.uleb128 0x3a
 9468 276b 5A000000 		.4byte	.LVL295
 9469 276f E8300000 		.4byte	0x30e8
 9470 2773 3B       		.uleb128 0x3b
ARM GAS  C:\Users\jo\AppData\Local\Temp\ccQTqoh0.s 			page 170


 9471 2774 01       		.uleb128 0x1
 9472 2775 50       		.byte	0x50
 9473 2776 02       		.uleb128 0x2
 9474 2777 74       		.byte	0x74
 9475 2778 00       		.sleb128 0
 9476 2779 00       		.byte	0
 9477 277a 00       		.byte	0
 9478 277b 00       		.byte	0
 9479 277c 57       		.uleb128 0x57
 9480 277d 060D0000 		.4byte	.LASF327
 9481 2781 01       		.byte	0x1
 9482 2782 8D       		.byte	0x8d
 9483 2783 00000000 		.4byte	.LFB261
 9484 2787 24000000 		.4byte	.LFE261-.LFB261
 9485 278b 01       		.uleb128 0x1
 9486 278c 9C       		.byte	0x9c
 9487 278d A4270000 		.4byte	0x27a4
 9488 2791 42       		.uleb128 0x42
 9489 2792 06000000 		.4byte	.LVL296
 9490 2796 1E270000 		.4byte	0x271e
 9491 279a 58       		.uleb128 0x58
 9492 279b 1E000000 		.4byte	.LVL297
 9493 279f 991D0000 		.4byte	0x1d99
 9494 27a3 00       		.byte	0
 9495 27a4 3D       		.uleb128 0x3d
 9496 27a5 A4040000 		.4byte	.LASF328
 9497 27a9 01       		.byte	0x1
 9498 27aa 3901     		.2byte	0x139
 9499 27ac 88090000 		.4byte	0x988
 9500 27b0 00000000 		.4byte	.LFB264
 9501 27b4 56000000 		.4byte	.LFE264-.LFB264
 9502 27b8 01       		.uleb128 0x1
 9503 27b9 9C       		.byte	0x9c
 9504 27ba 10280000 		.4byte	0x2810
 9505 27be 30       		.uleb128 0x30
 9506 27bf 70636200 		.ascii	"pcb\000"
 9507 27c3 01       		.byte	0x1
 9508 27c4 3901     		.2byte	0x139
 9509 27c6 780B0000 		.4byte	0xb78
 9510 27ca B60F0000 		.4byte	.LLST81
 9511 27ce 3E       		.uleb128 0x3e
 9512 27cf A2100000 		.4byte	.LASF329
 9513 27d3 01       		.byte	0x1
 9514 27d4 3901     		.2byte	0x139
 9515 27d6 25000000 		.4byte	0x25
 9516 27da 1C100000 		.4byte	.LLST82
 9517 27de 3E       		.uleb128 0x3e
 9518 27df E7010000 		.4byte	.LASF330
 9519 27e3 01       		.byte	0x1
 9520 27e4 3901     		.2byte	0x139
 9521 27e6 25000000 		.4byte	0x25
 9522 27ea 7A100000 		.4byte	.LLST83
 9523 27ee 42       		.uleb128 0x42
 9524 27ef 20000000 		.4byte	.LVL300
 9525 27f3 FE300000 		.4byte	0x30fe
 9526 27f7 58       		.uleb128 0x58
 9527 27f8 48000000 		.4byte	.LVL304
ARM GAS  C:\Users\jo\AppData\Local\Temp\ccQTqoh0.s 			page 171


 9528 27fc 00240000 		.4byte	0x2400
 9529 2800 49       		.uleb128 0x49
 9530 2801 52000000 		.4byte	.LVL306
 9531 2805 00240000 		.4byte	0x2400
 9532 2809 3B       		.uleb128 0x3b
 9533 280a 01       		.uleb128 0x1
 9534 280b 51       		.byte	0x51
 9535 280c 01       		.uleb128 0x1
 9536 280d 31       		.byte	0x31
 9537 280e 00       		.byte	0
 9538 280f 00       		.byte	0
 9539 2810 4A       		.uleb128 0x4a
 9540 2811 3B100000 		.4byte	.LASF331
 9541 2815 01       		.byte	0x1
 9542 2816 6501     		.2byte	0x165
 9543 2818 00000000 		.4byte	.LFB265
 9544 281c F0000000 		.4byte	.LFE265-.LFB265
 9545 2820 01       		.uleb128 0x1
 9546 2821 9C       		.byte	0x9c
 9547 2822 432A0000 		.4byte	0x2a43
 9548 2826 30       		.uleb128 0x30
 9549 2827 70636200 		.ascii	"pcb\000"
 9550 282b 01       		.byte	0x1
 9551 282c 6501     		.2byte	0x165
 9552 282e 780B0000 		.4byte	0xb78
 9553 2832 D8100000 		.4byte	.LLST84
 9554 2836 3E       		.uleb128 0x3e
 9555 2837 D40C0000 		.4byte	.LASF332
 9556 283b 01       		.byte	0x1
 9557 283c 6501     		.2byte	0x165
 9558 283e 25000000 		.4byte	0x25
 9559 2842 3E110000 		.4byte	.LLST85
 9560 2846 40       		.uleb128 0x40
 9561 2847 32030000 		.4byte	.LASF245
 9562 284b 01       		.byte	0x1
 9563 284c 6701     		.2byte	0x167
 9564 284e E6080000 		.4byte	0x8e6
 9565 2852 99110000 		.4byte	.LLST86
 9566 2856 40       		.uleb128 0x40
 9567 2857 02080000 		.4byte	.LASF246
 9568 285b 01       		.byte	0x1
 9569 285c 6701     		.2byte	0x167
 9570 285e E6080000 		.4byte	0x8e6
 9571 2862 B7110000 		.4byte	.LLST87
 9572 2866 40       		.uleb128 0x40
 9573 2867 880A0000 		.4byte	.LASF218
 9574 286b 01       		.byte	0x1
 9575 286c 6901     		.2byte	0x169
 9576 286e AE0E0000 		.4byte	0xeae
 9577 2872 D5110000 		.4byte	.LLST88
 9578 2876 40       		.uleb128 0x40
 9579 2877 25010000 		.4byte	.LASF333
 9580 287b 01       		.byte	0x1
 9581 287c 6B01     		.2byte	0x16b
 9582 287e 64030000 		.4byte	0x364
 9583 2882 FE110000 		.4byte	.LLST89
 9584 2886 41       		.uleb128 0x41
ARM GAS  C:\Users\jo\AppData\Local\Temp\ccQTqoh0.s 			page 172


 9585 2887 FA120000 		.4byte	0x12fa
 9586 288b 34000000 		.4byte	.LBB200
 9587 288f 0E000000 		.4byte	.LBE200-.LBB200
 9588 2893 01       		.byte	0x1
 9589 2894 7F01     		.2byte	0x17f
 9590 2896 C0280000 		.4byte	0x28c0
 9591 289a 36       		.uleb128 0x36
 9592 289b 07130000 		.4byte	0x1307
 9593 289f 27120000 		.4byte	.LLST90
 9594 28a3 4B       		.uleb128 0x4b
 9595 28a4 34000000 		.4byte	.LBB202
 9596 28a8 08000000 		.4byte	.LBE202-.LBB202
 9597 28ac 46       		.uleb128 0x46
 9598 28ad 14130000 		.4byte	0x1314
 9599 28b1 45120000 		.4byte	.LLST91
 9600 28b5 42       		.uleb128 0x42
 9601 28b6 3C000000 		.4byte	.LVL317
 9602 28ba E2180000 		.4byte	0x18e2
 9603 28be 00       		.byte	0
 9604 28bf 00       		.byte	0
 9605 28c0 41       		.uleb128 0x41
 9606 28c1 FA120000 		.4byte	0x12fa
 9607 28c5 46000000 		.4byte	.LBB203
 9608 28c9 0E000000 		.4byte	.LBE203-.LBB203
 9609 28cd 01       		.byte	0x1
 9610 28ce 8201     		.2byte	0x182
 9611 28d0 FA280000 		.4byte	0x28fa
 9612 28d4 36       		.uleb128 0x36
 9613 28d5 07130000 		.4byte	0x1307
 9614 28d9 58120000 		.4byte	.LLST92
 9615 28dd 4B       		.uleb128 0x4b
 9616 28de 46000000 		.4byte	.LBB205
 9617 28e2 08000000 		.4byte	.LBE205-.LBB205
 9618 28e6 46       		.uleb128 0x46
 9619 28e7 14130000 		.4byte	0x1314
 9620 28eb 76120000 		.4byte	.LLST93
 9621 28ef 42       		.uleb128 0x42
 9622 28f0 4E000000 		.4byte	.LVL321
 9623 28f4 E2180000 		.4byte	0x18e2
 9624 28f8 00       		.byte	0
 9625 28f9 00       		.byte	0
 9626 28fa 41       		.uleb128 0x41
 9627 28fb FA120000 		.4byte	0x12fa
 9628 28ff 58000000 		.4byte	.LBB206
 9629 2903 0E000000 		.4byte	.LBE206-.LBB206
 9630 2907 01       		.byte	0x1
 9631 2908 8601     		.2byte	0x186
 9632 290a 34290000 		.4byte	0x2934
 9633 290e 36       		.uleb128 0x36
 9634 290f 07130000 		.4byte	0x1307
 9635 2913 89120000 		.4byte	.LLST94
 9636 2917 4B       		.uleb128 0x4b
 9637 2918 58000000 		.4byte	.LBB208
 9638 291c 08000000 		.4byte	.LBE208-.LBB208
 9639 2920 46       		.uleb128 0x46
 9640 2921 14130000 		.4byte	0x1314
 9641 2925 A7120000 		.4byte	.LLST95
ARM GAS  C:\Users\jo\AppData\Local\Temp\ccQTqoh0.s 			page 173


 9642 2929 42       		.uleb128 0x42
 9643 292a 60000000 		.4byte	.LVL325
 9644 292e E2180000 		.4byte	0x18e2
 9645 2932 00       		.byte	0
 9646 2933 00       		.byte	0
 9647 2934 41       		.uleb128 0x41
 9648 2935 AE120000 		.4byte	0x12ae
 9649 2939 CA000000 		.4byte	.LBB209
 9650 293d 26000000 		.4byte	.LBE209-.LBB209
 9651 2941 01       		.byte	0x1
 9652 2942 6E01     		.2byte	0x16e
 9653 2944 68290000 		.4byte	0x2968
 9654 2948 37       		.uleb128 0x37
 9655 2949 BB120000 		.4byte	0x12bb
 9656 294d 06       		.uleb128 0x6
 9657 294e 03       		.byte	0x3
 9658 294f 60030000 		.4byte	.LC23
 9659 2953 9F       		.byte	0x9f
 9660 2954 3A       		.uleb128 0x3a
 9661 2955 D0000000 		.4byte	.LVL339
 9662 2959 A8300000 		.4byte	0x30a8
 9663 295d 3B       		.uleb128 0x3b
 9664 295e 01       		.uleb128 0x1
 9665 295f 50       		.byte	0x50
 9666 2960 05       		.uleb128 0x5
 9667 2961 03       		.byte	0x3
 9668 2962 60030000 		.4byte	.LC23
 9669 2966 00       		.byte	0
 9670 2967 00       		.byte	0
 9671 2968 43       		.uleb128 0x43
 9672 2969 2A000000 		.4byte	.LVL314
 9673 296d 79220000 		.4byte	0x2279
 9674 2971 85290000 		.4byte	0x2985
 9675 2975 3B       		.uleb128 0x3b
 9676 2976 01       		.uleb128 0x1
 9677 2977 51       		.byte	0x51
 9678 2978 02       		.uleb128 0x2
 9679 2979 74       		.byte	0x74
 9680 297a 00       		.sleb128 0
 9681 297b 3B       		.uleb128 0x3b
 9682 297c 01       		.uleb128 0x1
 9683 297d 50       		.byte	0x50
 9684 297e 05       		.uleb128 0x5
 9685 297f 03       		.byte	0x3
 9686 2980 00000000 		.4byte	.LANCHOR7
 9687 2984 00       		.byte	0
 9688 2985 43       		.uleb128 0x43
 9689 2986 6E000000 		.4byte	.LVL327
 9690 298a D7300000 		.4byte	0x30d7
 9691 298e 99290000 		.4byte	0x2999
 9692 2992 3B       		.uleb128 0x3b
 9693 2993 01       		.uleb128 0x1
 9694 2994 50       		.byte	0x50
 9695 2995 02       		.uleb128 0x2
 9696 2996 74       		.byte	0x74
 9697 2997 00       		.sleb128 0
 9698 2998 00       		.byte	0
ARM GAS  C:\Users\jo\AppData\Local\Temp\ccQTqoh0.s 			page 174


 9699 2999 59       		.uleb128 0x59
 9700 299a 80000000 		.4byte	.LVL329
 9701 299e A9290000 		.4byte	0x29a9
 9702 29a2 3B       		.uleb128 0x3b
 9703 29a3 01       		.uleb128 0x1
 9704 29a4 51       		.byte	0x51
 9705 29a5 02       		.uleb128 0x2
 9706 29a6 09       		.byte	0x9
 9707 29a7 F6       		.byte	0xf6
 9708 29a8 00       		.byte	0
 9709 29a9 43       		.uleb128 0x43
 9710 29aa 94000000 		.4byte	.LVL330
 9711 29ae 24310000 		.4byte	0x3124
 9712 29b2 CF290000 		.4byte	0x29cf
 9713 29b6 3B       		.uleb128 0x3b
 9714 29b7 01       		.uleb128 0x1
 9715 29b8 53       		.byte	0x53
 9716 29b9 02       		.uleb128 0x2
 9717 29ba 74       		.byte	0x74
 9718 29bb 04       		.sleb128 4
 9719 29bc 3B       		.uleb128 0x3b
 9720 29bd 01       		.uleb128 0x1
 9721 29be 52       		.byte	0x52
 9722 29bf 02       		.uleb128 0x2
 9723 29c0 74       		.byte	0x74
 9724 29c1 00       		.sleb128 0
 9725 29c2 3B       		.uleb128 0x3b
 9726 29c3 01       		.uleb128 0x1
 9727 29c4 51       		.byte	0x51
 9728 29c5 02       		.uleb128 0x2
 9729 29c6 78       		.byte	0x78
 9730 29c7 00       		.sleb128 0
 9731 29c8 3B       		.uleb128 0x3b
 9732 29c9 01       		.uleb128 0x1
 9733 29ca 50       		.byte	0x50
 9734 29cb 02       		.uleb128 0x2
 9735 29cc 79       		.byte	0x79
 9736 29cd 00       		.sleb128 0
 9737 29ce 00       		.byte	0
 9738 29cf 43       		.uleb128 0x43
 9739 29d0 9A000000 		.4byte	.LVL331
 9740 29d4 D7300000 		.4byte	0x30d7
 9741 29d8 E3290000 		.4byte	0x29e3
 9742 29dc 3B       		.uleb128 0x3b
 9743 29dd 01       		.uleb128 0x1
 9744 29de 50       		.byte	0x50
 9745 29df 02       		.uleb128 0x2
 9746 29e0 74       		.byte	0x74
 9747 29e1 00       		.sleb128 0
 9748 29e2 00       		.byte	0
 9749 29e3 43       		.uleb128 0x43
 9750 29e4 AC000000 		.4byte	.LVL333
 9751 29e8 79220000 		.4byte	0x2279
 9752 29ec 002A0000 		.4byte	0x2a00
 9753 29f0 3B       		.uleb128 0x3b
 9754 29f1 01       		.uleb128 0x1
 9755 29f2 51       		.byte	0x51
ARM GAS  C:\Users\jo\AppData\Local\Temp\ccQTqoh0.s 			page 175


 9756 29f3 02       		.uleb128 0x2
 9757 29f4 74       		.byte	0x74
 9758 29f5 00       		.sleb128 0
 9759 29f6 3B       		.uleb128 0x3b
 9760 29f7 01       		.uleb128 0x1
 9761 29f8 50       		.byte	0x50
 9762 29f9 05       		.uleb128 0x5
 9763 29fa 03       		.byte	0x3
 9764 29fb 00000000 		.4byte	.LANCHOR8
 9765 29ff 00       		.byte	0
 9766 2a00 5A       		.uleb128 0x5a
 9767 2a01 B8000000 		.4byte	.LVL335
 9768 2a05 D7300000 		.4byte	0x30d7
 9769 2a09 152A0000 		.4byte	0x2a15
 9770 2a0d 3B       		.uleb128 0x3b
 9771 2a0e 01       		.uleb128 0x1
 9772 2a0f 50       		.byte	0x50
 9773 2a10 03       		.uleb128 0x3
 9774 2a11 F3       		.byte	0xf3
 9775 2a12 01       		.uleb128 0x1
 9776 2a13 50       		.byte	0x50
 9777 2a14 00       		.byte	0
 9778 2a15 3A       		.uleb128 0x3a
 9779 2a16 CA000000 		.4byte	.LVL338
 9780 2a1a CD140000 		.4byte	0x14cd
 9781 2a1e 3B       		.uleb128 0x3b
 9782 2a1f 01       		.uleb128 0x1
 9783 2a20 53       		.byte	0x53
 9784 2a21 03       		.uleb128 0x3
 9785 2a22 0A       		.byte	0xa
 9786 2a23 6F01     		.2byte	0x16f
 9787 2a25 3B       		.uleb128 0x3b
 9788 2a26 01       		.uleb128 0x1
 9789 2a27 52       		.byte	0x52
 9790 2a28 05       		.uleb128 0x5
 9791 2a29 03       		.byte	0x3
 9792 2a2a 60030000 		.4byte	.LC23
 9793 2a2e 3B       		.uleb128 0x3b
 9794 2a2f 01       		.uleb128 0x1
 9795 2a30 51       		.byte	0x51
 9796 2a31 05       		.uleb128 0x5
 9797 2a32 03       		.byte	0x3
 9798 2a33 00000000 		.4byte	.LC0
 9799 2a37 3B       		.uleb128 0x3b
 9800 2a38 02       		.uleb128 0x2
 9801 2a39 7D       		.byte	0x7d
 9802 2a3a 00       		.sleb128 0
 9803 2a3b 05       		.uleb128 0x5
 9804 2a3c 03       		.byte	0x3
 9805 2a3d 50000000 		.4byte	.LC2
 9806 2a41 00       		.byte	0
 9807 2a42 00       		.byte	0
 9808 2a43 35       		.uleb128 0x35
 9809 2a44 BE130000 		.4byte	0x13be
 9810 2a48 00000000 		.4byte	.LFB266
 9811 2a4c 06000000 		.4byte	.LFE266-.LFB266
 9812 2a50 01       		.uleb128 0x1
ARM GAS  C:\Users\jo\AppData\Local\Temp\ccQTqoh0.s 			page 176


 9813 2a51 9C       		.byte	0x9c
 9814 2a52 762A0000 		.4byte	0x2a76
 9815 2a56 36       		.uleb128 0x36
 9816 2a57 CB130000 		.4byte	0x13cb
 9817 2a5b BA120000 		.4byte	.LLST96
 9818 2a5f 49       		.uleb128 0x49
 9819 2a60 06000000 		.4byte	.LVL341
 9820 2a64 10280000 		.4byte	0x2810
 9821 2a68 3B       		.uleb128 0x3b
 9822 2a69 01       		.uleb128 0x1
 9823 2a6a 51       		.byte	0x51
 9824 2a6b 01       		.uleb128 0x1
 9825 2a6c 31       		.byte	0x31
 9826 2a6d 3B       		.uleb128 0x3b
 9827 2a6e 01       		.uleb128 0x1
 9828 2a6f 50       		.byte	0x50
 9829 2a70 03       		.uleb128 0x3
 9830 2a71 F3       		.byte	0xf3
 9831 2a72 01       		.uleb128 0x1
 9832 2a73 50       		.byte	0x50
 9833 2a74 00       		.byte	0
 9834 2a75 00       		.byte	0
 9835 2a76 22       		.uleb128 0x22
 9836 2a77 3A080000 		.4byte	.LASF335
 9837 2a7b 01       		.byte	0x1
 9838 2a7c E204     		.2byte	0x4e2
 9839 2a7e 01       		.byte	0x1
 9840 2a7f A82A0000 		.4byte	0x2aa8
 9841 2a83 29       		.uleb128 0x29
 9842 2a84 70636200 		.ascii	"pcb\000"
 9843 2a88 01       		.byte	0x1
 9844 2a89 E404     		.2byte	0x4e4
 9845 2a8b 780B0000 		.4byte	0xb78
 9846 2a8f 26       		.uleb128 0x26
 9847 2a90 BF070000 		.4byte	.LASF336
 9848 2a94 01       		.byte	0x1
 9849 2a95 E404     		.2byte	0x4e4
 9850 2a97 780B0000 		.4byte	0xb78
 9851 2a9b 26       		.uleb128 0x26
 9852 2a9c 73040000 		.4byte	.LASF337
 9853 2aa0 01       		.byte	0x1
 9854 2aa1 E504     		.2byte	0x4e5
 9855 2aa3 E6080000 		.4byte	0x8e6
 9856 2aa7 00       		.byte	0
 9857 2aa8 22       		.uleb128 0x22
 9858 2aa9 E80A0000 		.4byte	.LASF338
 9859 2aad 01       		.byte	0x1
 9860 2aae C104     		.2byte	0x4c1
 9861 2ab0 01       		.byte	0x1
 9862 2ab1 F22A0000 		.4byte	0x2af2
 9863 2ab5 23       		.uleb128 0x23
 9864 2ab6 44060000 		.4byte	.LASF182
 9865 2aba 01       		.byte	0x1
 9866 2abb C104     		.2byte	0x4c1
 9867 2abd BA080000 		.4byte	0x8ba
 9868 2ac1 29       		.uleb128 0x29
 9869 2ac2 70636200 		.ascii	"pcb\000"
ARM GAS  C:\Users\jo\AppData\Local\Temp\ccQTqoh0.s 			page 177


 9870 2ac6 01       		.byte	0x1
 9871 2ac7 C304     		.2byte	0x4c3
 9872 2ac9 780B0000 		.4byte	0xb78
 9873 2acd 26       		.uleb128 0x26
 9874 2ace BF070000 		.4byte	.LASF336
 9875 2ad2 01       		.byte	0x1
 9876 2ad3 C304     		.2byte	0x4c3
 9877 2ad5 780B0000 		.4byte	0xb78
 9878 2ad9 26       		.uleb128 0x26
 9879 2ada 73040000 		.4byte	.LASF337
 9880 2ade 01       		.byte	0x1
 9881 2adf C404     		.2byte	0x4c4
 9882 2ae1 E6080000 		.4byte	0x8e6
 9883 2ae5 26       		.uleb128 0x26
 9884 2ae6 C30D0000 		.4byte	.LASF339
 9885 2aea 01       		.byte	0x1
 9886 2aeb C504     		.2byte	0x4c5
 9887 2aed BA080000 		.4byte	0x8ba
 9888 2af1 00       		.byte	0
 9889 2af2 3D       		.uleb128 0x3d
 9890 2af3 88100000 		.4byte	.LASF340
 9891 2af7 01       		.byte	0x1
 9892 2af8 FE04     		.2byte	0x4fe
 9893 2afa 780B0000 		.4byte	0xb78
 9894 2afe 00000000 		.4byte	.LFB284
 9895 2b02 54010000 		.4byte	.LFE284-.LFB284
 9896 2b06 01       		.uleb128 0x1
 9897 2b07 9C       		.byte	0x9c
 9898 2b08 8C2C0000 		.4byte	0x2c8c
 9899 2b0c 3E       		.uleb128 0x3e
 9900 2b0d 44060000 		.4byte	.LASF182
 9901 2b11 01       		.byte	0x1
 9902 2b12 FE04     		.2byte	0x4fe
 9903 2b14 BA080000 		.4byte	0x8ba
 9904 2b18 DB120000 		.4byte	.LLST97
 9905 2b1c 32       		.uleb128 0x32
 9906 2b1d 70636200 		.ascii	"pcb\000"
 9907 2b21 01       		.byte	0x1
 9908 2b22 0005     		.2byte	0x500
 9909 2b24 780B0000 		.4byte	0xb78
 9910 2b28 FC120000 		.4byte	.LLST98
 9911 2b2c 29       		.uleb128 0x29
 9912 2b2d 69737300 		.ascii	"iss\000"
 9913 2b31 01       		.byte	0x1
 9914 2b32 0105     		.2byte	0x501
 9915 2b34 E6080000 		.4byte	0x8e6
 9916 2b38 5B       		.uleb128 0x5b
 9917 2b39 D8130000 		.4byte	0x13d8
 9918 2b3d 20000000 		.4byte	.LBB221
 9919 2b41 C8000000 		.4byte	.Ldebug_ranges0+0xc8
 9920 2b45 01       		.byte	0x1
 9921 2b46 2B05     		.2byte	0x52b
 9922 2b48 5E2B0000 		.4byte	0x2b5e
 9923 2b4c 44       		.uleb128 0x44
 9924 2b4d C8000000 		.4byte	.Ldebug_ranges0+0xc8
 9925 2b51 38       		.uleb128 0x38
 9926 2b52 E9130000 		.4byte	0x13e9
ARM GAS  C:\Users\jo\AppData\Local\Temp\ccQTqoh0.s 			page 178


 9927 2b56 05       		.uleb128 0x5
 9928 2b57 03       		.byte	0x3
 9929 2b58 00000000 		.4byte	iss.9034
 9930 2b5c 00       		.byte	0
 9931 2b5d 00       		.byte	0
 9932 2b5e 41       		.uleb128 0x41
 9933 2b5f 762A0000 		.4byte	0x2a76
 9934 2b63 9E000000 		.4byte	.LBB229
 9935 2b67 2A000000 		.4byte	.LBE229-.LBB229
 9936 2b6b 01       		.byte	0x1
 9937 2b6c 0705     		.2byte	0x507
 9938 2b6e C12B0000 		.4byte	0x2bc1
 9939 2b72 4B       		.uleb128 0x4b
 9940 2b73 9E000000 		.4byte	.LBB230
 9941 2b77 2A000000 		.4byte	.LBE230-.LBB230
 9942 2b7b 46       		.uleb128 0x46
 9943 2b7c 832A0000 		.4byte	0x2a83
 9944 2b80 46130000 		.4byte	.LLST99
 9945 2b84 46       		.uleb128 0x46
 9946 2b85 8F2A0000 		.4byte	0x2a8f
 9947 2b89 64130000 		.4byte	.LLST100
 9948 2b8d 46       		.uleb128 0x46
 9949 2b8e 9B2A0000 		.4byte	0x2a9b
 9950 2b92 78130000 		.4byte	.LLST101
 9951 2b96 5C       		.uleb128 0x5c
 9952 2b97 BE130000 		.4byte	0x13be
 9953 2b9b C2000000 		.4byte	.LBB231
 9954 2b9f 06000000 		.4byte	.LBE231-.LBB231
 9955 2ba3 01       		.byte	0x1
 9956 2ba4 F304     		.2byte	0x4f3
 9957 2ba6 36       		.uleb128 0x36
 9958 2ba7 CB130000 		.4byte	0x13cb
 9959 2bab A2130000 		.4byte	.LLST102
 9960 2baf 3A       		.uleb128 0x3a
 9961 2bb0 C8000000 		.4byte	.LVL355
 9962 2bb4 10280000 		.4byte	0x2810
 9963 2bb8 3B       		.uleb128 0x3b
 9964 2bb9 01       		.uleb128 0x1
 9965 2bba 51       		.byte	0x51
 9966 2bbb 01       		.uleb128 0x1
 9967 2bbc 31       		.byte	0x31
 9968 2bbd 00       		.byte	0
 9969 2bbe 00       		.byte	0
 9970 2bbf 00       		.byte	0
 9971 2bc0 00       		.byte	0
 9972 2bc1 41       		.uleb128 0x41
 9973 2bc2 A82A0000 		.4byte	0x2aa8
 9974 2bc6 E0000000 		.4byte	.LBB233
 9975 2bca 36000000 		.4byte	.LBE233-.LBB233
 9976 2bce 01       		.byte	0x1
 9977 2bcf 0D05     		.2byte	0x50d
 9978 2bd1 342C0000 		.4byte	0x2c34
 9979 2bd5 37       		.uleb128 0x37
 9980 2bd6 B52A0000 		.4byte	0x2ab5
 9981 2bda 01       		.uleb128 0x1
 9982 2bdb 57       		.byte	0x57
 9983 2bdc 4B       		.uleb128 0x4b
ARM GAS  C:\Users\jo\AppData\Local\Temp\ccQTqoh0.s 			page 179


 9984 2bdd E0000000 		.4byte	.LBB234
 9985 2be1 36000000 		.4byte	.LBE234-.LBB234
 9986 2be5 46       		.uleb128 0x46
 9987 2be6 C12A0000 		.4byte	0x2ac1
 9988 2bea B5130000 		.4byte	.LLST103
 9989 2bee 46       		.uleb128 0x46
 9990 2bef CD2A0000 		.4byte	0x2acd
 9991 2bf3 C8130000 		.4byte	.LLST104
 9992 2bf7 46       		.uleb128 0x46
 9993 2bf8 D92A0000 		.4byte	0x2ad9
 9994 2bfc DC130000 		.4byte	.LLST105
 9995 2c00 46       		.uleb128 0x46
 9996 2c01 E52A0000 		.4byte	0x2ae5
 9997 2c05 06140000 		.4byte	.LLST106
 9998 2c09 5C       		.uleb128 0x5c
 9999 2c0a BE130000 		.4byte	0x13be
 10000 2c0e 10010000 		.4byte	.LBB235
 10001 2c12 06000000 		.4byte	.LBE235-.LBB235
 10002 2c16 01       		.byte	0x1
 10003 2c17 D904     		.2byte	0x4d9
 10004 2c19 36       		.uleb128 0x36
 10005 2c1a CB130000 		.4byte	0x13cb
 10006 2c1e 31140000 		.4byte	.LLST107
 10007 2c22 3A       		.uleb128 0x3a
 10008 2c23 16010000 		.4byte	.LVL365
 10009 2c27 10280000 		.4byte	0x2810
 10010 2c2b 3B       		.uleb128 0x3b
 10011 2c2c 01       		.uleb128 0x1
 10012 2c2d 51       		.byte	0x51
 10013 2c2e 01       		.uleb128 0x1
 10014 2c2f 31       		.byte	0x31
 10015 2c30 00       		.byte	0
 10016 2c31 00       		.byte	0
 10017 2c32 00       		.byte	0
 10018 2c33 00       		.byte	0
 10019 2c34 43       		.uleb128 0x43
 10020 2c35 10000000 		.4byte	.LVL344
 10021 2c39 C2300000 		.4byte	0x30c2
 10022 2c3d 482C0000 		.4byte	0x2c48
 10023 2c41 3B       		.uleb128 0x3b
 10024 2c42 01       		.uleb128 0x1
 10025 2c43 50       		.byte	0x50
 10026 2c44 02       		.uleb128 0x2
 10027 2c45 75       		.byte	0x75
 10028 2c46 00       		.sleb128 0
 10029 2c47 00       		.byte	0
 10030 2c48 43       		.uleb128 0x43
 10031 2c49 20000000 		.4byte	.LVL345
 10032 2c4d 9A310000 		.4byte	0x319a
 10033 2c51 672C0000 		.4byte	0x2c67
 10034 2c55 3B       		.uleb128 0x3b
 10035 2c56 01       		.uleb128 0x1
 10036 2c57 52       		.byte	0x52
 10037 2c58 02       		.uleb128 0x2
 10038 2c59 08       		.byte	0x8
 10039 2c5a 98       		.byte	0x98
 10040 2c5b 3B       		.uleb128 0x3b
ARM GAS  C:\Users\jo\AppData\Local\Temp\ccQTqoh0.s 			page 180


 10041 2c5c 01       		.uleb128 0x1
 10042 2c5d 51       		.byte	0x51
 10043 2c5e 01       		.uleb128 0x1
 10044 2c5f 30       		.byte	0x30
 10045 2c60 3B       		.uleb128 0x3b
 10046 2c61 01       		.uleb128 0x1
 10047 2c62 50       		.byte	0x50
 10048 2c63 02       		.uleb128 0x2
 10049 2c64 74       		.byte	0x74
 10050 2c65 00       		.sleb128 0
 10051 2c66 00       		.byte	0
 10052 2c67 43       		.uleb128 0x43
 10053 2c68 CE000000 		.4byte	.LVL356
 10054 2c6c C2300000 		.4byte	0x30c2
 10055 2c70 7B2C0000 		.4byte	0x2c7b
 10056 2c74 3B       		.uleb128 0x3b
 10057 2c75 01       		.uleb128 0x1
 10058 2c76 50       		.byte	0x50
 10059 2c77 02       		.uleb128 0x2
 10060 2c78 75       		.byte	0x75
 10061 2c79 00       		.sleb128 0
 10062 2c7a 00       		.byte	0
 10063 2c7b 3A       		.uleb128 0x3a
 10064 2c7c 1C010000 		.4byte	.LVL366
 10065 2c80 C2300000 		.4byte	0x30c2
 10066 2c84 3B       		.uleb128 0x3b
 10067 2c85 01       		.uleb128 0x1
 10068 2c86 50       		.byte	0x50
 10069 2c87 02       		.uleb128 0x2
 10070 2c88 75       		.byte	0x75
 10071 2c89 00       		.sleb128 0
 10072 2c8a 00       		.byte	0
 10073 2c8b 00       		.byte	0
 10074 2c8c 3D       		.uleb128 0x3d
 10075 2c8d B1040000 		.4byte	.LASF341
 10076 2c91 01       		.byte	0x1
 10077 2c92 5305     		.2byte	0x553
 10078 2c94 780B0000 		.4byte	0xb78
 10079 2c98 00000000 		.4byte	.LFB285
 10080 2c9c 06000000 		.4byte	.LFE285-.LFB285
 10081 2ca0 01       		.uleb128 0x1
 10082 2ca1 9C       		.byte	0x9c
 10083 2ca2 B72C0000 		.4byte	0x2cb7
 10084 2ca6 49       		.uleb128 0x49
 10085 2ca7 06000000 		.4byte	.LVL367
 10086 2cab F22A0000 		.4byte	0x2af2
 10087 2caf 3B       		.uleb128 0x3b
 10088 2cb0 01       		.uleb128 0x1
 10089 2cb1 50       		.byte	0x50
 10090 2cb2 02       		.uleb128 0x2
 10091 2cb3 08       		.byte	0x8
 10092 2cb4 40       		.byte	0x40
 10093 2cb5 00       		.byte	0
 10094 2cb6 00       		.byte	0
 10095 2cb7 35       		.uleb128 0x35
 10096 2cb8 D8130000 		.4byte	0x13d8
 10097 2cbc 00000000 		.4byte	.LFB294
ARM GAS  C:\Users\jo\AppData\Local\Temp\ccQTqoh0.s 			page 181


 10098 2cc0 18000000 		.4byte	.LFE294-.LFB294
 10099 2cc4 01       		.uleb128 0x1
 10100 2cc5 9C       		.byte	0x9c
 10101 2cc6 D62C0000 		.4byte	0x2cd6
 10102 2cca 38       		.uleb128 0x38
 10103 2ccb E9130000 		.4byte	0x13e9
 10104 2ccf 05       		.uleb128 0x5
 10105 2cd0 03       		.byte	0x3
 10106 2cd1 00000000 		.4byte	iss.9034
 10107 2cd5 00       		.byte	0
 10108 2cd6 3D       		.uleb128 0x3d
 10109 2cd7 560A0000 		.4byte	.LASF342
 10110 2cdb 01       		.byte	0x1
 10111 2cdc 3206     		.2byte	0x632
 10112 2cde D0080000 		.4byte	0x8d0
 10113 2ce2 00000000 		.4byte	.LFB295
 10114 2ce6 1E000000 		.4byte	.LFE295-.LFB295
 10115 2cea 01       		.uleb128 0x1
 10116 2ceb 9C       		.byte	0x9c
 10117 2cec 422D0000 		.4byte	0x2d42
 10118 2cf0 3E       		.uleb128 0x3e
 10119 2cf1 EA030000 		.4byte	.LASF343
 10120 2cf5 01       		.byte	0x1
 10121 2cf6 3206     		.2byte	0x632
 10122 2cf8 D0080000 		.4byte	0x8d0
 10123 2cfc 44140000 		.4byte	.LLST108
 10124 2d00 3E       		.uleb128 0x3e
 10125 2d01 E80E0000 		.4byte	.LASF154
 10126 2d05 01       		.byte	0x1
 10127 2d06 3206     		.2byte	0x632
 10128 2d08 030B0000 		.4byte	0xb03
 10129 2d0c 70140000 		.4byte	.LLST109
 10130 2d10 40       		.uleb128 0x40
 10131 2d11 730F0000 		.4byte	.LASF344
 10132 2d15 01       		.byte	0x1
 10133 2d16 3406     		.2byte	0x634
 10134 2d18 D0080000 		.4byte	0x8d0
 10135 2d1c 91140000 		.4byte	.LLST110
 10136 2d20 40       		.uleb128 0x40
 10137 2d21 420D0000 		.4byte	.LASF345
 10138 2d25 01       		.byte	0x1
 10139 2d26 3506     		.2byte	0x635
 10140 2d28 FA090000 		.4byte	0x9fa
 10141 2d2c C5140000 		.4byte	.LLST111
 10142 2d30 3A       		.uleb128 0x3a
 10143 2d31 0A000000 		.4byte	.LVL370
 10144 2d35 B7310000 		.4byte	0x31b7
 10145 2d39 3B       		.uleb128 0x3b
 10146 2d3a 01       		.uleb128 0x1
 10147 2d3b 50       		.byte	0x50
 10148 2d3c 03       		.uleb128 0x3
 10149 2d3d F3       		.byte	0xf3
 10150 2d3e 01       		.uleb128 0x1
 10151 2d3f 51       		.byte	0x51
 10152 2d40 00       		.byte	0
 10153 2d41 00       		.byte	0
 10154 2d42 3D       		.uleb128 0x3d
ARM GAS  C:\Users\jo\AppData\Local\Temp\ccQTqoh0.s 			page 182


 10155 2d43 9B050000 		.4byte	.LASF346
 10156 2d47 01       		.byte	0x1
 10157 2d48 AC02     		.2byte	0x2ac
 10158 2d4a 88090000 		.4byte	0x988
 10159 2d4e 00000000 		.4byte	.LFB273
 10160 2d52 4C010000 		.4byte	.LFE273-.LFB273
 10161 2d56 01       		.uleb128 0x1
 10162 2d57 9C       		.byte	0x9c
 10163 2d58 D12E0000 		.4byte	0x2ed1
 10164 2d5c 30       		.uleb128 0x30
 10165 2d5d 70636200 		.ascii	"pcb\000"
 10166 2d61 01       		.byte	0x1
 10167 2d62 AC02     		.2byte	0x2ac
 10168 2d64 780B0000 		.4byte	0xb78
 10169 2d68 D8140000 		.4byte	.LLST112
 10170 2d6c 3E       		.uleb128 0x3e
 10171 2d6d 4F050000 		.4byte	.LASF289
 10172 2d71 01       		.byte	0x1
 10173 2d72 AC02     		.2byte	0x2ac
 10174 2d74 030B0000 		.4byte	0xb03
 10175 2d78 22150000 		.4byte	.LLST113
 10176 2d7c 3E       		.uleb128 0x3e
 10177 2d7d DE0D0000 		.4byte	.LASF290
 10178 2d81 01       		.byte	0x1
 10179 2d82 AC02     		.2byte	0x2ac
 10180 2d84 D0080000 		.4byte	0x8d0
 10181 2d88 40150000 		.4byte	.LLST114
 10182 2d8c 3E       		.uleb128 0x3e
 10183 2d8d 7F050000 		.4byte	.LASF216
 10184 2d91 01       		.byte	0x1
 10185 2d92 AD02     		.2byte	0x2ad
 10186 2d94 CF0E0000 		.4byte	0xecf
 10187 2d98 93150000 		.4byte	.LLST115
 10188 2d9c 32       		.uleb128 0x32
 10189 2d9d 72657400 		.ascii	"ret\000"
 10190 2da1 01       		.byte	0x1
 10191 2da2 AF02     		.2byte	0x2af
 10192 2da4 88090000 		.4byte	0x988
 10193 2da8 F9150000 		.4byte	.LLST116
 10194 2dac 29       		.uleb128 0x29
 10195 2dad 69737300 		.ascii	"iss\000"
 10196 2db1 01       		.byte	0x1
 10197 2db2 B002     		.2byte	0x2b0
 10198 2db4 E6080000 		.4byte	0x8e6
 10199 2db8 40       		.uleb128 0x40
 10200 2db9 B5060000 		.4byte	.LASF347
 10201 2dbd 01       		.byte	0x1
 10202 2dbe B102     		.2byte	0x2b1
 10203 2dc0 D0080000 		.4byte	0x8d0
 10204 2dc4 22160000 		.4byte	.LLST117
 10205 2dc8 47       		.uleb128 0x47
 10206 2dc9 F0000000 		.4byte	.Ldebug_ranges0+0xf0
 10207 2dcd F22D0000 		.4byte	0x2df2
 10208 2dd1 40       		.uleb128 0x40
 10209 2dd2 2B0F0000 		.4byte	.LASF163
 10210 2dd6 01       		.byte	0x1
 10211 2dd7 C002     		.2byte	0x2c0
ARM GAS  C:\Users\jo\AppData\Local\Temp\ccQTqoh0.s 			page 183


 10212 2dd9 FA090000 		.4byte	0x9fa
 10213 2ddd 40160000 		.4byte	.LLST118
 10214 2de1 3A       		.uleb128 0x3a
 10215 2de2 28000000 		.4byte	.LVL380
 10216 2de6 B7310000 		.4byte	0x31b7
 10217 2dea 3B       		.uleb128 0x3b
 10218 2deb 01       		.uleb128 0x1
 10219 2dec 50       		.byte	0x50
 10220 2ded 02       		.uleb128 0x2
 10221 2dee 74       		.byte	0x74
 10222 2def 04       		.sleb128 4
 10223 2df0 00       		.byte	0
 10224 2df1 00       		.byte	0
 10225 2df2 5B       		.uleb128 0x5b
 10226 2df3 D8130000 		.4byte	0x13d8
 10227 2df7 3E000000 		.4byte	.LBB238
 10228 2dfb 08010000 		.4byte	.Ldebug_ranges0+0x108
 10229 2dff 01       		.byte	0x1
 10230 2e00 E502     		.2byte	0x2e5
 10231 2e02 182E0000 		.4byte	0x2e18
 10232 2e06 44       		.uleb128 0x44
 10233 2e07 08010000 		.4byte	.Ldebug_ranges0+0x108
 10234 2e0b 38       		.uleb128 0x38
 10235 2e0c E9130000 		.4byte	0x13e9
 10236 2e10 05       		.uleb128 0x5
 10237 2e11 03       		.byte	0x3
 10238 2e12 00000000 		.4byte	iss.9034
 10239 2e16 00       		.byte	0
 10240 2e17 00       		.byte	0
 10241 2e18 41       		.uleb128 0x41
 10242 2e19 AE120000 		.4byte	0x12ae
 10243 2e1d 12010000 		.4byte	.LBB242
 10244 2e21 06000000 		.4byte	.LBE242-.LBB242
 10245 2e25 01       		.byte	0x1
 10246 2e26 B302     		.2byte	0x2b3
 10247 2e28 492E0000 		.4byte	0x2e49
 10248 2e2c 36       		.uleb128 0x36
 10249 2e2d BB120000 		.4byte	0x12bb
 10250 2e31 5E160000 		.4byte	.LLST119
 10251 2e35 3A       		.uleb128 0x3a
 10252 2e36 18010000 		.4byte	.LVL397
 10253 2e3a A8300000 		.4byte	0x30a8
 10254 2e3e 3B       		.uleb128 0x3b
 10255 2e3f 01       		.uleb128 0x1
 10256 2e40 50       		.byte	0x50
 10257 2e41 05       		.uleb128 0x5
 10258 2e42 03       		.byte	0x3
 10259 2e43 94030000 		.4byte	.LC24
 10260 2e47 00       		.byte	0
 10261 2e48 00       		.byte	0
 10262 2e49 42       		.uleb128 0x42
 10263 2e4a 38000000 		.4byte	.LVL383
 10264 2e4e 80140000 		.4byte	0x1480
 10265 2e52 43       		.uleb128 0x43
 10266 2e53 82000000 		.4byte	.LVL384
 10267 2e57 D62C0000 		.4byte	0x2cd6
 10268 2e5b 6D2E0000 		.4byte	0x2e6d
ARM GAS  C:\Users\jo\AppData\Local\Temp\ccQTqoh0.s 			page 184


 10269 2e5f 3B       		.uleb128 0x3b
 10270 2e60 01       		.uleb128 0x1
 10271 2e61 51       		.byte	0x51
 10272 2e62 02       		.uleb128 0x2
 10273 2e63 75       		.byte	0x75
 10274 2e64 00       		.sleb128 0
 10275 2e65 3B       		.uleb128 0x3b
 10276 2e66 01       		.uleb128 0x1
 10277 2e67 50       		.byte	0x50
 10278 2e68 03       		.uleb128 0x3
 10279 2e69 0A       		.byte	0xa
 10280 2e6a 1802     		.2byte	0x218
 10281 2e6c 00       		.byte	0
 10282 2e6d 43       		.uleb128 0x43
 10283 2e6e A0000000 		.4byte	.LVL385
 10284 2e72 CC310000 		.4byte	0x31cc
 10285 2e76 862E0000 		.4byte	0x2e86
 10286 2e7a 3B       		.uleb128 0x3b
 10287 2e7b 01       		.uleb128 0x1
 10288 2e7c 51       		.byte	0x51
 10289 2e7d 01       		.uleb128 0x1
 10290 2e7e 32       		.byte	0x32
 10291 2e7f 3B       		.uleb128 0x3b
 10292 2e80 01       		.uleb128 0x1
 10293 2e81 50       		.byte	0x50
 10294 2e82 02       		.uleb128 0x2
 10295 2e83 74       		.byte	0x74
 10296 2e84 00       		.sleb128 0
 10297 2e85 00       		.byte	0
 10298 2e86 42       		.uleb128 0x42
 10299 2e87 D6000000 		.4byte	.LVL386
 10300 2e8b BA300000 		.4byte	0x30ba
 10301 2e8f 43       		.uleb128 0x43
 10302 2e90 E2000000 		.4byte	.LVL387
 10303 2e94 E8300000 		.4byte	0x30e8
 10304 2e98 A32E0000 		.4byte	0x2ea3
 10305 2e9c 3B       		.uleb128 0x3b
 10306 2e9d 01       		.uleb128 0x1
 10307 2e9e 50       		.byte	0x50
 10308 2e9f 02       		.uleb128 0x2
 10309 2ea0 74       		.byte	0x74
 10310 2ea1 00       		.sleb128 0
 10311 2ea2 00       		.byte	0
 10312 2ea3 3A       		.uleb128 0x3a
 10313 2ea4 12010000 		.4byte	.LVL396
 10314 2ea8 CD140000 		.4byte	0x14cd
 10315 2eac 3B       		.uleb128 0x3b
 10316 2ead 01       		.uleb128 0x1
 10317 2eae 53       		.byte	0x53
 10318 2eaf 03       		.uleb128 0x3
 10319 2eb0 0A       		.byte	0xa
 10320 2eb1 B302     		.2byte	0x2b3
 10321 2eb3 3B       		.uleb128 0x3b
 10322 2eb4 01       		.uleb128 0x1
 10323 2eb5 52       		.byte	0x52
 10324 2eb6 05       		.uleb128 0x5
 10325 2eb7 03       		.byte	0x3
ARM GAS  C:\Users\jo\AppData\Local\Temp\ccQTqoh0.s 			page 185


 10326 2eb8 94030000 		.4byte	.LC24
 10327 2ebc 3B       		.uleb128 0x3b
 10328 2ebd 01       		.uleb128 0x1
 10329 2ebe 51       		.byte	0x51
 10330 2ebf 05       		.uleb128 0x5
 10331 2ec0 03       		.byte	0x3
 10332 2ec1 00000000 		.4byte	.LC0
 10333 2ec5 3B       		.uleb128 0x3b
 10334 2ec6 02       		.uleb128 0x2
 10335 2ec7 7D       		.byte	0x7d
 10336 2ec8 00       		.sleb128 0
 10337 2ec9 05       		.uleb128 0x5
 10338 2eca 03       		.byte	0x3
 10339 2ecb 50000000 		.4byte	.LC2
 10340 2ecf 00       		.byte	0
 10341 2ed0 00       		.byte	0
 10342 2ed1 3D       		.uleb128 0x3d
 10343 2ed2 10080000 		.4byte	.LASF348
 10344 2ed6 01       		.byte	0x1
 10345 2ed7 4506     		.2byte	0x645
 10346 2ed9 F4060000 		.4byte	0x6f4
 10347 2edd 00000000 		.4byte	.LFB296
 10348 2ee1 0C000000 		.4byte	.LFE296-.LFB296
 10349 2ee5 01       		.uleb128 0x1
 10350 2ee6 9C       		.byte	0x9c
 10351 2ee7 FA2E0000 		.4byte	0x2efa
 10352 2eeb 30       		.uleb128 0x30
 10353 2eec 7300     		.ascii	"s\000"
 10354 2eee 01       		.byte	0x1
 10355 2eef 4506     		.2byte	0x645
 10356 2ef1 DA0E0000 		.4byte	0xeda
 10357 2ef5 76160000 		.4byte	.LLST120
 10358 2ef9 00       		.byte	0
 10359 2efa 5D       		.uleb128 0x5d
 10360 2efb 1A0B0000 		.4byte	.LASF349
 10361 2eff 01       		.byte	0x1
 10362 2f00 59       		.byte	0x59
 10363 2f01 D0080000 		.4byte	0x8d0
 10364 2f05 05       		.uleb128 0x5
 10365 2f06 03       		.byte	0x3
 10366 2f07 00000000 		.4byte	tcp_port
 10367 2f0b 5D       		.uleb128 0x5d
 10368 2f0c DE050000 		.4byte	.LASF350
 10369 2f10 01       		.byte	0x1
 10370 2f11 7A       		.byte	0x7a
 10371 2f12 BA080000 		.4byte	0x8ba
 10372 2f16 05       		.uleb128 0x5
 10373 2f17 03       		.byte	0x3
 10374 2f18 00000000 		.4byte	tcp_timer
 10375 2f1c 5D       		.uleb128 0x5d
 10376 2f1d 3F0F0000 		.4byte	.LASF351
 10377 2f21 01       		.byte	0x1
 10378 2f22 7B       		.byte	0x7b
 10379 2f23 BA080000 		.4byte	0x8ba
 10380 2f27 05       		.uleb128 0x5
 10381 2f28 03       		.byte	0x3
 10382 2f29 00000000 		.4byte	tcp_timer_ctr
ARM GAS  C:\Users\jo\AppData\Local\Temp\ccQTqoh0.s 			page 186


 10383 2f2d 5E       		.uleb128 0x5e
 10384 2f2e 400C0000 		.4byte	.LASF352
 10385 2f32 1D       		.byte	0x1d
 10386 2f33 A706     		.2byte	0x6a7
 10387 2f35 10010000 		.4byte	0x110
 10388 2f39 5F       		.uleb128 0x5f
 10389 2f3a 636800   		.ascii	"ch\000"
 10390 2f3d 09       		.byte	0x9
 10391 2f3e 0902     		.2byte	0x209
 10392 2f40 5B040000 		.4byte	0x45b
 10393 2f44 60       		.uleb128 0x60
 10394 2f45 2C090000 		.4byte	.LASF353
 10395 2f49 14       		.byte	0x14
 10396 2f4a 3D       		.byte	0x3d
 10397 2f4b 82080000 		.4byte	0x882
 10398 2f4f 15       		.uleb128 0x15
 10399 2f50 D0080000 		.4byte	0x8d0
 10400 2f54 5F2F0000 		.4byte	0x2f5f
 10401 2f58 16       		.uleb128 0x16
 10402 2f59 C5040000 		.4byte	0x4c5
 10403 2f5d 0C       		.byte	0xc
 10404 2f5e 00       		.byte	0
 10405 2f5f 60       		.uleb128 0x60
 10406 2f60 5F030000 		.4byte	.LASF354
 10407 2f64 1E       		.byte	0x1e
 10408 2f65 4F       		.byte	0x4f
 10409 2f66 6A2F0000 		.4byte	0x2f6a
 10410 2f6a 19       		.uleb128 0x19
 10411 2f6b 4F2F0000 		.4byte	0x2f4f
 10412 2f6f 61       		.uleb128 0x61
 10413 2f70 E5100000 		.4byte	.LASF355
 10414 2f74 01       		.byte	0x1
 10415 2f75 5C       		.byte	0x5c
 10416 2f76 E6080000 		.4byte	0x8e6
 10417 2f7a 05       		.uleb128 0x5
 10418 2f7b 03       		.byte	0x3
 10419 2f7c 00000000 		.4byte	tcp_ticks
 10420 2f80 61       		.uleb128 0x61
 10421 2f81 85030000 		.4byte	.LASF356
 10422 2f85 01       		.byte	0x1
 10423 2f86 77       		.byte	0x77
 10424 2f87 BA080000 		.4byte	0x8ba
 10425 2f8b 05       		.uleb128 0x5
 10426 2f8c 03       		.byte	0x3
 10427 2f8d 00000000 		.4byte	tcp_active_pcbs_changed
 10428 2f91 61       		.uleb128 0x61
 10429 2f92 A60E0000 		.4byte	.LASF357
 10430 2f96 01       		.byte	0x1
 10431 2f97 65       		.byte	0x65
 10432 2f98 780B0000 		.4byte	0xb78
 10433 2f9c 05       		.uleb128 0x5
 10434 2f9d 03       		.byte	0x3
 10435 2f9e 00000000 		.4byte	tcp_bound_pcbs
 10436 2fa2 61       		.uleb128 0x61
 10437 2fa3 3C090000 		.4byte	.LASF358
 10438 2fa7 01       		.byte	0x1
 10439 2fa8 67       		.byte	0x67
ARM GAS  C:\Users\jo\AppData\Local\Temp\ccQTqoh0.s 			page 187


 10440 2fa9 9F100000 		.4byte	0x109f
 10441 2fad 05       		.uleb128 0x5
 10442 2fae 03       		.byte	0x3
 10443 2faf 00000000 		.4byte	tcp_listen_pcbs
 10444 2fb3 61       		.uleb128 0x61
 10445 2fb4 92100000 		.4byte	.LASF359
 10446 2fb8 01       		.byte	0x1
 10447 2fb9 6A       		.byte	0x6a
 10448 2fba 780B0000 		.4byte	0xb78
 10449 2fbe 05       		.uleb128 0x5
 10450 2fbf 03       		.byte	0x3
 10451 2fc0 00000000 		.4byte	tcp_active_pcbs
 10452 2fc4 61       		.uleb128 0x61
 10453 2fc5 2F100000 		.4byte	.LASF360
 10454 2fc9 01       		.byte	0x1
 10455 2fca 6C       		.byte	0x6c
 10456 2fcb 780B0000 		.4byte	0xb78
 10457 2fcf 05       		.uleb128 0x5
 10458 2fd0 03       		.byte	0x3
 10459 2fd1 00000000 		.4byte	tcp_tw_pcbs
 10460 2fd5 61       		.uleb128 0x61
 10461 2fd6 8F050000 		.4byte	.LASF361
 10462 2fda 01       		.byte	0x1
 10463 2fdb 75       		.byte	0x75
 10464 2fdc 780B0000 		.4byte	0xb78
 10465 2fe0 05       		.uleb128 0x5
 10466 2fe1 03       		.byte	0x3
 10467 2fe2 00000000 		.4byte	tcp_tmp_pcb
 10468 2fe6 60       		.uleb128 0x60
 10469 2fe7 C4020000 		.4byte	.LASF362
 10470 2feb 1C       		.byte	0x1c
 10471 2fec 95       		.byte	0x95
 10472 2fed 18120000 		.4byte	0x1218
 10473 2ff1 15       		.uleb128 0x15
 10474 2ff2 F4060000 		.4byte	0x6f4
 10475 2ff6 01300000 		.4byte	0x3001
 10476 2ffa 16       		.uleb128 0x16
 10477 2ffb C5040000 		.4byte	0x4c5
 10478 2fff 0A       		.byte	0xa
 10479 3000 00       		.byte	0
 10480 3001 61       		.uleb128 0x61
 10481 3002 310F0000 		.4byte	.LASF363
 10482 3006 01       		.byte	0x1
 10483 3007 4A       		.byte	0x4a
 10484 3008 12300000 		.4byte	0x3012
 10485 300c 05       		.uleb128 0x5
 10486 300d 03       		.byte	0x3
 10487 300e 00000000 		.4byte	tcp_state_str
 10488 3012 19       		.uleb128 0x19
 10489 3013 F12F0000 		.4byte	0x2ff1
 10490 3017 15       		.uleb128 0x15
 10491 3018 BA080000 		.4byte	0x8ba
 10492 301c 27300000 		.4byte	0x3027
 10493 3020 16       		.uleb128 0x16
 10494 3021 C5040000 		.4byte	0x4c5
 10495 3025 0C       		.byte	0xc
 10496 3026 00       		.byte	0
ARM GAS  C:\Users\jo\AppData\Local\Temp\ccQTqoh0.s 			page 188


 10497 3027 61       		.uleb128 0x61
 10498 3028 60060000 		.4byte	.LASF364
 10499 302c 01       		.byte	0x1
 10500 302d 5D       		.byte	0x5d
 10501 302e 38300000 		.4byte	0x3038
 10502 3032 05       		.uleb128 0x5
 10503 3033 03       		.byte	0x3
 10504 3034 00000000 		.4byte	tcp_backoff
 10505 3038 19       		.uleb128 0x19
 10506 3039 17300000 		.4byte	0x3017
 10507 303d 15       		.uleb128 0x15
 10508 303e BA080000 		.4byte	0x8ba
 10509 3042 4D300000 		.4byte	0x304d
 10510 3046 16       		.uleb128 0x16
 10511 3047 C5040000 		.4byte	0x4c5
 10512 304b 06       		.byte	0x6
 10513 304c 00       		.byte	0
 10514 304d 61       		.uleb128 0x61
 10515 304e 9F010000 		.4byte	.LASF365
 10516 3052 01       		.byte	0x1
 10517 3053 60       		.byte	0x60
 10518 3054 5E300000 		.4byte	0x305e
 10519 3058 05       		.uleb128 0x5
 10520 3059 03       		.byte	0x3
 10521 305a 00000000 		.4byte	tcp_persist_backoff
 10522 305e 19       		.uleb128 0x19
 10523 305f 3D300000 		.4byte	0x303d
 10524 3063 15       		.uleb128 0x15
 10525 3064 FA230000 		.4byte	0x23fa
 10526 3068 73300000 		.4byte	0x3073
 10527 306c 16       		.uleb128 0x16
 10528 306d C5040000 		.4byte	0x4c5
 10529 3071 03       		.byte	0x3
 10530 3072 00       		.byte	0
 10531 3073 61       		.uleb128 0x61
 10532 3074 51010000 		.4byte	.LASF366
 10533 3078 01       		.byte	0x1
 10534 3079 71       		.byte	0x71
 10535 307a 84300000 		.4byte	0x3084
 10536 307e 05       		.uleb128 0x5
 10537 307f 03       		.byte	0x3
 10538 3080 00000000 		.4byte	tcp_pcb_lists
 10539 3084 19       		.uleb128 0x19
 10540 3085 63300000 		.4byte	0x3063
 10541 3089 62       		.uleb128 0x62
 10542 308a 80000000 		.4byte	.LASF367
 10543 308e 02       		.byte	0x2
 10544 308f 28       		.byte	0x28
 10545 3090 25000000 		.4byte	0x25
 10546 3094 A8300000 		.4byte	0x30a8
 10547 3098 0D       		.uleb128 0xd
 10548 3099 33140000 		.4byte	0x1433
 10549 309d 0D       		.uleb128 0xd
 10550 309e F4060000 		.4byte	0x6f4
 10551 30a2 0D       		.uleb128 0xd
 10552 30a3 AF080000 		.4byte	0x8af
 10553 30a7 00       		.byte	0
ARM GAS  C:\Users\jo\AppData\Local\Temp\ccQTqoh0.s 			page 189


 10554 30a8 63       		.uleb128 0x63
 10555 30a9 100F0000 		.4byte	.LASF368
 10556 30ad 1F       		.byte	0x1f
 10557 30ae 1601     		.2byte	0x116
 10558 30b0 BA300000 		.4byte	0x30ba
 10559 30b4 0D       		.uleb128 0xd
 10560 30b5 F4060000 		.4byte	0x6f4
 10561 30b9 00       		.byte	0
 10562 30ba 64       		.uleb128 0x64
 10563 30bb 450A0000 		.4byte	.LASF390
 10564 30bf 1B       		.byte	0x1b
 10565 30c0 DD01     		.2byte	0x1dd
 10566 30c2 62       		.uleb128 0x62
 10567 30c3 0D040000 		.4byte	.LASF369
 10568 30c7 20       		.byte	0x20
 10569 30c8 60       		.byte	0x60
 10570 30c9 64030000 		.4byte	0x364
 10571 30cd D7300000 		.4byte	0x30d7
 10572 30d1 0D       		.uleb128 0xd
 10573 30d2 2C000000 		.4byte	0x2c
 10574 30d6 00       		.byte	0
 10575 30d7 65       		.uleb128 0x65
 10576 30d8 C5050000 		.4byte	.LASF370
 10577 30dc 20       		.byte	0x20
 10578 30dd 55       		.byte	0x55
 10579 30de E8300000 		.4byte	0x30e8
 10580 30e2 0D       		.uleb128 0xd
 10581 30e3 64030000 		.4byte	0x364
 10582 30e7 00       		.byte	0
 10583 30e8 66       		.uleb128 0x66
 10584 30e9 01060000 		.4byte	.LASF371
 10585 30ed 1A       		.byte	0x1a
 10586 30ee 6F01     		.2byte	0x16f
 10587 30f0 88090000 		.4byte	0x988
 10588 30f4 FE300000 		.4byte	0x30fe
 10589 30f8 0D       		.uleb128 0xd
 10590 30f9 780B0000 		.4byte	0xb78
 10591 30fd 00       		.byte	0
 10592 30fe 62       		.uleb128 0x62
 10593 30ff 95070000 		.4byte	.LASF372
 10594 3103 18       		.byte	0x18
 10595 3104 9B       		.byte	0x9b
 10596 3105 BA080000 		.4byte	0x8ba
 10597 3109 13310000 		.4byte	0x3113
 10598 310d 0D       		.uleb128 0xd
 10599 310e F4090000 		.4byte	0x9f4
 10600 3112 00       		.byte	0
 10601 3113 65       		.uleb128 0x65
 10602 3114 510D0000 		.4byte	.LASF373
 10603 3118 18       		.byte	0x18
 10604 3119 9A       		.byte	0x9a
 10605 311a 24310000 		.4byte	0x3124
 10606 311e 0D       		.uleb128 0xd
 10607 311f F4090000 		.4byte	0x9f4
 10608 3123 00       		.byte	0
 10609 3124 63       		.uleb128 0x63
 10610 3125 D70A0000 		.4byte	.LASF374
ARM GAS  C:\Users\jo\AppData\Local\Temp\ccQTqoh0.s 			page 190


 10611 3129 1B       		.byte	0x1b
 10612 312a BC01     		.2byte	0x1bc
 10613 312c 4F310000 		.4byte	0x314f
 10614 3130 0D       		.uleb128 0xd
 10615 3131 E6080000 		.4byte	0x8e6
 10616 3135 0D       		.uleb128 0xd
 10617 3136 E6080000 		.4byte	0x8e6
 10618 313a 0D       		.uleb128 0xd
 10619 313b 030B0000 		.4byte	0xb03
 10620 313f 0D       		.uleb128 0xd
 10621 3140 030B0000 		.4byte	0xb03
 10622 3144 0D       		.uleb128 0xd
 10623 3145 D0080000 		.4byte	0x8d0
 10624 3149 0D       		.uleb128 0xd
 10625 314a D0080000 		.4byte	0x8d0
 10626 314e 00       		.byte	0
 10627 314f 63       		.uleb128 0x63
 10628 3150 65010000 		.4byte	.LASF375
 10629 3154 1B       		.byte	0x1b
 10630 3155 C301     		.2byte	0x1c3
 10631 3157 61310000 		.4byte	0x3161
 10632 315b 0D       		.uleb128 0xd
 10633 315c 780B0000 		.4byte	0xb78
 10634 3160 00       		.byte	0
 10635 3161 65       		.uleb128 0x65
 10636 3162 7E040000 		.4byte	.LASF376
 10637 3166 1B       		.byte	0x1b
 10638 3167 46       		.byte	0x46
 10639 3168 72310000 		.4byte	0x3172
 10640 316c 0D       		.uleb128 0xd
 10641 316d 780B0000 		.4byte	0xb78
 10642 3171 00       		.byte	0
 10643 3172 63       		.uleb128 0x63
 10644 3173 62000000 		.4byte	.LASF377
 10645 3177 1B       		.byte	0x1b
 10646 3178 C201     		.2byte	0x1c2
 10647 317a 84310000 		.4byte	0x3184
 10648 317e 0D       		.uleb128 0xd
 10649 317f 780B0000 		.4byte	0xb78
 10650 3183 00       		.byte	0
 10651 3184 66       		.uleb128 0x66
 10652 3185 7B0A0000 		.4byte	.LASF378
 10653 3189 1B       		.byte	0x1b
 10654 318a B701     		.2byte	0x1b7
 10655 318c 88090000 		.4byte	0x988
 10656 3190 9A310000 		.4byte	0x319a
 10657 3194 0D       		.uleb128 0xd
 10658 3195 780B0000 		.4byte	0xb78
 10659 3199 00       		.byte	0
 10660 319a 67       		.uleb128 0x67
 10661 319b BD080000 		.4byte	.LASF379
 10662 319f 64030000 		.4byte	0x364
 10663 31a3 B7310000 		.4byte	0x31b7
 10664 31a7 0D       		.uleb128 0xd
 10665 31a8 64030000 		.4byte	0x364
 10666 31ac 0D       		.uleb128 0xd
 10667 31ad 25000000 		.4byte	0x25
ARM GAS  C:\Users\jo\AppData\Local\Temp\ccQTqoh0.s 			page 191


 10668 31b1 0D       		.uleb128 0xd
 10669 31b2 C5040000 		.4byte	0x4c5
 10670 31b6 00       		.byte	0
 10671 31b7 62       		.uleb128 0x62
 10672 31b8 69100000 		.4byte	.LASF380
 10673 31bc 21       		.byte	0x21
 10674 31bd AF       		.byte	0xaf
 10675 31be FA090000 		.4byte	0x9fa
 10676 31c2 CC310000 		.4byte	0x31cc
 10677 31c6 0D       		.uleb128 0xd
 10678 31c7 030B0000 		.4byte	0xb03
 10679 31cb 00       		.byte	0
 10680 31cc 68       		.uleb128 0x68
 10681 31cd F60A0000 		.4byte	.LASF381
 10682 31d1 1B       		.byte	0x1b
 10683 31d2 B801     		.2byte	0x1b8
 10684 31d4 88090000 		.4byte	0x988
 10685 31d8 0D       		.uleb128 0xd
 10686 31d9 780B0000 		.4byte	0xb78
 10687 31dd 0D       		.uleb128 0xd
 10688 31de BA080000 		.4byte	0x8ba
 10689 31e2 00       		.byte	0
 10690 31e3 00       		.byte	0
 10691              		.section	.debug_abbrev,"",%progbits
 10692              	.Ldebug_abbrev0:
 10693 0000 01       		.uleb128 0x1
 10694 0001 11       		.uleb128 0x11
 10695 0002 01       		.byte	0x1
 10696 0003 25       		.uleb128 0x25
 10697 0004 0E       		.uleb128 0xe
 10698 0005 13       		.uleb128 0x13
 10699 0006 0B       		.uleb128 0xb
 10700 0007 03       		.uleb128 0x3
 10701 0008 0E       		.uleb128 0xe
 10702 0009 1B       		.uleb128 0x1b
 10703 000a 0E       		.uleb128 0xe
 10704 000b 55       		.uleb128 0x55
 10705 000c 17       		.uleb128 0x17
 10706 000d 11       		.uleb128 0x11
 10707 000e 01       		.uleb128 0x1
 10708 000f 10       		.uleb128 0x10
 10709 0010 17       		.uleb128 0x17
 10710 0011 00       		.byte	0
 10711 0012 00       		.byte	0
 10712 0013 02       		.uleb128 0x2
 10713 0014 24       		.uleb128 0x24
 10714 0015 00       		.byte	0
 10715 0016 0B       		.uleb128 0xb
 10716 0017 0B       		.uleb128 0xb
 10717 0018 3E       		.uleb128 0x3e
 10718 0019 0B       		.uleb128 0xb
 10719 001a 03       		.uleb128 0x3
 10720 001b 08       		.uleb128 0x8
 10721 001c 00       		.byte	0
 10722 001d 00       		.byte	0
 10723 001e 03       		.uleb128 0x3
 10724 001f 16       		.uleb128 0x16
ARM GAS  C:\Users\jo\AppData\Local\Temp\ccQTqoh0.s 			page 192


 10725 0020 00       		.byte	0
 10726 0021 03       		.uleb128 0x3
 10727 0022 0E       		.uleb128 0xe
 10728 0023 3A       		.uleb128 0x3a
 10729 0024 0B       		.uleb128 0xb
 10730 0025 3B       		.uleb128 0x3b
 10731 0026 0B       		.uleb128 0xb
 10732 0027 49       		.uleb128 0x49
 10733 0028 13       		.uleb128 0x13
 10734 0029 00       		.byte	0
 10735 002a 00       		.byte	0
 10736 002b 04       		.uleb128 0x4
 10737 002c 24       		.uleb128 0x24
 10738 002d 00       		.byte	0
 10739 002e 0B       		.uleb128 0xb
 10740 002f 0B       		.uleb128 0xb
 10741 0030 3E       		.uleb128 0x3e
 10742 0031 0B       		.uleb128 0xb
 10743 0032 03       		.uleb128 0x3
 10744 0033 0E       		.uleb128 0xe
 10745 0034 00       		.byte	0
 10746 0035 00       		.byte	0
 10747 0036 05       		.uleb128 0x5
 10748 0037 35       		.uleb128 0x35
 10749 0038 00       		.byte	0
 10750 0039 49       		.uleb128 0x49
 10751 003a 13       		.uleb128 0x13
 10752 003b 00       		.byte	0
 10753 003c 00       		.byte	0
 10754 003d 06       		.uleb128 0x6
 10755 003e 13       		.uleb128 0x13
 10756 003f 01       		.byte	0x1
 10757 0040 03       		.uleb128 0x3
 10758 0041 0E       		.uleb128 0xe
 10759 0042 0B       		.uleb128 0xb
 10760 0043 0B       		.uleb128 0xb
 10761 0044 3A       		.uleb128 0x3a
 10762 0045 0B       		.uleb128 0xb
 10763 0046 3B       		.uleb128 0x3b
 10764 0047 0B       		.uleb128 0xb
 10765 0048 01       		.uleb128 0x1
 10766 0049 13       		.uleb128 0x13
 10767 004a 00       		.byte	0
 10768 004b 00       		.byte	0
 10769 004c 07       		.uleb128 0x7
 10770 004d 0D       		.uleb128 0xd
 10771 004e 00       		.byte	0
 10772 004f 03       		.uleb128 0x3
 10773 0050 0E       		.uleb128 0xe
 10774 0051 3A       		.uleb128 0x3a
 10775 0052 0B       		.uleb128 0xb
 10776 0053 3B       		.uleb128 0x3b
 10777 0054 0B       		.uleb128 0xb
 10778 0055 49       		.uleb128 0x49
 10779 0056 13       		.uleb128 0x13
 10780 0057 38       		.uleb128 0x38
 10781 0058 0B       		.uleb128 0xb
ARM GAS  C:\Users\jo\AppData\Local\Temp\ccQTqoh0.s 			page 193


 10782 0059 00       		.byte	0
 10783 005a 00       		.byte	0
 10784 005b 08       		.uleb128 0x8
 10785 005c 0D       		.uleb128 0xd
 10786 005d 00       		.byte	0
 10787 005e 03       		.uleb128 0x3
 10788 005f 08       		.uleb128 0x8
 10789 0060 3A       		.uleb128 0x3a
 10790 0061 0B       		.uleb128 0xb
 10791 0062 3B       		.uleb128 0x3b
 10792 0063 05       		.uleb128 0x5
 10793 0064 49       		.uleb128 0x49
 10794 0065 13       		.uleb128 0x13
 10795 0066 38       		.uleb128 0x38
 10796 0067 0B       		.uleb128 0xb
 10797 0068 00       		.byte	0
 10798 0069 00       		.byte	0
 10799 006a 09       		.uleb128 0x9
 10800 006b 0D       		.uleb128 0xd
 10801 006c 00       		.byte	0
 10802 006d 03       		.uleb128 0x3
 10803 006e 0E       		.uleb128 0xe
 10804 006f 3A       		.uleb128 0x3a
 10805 0070 0B       		.uleb128 0xb
 10806 0071 3B       		.uleb128 0x3b
 10807 0072 05       		.uleb128 0x5
 10808 0073 49       		.uleb128 0x49
 10809 0074 13       		.uleb128 0x13
 10810 0075 38       		.uleb128 0x38
 10811 0076 0B       		.uleb128 0xb
 10812 0077 00       		.byte	0
 10813 0078 00       		.byte	0
 10814 0079 0A       		.uleb128 0xa
 10815 007a 0F       		.uleb128 0xf
 10816 007b 00       		.byte	0
 10817 007c 0B       		.uleb128 0xb
 10818 007d 0B       		.uleb128 0xb
 10819 007e 49       		.uleb128 0x49
 10820 007f 13       		.uleb128 0x13
 10821 0080 00       		.byte	0
 10822 0081 00       		.byte	0
 10823 0082 0B       		.uleb128 0xb
 10824 0083 13       		.uleb128 0x13
 10825 0084 01       		.byte	0x1
 10826 0085 03       		.uleb128 0x3
 10827 0086 0E       		.uleb128 0xe
 10828 0087 0B       		.uleb128 0xb
 10829 0088 0B       		.uleb128 0xb
 10830 0089 3A       		.uleb128 0x3a
 10831 008a 0B       		.uleb128 0xb
 10832 008b 3B       		.uleb128 0x3b
 10833 008c 05       		.uleb128 0x5
 10834 008d 01       		.uleb128 0x1
 10835 008e 13       		.uleb128 0x13
 10836 008f 00       		.byte	0
 10837 0090 00       		.byte	0
 10838 0091 0C       		.uleb128 0xc
ARM GAS  C:\Users\jo\AppData\Local\Temp\ccQTqoh0.s 			page 194


 10839 0092 15       		.uleb128 0x15
 10840 0093 01       		.byte	0x1
 10841 0094 27       		.uleb128 0x27
 10842 0095 19       		.uleb128 0x19
 10843 0096 01       		.uleb128 0x1
 10844 0097 13       		.uleb128 0x13
 10845 0098 00       		.byte	0
 10846 0099 00       		.byte	0
 10847 009a 0D       		.uleb128 0xd
 10848 009b 05       		.uleb128 0x5
 10849 009c 00       		.byte	0
 10850 009d 49       		.uleb128 0x49
 10851 009e 13       		.uleb128 0x13
 10852 009f 00       		.byte	0
 10853 00a0 00       		.byte	0
 10854 00a1 0E       		.uleb128 0xe
 10855 00a2 0F       		.uleb128 0xf
 10856 00a3 00       		.byte	0
 10857 00a4 0B       		.uleb128 0xb
 10858 00a5 0B       		.uleb128 0xb
 10859 00a6 00       		.byte	0
 10860 00a7 00       		.byte	0
 10861 00a8 0F       		.uleb128 0xf
 10862 00a9 13       		.uleb128 0x13
 10863 00aa 01       		.byte	0x1
 10864 00ab 03       		.uleb128 0x3
 10865 00ac 0E       		.uleb128 0xe
 10866 00ad 0B       		.uleb128 0xb
 10867 00ae 05       		.uleb128 0x5
 10868 00af 3A       		.uleb128 0x3a
 10869 00b0 0B       		.uleb128 0xb
 10870 00b1 3B       		.uleb128 0x3b
 10871 00b2 05       		.uleb128 0x5
 10872 00b3 01       		.uleb128 0x1
 10873 00b4 13       		.uleb128 0x13
 10874 00b5 00       		.byte	0
 10875 00b6 00       		.byte	0
 10876 00b7 10       		.uleb128 0x10
 10877 00b8 0D       		.uleb128 0xd
 10878 00b9 00       		.byte	0
 10879 00ba 03       		.uleb128 0x3
 10880 00bb 0E       		.uleb128 0xe
 10881 00bc 3A       		.uleb128 0x3a
 10882 00bd 0B       		.uleb128 0xb
 10883 00be 3B       		.uleb128 0x3b
 10884 00bf 05       		.uleb128 0x5
 10885 00c0 49       		.uleb128 0x49
 10886 00c1 13       		.uleb128 0x13
 10887 00c2 38       		.uleb128 0x38
 10888 00c3 05       		.uleb128 0x5
 10889 00c4 00       		.byte	0
 10890 00c5 00       		.byte	0
 10891 00c6 11       		.uleb128 0x11
 10892 00c7 0D       		.uleb128 0xd
 10893 00c8 00       		.byte	0
 10894 00c9 03       		.uleb128 0x3
 10895 00ca 08       		.uleb128 0x8
ARM GAS  C:\Users\jo\AppData\Local\Temp\ccQTqoh0.s 			page 195


 10896 00cb 3A       		.uleb128 0x3a
 10897 00cc 0B       		.uleb128 0xb
 10898 00cd 3B       		.uleb128 0x3b
 10899 00ce 05       		.uleb128 0x5
 10900 00cf 49       		.uleb128 0x49
 10901 00d0 13       		.uleb128 0x13
 10902 00d1 38       		.uleb128 0x38
 10903 00d2 05       		.uleb128 0x5
 10904 00d3 00       		.byte	0
 10905 00d4 00       		.byte	0
 10906 00d5 12       		.uleb128 0x12
 10907 00d6 0D       		.uleb128 0xd
 10908 00d7 00       		.byte	0
 10909 00d8 03       		.uleb128 0x3
 10910 00d9 08       		.uleb128 0x8
 10911 00da 3A       		.uleb128 0x3a
 10912 00db 0B       		.uleb128 0xb
 10913 00dc 3B       		.uleb128 0x3b
 10914 00dd 0B       		.uleb128 0xb
 10915 00de 49       		.uleb128 0x49
 10916 00df 13       		.uleb128 0x13
 10917 00e0 38       		.uleb128 0x38
 10918 00e1 0B       		.uleb128 0xb
 10919 00e2 00       		.byte	0
 10920 00e3 00       		.byte	0
 10921 00e4 13       		.uleb128 0x13
 10922 00e5 13       		.uleb128 0x13
 10923 00e6 01       		.byte	0x1
 10924 00e7 0B       		.uleb128 0xb
 10925 00e8 0B       		.uleb128 0xb
 10926 00e9 3A       		.uleb128 0x3a
 10927 00ea 0B       		.uleb128 0xb
 10928 00eb 3B       		.uleb128 0x3b
 10929 00ec 0B       		.uleb128 0xb
 10930 00ed 01       		.uleb128 0x1
 10931 00ee 13       		.uleb128 0x13
 10932 00ef 00       		.byte	0
 10933 00f0 00       		.byte	0
 10934 00f1 14       		.uleb128 0x14
 10935 00f2 13       		.uleb128 0x13
 10936 00f3 01       		.byte	0x1
 10937 00f4 0B       		.uleb128 0xb
 10938 00f5 05       		.uleb128 0x5
 10939 00f6 3A       		.uleb128 0x3a
 10940 00f7 0B       		.uleb128 0xb
 10941 00f8 3B       		.uleb128 0x3b
 10942 00f9 0B       		.uleb128 0xb
 10943 00fa 01       		.uleb128 0x1
 10944 00fb 13       		.uleb128 0x13
 10945 00fc 00       		.byte	0
 10946 00fd 00       		.byte	0
 10947 00fe 15       		.uleb128 0x15
 10948 00ff 01       		.uleb128 0x1
 10949 0100 01       		.byte	0x1
 10950 0101 49       		.uleb128 0x49
 10951 0102 13       		.uleb128 0x13
 10952 0103 01       		.uleb128 0x1
ARM GAS  C:\Users\jo\AppData\Local\Temp\ccQTqoh0.s 			page 196


 10953 0104 13       		.uleb128 0x13
 10954 0105 00       		.byte	0
 10955 0106 00       		.byte	0
 10956 0107 16       		.uleb128 0x16
 10957 0108 21       		.uleb128 0x21
 10958 0109 00       		.byte	0
 10959 010a 49       		.uleb128 0x49
 10960 010b 13       		.uleb128 0x13
 10961 010c 2F       		.uleb128 0x2f
 10962 010d 0B       		.uleb128 0xb
 10963 010e 00       		.byte	0
 10964 010f 00       		.byte	0
 10965 0110 17       		.uleb128 0x17
 10966 0111 17       		.uleb128 0x17
 10967 0112 01       		.byte	0x1
 10968 0113 0B       		.uleb128 0xb
 10969 0114 0B       		.uleb128 0xb
 10970 0115 3A       		.uleb128 0x3a
 10971 0116 0B       		.uleb128 0xb
 10972 0117 3B       		.uleb128 0x3b
 10973 0118 0B       		.uleb128 0xb
 10974 0119 01       		.uleb128 0x1
 10975 011a 13       		.uleb128 0x13
 10976 011b 00       		.byte	0
 10977 011c 00       		.byte	0
 10978 011d 18       		.uleb128 0x18
 10979 011e 0D       		.uleb128 0xd
 10980 011f 00       		.byte	0
 10981 0120 03       		.uleb128 0x3
 10982 0121 0E       		.uleb128 0xe
 10983 0122 3A       		.uleb128 0x3a
 10984 0123 0B       		.uleb128 0xb
 10985 0124 3B       		.uleb128 0x3b
 10986 0125 05       		.uleb128 0x5
 10987 0126 49       		.uleb128 0x49
 10988 0127 13       		.uleb128 0x13
 10989 0128 00       		.byte	0
 10990 0129 00       		.byte	0
 10991 012a 19       		.uleb128 0x19
 10992 012b 26       		.uleb128 0x26
 10993 012c 00       		.byte	0
 10994 012d 49       		.uleb128 0x49
 10995 012e 13       		.uleb128 0x13
 10996 012f 00       		.byte	0
 10997 0130 00       		.byte	0
 10998 0131 1A       		.uleb128 0x1a
 10999 0132 15       		.uleb128 0x15
 11000 0133 01       		.byte	0x1
 11001 0134 27       		.uleb128 0x27
 11002 0135 19       		.uleb128 0x19
 11003 0136 49       		.uleb128 0x49
 11004 0137 13       		.uleb128 0x13
 11005 0138 01       		.uleb128 0x1
 11006 0139 13       		.uleb128 0x13
 11007 013a 00       		.byte	0
 11008 013b 00       		.byte	0
 11009 013c 1B       		.uleb128 0x1b
ARM GAS  C:\Users\jo\AppData\Local\Temp\ccQTqoh0.s 			page 197


 11010 013d 0D       		.uleb128 0xd
 11011 013e 00       		.byte	0
 11012 013f 03       		.uleb128 0x3
 11013 0140 0E       		.uleb128 0xe
 11014 0141 49       		.uleb128 0x49
 11015 0142 13       		.uleb128 0x13
 11016 0143 38       		.uleb128 0x38
 11017 0144 0B       		.uleb128 0xb
 11018 0145 34       		.uleb128 0x34
 11019 0146 19       		.uleb128 0x19
 11020 0147 00       		.byte	0
 11021 0148 00       		.byte	0
 11022 0149 1C       		.uleb128 0x1c
 11023 014a 04       		.uleb128 0x4
 11024 014b 01       		.byte	0x1
 11025 014c 0B       		.uleb128 0xb
 11026 014d 0B       		.uleb128 0xb
 11027 014e 3A       		.uleb128 0x3a
 11028 014f 0B       		.uleb128 0xb
 11029 0150 3B       		.uleb128 0x3b
 11030 0151 0B       		.uleb128 0xb
 11031 0152 01       		.uleb128 0x1
 11032 0153 13       		.uleb128 0x13
 11033 0154 00       		.byte	0
 11034 0155 00       		.byte	0
 11035 0156 1D       		.uleb128 0x1d
 11036 0157 28       		.uleb128 0x28
 11037 0158 00       		.byte	0
 11038 0159 03       		.uleb128 0x3
 11039 015a 0E       		.uleb128 0xe
 11040 015b 1C       		.uleb128 0x1c
 11041 015c 0D       		.uleb128 0xd
 11042 015d 00       		.byte	0
 11043 015e 00       		.byte	0
 11044 015f 1E       		.uleb128 0x1e
 11045 0160 04       		.uleb128 0x4
 11046 0161 01       		.byte	0x1
 11047 0162 03       		.uleb128 0x3
 11048 0163 0E       		.uleb128 0xe
 11049 0164 0B       		.uleb128 0xb
 11050 0165 0B       		.uleb128 0xb
 11051 0166 3A       		.uleb128 0x3a
 11052 0167 0B       		.uleb128 0xb
 11053 0168 3B       		.uleb128 0x3b
 11054 0169 0B       		.uleb128 0xb
 11055 016a 01       		.uleb128 0x1
 11056 016b 13       		.uleb128 0x13
 11057 016c 00       		.byte	0
 11058 016d 00       		.byte	0
 11059 016e 1F       		.uleb128 0x1f
 11060 016f 17       		.uleb128 0x17
 11061 0170 01       		.byte	0x1
 11062 0171 03       		.uleb128 0x3
 11063 0172 0E       		.uleb128 0xe
 11064 0173 0B       		.uleb128 0xb
 11065 0174 0B       		.uleb128 0xb
 11066 0175 3A       		.uleb128 0x3a
ARM GAS  C:\Users\jo\AppData\Local\Temp\ccQTqoh0.s 			page 198


 11067 0176 0B       		.uleb128 0xb
 11068 0177 3B       		.uleb128 0x3b
 11069 0178 05       		.uleb128 0x5
 11070 0179 01       		.uleb128 0x1
 11071 017a 13       		.uleb128 0x13
 11072 017b 00       		.byte	0
 11073 017c 00       		.byte	0
 11074 017d 20       		.uleb128 0x20
 11075 017e 13       		.uleb128 0x13
 11076 017f 01       		.byte	0x1
 11077 0180 03       		.uleb128 0x3
 11078 0181 0E       		.uleb128 0xe
 11079 0182 0B       		.uleb128 0xb
 11080 0183 05       		.uleb128 0x5
 11081 0184 3A       		.uleb128 0x3a
 11082 0185 0B       		.uleb128 0xb
 11083 0186 3B       		.uleb128 0x3b
 11084 0187 0B       		.uleb128 0xb
 11085 0188 01       		.uleb128 0x1
 11086 0189 13       		.uleb128 0x13
 11087 018a 00       		.byte	0
 11088 018b 00       		.byte	0
 11089 018c 21       		.uleb128 0x21
 11090 018d 0D       		.uleb128 0xd
 11091 018e 00       		.byte	0
 11092 018f 03       		.uleb128 0x3
 11093 0190 08       		.uleb128 0x8
 11094 0191 3A       		.uleb128 0x3a
 11095 0192 0B       		.uleb128 0xb
 11096 0193 3B       		.uleb128 0x3b
 11097 0194 0B       		.uleb128 0xb
 11098 0195 49       		.uleb128 0x49
 11099 0196 13       		.uleb128 0x13
 11100 0197 38       		.uleb128 0x38
 11101 0198 05       		.uleb128 0x5
 11102 0199 00       		.byte	0
 11103 019a 00       		.byte	0
 11104 019b 22       		.uleb128 0x22
 11105 019c 2E       		.uleb128 0x2e
 11106 019d 01       		.byte	0x1
 11107 019e 03       		.uleb128 0x3
 11108 019f 0E       		.uleb128 0xe
 11109 01a0 3A       		.uleb128 0x3a
 11110 01a1 0B       		.uleb128 0xb
 11111 01a2 3B       		.uleb128 0x3b
 11112 01a3 05       		.uleb128 0x5
 11113 01a4 27       		.uleb128 0x27
 11114 01a5 19       		.uleb128 0x19
 11115 01a6 20       		.uleb128 0x20
 11116 01a7 0B       		.uleb128 0xb
 11117 01a8 01       		.uleb128 0x1
 11118 01a9 13       		.uleb128 0x13
 11119 01aa 00       		.byte	0
 11120 01ab 00       		.byte	0
 11121 01ac 23       		.uleb128 0x23
 11122 01ad 05       		.uleb128 0x5
 11123 01ae 00       		.byte	0
ARM GAS  C:\Users\jo\AppData\Local\Temp\ccQTqoh0.s 			page 199


 11124 01af 03       		.uleb128 0x3
 11125 01b0 0E       		.uleb128 0xe
 11126 01b1 3A       		.uleb128 0x3a
 11127 01b2 0B       		.uleb128 0xb
 11128 01b3 3B       		.uleb128 0x3b
 11129 01b4 05       		.uleb128 0x5
 11130 01b5 49       		.uleb128 0x49
 11131 01b6 13       		.uleb128 0x13
 11132 01b7 00       		.byte	0
 11133 01b8 00       		.byte	0
 11134 01b9 24       		.uleb128 0x24
 11135 01ba 2E       		.uleb128 0x2e
 11136 01bb 01       		.byte	0x1
 11137 01bc 3F       		.uleb128 0x3f
 11138 01bd 19       		.uleb128 0x19
 11139 01be 03       		.uleb128 0x3
 11140 01bf 0E       		.uleb128 0xe
 11141 01c0 3A       		.uleb128 0x3a
 11142 01c1 0B       		.uleb128 0xb
 11143 01c2 3B       		.uleb128 0x3b
 11144 01c3 05       		.uleb128 0x5
 11145 01c4 27       		.uleb128 0x27
 11146 01c5 19       		.uleb128 0x19
 11147 01c6 20       		.uleb128 0x20
 11148 01c7 0B       		.uleb128 0xb
 11149 01c8 01       		.uleb128 0x1
 11150 01c9 13       		.uleb128 0x13
 11151 01ca 00       		.byte	0
 11152 01cb 00       		.byte	0
 11153 01cc 25       		.uleb128 0x25
 11154 01cd 05       		.uleb128 0x5
 11155 01ce 00       		.byte	0
 11156 01cf 03       		.uleb128 0x3
 11157 01d0 08       		.uleb128 0x8
 11158 01d1 3A       		.uleb128 0x3a
 11159 01d2 0B       		.uleb128 0xb
 11160 01d3 3B       		.uleb128 0x3b
 11161 01d4 05       		.uleb128 0x5
 11162 01d5 49       		.uleb128 0x49
 11163 01d6 13       		.uleb128 0x13
 11164 01d7 00       		.byte	0
 11165 01d8 00       		.byte	0
 11166 01d9 26       		.uleb128 0x26
 11167 01da 34       		.uleb128 0x34
 11168 01db 00       		.byte	0
 11169 01dc 03       		.uleb128 0x3
 11170 01dd 0E       		.uleb128 0xe
 11171 01de 3A       		.uleb128 0x3a
 11172 01df 0B       		.uleb128 0xb
 11173 01e0 3B       		.uleb128 0x3b
 11174 01e1 05       		.uleb128 0x5
 11175 01e2 49       		.uleb128 0x49
 11176 01e3 13       		.uleb128 0x13
 11177 01e4 00       		.byte	0
 11178 01e5 00       		.byte	0
 11179 01e6 27       		.uleb128 0x27
 11180 01e7 0B       		.uleb128 0xb
ARM GAS  C:\Users\jo\AppData\Local\Temp\ccQTqoh0.s 			page 200


 11181 01e8 01       		.byte	0x1
 11182 01e9 00       		.byte	0
 11183 01ea 00       		.byte	0
 11184 01eb 28       		.uleb128 0x28
 11185 01ec 2E       		.uleb128 0x2e
 11186 01ed 01       		.byte	0x1
 11187 01ee 3F       		.uleb128 0x3f
 11188 01ef 19       		.uleb128 0x19
 11189 01f0 03       		.uleb128 0x3
 11190 01f1 0E       		.uleb128 0xe
 11191 01f2 3A       		.uleb128 0x3a
 11192 01f3 0B       		.uleb128 0xb
 11193 01f4 3B       		.uleb128 0x3b
 11194 01f5 05       		.uleb128 0x5
 11195 01f6 27       		.uleb128 0x27
 11196 01f7 19       		.uleb128 0x19
 11197 01f8 49       		.uleb128 0x49
 11198 01f9 13       		.uleb128 0x13
 11199 01fa 20       		.uleb128 0x20
 11200 01fb 0B       		.uleb128 0xb
 11201 01fc 01       		.uleb128 0x1
 11202 01fd 13       		.uleb128 0x13
 11203 01fe 00       		.byte	0
 11204 01ff 00       		.byte	0
 11205 0200 29       		.uleb128 0x29
 11206 0201 34       		.uleb128 0x34
 11207 0202 00       		.byte	0
 11208 0203 03       		.uleb128 0x3
 11209 0204 08       		.uleb128 0x8
 11210 0205 3A       		.uleb128 0x3a
 11211 0206 0B       		.uleb128 0xb
 11212 0207 3B       		.uleb128 0x3b
 11213 0208 05       		.uleb128 0x5
 11214 0209 49       		.uleb128 0x49
 11215 020a 13       		.uleb128 0x13
 11216 020b 00       		.byte	0
 11217 020c 00       		.byte	0
 11218 020d 2A       		.uleb128 0x2a
 11219 020e 2E       		.uleb128 0x2e
 11220 020f 01       		.byte	0x1
 11221 0210 03       		.uleb128 0x3
 11222 0211 0E       		.uleb128 0xe
 11223 0212 3A       		.uleb128 0x3a
 11224 0213 0B       		.uleb128 0xb
 11225 0214 3B       		.uleb128 0x3b
 11226 0215 0B       		.uleb128 0xb
 11227 0216 27       		.uleb128 0x27
 11228 0217 19       		.uleb128 0x19
 11229 0218 49       		.uleb128 0x49
 11230 0219 13       		.uleb128 0x13
 11231 021a 20       		.uleb128 0x20
 11232 021b 0B       		.uleb128 0xb
 11233 021c 01       		.uleb128 0x1
 11234 021d 13       		.uleb128 0x13
 11235 021e 00       		.byte	0
 11236 021f 00       		.byte	0
 11237 0220 2B       		.uleb128 0x2b
ARM GAS  C:\Users\jo\AppData\Local\Temp\ccQTqoh0.s 			page 201


 11238 0221 05       		.uleb128 0x5
 11239 0222 00       		.byte	0
 11240 0223 03       		.uleb128 0x3
 11241 0224 08       		.uleb128 0x8
 11242 0225 3A       		.uleb128 0x3a
 11243 0226 0B       		.uleb128 0xb
 11244 0227 3B       		.uleb128 0x3b
 11245 0228 0B       		.uleb128 0xb
 11246 0229 49       		.uleb128 0x49
 11247 022a 13       		.uleb128 0x13
 11248 022b 00       		.byte	0
 11249 022c 00       		.byte	0
 11250 022d 2C       		.uleb128 0x2c
 11251 022e 18       		.uleb128 0x18
 11252 022f 00       		.byte	0
 11253 0230 00       		.byte	0
 11254 0231 00       		.byte	0
 11255 0232 2D       		.uleb128 0x2d
 11256 0233 34       		.uleb128 0x34
 11257 0234 00       		.byte	0
 11258 0235 03       		.uleb128 0x3
 11259 0236 08       		.uleb128 0x8
 11260 0237 3A       		.uleb128 0x3a
 11261 0238 0B       		.uleb128 0xb
 11262 0239 3B       		.uleb128 0x3b
 11263 023a 0B       		.uleb128 0xb
 11264 023b 49       		.uleb128 0x49
 11265 023c 13       		.uleb128 0x13
 11266 023d 00       		.byte	0
 11267 023e 00       		.byte	0
 11268 023f 2E       		.uleb128 0x2e
 11269 0240 34       		.uleb128 0x34
 11270 0241 00       		.byte	0
 11271 0242 03       		.uleb128 0x3
 11272 0243 0E       		.uleb128 0xe
 11273 0244 3A       		.uleb128 0x3a
 11274 0245 0B       		.uleb128 0xb
 11275 0246 3B       		.uleb128 0x3b
 11276 0247 0B       		.uleb128 0xb
 11277 0248 49       		.uleb128 0x49
 11278 0249 13       		.uleb128 0x13
 11279 024a 00       		.byte	0
 11280 024b 00       		.byte	0
 11281 024c 2F       		.uleb128 0x2f
 11282 024d 2E       		.uleb128 0x2e
 11283 024e 01       		.byte	0x1
 11284 024f 03       		.uleb128 0x3
 11285 0250 0E       		.uleb128 0xe
 11286 0251 3A       		.uleb128 0x3a
 11287 0252 0B       		.uleb128 0xb
 11288 0253 3B       		.uleb128 0x3b
 11289 0254 05       		.uleb128 0x5
 11290 0255 27       		.uleb128 0x27
 11291 0256 19       		.uleb128 0x19
 11292 0257 49       		.uleb128 0x49
 11293 0258 13       		.uleb128 0x13
 11294 0259 11       		.uleb128 0x11
ARM GAS  C:\Users\jo\AppData\Local\Temp\ccQTqoh0.s 			page 202


 11295 025a 01       		.uleb128 0x1
 11296 025b 12       		.uleb128 0x12
 11297 025c 06       		.uleb128 0x6
 11298 025d 40       		.uleb128 0x40
 11299 025e 18       		.uleb128 0x18
 11300 025f 9742     		.uleb128 0x2117
 11301 0261 19       		.uleb128 0x19
 11302 0262 01       		.uleb128 0x1
 11303 0263 13       		.uleb128 0x13
 11304 0264 00       		.byte	0
 11305 0265 00       		.byte	0
 11306 0266 30       		.uleb128 0x30
 11307 0267 05       		.uleb128 0x5
 11308 0268 00       		.byte	0
 11309 0269 03       		.uleb128 0x3
 11310 026a 08       		.uleb128 0x8
 11311 026b 3A       		.uleb128 0x3a
 11312 026c 0B       		.uleb128 0xb
 11313 026d 3B       		.uleb128 0x3b
 11314 026e 05       		.uleb128 0x5
 11315 026f 49       		.uleb128 0x49
 11316 0270 13       		.uleb128 0x13
 11317 0271 02       		.uleb128 0x2
 11318 0272 17       		.uleb128 0x17
 11319 0273 00       		.byte	0
 11320 0274 00       		.byte	0
 11321 0275 31       		.uleb128 0x31
 11322 0276 05       		.uleb128 0x5
 11323 0277 00       		.byte	0
 11324 0278 03       		.uleb128 0x3
 11325 0279 08       		.uleb128 0x8
 11326 027a 3A       		.uleb128 0x3a
 11327 027b 0B       		.uleb128 0xb
 11328 027c 3B       		.uleb128 0x3b
 11329 027d 05       		.uleb128 0x5
 11330 027e 49       		.uleb128 0x49
 11331 027f 13       		.uleb128 0x13
 11332 0280 02       		.uleb128 0x2
 11333 0281 18       		.uleb128 0x18
 11334 0282 00       		.byte	0
 11335 0283 00       		.byte	0
 11336 0284 32       		.uleb128 0x32
 11337 0285 34       		.uleb128 0x34
 11338 0286 00       		.byte	0
 11339 0287 03       		.uleb128 0x3
 11340 0288 08       		.uleb128 0x8
 11341 0289 3A       		.uleb128 0x3a
 11342 028a 0B       		.uleb128 0xb
 11343 028b 3B       		.uleb128 0x3b
 11344 028c 05       		.uleb128 0x5
 11345 028d 49       		.uleb128 0x49
 11346 028e 13       		.uleb128 0x13
 11347 028f 02       		.uleb128 0x2
 11348 0290 17       		.uleb128 0x17
 11349 0291 00       		.byte	0
 11350 0292 00       		.byte	0
 11351 0293 33       		.uleb128 0x33
ARM GAS  C:\Users\jo\AppData\Local\Temp\ccQTqoh0.s 			page 203


 11352 0294 34       		.uleb128 0x34
 11353 0295 00       		.byte	0
 11354 0296 03       		.uleb128 0x3
 11355 0297 08       		.uleb128 0x8
 11356 0298 3A       		.uleb128 0x3a
 11357 0299 0B       		.uleb128 0xb
 11358 029a 3B       		.uleb128 0x3b
 11359 029b 05       		.uleb128 0x5
 11360 029c 49       		.uleb128 0x49
 11361 029d 13       		.uleb128 0x13
 11362 029e 02       		.uleb128 0x2
 11363 029f 18       		.uleb128 0x18
 11364 02a0 00       		.byte	0
 11365 02a1 00       		.byte	0
 11366 02a2 34       		.uleb128 0x34
 11367 02a3 0A       		.uleb128 0xa
 11368 02a4 00       		.byte	0
 11369 02a5 03       		.uleb128 0x3
 11370 02a6 0E       		.uleb128 0xe
 11371 02a7 3A       		.uleb128 0x3a
 11372 02a8 0B       		.uleb128 0xb
 11373 02a9 3B       		.uleb128 0x3b
 11374 02aa 05       		.uleb128 0x5
 11375 02ab 11       		.uleb128 0x11
 11376 02ac 01       		.uleb128 0x1
 11377 02ad 00       		.byte	0
 11378 02ae 00       		.byte	0
 11379 02af 35       		.uleb128 0x35
 11380 02b0 2E       		.uleb128 0x2e
 11381 02b1 01       		.byte	0x1
 11382 02b2 31       		.uleb128 0x31
 11383 02b3 13       		.uleb128 0x13
 11384 02b4 11       		.uleb128 0x11
 11385 02b5 01       		.uleb128 0x1
 11386 02b6 12       		.uleb128 0x12
 11387 02b7 06       		.uleb128 0x6
 11388 02b8 40       		.uleb128 0x40
 11389 02b9 18       		.uleb128 0x18
 11390 02ba 9742     		.uleb128 0x2117
 11391 02bc 19       		.uleb128 0x19
 11392 02bd 01       		.uleb128 0x1
 11393 02be 13       		.uleb128 0x13
 11394 02bf 00       		.byte	0
 11395 02c0 00       		.byte	0
 11396 02c1 36       		.uleb128 0x36
 11397 02c2 05       		.uleb128 0x5
 11398 02c3 00       		.byte	0
 11399 02c4 31       		.uleb128 0x31
 11400 02c5 13       		.uleb128 0x13
 11401 02c6 02       		.uleb128 0x2
 11402 02c7 17       		.uleb128 0x17
 11403 02c8 00       		.byte	0
 11404 02c9 00       		.byte	0
 11405 02ca 37       		.uleb128 0x37
 11406 02cb 05       		.uleb128 0x5
 11407 02cc 00       		.byte	0
 11408 02cd 31       		.uleb128 0x31
ARM GAS  C:\Users\jo\AppData\Local\Temp\ccQTqoh0.s 			page 204


 11409 02ce 13       		.uleb128 0x13
 11410 02cf 02       		.uleb128 0x2
 11411 02d0 18       		.uleb128 0x18
 11412 02d1 00       		.byte	0
 11413 02d2 00       		.byte	0
 11414 02d3 38       		.uleb128 0x38
 11415 02d4 34       		.uleb128 0x34
 11416 02d5 00       		.byte	0
 11417 02d6 31       		.uleb128 0x31
 11418 02d7 13       		.uleb128 0x13
 11419 02d8 02       		.uleb128 0x2
 11420 02d9 18       		.uleb128 0x18
 11421 02da 00       		.byte	0
 11422 02db 00       		.byte	0
 11423 02dc 39       		.uleb128 0x39
 11424 02dd 05       		.uleb128 0x5
 11425 02de 00       		.byte	0
 11426 02df 31       		.uleb128 0x31
 11427 02e0 13       		.uleb128 0x13
 11428 02e1 00       		.byte	0
 11429 02e2 00       		.byte	0
 11430 02e3 3A       		.uleb128 0x3a
 11431 02e4 898201   		.uleb128 0x4109
 11432 02e7 01       		.byte	0x1
 11433 02e8 11       		.uleb128 0x11
 11434 02e9 01       		.uleb128 0x1
 11435 02ea 31       		.uleb128 0x31
 11436 02eb 13       		.uleb128 0x13
 11437 02ec 00       		.byte	0
 11438 02ed 00       		.byte	0
 11439 02ee 3B       		.uleb128 0x3b
 11440 02ef 8A8201   		.uleb128 0x410a
 11441 02f2 00       		.byte	0
 11442 02f3 02       		.uleb128 0x2
 11443 02f4 18       		.uleb128 0x18
 11444 02f5 9142     		.uleb128 0x2111
 11445 02f7 18       		.uleb128 0x18
 11446 02f8 00       		.byte	0
 11447 02f9 00       		.byte	0
 11448 02fa 3C       		.uleb128 0x3c
 11449 02fb 2E       		.uleb128 0x2e
 11450 02fc 00       		.byte	0
 11451 02fd 3F       		.uleb128 0x3f
 11452 02fe 19       		.uleb128 0x19
 11453 02ff 03       		.uleb128 0x3
 11454 0300 0E       		.uleb128 0xe
 11455 0301 3A       		.uleb128 0x3a
 11456 0302 0B       		.uleb128 0xb
 11457 0303 3B       		.uleb128 0x3b
 11458 0304 0B       		.uleb128 0xb
 11459 0305 27       		.uleb128 0x27
 11460 0306 19       		.uleb128 0x19
 11461 0307 11       		.uleb128 0x11
 11462 0308 01       		.uleb128 0x1
 11463 0309 12       		.uleb128 0x12
 11464 030a 06       		.uleb128 0x6
 11465 030b 40       		.uleb128 0x40
ARM GAS  C:\Users\jo\AppData\Local\Temp\ccQTqoh0.s 			page 205


 11466 030c 18       		.uleb128 0x18
 11467 030d 9742     		.uleb128 0x2117
 11468 030f 19       		.uleb128 0x19
 11469 0310 00       		.byte	0
 11470 0311 00       		.byte	0
 11471 0312 3D       		.uleb128 0x3d
 11472 0313 2E       		.uleb128 0x2e
 11473 0314 01       		.byte	0x1
 11474 0315 3F       		.uleb128 0x3f
 11475 0316 19       		.uleb128 0x19
 11476 0317 03       		.uleb128 0x3
 11477 0318 0E       		.uleb128 0xe
 11478 0319 3A       		.uleb128 0x3a
 11479 031a 0B       		.uleb128 0xb
 11480 031b 3B       		.uleb128 0x3b
 11481 031c 05       		.uleb128 0x5
 11482 031d 27       		.uleb128 0x27
 11483 031e 19       		.uleb128 0x19
 11484 031f 49       		.uleb128 0x49
 11485 0320 13       		.uleb128 0x13
 11486 0321 11       		.uleb128 0x11
 11487 0322 01       		.uleb128 0x1
 11488 0323 12       		.uleb128 0x12
 11489 0324 06       		.uleb128 0x6
 11490 0325 40       		.uleb128 0x40
 11491 0326 18       		.uleb128 0x18
 11492 0327 9742     		.uleb128 0x2117
 11493 0329 19       		.uleb128 0x19
 11494 032a 01       		.uleb128 0x1
 11495 032b 13       		.uleb128 0x13
 11496 032c 00       		.byte	0
 11497 032d 00       		.byte	0
 11498 032e 3E       		.uleb128 0x3e
 11499 032f 05       		.uleb128 0x5
 11500 0330 00       		.byte	0
 11501 0331 03       		.uleb128 0x3
 11502 0332 0E       		.uleb128 0xe
 11503 0333 3A       		.uleb128 0x3a
 11504 0334 0B       		.uleb128 0xb
 11505 0335 3B       		.uleb128 0x3b
 11506 0336 05       		.uleb128 0x5
 11507 0337 49       		.uleb128 0x49
 11508 0338 13       		.uleb128 0x13
 11509 0339 02       		.uleb128 0x2
 11510 033a 17       		.uleb128 0x17
 11511 033b 00       		.byte	0
 11512 033c 00       		.byte	0
 11513 033d 3F       		.uleb128 0x3f
 11514 033e 34       		.uleb128 0x34
 11515 033f 00       		.byte	0
 11516 0340 03       		.uleb128 0x3
 11517 0341 0E       		.uleb128 0xe
 11518 0342 3A       		.uleb128 0x3a
 11519 0343 0B       		.uleb128 0xb
 11520 0344 3B       		.uleb128 0x3b
 11521 0345 05       		.uleb128 0x5
 11522 0346 49       		.uleb128 0x49
ARM GAS  C:\Users\jo\AppData\Local\Temp\ccQTqoh0.s 			page 206


 11523 0347 13       		.uleb128 0x13
 11524 0348 1C       		.uleb128 0x1c
 11525 0349 0B       		.uleb128 0xb
 11526 034a 00       		.byte	0
 11527 034b 00       		.byte	0
 11528 034c 40       		.uleb128 0x40
 11529 034d 34       		.uleb128 0x34
 11530 034e 00       		.byte	0
 11531 034f 03       		.uleb128 0x3
 11532 0350 0E       		.uleb128 0xe
 11533 0351 3A       		.uleb128 0x3a
 11534 0352 0B       		.uleb128 0xb
 11535 0353 3B       		.uleb128 0x3b
 11536 0354 05       		.uleb128 0x5
 11537 0355 49       		.uleb128 0x49
 11538 0356 13       		.uleb128 0x13
 11539 0357 02       		.uleb128 0x2
 11540 0358 17       		.uleb128 0x17
 11541 0359 00       		.byte	0
 11542 035a 00       		.byte	0
 11543 035b 41       		.uleb128 0x41
 11544 035c 1D       		.uleb128 0x1d
 11545 035d 01       		.byte	0x1
 11546 035e 31       		.uleb128 0x31
 11547 035f 13       		.uleb128 0x13
 11548 0360 11       		.uleb128 0x11
 11549 0361 01       		.uleb128 0x1
 11550 0362 12       		.uleb128 0x12
 11551 0363 06       		.uleb128 0x6
 11552 0364 58       		.uleb128 0x58
 11553 0365 0B       		.uleb128 0xb
 11554 0366 59       		.uleb128 0x59
 11555 0367 05       		.uleb128 0x5
 11556 0368 01       		.uleb128 0x1
 11557 0369 13       		.uleb128 0x13
 11558 036a 00       		.byte	0
 11559 036b 00       		.byte	0
 11560 036c 42       		.uleb128 0x42
 11561 036d 898201   		.uleb128 0x4109
 11562 0370 00       		.byte	0
 11563 0371 11       		.uleb128 0x11
 11564 0372 01       		.uleb128 0x1
 11565 0373 31       		.uleb128 0x31
 11566 0374 13       		.uleb128 0x13
 11567 0375 00       		.byte	0
 11568 0376 00       		.byte	0
 11569 0377 43       		.uleb128 0x43
 11570 0378 898201   		.uleb128 0x4109
 11571 037b 01       		.byte	0x1
 11572 037c 11       		.uleb128 0x11
 11573 037d 01       		.uleb128 0x1
 11574 037e 31       		.uleb128 0x31
 11575 037f 13       		.uleb128 0x13
 11576 0380 01       		.uleb128 0x1
 11577 0381 13       		.uleb128 0x13
 11578 0382 00       		.byte	0
 11579 0383 00       		.byte	0
ARM GAS  C:\Users\jo\AppData\Local\Temp\ccQTqoh0.s 			page 207


 11580 0384 44       		.uleb128 0x44
 11581 0385 0B       		.uleb128 0xb
 11582 0386 01       		.byte	0x1
 11583 0387 55       		.uleb128 0x55
 11584 0388 17       		.uleb128 0x17
 11585 0389 00       		.byte	0
 11586 038a 00       		.byte	0
 11587 038b 45       		.uleb128 0x45
 11588 038c 34       		.uleb128 0x34
 11589 038d 00       		.byte	0
 11590 038e 03       		.uleb128 0x3
 11591 038f 0E       		.uleb128 0xe
 11592 0390 3A       		.uleb128 0x3a
 11593 0391 0B       		.uleb128 0xb
 11594 0392 3B       		.uleb128 0x3b
 11595 0393 05       		.uleb128 0x5
 11596 0394 49       		.uleb128 0x49
 11597 0395 13       		.uleb128 0x13
 11598 0396 02       		.uleb128 0x2
 11599 0397 18       		.uleb128 0x18
 11600 0398 00       		.byte	0
 11601 0399 00       		.byte	0
 11602 039a 46       		.uleb128 0x46
 11603 039b 34       		.uleb128 0x34
 11604 039c 00       		.byte	0
 11605 039d 31       		.uleb128 0x31
 11606 039e 13       		.uleb128 0x13
 11607 039f 02       		.uleb128 0x2
 11608 03a0 17       		.uleb128 0x17
 11609 03a1 00       		.byte	0
 11610 03a2 00       		.byte	0
 11611 03a3 47       		.uleb128 0x47
 11612 03a4 0B       		.uleb128 0xb
 11613 03a5 01       		.byte	0x1
 11614 03a6 55       		.uleb128 0x55
 11615 03a7 17       		.uleb128 0x17
 11616 03a8 01       		.uleb128 0x1
 11617 03a9 13       		.uleb128 0x13
 11618 03aa 00       		.byte	0
 11619 03ab 00       		.byte	0
 11620 03ac 48       		.uleb128 0x48
 11621 03ad 34       		.uleb128 0x34
 11622 03ae 00       		.byte	0
 11623 03af 31       		.uleb128 0x31
 11624 03b0 13       		.uleb128 0x13
 11625 03b1 00       		.byte	0
 11626 03b2 00       		.byte	0
 11627 03b3 49       		.uleb128 0x49
 11628 03b4 898201   		.uleb128 0x4109
 11629 03b7 01       		.byte	0x1
 11630 03b8 11       		.uleb128 0x11
 11631 03b9 01       		.uleb128 0x1
 11632 03ba 9542     		.uleb128 0x2115
 11633 03bc 19       		.uleb128 0x19
 11634 03bd 31       		.uleb128 0x31
 11635 03be 13       		.uleb128 0x13
 11636 03bf 00       		.byte	0
ARM GAS  C:\Users\jo\AppData\Local\Temp\ccQTqoh0.s 			page 208


 11637 03c0 00       		.byte	0
 11638 03c1 4A       		.uleb128 0x4a
 11639 03c2 2E       		.uleb128 0x2e
 11640 03c3 01       		.byte	0x1
 11641 03c4 3F       		.uleb128 0x3f
 11642 03c5 19       		.uleb128 0x19
 11643 03c6 03       		.uleb128 0x3
 11644 03c7 0E       		.uleb128 0xe
 11645 03c8 3A       		.uleb128 0x3a
 11646 03c9 0B       		.uleb128 0xb
 11647 03ca 3B       		.uleb128 0x3b
 11648 03cb 05       		.uleb128 0x5
 11649 03cc 27       		.uleb128 0x27
 11650 03cd 19       		.uleb128 0x19
 11651 03ce 11       		.uleb128 0x11
 11652 03cf 01       		.uleb128 0x1
 11653 03d0 12       		.uleb128 0x12
 11654 03d1 06       		.uleb128 0x6
 11655 03d2 40       		.uleb128 0x40
 11656 03d3 18       		.uleb128 0x18
 11657 03d4 9742     		.uleb128 0x2117
 11658 03d6 19       		.uleb128 0x19
 11659 03d7 01       		.uleb128 0x1
 11660 03d8 13       		.uleb128 0x13
 11661 03d9 00       		.byte	0
 11662 03da 00       		.byte	0
 11663 03db 4B       		.uleb128 0x4b
 11664 03dc 0B       		.uleb128 0xb
 11665 03dd 01       		.byte	0x1
 11666 03de 11       		.uleb128 0x11
 11667 03df 01       		.uleb128 0x1
 11668 03e0 12       		.uleb128 0x12
 11669 03e1 06       		.uleb128 0x6
 11670 03e2 00       		.byte	0
 11671 03e3 00       		.byte	0
 11672 03e4 4C       		.uleb128 0x4c
 11673 03e5 05       		.uleb128 0x5
 11674 03e6 00       		.byte	0
 11675 03e7 03       		.uleb128 0x3
 11676 03e8 0E       		.uleb128 0xe
 11677 03e9 3A       		.uleb128 0x3a
 11678 03ea 0B       		.uleb128 0xb
 11679 03eb 3B       		.uleb128 0x3b
 11680 03ec 05       		.uleb128 0x5
 11681 03ed 49       		.uleb128 0x49
 11682 03ee 13       		.uleb128 0x13
 11683 03ef 02       		.uleb128 0x2
 11684 03f0 18       		.uleb128 0x18
 11685 03f1 00       		.byte	0
 11686 03f2 00       		.byte	0
 11687 03f3 4D       		.uleb128 0x4d
 11688 03f4 0A       		.uleb128 0xa
 11689 03f5 00       		.byte	0
 11690 03f6 03       		.uleb128 0x3
 11691 03f7 0E       		.uleb128 0xe
 11692 03f8 3A       		.uleb128 0x3a
 11693 03f9 0B       		.uleb128 0xb
ARM GAS  C:\Users\jo\AppData\Local\Temp\ccQTqoh0.s 			page 209


 11694 03fa 3B       		.uleb128 0x3b
 11695 03fb 05       		.uleb128 0x5
 11696 03fc 00       		.byte	0
 11697 03fd 00       		.byte	0
 11698 03fe 4E       		.uleb128 0x4e
 11699 03ff 898201   		.uleb128 0x4109
 11700 0402 01       		.byte	0x1
 11701 0403 11       		.uleb128 0x11
 11702 0404 01       		.uleb128 0x1
 11703 0405 9342     		.uleb128 0x2113
 11704 0407 18       		.uleb128 0x18
 11705 0408 01       		.uleb128 0x1
 11706 0409 13       		.uleb128 0x13
 11707 040a 00       		.byte	0
 11708 040b 00       		.byte	0
 11709 040c 4F       		.uleb128 0x4f
 11710 040d 898201   		.uleb128 0x4109
 11711 0410 01       		.byte	0x1
 11712 0411 11       		.uleb128 0x11
 11713 0412 01       		.uleb128 0x1
 11714 0413 01       		.uleb128 0x1
 11715 0414 13       		.uleb128 0x13
 11716 0415 00       		.byte	0
 11717 0416 00       		.byte	0
 11718 0417 50       		.uleb128 0x50
 11719 0418 2E       		.uleb128 0x2e
 11720 0419 01       		.byte	0x1
 11721 041a 03       		.uleb128 0x3
 11722 041b 0E       		.uleb128 0xe
 11723 041c 3A       		.uleb128 0x3a
 11724 041d 0B       		.uleb128 0xb
 11725 041e 3B       		.uleb128 0x3b
 11726 041f 0B       		.uleb128 0xb
 11727 0420 27       		.uleb128 0x27
 11728 0421 19       		.uleb128 0x19
 11729 0422 49       		.uleb128 0x49
 11730 0423 13       		.uleb128 0x13
 11731 0424 11       		.uleb128 0x11
 11732 0425 01       		.uleb128 0x1
 11733 0426 12       		.uleb128 0x12
 11734 0427 06       		.uleb128 0x6
 11735 0428 40       		.uleb128 0x40
 11736 0429 18       		.uleb128 0x18
 11737 042a 9742     		.uleb128 0x2117
 11738 042c 19       		.uleb128 0x19
 11739 042d 01       		.uleb128 0x1
 11740 042e 13       		.uleb128 0x13
 11741 042f 00       		.byte	0
 11742 0430 00       		.byte	0
 11743 0431 51       		.uleb128 0x51
 11744 0432 05       		.uleb128 0x5
 11745 0433 00       		.byte	0
 11746 0434 03       		.uleb128 0x3
 11747 0435 08       		.uleb128 0x8
 11748 0436 3A       		.uleb128 0x3a
 11749 0437 0B       		.uleb128 0xb
 11750 0438 3B       		.uleb128 0x3b
ARM GAS  C:\Users\jo\AppData\Local\Temp\ccQTqoh0.s 			page 210


 11751 0439 0B       		.uleb128 0xb
 11752 043a 49       		.uleb128 0x49
 11753 043b 13       		.uleb128 0x13
 11754 043c 02       		.uleb128 0x2
 11755 043d 17       		.uleb128 0x17
 11756 043e 00       		.byte	0
 11757 043f 00       		.byte	0
 11758 0440 52       		.uleb128 0x52
 11759 0441 05       		.uleb128 0x5
 11760 0442 00       		.byte	0
 11761 0443 03       		.uleb128 0x3
 11762 0444 0E       		.uleb128 0xe
 11763 0445 3A       		.uleb128 0x3a
 11764 0446 0B       		.uleb128 0xb
 11765 0447 3B       		.uleb128 0x3b
 11766 0448 0B       		.uleb128 0xb
 11767 0449 49       		.uleb128 0x49
 11768 044a 13       		.uleb128 0x13
 11769 044b 02       		.uleb128 0x2
 11770 044c 17       		.uleb128 0x17
 11771 044d 00       		.byte	0
 11772 044e 00       		.byte	0
 11773 044f 53       		.uleb128 0x53
 11774 0450 34       		.uleb128 0x34
 11775 0451 00       		.byte	0
 11776 0452 03       		.uleb128 0x3
 11777 0453 08       		.uleb128 0x8
 11778 0454 3A       		.uleb128 0x3a
 11779 0455 0B       		.uleb128 0xb
 11780 0456 3B       		.uleb128 0x3b
 11781 0457 0B       		.uleb128 0xb
 11782 0458 49       		.uleb128 0x49
 11783 0459 13       		.uleb128 0x13
 11784 045a 02       		.uleb128 0x2
 11785 045b 17       		.uleb128 0x17
 11786 045c 00       		.byte	0
 11787 045d 00       		.byte	0
 11788 045e 54       		.uleb128 0x54
 11789 045f 1D       		.uleb128 0x1d
 11790 0460 01       		.byte	0x1
 11791 0461 31       		.uleb128 0x31
 11792 0462 13       		.uleb128 0x13
 11793 0463 11       		.uleb128 0x11
 11794 0464 01       		.uleb128 0x1
 11795 0465 12       		.uleb128 0x12
 11796 0466 06       		.uleb128 0x6
 11797 0467 58       		.uleb128 0x58
 11798 0468 0B       		.uleb128 0xb
 11799 0469 59       		.uleb128 0x59
 11800 046a 0B       		.uleb128 0xb
 11801 046b 01       		.uleb128 0x1
 11802 046c 13       		.uleb128 0x13
 11803 046d 00       		.byte	0
 11804 046e 00       		.byte	0
 11805 046f 55       		.uleb128 0x55
 11806 0470 05       		.uleb128 0x5
 11807 0471 00       		.byte	0
ARM GAS  C:\Users\jo\AppData\Local\Temp\ccQTqoh0.s 			page 211


 11808 0472 31       		.uleb128 0x31
 11809 0473 13       		.uleb128 0x13
 11810 0474 1C       		.uleb128 0x1c
 11811 0475 0B       		.uleb128 0xb
 11812 0476 00       		.byte	0
 11813 0477 00       		.byte	0
 11814 0478 56       		.uleb128 0x56
 11815 0479 898201   		.uleb128 0x4109
 11816 047c 01       		.byte	0x1
 11817 047d 11       		.uleb128 0x11
 11818 047e 01       		.uleb128 0x1
 11819 047f 9342     		.uleb128 0x2113
 11820 0481 18       		.uleb128 0x18
 11821 0482 00       		.byte	0
 11822 0483 00       		.byte	0
 11823 0484 57       		.uleb128 0x57
 11824 0485 2E       		.uleb128 0x2e
 11825 0486 01       		.byte	0x1
 11826 0487 3F       		.uleb128 0x3f
 11827 0488 19       		.uleb128 0x19
 11828 0489 03       		.uleb128 0x3
 11829 048a 0E       		.uleb128 0xe
 11830 048b 3A       		.uleb128 0x3a
 11831 048c 0B       		.uleb128 0xb
 11832 048d 3B       		.uleb128 0x3b
 11833 048e 0B       		.uleb128 0xb
 11834 048f 27       		.uleb128 0x27
 11835 0490 19       		.uleb128 0x19
 11836 0491 11       		.uleb128 0x11
 11837 0492 01       		.uleb128 0x1
 11838 0493 12       		.uleb128 0x12
 11839 0494 06       		.uleb128 0x6
 11840 0495 40       		.uleb128 0x40
 11841 0496 18       		.uleb128 0x18
 11842 0497 9742     		.uleb128 0x2117
 11843 0499 19       		.uleb128 0x19
 11844 049a 01       		.uleb128 0x1
 11845 049b 13       		.uleb128 0x13
 11846 049c 00       		.byte	0
 11847 049d 00       		.byte	0
 11848 049e 58       		.uleb128 0x58
 11849 049f 898201   		.uleb128 0x4109
 11850 04a2 00       		.byte	0
 11851 04a3 11       		.uleb128 0x11
 11852 04a4 01       		.uleb128 0x1
 11853 04a5 9542     		.uleb128 0x2115
 11854 04a7 19       		.uleb128 0x19
 11855 04a8 31       		.uleb128 0x31
 11856 04a9 13       		.uleb128 0x13
 11857 04aa 00       		.byte	0
 11858 04ab 00       		.byte	0
 11859 04ac 59       		.uleb128 0x59
 11860 04ad 898201   		.uleb128 0x4109
 11861 04b0 01       		.byte	0x1
 11862 04b1 11       		.uleb128 0x11
 11863 04b2 01       		.uleb128 0x1
 11864 04b3 9542     		.uleb128 0x2115
ARM GAS  C:\Users\jo\AppData\Local\Temp\ccQTqoh0.s 			page 212


 11865 04b5 19       		.uleb128 0x19
 11866 04b6 01       		.uleb128 0x1
 11867 04b7 13       		.uleb128 0x13
 11868 04b8 00       		.byte	0
 11869 04b9 00       		.byte	0
 11870 04ba 5A       		.uleb128 0x5a
 11871 04bb 898201   		.uleb128 0x4109
 11872 04be 01       		.byte	0x1
 11873 04bf 11       		.uleb128 0x11
 11874 04c0 01       		.uleb128 0x1
 11875 04c1 9542     		.uleb128 0x2115
 11876 04c3 19       		.uleb128 0x19
 11877 04c4 31       		.uleb128 0x31
 11878 04c5 13       		.uleb128 0x13
 11879 04c6 01       		.uleb128 0x1
 11880 04c7 13       		.uleb128 0x13
 11881 04c8 00       		.byte	0
 11882 04c9 00       		.byte	0
 11883 04ca 5B       		.uleb128 0x5b
 11884 04cb 1D       		.uleb128 0x1d
 11885 04cc 01       		.byte	0x1
 11886 04cd 31       		.uleb128 0x31
 11887 04ce 13       		.uleb128 0x13
 11888 04cf 52       		.uleb128 0x52
 11889 04d0 01       		.uleb128 0x1
 11890 04d1 55       		.uleb128 0x55
 11891 04d2 17       		.uleb128 0x17
 11892 04d3 58       		.uleb128 0x58
 11893 04d4 0B       		.uleb128 0xb
 11894 04d5 59       		.uleb128 0x59
 11895 04d6 05       		.uleb128 0x5
 11896 04d7 01       		.uleb128 0x1
 11897 04d8 13       		.uleb128 0x13
 11898 04d9 00       		.byte	0
 11899 04da 00       		.byte	0
 11900 04db 5C       		.uleb128 0x5c
 11901 04dc 1D       		.uleb128 0x1d
 11902 04dd 01       		.byte	0x1
 11903 04de 31       		.uleb128 0x31
 11904 04df 13       		.uleb128 0x13
 11905 04e0 11       		.uleb128 0x11
 11906 04e1 01       		.uleb128 0x1
 11907 04e2 12       		.uleb128 0x12
 11908 04e3 06       		.uleb128 0x6
 11909 04e4 58       		.uleb128 0x58
 11910 04e5 0B       		.uleb128 0xb
 11911 04e6 59       		.uleb128 0x59
 11912 04e7 05       		.uleb128 0x5
 11913 04e8 00       		.byte	0
 11914 04e9 00       		.byte	0
 11915 04ea 5D       		.uleb128 0x5d
 11916 04eb 34       		.uleb128 0x34
 11917 04ec 00       		.byte	0
 11918 04ed 03       		.uleb128 0x3
 11919 04ee 0E       		.uleb128 0xe
 11920 04ef 3A       		.uleb128 0x3a
 11921 04f0 0B       		.uleb128 0xb
ARM GAS  C:\Users\jo\AppData\Local\Temp\ccQTqoh0.s 			page 213


 11922 04f1 3B       		.uleb128 0x3b
 11923 04f2 0B       		.uleb128 0xb
 11924 04f3 49       		.uleb128 0x49
 11925 04f4 13       		.uleb128 0x13
 11926 04f5 02       		.uleb128 0x2
 11927 04f6 18       		.uleb128 0x18
 11928 04f7 00       		.byte	0
 11929 04f8 00       		.byte	0
 11930 04f9 5E       		.uleb128 0x5e
 11931 04fa 34       		.uleb128 0x34
 11932 04fb 00       		.byte	0
 11933 04fc 03       		.uleb128 0x3
 11934 04fd 0E       		.uleb128 0xe
 11935 04fe 3A       		.uleb128 0x3a
 11936 04ff 0B       		.uleb128 0xb
 11937 0500 3B       		.uleb128 0x3b
 11938 0501 05       		.uleb128 0x5
 11939 0502 49       		.uleb128 0x49
 11940 0503 13       		.uleb128 0x13
 11941 0504 3F       		.uleb128 0x3f
 11942 0505 19       		.uleb128 0x19
 11943 0506 3C       		.uleb128 0x3c
 11944 0507 19       		.uleb128 0x19
 11945 0508 00       		.byte	0
 11946 0509 00       		.byte	0
 11947 050a 5F       		.uleb128 0x5f
 11948 050b 34       		.uleb128 0x34
 11949 050c 00       		.byte	0
 11950 050d 03       		.uleb128 0x3
 11951 050e 08       		.uleb128 0x8
 11952 050f 3A       		.uleb128 0x3a
 11953 0510 0B       		.uleb128 0xb
 11954 0511 3B       		.uleb128 0x3b
 11955 0512 05       		.uleb128 0x5
 11956 0513 49       		.uleb128 0x49
 11957 0514 13       		.uleb128 0x13
 11958 0515 3F       		.uleb128 0x3f
 11959 0516 19       		.uleb128 0x19
 11960 0517 3C       		.uleb128 0x3c
 11961 0518 19       		.uleb128 0x19
 11962 0519 00       		.byte	0
 11963 051a 00       		.byte	0
 11964 051b 60       		.uleb128 0x60
 11965 051c 34       		.uleb128 0x34
 11966 051d 00       		.byte	0
 11967 051e 03       		.uleb128 0x3
 11968 051f 0E       		.uleb128 0xe
 11969 0520 3A       		.uleb128 0x3a
 11970 0521 0B       		.uleb128 0xb
 11971 0522 3B       		.uleb128 0x3b
 11972 0523 0B       		.uleb128 0xb
 11973 0524 49       		.uleb128 0x49
 11974 0525 13       		.uleb128 0x13
 11975 0526 3F       		.uleb128 0x3f
 11976 0527 19       		.uleb128 0x19
 11977 0528 3C       		.uleb128 0x3c
 11978 0529 19       		.uleb128 0x19
ARM GAS  C:\Users\jo\AppData\Local\Temp\ccQTqoh0.s 			page 214


 11979 052a 00       		.byte	0
 11980 052b 00       		.byte	0
 11981 052c 61       		.uleb128 0x61
 11982 052d 34       		.uleb128 0x34
 11983 052e 00       		.byte	0
 11984 052f 03       		.uleb128 0x3
 11985 0530 0E       		.uleb128 0xe
 11986 0531 3A       		.uleb128 0x3a
 11987 0532 0B       		.uleb128 0xb
 11988 0533 3B       		.uleb128 0x3b
 11989 0534 0B       		.uleb128 0xb
 11990 0535 49       		.uleb128 0x49
 11991 0536 13       		.uleb128 0x13
 11992 0537 3F       		.uleb128 0x3f
 11993 0538 19       		.uleb128 0x19
 11994 0539 02       		.uleb128 0x2
 11995 053a 18       		.uleb128 0x18
 11996 053b 00       		.byte	0
 11997 053c 00       		.byte	0
 11998 053d 62       		.uleb128 0x62
 11999 053e 2E       		.uleb128 0x2e
 12000 053f 01       		.byte	0x1
 12001 0540 3F       		.uleb128 0x3f
 12002 0541 19       		.uleb128 0x19
 12003 0542 03       		.uleb128 0x3
 12004 0543 0E       		.uleb128 0xe
 12005 0544 3A       		.uleb128 0x3a
 12006 0545 0B       		.uleb128 0xb
 12007 0546 3B       		.uleb128 0x3b
 12008 0547 0B       		.uleb128 0xb
 12009 0548 27       		.uleb128 0x27
 12010 0549 19       		.uleb128 0x19
 12011 054a 49       		.uleb128 0x49
 12012 054b 13       		.uleb128 0x13
 12013 054c 3C       		.uleb128 0x3c
 12014 054d 19       		.uleb128 0x19
 12015 054e 01       		.uleb128 0x1
 12016 054f 13       		.uleb128 0x13
 12017 0550 00       		.byte	0
 12018 0551 00       		.byte	0
 12019 0552 63       		.uleb128 0x63
 12020 0553 2E       		.uleb128 0x2e
 12021 0554 01       		.byte	0x1
 12022 0555 3F       		.uleb128 0x3f
 12023 0556 19       		.uleb128 0x19
 12024 0557 03       		.uleb128 0x3
 12025 0558 0E       		.uleb128 0xe
 12026 0559 3A       		.uleb128 0x3a
 12027 055a 0B       		.uleb128 0xb
 12028 055b 3B       		.uleb128 0x3b
 12029 055c 05       		.uleb128 0x5
 12030 055d 27       		.uleb128 0x27
 12031 055e 19       		.uleb128 0x19
 12032 055f 3C       		.uleb128 0x3c
 12033 0560 19       		.uleb128 0x19
 12034 0561 01       		.uleb128 0x1
 12035 0562 13       		.uleb128 0x13
ARM GAS  C:\Users\jo\AppData\Local\Temp\ccQTqoh0.s 			page 215


 12036 0563 00       		.byte	0
 12037 0564 00       		.byte	0
 12038 0565 64       		.uleb128 0x64
 12039 0566 2E       		.uleb128 0x2e
 12040 0567 00       		.byte	0
 12041 0568 3F       		.uleb128 0x3f
 12042 0569 19       		.uleb128 0x19
 12043 056a 03       		.uleb128 0x3
 12044 056b 0E       		.uleb128 0xe
 12045 056c 3A       		.uleb128 0x3a
 12046 056d 0B       		.uleb128 0xb
 12047 056e 3B       		.uleb128 0x3b
 12048 056f 05       		.uleb128 0x5
 12049 0570 27       		.uleb128 0x27
 12050 0571 19       		.uleb128 0x19
 12051 0572 3C       		.uleb128 0x3c
 12052 0573 19       		.uleb128 0x19
 12053 0574 00       		.byte	0
 12054 0575 00       		.byte	0
 12055 0576 65       		.uleb128 0x65
 12056 0577 2E       		.uleb128 0x2e
 12057 0578 01       		.byte	0x1
 12058 0579 3F       		.uleb128 0x3f
 12059 057a 19       		.uleb128 0x19
 12060 057b 03       		.uleb128 0x3
 12061 057c 0E       		.uleb128 0xe
 12062 057d 3A       		.uleb128 0x3a
 12063 057e 0B       		.uleb128 0xb
 12064 057f 3B       		.uleb128 0x3b
 12065 0580 0B       		.uleb128 0xb
 12066 0581 27       		.uleb128 0x27
 12067 0582 19       		.uleb128 0x19
 12068 0583 3C       		.uleb128 0x3c
 12069 0584 19       		.uleb128 0x19
 12070 0585 01       		.uleb128 0x1
 12071 0586 13       		.uleb128 0x13
 12072 0587 00       		.byte	0
 12073 0588 00       		.byte	0
 12074 0589 66       		.uleb128 0x66
 12075 058a 2E       		.uleb128 0x2e
 12076 058b 01       		.byte	0x1
 12077 058c 3F       		.uleb128 0x3f
 12078 058d 19       		.uleb128 0x19
 12079 058e 03       		.uleb128 0x3
 12080 058f 0E       		.uleb128 0xe
 12081 0590 3A       		.uleb128 0x3a
 12082 0591 0B       		.uleb128 0xb
 12083 0592 3B       		.uleb128 0x3b
 12084 0593 05       		.uleb128 0x5
 12085 0594 27       		.uleb128 0x27
 12086 0595 19       		.uleb128 0x19
 12087 0596 49       		.uleb128 0x49
 12088 0597 13       		.uleb128 0x13
 12089 0598 3C       		.uleb128 0x3c
 12090 0599 19       		.uleb128 0x19
 12091 059a 01       		.uleb128 0x1
 12092 059b 13       		.uleb128 0x13
ARM GAS  C:\Users\jo\AppData\Local\Temp\ccQTqoh0.s 			page 216


 12093 059c 00       		.byte	0
 12094 059d 00       		.byte	0
 12095 059e 67       		.uleb128 0x67
 12096 059f 2E       		.uleb128 0x2e
 12097 05a0 01       		.byte	0x1
 12098 05a1 3F       		.uleb128 0x3f
 12099 05a2 19       		.uleb128 0x19
 12100 05a3 03       		.uleb128 0x3
 12101 05a4 0E       		.uleb128 0xe
 12102 05a5 27       		.uleb128 0x27
 12103 05a6 19       		.uleb128 0x19
 12104 05a7 49       		.uleb128 0x49
 12105 05a8 13       		.uleb128 0x13
 12106 05a9 34       		.uleb128 0x34
 12107 05aa 19       		.uleb128 0x19
 12108 05ab 3C       		.uleb128 0x3c
 12109 05ac 19       		.uleb128 0x19
 12110 05ad 01       		.uleb128 0x1
 12111 05ae 13       		.uleb128 0x13
 12112 05af 00       		.byte	0
 12113 05b0 00       		.byte	0
 12114 05b1 68       		.uleb128 0x68
 12115 05b2 2E       		.uleb128 0x2e
 12116 05b3 01       		.byte	0x1
 12117 05b4 3F       		.uleb128 0x3f
 12118 05b5 19       		.uleb128 0x19
 12119 05b6 03       		.uleb128 0x3
 12120 05b7 0E       		.uleb128 0xe
 12121 05b8 3A       		.uleb128 0x3a
 12122 05b9 0B       		.uleb128 0xb
 12123 05ba 3B       		.uleb128 0x3b
 12124 05bb 05       		.uleb128 0x5
 12125 05bc 27       		.uleb128 0x27
 12126 05bd 19       		.uleb128 0x19
 12127 05be 49       		.uleb128 0x49
 12128 05bf 13       		.uleb128 0x13
 12129 05c0 3C       		.uleb128 0x3c
 12130 05c1 19       		.uleb128 0x19
 12131 05c2 00       		.byte	0
 12132 05c3 00       		.byte	0
 12133 05c4 00       		.byte	0
 12134              		.section	.debug_loc,"",%progbits
 12135              	.Ldebug_loc0:
 12136              	.LLST0:
 12137 0000 00000000 		.4byte	.LVL0
 12138 0004 04000000 		.4byte	.LVL1
 12139 0008 0100     		.2byte	0x1
 12140 000a 50       		.byte	0x50
 12141 000b 04000000 		.4byte	.LVL1
 12142 000f 06000000 		.4byte	.LFE268
 12143 0013 0400     		.2byte	0x4
 12144 0015 F3       		.byte	0xf3
 12145 0016 01       		.uleb128 0x1
 12146 0017 50       		.byte	0x50
 12147 0018 9F       		.byte	0x9f
 12148 0019 00000000 		.4byte	0
 12149 001d 00000000 		.4byte	0
ARM GAS  C:\Users\jo\AppData\Local\Temp\ccQTqoh0.s 			page 217


 12150              	.LLST1:
 12151 0021 00000000 		.4byte	.LVL2
 12152 0025 10000000 		.4byte	.LVL3
 12153 0029 0200     		.2byte	0x2
 12154 002b 30       		.byte	0x30
 12155 002c 9F       		.byte	0x9f
 12156 002d 10000000 		.4byte	.LVL3
 12157 0031 34000000 		.4byte	.LVL7
 12158 0035 0700     		.2byte	0x7
 12159 0037 0A       		.byte	0xa
 12160 0038 0040     		.2byte	0x4000
 12161 003a 74       		.byte	0x74
 12162 003b 00       		.sleb128 0
 12163 003c 1C       		.byte	0x1c
 12164 003d 9F       		.byte	0x9f
 12165 003e 34000000 		.4byte	.LVL7
 12166 0042 36000000 		.4byte	.LVL8
 12167 0046 0700     		.2byte	0x7
 12168 0048 0A       		.byte	0xa
 12169 0049 0140     		.2byte	0x4001
 12170 004b 74       		.byte	0x74
 12171 004c 00       		.sleb128 0
 12172 004d 1C       		.byte	0x1c
 12173 004e 9F       		.byte	0x9f
 12174 004f 42000000 		.4byte	.LVL9
 12175 0053 48000000 		.4byte	.LVL10
 12176 0057 0700     		.2byte	0x7
 12177 0059 0A       		.byte	0xa
 12178 005a 0040     		.2byte	0x4000
 12179 005c 74       		.byte	0x74
 12180 005d 00       		.sleb128 0
 12181 005e 1C       		.byte	0x1c
 12182 005f 9F       		.byte	0x9f
 12183 0060 00000000 		.4byte	0
 12184 0064 00000000 		.4byte	0
 12185              	.LLST2:
 12186 0068 00000000 		.4byte	.LVL11
 12187 006c 0E000000 		.4byte	.LVL12
 12188 0070 0100     		.2byte	0x1
 12189 0072 50       		.byte	0x50
 12190 0073 0E000000 		.4byte	.LVL12
 12191 0077 28000000 		.4byte	.LFE301
 12192 007b 0400     		.2byte	0x4
 12193 007d F3       		.byte	0xf3
 12194 007e 01       		.uleb128 0x1
 12195 007f 50       		.byte	0x50
 12196 0080 9F       		.byte	0x9f
 12197 0081 00000000 		.4byte	0
 12198 0085 00000000 		.4byte	0
 12199              	.LLST3:
 12200 0089 00000000 		.4byte	.LVL14
 12201 008d 10000000 		.4byte	.LVL15
 12202 0091 0100     		.2byte	0x1
 12203 0093 50       		.byte	0x50
 12204 0094 10000000 		.4byte	.LVL15
 12205 0098 62000000 		.4byte	.LVL24
 12206 009c 0100     		.2byte	0x1
ARM GAS  C:\Users\jo\AppData\Local\Temp\ccQTqoh0.s 			page 218


 12207 009e 56       		.byte	0x56
 12208 009f 62000000 		.4byte	.LVL24
 12209 00a3 65000000 		.4byte	.LVL25-1
 12210 00a7 0100     		.2byte	0x1
 12211 00a9 50       		.byte	0x50
 12212 00aa 65000000 		.4byte	.LVL25-1
 12213 00ae 70000000 		.4byte	.LVL27
 12214 00b2 0100     		.2byte	0x1
 12215 00b4 56       		.byte	0x56
 12216 00b5 70000000 		.4byte	.LVL27
 12217 00b9 7A000000 		.4byte	.LVL30
 12218 00bd 0100     		.2byte	0x1
 12219 00bf 50       		.byte	0x50
 12220 00c0 7A000000 		.4byte	.LVL30
 12221 00c4 A4000000 		.4byte	.LFE267
 12222 00c8 0100     		.2byte	0x1
 12223 00ca 56       		.byte	0x56
 12224 00cb 00000000 		.4byte	0
 12225 00cf 00000000 		.4byte	0
 12226              	.LLST4:
 12227 00d3 00000000 		.4byte	.LVL14
 12228 00d7 10000000 		.4byte	.LVL15
 12229 00db 0100     		.2byte	0x1
 12230 00dd 51       		.byte	0x51
 12231 00de 10000000 		.4byte	.LVL15
 12232 00e2 3A000000 		.4byte	.LVL19
 12233 00e6 0100     		.2byte	0x1
 12234 00e8 55       		.byte	0x55
 12235 00e9 3A000000 		.4byte	.LVL19
 12236 00ed 40000000 		.4byte	.LVL20
 12237 00f1 0400     		.2byte	0x4
 12238 00f3 F3       		.byte	0xf3
 12239 00f4 01       		.uleb128 0x1
 12240 00f5 51       		.byte	0x51
 12241 00f6 9F       		.byte	0x9f
 12242 00f7 40000000 		.4byte	.LVL20
 12243 00fb 62000000 		.4byte	.LVL24
 12244 00ff 0100     		.2byte	0x1
 12245 0101 55       		.byte	0x55
 12246 0102 62000000 		.4byte	.LVL24
 12247 0106 65000000 		.4byte	.LVL25-1
 12248 010a 0100     		.2byte	0x1
 12249 010c 51       		.byte	0x51
 12250 010d 65000000 		.4byte	.LVL25-1
 12251 0111 70000000 		.4byte	.LVL27
 12252 0115 0100     		.2byte	0x1
 12253 0117 55       		.byte	0x55
 12254 0118 70000000 		.4byte	.LVL27
 12255 011c 76000000 		.4byte	.LVL28
 12256 0120 0100     		.2byte	0x1
 12257 0122 51       		.byte	0x51
 12258 0123 76000000 		.4byte	.LVL28
 12259 0127 A4000000 		.4byte	.LFE267
 12260 012b 0400     		.2byte	0x4
 12261 012d F3       		.byte	0xf3
 12262 012e 01       		.uleb128 0x1
 12263 012f 51       		.byte	0x51
ARM GAS  C:\Users\jo\AppData\Local\Temp\ccQTqoh0.s 			page 219


 12264 0130 9F       		.byte	0x9f
 12265 0131 00000000 		.4byte	0
 12266 0135 00000000 		.4byte	0
 12267              	.LLST5:
 12268 0139 00000000 		.4byte	.LVL14
 12269 013d 10000000 		.4byte	.LVL15
 12270 0141 0100     		.2byte	0x1
 12271 0143 52       		.byte	0x52
 12272 0144 10000000 		.4byte	.LVL15
 12273 0148 3A000000 		.4byte	.LVL19
 12274 014c 0100     		.2byte	0x1
 12275 014e 52       		.byte	0x52
 12276 014f 40000000 		.4byte	.LVL20
 12277 0153 52000000 		.4byte	.LVL22
 12278 0157 0100     		.2byte	0x1
 12279 0159 52       		.byte	0x52
 12280 015a 52000000 		.4byte	.LVL22
 12281 015e 59000000 		.4byte	.LVL23-1
 12282 0162 0200     		.2byte	0x2
 12283 0164 76       		.byte	0x76
 12284 0165 1A       		.sleb128 26
 12285 0166 62000000 		.4byte	.LVL24
 12286 016a 65000000 		.4byte	.LVL25-1
 12287 016e 0100     		.2byte	0x1
 12288 0170 52       		.byte	0x52
 12289 0171 65000000 		.4byte	.LVL25-1
 12290 0175 66000000 		.4byte	.LVL25
 12291 0179 0400     		.2byte	0x4
 12292 017b F3       		.byte	0xf3
 12293 017c 01       		.uleb128 0x1
 12294 017d 52       		.byte	0x52
 12295 017e 9F       		.byte	0x9f
 12296 017f 66000000 		.4byte	.LVL25
 12297 0183 6E000000 		.4byte	.LVL26
 12298 0187 0100     		.2byte	0x1
 12299 0189 50       		.byte	0x50
 12300 018a 70000000 		.4byte	.LVL27
 12301 018e 78000000 		.4byte	.LVL29
 12302 0192 0100     		.2byte	0x1
 12303 0194 52       		.byte	0x52
 12304 0195 78000000 		.4byte	.LVL29
 12305 0199 A4000000 		.4byte	.LFE267
 12306 019d 0400     		.2byte	0x4
 12307 019f F3       		.byte	0xf3
 12308 01a0 01       		.uleb128 0x1
 12309 01a1 52       		.byte	0x52
 12310 01a2 9F       		.byte	0x9f
 12311 01a3 00000000 		.4byte	0
 12312 01a7 00000000 		.4byte	0
 12313              	.LLST6:
 12314 01ab 10000000 		.4byte	.LVL15
 12315 01af 16000000 		.4byte	.LVL16
 12316 01b3 0200     		.2byte	0x2
 12317 01b5 30       		.byte	0x30
 12318 01b6 9F       		.byte	0x9f
 12319 01b7 00000000 		.4byte	0
 12320 01bb 00000000 		.4byte	0
ARM GAS  C:\Users\jo\AppData\Local\Temp\ccQTqoh0.s 			page 220


 12321              	.LLST7:
 12322 01bf 1C000000 		.4byte	.LVL17
 12323 01c3 3A000000 		.4byte	.LVL19
 12324 01c7 0100     		.2byte	0x1
 12325 01c9 53       		.byte	0x53
 12326 01ca 40000000 		.4byte	.LVL20
 12327 01ce 48000000 		.4byte	.LVL21
 12328 01d2 0100     		.2byte	0x1
 12329 01d4 53       		.byte	0x53
 12330 01d5 00000000 		.4byte	0
 12331 01d9 00000000 		.4byte	0
 12332              	.LLST8:
 12333 01dd 00000000 		.4byte	.LVL33
 12334 01e1 10000000 		.4byte	.LVL34
 12335 01e5 0100     		.2byte	0x1
 12336 01e7 50       		.byte	0x50
 12337 01e8 10000000 		.4byte	.LVL34
 12338 01ec 98000000 		.4byte	.LVL41
 12339 01f0 0100     		.2byte	0x1
 12340 01f2 55       		.byte	0x55
 12341 01f3 98000000 		.4byte	.LVL41
 12342 01f7 A2000000 		.4byte	.LVL43
 12343 01fb 0100     		.2byte	0x1
 12344 01fd 50       		.byte	0x50
 12345 01fe A2000000 		.4byte	.LVL43
 12346 0202 D8000000 		.4byte	.LFE269
 12347 0206 0100     		.2byte	0x1
 12348 0208 55       		.byte	0x55
 12349 0209 00000000 		.4byte	0
 12350 020d 00000000 		.4byte	0
 12351              	.LLST9:
 12352 0211 00000000 		.4byte	.LVL33
 12353 0215 13000000 		.4byte	.LVL35-1
 12354 0219 0100     		.2byte	0x1
 12355 021b 51       		.byte	0x51
 12356 021c 13000000 		.4byte	.LVL35-1
 12357 0220 98000000 		.4byte	.LVL41
 12358 0224 0400     		.2byte	0x4
 12359 0226 F3       		.byte	0xf3
 12360 0227 01       		.uleb128 0x1
 12361 0228 51       		.byte	0x51
 12362 0229 9F       		.byte	0x9f
 12363 022a 98000000 		.4byte	.LVL41
 12364 022e 9E000000 		.4byte	.LVL42
 12365 0232 0100     		.2byte	0x1
 12366 0234 51       		.byte	0x51
 12367 0235 9E000000 		.4byte	.LVL42
 12368 0239 D8000000 		.4byte	.LFE269
 12369 023d 0400     		.2byte	0x4
 12370 023f F3       		.byte	0xf3
 12371 0240 01       		.uleb128 0x1
 12372 0241 51       		.byte	0x51
 12373 0242 9F       		.byte	0x9f
 12374 0243 00000000 		.4byte	0
 12375 0247 00000000 		.4byte	0
 12376              	.LLST10:
 12377 024b 14000000 		.4byte	.LVL35
ARM GAS  C:\Users\jo\AppData\Local\Temp\ccQTqoh0.s 			page 221


 12378 024f 28000000 		.4byte	.LVL36
 12379 0253 0100     		.2byte	0x1
 12380 0255 50       		.byte	0x50
 12381 0256 28000000 		.4byte	.LVL36
 12382 025a 84000000 		.4byte	.LVL39
 12383 025e 0100     		.2byte	0x1
 12384 0260 54       		.byte	0x54
 12385 0261 88000000 		.4byte	.LVL40
 12386 0265 98000000 		.4byte	.LVL41
 12387 0269 0100     		.2byte	0x1
 12388 026b 54       		.byte	0x54
 12389 026c 00000000 		.4byte	0
 12390 0270 00000000 		.4byte	0
 12391              	.LLST11:
 12392 0274 00000000 		.4byte	.LVL46
 12393 0278 12000000 		.4byte	.LVL48
 12394 027c 0100     		.2byte	0x1
 12395 027e 50       		.byte	0x50
 12396 027f 12000000 		.4byte	.LVL48
 12397 0283 40000000 		.4byte	.LVL53
 12398 0287 0100     		.2byte	0x1
 12399 0289 53       		.byte	0x53
 12400 028a 40000000 		.4byte	.LVL53
 12401 028e 48000000 		.4byte	.LVL54
 12402 0292 0100     		.2byte	0x1
 12403 0294 54       		.byte	0x54
 12404 0295 48000000 		.4byte	.LVL54
 12405 0299 4A000000 		.4byte	.LVL55
 12406 029d 0100     		.2byte	0x1
 12407 029f 53       		.byte	0x53
 12408 02a0 4A000000 		.4byte	.LVL55
 12409 02a4 74000000 		.4byte	.LFE270
 12410 02a8 0100     		.2byte	0x1
 12411 02aa 54       		.byte	0x54
 12412 02ab 00000000 		.4byte	0
 12413 02af 00000000 		.4byte	0
 12414              	.LLST12:
 12415 02b3 0A000000 		.4byte	.LVL47
 12416 02b7 38000000 		.4byte	.LVL51
 12417 02bb 0600     		.2byte	0x6
 12418 02bd 74       		.byte	0x74
 12419 02be 00       		.sleb128 0
 12420 02bf 75       		.byte	0x75
 12421 02c0 00       		.sleb128 0
 12422 02c1 22       		.byte	0x22
 12423 02c2 9F       		.byte	0x9f
 12424 02c3 38000000 		.4byte	.LVL51
 12425 02c7 3E000000 		.4byte	.LVL52
 12426 02cb 0700     		.2byte	0x7
 12427 02cd 74       		.byte	0x74
 12428 02ce 00       		.sleb128 0
 12429 02cf 73       		.byte	0x73
 12430 02d0 28       		.sleb128 40
 12431 02d1 06       		.byte	0x6
 12432 02d2 22       		.byte	0x22
 12433 02d3 9F       		.byte	0x9f
 12434 02d4 3E000000 		.4byte	.LVL52
ARM GAS  C:\Users\jo\AppData\Local\Temp\ccQTqoh0.s 			page 222


 12435 02d8 40000000 		.4byte	.LVL53
 12436 02dc 0D00     		.2byte	0xd
 12437 02de 73       		.byte	0x73
 12438 02df 2C       		.sleb128 44
 12439 02e0 94       		.byte	0x94
 12440 02e1 02       		.byte	0x2
 12441 02e2 0A       		.byte	0xa
 12442 02e3 FFFF     		.2byte	0xffff
 12443 02e5 1A       		.byte	0x1a
 12444 02e6 73       		.byte	0x73
 12445 02e7 28       		.sleb128 40
 12446 02e8 06       		.byte	0x6
 12447 02e9 22       		.byte	0x22
 12448 02ea 9F       		.byte	0x9f
 12449 02eb 48000000 		.4byte	.LVL54
 12450 02ef 4A000000 		.4byte	.LVL55
 12451 02f3 0D00     		.2byte	0xd
 12452 02f5 73       		.byte	0x73
 12453 02f6 2C       		.sleb128 44
 12454 02f7 94       		.byte	0x94
 12455 02f8 02       		.byte	0x2
 12456 02f9 0A       		.byte	0xa
 12457 02fa FFFF     		.2byte	0xffff
 12458 02fc 1A       		.byte	0x1a
 12459 02fd 73       		.byte	0x73
 12460 02fe 28       		.sleb128 40
 12461 02ff 06       		.byte	0x6
 12462 0300 22       		.byte	0x22
 12463 0301 9F       		.byte	0x9f
 12464 0302 4A000000 		.4byte	.LVL55
 12465 0306 4C000000 		.4byte	.LVL56
 12466 030a 0D00     		.2byte	0xd
 12467 030c 74       		.byte	0x74
 12468 030d 2C       		.sleb128 44
 12469 030e 94       		.byte	0x94
 12470 030f 02       		.byte	0x2
 12471 0310 0A       		.byte	0xa
 12472 0311 FFFF     		.2byte	0xffff
 12473 0313 1A       		.byte	0x1a
 12474 0314 74       		.byte	0x74
 12475 0315 28       		.sleb128 40
 12476 0316 06       		.byte	0x6
 12477 0317 22       		.byte	0x22
 12478 0318 9F       		.byte	0x9f
 12479 0319 00000000 		.4byte	0
 12480 031d 00000000 		.4byte	0
 12481              	.LLST13:
 12482 0321 00000000 		.4byte	.LVL59
 12483 0325 0E000000 		.4byte	.LVL60
 12484 0329 0100     		.2byte	0x1
 12485 032b 50       		.byte	0x50
 12486 032c 0E000000 		.4byte	.LVL60
 12487 0330 4C000000 		.4byte	.LVL64
 12488 0334 0100     		.2byte	0x1
 12489 0336 55       		.byte	0x55
 12490 0337 4C000000 		.4byte	.LVL64
 12491 033b 4F000000 		.4byte	.LVL65-1
ARM GAS  C:\Users\jo\AppData\Local\Temp\ccQTqoh0.s 			page 223


 12492 033f 0100     		.2byte	0x1
 12493 0341 50       		.byte	0x50
 12494 0342 4F000000 		.4byte	.LVL65-1
 12495 0346 50000000 		.4byte	.LVL65
 12496 034a 0400     		.2byte	0x4
 12497 034c F3       		.byte	0xf3
 12498 034d 01       		.uleb128 0x1
 12499 034e 50       		.byte	0x50
 12500 034f 9F       		.byte	0x9f
 12501 0350 50000000 		.4byte	.LVL65
 12502 0354 6C000000 		.4byte	.LVL68
 12503 0358 0100     		.2byte	0x1
 12504 035a 55       		.byte	0x55
 12505 035b 6C000000 		.4byte	.LVL68
 12506 035f 76000000 		.4byte	.LVL70
 12507 0363 0100     		.2byte	0x1
 12508 0365 50       		.byte	0x50
 12509 0366 76000000 		.4byte	.LVL70
 12510 036a 9C000000 		.4byte	.LFE271
 12511 036e 0100     		.2byte	0x1
 12512 0370 55       		.byte	0x55
 12513 0371 00000000 		.4byte	0
 12514 0375 00000000 		.4byte	0
 12515              	.LLST14:
 12516 0379 00000000 		.4byte	.LVL59
 12517 037d 0E000000 		.4byte	.LVL60
 12518 0381 0100     		.2byte	0x1
 12519 0383 51       		.byte	0x51
 12520 0384 0E000000 		.4byte	.LVL60
 12521 0388 6C000000 		.4byte	.LVL68
 12522 038c 0400     		.2byte	0x4
 12523 038e F3       		.byte	0xf3
 12524 038f 01       		.uleb128 0x1
 12525 0390 51       		.byte	0x51
 12526 0391 9F       		.byte	0x9f
 12527 0392 6C000000 		.4byte	.LVL68
 12528 0396 72000000 		.4byte	.LVL69
 12529 039a 0100     		.2byte	0x1
 12530 039c 51       		.byte	0x51
 12531 039d 72000000 		.4byte	.LVL69
 12532 03a1 9C000000 		.4byte	.LFE271
 12533 03a5 0400     		.2byte	0x4
 12534 03a7 F3       		.byte	0xf3
 12535 03a8 01       		.uleb128 0x1
 12536 03a9 51       		.byte	0x51
 12537 03aa 9F       		.byte	0x9f
 12538 03ab 00000000 		.4byte	0
 12539 03af 00000000 		.4byte	0
 12540              	.LLST15:
 12541 03b3 30000000 		.4byte	.LVL61
 12542 03b7 40000000 		.4byte	.LVL63
 12543 03bb 0100     		.2byte	0x1
 12544 03bd 50       		.byte	0x50
 12545 03be 00000000 		.4byte	0
 12546 03c2 00000000 		.4byte	0
 12547              	.LLST16:
 12548 03c6 3C000000 		.4byte	.LVL62
ARM GAS  C:\Users\jo\AppData\Local\Temp\ccQTqoh0.s 			page 224


 12549 03ca 4C000000 		.4byte	.LVL64
 12550 03ce 0100     		.2byte	0x1
 12551 03d0 55       		.byte	0x55
 12552 03d1 4C000000 		.4byte	.LVL64
 12553 03d5 4F000000 		.4byte	.LVL65-1
 12554 03d9 0100     		.2byte	0x1
 12555 03db 50       		.byte	0x50
 12556 03dc 4F000000 		.4byte	.LVL65-1
 12557 03e0 50000000 		.4byte	.LVL65
 12558 03e4 0400     		.2byte	0x4
 12559 03e6 F3       		.byte	0xf3
 12560 03e7 01       		.uleb128 0x1
 12561 03e8 50       		.byte	0x50
 12562 03e9 9F       		.byte	0x9f
 12563 03ea 00000000 		.4byte	0
 12564 03ee 00000000 		.4byte	0
 12565              	.LLST17:
 12566 03f2 62000000 		.4byte	.LVL66
 12567 03f6 6C000000 		.4byte	.LVL68
 12568 03fa 0600     		.2byte	0x6
 12569 03fc 03       		.byte	0x3
 12570 03fd DC000000 		.4byte	.LC6
 12571 0401 9F       		.byte	0x9f
 12572 0402 00000000 		.4byte	0
 12573 0406 00000000 		.4byte	0
 12574              	.LLST18:
 12575 040a 00000000 		.4byte	.LVL73
 12576 040e 08000000 		.4byte	.LVL74
 12577 0412 0100     		.2byte	0x1
 12578 0414 50       		.byte	0x50
 12579 0415 08000000 		.4byte	.LVL74
 12580 0419 14000000 		.4byte	.LVL76
 12581 041d 0100     		.2byte	0x1
 12582 041f 54       		.byte	0x54
 12583 0420 14000000 		.4byte	.LVL76
 12584 0424 17000000 		.4byte	.LVL77-1
 12585 0428 0100     		.2byte	0x1
 12586 042a 50       		.byte	0x50
 12587 042b 17000000 		.4byte	.LVL77-1
 12588 042f 18000000 		.4byte	.LVL77
 12589 0433 0400     		.2byte	0x4
 12590 0435 F3       		.byte	0xf3
 12591 0436 01       		.uleb128 0x1
 12592 0437 50       		.byte	0x50
 12593 0438 9F       		.byte	0x9f
 12594 0439 18000000 		.4byte	.LVL77
 12595 043d 1A000000 		.4byte	.LFE278
 12596 0441 0100     		.2byte	0x1
 12597 0443 50       		.byte	0x50
 12598 0444 00000000 		.4byte	0
 12599 0448 00000000 		.4byte	0
 12600              	.LLST19:
 12601 044c 00000000 		.4byte	.LVL78
 12602 0450 09000000 		.4byte	.LVL80-1
 12603 0454 0100     		.2byte	0x1
 12604 0456 50       		.byte	0x50
 12605 0457 0A000000 		.4byte	.LVL80
ARM GAS  C:\Users\jo\AppData\Local\Temp\ccQTqoh0.s 			page 225


 12606 045b 12000000 		.4byte	.LVL81
 12607 045f 0100     		.2byte	0x1
 12608 0461 54       		.byte	0x54
 12609 0462 12000000 		.4byte	.LVL81
 12610 0466 14000000 		.4byte	.LFE277
 12611 046a 0100     		.2byte	0x1
 12612 046c 50       		.byte	0x50
 12613 046d 00000000 		.4byte	0
 12614 0471 00000000 		.4byte	0
 12615              	.LLST20:
 12616 0475 06000000 		.4byte	.LVL79
 12617 0479 12000000 		.4byte	.LVL81
 12618 047d 0100     		.2byte	0x1
 12619 047f 54       		.byte	0x54
 12620 0480 00000000 		.4byte	0
 12621 0484 00000000 		.4byte	0
 12622              	.LLST21:
 12623 0488 00000000 		.4byte	.LVL83
 12624 048c 08000000 		.4byte	.LVL84
 12625 0490 0100     		.2byte	0x1
 12626 0492 50       		.byte	0x50
 12627 0493 08000000 		.4byte	.LVL84
 12628 0497 2A000000 		.4byte	.LVL88
 12629 049b 0100     		.2byte	0x1
 12630 049d 55       		.byte	0x55
 12631 049e 2A000000 		.4byte	.LVL88
 12632 04a2 30000000 		.4byte	.LFE280
 12633 04a6 0400     		.2byte	0x4
 12634 04a8 F3       		.byte	0xf3
 12635 04a9 01       		.uleb128 0x1
 12636 04aa 50       		.byte	0x50
 12637 04ab 9F       		.byte	0x9f
 12638 04ac 00000000 		.4byte	0
 12639 04b0 00000000 		.4byte	0
 12640              	.LLST22:
 12641 04b4 0C000000 		.4byte	.LVL85
 12642 04b8 12000000 		.4byte	.LVL86
 12643 04bc 0100     		.2byte	0x1
 12644 04be 50       		.byte	0x50
 12645 04bf 12000000 		.4byte	.LVL86
 12646 04c3 2A000000 		.4byte	.LVL88
 12647 04c7 0100     		.2byte	0x1
 12648 04c9 56       		.byte	0x56
 12649 04ca 2A000000 		.4byte	.LVL88
 12650 04ce 30000000 		.4byte	.LFE280
 12651 04d2 0100     		.2byte	0x1
 12652 04d4 50       		.byte	0x50
 12653 04d5 00000000 		.4byte	0
 12654 04d9 00000000 		.4byte	0
 12655              	.LLST23:
 12656 04dd 00000000 		.4byte	.LVL90
 12657 04e1 20000000 		.4byte	.LVL92
 12658 04e5 0100     		.2byte	0x1
 12659 04e7 50       		.byte	0x50
 12660 04e8 20000000 		.4byte	.LVL92
 12661 04ec 36000000 		.4byte	.LVL95
 12662 04f0 0100     		.2byte	0x1
ARM GAS  C:\Users\jo\AppData\Local\Temp\ccQTqoh0.s 			page 226


 12663 04f2 54       		.byte	0x54
 12664 04f3 36000000 		.4byte	.LVL95
 12665 04f7 48000000 		.4byte	.LFE287
 12666 04fb 0400     		.2byte	0x4
 12667 04fd F3       		.byte	0xf3
 12668 04fe 01       		.uleb128 0x1
 12669 04ff 50       		.byte	0x50
 12670 0500 9F       		.byte	0x9f
 12671 0501 00000000 		.4byte	0
 12672 0505 00000000 		.4byte	0
 12673              	.LLST24:
 12674 0509 00000000 		.4byte	.LVL90
 12675 050d 1C000000 		.4byte	.LVL91
 12676 0511 0100     		.2byte	0x1
 12677 0513 51       		.byte	0x51
 12678 0514 1C000000 		.4byte	.LVL91
 12679 0518 36000000 		.4byte	.LVL95
 12680 051c 0100     		.2byte	0x1
 12681 051e 55       		.byte	0x55
 12682 051f 36000000 		.4byte	.LVL95
 12683 0523 48000000 		.4byte	.LFE287
 12684 0527 0600     		.2byte	0x6
 12685 0529 F3       		.byte	0xf3
 12686 052a 01       		.uleb128 0x1
 12687 052b 50       		.byte	0x50
 12688 052c 23       		.byte	0x23
 12689 052d 8001     		.uleb128 0x80
 12690 052f 00000000 		.4byte	0
 12691 0533 00000000 		.4byte	0
 12692              	.LLST25:
 12693 0537 00000000 		.4byte	.LVL96
 12694 053b 1E000000 		.4byte	.LVL98
 12695 053f 0100     		.2byte	0x1
 12696 0541 50       		.byte	0x50
 12697 0542 1E000000 		.4byte	.LVL98
 12698 0546 32000000 		.4byte	.LVL101
 12699 054a 0100     		.2byte	0x1
 12700 054c 54       		.byte	0x54
 12701 054d 32000000 		.4byte	.LVL101
 12702 0551 44000000 		.4byte	.LFE288
 12703 0555 0400     		.2byte	0x4
 12704 0557 F3       		.byte	0xf3
 12705 0558 01       		.uleb128 0x1
 12706 0559 50       		.byte	0x50
 12707 055a 9F       		.byte	0x9f
 12708 055b 00000000 		.4byte	0
 12709 055f 00000000 		.4byte	0
 12710              	.LLST26:
 12711 0563 00000000 		.4byte	.LVL96
 12712 0567 1A000000 		.4byte	.LVL97
 12713 056b 0100     		.2byte	0x1
 12714 056d 51       		.byte	0x51
 12715 056e 1A000000 		.4byte	.LVL97
 12716 0572 32000000 		.4byte	.LVL101
 12717 0576 0100     		.2byte	0x1
 12718 0578 55       		.byte	0x55
 12719 0579 32000000 		.4byte	.LVL101
ARM GAS  C:\Users\jo\AppData\Local\Temp\ccQTqoh0.s 			page 227


 12720 057d 44000000 		.4byte	.LFE288
 12721 0581 0500     		.2byte	0x5
 12722 0583 F3       		.byte	0xf3
 12723 0584 01       		.uleb128 0x1
 12724 0585 50       		.byte	0x50
 12725 0586 23       		.byte	0x23
 12726 0587 7C       		.uleb128 0x7c
 12727 0588 00000000 		.4byte	0
 12728 058c 00000000 		.4byte	0
 12729              	.LLST27:
 12730 0590 00000000 		.4byte	.LVL102
 12731 0594 20000000 		.4byte	.LVL104
 12732 0598 0100     		.2byte	0x1
 12733 059a 50       		.byte	0x50
 12734 059b 20000000 		.4byte	.LVL104
 12735 059f 36000000 		.4byte	.LVL107
 12736 05a3 0100     		.2byte	0x1
 12737 05a5 54       		.byte	0x54
 12738 05a6 36000000 		.4byte	.LVL107
 12739 05aa 48000000 		.4byte	.LFE289
 12740 05ae 0400     		.2byte	0x4
 12741 05b0 F3       		.byte	0xf3
 12742 05b1 01       		.uleb128 0x1
 12743 05b2 50       		.byte	0x50
 12744 05b3 9F       		.byte	0x9f
 12745 05b4 00000000 		.4byte	0
 12746 05b8 00000000 		.4byte	0
 12747              	.LLST28:
 12748 05bc 00000000 		.4byte	.LVL102
 12749 05c0 1C000000 		.4byte	.LVL103
 12750 05c4 0100     		.2byte	0x1
 12751 05c6 51       		.byte	0x51
 12752 05c7 1C000000 		.4byte	.LVL103
 12753 05cb 36000000 		.4byte	.LVL107
 12754 05cf 0100     		.2byte	0x1
 12755 05d1 55       		.byte	0x55
 12756 05d2 36000000 		.4byte	.LVL107
 12757 05d6 48000000 		.4byte	.LFE289
 12758 05da 0600     		.2byte	0x6
 12759 05dc F3       		.byte	0xf3
 12760 05dd 01       		.uleb128 0x1
 12761 05de 50       		.byte	0x50
 12762 05df 23       		.byte	0x23
 12763 05e0 8C01     		.uleb128 0x8c
 12764 05e2 00000000 		.4byte	0
 12765 05e6 00000000 		.4byte	0
 12766              	.LLST29:
 12767 05ea 00000000 		.4byte	.LVL109
 12768 05ee 26000000 		.4byte	.LVL112
 12769 05f2 0100     		.2byte	0x1
 12770 05f4 50       		.byte	0x50
 12771 05f5 26000000 		.4byte	.LVL112
 12772 05f9 40000000 		.4byte	.LVL115
 12773 05fd 0100     		.2byte	0x1
 12774 05ff 54       		.byte	0x54
 12775 0600 40000000 		.4byte	.LVL115
 12776 0604 50000000 		.4byte	.LFE291
ARM GAS  C:\Users\jo\AppData\Local\Temp\ccQTqoh0.s 			page 228


 12777 0608 0400     		.2byte	0x4
 12778 060a F3       		.byte	0xf3
 12779 060b 01       		.uleb128 0x1
 12780 060c 50       		.byte	0x50
 12781 060d 9F       		.byte	0x9f
 12782 060e 00000000 		.4byte	0
 12783 0612 00000000 		.4byte	0
 12784              	.LLST30:
 12785 0616 00000000 		.4byte	.LVL109
 12786 061a 22000000 		.4byte	.LVL110
 12787 061e 0100     		.2byte	0x1
 12788 0620 51       		.byte	0x51
 12789 0621 22000000 		.4byte	.LVL110
 12790 0625 40000000 		.4byte	.LVL115
 12791 0629 0100     		.2byte	0x1
 12792 062b 56       		.byte	0x56
 12793 062c 40000000 		.4byte	.LVL115
 12794 0630 50000000 		.4byte	.LFE291
 12795 0634 0600     		.2byte	0x6
 12796 0636 F3       		.byte	0xf3
 12797 0637 01       		.uleb128 0x1
 12798 0638 50       		.byte	0x50
 12799 0639 23       		.byte	0x23
 12800 063a 8801     		.uleb128 0x88
 12801 063c 00000000 		.4byte	0
 12802 0640 00000000 		.4byte	0
 12803              	.LLST31:
 12804 0644 00000000 		.4byte	.LVL109
 12805 0648 24000000 		.4byte	.LVL111
 12806 064c 0100     		.2byte	0x1
 12807 064e 52       		.byte	0x52
 12808 064f 24000000 		.4byte	.LVL111
 12809 0653 50000000 		.4byte	.LFE291
 12810 0657 0400     		.2byte	0x4
 12811 0659 F3       		.byte	0xf3
 12812 065a 01       		.uleb128 0x1
 12813 065b 52       		.byte	0x52
 12814 065c 9F       		.byte	0x9f
 12815 065d 00000000 		.4byte	0
 12816 0661 00000000 		.4byte	0
 12817              	.LLST32:
 12818 0665 00000000 		.4byte	.LVL116
 12819 0669 10000000 		.4byte	.LVL118
 12820 066d 0100     		.2byte	0x1
 12821 066f 50       		.byte	0x50
 12822 0670 10000000 		.4byte	.LVL118
 12823 0674 60000000 		.4byte	.LVL132
 12824 0678 0100     		.2byte	0x1
 12825 067a 55       		.byte	0x55
 12826 067b 60000000 		.4byte	.LVL132
 12827 067f 62000000 		.4byte	.LFE292
 12828 0683 0100     		.2byte	0x1
 12829 0685 50       		.byte	0x50
 12830 0686 00000000 		.4byte	0
 12831 068a 00000000 		.4byte	0
 12832              	.LLST33:
 12833 068e 0C000000 		.4byte	.LVL117
ARM GAS  C:\Users\jo\AppData\Local\Temp\ccQTqoh0.s 			page 229


 12834 0692 10000000 		.4byte	.LVL118
 12835 0696 0100     		.2byte	0x1
 12836 0698 50       		.byte	0x50
 12837 0699 10000000 		.4byte	.LVL118
 12838 069d 60000000 		.4byte	.LVL132
 12839 06a1 0100     		.2byte	0x1
 12840 06a3 55       		.byte	0x55
 12841 06a4 00000000 		.4byte	0
 12842 06a8 00000000 		.4byte	0
 12843              	.LLST34:
 12844 06ac 1C000000 		.4byte	.LVL120
 12845 06b0 23000000 		.4byte	.LVL122-1
 12846 06b4 0100     		.2byte	0x1
 12847 06b6 50       		.byte	0x50
 12848 06b7 24000000 		.4byte	.LVL122
 12849 06bb 2A000000 		.4byte	.LVL123
 12850 06bf 0100     		.2byte	0x1
 12851 06c1 54       		.byte	0x54
 12852 06c2 2A000000 		.4byte	.LVL123
 12853 06c6 2C000000 		.4byte	.LVL124
 12854 06ca 0100     		.2byte	0x1
 12855 06cc 50       		.byte	0x50
 12856 06cd 00000000 		.4byte	0
 12857 06d1 00000000 		.4byte	0
 12858              	.LLST35:
 12859 06d5 20000000 		.4byte	.LVL121
 12860 06d9 2A000000 		.4byte	.LVL123
 12861 06dd 0100     		.2byte	0x1
 12862 06df 54       		.byte	0x54
 12863 06e0 00000000 		.4byte	0
 12864 06e4 00000000 		.4byte	0
 12865              	.LLST36:
 12866 06e8 2C000000 		.4byte	.LVL124
 12867 06ec 3D000000 		.4byte	.LVL126-1
 12868 06f0 0100     		.2byte	0x1
 12869 06f2 50       		.byte	0x50
 12870 06f3 3E000000 		.4byte	.LVL126
 12871 06f7 44000000 		.4byte	.LVL127
 12872 06fb 0100     		.2byte	0x1
 12873 06fd 54       		.byte	0x54
 12874 06fe 44000000 		.4byte	.LVL127
 12875 0702 46000000 		.4byte	.LVL128
 12876 0706 0100     		.2byte	0x1
 12877 0708 50       		.byte	0x50
 12878 0709 00000000 		.4byte	0
 12879 070d 00000000 		.4byte	0
 12880              	.LLST37:
 12881 0711 3A000000 		.4byte	.LVL125
 12882 0715 44000000 		.4byte	.LVL127
 12883 0719 0100     		.2byte	0x1
 12884 071b 54       		.byte	0x54
 12885 071c 00000000 		.4byte	0
 12886 0720 00000000 		.4byte	0
 12887              	.LLST38:
 12888 0724 46000000 		.4byte	.LVL128
 12889 0728 4D000000 		.4byte	.LVL130-1
 12890 072c 0100     		.2byte	0x1
ARM GAS  C:\Users\jo\AppData\Local\Temp\ccQTqoh0.s 			page 230


 12891 072e 50       		.byte	0x50
 12892 072f 4E000000 		.4byte	.LVL130
 12893 0733 54000000 		.4byte	.LVL131
 12894 0737 0100     		.2byte	0x1
 12895 0739 54       		.byte	0x54
 12896 073a 54000000 		.4byte	.LVL131
 12897 073e 60000000 		.4byte	.LVL132
 12898 0742 0100     		.2byte	0x1
 12899 0744 50       		.byte	0x50
 12900 0745 00000000 		.4byte	0
 12901 0749 00000000 		.4byte	0
 12902              	.LLST39:
 12903 074d 4A000000 		.4byte	.LVL129
 12904 0751 54000000 		.4byte	.LVL131
 12905 0755 0100     		.2byte	0x1
 12906 0757 54       		.byte	0x54
 12907 0758 00000000 		.4byte	0
 12908 075c 00000000 		.4byte	0
 12909              	.LLST40:
 12910 0760 1E000000 		.4byte	.LVL135
 12911 0764 F4000000 		.4byte	.LVL142
 12912 0768 0100     		.2byte	0x1
 12913 076a 57       		.byte	0x57
 12914 076b F4000000 		.4byte	.LVL142
 12915 076f 28010000 		.4byte	.LVL146
 12916 0773 0100     		.2byte	0x1
 12917 0775 59       		.byte	0x59
 12918 0776 28010000 		.4byte	.LVL146
 12919 077a 36010000 		.4byte	.LVL148
 12920 077e 0100     		.2byte	0x1
 12921 0780 57       		.byte	0x57
 12922 0781 36010000 		.4byte	.LVL148
 12923 0785 82010000 		.4byte	.LVL154
 12924 0789 0100     		.2byte	0x1
 12925 078b 55       		.byte	0x55
 12926 078c 82010000 		.4byte	.LVL154
 12927 0790 8E010000 		.4byte	.LVL157
 12928 0794 0100     		.2byte	0x1
 12929 0796 59       		.byte	0x59
 12930 0797 8E010000 		.4byte	.LVL157
 12931 079b 94010000 		.4byte	.LVL158
 12932 079f 0100     		.2byte	0x1
 12933 07a1 55       		.byte	0x55
 12934 07a2 94010000 		.4byte	.LVL158
 12935 07a6 FE010000 		.4byte	.LVL168
 12936 07aa 0100     		.2byte	0x1
 12937 07ac 57       		.byte	0x57
 12938 07ad FE010000 		.4byte	.LVL168
 12939 07b1 2E020000 		.4byte	.LVL174
 12940 07b5 0100     		.2byte	0x1
 12941 07b7 59       		.byte	0x59
 12942 07b8 2E020000 		.4byte	.LVL174
 12943 07bc B6030000 		.4byte	.LVL195
 12944 07c0 0100     		.2byte	0x1
 12945 07c2 57       		.byte	0x57
 12946 07c3 B6030000 		.4byte	.LVL195
 12947 07c7 BA030000 		.4byte	.LVL196
ARM GAS  C:\Users\jo\AppData\Local\Temp\ccQTqoh0.s 			page 231


 12948 07cb 0200     		.2byte	0x2
 12949 07cd 75       		.byte	0x75
 12950 07ce 0C       		.sleb128 12
 12951 07cf BA030000 		.4byte	.LVL196
 12952 07d3 C2030000 		.4byte	.LVL197
 12953 07d7 0100     		.2byte	0x1
 12954 07d9 55       		.byte	0x55
 12955 07da C2030000 		.4byte	.LVL197
 12956 07de 2A040000 		.4byte	.LVL203
 12957 07e2 0100     		.2byte	0x1
 12958 07e4 57       		.byte	0x57
 12959 07e5 2A040000 		.4byte	.LVL203
 12960 07e9 52040000 		.4byte	.LVL206
 12961 07ed 0100     		.2byte	0x1
 12962 07ef 55       		.byte	0x55
 12963 07f0 52040000 		.4byte	.LVL206
 12964 07f4 6C040000 		.4byte	.LVL209
 12965 07f8 0100     		.2byte	0x1
 12966 07fa 57       		.byte	0x57
 12967 07fb 6C040000 		.4byte	.LVL209
 12968 07ff AC040000 		.4byte	.LFE274
 12969 0803 0100     		.2byte	0x1
 12970 0805 55       		.byte	0x55
 12971 0806 00000000 		.4byte	0
 12972 080a 00000000 		.4byte	0
 12973              	.LLST41:
 12974 080e 1A000000 		.4byte	.LVL134
 12975 0812 26000000 		.4byte	.LVL136
 12976 0816 0200     		.2byte	0x2
 12977 0818 30       		.byte	0x30
 12978 0819 9F       		.byte	0x9f
 12979 081a 26000000 		.4byte	.LVL136
 12980 081e EA000000 		.4byte	.LVL141
 12981 0822 0100     		.2byte	0x1
 12982 0824 56       		.byte	0x56
 12983 0825 EA000000 		.4byte	.LVL141
 12984 0829 26010000 		.4byte	.LVL145
 12985 082d 0100     		.2byte	0x1
 12986 082f 57       		.byte	0x57
 12987 0830 26010000 		.4byte	.LVL145
 12988 0834 2E010000 		.4byte	.LVL147
 12989 0838 0100     		.2byte	0x1
 12990 083a 56       		.byte	0x56
 12991 083b 2E010000 		.4byte	.LVL147
 12992 083f 3C010000 		.4byte	.LVL149
 12993 0843 0200     		.2byte	0x2
 12994 0845 30       		.byte	0x30
 12995 0846 9F       		.byte	0x9f
 12996 0847 3C010000 		.4byte	.LVL149
 12997 084b 8E010000 		.4byte	.LVL157
 12998 084f 0100     		.2byte	0x1
 12999 0851 56       		.byte	0x56
 13000 0852 94010000 		.4byte	.LVL158
 13001 0856 24020000 		.4byte	.LVL172
 13002 085a 0100     		.2byte	0x1
 13003 085c 56       		.byte	0x56
 13004 085d 24020000 		.4byte	.LVL172
ARM GAS  C:\Users\jo\AppData\Local\Temp\ccQTqoh0.s 			page 232


 13005 0861 2A020000 		.4byte	.LVL173
 13006 0865 0100     		.2byte	0x1
 13007 0867 57       		.byte	0x57
 13008 0868 2A020000 		.4byte	.LVL173
 13009 086c 2D020000 		.4byte	.LVL174-1
 13010 0870 0100     		.2byte	0x1
 13011 0872 50       		.byte	0x50
 13012 0873 2D020000 		.4byte	.LVL174-1
 13013 0877 B6030000 		.4byte	.LVL195
 13014 087b 0100     		.2byte	0x1
 13015 087d 56       		.byte	0x56
 13016 087e B6030000 		.4byte	.LVL195
 13017 0882 BA030000 		.4byte	.LVL196
 13018 0886 0100     		.2byte	0x1
 13019 0888 55       		.byte	0x55
 13020 0889 BA030000 		.4byte	.LVL196
 13021 088d AC040000 		.4byte	.LFE274
 13022 0891 0100     		.2byte	0x1
 13023 0893 56       		.byte	0x56
 13024 0894 00000000 		.4byte	0
 13025 0898 00000000 		.4byte	0
 13026              	.LLST42:
 13027 089c 4C000000 		.4byte	.LVL137
 13028 08a0 A0000000 		.4byte	.LVL139
 13029 08a4 0200     		.2byte	0x2
 13030 08a6 30       		.byte	0x30
 13031 08a7 9F       		.byte	0x9f
 13032 08a8 A0000000 		.4byte	.LVL139
 13033 08ac 26010000 		.4byte	.LVL145
 13034 08b0 0100     		.2byte	0x1
 13035 08b2 58       		.byte	0x58
 13036 08b3 58010000 		.4byte	.LVL151
 13037 08b7 64010000 		.4byte	.LVL152
 13038 08bb 0200     		.2byte	0x2
 13039 08bd 30       		.byte	0x30
 13040 08be 9F       		.byte	0x9f
 13041 08bf 64010000 		.4byte	.LVL152
 13042 08c3 8E010000 		.4byte	.LVL157
 13043 08c7 0200     		.2byte	0x2
 13044 08c9 31       		.byte	0x31
 13045 08ca 9F       		.byte	0x9f
 13046 08cb 94010000 		.4byte	.LVL158
 13047 08cf BA010000 		.4byte	.LVL162
 13048 08d3 0100     		.2byte	0x1
 13049 08d5 58       		.byte	0x58
 13050 08d6 BE010000 		.4byte	.LVL163
 13051 08da CA010000 		.4byte	.LVL164
 13052 08de 0100     		.2byte	0x1
 13053 08e0 58       		.byte	0x58
 13054 08e1 24020000 		.4byte	.LVL172
 13055 08e5 36020000 		.4byte	.LVL175
 13056 08e9 0100     		.2byte	0x1
 13057 08eb 58       		.byte	0x58
 13058 08ec A4020000 		.4byte	.LVL186
 13059 08f0 AA020000 		.4byte	.LVL187
 13060 08f4 0200     		.2byte	0x2
 13061 08f6 30       		.byte	0x30
ARM GAS  C:\Users\jo\AppData\Local\Temp\ccQTqoh0.s 			page 233


 13062 08f7 9F       		.byte	0x9f
 13063 08f8 AA020000 		.4byte	.LVL187
 13064 08fc C6020000 		.4byte	.LVL188
 13065 0900 0100     		.2byte	0x1
 13066 0902 58       		.byte	0x58
 13067 0903 CA020000 		.4byte	.LVL189
 13068 0907 00030000 		.4byte	.LVL190
 13069 090b 0100     		.2byte	0x1
 13070 090d 58       		.byte	0x58
 13071 090e 00030000 		.4byte	.LVL190
 13072 0912 86030000 		.4byte	.LVL192
 13073 0916 0200     		.2byte	0x2
 13074 0918 30       		.byte	0x30
 13075 0919 9F       		.byte	0x9f
 13076 091a 86030000 		.4byte	.LVL192
 13077 091e AC030000 		.4byte	.LVL193
 13078 0922 0100     		.2byte	0x1
 13079 0924 58       		.byte	0x58
 13080 0925 B0030000 		.4byte	.LVL194
 13081 0929 B6030000 		.4byte	.LVL195
 13082 092d 0100     		.2byte	0x1
 13083 092f 58       		.byte	0x58
 13084 0930 B6030000 		.4byte	.LVL195
 13085 0934 C2030000 		.4byte	.LVL197
 13086 0938 0200     		.2byte	0x2
 13087 093a 30       		.byte	0x30
 13088 093b 9F       		.byte	0x9f
 13089 093c C2030000 		.4byte	.LVL197
 13090 0940 F0030000 		.4byte	.LVL199
 13091 0944 0100     		.2byte	0x1
 13092 0946 58       		.byte	0x58
 13093 0947 2A040000 		.4byte	.LVL203
 13094 094b 52040000 		.4byte	.LVL206
 13095 094f 0200     		.2byte	0x2
 13096 0951 31       		.byte	0x31
 13097 0952 9F       		.byte	0x9f
 13098 0953 6C040000 		.4byte	.LVL209
 13099 0957 AC040000 		.4byte	.LFE274
 13100 095b 0200     		.2byte	0x2
 13101 095d 31       		.byte	0x31
 13102 095e 9F       		.byte	0x9f
 13103 095f 00000000 		.4byte	0
 13104 0963 00000000 		.4byte	0
 13105              	.LLST43:
 13106 0967 4C000000 		.4byte	.LVL137
 13107 096b C2000000 		.4byte	.LVL140
 13108 096f 0200     		.2byte	0x2
 13109 0971 30       		.byte	0x30
 13110 0972 9F       		.byte	0x9f
 13111 0973 C2000000 		.4byte	.LVL140
 13112 0977 F4000000 		.4byte	.LVL142
 13113 097b 0100     		.2byte	0x1
 13114 097d 59       		.byte	0x59
 13115 097e 94010000 		.4byte	.LVL158
 13116 0982 FE010000 		.4byte	.LVL168
 13117 0986 0100     		.2byte	0x1
 13118 0988 59       		.byte	0x59
ARM GAS  C:\Users\jo\AppData\Local\Temp\ccQTqoh0.s 			page 234


 13119 0989 A4020000 		.4byte	.LVL186
 13120 098d B0030000 		.4byte	.LVL194
 13121 0991 0200     		.2byte	0x2
 13122 0993 30       		.byte	0x30
 13123 0994 9F       		.byte	0x9f
 13124 0995 B0030000 		.4byte	.LVL194
 13125 0999 B6030000 		.4byte	.LVL195
 13126 099d 0200     		.2byte	0x2
 13127 099f 31       		.byte	0x31
 13128 09a0 9F       		.byte	0x9f
 13129 09a1 C2030000 		.4byte	.LVL197
 13130 09a5 F0030000 		.4byte	.LVL199
 13131 09a9 0200     		.2byte	0x2
 13132 09ab 30       		.byte	0x30
 13133 09ac 9F       		.byte	0x9f
 13134 09ad F0030000 		.4byte	.LVL199
 13135 09b1 2A040000 		.4byte	.LVL203
 13136 09b5 0100     		.2byte	0x1
 13137 09b7 59       		.byte	0x59
 13138 09b8 52040000 		.4byte	.LVL206
 13139 09bc 6C040000 		.4byte	.LVL209
 13140 09c0 0100     		.2byte	0x1
 13141 09c2 59       		.byte	0x59
 13142 09c3 00000000 		.4byte	0
 13143 09c7 00000000 		.4byte	0
 13144              	.LLST44:
 13145 09cb 00000000 		.4byte	.LVL133
 13146 09cf 1A000000 		.4byte	.LVL134
 13147 09d3 0200     		.2byte	0x2
 13148 09d5 30       		.byte	0x30
 13149 09d6 9F       		.byte	0x9f
 13150 09d7 18010000 		.4byte	.LVL143
 13151 09db 24010000 		.4byte	.LVL144
 13152 09df 0100     		.2byte	0x1
 13153 09e1 50       		.byte	0x50
 13154 09e2 00000000 		.4byte	0
 13155 09e6 00000000 		.4byte	0
 13156              	.LLST45:
 13157 09ea 52010000 		.4byte	.LVL150
 13158 09ee 58010000 		.4byte	.LVL151
 13159 09f2 0600     		.2byte	0x6
 13160 09f4 03       		.byte	0x3
 13161 09f5 78020000 		.4byte	.LC16
 13162 09f9 9F       		.byte	0x9f
 13163 09fa 00000000 		.4byte	0
 13164 09fe 00000000 		.4byte	0
 13165              	.LLST46:
 13166 0a02 82010000 		.4byte	.LVL154
 13167 0a06 86010000 		.4byte	.LVL155
 13168 0a0a 0100     		.2byte	0x1
 13169 0a0c 55       		.byte	0x55
 13170 0a0d 86010000 		.4byte	.LVL155
 13171 0a11 89010000 		.4byte	.LVL156-1
 13172 0a15 0100     		.2byte	0x1
 13173 0a17 50       		.byte	0x50
 13174 0a18 00000000 		.4byte	0
 13175 0a1c 00000000 		.4byte	0
ARM GAS  C:\Users\jo\AppData\Local\Temp\ccQTqoh0.s 			page 235


 13176              	.LLST47:
 13177 0a20 42040000 		.4byte	.LVL204
 13178 0a24 48040000 		.4byte	.LVL205
 13179 0a28 0600     		.2byte	0x6
 13180 0a2a 03       		.byte	0x3
 13181 0a2b D0020000 		.4byte	.LC18
 13182 0a2f 9F       		.byte	0x9f
 13183 0a30 00000000 		.4byte	0
 13184 0a34 00000000 		.4byte	0
 13185              	.LLST48:
 13186 0a38 94010000 		.4byte	.LVL158
 13187 0a3c 9B010000 		.4byte	.LVL160-1
 13188 0a40 0100     		.2byte	0x1
 13189 0a42 50       		.byte	0x50
 13190 0a43 9C010000 		.4byte	.LVL160
 13191 0a47 AC010000 		.4byte	.LVL161
 13192 0a4b 0100     		.2byte	0x1
 13193 0a4d 5A       		.byte	0x5a
 13194 0a4e 00000000 		.4byte	0
 13195 0a52 00000000 		.4byte	0
 13196              	.LLST49:
 13197 0a56 98010000 		.4byte	.LVL159
 13198 0a5a AC010000 		.4byte	.LVL161
 13199 0a5e 0100     		.2byte	0x1
 13200 0a60 5A       		.byte	0x5a
 13201 0a61 00000000 		.4byte	0
 13202 0a65 00000000 		.4byte	0
 13203              	.LLST50:
 13204 0a69 F2010000 		.4byte	.LVL166
 13205 0a6d 22020000 		.4byte	.LVL171
 13206 0a71 0100     		.2byte	0x1
 13207 0a73 57       		.byte	0x57
 13208 0a74 00000000 		.4byte	0
 13209 0a78 00000000 		.4byte	0
 13210              	.LLST51:
 13211 0a7c F2010000 		.4byte	.LVL166
 13212 0a80 24020000 		.4byte	.LVL172
 13213 0a84 0100     		.2byte	0x1
 13214 0a86 5A       		.byte	0x5a
 13215 0a87 00000000 		.4byte	0
 13216 0a8b 00000000 		.4byte	0
 13217              	.LLST52:
 13218 0a8f F2010000 		.4byte	.LVL166
 13219 0a93 F8010000 		.4byte	.LVL167
 13220 0a97 0200     		.2byte	0x2
 13221 0a99 91       		.byte	0x91
 13222 0a9a 54       		.sleb128 -44
 13223 0a9b 00000000 		.4byte	0
 13224 0a9f 00000000 		.4byte	0
 13225              	.LLST53:
 13226 0aa3 1C040000 		.4byte	.LVL201
 13227 0aa7 22040000 		.4byte	.LVL202
 13228 0aab 0600     		.2byte	0x6
 13229 0aad 03       		.byte	0x3
 13230 0aae 4C020000 		.4byte	.LC15
 13231 0ab2 9F       		.byte	0x9f
 13232 0ab3 00000000 		.4byte	0
ARM GAS  C:\Users\jo\AppData\Local\Temp\ccQTqoh0.s 			page 236


 13233 0ab7 00000000 		.4byte	0
 13234              	.LLST54:
 13235 0abb 64040000 		.4byte	.LVL207
 13236 0abf 6C040000 		.4byte	.LVL209
 13237 0ac3 0600     		.2byte	0x6
 13238 0ac5 03       		.byte	0x3
 13239 0ac6 20020000 		.4byte	.LC14
 13240 0aca 9F       		.byte	0x9f
 13241 0acb 00000000 		.4byte	0
 13242 0acf 00000000 		.4byte	0
 13243              	.LLST55:
 13244 0ad3 48020000 		.4byte	.LVL176
 13245 0ad7 56020000 		.4byte	.LVL178
 13246 0adb 0600     		.2byte	0x6
 13247 0add 03       		.byte	0x3
 13248 0ade 98010000 		.4byte	.LC11
 13249 0ae2 9F       		.byte	0x9f
 13250 0ae3 00000000 		.4byte	0
 13251 0ae7 00000000 		.4byte	0
 13252              	.LLST56:
 13253 0aeb 68020000 		.4byte	.LVL179
 13254 0aef 76020000 		.4byte	.LVL181
 13255 0af3 0600     		.2byte	0x6
 13256 0af5 03       		.byte	0x3
 13257 0af6 C4010000 		.4byte	.LC12
 13258 0afa 9F       		.byte	0x9f
 13259 0afb 00000000 		.4byte	0
 13260 0aff 00000000 		.4byte	0
 13261              	.LLST57:
 13262 0b03 88020000 		.4byte	.LVL182
 13263 0b07 9A020000 		.4byte	.LVL184
 13264 0b0b 0600     		.2byte	0x6
 13265 0b0d 03       		.byte	0x3
 13266 0b0e F0010000 		.4byte	.LC13
 13267 0b12 9F       		.byte	0x9f
 13268 0b13 00000000 		.4byte	0
 13269 0b17 00000000 		.4byte	0
 13270              	.LLST58:
 13271 0b1b 00000000 		.4byte	.LVL212
 13272 0b1f 2E000000 		.4byte	.LVL214
 13273 0b23 0100     		.2byte	0x1
 13274 0b25 50       		.byte	0x50
 13275 0b26 2E000000 		.4byte	.LVL214
 13276 0b2a 9E000000 		.4byte	.LVL222
 13277 0b2e 0400     		.2byte	0x4
 13278 0b30 F3       		.byte	0xf3
 13279 0b31 01       		.uleb128 0x1
 13280 0b32 50       		.byte	0x50
 13281 0b33 9F       		.byte	0x9f
 13282 0b34 9E000000 		.4byte	.LVL222
 13283 0b38 A6000000 		.4byte	.LVL223
 13284 0b3c 0100     		.2byte	0x1
 13285 0b3e 50       		.byte	0x50
 13286 0b3f A6000000 		.4byte	.LVL223
 13287 0b43 BA000000 		.4byte	.LVL225
 13288 0b47 0400     		.2byte	0x4
 13289 0b49 F3       		.byte	0xf3
ARM GAS  C:\Users\jo\AppData\Local\Temp\ccQTqoh0.s 			page 237


 13290 0b4a 01       		.uleb128 0x1
 13291 0b4b 50       		.byte	0x50
 13292 0b4c 9F       		.byte	0x9f
 13293 0b4d BA000000 		.4byte	.LVL225
 13294 0b51 E0000000 		.4byte	.LFE293
 13295 0b55 0100     		.2byte	0x1
 13296 0b57 50       		.byte	0x50
 13297 0b58 00000000 		.4byte	0
 13298 0b5c 00000000 		.4byte	0
 13299              	.LLST59:
 13300 0b60 00000000 		.4byte	.LVL212
 13301 0b64 0E000000 		.4byte	.LVL213
 13302 0b68 0100     		.2byte	0x1
 13303 0b6a 51       		.byte	0x51
 13304 0b6b 0E000000 		.4byte	.LVL213
 13305 0b6f BA000000 		.4byte	.LVL225
 13306 0b73 0100     		.2byte	0x1
 13307 0b75 54       		.byte	0x54
 13308 0b76 BA000000 		.4byte	.LVL225
 13309 0b7a C0000000 		.4byte	.LVL226
 13310 0b7e 0100     		.2byte	0x1
 13311 0b80 51       		.byte	0x51
 13312 0b81 C0000000 		.4byte	.LVL226
 13313 0b85 E0000000 		.4byte	.LFE293
 13314 0b89 0100     		.2byte	0x1
 13315 0b8b 54       		.byte	0x54
 13316 0b8c 00000000 		.4byte	0
 13317 0b90 00000000 		.4byte	0
 13318              	.LLST60:
 13319 0b94 58000000 		.4byte	.LVL216
 13320 0b98 5E000000 		.4byte	.LVL217
 13321 0b9c 0600     		.2byte	0x6
 13322 0b9e 03       		.byte	0x3
 13323 0b9f F8020000 		.4byte	.LC19
 13324 0ba3 9F       		.byte	0x9f
 13325 0ba4 00000000 		.4byte	0
 13326 0ba8 00000000 		.4byte	0
 13327              	.LLST61:
 13328 0bac 74000000 		.4byte	.LVL218
 13329 0bb0 7A000000 		.4byte	.LVL219
 13330 0bb4 0600     		.2byte	0x6
 13331 0bb6 03       		.byte	0x3
 13332 0bb7 10030000 		.4byte	.LC20
 13333 0bbb 9F       		.byte	0x9f
 13334 0bbc 00000000 		.4byte	0
 13335 0bc0 00000000 		.4byte	0
 13336              	.LLST62:
 13337 0bc4 90000000 		.4byte	.LVL220
 13338 0bc8 96000000 		.4byte	.LVL221
 13339 0bcc 0600     		.2byte	0x6
 13340 0bce 03       		.byte	0x3
 13341 0bcf 2C030000 		.4byte	.LC21
 13342 0bd3 9F       		.byte	0x9f
 13343 0bd4 00000000 		.4byte	0
 13344 0bd8 00000000 		.4byte	0
 13345              	.LLST63:
 13346 0bdc 00000000 		.4byte	.LVL227
ARM GAS  C:\Users\jo\AppData\Local\Temp\ccQTqoh0.s 			page 238


 13347 0be0 24000000 		.4byte	.LVL229
 13348 0be4 0100     		.2byte	0x1
 13349 0be6 50       		.byte	0x50
 13350 0be7 24000000 		.4byte	.LVL229
 13351 0beb 34000000 		.4byte	.LVL232
 13352 0bef 0100     		.2byte	0x1
 13353 0bf1 54       		.byte	0x54
 13354 0bf2 3C000000 		.4byte	.LVL233
 13355 0bf6 3E000000 		.4byte	.LVL234
 13356 0bfa 0100     		.2byte	0x1
 13357 0bfc 50       		.byte	0x50
 13358 0bfd 3E000000 		.4byte	.LVL234
 13359 0c01 4C000000 		.4byte	.LVL236
 13360 0c05 0100     		.2byte	0x1
 13361 0c07 54       		.byte	0x54
 13362 0c08 4C000000 		.4byte	.LVL236
 13363 0c0c 58000000 		.4byte	.LVL238
 13364 0c10 0100     		.2byte	0x1
 13365 0c12 50       		.byte	0x50
 13366 0c13 58000000 		.4byte	.LVL238
 13367 0c17 96000000 		.4byte	.LVL241
 13368 0c1b 0100     		.2byte	0x1
 13369 0c1d 54       		.byte	0x54
 13370 0c1e 96000000 		.4byte	.LVL241
 13371 0c22 BE000000 		.4byte	.LVL243
 13372 0c26 0100     		.2byte	0x1
 13373 0c28 50       		.byte	0x50
 13374 0c29 BE000000 		.4byte	.LVL243
 13375 0c2d CA000000 		.4byte	.LVL245
 13376 0c31 0100     		.2byte	0x1
 13377 0c33 54       		.byte	0x54
 13378 0c34 CA000000 		.4byte	.LVL245
 13379 0c38 CC000000 		.4byte	.LVL246
 13380 0c3c 0200     		.2byte	0x2
 13381 0c3e 30       		.byte	0x30
 13382 0c3f 9F       		.byte	0x9f
 13383 0c40 CC000000 		.4byte	.LVL246
 13384 0c44 CE000000 		.4byte	.LVL247
 13385 0c48 0100     		.2byte	0x1
 13386 0c4a 50       		.byte	0x50
 13387 0c4b CE000000 		.4byte	.LVL247
 13388 0c4f E0000000 		.4byte	.LVL249
 13389 0c53 0100     		.2byte	0x1
 13390 0c55 54       		.byte	0x54
 13391 0c56 E0000000 		.4byte	.LVL249
 13392 0c5a E2000000 		.4byte	.LVL250
 13393 0c5e 0200     		.2byte	0x2
 13394 0c60 30       		.byte	0x30
 13395 0c61 9F       		.byte	0x9f
 13396 0c62 E2000000 		.4byte	.LVL250
 13397 0c66 EC000000 		.4byte	.LVL251
 13398 0c6a 0100     		.2byte	0x1
 13399 0c6c 50       		.byte	0x50
 13400 0c6d EC000000 		.4byte	.LVL251
 13401 0c71 40010000 		.4byte	.LVL258
 13402 0c75 0100     		.2byte	0x1
 13403 0c77 54       		.byte	0x54
ARM GAS  C:\Users\jo\AppData\Local\Temp\ccQTqoh0.s 			page 239


 13404 0c78 40010000 		.4byte	.LVL258
 13405 0c7c 8C010000 		.4byte	.LFE262
 13406 0c80 0100     		.2byte	0x1
 13407 0c82 50       		.byte	0x50
 13408 0c83 00000000 		.4byte	0
 13409 0c87 00000000 		.4byte	0
 13410              	.LLST64:
 13411 0c8b 00000000 		.4byte	.LVL227
 13412 0c8f 12000000 		.4byte	.LVL228
 13413 0c93 0100     		.2byte	0x1
 13414 0c95 51       		.byte	0x51
 13415 0c96 12000000 		.4byte	.LVL228
 13416 0c9a 4C000000 		.4byte	.LVL236
 13417 0c9e 0400     		.2byte	0x4
 13418 0ca0 F3       		.byte	0xf3
 13419 0ca1 01       		.uleb128 0x1
 13420 0ca2 51       		.byte	0x51
 13421 0ca3 9F       		.byte	0x9f
 13422 0ca4 4C000000 		.4byte	.LVL236
 13423 0ca8 52000000 		.4byte	.LVL237
 13424 0cac 0100     		.2byte	0x1
 13425 0cae 51       		.byte	0x51
 13426 0caf 52000000 		.4byte	.LVL237
 13427 0cb3 4E010000 		.4byte	.LVL259
 13428 0cb7 0400     		.2byte	0x4
 13429 0cb9 F3       		.byte	0xf3
 13430 0cba 01       		.uleb128 0x1
 13431 0cbb 51       		.byte	0x51
 13432 0cbc 9F       		.byte	0x9f
 13433 0cbd 4E010000 		.4byte	.LVL259
 13434 0cc1 50010000 		.4byte	.LVL260
 13435 0cc5 0100     		.2byte	0x1
 13436 0cc7 51       		.byte	0x51
 13437 0cc8 50010000 		.4byte	.LVL260
 13438 0ccc 8C010000 		.4byte	.LFE262
 13439 0cd0 0400     		.2byte	0x4
 13440 0cd2 F3       		.byte	0xf3
 13441 0cd3 01       		.uleb128 0x1
 13442 0cd4 51       		.byte	0x51
 13443 0cd5 9F       		.byte	0x9f
 13444 0cd6 00000000 		.4byte	0
 13445 0cda 00000000 		.4byte	0
 13446              	.LLST65:
 13447 0cde 28000000 		.4byte	.LVL230
 13448 0ce2 2E000000 		.4byte	.LVL231
 13449 0ce6 0100     		.2byte	0x1
 13450 0ce8 50       		.byte	0x50
 13451 0ce9 2E000000 		.4byte	.LVL231
 13452 0ced 34000000 		.4byte	.LVL232
 13453 0cf1 0200     		.2byte	0x2
 13454 0cf3 30       		.byte	0x30
 13455 0cf4 9F       		.byte	0x9f
 13456 0cf5 42000000 		.4byte	.LVL235
 13457 0cf9 4C000000 		.4byte	.LVL236
 13458 0cfd 0100     		.2byte	0x1
 13459 0cff 50       		.byte	0x50
 13460 0d00 96000000 		.4byte	.LVL241
ARM GAS  C:\Users\jo\AppData\Local\Temp\ccQTqoh0.s 			page 240


 13461 0d04 E2000000 		.4byte	.LVL250
 13462 0d08 0200     		.2byte	0x2
 13463 0d0a 30       		.byte	0x30
 13464 0d0b 9F       		.byte	0x9f
 13465 0d0c 40010000 		.4byte	.LVL258
 13466 0d10 4E010000 		.4byte	.LVL259
 13467 0d14 0200     		.2byte	0x2
 13468 0d16 30       		.byte	0x30
 13469 0d17 9F       		.byte	0x9f
 13470 0d18 5C010000 		.4byte	.LVL261
 13471 0d1c 8C010000 		.4byte	.LFE262
 13472 0d20 0200     		.2byte	0x2
 13473 0d22 30       		.byte	0x30
 13474 0d23 9F       		.byte	0x9f
 13475 0d24 00000000 		.4byte	0
 13476 0d28 00000000 		.4byte	0
 13477              	.LLST66:
 13478 0d2c F2000000 		.4byte	.LVL252
 13479 0d30 FA000000 		.4byte	.LVL254
 13480 0d34 0600     		.2byte	0x6
 13481 0d36 03       		.byte	0x3
 13482 0d37 44030000 		.4byte	.LC22
 13483 0d3b 9F       		.byte	0x9f
 13484 0d3c 00000000 		.4byte	0
 13485 0d40 00000000 		.4byte	0
 13486              	.LLST67:
 13487 0d44 00000000 		.4byte	.LVL262
 13488 0d48 13000000 		.4byte	.LVL263-1
 13489 0d4c 0100     		.2byte	0x1
 13490 0d4e 50       		.byte	0x50
 13491 0d4f 13000000 		.4byte	.LVL263-1
 13492 0d53 14000000 		.4byte	.LFE263
 13493 0d57 0400     		.2byte	0x4
 13494 0d59 F3       		.byte	0xf3
 13495 0d5a 01       		.uleb128 0x1
 13496 0d5b 50       		.byte	0x50
 13497 0d5c 9F       		.byte	0x9f
 13498 0d5d 00000000 		.4byte	0
 13499 0d61 00000000 		.4byte	0
 13500              	.LLST68:
 13501 0d65 00000000 		.4byte	.LVL264
 13502 0d69 06000000 		.4byte	.LVL265
 13503 0d6d 0100     		.2byte	0x1
 13504 0d6f 50       		.byte	0x50
 13505 0d70 06000000 		.4byte	.LVL265
 13506 0d74 18000000 		.4byte	.LVL269
 13507 0d78 0400     		.2byte	0x4
 13508 0d7a F3       		.byte	0xf3
 13509 0d7b 01       		.uleb128 0x1
 13510 0d7c 50       		.byte	0x50
 13511 0d7d 9F       		.byte	0x9f
 13512 0d7e 18000000 		.4byte	.LVL269
 13513 0d82 1C000000 		.4byte	.LVL270
 13514 0d86 0100     		.2byte	0x1
 13515 0d88 50       		.byte	0x50
 13516 0d89 1C000000 		.4byte	.LVL270
 13517 0d8d 1E000000 		.4byte	.LVL271
ARM GAS  C:\Users\jo\AppData\Local\Temp\ccQTqoh0.s 			page 241


 13518 0d91 0400     		.2byte	0x4
 13519 0d93 F3       		.byte	0xf3
 13520 0d94 01       		.uleb128 0x1
 13521 0d95 50       		.byte	0x50
 13522 0d96 9F       		.byte	0x9f
 13523 0d97 1E000000 		.4byte	.LVL271
 13524 0d9b 20000000 		.4byte	.LVL272
 13525 0d9f 0100     		.2byte	0x1
 13526 0da1 50       		.byte	0x50
 13527 0da2 20000000 		.4byte	.LVL272
 13528 0da6 24000000 		.4byte	.LFE281
 13529 0daa 0400     		.2byte	0x4
 13530 0dac F3       		.byte	0xf3
 13531 0dad 01       		.uleb128 0x1
 13532 0dae 50       		.byte	0x50
 13533 0daf 9F       		.byte	0x9f
 13534 0db0 00000000 		.4byte	0
 13535 0db4 00000000 		.4byte	0
 13536              	.LLST69:
 13537 0db8 00000000 		.4byte	.LVL264
 13538 0dbc 0A000000 		.4byte	.LVL266
 13539 0dc0 0100     		.2byte	0x1
 13540 0dc2 51       		.byte	0x51
 13541 0dc3 0A000000 		.4byte	.LVL266
 13542 0dc7 0D000000 		.4byte	.LVL267-1
 13543 0dcb 0100     		.2byte	0x1
 13544 0dcd 50       		.byte	0x50
 13545 0dce 0D000000 		.4byte	.LVL267-1
 13546 0dd2 18000000 		.4byte	.LVL269
 13547 0dd6 0400     		.2byte	0x4
 13548 0dd8 F3       		.byte	0xf3
 13549 0dd9 01       		.uleb128 0x1
 13550 0dda 51       		.byte	0x51
 13551 0ddb 9F       		.byte	0x9f
 13552 0ddc 18000000 		.4byte	.LVL269
 13553 0de0 23000000 		.4byte	.LVL273-1
 13554 0de4 0100     		.2byte	0x1
 13555 0de6 51       		.byte	0x51
 13556 0de7 23000000 		.4byte	.LVL273-1
 13557 0deb 24000000 		.4byte	.LFE281
 13558 0def 0400     		.2byte	0x4
 13559 0df1 F3       		.byte	0xf3
 13560 0df2 01       		.uleb128 0x1
 13561 0df3 51       		.byte	0x51
 13562 0df4 9F       		.byte	0x9f
 13563 0df5 00000000 		.4byte	0
 13564 0df9 00000000 		.4byte	0
 13565              	.LLST70:
 13566 0dfd 00000000 		.4byte	.LVL264
 13567 0e01 0D000000 		.4byte	.LVL267-1
 13568 0e05 0100     		.2byte	0x1
 13569 0e07 52       		.byte	0x52
 13570 0e08 0D000000 		.4byte	.LVL267-1
 13571 0e0c 18000000 		.4byte	.LVL269
 13572 0e10 0100     		.2byte	0x1
 13573 0e12 54       		.byte	0x54
 13574 0e13 18000000 		.4byte	.LVL269
ARM GAS  C:\Users\jo\AppData\Local\Temp\ccQTqoh0.s 			page 242


 13575 0e17 23000000 		.4byte	.LVL273-1
 13576 0e1b 0100     		.2byte	0x1
 13577 0e1d 52       		.byte	0x52
 13578 0e1e 23000000 		.4byte	.LVL273-1
 13579 0e22 24000000 		.4byte	.LFE281
 13580 0e26 0400     		.2byte	0x4
 13581 0e28 F3       		.byte	0xf3
 13582 0e29 01       		.uleb128 0x1
 13583 0e2a 52       		.byte	0x52
 13584 0e2b 9F       		.byte	0x9f
 13585 0e2c 00000000 		.4byte	0
 13586 0e30 00000000 		.4byte	0
 13587              	.LLST71:
 13588 0e34 00000000 		.4byte	.LVL264
 13589 0e38 0D000000 		.4byte	.LVL267-1
 13590 0e3c 0100     		.2byte	0x1
 13591 0e3e 53       		.byte	0x53
 13592 0e3f 0D000000 		.4byte	.LVL267-1
 13593 0e43 18000000 		.4byte	.LVL269
 13594 0e47 0400     		.2byte	0x4
 13595 0e49 F3       		.byte	0xf3
 13596 0e4a 01       		.uleb128 0x1
 13597 0e4b 53       		.byte	0x53
 13598 0e4c 9F       		.byte	0x9f
 13599 0e4d 18000000 		.4byte	.LVL269
 13600 0e51 23000000 		.4byte	.LVL273-1
 13601 0e55 0100     		.2byte	0x1
 13602 0e57 53       		.byte	0x53
 13603 0e58 23000000 		.4byte	.LVL273-1
 13604 0e5c 24000000 		.4byte	.LFE281
 13605 0e60 0400     		.2byte	0x4
 13606 0e62 F3       		.byte	0xf3
 13607 0e63 01       		.uleb128 0x1
 13608 0e64 53       		.byte	0x53
 13609 0e65 9F       		.byte	0x9f
 13610 0e66 00000000 		.4byte	0
 13611 0e6a 00000000 		.4byte	0
 13612              	.LLST72:
 13613 0e6e 18000000 		.4byte	.LVL269
 13614 0e72 1C000000 		.4byte	.LVL270
 13615 0e76 0100     		.2byte	0x1
 13616 0e78 50       		.byte	0x50
 13617 0e79 1C000000 		.4byte	.LVL270
 13618 0e7d 1E000000 		.4byte	.LVL271
 13619 0e81 0400     		.2byte	0x4
 13620 0e83 F3       		.byte	0xf3
 13621 0e84 01       		.uleb128 0x1
 13622 0e85 50       		.byte	0x50
 13623 0e86 9F       		.byte	0x9f
 13624 0e87 1E000000 		.4byte	.LVL271
 13625 0e8b 20000000 		.4byte	.LVL272
 13626 0e8f 0100     		.2byte	0x1
 13627 0e91 50       		.byte	0x50
 13628 0e92 20000000 		.4byte	.LVL272
 13629 0e96 24000000 		.4byte	.LFE281
 13630 0e9a 0400     		.2byte	0x4
 13631 0e9c F3       		.byte	0xf3
ARM GAS  C:\Users\jo\AppData\Local\Temp\ccQTqoh0.s 			page 243


 13632 0e9d 01       		.uleb128 0x1
 13633 0e9e 50       		.byte	0x50
 13634 0e9f 9F       		.byte	0x9f
 13635 0ea0 00000000 		.4byte	0
 13636 0ea4 00000000 		.4byte	0
 13637              	.LLST73:
 13638 0ea8 18000000 		.4byte	.LVL269
 13639 0eac 23000000 		.4byte	.LVL273-1
 13640 0eb0 0100     		.2byte	0x1
 13641 0eb2 53       		.byte	0x53
 13642 0eb3 23000000 		.4byte	.LVL273-1
 13643 0eb7 24000000 		.4byte	.LFE281
 13644 0ebb 0400     		.2byte	0x4
 13645 0ebd F3       		.byte	0xf3
 13646 0ebe 01       		.uleb128 0x1
 13647 0ebf 53       		.byte	0x53
 13648 0ec0 9F       		.byte	0x9f
 13649 0ec1 00000000 		.4byte	0
 13650 0ec5 00000000 		.4byte	0
 13651              	.LLST74:
 13652 0ec9 18000000 		.4byte	.LVL269
 13653 0ecd 23000000 		.4byte	.LVL273-1
 13654 0ed1 0100     		.2byte	0x1
 13655 0ed3 51       		.byte	0x51
 13656 0ed4 23000000 		.4byte	.LVL273-1
 13657 0ed8 24000000 		.4byte	.LFE281
 13658 0edc 0400     		.2byte	0x4
 13659 0ede F3       		.byte	0xf3
 13660 0edf 01       		.uleb128 0x1
 13661 0ee0 51       		.byte	0x51
 13662 0ee1 9F       		.byte	0x9f
 13663 0ee2 00000000 		.4byte	0
 13664 0ee6 00000000 		.4byte	0
 13665              	.LLST75:
 13666 0eea 00000000 		.4byte	.LVL274
 13667 0eee 14000000 		.4byte	.LVL276
 13668 0ef2 0100     		.2byte	0x1
 13669 0ef4 50       		.byte	0x50
 13670 0ef5 14000000 		.4byte	.LVL276
 13671 0ef9 56000000 		.4byte	.LVL287
 13672 0efd 0100     		.2byte	0x1
 13673 0eff 54       		.byte	0x54
 13674 0f00 56000000 		.4byte	.LVL287
 13675 0f04 58000000 		.4byte	.LVL288
 13676 0f08 0100     		.2byte	0x1
 13677 0f0a 50       		.byte	0x50
 13678 0f0b 58000000 		.4byte	.LVL288
 13679 0f0f 68000000 		.4byte	.LFE276
 13680 0f13 0100     		.2byte	0x1
 13681 0f15 54       		.byte	0x54
 13682 0f16 00000000 		.4byte	0
 13683 0f1a 00000000 		.4byte	0
 13684              	.LLST76:
 13685 0f1e 1A000000 		.4byte	.LVL277
 13686 0f22 3A000000 		.4byte	.LVL280
 13687 0f26 0100     		.2byte	0x1
 13688 0f28 50       		.byte	0x50
ARM GAS  C:\Users\jo\AppData\Local\Temp\ccQTqoh0.s 			page 244


 13689 0f29 48000000 		.4byte	.LVL284
 13690 0f2d 4C000000 		.4byte	.LVL285
 13691 0f31 0100     		.2byte	0x1
 13692 0f33 50       		.byte	0x50
 13693 0f34 4C000000 		.4byte	.LVL285
 13694 0f38 52000000 		.4byte	.LVL286
 13695 0f3c 0300     		.2byte	0x3
 13696 0f3e 70       		.byte	0x70
 13697 0f3f 76       		.sleb128 -10
 13698 0f40 9F       		.byte	0x9f
 13699 0f41 62000000 		.4byte	.LVL289
 13700 0f45 64000000 		.4byte	.LVL290
 13701 0f49 0100     		.2byte	0x1
 13702 0f4b 50       		.byte	0x50
 13703 0f4c 00000000 		.4byte	0
 13704 0f50 00000000 		.4byte	0
 13705              	.LLST77:
 13706 0f54 0A000000 		.4byte	.LVL275
 13707 0f58 26000000 		.4byte	.LVL279
 13708 0f5c 0100     		.2byte	0x1
 13709 0f5e 55       		.byte	0x55
 13710 0f5f 48000000 		.4byte	.LVL284
 13711 0f63 52000000 		.4byte	.LVL286
 13712 0f67 0100     		.2byte	0x1
 13713 0f69 55       		.byte	0x55
 13714 0f6a 56000000 		.4byte	.LVL287
 13715 0f6e 64000000 		.4byte	.LVL290
 13716 0f72 0100     		.2byte	0x1
 13717 0f74 55       		.byte	0x55
 13718 0f75 00000000 		.4byte	0
 13719 0f79 00000000 		.4byte	0
 13720              	.LLST78:
 13721 0f7d 20000000 		.4byte	.LVL278
 13722 0f81 42000000 		.4byte	.LVL283
 13723 0f85 0100     		.2byte	0x1
 13724 0f87 54       		.byte	0x54
 13725 0f88 00000000 		.4byte	0
 13726 0f8c 00000000 		.4byte	0
 13727              	.LLST79:
 13728 0f90 3E000000 		.4byte	.LVL281
 13729 0f94 40000000 		.4byte	.LVL282
 13730 0f98 0100     		.2byte	0x1
 13731 0f9a 50       		.byte	0x50
 13732 0f9b 00000000 		.4byte	0
 13733 0f9f 00000000 		.4byte	0
 13734              	.LLST80:
 13735 0fa3 38000000 		.4byte	.LVL292
 13736 0fa7 4E000000 		.4byte	.LVL294
 13737 0fab 0100     		.2byte	0x1
 13738 0fad 54       		.byte	0x54
 13739 0fae 00000000 		.4byte	0
 13740 0fb2 00000000 		.4byte	0
 13741              	.LLST81:
 13742 0fb6 00000000 		.4byte	.LVL298
 13743 0fba 18000000 		.4byte	.LVL299
 13744 0fbe 0100     		.2byte	0x1
 13745 0fc0 50       		.byte	0x50
ARM GAS  C:\Users\jo\AppData\Local\Temp\ccQTqoh0.s 			page 245


 13746 0fc1 18000000 		.4byte	.LVL299
 13747 0fc5 28000000 		.4byte	.LVL302
 13748 0fc9 0100     		.2byte	0x1
 13749 0fcb 55       		.byte	0x55
 13750 0fcc 28000000 		.4byte	.LVL302
 13751 0fd0 47000000 		.4byte	.LVL304-1
 13752 0fd4 0100     		.2byte	0x1
 13753 0fd6 50       		.byte	0x50
 13754 0fd7 47000000 		.4byte	.LVL304-1
 13755 0fdb 48000000 		.4byte	.LVL304
 13756 0fdf 0400     		.2byte	0x4
 13757 0fe1 F3       		.byte	0xf3
 13758 0fe2 01       		.uleb128 0x1
 13759 0fe3 50       		.byte	0x50
 13760 0fe4 9F       		.byte	0x9f
 13761 0fe5 48000000 		.4byte	.LVL304
 13762 0fe9 51000000 		.4byte	.LVL306-1
 13763 0fed 0100     		.2byte	0x1
 13764 0fef 50       		.byte	0x50
 13765 0ff0 51000000 		.4byte	.LVL306-1
 13766 0ff4 52000000 		.4byte	.LVL306
 13767 0ff8 0400     		.2byte	0x4
 13768 0ffa F3       		.byte	0xf3
 13769 0ffb 01       		.uleb128 0x1
 13770 0ffc 50       		.byte	0x50
 13771 0ffd 9F       		.byte	0x9f
 13772 0ffe 52000000 		.4byte	.LVL306
 13773 1002 54000000 		.4byte	.LVL307
 13774 1006 0100     		.2byte	0x1
 13775 1008 50       		.byte	0x50
 13776 1009 54000000 		.4byte	.LVL307
 13777 100d 56000000 		.4byte	.LFE264
 13778 1011 0100     		.2byte	0x1
 13779 1013 55       		.byte	0x55
 13780 1014 00000000 		.4byte	0
 13781 1018 00000000 		.4byte	0
 13782              	.LLST82:
 13783 101c 00000000 		.4byte	.LVL298
 13784 1020 1F000000 		.4byte	.LVL300-1
 13785 1024 0100     		.2byte	0x1
 13786 1026 51       		.byte	0x51
 13787 1027 1F000000 		.4byte	.LVL300-1
 13788 102b 28000000 		.4byte	.LVL302
 13789 102f 0400     		.2byte	0x4
 13790 1031 F3       		.byte	0xf3
 13791 1032 01       		.uleb128 0x1
 13792 1033 51       		.byte	0x51
 13793 1034 9F       		.byte	0x9f
 13794 1035 28000000 		.4byte	.LVL302
 13795 1039 47000000 		.4byte	.LVL304-1
 13796 103d 0100     		.2byte	0x1
 13797 103f 51       		.byte	0x51
 13798 1040 47000000 		.4byte	.LVL304-1
 13799 1044 48000000 		.4byte	.LVL304
 13800 1048 0400     		.2byte	0x4
 13801 104a F3       		.byte	0xf3
 13802 104b 01       		.uleb128 0x1
ARM GAS  C:\Users\jo\AppData\Local\Temp\ccQTqoh0.s 			page 246


 13803 104c 51       		.byte	0x51
 13804 104d 9F       		.byte	0x9f
 13805 104e 48000000 		.4byte	.LVL304
 13806 1052 4A000000 		.4byte	.LVL305
 13807 1056 0100     		.2byte	0x1
 13808 1058 51       		.byte	0x51
 13809 1059 4A000000 		.4byte	.LVL305
 13810 105d 52000000 		.4byte	.LVL306
 13811 1061 0400     		.2byte	0x4
 13812 1063 F3       		.byte	0xf3
 13813 1064 01       		.uleb128 0x1
 13814 1065 51       		.byte	0x51
 13815 1066 9F       		.byte	0x9f
 13816 1067 52000000 		.4byte	.LVL306
 13817 106b 56000000 		.4byte	.LFE264
 13818 106f 0100     		.2byte	0x1
 13819 1071 51       		.byte	0x51
 13820 1072 00000000 		.4byte	0
 13821 1076 00000000 		.4byte	0
 13822              	.LLST83:
 13823 107a 00000000 		.4byte	.LVL298
 13824 107e 1F000000 		.4byte	.LVL300-1
 13825 1082 0100     		.2byte	0x1
 13826 1084 52       		.byte	0x52
 13827 1085 1F000000 		.4byte	.LVL300-1
 13828 1089 22000000 		.4byte	.LVL301
 13829 108d 0100     		.2byte	0x1
 13830 108f 54       		.byte	0x54
 13831 1090 22000000 		.4byte	.LVL301
 13832 1094 28000000 		.4byte	.LVL302
 13833 1098 0400     		.2byte	0x4
 13834 109a F3       		.byte	0xf3
 13835 109b 01       		.uleb128 0x1
 13836 109c 52       		.byte	0x52
 13837 109d 9F       		.byte	0x9f
 13838 109e 28000000 		.4byte	.LVL302
 13839 10a2 36000000 		.4byte	.LVL303
 13840 10a6 0100     		.2byte	0x1
 13841 10a8 52       		.byte	0x52
 13842 10a9 36000000 		.4byte	.LVL303
 13843 10ad 48000000 		.4byte	.LVL304
 13844 10b1 0400     		.2byte	0x4
 13845 10b3 F3       		.byte	0xf3
 13846 10b4 01       		.uleb128 0x1
 13847 10b5 52       		.byte	0x52
 13848 10b6 9F       		.byte	0x9f
 13849 10b7 48000000 		.4byte	.LVL304
 13850 10bb 51000000 		.4byte	.LVL306-1
 13851 10bf 0100     		.2byte	0x1
 13852 10c1 52       		.byte	0x52
 13853 10c2 51000000 		.4byte	.LVL306-1
 13854 10c6 56000000 		.4byte	.LFE264
 13855 10ca 0400     		.2byte	0x4
 13856 10cc F3       		.byte	0xf3
 13857 10cd 01       		.uleb128 0x1
 13858 10ce 52       		.byte	0x52
 13859 10cf 9F       		.byte	0x9f
ARM GAS  C:\Users\jo\AppData\Local\Temp\ccQTqoh0.s 			page 247


 13860 10d0 00000000 		.4byte	0
 13861 10d4 00000000 		.4byte	0
 13862              	.LLST84:
 13863 10d8 00000000 		.4byte	.LVL308
 13864 10dc 10000000 		.4byte	.LVL309
 13865 10e0 0100     		.2byte	0x1
 13866 10e2 50       		.byte	0x50
 13867 10e3 10000000 		.4byte	.LVL309
 13868 10e7 7E000000 		.4byte	.LVL328
 13869 10eb 0100     		.2byte	0x1
 13870 10ed 54       		.byte	0x54
 13871 10ee 7E000000 		.4byte	.LVL328
 13872 10f2 80000000 		.4byte	.LVL329
 13873 10f6 0400     		.2byte	0x4
 13874 10f8 F3       		.byte	0xf3
 13875 10f9 01       		.uleb128 0x1
 13876 10fa 50       		.byte	0x50
 13877 10fb 9F       		.byte	0x9f
 13878 10fc 80000000 		.4byte	.LVL329
 13879 1100 B4000000 		.4byte	.LVL334
 13880 1104 0100     		.2byte	0x1
 13881 1106 54       		.byte	0x54
 13882 1107 B4000000 		.4byte	.LVL334
 13883 110b B7000000 		.4byte	.LVL335-1
 13884 110f 0100     		.2byte	0x1
 13885 1111 50       		.byte	0x50
 13886 1112 B7000000 		.4byte	.LVL335-1
 13887 1116 B8000000 		.4byte	.LVL335
 13888 111a 0400     		.2byte	0x4
 13889 111c F3       		.byte	0xf3
 13890 111d 01       		.uleb128 0x1
 13891 111e 50       		.byte	0x50
 13892 111f 9F       		.byte	0x9f
 13893 1120 B8000000 		.4byte	.LVL335
 13894 1124 C2000000 		.4byte	.LVL337
 13895 1128 0100     		.2byte	0x1
 13896 112a 50       		.byte	0x50
 13897 112b C2000000 		.4byte	.LVL337
 13898 112f F0000000 		.4byte	.LFE265
 13899 1133 0100     		.2byte	0x1
 13900 1135 54       		.byte	0x54
 13901 1136 00000000 		.4byte	0
 13902 113a 00000000 		.4byte	0
 13903              	.LLST85:
 13904 113e 00000000 		.4byte	.LVL308
 13905 1142 10000000 		.4byte	.LVL309
 13906 1146 0100     		.2byte	0x1
 13907 1148 51       		.byte	0x51
 13908 1149 10000000 		.4byte	.LVL309
 13909 114d 7E000000 		.4byte	.LVL328
 13910 1151 0100     		.2byte	0x1
 13911 1153 56       		.byte	0x56
 13912 1154 7E000000 		.4byte	.LVL328
 13913 1158 80000000 		.4byte	.LVL329
 13914 115c 0400     		.2byte	0x4
 13915 115e F3       		.byte	0xf3
 13916 115f 01       		.uleb128 0x1
ARM GAS  C:\Users\jo\AppData\Local\Temp\ccQTqoh0.s 			page 248


 13917 1160 51       		.byte	0x51
 13918 1161 9F       		.byte	0x9f
 13919 1162 80000000 		.4byte	.LVL329
 13920 1166 B4000000 		.4byte	.LVL334
 13921 116a 0100     		.2byte	0x1
 13922 116c 56       		.byte	0x56
 13923 116d B4000000 		.4byte	.LVL334
 13924 1171 B8000000 		.4byte	.LVL335
 13925 1175 0400     		.2byte	0x4
 13926 1177 F3       		.byte	0xf3
 13927 1178 01       		.uleb128 0x1
 13928 1179 51       		.byte	0x51
 13929 117a 9F       		.byte	0x9f
 13930 117b B8000000 		.4byte	.LVL335
 13931 117f BE000000 		.4byte	.LVL336
 13932 1183 0100     		.2byte	0x1
 13933 1185 51       		.byte	0x51
 13934 1186 BE000000 		.4byte	.LVL336
 13935 118a F0000000 		.4byte	.LFE265
 13936 118e 0100     		.2byte	0x1
 13937 1190 56       		.byte	0x56
 13938 1191 00000000 		.4byte	0
 13939 1195 00000000 		.4byte	0
 13940              	.LLST86:
 13941 1199 1A000000 		.4byte	.LVL310
 13942 119d 7E000000 		.4byte	.LVL328
 13943 11a1 0100     		.2byte	0x1
 13944 11a3 59       		.byte	0x59
 13945 11a4 80000000 		.4byte	.LVL329
 13946 11a8 A4000000 		.4byte	.LVL332
 13947 11ac 0100     		.2byte	0x1
 13948 11ae 59       		.byte	0x59
 13949 11af 00000000 		.4byte	0
 13950 11b3 00000000 		.4byte	0
 13951              	.LLST87:
 13952 11b7 1E000000 		.4byte	.LVL311
 13953 11bb 7E000000 		.4byte	.LVL328
 13954 11bf 0100     		.2byte	0x1
 13955 11c1 58       		.byte	0x58
 13956 11c2 80000000 		.4byte	.LVL329
 13957 11c6 A4000000 		.4byte	.LVL332
 13958 11ca 0100     		.2byte	0x1
 13959 11cc 58       		.byte	0x58
 13960 11cd 00000000 		.4byte	0
 13961 11d1 00000000 		.4byte	0
 13962              	.LLST88:
 13963 11d5 22000000 		.4byte	.LVL312
 13964 11d9 7E000000 		.4byte	.LVL328
 13965 11dd 0100     		.2byte	0x1
 13966 11df 55       		.byte	0x55
 13967 11e0 7E000000 		.4byte	.LVL328
 13968 11e4 7F000000 		.4byte	.LVL329-1
 13969 11e8 0100     		.2byte	0x1
 13970 11ea 53       		.byte	0x53
 13971 11eb 80000000 		.4byte	.LVL329
 13972 11ef A4000000 		.4byte	.LVL332
 13973 11f3 0100     		.2byte	0x1
ARM GAS  C:\Users\jo\AppData\Local\Temp\ccQTqoh0.s 			page 249


 13974 11f5 55       		.byte	0x55
 13975 11f6 00000000 		.4byte	0
 13976 11fa 00000000 		.4byte	0
 13977              	.LLST89:
 13978 11fe 24000000 		.4byte	.LVL313
 13979 1202 7E000000 		.4byte	.LVL328
 13980 1206 0100     		.2byte	0x1
 13981 1208 57       		.byte	0x57
 13982 1209 7E000000 		.4byte	.LVL328
 13983 120d 7F000000 		.4byte	.LVL329-1
 13984 1211 0100     		.2byte	0x1
 13985 1213 50       		.byte	0x50
 13986 1214 80000000 		.4byte	.LVL329
 13987 1218 A4000000 		.4byte	.LVL332
 13988 121c 0100     		.2byte	0x1
 13989 121e 57       		.byte	0x57
 13990 121f 00000000 		.4byte	0
 13991 1223 00000000 		.4byte	0
 13992              	.LLST90:
 13993 1227 34000000 		.4byte	.LVL315
 13994 122b 3B000000 		.4byte	.LVL317-1
 13995 122f 0100     		.2byte	0x1
 13996 1231 50       		.byte	0x50
 13997 1232 3C000000 		.4byte	.LVL317
 13998 1236 42000000 		.4byte	.LVL318
 13999 123a 0100     		.2byte	0x1
 14000 123c 5A       		.byte	0x5a
 14001 123d 00000000 		.4byte	0
 14002 1241 00000000 		.4byte	0
 14003              	.LLST91:
 14004 1245 38000000 		.4byte	.LVL316
 14005 1249 42000000 		.4byte	.LVL318
 14006 124d 0100     		.2byte	0x1
 14007 124f 5A       		.byte	0x5a
 14008 1250 00000000 		.4byte	0
 14009 1254 00000000 		.4byte	0
 14010              	.LLST92:
 14011 1258 46000000 		.4byte	.LVL319
 14012 125c 4D000000 		.4byte	.LVL321-1
 14013 1260 0100     		.2byte	0x1
 14014 1262 50       		.byte	0x50
 14015 1263 4E000000 		.4byte	.LVL321
 14016 1267 54000000 		.4byte	.LVL322
 14017 126b 0100     		.2byte	0x1
 14018 126d 5A       		.byte	0x5a
 14019 126e 00000000 		.4byte	0
 14020 1272 00000000 		.4byte	0
 14021              	.LLST93:
 14022 1276 4A000000 		.4byte	.LVL320
 14023 127a 54000000 		.4byte	.LVL322
 14024 127e 0100     		.2byte	0x1
 14025 1280 5A       		.byte	0x5a
 14026 1281 00000000 		.4byte	0
 14027 1285 00000000 		.4byte	0
 14028              	.LLST94:
 14029 1289 58000000 		.4byte	.LVL323
 14030 128d 5F000000 		.4byte	.LVL325-1
ARM GAS  C:\Users\jo\AppData\Local\Temp\ccQTqoh0.s 			page 250


 14031 1291 0100     		.2byte	0x1
 14032 1293 50       		.byte	0x50
 14033 1294 60000000 		.4byte	.LVL325
 14034 1298 66000000 		.4byte	.LVL326
 14035 129c 0100     		.2byte	0x1
 14036 129e 5A       		.byte	0x5a
 14037 129f 00000000 		.4byte	0
 14038 12a3 00000000 		.4byte	0
 14039              	.LLST95:
 14040 12a7 5C000000 		.4byte	.LVL324
 14041 12ab 66000000 		.4byte	.LVL326
 14042 12af 0100     		.2byte	0x1
 14043 12b1 5A       		.byte	0x5a
 14044 12b2 00000000 		.4byte	0
 14045 12b6 00000000 		.4byte	0
 14046              	.LLST96:
 14047 12ba 00000000 		.4byte	.LVL340
 14048 12be 05000000 		.4byte	.LVL341-1
 14049 12c2 0100     		.2byte	0x1
 14050 12c4 50       		.byte	0x50
 14051 12c5 05000000 		.4byte	.LVL341-1
 14052 12c9 06000000 		.4byte	.LFE266
 14053 12cd 0400     		.2byte	0x4
 14054 12cf F3       		.byte	0xf3
 14055 12d0 01       		.uleb128 0x1
 14056 12d1 50       		.byte	0x50
 14057 12d2 9F       		.byte	0x9f
 14058 12d3 00000000 		.4byte	0
 14059 12d7 00000000 		.4byte	0
 14060              	.LLST97:
 14061 12db 00000000 		.4byte	.LVL342
 14062 12df 0C000000 		.4byte	.LVL343
 14063 12e3 0100     		.2byte	0x1
 14064 12e5 50       		.byte	0x50
 14065 12e6 0C000000 		.4byte	.LVL343
 14066 12ea 54010000 		.4byte	.LFE284
 14067 12ee 0400     		.2byte	0x4
 14068 12f0 F3       		.byte	0xf3
 14069 12f1 01       		.uleb128 0x1
 14070 12f2 50       		.byte	0x50
 14071 12f3 9F       		.byte	0x9f
 14072 12f4 00000000 		.4byte	0
 14073 12f8 00000000 		.4byte	0
 14074              	.LLST98:
 14075 12fc 10000000 		.4byte	.LVL344
 14076 1300 1F000000 		.4byte	.LVL345-1
 14077 1304 0100     		.2byte	0x1
 14078 1306 50       		.byte	0x50
 14079 1307 1F000000 		.4byte	.LVL345-1
 14080 130b 9E000000 		.4byte	.LVL346
 14081 130f 0100     		.2byte	0x1
 14082 1311 54       		.byte	0x54
 14083 1312 9E000000 		.4byte	.LVL346
 14084 1316 A2000000 		.4byte	.LVL347
 14085 131a 0100     		.2byte	0x1
 14086 131c 50       		.byte	0x50
 14087 131d A2000000 		.4byte	.LVL347
ARM GAS  C:\Users\jo\AppData\Local\Temp\ccQTqoh0.s 			page 251


 14088 1321 AA000000 		.4byte	.LVL348
 14089 1325 0100     		.2byte	0x1
 14090 1327 54       		.byte	0x54
 14091 1328 CE000000 		.4byte	.LVL356
 14092 132c EE000000 		.4byte	.LVL359
 14093 1330 0100     		.2byte	0x1
 14094 1332 50       		.byte	0x50
 14095 1333 1C010000 		.4byte	.LVL366
 14096 1337 54010000 		.4byte	.LFE284
 14097 133b 0100     		.2byte	0x1
 14098 133d 50       		.byte	0x50
 14099 133e 00000000 		.4byte	0
 14100 1342 00000000 		.4byte	0
 14101              	.LLST99:
 14102 1346 A2000000 		.4byte	.LVL347
 14103 134a B0000000 		.4byte	.LVL349
 14104 134e 0100     		.2byte	0x1
 14105 1350 50       		.byte	0x50
 14106 1351 B0000000 		.4byte	.LVL349
 14107 1355 C7000000 		.4byte	.LVL355-1
 14108 1359 0100     		.2byte	0x1
 14109 135b 53       		.byte	0x53
 14110 135c 00000000 		.4byte	0
 14111 1360 00000000 		.4byte	0
 14112              	.LLST100:
 14113 1364 9E000000 		.4byte	.LVL346
 14114 1368 B0000000 		.4byte	.LVL349
 14115 136c 0200     		.2byte	0x2
 14116 136e 30       		.byte	0x30
 14117 136f 9F       		.byte	0x9f
 14118 1370 00000000 		.4byte	0
 14119 1374 00000000 		.4byte	0
 14120              	.LLST101:
 14121 1378 9E000000 		.4byte	.LVL346
 14122 137c B0000000 		.4byte	.LVL349
 14123 1380 0200     		.2byte	0x2
 14124 1382 30       		.byte	0x30
 14125 1383 9F       		.byte	0x9f
 14126 1384 B0000000 		.4byte	.LVL349
 14127 1388 BA000000 		.4byte	.LVL350
 14128 138c 0100     		.2byte	0x1
 14129 138e 51       		.byte	0x51
 14130 138f BC000000 		.4byte	.LVL351
 14131 1393 C4000000 		.4byte	.LVL354
 14132 1397 0100     		.2byte	0x1
 14133 1399 51       		.byte	0x51
 14134 139a 00000000 		.4byte	0
 14135 139e 00000000 		.4byte	0
 14136              	.LLST102:
 14137 13a2 C2000000 		.4byte	.LVL353
 14138 13a6 C7000000 		.4byte	.LVL355-1
 14139 13aa 0100     		.2byte	0x1
 14140 13ac 50       		.byte	0x50
 14141 13ad 00000000 		.4byte	0
 14142 13b1 00000000 		.4byte	0
 14143              	.LLST103:
 14144 13b5 E4000000 		.4byte	.LVL358
ARM GAS  C:\Users\jo\AppData\Local\Temp\ccQTqoh0.s 			page 252


 14145 13b9 15010000 		.4byte	.LVL365-1
 14146 13bd 0100     		.2byte	0x1
 14147 13bf 53       		.byte	0x53
 14148 13c0 00000000 		.4byte	0
 14149 13c4 00000000 		.4byte	0
 14150              	.LLST104:
 14151 13c8 E0000000 		.4byte	.LVL357
 14152 13cc EE000000 		.4byte	.LVL359
 14153 13d0 0200     		.2byte	0x2
 14154 13d2 30       		.byte	0x30
 14155 13d3 9F       		.byte	0x9f
 14156 13d4 00000000 		.4byte	0
 14157 13d8 00000000 		.4byte	0
 14158              	.LLST105:
 14159 13dc E0000000 		.4byte	.LVL357
 14160 13e0 EE000000 		.4byte	.LVL359
 14161 13e4 0200     		.2byte	0x2
 14162 13e6 30       		.byte	0x30
 14163 13e7 9F       		.byte	0x9f
 14164 13e8 EE000000 		.4byte	.LVL359
 14165 13ec 06010000 		.4byte	.LVL361
 14166 13f0 0100     		.2byte	0x1
 14167 13f2 54       		.byte	0x54
 14168 13f3 08010000 		.4byte	.LVL362
 14169 13f7 16010000 		.4byte	.LVL365
 14170 13fb 0100     		.2byte	0x1
 14171 13fd 54       		.byte	0x54
 14172 13fe 00000000 		.4byte	0
 14173 1402 00000000 		.4byte	0
 14174              	.LLST106:
 14175 1406 E0000000 		.4byte	.LVL357
 14176 140a EE000000 		.4byte	.LVL359
 14177 140e 0300     		.2byte	0x3
 14178 1410 08       		.byte	0x8
 14179 1411 7F       		.byte	0x7f
 14180 1412 9F       		.byte	0x9f
 14181 1413 EE000000 		.4byte	.LVL359
 14182 1417 04010000 		.4byte	.LVL360
 14183 141b 0100     		.2byte	0x1
 14184 141d 56       		.byte	0x56
 14185 141e 08010000 		.4byte	.LVL362
 14186 1422 16010000 		.4byte	.LVL365
 14187 1426 0100     		.2byte	0x1
 14188 1428 56       		.byte	0x56
 14189 1429 00000000 		.4byte	0
 14190 142d 00000000 		.4byte	0
 14191              	.LLST107:
 14192 1431 10010000 		.4byte	.LVL364
 14193 1435 15010000 		.4byte	.LVL365-1
 14194 1439 0100     		.2byte	0x1
 14195 143b 50       		.byte	0x50
 14196 143c 00000000 		.4byte	0
 14197 1440 00000000 		.4byte	0
 14198              	.LLST108:
 14199 1444 00000000 		.4byte	.LVL368
 14200 1448 06000000 		.4byte	.LVL369
 14201 144c 0100     		.2byte	0x1
ARM GAS  C:\Users\jo\AppData\Local\Temp\ccQTqoh0.s 			page 253


 14202 144e 50       		.byte	0x50
 14203 144f 06000000 		.4byte	.LVL369
 14204 1453 1A000000 		.4byte	.LVL374
 14205 1457 0400     		.2byte	0x4
 14206 1459 F3       		.byte	0xf3
 14207 145a 01       		.uleb128 0x1
 14208 145b 50       		.byte	0x50
 14209 145c 9F       		.byte	0x9f
 14210 145d 1A000000 		.4byte	.LVL374
 14211 1461 1E000000 		.4byte	.LFE295
 14212 1465 0100     		.2byte	0x1
 14213 1467 54       		.byte	0x54
 14214 1468 00000000 		.4byte	0
 14215 146c 00000000 		.4byte	0
 14216              	.LLST109:
 14217 1470 00000000 		.4byte	.LVL368
 14218 1474 09000000 		.4byte	.LVL370-1
 14219 1478 0100     		.2byte	0x1
 14220 147a 51       		.byte	0x51
 14221 147b 09000000 		.4byte	.LVL370-1
 14222 147f 1E000000 		.4byte	.LFE295
 14223 1483 0400     		.2byte	0x4
 14224 1485 F3       		.byte	0xf3
 14225 1486 01       		.uleb128 0x1
 14226 1487 51       		.byte	0x51
 14227 1488 9F       		.byte	0x9f
 14228 1489 00000000 		.4byte	0
 14229 148d 00000000 		.4byte	0
 14230              	.LLST110:
 14231 1491 10000000 		.4byte	.LVL371
 14232 1495 12000000 		.4byte	.LVL372
 14233 1499 0300     		.2byte	0x3
 14234 149b 73       		.byte	0x73
 14235 149c 58       		.sleb128 -40
 14236 149d 9F       		.byte	0x9f
 14237 149e 12000000 		.4byte	.LVL372
 14238 14a2 14000000 		.4byte	.LVL373
 14239 14a6 0300     		.2byte	0x3
 14240 14a8 73       		.byte	0x73
 14241 14a9 00       		.sleb128 0
 14242 14aa 9F       		.byte	0x9f
 14243 14ab 14000000 		.4byte	.LVL373
 14244 14af 1A000000 		.4byte	.LVL374
 14245 14b3 0800     		.2byte	0x8
 14246 14b5 70       		.byte	0x70
 14247 14b6 20       		.sleb128 32
 14248 14b7 94       		.byte	0x94
 14249 14b8 02       		.byte	0x2
 14250 14b9 08       		.byte	0x8
 14251 14ba 28       		.byte	0x28
 14252 14bb 1C       		.byte	0x1c
 14253 14bc 9F       		.byte	0x9f
 14254 14bd 00000000 		.4byte	0
 14255 14c1 00000000 		.4byte	0
 14256              	.LLST111:
 14257 14c5 0A000000 		.4byte	.LVL370
 14258 14c9 1C000000 		.4byte	.LVL375
ARM GAS  C:\Users\jo\AppData\Local\Temp\ccQTqoh0.s 			page 254


 14259 14cd 0100     		.2byte	0x1
 14260 14cf 50       		.byte	0x50
 14261 14d0 00000000 		.4byte	0
 14262 14d4 00000000 		.4byte	0
 14263              	.LLST112:
 14264 14d8 00000000 		.4byte	.LVL376
 14265 14dc 24000000 		.4byte	.LVL379
 14266 14e0 0100     		.2byte	0x1
 14267 14e2 50       		.byte	0x50
 14268 14e3 24000000 		.4byte	.LVL379
 14269 14e7 00010000 		.4byte	.LVL392
 14270 14eb 0100     		.2byte	0x1
 14271 14ed 54       		.byte	0x54
 14272 14ee 00010000 		.4byte	.LVL392
 14273 14f2 0A010000 		.4byte	.LVL395
 14274 14f6 0100     		.2byte	0x1
 14275 14f8 50       		.byte	0x50
 14276 14f9 0A010000 		.4byte	.LVL395
 14277 14fd 1C010000 		.4byte	.LVL398
 14278 1501 0100     		.2byte	0x1
 14279 1503 54       		.byte	0x54
 14280 1504 1C010000 		.4byte	.LVL398
 14281 1508 1E010000 		.4byte	.LVL399
 14282 150c 0100     		.2byte	0x1
 14283 150e 50       		.byte	0x50
 14284 150f 1E010000 		.4byte	.LVL399
 14285 1513 4C010000 		.4byte	.LFE273
 14286 1517 0100     		.2byte	0x1
 14287 1519 54       		.byte	0x54
 14288 151a 00000000 		.4byte	0
 14289 151e 00000000 		.4byte	0
 14290              	.LLST113:
 14291 1522 00000000 		.4byte	.LVL376
 14292 1526 08000000 		.4byte	.LVL377
 14293 152a 0100     		.2byte	0x1
 14294 152c 51       		.byte	0x51
 14295 152d 08000000 		.4byte	.LVL377
 14296 1531 4C010000 		.4byte	.LFE273
 14297 1535 0100     		.2byte	0x1
 14298 1537 55       		.byte	0x55
 14299 1538 00000000 		.4byte	0
 14300 153c 00000000 		.4byte	0
 14301              	.LLST114:
 14302 1540 00000000 		.4byte	.LVL376
 14303 1544 27000000 		.4byte	.LVL380-1
 14304 1548 0100     		.2byte	0x1
 14305 154a 52       		.byte	0x52
 14306 154b 27000000 		.4byte	.LVL380-1
 14307 154f 00010000 		.4byte	.LVL392
 14308 1553 0400     		.2byte	0x4
 14309 1555 F3       		.byte	0xf3
 14310 1556 01       		.uleb128 0x1
 14311 1557 52       		.byte	0x52
 14312 1558 9F       		.byte	0x9f
 14313 1559 00010000 		.4byte	.LVL392
 14314 155d 08010000 		.4byte	.LVL394
 14315 1561 0100     		.2byte	0x1
ARM GAS  C:\Users\jo\AppData\Local\Temp\ccQTqoh0.s 			page 255


 14316 1563 52       		.byte	0x52
 14317 1564 08010000 		.4byte	.LVL394
 14318 1568 1C010000 		.4byte	.LVL398
 14319 156c 0400     		.2byte	0x4
 14320 156e F3       		.byte	0xf3
 14321 156f 01       		.uleb128 0x1
 14322 1570 52       		.byte	0x52
 14323 1571 9F       		.byte	0x9f
 14324 1572 1C010000 		.4byte	.LVL398
 14325 1576 20010000 		.4byte	.LVL400
 14326 157a 0100     		.2byte	0x1
 14327 157c 52       		.byte	0x52
 14328 157d 20010000 		.4byte	.LVL400
 14329 1581 4C010000 		.4byte	.LFE273
 14330 1585 0400     		.2byte	0x4
 14331 1587 F3       		.byte	0xf3
 14332 1588 01       		.uleb128 0x1
 14333 1589 52       		.byte	0x52
 14334 158a 9F       		.byte	0x9f
 14335 158b 00000000 		.4byte	0
 14336 158f 00000000 		.4byte	0
 14337              	.LLST115:
 14338 1593 00000000 		.4byte	.LVL376
 14339 1597 1A000000 		.4byte	.LVL378
 14340 159b 0100     		.2byte	0x1
 14341 159d 53       		.byte	0x53
 14342 159e 1A000000 		.4byte	.LVL378
 14343 15a2 E4000000 		.4byte	.LVL388
 14344 15a6 0100     		.2byte	0x1
 14345 15a8 57       		.byte	0x57
 14346 15a9 E4000000 		.4byte	.LVL388
 14347 15ad EC000000 		.4byte	.LVL389
 14348 15b1 0400     		.2byte	0x4
 14349 15b3 F3       		.byte	0xf3
 14350 15b4 01       		.uleb128 0x1
 14351 15b5 53       		.byte	0x53
 14352 15b6 9F       		.byte	0x9f
 14353 15b7 EC000000 		.4byte	.LVL389
 14354 15bb 00010000 		.4byte	.LVL392
 14355 15bf 0100     		.2byte	0x1
 14356 15c1 57       		.byte	0x57
 14357 15c2 00010000 		.4byte	.LVL392
 14358 15c6 02010000 		.4byte	.LVL393
 14359 15ca 0100     		.2byte	0x1
 14360 15cc 53       		.byte	0x53
 14361 15cd 02010000 		.4byte	.LVL393
 14362 15d1 1C010000 		.4byte	.LVL398
 14363 15d5 0400     		.2byte	0x4
 14364 15d7 F3       		.byte	0xf3
 14365 15d8 01       		.uleb128 0x1
 14366 15d9 53       		.byte	0x53
 14367 15da 9F       		.byte	0x9f
 14368 15db 1C010000 		.4byte	.LVL398
 14369 15df 20010000 		.4byte	.LVL400
 14370 15e3 0100     		.2byte	0x1
 14371 15e5 53       		.byte	0x53
 14372 15e6 20010000 		.4byte	.LVL400
ARM GAS  C:\Users\jo\AppData\Local\Temp\ccQTqoh0.s 			page 256


 14373 15ea 4C010000 		.4byte	.LFE273
 14374 15ee 0100     		.2byte	0x1
 14375 15f0 57       		.byte	0x57
 14376 15f1 00000000 		.4byte	0
 14377 15f5 00000000 		.4byte	0
 14378              	.LLST116:
 14379 15f9 A0000000 		.4byte	.LVL385
 14380 15fd D5000000 		.4byte	.LVL386-1
 14381 1601 0100     		.2byte	0x1
 14382 1603 50       		.byte	0x50
 14383 1604 EC000000 		.4byte	.LVL389
 14384 1608 F6000000 		.4byte	.LVL390
 14385 160c 0100     		.2byte	0x1
 14386 160e 50       		.byte	0x50
 14387 160f FA000000 		.4byte	.LVL391
 14388 1613 00010000 		.4byte	.LVL392
 14389 1617 0100     		.2byte	0x1
 14390 1619 50       		.byte	0x50
 14391 161a 00000000 		.4byte	0
 14392 161e 00000000 		.4byte	0
 14393              	.LLST117:
 14394 1622 32000000 		.4byte	.LVL382
 14395 1626 E4000000 		.4byte	.LVL388
 14396 162a 0100     		.2byte	0x1
 14397 162c 56       		.byte	0x56
 14398 162d EC000000 		.4byte	.LVL389
 14399 1631 00010000 		.4byte	.LVL392
 14400 1635 0100     		.2byte	0x1
 14401 1637 56       		.byte	0x56
 14402 1638 00000000 		.4byte	0
 14403 163c 00000000 		.4byte	0
 14404              	.LLST118:
 14405 1640 28000000 		.4byte	.LVL380
 14406 1644 30000000 		.4byte	.LVL381
 14407 1648 0100     		.2byte	0x1
 14408 164a 50       		.byte	0x50
 14409 164b 20010000 		.4byte	.LVL400
 14410 164f 22010000 		.4byte	.LVL401
 14411 1653 0100     		.2byte	0x1
 14412 1655 50       		.byte	0x50
 14413 1656 00000000 		.4byte	0
 14414 165a 00000000 		.4byte	0
 14415              	.LLST119:
 14416 165e 12010000 		.4byte	.LVL396
 14417 1662 1C010000 		.4byte	.LVL398
 14418 1666 0600     		.2byte	0x6
 14419 1668 03       		.byte	0x3
 14420 1669 94030000 		.4byte	.LC24
 14421 166d 9F       		.byte	0x9f
 14422 166e 00000000 		.4byte	0
 14423 1672 00000000 		.4byte	0
 14424              	.LLST120:
 14425 1676 00000000 		.4byte	.LVL402
 14426 167a 06000000 		.4byte	.LVL403
 14427 167e 0100     		.2byte	0x1
 14428 1680 50       		.byte	0x50
 14429 1681 06000000 		.4byte	.LVL403
ARM GAS  C:\Users\jo\AppData\Local\Temp\ccQTqoh0.s 			page 257


 14430 1685 0C000000 		.4byte	.LFE296
 14431 1689 0400     		.2byte	0x4
 14432 168b F3       		.byte	0xf3
 14433 168c 01       		.uleb128 0x1
 14434 168d 50       		.byte	0x50
 14435 168e 9F       		.byte	0x9f
 14436 168f 00000000 		.4byte	0
 14437 1693 00000000 		.4byte	0
 14438              		.section	.debug_aranges,"",%progbits
 14439 0000 34010000 		.4byte	0x134
 14440 0004 0200     		.2byte	0x2
 14441 0006 00000000 		.4byte	.Ldebug_info0
 14442 000a 04       		.byte	0x4
 14443 000b 00       		.byte	0
 14444 000c 0000     		.2byte	0
 14445 000e 0000     		.2byte	0
 14446 0010 00000000 		.4byte	.LFB268
 14447 0014 06000000 		.4byte	.LFE268-.LFB268
 14448 0018 00000000 		.4byte	.LFB272
 14449 001c 58000000 		.4byte	.LFE272-.LFB272
 14450 0020 00000000 		.4byte	.LFB301
 14451 0024 28000000 		.4byte	.LFE301-.LFB301
 14452 0028 00000000 		.4byte	.LFB260
 14453 002c 02000000 		.4byte	.LFE260-.LFB260
 14454 0030 00000000 		.4byte	.LFB267
 14455 0034 A4000000 		.4byte	.LFE267-.LFB267
 14456 0038 00000000 		.4byte	.LFB269
 14457 003c D8000000 		.4byte	.LFE269-.LFB269
 14458 0040 00000000 		.4byte	.LFB270
 14459 0044 74000000 		.4byte	.LFE270-.LFB270
 14460 0048 00000000 		.4byte	.LFB271
 14461 004c 9C000000 		.4byte	.LFE271-.LFB271
 14462 0050 00000000 		.4byte	.LFB278
 14463 0054 1A000000 		.4byte	.LFE278-.LFB278
 14464 0058 00000000 		.4byte	.LFB277
 14465 005c 14000000 		.4byte	.LFE277-.LFB277
 14466 0060 00000000 		.4byte	.LFB279
 14467 0064 04000000 		.4byte	.LFE279-.LFB279
 14468 0068 00000000 		.4byte	.LFB280
 14469 006c 30000000 		.4byte	.LFE280-.LFB280
 14470 0070 00000000 		.4byte	.LFB286
 14471 0074 04000000 		.4byte	.LFE286-.LFB286
 14472 0078 00000000 		.4byte	.LFB287
 14473 007c 48000000 		.4byte	.LFE287-.LFB287
 14474 0080 00000000 		.4byte	.LFB288
 14475 0084 44000000 		.4byte	.LFE288-.LFB288
 14476 0088 00000000 		.4byte	.LFB289
 14477 008c 48000000 		.4byte	.LFE289-.LFB289
 14478 0090 00000000 		.4byte	.LFB290
 14479 0094 04000000 		.4byte	.LFE290-.LFB290
 14480 0098 00000000 		.4byte	.LFB291
 14481 009c 50000000 		.4byte	.LFE291-.LFB291
 14482 00a0 00000000 		.4byte	.LFB292
 14483 00a4 62000000 		.4byte	.LFE292-.LFB292
 14484 00a8 00000000 		.4byte	.LFB274
 14485 00ac AC040000 		.4byte	.LFE274-.LFB274
 14486 00b0 00000000 		.4byte	.LFB293
ARM GAS  C:\Users\jo\AppData\Local\Temp\ccQTqoh0.s 			page 258


 14487 00b4 E0000000 		.4byte	.LFE293-.LFB293
 14488 00b8 00000000 		.4byte	.LFB262
 14489 00bc 8C010000 		.4byte	.LFE262-.LFB262
 14490 00c0 00000000 		.4byte	.LFB263
 14491 00c4 14000000 		.4byte	.LFE263-.LFB263
 14492 00c8 00000000 		.4byte	.LFB281
 14493 00cc 24000000 		.4byte	.LFE281-.LFB281
 14494 00d0 00000000 		.4byte	.LFB276
 14495 00d4 68000000 		.4byte	.LFE276-.LFB276
 14496 00d8 00000000 		.4byte	.LFB275
 14497 00dc 70000000 		.4byte	.LFE275-.LFB275
 14498 00e0 00000000 		.4byte	.LFB261
 14499 00e4 24000000 		.4byte	.LFE261-.LFB261
 14500 00e8 00000000 		.4byte	.LFB264
 14501 00ec 56000000 		.4byte	.LFE264-.LFB264
 14502 00f0 00000000 		.4byte	.LFB265
 14503 00f4 F0000000 		.4byte	.LFE265-.LFB265
 14504 00f8 00000000 		.4byte	.LFB266
 14505 00fc 06000000 		.4byte	.LFE266-.LFB266
 14506 0100 00000000 		.4byte	.LFB284
 14507 0104 54010000 		.4byte	.LFE284-.LFB284
 14508 0108 00000000 		.4byte	.LFB285
 14509 010c 06000000 		.4byte	.LFE285-.LFB285
 14510 0110 00000000 		.4byte	.LFB294
 14511 0114 18000000 		.4byte	.LFE294-.LFB294
 14512 0118 00000000 		.4byte	.LFB295
 14513 011c 1E000000 		.4byte	.LFE295-.LFB295
 14514 0120 00000000 		.4byte	.LFB273
 14515 0124 4C010000 		.4byte	.LFE273-.LFB273
 14516 0128 00000000 		.4byte	.LFB296
 14517 012c 0C000000 		.4byte	.LFE296-.LFB296
 14518 0130 00000000 		.4byte	0
 14519 0134 00000000 		.4byte	0
 14520              		.section	.debug_ranges,"",%progbits
 14521              	.Ldebug_ranges0:
 14522 0000 36000000 		.4byte	.LBB98
 14523 0004 40000000 		.4byte	.LBE98
 14524 0008 42000000 		.4byte	.LBB101
 14525 000c 44000000 		.4byte	.LBE101
 14526 0010 48000000 		.4byte	.LBB102
 14527 0014 74000000 		.4byte	.LBE102
 14528 0018 00000000 		.4byte	0
 14529 001c 00000000 		.4byte	0
 14530 0020 3C000000 		.4byte	.LBB113
 14531 0024 46000000 		.4byte	.LBE113
 14532 0028 4C000000 		.4byte	.LBB116
 14533 002c 50000000 		.4byte	.LBE116
 14534 0030 00000000 		.4byte	0
 14535 0034 00000000 		.4byte	0
 14536 0038 64010000 		.4byte	.LBB154
 14537 003c 8A010000 		.4byte	.LBE154
 14538 0040 2A040000 		.4byte	.LBB174
 14539 0044 52040000 		.4byte	.LBE174
 14540 0048 6C040000 		.4byte	.LBB176
 14541 004c AC040000 		.4byte	.LBE176
 14542 0050 00000000 		.4byte	0
 14543 0054 00000000 		.4byte	0
ARM GAS  C:\Users\jo\AppData\Local\Temp\ccQTqoh0.s 			page 259


 14544 0058 CA010000 		.4byte	.LBB162
 14545 005c 20020000 		.4byte	.LBE162
 14546 0060 F0030000 		.4byte	.LBB173
 14547 0064 2A040000 		.4byte	.LBE173
 14548 0068 52040000 		.4byte	.LBB175
 14549 006c 6C040000 		.4byte	.LBE175
 14550 0070 00000000 		.4byte	0
 14551 0074 00000000 		.4byte	0
 14552 0078 18000000 		.4byte	.LBB187
 14553 007c 1A000000 		.4byte	.LBE187
 14554 0080 1E000000 		.4byte	.LBB190
 14555 0084 24000000 		.4byte	.LBE190
 14556 0088 00000000 		.4byte	0
 14557 008c 00000000 		.4byte	0
 14558 0090 20000000 		.4byte	.LBB193
 14559 0094 44000000 		.4byte	.LBE193
 14560 0098 64000000 		.4byte	.LBB196
 14561 009c 68000000 		.4byte	.LBE196
 14562 00a0 00000000 		.4byte	0
 14563 00a4 00000000 		.4byte	0
 14564 00a8 0A000000 		.4byte	.LBB197
 14565 00ac 0E000000 		.4byte	.LBE197
 14566 00b0 12000000 		.4byte	.LBB198
 14567 00b4 14000000 		.4byte	.LBE198
 14568 00b8 28000000 		.4byte	.LBB199
 14569 00bc 70000000 		.4byte	.LBE199
 14570 00c0 00000000 		.4byte	0
 14571 00c4 00000000 		.4byte	0
 14572 00c8 20000000 		.4byte	.LBB221
 14573 00cc 24000000 		.4byte	.LBE221
 14574 00d0 26000000 		.4byte	.LBB226
 14575 00d4 2A000000 		.4byte	.LBE226
 14576 00d8 38000000 		.4byte	.LBB227
 14577 00dc 3A000000 		.4byte	.LBE227
 14578 00e0 52000000 		.4byte	.LBB228
 14579 00e4 54000000 		.4byte	.LBE228
 14580 00e8 00000000 		.4byte	0
 14581 00ec 00000000 		.4byte	0
 14582 00f0 22000000 		.4byte	.LBB237
 14583 00f4 30000000 		.4byte	.LBE237
 14584 00f8 20010000 		.4byte	.LBB244
 14585 00fc 4C010000 		.4byte	.LBE244
 14586 0100 00000000 		.4byte	0
 14587 0104 00000000 		.4byte	0
 14588 0108 3E000000 		.4byte	.LBB238
 14589 010c 4C000000 		.4byte	.LBE238
 14590 0110 7A000000 		.4byte	.LBB241
 14591 0114 7E000000 		.4byte	.LBE241
 14592 0118 00000000 		.4byte	0
 14593 011c 00000000 		.4byte	0
 14594 0120 00000000 		.4byte	.LFB268
 14595 0124 06000000 		.4byte	.LFE268
 14596 0128 00000000 		.4byte	.LFB272
 14597 012c 58000000 		.4byte	.LFE272
 14598 0130 00000000 		.4byte	.LFB301
 14599 0134 28000000 		.4byte	.LFE301
 14600 0138 00000000 		.4byte	.LFB260
ARM GAS  C:\Users\jo\AppData\Local\Temp\ccQTqoh0.s 			page 260


 14601 013c 02000000 		.4byte	.LFE260
 14602 0140 00000000 		.4byte	.LFB267
 14603 0144 A4000000 		.4byte	.LFE267
 14604 0148 00000000 		.4byte	.LFB269
 14605 014c D8000000 		.4byte	.LFE269
 14606 0150 00000000 		.4byte	.LFB270
 14607 0154 74000000 		.4byte	.LFE270
 14608 0158 00000000 		.4byte	.LFB271
 14609 015c 9C000000 		.4byte	.LFE271
 14610 0160 00000000 		.4byte	.LFB278
 14611 0164 1A000000 		.4byte	.LFE278
 14612 0168 00000000 		.4byte	.LFB277
 14613 016c 14000000 		.4byte	.LFE277
 14614 0170 00000000 		.4byte	.LFB279
 14615 0174 04000000 		.4byte	.LFE279
 14616 0178 00000000 		.4byte	.LFB280
 14617 017c 30000000 		.4byte	.LFE280
 14618 0180 00000000 		.4byte	.LFB286
 14619 0184 04000000 		.4byte	.LFE286
 14620 0188 00000000 		.4byte	.LFB287
 14621 018c 48000000 		.4byte	.LFE287
 14622 0190 00000000 		.4byte	.LFB288
 14623 0194 44000000 		.4byte	.LFE288
 14624 0198 00000000 		.4byte	.LFB289
 14625 019c 48000000 		.4byte	.LFE289
 14626 01a0 00000000 		.4byte	.LFB290
 14627 01a4 04000000 		.4byte	.LFE290
 14628 01a8 00000000 		.4byte	.LFB291
 14629 01ac 50000000 		.4byte	.LFE291
 14630 01b0 00000000 		.4byte	.LFB292
 14631 01b4 62000000 		.4byte	.LFE292
 14632 01b8 00000000 		.4byte	.LFB274
 14633 01bc AC040000 		.4byte	.LFE274
 14634 01c0 00000000 		.4byte	.LFB293
 14635 01c4 E0000000 		.4byte	.LFE293
 14636 01c8 00000000 		.4byte	.LFB262
 14637 01cc 8C010000 		.4byte	.LFE262
 14638 01d0 00000000 		.4byte	.LFB263
 14639 01d4 14000000 		.4byte	.LFE263
 14640 01d8 00000000 		.4byte	.LFB281
 14641 01dc 24000000 		.4byte	.LFE281
 14642 01e0 00000000 		.4byte	.LFB276
 14643 01e4 68000000 		.4byte	.LFE276
 14644 01e8 00000000 		.4byte	.LFB275
 14645 01ec 70000000 		.4byte	.LFE275
 14646 01f0 00000000 		.4byte	.LFB261
 14647 01f4 24000000 		.4byte	.LFE261
 14648 01f8 00000000 		.4byte	.LFB264
 14649 01fc 56000000 		.4byte	.LFE264
 14650 0200 00000000 		.4byte	.LFB265
 14651 0204 F0000000 		.4byte	.LFE265
 14652 0208 00000000 		.4byte	.LFB266
 14653 020c 06000000 		.4byte	.LFE266
 14654 0210 00000000 		.4byte	.LFB284
 14655 0214 54010000 		.4byte	.LFE284
 14656 0218 00000000 		.4byte	.LFB285
 14657 021c 06000000 		.4byte	.LFE285
ARM GAS  C:\Users\jo\AppData\Local\Temp\ccQTqoh0.s 			page 261


 14658 0220 00000000 		.4byte	.LFB294
 14659 0224 18000000 		.4byte	.LFE294
 14660 0228 00000000 		.4byte	.LFB295
 14661 022c 1E000000 		.4byte	.LFE295
 14662 0230 00000000 		.4byte	.LFB273
 14663 0234 4C010000 		.4byte	.LFE273
 14664 0238 00000000 		.4byte	.LFB296
 14665 023c 0C000000 		.4byte	.LFE296
 14666 0240 00000000 		.4byte	0
 14667 0244 00000000 		.4byte	0
 14668              		.section	.debug_line,"",%progbits
 14669              	.Ldebug_line0:
 14670 0000 560D0000 		.section	.debug_str,"MS",%progbits,1
 14670      0200CE03 
 14670      00000201 
 14670      FB0E0D00 
 14670      01010101 
 14671              	.LASF56:
 14672 0000 74687265 		.ascii	"threads_queue_t\000"
 14672      6164735F 
 14672      71756575 
 14672      655F7400 
 14673              	.LASF250:
 14674 0010 6C697374 		.ascii	"listen_pcbs\000"
 14674      656E5F70 
 14674      63627300 
 14675              	.LASF310:
 14676 001c 696E7465 		.ascii	"interval\000"
 14676      7276616C 
 14676      00
 14677              	.LASF252:
 14678 0025 73746174 		.ascii	"stats_proto\000"
 14678      735F7072 
 14678      6F746F00 
 14679              	.LASF171:
 14680 0031 6E616D65 		.ascii	"name\000"
 14680      00
 14681              	.LASF141:
 14682 0036 4D454D50 		.ascii	"MEMP_TCP_PCB_LISTEN\000"
 14682      5F544350 
 14682      5F504342 
 14682      5F4C4953 
 14682      54454E00 
 14683              	.LASF303:
 14684 004a 63736567 		.ascii	"cseg\000"
 14684      00
 14685              	.LASF52:
 14686 004f 74687265 		.ascii	"thread_reference_t\000"
 14686      61645F72 
 14686      65666572 
 14686      656E6365 
 14686      5F7400
 14687              	.LASF377:
 14688 0062 7463705F 		.ascii	"tcp_keepalive\000"
 14688      6B656570 
 14688      616C6976 
 14688      6500
ARM GAS  C:\Users\jo\AppData\Local\Temp\ccQTqoh0.s 			page 262


 14689              	.LASF179:
 14690 0070 736F5F6F 		.ascii	"so_options\000"
 14690      7074696F 
 14690      6E7300
 14691              	.LASF119:
 14692 007b 63686172 		.ascii	"char\000"
 14692      00
 14693              	.LASF367:
 14694 0080 63687670 		.ascii	"chvprintf\000"
 14694      72696E74 
 14694      6600
 14695              	.LASF166:
 14696 008a 6F757470 		.ascii	"output\000"
 14696      757400
 14697              	.LASF36:
 14698 0091 705F7072 		.ascii	"p_prio\000"
 14698      696F00
 14699              	.LASF325:
 14700 0098 61676169 		.ascii	"again\000"
 14700      6E00
 14701              	.LASF249:
 14702 009e 75726770 		.ascii	"urgp\000"
 14702      00
 14703              	.LASF282:
 14704 00a3 7463705F 		.ascii	"tcp_process_refused_data\000"
 14704      70726F63 
 14704      6573735F 
 14704      72656675 
 14704      7365645F 
 14705              	.LASF185:
 14706 00bc 706F6C6C 		.ascii	"polltmr\000"
 14706      746D7200 
 14707              	.LASF175:
 14708 00c4 7463705F 		.ascii	"tcp_accept_fn\000"
 14708      61636365 
 14708      70745F66 
 14708      6E00
 14709              	.LASF162:
 14710 00d2 666C6167 		.ascii	"flags\000"
 14710      7300
 14711              	.LASF32:
 14712 00d8 73797374 		.ascii	"systime_t\000"
 14712      696D655F 
 14712      7400
 14713              	.LASF293:
 14714 00e2 7463705F 		.ascii	"tcp_bind\000"
 14714      62696E64 
 14714      00
 14715              	.LASF117:
 14716 00eb 6D5F6F77 		.ascii	"m_owner\000"
 14716      6E657200 
 14717              	.LASF113:
 14718 00f3 735F7175 		.ascii	"s_queue\000"
 14718      65756500 
 14719              	.LASF183:
 14720 00fb 6C6F6361 		.ascii	"local_port\000"
 14720      6C5F706F 
ARM GAS  C:\Users\jo\AppData\Local\Temp\ccQTqoh0.s 			page 263


 14720      727400
 14721              	.LASF145:
 14722 0106 4D454D50 		.ascii	"MEMP_NETBUF\000"
 14722      5F4E4554 
 14722      42554600 
 14723              	.LASF238:
 14724 0112 54494D45 		.ascii	"TIME_WAIT\000"
 14724      5F574149 
 14724      5400
 14725              	.LASF97:
 14726 011c 73655F73 		.ascii	"se_state\000"
 14726      74617465 
 14726      00
 14727              	.LASF333:
 14728 0125 65727266 		.ascii	"errf_arg\000"
 14728      5F617267 
 14728      00
 14729              	.LASF0:
 14730 012e 756E7369 		.ascii	"unsigned int\000"
 14730      676E6564 
 14730      20696E74 
 14730      00
 14731              	.LASF227:
 14732 013b 7463705F 		.ascii	"tcp_connected_fn\000"
 14732      636F6E6E 
 14732      65637465 
 14732      645F666E 
 14732      00
 14733              	.LASF158:
 14734 014c 6E657874 		.ascii	"next\000"
 14734      00
 14735              	.LASF366:
 14736 0151 7463705F 		.ascii	"tcp_pcb_lists\000"
 14736      7063625F 
 14736      6C697374 
 14736      7300
 14737              	.LASF212:
 14738 015f 6F6F7365 		.ascii	"ooseq\000"
 14738      7100
 14739              	.LASF375:
 14740 0165 7463705F 		.ascii	"tcp_zero_window_probe\000"
 14740      7A65726F 
 14740      5F77696E 
 14740      646F775F 
 14740      70726F62 
 14741              	.LASF298:
 14742 017b 6E65775F 		.ascii	"new_right_edge\000"
 14742      72696768 
 14742      745F6564 
 14742      676500
 14743              	.LASF53:
 14744 018a 74687265 		.ascii	"threads_list_t\000"
 14744      6164735F 
 14744      6C697374 
 14744      5F7400
 14745              	.LASF156:
 14746 0199 6572725F 		.ascii	"err_t\000"
ARM GAS  C:\Users\jo\AppData\Local\Temp\ccQTqoh0.s 			page 264


 14746      7400
 14747              	.LASF365:
 14748 019f 7463705F 		.ascii	"tcp_persist_backoff\000"
 14748      70657273 
 14748      6973745F 
 14748      6261636B 
 14748      6F666600 
 14749              	.LASF313:
 14750 01b3 6566665F 		.ascii	"eff_wnd\000"
 14750      776E6400 
 14751              	.LASF45:
 14752 01bb 705F7761 		.ascii	"p_waiting\000"
 14752      6974696E 
 14752      6700
 14753              	.LASF10:
 14754 01c5 5F5F696E 		.ascii	"__int32_t\000"
 14754      7433325F 
 14754      7400
 14755              	.LASF121:
 14756 01cf 42617365 		.ascii	"BaseSequentialStreamVMT\000"
 14756      53657175 
 14756      656E7469 
 14756      616C5374 
 14756      7265616D 
 14757              	.LASF330:
 14758 01e7 73687574 		.ascii	"shut_tx\000"
 14758      5F747800 
 14759              	.LASF312:
 14760 01ef 70726576 		.ascii	"prev\000"
 14760      00
 14761              	.LASF134:
 14762 01f4 7531365F 		.ascii	"u16_t\000"
 14762      7400
 14763              	.LASF384:
 14764 01fa 433A5C55 		.ascii	"C:\\Users\\jo\\Documents\\GitHub\\ChibiOS\\demos\\S"
 14764      73657273 
 14764      5C6A6F5C 
 14764      446F6375 
 14764      6D656E74 
 14765 0226 544D3332 		.ascii	"TM32\\RT-STM32F407-DISCOVERY-uHttp\000"
 14765      5C52542D 
 14765      53544D33 
 14765      32463430 
 14765      372D4449 
 14766              	.LASF86:
 14767 0248 76746C69 		.ascii	"vtlist\000"
 14767      737400
 14768              	.LASF191:
 14769 024f 7263765F 		.ascii	"rcv_ann_right_edge\000"
 14769      616E6E5F 
 14769      72696768 
 14769      745F6564 
 14769      676500
 14770              	.LASF317:
 14771 0262 6572725F 		.ascii	"err_fn\000"
 14771      666E00
 14772              	.LASF59:
ARM GAS  C:\Users\jo\AppData\Local\Temp\ccQTqoh0.s 			page 265


 14773 0269 63685F72 		.ascii	"ch_ready_list\000"
 14773      65616479 
 14773      5F6C6973 
 14773      7400
 14774              	.LASF88:
 14775 0277 69646C65 		.ascii	"idle_thread_wa\000"
 14775      5F746872 
 14775      6561645F 
 14775      776100
 14776              	.LASF262:
 14777 0286 73746174 		.ascii	"stats_mem\000"
 14777      735F6D65 
 14777      6D00
 14778              	.LASF111:
 14779 0290 65776D61 		.ascii	"ewmask\000"
 14779      736B00
 14780              	.LASF173:
 14781 0297 6E657469 		.ascii	"netif_output_fn\000"
 14781      665F6F75 
 14781      74707574 
 14781      5F666E00 
 14782              	.LASF222:
 14783 02a7 6B656570 		.ascii	"keep_cnt_sent\000"
 14783      5F636E74 
 14783      5F73656E 
 14783      7400
 14784              	.LASF151:
 14785 02b5 4D454D50 		.ascii	"MEMP_PBUF_POOL\000"
 14785      5F504255 
 14785      465F504F 
 14785      4F4C00
 14786              	.LASF362:
 14787 02c4 6C776970 		.ascii	"lwip_stats\000"
 14787      5F737461 
 14787      747300
 14788              	.LASF224:
 14789 02cf 7463705F 		.ascii	"tcp_sent_fn\000"
 14789      73656E74 
 14789      5F666E00 
 14790              	.LASF322:
 14791 02db 7273745F 		.ascii	"rst_on_unacked_data\000"
 14791      6F6E5F75 
 14791      6E61636B 
 14791      65645F64 
 14791      61746100 
 14792              	.LASF66:
 14793 02ef 76746675 		.ascii	"vtfunc_t\000"
 14793      6E635F74 
 14793      00
 14794              	.LASF107:
 14795 02f8 77746F62 		.ascii	"wtobjp\000"
 14795      6A7000
 14796              	.LASF114:
 14797 02ff 735F636E 		.ascii	"s_cnt\000"
 14797      7400
 14798              	.LASF319:
 14799 0305 7463705F 		.ascii	"tcp_pcb_remove\000"
ARM GAS  C:\Users\jo\AppData\Local\Temp\ccQTqoh0.s 			page 266


 14799      7063625F 
 14799      72656D6F 
 14799      766500
 14800              	.LASF78:
 14801 0314 63685F73 		.ascii	"ch_system_debug\000"
 14801      79737465 
 14801      6D5F6465 
 14801      62756700 
 14802              	.LASF266:
 14803 0324 73746174 		.ascii	"stats_syselem\000"
 14803      735F7379 
 14803      73656C65 
 14803      6D00
 14804              	.LASF245:
 14805 0332 7365716E 		.ascii	"seqno\000"
 14805      6F00
 14806              	.LASF283:
 14807 0338 72656675 		.ascii	"refused_flags\000"
 14807      7365645F 
 14807      666C6167 
 14807      7300
 14808              	.LASF172:
 14809 0346 6E657469 		.ascii	"netif_input_fn\000"
 14809      665F696E 
 14809      7075745F 
 14809      666E00
 14810              	.LASF315:
 14811 0355 7063625F 		.ascii	"pcb_reset\000"
 14811      72657365 
 14811      7400
 14812              	.LASF354:
 14813 035f 6D656D70 		.ascii	"memp_sizes\000"
 14813      5F73697A 
 14813      657300
 14814              	.LASF22:
 14815 036a 75696E74 		.ascii	"uint32_t\000"
 14815      33325F74 
 14815      00
 14816              	.LASF146:
 14817 0373 4D454D50 		.ascii	"MEMP_NETCONN\000"
 14817      5F4E4554 
 14817      434F4E4E 
 14817      00
 14818              	.LASF198:
 14819 0380 63776E64 		.ascii	"cwnd\000"
 14819      00
 14820              	.LASF356:
 14821 0385 7463705F 		.ascii	"tcp_active_pcbs_changed\000"
 14821      61637469 
 14821      76655F70 
 14821      6362735F 
 14821      6368616E 
 14822              	.LASF190:
 14823 039d 7263765F 		.ascii	"rcv_ann_wnd\000"
 14823      616E6E5F 
 14823      776E6400 
 14824              	.LASF30:
ARM GAS  C:\Users\jo\AppData\Local\Temp\ccQTqoh0.s 			page 267


 14825 03a9 6576656E 		.ascii	"eventmask_t\000"
 14825      746D6173 
 14825      6B5F7400 
 14826              	.LASF61:
 14827 03b5 725F7072 		.ascii	"r_prio\000"
 14827      696F00
 14828              	.LASF181:
 14829 03bc 61636365 		.ascii	"accept\000"
 14829      707400
 14830              	.LASF147:
 14831 03c3 4D454D50 		.ascii	"MEMP_TCPIP_MSG_API\000"
 14831      5F544350 
 14831      49505F4D 
 14831      53475F41 
 14831      504900
 14832              	.LASF291:
 14833 03d6 6D61785F 		.ascii	"max_pcb_list\000"
 14833      7063625F 
 14833      6C697374 
 14833      00
 14834              	.LASF260:
 14835 03e3 6F707465 		.ascii	"opterr\000"
 14835      727200
 14836              	.LASF343:
 14837 03ea 73656E64 		.ascii	"sendmss\000"
 14837      6D737300 
 14838              	.LASF268:
 14839 03f2 6D757465 		.ascii	"mutex\000"
 14839      7800
 14840              	.LASF273:
 14841 03f8 69705F66 		.ascii	"ip_frag\000"
 14841      72616700 
 14842              	.LASF112:
 14843 0400 63685F73 		.ascii	"ch_semaphore\000"
 14843      656D6170 
 14843      686F7265 
 14843      00
 14844              	.LASF369:
 14845 040d 6D616C6C 		.ascii	"malloc\000"
 14845      6F6300
 14846              	.LASF28:
 14847 0414 74707269 		.ascii	"tprio_t\000"
 14847      6F5F7400 
 14848              	.LASF68:
 14849 041c 63685F76 		.ascii	"ch_virtual_timer\000"
 14849      69727475 
 14849      616C5F74 
 14849      696D6572 
 14849      00
 14850              	.LASF19:
 14851 042d 696E7431 		.ascii	"int16_t\000"
 14851      365F7400 
 14852              	.LASF170:
 14853 0435 68776164 		.ascii	"hwaddr\000"
 14853      647200
 14854              	.LASF272:
 14855 043c 65746861 		.ascii	"etharp\000"
ARM GAS  C:\Users\jo\AppData\Local\Temp\ccQTqoh0.s 			page 268


 14855      727000
 14856              	.LASF239:
 14857 0443 7463705F 		.ascii	"tcp_seg\000"
 14857      73656700 
 14858              	.LASF16:
 14859 044b 6C6F6E67 		.ascii	"long long unsigned int\000"
 14859      206C6F6E 
 14859      6720756E 
 14859      7369676E 
 14859      65642069 
 14860              	.LASF96:
 14861 0462 73655F77 		.ascii	"se_wtobjp\000"
 14861      746F626A 
 14861      7000
 14862              	.LASF276:
 14863 046c 72656173 		.ascii	"reason\000"
 14863      6F6E00
 14864              	.LASF337:
 14865 0473 696E6163 		.ascii	"inactivity\000"
 14865      74697669 
 14865      747900
 14866              	.LASF376:
 14867 047e 7463705F 		.ascii	"tcp_rexmit_rto\000"
 14867      7265786D 
 14867      69745F72 
 14867      746F00
 14868              	.LASF194:
 14869 048d 72747365 		.ascii	"rtseq\000"
 14869      7100
 14870              	.LASF8:
 14871 0493 5F5F7569 		.ascii	"__uint16_t\000"
 14871      6E743136 
 14871      5F7400
 14872              	.LASF31:
 14873 049e 636E745F 		.ascii	"cnt_t\000"
 14873      7400
 14874              	.LASF328:
 14875 04a4 7463705F 		.ascii	"tcp_shutdown\000"
 14875      73687574 
 14875      646F776E 
 14875      00
 14876              	.LASF341:
 14877 04b1 7463705F 		.ascii	"tcp_new\000"
 14877      6E657700 
 14878              	.LASF277:
 14879 04b9 7463705F 		.ascii	"tcp_recved\000"
 14879      72656376 
 14879      656400
 14880              	.LASF80:
 14881 04c4 6973725F 		.ascii	"isr_cnt\000"
 14881      636E7400 
 14882              	.LASF38:
 14883 04cc 705F6E65 		.ascii	"p_newer\000"
 14883      77657200 
 14884              	.LASF75:
 14885 04d4 63685F76 		.ascii	"ch_virtual_timers_list\000"
 14885      69727475 
ARM GAS  C:\Users\jo\AppData\Local\Temp\ccQTqoh0.s 			page 269


 14885      616C5F74 
 14885      696D6572 
 14885      735F6C69 
 14886              	.LASF71:
 14887 04eb 76745F64 		.ascii	"vt_delta\000"
 14887      656C7461 
 14887      00
 14888              	.LASF188:
 14889 04f4 7263765F 		.ascii	"rcv_nxt\000"
 14889      6E787400 
 14890              	.LASF148:
 14891 04fc 4D454D50 		.ascii	"MEMP_TCPIP_MSG_INPKT\000"
 14891      5F544350 
 14891      49505F4D 
 14891      53475F49 
 14891      4E504B54 
 14892              	.LASF211:
 14893 0511 756E6163 		.ascii	"unacked\000"
 14893      6B656400 
 14894              	.LASF270:
 14895 0519 73746174 		.ascii	"stats_\000"
 14895      735F00
 14896              	.LASF33:
 14897 0520 74687265 		.ascii	"thread_t\000"
 14897      61645F74 
 14897      00
 14898              	.LASF34:
 14899 0529 705F6E65 		.ascii	"p_next\000"
 14899      787400
 14900              	.LASF128:
 14901 0530 5F5F676E 		.ascii	"__gnuc_va_list\000"
 14901      75635F76 
 14901      615F6C69 
 14901      737400
 14902              	.LASF237:
 14903 053f 4C415354 		.ascii	"LAST_ACK\000"
 14903      5F41434B 
 14903      00
 14904              	.LASF248:
 14905 0548 63686B73 		.ascii	"chksum\000"
 14905      756D00
 14906              	.LASF289:
 14907 054f 69706164 		.ascii	"ipaddr\000"
 14907      647200
 14908              	.LASF105:
 14909 0556 7264796D 		.ascii	"rdymsg\000"
 14909      736700
 14910              	.LASF159:
 14911 055d 7061796C 		.ascii	"payload\000"
 14911      6F616400 
 14912              	.LASF103:
 14913 0565 6F666673 		.ascii	"offset\000"
 14913      657400
 14914              	.LASF314:
 14915 056c 7063625F 		.ascii	"pcb_remove\000"
 14915      72656D6F 
 14915      766500
ARM GAS  C:\Users\jo\AppData\Local\Temp\ccQTqoh0.s 			page 270


 14916              	.LASF320:
 14917 0577 7063626C 		.ascii	"pcblist\000"
 14917      69737400 
 14918              	.LASF216:
 14919 057f 636F6E6E 		.ascii	"connected\000"
 14919      65637465 
 14919      6400
 14920              	.LASF125:
 14921 0589 5F426F6F 		.ascii	"_Bool\000"
 14921      6C00
 14922              	.LASF361:
 14923 058f 7463705F 		.ascii	"tcp_tmp_pcb\000"
 14923      746D705F 
 14923      70636200 
 14924              	.LASF346:
 14925 059b 7463705F 		.ascii	"tcp_connect\000"
 14925      636F6E6E 
 14925      65637400 
 14926              	.LASF280:
 14927 05a7 7463705F 		.ascii	"tcp_pcb_purge\000"
 14927      7063625F 
 14927      70757267 
 14927      6500
 14928              	.LASF236:
 14929 05b5 434C4F53 		.ascii	"CLOSING\000"
 14929      494E4700 
 14930              	.LASF295:
 14931 05bd 6261636B 		.ascii	"backlog\000"
 14931      6C6F6700 
 14932              	.LASF370:
 14933 05c5 66726565 		.ascii	"free\000"
 14933      00
 14934              	.LASF15:
 14935 05ca 5F5F7569 		.ascii	"__uint64_t\000"
 14935      6E743634 
 14935      5F7400
 14936              	.LASF152:
 14937 05d5 4D454D50 		.ascii	"MEMP_MAX\000"
 14937      5F4D4158 
 14937      00
 14938              	.LASF350:
 14939 05de 7463705F 		.ascii	"tcp_timer\000"
 14939      74696D65 
 14939      7200
 14940              	.LASF133:
 14941 05e8 73385F74 		.ascii	"s8_t\000"
 14941      00
 14942              	.LASF137:
 14943 05ed 7333325F 		.ascii	"s32_t\000"
 14943      7400
 14944              	.LASF281:
 14945 05f3 7463705F 		.ascii	"tcp_recv_null\000"
 14945      72656376 
 14945      5F6E756C 
 14945      6C00
 14946              	.LASF371:
 14947 0601 7463705F 		.ascii	"tcp_output\000"
ARM GAS  C:\Users\jo\AppData\Local\Temp\ccQTqoh0.s 			page 271


 14947      6F757470 
 14947      757400
 14948              	.LASF203:
 14949 060c 736E645F 		.ascii	"snd_lbb\000"
 14949      6C626200 
 14950              	.LASF271:
 14951 0614 6C696E6B 		.ascii	"link\000"
 14951      00
 14952              	.LASF17:
 14953 0619 696E7438 		.ascii	"int8_t\000"
 14953      5F7400
 14954              	.LASF40:
 14955 0620 705F6E61 		.ascii	"p_name\000"
 14955      6D6500
 14956              	.LASF124:
 14957 0627 42617365 		.ascii	"BaseSequentialStream\000"
 14957      53657175 
 14957      656E7469 
 14957      616C5374 
 14957      7265616D 
 14958              	.LASF196:
 14959 063c 64757061 		.ascii	"dupacks\000"
 14959      636B7300 
 14960              	.LASF182:
 14961 0644 7072696F 		.ascii	"prio\000"
 14961      00
 14962              	.LASF186:
 14963 0649 706F6C6C 		.ascii	"pollinterval\000"
 14963      696E7465 
 14963      7276616C 
 14963      00
 14964              	.LASF150:
 14965 0656 4D454D50 		.ascii	"MEMP_PBUF\000"
 14965      5F504255 
 14965      4600
 14966              	.LASF364:
 14967 0660 7463705F 		.ascii	"tcp_backoff\000"
 14967      6261636B 
 14967      6F666600 
 14968              	.LASF387:
 14969 066c 63687072 		.ascii	"chprintf\000"
 14969      696E7466 
 14969      00
 14970              	.LASF265:
 14971 0675 696C6C65 		.ascii	"illegal\000"
 14971      67616C00 
 14972              	.LASF138:
 14973 067d 6D656D5F 		.ascii	"mem_size_t\000"
 14973      73697A65 
 14973      5F7400
 14974              	.LASF201:
 14975 0688 736E645F 		.ascii	"snd_wl1\000"
 14975      776C3100 
 14976              	.LASF63:
 14977 0690 725F6E65 		.ascii	"r_newer\000"
 14977      77657200 
 14978              	.LASF76:
ARM GAS  C:\Users\jo\AppData\Local\Temp\ccQTqoh0.s 			page 272


 14979 0698 76745F6C 		.ascii	"vt_lasttime\000"
 14979      61737474 
 14979      696D6500 
 14980              	.LASF206:
 14981 06a4 61636B65 		.ascii	"acked\000"
 14981      6400
 14982              	.LASF235:
 14983 06aa 434C4F53 		.ascii	"CLOSE_WAIT\000"
 14983      455F5741 
 14983      495400
 14984              	.LASF347:
 14985 06b5 6F6C645F 		.ascii	"old_local_port\000"
 14985      6C6F6361 
 14985      6C5F706F 
 14985      727400
 14986              	.LASF279:
 14987 06c4 776E645F 		.ascii	"wnd_inflation\000"
 14987      696E666C 
 14987      6174696F 
 14987      6E00
 14988              	.LASF95:
 14989 06d2 73655F74 		.ascii	"se_tp\000"
 14989      7000
 14990              	.LASF14:
 14991 06d8 6C6F6E67 		.ascii	"long long int\000"
 14991      206C6F6E 
 14991      6720696E 
 14991      7400
 14992              	.LASF264:
 14993 06e6 75736564 		.ascii	"used\000"
 14993      00
 14994              	.LASF39:
 14995 06eb 705F6F6C 		.ascii	"p_older\000"
 14995      64657200 
 14996              	.LASF94:
 14997 06f3 73655F74 		.ascii	"se_time\000"
 14997      696D6500 
 14998              	.LASF41:
 14999 06fb 705F7374 		.ascii	"p_stklimit\000"
 14999      6B6C696D 
 14999      697400
 15000              	.LASF12:
 15001 0706 5F5F7569 		.ascii	"__uint32_t\000"
 15001      6E743332 
 15001      5F7400
 15002              	.LASF214:
 15003 0711 73656E74 		.ascii	"sent\000"
 15003      00
 15004              	.LASF18:
 15005 0716 75696E74 		.ascii	"uint8_t\000"
 15005      385F7400 
 15006              	.LASF101:
 15007 071e 74625F62 		.ascii	"tb_buffer\000"
 15007      75666665 
 15007      7200
 15008              	.LASF202:
 15009 0728 736E645F 		.ascii	"snd_wl2\000"
ARM GAS  C:\Users\jo\AppData\Local\Temp\ccQTqoh0.s 			page 273


 15009      776C3200 
 15010              	.LASF240:
 15011 0730 6F766572 		.ascii	"oversize_left\000"
 15011      73697A65 
 15011      5F6C6566 
 15011      7400
 15012              	.LASF302:
 15013 073e 7463705F 		.ascii	"tcp_seg_copy\000"
 15013      7365675F 
 15013      636F7079 
 15013      00
 15014              	.LASF49:
 15015 074b 705F6D74 		.ascii	"p_mtxlist\000"
 15015      786C6973 
 15015      7400
 15016              	.LASF226:
 15017 0755 7463705F 		.ascii	"tcp_err_fn\000"
 15017      6572725F 
 15017      666E00
 15018              	.LASF42:
 15019 0760 705F7374 		.ascii	"p_state\000"
 15019      61746500 
 15020              	.LASF54:
 15021 0768 63685F74 		.ascii	"ch_thread\000"
 15021      68726561 
 15021      6400
 15022              	.LASF386:
 15023 0772 7463705F 		.ascii	"tcp_listen_pcbs_t\000"
 15023      6C697374 
 15023      656E5F70 
 15023      6362735F 
 15023      7400
 15024              	.LASF99:
 15025 0784 74625F73 		.ascii	"tb_size\000"
 15025      697A6500 
 15026              	.LASF309:
 15027 078c 7463705F 		.ascii	"tcp_poll\000"
 15027      706F6C6C 
 15027      00
 15028              	.LASF372:
 15029 0795 70627566 		.ascii	"pbuf_free\000"
 15029      5F667265 
 15029      6500
 15030              	.LASF131:
 15031 079f 76615F6C 		.ascii	"va_list\000"
 15031      69737400 
 15032              	.LASF77:
 15033 07a7 73797374 		.ascii	"system_debug_t\000"
 15033      656D5F64 
 15033      65627567 
 15033      5F7400
 15034              	.LASF306:
 15035 07b6 7463705F 		.ascii	"tcp_sent\000"
 15035      73656E74 
 15035      00
 15036              	.LASF336:
 15037 07bf 696E6163 		.ascii	"inactive\000"
ARM GAS  C:\Users\jo\AppData\Local\Temp\ccQTqoh0.s 			page 274


 15037      74697665 
 15037      00
 15038              	.LASF301:
 15039 07c8 7463705F 		.ascii	"tcp_setprio\000"
 15039      73657470 
 15039      72696F00 
 15040              	.LASF164:
 15041 07d4 6E65746D 		.ascii	"netmask\000"
 15041      61736B00 
 15042              	.LASF57:
 15043 07dc 63685F74 		.ascii	"ch_threads_queue\000"
 15043      68726561 
 15043      64735F71 
 15043      75657565 
 15043      00
 15044              	.LASF242:
 15045 07ed 7463705F 		.ascii	"tcp_pcb_listen\000"
 15045      7063625F 
 15045      6C697374 
 15045      656E00
 15046              	.LASF122:
 15047 07fc 77726974 		.ascii	"write\000"
 15047      6500
 15048              	.LASF246:
 15049 0802 61636B6E 		.ascii	"ackno\000"
 15049      6F00
 15050              	.LASF60:
 15051 0808 725F7175 		.ascii	"r_queue\000"
 15051      65756500 
 15052              	.LASF348:
 15053 0810 7463705F 		.ascii	"tcp_debug_state_str\000"
 15053      64656275 
 15053      675F7374 
 15053      6174655F 
 15053      73747200 
 15054              	.LASF221:
 15055 0824 70657273 		.ascii	"persist_backoff\000"
 15055      6973745F 
 15055      6261636B 
 15055      6F666600 
 15056              	.LASF29:
 15057 0834 6D73675F 		.ascii	"msg_t\000"
 15057      7400
 15058              	.LASF335:
 15059 083a 7463705F 		.ascii	"tcp_kill_timewait\000"
 15059      6B696C6C 
 15059      5F74696D 
 15059      65776169 
 15059      7400
 15060              	.LASF140:
 15061 084c 4D454D50 		.ascii	"MEMP_TCP_PCB\000"
 15061      5F544350 
 15061      5F504342 
 15061      00
 15062              	.LASF132:
 15063 0859 75385F74 		.ascii	"u8_t\000"
 15063      00
ARM GAS  C:\Users\jo\AppData\Local\Temp\ccQTqoh0.s 			page 275


 15064              	.LASF287:
 15065 085e 7463705F 		.ascii	"tcp_accept_null\000"
 15065      61636365 
 15065      70745F6E 
 15065      756C6C00 
 15066              	.LASF43:
 15067 086e 705F666C 		.ascii	"p_flags\000"
 15067      61677300 
 15068              	.LASF6:
 15069 0876 5F5F696E 		.ascii	"__int16_t\000"
 15069      7431365F 
 15069      7400
 15070              	.LASF324:
 15071 0880 7463705F 		.ascii	"tcp_fasttmr\000"
 15071      66617374 
 15071      746D7200 
 15072              	.LASF130:
 15073 088c 5F5F6170 		.ascii	"__ap\000"
 15073      00
 15074              	.LASF67:
 15075 0891 76697274 		.ascii	"virtual_timer_t\000"
 15075      75616C5F 
 15075      74696D65 
 15075      725F7400 
 15076              	.LASF334:
 15077 08a1 6F73616C 		.ascii	"osalSysHalt\000"
 15077      53797348 
 15077      616C7400 
 15078              	.LASF55:
 15079 08ad 63685F74 		.ascii	"ch_threads_list\000"
 15079      68726561 
 15079      64735F6C 
 15079      69737400 
 15080              	.LASF379:
 15081 08bd 6D656D73 		.ascii	"memset\000"
 15081      657400
 15082              	.LASF389:
 15083 08c4 7463705F 		.ascii	"tcp_slowtmr_start\000"
 15083      736C6F77 
 15083      746D725F 
 15083      73746172 
 15083      7400
 15084              	.LASF126:
 15085 08d6 49544D53 		.ascii	"ITMStreamVMT\000"
 15085      74726561 
 15085      6D564D54 
 15085      00
 15086              	.LASF294:
 15087 08e3 7463705F 		.ascii	"tcp_listen_with_backlog\000"
 15087      6C697374 
 15087      656E5F77 
 15087      6974685F 
 15087      6261636B 
 15088              	.LASF307:
 15089 08fb 7463705F 		.ascii	"tcp_err\000"
 15089      65727200 
 15090              	.LASF184:
ARM GAS  C:\Users\jo\AppData\Local\Temp\ccQTqoh0.s 			page 276


 15091 0903 72656D6F 		.ascii	"remote_port\000"
 15091      74655F70 
 15091      6F727400 
 15092              	.LASF323:
 15093 090f 7463705F 		.ascii	"tcp_close\000"
 15093      636C6F73 
 15093      6500
 15094              	.LASF321:
 15095 0919 7463705F 		.ascii	"tcp_close_shutdown\000"
 15095      636C6F73 
 15095      655F7368 
 15095      7574646F 
 15095      776E00
 15096              	.LASF353:
 15097 092c 69746D5F 		.ascii	"itm_port\000"
 15097      706F7274 
 15097      00
 15098              	.LASF100:
 15099 0935 74625F70 		.ascii	"tb_ptr\000"
 15099      747200
 15100              	.LASF358:
 15101 093c 7463705F 		.ascii	"tcp_listen_pcbs\000"
 15101      6C697374 
 15101      656E5F70 
 15101      63627300 
 15102              	.LASF197:
 15103 094c 6C617374 		.ascii	"lastack\000"
 15103      61636B00 
 15104              	.LASF299:
 15105 0954 6E65775F 		.ascii	"new_rcv_ann_wnd\000"
 15105      7263765F 
 15105      616E6E5F 
 15105      776E6400 
 15106              	.LASF388:
 15107 0964 7463705F 		.ascii	"tcp_init\000"
 15107      696E6974 
 15107      00
 15108              	.LASF255:
 15109 096d 63686B65 		.ascii	"chkerr\000"
 15109      727200
 15110              	.LASF64:
 15111 0974 725F6F6C 		.ascii	"r_older\000"
 15111      64657200 
 15112              	.LASF143:
 15113 097c 4D454D50 		.ascii	"MEMP_REASSDATA\000"
 15113      5F524541 
 15113      53534441 
 15113      544100
 15114              	.LASF115:
 15115 098b 63685F6D 		.ascii	"ch_mutex\000"
 15115      75746578 
 15115      00
 15116              	.LASF223:
 15117 0994 7463705F 		.ascii	"tcp_recv_fn\000"
 15117      72656376 
 15117      5F666E00 
 15118              	.LASF383:
ARM GAS  C:\Users\jo\AppData\Local\Temp\ccQTqoh0.s 			page 277


 15119 09a0 2E2E2F2E 		.ascii	"../../../ext/lwip/src/core/tcp.c\000"
 15119      2E2F2E2E 
 15119      2F657874 
 15119      2F6C7769 
 15119      702F7372 
 15120              	.LASF127:
 15121 09c1 49544D53 		.ascii	"ITMStream\000"
 15121      74726561 
 15121      6D00
 15122              	.LASF165:
 15123 09cb 696E7075 		.ascii	"input\000"
 15123      7400
 15124              	.LASF311:
 15125 09d1 7463705F 		.ascii	"tcp_slowtmr\000"
 15125      736C6F77 
 15125      746D7200 
 15126              	.LASF217:
 15127 09dd 706F6C6C 		.ascii	"poll\000"
 15127      00
 15128              	.LASF79:
 15129 09e2 70616E69 		.ascii	"panic_msg\000"
 15129      635F6D73 
 15129      6700
 15130              	.LASF284:
 15131 09ec 7463705F 		.ascii	"tcp_abort\000"
 15131      61626F72 
 15131      7400
 15132              	.LASF92:
 15133 09f6 636F6E74 		.ascii	"context\000"
 15133      65787400 
 15134              	.LASF47:
 15135 09fe 705F6D73 		.ascii	"p_msg\000"
 15135      6700
 15136              	.LASF104:
 15137 0a04 746D5F63 		.ascii	"tm_calibration_t\000"
 15137      616C6962 
 15137      72617469 
 15137      6F6E5F74 
 15137      00
 15138              	.LASF192:
 15139 0a15 7274696D 		.ascii	"rtime\000"
 15139      6500
 15140              	.LASF25:
 15141 0a1b 746D6F64 		.ascii	"tmode_t\000"
 15141      655F7400 
 15142              	.LASF297:
 15143 0a23 7463705F 		.ascii	"tcp_update_rcv_ann_wnd\000"
 15143      75706461 
 15143      74655F72 
 15143      63765F61 
 15143      6E6E5F77 
 15144              	.LASF87:
 15145 0a3a 6D61696E 		.ascii	"mainthread\000"
 15145      74687265 
 15145      616400
 15146              	.LASF390:
 15147 0a45 7463705F 		.ascii	"tcp_timer_needed\000"
ARM GAS  C:\Users\jo\AppData\Local\Temp\ccQTqoh0.s 			page 278


 15147      74696D65 
 15147      725F6E65 
 15147      65646564 
 15147      00
 15148              	.LASF342:
 15149 0a56 7463705F 		.ascii	"tcp_eff_send_mss\000"
 15149      6566665F 
 15149      73656E64 
 15149      5F6D7373 
 15149      00
 15150              	.LASF169:
 15151 0a67 68776164 		.ascii	"hwaddr_len\000"
 15151      64725F6C 
 15151      656E00
 15152              	.LASF20:
 15153 0a72 75696E74 		.ascii	"uint16_t\000"
 15153      31365F74 
 15153      00
 15154              	.LASF378:
 15155 0a7b 7463705F 		.ascii	"tcp_send_fin\000"
 15155      73656E64 
 15155      5F66696E 
 15155      00
 15156              	.LASF218:
 15157 0a88 65727266 		.ascii	"errf\000"
 15157      00
 15158              	.LASF225:
 15159 0a8d 7463705F 		.ascii	"tcp_poll_fn\000"
 15159      706F6C6C 
 15159      5F666E00 
 15160              	.LASF1:
 15161 0a99 73697A65 		.ascii	"size_t\000"
 15161      5F7400
 15162              	.LASF308:
 15163 0aa0 7463705F 		.ascii	"tcp_accept\000"
 15163      61636365 
 15163      707400
 15164              	.LASF385:
 15165 0aab 7463705F 		.ascii	"tcp_state\000"
 15165      73746174 
 15165      6500
 15166              	.LASF24:
 15167 0ab5 7274636E 		.ascii	"rtcnt_t\000"
 15167      745F7400 
 15168              	.LASF300:
 15169 0abd 7463705F 		.ascii	"tcp_seg_free\000"
 15169      7365675F 
 15169      66726565 
 15169      00
 15170              	.LASF285:
 15171 0aca 7463705F 		.ascii	"tcp_next_iss\000"
 15171      6E657874 
 15171      5F697373 
 15171      00
 15172              	.LASF374:
 15173 0ad7 7463705F 		.ascii	"tcp_rst\000"
 15173      72737400 
ARM GAS  C:\Users\jo\AppData\Local\Temp\ccQTqoh0.s 			page 279


 15174              	.LASF81:
 15175 0adf 6C6F636B 		.ascii	"lock_cnt\000"
 15175      5F636E74 
 15175      00
 15176              	.LASF338:
 15177 0ae8 7463705F 		.ascii	"tcp_kill_prio\000"
 15177      6B696C6C 
 15177      5F707269 
 15177      6F00
 15178              	.LASF381:
 15179 0af6 7463705F 		.ascii	"tcp_enqueue_flags\000"
 15179      656E7175 
 15179      6575655F 
 15179      666C6167 
 15179      7300
 15180              	.LASF50:
 15181 0b08 705F7265 		.ascii	"p_realprio\000"
 15181      616C7072 
 15181      696F00
 15182              	.LASF228:
 15183 0b13 434C4F53 		.ascii	"CLOSED\000"
 15183      454400
 15184              	.LASF349:
 15185 0b1a 7463705F 		.ascii	"tcp_port\000"
 15185      706F7274 
 15185      00
 15186              	.LASF136:
 15187 0b23 7533325F 		.ascii	"u32_t\000"
 15187      7400
 15188              	.LASF382:
 15189 0b29 474E5520 		.ascii	"GNU C 4.9.3 20141119 (release) [ARM/embedded-4_9-br"
 15189      4320342E 
 15189      392E3320 
 15189      32303134 
 15189      31313139 
 15190 0b5c 616E6368 		.ascii	"anch revision 218278] -mcpu=cortex-m4 -mno-thumb-in"
 15190      20726576 
 15190      6973696F 
 15190      6E203231 
 15190      38323738 
 15191 0b8f 74657277 		.ascii	"terwork -mthumb -ggdb -O2 -fomit-frame-pointer -fal"
 15191      6F726B20 
 15191      2D6D7468 
 15191      756D6220 
 15191      2D676764 
 15192 0bc2 69676E2D 		.ascii	"ign-functions=16 -ffunction-sections -fdata-section"
 15192      66756E63 
 15192      74696F6E 
 15192      733D3136 
 15192      202D6666 
 15193 0bf5 73202D66 		.ascii	"s -fno-common\000"
 15193      6E6F2D63 
 15193      6F6D6D6F 
 15193      6E00
 15194              	.LASF274:
 15195 0c03 69636D70 		.ascii	"icmp\000"
 15195      00
ARM GAS  C:\Users\jo\AppData\Local\Temp\ccQTqoh0.s 			page 280


 15196              	.LASF65:
 15197 0c08 725F6375 		.ascii	"r_current\000"
 15197      7272656E 
 15197      7400
 15198              	.LASF48:
 15199 0c12 705F6570 		.ascii	"p_epending\000"
 15199      656E6469 
 15199      6E6700
 15200              	.LASF116:
 15201 0c1d 6D5F7175 		.ascii	"m_queue\000"
 15201      65756500 
 15202              	.LASF11:
 15203 0c25 6C6F6E67 		.ascii	"long int\000"
 15203      20696E74 
 15203      00
 15204              	.LASF93:
 15205 0c2e 706F7274 		.ascii	"port_intctx\000"
 15205      5F696E74 
 15205      63747800 
 15206              	.LASF258:
 15207 0c3a 72746572 		.ascii	"rterr\000"
 15207      7200
 15208              	.LASF352:
 15209 0c40 49544D5F 		.ascii	"ITM_RxBuffer\000"
 15209      52784275 
 15209      66666572 
 15209      00
 15210              	.LASF263:
 15211 0c4d 61766169 		.ascii	"avail\000"
 15211      6C00
 15212              	.LASF210:
 15213 0c53 756E7365 		.ascii	"unsent\000"
 15213      6E7400
 15214              	.LASF189:
 15215 0c5a 7263765F 		.ascii	"rcv_wnd\000"
 15215      776E6400 
 15216              	.LASF193:
 15217 0c62 72747465 		.ascii	"rttest\000"
 15217      737400
 15218              	.LASF292:
 15219 0c69 63706362 		.ascii	"cpcb\000"
 15219      00
 15220              	.LASF84:
 15221 0c6e 63685F73 		.ascii	"ch_system\000"
 15221      79737465 
 15221      6D00
 15222              	.LASF149:
 15223 0c78 4D454D50 		.ascii	"MEMP_SYS_TIMEOUT\000"
 15223      5F535953 
 15223      5F54494D 
 15223      454F5554 
 15223      00
 15224              	.LASF187:
 15225 0c89 6C617374 		.ascii	"last_timer\000"
 15225      5F74696D 
 15225      657200
 15226              	.LASF139:
ARM GAS  C:\Users\jo\AppData\Local\Temp\ccQTqoh0.s 			page 281


 15227 0c94 4D454D50 		.ascii	"MEMP_UDP_PCB\000"
 15227      5F554450 
 15227      5F504342 
 15227      00
 15228              	.LASF177:
 15229 0ca1 6C6F6361 		.ascii	"local_ip\000"
 15229      6C5F6970 
 15229      00
 15230              	.LASF37:
 15231 0caa 705F6374 		.ascii	"p_ctx\000"
 15231      7800
 15232              	.LASF269:
 15233 0cb0 6D626F78 		.ascii	"mbox\000"
 15233      00
 15234              	.LASF85:
 15235 0cb5 726C6973 		.ascii	"rlist\000"
 15235      7400
 15236              	.LASF209:
 15237 0cbb 756E7365 		.ascii	"unsent_oversize\000"
 15237      6E745F6F 
 15237      76657273 
 15237      697A6500 
 15238              	.LASF230:
 15239 0ccb 53594E5F 		.ascii	"SYN_SENT\000"
 15239      53454E54 
 15239      00
 15240              	.LASF332:
 15241 0cd4 72657365 		.ascii	"reset\000"
 15241      7400
 15242              	.LASF200:
 15243 0cda 736E645F 		.ascii	"snd_nxt\000"
 15243      6E787400 
 15244              	.LASF4:
 15245 0ce2 5F5F7569 		.ascii	"__uint8_t\000"
 15245      6E74385F 
 15245      7400
 15246              	.LASF232:
 15247 0cec 45535441 		.ascii	"ESTABLISHED\000"
 15247      424C4953 
 15247      48454400 
 15248              	.LASF253:
 15249 0cf8 786D6974 		.ascii	"xmit\000"
 15249      00
 15250              	.LASF261:
 15251 0cfd 63616368 		.ascii	"cachehit\000"
 15251      65686974 
 15251      00
 15252              	.LASF327:
 15253 0d06 7463705F 		.ascii	"tcp_tmr\000"
 15253      746D7200 
 15254              	.LASF205:
 15255 0d0e 736E645F 		.ascii	"snd_wnd_max\000"
 15255      776E645F 
 15255      6D617800 
 15256              	.LASF123:
 15257 0d1a 72656164 		.ascii	"read\000"
 15257      00
ARM GAS  C:\Users\jo\AppData\Local\Temp\ccQTqoh0.s 			page 282


 15258              	.LASF174:
 15259 0d1f 6E657469 		.ascii	"netif_linkoutput_fn\000"
 15259      665F6C69 
 15259      6E6B6F75 
 15259      74707574 
 15259      5F666E00 
 15260              	.LASF144:
 15261 0d33 4D454D50 		.ascii	"MEMP_FRAG_PBUF\000"
 15261      5F465241 
 15261      475F5042 
 15261      554600
 15262              	.LASF345:
 15263 0d42 6F757469 		.ascii	"outif\000"
 15263      6600
 15264              	.LASF199:
 15265 0d48 73737468 		.ascii	"ssthresh\000"
 15265      72657368 
 15265      00
 15266              	.LASF373:
 15267 0d51 70627566 		.ascii	"pbuf_ref\000"
 15267      5F726566 
 15267      00
 15268              	.LASF207:
 15269 0d5a 736E645F 		.ascii	"snd_buf\000"
 15269      62756600 
 15270              	.LASF275:
 15271 0d62 6D656D70 		.ascii	"memp\000"
 15271      00
 15272              	.LASF247:
 15273 0d67 5F686472 		.ascii	"_hdrlen_rsvd_flags\000"
 15273      6C656E5F 
 15273      72737664 
 15273      5F666C61 
 15273      677300
 15274              	.LASF256:
 15275 0d7a 6C656E65 		.ascii	"lenerr\000"
 15275      727200
 15276              	.LASF35:
 15277 0d81 705F7072 		.ascii	"p_prev\000"
 15277      657600
 15278              	.LASF89:
 15279 0d88 73697A65 		.ascii	"sizetype\000"
 15279      74797065 
 15279      00
 15280              	.LASF27:
 15281 0d91 74726566 		.ascii	"trefs_t\000"
 15281      735F7400 
 15282              	.LASF13:
 15283 0d99 6C6F6E67 		.ascii	"long unsigned int\000"
 15283      20756E73 
 15283      69676E65 
 15283      6420696E 
 15283      7400
 15284              	.LASF46:
 15285 0dab 705F6D73 		.ascii	"p_msgqueue\000"
 15285      67717565 
 15285      756500
ARM GAS  C:\Users\jo\AppData\Local\Temp\ccQTqoh0.s 			page 283


 15286              	.LASF58:
 15287 0db6 72656164 		.ascii	"ready_list_t\000"
 15287      795F6C69 
 15287      73745F74 
 15287      00
 15288              	.LASF339:
 15289 0dc3 6D707269 		.ascii	"mprio\000"
 15289      6F00
 15290              	.LASF241:
 15291 0dc9 74637068 		.ascii	"tcphdr\000"
 15291      647200
 15292              	.LASF135:
 15293 0dd0 7331365F 		.ascii	"s16_t\000"
 15293      7400
 15294              	.LASF21:
 15295 0dd6 696E7433 		.ascii	"int32_t\000"
 15295      325F7400 
 15296              	.LASF290:
 15297 0dde 706F7274 		.ascii	"port\000"
 15297      00
 15298              	.LASF213:
 15299 0de3 72656675 		.ascii	"refused_data\000"
 15299      7365645F 
 15299      64617461 
 15299      00
 15300              	.LASF82:
 15301 0df0 74726163 		.ascii	"trace_buffer\000"
 15301      655F6275 
 15301      66666572 
 15301      00
 15302              	.LASF259:
 15303 0dfd 70726F74 		.ascii	"proterr\000"
 15303      65727200 
 15304              	.LASF109:
 15305 0e05 77747365 		.ascii	"wtsemp\000"
 15305      6D7000
 15306              	.LASF26:
 15307 0e0c 74737461 		.ascii	"tstate_t\000"
 15307      74655F74 
 15307      00
 15308              	.LASF98:
 15309 0e15 63685F73 		.ascii	"ch_swc_event_t\000"
 15309      77635F65 
 15309      76656E74 
 15309      5F7400
 15310              	.LASF120:
 15311 0e24 6D757465 		.ascii	"mutex_t\000"
 15311      785F7400 
 15312              	.LASF243:
 15313 0e2c 7463705F 		.ascii	"tcp_hdr\000"
 15313      68647200 
 15314              	.LASF73:
 15315 0e34 76745F70 		.ascii	"vt_par\000"
 15315      617200
 15316              	.LASF161:
 15317 0e3b 74797065 		.ascii	"type\000"
 15317      00
ARM GAS  C:\Users\jo\AppData\Local\Temp\ccQTqoh0.s 			page 284


 15318              	.LASF267:
 15319 0e40 73746174 		.ascii	"stats_sys\000"
 15319      735F7379 
 15319      7300
 15320              	.LASF5:
 15321 0e4a 756E7369 		.ascii	"unsigned char\000"
 15321      676E6564 
 15321      20636861 
 15321      7200
 15322              	.LASF90:
 15323 0e58 72656761 		.ascii	"regarm_t\000"
 15323      726D5F74 
 15323      00
 15324              	.LASF233:
 15325 0e61 46494E5F 		.ascii	"FIN_WAIT_1\000"
 15325      57414954 
 15325      5F3100
 15326              	.LASF234:
 15327 0e6c 46494E5F 		.ascii	"FIN_WAIT_2\000"
 15327      57414954 
 15327      5F3200
 15328              	.LASF74:
 15329 0e77 76697274 		.ascii	"virtual_timers_list_t\000"
 15329      75616C5F 
 15329      74696D65 
 15329      72735F6C 
 15329      6973745F 
 15330              	.LASF257:
 15331 0e8d 6D656D65 		.ascii	"memerr\000"
 15331      727200
 15332              	.LASF142:
 15333 0e94 4D454D50 		.ascii	"MEMP_TCP_SEG\000"
 15333      5F544350 
 15333      5F534547 
 15333      00
 15334              	.LASF157:
 15335 0ea1 70627566 		.ascii	"pbuf\000"
 15335      00
 15336              	.LASF357:
 15337 0ea6 7463705F 		.ascii	"tcp_bound_pcbs\000"
 15337      626F756E 
 15337      645F7063 
 15337      627300
 15338              	.LASF219:
 15339 0eb5 6B656570 		.ascii	"keep_idle\000"
 15339      5F69646C 
 15339      6500
 15340              	.LASF288:
 15341 0ebf 7463705F 		.ascii	"tcp_new_port\000"
 15341      6E65775F 
 15341      706F7274 
 15341      00
 15342              	.LASF180:
 15343 0ecc 63616C6C 		.ascii	"callback_arg\000"
 15343      6261636B 
 15343      5F617267 
 15343      00
ARM GAS  C:\Users\jo\AppData\Local\Temp\ccQTqoh0.s 			page 285


 15344              	.LASF229:
 15345 0ed9 4C495354 		.ascii	"LISTEN\000"
 15345      454E00
 15346              	.LASF304:
 15347 0ee0 7463705F 		.ascii	"tcp_arg\000"
 15347      61726700 
 15348              	.LASF154:
 15349 0ee8 61646472 		.ascii	"addr\000"
 15349      00
 15350              	.LASF44:
 15351 0eed 705F7265 		.ascii	"p_refs\000"
 15351      667300
 15352              	.LASF254:
 15353 0ef4 64726F70 		.ascii	"drop\000"
 15353      00
 15354              	.LASF168:
 15355 0ef9 73746174 		.ascii	"state\000"
 15355      6500
 15356              	.LASF160:
 15357 0eff 746F745F 		.ascii	"tot_len\000"
 15357      6C656E00 
 15358              	.LASF305:
 15359 0f07 7463705F 		.ascii	"tcp_recv\000"
 15359      72656376 
 15359      00
 15360              	.LASF368:
 15361 0f10 63685379 		.ascii	"chSysHalt\000"
 15361      7348616C 
 15361      7400
 15362              	.LASF69:
 15363 0f1a 76745F6E 		.ascii	"vt_next\000"
 15363      65787400 
 15364              	.LASF23:
 15365 0f22 75696E74 		.ascii	"uint64_t\000"
 15365      36345F74 
 15365      00
 15366              	.LASF163:
 15367 0f2b 6E657469 		.ascii	"netif\000"
 15367      6600
 15368              	.LASF363:
 15369 0f31 7463705F 		.ascii	"tcp_state_str\000"
 15369      73746174 
 15369      655F7374 
 15369      7200
 15370              	.LASF351:
 15371 0f3f 7463705F 		.ascii	"tcp_timer_ctr\000"
 15371      74696D65 
 15371      725F6374 
 15371      7200
 15372              	.LASF51:
 15373 0f4d 705F6D70 		.ascii	"p_mpool\000"
 15373      6F6F6C00 
 15374              	.LASF208:
 15375 0f55 736E645F 		.ascii	"snd_queuelen\000"
 15375      71756575 
 15375      656C656E 
 15375      00
ARM GAS  C:\Users\jo\AppData\Local\Temp\ccQTqoh0.s 			page 286


 15376              	.LASF83:
 15377 0f62 63685F73 		.ascii	"ch_system_t\000"
 15377      79737465 
 15377      6D5F7400 
 15378              	.LASF296:
 15379 0f6e 6C706362 		.ascii	"lpcb\000"
 15379      00
 15380              	.LASF344:
 15381 0f73 6D73735F 		.ascii	"mss_s\000"
 15381      7300
 15382              	.LASF108:
 15383 0f79 77747472 		.ascii	"wttrp\000"
 15383      7000
 15384              	.LASF326:
 15385 0f7f 7463705F 		.ascii	"tcp_fasttmr_start\000"
 15385      66617374 
 15385      746D725F 
 15385      73746172 
 15385      7400
 15386              	.LASF129:
 15387 0f91 5F5F7661 		.ascii	"__va_list\000"
 15387      5F6C6973 
 15387      7400
 15388              	.LASF215:
 15389 0f9b 72656376 		.ascii	"recv\000"
 15389      00
 15390              	.LASF102:
 15391 0fa0 63685F74 		.ascii	"ch_trace_buffer_t\000"
 15391      72616365 
 15391      5F627566 
 15391      6665725F 
 15391      7400
 15392              	.LASF118:
 15393 0fb2 6D5F6E65 		.ascii	"m_next\000"
 15393      787400
 15394              	.LASF3:
 15395 0fb9 7369676E 		.ascii	"signed char\000"
 15395      65642063 
 15395      68617200 
 15396              	.LASF176:
 15397 0fc5 7463705F 		.ascii	"tcp_pcb\000"
 15397      70636200 
 15398              	.LASF9:
 15399 0fcd 73686F72 		.ascii	"short unsigned int\000"
 15399      7420756E 
 15399      7369676E 
 15399      65642069 
 15399      6E7400
 15400              	.LASF62:
 15401 0fe0 725F6374 		.ascii	"r_ctx\000"
 15401      7800
 15402              	.LASF91:
 15403 0fe6 73746B61 		.ascii	"stkalign_t\000"
 15403      6C69676E 
 15403      5F7400
 15404              	.LASF2:
 15405 0ff1 5F5F696E 		.ascii	"__int8_t\000"
ARM GAS  C:\Users\jo\AppData\Local\Temp\ccQTqoh0.s 			page 287


 15405      74385F74 
 15405      00
 15406              	.LASF7:
 15407 0ffa 73686F72 		.ascii	"short int\000"
 15407      7420696E 
 15407      7400
 15408              	.LASF316:
 15409 1004 70636232 		.ascii	"pcb2\000"
 15409      00
 15410              	.LASF204:
 15411 1009 736E645F 		.ascii	"snd_wnd\000"
 15411      776E6400 
 15412              	.LASF220:
 15413 1011 70657273 		.ascii	"persist_cnt\000"
 15413      6973745F 
 15413      636E7400 
 15414              	.LASF178:
 15415 101d 72656D6F 		.ascii	"remote_ip\000"
 15415      74655F69 
 15415      7000
 15416              	.LASF72:
 15417 1027 76745F66 		.ascii	"vt_func\000"
 15417      756E6300 
 15418              	.LASF360:
 15419 102f 7463705F 		.ascii	"tcp_tw_pcbs\000"
 15419      74775F70 
 15419      63627300 
 15420              	.LASF331:
 15421 103b 7463705F 		.ascii	"tcp_abandon\000"
 15421      6162616E 
 15421      646F6E00 
 15422              	.LASF70:
 15423 1047 76745F70 		.ascii	"vt_prev\000"
 15423      72657600 
 15424              	.LASF286:
 15425 104f 666F726D 		.ascii	"formatted_bytes\000"
 15425      61747465 
 15425      645F6279 
 15425      74657300 
 15426              	.LASF155:
 15427 105f 69705F61 		.ascii	"ip_addr_t\000"
 15427      6464725F 
 15427      7400
 15428              	.LASF380:
 15429 1069 69705F72 		.ascii	"ip_route\000"
 15429      6F757465 
 15429      00
 15430              	.LASF318:
 15431 1072 6572725F 		.ascii	"err_arg\000"
 15431      61726700 
 15432              	.LASF278:
 15433 107a 7463705F 		.ascii	"tcp_segs_free\000"
 15433      73656773 
 15433      5F667265 
 15433      6500
 15434              	.LASF340:
 15435 1088 7463705F 		.ascii	"tcp_alloc\000"
ARM GAS  C:\Users\jo\AppData\Local\Temp\ccQTqoh0.s 			page 288


 15435      616C6C6F 
 15435      6300
 15436              	.LASF359:
 15437 1092 7463705F 		.ascii	"tcp_active_pcbs\000"
 15437      61637469 
 15437      76655F70 
 15437      63627300 
 15438              	.LASF329:
 15439 10a2 73687574 		.ascii	"shut_rx\000"
 15439      5F727800 
 15440              	.LASF110:
 15441 10aa 77746D74 		.ascii	"wtmtxp\000"
 15441      787000
 15442              	.LASF195:
 15443 10b1 6E727478 		.ascii	"nrtx\000"
 15443      00
 15444              	.LASF167:
 15445 10b6 6C696E6B 		.ascii	"linkoutput\000"
 15445      6F757470 
 15445      757400
 15446              	.LASF244:
 15447 10c1 64657374 		.ascii	"dest\000"
 15447      00
 15448              	.LASF106:
 15449 10c6 65786974 		.ascii	"exitcode\000"
 15449      636F6465 
 15449      00
 15450              	.LASF231:
 15451 10cf 53594E5F 		.ascii	"SYN_RCVD\000"
 15451      52435644 
 15451      00
 15452              	.LASF153:
 15453 10d8 69705F61 		.ascii	"ip_addr\000"
 15453      64647200 
 15454              	.LASF251:
 15455 10e0 70636273 		.ascii	"pcbs\000"
 15455      00
 15456              	.LASF355:
 15457 10e5 7463705F 		.ascii	"tcp_ticks\000"
 15457      7469636B 
 15457      7300
 15458              		.ident	"GCC: (GNU Tools for ARM Embedded Processors) 4.9.3 20141119 (release) [ARM/embedded-4_9-br
ARM GAS  C:\Users\jo\AppData\Local\Temp\ccQTqoh0.s 			page 289


DEFINED SYMBOLS
                            *ABS*:00000000 tcp.c
C:\Users\jo\AppData\Local\Temp\ccQTqoh0.s:19     .text.tcp_accept_null:00000000 $t
C:\Users\jo\AppData\Local\Temp\ccQTqoh0.s:24     .text.tcp_accept_null:00000000 tcp_accept_null
C:\Users\jo\AppData\Local\Temp\ccQTqoh0.s:41     .text.tcp_new_port:00000000 $t
C:\Users\jo\AppData\Local\Temp\ccQTqoh0.s:46     .text.tcp_new_port:00000000 tcp_new_port
C:\Users\jo\AppData\Local\Temp\ccQTqoh0.s:124    .text.tcp_new_port:0000004c $d
C:\Users\jo\AppData\Local\Temp\ccQTqoh0.s:131    .text.chprintf.constprop.4:00000000 $t
C:\Users\jo\AppData\Local\Temp\ccQTqoh0.s:136    .text.chprintf.constprop.4:00000000 chprintf.constprop.4
C:\Users\jo\AppData\Local\Temp\ccQTqoh0.s:182    .text.chprintf.constprop.4:00000020 $d
C:\Users\jo\AppData\Local\Temp\ccQTqoh0.s:188    .text.tcp_init:00000000 $t
C:\Users\jo\AppData\Local\Temp\ccQTqoh0.s:194    .text.tcp_init:00000000 tcp_init
C:\Users\jo\AppData\Local\Temp\ccQTqoh0.s:206    .text.tcp_bind:00000000 $t
C:\Users\jo\AppData\Local\Temp\ccQTqoh0.s:212    .text.tcp_bind:00000000 tcp_bind
C:\Users\jo\AppData\Local\Temp\ccQTqoh0.s:363    .text.tcp_bind:0000008c $d
C:\Users\jo\AppData\Local\Temp\ccQTqoh0.s:373    .text.tcp_listen_with_backlog:00000000 $t
C:\Users\jo\AppData\Local\Temp\ccQTqoh0.s:379    .text.tcp_listen_with_backlog:00000000 tcp_listen_with_backlog
C:\Users\jo\AppData\Local\Temp\ccQTqoh0.s:546    .text.tcp_listen_with_backlog:000000b4 $d
C:\Users\jo\AppData\Local\Temp\ccQTqoh0.s:559    .text.tcp_update_rcv_ann_wnd:00000000 $t
C:\Users\jo\AppData\Local\Temp\ccQTqoh0.s:565    .text.tcp_update_rcv_ann_wnd:00000000 tcp_update_rcv_ann_wnd
C:\Users\jo\AppData\Local\Temp\ccQTqoh0.s:681    .text.tcp_update_rcv_ann_wnd:00000064 $d
C:\Users\jo\AppData\Local\Temp\ccQTqoh0.s:692    .text.tcp_recved:00000000 $t
C:\Users\jo\AppData\Local\Temp\ccQTqoh0.s:698    .text.tcp_recved:00000000 tcp_recved
C:\Users\jo\AppData\Local\Temp\ccQTqoh0.s:834    .text.tcp_recved:00000088 $d
C:\Users\jo\AppData\Local\Temp\ccQTqoh0.s:845    .text.tcp_seg_free:00000000 $t
C:\Users\jo\AppData\Local\Temp\ccQTqoh0.s:851    .text.tcp_seg_free:00000000 tcp_seg_free
C:\Users\jo\AppData\Local\Temp\ccQTqoh0.s:891    .text.tcp_segs_free:00000000 $t
C:\Users\jo\AppData\Local\Temp\ccQTqoh0.s:897    .text.tcp_segs_free:00000000 tcp_segs_free
C:\Users\jo\AppData\Local\Temp\ccQTqoh0.s:935    .text.tcp_setprio:00000000 $t
C:\Users\jo\AppData\Local\Temp\ccQTqoh0.s:941    .text.tcp_setprio:00000000 tcp_setprio
C:\Users\jo\AppData\Local\Temp\ccQTqoh0.s:956    .text.tcp_seg_copy:00000000 $t
C:\Users\jo\AppData\Local\Temp\ccQTqoh0.s:962    .text.tcp_seg_copy:00000000 tcp_seg_copy
C:\Users\jo\AppData\Local\Temp\ccQTqoh0.s:1010   .text.tcp_seg_copy:0000002c $d
C:\Users\jo\AppData\Local\Temp\ccQTqoh0.s:1015   .text.tcp_arg:00000000 $t
C:\Users\jo\AppData\Local\Temp\ccQTqoh0.s:1021   .text.tcp_arg:00000000 tcp_arg
C:\Users\jo\AppData\Local\Temp\ccQTqoh0.s:1036   .text.tcp_recv:00000000 $t
C:\Users\jo\AppData\Local\Temp\ccQTqoh0.s:1042   .text.tcp_recv:00000000 tcp_recv
C:\Users\jo\AppData\Local\Temp\ccQTqoh0.s:1105   .text.tcp_recv:00000038 $d
C:\Users\jo\AppData\Local\Temp\ccQTqoh0.s:1113   .text.tcp_sent:00000000 $t
C:\Users\jo\AppData\Local\Temp\ccQTqoh0.s:1119   .text.tcp_sent:00000000 tcp_sent
C:\Users\jo\AppData\Local\Temp\ccQTqoh0.s:1182   .text.tcp_sent:00000034 $d
C:\Users\jo\AppData\Local\Temp\ccQTqoh0.s:1190   .text.tcp_err:00000000 $t
C:\Users\jo\AppData\Local\Temp\ccQTqoh0.s:1196   .text.tcp_err:00000000 tcp_err
C:\Users\jo\AppData\Local\Temp\ccQTqoh0.s:1259   .text.tcp_err:00000038 $d
C:\Users\jo\AppData\Local\Temp\ccQTqoh0.s:1267   .text.tcp_accept:00000000 $t
C:\Users\jo\AppData\Local\Temp\ccQTqoh0.s:1273   .text.tcp_accept:00000000 tcp_accept
C:\Users\jo\AppData\Local\Temp\ccQTqoh0.s:1288   .text.tcp_poll:00000000 $t
C:\Users\jo\AppData\Local\Temp\ccQTqoh0.s:1294   .text.tcp_poll:00000000 tcp_poll
C:\Users\jo\AppData\Local\Temp\ccQTqoh0.s:1364   .text.tcp_poll:00000040 $d
C:\Users\jo\AppData\Local\Temp\ccQTqoh0.s:1372   .text.tcp_pcb_purge:00000000 $t
C:\Users\jo\AppData\Local\Temp\ccQTqoh0.s:1378   .text.tcp_pcb_purge:00000000 tcp_pcb_purge
C:\Users\jo\AppData\Local\Temp\ccQTqoh0.s:1509   .text.tcp_slowtmr:00000000 $t
C:\Users\jo\AppData\Local\Temp\ccQTqoh0.s:1515   .text.tcp_slowtmr:00000000 tcp_slowtmr
C:\Users\jo\AppData\Local\Temp\ccQTqoh0.s:2046   .text.tcp_slowtmr:000002cc $d
C:\Users\jo\AppData\Local\Temp\ccQTqoh0.s:2062   .text.tcp_slowtmr:00000300 $t
C:\Users\jo\AppData\Local\Temp\ccQTqoh0.s:2315   .text.tcp_slowtmr:00000484 $d
C:\Users\jo\AppData\Local\Temp\ccQTqoh0.s:2332   .text.tcp_pcb_remove:00000000 $t
ARM GAS  C:\Users\jo\AppData\Local\Temp\ccQTqoh0.s 			page 290


C:\Users\jo\AppData\Local\Temp\ccQTqoh0.s:2338   .text.tcp_pcb_remove:00000000 tcp_pcb_remove
C:\Users\jo\AppData\Local\Temp\ccQTqoh0.s:2512   .text.tcp_pcb_remove:000000c4 $d
C:\Users\jo\AppData\Local\Temp\ccQTqoh0.s:2523   .text.tcp_close_shutdown:00000000 $t
C:\Users\jo\AppData\Local\Temp\ccQTqoh0.s:2528   .text.tcp_close_shutdown:00000000 tcp_close_shutdown
C:\Users\jo\AppData\Local\Temp\ccQTqoh0.s:2562   .text.tcp_close_shutdown:0000001a $d
C:\Users\jo\AppData\Local\Temp\ccQTqoh0.s:2570   .text.tcp_close_shutdown:00000022 $t
C:\Users\jo\AppData\Local\Temp\ccQTqoh0.s:2846   .text.tcp_close_shutdown:00000164 $d
C:\Users\jo\AppData\Local\Temp\ccQTqoh0.s:2860   .text.tcp_close:00000000 $t
C:\Users\jo\AppData\Local\Temp\ccQTqoh0.s:2866   .text.tcp_close:00000000 tcp_close
C:\Users\jo\AppData\Local\Temp\ccQTqoh0.s:2891   .text.tcp_recv_null:00000000 $t
C:\Users\jo\AppData\Local\Temp\ccQTqoh0.s:2897   .text.tcp_recv_null:00000000 tcp_recv_null
C:\Users\jo\AppData\Local\Temp\ccQTqoh0.s:2956   .text.tcp_process_refused_data:00000000 $t
C:\Users\jo\AppData\Local\Temp\ccQTqoh0.s:2962   .text.tcp_process_refused_data:00000000 tcp_process_refused_data
C:\Users\jo\AppData\Local\Temp\ccQTqoh0.s:3082   .text.tcp_fasttmr:00000000 $t
C:\Users\jo\AppData\Local\Temp\ccQTqoh0.s:3088   .text.tcp_fasttmr:00000000 tcp_fasttmr
C:\Users\jo\AppData\Local\Temp\ccQTqoh0.s:3180   .text.tcp_fasttmr:00000064 $d
C:\Users\jo\AppData\Local\Temp\ccQTqoh0.s:3188   .text.tcp_tmr:00000000 $t
C:\Users\jo\AppData\Local\Temp\ccQTqoh0.s:3194   .text.tcp_tmr:00000000 tcp_tmr
C:\Users\jo\AppData\Local\Temp\ccQTqoh0.s:3228   .text.tcp_tmr:00000020 $d
C:\Users\jo\AppData\Local\Temp\ccQTqoh0.s:3233   .text.tcp_shutdown:00000000 $t
C:\Users\jo\AppData\Local\Temp\ccQTqoh0.s:3239   .text.tcp_shutdown:00000000 tcp_shutdown
C:\Users\jo\AppData\Local\Temp\ccQTqoh0.s:3336   .text.tcp_abandon:00000000 $t
C:\Users\jo\AppData\Local\Temp\ccQTqoh0.s:3342   .text.tcp_abandon:00000000 tcp_abandon
C:\Users\jo\AppData\Local\Temp\ccQTqoh0.s:3579   .text.tcp_abandon:000000d4 $d
C:\Users\jo\AppData\Local\Temp\ccQTqoh0.s:3592   .text.tcp_abort:00000000 $t
C:\Users\jo\AppData\Local\Temp\ccQTqoh0.s:3598   .text.tcp_abort:00000000 tcp_abort
C:\Users\jo\AppData\Local\Temp\ccQTqoh0.s:3614   .text.tcp_alloc:00000000 $t
C:\Users\jo\AppData\Local\Temp\ccQTqoh0.s:3620   .text.tcp_alloc:00000000 tcp_alloc
C:\Users\jo\AppData\Local\Temp\ccQTqoh0.s:3888   .text.tcp_alloc:00000130 $d
C:\Users\jo\AppData\Local\Temp\ccQTqoh0.s:3901   .text.tcp_new:00000000 $t
C:\Users\jo\AppData\Local\Temp\ccQTqoh0.s:3907   .text.tcp_new:00000000 tcp_new
C:\Users\jo\AppData\Local\Temp\ccQTqoh0.s:3922   .text.tcp_next_iss:00000000 $t
C:\Users\jo\AppData\Local\Temp\ccQTqoh0.s:3928   .text.tcp_next_iss:00000000 tcp_next_iss
C:\Users\jo\AppData\Local\Temp\ccQTqoh0.s:3947   .text.tcp_next_iss:00000010 $d
C:\Users\jo\AppData\Local\Temp\ccQTqoh0.s:3953   .text.tcp_eff_send_mss:00000000 $t
C:\Users\jo\AppData\Local\Temp\ccQTqoh0.s:3959   .text.tcp_eff_send_mss:00000000 tcp_eff_send_mss
C:\Users\jo\AppData\Local\Temp\ccQTqoh0.s:4002   .text.tcp_connect:00000000 $t
C:\Users\jo\AppData\Local\Temp\ccQTqoh0.s:4008   .text.tcp_connect:00000000 tcp_connect
C:\Users\jo\AppData\Local\Temp\ccQTqoh0.s:4262   .text.tcp_connect:00000124 $d
C:\Users\jo\AppData\Local\Temp\ccQTqoh0.s:4277   .text.tcp_debug_state_str:00000000 $t
C:\Users\jo\AppData\Local\Temp\ccQTqoh0.s:4283   .text.tcp_debug_state_str:00000000 tcp_debug_state_str
C:\Users\jo\AppData\Local\Temp\ccQTqoh0.s:4300   .text.tcp_debug_state_str:00000008 $d
C:\Users\jo\AppData\Local\Temp\ccQTqoh0.s:4319   .bss.tcp_active_pcbs_changed:00000000 tcp_active_pcbs_changed
C:\Users\jo\AppData\Local\Temp\ccQTqoh0.s:4528   .bss.tcp_tmp_pcb:00000000 tcp_tmp_pcb
C:\Users\jo\AppData\Local\Temp\ccQTqoh0.s:4350   .rodata.tcp_pcb_lists:00000000 tcp_pcb_lists
C:\Users\jo\AppData\Local\Temp\ccQTqoh0.s:4326   .bss.tcp_tw_pcbs:00000000 tcp_tw_pcbs
C:\Users\jo\AppData\Local\Temp\ccQTqoh0.s:4413   .bss.tcp_active_pcbs:00000000 tcp_active_pcbs
C:\Users\jo\AppData\Local\Temp\ccQTqoh0.s:4399   .bss.tcp_listen_pcbs:00000000 tcp_listen_pcbs
C:\Users\jo\AppData\Local\Temp\ccQTqoh0.s:4548   .bss.tcp_bound_pcbs:00000000 tcp_bound_pcbs
C:\Users\jo\AppData\Local\Temp\ccQTqoh0.s:4535   .rodata.tcp_persist_backoff:00000000 tcp_persist_backoff
C:\Users\jo\AppData\Local\Temp\ccQTqoh0.s:4380   .rodata.tcp_backoff:00000000 tcp_backoff
C:\Users\jo\AppData\Local\Temp\ccQTqoh0.s:4360   .bss.tcp_ticks:00000000 tcp_ticks
C:\Users\jo\AppData\Local\Temp\ccQTqoh0.s:4333   .rodata.tcp_state_str:00000000 tcp_state_str
C:\Users\jo\AppData\Local\Temp\ccQTqoh0.s:4320   .bss.tcp_active_pcbs_changed:00000000 $d
C:\Users\jo\AppData\Local\Temp\ccQTqoh0.s:4322   .bss.tcp_tw_pcbs:00000000 $d
C:\Users\jo\AppData\Local\Temp\ccQTqoh0.s:4329   .rodata.tcp_state_str:00000000 $d
C:\Users\jo\AppData\Local\Temp\ccQTqoh0.s:4346   .rodata.tcp_pcb_lists:00000000 $d
ARM GAS  C:\Users\jo\AppData\Local\Temp\ccQTqoh0.s 			page 291


C:\Users\jo\AppData\Local\Temp\ccQTqoh0.s:4356   .bss.tcp_ticks:00000000 $d
C:\Users\jo\AppData\Local\Temp\ccQTqoh0.s:4366   .bss.tcp_timer:00000000 tcp_timer
C:\Users\jo\AppData\Local\Temp\ccQTqoh0.s:4367   .bss.tcp_timer:00000000 $d
C:\Users\jo\AppData\Local\Temp\ccQTqoh0.s:4369   .data.iss.9034:00000000 $d
C:\Users\jo\AppData\Local\Temp\ccQTqoh0.s:4373   .data.iss.9034:00000000 iss.9034
C:\Users\jo\AppData\Local\Temp\ccQTqoh0.s:4376   .rodata.tcp_backoff:00000000 $d
C:\Users\jo\AppData\Local\Temp\ccQTqoh0.s:4395   .bss.tcp_listen_pcbs:00000000 $d
C:\Users\jo\AppData\Local\Temp\ccQTqoh0.s:4402   .data.tcp_port:00000000 $d
C:\Users\jo\AppData\Local\Temp\ccQTqoh0.s:4406   .data.tcp_port:00000000 tcp_port
C:\Users\jo\AppData\Local\Temp\ccQTqoh0.s:4409   .bss.tcp_active_pcbs:00000000 $d
C:\Users\jo\AppData\Local\Temp\ccQTqoh0.s:4419   .bss.tcp_timer_ctr:00000000 tcp_timer_ctr
C:\Users\jo\AppData\Local\Temp\ccQTqoh0.s:4420   .bss.tcp_timer_ctr:00000000 $d
C:\Users\jo\AppData\Local\Temp\ccQTqoh0.s:4422   .rodata.str1.4:00000000 $d
C:\Users\jo\AppData\Local\Temp\ccQTqoh0.s:4524   .bss.tcp_tmp_pcb:00000000 $d
C:\Users\jo\AppData\Local\Temp\ccQTqoh0.s:4531   .rodata.tcp_persist_backoff:00000000 $d
C:\Users\jo\AppData\Local\Temp\ccQTqoh0.s:4544   .bss.tcp_bound_pcbs:00000000 $d
                     .debug_frame:00000010 $d
C:\Users\jo\AppData\Local\Temp\ccQTqoh0.s:130    .text.tcp_new_port:00000058 $t
C:\Users\jo\AppData\Local\Temp\ccQTqoh0.s:187    .text.chprintf.constprop.4:00000028 $t
C:\Users\jo\AppData\Local\Temp\ccQTqoh0.s:372    .text.tcp_bind:000000a4 $t
C:\Users\jo\AppData\Local\Temp\ccQTqoh0.s:558    .text.tcp_listen_with_backlog:000000d8 $t
C:\Users\jo\AppData\Local\Temp\ccQTqoh0.s:691    .text.tcp_update_rcv_ann_wnd:00000074 $t
C:\Users\jo\AppData\Local\Temp\ccQTqoh0.s:844    .text.tcp_recved:0000009c $t
C:\Users\jo\AppData\Local\Temp\ccQTqoh0.s:1112   .text.tcp_recv:00000048 $t
C:\Users\jo\AppData\Local\Temp\ccQTqoh0.s:1189   .text.tcp_sent:00000044 $t
C:\Users\jo\AppData\Local\Temp\ccQTqoh0.s:1266   .text.tcp_err:00000048 $t
C:\Users\jo\AppData\Local\Temp\ccQTqoh0.s:2331   .text.tcp_slowtmr:000004ac $t
C:\Users\jo\AppData\Local\Temp\ccQTqoh0.s:2859   .text.tcp_close_shutdown:0000018c $t
C:\Users\jo\AppData\Local\Temp\ccQTqoh0.s:3232   .text.tcp_tmr:00000024 $t
C:\Users\jo\AppData\Local\Temp\ccQTqoh0.s:3900   .text.tcp_alloc:00000154 $t
C:\Users\jo\AppData\Local\Temp\ccQTqoh0.s:3952   .text.tcp_next_iss:00000018 $t
C:\Users\jo\AppData\Local\Temp\ccQTqoh0.s:4276   .text.tcp_connect:0000014c $t
C:\Users\jo\AppData\Local\Temp\ccQTqoh0.s:4315   .text.tcp_debug_state_str:0000000c $t

UNDEFINED SYMBOLS
chvprintf
itm_port
tcp_timer_needed
chSysHalt
malloc
free
memp_sizes
tcp_output
pbuf_free
pbuf_ref
tcp_zero_window_probe
tcp_rexmit_rto
tcp_keepalive
tcp_rst
tcp_send_fin
memset
lwip_stats
ip_route
tcp_enqueue_flags
