ARM GAS  C:\Users\jo\AppData\Local\Temp\ccQTqoh0.s 			page 1


   1              		.syntax unified
   2              		.cpu cortex-m4
   3              		.fpu softvfp
   4              		.eabi_attribute 20, 1
   5              		.eabi_attribute 21, 1
   6              		.eabi_attribute 23, 3
   7              		.eabi_attribute 24, 1
   8              		.eabi_attribute 25, 1
   9              		.eabi_attribute 26, 1
  10              		.eabi_attribute 30, 2
  11              		.eabi_attribute 34, 1
  12              		.eabi_attribute 18, 4
  13              		.thumb
  14              		.file	"tcp.c"
  15              		.text
  16              	.Ltext0:
  17              		.cfi_sections	.debug_frame
  18              		.section	.text.tcp_accept_null,"ax",%progbits
  19              		.align	2
  20              		.p2align 4,,15
  21              		.thumb
  22              		.thumb_func
  23              		.type	tcp_accept_null, %function
  24              	tcp_accept_null:
  25              	.LFB268:
  26              		.file 1 "../../../ext/lwip/src/core/tcp.c"
  27              		.loc 1 495 0
  28              		.cfi_startproc
  29              		@ args = 0, pretend = 0, frame = 0
  30              		@ frame_needed = 0, uses_anonymous_args = 0
  31              		@ link register save eliminated.
  32              	.LVL0:
  33              		.loc 1 501 0
  34 0000 6FF00900 		mvn	r0, #9
  35              	.LVL1:
  36 0004 7047     		bx	lr
  37              		.cfi_endproc
  38              	.LFE268:
  39              		.size	tcp_accept_null, .-tcp_accept_null
  40 0006 00BFAFF3 		.section	.text.tcp_new_port,"ax",%progbits
  40      0080AFF3 
  40      0080
  41              		.align	2
  42              		.p2align 4,,15
  43              		.thumb
  44              		.thumb_func
  45              		.type	tcp_new_port, %function
  46              	tcp_new_port:
  47              	.LFB272:
  48              		.loc 1 648 0
  49              		.cfi_startproc
  50              		@ args = 0, pretend = 0, frame = 0
  51              		@ frame_needed = 0, uses_anonymous_args = 0
  52              		@ link register save eliminated.
  53              	.LVL2:
  54 0000 F0B4     		push	{r4, r5, r6, r7}
  55              		.cfi_def_cfa_offset 16
ARM GAS  C:\Users\jo\AppData\Local\Temp\ccQTqoh0.s 			page 2


  56              		.cfi_offset 4, -16
  57              		.cfi_offset 5, -12
  58              		.cfi_offset 6, -8
  59              		.cfi_offset 7, -4
  60 0002 124E     		ldr	r6, .L22
  61 0004 124F     		ldr	r7, .L22+4
  62 0006 3088     		ldrh	r0, [r6]
  63              		.loc 1 648 0
  64 0008 4FF48044 		mov	r4, #16384
  65              		.loc 1 654 0
  66 000c 4FF6FF75 		movw	r5, #65535
  67              	.LVL3:
  68              	.L3:
  69 0010 A842     		cmp	r0, r5
  70 0012 18BF     		it	ne
  71 0014 0130     		addne	r0, r0, #1
  72 0016 0F49     		ldr	r1, .L22+8
  73 0018 14BF     		ite	ne
  74 001a 80B2     		uxthne	r0, r0
  75 001c 4FF44040 		moveq	r0, #49152
  76              	.LVL4:
  77              	.L12:
  78              		.loc 1 659 0
  79 0020 51F8043B 		ldr	r3, [r1], #4
  80 0024 1B68     		ldr	r3, [r3]
  81              	.LVL5:
  82 0026 13B9     		cbnz	r3, .L20
  83 0028 0BE0     		b	.L5
  84              	.L9:
  85              		.loc 1 659 0 is_stmt 0 discriminator 2
  86 002a DB68     		ldr	r3, [r3, #12]
  87              	.LVL6:
  88 002c 4BB1     		cbz	r3, .L5
  89              	.L20:
  90              		.loc 1 660 0 is_stmt 1
  91 002e 5A8B     		ldrh	r2, [r3, #26]
  92 0030 8242     		cmp	r2, r0
  93 0032 FAD1     		bne	.L9
  94              	.LVL7:
  95 0034 013C     		subs	r4, r4, #1
  96              	.LVL8:
  97 0036 A4B2     		uxth	r4, r4
  98              		.loc 1 661 0
  99 0038 002C     		cmp	r4, #0
 100 003a E9D1     		bne	.L3
 101 003c 3080     		strh	r0, [r6]	@ movhi
 102              		.loc 1 662 0
 103 003e 2046     		mov	r0, r4
 104 0040 02E0     		b	.L10
 105              	.LVL9:
 106              	.L5:
 107              		.loc 1 658 0 discriminator 2
 108 0042 B942     		cmp	r1, r7
 109 0044 ECD1     		bne	.L12
 110 0046 3080     		strh	r0, [r6]	@ movhi
 111              	.LVL10:
 112              	.L10:
ARM GAS  C:\Users\jo\AppData\Local\Temp\ccQTqoh0.s 			page 3


 113              		.loc 1 669 0
 114 0048 F0BC     		pop	{r4, r5, r6, r7}
 115              		.cfi_restore 7
 116              		.cfi_restore 6
 117              		.cfi_restore 5
 118              		.cfi_restore 4
 119              		.cfi_def_cfa_offset 0
 120 004a 7047     		bx	lr
 121              	.L23:
 122              		.align	2
 123              	.L22:
 124 004c 00000000 		.word	.LANCHOR0
 125 0050 10000000 		.word	.LANCHOR1+16
 126 0054 00000000 		.word	.LANCHOR1
 127              		.cfi_endproc
 128              	.LFE272:
 129              		.size	tcp_new_port, .-tcp_new_port
 130 0058 AFF30080 		.section	.text.chprintf.constprop.4,"ax",%progbits
 130      AFF30080 
 131              		.align	2
 132              		.p2align 4,,15
 133              		.thumb
 134              		.thumb_func
 135              		.type	chprintf.constprop.4, %function
 136              	chprintf.constprop.4:
 137              	.LFB301:
 138              		.file 2 "../../../os/hal/lib/streams/chprintf.h"
 139              		.loc 2 69 0
 140              		.cfi_startproc
 141              		@ args = 4, pretend = 12, frame = 8
 142              		@ frame_needed = 0, uses_anonymous_args = 1
 143              	.LVL11:
 144 0000 0EB4     		push	{r1, r2, r3}
 145              		.cfi_def_cfa_offset 12
 146              		.cfi_offset 1, -12
 147              		.cfi_offset 2, -8
 148              		.cfi_offset 3, -4
 149 0002 00B5     		push	{lr}
 150              		.cfi_def_cfa_offset 16
 151              		.cfi_offset 14, -16
 152 0004 82B0     		sub	sp, sp, #8
 153              		.cfi_def_cfa_offset 24
 154              		.loc 2 73 0
 155 0006 04AB     		add	r3, sp, #16
 156              		.loc 2 74 0
 157 0008 1A46     		mov	r2, r3
 158 000a 0549     		ldr	r1, .L26
 159 000c 0548     		ldr	r0, .L26+4
 160              	.LVL12:
 161              		.loc 2 73 0
 162 000e 0193     		str	r3, [sp, #4]
 163              		.loc 2 74 0
 164 0010 FFF7FEFF 		bl	chvprintf
 165              	.LVL13:
 166              		.loc 2 78 0
 167 0014 02B0     		add	sp, sp, #8
 168              		.cfi_def_cfa_offset 16
ARM GAS  C:\Users\jo\AppData\Local\Temp\ccQTqoh0.s 			page 4


 169              		@ sp needed
 170 0016 5DF804EB 		ldr	lr, [sp], #4
 171              		.cfi_restore 14
 172              		.cfi_def_cfa_offset 12
 173 001a 03B0     		add	sp, sp, #12
 174              		.cfi_restore 3
 175              		.cfi_restore 2
 176              		.cfi_restore 1
 177              		.cfi_def_cfa_offset 0
 178 001c 7047     		bx	lr
 179              	.L27:
 180 001e 00BF     		.align	2
 181              	.L26:
 182 0020 00000000 		.word	.LC0
 183 0024 00000000 		.word	itm_port
 184              		.cfi_endproc
 185              	.LFE301:
 186              		.size	chprintf.constprop.4, .-chprintf.constprop.4
 187 0028 AFF30080 		.section	.text.tcp_init,"ax",%progbits
 187      AFF30080 
 188              		.align	2
 189              		.p2align 4,,15
 190              		.global	tcp_init
 191              		.thumb
 192              		.thumb_func
 193              		.type	tcp_init, %function
 194              	tcp_init:
 195              	.LFB260:
 196              		.loc 1 131 0
 197              		.cfi_startproc
 198              		@ args = 0, pretend = 0, frame = 0
 199              		@ frame_needed = 0, uses_anonymous_args = 0
 200              		@ link register save eliminated.
 201 0000 7047     		bx	lr
 202              		.cfi_endproc
 203              	.LFE260:
 204              		.size	tcp_init, .-tcp_init
 205 0002 00BFAFF3 		.section	.text.tcp_bind,"ax",%progbits
 205      0080AFF3 
 205      0080AFF3 
 205      0080
 206              		.align	2
 207              		.p2align 4,,15
 208              		.global	tcp_bind
 209              		.thumb
 210              		.thumb_func
 211              		.type	tcp_bind, %function
 212              	tcp_bind:
 213              	.LFB267:
 214              		.loc 1 434 0
 215              		.cfi_startproc
 216              		@ args = 0, pretend = 0, frame = 0
 217              		@ frame_needed = 0, uses_anonymous_args = 0
 218              	.LVL14:
 219              		.loc 1 434 0
 220 0000 F0B5     		push	{r4, r5, r6, r7, lr}
 221              		.cfi_def_cfa_offset 20
ARM GAS  C:\Users\jo\AppData\Local\Temp\ccQTqoh0.s 			page 5


 222              		.cfi_offset 4, -20
 223              		.cfi_offset 5, -16
 224              		.cfi_offset 6, -12
 225              		.cfi_offset 7, -8
 226              		.cfi_offset 14, -4
 227              		.loc 1 439 0
 228 0002 037E     		ldrb	r3, [r0, #24]	@ zero_extendqisi2
 229              		.loc 1 434 0
 230 0004 83B0     		sub	sp, sp, #12
 231              		.cfi_def_cfa_offset 32
 232              		.loc 1 434 0
 233 0006 0646     		mov	r6, r0
 234              		.loc 1 439 0
 235 0008 002B     		cmp	r3, #0
 236 000a 31D1     		bne	.L55
 237 000c 0D46     		mov	r5, r1
 238              		.loc 1 452 0
 239 000e 42B3     		cbz	r2, .L56
 240              	.LVL15:
 241              	.L32:
 242 0010 1E49     		ldr	r1, .L57
 243 0012 01F11007 		add	r7, r1, #16
 244              	.LVL16:
 245              	.L36:
 246              		.loc 1 461 0
 247 0016 51F8043B 		ldr	r3, [r1], #4
 248 001a 1B68     		ldr	r3, [r3]
 249              	.LVL17:
 250 001c 13B9     		cbnz	r3, .L35
 251 001e 0FE0     		b	.L33
 252              	.L34:
 253              		.loc 1 461 0 is_stmt 0 discriminator 2
 254 0020 DB68     		ldr	r3, [r3, #12]
 255              	.LVL18:
 256 0022 6BB1     		cbz	r3, .L33
 257              	.L35:
 258              		.loc 1 462 0 is_stmt 1
 259 0024 5C8B     		ldrh	r4, [r3, #26]
 260 0026 9442     		cmp	r4, r2
 261 0028 FAD1     		bne	.L34
 262              		.loc 1 471 0
 263 002a 1868     		ldr	r0, [r3]
 264 002c 20B1     		cbz	r0, .L42
 265              		.loc 1 471 0 is_stmt 0 discriminator 2
 266 002e 1DB1     		cbz	r5, .L42
 267              		.loc 1 472 0 is_stmt 1
 268 0030 2C68     		ldr	r4, [r5]
 269 0032 0CB1     		cbz	r4, .L42
 270              		.loc 1 472 0 is_stmt 0 discriminator 1
 271 0034 A042     		cmp	r0, r4
 272 0036 F3D1     		bne	.L34
 273              	.L42:
 274              		.loc 1 474 0 is_stmt 1
 275 0038 F820     		movs	r0, #248
 276              	.LVL19:
 277              	.L31:
 278              		.loc 1 488 0
ARM GAS  C:\Users\jo\AppData\Local\Temp\ccQTqoh0.s 			page 6


 279 003a 40B2     		sxtb	r0, r0
 280 003c 03B0     		add	sp, sp, #12
 281              		.cfi_remember_state
 282              		.cfi_def_cfa_offset 20
 283              		@ sp needed
 284 003e F0BD     		pop	{r4, r5, r6, r7, pc}
 285              	.LVL20:
 286              	.L33:
 287              		.cfi_restore_state
 288              		.loc 1 460 0 discriminator 2
 289 0040 B942     		cmp	r1, r7
 290 0042 E8D1     		bne	.L36
 291              		.loc 1 481 0
 292 0044 15B1     		cbz	r5, .L37
 293              		.loc 1 481 0 is_stmt 0 discriminator 1
 294 0046 2B68     		ldr	r3, [r5]
 295              	.LVL21:
 296 0048 03B1     		cbz	r3, .L37
 297              		.loc 1 482 0 is_stmt 1
 298 004a 3360     		str	r3, [r6]
 299              	.L37:
 300              		.loc 1 485 0
 301 004c 104B     		ldr	r3, .L57+4
 302              		.loc 1 484 0
 303 004e 7283     		strh	r2, [r6, #26]	@ movhi
 304              		.loc 1 485 0
 305 0050 1A68     		ldr	r2, [r3]
 306              	.LVL22:
 307 0052 F260     		str	r2, [r6, #12]
 308 0054 1E60     		str	r6, [r3]
 309 0056 FFF7FEFF 		bl	tcp_timer_needed
 310              	.LVL23:
 311              		.loc 1 487 0
 312 005a 0020     		movs	r0, #0
 313              		.loc 1 488 0
 314 005c 40B2     		sxtb	r0, r0
 315 005e 03B0     		add	sp, sp, #12
 316              		.cfi_remember_state
 317              		.cfi_def_cfa_offset 20
 318              		@ sp needed
 319 0060 F0BD     		pop	{r4, r5, r6, r7, pc}
 320              	.LVL24:
 321              	.L56:
 322              		.cfi_restore_state
 323              		.loc 1 453 0
 324 0062 FFF7FEFF 		bl	tcp_new_port
 325              	.LVL25:
 326              		.loc 1 454 0
 327 0066 0246     		mov	r2, r0
 328 0068 0028     		cmp	r0, #0
 329 006a D1D1     		bne	.L32
 330              		.loc 1 455 0
 331 006c FE20     		movs	r0, #254
 332              	.LVL26:
 333 006e E4E7     		b	.L31
 334              	.LVL27:
 335              	.L55:
ARM GAS  C:\Users\jo\AppData\Local\Temp\ccQTqoh0.s 			page 7


 336              		.loc 1 439 0 discriminator 1
 337 0070 084B     		ldr	r3, .L57+8
 338 0072 0093     		str	r3, [sp]
 339 0074 0849     		ldr	r1, .L57+12
 340              	.LVL28:
 341 0076 094A     		ldr	r2, .L57+16
 342              	.LVL29:
 343 0078 0948     		ldr	r0, .L57+20
 344              	.LVL30:
 345 007a 40F2B713 		movw	r3, #439
 346 007e FFF7FEFF 		bl	chprintf.constprop.4
 347              	.LVL31:
 348              	.LBB94:
 349              	.LBB95:
 350              		.file 3 "../../../os/hal/osal/rt/osal.h"
 351              		.loc 3 416 0 discriminator 1
 352 0082 0648     		ldr	r0, .L57+16
 353 0084 FFF7FEFF 		bl	chSysHalt
 354              	.LVL32:
 355              	.LBE95:
 356              	.LBE94:
 357              		.loc 1 439 0 discriminator 1
 358 0088 FA20     		movs	r0, #250
 359 008a D6E7     		b	.L31
 360              	.L58:
 361              		.align	2
 362              	.L57:
 363 008c 00000000 		.word	.LANCHOR1
 364 0090 00000000 		.word	.LANCHOR2
 365 0094 50000000 		.word	.LC2
 366 0098 00000000 		.word	.LC0
 367 009c 28000000 		.word	.LC1
 368 00a0 00000000 		.word	itm_port
 369              		.cfi_endproc
 370              	.LFE267:
 371              		.size	tcp_bind, .-tcp_bind
 372 00a4 AFF30080 		.section	.text.tcp_listen_with_backlog,"ax",%progbits
 372      AFF30080 
 372      AFF30080 
 373              		.align	2
 374              		.p2align 4,,15
 375              		.global	tcp_listen_with_backlog
 376              		.thumb
 377              		.thumb_func
 378              		.type	tcp_listen_with_backlog, %function
 379              	tcp_listen_with_backlog:
 380              	.LFB269:
 381              		.loc 1 520 0
 382              		.cfi_startproc
 383              		@ args = 0, pretend = 0, frame = 0
 384              		@ frame_needed = 0, uses_anonymous_args = 0
 385              	.LVL33:
 386 0000 F0B5     		push	{r4, r5, r6, r7, lr}
 387              		.cfi_def_cfa_offset 20
 388              		.cfi_offset 4, -20
 389              		.cfi_offset 5, -16
 390              		.cfi_offset 6, -12
ARM GAS  C:\Users\jo\AppData\Local\Temp\ccQTqoh0.s 			page 8


 391              		.cfi_offset 7, -8
 392              		.cfi_offset 14, -4
 393              		.loc 1 524 0
 394 0002 037E     		ldrb	r3, [r0, #24]	@ zero_extendqisi2
 395              		.loc 1 520 0
 396 0004 83B0     		sub	sp, sp, #12
 397              		.cfi_def_cfa_offset 32
 398              		.loc 1 520 0
 399 0006 0546     		mov	r5, r0
 400              		.loc 1 524 0
 401 0008 002B     		cmp	r3, #0
 402 000a 45D1     		bne	.L77
 403              		.loc 1 545 0
 404 000c 294B     		ldr	r3, .L81
 405 000e 9888     		ldrh	r0, [r3, #4]
 406              	.LVL34:
 407 0010 FFF7FEFF 		bl	malloc
 408              	.LVL35:
 409              		.loc 1 546 0
 410 0014 0446     		mov	r4, r0
 411 0016 0028     		cmp	r0, #0
 412 0018 34D0     		beq	.L61
 413              		.loc 1 554 0
 414 001a 2B7A     		ldrb	r3, [r5, #8]	@ zero_extendqisi2
 415              		.loc 1 550 0
 416 001c 6A8B     		ldrh	r2, [r5, #26]
 417              		.loc 1 549 0
 418 001e 2E69     		ldr	r6, [r5, #16]
 419              		.loc 1 552 0
 420 0020 95F819E0 		ldrb	lr, [r5, #25]	@ zero_extendqisi2
 421              		.loc 1 555 0
 422 0024 AF7A     		ldrb	r7, [r5, #10]	@ zero_extendqisi2
 423              		.loc 1 556 0
 424 0026 687A     		ldrb	r0, [r5, #9]	@ zero_extendqisi2
 425              	.LVL36:
 426              		.loc 1 557 0
 427 0028 2968     		ldr	r1, [r5]
 428              		.loc 1 550 0
 429 002a 6283     		strh	r2, [r4, #26]	@ movhi
 430              		.loc 1 554 0
 431 002c 43F00203 		orr	r3, r3, #2
 432              		.loc 1 551 0
 433 0030 4FF0010C 		mov	ip, #1
 434              		.loc 1 554 0
 435 0034 2372     		strb	r3, [r4, #8]
 436              		.loc 1 549 0
 437 0036 2661     		str	r6, [r4, #16]
 438              		.loc 1 551 0
 439 0038 84F818C0 		strb	ip, [r4, #24]
 440              		.loc 1 552 0
 441 003c 84F819E0 		strb	lr, [r4, #25]
 442              		.loc 1 555 0
 443 0040 A772     		strb	r7, [r4, #10]
 444              		.loc 1 556 0
 445 0042 6072     		strb	r0, [r4, #9]
 446              		.loc 1 557 0
 447 0044 2160     		str	r1, [r4]
ARM GAS  C:\Users\jo\AppData\Local\Temp\ccQTqoh0.s 			page 9


 448              		.loc 1 558 0
 449 0046 8AB1     		cbz	r2, .L62
 450              		.loc 1 559 0
 451 0048 1B4B     		ldr	r3, .L81+4
 452 004a 1A68     		ldr	r2, [r3]
 453 004c AA42     		cmp	r2, r5
 454 004e 20D0     		beq	.L78
 455              		.loc 1 559 0 is_stmt 0 discriminator 2
 456 0050 1A49     		ldr	r1, .L81+8
 457 0052 0A60     		str	r2, [r1]
 458 0054 52B1     		cbz	r2, .L62
 459              		.loc 1 559 0
 460 0056 D368     		ldr	r3, [r2, #12]
 461 0058 AB42     		cmp	r3, r5
 462 005a 17D0     		beq	.L66
 463              		.loc 1 559 0 discriminator 6
 464 005c 2BB1     		cbz	r3, .L79
 465              	.L69:
 466              		.loc 1 559 0 discriminator 9
 467 005e DA68     		ldr	r2, [r3, #12]
 468 0060 AA42     		cmp	r2, r5
 469 0062 11D0     		beq	.L80
 470 0064 1346     		mov	r3, r2
 471              		.loc 1 559 0
 472 0066 002B     		cmp	r3, #0
 473 0068 F9D1     		bne	.L69
 474              	.L79:
 475 006a 0B60     		str	r3, [r1]
 476              	.L62:
 477              		.loc 1 561 0 is_stmt 1
 478 006c 2846     		mov	r0, r5
 479 006e FFF7FEFF 		bl	free
 480              	.LVL37:
 481              		.loc 1 569 0
 482 0072 134B     		ldr	r3, .L81+12
 483              		.loc 1 563 0
 484 0074 134A     		ldr	r2, .L81+16
 485              		.loc 1 569 0
 486 0076 1968     		ldr	r1, [r3]
 487 0078 E160     		str	r1, [r4, #12]
 488              		.loc 1 563 0
 489 007a 6261     		str	r2, [r4, #20]
 490              		.loc 1 569 0
 491 007c 1C60     		str	r4, [r3]
 492 007e FFF7FEFF 		bl	tcp_timer_needed
 493              	.LVL38:
 494              		.loc 1 570 0
 495 0082 2046     		mov	r0, r4
 496              	.LVL39:
 497              	.L61:
 498              		.loc 1 571 0
 499 0084 03B0     		add	sp, sp, #12
 500              		.cfi_remember_state
 501              		.cfi_def_cfa_offset 20
 502              		@ sp needed
 503 0086 F0BD     		pop	{r4, r5, r6, r7, pc}
 504              	.LVL40:
ARM GAS  C:\Users\jo\AppData\Local\Temp\ccQTqoh0.s 			page 10


 505              	.L80:
 506              		.cfi_restore_state
 507 0088 1A46     		mov	r2, r3
 508 008a 0B60     		str	r3, [r1]
 509              	.L66:
 510              		.loc 1 559 0 discriminator 5
 511 008c EB68     		ldr	r3, [r5, #12]
 512 008e D360     		str	r3, [r2, #12]
 513 0090 ECE7     		b	.L62
 514              	.L78:
 515              		.loc 1 559 0 is_stmt 0 discriminator 1
 516 0092 EA68     		ldr	r2, [r5, #12]
 517 0094 1A60     		str	r2, [r3]
 518 0096 E9E7     		b	.L62
 519              	.LVL41:
 520              	.L77:
 521              		.loc 1 524 0 is_stmt 1 discriminator 1
 522 0098 0B4B     		ldr	r3, .L81+20
 523 009a 0093     		str	r3, [sp]
 524 009c 0B49     		ldr	r1, .L81+24
 525              	.LVL42:
 526 009e 0C4A     		ldr	r2, .L81+28
 527 00a0 0C48     		ldr	r0, .L81+32
 528              	.LVL43:
 529 00a2 4FF40373 		mov	r3, #524
 530 00a6 FFF7FEFF 		bl	chprintf.constprop.4
 531              	.LVL44:
 532              	.LBB96:
 533              	.LBB97:
 534              		.loc 3 416 0 discriminator 1
 535 00aa 0948     		ldr	r0, .L81+28
 536 00ac FFF7FEFF 		bl	chSysHalt
 537              	.LVL45:
 538              	.LBE97:
 539              	.LBE96:
 540              		.loc 1 524 0 discriminator 1
 541 00b0 0020     		movs	r0, #0
 542 00b2 E7E7     		b	.L61
 543              	.L82:
 544              		.align	2
 545              	.L81:
 546 00b4 00000000 		.word	memp_sizes
 547 00b8 00000000 		.word	.LANCHOR2
 548 00bc 00000000 		.word	.LANCHOR3
 549 00c0 00000000 		.word	.LANCHOR4
 550 00c4 00000000 		.word	tcp_accept_null
 551 00c8 50000000 		.word	.LC2
 552 00cc 00000000 		.word	.LC0
 553 00d0 74000000 		.word	.LC3
 554 00d4 00000000 		.word	itm_port
 555              		.cfi_endproc
 556              	.LFE269:
 557              		.size	tcp_listen_with_backlog, .-tcp_listen_with_backlog
 558 00d8 AFF30080 		.section	.text.tcp_update_rcv_ann_wnd,"ax",%progbits
 558      AFF30080 
 559              		.align	2
 560              		.p2align 4,,15
ARM GAS  C:\Users\jo\AppData\Local\Temp\ccQTqoh0.s 			page 11


 561              		.global	tcp_update_rcv_ann_wnd
 562              		.thumb
 563              		.thumb_func
 564              		.type	tcp_update_rcv_ann_wnd, %function
 565              	tcp_update_rcv_ann_wnd:
 566              	.LFB270:
 567              		.loc 1 580 0
 568              		.cfi_startproc
 569              		@ args = 0, pretend = 0, frame = 0
 570              		@ frame_needed = 0, uses_anonymous_args = 0
 571              	.LVL46:
 572 0000 70B5     		push	{r4, r5, r6, lr}
 573              		.cfi_def_cfa_offset 16
 574              		.cfi_offset 4, -16
 575              		.cfi_offset 5, -12
 576              		.cfi_offset 6, -8
 577              		.cfi_offset 14, -4
 578              		.loc 1 583 0
 579 0002 016B     		ldr	r1, [r0, #48]
 580              		.loc 1 581 0
 581 0004 848D     		ldrh	r4, [r0, #44]
 582              		.loc 1 583 0
 583 0006 C28E     		ldrh	r2, [r0, #54]
 584              		.loc 1 581 0
 585 0008 856A     		ldr	r5, [r0, #40]
 586              	.LVL47:
 587              		.loc 1 583 0
 588 000a 40F66836 		movw	r6, #2920
 589              		.loc 1 580 0
 590 000e 0346     		mov	r3, r0
 591 0010 601A     		subs	r0, r4, r1
 592              	.LVL48:
 593              		.loc 1 583 0
 594 0012 B242     		cmp	r2, r6
 595 0014 2844     		add	r0, r0, r5
 596 0016 94BF     		ite	ls
 597 0018 821A     		subls	r2, r0, r2
 598 001a 821B     		subhi	r2, r0, r6
 599 001c 002A     		cmp	r2, #0
 600              		.loc 1 580 0
 601 001e 82B0     		sub	sp, sp, #8
 602              		.cfi_def_cfa_offset 24
 603              		.loc 1 583 0
 604 0020 02DB     		blt	.L85
 605              		.loc 1 585 0
 606 0022 DC85     		strh	r4, [r3, #46]	@ movhi
 607              		.loc 1 600 0
 608 0024 02B0     		add	sp, sp, #8
 609              		.cfi_remember_state
 610              		.cfi_def_cfa_offset 16
 611              		@ sp needed
 612 0026 70BD     		pop	{r4, r5, r6, pc}
 613              	.LVL49:
 614              	.L85:
 615              		.cfi_restore_state
 616              		.loc 1 588 0
 617 0028 6A1A     		subs	r2, r5, r1
ARM GAS  C:\Users\jo\AppData\Local\Temp\ccQTqoh0.s 			page 12


 618 002a 002A     		cmp	r2, #0
 619 002c 03DD     		ble	.L87
 620              		.loc 1 591 0
 621 002e 0020     		movs	r0, #0
 622 0030 D885     		strh	r0, [r3, #46]	@ movhi
 623              		.loc 1 600 0
 624 0032 02B0     		add	sp, sp, #8
 625              		.cfi_remember_state
 626              		.cfi_def_cfa_offset 16
 627              		@ sp needed
 628 0034 70BD     		pop	{r4, r5, r6, pc}
 629              	.LVL50:
 630              	.L87:
 631              		.cfi_restore_state
 632              	.LBB98:
 633              		.loc 1 594 0
 634 0036 4D1B     		subs	r5, r1, r5
 635              	.LVL51:
 636              		.loc 1 595 0
 637 0038 B5F5803F 		cmp	r5, #65536
 638 003c 1C46     		mov	r4, r3
 639              	.LVL52:
 640 003e 03D2     		bcs	.L91
 641              	.LVL53:
 642              	.L88:
 643              	.LBE98:
 644              		.loc 1 598 0
 645 0040 0020     		movs	r0, #0
 646              	.LBB101:
 647              		.loc 1 596 0
 648 0042 E585     		strh	r5, [r4, #46]	@ movhi
 649              	.LBE101:
 650              		.loc 1 600 0
 651 0044 02B0     		add	sp, sp, #8
 652              		.cfi_remember_state
 653              		.cfi_def_cfa_offset 16
 654              		@ sp needed
 655 0046 70BD     		pop	{r4, r5, r6, pc}
 656              	.LVL54:
 657              	.L91:
 658              		.cfi_restore_state
 659              	.LBB102:
 660              		.loc 1 595 0 discriminator 1
 661 0048 064B     		ldr	r3, .L92
 662              	.LVL55:
 663 004a 0093     		str	r3, [sp]
 664              	.LVL56:
 665 004c 0649     		ldr	r1, .L92+4
 666 004e 074A     		ldr	r2, .L92+8
 667 0050 0748     		ldr	r0, .L92+12
 668 0052 40F25323 		movw	r3, #595
 669 0056 FFF7FEFF 		bl	chprintf.constprop.4
 670              	.LVL57:
 671              	.LBB99:
 672              	.LBB100:
 673              		.loc 3 416 0 discriminator 1
 674 005a 0448     		ldr	r0, .L92+8
ARM GAS  C:\Users\jo\AppData\Local\Temp\ccQTqoh0.s 			page 13


 675 005c FFF7FEFF 		bl	chSysHalt
 676              	.LVL58:
 677 0060 EEE7     		b	.L88
 678              	.L93:
 679 0062 00BF     		.align	2
 680              	.L92:
 681 0064 50000000 		.word	.LC2
 682 0068 00000000 		.word	.LC0
 683 006c 98000000 		.word	.LC4
 684 0070 00000000 		.word	itm_port
 685              	.LBE100:
 686              	.LBE99:
 687              	.LBE102:
 688              		.cfi_endproc
 689              	.LFE270:
 690              		.size	tcp_update_rcv_ann_wnd, .-tcp_update_rcv_ann_wnd
 691 0074 AFF30080 		.section	.text.tcp_recved,"ax",%progbits
 691      AFF30080 
 691      AFF30080 
 692              		.align	2
 693              		.p2align 4,,15
 694              		.global	tcp_recved
 695              		.thumb
 696              		.thumb_func
 697              		.type	tcp_recved, %function
 698              	tcp_recved:
 699              	.LFB271:
 700              		.loc 1 612 0
 701              		.cfi_startproc
 702              		@ args = 0, pretend = 0, frame = 0
 703              		@ frame_needed = 0, uses_anonymous_args = 0
 704              	.LVL59:
 705 0000 30B5     		push	{r4, r5, lr}
 706              		.cfi_def_cfa_offset 12
 707              		.cfi_offset 4, -12
 708              		.cfi_offset 5, -8
 709              		.cfi_offset 14, -4
 710              		.loc 1 616 0
 711 0002 037E     		ldrb	r3, [r0, #24]	@ zero_extendqisi2
 712 0004 012B     		cmp	r3, #1
 713              		.loc 1 612 0
 714 0006 83B0     		sub	sp, sp, #12
 715              		.cfi_def_cfa_offset 24
 716              		.loc 1 612 0
 717 0008 0546     		mov	r5, r0
 718 000a 0C46     		mov	r4, r1
 719              		.loc 1 616 0
 720 000c 2ED0     		beq	.L101
 721              	.LVL60:
 722              	.L95:
 723              		.loc 1 618 0
 724 000e AA8D     		ldrh	r2, [r5, #44]
 725 0010 C2F57F43 		rsb	r3, r2, #65280
 726 0014 FF33     		adds	r3, r3, #255
 727 0016 9C42     		cmp	r4, r3
 728 0018 1ADC     		bgt	.L102
 729              	.L96:
ARM GAS  C:\Users\jo\AppData\Local\Temp\ccQTqoh0.s 			page 14


 730              		.loc 1 621 0
 731 001a 1444     		add	r4, r4, r2
 732              		.loc 1 622 0
 733 001c 41F2D063 		movw	r3, #5840
 734              		.loc 1 621 0
 735 0020 A4B2     		uxth	r4, r4
 736              		.loc 1 622 0
 737 0022 9C42     		cmp	r4, r3
 738              		.loc 1 623 0
 739 0024 8CBF     		ite	hi
 740 0026 AB85     		strhhi	r3, [r5, #44]	@ movhi
 741              		.loc 1 621 0
 742 0028 AC85     		strhls	r4, [r5, #44]	@ movhi
 743              		.loc 1 626 0
 744 002a 2846     		mov	r0, r5
 745 002c FFF7FEFF 		bl	tcp_update_rcv_ann_wnd
 746              	.LVL61:
 747              		.loc 1 632 0
 748 0030 40F2B353 		movw	r3, #1459
 749 0034 9842     		cmp	r0, r3
 750 0036 01DC     		bgt	.L103
 751              		.loc 1 639 0
 752 0038 03B0     		add	sp, sp, #12
 753              		.cfi_remember_state
 754              		.cfi_def_cfa_offset 12
 755              		@ sp needed
 756 003a 30BD     		pop	{r4, r5, pc}
 757              	.LVL62:
 758              	.L103:
 759              		.cfi_restore_state
 760              	.LBB113:
 761              	.LBB114:
 762              		.loc 1 633 0
 763 003c AB7F     		ldrb	r3, [r5, #30]	@ zero_extendqisi2
 764              		.loc 1 634 0
 765 003e 2846     		mov	r0, r5
 766              	.LVL63:
 767              		.loc 1 633 0
 768 0040 43F00203 		orr	r3, r3, #2
 769 0044 AB77     		strb	r3, [r5, #30]
 770              	.LBE114:
 771              	.LBE113:
 772              		.loc 1 639 0
 773 0046 03B0     		add	sp, sp, #12
 774              		.cfi_remember_state
 775              		.cfi_def_cfa_offset 12
 776              		@ sp needed
 777 0048 BDE83040 		pop	{r4, r5, lr}
 778              		.cfi_restore 14
 779              		.cfi_restore 5
 780              		.cfi_restore 4
 781              		.cfi_def_cfa_offset 0
 782              	.LVL64:
 783              	.LBB116:
 784              	.LBB115:
 785              		.loc 1 634 0
 786 004c FFF7FEBF 		b	tcp_output
ARM GAS  C:\Users\jo\AppData\Local\Temp\ccQTqoh0.s 			page 15


 787              	.LVL65:
 788              	.L102:
 789              		.cfi_restore_state
 790              	.LBE115:
 791              	.LBE116:
 792              		.loc 1 618 0 discriminator 1
 793 0050 0D4B     		ldr	r3, .L104
 794 0052 0E4A     		ldr	r2, .L104+4
 795 0054 0093     		str	r3, [sp]
 796 0056 0E49     		ldr	r1, .L104+8
 797 0058 0E48     		ldr	r0, .L104+12
 798 005a 40F26B23 		movw	r3, #619
 799 005e FFF7FEFF 		bl	chprintf.constprop.4
 800              	.LVL66:
 801              	.LBB117:
 802              	.LBB118:
 803              		.loc 3 416 0 discriminator 1
 804 0062 0A48     		ldr	r0, .L104+4
 805 0064 FFF7FEFF 		bl	chSysHalt
 806              	.LVL67:
 807 0068 AA8D     		ldrh	r2, [r5, #44]
 808 006a D6E7     		b	.L96
 809              	.LVL68:
 810              	.L101:
 811              	.LBE118:
 812              	.LBE117:
 813              		.loc 1 616 0 discriminator 1
 814 006c 064B     		ldr	r3, .L104
 815 006e 0093     		str	r3, [sp]
 816 0070 0749     		ldr	r1, .L104+8
 817              	.LVL69:
 818 0072 094A     		ldr	r2, .L104+16
 819 0074 0748     		ldr	r0, .L104+12
 820              	.LVL70:
 821 0076 40F26923 		movw	r3, #617
 822 007a FFF7FEFF 		bl	chprintf.constprop.4
 823              	.LVL71:
 824              	.LBB119:
 825              	.LBB120:
 826              		.loc 3 416 0 discriminator 1
 827 007e 0648     		ldr	r0, .L104+16
 828 0080 FFF7FEFF 		bl	chSysHalt
 829              	.LVL72:
 830 0084 C3E7     		b	.L95
 831              	.L105:
 832 0086 00BF     		.align	2
 833              	.L104:
 834 0088 50000000 		.word	.LC2
 835 008c DC000000 		.word	.LC6
 836 0090 00000000 		.word	.LC0
 837 0094 00000000 		.word	itm_port
 838 0098 B4000000 		.word	.LC5
 839              	.LBE120:
 840              	.LBE119:
 841              		.cfi_endproc
 842              	.LFE271:
 843              		.size	tcp_recved, .-tcp_recved
ARM GAS  C:\Users\jo\AppData\Local\Temp\ccQTqoh0.s 			page 16


 844 009c AFF30080 		.section	.text.tcp_seg_free,"ax",%progbits
 845              		.align	2
 846              		.p2align 4,,15
 847              		.global	tcp_seg_free
 848              		.thumb
 849              		.thumb_func
 850              		.type	tcp_seg_free, %function
 851              	tcp_seg_free:
 852              	.LFB278:
 853              		.loc 1 1144 0
 854              		.cfi_startproc
 855              		@ args = 0, pretend = 0, frame = 0
 856              		@ frame_needed = 0, uses_anonymous_args = 0
 857              	.LVL73:
 858              		.loc 1 1145 0
 859 0000 50B1     		cbz	r0, .L113
 860              		.loc 1 1144 0
 861 0002 10B5     		push	{r4, lr}
 862              		.cfi_def_cfa_offset 8
 863              		.cfi_offset 4, -8
 864              		.cfi_offset 14, -4
 865 0004 0446     		mov	r4, r0
 866              		.loc 1 1146 0
 867 0006 4068     		ldr	r0, [r0, #4]
 868              	.LVL74:
 869 0008 08B1     		cbz	r0, .L108
 870              		.loc 1 1147 0
 871 000a FFF7FEFF 		bl	pbuf_free
 872              	.LVL75:
 873              	.L108:
 874              		.loc 1 1152 0
 875 000e 2046     		mov	r0, r4
 876              		.loc 1 1154 0
 877 0010 BDE81040 		pop	{r4, lr}
 878              		.cfi_restore 14
 879              		.cfi_restore 4
 880              		.cfi_def_cfa_offset 0
 881              	.LVL76:
 882              		.loc 1 1152 0
 883 0014 FFF7FEBF 		b	free
 884              	.LVL77:
 885              	.L113:
 886 0018 7047     		bx	lr
 887              		.cfi_endproc
 888              	.LFE278:
 889              		.size	tcp_seg_free, .-tcp_seg_free
 890 001a 00BFAFF3 		.section	.text.tcp_segs_free,"ax",%progbits
 890      0080
 891              		.align	2
 892              		.p2align 4,,15
 893              		.global	tcp_segs_free
 894              		.thumb
 895              		.thumb_func
 896              		.type	tcp_segs_free, %function
 897              	tcp_segs_free:
 898              	.LFB277:
 899              		.loc 1 1129 0
ARM GAS  C:\Users\jo\AppData\Local\Temp\ccQTqoh0.s 			page 17


 900              		.cfi_startproc
 901              		@ args = 0, pretend = 0, frame = 0
 902              		@ frame_needed = 0, uses_anonymous_args = 0
 903              	.LVL78:
 904              		.loc 1 1130 0
 905 0000 38B1     		cbz	r0, .L120
 906              		.loc 1 1129 0
 907 0002 10B5     		push	{r4, lr}
 908              		.cfi_def_cfa_offset 8
 909              		.cfi_offset 4, -8
 910              		.cfi_offset 14, -4
 911              	.L116:
 912              	.LBB121:
 913              		.loc 1 1131 0
 914 0004 0468     		ldr	r4, [r0]
 915              	.LVL79:
 916              		.loc 1 1132 0
 917 0006 FFF7FEFF 		bl	tcp_seg_free
 918              	.LVL80:
 919              	.LBE121:
 920              		.loc 1 1130 0
 921 000a 2046     		mov	r0, r4
 922 000c 002C     		cmp	r4, #0
 923 000e F9D1     		bne	.L116
 924 0010 10BD     		pop	{r4, pc}
 925              	.LVL81:
 926              	.L120:
 927              		.cfi_def_cfa_offset 0
 928              		.cfi_restore 4
 929              		.cfi_restore 14
 930 0012 7047     		bx	lr
 931              		.cfi_endproc
 932              	.LFE277:
 933              		.size	tcp_segs_free, .-tcp_segs_free
 934 0014 AFF30080 		.section	.text.tcp_setprio,"ax",%progbits
 934      AFF30080 
 934      AFF30080 
 935              		.align	2
 936              		.p2align 4,,15
 937              		.global	tcp_setprio
 938              		.thumb
 939              		.thumb_func
 940              		.type	tcp_setprio, %function
 941              	tcp_setprio:
 942              	.LFB279:
 943              		.loc 1 1164 0
 944              		.cfi_startproc
 945              		@ args = 0, pretend = 0, frame = 0
 946              		@ frame_needed = 0, uses_anonymous_args = 0
 947              		@ link register save eliminated.
 948              	.LVL82:
 949              		.loc 1 1165 0
 950 0000 4176     		strb	r1, [r0, #25]
 951 0002 7047     		bx	lr
 952              		.cfi_endproc
 953              	.LFE279:
 954              		.size	tcp_setprio, .-tcp_setprio
ARM GAS  C:\Users\jo\AppData\Local\Temp\ccQTqoh0.s 			page 18


 955 0004 AFF30080 		.section	.text.tcp_seg_copy,"ax",%progbits
 955      AFF30080 
 955      AFF30080 
 956              		.align	2
 957              		.p2align 4,,15
 958              		.global	tcp_seg_copy
 959              		.thumb
 960              		.thumb_func
 961              		.type	tcp_seg_copy, %function
 962              	tcp_seg_copy:
 963              	.LFB280:
 964              		.loc 1 1178 0
 965              		.cfi_startproc
 966              		@ args = 0, pretend = 0, frame = 0
 967              		@ frame_needed = 0, uses_anonymous_args = 0
 968              	.LVL83:
 969              		.loc 1 1181 0
 970 0000 0A4B     		ldr	r3, .L128
 971              		.loc 1 1178 0
 972 0002 70B5     		push	{r4, r5, r6, lr}
 973              		.cfi_def_cfa_offset 16
 974              		.cfi_offset 4, -16
 975              		.cfi_offset 5, -12
 976              		.cfi_offset 6, -8
 977              		.cfi_offset 14, -4
 978              		.loc 1 1178 0
 979 0004 0546     		mov	r5, r0
 980              		.loc 1 1181 0
 981 0006 D888     		ldrh	r0, [r3, #6]
 982              	.LVL84:
 983 0008 FFF7FEFF 		bl	malloc
 984              	.LVL85:
 985              		.loc 1 1182 0
 986 000c 0646     		mov	r6, r0
 987 000e 50B1     		cbz	r0, .L123
 988              		.loc 1 1185 0
 989 0010 2868     		ldr	r0, [r5]	@ unaligned
 990              	.LVL86:
 991 0012 6968     		ldr	r1, [r5, #4]	@ unaligned
 992 0014 AA68     		ldr	r2, [r5, #8]	@ unaligned
 993 0016 EB68     		ldr	r3, [r5, #12]	@ unaligned
 994 0018 3446     		mov	r4, r6
 995 001a 0FC4     		stmia	r4!, {r0, r1, r2, r3}
 996 001c 2869     		ldr	r0, [r5, #16]	@ unaligned
 997 001e 2060     		str	r0, [r4]	@ unaligned
 998              		.loc 1 1186 0
 999 0020 7068     		ldr	r0, [r6, #4]
 1000 0022 FFF7FEFF 		bl	pbuf_ref
 1001              	.LVL87:
 1002              	.L123:
 1003              		.loc 1 1188 0
 1004 0026 3046     		mov	r0, r6
 1005 0028 70BD     		pop	{r4, r5, r6, pc}
 1006              	.LVL88:
 1007              	.L129:
 1008 002a 00BF     		.align	2
 1009              	.L128:
ARM GAS  C:\Users\jo\AppData\Local\Temp\ccQTqoh0.s 			page 19


 1010 002c 00000000 		.word	memp_sizes
 1011              		.cfi_endproc
 1012              	.LFE280:
 1013              		.size	tcp_seg_copy, .-tcp_seg_copy
 1014              		.section	.text.tcp_arg,"ax",%progbits
 1015              		.align	2
 1016              		.p2align 4,,15
 1017              		.global	tcp_arg
 1018              		.thumb
 1019              		.thumb_func
 1020              		.type	tcp_arg, %function
 1021              	tcp_arg:
 1022              	.LFB286:
 1023              		.loc 1 1377 0
 1024              		.cfi_startproc
 1025              		@ args = 0, pretend = 0, frame = 0
 1026              		@ frame_needed = 0, uses_anonymous_args = 0
 1027              		@ link register save eliminated.
 1028              	.LVL89:
 1029              		.loc 1 1380 0
 1030 0000 0161     		str	r1, [r0, #16]
 1031 0002 7047     		bx	lr
 1032              		.cfi_endproc
 1033              	.LFE286:
 1034              		.size	tcp_arg, .-tcp_arg
 1035 0004 AFF30080 		.section	.text.tcp_recv,"ax",%progbits
 1035      AFF30080 
 1035      AFF30080 
 1036              		.align	2
 1037              		.p2align 4,,15
 1038              		.global	tcp_recv
 1039              		.thumb
 1040              		.thumb_func
 1041              		.type	tcp_recv, %function
 1042              	tcp_recv:
 1043              	.LFB287:
 1044              		.loc 1 1393 0
 1045              		.cfi_startproc
 1046              		@ args = 0, pretend = 0, frame = 0
 1047              		@ frame_needed = 0, uses_anonymous_args = 0
 1048              	.LVL90:
 1049 0000 30B5     		push	{r4, r5, lr}
 1050              		.cfi_def_cfa_offset 12
 1051              		.cfi_offset 4, -12
 1052              		.cfi_offset 5, -8
 1053              		.cfi_offset 14, -4
 1054              		.loc 1 1394 0
 1055 0002 037E     		ldrb	r3, [r0, #24]	@ zero_extendqisi2
 1056 0004 012B     		cmp	r3, #1
 1057              		.loc 1 1393 0
 1058 0006 83B0     		sub	sp, sp, #12
 1059              		.cfi_def_cfa_offset 24
 1060              		.loc 1 1393 0
 1061 0008 0446     		mov	r4, r0
 1062 000a 0D46     		mov	r5, r1
 1063              		.loc 1 1394 0
 1064 000c 03D0     		beq	.L134
ARM GAS  C:\Users\jo\AppData\Local\Temp\ccQTqoh0.s 			page 20


 1065              		.loc 1 1395 0
 1066 000e C4F88050 		str	r5, [r4, #128]
 1067              		.loc 1 1396 0
 1068 0012 03B0     		add	sp, sp, #12
 1069              		.cfi_remember_state
 1070              		.cfi_def_cfa_offset 12
 1071              		@ sp needed
 1072 0014 30BD     		pop	{r4, r5, pc}
 1073              	.L134:
 1074              		.cfi_restore_state
 1075              		.loc 1 1394 0 discriminator 1
 1076 0016 084B     		ldr	r3, .L135
 1077 0018 0093     		str	r3, [sp]
 1078 001a 0849     		ldr	r1, .L135+4
 1079              	.LVL91:
 1080 001c 084A     		ldr	r2, .L135+8
 1081 001e 0948     		ldr	r0, .L135+12
 1082              	.LVL92:
 1083 0020 40F27253 		movw	r3, #1394
 1084 0024 FFF7FEFF 		bl	chprintf.constprop.4
 1085              	.LVL93:
 1086              	.LBB122:
 1087              	.LBB123:
 1088              		.loc 3 416 0 discriminator 1
 1089 0028 0548     		ldr	r0, .L135+8
 1090 002a FFF7FEFF 		bl	chSysHalt
 1091              	.LVL94:
 1092              	.LBE123:
 1093              	.LBE122:
 1094              		.loc 1 1395 0 discriminator 1
 1095 002e C4F88050 		str	r5, [r4, #128]
 1096              		.loc 1 1396 0 discriminator 1
 1097 0032 03B0     		add	sp, sp, #12
 1098              		.cfi_def_cfa_offset 12
 1099              		@ sp needed
 1100 0034 30BD     		pop	{r4, r5, pc}
 1101              	.LVL95:
 1102              	.L136:
 1103 0036 00BF     		.align	2
 1104              	.L135:
 1105 0038 50000000 		.word	.LC2
 1106 003c 00000000 		.word	.LC0
 1107 0040 00010000 		.word	.LC7
 1108 0044 00000000 		.word	itm_port
 1109              		.cfi_endproc
 1110              	.LFE287:
 1111              		.size	tcp_recv, .-tcp_recv
 1112 0048 AFF30080 		.section	.text.tcp_sent,"ax",%progbits
 1112      AFF30080 
 1113              		.align	2
 1114              		.p2align 4,,15
 1115              		.global	tcp_sent
 1116              		.thumb
 1117              		.thumb_func
 1118              		.type	tcp_sent, %function
 1119              	tcp_sent:
 1120              	.LFB288:
ARM GAS  C:\Users\jo\AppData\Local\Temp\ccQTqoh0.s 			page 21


 1121              		.loc 1 1407 0
 1122              		.cfi_startproc
 1123              		@ args = 0, pretend = 0, frame = 0
 1124              		@ frame_needed = 0, uses_anonymous_args = 0
 1125              	.LVL96:
 1126 0000 30B5     		push	{r4, r5, lr}
 1127              		.cfi_def_cfa_offset 12
 1128              		.cfi_offset 4, -12
 1129              		.cfi_offset 5, -8
 1130              		.cfi_offset 14, -4
 1131              		.loc 1 1408 0
 1132 0002 037E     		ldrb	r3, [r0, #24]	@ zero_extendqisi2
 1133 0004 012B     		cmp	r3, #1
 1134              		.loc 1 1407 0
 1135 0006 83B0     		sub	sp, sp, #12
 1136              		.cfi_def_cfa_offset 24
 1137              		.loc 1 1407 0
 1138 0008 0446     		mov	r4, r0
 1139 000a 0D46     		mov	r5, r1
 1140              		.loc 1 1408 0
 1141 000c 02D0     		beq	.L140
 1142              		.loc 1 1409 0
 1143 000e E567     		str	r5, [r4, #124]
 1144              		.loc 1 1410 0
 1145 0010 03B0     		add	sp, sp, #12
 1146              		.cfi_remember_state
 1147              		.cfi_def_cfa_offset 12
 1148              		@ sp needed
 1149 0012 30BD     		pop	{r4, r5, pc}
 1150              	.L140:
 1151              		.cfi_restore_state
 1152              		.loc 1 1408 0 discriminator 1
 1153 0014 074B     		ldr	r3, .L141
 1154 0016 0093     		str	r3, [sp]
 1155 0018 0749     		ldr	r1, .L141+4
 1156              	.LVL97:
 1157 001a 084A     		ldr	r2, .L141+8
 1158 001c 0848     		ldr	r0, .L141+12
 1159              	.LVL98:
 1160 001e 4FF4B063 		mov	r3, #1408
 1161 0022 FFF7FEFF 		bl	chprintf.constprop.4
 1162              	.LVL99:
 1163              	.LBB124:
 1164              	.LBB125:
 1165              		.loc 3 416 0 discriminator 1
 1166 0026 0548     		ldr	r0, .L141+8
 1167 0028 FFF7FEFF 		bl	chSysHalt
 1168              	.LVL100:
 1169              	.LBE125:
 1170              	.LBE124:
 1171              		.loc 1 1409 0 discriminator 1
 1172 002c E567     		str	r5, [r4, #124]
 1173              		.loc 1 1410 0 discriminator 1
 1174 002e 03B0     		add	sp, sp, #12
 1175              		.cfi_def_cfa_offset 12
 1176              		@ sp needed
 1177 0030 30BD     		pop	{r4, r5, pc}
ARM GAS  C:\Users\jo\AppData\Local\Temp\ccQTqoh0.s 			page 22


 1178              	.LVL101:
 1179              	.L142:
 1180 0032 00BF     		.align	2
 1181              	.L141:
 1182 0034 50000000 		.word	.LC2
 1183 0038 00000000 		.word	.LC0
 1184 003c 28010000 		.word	.LC8
 1185 0040 00000000 		.word	itm_port
 1186              		.cfi_endproc
 1187              	.LFE288:
 1188              		.size	tcp_sent, .-tcp_sent
 1189 0044 AFF30080 		.section	.text.tcp_err,"ax",%progbits
 1189      AFF30080 
 1189      AFF30080 
 1190              		.align	2
 1191              		.p2align 4,,15
 1192              		.global	tcp_err
 1193              		.thumb
 1194              		.thumb_func
 1195              		.type	tcp_err, %function
 1196              	tcp_err:
 1197              	.LFB289:
 1198              		.loc 1 1422 0
 1199              		.cfi_startproc
 1200              		@ args = 0, pretend = 0, frame = 0
 1201              		@ frame_needed = 0, uses_anonymous_args = 0
 1202              	.LVL102:
 1203 0000 30B5     		push	{r4, r5, lr}
 1204              		.cfi_def_cfa_offset 12
 1205              		.cfi_offset 4, -12
 1206              		.cfi_offset 5, -8
 1207              		.cfi_offset 14, -4
 1208              		.loc 1 1423 0
 1209 0002 037E     		ldrb	r3, [r0, #24]	@ zero_extendqisi2
 1210 0004 012B     		cmp	r3, #1
 1211              		.loc 1 1422 0
 1212 0006 83B0     		sub	sp, sp, #12
 1213              		.cfi_def_cfa_offset 24
 1214              		.loc 1 1422 0
 1215 0008 0446     		mov	r4, r0
 1216 000a 0D46     		mov	r5, r1
 1217              		.loc 1 1423 0
 1218 000c 03D0     		beq	.L146
 1219              		.loc 1 1424 0
 1220 000e C4F88C50 		str	r5, [r4, #140]
 1221              		.loc 1 1425 0
 1222 0012 03B0     		add	sp, sp, #12
 1223              		.cfi_remember_state
 1224              		.cfi_def_cfa_offset 12
 1225              		@ sp needed
 1226 0014 30BD     		pop	{r4, r5, pc}
 1227              	.L146:
 1228              		.cfi_restore_state
 1229              		.loc 1 1423 0 discriminator 1
 1230 0016 084B     		ldr	r3, .L147
 1231 0018 0093     		str	r3, [sp]
 1232 001a 0849     		ldr	r1, .L147+4
ARM GAS  C:\Users\jo\AppData\Local\Temp\ccQTqoh0.s 			page 23


 1233              	.LVL103:
 1234 001c 084A     		ldr	r2, .L147+8
 1235 001e 0948     		ldr	r0, .L147+12
 1236              	.LVL104:
 1237 0020 40F28F53 		movw	r3, #1423
 1238 0024 FFF7FEFF 		bl	chprintf.constprop.4
 1239              	.LVL105:
 1240              	.LBB126:
 1241              	.LBB127:
 1242              		.loc 3 416 0 discriminator 1
 1243 0028 0548     		ldr	r0, .L147+8
 1244 002a FFF7FEFF 		bl	chSysHalt
 1245              	.LVL106:
 1246              	.LBE127:
 1247              	.LBE126:
 1248              		.loc 1 1424 0 discriminator 1
 1249 002e C4F88C50 		str	r5, [r4, #140]
 1250              		.loc 1 1425 0 discriminator 1
 1251 0032 03B0     		add	sp, sp, #12
 1252              		.cfi_def_cfa_offset 12
 1253              		@ sp needed
 1254 0034 30BD     		pop	{r4, r5, pc}
 1255              	.LVL107:
 1256              	.L148:
 1257 0036 00BF     		.align	2
 1258              	.L147:
 1259 0038 50000000 		.word	.LC2
 1260 003c 00000000 		.word	.LC0
 1261 0040 50010000 		.word	.LC9
 1262 0044 00000000 		.word	itm_port
 1263              		.cfi_endproc
 1264              	.LFE289:
 1265              		.size	tcp_err, .-tcp_err
 1266 0048 AFF30080 		.section	.text.tcp_accept,"ax",%progbits
 1266      AFF30080 
 1267              		.align	2
 1268              		.p2align 4,,15
 1269              		.global	tcp_accept
 1270              		.thumb
 1271              		.thumb_func
 1272              		.type	tcp_accept, %function
 1273              	tcp_accept:
 1274              	.LFB290:
 1275              		.loc 1 1437 0
 1276              		.cfi_startproc
 1277              		@ args = 0, pretend = 0, frame = 0
 1278              		@ frame_needed = 0, uses_anonymous_args = 0
 1279              		@ link register save eliminated.
 1280              	.LVL108:
 1281              		.loc 1 1440 0
 1282 0000 4161     		str	r1, [r0, #20]
 1283 0002 7047     		bx	lr
 1284              		.cfi_endproc
 1285              	.LFE290:
 1286              		.size	tcp_accept, .-tcp_accept
 1287 0004 AFF30080 		.section	.text.tcp_poll,"ax",%progbits
 1287      AFF30080 
ARM GAS  C:\Users\jo\AppData\Local\Temp\ccQTqoh0.s 			page 24


 1287      AFF30080 
 1288              		.align	2
 1289              		.p2align 4,,15
 1290              		.global	tcp_poll
 1291              		.thumb
 1292              		.thumb_func
 1293              		.type	tcp_poll, %function
 1294              	tcp_poll:
 1295              	.LFB291:
 1296              		.loc 1 1453 0
 1297              		.cfi_startproc
 1298              		@ args = 0, pretend = 0, frame = 0
 1299              		@ frame_needed = 0, uses_anonymous_args = 0
 1300              	.LVL109:
 1301 0000 70B5     		push	{r4, r5, r6, lr}
 1302              		.cfi_def_cfa_offset 16
 1303              		.cfi_offset 4, -16
 1304              		.cfi_offset 5, -12
 1305              		.cfi_offset 6, -8
 1306              		.cfi_offset 14, -4
 1307              		.loc 1 1454 0
 1308 0002 037E     		ldrb	r3, [r0, #24]	@ zero_extendqisi2
 1309 0004 012B     		cmp	r3, #1
 1310              		.loc 1 1453 0
 1311 0006 82B0     		sub	sp, sp, #8
 1312              		.cfi_def_cfa_offset 24
 1313              		.loc 1 1453 0
 1314 0008 0446     		mov	r4, r0
 1315 000a 0E46     		mov	r6, r1
 1316 000c 1546     		mov	r5, r2
 1317              		.loc 1 1454 0
 1318 000e 05D0     		beq	.L153
 1319              		.loc 1 1456 0
 1320 0010 C4F88860 		str	r6, [r4, #136]
 1321              		.loc 1 1460 0
 1322 0014 84F82050 		strb	r5, [r4, #32]
 1323              		.loc 1 1461 0
 1324 0018 02B0     		add	sp, sp, #8
 1325              		.cfi_remember_state
 1326              		.cfi_def_cfa_offset 16
 1327              		@ sp needed
 1328 001a 70BD     		pop	{r4, r5, r6, pc}
 1329              	.L153:
 1330              		.cfi_restore_state
 1331              		.loc 1 1454 0 discriminator 1
 1332 001c 084B     		ldr	r3, .L154
 1333 001e 0093     		str	r3, [sp]
 1334 0020 0849     		ldr	r1, .L154+4
 1335              	.LVL110:
 1336 0022 094A     		ldr	r2, .L154+8
 1337              	.LVL111:
 1338 0024 0948     		ldr	r0, .L154+12
 1339              	.LVL112:
 1340 0026 40F2AE53 		movw	r3, #1454
 1341 002a FFF7FEFF 		bl	chprintf.constprop.4
 1342              	.LVL113:
 1343              	.LBB128:
ARM GAS  C:\Users\jo\AppData\Local\Temp\ccQTqoh0.s 			page 25


 1344              	.LBB129:
 1345              		.loc 3 416 0 discriminator 1
 1346 002e 0648     		ldr	r0, .L154+8
 1347 0030 FFF7FEFF 		bl	chSysHalt
 1348              	.LVL114:
 1349              	.LBE129:
 1350              	.LBE128:
 1351              		.loc 1 1456 0 discriminator 1
 1352 0034 C4F88860 		str	r6, [r4, #136]
 1353              		.loc 1 1460 0 discriminator 1
 1354 0038 84F82050 		strb	r5, [r4, #32]
 1355              		.loc 1 1461 0 discriminator 1
 1356 003c 02B0     		add	sp, sp, #8
 1357              		.cfi_def_cfa_offset 16
 1358              		@ sp needed
 1359 003e 70BD     		pop	{r4, r5, r6, pc}
 1360              	.LVL115:
 1361              	.L155:
 1362              		.align	2
 1363              	.L154:
 1364 0040 50000000 		.word	.LC2
 1365 0044 00000000 		.word	.LC0
 1366 0048 78010000 		.word	.LC10
 1367 004c 00000000 		.word	itm_port
 1368              		.cfi_endproc
 1369              	.LFE291:
 1370              		.size	tcp_poll, .-tcp_poll
 1371              		.section	.text.tcp_pcb_purge,"ax",%progbits
 1372              		.align	2
 1373              		.p2align 4,,15
 1374              		.global	tcp_pcb_purge
 1375              		.thumb
 1376              		.thumb_func
 1377              		.type	tcp_pcb_purge, %function
 1378              	tcp_pcb_purge:
 1379              	.LFB292:
 1380              		.loc 1 1471 0
 1381              		.cfi_startproc
 1382              		@ args = 0, pretend = 0, frame = 0
 1383              		@ frame_needed = 0, uses_anonymous_args = 0
 1384              	.LVL116:
 1385 0000 38B5     		push	{r3, r4, r5, lr}
 1386              		.cfi_def_cfa_offset 16
 1387              		.cfi_offset 3, -16
 1388              		.cfi_offset 4, -12
 1389              		.cfi_offset 5, -8
 1390              		.cfi_offset 14, -4
 1391              		.loc 1 1472 0
 1392 0002 037E     		ldrb	r3, [r0, #24]	@ zero_extendqisi2
 1393 0004 012B     		cmp	r3, #1
 1394 0006 2BD9     		bls	.L156
 1395              		.loc 1 1472 0 is_stmt 0 discriminator 1
 1396 0008 0A2B     		cmp	r3, #10
 1397 000a 29D0     		beq	.L156
 1398              	.LVL117:
 1399 000c 0546     		mov	r5, r0
 1400              	.LBB141:
ARM GAS  C:\Users\jo\AppData\Local\Temp\ccQTqoh0.s 			page 26


 1401              	.LBB142:
 1402              		.loc 1 1499 0 is_stmt 1
 1403 000e 806F     		ldr	r0, [r0, #120]
 1404              	.LVL118:
 1405 0010 18B1     		cbz	r0, .L158
 1406              		.loc 1 1501 0
 1407 0012 FFF7FEFF 		bl	pbuf_free
 1408              	.LVL119:
 1409              		.loc 1 1502 0
 1410 0016 0023     		movs	r3, #0
 1411 0018 AB67     		str	r3, [r5, #120]
 1412              	.L158:
 1413              		.loc 1 1514 0
 1414 001a 686F     		ldr	r0, [r5, #116]
 1415              	.LVL120:
 1416              	.LBB143:
 1417              	.LBB144:
 1418              		.loc 1 1130 0
 1419 001c 28B1     		cbz	r0, .L163
 1420              	.L162:
 1421              	.LBB145:
 1422              		.loc 1 1131 0
 1423 001e 0468     		ldr	r4, [r0]
 1424              	.LVL121:
 1425              		.loc 1 1132 0
 1426 0020 FFF7FEFF 		bl	tcp_seg_free
 1427              	.LVL122:
 1428              	.LBE145:
 1429              		.loc 1 1130 0
 1430 0024 2046     		mov	r0, r4
 1431 0026 002C     		cmp	r4, #0
 1432 0028 F9D1     		bne	.L162
 1433              	.LVL123:
 1434              	.L163:
 1435              	.LBE144:
 1436              	.LBE143:
 1437              		.loc 1 1522 0
 1438 002a E86E     		ldr	r0, [r5, #108]
 1439              	.LVL124:
 1440              		.loc 1 1515 0
 1441 002c 0022     		movs	r2, #0
 1442              		.loc 1 1520 0
 1443 002e 4FF6FF73 		movw	r3, #65535
 1444              		.loc 1 1515 0
 1445 0032 6A67     		str	r2, [r5, #116]
 1446              		.loc 1 1520 0
 1447 0034 AB86     		strh	r3, [r5, #52]	@ movhi
 1448              	.LBB146:
 1449              	.LBB147:
 1450              		.loc 1 1130 0
 1451 0036 28B1     		cbz	r0, .L161
 1452              	.L166:
 1453              	.LBB148:
 1454              		.loc 1 1131 0
 1455 0038 0468     		ldr	r4, [r0]
 1456              	.LVL125:
 1457              		.loc 1 1132 0
ARM GAS  C:\Users\jo\AppData\Local\Temp\ccQTqoh0.s 			page 27


 1458 003a FFF7FEFF 		bl	tcp_seg_free
 1459              	.LVL126:
 1460              	.LBE148:
 1461              		.loc 1 1130 0
 1462 003e 2046     		mov	r0, r4
 1463 0040 002C     		cmp	r4, #0
 1464 0042 F9D1     		bne	.L166
 1465              	.LVL127:
 1466              	.L161:
 1467              	.LBE147:
 1468              	.LBE146:
 1469              		.loc 1 1523 0
 1470 0044 286F     		ldr	r0, [r5, #112]
 1471              	.LVL128:
 1472              	.LBB149:
 1473              	.LBB150:
 1474              		.loc 1 1130 0
 1475 0046 28B1     		cbz	r0, .L165
 1476              	.L167:
 1477              	.LBB151:
 1478              		.loc 1 1131 0
 1479 0048 0468     		ldr	r4, [r0]
 1480              	.LVL129:
 1481              		.loc 1 1132 0
 1482 004a FFF7FEFF 		bl	tcp_seg_free
 1483              	.LVL130:
 1484              	.LBE151:
 1485              		.loc 1 1130 0
 1486 004e 2046     		mov	r0, r4
 1487 0050 002C     		cmp	r4, #0
 1488 0052 F9D1     		bne	.L167
 1489              	.LVL131:
 1490              	.L165:
 1491              	.LBE150:
 1492              	.LBE149:
 1493              		.loc 1 1524 0
 1494 0054 0023     		movs	r3, #0
 1495 0056 EB66     		str	r3, [r5, #108]
 1496 0058 2B67     		str	r3, [r5, #112]
 1497              		.loc 1 1526 0
 1498 005a A5F86A30 		strh	r3, [r5, #106]	@ movhi
 1499 005e 38BD     		pop	{r3, r4, r5, pc}
 1500              	.LVL132:
 1501              	.L156:
 1502 0060 38BD     		pop	{r3, r4, r5, pc}
 1503              	.LBE142:
 1504              	.LBE141:
 1505              		.cfi_endproc
 1506              	.LFE292:
 1507              		.size	tcp_pcb_purge, .-tcp_pcb_purge
 1508 0062 00BFAFF3 		.section	.text.tcp_slowtmr,"ax",%progbits
 1508      0080AFF3 
 1508      0080AFF3 
 1508      0080
 1509              		.align	2
 1510              		.p2align 4,,15
 1511              		.global	tcp_slowtmr
ARM GAS  C:\Users\jo\AppData\Local\Temp\ccQTqoh0.s 			page 28


 1512              		.thumb
 1513              		.thumb_func
 1514              		.type	tcp_slowtmr, %function
 1515              	tcp_slowtmr:
 1516              	.LFB274:
 1517              		.loc 1 789 0
 1518              		.cfi_startproc
 1519              		@ args = 0, pretend = 0, frame = 8
 1520              		@ frame_needed = 0, uses_anonymous_args = 0
 1521              	.LVL133:
 1522 0000 2DE9F04F 		push	{r4, r5, r6, r7, r8, r9, r10, fp, lr}
 1523              		.cfi_def_cfa_offset 36
 1524              		.cfi_offset 4, -36
 1525              		.cfi_offset 5, -32
 1526              		.cfi_offset 6, -28
 1527              		.cfi_offset 7, -24
 1528              		.cfi_offset 8, -20
 1529              		.cfi_offset 9, -16
 1530              		.cfi_offset 10, -12
 1531              		.cfi_offset 11, -8
 1532              		.cfi_offset 14, -4
 1533              		.loc 1 798 0
 1534 0004 B14C     		ldr	r4, .L285
 1535              		.loc 1 799 0
 1536 0006 B24D     		ldr	r5, .L285+4
 1537              		.loc 1 798 0
 1538 0008 2268     		ldr	r2, [r4]
 1539              		.loc 1 799 0
 1540 000a 2B78     		ldrb	r3, [r5]	@ zero_extendqisi2
 1541 000c DFF8E8B2 		ldr	fp, .L285+44
 1542              		.loc 1 798 0
 1543 0010 0132     		adds	r2, r2, #1
 1544              		.loc 1 799 0
 1545 0012 0133     		adds	r3, r3, #1
 1546              		.loc 1 789 0
 1547 0014 85B0     		sub	sp, sp, #20
 1548              		.cfi_def_cfa_offset 56
 1549              		.loc 1 798 0
 1550 0016 2260     		str	r2, [r4]
 1551              		.loc 1 799 0
 1552 0018 2B70     		strb	r3, [r5]
 1553              	.LVL134:
 1554              	.L179:
 1555              		.loc 1 804 0
 1556 001a DBF80070 		ldr	r7, [fp]
 1557              	.LVL135:
 1558              		.loc 1 808 0
 1559 001e 002F     		cmp	r7, #0
 1560 0020 00F08580 		beq	.L217
 1561 0024 0026     		movs	r6, #0
 1562              	.LVL136:
 1563              	.L216:
 1564              		.loc 1 810 0
 1565 0026 3B7E     		ldrb	r3, [r7, #24]	@ zero_extendqisi2
 1566 0028 002B     		cmp	r3, #0
 1567 002a 00F00481 		beq	.L272
 1568              		.loc 1 811 0
ARM GAS  C:\Users\jo\AppData\Local\Temp\ccQTqoh0.s 			page 29


 1569 002e 012B     		cmp	r3, #1
 1570 0030 00F01181 		beq	.L273
 1571              	.L184:
 1572              		.loc 1 812 0
 1573 0034 0A2B     		cmp	r3, #10
 1574 0036 00F01E81 		beq	.L274
 1575              	.L185:
 1576              		.loc 1 813 0
 1577 003a 2B78     		ldrb	r3, [r5]	@ zero_extendqisi2
 1578 003c 97F82120 		ldrb	r2, [r7, #33]	@ zero_extendqisi2
 1579 0040 9A42     		cmp	r2, r3
 1580 0042 00F02A81 		beq	.L275
 1581              	.L186:
 1582              		.loc 1 823 0
 1583 0046 3A7E     		ldrb	r2, [r7, #24]	@ zero_extendqisi2
 1584              		.loc 1 818 0
 1585 0048 87F82130 		strb	r3, [r7, #33]
 1586              	.LVL137:
 1587              		.loc 1 823 0
 1588 004c 022A     		cmp	r2, #2
 1589 004e 97F84630 		ldrb	r3, [r7, #70]	@ zero_extendqisi2
 1590 0052 00F08B81 		beq	.L276
 1591              		.loc 1 827 0
 1592 0056 0C2B     		cmp	r3, #12
 1593 0058 00F09281 		beq	.L230
 1594              	.L228:
 1595              		.loc 1 831 0
 1596 005c 97F89510 		ldrb	r1, [r7, #149]	@ zero_extendqisi2
 1597 0060 0029     		cmp	r1, #0
 1598 0062 00F04D81 		beq	.L192
 1599              		.loc 1 835 0
 1600 0066 9B48     		ldr	r0, .L285+8
 1601              		.loc 1 834 0
 1602 0068 97F89430 		ldrb	r3, [r7, #148]	@ zero_extendqisi2
 1603              		.loc 1 835 0
 1604 006c 0844     		add	r0, r0, r1
 1605              		.loc 1 834 0
 1606 006e 0133     		adds	r3, r3, #1
 1607              		.loc 1 835 0
 1608 0070 10F8010C 		ldrb	r0, [r0, #-1]	@ zero_extendqisi2
 1609              		.loc 1 834 0
 1610 0074 DBB2     		uxtb	r3, r3
 1611              		.loc 1 835 0
 1612 0076 9842     		cmp	r0, r3
 1613              		.loc 1 834 0
 1614 0078 87F89430 		strb	r3, [r7, #148]
 1615              		.loc 1 835 0
 1616 007c 00F21281 		bhi	.L233
 1617              		.loc 1 837 0
 1618 0080 0629     		cmp	r1, #6
 1619              		.loc 1 836 0
 1620 0082 4FF00003 		mov	r3, #0
 1621              		.loc 1 838 0
 1622 0086 98BF     		it	ls
 1623 0088 0131     		addls	r1, r1, #1
 1624              		.loc 1 836 0
 1625 008a 87F89430 		strb	r3, [r7, #148]
ARM GAS  C:\Users\jo\AppData\Local\Temp\ccQTqoh0.s 			page 30


 1626              		.loc 1 838 0
 1627 008e 98BF     		it	ls
 1628 0090 87F89510 		strbls	r1, [r7, #149]
 1629              		.loc 1 840 0
 1630 0094 3846     		mov	r0, r7
 1631 0096 FFF7FEFF 		bl	tcp_zero_window_probe
 1632              	.LVL138:
 1633 009a 3A7E     		ldrb	r2, [r7, #24]	@ zero_extendqisi2
 1634              		.loc 1 820 0
 1635 009c 4FF00008 		mov	r8, #0
 1636              	.L191:
 1637              	.LVL139:
 1638              		.loc 1 881 0
 1639 00a0 062A     		cmp	r2, #6
 1640 00a2 00F00481 		beq	.L277
 1641              	.L197:
 1642              		.loc 1 895 0
 1643 00a6 3B7A     		ldrb	r3, [r7, #8]	@ zero_extendqisi2
 1644 00a8 03F00803 		and	r3, r3, #8
 1645 00ac 03F0FF09 		and	r9, r3, #255
 1646 00b0 3BB1     		cbz	r3, .L189
 1647              		.loc 1 895 0 is_stmt 0 discriminator 1
 1648 00b2 042A     		cmp	r2, #4
 1649 00b4 00F06781 		beq	.L199
 1650              		.loc 1 896 0 is_stmt 1
 1651 00b8 072A     		cmp	r2, #7
 1652 00ba 00F06481 		beq	.L199
 1653              	.L198:
 1654              		.loc 1 821 0
 1655 00be 4FF00009 		mov	r9, #0
 1656              	.LVL140:
 1657              	.L189:
 1658              		.loc 1 921 0
 1659 00c2 786F     		ldr	r0, [r7, #116]
 1660 00c4 48B1     		cbz	r0, .L201
 1661              		.loc 1 922 0 discriminator 1
 1662 00c6 2268     		ldr	r2, [r4]
 1663 00c8 796A     		ldr	r1, [r7, #36]
 1664 00ca B7F94430 		ldrsh	r3, [r7, #68]
 1665 00ce 521A     		subs	r2, r2, r1
 1666 00d0 03EB4303 		add	r3, r3, r3, lsl #1
 1667              		.loc 1 921 0 discriminator 1
 1668 00d4 B2EB430F 		cmp	r2, r3, lsl #1
 1669 00d8 5CD2     		bcs	.L202
 1670              	.L201:
 1671              		.loc 1 930 0
 1672 00da 3B7E     		ldrb	r3, [r7, #24]	@ zero_extendqisi2
 1673 00dc 032B     		cmp	r3, #3
 1674 00de 65D0     		beq	.L278
 1675              	.L203:
 1676              		.loc 1 939 0
 1677 00e0 092B     		cmp	r3, #9
 1678 00e2 6DD0     		beq	.L279
 1679              	.L205:
 1680              		.loc 1 947 0
 1681 00e4 B8F1000F 		cmp	r8, #0
 1682 00e8 6FD1     		bne	.L206
ARM GAS  C:\Users\jo\AppData\Local\Temp\ccQTqoh0.s 			page 31


 1683              	.LVL141:
 1684              		.loc 1 984 0
 1685 00ea FB7F     		ldrb	r3, [r7, #31]	@ zero_extendqisi2
 1686              		.loc 1 985 0
 1687 00ec 97F82020 		ldrb	r2, [r7, #32]	@ zero_extendqisi2
 1688              		.loc 1 981 0
 1689 00f0 D7F80C90 		ldr	r9, [r7, #12]
 1690              	.LVL142:
 1691              		.loc 1 984 0
 1692 00f4 0133     		adds	r3, r3, #1
 1693 00f6 DBB2     		uxtb	r3, r3
 1694              		.loc 1 985 0
 1695 00f8 9A42     		cmp	r2, r3
 1696              		.loc 1 984 0
 1697 00fa FB77     		strb	r3, [r7, #31]
 1698              		.loc 1 985 0
 1699 00fc 12D8     		bhi	.L238
 1700              		.loc 1 988 0
 1701 00fe 764E     		ldr	r6, .L285+12
 1702              		.loc 1 989 0
 1703 0100 D7F88830 		ldr	r3, [r7, #136]
 1704              		.loc 1 986 0
 1705 0104 87F81F80 		strb	r8, [r7, #31]
 1706              		.loc 1 988 0
 1707 0108 86F80080 		strb	r8, [r6]
 1708              		.loc 1 989 0
 1709 010c 002B     		cmp	r3, #0
 1710 010e 00F08980 		beq	.L215
 1711              		.loc 1 989 0 is_stmt 0 discriminator 1
 1712 0112 3869     		ldr	r0, [r7, #16]
 1713 0114 3946     		mov	r1, r7
 1714 0116 9847     		blx	r3
 1715              	.LVL143:
 1716              		.loc 1 990 0 is_stmt 1 discriminator 1
 1717 0118 3378     		ldrb	r3, [r6]	@ zero_extendqisi2
 1718 011a 002B     		cmp	r3, #0
 1719 011c 7FF47DAF 		bne	.L179
 1720              		.loc 1 994 0
 1721 0120 0028     		cmp	r0, #0
 1722 0122 7FD0     		beq	.L215
 1723              	.LVL144:
 1724              	.L238:
 1725 0124 3E46     		mov	r6, r7
 1726              	.LVL145:
 1727              	.L268:
 1728              		.loc 1 981 0
 1729 0126 4F46     		mov	r7, r9
 1730              	.LVL146:
 1731              	.L187:
 1732              		.loc 1 808 0
 1733 0128 002F     		cmp	r7, #0
 1734 012a 7FF47CAF 		bne	.L216
 1735              	.LVL147:
 1736              	.L217:
 1737              		.loc 1 1004 0
 1738 012e DFF8CC81 		ldr	r8, .L285+48
 1739 0132 D8F80050 		ldr	r5, [r8]
ARM GAS  C:\Users\jo\AppData\Local\Temp\ccQTqoh0.s 			page 32


 1740              	.LVL148:
 1741              		.loc 1 1005 0
 1742 0136 55B3     		cbz	r5, .L178
 1743              		.loc 1 1006 0
 1744 0138 684F     		ldr	r7, .L285+16
 1745              		.loc 1 1005 0
 1746 013a 0026     		movs	r6, #0
 1747              	.LVL149:
 1748              	.L224:
 1749              		.loc 1 1006 0
 1750 013c 2B7E     		ldrb	r3, [r5, #24]	@ zero_extendqisi2
 1751 013e 0A2B     		cmp	r3, #10
 1752 0140 0AD0     		beq	.L218
 1753              		.loc 1 1006 0 is_stmt 0 discriminator 1
 1754 0142 0097     		str	r7, [sp]
 1755 0144 6648     		ldr	r0, .L285+20
 1756 0146 6749     		ldr	r1, .L285+24
 1757 0148 674A     		ldr	r2, .L285+28
 1758 014a 40F2EE33 		movw	r3, #1006
 1759 014e FFF7FEFF 		bl	chprintf.constprop.4
 1760              	.LVL150:
 1761              	.LBB152:
 1762              	.LBB153:
 1763              		.loc 3 416 0 is_stmt 1 discriminator 1
 1764 0152 6548     		ldr	r0, .L285+28
 1765 0154 FFF7FEFF 		bl	chSysHalt
 1766              	.LVL151:
 1767              	.L218:
 1768              	.LBE153:
 1769              	.LBE152:
 1770              		.loc 1 1010 0
 1771 0158 2368     		ldr	r3, [r4]
 1772 015a 6A6A     		ldr	r2, [r5, #36]
 1773 015c 9B1A     		subs	r3, r3, r2
 1774 015e F02B     		cmp	r3, #240
 1775 0160 40F22981 		bls	.L280
 1776              	.LVL152:
 1777              	.LBB154:
 1778              		.loc 1 1019 0
 1779 0164 2846     		mov	r0, r5
 1780 0166 FFF7FEFF 		bl	tcp_pcb_purge
 1781              	.LVL153:
 1782              		.loc 1 1021 0
 1783 016a 002E     		cmp	r6, #0
 1784 016c 00F05D81 		beq	.L281
 1785              		.loc 1 1022 0
 1786 0170 D8F80030 		ldr	r3, [r8]
 1787 0174 9D42     		cmp	r5, r3
 1788 0176 00F07981 		beq	.L282
 1789              	.L221:
 1790              		.loc 1 1023 0
 1791 017a EB68     		ldr	r3, [r5, #12]
 1792 017c F360     		str	r3, [r6, #12]
 1793 017e D5F80C90 		ldr	r9, [r5, #12]
 1794              	.L222:
 1795              	.LVL154:
 1796              		.loc 1 1031 0
ARM GAS  C:\Users\jo\AppData\Local\Temp\ccQTqoh0.s 			page 33


 1797 0182 2846     		mov	r0, r5
 1798              		.loc 1 1030 0
 1799 0184 4D46     		mov	r5, r9
 1800              	.LVL155:
 1801              		.loc 1 1031 0
 1802 0186 FFF7FEFF 		bl	free
 1803              	.LVL156:
 1804              	.LBE154:
 1805              		.loc 1 1005 0
 1806 018a 002D     		cmp	r5, #0
 1807 018c D6D1     		bne	.L224
 1808              	.LVL157:
 1809              	.L178:
 1810              		.loc 1 1037 0
 1811 018e 05B0     		add	sp, sp, #20
 1812              		.cfi_remember_state
 1813              		.cfi_def_cfa_offset 36
 1814              		@ sp needed
 1815 0190 BDE8F08F 		pop	{r4, r5, r6, r7, r8, r9, r10, fp, pc}
 1816              	.LVL158:
 1817              	.L202:
 1818              		.cfi_restore_state
 1819              	.LBB159:
 1820              	.LBB160:
 1821              	.LBB161:
 1822              		.loc 1 1131 0
 1823 0194 D0F800A0 		ldr	r10, [r0]
 1824              	.LVL159:
 1825              		.loc 1 1132 0
 1826 0198 FFF7FEFF 		bl	tcp_seg_free
 1827              	.LVL160:
 1828              	.LBE161:
 1829              		.loc 1 1130 0
 1830 019c 5046     		mov	r0, r10
 1831 019e 0028     		cmp	r0, #0
 1832 01a0 F8D1     		bne	.L202
 1833              	.LBE160:
 1834              	.LBE159:
 1835              		.loc 1 930 0
 1836 01a2 3B7E     		ldrb	r3, [r7, #24]	@ zero_extendqisi2
 1837              		.loc 1 924 0
 1838 01a4 C7F874A0 		str	r10, [r7, #116]
 1839              		.loc 1 930 0
 1840 01a8 032B     		cmp	r3, #3
 1841 01aa 99D1     		bne	.L203
 1842              	.LVL161:
 1843              	.L278:
 1844              		.loc 1 931 0
 1845 01ac 2368     		ldr	r3, [r4]
 1846 01ae 7A6A     		ldr	r2, [r7, #36]
 1847 01b0 9B1A     		subs	r3, r3, r2
 1848 01b2 282B     		cmp	r3, #40
 1849 01b4 96D9     		bls	.L205
 1850              		.loc 1 933 0
 1851 01b6 08F10108 		add	r8, r8, #1
 1852              	.LVL162:
 1853 01ba 5FFA88F8 		uxtb	r8, r8
ARM GAS  C:\Users\jo\AppData\Local\Temp\ccQTqoh0.s 			page 34


 1854              	.LVL163:
 1855 01be 91E7     		b	.L205
 1856              	.L279:
 1857              		.loc 1 940 0
 1858 01c0 2368     		ldr	r3, [r4]
 1859 01c2 7A6A     		ldr	r2, [r7, #36]
 1860 01c4 9B1A     		subs	r3, r3, r2
 1861 01c6 F02B     		cmp	r3, #240
 1862 01c8 8CD9     		bls	.L205
 1863              	.L206:
 1864              	.LVL164:
 1865              	.LBB162:
 1866              		.loc 1 951 0
 1867 01ca 3846     		mov	r0, r7
 1868 01cc FFF7FEFF 		bl	tcp_pcb_purge
 1869              	.LVL165:
 1870              		.loc 1 954 0
 1871 01d0 DBF80030 		ldr	r3, [fp]
 1872              		.loc 1 953 0
 1873 01d4 002E     		cmp	r6, #0
 1874 01d6 00F01681 		beq	.L208
 1875              		.loc 1 954 0
 1876 01da 9F42     		cmp	r7, r3
 1877 01dc 00F03981 		beq	.L283
 1878              	.L209:
 1879              		.loc 1 955 0
 1880 01e0 FB68     		ldr	r3, [r7, #12]
 1881 01e2 F360     		str	r3, [r6, #12]
 1882              	.L210:
 1883              		.loc 1 962 0
 1884 01e4 B9F1000F 		cmp	r9, #0
 1885 01e8 40F00281 		bne	.L284
 1886              	.L212:
 1887              		.loc 1 968 0
 1888 01ec 3B69     		ldr	r3, [r7, #16]
 1889              		.loc 1 967 0
 1890 01ee D7F88CA0 		ldr	r10, [r7, #140]
 1891              	.LVL166:
 1892              		.loc 1 973 0
 1893 01f2 DFF8E480 		ldr	r8, .L285+12
 1894              		.loc 1 968 0
 1895 01f6 0393     		str	r3, [sp, #12]
 1896              	.LVL167:
 1897              		.loc 1 971 0
 1898 01f8 3846     		mov	r0, r7
 1899              		.loc 1 970 0
 1900 01fa D7F80C90 		ldr	r9, [r7, #12]
 1901              	.LVL168:
 1902              		.loc 1 971 0
 1903 01fe FFF7FEFF 		bl	free
 1904              	.LVL169:
 1905              		.loc 1 973 0
 1906 0202 0022     		movs	r2, #0
 1907 0204 88F80020 		strb	r2, [r8]
 1908              		.loc 1 974 0
 1909 0208 BAF1000F 		cmp	r10, #0
 1910 020c 8BD0     		beq	.L268
ARM GAS  C:\Users\jo\AppData\Local\Temp\ccQTqoh0.s 			page 35


 1911              		.loc 1 974 0 is_stmt 0 discriminator 1
 1912 020e 0398     		ldr	r0, [sp, #12]
 1913 0210 6FF00901 		mvn	r1, #9
 1914 0214 D047     		blx	r10
 1915              	.LVL170:
 1916              		.loc 1 975 0 is_stmt 1 discriminator 1
 1917 0216 98F80030 		ldrb	r3, [r8]	@ zero_extendqisi2
 1918 021a 002B     		cmp	r3, #0
 1919 021c 7FF4FDAE 		bne	.L179
 1920              	.LBE162:
 1921              		.loc 1 981 0
 1922 0220 4F46     		mov	r7, r9
 1923              	.LVL171:
 1924 0222 81E7     		b	.L187
 1925              	.LVL172:
 1926              	.L215:
 1927              		.loc 1 995 0
 1928 0224 3846     		mov	r0, r7
 1929 0226 3E46     		mov	r6, r7
 1930              		.loc 1 981 0
 1931 0228 4F46     		mov	r7, r9
 1932              	.LVL173:
 1933              		.loc 1 995 0
 1934 022a FFF7FEFF 		bl	tcp_output
 1935              	.LVL174:
 1936              		.loc 1 808 0
 1937 022e 002F     		cmp	r7, #0
 1938 0230 7FF4F9AE 		bne	.L216
 1939 0234 7BE7     		b	.L217
 1940              	.LVL175:
 1941              	.L272:
 1942              		.loc 1 810 0 discriminator 1
 1943 0236 294B     		ldr	r3, .L285+16
 1944 0238 0093     		str	r3, [sp]
 1945 023a 2A49     		ldr	r1, .L285+24
 1946 023c 2B4A     		ldr	r2, .L285+32
 1947 023e 2848     		ldr	r0, .L285+20
 1948 0240 40F22A33 		movw	r3, #810
 1949 0244 FFF7FEFF 		bl	chprintf.constprop.4
 1950              	.LVL176:
 1951              	.LBB167:
 1952              	.LBB168:
 1953              		.loc 3 416 0 discriminator 1
 1954 0248 2848     		ldr	r0, .L285+32
 1955 024a FFF7FEFF 		bl	chSysHalt
 1956              	.LVL177:
 1957 024e 3B7E     		ldrb	r3, [r7, #24]	@ zero_extendqisi2
 1958              	.LBE168:
 1959              	.LBE167:
 1960              		.loc 1 811 0 discriminator 1
 1961 0250 012B     		cmp	r3, #1
 1962 0252 7FF4EFAE 		bne	.L184
 1963              	.LVL178:
 1964              	.L273:
 1965 0256 214B     		ldr	r3, .L285+16
 1966 0258 0093     		str	r3, [sp]
 1967 025a 2249     		ldr	r1, .L285+24
ARM GAS  C:\Users\jo\AppData\Local\Temp\ccQTqoh0.s 			page 36


 1968 025c 244A     		ldr	r2, .L285+36
 1969 025e 2048     		ldr	r0, .L285+20
 1970 0260 40F22B33 		movw	r3, #811
 1971 0264 FFF7FEFF 		bl	chprintf.constprop.4
 1972              	.LVL179:
 1973              	.LBB169:
 1974              	.LBB170:
 1975              		.loc 3 416 0 discriminator 1
 1976 0268 2148     		ldr	r0, .L285+36
 1977 026a FFF7FEFF 		bl	chSysHalt
 1978              	.LVL180:
 1979 026e 3B7E     		ldrb	r3, [r7, #24]	@ zero_extendqisi2
 1980              	.LBE170:
 1981              	.LBE169:
 1982              		.loc 1 812 0 discriminator 1
 1983 0270 0A2B     		cmp	r3, #10
 1984 0272 7FF4E2AE 		bne	.L185
 1985              	.LVL181:
 1986              	.L274:
 1987 0276 194B     		ldr	r3, .L285+16
 1988 0278 1E4A     		ldr	r2, .L285+40
 1989 027a 0093     		str	r3, [sp]
 1990 027c 1949     		ldr	r1, .L285+24
 1991 027e 1848     		ldr	r0, .L285+20
 1992 0280 4FF44B73 		mov	r3, #812
 1993 0284 FFF7FEFF 		bl	chprintf.constprop.4
 1994              	.LVL182:
 1995              	.LBB171:
 1996              	.LBB172:
 1997              		.loc 3 416 0 discriminator 1
 1998 0288 1A48     		ldr	r0, .L285+40
 1999 028a FFF7FEFF 		bl	chSysHalt
 2000              	.LVL183:
 2001              	.LBE172:
 2002              	.LBE171:
 2003              		.loc 1 813 0 discriminator 1
 2004 028e 2B78     		ldrb	r3, [r5]	@ zero_extendqisi2
 2005 0290 97F82120 		ldrb	r2, [r7, #33]	@ zero_extendqisi2
 2006 0294 9A42     		cmp	r2, r3
 2007 0296 7FF4D6AE 		bne	.L186
 2008              	.LVL184:
 2009              	.L275:
 2010              		.loc 1 815 0
 2011 029a FF68     		ldr	r7, [r7, #12]
 2012              	.LVL185:
 2013              		.loc 1 808 0
 2014 029c 002F     		cmp	r7, #0
 2015 029e 7FF4C2AE 		bne	.L216
 2016 02a2 44E7     		b	.L217
 2017              	.LVL186:
 2018              	.L233:
 2019              		.loc 1 881 0
 2020 02a4 062A     		cmp	r2, #6
 2021              		.loc 1 820 0
 2022 02a6 4FF00008 		mov	r8, #0
 2023              	.LVL187:
 2024              		.loc 1 881 0
ARM GAS  C:\Users\jo\AppData\Local\Temp\ccQTqoh0.s 			page 37


 2025 02aa 7FF4FCAE 		bne	.L197
 2026              	.L277:
 2027              		.loc 1 883 0
 2028 02ae BB7F     		ldrb	r3, [r7, #30]	@ zero_extendqisi2
 2029 02b0 DB06     		lsls	r3, r3, #27
 2030 02b2 7FF504AF 		bpl	.L198
 2031              		.loc 1 886 0
 2032 02b6 2368     		ldr	r3, [r4]
 2033 02b8 7A6A     		ldr	r2, [r7, #36]
 2034 02ba 9B1A     		subs	r3, r3, r2
 2035 02bc 282B     		cmp	r3, #40
 2036 02be 7FF6FEAE 		bls	.L198
 2037              		.loc 1 888 0
 2038 02c2 08F10108 		add	r8, r8, #1
 2039              	.LVL188:
 2040 02c6 5FFA88F8 		uxtb	r8, r8
 2041              	.LVL189:
 2042 02ca F8E6     		b	.L198
 2043              	.L286:
 2044              		.align	2
 2045              	.L285:
 2046 02cc 00000000 		.word	.LANCHOR5
 2047 02d0 00000000 		.word	.LANCHOR6
 2048 02d4 00000000 		.word	.LANCHOR9
 2049 02d8 00000000 		.word	.LANCHOR11
 2050 02dc 50000000 		.word	.LC2
 2051 02e0 00000000 		.word	itm_port
 2052 02e4 00000000 		.word	.LC0
 2053 02e8 78020000 		.word	.LC16
 2054 02ec 98010000 		.word	.LC11
 2055 02f0 C4010000 		.word	.LC12
 2056 02f4 F0010000 		.word	.LC13
 2057 02f8 00000000 		.word	.LANCHOR7
 2058 02fc 00000000 		.word	.LANCHOR8
 2059              	.LVL190:
 2060              	.L192:
 2061              		.loc 1 844 0
 2062 0300 B98E     		ldrh	r1, [r7, #52]
 2063 0302 0804     		lsls	r0, r1, #16
 2064              		.loc 1 845 0
 2065 0304 5CBF     		itt	pl
 2066 0306 0131     		addpl	r1, r1, #1
 2067 0308 B986     		strhpl	r1, [r7, #52]	@ movhi
 2068              		.loc 1 848 0
 2069 030a 396F     		ldr	r1, [r7, #112]
 2070 030c 0029     		cmp	r1, #0
 2071 030e C9D0     		beq	.L233
 2072              		.loc 1 848 0 is_stmt 0 discriminator 1
 2073 0310 B7F93400 		ldrsh	r0, [r7, #52]
 2074 0314 B7F94410 		ldrsh	r1, [r7, #68]
 2075 0318 8842     		cmp	r0, r1
 2076 031a C3DB     		blt	.L233
 2077              		.loc 1 856 0 is_stmt 1
 2078 031c 022A     		cmp	r2, #2
 2079 031e 0AD0     		beq	.L195
 2080              		.loc 1 857 0
 2081 0320 5849     		ldr	r1, .L287
ARM GAS  C:\Users\jo\AppData\Local\Temp\ccQTqoh0.s 			page 38


 2082 0322 B7F94000 		ldrsh	r0, [r7, #64]
 2083 0326 B7F94220 		ldrsh	r2, [r7, #66]
 2084 032a C95C     		ldrb	r1, [r1, r3]	@ zero_extendqisi2
 2085 032c 02EBE003 		add	r3, r2, r0, asr #3
 2086 0330 8B40     		lsls	r3, r3, r1
 2087 0332 A7F84430 		strh	r3, [r7, #68]	@ movhi
 2088              	.L195:
 2089              		.loc 1 864 0
 2090 0336 B7F84C10 		ldrh	r1, [r7, #76]
 2091 033a B7F86030 		ldrh	r3, [r7, #96]
 2092              		.loc 1 866 0
 2093 033e FA8E     		ldrh	r2, [r7, #54]
 2094              		.loc 1 869 0
 2095 0340 A7F84C20 		strh	r2, [r7, #76]	@ movhi
 2096              		.loc 1 865 0
 2097 0344 8B42     		cmp	r3, r1
 2098 0346 28BF     		it	cs
 2099 0348 0B46     		movcs	r3, r1
 2100 034a 5B08     		lsrs	r3, r3, #1
 2101              		.loc 1 866 0
 2102 034c 5100     		lsls	r1, r2, #1
 2103              		.loc 1 861 0
 2104 034e 0020     		movs	r0, #0
 2105              		.loc 1 866 0
 2106 0350 8B42     		cmp	r3, r1
 2107              		.loc 1 865 0
 2108 0352 A7F84E30 		strh	r3, [r7, #78]	@ movhi
 2109              		.loc 1 861 0
 2110 0356 B886     		strh	r0, [r7, #52]	@ movhi
 2111              		.loc 1 867 0
 2112 0358 B8BF     		it	lt
 2113 035a A7F84E10 		strhlt	r1, [r7, #78]	@ movhi
 2114              		.loc 1 876 0
 2115 035e 3846     		mov	r0, r7
 2116 0360 FFF7FEFF 		bl	tcp_rexmit_rto
 2117              	.LVL191:
 2118              		.loc 1 820 0
 2119 0364 4FF00008 		mov	r8, #0
 2120 0368 3A7E     		ldrb	r2, [r7, #24]	@ zero_extendqisi2
 2121 036a 99E6     		b	.L191
 2122              	.L276:
 2123              		.loc 1 823 0 discriminator 1
 2124 036c 062B     		cmp	r3, #6
 2125 036e 02D0     		beq	.L239
 2126              		.loc 1 827 0
 2127 0370 0C2B     		cmp	r3, #12
 2128 0372 7FF473AE 		bne	.L228
 2129              	.L239:
 2130              		.loc 1 821 0
 2131 0376 4FF00009 		mov	r9, #0
 2132              		.loc 1 827 0
 2133 037a 4FF00108 		mov	r8, #1
 2134 037e A0E6     		b	.L189
 2135              	.L230:
 2136              		.loc 1 828 0
 2137 0380 4FF00108 		mov	r8, #1
 2138 0384 8CE6     		b	.L191
ARM GAS  C:\Users\jo\AppData\Local\Temp\ccQTqoh0.s 			page 39


 2139              	.LVL192:
 2140              	.L199:
 2141              		.loc 1 899 0
 2142 0386 D7F89000 		ldr	r0, [r7, #144]
 2143              		.loc 1 898 0
 2144 038a 7A6A     		ldr	r2, [r7, #36]
 2145 038c 0392     		str	r2, [sp, #12]
 2146              		.loc 1 899 0
 2147 038e 00F52423 		add	r3, r0, #671744
 2148 0392 3D4A     		ldr	r2, .L287+4
 2149              		.loc 1 898 0
 2150 0394 2168     		ldr	r1, [r4]
 2151              		.loc 1 899 0
 2152 0396 03F6B843 		addw	r3, r3, #3256
 2153 039a A2FB0323 		umull	r2, r3, r2, r3
 2154              		.loc 1 898 0
 2155 039e 039A     		ldr	r2, [sp, #12]
 2156 03a0 8A1A     		subs	r2, r1, r2
 2157 03a2 B2EB531F 		cmp	r2, r3, lsr #5
 2158 03a6 0CD9     		bls	.L200
 2159              		.loc 1 905 0
 2160 03a8 08F10108 		add	r8, r8, #1
 2161              	.LVL193:
 2162 03ac 5FFA88F8 		uxtb	r8, r8
 2163              	.LVL194:
 2164              		.loc 1 906 0
 2165 03b0 4FF00109 		mov	r9, #1
 2166 03b4 85E6     		b	.L189
 2167              	.LVL195:
 2168              	.L280:
 2169              		.loc 1 1034 0
 2170 03b6 2E46     		mov	r6, r5
 2171 03b8 ED68     		ldr	r5, [r5, #12]
 2172              	.LVL196:
 2173              		.loc 1 1005 0
 2174 03ba 002D     		cmp	r5, #0
 2175 03bc 7FF4BEAE 		bne	.L224
 2176 03c0 E5E6     		b	.L178
 2177              	.LVL197:
 2178              	.L200:
 2179              		.loc 1 909 0
 2180 03c2 97F89610 		ldrb	r1, [r7, #150]	@ zero_extendqisi2
 2181 03c6 314B     		ldr	r3, .L287+8
 2182 03c8 03FB0103 		mla	r3, r3, r1, r0
 2183              		.loc 1 910 0
 2184 03cc 2E49     		ldr	r1, .L287+4
 2185 03ce A1FB0313 		umull	r1, r3, r1, r3
 2186              		.loc 1 908 0
 2187 03d2 B2EB531F 		cmp	r2, r3, lsr #5
 2188 03d6 7FF672AE 		bls	.L198
 2189              		.loc 1 912 0
 2190 03da 3846     		mov	r0, r7
 2191 03dc FFF7FEFF 		bl	tcp_keepalive
 2192              	.LVL198:
 2193              		.loc 1 913 0
 2194 03e0 97F89630 		ldrb	r3, [r7, #150]	@ zero_extendqisi2
 2195 03e4 0133     		adds	r3, r3, #1
ARM GAS  C:\Users\jo\AppData\Local\Temp\ccQTqoh0.s 			page 40


 2196 03e6 87F89630 		strb	r3, [r7, #150]
 2197              		.loc 1 821 0
 2198 03ea 4FF00009 		mov	r9, #0
 2199 03ee 68E6     		b	.L189
 2200              	.LVL199:
 2201              	.L284:
 2202              	.LBB173:
 2203              		.loc 1 963 0
 2204 03f0 7B8B     		ldrh	r3, [r7, #26]
 2205 03f2 386D     		ldr	r0, [r7, #80]
 2206 03f4 B96A     		ldr	r1, [r7, #40]
 2207 03f6 0093     		str	r3, [sp]
 2208 03f8 BB8B     		ldrh	r3, [r7, #28]
 2209 03fa 0193     		str	r3, [sp, #4]
 2210 03fc 3A46     		mov	r2, r7
 2211 03fe 3B1D     		adds	r3, r7, #4
 2212 0400 FFF7FEFF 		bl	tcp_rst
 2213              	.LVL200:
 2214 0404 F2E6     		b	.L212
 2215              	.L208:
 2216              		.loc 1 958 0
 2217 0406 BB42     		cmp	r3, r7
 2218 0408 0BD0     		beq	.L211
 2219              		.loc 1 958 0 is_stmt 0 discriminator 1
 2220 040a 214B     		ldr	r3, .L287+12
 2221 040c 0093     		str	r3, [sp]
 2222 040e 2148     		ldr	r0, .L287+16
 2223 0410 2149     		ldr	r1, .L287+20
 2224 0412 224A     		ldr	r2, .L287+24
 2225 0414 40F2BE33 		movw	r3, #958
 2226 0418 FFF7FEFF 		bl	chprintf.constprop.4
 2227              	.LVL201:
 2228              	.LBB163:
 2229              	.LBB164:
 2230              		.loc 3 416 0 is_stmt 1 discriminator 1
 2231 041c 1F48     		ldr	r0, .L287+24
 2232 041e FFF7FEFF 		bl	chSysHalt
 2233              	.LVL202:
 2234              	.L211:
 2235              	.LBE164:
 2236              	.LBE163:
 2237              		.loc 1 959 0
 2238 0422 FB68     		ldr	r3, [r7, #12]
 2239 0424 CBF80030 		str	r3, [fp]
 2240 0428 DCE6     		b	.L210
 2241              	.LVL203:
 2242              	.L281:
 2243              	.LBE173:
 2244              	.LBB174:
 2245              		.loc 1 1026 0
 2246 042a D8F80030 		ldr	r3, [r8]
 2247 042e AB42     		cmp	r3, r5
 2248 0430 0AD0     		beq	.L223
 2249              		.loc 1 1026 0 is_stmt 0 discriminator 1
 2250 0432 0097     		str	r7, [sp]
 2251 0434 1748     		ldr	r0, .L287+16
 2252 0436 1849     		ldr	r1, .L287+20
ARM GAS  C:\Users\jo\AppData\Local\Temp\ccQTqoh0.s 			page 41


 2253 0438 194A     		ldr	r2, .L287+28
 2254 043a 40F20243 		movw	r3, #1026
 2255 043e FFF7FEFF 		bl	chprintf.constprop.4
 2256              	.LVL204:
 2257              	.LBB155:
 2258              	.LBB156:
 2259              		.loc 3 416 0 is_stmt 1 discriminator 1
 2260 0442 1748     		ldr	r0, .L287+28
 2261 0444 FFF7FEFF 		bl	chSysHalt
 2262              	.LVL205:
 2263              	.L223:
 2264              	.LBE156:
 2265              	.LBE155:
 2266              		.loc 1 1027 0
 2267 0448 EB68     		ldr	r3, [r5, #12]
 2268 044a C8F80030 		str	r3, [r8]
 2269 044e 9946     		mov	r9, r3
 2270 0450 97E6     		b	.L222
 2271              	.LVL206:
 2272              	.L283:
 2273              	.LBE174:
 2274              	.LBB175:
 2275              		.loc 1 954 0 discriminator 1
 2276 0452 0F4B     		ldr	r3, .L287+12
 2277 0454 0093     		str	r3, [sp]
 2278 0456 1049     		ldr	r1, .L287+20
 2279 0458 124A     		ldr	r2, .L287+32
 2280 045a 0E48     		ldr	r0, .L287+16
 2281 045c 40F2BA33 		movw	r3, #954
 2282 0460 FFF7FEFF 		bl	chprintf.constprop.4
 2283              	.LVL207:
 2284              	.LBB165:
 2285              	.LBB166:
 2286              		.loc 3 416 0 discriminator 1
 2287 0464 0F48     		ldr	r0, .L287+32
 2288 0466 FFF7FEFF 		bl	chSysHalt
 2289              	.LVL208:
 2290 046a B9E6     		b	.L209
 2291              	.LVL209:
 2292              	.L282:
 2293              	.LBE166:
 2294              	.LBE165:
 2295              	.LBE175:
 2296              	.LBB176:
 2297              		.loc 1 1022 0 discriminator 1
 2298 046c 0097     		str	r7, [sp]
 2299 046e 0A49     		ldr	r1, .L287+20
 2300 0470 0D4A     		ldr	r2, .L287+36
 2301 0472 0848     		ldr	r0, .L287+16
 2302 0474 40F2FE33 		movw	r3, #1022
 2303 0478 FFF7FEFF 		bl	chprintf.constprop.4
 2304              	.LVL210:
 2305              	.LBB157:
 2306              	.LBB158:
 2307              		.loc 3 416 0 discriminator 1
 2308 047c 0A48     		ldr	r0, .L287+36
 2309 047e FFF7FEFF 		bl	chSysHalt
ARM GAS  C:\Users\jo\AppData\Local\Temp\ccQTqoh0.s 			page 42


 2310              	.LVL211:
 2311 0482 7AE6     		b	.L221
 2312              	.L288:
 2313              		.align	2
 2314              	.L287:
 2315 0484 00000000 		.word	.LANCHOR10
 2316 0488 D34D6210 		.word	274877907
 2317 048c F8240100 		.word	75000
 2318 0490 50000000 		.word	.LC2
 2319 0494 00000000 		.word	itm_port
 2320 0498 00000000 		.word	.LC0
 2321 049c 4C020000 		.word	.LC15
 2322 04a0 D0020000 		.word	.LC18
 2323 04a4 20020000 		.word	.LC14
 2324 04a8 A8020000 		.word	.LC17
 2325              	.LBE158:
 2326              	.LBE157:
 2327              	.LBE176:
 2328              		.cfi_endproc
 2329              	.LFE274:
 2330              		.size	tcp_slowtmr, .-tcp_slowtmr
 2331 04ac AFF30080 		.section	.text.tcp_pcb_remove,"ax",%progbits
 2332              		.align	2
 2333              		.p2align 4,,15
 2334              		.global	tcp_pcb_remove
 2335              		.thumb
 2336              		.thumb_func
 2337              		.type	tcp_pcb_remove, %function
 2338              	tcp_pcb_remove:
 2339              	.LFB293:
 2340              		.loc 1 1539 0
 2341              		.cfi_startproc
 2342              		@ args = 0, pretend = 0, frame = 0
 2343              		@ frame_needed = 0, uses_anonymous_args = 0
 2344              	.LVL212:
 2345 0000 10B5     		push	{r4, lr}
 2346              		.cfi_def_cfa_offset 8
 2347              		.cfi_offset 4, -8
 2348              		.cfi_offset 14, -4
 2349              		.loc 1 1540 0
 2350 0002 0268     		ldr	r2, [r0]
 2351 0004 8A42     		cmp	r2, r1
 2352              		.loc 1 1539 0
 2353 0006 82B0     		sub	sp, sp, #8
 2354              		.cfi_def_cfa_offset 16
 2355              		.loc 1 1539 0
 2356 0008 0C46     		mov	r4, r1
 2357              		.loc 1 1540 0
 2358 000a 56D0     		beq	.L319
 2359              		.loc 1 1540 0 is_stmt 0 discriminator 2
 2360 000c 2D49     		ldr	r1, .L324
 2361              	.LVL213:
 2362 000e 0A60     		str	r2, [r1]
 2363 0010 52B1     		cbz	r2, .L291
 2364              		.loc 1 1540 0
 2365 0012 D368     		ldr	r3, [r2, #12]
 2366 0014 A342     		cmp	r3, r4
ARM GAS  C:\Users\jo\AppData\Local\Temp\ccQTqoh0.s 			page 43


 2367 0016 53D0     		beq	.L320
 2368              		.loc 1 1540 0 discriminator 6
 2369 0018 2BB1     		cbz	r3, .L321
 2370              	.L296:
 2371              		.loc 1 1540 0 discriminator 9
 2372 001a DA68     		ldr	r2, [r3, #12]
 2373 001c A242     		cmp	r2, r4
 2374 001e 3ED0     		beq	.L322
 2375 0020 1346     		mov	r3, r2
 2376              		.loc 1 1540 0
 2377 0022 002B     		cmp	r3, #0
 2378 0024 F9D1     		bne	.L296
 2379              	.L321:
 2380 0026 0B60     		str	r3, [r1]
 2381              	.L291:
 2382              		.loc 1 1540 0 discriminator 10
 2383 0028 0023     		movs	r3, #0
 2384 002a E360     		str	r3, [r4, #12]
 2385              		.loc 1 1542 0 is_stmt 1 discriminator 10
 2386 002c 2046     		mov	r0, r4
 2387              	.LVL214:
 2388 002e FFF7FEFF 		bl	tcp_pcb_purge
 2389              	.LVL215:
 2390              		.loc 1 1545 0 discriminator 10
 2391 0032 237E     		ldrb	r3, [r4, #24]	@ zero_extendqisi2
 2392 0034 0A2B     		cmp	r3, #10
 2393 0036 04D0     		beq	.L303
 2394              		.loc 1 1545 0 is_stmt 0 discriminator 1
 2395 0038 012B     		cmp	r3, #1
 2396 003a 2CD0     		beq	.L302
 2397              		.loc 1 1547 0 is_stmt 1
 2398 003c A37F     		ldrb	r3, [r4, #30]	@ zero_extendqisi2
 2399              		.loc 1 1546 0
 2400 003e DA07     		lsls	r2, r3, #31
 2401 0040 31D4     		bmi	.L323
 2402              	.L303:
 2403              		.loc 1 1553 0
 2404 0042 E36E     		ldr	r3, [r4, #108]
 2405 0044 5BB1     		cbz	r3, .L300
 2406              		.loc 1 1553 0 is_stmt 0 discriminator 1
 2407 0046 204B     		ldr	r3, .L324+4
 2408 0048 0093     		str	r3, [sp]
 2409 004a 2048     		ldr	r0, .L324+8
 2410 004c 2049     		ldr	r1, .L324+12
 2411 004e 214A     		ldr	r2, .L324+16
 2412 0050 40F21163 		movw	r3, #1553
 2413 0054 FFF7FEFF 		bl	chprintf.constprop.4
 2414              	.LVL216:
 2415              	.LBB177:
 2416              	.LBB178:
 2417              		.loc 3 416 0 is_stmt 1 discriminator 1
 2418 0058 1E48     		ldr	r0, .L324+16
 2419 005a FFF7FEFF 		bl	chSysHalt
 2420              	.LVL217:
 2421              	.L300:
 2422              	.LBE178:
 2423              	.LBE177:
ARM GAS  C:\Users\jo\AppData\Local\Temp\ccQTqoh0.s 			page 44


 2424              		.loc 1 1554 0
 2425 005e 236F     		ldr	r3, [r4, #112]
 2426 0060 5BB1     		cbz	r3, .L305
 2427              		.loc 1 1554 0 is_stmt 0 discriminator 1
 2428 0062 194B     		ldr	r3, .L324+4
 2429 0064 0093     		str	r3, [sp]
 2430 0066 1948     		ldr	r0, .L324+8
 2431 0068 1949     		ldr	r1, .L324+12
 2432 006a 1B4A     		ldr	r2, .L324+20
 2433 006c 40F21263 		movw	r3, #1554
 2434 0070 FFF7FEFF 		bl	chprintf.constprop.4
 2435              	.LVL218:
 2436              	.LBB179:
 2437              	.LBB180:
 2438              		.loc 3 416 0 is_stmt 1 discriminator 1
 2439 0074 1848     		ldr	r0, .L324+20
 2440 0076 FFF7FEFF 		bl	chSysHalt
 2441              	.LVL219:
 2442              	.L305:
 2443              	.LBE180:
 2444              	.LBE179:
 2445              		.loc 1 1556 0
 2446 007a 636F     		ldr	r3, [r4, #116]
 2447 007c 5BB1     		cbz	r3, .L302
 2448              		.loc 1 1556 0 is_stmt 0 discriminator 1
 2449 007e 124B     		ldr	r3, .L324+4
 2450 0080 0093     		str	r3, [sp]
 2451 0082 1248     		ldr	r0, .L324+8
 2452 0084 1249     		ldr	r1, .L324+12
 2453 0086 154A     		ldr	r2, .L324+24
 2454 0088 40F21463 		movw	r3, #1556
 2455 008c FFF7FEFF 		bl	chprintf.constprop.4
 2456              	.LVL220:
 2457              	.LBB181:
 2458              	.LBB182:
 2459              		.loc 3 416 0 is_stmt 1 discriminator 1
 2460 0090 1248     		ldr	r0, .L324+24
 2461 0092 FFF7FEFF 		bl	chSysHalt
 2462              	.LVL221:
 2463              	.L302:
 2464              	.LBE182:
 2465              	.LBE181:
 2466              		.loc 1 1560 0
 2467 0096 0023     		movs	r3, #0
 2468 0098 2376     		strb	r3, [r4, #24]
 2469              		.loc 1 1563 0
 2470 009a 02B0     		add	sp, sp, #8
 2471              		.cfi_remember_state
 2472              		.cfi_def_cfa_offset 8
 2473              		@ sp needed
 2474 009c 10BD     		pop	{r4, pc}
 2475              	.LVL222:
 2476              	.L322:
 2477              		.cfi_restore_state
 2478 009e 0B60     		str	r3, [r1]
 2479              	.L293:
 2480              		.loc 1 1540 0 discriminator 5
ARM GAS  C:\Users\jo\AppData\Local\Temp\ccQTqoh0.s 			page 45


 2481 00a0 E268     		ldr	r2, [r4, #12]
 2482 00a2 DA60     		str	r2, [r3, #12]
 2483 00a4 C0E7     		b	.L291
 2484              	.LVL223:
 2485              	.L323:
 2486              		.loc 1 1548 0
 2487 00a6 43F00203 		orr	r3, r3, #2
 2488 00aa A377     		strb	r3, [r4, #30]
 2489              		.loc 1 1549 0
 2490 00ac 2046     		mov	r0, r4
 2491 00ae FFF7FEFF 		bl	tcp_output
 2492              	.LVL224:
 2493              		.loc 1 1552 0
 2494 00b2 237E     		ldrb	r3, [r4, #24]	@ zero_extendqisi2
 2495 00b4 012B     		cmp	r3, #1
 2496 00b6 C4D1     		bne	.L303
 2497 00b8 EDE7     		b	.L302
 2498              	.LVL225:
 2499              	.L319:
 2500              		.loc 1 1540 0 discriminator 1
 2501 00ba CB68     		ldr	r3, [r1, #12]
 2502 00bc 0360     		str	r3, [r0]
 2503 00be B3E7     		b	.L291
 2504              	.LVL226:
 2505              	.L320:
 2506              		.loc 1 1540 0 is_stmt 0
 2507 00c0 1346     		mov	r3, r2
 2508 00c2 EDE7     		b	.L293
 2509              	.L325:
 2510              		.align	2
 2511              	.L324:
 2512 00c4 00000000 		.word	.LANCHOR3
 2513 00c8 50000000 		.word	.LC2
 2514 00cc 00000000 		.word	itm_port
 2515 00d0 00000000 		.word	.LC0
 2516 00d4 F8020000 		.word	.LC19
 2517 00d8 10030000 		.word	.LC20
 2518 00dc 2C030000 		.word	.LC21
 2519              		.cfi_endproc
 2520              	.LFE293:
 2521              		.size	tcp_pcb_remove, .-tcp_pcb_remove
 2522              		.section	.text.tcp_close_shutdown,"ax",%progbits
 2523              		.align	2
 2524              		.p2align 4,,15
 2525              		.thumb
 2526              		.thumb_func
 2527              		.type	tcp_close_shutdown, %function
 2528              	tcp_close_shutdown:
 2529              	.LFB262:
 2530              		.loc 1 171 0 is_stmt 1
 2531              		.cfi_startproc
 2532              		@ args = 0, pretend = 0, frame = 0
 2533              		@ frame_needed = 0, uses_anonymous_args = 0
 2534              	.LVL227:
 2535 0000 30B5     		push	{r4, r5, lr}
 2536              		.cfi_def_cfa_offset 12
 2537              		.cfi_offset 4, -12
ARM GAS  C:\Users\jo\AppData\Local\Temp\ccQTqoh0.s 			page 46


 2538              		.cfi_offset 5, -8
 2539              		.cfi_offset 14, -4
 2540              		.loc 1 174 0
 2541 0002 037E     		ldrb	r3, [r0, #24]	@ zero_extendqisi2
 2542              		.loc 1 171 0
 2543 0004 83B0     		sub	sp, sp, #12
 2544              		.cfi_def_cfa_offset 24
 2545              		.loc 1 171 0
 2546 0006 0446     		mov	r4, r0
 2547              		.loc 1 174 0
 2548 0008 19B1     		cbz	r1, .L329
 2549              		.loc 1 174 0 is_stmt 0 discriminator 1
 2550 000a 042B     		cmp	r3, #4
 2551 000c 1ED0     		beq	.L328
 2552              		.loc 1 174 0 discriminator 2
 2553 000e 072B     		cmp	r3, #7
 2554 0010 1CD0     		beq	.L328
 2555              	.LVL228:
 2556              	.L329:
 2557              		.loc 1 199 0 is_stmt 1
 2558 0012 072B     		cmp	r3, #7
 2559 0014 0ED8     		bhi	.L378
 2560 0016 DFE803F0 		tbb	[pc, r3]
 2561              	.L344:
 2562 001a 3E       		.byte	(.L343-.L344)/2
 2563 001b 51       		.byte	(.L345-.L344)/2
 2564 001c 59       		.byte	(.L346-.L344)/2
 2565 001d 11       		.byte	(.L347-.L344)/2
 2566 001e 11       		.byte	(.L347-.L344)/2
 2567 001f 0D       		.byte	(.L378-.L344)/2
 2568 0020 0D       		.byte	(.L378-.L344)/2
 2569 0021 04       		.byte	(.L349-.L344)/2
 2570              		.p2align 1
 2571              	.L349:
 2572              		.loc 1 243 0
 2573 0022 2046     		mov	r0, r4
 2574              	.LVL229:
 2575 0024 FFF7FEFF 		bl	tcp_send_fin
 2576              	.LVL230:
 2577              		.loc 1 244 0
 2578 0028 28B9     		cbnz	r0, .L341
 2579              		.loc 1 246 0
 2580 002a 0923     		movs	r3, #9
 2581 002c 2376     		strb	r3, [r4, #24]
 2582              	.L360:
 2583              	.LVL231:
 2584              		.loc 1 265 0
 2585 002e 2046     		mov	r0, r4
 2586 0030 FFF7FEFF 		bl	tcp_output
 2587              	.LVL232:
 2588              	.L378:
 2589 0034 0020     		movs	r0, #0
 2590              	.L341:
 2591 0036 40B2     		sxtb	r0, r0
 2592              		.loc 1 268 0
 2593 0038 03B0     		add	sp, sp, #12
 2594              		.cfi_remember_state
ARM GAS  C:\Users\jo\AppData\Local\Temp\ccQTqoh0.s 			page 47


 2595              		.cfi_def_cfa_offset 12
 2596              		@ sp needed
 2597 003a 30BD     		pop	{r4, r5, pc}
 2598              	.LVL233:
 2599              	.L347:
 2600              		.cfi_restore_state
 2601              		.loc 1 229 0
 2602 003c 2046     		mov	r0, r4
 2603              	.LVL234:
 2604 003e FFF7FEFF 		bl	tcp_send_fin
 2605              	.LVL235:
 2606              		.loc 1 230 0
 2607 0042 0028     		cmp	r0, #0
 2608 0044 F7D1     		bne	.L341
 2609              		.loc 1 232 0
 2610 0046 0523     		movs	r3, #5
 2611 0048 2376     		strb	r3, [r4, #24]
 2612 004a F0E7     		b	.L360
 2613              	.LVL236:
 2614              	.L328:
 2615              		.loc 1 175 0
 2616 004c A26F     		ldr	r2, [r4, #120]
 2617 004e 002A     		cmp	r2, #0
 2618 0050 7DD0     		beq	.L381
 2619              	.LVL237:
 2620              	.L330:
 2621              		.loc 1 178 0
 2622 0052 A37F     		ldrb	r3, [r4, #30]	@ zero_extendqisi2
 2623 0054 DB06     		lsls	r3, r3, #27
 2624 0056 44D5     		bpl	.L382
 2625              	.LVL238:
 2626              	.L331:
 2627              		.loc 1 182 0
 2628 0058 628B     		ldrh	r2, [r4, #26]
 2629 005a A38B     		ldrh	r3, [r4, #28]
 2630 005c 206D     		ldr	r0, [r4, #80]
 2631 005e A16A     		ldr	r1, [r4, #40]
 2632 0060 8DE80C00 		stmia	sp, {r2, r3}
 2633 0064 2246     		mov	r2, r4
 2634 0066 231D     		adds	r3, r4, #4
 2635 0068 FFF7FEFF 		bl	tcp_rst
 2636              	.LVL239:
 2637              		.loc 1 185 0
 2638 006c 2046     		mov	r0, r4
 2639 006e FFF7FEFF 		bl	tcp_pcb_purge
 2640              	.LVL240:
 2641              		.loc 1 186 0
 2642 0072 3C4B     		ldr	r3, .L392
 2643 0074 1A68     		ldr	r2, [r3]
 2644 0076 A242     		cmp	r2, r4
 2645 0078 5DD0     		beq	.L383
 2646              		.loc 1 186 0 is_stmt 0 discriminator 2
 2647 007a 3B49     		ldr	r1, .L392+4
 2648 007c 0A60     		str	r2, [r1]
 2649 007e 002A     		cmp	r2, #0
 2650 0080 3ED0     		beq	.L333
 2651              		.loc 1 186 0
ARM GAS  C:\Users\jo\AppData\Local\Temp\ccQTqoh0.s 			page 48


 2652 0082 D368     		ldr	r3, [r2, #12]
 2653 0084 A342     		cmp	r3, r4
 2654 0086 59D0     		beq	.L384
 2655              	.L337:
 2656              		.loc 1 186 0 discriminator 6
 2657 0088 002B     		cmp	r3, #0
 2658 008a 48D0     		beq	.L385
 2659              		.loc 1 186 0 discriminator 9
 2660 008c DA68     		ldr	r2, [r3, #12]
 2661 008e A242     		cmp	r2, r4
 2662 0090 33D0     		beq	.L386
 2663 0092 1346     		mov	r3, r2
 2664 0094 F8E7     		b	.L337
 2665              	.LVL241:
 2666              	.L343:
 2667              		.loc 1 209 0 is_stmt 1
 2668 0096 638B     		ldrh	r3, [r4, #26]
 2669 0098 A3B1     		cbz	r3, .L377
 2670              		.loc 1 210 0
 2671 009a 344B     		ldr	r3, .L392+8
 2672 009c 1A68     		ldr	r2, [r3]
 2673 009e A242     		cmp	r2, r4
 2674 00a0 4ED0     		beq	.L387
 2675              		.loc 1 210 0 is_stmt 0 discriminator 2
 2676 00a2 3149     		ldr	r1, .L392+4
 2677 00a4 0A60     		str	r2, [r1]
 2678 00a6 6AB1     		cbz	r2, .L377
 2679              		.loc 1 210 0
 2680 00a8 D368     		ldr	r3, [r2, #12]
 2681 00aa A342     		cmp	r3, r4
 2682 00ac 4BD0     		beq	.L388
 2683              	.L356:
 2684              		.loc 1 210 0 discriminator 6
 2685 00ae 002B     		cmp	r3, #0
 2686 00b0 54D0     		beq	.L389
 2687              		.loc 1 210 0 discriminator 9
 2688 00b2 DA68     		ldr	r2, [r3, #12]
 2689 00b4 A242     		cmp	r2, r4
 2690 00b6 53D0     		beq	.L390
 2691 00b8 1346     		mov	r3, r2
 2692 00ba F8E7     		b	.L356
 2693              	.LVL242:
 2694              	.L345:
 2695              		.loc 1 217 0 is_stmt 1
 2696 00bc 2C48     		ldr	r0, .L392+12
 2697              	.LVL243:
 2698 00be 2146     		mov	r1, r4
 2699 00c0 FFF7FEFF 		bl	tcp_pcb_remove
 2700              	.LVL244:
 2701              	.L377:
 2702              		.loc 1 218 0
 2703 00c4 2046     		mov	r0, r4
 2704 00c6 FFF7FEFF 		bl	free
 2705              	.LVL245:
 2706              		.loc 1 220 0
 2707 00ca B3E7     		b	.L378
 2708              	.LVL246:
ARM GAS  C:\Users\jo\AppData\Local\Temp\ccQTqoh0.s 			page 49


 2709              	.L346:
 2710              		.loc 1 223 0
 2711 00cc 2548     		ldr	r0, .L392
 2712              	.LVL247:
 2713 00ce 2146     		mov	r1, r4
 2714 00d0 FFF7FEFF 		bl	tcp_pcb_remove
 2715              	.LVL248:
 2716 00d4 274B     		ldr	r3, .L392+16
 2717 00d6 0122     		movs	r2, #1
 2718              		.loc 1 224 0
 2719 00d8 2046     		mov	r0, r4
 2720              		.loc 1 223 0
 2721 00da 1A70     		strb	r2, [r3]
 2722              		.loc 1 224 0
 2723 00dc FFF7FEFF 		bl	free
 2724              	.LVL249:
 2725              		.loc 1 227 0
 2726 00e0 A8E7     		b	.L378
 2727              	.LVL250:
 2728              	.L382:
 2729              		.loc 1 178 0 discriminator 1
 2730 00e2 254B     		ldr	r3, .L392+20
 2731 00e4 0093     		str	r3, [sp]
 2732 00e6 2549     		ldr	r1, .L392+24
 2733 00e8 254A     		ldr	r2, .L392+28
 2734 00ea 2648     		ldr	r0, .L392+32
 2735              	.LVL251:
 2736 00ec B223     		movs	r3, #178
 2737 00ee FFF7FEFF 		bl	chprintf.constprop.4
 2738              	.LVL252:
 2739              	.LBB183:
 2740              	.LBB184:
 2741              		.loc 3 416 0 discriminator 1
 2742 00f2 2348     		ldr	r0, .L392+28
 2743 00f4 FFF7FEFF 		bl	chSysHalt
 2744              	.LVL253:
 2745 00f8 AEE7     		b	.L331
 2746              	.LVL254:
 2747              	.L386:
 2748 00fa 0B60     		str	r3, [r1]
 2749              	.L335:
 2750              	.LBE184:
 2751              	.LBE183:
 2752              		.loc 1 186 0 discriminator 5
 2753 00fc E268     		ldr	r2, [r4, #12]
 2754 00fe DA60     		str	r2, [r3, #12]
 2755              	.L333:
 2756              		.loc 1 187 0 discriminator 10
 2757 0100 237E     		ldrb	r3, [r4, #24]	@ zero_extendqisi2
 2758              		.loc 1 186 0 discriminator 10
 2759 0102 1C4A     		ldr	r2, .L392+16
 2760 0104 0121     		movs	r1, #1
 2761 0106 0025     		movs	r5, #0
 2762              		.loc 1 187 0 discriminator 10
 2763 0108 042B     		cmp	r3, #4
 2764              		.loc 1 186 0 discriminator 10
 2765 010a 1170     		strb	r1, [r2]
ARM GAS  C:\Users\jo\AppData\Local\Temp\ccQTqoh0.s 			page 50


 2766 010c E560     		str	r5, [r4, #12]
 2767              		.loc 1 187 0 discriminator 10
 2768 010e 08D0     		beq	.L391
 2769              		.loc 1 193 0
 2770 0110 2046     		mov	r0, r4
 2771 0112 FFF7FEFF 		bl	free
 2772              	.LVL255:
 2773              		.loc 1 195 0
 2774 0116 2846     		mov	r0, r5
 2775 0118 40B2     		sxtb	r0, r0
 2776              		.loc 1 268 0
 2777 011a 03B0     		add	sp, sp, #12
 2778              		.cfi_remember_state
 2779              		.cfi_def_cfa_offset 12
 2780              		@ sp needed
 2781 011c 30BD     		pop	{r4, r5, pc}
 2782              	.LVL256:
 2783              	.L385:
 2784              		.cfi_restore_state
 2785 011e 0B60     		str	r3, [r1]
 2786 0120 EEE7     		b	.L333
 2787              	.L391:
 2788              		.loc 1 190 0
 2789 0122 194B     		ldr	r3, .L392+36
 2790              		.loc 1 189 0
 2791 0124 0A22     		movs	r2, #10
 2792              		.loc 1 190 0
 2793 0126 1968     		ldr	r1, [r3]
 2794 0128 E160     		str	r1, [r4, #12]
 2795              		.loc 1 189 0
 2796 012a 2276     		strb	r2, [r4, #24]
 2797              		.loc 1 190 0
 2798 012c 1C60     		str	r4, [r3]
 2799 012e FFF7FEFF 		bl	tcp_timer_needed
 2800              	.LVL257:
 2801              		.loc 1 195 0
 2802 0132 2846     		mov	r0, r5
 2803 0134 7FE7     		b	.L341
 2804              	.L383:
 2805              		.loc 1 186 0 discriminator 1
 2806 0136 E268     		ldr	r2, [r4, #12]
 2807 0138 1A60     		str	r2, [r3]
 2808 013a E1E7     		b	.L333
 2809              	.L384:
 2810              		.loc 1 186 0 is_stmt 0
 2811 013c 1346     		mov	r3, r2
 2812 013e DDE7     		b	.L335
 2813              	.LVL258:
 2814              	.L387:
 2815              		.loc 1 210 0 is_stmt 1 discriminator 1
 2816 0140 E268     		ldr	r2, [r4, #12]
 2817 0142 1A60     		str	r2, [r3]
 2818 0144 BEE7     		b	.L377
 2819              	.L388:
 2820              		.loc 1 210 0 is_stmt 0
 2821 0146 1346     		mov	r3, r2
 2822              	.L354:
ARM GAS  C:\Users\jo\AppData\Local\Temp\ccQTqoh0.s 			page 51


 2823              		.loc 1 210 0 discriminator 5
 2824 0148 E268     		ldr	r2, [r4, #12]
 2825 014a DA60     		str	r2, [r3, #12]
 2826 014c BAE7     		b	.L377
 2827              	.LVL259:
 2828              	.L381:
 2829              		.loc 1 175 0 is_stmt 1 discriminator 1
 2830 014e A18D     		ldrh	r1, [r4, #44]
 2831              	.LVL260:
 2832 0150 41F2D062 		movw	r2, #5840
 2833 0154 9142     		cmp	r1, r2
 2834 0156 7FF47CAF 		bne	.L330
 2835 015a 5AE7     		b	.L329
 2836              	.LVL261:
 2837              	.L389:
 2838 015c 0B60     		str	r3, [r1]
 2839 015e B1E7     		b	.L377
 2840              	.L390:
 2841 0160 0B60     		str	r3, [r1]
 2842 0162 F1E7     		b	.L354
 2843              	.L393:
 2844              		.align	2
 2845              	.L392:
 2846 0164 00000000 		.word	.LANCHOR7
 2847 0168 00000000 		.word	.LANCHOR3
 2848 016c 00000000 		.word	.LANCHOR2
 2849 0170 00000000 		.word	.LANCHOR4
 2850 0174 00000000 		.word	.LANCHOR11
 2851 0178 50000000 		.word	.LC2
 2852 017c 00000000 		.word	.LC0
 2853 0180 44030000 		.word	.LC22
 2854 0184 00000000 		.word	itm_port
 2855 0188 00000000 		.word	.LANCHOR8
 2856              		.cfi_endproc
 2857              	.LFE262:
 2858              		.size	tcp_close_shutdown, .-tcp_close_shutdown
 2859 018c AFF30080 		.section	.text.tcp_close,"ax",%progbits
 2860              		.align	2
 2861              		.p2align 4,,15
 2862              		.global	tcp_close
 2863              		.thumb
 2864              		.thumb_func
 2865              		.type	tcp_close, %function
 2866              	tcp_close:
 2867              	.LFB263:
 2868              		.loc 1 286 0
 2869              		.cfi_startproc
 2870              		@ args = 0, pretend = 0, frame = 0
 2871              		@ frame_needed = 0, uses_anonymous_args = 0
 2872              		@ link register save eliminated.
 2873              	.LVL262:
 2874              		.loc 1 292 0
 2875 0000 037E     		ldrb	r3, [r0, #24]	@ zero_extendqisi2
 2876 0002 012B     		cmp	r3, #1
 2877 0004 03D0     		beq	.L395
 2878              		.loc 1 294 0
 2879 0006 837F     		ldrb	r3, [r0, #30]	@ zero_extendqisi2
ARM GAS  C:\Users\jo\AppData\Local\Temp\ccQTqoh0.s 			page 52


 2880 0008 43F01003 		orr	r3, r3, #16
 2881 000c 8377     		strb	r3, [r0, #30]
 2882              	.L395:
 2883              		.loc 1 297 0
 2884 000e 0121     		movs	r1, #1
 2885 0010 FFF7FEBF 		b	tcp_close_shutdown
 2886              	.LVL263:
 2887              		.cfi_endproc
 2888              	.LFE263:
 2889              		.size	tcp_close, .-tcp_close
 2890 0014 AFF30080 		.section	.text.tcp_recv_null,"ax",%progbits
 2890      AFF30080 
 2890      AFF30080 
 2891              		.align	2
 2892              		.p2align 4,,15
 2893              		.global	tcp_recv_null
 2894              		.thumb
 2895              		.thumb_func
 2896              		.type	tcp_recv_null, %function
 2897              	tcp_recv_null:
 2898              	.LFB281:
 2899              		.loc 1 1198 0
 2900              		.cfi_startproc
 2901              		@ args = 0, pretend = 0, frame = 0
 2902              		@ frame_needed = 0, uses_anonymous_args = 0
 2903              	.LVL264:
 2904              		.loc 1 1200 0
 2905 0000 52B1     		cbz	r2, .L400
 2906              		.loc 1 1198 0
 2907 0002 10B5     		push	{r4, lr}
 2908              		.cfi_def_cfa_offset 8
 2909              		.cfi_offset 4, -8
 2910              		.cfi_offset 14, -4
 2911 0004 0846     		mov	r0, r1
 2912              	.LVL265:
 2913 0006 1446     		mov	r4, r2
 2914              		.loc 1 1201 0
 2915 0008 1189     		ldrh	r1, [r2, #8]
 2916              	.LVL266:
 2917 000a FFF7FEFF 		bl	tcp_recved
 2918              	.LVL267:
 2919              		.loc 1 1202 0
 2920 000e 2046     		mov	r0, r4
 2921 0010 FFF7FEFF 		bl	pbuf_free
 2922              	.LVL268:
 2923              		.loc 1 1207 0
 2924 0014 0020     		movs	r0, #0
 2925 0016 10BD     		pop	{r4, pc}
 2926              	.LVL269:
 2927              	.L400:
 2928              		.cfi_def_cfa_offset 0
 2929              		.cfi_restore 4
 2930              		.cfi_restore 14
 2931              	.LBB187:
 2932              	.LBB188:
 2933              		.loc 1 1203 0
 2934 0018 0BB1     		cbz	r3, .L405
ARM GAS  C:\Users\jo\AppData\Local\Temp\ccQTqoh0.s 			page 53


 2935              	.LBE188:
 2936              	.LBE187:
 2937              		.loc 1 1207 0
 2938 001a 0020     		movs	r0, #0
 2939              	.LVL270:
 2940 001c 7047     		bx	lr
 2941              	.LVL271:
 2942              	.L405:
 2943              	.LBB190:
 2944              	.LBB189:
 2945              		.loc 1 1204 0
 2946 001e 0846     		mov	r0, r1
 2947              	.LVL272:
 2948 0020 FFF7FEBF 		b	tcp_close
 2949              	.LVL273:
 2950              	.LBE189:
 2951              	.LBE190:
 2952              		.cfi_endproc
 2953              	.LFE281:
 2954              		.size	tcp_recv_null, .-tcp_recv_null
 2955 0024 AFF30080 		.section	.text.tcp_process_refused_data,"ax",%progbits
 2955      AFF30080 
 2955      AFF30080 
 2956              		.align	2
 2957              		.p2align 4,,15
 2958              		.global	tcp_process_refused_data
 2959              		.thumb
 2960              		.thumb_func
 2961              		.type	tcp_process_refused_data, %function
 2962              	tcp_process_refused_data:
 2963              	.LFB276:
 2964              		.loc 1 1086 0
 2965              		.cfi_startproc
 2966              		@ args = 0, pretend = 0, frame = 0
 2967              		@ frame_needed = 0, uses_anonymous_args = 0
 2968              	.LVL274:
 2969 0000 F8B5     		push	{r3, r4, r5, r6, r7, lr}
 2970              		.cfi_def_cfa_offset 24
 2971              		.cfi_offset 3, -24
 2972              		.cfi_offset 4, -20
 2973              		.cfi_offset 5, -16
 2974              		.cfi_offset 6, -12
 2975              		.cfi_offset 7, -8
 2976              		.cfi_offset 14, -4
 2977              		.loc 1 1088 0
 2978 0002 856F     		ldr	r5, [r0, #120]
 2979              		.loc 1 1095 0
 2980 0004 D0F88060 		ldr	r6, [r0, #128]
 2981              		.loc 1 1088 0
 2982 0008 6F7B     		ldrb	r7, [r5, #13]	@ zero_extendqisi2
 2983              	.LVL275:
 2984              		.loc 1 1092 0
 2985 000a 0023     		movs	r3, #0
 2986              		.loc 1 1086 0
 2987 000c 0446     		mov	r4, r0
 2988              		.loc 1 1092 0
 2989 000e 8367     		str	r3, [r0, #120]
ARM GAS  C:\Users\jo\AppData\Local\Temp\ccQTqoh0.s 			page 54


 2990              		.loc 1 1095 0
 2991 0010 0EB3     		cbz	r6, .L407
 2992              		.loc 1 1095 0 is_stmt 0 discriminator 1
 2993 0012 0069     		ldr	r0, [r0, #16]
 2994              	.LVL276:
 2995 0014 2146     		mov	r1, r4
 2996 0016 2A46     		mov	r2, r5
 2997 0018 B047     		blx	r6
 2998              	.LVL277:
 2999              	.L408:
 3000              		.loc 1 1096 0 is_stmt 1
 3001 001a A8B9     		cbnz	r0, .L409
 3002              		.loc 1 1098 0
 3003 001c BB06     		lsls	r3, r7, #26
 3004 001e 10D5     		bpl	.L415
 3005              	.LVL278:
 3006              	.LBB193:
 3007              	.LBB194:
 3008              		.loc 1 1101 0
 3009 0020 A38D     		ldrh	r3, [r4, #44]
 3010              		.loc 1 1104 0
 3011 0022 D4F88050 		ldr	r5, [r4, #128]
 3012              	.LVL279:
 3013              		.loc 1 1101 0
 3014 0026 41F2D062 		movw	r2, #5840
 3015 002a 9342     		cmp	r3, r2
 3016              		.loc 1 1102 0
 3017 002c 1CBF     		itt	ne
 3018 002e 0133     		addne	r3, r3, #1
 3019 0030 A385     		strhne	r3, [r4, #44]	@ movhi
 3020              		.loc 1 1104 0
 3021 0032 35B1     		cbz	r5, .L415
 3022 0034 0022     		movs	r2, #0
 3023 0036 1346     		mov	r3, r2
 3024 0038 2069     		ldr	r0, [r4, #16]
 3025              	.LVL280:
 3026 003a 2146     		mov	r1, r4
 3027 003c A847     		blx	r5
 3028              	.LVL281:
 3029              		.loc 1 1105 0
 3030 003e 0A30     		adds	r0, r0, #10
 3031              	.LVL282:
 3032 0040 10D0     		beq	.L414
 3033              	.LVL283:
 3034              	.L415:
 3035              		.loc 1 1119 0
 3036 0042 0020     		movs	r0, #0
 3037              	.LBE194:
 3038              	.LBE193:
 3039              		.loc 1 1120 0
 3040 0044 40B2     		sxtb	r0, r0
 3041 0046 F8BD     		pop	{r3, r4, r5, r6, r7, pc}
 3042              	.LVL284:
 3043              	.L409:
 3044              		.loc 1 1109 0
 3045 0048 40B2     		sxtb	r0, r0
 3046 004a 0A30     		adds	r0, r0, #10
ARM GAS  C:\Users\jo\AppData\Local\Temp\ccQTqoh0.s 			page 55


 3047              	.LVL285:
 3048 004c 0AD0     		beq	.L414
 3049              		.loc 1 1117 0
 3050 004e A567     		str	r5, [r4, #120]
 3051              		.loc 1 1119 0
 3052 0050 0020     		movs	r0, #0
 3053              	.LVL286:
 3054              	.L411:
 3055              		.loc 1 1120 0
 3056 0052 40B2     		sxtb	r0, r0
 3057 0054 F8BD     		pop	{r3, r4, r5, r6, r7, pc}
 3058              	.LVL287:
 3059              	.L407:
 3060              		.loc 1 1095 0 discriminator 2
 3061 0056 3046     		mov	r0, r6
 3062              	.LVL288:
 3063 0058 3346     		mov	r3, r6
 3064 005a 2146     		mov	r1, r4
 3065 005c 2A46     		mov	r2, r5
 3066 005e FFF7FEFF 		bl	tcp_recv_null
 3067              	.LVL289:
 3068 0062 DAE7     		b	.L408
 3069              	.LVL290:
 3070              	.L414:
 3071              	.LBB196:
 3072              	.LBB195:
 3073              		.loc 1 1106 0
 3074 0064 F620     		movs	r0, #246
 3075 0066 F4E7     		b	.L411
 3076              	.LBE195:
 3077              	.LBE196:
 3078              		.cfi_endproc
 3079              	.LFE276:
 3080              		.size	tcp_process_refused_data, .-tcp_process_refused_data
 3081 0068 AFF30080 		.section	.text.tcp_fasttmr,"ax",%progbits
 3081      AFF30080 
 3082              		.align	2
 3083              		.p2align 4,,15
 3084              		.global	tcp_fasttmr
 3085              		.thumb
 3086              		.thumb_func
 3087              		.type	tcp_fasttmr, %function
 3088              	tcp_fasttmr:
 3089              	.LFB275:
 3090              		.loc 1 1047 0
 3091              		.cfi_startproc
 3092              		@ args = 0, pretend = 0, frame = 0
 3093              		@ frame_needed = 0, uses_anonymous_args = 0
 3094 0000 2DE9F041 		push	{r4, r5, r6, r7, r8, lr}
 3095              		.cfi_def_cfa_offset 24
 3096              		.cfi_offset 4, -24
 3097              		.cfi_offset 5, -20
 3098              		.cfi_offset 6, -16
 3099              		.cfi_offset 7, -12
 3100              		.cfi_offset 8, -8
 3101              		.cfi_offset 14, -4
 3102              		.loc 1 1050 0
ARM GAS  C:\Users\jo\AppData\Local\Temp\ccQTqoh0.s 			page 56


 3103 0004 174D     		ldr	r5, .L438
 3104 0006 184F     		ldr	r7, .L438+4
 3105 0008 2B78     		ldrb	r3, [r5]	@ zero_extendqisi2
 3106              	.LBB197:
 3107              		.loc 1 1071 0
 3108 000a DFF86080 		ldr	r8, .L438+8
 3109              	.LBE197:
 3110              		.loc 1 1050 0
 3111 000e 0133     		adds	r3, r3, #1
 3112 0010 2B70     		strb	r3, [r5]
 3113              	.LBB198:
 3114              		.loc 1 1071 0
 3115 0012 0026     		movs	r6, #0
 3116              	.L424:
 3117              	.LBE198:
 3118              		.loc 1 1053 0
 3119 0014 3C68     		ldr	r4, [r7]
 3120              	.LVL291:
 3121              	.L425:
 3122              		.loc 1 1055 0
 3123 0016 2CB1     		cbz	r4, .L423
 3124              		.loc 1 1056 0
 3125 0018 2B78     		ldrb	r3, [r5]	@ zero_extendqisi2
 3126 001a 94F82120 		ldrb	r2, [r4, #33]	@ zero_extendqisi2
 3127 001e 9A42     		cmp	r2, r3
 3128 0020 02D1     		bne	.L431
 3129              	.L426:
 3130 0022 FEE7     		b	.L426
 3131              	.L423:
 3132 0024 BDE8F081 		pop	{r4, r5, r6, r7, r8, pc}
 3133              	.L431:
 3134              	.LBB199:
 3135              		.loc 1 1060 0
 3136 0028 A27F     		ldrb	r2, [r4, #30]	@ zero_extendqisi2
 3137              		.loc 1 1058 0
 3138 002a 84F82130 		strb	r3, [r4, #33]
 3139              		.loc 1 1060 0
 3140 002e D307     		lsls	r3, r2, #31
 3141 0030 0DD4     		bmi	.L437
 3142              	.L427:
 3143              		.loc 1 1070 0
 3144 0032 A36F     		ldr	r3, [r4, #120]
 3145              		.loc 1 1072 0
 3146 0034 2046     		mov	r0, r4
 3147              		.loc 1 1067 0
 3148 0036 E468     		ldr	r4, [r4, #12]
 3149              	.LVL292:
 3150              		.loc 1 1070 0
 3151 0038 002B     		cmp	r3, #0
 3152 003a ECD0     		beq	.L425
 3153              		.loc 1 1071 0
 3154 003c 88F80060 		strb	r6, [r8]
 3155              		.loc 1 1072 0
 3156 0040 FFF7FEFF 		bl	tcp_process_refused_data
 3157              	.LVL293:
 3158              		.loc 1 1073 0
 3159 0044 98F80030 		ldrb	r3, [r8]	@ zero_extendqisi2
ARM GAS  C:\Users\jo\AppData\Local\Temp\ccQTqoh0.s 			page 57


 3160 0048 002B     		cmp	r3, #0
 3161 004a E4D0     		beq	.L425
 3162 004c E2E7     		b	.L424
 3163              	.LVL294:
 3164              	.L437:
 3165              		.loc 1 1062 0
 3166 004e 42F00202 		orr	r2, r2, #2
 3167 0052 A277     		strb	r2, [r4, #30]
 3168              		.loc 1 1063 0
 3169 0054 2046     		mov	r0, r4
 3170 0056 FFF7FEFF 		bl	tcp_output
 3171              	.LVL295:
 3172              		.loc 1 1064 0
 3173 005a A37F     		ldrb	r3, [r4, #30]	@ zero_extendqisi2
 3174 005c 23F00303 		bic	r3, r3, #3
 3175 0060 A377     		strb	r3, [r4, #30]
 3176 0062 E6E7     		b	.L427
 3177              	.L439:
 3178              		.align	2
 3179              	.L438:
 3180 0064 00000000 		.word	.LANCHOR6
 3181 0068 00000000 		.word	.LANCHOR7
 3182 006c 00000000 		.word	.LANCHOR11
 3183              	.LBE199:
 3184              		.cfi_endproc
 3185              	.LFE275:
 3186              		.size	tcp_fasttmr, .-tcp_fasttmr
 3187              		.section	.text.tcp_tmr,"ax",%progbits
 3188              		.align	2
 3189              		.p2align 4,,15
 3190              		.global	tcp_tmr
 3191              		.thumb
 3192              		.thumb_func
 3193              		.type	tcp_tmr, %function
 3194              	tcp_tmr:
 3195              	.LFB261:
 3196              		.loc 1 142 0
 3197              		.cfi_startproc
 3198              		@ args = 0, pretend = 0, frame = 0
 3199              		@ frame_needed = 0, uses_anonymous_args = 0
 3200 0000 08B5     		push	{r3, lr}
 3201              		.cfi_def_cfa_offset 8
 3202              		.cfi_offset 3, -8
 3203              		.cfi_offset 14, -4
 3204              		.loc 1 144 0
 3205 0002 FFF7FEFF 		bl	tcp_fasttmr
 3206              	.LVL296:
 3207              		.loc 1 146 0
 3208 0006 064A     		ldr	r2, .L444
 3209 0008 1378     		ldrb	r3, [r2]	@ zero_extendqisi2
 3210 000a 0133     		adds	r3, r3, #1
 3211 000c DBB2     		uxtb	r3, r3
 3212 000e 1370     		strb	r3, [r2]
 3213 0010 DB07     		lsls	r3, r3, #31
 3214 0012 00D4     		bmi	.L443
 3215 0014 08BD     		pop	{r3, pc}
 3216              	.L443:
ARM GAS  C:\Users\jo\AppData\Local\Temp\ccQTqoh0.s 			page 58


 3217              		.loc 1 151 0
 3218 0016 BDE80840 		pop	{r3, lr}
 3219              		.cfi_restore 14
 3220              		.cfi_restore 3
 3221              		.cfi_def_cfa_offset 0
 3222              		.loc 1 149 0
 3223 001a FFF7FEBF 		b	tcp_slowtmr
 3224              	.LVL297:
 3225              	.L445:
 3226 001e 00BF     		.align	2
 3227              	.L444:
 3228 0020 00000000 		.word	.LANCHOR12
 3229              		.cfi_endproc
 3230              	.LFE261:
 3231              		.size	tcp_tmr, .-tcp_tmr
 3232 0024 AFF30080 		.section	.text.tcp_shutdown,"ax",%progbits
 3232      AFF30080 
 3232      AFF30080 
 3233              		.align	2
 3234              		.p2align 4,,15
 3235              		.global	tcp_shutdown
 3236              		.thumb
 3237              		.thumb_func
 3238              		.type	tcp_shutdown, %function
 3239              	tcp_shutdown:
 3240              	.LFB264:
 3241              		.loc 1 314 0
 3242              		.cfi_startproc
 3243              		@ args = 0, pretend = 0, frame = 0
 3244              		@ frame_needed = 0, uses_anonymous_args = 0
 3245              	.LVL298:
 3246 0000 38B5     		push	{r3, r4, r5, lr}
 3247              		.cfi_def_cfa_offset 16
 3248              		.cfi_offset 3, -16
 3249              		.cfi_offset 4, -12
 3250              		.cfi_offset 5, -8
 3251              		.cfi_offset 14, -4
 3252              		.loc 1 315 0
 3253 0002 037E     		ldrb	r3, [r0, #24]	@ zero_extendqisi2
 3254 0004 012B     		cmp	r3, #1
 3255              		.loc 1 314 0
 3256 0006 0546     		mov	r5, r0
 3257              		.loc 1 315 0
 3258 0008 23D0     		beq	.L454
 3259              		.loc 1 318 0
 3260 000a 69B1     		cbz	r1, .L448
 3261              		.loc 1 320 0
 3262 000c 837F     		ldrb	r3, [r0, #30]	@ zero_extendqisi2
 3263 000e 43F01003 		orr	r3, r3, #16
 3264 0012 8377     		strb	r3, [r0, #30]
 3265              		.loc 1 321 0
 3266 0014 C2B9     		cbnz	r2, .L460
 3267              		.loc 1 326 0
 3268 0016 806F     		ldr	r0, [r0, #120]
 3269              	.LVL299:
 3270 0018 18B1     		cbz	r0, .L450
 3271 001a 1446     		mov	r4, r2
ARM GAS  C:\Users\jo\AppData\Local\Temp\ccQTqoh0.s 			page 59


 3272              		.loc 1 327 0
 3273 001c FFF7FEFF 		bl	pbuf_free
 3274              	.LVL300:
 3275              		.loc 1 328 0
 3276 0020 AC67     		str	r4, [r5, #120]
 3277              	.LVL301:
 3278              	.L450:
 3279              		.loc 1 345 0
 3280 0022 0020     		movs	r0, #0
 3281              	.L447:
 3282 0024 40B2     		sxtb	r0, r0
 3283              		.loc 1 346 0
 3284 0026 38BD     		pop	{r3, r4, r5, pc}
 3285              	.LVL302:
 3286              	.L448:
 3287              		.loc 1 331 0
 3288 0028 002A     		cmp	r2, #0
 3289 002a FAD0     		beq	.L450
 3290 002c 033B     		subs	r3, r3, #3
 3291 002e DBB2     		uxtb	r3, r3
 3292 0030 042B     		cmp	r3, #4
 3293 0032 0ED8     		bhi	.L454
 3294 0034 0122     		movs	r2, #1
 3295              	.LVL303:
 3296 0036 02FA03F3 		lsl	r3, r2, r3
 3297 003a 13F0130F 		tst	r3, #19
 3298 003e 08D0     		beq	.L454
 3299              		.loc 1 346 0
 3300 0040 BDE83840 		pop	{r3, r4, r5, lr}
 3301              		.cfi_remember_state
 3302              		.cfi_restore 14
 3303              		.cfi_restore 5
 3304              		.cfi_restore 4
 3305              		.cfi_restore 3
 3306              		.cfi_def_cfa_offset 0
 3307              		.loc 1 338 0
 3308 0044 FFF7FEBF 		b	tcp_close_shutdown
 3309              	.LVL304:
 3310              	.L460:
 3311              		.cfi_restore_state
 3312              		.loc 1 323 0
 3313 0048 0121     		movs	r1, #1
 3314              	.LVL305:
 3315              		.loc 1 346 0
 3316 004a BDE83840 		pop	{r3, r4, r5, lr}
 3317              		.cfi_remember_state
 3318              		.cfi_restore 14
 3319              		.cfi_restore 5
 3320              		.cfi_restore 4
 3321              		.cfi_restore 3
 3322              		.cfi_def_cfa_offset 0
 3323              		.loc 1 323 0
 3324 004e FFF7FEBF 		b	tcp_close_shutdown
 3325              	.LVL306:
 3326              	.L454:
 3327              		.cfi_restore_state
 3328              		.loc 1 316 0
ARM GAS  C:\Users\jo\AppData\Local\Temp\ccQTqoh0.s 			page 60


 3329 0052 F320     		movs	r0, #243
 3330              	.LVL307:
 3331 0054 E6E7     		b	.L447
 3332              		.cfi_endproc
 3333              	.LFE264:
 3334              		.size	tcp_shutdown, .-tcp_shutdown
 3335 0056 00BFAFF3 		.section	.text.tcp_abandon,"ax",%progbits
 3335      0080AFF3 
 3335      0080
 3336              		.align	2
 3337              		.p2align 4,,15
 3338              		.global	tcp_abandon
 3339              		.thumb
 3340              		.thumb_func
 3341              		.type	tcp_abandon, %function
 3342              	tcp_abandon:
 3343              	.LFB265:
 3344              		.loc 1 358 0
 3345              		.cfi_startproc
 3346              		@ args = 0, pretend = 0, frame = 0
 3347              		@ frame_needed = 0, uses_anonymous_args = 0
 3348              	.LVL308:
 3349 0000 2DE9F047 		push	{r4, r5, r6, r7, r8, r9, r10, lr}
 3350              		.cfi_def_cfa_offset 32
 3351              		.cfi_offset 4, -32
 3352              		.cfi_offset 5, -28
 3353              		.cfi_offset 6, -24
 3354              		.cfi_offset 7, -20
 3355              		.cfi_offset 8, -16
 3356              		.cfi_offset 9, -12
 3357              		.cfi_offset 10, -8
 3358              		.cfi_offset 14, -4
 3359              		.loc 1 366 0
 3360 0004 037E     		ldrb	r3, [r0, #24]	@ zero_extendqisi2
 3361 0006 012B     		cmp	r3, #1
 3362              		.loc 1 358 0
 3363 0008 82B0     		sub	sp, sp, #8
 3364              		.cfi_def_cfa_offset 40
 3365              		.loc 1 358 0
 3366 000a 0446     		mov	r4, r0
 3367 000c 0E46     		mov	r6, r1
 3368              		.loc 1 366 0
 3369 000e 53D0     		beq	.L481
 3370              	.LVL309:
 3371              	.L462:
 3372              		.loc 1 371 0
 3373 0010 0A2B     		cmp	r3, #10
 3374 0012 47D0     		beq	.L482
 3375              		.loc 1 381 0
 3376 0014 2F48     		ldr	r0, .L485
 3377              		.loc 1 375 0
 3378 0016 D4F85090 		ldr	r9, [r4, #80]
 3379              	.LVL310:
 3380              		.loc 1 376 0
 3381 001a D4F82880 		ldr	r8, [r4, #40]
 3382              	.LVL311:
 3383              		.loc 1 378 0
ARM GAS  C:\Users\jo\AppData\Local\Temp\ccQTqoh0.s 			page 61


 3384 001e D4F88C50 		ldr	r5, [r4, #140]
 3385              	.LVL312:
 3386              		.loc 1 380 0
 3387 0022 2769     		ldr	r7, [r4, #16]
 3388              	.LVL313:
 3389              		.loc 1 381 0
 3390 0024 2146     		mov	r1, r4
 3391 0026 FFF7FEFF 		bl	tcp_pcb_remove
 3392              	.LVL314:
 3393 002a 2B4B     		ldr	r3, .L485+4
 3394              		.loc 1 382 0
 3395 002c 206F     		ldr	r0, [r4, #112]
 3396              		.loc 1 381 0
 3397 002e 0122     		movs	r2, #1
 3398 0030 1A70     		strb	r2, [r3]
 3399              		.loc 1 382 0
 3400 0032 30B1     		cbz	r0, .L468
 3401              	.L467:
 3402              	.LVL315:
 3403              	.LBB200:
 3404              	.LBB201:
 3405              	.LBB202:
 3406              		.loc 1 1131 0
 3407 0034 D0F800A0 		ldr	r10, [r0]
 3408              	.LVL316:
 3409              		.loc 1 1132 0
 3410 0038 FFF7FEFF 		bl	tcp_seg_free
 3411              	.LVL317:
 3412              	.LBE202:
 3413              		.loc 1 1130 0
 3414 003c 5046     		mov	r0, r10
 3415 003e 0028     		cmp	r0, #0
 3416 0040 F8D1     		bne	.L467
 3417              	.LVL318:
 3418              	.L468:
 3419              	.LBE201:
 3420              	.LBE200:
 3421              		.loc 1 385 0
 3422 0042 E06E     		ldr	r0, [r4, #108]
 3423 0044 30B1     		cbz	r0, .L466
 3424              	.L471:
 3425              	.LVL319:
 3426              	.LBB203:
 3427              	.LBB204:
 3428              	.LBB205:
 3429              		.loc 1 1131 0
 3430 0046 D0F800A0 		ldr	r10, [r0]
 3431              	.LVL320:
 3432              		.loc 1 1132 0
 3433 004a FFF7FEFF 		bl	tcp_seg_free
 3434              	.LVL321:
 3435              	.LBE205:
 3436              		.loc 1 1130 0
 3437 004e 5046     		mov	r0, r10
 3438 0050 0028     		cmp	r0, #0
 3439 0052 F8D1     		bne	.L471
 3440              	.LVL322:
ARM GAS  C:\Users\jo\AppData\Local\Temp\ccQTqoh0.s 			page 62


 3441              	.L466:
 3442              	.LBE204:
 3443              	.LBE203:
 3444              		.loc 1 389 0
 3445 0054 606F     		ldr	r0, [r4, #116]
 3446 0056 30B1     		cbz	r0, .L470
 3447              	.L474:
 3448              	.LVL323:
 3449              	.LBB206:
 3450              	.LBB207:
 3451              	.LBB208:
 3452              		.loc 1 1131 0
 3453 0058 D0F800A0 		ldr	r10, [r0]
 3454              	.LVL324:
 3455              		.loc 1 1132 0
 3456 005c FFF7FEFF 		bl	tcp_seg_free
 3457              	.LVL325:
 3458              	.LBE208:
 3459              		.loc 1 1130 0
 3460 0060 5046     		mov	r0, r10
 3461 0062 0028     		cmp	r0, #0
 3462 0064 F8D1     		bne	.L474
 3463              	.LVL326:
 3464              	.L470:
 3465              	.LBE207:
 3466              	.LBE206:
 3467              		.loc 1 393 0
 3468 0066 5EB9     		cbnz	r6, .L483
 3469              		.loc 1 397 0
 3470 0068 2046     		mov	r0, r4
 3471 006a FFF7FEFF 		bl	free
 3472              	.LVL327:
 3473              		.loc 1 398 0
 3474 006e B5B1     		cbz	r5, .L461
 3475              	.L484:
 3476              		.loc 1 398 0 is_stmt 0 discriminator 1
 3477 0070 3846     		mov	r0, r7
 3478 0072 6FF00901 		mvn	r1, #9
 3479 0076 2B46     		mov	r3, r5
 3480              		.loc 1 400 0 is_stmt 1 discriminator 1
 3481 0078 02B0     		add	sp, sp, #8
 3482              		.cfi_remember_state
 3483              		.cfi_def_cfa_offset 32
 3484              		@ sp needed
 3485 007a BDE8F047 		pop	{r4, r5, r6, r7, r8, r9, r10, lr}
 3486              		.cfi_restore 14
 3487              		.cfi_restore 10
 3488              		.cfi_restore 9
 3489              		.cfi_restore 8
 3490              		.cfi_restore 7
 3491              		.cfi_restore 6
 3492              		.cfi_restore 5
 3493              		.cfi_restore 4
 3494              		.cfi_def_cfa_offset 0
 3495              	.LVL328:
 3496              		.loc 1 398 0 discriminator 1
 3497 007e 1847     		bx	r3	@ indirect register sibling call
ARM GAS  C:\Users\jo\AppData\Local\Temp\ccQTqoh0.s 			page 63


 3498              	.LVL329:
 3499              	.L483:
 3500              		.cfi_restore_state
 3501              		.loc 1 395 0
 3502 0080 628B     		ldrh	r2, [r4, #26]
 3503 0082 A38B     		ldrh	r3, [r4, #28]
 3504 0084 0193     		str	r3, [sp, #4]
 3505 0086 0092     		str	r2, [sp]
 3506 0088 4846     		mov	r0, r9
 3507 008a 4146     		mov	r1, r8
 3508 008c 2246     		mov	r2, r4
 3509 008e 231D     		adds	r3, r4, #4
 3510 0090 FFF7FEFF 		bl	tcp_rst
 3511              	.LVL330:
 3512              		.loc 1 397 0
 3513 0094 2046     		mov	r0, r4
 3514 0096 FFF7FEFF 		bl	free
 3515              	.LVL331:
 3516              		.loc 1 398 0
 3517 009a 002D     		cmp	r5, #0
 3518 009c E8D1     		bne	.L484
 3519              	.L461:
 3520              		.loc 1 400 0
 3521 009e 02B0     		add	sp, sp, #8
 3522              		.cfi_remember_state
 3523              		.cfi_def_cfa_offset 32
 3524              		@ sp needed
 3525 00a0 BDE8F087 		pop	{r4, r5, r6, r7, r8, r9, r10, pc}
 3526              	.LVL332:
 3527              	.L482:
 3528              		.cfi_restore_state
 3529              		.loc 1 372 0
 3530 00a4 0D48     		ldr	r0, .L485+8
 3531 00a6 2146     		mov	r1, r4
 3532 00a8 FFF7FEFF 		bl	tcp_pcb_remove
 3533              	.LVL333:
 3534              		.loc 1 373 0
 3535 00ac 2046     		mov	r0, r4
 3536              		.loc 1 400 0
 3537 00ae 02B0     		add	sp, sp, #8
 3538              		.cfi_remember_state
 3539              		.cfi_def_cfa_offset 32
 3540              		@ sp needed
 3541 00b0 BDE8F047 		pop	{r4, r5, r6, r7, r8, r9, r10, lr}
 3542              		.cfi_restore 14
 3543              		.cfi_restore 10
 3544              		.cfi_restore 9
 3545              		.cfi_restore 8
 3546              		.cfi_restore 7
 3547              		.cfi_restore 6
 3548              		.cfi_restore 5
 3549              		.cfi_restore 4
 3550              		.cfi_def_cfa_offset 0
 3551              	.LVL334:
 3552              		.loc 1 373 0
 3553 00b4 FFF7FEBF 		b	free
 3554              	.LVL335:
ARM GAS  C:\Users\jo\AppData\Local\Temp\ccQTqoh0.s 			page 64


 3555              	.L481:
 3556              		.cfi_restore_state
 3557              		.loc 1 366 0 discriminator 1
 3558 00b8 094B     		ldr	r3, .L485+12
 3559 00ba 0093     		str	r3, [sp]
 3560 00bc 0949     		ldr	r1, .L485+16
 3561              	.LVL336:
 3562 00be 0A4A     		ldr	r2, .L485+20
 3563 00c0 0A48     		ldr	r0, .L485+24
 3564              	.LVL337:
 3565 00c2 40F26F13 		movw	r3, #367
 3566 00c6 FFF7FEFF 		bl	chprintf.constprop.4
 3567              	.LVL338:
 3568              	.LBB209:
 3569              	.LBB210:
 3570              		.loc 3 416 0 discriminator 1
 3571 00ca 0748     		ldr	r0, .L485+20
 3572 00cc FFF7FEFF 		bl	chSysHalt
 3573              	.LVL339:
 3574 00d0 237E     		ldrb	r3, [r4, #24]	@ zero_extendqisi2
 3575 00d2 9DE7     		b	.L462
 3576              	.L486:
 3577              		.align	2
 3578              	.L485:
 3579 00d4 00000000 		.word	.LANCHOR7
 3580 00d8 00000000 		.word	.LANCHOR11
 3581 00dc 00000000 		.word	.LANCHOR8
 3582 00e0 50000000 		.word	.LC2
 3583 00e4 00000000 		.word	.LC0
 3584 00e8 60030000 		.word	.LC23
 3585 00ec 00000000 		.word	itm_port
 3586              	.LBE210:
 3587              	.LBE209:
 3588              		.cfi_endproc
 3589              	.LFE265:
 3590              		.size	tcp_abandon, .-tcp_abandon
 3591              		.section	.text.tcp_abort,"ax",%progbits
 3592              		.align	2
 3593              		.p2align 4,,15
 3594              		.global	tcp_abort
 3595              		.thumb
 3596              		.thumb_func
 3597              		.type	tcp_abort, %function
 3598              	tcp_abort:
 3599              	.LFB266:
 3600              		.loc 1 414 0
 3601              		.cfi_startproc
 3602              		@ args = 0, pretend = 0, frame = 0
 3603              		@ frame_needed = 0, uses_anonymous_args = 0
 3604              		@ link register save eliminated.
 3605              	.LVL340:
 3606              		.loc 1 415 0
 3607 0000 0121     		movs	r1, #1
 3608 0002 FFF7FEBF 		b	tcp_abandon
 3609              	.LVL341:
 3610              		.cfi_endproc
 3611              	.LFE266:
ARM GAS  C:\Users\jo\AppData\Local\Temp\ccQTqoh0.s 			page 65


 3612              		.size	tcp_abort, .-tcp_abort
 3613 0006 00BFAFF3 		.section	.text.tcp_alloc,"ax",%progbits
 3613      0080AFF3 
 3613      0080
 3614              		.align	2
 3615              		.p2align 4,,15
 3616              		.global	tcp_alloc
 3617              		.thumb
 3618              		.thumb_func
 3619              		.type	tcp_alloc, %function
 3620              	tcp_alloc:
 3621              	.LFB284:
 3622              		.loc 1 1279 0
 3623              		.cfi_startproc
 3624              		@ args = 0, pretend = 0, frame = 0
 3625              		@ frame_needed = 0, uses_anonymous_args = 0
 3626              	.LVL342:
 3627 0000 2DE9F84F 		push	{r3, r4, r5, r6, r7, r8, r9, r10, fp, lr}
 3628              		.cfi_def_cfa_offset 40
 3629              		.cfi_offset 3, -40
 3630              		.cfi_offset 4, -36
 3631              		.cfi_offset 5, -32
 3632              		.cfi_offset 6, -28
 3633              		.cfi_offset 7, -24
 3634              		.cfi_offset 8, -20
 3635              		.cfi_offset 9, -16
 3636              		.cfi_offset 10, -12
 3637              		.cfi_offset 11, -8
 3638              		.cfi_offset 14, -4
 3639              		.loc 1 1283 0
 3640 0004 4A4B     		ldr	r3, .L515
 3641 0006 5D88     		ldrh	r5, [r3, #2]
 3642              		.loc 1 1279 0
 3643 0008 0746     		mov	r7, r0
 3644              		.loc 1 1283 0
 3645 000a 2846     		mov	r0, r5
 3646              	.LVL343:
 3647 000c FFF7FEFF 		bl	malloc
 3648              	.LVL344:
 3649              		.loc 1 1284 0
 3650 0010 0446     		mov	r4, r0
 3651 0012 0028     		cmp	r0, #0
 3652 0014 43D0     		beq	.L513
 3653              	.L489:
 3654              		.loc 1 1307 0
 3655 0016 0021     		movs	r1, #0
 3656 0018 9822     		movs	r2, #152
 3657 001a 2046     		mov	r0, r4
 3658 001c FFF7FEFF 		bl	memset
 3659              	.LVL345:
 3660              	.LBB221:
 3661              	.LBB222:
 3662              		.loc 1 1575 0
 3663 0020 444D     		ldr	r5, .L515+4
 3664 0022 454B     		ldr	r3, .L515+8
 3665              	.LBE222:
 3666              	.LBE221:
ARM GAS  C:\Users\jo\AppData\Local\Temp\ccQTqoh0.s 			page 66


 3667              		.loc 1 1329 0
 3668 0024 454A     		ldr	r2, .L515+12
 3669              	.LBB226:
 3670              	.LBB223:
 3671              		.loc 1 1575 0
 3672 0026 1E68     		ldr	r6, [r3]
 3673 0028 2B68     		ldr	r3, [r5]
 3674              	.LBE223:
 3675              	.LBE226:
 3676              		.loc 1 1329 0
 3677 002a 92F80090 		ldrb	r9, [r2]	@ zero_extendqisi2
 3678              		.loc 1 1334 0
 3679 002e DFF81CC1 		ldr	ip, .L515+28
 3680              		.loc 1 1338 0
 3681 0032 DFF81CE1 		ldr	lr, .L515+32
 3682              		.loc 1 1308 0
 3683 0036 6776     		strb	r7, [r4, #25]
 3684              	.LBB227:
 3685              	.LBB224:
 3686              		.loc 1 1575 0
 3687 0038 3344     		add	r3, r3, r6
 3688              	.LBE224:
 3689              	.LBE227:
 3690              		.loc 1 1310 0
 3691 003a 0022     		movs	r2, #0
 3692              		.loc 1 1309 0
 3693 003c 41F2D061 		movw	r1, #5840
 3694              		.loc 1 1318 0
 3695 0040 0620     		movs	r0, #6
 3696              		.loc 1 1314 0
 3697 0042 4FF0FF0B 		mov	fp, #255
 3698              		.loc 1 1317 0
 3699 0046 4FF4067A 		mov	r10, #536
 3700              		.loc 1 1321 0
 3701 004a 4FF6FF78 		movw	r8, #65535
 3702              		.loc 1 1322 0
 3703 004e 0127     		movs	r7, #1
 3704              		.loc 1 1328 0
 3705 0050 6662     		str	r6, [r4, #36]
 3706              	.LBB228:
 3707              	.LBB225:
 3708              		.loc 1 1575 0
 3709 0052 2B60     		str	r3, [r5]
 3710              	.LBE225:
 3711              	.LBE228:
 3712              		.loc 1 1324 0
 3713 0054 A365     		str	r3, [r4, #88]
 3714              		.loc 1 1325 0
 3715 0056 2365     		str	r3, [r4, #80]
 3716              		.loc 1 1326 0
 3717 0058 A364     		str	r3, [r4, #72]
 3718              		.loc 1 1327 0
 3719 005a E365     		str	r3, [r4, #92]
 3720              		.loc 1 1329 0
 3721 005c 84F82190 		strb	r9, [r4, #33]
 3722              		.loc 1 1309 0
 3723 0060 A4F86610 		strh	r1, [r4, #102]	@ movhi
ARM GAS  C:\Users\jo\AppData\Local\Temp\ccQTqoh0.s 			page 67


 3724              		.loc 1 1311 0
 3725 0064 A185     		strh	r1, [r4, #44]	@ movhi
 3726              		.loc 1 1312 0
 3727 0066 E185     		strh	r1, [r4, #46]	@ movhi
 3728              		.loc 1 1310 0
 3729 0068 A4F86820 		strh	r2, [r4, #104]	@ movhi
 3730              		.loc 1 1313 0
 3731 006c 6272     		strb	r2, [r4, #9]
 3732              		.loc 1 1319 0
 3733 006e A4F84020 		strh	r2, [r4, #64]	@ movhi
 3734              		.loc 1 1331 0
 3735 0072 E277     		strb	r2, [r4, #31]
 3736              		.loc 1 1345 0
 3737 0074 84F89620 		strb	r2, [r4, #150]
 3738              		.loc 1 1314 0
 3739 0078 84F80AB0 		strb	fp, [r4, #10]
 3740              		.loc 1 1317 0
 3741 007c A4F836A0 		strh	r10, [r4, #54]	@ movhi
 3742              		.loc 1 1318 0
 3743 0080 A4F84400 		strh	r0, [r4, #68]	@ movhi
 3744              		.loc 1 1320 0
 3745 0084 A4F84200 		strh	r0, [r4, #66]	@ movhi
 3746              		.loc 1 1321 0
 3747 0088 A4F83480 		strh	r8, [r4, #52]	@ movhi
 3748              		.loc 1 1322 0
 3749 008c A4F84C70 		strh	r7, [r4, #76]	@ movhi
 3750              		.loc 1 1334 0
 3751 0090 C4F880C0 		str	ip, [r4, #128]
 3752              		.loc 1 1338 0
 3753 0094 C4F890E0 		str	lr, [r4, #144]
 3754              	.L504:
 3755              		.loc 1 1348 0
 3756 0098 2046     		mov	r0, r4
 3757 009a BDE8F88F 		pop	{r3, r4, r5, r6, r7, r8, r9, r10, fp, pc}
 3758              	.LVL346:
 3759              	.L513:
 3760              	.LBB229:
 3761              	.LBB230:
 3762              		.loc 1 1258 0
 3763 009e 284B     		ldr	r3, .L515+16
 3764 00a0 1868     		ldr	r0, [r3]
 3765              	.LVL347:
 3766 00a2 88B1     		cbz	r0, .L491
 3767              		.loc 1 1259 0
 3768 00a4 244B     		ldr	r3, .L515+8
 3769 00a6 416A     		ldr	r1, [r0, #36]
 3770 00a8 1C68     		ldr	r4, [r3]
 3771              	.LVL348:
 3772 00aa 0346     		mov	r3, r0
 3773 00ac 611A     		subs	r1, r4, r1
 3774 00ae 05E0     		b	.L500
 3775              	.LVL349:
 3776              	.L493:
 3777 00b0 5A6A     		ldr	r2, [r3, #36]
 3778 00b2 A21A     		subs	r2, r4, r2
 3779 00b4 8A42     		cmp	r2, r1
 3780 00b6 24BF     		itt	cs
ARM GAS  C:\Users\jo\AppData\Local\Temp\ccQTqoh0.s 			page 68


 3781 00b8 1146     		movcs	r1, r2
 3782              	.LVL350:
 3783 00ba 1846     		movcs	r0, r3
 3784              	.L500:
 3785              	.LVL351:
 3786              		.loc 1 1258 0
 3787 00bc DB68     		ldr	r3, [r3, #12]
 3788              	.LVL352:
 3789 00be 002B     		cmp	r3, #0
 3790 00c0 F6D1     		bne	.L493
 3791              	.LVL353:
 3792              	.LBB231:
 3793              	.LBB232:
 3794              		.loc 1 415 0
 3795 00c2 0121     		movs	r1, #1
 3796              	.LVL354:
 3797 00c4 FFF7FEFF 		bl	tcp_abandon
 3798              	.LVL355:
 3799              	.L491:
 3800              	.LBE232:
 3801              	.LBE231:
 3802              	.LBE230:
 3803              	.LBE229:
 3804              		.loc 1 1289 0
 3805 00c8 2846     		mov	r0, r5
 3806 00ca FFF7FEFF 		bl	malloc
 3807              	.LVL356:
 3808              		.loc 1 1290 0
 3809 00ce 0446     		mov	r4, r0
 3810 00d0 30B1     		cbz	r0, .L514
 3811 00d2 1C4A     		ldr	r2, .L515+20
 3812 00d4 B2F8E030 		ldrh	r3, [r2, #224]
 3813              	.L499:
 3814              		.loc 1 1303 0
 3815 00d8 013B     		subs	r3, r3, #1
 3816 00da A2F8E030 		strh	r3, [r2, #224]	@ movhi
 3817 00de 9AE7     		b	.L489
 3818              	.L514:
 3819              	.LVL357:
 3820              	.LBB233:
 3821              	.LBB234:
 3822              		.loc 1 1229 0
 3823 00e0 194B     		ldr	r3, .L515+24
 3824 00e2 1B68     		ldr	r3, [r3]
 3825              	.LVL358:
 3826 00e4 BBB1     		cbz	r3, .L495
 3827              		.loc 1 1232 0
 3828 00e6 144A     		ldr	r2, .L515+8
 3829 00e8 D2F800E0 		ldr	lr, [r2]
 3830 00ec 7F26     		movs	r6, #127
 3831              	.LVL359:
 3832              	.L497:
 3833              		.loc 1 1230 0
 3834 00ee 5A7E     		ldrb	r2, [r3, #25]	@ zero_extendqisi2
 3835 00f0 9742     		cmp	r7, r2
 3836 00f2 09D3     		bcc	.L496
 3837 00f4 B242     		cmp	r2, r6
ARM GAS  C:\Users\jo\AppData\Local\Temp\ccQTqoh0.s 			page 69


 3838 00f6 07D8     		bhi	.L496
 3839              		.loc 1 1232 0
 3840 00f8 596A     		ldr	r1, [r3, #36]
 3841 00fa C1EB0E01 		rsb	r1, r1, lr
 3842              		.loc 1 1231 0
 3843 00fe A142     		cmp	r1, r4
 3844 0100 02D3     		bcc	.L496
 3845 0102 1646     		mov	r6, r2
 3846              	.LVL360:
 3847 0104 0C46     		mov	r4, r1
 3848              	.LVL361:
 3849 0106 1846     		mov	r0, r3
 3850              	.L496:
 3851              	.LVL362:
 3852              		.loc 1 1229 0
 3853 0108 DB68     		ldr	r3, [r3, #12]
 3854              	.LVL363:
 3855 010a 002B     		cmp	r3, #0
 3856 010c EFD1     		bne	.L497
 3857              		.loc 1 1238 0
 3858 010e 10B1     		cbz	r0, .L495
 3859              	.LVL364:
 3860              	.LBB235:
 3861              	.LBB236:
 3862              		.loc 1 415 0
 3863 0110 0121     		movs	r1, #1
 3864 0112 FFF7FEFF 		bl	tcp_abandon
 3865              	.LVL365:
 3866              	.L495:
 3867              	.LBE236:
 3868              	.LBE235:
 3869              	.LBE234:
 3870              	.LBE233:
 3871              		.loc 1 1295 0
 3872 0116 2846     		mov	r0, r5
 3873 0118 FFF7FEFF 		bl	malloc
 3874              	.LVL366:
 3875              		.loc 1 1296 0
 3876 011c 0446     		mov	r4, r0
 3877 011e 0028     		cmp	r0, #0
 3878 0120 BAD0     		beq	.L504
 3879              		.loc 1 1298 0
 3880 0122 084A     		ldr	r2, .L515+20
 3881 0124 B2F8E030 		ldrh	r3, [r2, #224]
 3882 0128 013B     		subs	r3, r3, #1
 3883 012a 9BB2     		uxth	r3, r3
 3884 012c D4E7     		b	.L499
 3885              	.L516:
 3886 012e 00BF     		.align	2
 3887              	.L515:
 3888 0130 00000000 		.word	memp_sizes
 3889 0134 00000000 		.word	.LANCHOR13
 3890 0138 00000000 		.word	.LANCHOR5
 3891 013c 00000000 		.word	.LANCHOR6
 3892 0140 00000000 		.word	.LANCHOR8
 3893 0144 00000000 		.word	lwip_stats
 3894 0148 00000000 		.word	.LANCHOR7
ARM GAS  C:\Users\jo\AppData\Local\Temp\ccQTqoh0.s 			page 70


 3895 014c 00000000 		.word	tcp_recv_null
 3896 0150 00DD6D00 		.word	7200000
 3897              		.cfi_endproc
 3898              	.LFE284:
 3899              		.size	tcp_alloc, .-tcp_alloc
 3900 0154 AFF30080 		.section	.text.tcp_new,"ax",%progbits
 3900      AFF30080 
 3900      AFF30080 
 3901              		.align	2
 3902              		.p2align 4,,15
 3903              		.global	tcp_new
 3904              		.thumb
 3905              		.thumb_func
 3906              		.type	tcp_new, %function
 3907              	tcp_new:
 3908              	.LFB285:
 3909              		.loc 1 1364 0
 3910              		.cfi_startproc
 3911              		@ args = 0, pretend = 0, frame = 0
 3912              		@ frame_needed = 0, uses_anonymous_args = 0
 3913              		@ link register save eliminated.
 3914              		.loc 1 1365 0
 3915 0000 4020     		movs	r0, #64
 3916 0002 FFF7FEBF 		b	tcp_alloc
 3917              	.LVL367:
 3918              		.cfi_endproc
 3919              	.LFE285:
 3920              		.size	tcp_new, .-tcp_new
 3921 0006 00BFAFF3 		.section	.text.tcp_next_iss,"ax",%progbits
 3921      0080AFF3 
 3921      0080
 3922              		.align	2
 3923              		.p2align 4,,15
 3924              		.global	tcp_next_iss
 3925              		.thumb
 3926              		.thumb_func
 3927              		.type	tcp_next_iss, %function
 3928              	tcp_next_iss:
 3929              	.LFB294:
 3930              		.loc 1 1572 0
 3931              		.cfi_startproc
 3932              		@ args = 0, pretend = 0, frame = 0
 3933              		@ frame_needed = 0, uses_anonymous_args = 0
 3934              		@ link register save eliminated.
 3935              		.loc 1 1575 0
 3936 0000 034A     		ldr	r2, .L519
 3937 0002 044B     		ldr	r3, .L519+4
 3938 0004 1868     		ldr	r0, [r3]
 3939 0006 1368     		ldr	r3, [r2]
 3940 0008 1844     		add	r0, r0, r3
 3941 000a 1060     		str	r0, [r2]
 3942              		.loc 1 1577 0
 3943 000c 7047     		bx	lr
 3944              	.L520:
 3945 000e 00BF     		.align	2
 3946              	.L519:
 3947 0010 00000000 		.word	.LANCHOR13
ARM GAS  C:\Users\jo\AppData\Local\Temp\ccQTqoh0.s 			page 71


 3948 0014 00000000 		.word	.LANCHOR5
 3949              		.cfi_endproc
 3950              	.LFE294:
 3951              		.size	tcp_next_iss, .-tcp_next_iss
 3952 0018 AFF30080 		.section	.text.tcp_eff_send_mss,"ax",%progbits
 3952      AFF30080 
 3953              		.align	2
 3954              		.p2align 4,,15
 3955              		.global	tcp_eff_send_mss
 3956              		.thumb
 3957              		.thumb_func
 3958              		.type	tcp_eff_send_mss, %function
 3959              	tcp_eff_send_mss:
 3960              	.LFB295:
 3961              		.loc 1 1587 0
 3962              		.cfi_startproc
 3963              		@ args = 0, pretend = 0, frame = 0
 3964              		@ frame_needed = 0, uses_anonymous_args = 0
 3965              	.LVL368:
 3966 0000 10B5     		push	{r4, lr}
 3967              		.cfi_def_cfa_offset 8
 3968              		.cfi_offset 4, -8
 3969              		.cfi_offset 14, -4
 3970              		.loc 1 1587 0
 3971 0002 0446     		mov	r4, r0
 3972              		.loc 1 1591 0
 3973 0004 0846     		mov	r0, r1
 3974              	.LVL369:
 3975 0006 FFF7FEFF 		bl	ip_route
 3976              	.LVL370:
 3977              		.loc 1 1592 0
 3978 000a 30B1     		cbz	r0, .L522
 3979              		.loc 1 1592 0 is_stmt 0 discriminator 1
 3980 000c 038C     		ldrh	r3, [r0, #32]
 3981 000e 23B1     		cbz	r3, .L522
 3982              	.LVL371:
 3983              		.loc 1 1593 0 is_stmt 1
 3984 0010 283B     		subs	r3, r3, #40
 3985              	.LVL372:
 3986              		.loc 1 1598 0
 3987 0012 9BB2     		uxth	r3, r3
 3988              	.LVL373:
 3989 0014 9C42     		cmp	r4, r3
 3990 0016 28BF     		it	cs
 3991 0018 1C46     		movcs	r4, r3
 3992              	.LVL374:
 3993              	.L522:
 3994              		.loc 1 1601 0
 3995 001a 2046     		mov	r0, r4
 3996              	.LVL375:
 3997 001c 10BD     		pop	{r4, pc}
 3998              		.cfi_endproc
 3999              	.LFE295:
 4000              		.size	tcp_eff_send_mss, .-tcp_eff_send_mss
 4001 001e 00BF     		.section	.text.tcp_connect,"ax",%progbits
 4002              		.align	2
 4003              		.p2align 4,,15
ARM GAS  C:\Users\jo\AppData\Local\Temp\ccQTqoh0.s 			page 72


 4004              		.global	tcp_connect
 4005              		.thumb
 4006              		.thumb_func
 4007              		.type	tcp_connect, %function
 4008              	tcp_connect:
 4009              	.LFB273:
 4010              		.loc 1 686 0
 4011              		.cfi_startproc
 4012              		@ args = 0, pretend = 0, frame = 0
 4013              		@ frame_needed = 0, uses_anonymous_args = 0
 4014              	.LVL376:
 4015 0000 2DE9F041 		push	{r4, r5, r6, r7, r8, lr}
 4016              		.cfi_def_cfa_offset 24
 4017              		.cfi_offset 4, -24
 4018              		.cfi_offset 5, -20
 4019              		.cfi_offset 6, -16
 4020              		.cfi_offset 7, -12
 4021              		.cfi_offset 8, -8
 4022              		.cfi_offset 14, -4
 4023 0004 0D46     		mov	r5, r1
 4024              		.loc 1 691 0
 4025 0006 017E     		ldrb	r1, [r0, #24]	@ zero_extendqisi2
 4026              	.LVL377:
 4027              		.loc 1 686 0
 4028 0008 82B0     		sub	sp, sp, #8
 4029              		.cfi_def_cfa_offset 32
 4030              		.loc 1 686 0
 4031 000a 0446     		mov	r4, r0
 4032              		.loc 1 691 0
 4033 000c 0029     		cmp	r1, #0
 4034 000e 77D1     		bne	.L555
 4035              		.loc 1 694 0
 4036 0010 002D     		cmp	r5, #0
 4037 0012 00F08380 		beq	.L546
 4038 0016 1F46     		mov	r7, r3
 4039              		.loc 1 702 0
 4040 0018 0368     		ldr	r3, [r0]
 4041              	.LVL378:
 4042              		.loc 1 695 0
 4043 001a 2968     		ldr	r1, [r5]
 4044 001c 4160     		str	r1, [r0, #4]
 4045              		.loc 1 699 0
 4046 001e 8283     		strh	r2, [r0, #28]	@ movhi
 4047              		.loc 1 702 0
 4048 0020 33B9     		cbnz	r3, .L533
 4049              	.LBB237:
 4050              		.loc 1 704 0
 4051 0022 0430     		adds	r0, r0, #4
 4052              	.LVL379:
 4053 0024 FFF7FEFF 		bl	ip_route
 4054              	.LVL380:
 4055              		.loc 1 705 0
 4056 0028 0028     		cmp	r0, #0
 4057 002a 79D0     		beq	.L547
 4058              		.loc 1 711 0
 4059 002c 4368     		ldr	r3, [r0, #4]
 4060 002e 2360     		str	r3, [r4]
ARM GAS  C:\Users\jo\AppData\Local\Temp\ccQTqoh0.s 			page 73


 4061              	.LVL381:
 4062              	.L533:
 4063              	.LBE237:
 4064              		.loc 1 714 0
 4065 0030 668B     		ldrh	r6, [r4, #26]
 4066              	.LVL382:
 4067              		.loc 1 715 0
 4068 0032 26B9     		cbnz	r6, .L536
 4069              		.loc 1 716 0
 4070 0034 FFF7FEFF 		bl	tcp_new_port
 4071              	.LVL383:
 4072 0038 6083     		strh	r0, [r4, #26]	@ movhi
 4073              		.loc 1 717 0
 4074 003a 0028     		cmp	r0, #0
 4075 003c 5BD0     		beq	.L556
 4076              	.L536:
 4077              	.LBB238:
 4078              	.LBB239:
 4079              		.loc 1 1575 0
 4080 003e DFF808E1 		ldr	lr, .L560+36
 4081 0042 384B     		ldr	r3, .L560
 4082 0044 1A68     		ldr	r2, [r3]
 4083 0046 DEF80030 		ldr	r3, [lr]
 4084 004a 1344     		add	r3, r3, r2
 4085              	.LBE239:
 4086              	.LBE238:
 4087              		.loc 1 744 0
 4088 004c 03F1FF38 		add	r8, r3, #-1
 4089              		.loc 1 746 0
 4090 0050 41F2D062 		movw	r2, #5840
 4091              		.loc 1 742 0
 4092 0054 4FF0000C 		mov	ip, #0
 4093              		.loc 1 752 0
 4094 0058 4FF40670 		mov	r0, #536
 4095              		.loc 1 754 0
 4096 005c 2946     		mov	r1, r5
 4097              		.loc 1 743 0
 4098 005e 2365     		str	r3, [r4, #80]
 4099              		.loc 1 746 0
 4100 0060 A285     		strh	r2, [r4, #44]	@ movhi
 4101              		.loc 1 747 0
 4102 0062 E285     		strh	r2, [r4, #46]	@ movhi
 4103              		.loc 1 749 0
 4104 0064 A4F86020 		strh	r2, [r4, #96]	@ movhi
 4105              		.loc 1 744 0
 4106 0068 C4F84880 		str	r8, [r4, #72]
 4107              		.loc 1 745 0
 4108 006c C4F85C80 		str	r8, [r4, #92]
 4109              		.loc 1 742 0
 4110 0070 C4F828C0 		str	ip, [r4, #40]
 4111              		.loc 1 748 0
 4112 0074 C4F830C0 		str	ip, [r4, #48]
 4113              		.loc 1 752 0
 4114 0078 E086     		strh	r0, [r4, #54]	@ movhi
 4115              	.LBB241:
 4116              	.LBB240:
 4117              		.loc 1 1575 0
ARM GAS  C:\Users\jo\AppData\Local\Temp\ccQTqoh0.s 			page 74


 4118 007a CEF80030 		str	r3, [lr]
 4119              	.LBE240:
 4120              	.LBE241:
 4121              		.loc 1 754 0
 4122 007e FFF7FEFF 		bl	tcp_eff_send_mss
 4123              	.LVL384:
 4124              		.loc 1 757 0
 4125 0082 00EB8003 		add	r3, r0, r0, lsl #2
 4126 0086 5B00     		lsls	r3, r3, #1
 4127              		.loc 1 756 0
 4128 0088 0122     		movs	r2, #1
 4129              		.loc 1 754 0
 4130 008a E086     		strh	r0, [r4, #54]	@ movhi
 4131              		.loc 1 757 0
 4132 008c A4F84E30 		strh	r3, [r4, #78]	@ movhi
 4133              		.loc 1 759 0
 4134 0090 C4F88470 		str	r7, [r4, #132]
 4135              		.loc 1 756 0
 4136 0094 A4F84C20 		strh	r2, [r4, #76]	@ movhi
 4137              		.loc 1 765 0
 4138 0098 2046     		mov	r0, r4
 4139 009a 0221     		movs	r1, #2
 4140 009c FFF7FEFF 		bl	tcp_enqueue_flags
 4141              	.LVL385:
 4142              		.loc 1 766 0
 4143 00a0 00BB     		cbnz	r0, .L532
 4144              		.loc 1 768 0
 4145 00a2 0223     		movs	r3, #2
 4146 00a4 2376     		strb	r3, [r4, #24]
 4147              		.loc 1 769 0
 4148 00a6 86B1     		cbz	r6, .L537
 4149              		.loc 1 770 0
 4150 00a8 1F4B     		ldr	r3, .L560+4
 4151 00aa 1A68     		ldr	r2, [r3]
 4152 00ac A242     		cmp	r2, r4
 4153 00ae 24D0     		beq	.L557
 4154              		.loc 1 770 0 is_stmt 0 discriminator 2
 4155 00b0 1E49     		ldr	r1, .L560+8
 4156 00b2 0A60     		str	r2, [r1]
 4157 00b4 4AB1     		cbz	r2, .L537
 4158              		.loc 1 770 0
 4159 00b6 D368     		ldr	r3, [r2, #12]
 4160 00b8 A342     		cmp	r3, r4
 4161 00ba 19D0     		beq	.L541
 4162              	.L543:
 4163              		.loc 1 770 0 discriminator 6
 4164 00bc 23B1     		cbz	r3, .L558
 4165              		.loc 1 770 0 discriminator 9
 4166 00be DA68     		ldr	r2, [r3, #12]
 4167 00c0 A242     		cmp	r2, r4
 4168 00c2 13D0     		beq	.L559
 4169 00c4 1346     		mov	r3, r2
 4170 00c6 F9E7     		b	.L543
 4171              	.L558:
 4172 00c8 0B60     		str	r3, [r1]
 4173              	.L537:
 4174              		.loc 1 772 0 is_stmt 1
ARM GAS  C:\Users\jo\AppData\Local\Temp\ccQTqoh0.s 			page 75


 4175 00ca 194B     		ldr	r3, .L560+12
 4176 00cc 1A68     		ldr	r2, [r3]
 4177 00ce E260     		str	r2, [r4, #12]
 4178 00d0 1C60     		str	r4, [r3]
 4179 00d2 FFF7FEFF 		bl	tcp_timer_needed
 4180              	.LVL386:
 4181 00d6 174B     		ldr	r3, .L560+16
 4182 00d8 0122     		movs	r2, #1
 4183              		.loc 1 775 0
 4184 00da 2046     		mov	r0, r4
 4185              		.loc 1 772 0
 4186 00dc 1A70     		strb	r2, [r3]
 4187              		.loc 1 775 0
 4188 00de FFF7FEFF 		bl	tcp_output
 4189              	.LVL387:
 4190 00e2 0020     		movs	r0, #0
 4191              	.LVL388:
 4192              	.L532:
 4193              		.loc 1 778 0
 4194 00e4 40B2     		sxtb	r0, r0
 4195 00e6 02B0     		add	sp, sp, #8
 4196              		.cfi_remember_state
 4197              		.cfi_def_cfa_offset 24
 4198              		@ sp needed
 4199 00e8 BDE8F081 		pop	{r4, r5, r6, r7, r8, pc}
 4200              	.LVL389:
 4201              	.L559:
 4202              		.cfi_restore_state
 4203 00ec 1A46     		mov	r2, r3
 4204 00ee 0B60     		str	r3, [r1]
 4205              	.L541:
 4206              		.loc 1 770 0 discriminator 5
 4207 00f0 E368     		ldr	r3, [r4, #12]
 4208 00f2 D360     		str	r3, [r2, #12]
 4209 00f4 E9E7     		b	.L537
 4210              	.LVL390:
 4211              	.L556:
 4212              		.loc 1 718 0
 4213 00f6 FE20     		movs	r0, #254
 4214 00f8 F4E7     		b	.L532
 4215              	.LVL391:
 4216              	.L557:
 4217              		.loc 1 770 0 discriminator 1
 4218 00fa E268     		ldr	r2, [r4, #12]
 4219 00fc 1A60     		str	r2, [r3]
 4220 00fe E4E7     		b	.L537
 4221              	.LVL392:
 4222              	.L555:
 4223              		.loc 1 691 0 discriminator 1
 4224 0100 0D4B     		ldr	r3, .L560+20
 4225              	.LVL393:
 4226 0102 0093     		str	r3, [sp]
 4227 0104 0D49     		ldr	r1, .L560+24
 4228 0106 0E4A     		ldr	r2, .L560+28
 4229              	.LVL394:
 4230 0108 0E48     		ldr	r0, .L560+32
 4231              	.LVL395:
ARM GAS  C:\Users\jo\AppData\Local\Temp\ccQTqoh0.s 			page 76


 4232 010a 40F2B323 		movw	r3, #691
 4233 010e FFF7FEFF 		bl	chprintf.constprop.4
 4234              	.LVL396:
 4235              	.LBB242:
 4236              	.LBB243:
 4237              		.loc 3 416 0 discriminator 1
 4238 0112 0B48     		ldr	r0, .L560+28
 4239 0114 FFF7FEFF 		bl	chSysHalt
 4240              	.LVL397:
 4241              	.LBE243:
 4242              	.LBE242:
 4243              		.loc 1 691 0 discriminator 1
 4244 0118 F720     		movs	r0, #247
 4245 011a E3E7     		b	.L532
 4246              	.LVL398:
 4247              	.L546:
 4248              		.loc 1 697 0
 4249 011c FA20     		movs	r0, #250
 4250              	.LVL399:
 4251 011e E1E7     		b	.L532
 4252              	.LVL400:
 4253              	.L547:
 4254              	.LBB244:
 4255              		.loc 1 708 0
 4256 0120 FC20     		movs	r0, #252
 4257              	.LVL401:
 4258 0122 DFE7     		b	.L532
 4259              	.L561:
 4260              		.align	2
 4261              	.L560:
 4262 0124 00000000 		.word	.LANCHOR5
 4263 0128 00000000 		.word	.LANCHOR2
 4264 012c 00000000 		.word	.LANCHOR3
 4265 0130 00000000 		.word	.LANCHOR7
 4266 0134 00000000 		.word	.LANCHOR11
 4267 0138 50000000 		.word	.LC2
 4268 013c 00000000 		.word	.LC0
 4269 0140 94030000 		.word	.LC24
 4270 0144 00000000 		.word	itm_port
 4271 0148 00000000 		.word	.LANCHOR13
 4272              	.LBE244:
 4273              		.cfi_endproc
 4274              	.LFE273:
 4275              		.size	tcp_connect, .-tcp_connect
 4276 014c AFF30080 		.section	.text.tcp_debug_state_str,"ax",%progbits
 4277              		.align	2
 4278              		.p2align 4,,15
 4279              		.global	tcp_debug_state_str
 4280              		.thumb
 4281              		.thumb_func
 4282              		.type	tcp_debug_state_str, %function
 4283              	tcp_debug_state_str:
 4284              	.LFB296:
 4285              		.loc 1 1606 0
 4286              		.cfi_startproc
 4287              		@ args = 0, pretend = 0, frame = 0
 4288              		@ frame_needed = 0, uses_anonymous_args = 0
ARM GAS  C:\Users\jo\AppData\Local\Temp\ccQTqoh0.s 			page 77


 4289              		@ link register save eliminated.
 4290              	.LVL402:
 4291              		.loc 1 1607 0
 4292 0000 014B     		ldr	r3, .L563
 4293              		.loc 1 1608 0
 4294 0002 53F82000 		ldr	r0, [r3, r0, lsl #2]
 4295              	.LVL403:
 4296 0006 7047     		bx	lr
 4297              	.L564:
 4298              		.align	2
 4299              	.L563:
 4300 0008 00000000 		.word	.LANCHOR14
 4301              		.cfi_endproc
 4302              	.LFE296:
 4303              		.size	tcp_debug_state_str, .-tcp_debug_state_str
 4304              		.global	tcp_active_pcbs_changed
 4305              		.global	tcp_tmp_pcb
 4306              		.global	tcp_pcb_lists
 4307              		.global	tcp_tw_pcbs
 4308              		.global	tcp_active_pcbs
 4309              		.global	tcp_listen_pcbs
 4310              		.global	tcp_bound_pcbs
 4311              		.global	tcp_persist_backoff
 4312              		.global	tcp_backoff
 4313              		.global	tcp_ticks
 4314              		.global	tcp_state_str
 4315 000c AFF30080 		.section	.bss.tcp_active_pcbs_changed,"aw",%nobits
 4316              		.set	.LANCHOR11,. + 0
 4317              		.type	tcp_active_pcbs_changed, %object
 4318              		.size	tcp_active_pcbs_changed, 1
 4319              	tcp_active_pcbs_changed:
 4320 0000 00       		.space	1
 4321              		.section	.bss.tcp_tw_pcbs,"aw",%nobits
 4322              		.align	2
 4323              		.set	.LANCHOR8,. + 0
 4324              		.type	tcp_tw_pcbs, %object
 4325              		.size	tcp_tw_pcbs, 4
 4326              	tcp_tw_pcbs:
 4327 0000 00000000 		.space	4
 4328              		.section	.rodata.tcp_state_str,"a",%progbits
 4329              		.align	2
 4330              		.set	.LANCHOR14,. + 0
 4331              		.type	tcp_state_str, %object
 4332              		.size	tcp_state_str, 44
 4333              	tcp_state_str:
 4334 0000 C4030000 		.word	.LC25
 4335 0004 CC030000 		.word	.LC26
 4336 0008 D4030000 		.word	.LC27
 4337 000c E0030000 		.word	.LC28
 4338 0010 EC030000 		.word	.LC29
 4339 0014 F8030000 		.word	.LC30
 4340 0018 04040000 		.word	.LC31
 4341 001c 10040000 		.word	.LC32
 4342 0020 1C040000 		.word	.LC33
 4343 0024 24040000 		.word	.LC34
 4344 0028 30040000 		.word	.LC35
 4345              		.section	.rodata.tcp_pcb_lists,"a",%progbits
ARM GAS  C:\Users\jo\AppData\Local\Temp\ccQTqoh0.s 			page 78


 4346              		.align	2
 4347              		.set	.LANCHOR1,. + 0
 4348              		.type	tcp_pcb_lists, %object
 4349              		.size	tcp_pcb_lists, 16
 4350              	tcp_pcb_lists:
 4351 0000 00000000 		.word	tcp_listen_pcbs
 4352 0004 00000000 		.word	tcp_bound_pcbs
 4353 0008 00000000 		.word	tcp_active_pcbs
 4354 000c 00000000 		.word	tcp_tw_pcbs
 4355              		.section	.bss.tcp_ticks,"aw",%nobits
 4356              		.align	2
 4357              		.set	.LANCHOR5,. + 0
 4358              		.type	tcp_ticks, %object
 4359              		.size	tcp_ticks, 4
 4360              	tcp_ticks:
 4361 0000 00000000 		.space	4
 4362              		.section	.bss.tcp_timer,"aw",%nobits
 4363              		.set	.LANCHOR12,. + 0
 4364              		.type	tcp_timer, %object
 4365              		.size	tcp_timer, 1
 4366              	tcp_timer:
 4367 0000 00       		.space	1
 4368              		.section	.data.iss.9034,"aw",%progbits
 4369              		.align	2
 4370              		.set	.LANCHOR13,. + 0
 4371              		.type	iss.9034, %object
 4372              		.size	iss.9034, 4
 4373              	iss.9034:
 4374 0000 6E190000 		.word	6510
 4375              		.section	.rodata.tcp_backoff,"a",%progbits
 4376              		.align	2
 4377              		.set	.LANCHOR10,. + 0
 4378              		.type	tcp_backoff, %object
 4379              		.size	tcp_backoff, 13
 4380              	tcp_backoff:
 4381 0000 01       		.byte	1
 4382 0001 02       		.byte	2
 4383 0002 03       		.byte	3
 4384 0003 04       		.byte	4
 4385 0004 05       		.byte	5
 4386 0005 06       		.byte	6
 4387 0006 07       		.byte	7
 4388 0007 07       		.byte	7
 4389 0008 07       		.byte	7
 4390 0009 07       		.byte	7
 4391 000a 07       		.byte	7
 4392 000b 07       		.byte	7
 4393 000c 07       		.byte	7
 4394 000d 000000   		.section	.bss.tcp_listen_pcbs,"aw",%nobits
 4395              		.align	2
 4396              		.set	.LANCHOR4,. + 0
 4397              		.type	tcp_listen_pcbs, %object
 4398              		.size	tcp_listen_pcbs, 4
 4399              	tcp_listen_pcbs:
 4400 0000 00000000 		.space	4
 4401              		.section	.data.tcp_port,"aw",%progbits
 4402              		.align	1
ARM GAS  C:\Users\jo\AppData\Local\Temp\ccQTqoh0.s 			page 79


 4403              		.set	.LANCHOR0,. + 0
 4404              		.type	tcp_port, %object
 4405              		.size	tcp_port, 2
 4406              	tcp_port:
 4407 0000 00C0     		.short	-16384
 4408              		.section	.bss.tcp_active_pcbs,"aw",%nobits
 4409              		.align	2
 4410              		.set	.LANCHOR7,. + 0
 4411              		.type	tcp_active_pcbs, %object
 4412              		.size	tcp_active_pcbs, 4
 4413              	tcp_active_pcbs:
 4414 0000 00000000 		.space	4
 4415              		.section	.bss.tcp_timer_ctr,"aw",%nobits
 4416              		.set	.LANCHOR6,. + 0
 4417              		.type	tcp_timer_ctr, %object
 4418              		.size	tcp_timer_ctr, 1
 4419              	tcp_timer_ctr:
 4420 0000 00       		.space	1
 4421              		.section	.rodata.str1.4,"aMS",%progbits,1
 4422              		.align	2
 4423              	.LC0:
 4424 0000 41737365 		.ascii	"Assertion \"%s\" failed at line %d in %s\012\000"
 4424      7274696F 
 4424      6E202225 
 4424      73222066 
 4424      61696C65 
 4425              	.LC1:
 4426 0028 7463705F 		.ascii	"tcp_bind: can only bind in state CLOSED\000"
 4426      62696E64 
 4426      3A206361 
 4426      6E206F6E 
 4426      6C792062 
 4427              	.LC2:
 4428 0050 2E2E2F2E 		.ascii	"../../../ext/lwip/src/core/tcp.c\000"
 4428      2E2F2E2E 
 4428      2F657874 
 4428      2F6C7769 
 4428      702F7372 
 4429 0071 000000   		.space	3
 4430              	.LC3:
 4431 0074 7463705F 		.ascii	"tcp_listen: pcb already connected\000"
 4431      6C697374 
 4431      656E3A20 
 4431      70636220 
 4431      616C7265 
 4432 0096 0000     		.space	2
 4433              	.LC4:
 4434 0098 6E65775F 		.ascii	"new_rcv_ann_wnd <= 0xffff\000"
 4434      7263765F 
 4434      616E6E5F 
 4434      776E6420 
 4434      3C3D2030 
 4435 00b2 0000     		.space	2
 4436              	.LC5:
 4437 00b4 646F6E27 		.ascii	"don't call tcp_recved for listen-pcbs\000"
 4437      74206361 
 4437      6C6C2074 
ARM GAS  C:\Users\jo\AppData\Local\Temp\ccQTqoh0.s 			page 80


 4437      63705F72 
 4437      65637665 
 4438 00da 0000     		.space	2
 4439              	.LC6:
 4440 00dc 7463705F 		.ascii	"tcp_recved: len would wrap rcv_wnd\012\000"
 4440      72656376 
 4440      65643A20 
 4440      6C656E20 
 4440      776F756C 
 4441              	.LC7:
 4442 0100 696E7661 		.ascii	"invalid socket state for recv callback\000"
 4442      6C696420 
 4442      736F636B 
 4442      65742073 
 4442      74617465 
 4443 0127 00       		.space	1
 4444              	.LC8:
 4445 0128 696E7661 		.ascii	"invalid socket state for sent callback\000"
 4445      6C696420 
 4445      736F636B 
 4445      65742073 
 4445      74617465 
 4446 014f 00       		.space	1
 4447              	.LC9:
 4448 0150 696E7661 		.ascii	"invalid socket state for err callback\000"
 4448      6C696420 
 4448      736F636B 
 4448      65742073 
 4448      74617465 
 4449 0176 0000     		.space	2
 4450              	.LC10:
 4451 0178 696E7661 		.ascii	"invalid socket state for poll\000"
 4451      6C696420 
 4451      736F636B 
 4451      65742073 
 4451      74617465 
 4452 0196 0000     		.space	2
 4453              	.LC11:
 4454 0198 7463705F 		.ascii	"tcp_slowtmr: active pcb->state != CLOSED\012\000"
 4454      736C6F77 
 4454      746D723A 
 4454      20616374 
 4454      69766520 
 4455 01c2 0000     		.space	2
 4456              	.LC12:
 4457 01c4 7463705F 		.ascii	"tcp_slowtmr: active pcb->state != LISTEN\012\000"
 4457      736C6F77 
 4457      746D723A 
 4457      20616374 
 4457      69766520 
 4458 01ee 0000     		.space	2
 4459              	.LC13:
 4460 01f0 7463705F 		.ascii	"tcp_slowtmr: active pcb->state != TIME-WAIT\012\000"
 4460      736C6F77 
 4460      746D723A 
 4460      20616374 
 4460      69766520 
ARM GAS  C:\Users\jo\AppData\Local\Temp\ccQTqoh0.s 			page 81


 4461 021d 000000   		.space	3
 4462              	.LC14:
 4463 0220 7463705F 		.ascii	"tcp_slowtmr: middle tcp != tcp_active_pcbs\000"
 4463      736C6F77 
 4463      746D723A 
 4463      206D6964 
 4463      646C6520 
 4464 024b 00       		.space	1
 4465              	.LC15:
 4466 024c 7463705F 		.ascii	"tcp_slowtmr: first pcb == tcp_active_pcbs\000"
 4466      736C6F77 
 4466      746D723A 
 4466      20666972 
 4466      73742070 
 4467 0276 0000     		.space	2
 4468              	.LC16:
 4469 0278 7463705F 		.ascii	"tcp_slowtmr: TIME-WAIT pcb->state == TIME-WAIT\000"
 4469      736C6F77 
 4469      746D723A 
 4469      2054494D 
 4469      452D5741 
 4470 02a7 00       		.space	1
 4471              	.LC17:
 4472 02a8 7463705F 		.ascii	"tcp_slowtmr: middle tcp != tcp_tw_pcbs\000"
 4472      736C6F77 
 4472      746D723A 
 4472      206D6964 
 4472      646C6520 
 4473 02cf 00       		.space	1
 4474              	.LC18:
 4475 02d0 7463705F 		.ascii	"tcp_slowtmr: first pcb == tcp_tw_pcbs\000"
 4475      736C6F77 
 4475      746D723A 
 4475      20666972 
 4475      73742070 
 4476 02f6 0000     		.space	2
 4477              	.LC19:
 4478 02f8 756E7365 		.ascii	"unsent segments leaking\000"
 4478      6E742073 
 4478      65676D65 
 4478      6E747320 
 4478      6C65616B 
 4479              	.LC20:
 4480 0310 756E6163 		.ascii	"unacked segments leaking\000"
 4480      6B656420 
 4480      7365676D 
 4480      656E7473 
 4480      206C6561 
 4481 0329 000000   		.space	3
 4482              	.LC21:
 4483 032c 6F6F7365 		.ascii	"ooseq segments leaking\000"
 4483      71207365 
 4483      676D656E 
 4483      7473206C 
 4483      65616B69 
 4484 0343 00       		.space	1
 4485              	.LC22:
ARM GAS  C:\Users\jo\AppData\Local\Temp\ccQTqoh0.s 			page 82


 4486 0344 7063622D 		.ascii	"pcb->flags & TF_RXCLOSED\000"
 4486      3E666C61 
 4486      67732026 
 4486      2054465F 
 4486      5258434C 
 4487 035d 000000   		.space	3
 4488              	.LC23:
 4489 0360 646F6E27 		.ascii	"don't call tcp_abort/tcp_abandon for listen-pcbs\000"
 4489      74206361 
 4489      6C6C2074 
 4489      63705F61 
 4489      626F7274 
 4490 0391 000000   		.space	3
 4491              	.LC24:
 4492 0394 7463705F 		.ascii	"tcp_connect: can only connect from state CLOSED\000"
 4492      636F6E6E 
 4492      6563743A 
 4492      2063616E 
 4492      206F6E6C 
 4493              	.LC25:
 4494 03c4 434C4F53 		.ascii	"CLOSED\000"
 4494      454400
 4495 03cb 00       		.space	1
 4496              	.LC26:
 4497 03cc 4C495354 		.ascii	"LISTEN\000"
 4497      454E00
 4498 03d3 00       		.space	1
 4499              	.LC27:
 4500 03d4 53594E5F 		.ascii	"SYN_SENT\000"
 4500      53454E54 
 4500      00
 4501 03dd 000000   		.space	3
 4502              	.LC28:
 4503 03e0 53594E5F 		.ascii	"SYN_RCVD\000"
 4503      52435644 
 4503      00
 4504 03e9 000000   		.space	3
 4505              	.LC29:
 4506 03ec 45535441 		.ascii	"ESTABLISHED\000"
 4506      424C4953 
 4506      48454400 
 4507              	.LC30:
 4508 03f8 46494E5F 		.ascii	"FIN_WAIT_1\000"
 4508      57414954 
 4508      5F3100
 4509 0403 00       		.space	1
 4510              	.LC31:
 4511 0404 46494E5F 		.ascii	"FIN_WAIT_2\000"
 4511      57414954 
 4511      5F3200
 4512 040f 00       		.space	1
 4513              	.LC32:
 4514 0410 434C4F53 		.ascii	"CLOSE_WAIT\000"
 4514      455F5741 
 4514      495400
 4515 041b 00       		.space	1
 4516              	.LC33:
ARM GAS  C:\Users\jo\AppData\Local\Temp\ccQTqoh0.s 			page 83


 4517 041c 434C4F53 		.ascii	"CLOSING\000"
 4517      494E4700 
 4518              	.LC34:
 4519 0424 4C415354 		.ascii	"LAST_ACK\000"
 4519      5F41434B 
 4519      00
 4520 042d 000000   		.space	3
 4521              	.LC35:
 4522 0430 54494D45 		.ascii	"TIME_WAIT\000"
 4522      5F574149 
 4522      5400
 4523 043a 0000     		.section	.bss.tcp_tmp_pcb,"aw",%nobits
 4524              		.align	2
 4525              		.set	.LANCHOR3,. + 0
 4526              		.type	tcp_tmp_pcb, %object
 4527              		.size	tcp_tmp_pcb, 4
 4528              	tcp_tmp_pcb:
 4529 0000 00000000 		.space	4
 4530              		.section	.rodata.tcp_persist_backoff,"a",%progbits
 4531              		.align	2
 4532              		.set	.LANCHOR9,. + 0
 4533              		.type	tcp_persist_backoff, %object
 4534              		.size	tcp_persist_backoff, 7
 4535              	tcp_persist_backoff:
 4536 0000 03       		.byte	3
 4537 0001 06       		.byte	6
 4538 0002 0C       		.byte	12
 4539 0003 18       		.byte	24
 4540 0004 30       		.byte	48
 4541 0005 60       		.byte	96
 4542 0006 78       		.byte	120
 4543 0007 00       		.section	.bss.tcp_bound_pcbs,"aw",%nobits
 4544              		.align	2
 4545              		.set	.LANCHOR2,. + 0
 4546              		.type	tcp_bound_pcbs, %object
 4547              		.size	tcp_bound_pcbs, 4
 4548              	tcp_bound_pcbs:
 4549 0000 00000000 		.space	4
 4550              		.text
 4551              	.Letext0:
 4552              		.file 4 "c:\\program files\\gnu tools arm embedded\\4.9 2014q4\\lib\\gcc\\arm-none-eabi\\4.9.3\\in
 4553              		.file 5 "c:\\program files\\gnu tools arm embedded\\4.9 2014q4\\arm-none-eabi\\include\\machine\\_
 4554              		.file 6 "c:\\program files\\gnu tools arm embedded\\4.9 2014q4\\arm-none-eabi\\include\\stdint.h"
 4555              		.file 7 "../../../os/rt/ports/ARMCMx/compilers/GCC/chtypes.h"
 4556              		.file 8 "../../../os/rt/include/chsystypes.h"
 4557              		.file 9 "../../../os/rt/include/chschd.h"
 4558              		.file 10 "../../../os/rt/ports/ARMCMx/chcore.h"
 4559              		.file 11 "../../../os/rt/ports/ARMCMx/chcore_v7m.h"
 4560              		.file 12 "../../../os/rt/include/chdebug.h"
 4561              		.file 13 "../../../os/rt/include/chtm.h"
 4562              		.file 14 "../../../os/rt/include/chsem.h"
 4563              		.file 15 "../../../os/rt/include/chmtx.h"
 4564              		.file 16 "../../../os/rt/include/chstreams.h"
 4565              		.file 17 "./ITM_trace.h"
 4566              		.file 18 "c:\\program files\\gnu tools arm embedded\\4.9 2014q4\\lib\\gcc\\arm-none-eabi\\4.9.3\\i
 4567              		.file 19 "<built-in>"
 4568              		.file 20 "../../../os/various/lwip_bindings/arch/cc.h"
ARM GAS  C:\Users\jo\AppData\Local\Temp\ccQTqoh0.s 			page 84


 4569              		.file 21 "../../../ext/lwip/src/include/lwip/mem.h"
 4570              		.file 22 "../../../ext/lwip/src/include/ipv4/lwip/ip_addr.h"
 4571              		.file 23 "../../../ext/lwip/src/include/lwip/err.h"
 4572              		.file 24 "../../../ext/lwip/src/include/lwip/pbuf.h"
 4573              		.file 25 "../../../ext/lwip/src/include/lwip/netif.h"
 4574              		.file 26 "../../../ext/lwip/src/include/lwip/tcp.h"
 4575              		.file 27 "../../../ext/lwip/src/include/lwip/tcp_impl.h"
 4576              		.file 28 "../../../ext/lwip/src/include/lwip/stats.h"
 4577              		.file 29 "../../../os/ext/CMSIS/include/core_cm4.h"
 4578              		.file 30 "../../../ext/lwip/src/include/lwip/memp.h"
 4579              		.file 31 "../../../os/rt/include/chsys.h"
 4580              		.file 32 "c:\\program files\\gnu tools arm embedded\\4.9 2014q4\\arm-none-eabi\\include\\stdlib.h"
 4581              		.file 33 "../../../ext/lwip/src/include/ipv4/lwip/ip.h"