ARM GAS  C:\Users\jo\AppData\Local\Temp\ccfChKJS.s 			page 1


   1              		.syntax unified
   2              		.cpu cortex-m4
   3              		.fpu softvfp
   4              		.eabi_attribute 20, 1
   5              		.eabi_attribute 21, 1
   6              		.eabi_attribute 23, 3
   7              		.eabi_attribute 24, 1
   8              		.eabi_attribute 25, 1
   9              		.eabi_attribute 26, 1
  10              		.eabi_attribute 30, 2
  11              		.eabi_attribute 34, 1
  12              		.eabi_attribute 18, 4
  13              		.thumb
  14              		.file	"tcp_in.c"
  15              		.text
  16              	.Ltext0:
  17              		.cfi_sections	.debug_frame
  18              		.section	.text.tcp_oos_insert_segment,"ax",%progbits
  19              		.align	2
  20              		.p2align 4,,15
  21              		.thumb
  22              		.thumb_func
  23              		.type	tcp_oos_insert_segment, %function
  24              	tcp_oos_insert_segment:
  25              	.LFB264:
  26              		.file 1 "../../../ext/lwip/src/core/tcp_in.c"
  27              		.loc 1 801 0
  28              		.cfi_startproc
  29              		@ args = 0, pretend = 0, frame = 0
  30              		@ frame_needed = 0, uses_anonymous_args = 0
  31              	.LVL0:
  32 0000 2DE9F041 		push	{r4, r5, r6, r7, r8, lr}
  33              		.cfi_def_cfa_offset 24
  34              		.cfi_offset 4, -24
  35              		.cfi_offset 5, -20
  36              		.cfi_offset 6, -16
  37              		.cfi_offset 7, -12
  38              		.cfi_offset 8, -8
  39              		.cfi_offset 14, -4
  40              		.loc 1 804 0
  41 0004 0369     		ldr	r3, [r0, #16]
  42              		.loc 1 801 0
  43 0006 0546     		mov	r5, r0
  44              		.loc 1 804 0
  45 0008 9889     		ldrh	r0, [r3, #12]	@ unaligned
  46              	.LVL1:
  47              		.loc 1 801 0
  48 000a 0F46     		mov	r7, r1
  49              		.loc 1 804 0
  50 000c FFF7FEFF 		bl	lwip_ntohs
  51              	.LVL2:
  52 0010 C207     		lsls	r2, r0, #31
  53 0012 48D4     		bmi	.L2
  54              		.loc 1 812 0
  55 0014 002F     		cmp	r7, #0
  56 0016 36D0     		beq	.L20
  57              		.loc 1 813 0
ARM GAS  C:\Users\jo\AppData\Local\Temp\ccfChKJS.s 			page 2


  58 0018 3969     		ldr	r1, [r7, #16]
  59 001a 254E     		ldr	r6, .L23
  60 001c D1F804E0 		ldr	lr, [r1, #4]	@ unaligned
  61 0020 2B89     		ldrh	r3, [r5, #8]
  62 0022 3068     		ldr	r0, [r6]
  63 0024 3A89     		ldrh	r2, [r7, #8]
  64 0026 CEEB0303 		rsb	r3, lr, r3
  65 002a 0344     		add	r3, r3, r0
  66 002c 9A1A     		subs	r2, r3, r2
  67              		.loc 1 812 0
  68 002e 002A     		cmp	r2, #0
  69 0030 B8BF     		it	lt
  70 0032 3C46     		movlt	r4, r7
  71 0034 12DA     		bge	.L9
  72 0036 2AE0     		b	.L6
  73              	.L7:
  74              	.LVL3:
  75              		.loc 1 820 0
  76 0038 3C68     		ldr	r4, [r7]
  77              	.LVL4:
  78              		.loc 1 821 0
  79 003a 3846     		mov	r0, r7
  80 003c FFF7FEFF 		bl	tcp_seg_free
  81              	.LVL5:
  82              		.loc 1 812 0
  83 0040 0CB3     		cbz	r4, .L20
  84              	.L22:
  85              		.loc 1 813 0 discriminator 1
  86 0042 2169     		ldr	r1, [r4, #16]
  87 0044 2B89     		ldrh	r3, [r5, #8]
  88 0046 D1F804E0 		ldr	lr, [r1, #4]	@ unaligned
  89 004a 3068     		ldr	r0, [r6]
  90 004c 2289     		ldrh	r2, [r4, #8]
  91 004e CEEB0303 		rsb	r3, lr, r3
  92 0052 0344     		add	r3, r3, r0
  93 0054 9A1A     		subs	r2, r3, r2
  94              		.loc 1 812 0 discriminator 1
  95 0056 002A     		cmp	r2, #0
  96 0058 19DB     		blt	.L6
  97 005a 2746     		mov	r7, r4
  98              	.LVL6:
  99              	.L9:
 100              		.loc 1 816 0
 101 005c 8889     		ldrh	r0, [r1, #12]	@ unaligned
 102 005e FFF7FEFF 		bl	lwip_ntohs
 103              	.LVL7:
 104 0062 C307     		lsls	r3, r0, #31
 105 0064 E8D5     		bpl	.L7
 106              		.loc 1 817 0
 107 0066 D5F81080 		ldr	r8, [r5, #16]
 108 006a 0120     		movs	r0, #1
 109 006c B8F80C40 		ldrh	r4, [r8, #12]	@ unaligned
 110 0070 FFF7FEFF 		bl	lwip_htons
 111              	.LVL8:
 112 0074 2043     		orrs	r0, r0, r4
 113              		.loc 1 820 0
 114 0076 3C68     		ldr	r4, [r7]
ARM GAS  C:\Users\jo\AppData\Local\Temp\ccfChKJS.s 			page 3


 115              		.loc 1 817 0
 116 0078 A8F80C00 		strh	r0, [r8, #12]	@ unaligned
 117              	.LVL9:
 118              		.loc 1 821 0
 119 007c 3846     		mov	r0, r7
 120 007e FFF7FEFF 		bl	tcp_seg_free
 121              	.LVL10:
 122              		.loc 1 812 0
 123 0082 002C     		cmp	r4, #0
 124 0084 DDD1     		bne	.L22
 125              	.LVL11:
 126              	.L20:
 127              		.loc 1 807 0
 128 0086 0024     		movs	r4, #0
 129              	.LVL12:
 130              	.L4:
 131              		.loc 1 830 0
 132 0088 2C60     		str	r4, [r5]
 133 008a BDE8F081 		pop	{r4, r5, r6, r7, r8, pc}
 134              	.LVL13:
 135              	.L6:
 136              		.loc 1 823 0
 137 008e 002B     		cmp	r3, #0
 138 0090 FADD     		ble	.L4
 139              		.loc 1 826 0
 140 0092 C0EB0E00 		rsb	r0, r0, lr
 141 0096 81B2     		uxth	r1, r0
 142 0098 2981     		strh	r1, [r5, #8]	@ movhi
 143              		.loc 1 827 0
 144 009a 6868     		ldr	r0, [r5, #4]
 145 009c FFF7FEFF 		bl	pbuf_realloc
 146              	.LVL14:
 147              		.loc 1 830 0
 148 00a0 2C60     		str	r4, [r5]
 149 00a2 BDE8F081 		pop	{r4, r5, r6, r7, r8, pc}
 150              	.LVL15:
 151              	.L2:
 152              		.loc 1 806 0
 153 00a6 3846     		mov	r0, r7
 154 00a8 FFF7FEFF 		bl	tcp_segs_free
 155              	.LVL16:
 156 00ac EBE7     		b	.L20
 157              	.L24:
 158 00ae 00BF     		.align	2
 159              	.L23:
 160 00b0 00000000 		.word	.LANCHOR0
 161              		.cfi_endproc
 162              	.LFE264:
 163              		.size	tcp_oos_insert_segment, .-tcp_oos_insert_segment
 164 00b4 AFF30080 		.section	.text.tcp_parseopt.isra.0,"ax",%progbits
 164      AFF30080 
 164      AFF30080 
 165              		.align	2
 166              		.p2align 4,,15
 167              		.thumb
 168              		.thumb_func
 169              		.type	tcp_parseopt.isra.0, %function
ARM GAS  C:\Users\jo\AppData\Local\Temp\ccfChKJS.s 			page 4


 170              	tcp_parseopt.isra.0:
 171              	.LFB267:
 172              		.loc 1 1542 0
 173              		.cfi_startproc
 174              		@ args = 0, pretend = 0, frame = 0
 175              		@ frame_needed = 0, uses_anonymous_args = 0
 176              	.LVL17:
 177 0000 F8B5     		push	{r3, r4, r5, r6, r7, lr}
 178              		.cfi_def_cfa_offset 24
 179              		.cfi_offset 3, -24
 180              		.cfi_offset 4, -20
 181              		.cfi_offset 5, -16
 182              		.cfi_offset 6, -12
 183              		.cfi_offset 7, -8
 184              		.cfi_offset 14, -4
 185              		.loc 1 1551 0
 186 0002 224C     		ldr	r4, .L50
 187 0004 2568     		ldr	r5, [r4]
 188              	.LVL18:
 189              		.loc 1 1542 0
 190 0006 0646     		mov	r6, r0
 191              		.loc 1 1554 0
 192 0008 A889     		ldrh	r0, [r5, #12]	@ unaligned
 193 000a FFF7FEFF 		bl	lwip_ntohs
 194              	.LVL19:
 195 000e C0F30F30 		ubfx	r0, r0, #12, #16
 196 0012 0528     		cmp	r0, #5
 197 0014 00D8     		bhi	.L47
 198              	.LVL20:
 199              	.L25:
 200 0016 F8BD     		pop	{r3, r4, r5, r6, r7, pc}
 201              	.LVL21:
 202              	.L47:
 203              		.loc 1 1555 0
 204 0018 2368     		ldr	r3, [r4]
 205 001a 9889     		ldrh	r0, [r3, #12]	@ unaligned
 206 001c FFF7FEFF 		bl	lwip_ntohs
 207              	.LVL22:
 208 0020 000B     		lsrs	r0, r0, #12
 209 0022 0538     		subs	r0, r0, #5
 210 0024 8000     		lsls	r0, r0, #2
 211 0026 80B2     		uxth	r0, r0
 212              	.LVL23:
 213              		.loc 1 1556 0
 214 0028 0028     		cmp	r0, #0
 215 002a F4D0     		beq	.L25
 216              		.loc 1 1551 0
 217 002c 05F11402 		add	r2, r5, #20
 218 0030 0023     		movs	r3, #0
 219              		.loc 1 1578 0
 220 0032 40F2B357 		movw	r7, #1459
 221              		.loc 1 1558 0
 222 0036 D15C     		ldrb	r1, [r2, r3]	@ zero_extendqisi2
 223 0038 0129     		cmp	r1, #1
 224              		.loc 1 1578 0
 225 003a 40F2B455 		movw	r5, #1460
 226              	.LVL24:
ARM GAS  C:\Users\jo\AppData\Local\Temp\ccfChKJS.s 			page 5


 227              		.loc 1 1558 0
 228 003e 1BD0     		beq	.L30
 229              	.LVL25:
 230              	.L49:
 231 0040 E9D3     		bcc	.L25
 232 0042 0229     		cmp	r1, #2
 233 0044 1BD1     		bne	.L48
 234              		.loc 1 1570 0
 235 0046 D418     		adds	r4, r2, r3
 236 0048 6178     		ldrb	r1, [r4, #1]	@ zero_extendqisi2
 237 004a 0429     		cmp	r1, #4
 238 004c E3D1     		bne	.L25
 239 004e D91C     		adds	r1, r3, #3
 240 0050 8142     		cmp	r1, r0
 241 0052 E0DA     		bge	.L25
 242              		.loc 1 1576 0
 243 0054 94F802E0 		ldrb	lr, [r4, #2]	@ zero_extendqisi2
 244 0058 E178     		ldrb	r1, [r4, #3]	@ zero_extendqisi2
 245 005a 41EA0E21 		orr	r1, r1, lr, lsl #8
 246              	.LVL26:
 247              		.loc 1 1578 0
 248 005e 4C1E     		subs	r4, r1, #1
 249 0060 A4B2     		uxth	r4, r4
 250              		.loc 1 1580 0
 251 0062 0433     		adds	r3, r3, #4
 252              	.LVL27:
 253              		.loc 1 1578 0
 254 0064 BC42     		cmp	r4, r7
 255 0066 88BF     		it	hi
 256 0068 2946     		movhi	r1, r5
 257              	.LVL28:
 258              		.loc 1 1580 0
 259 006a 9BB2     		uxth	r3, r3
 260              	.LVL29:
 261              		.loc 1 1578 0
 262 006c 3180     		strh	r1, [r6]	@ movhi
 263              	.L32:
 264              		.loc 1 1556 0
 265 006e 9842     		cmp	r0, r3
 266 0070 D1D9     		bls	.L25
 267              	.LVL30:
 268              		.loc 1 1558 0
 269 0072 D15C     		ldrb	r1, [r2, r3]	@ zero_extendqisi2
 270 0074 0129     		cmp	r1, #1
 271 0076 E3D1     		bne	.L49
 272              	.LVL31:
 273              	.L30:
 274              		.loc 1 1565 0
 275 0078 0133     		adds	r3, r3, #1
 276              	.LVL32:
 277 007a 9BB2     		uxth	r3, r3
 278              	.LVL33:
 279 007c F7E7     		b	.L32
 280              	.L48:
 281              		.loc 1 1605 0
 282 007e D118     		adds	r1, r2, r3
 283 0080 4978     		ldrb	r1, [r1, #1]	@ zero_extendqisi2
ARM GAS  C:\Users\jo\AppData\Local\Temp\ccfChKJS.s 			page 6


 284 0082 0029     		cmp	r1, #0
 285 0084 C7D0     		beq	.L25
 286              		.loc 1 1613 0
 287 0086 0B44     		add	r3, r3, r1
 288              	.LVL34:
 289 0088 9BB2     		uxth	r3, r3
 290              	.LVL35:
 291 008a F0E7     		b	.L32
 292              	.L51:
 293              		.align	2
 294              	.L50:
 295 008c 00000000 		.word	.LANCHOR1
 296              		.cfi_endproc
 297              	.LFE267:
 298              		.size	tcp_parseopt.isra.0, .-tcp_parseopt.isra.0
 299              		.section	.text.chprintf.constprop.1,"ax",%progbits
 300              		.align	2
 301              		.p2align 4,,15
 302              		.thumb
 303              		.thumb_func
 304              		.type	chprintf.constprop.1, %function
 305              	chprintf.constprop.1:
 306              	.LFB268:
 307              		.file 2 "../../../os/hal/lib/streams/chprintf.h"
 308              		.loc 2 69 0
 309              		.cfi_startproc
 310              		@ args = 4, pretend = 12, frame = 8
 311              		@ frame_needed = 0, uses_anonymous_args = 1
 312              	.LVL36:
 313 0000 0EB4     		push	{r1, r2, r3}
 314              		.cfi_def_cfa_offset 12
 315              		.cfi_offset 1, -12
 316              		.cfi_offset 2, -8
 317              		.cfi_offset 3, -4
 318 0002 00B5     		push	{lr}
 319              		.cfi_def_cfa_offset 16
 320              		.cfi_offset 14, -16
 321 0004 82B0     		sub	sp, sp, #8
 322              		.cfi_def_cfa_offset 24
 323              		.loc 2 73 0
 324 0006 04AB     		add	r3, sp, #16
 325              		.loc 2 74 0
 326 0008 1A46     		mov	r2, r3
 327 000a 0549     		ldr	r1, .L54
 328 000c 0548     		ldr	r0, .L54+4
 329              	.LVL37:
 330              		.loc 2 73 0
 331 000e 0193     		str	r3, [sp, #4]
 332              		.loc 2 74 0
 333 0010 FFF7FEFF 		bl	chvprintf
 334              	.LVL38:
 335              		.loc 2 78 0
 336 0014 02B0     		add	sp, sp, #8
 337              		.cfi_def_cfa_offset 16
 338              		@ sp needed
 339 0016 5DF804EB 		ldr	lr, [sp], #4
 340              		.cfi_restore 14
ARM GAS  C:\Users\jo\AppData\Local\Temp\ccfChKJS.s 			page 7


 341              		.cfi_def_cfa_offset 12
 342 001a 03B0     		add	sp, sp, #12
 343              		.cfi_restore 3
 344              		.cfi_restore 2
 345              		.cfi_restore 1
 346              		.cfi_def_cfa_offset 0
 347 001c 7047     		bx	lr
 348              	.L55:
 349 001e 00BF     		.align	2
 350              	.L54:
 351 0020 00000000 		.word	.LC0
 352 0024 00000000 		.word	itm_port
 353              		.cfi_endproc
 354              	.LFE268:
 355              		.size	chprintf.constprop.1, .-chprintf.constprop.1
 356 0028 AFF30080 		.section	.text.tcp_receive,"ax",%progbits
 356      AFF30080 
 357              		.align	2
 358              		.p2align 4,,15
 359              		.thumb
 360              		.thumb_func
 361              		.type	tcp_receive, %function
 362              	tcp_receive:
 363              	.LFB265:
 364              		.loc 1 848 0
 365              		.cfi_startproc
 366              		@ args = 0, pretend = 0, frame = 8
 367              		@ frame_needed = 0, uses_anonymous_args = 0
 368              	.LVL39:
 369 0000 2DE9F04F 		push	{r4, r5, r6, r7, r8, r9, r10, fp, lr}
 370              		.cfi_def_cfa_offset 36
 371              		.cfi_offset 4, -36
 372              		.cfi_offset 5, -32
 373              		.cfi_offset 6, -28
 374              		.cfi_offset 7, -24
 375              		.cfi_offset 8, -20
 376              		.cfi_offset 9, -16
 377              		.cfi_offset 10, -12
 378              		.cfi_offset 11, -8
 379              		.cfi_offset 14, -4
 380              		.loc 1 864 0
 381 0004 037E     		ldrb	r3, [r0, #24]	@ zero_extendqisi2
 382 0006 032B     		cmp	r3, #3
 383              		.loc 1 848 0
 384 0008 85B0     		sub	sp, sp, #20
 385              		.cfi_def_cfa_offset 56
 386              		.loc 1 848 0
 387 000a 0446     		mov	r4, r0
 388              		.loc 1 864 0
 389 000c 40F20081 		bls	.L253
 390              	.LVL40:
 391              	.L57:
 392              		.loc 1 866 0
 393 0010 B54B     		ldr	r3, .L285
 394              		.loc 1 870 0
 395 0012 DFF80083 		ldr	r8, .L285+44
 396              		.loc 1 866 0
ARM GAS  C:\Users\jo\AppData\Local\Temp\ccfChKJS.s 			page 8


 397 0016 1B78     		ldrb	r3, [r3]	@ zero_extendqisi2
 398 0018 DD06     		lsls	r5, r3, #27
 399 001a 1BD4     		bmi	.L58
 400 001c DFF8F892 		ldr	r9, .L285+48
 401              	.LVL41:
 402              	.L59:
 403              		.loc 1 1120 0
 404 0020 B9F80030 		ldrh	r3, [r9]
 405 0024 1BB1     		cbz	r3, .L102
 406              		.loc 1 1120 0 is_stmt 0 discriminator 1
 407 0026 227E     		ldrb	r2, [r4, #24]	@ zero_extendqisi2
 408 0028 062A     		cmp	r2, #6
 409 002a 40F2A780 		bls	.L254
 410              	.L102:
 411              		.loc 1 1527 0 is_stmt 1
 412 002e D8F80030 		ldr	r3, [r8]
 413 0032 A16A     		ldr	r1, [r4, #40]
 414 0034 5A1A     		subs	r2, r3, r1
 415 0036 002A     		cmp	r2, #0
 416 0038 05DB     		blt	.L164
 417 003a 5A1C     		adds	r2, r3, #1
 418              		.loc 1 1527 0 is_stmt 0 discriminator 1
 419 003c A08D     		ldrh	r0, [r4, #44]
 420 003e 531A     		subs	r3, r2, r1
 421 0040 1B1A     		subs	r3, r3, r0
 422 0042 002B     		cmp	r3, #0
 423 0044 03DD     		ble	.L56
 424              	.L164:
 425              		.loc 1 1528 0 is_stmt 1
 426 0046 A37F     		ldrb	r3, [r4, #30]	@ zero_extendqisi2
 427 0048 43F00203 		orr	r3, r3, #2
 428 004c A377     		strb	r3, [r4, #30]
 429              	.LVL42:
 430              	.L56:
 431              		.loc 1 1531 0
 432 004e 05B0     		add	sp, sp, #20
 433              		.cfi_remember_state
 434              		.cfi_def_cfa_offset 36
 435              		@ sp needed
 436 0050 BDE8F08F 		pop	{r4, r5, r6, r7, r8, r9, r10, fp, pc}
 437              	.LVL43:
 438              	.L58:
 439              		.cfi_restore_state
 440              		.loc 1 870 0
 441 0054 636D     		ldr	r3, [r4, #84]
 442 0056 D8F80020 		ldr	r2, [r8]
 443              		.loc 1 867 0
 444 005a B4F86050 		ldrh	r5, [r4, #96]
 445 005e A06D     		ldr	r0, [r4, #88]
 446              	.LVL44:
 447 0060 A24E     		ldr	r6, .L285+4
 448              		.loc 1 870 0
 449 0062 991A     		subs	r1, r3, r2
 450 0064 0029     		cmp	r1, #0
 451 0066 C0F2E480 		blt	.L64
 452              		.loc 1 870 0 is_stmt 0 discriminator 1
 453 006a 9342     		cmp	r3, r2
ARM GAS  C:\Users\jo\AppData\Local\Temp\ccfChKJS.s 			page 9


 454              		.loc 1 871 0 is_stmt 1 discriminator 1
 455 006c 3368     		ldr	r3, [r6]
 456              		.loc 1 870 0 discriminator 1
 457 006e 00F0DC80 		beq	.L255
 458              	.L63:
 459              		.loc 1 871 0 discriminator 1
 460 0072 9842     		cmp	r0, r3
 461 0074 00F0D281 		beq	.L256
 462              	.L65:
 463              		.loc 1 924 0
 464 0078 A76C     		ldr	r7, [r4, #72]
 465 007a DA1B     		subs	r2, r3, r7
 466 007c 002A     		cmp	r2, #0
 467 007e 40F3B281 		ble	.L257
 468              		.loc 1 957 0
 469 0082 216D     		ldr	r1, [r4, #80]
 470 0084 591A     		subs	r1, r3, r1
 471 0086 0029     		cmp	r1, #0
 472 0088 40F3D081 		ble	.L258
 473              		.loc 1 1046 0
 474 008c 0023     		movs	r3, #0
 475 008e DFF88892 		ldr	r9, .L285+48
 476 0092 A4F86430 		strh	r3, [r4, #100]	@ movhi
 477              	.LVL45:
 478              	.L87:
 479 0096 E36E     		ldr	r3, [r4, #108]
 480              		.loc 1 1056 0
 481 0098 944F     		ldr	r7, .L285+4
 482              	.L72:
 483              		.loc 1 1055 0
 484 009a 002B     		cmp	r3, #0
 485 009c 41D0     		beq	.L99
 486              	.L96:
 487              		.loc 1 1056 0 discriminator 1
 488 009e 1B69     		ldr	r3, [r3, #16]
 489 00a0 3568     		ldr	r5, [r6]
 490 00a2 5868     		ldr	r0, [r3, #4]	@ unaligned
 491 00a4 FFF7FEFF 		bl	lwip_ntohl
 492              	.LVL46:
 493 00a8 E36E     		ldr	r3, [r4, #108]
 494 00aa 1969     		ldr	r1, [r3, #16]
 495 00ac B3F808B0 		ldrh	fp, [r3, #8]
 496 00b0 8246     		mov	r10, r0
 497 00b2 8889     		ldrh	r0, [r1, #12]	@ unaligned
 498 00b4 FFF7FEFF 		bl	lwip_ntohs
 499              	.LVL47:
 500 00b8 10F00300 		ands	r0, r0, #3
 501 00bc 18BF     		it	ne
 502 00be 0120     		movne	r0, #1
 503 00c0 CAEB0505 		rsb	r5, r10, r5
 504 00c4 5844     		add	r0, r0, fp
 505 00c6 2D1A     		subs	r5, r5, r0
 506              		.loc 1 1055 0 discriminator 1
 507 00c8 002D     		cmp	r5, #0
 508 00ca 2ADB     		blt	.L99
 509              		.loc 1 1056 0
 510 00cc 3B68     		ldr	r3, [r7]
ARM GAS  C:\Users\jo\AppData\Local\Temp\ccfChKJS.s 			page 10


 511 00ce 226D     		ldr	r2, [r4, #80]
 512 00d0 9B1A     		subs	r3, r3, r2
 513 00d2 002B     		cmp	r3, #0
 514 00d4 25DC     		bgt	.L99
 515              		.loc 1 1062 0
 516 00d6 E56E     		ldr	r5, [r4, #108]
 517              	.LVL48:
 518              		.loc 1 1063 0
 519 00d8 2B68     		ldr	r3, [r5]
 520 00da E366     		str	r3, [r4, #108]
 521              		.loc 1 1065 0
 522 00dc 002B     		cmp	r3, #0
 523 00de 00F08380 		beq	.L259
 524              	.L88:
 525              		.loc 1 1070 0
 526 00e2 6868     		ldr	r0, [r5, #4]
 527 00e4 B4F868B0 		ldrh	fp, [r4, #104]
 528 00e8 FFF7FEFF 		bl	pbuf_clen
 529              	.LVL49:
 530 00ec 80B2     		uxth	r0, r0
 531 00ee 8345     		cmp	fp, r0
 532 00f0 6DD3     		bcc	.L260
 533              	.L89:
 534              		.loc 1 1072 0
 535 00f2 B4F86430 		ldrh	r3, [r4, #100]
 536 00f6 002B     		cmp	r3, #0
 537 00f8 5DD1     		bne	.L261
 538              	.L91:
 539              		.loc 1 1075 0
 540 00fa 6868     		ldr	r0, [r5, #4]
 541 00fc FFF7FEFF 		bl	pbuf_clen
 542              	.LVL50:
 543 0100 B4F86830 		ldrh	r3, [r4, #104]
 544 0104 181A     		subs	r0, r3, r0
 545 0106 A4F86800 		strh	r0, [r4, #104]	@ movhi
 546              		.loc 1 1076 0
 547 010a 2846     		mov	r0, r5
 548 010c FFF7FEFF 		bl	tcp_seg_free
 549              	.LVL51:
 550              		.loc 1 1078 0
 551 0110 B4F86830 		ldrh	r3, [r4, #104]
 552 0114 13B1     		cbz	r3, .L242
 553              		.loc 1 1079 0
 554 0116 236F     		ldr	r3, [r4, #112]
 555 0118 002B     		cmp	r3, #0
 556 011a 68D0     		beq	.L262
 557              	.L242:
 558 011c E36E     		ldr	r3, [r4, #108]
 559              		.loc 1 1055 0 discriminator 2
 560 011e 002B     		cmp	r3, #0
 561 0120 BDD1     		bne	.L96
 562              	.LVL52:
 563              	.L99:
 564              		.loc 1 1091 0
 565 0122 A36B     		ldr	r3, [r4, #56]
 566 0124 002B     		cmp	r3, #0
 567 0126 3FF47BAF 		beq	.L59
ARM GAS  C:\Users\jo\AppData\Local\Temp\ccfChKJS.s 			page 11


 568              		.loc 1 1091 0 is_stmt 0 discriminator 1
 569 012a 3168     		ldr	r1, [r6]
 570 012c E26B     		ldr	r2, [r4, #60]
 571 012e 521A     		subs	r2, r2, r1
 572 0130 002A     		cmp	r2, #0
 573 0132 BFF675AF 		bge	.L59
 574              	.LVL53:
 575              		.loc 1 1094 0 is_stmt 1
 576 0136 6E49     		ldr	r1, .L285+8
 577              	.LVL54:
 578              		.loc 1 1100 0
 579 0138 B4F84020 		ldrh	r2, [r4, #64]
 580              		.loc 1 1094 0
 581 013c 0868     		ldr	r0, [r1]
 582              		.loc 1 1100 0
 583 013e 42F3CC01 		sbfx	r1, r2, #3, #13
 584              	.LVL55:
 585              		.loc 1 1094 0
 586 0142 C31A     		subs	r3, r0, r3
 587              	.LVL56:
 588              		.loc 1 1100 0
 589 0144 591A     		subs	r1, r3, r1
 590 0146 89B2     		uxth	r1, r1
 591              		.loc 1 1101 0
 592 0148 8B18     		adds	r3, r1, r2
 593              		.loc 1 1100 0
 594 014a 8AB2     		uxth	r2, r1
 595              	.LVL57:
 596              		.loc 1 1102 0
 597 014c 1004     		lsls	r0, r2, #16
 598              		.loc 1 1103 0
 599 014e 44BF     		itt	mi
 600 0150 4942     		rsbmi	r1, r1, #0
 601 0152 8AB2     		uxthmi	r2, r1
 602              	.LVL58:
 603              		.loc 1 1105 0
 604 0154 B4F84210 		ldrh	r1, [r4, #66]
 605              	.LVL59:
 606 0158 41F38D00 		sbfx	r0, r1, #2, #14
 607 015c 091A     		subs	r1, r1, r0
 608              	.LVL60:
 609              		.loc 1 1101 0
 610 015e 9BB2     		uxth	r3, r3
 611              		.loc 1 1106 0
 612 0160 0A44     		add	r2, r2, r1
 613              	.LVL61:
 614 0162 92B2     		uxth	r2, r2
 615              		.loc 1 1101 0
 616 0164 A4F84030 		strh	r3, [r4, #64]	@ movhi
 617              	.LVL62:
 618              		.loc 1 1107 0
 619 0168 43F3CC03 		sbfx	r3, r3, #3, #13
 620 016c 1344     		add	r3, r3, r2
 621              		.loc 1 1112 0
 622 016e 0021     		movs	r1, #0
 623              		.loc 1 1107 0
 624 0170 A4F84430 		strh	r3, [r4, #68]	@ movhi
ARM GAS  C:\Users\jo\AppData\Local\Temp\ccfChKJS.s 			page 12


 625              		.loc 1 1106 0
 626 0174 A4F84220 		strh	r2, [r4, #66]	@ movhi
 627              		.loc 1 1112 0
 628 0178 A163     		str	r1, [r4, #56]
 629 017a 51E7     		b	.L59
 630              	.L254:
 631              		.loc 1 1151 0
 632 017c A16A     		ldr	r1, [r4, #40]
 633 017e D8F80020 		ldr	r2, [r8]
 634 0182 8E1A     		subs	r6, r1, r2
 635 0184 012E     		cmp	r6, #1
 636 0186 05D4     		bmi	.L103
 637 0188 481C     		adds	r0, r1, #1
 638 018a 801A     		subs	r0, r0, r2
 639              		.loc 1 1151 0 is_stmt 0 discriminator 1
 640 018c C31A     		subs	r3, r0, r3
 641 018e 002B     		cmp	r3, #0
 642 0190 40F3E881 		ble	.L263
 643              	.L103:
 644              		.loc 1 1202 0 is_stmt 1
 645 0194 531A     		subs	r3, r2, r1
 646 0196 002B     		cmp	r3, #0
 647 0198 C0F2A080 		blt	.L264
 648              	.L113:
 649              		.loc 1 1214 0 discriminator 1
 650 019c A38D     		ldrh	r3, [r4, #44]
 651 019e C3F10103 		rsb	r3, r3, #1
 652 01a2 1344     		add	r3, r3, r2
 653 01a4 5B1A     		subs	r3, r3, r1
 654 01a6 002B     		cmp	r3, #0
 655 01a8 5FDD     		ble	.L265
 656              	.L114:
 657              		.loc 1 1520 0
 658 01aa 2046     		mov	r0, r4
 659              		.loc 1 1531 0
 660 01ac 05B0     		add	sp, sp, #20
 661              		.cfi_remember_state
 662              		.cfi_def_cfa_offset 36
 663              		@ sp needed
 664 01ae BDE8F04F 		pop	{r4, r5, r6, r7, r8, r9, r10, fp, lr}
 665              		.cfi_restore 14
 666              		.cfi_restore 11
 667              		.cfi_restore 10
 668              		.cfi_restore 9
 669              		.cfi_restore 8
 670              		.cfi_restore 7
 671              		.cfi_restore 6
 672              		.cfi_restore 5
 673              		.cfi_restore 4
 674              		.cfi_def_cfa_offset 0
 675              	.LVL63:
 676              		.loc 1 1520 0
 677 01b2 FFF7FEBF 		b	tcp_send_empty_ack
 678              	.LVL64:
 679              	.L261:
 680              		.cfi_restore_state
 681              		.loc 1 1072 0 discriminator 1
ARM GAS  C:\Users\jo\AppData\Local\Temp\ccfChKJS.s 			page 13


 682 01b6 2B69     		ldr	r3, [r5, #16]
 683 01b8 9889     		ldrh	r0, [r3, #12]	@ unaligned
 684 01ba FFF7FEFF 		bl	lwip_ntohs
 685              	.LVL65:
 686 01be C307     		lsls	r3, r0, #31
 687 01c0 9BD5     		bpl	.L91
 688              		.loc 1 1073 0
 689 01c2 B4F86430 		ldrh	r3, [r4, #100]
 690 01c6 013B     		subs	r3, r3, #1
 691 01c8 A4F86430 		strh	r3, [r4, #100]	@ movhi
 692 01cc 95E7     		b	.L91
 693              	.L260:
 694              		.loc 1 1070 0 discriminator 1
 695 01ce 494B     		ldr	r3, .L285+12
 696 01d0 0093     		str	r3, [sp]
 697 01d2 4949     		ldr	r1, .L285+16
 698 01d4 494A     		ldr	r2, .L285+20
 699 01d6 4A48     		ldr	r0, .L285+24
 700 01d8 40F22E43 		movw	r3, #1070
 701 01dc FFF7FEFF 		bl	chprintf.constprop.1
 702              	.LVL66:
 703              	.LBB55:
 704              	.LBB56:
 705              		.file 3 "../../../os/hal/osal/rt/osal.h"
 706              		.loc 3 416 0 discriminator 1
 707 01e0 4648     		ldr	r0, .L285+20
 708 01e2 FFF7FEFF 		bl	chSysHalt
 709              	.LVL67:
 710 01e6 84E7     		b	.L89
 711              	.LVL68:
 712              	.L259:
 713              	.LBE56:
 714              	.LBE55:
 715              		.loc 1 1066 0
 716 01e8 A4F86A30 		strh	r3, [r4, #106]	@ movhi
 717 01ec 79E7     		b	.L88
 718              	.L262:
 719              		.loc 1 1079 0 discriminator 1
 720 01ee E36E     		ldr	r3, [r4, #108]
 721 01f0 002B     		cmp	r3, #0
 722 01f2 7FF452AF 		bne	.L72
 723              		.loc 1 1079 0 is_stmt 0 discriminator 2
 724 01f6 3F4B     		ldr	r3, .L285+12
 725 01f8 0093     		str	r3, [sp]
 726 01fa 3F49     		ldr	r1, .L285+16
 727 01fc 414A     		ldr	r2, .L285+28
 728 01fe 4048     		ldr	r0, .L285+24
 729 0200 4FF48763 		mov	r3, #1080
 730 0204 FFF7FEFF 		bl	chprintf.constprop.1
 731              	.LVL69:
 732              	.LBB57:
 733              	.LBB58:
 734              		.loc 3 416 0 is_stmt 1 discriminator 2
 735 0208 3E48     		ldr	r0, .L285+28
 736 020a FFF7FEFF 		bl	chSysHalt
 737              	.LVL70:
 738 020e 85E7     		b	.L242
ARM GAS  C:\Users\jo\AppData\Local\Temp\ccfChKJS.s 			page 14


 739              	.LVL71:
 740              	.L253:
 741              	.LBE58:
 742              	.LBE57:
 743              		.loc 1 864 0 discriminator 1
 744 0210 384B     		ldr	r3, .L285+12
 745 0212 0093     		str	r3, [sp]
 746 0214 3849     		ldr	r1, .L285+16
 747 0216 3C4A     		ldr	r2, .L285+32
 748 0218 3948     		ldr	r0, .L285+24
 749              	.LVL72:
 750 021a 4FF45873 		mov	r3, #864
 751 021e FFF7FEFF 		bl	chprintf.constprop.1
 752              	.LVL73:
 753              	.LBB59:
 754              	.LBB60:
 755              		.loc 3 416 0 discriminator 1
 756 0222 3948     		ldr	r0, .L285+32
 757 0224 FFF7FEFF 		bl	chSysHalt
 758              	.LVL74:
 759 0228 F2E6     		b	.L57
 760              	.LVL75:
 761              	.L255:
 762              	.LBE60:
 763              	.LBE59:
 764              		.loc 1 871 0
 765 022a C11A     		subs	r1, r0, r3
 766 022c 0029     		cmp	r1, #0
 767 022e BFF620AF 		bge	.L63
 768              	.L64:
 769 0232 3649     		ldr	r1, .L285+36
 770 0234 3368     		ldr	r3, [r6]
 771 0236 0968     		ldr	r1, [r1]
 772 0238 C989     		ldrh	r1, [r1, #14]	@ unaligned
 773              	.L61:
 774              		.loc 1 876 0
 775 023a B4F86270 		ldrh	r7, [r4, #98]
 776              		.loc 1 879 0
 777 023e 6265     		str	r2, [r4, #84]
 778              		.loc 1 876 0
 779 0240 8F42     		cmp	r7, r1
 780              		.loc 1 873 0
 781 0242 A4F86010 		strh	r1, [r4, #96]	@ movhi
 782              		.loc 1 877 0
 783 0246 38BF     		it	cc
 784 0248 A4F86210 		strhcc	r1, [r4, #98]	@ movhi
 785              		.loc 1 880 0
 786 024c A365     		str	r3, [r4, #88]
 787              		.loc 1 882 0
 788 024e 94F89520 		ldrb	r2, [r4, #149]	@ zero_extendqisi2
 789              		.loc 1 881 0
 790 0252 0029     		cmp	r1, #0
 791 0254 40F0DB80 		bne	.L67
 792              		.loc 1 882 0
 793 0258 002A     		cmp	r2, #0
 794 025a 7FF40DAF 		bne	.L65
 795              		.loc 1 885 0
ARM GAS  C:\Users\jo\AppData\Local\Temp\ccfChKJS.s 			page 15


 796 025e 0122     		movs	r2, #1
 797              		.loc 1 884 0
 798 0260 84F89410 		strb	r1, [r4, #148]
 799              		.loc 1 885 0
 800 0264 84F89520 		strb	r2, [r4, #149]
 801 0268 06E7     		b	.L65
 802              	.LVL76:
 803              	.L265:
 804              		.loc 1 1216 0
 805 026a 8A42     		cmp	r2, r1
 806 026c 00F0F381 		beq	.L266
 807              		.loc 1 1369 0
 808 0270 2046     		mov	r0, r4
 809 0272 FFF7FEFF 		bl	tcp_send_empty_ack
 810              	.LVL77:
 811              		.loc 1 1372 0
 812 0276 656F     		ldr	r5, [r4, #116]
 813 0278 002D     		cmp	r5, #0
 814 027a 00F01F84 		beq	.L267
 815 027e D8F80000 		ldr	r0, [r8]
 816 0282 0026     		movs	r6, #0
 817 0284 00F1FF3E 		add	lr, r0, #-1
 818 0288 471C     		adds	r7, r0, #1
 819 028a 0EE0     		b	.L161
 820              	.LVL78:
 821              	.L158:
 822              		.loc 1 1431 0
 823 028c 3369     		ldr	r3, [r6, #16]
 824 028e 5B68     		ldr	r3, [r3, #4]	@ unaligned
 825 0290 C3EB0E03 		rsb	r3, r3, lr
 826 0294 002B     		cmp	r3, #0
 827 0296 03DB     		blt	.L159
 828              		.loc 1 1431 0 is_stmt 0 discriminator 1
 829 0298 BCF1000F 		cmp	ip, #0
 830 029c 40F31D83 		ble	.L268
 831              	.L159:
 832              		.loc 1 1453 0 is_stmt 1
 833 02a0 2B68     		ldr	r3, [r5]
 834 02a2 2E46     		mov	r6, r5
 835              	.LVL79:
 836 02a4 002B     		cmp	r3, #0
 837 02a6 39D0     		beq	.L269
 838 02a8 1D46     		mov	r5, r3
 839              	.LVL80:
 840              	.L161:
 841              		.loc 1 1389 0
 842 02aa 2969     		ldr	r1, [r5, #16]
 843 02ac 4A68     		ldr	r2, [r1, #4]	@ unaligned
 844 02ae 8242     		cmp	r2, r0
 845              		.loc 1 1431 0
 846 02b0 C2EB070C 		rsb	ip, r2, r7
 847              		.loc 1 1389 0
 848 02b4 00F0E082 		beq	.L270
 849              		.loc 1 1415 0
 850 02b8 002E     		cmp	r6, #0
 851 02ba E7D1     		bne	.L158
 852              		.loc 1 1416 0
ARM GAS  C:\Users\jo\AppData\Local\Temp\ccfChKJS.s 			page 16


 853 02bc 831A     		subs	r3, r0, r2
 854 02be 002B     		cmp	r3, #0
 855 02c0 EEDA     		bge	.L159
 856              		.loc 1 1421 0
 857 02c2 1348     		ldr	r0, .L285+40
 858 02c4 FFF7FEFF 		bl	tcp_seg_copy
 859              	.LVL81:
 860              		.loc 1 1422 0
 861 02c8 0028     		cmp	r0, #0
 862 02ca 3FF4C0AE 		beq	.L56
 863              		.loc 1 1423 0
 864 02ce 6067     		str	r0, [r4, #116]
 865              	.LVL82:
 866              	.L245:
 867              		.loc 1 1424 0
 868 02d0 2946     		mov	r1, r5
 869              		.loc 1 1531 0
 870 02d2 05B0     		add	sp, sp, #20
 871              		.cfi_remember_state
 872              		.cfi_def_cfa_offset 36
 873              		@ sp needed
 874 02d4 BDE8F04F 		pop	{r4, r5, r6, r7, r8, r9, r10, fp, lr}
 875              		.cfi_restore 14
 876              		.cfi_restore 11
 877              		.cfi_restore 10
 878              		.cfi_restore 9
 879              		.cfi_restore 8
 880              		.cfi_restore 7
 881              		.cfi_restore 6
 882              		.cfi_restore 5
 883              		.cfi_restore 4
 884              		.cfi_def_cfa_offset 0
 885              	.LVL83:
 886              		.loc 1 1424 0
 887 02d8 FFF7FEBF 		b	tcp_oos_insert_segment
 888              	.LVL84:
 889              	.L264:
 890              		.cfi_restore_state
 891              		.loc 1 1207 0
 892 02dc A37F     		ldrb	r3, [r4, #30]	@ zero_extendqisi2
 893 02de 43F00203 		orr	r3, r3, #2
 894 02e2 A377     		strb	r3, [r4, #30]
 895 02e4 61E7     		b	.L114
 896              	.L286:
 897 02e6 00BF     		.align	2
 898              	.L285:
 899 02e8 00000000 		.word	.LANCHOR2
 900 02ec 00000000 		.word	.LANCHOR3
 901 02f0 00000000 		.word	tcp_ticks
 902 02f4 44000000 		.word	.LC2
 903 02f8 00000000 		.word	.LC0
 904 02fc 68000000 		.word	.LC3
 905 0300 00000000 		.word	itm_port
 906 0304 90000000 		.word	.LC4
 907 0308 28000000 		.word	.LC1
 908 030c 00000000 		.word	.LANCHOR1
 909 0310 00000000 		.word	.LANCHOR5
ARM GAS  C:\Users\jo\AppData\Local\Temp\ccfChKJS.s 			page 17


 910 0314 00000000 		.word	.LANCHOR0
 911 0318 00000000 		.word	.LANCHOR4
 912              	.LVL85:
 913              	.L269:
 914              		.loc 1 1454 0 discriminator 1
 915 031c 821A     		subs	r2, r0, r2
 916              		.loc 1 1453 0 discriminator 1
 917 031e 002A     		cmp	r2, #0
 918 0320 7FF795AE 		ble	.L56
 919              		.loc 1 1455 0
 920 0324 8889     		ldrh	r0, [r1, #12]	@ unaligned
 921 0326 FFF7FEFF 		bl	lwip_ntohs
 922              	.LVL86:
 923 032a C207     		lsls	r2, r0, #31
 924 032c 3FF58FAE 		bmi	.L56
 925              		.loc 1 1459 0
 926 0330 BB48     		ldr	r0, .L287
 927 0332 FFF7FEFF 		bl	tcp_seg_copy
 928              	.LVL87:
 929 0336 2860     		str	r0, [r5]
 930              		.loc 1 1460 0
 931 0338 0028     		cmp	r0, #0
 932 033a 3FF488AE 		beq	.L56
 933              		.loc 1 1461 0
 934 033e 2969     		ldr	r1, [r5, #16]
 935 0340 D8F80030 		ldr	r3, [r8]
 936 0344 2A89     		ldrh	r2, [r5, #8]
 937 0346 4968     		ldr	r1, [r1, #4]	@ unaligned
 938 0348 B64E     		ldr	r6, .L287+4
 939 034a D21A     		subs	r2, r2, r3
 940 034c 0A44     		add	r2, r2, r1
 941 034e 002A     		cmp	r2, #0
 942 0350 06DD     		ble	.L162
 943              		.loc 1 1463 0
 944 0352 5B1A     		subs	r3, r3, r1
 945 0354 99B2     		uxth	r1, r3
 946 0356 2981     		strh	r1, [r5, #8]	@ movhi
 947              		.loc 1 1464 0
 948 0358 6868     		ldr	r0, [r5, #4]
 949 035a FFF7FEFF 		bl	pbuf_realloc
 950              	.LVL88:
 951 035e 3368     		ldr	r3, [r6]
 952              	.L162:
 953              		.loc 1 1467 0
 954 0360 B9F80010 		ldrh	r1, [r9]
 955 0364 A08D     		ldrh	r0, [r4, #44]
 956 0366 A26A     		ldr	r2, [r4, #40]
 957 0368 0B44     		add	r3, r3, r1
 958 036a 0244     		add	r2, r2, r0
 959 036c 9342     		cmp	r3, r2
 960 036e 7FF66EAE 		bls	.L56
 961              		.loc 1 1472 0
 962 0372 2B68     		ldr	r3, [r5]
 963 0374 1B69     		ldr	r3, [r3, #16]
 964 0376 9889     		ldrh	r0, [r3, #12]	@ unaligned
 965 0378 FFF7FEFF 		bl	lwip_ntohs
 966              	.LVL89:
ARM GAS  C:\Users\jo\AppData\Local\Temp\ccfChKJS.s 			page 18


 967 037c C307     		lsls	r3, r0, #31
 968 037e 00F1BB83 		bmi	.L271
 969              	.L163:
 970              		.loc 1 1478 0
 971 0382 A06A     		ldr	r0, [r4, #40]
 972 0384 A38D     		ldrh	r3, [r4, #44]
 973 0386 D8F80010 		ldr	r1, [r8]
 974 038a 2A68     		ldr	r2, [r5]
 975 038c 0344     		add	r3, r3, r0
 976 038e 591A     		subs	r1, r3, r1
 977 0390 89B2     		uxth	r1, r1
 978 0392 1181     		strh	r1, [r2, #8]	@ movhi
 979              		.loc 1 1479 0
 980 0394 5068     		ldr	r0, [r2, #4]
 981 0396 FFF7FEFF 		bl	pbuf_realloc
 982              	.LVL90:
 983              		.loc 1 1480 0
 984 039a 2B68     		ldr	r3, [r5]
 985 039c 1A69     		ldr	r2, [r3, #16]
 986 039e 1D89     		ldrh	r5, [r3, #8]
 987              	.LVL91:
 988 03a0 9089     		ldrh	r0, [r2, #12]	@ unaligned
 989 03a2 FFF7FEFF 		bl	lwip_ntohs
 990              	.LVL92:
 991 03a6 10F00300 		ands	r0, r0, #3
 992 03aa 18BF     		it	ne
 993 03ac 0120     		movne	r0, #1
 994 03ae 2B18     		adds	r3, r5, r0
 995              		.loc 1 1481 0
 996 03b0 D8F80010 		ldr	r1, [r8]
 997 03b4 A08D     		ldrh	r0, [r4, #44]
 998 03b6 A26A     		ldr	r2, [r4, #40]
 999              		.loc 1 1480 0
 1000 03b8 9BB2     		uxth	r3, r3
 1001              		.loc 1 1481 0
 1002 03ba 1944     		add	r1, r1, r3
 1003 03bc 0244     		add	r2, r2, r0
 1004 03be 9142     		cmp	r1, r2
 1005              		.loc 1 1480 0
 1006 03c0 A9F80030 		strh	r3, [r9]	@ movhi
 1007              		.loc 1 1481 0
 1008 03c4 3FF443AE 		beq	.L56
 1009              		.loc 1 1481 0 is_stmt 0 discriminator 1
 1010 03c8 974B     		ldr	r3, .L287+8
 1011 03ca 0093     		str	r3, [sp]
 1012 03cc 9749     		ldr	r1, .L287+12
 1013 03ce 984A     		ldr	r2, .L287+16
 1014 03d0 9848     		ldr	r0, .L287+20
 1015 03d2 40F2CA53 		movw	r3, #1482
 1016 03d6 FFF7FEFF 		bl	chprintf.constprop.1
 1017              	.LVL93:
 1018              	.LBB61:
 1019              	.LBB62:
 1020              		.loc 3 416 0 is_stmt 1 discriminator 1
 1021 03da 9548     		ldr	r0, .L287+16
 1022              	.LBE62:
 1023              	.LBE61:
ARM GAS  C:\Users\jo\AppData\Local\Temp\ccfChKJS.s 			page 19


 1024              		.loc 1 1531 0 discriminator 1
 1025 03dc 05B0     		add	sp, sp, #20
 1026              		.cfi_remember_state
 1027              		.cfi_def_cfa_offset 36
 1028              		@ sp needed
 1029 03de BDE8F04F 		pop	{r4, r5, r6, r7, r8, r9, r10, fp, lr}
 1030              		.cfi_restore 14
 1031              		.cfi_restore 11
 1032              		.cfi_restore 10
 1033              		.cfi_restore 9
 1034              		.cfi_restore 8
 1035              		.cfi_restore 7
 1036              		.cfi_restore 6
 1037              		.cfi_restore 5
 1038              		.cfi_restore 4
 1039              		.cfi_def_cfa_offset 0
 1040              	.LVL94:
 1041              	.LBB64:
 1042              	.LBB63:
 1043              		.loc 3 416 0 discriminator 1
 1044 03e2 FFF7FEBF 		b	chSysHalt
 1045              	.LVL95:
 1046              	.L257:
 1047              		.cfi_restore_state
 1048              	.LBE63:
 1049              	.LBE64:
 1050              		.loc 1 927 0
 1051 03e6 DFF85C92 		ldr	r9, .L287+36
 1052 03ea B9F80020 		ldrh	r2, [r9]
 1053              		.loc 1 925 0
 1054 03ee 0021     		movs	r1, #0
 1055 03f0 A4F86410 		strh	r1, [r4, #100]	@ movhi
 1056              		.loc 1 927 0
 1057 03f4 3AB9     		cbnz	r2, .L68
 1058              		.loc 1 929 0
 1059 03f6 B4F86010 		ldrh	r1, [r4, #96]
 1060 03fa A26D     		ldr	r2, [r4, #88]
 1061              		.loc 1 867 0
 1062 03fc 2844     		add	r0, r0, r5
 1063              	.LVL96:
 1064              		.loc 1 929 0
 1065 03fe 0A44     		add	r2, r2, r1
 1066 0400 8242     		cmp	r2, r0
 1067 0402 00F0ED80 		beq	.L272
 1068              	.L68:
 1069              		.loc 1 955 0
 1070 0406 0023     		movs	r3, #0
 1071 0408 84F84730 		strb	r3, [r4, #71]
 1072 040c 43E6     		b	.L87
 1073              	.LVL97:
 1074              	.L67:
 1075              		.loc 1 887 0
 1076 040e 002A     		cmp	r2, #0
 1077 0410 3FF432AE 		beq	.L65
 1078              		.loc 1 889 0
 1079 0414 0022     		movs	r2, #0
 1080 0416 84F89520 		strb	r2, [r4, #149]
ARM GAS  C:\Users\jo\AppData\Local\Temp\ccfChKJS.s 			page 20


 1081 041a 2DE6     		b	.L65
 1082              	.L256:
 1083              		.loc 1 872 0
 1084 041c 864B     		ldr	r3, .L287+24
 1085 041e 1B68     		ldr	r3, [r3]
 1086 0420 D989     		ldrh	r1, [r3, #14]	@ unaligned
 1087 0422 8D42     		cmp	r5, r1
 1088 0424 0346     		mov	r3, r0
 1089 0426 BFF427AE 		bcs	.L65
 1090 042a 06E7     		b	.L61
 1091              	.L258:
 1092              		.loc 1 963 0
 1093 042c A17F     		ldrb	r1, [r4, #30]	@ zero_extendqisi2
 1094 042e 4807     		lsls	r0, r1, #29
 1095              	.LVL98:
 1096 0430 06D5     		bpl	.L73
 1097              		.loc 1 964 0
 1098 0432 21F00401 		bic	r1, r1, #4
 1099              		.loc 1 965 0
 1100 0436 B4F84E00 		ldrh	r0, [r4, #78]
 1101              		.loc 1 964 0
 1102 043a A177     		strb	r1, [r4, #30]
 1103              		.loc 1 965 0
 1104 043c A4F84C00 		strh	r0, [r4, #76]	@ movhi
 1105              	.L73:
 1106              		.loc 1 977 0
 1107 0440 B4F86600 		ldrh	r0, [r4, #102]
 1108              		.loc 1 972 0
 1109 0444 B4F84210 		ldrh	r1, [r4, #66]
 1110 0448 B4F94070 		ldrsh	r7, [r4, #64]
 1111              		.loc 1 985 0
 1112 044c 257E     		ldrb	r5, [r4, #24]	@ zero_extendqisi2
 1113              		.loc 1 981 0
 1114 044e A364     		str	r3, [r4, #72]
 1115              		.loc 1 975 0
 1116 0450 92B2     		uxth	r2, r2
 1117              		.loc 1 972 0
 1118 0452 01EBE703 		add	r3, r1, r7, asr #3
 1119              		.loc 1 977 0
 1120 0456 1044     		add	r0, r0, r2
 1121              		.loc 1 969 0
 1122 0458 0021     		movs	r1, #0
 1123              		.loc 1 985 0
 1124 045a 032D     		cmp	r5, #3
 1125              		.loc 1 975 0
 1126 045c A4F86420 		strh	r2, [r4, #100]	@ movhi
 1127              		.loc 1 977 0
 1128 0460 A4F86600 		strh	r0, [r4, #102]	@ movhi
 1129              		.loc 1 972 0
 1130 0464 A4F84430 		strh	r3, [r4, #68]	@ movhi
 1131              		.loc 1 969 0
 1132 0468 84F84610 		strb	r1, [r4, #70]
 1133              		.loc 1 980 0
 1134 046c 84F84710 		strb	r1, [r4, #71]
 1135              		.loc 1 985 0
 1136 0470 0FD9     		bls	.L74
 1137              		.loc 1 986 0
ARM GAS  C:\Users\jo\AppData\Local\Temp\ccfChKJS.s 			page 21


 1138 0472 B4F84C20 		ldrh	r2, [r4, #76]
 1139 0476 B4F84E30 		ldrh	r3, [r4, #78]
 1140 047a 9342     		cmp	r3, r2
 1141              		.loc 1 987 0
 1142 047c E38E     		ldrh	r3, [r4, #54]
 1143              	.LBB65:
 1144              		.loc 1 992 0
 1145 047e 9CBF     		itt	ls
 1146 0480 5B43     		mulls	r3, r3, r3
 1147 0482 93FBF2F3 		sdivls	r3, r3, r2
 1148 0486 1344     		add	r3, r3, r2
 1149 0488 9BB2     		uxth	r3, r3
 1150              	.LVL99:
 1151              		.loc 1 993 0
 1152 048a 9A42     		cmp	r2, r3
 1153              		.loc 1 994 0
 1154 048c 38BF     		it	cc
 1155 048e A4F84C30 		strhcc	r3, [r4, #76]	@ movhi
 1156              	.LVL100:
 1157              	.L74:
 1158 0492 236F     		ldr	r3, [r4, #112]
 1159              	.LBE65:
 1160              		.loc 1 1020 0
 1161 0494 644F     		ldr	r7, .L287+8
 1162              	.L76:
 1163              		.loc 1 1008 0
 1164 0496 002B     		cmp	r3, #0
 1165 0498 37D0     		beq	.L86
 1166              		.loc 1 1009 0 discriminator 1
 1167 049a 1B69     		ldr	r3, [r3, #16]
 1168 049c 5868     		ldr	r0, [r3, #4]	@ unaligned
 1169 049e FFF7FEFF 		bl	lwip_ntohl
 1170              	.LVL101:
 1171 04a2 236F     		ldr	r3, [r4, #112]
 1172 04a4 1A69     		ldr	r2, [r3, #16]
 1173 04a6 B3F80890 		ldrh	r9, [r3, #8]
 1174 04aa 0546     		mov	r5, r0
 1175 04ac 9089     		ldrh	r0, [r2, #12]	@ unaligned
 1176 04ae FFF7FEFF 		bl	lwip_ntohs
 1177              	.LVL102:
 1178 04b2 3368     		ldr	r3, [r6]
 1179 04b4 10F00300 		ands	r0, r0, #3
 1180 04b8 18BF     		it	ne
 1181 04ba 0120     		movne	r0, #1
 1182 04bc 4844     		add	r0, r0, r9
 1183 04be EB1A     		subs	r3, r5, r3
 1184 04c0 1844     		add	r0, r0, r3
 1185              		.loc 1 1008 0 discriminator 1
 1186 04c2 0028     		cmp	r0, #0
 1187 04c4 00F3C080 		bgt	.L273
 1188              		.loc 1 1016 0
 1189 04c8 256F     		ldr	r5, [r4, #112]
 1190              	.LVL103:
 1191              		.loc 1 1020 0
 1192 04ca B4F86890 		ldrh	r9, [r4, #104]
 1193              		.loc 1 1017 0
 1194 04ce 2B68     		ldr	r3, [r5]
ARM GAS  C:\Users\jo\AppData\Local\Temp\ccfChKJS.s 			page 22


 1195 04d0 2367     		str	r3, [r4, #112]
 1196              		.loc 1 1020 0
 1197 04d2 6868     		ldr	r0, [r5, #4]
 1198 04d4 FFF7FEFF 		bl	pbuf_clen
 1199              	.LVL104:
 1200 04d8 80B2     		uxth	r0, r0
 1201 04da 8145     		cmp	r9, r0
 1202 04dc 36D3     		bcc	.L274
 1203              	.L77:
 1204              		.loc 1 1022 0
 1205 04de B4F86430 		ldrh	r3, [r4, #100]
 1206 04e2 3BBB     		cbnz	r3, .L275
 1207              	.L79:
 1208              		.loc 1 1026 0
 1209 04e4 6868     		ldr	r0, [r5, #4]
 1210 04e6 FFF7FEFF 		bl	pbuf_clen
 1211              	.LVL105:
 1212 04ea B4F86830 		ldrh	r3, [r4, #104]
 1213 04ee 181A     		subs	r0, r3, r0
 1214 04f0 A4F86800 		strh	r0, [r4, #104]	@ movhi
 1215              		.loc 1 1027 0
 1216 04f4 2846     		mov	r0, r5
 1217 04f6 FFF7FEFF 		bl	tcp_seg_free
 1218              	.LVL106:
 1219              		.loc 1 1030 0
 1220 04fa B4F86830 		ldrh	r3, [r4, #104]
 1221 04fe BBB1     		cbz	r3, .L241
 1222              		.loc 1 1031 0
 1223 0500 236F     		ldr	r3, [r4, #112]
 1224 0502 002B     		cmp	r3, #0
 1225 0504 C7D1     		bne	.L76
 1226              		.loc 1 1031 0 is_stmt 0 discriminator 1
 1227 0506 E36E     		ldr	r3, [r4, #108]
 1228 0508 3BB1     		cbz	r3, .L276
 1229              	.LVL107:
 1230              	.L86:
 1231              		.loc 1 1039 0 is_stmt 1
 1232 050a 4FF6FF73 		movw	r3, #65535
 1233 050e A386     		strh	r3, [r4, #52]	@ movhi
 1234              	.L84:
 1235              		.loc 1 1043 0
 1236 0510 0023     		movs	r3, #0
 1237 0512 E377     		strb	r3, [r4, #31]
 1238 0514 DFF82C91 		ldr	r9, .L287+36
 1239 0518 BDE5     		b	.L87
 1240              	.LVL108:
 1241              	.L276:
 1242              		.loc 1 1031 0 discriminator 2
 1243 051a 0097     		str	r7, [sp]
 1244 051c 4548     		ldr	r0, .L287+20
 1245 051e 4349     		ldr	r1, .L287+12
 1246 0520 464A     		ldr	r2, .L287+28
 1247 0522 4FF48163 		mov	r3, #1032
 1248 0526 FFF7FEFF 		bl	chprintf.constprop.1
 1249              	.LVL109:
 1250              	.LBB66:
 1251              	.LBB67:
ARM GAS  C:\Users\jo\AppData\Local\Temp\ccfChKJS.s 			page 23


 1252              		.loc 3 416 0 discriminator 2
 1253 052a 4448     		ldr	r0, .L287+28
 1254 052c FFF7FEFF 		bl	chSysHalt
 1255              	.LVL110:
 1256              	.L241:
 1257 0530 236F     		ldr	r3, [r4, #112]
 1258 0532 B0E7     		b	.L76
 1259              	.L275:
 1260              	.LBE67:
 1261              	.LBE66:
 1262              		.loc 1 1022 0 discriminator 1
 1263 0534 2B69     		ldr	r3, [r5, #16]
 1264 0536 9889     		ldrh	r0, [r3, #12]	@ unaligned
 1265 0538 FFF7FEFF 		bl	lwip_ntohs
 1266              	.LVL111:
 1267 053c C207     		lsls	r2, r0, #31
 1268 053e D1D5     		bpl	.L79
 1269              		.loc 1 1023 0
 1270 0540 B4F86430 		ldrh	r3, [r4, #100]
 1271 0544 013B     		subs	r3, r3, #1
 1272 0546 A4F86430 		strh	r3, [r4, #100]	@ movhi
 1273 054a CBE7     		b	.L79
 1274              	.L274:
 1275              		.loc 1 1020 0 discriminator 1
 1276 054c 0097     		str	r7, [sp]
 1277 054e 3749     		ldr	r1, .L287+12
 1278 0550 3B4A     		ldr	r2, .L287+32
 1279 0552 3848     		ldr	r0, .L287+20
 1280 0554 4FF47F73 		mov	r3, #1020
 1281 0558 FFF7FEFF 		bl	chprintf.constprop.1
 1282              	.LVL112:
 1283              	.LBB68:
 1284              	.LBB69:
 1285              		.loc 3 416 0 discriminator 1
 1286 055c 3848     		ldr	r0, .L287+32
 1287 055e FFF7FEFF 		bl	chSysHalt
 1288              	.LVL113:
 1289 0562 BCE7     		b	.L77
 1290              	.LVL114:
 1291              	.L263:
 1292              	.LBE69:
 1293              	.LBE68:
 1294              		.loc 1 1173 0
 1295 0564 2E4F     		ldr	r7, .L287
 1296 0566 7D68     		ldr	r5, [r7, #4]
 1297              		.loc 1 1172 0
 1298 0568 B246     		mov	r10, r6
 1299              	.LVL115:
 1300              		.loc 1 1174 0
 1301 056a 002D     		cmp	r5, #0
 1302 056c 00F05C82 		beq	.L277
 1303              	.LVL116:
 1304              	.L104:
 1305              		.loc 1 1175 0
 1306 0570 47F6FE73 		movw	r3, #32766
 1307 0574 9E42     		cmp	r6, r3
 1308 0576 00F3A381 		bgt	.L278
ARM GAS  C:\Users\jo\AppData\Local\Temp\ccfChKJS.s 			page 24


 1309              	.L105:
 1310              		.loc 1 1176 0
 1311 057a 7868     		ldr	r0, [r7, #4]
 1312 057c DFF8A0B0 		ldr	fp, .L287
 1313 0580 4389     		ldrh	r3, [r0, #10]
 1314 0582 9E42     		cmp	r6, r3
 1315 0584 40F38881 		ble	.L106
 1316              		.loc 1 1177 0
 1317 0588 0289     		ldrh	r2, [r0, #8]
 1318 058a 9642     		cmp	r6, r2
 1319 058c 00F3D681 		bgt	.L279
 1320              	.L107:
 1321              		.loc 1 1179 0
 1322 0590 6B89     		ldrh	r3, [r5, #10]
 1323              		.loc 1 1178 0
 1324 0592 921B     		subs	r2, r2, r6
 1325              		.loc 1 1179 0
 1326 0594 9E42     		cmp	r6, r3
 1327              		.loc 1 1178 0
 1328 0596 92B2     		uxth	r2, r2
 1329              	.LVL117:
 1330              		.loc 1 1179 0
 1331 0598 08DD     		ble	.L108
 1332              		.loc 1 1185 0
 1333 059a 0021     		movs	r1, #0
 1334              	.LVL118:
 1335              	.L109:
 1336 059c 6981     		strh	r1, [r5, #10]	@ movhi
 1337              		.loc 1 1184 0
 1338 059e 2A81     		strh	r2, [r5, #8]	@ movhi
 1339              		.loc 1 1186 0
 1340 05a0 2D68     		ldr	r5, [r5]
 1341              	.LVL119:
 1342              		.loc 1 1180 0
 1343 05a2 C3EB0A0A 		rsb	r10, r3, r10
 1344              	.LVL120:
 1345              		.loc 1 1179 0
 1346 05a6 6B89     		ldrh	r3, [r5, #10]
 1347 05a8 5345     		cmp	r3, r10
 1348 05aa F7DB     		blt	.L109
 1349              	.L108:
 1350              		.loc 1 1188 0
 1351 05ac CAF10001 		rsb	r1, r10, #0
 1352 05b0 09B2     		sxth	r1, r1
 1353 05b2 2846     		mov	r0, r5
 1354 05b4 FFF7FEFF 		bl	pbuf_header
 1355              	.LVL121:
 1356 05b8 0028     		cmp	r0, #0
 1357 05ba 40F0CF81 		bne	.L280
 1358              	.L111:
 1359              		.loc 1 1198 0
 1360 05be A26A     		ldr	r2, [r4, #40]
 1361 05c0 D8F80000 		ldr	r0, [r8]
 1362 05c4 3B89     		ldrh	r3, [r7, #8]
 1363              		.loc 1 1199 0
 1364 05c6 3D69     		ldr	r5, [r7, #16]
 1365              	.LVL122:
ARM GAS  C:\Users\jo\AppData\Local\Temp\ccfChKJS.s 			page 25


 1366 05c8 C8F80020 		str	r2, [r8]
 1367 05cc 0344     		add	r3, r3, r0
 1368 05ce 901A     		subs	r0, r2, r2
 1369              		.loc 1 1198 0
 1370 05d0 9B1A     		subs	r3, r3, r2
 1371              		.loc 1 1214 0
 1372 05d2 0028     		cmp	r0, #0
 1373              		.loc 1 1198 0
 1374 05d4 3B81     		strh	r3, [r7, #8]	@ movhi
 1375 05d6 1146     		mov	r1, r2
 1376              		.loc 1 1199 0
 1377 05d8 6A60     		str	r2, [r5, #4]	@ unaligned
 1378              		.loc 1 1214 0
 1379 05da BFF6DFAD 		bge	.L113
 1380 05de E4E5     		b	.L114
 1381              	.LVL123:
 1382              	.L272:
 1383              		.loc 1 931 0
 1384 05e0 B4F93420 		ldrsh	r2, [r4, #52]
 1385 05e4 002A     		cmp	r2, #0
 1386 05e6 FFF60EAF 		blt	.L68
 1387              		.loc 1 933 0
 1388 05ea 9F42     		cmp	r7, r3
 1389 05ec 7FF40BAF 		bne	.L68
 1390              	.LVL124:
 1391              		.loc 1 935 0
 1392 05f0 94F84720 		ldrb	r2, [r4, #71]	@ zero_extendqisi2
 1393 05f4 531C     		adds	r3, r2, #1
 1394 05f6 DBB2     		uxtb	r3, r3
 1395 05f8 9A42     		cmp	r2, r3
 1396              		.loc 1 936 0
 1397 05fa 3CBF     		itt	cc
 1398 05fc 1A46     		movcc	r2, r3
 1399 05fe 84F84730 		strbcc	r3, [r4, #71]
 1400              		.loc 1 938 0
 1401 0602 032A     		cmp	r2, #3
 1402 0604 40F26E82 		bls	.L70
 1403              		.loc 1 941 0
 1404 0608 B4F84C20 		ldrh	r2, [r4, #76]
 1405 060c E38E     		ldrh	r3, [r4, #54]
 1406 060e 1344     		add	r3, r3, r2
 1407 0610 9BB2     		uxth	r3, r3
 1408 0612 9A42     		cmp	r2, r3
 1409 0614 BFF43FAD 		bcs	.L87
 1410              		.loc 1 942 0
 1411 0618 A4F84C30 		strh	r3, [r4, #76]	@ movhi
 1412 061c 3BE5     		b	.L87
 1413              	.L288:
 1414 061e 00BF     		.align	2
 1415              	.L287:
 1416 0620 00000000 		.word	.LANCHOR5
 1417 0624 00000000 		.word	.LANCHOR0
 1418 0628 44000000 		.word	.LC2
 1419 062c 00000000 		.word	.LC0
 1420 0630 F4000000 		.word	.LC9
 1421 0634 00000000 		.word	itm_port
 1422 0638 00000000 		.word	.LANCHOR1
ARM GAS  C:\Users\jo\AppData\Local\Temp\ccfChKJS.s 			page 26


 1423 063c 90000000 		.word	.LC4
 1424 0640 68000000 		.word	.LC3
 1425 0644 00000000 		.word	.LANCHOR4
 1426              	.LVL125:
 1427              	.L273:
 1428              		.loc 1 1038 0
 1429 0648 236F     		ldr	r3, [r4, #112]
 1430 064a 002B     		cmp	r3, #0
 1431 064c 3FF45DAF 		beq	.L86
 1432              		.loc 1 1041 0
 1433 0650 0023     		movs	r3, #0
 1434 0652 A386     		strh	r3, [r4, #52]	@ movhi
 1435 0654 5CE7     		b	.L84
 1436              	.LVL126:
 1437              	.L266:
 1438              		.loc 1 1220 0
 1439 0656 B04F     		ldr	r7, .L289
 1440 0658 3B69     		ldr	r3, [r7, #16]
 1441 065a 3D89     		ldrh	r5, [r7, #8]
 1442 065c 9889     		ldrh	r0, [r3, #12]	@ unaligned
 1443 065e FFF7FEFF 		bl	lwip_ntohs
 1444              	.LVL127:
 1445 0662 10F00300 		ands	r0, r0, #3
 1446 0666 18BF     		it	ne
 1447 0668 0120     		movne	r0, #1
 1448 066a 2B18     		adds	r3, r5, r0
 1449              		.loc 1 1222 0
 1450 066c A28D     		ldrh	r2, [r4, #44]
 1451              		.loc 1 1220 0
 1452 066e 9BB2     		uxth	r3, r3
 1453              		.loc 1 1222 0
 1454 0670 9A42     		cmp	r2, r3
 1455              		.loc 1 1220 0
 1456 0672 A9F80030 		strh	r3, [r9]	@ movhi
 1457              		.loc 1 1222 0
 1458 0676 C0F07E81 		bcc	.L281
 1459              	.L117:
 1460              		.loc 1 1246 0
 1461 067a 636F     		ldr	r3, [r4, #116]
 1462 067c 002B     		cmp	r3, #0
 1463 067e 63D0     		beq	.L244
 1464              		.loc 1 1247 0
 1465 0680 3B69     		ldr	r3, [r7, #16]
 1466 0682 9889     		ldrh	r0, [r3, #12]	@ unaligned
 1467 0684 FFF7FEFF 		bl	lwip_ntohs
 1468              	.LVL128:
 1469 0688 C007     		lsls	r0, r0, #31
 1470 068a 5AD4     		bmi	.L249
 1471              		.loc 1 1259 0
 1472 068c D4F874A0 		ldr	r10, [r4, #116]
 1473              	.LVL129:
 1474              		.loc 1 1262 0
 1475 0690 BAF1000F 		cmp	r10, #0
 1476 0694 00F0BB81 		beq	.L127
 1477              		.loc 1 1263 0
 1478 0698 DAF810E0 		ldr	lr, [r10, #16]
 1479 069c B9F80020 		ldrh	r2, [r9]
ARM GAS  C:\Users\jo\AppData\Local\Temp\ccfChKJS.s 			page 27


 1480 06a0 DEF804C0 		ldr	ip, [lr, #4]	@ unaligned
 1481 06a4 D8F80000 		ldr	r0, [r8]
 1482 06a8 BAF80810 		ldrh	r1, [r10, #8]
 1483 06ac CCEB0203 		rsb	r3, ip, r2
 1484 06b0 0344     		add	r3, r3, r0
 1485 06b2 591A     		subs	r1, r3, r1
 1486              		.loc 1 1262 0
 1487 06b4 0029     		cmp	r1, #0
 1488 06b6 C0F2B281 		blt	.L171
 1489              		.loc 1 1267 0
 1490 06ba 974E     		ldr	r6, .L289
 1491 06bc 18E0     		b	.L132
 1492              	.L130:
 1493              	.LVL130:
 1494              		.loc 1 1272 0
 1495 06be DAF80050 		ldr	r5, [r10]
 1496              	.LVL131:
 1497              		.loc 1 1273 0
 1498 06c2 5046     		mov	r0, r10
 1499 06c4 FFF7FEFF 		bl	tcp_seg_free
 1500              	.LVL132:
 1501              		.loc 1 1262 0
 1502 06c8 002D     		cmp	r5, #0
 1503 06ca 00F0A081 		beq	.L127
 1504              		.loc 1 1263 0 discriminator 1
 1505 06ce D5F810E0 		ldr	lr, [r5, #16]
 1506 06d2 B9F80020 		ldrh	r2, [r9]
 1507 06d6 DEF804C0 		ldr	ip, [lr, #4]	@ unaligned
 1508 06da D8F80000 		ldr	r0, [r8]
 1509 06de 2989     		ldrh	r1, [r5, #8]
 1510 06e0 CCEB0203 		rsb	r3, ip, r2
 1511 06e4 0344     		add	r3, r3, r0
 1512 06e6 591A     		subs	r1, r3, r1
 1513              		.loc 1 1262 0 discriminator 1
 1514 06e8 0029     		cmp	r1, #0
 1515 06ea C0F29981 		blt	.L128
 1516 06ee AA46     		mov	r10, r5
 1517              	.LVL133:
 1518              	.L132:
 1519              		.loc 1 1266 0
 1520 06f0 BEF80C00 		ldrh	r0, [lr, #12]	@ unaligned
 1521 06f4 FFF7FEFF 		bl	lwip_ntohs
 1522              	.LVL134:
 1523 06f8 C107     		lsls	r1, r0, #31
 1524 06fa E0D5     		bpl	.L130
 1525              		.loc 1 1267 0 discriminator 1
 1526 06fc 3B69     		ldr	r3, [r7, #16]
 1527 06fe 9889     		ldrh	r0, [r3, #12]	@ unaligned
 1528 0700 FFF7FEFF 		bl	lwip_ntohs
 1529              	.LVL135:
 1530              		.loc 1 1266 0 discriminator 1
 1531 0704 8207     		lsls	r2, r0, #30
 1532 0706 DAD4     		bmi	.L130
 1533              		.loc 1 1268 0
 1534 0708 D6F810B0 		ldr	fp, [r6, #16]
 1535 070c 0120     		movs	r0, #1
 1536 070e BBF80C50 		ldrh	r5, [fp, #12]	@ unaligned
ARM GAS  C:\Users\jo\AppData\Local\Temp\ccfChKJS.s 			page 28


 1537 0712 FFF7FEFF 		bl	lwip_htons
 1538              	.LVL136:
 1539              		.loc 1 1269 0
 1540 0716 3269     		ldr	r2, [r6, #16]
 1541 0718 3389     		ldrh	r3, [r6, #8]
 1542 071a 0393     		str	r3, [sp, #12]
 1543              		.loc 1 1268 0
 1544 071c 2843     		orrs	r0, r0, r5
 1545 071e ABF80C00 		strh	r0, [fp, #12]	@ unaligned
 1546              		.loc 1 1269 0
 1547 0722 9089     		ldrh	r0, [r2, #12]	@ unaligned
 1548 0724 FFF7FEFF 		bl	lwip_ntohs
 1549              	.LVL137:
 1550 0728 039B     		ldr	r3, [sp, #12]
 1551 072a 10F00300 		ands	r0, r0, #3
 1552 072e 18BF     		it	ne
 1553 0730 0120     		movne	r0, #1
 1554 0732 1844     		add	r0, r0, r3
 1555 0734 A9F80000 		strh	r0, [r9]	@ movhi
 1556 0738 C1E7     		b	.L130
 1557              	.LVL138:
 1558              	.L126:
 1559              	.LBB70:
 1560              		.loc 1 1255 0
 1561 073a 0368     		ldr	r3, [r0]
 1562 073c 6367     		str	r3, [r4, #116]
 1563              		.loc 1 1256 0
 1564 073e FFF7FEFF 		bl	tcp_seg_free
 1565              	.LVL139:
 1566              	.L249:
 1567              	.LBE70:
 1568              		.loc 1 1253 0
 1569 0742 606F     		ldr	r0, [r4, #116]
 1570 0744 0028     		cmp	r0, #0
 1571 0746 F8D1     		bne	.L126
 1572              	.L244:
 1573 0748 B9F80020 		ldrh	r2, [r9]
 1574 074c D8F80030 		ldr	r3, [r8]
 1575 0750 1344     		add	r3, r3, r2
 1576              	.L123:
 1577              		.loc 1 1298 0
 1578 0752 A18D     		ldrh	r1, [r4, #44]
 1579              		.loc 1 1295 0
 1580 0754 A362     		str	r3, [r4, #40]
 1581              		.loc 1 1298 0
 1582 0756 9142     		cmp	r1, r2
 1583 0758 C0F04981 		bcc	.L282
 1584              	.L136:
 1585              		.loc 1 1299 0
 1586 075c 8A1A     		subs	r2, r1, r2
 1587 075e A285     		strh	r2, [r4, #44]	@ movhi
 1588              		.loc 1 1301 0
 1589 0760 2046     		mov	r0, r4
 1590 0762 FFF7FEFF 		bl	tcp_update_rcv_ann_wnd
 1591              	.LVL140:
 1592              		.loc 1 1312 0
 1593 0766 7B68     		ldr	r3, [r7, #4]
ARM GAS  C:\Users\jo\AppData\Local\Temp\ccfChKJS.s 			page 29


 1594 0768 6B49     		ldr	r1, .L289
 1595 076a 1A89     		ldrh	r2, [r3, #8]
 1596 076c 1AB1     		cbz	r2, .L137
 1597              		.loc 1 1313 0
 1598 076e 6B48     		ldr	r0, .L289+4
 1599              		.loc 1 1317 0
 1600 0770 0022     		movs	r2, #0
 1601              		.loc 1 1313 0
 1602 0772 0360     		str	r3, [r0]
 1603              		.loc 1 1317 0
 1604 0774 4A60     		str	r2, [r1, #4]
 1605              	.L137:
 1606              		.loc 1 1319 0
 1607 0776 3B69     		ldr	r3, [r7, #16]
 1608 0778 9889     		ldrh	r0, [r3, #12]	@ unaligned
 1609 077a FFF7FEFF 		bl	lwip_ntohs
 1610              	.LVL141:
 1611 077e C507     		lsls	r5, r0, #31
 1612 0780 04D5     		bpl	.L138
 1613              		.loc 1 1321 0
 1614 0782 674A     		ldr	r2, .L289+8
 1615 0784 1378     		ldrb	r3, [r2]	@ zero_extendqisi2
 1616 0786 43F02003 		orr	r3, r3, #32
 1617 078a 1370     		strb	r3, [r2]
 1618              	.L138:
 1619              		.loc 1 1327 0
 1620 078c 656F     		ldr	r5, [r4, #116]
 1621 078e 002D     		cmp	r5, #0
 1622 0790 68D0     		beq	.L142
 1623              		.loc 1 1328 0
 1624 0792 2A69     		ldr	r2, [r5, #16]
 1625 0794 A36A     		ldr	r3, [r4, #40]
 1626 0796 5168     		ldr	r1, [r2, #4]	@ unaligned
 1627              		.loc 1 1327 0
 1628 0798 9942     		cmp	r1, r3
 1629 079a 63D1     		bne	.L142
 1630              		.loc 1 1334 0
 1631 079c 614E     		ldr	r6, .L289+12
 1632 079e 36E0     		b	.L150
 1633              	.LVL142:
 1634              	.L143:
 1635              		.loc 1 1336 0
 1636 07a0 2B69     		ldr	r3, [r5, #16]
 1637 07a2 2F89     		ldrh	r7, [r5, #8]
 1638 07a4 9889     		ldrh	r0, [r3, #12]	@ unaligned
 1639 07a6 FFF7FEFF 		bl	lwip_ntohs
 1640              	.LVL143:
 1641 07aa 10F00300 		ands	r0, r0, #3
 1642 07ae A38D     		ldrh	r3, [r4, #44]
 1643 07b0 18BF     		it	ne
 1644 07b2 0120     		movne	r0, #1
 1645 07b4 3844     		add	r0, r0, r7
 1646 07b6 181A     		subs	r0, r3, r0
 1647 07b8 A085     		strh	r0, [r4, #44]	@ movhi
 1648              		.loc 1 1338 0
 1649 07ba 2046     		mov	r0, r4
 1650 07bc FFF7FEFF 		bl	tcp_update_rcv_ann_wnd
ARM GAS  C:\Users\jo\AppData\Local\Temp\ccfChKJS.s 			page 30


 1651              	.LVL144:
 1652              		.loc 1 1340 0
 1653 07c0 6968     		ldr	r1, [r5, #4]
 1654 07c2 0B89     		ldrh	r3, [r1, #8]
 1655 07c4 3BB1     		cbz	r3, .L144
 1656              		.loc 1 1343 0
 1657 07c6 554B     		ldr	r3, .L289+4
 1658 07c8 1868     		ldr	r0, [r3]
 1659 07ca 0028     		cmp	r0, #0
 1660 07cc 48D0     		beq	.L145
 1661              		.loc 1 1344 0
 1662 07ce FFF7FEFF 		bl	pbuf_cat
 1663              	.LVL145:
 1664              	.L146:
 1665              		.loc 1 1348 0
 1666 07d2 0023     		movs	r3, #0
 1667 07d4 6B60     		str	r3, [r5, #4]
 1668              	.L144:
 1669              		.loc 1 1350 0
 1670 07d6 2B69     		ldr	r3, [r5, #16]
 1671 07d8 9889     		ldrh	r0, [r3, #12]	@ unaligned
 1672 07da FFF7FEFF 		bl	lwip_ntohs
 1673              	.LVL146:
 1674 07de C107     		lsls	r1, r0, #31
 1675 07e0 09D5     		bpl	.L148
 1676              		.loc 1 1352 0
 1677 07e2 4F4A     		ldr	r2, .L289+8
 1678              		.loc 1 1353 0
 1679 07e4 217E     		ldrb	r1, [r4, #24]	@ zero_extendqisi2
 1680              		.loc 1 1352 0
 1681 07e6 1378     		ldrb	r3, [r2]	@ zero_extendqisi2
 1682              		.loc 1 1353 0
 1683 07e8 0429     		cmp	r1, #4
 1684              		.loc 1 1352 0
 1685 07ea 43F02003 		orr	r3, r3, #32
 1686 07ee 1370     		strb	r3, [r2]
 1687              		.loc 1 1354 0
 1688 07f0 04BF     		itt	eq
 1689 07f2 0723     		moveq	r3, #7
 1690 07f4 2376     		strbeq	r3, [r4, #24]
 1691              	.L148:
 1692              		.loc 1 1358 0
 1693 07f6 2B68     		ldr	r3, [r5]
 1694 07f8 6367     		str	r3, [r4, #116]
 1695              		.loc 1 1359 0
 1696 07fa 2846     		mov	r0, r5
 1697 07fc FFF7FEFF 		bl	tcp_seg_free
 1698              	.LVL147:
 1699              		.loc 1 1327 0
 1700 0800 656F     		ldr	r5, [r4, #116]
 1701              	.LVL148:
 1702 0802 7DB3     		cbz	r5, .L142
 1703              		.loc 1 1328 0 discriminator 1
 1704 0804 2A69     		ldr	r2, [r5, #16]
 1705              		.loc 1 1327 0 discriminator 1
 1706 0806 A16A     		ldr	r1, [r4, #40]
 1707              		.loc 1 1328 0 discriminator 1
ARM GAS  C:\Users\jo\AppData\Local\Temp\ccfChKJS.s 			page 31


 1708 0808 5368     		ldr	r3, [r2, #4]	@ unaligned
 1709              		.loc 1 1327 0 discriminator 1
 1710 080a 8B42     		cmp	r3, r1
 1711 080c 2AD1     		bne	.L142
 1712              	.L150:
 1713              	.LVL149:
 1714              		.loc 1 1331 0
 1715 080e C8F80030 		str	r3, [r8]
 1716              		.loc 1 1333 0
 1717 0812 9089     		ldrh	r0, [r2, #12]	@ unaligned
 1718 0814 B5F808A0 		ldrh	r10, [r5, #8]
 1719 0818 FFF7FEFF 		bl	lwip_ntohs
 1720              	.LVL150:
 1721 081c 10F00300 		ands	r0, r0, #3
 1722 0820 18BF     		it	ne
 1723 0822 0120     		movne	r0, #1
 1724 0824 A36A     		ldr	r3, [r4, #40]
 1725              		.loc 1 1334 0
 1726 0826 2A69     		ldr	r2, [r5, #16]
 1727 0828 B5F80890 		ldrh	r9, [r5, #8]
 1728 082c A78D     		ldrh	r7, [r4, #44]
 1729              		.loc 1 1333 0
 1730 082e 5044     		add	r0, r0, r10
 1731 0830 1844     		add	r0, r0, r3
 1732 0832 A062     		str	r0, [r4, #40]
 1733              		.loc 1 1334 0
 1734 0834 9089     		ldrh	r0, [r2, #12]	@ unaligned
 1735 0836 FFF7FEFF 		bl	lwip_ntohs
 1736              	.LVL151:
 1737 083a 10F00300 		ands	r0, r0, #3
 1738 083e 18BF     		it	ne
 1739 0840 0120     		movne	r0, #1
 1740 0842 4844     		add	r0, r0, r9
 1741 0844 8742     		cmp	r7, r0
 1742 0846 ABDA     		bge	.L143
 1743              		.loc 1 1334 0 is_stmt 0 discriminator 1
 1744 0848 0096     		str	r6, [sp]
 1745 084a 3749     		ldr	r1, .L289+16
 1746 084c 374A     		ldr	r2, .L289+20
 1747 084e 3848     		ldr	r0, .L289+24
 1748 0850 40F23753 		movw	r3, #1335
 1749 0854 FFF7FEFF 		bl	chprintf.constprop.1
 1750              	.LVL152:
 1751              	.LBB71:
 1752              	.LBB72:
 1753              		.loc 3 416 0 is_stmt 1 discriminator 1
 1754 0858 3448     		ldr	r0, .L289+20
 1755 085a FFF7FEFF 		bl	chSysHalt
 1756              	.LVL153:
 1757 085e 9FE7     		b	.L143
 1758              	.LVL154:
 1759              	.L145:
 1760              	.LBE72:
 1761              	.LBE71:
 1762              		.loc 1 1346 0
 1763 0860 1960     		str	r1, [r3]
 1764 0862 B6E7     		b	.L146
ARM GAS  C:\Users\jo\AppData\Local\Temp\ccfChKJS.s 			page 32


 1765              	.LVL155:
 1766              	.L142:
 1767              		.loc 1 1365 0
 1768 0864 A37F     		ldrb	r3, [r4, #30]	@ zero_extendqisi2
 1769 0866 D807     		lsls	r0, r3, #31
 1770 0868 50D5     		bpl	.L283
 1771              		.loc 1 1365 0 is_stmt 0 discriminator 1
 1772 086a 23F00103 		bic	r3, r3, #1
 1773 086e 43F00203 		orr	r3, r3, #2
 1774 0872 A377     		strb	r3, [r4, #30]
 1775 0874 FFF7EBBB 		b	.L56
 1776              	.LVL156:
 1777              	.L270:
 1778              		.loc 1 1394 0 is_stmt 1
 1779 0878 2748     		ldr	r0, .L289
 1780 087a 2B89     		ldrh	r3, [r5, #8]
 1781 087c 0289     		ldrh	r2, [r0, #8]
 1782 087e 9A42     		cmp	r2, r3
 1783 0880 7FF6E5AB 		bls	.L56
 1784              		.loc 1 1398 0
 1785 0884 FFF7FEFF 		bl	tcp_seg_copy
 1786              	.LVL157:
 1787              		.loc 1 1399 0
 1788 0888 0028     		cmp	r0, #0
 1789 088a 3FF4E0AB 		beq	.L56
 1790              		.loc 1 1400 0
 1791 088e 002E     		cmp	r6, #0
 1792 0890 00F02F81 		beq	.L156
 1793              		.loc 1 1401 0
 1794 0894 3060     		str	r0, [r6]
 1795 0896 1BE5     		b	.L245
 1796              	.LVL158:
 1797              	.L106:
 1798              		.loc 1 1193 0
 1799 0898 7142     		negs	r1, r6
 1800 089a 09B2     		sxth	r1, r1
 1801 089c FFF7FEFF 		bl	pbuf_header
 1802              	.LVL159:
 1803 08a0 0028     		cmp	r0, #0
 1804 08a2 3FF48CAE 		beq	.L111
 1805              		.loc 1 1195 0 discriminator 1
 1806 08a6 1F4B     		ldr	r3, .L289+12
 1807 08a8 0093     		str	r3, [sp]
 1808 08aa 1F49     		ldr	r1, .L289+16
 1809 08ac 214A     		ldr	r2, .L289+28
 1810 08ae 2048     		ldr	r0, .L289+24
 1811 08b0 40F2AB43 		movw	r3, #1195
 1812 08b4 FFF7FEFF 		bl	chprintf.constprop.1
 1813              	.LVL160:
 1814              	.LBB73:
 1815              	.LBB74:
 1816              		.loc 3 416 0 discriminator 1
 1817 08b8 1E48     		ldr	r0, .L289+28
 1818 08ba FFF7FEFF 		bl	chSysHalt
 1819              	.LVL161:
 1820 08be 7EE6     		b	.L111
 1821              	.LVL162:
ARM GAS  C:\Users\jo\AppData\Local\Temp\ccfChKJS.s 			page 33


 1822              	.L278:
 1823              	.LBE74:
 1824              	.LBE73:
 1825              		.loc 1 1175 0 discriminator 1
 1826 08c0 184B     		ldr	r3, .L289+12
 1827 08c2 0093     		str	r3, [sp]
 1828 08c4 1849     		ldr	r1, .L289+16
 1829 08c6 1C4A     		ldr	r2, .L289+32
 1830 08c8 1948     		ldr	r0, .L289+24
 1831 08ca 40F29743 		movw	r3, #1175
 1832 08ce FFF7FEFF 		bl	chprintf.constprop.1
 1833              	.LVL163:
 1834              	.LBB75:
 1835              	.LBB76:
 1836              		.loc 3 416 0 discriminator 1
 1837 08d2 1948     		ldr	r0, .L289+32
 1838 08d4 FFF7FEFF 		bl	chSysHalt
 1839              	.LVL164:
 1840 08d8 4FE6     		b	.L105
 1841              	.LVL165:
 1842              	.L268:
 1843              	.LBE76:
 1844              	.LBE75:
 1845              		.loc 1 1437 0
 1846 08da 0F48     		ldr	r0, .L289
 1847 08dc FFF7FEFF 		bl	tcp_seg_copy
 1848              	.LVL166:
 1849              		.loc 1 1438 0
 1850 08e0 0446     		mov	r4, r0
 1851              	.LVL167:
 1852 08e2 0028     		cmp	r0, #0
 1853 08e4 3FF4B3AB 		beq	.L56
 1854              		.loc 1 1439 0
 1855 08e8 3169     		ldr	r1, [r6, #16]
 1856 08ea D8F80030 		ldr	r3, [r8]
 1857 08ee 3289     		ldrh	r2, [r6, #8]
 1858 08f0 4968     		ldr	r1, [r1, #4]	@ unaligned
 1859 08f2 D21A     		subs	r2, r2, r3
 1860 08f4 0A44     		add	r2, r2, r1
 1861 08f6 002A     		cmp	r2, #0
 1862 08f8 05DD     		ble	.L160
 1863              		.loc 1 1441 0
 1864 08fa 5B1A     		subs	r3, r3, r1
 1865 08fc 99B2     		uxth	r1, r3
 1866 08fe 3181     		strh	r1, [r6, #8]	@ movhi
 1867              		.loc 1 1442 0
 1868 0900 7068     		ldr	r0, [r6, #4]
 1869              	.LVL168:
 1870 0902 FFF7FEFF 		bl	pbuf_realloc
 1871              	.LVL169:
 1872              	.L160:
 1873              		.loc 1 1444 0
 1874 0906 3460     		str	r4, [r6]
 1875              		.loc 1 1445 0
 1876 0908 2046     		mov	r0, r4
 1877 090a E1E4     		b	.L245
 1878              	.LVL170:
ARM GAS  C:\Users\jo\AppData\Local\Temp\ccfChKJS.s 			page 34


 1879              	.L283:
 1880              		.loc 1 1365 0 discriminator 2
 1881 090c 43F00103 		orr	r3, r3, #1
 1882 0910 A377     		strb	r3, [r4, #30]
 1883 0912 FFF79CBB 		b	.L56
 1884              	.L290:
 1885 0916 00BF     		.align	2
 1886              	.L289:
 1887 0918 00000000 		.word	.LANCHOR5
 1888 091c 00000000 		.word	.LANCHOR6
 1889 0920 00000000 		.word	.LANCHOR7
 1890 0924 44000000 		.word	.LC2
 1891 0928 00000000 		.word	.LC0
 1892 092c 88010000 		.word	.LC12
 1893 0930 00000000 		.word	itm_port
 1894 0934 E0000000 		.word	.LC8
 1895 0938 C0000000 		.word	.LC6
 1896              	.LVL171:
 1897              	.L279:
 1898              		.loc 1 1177 0 discriminator 1
 1899 093c 764B     		ldr	r3, .L291
 1900 093e 774A     		ldr	r2, .L291+4
 1901 0940 0093     		str	r3, [sp]
 1902 0942 7749     		ldr	r1, .L291+8
 1903 0944 7748     		ldr	r0, .L291+12
 1904 0946 40F29943 		movw	r3, #1177
 1905 094a FFF7FEFF 		bl	chprintf.constprop.1
 1906              	.LVL172:
 1907              	.LBB77:
 1908              	.LBB78:
 1909              		.loc 3 416 0 discriminator 1
 1910 094e 7348     		ldr	r0, .L291+4
 1911 0950 FFF7FEFF 		bl	chSysHalt
 1912              	.LVL173:
 1913 0954 DBF80430 		ldr	r3, [fp, #4]
 1914 0958 1A89     		ldrh	r2, [r3, #8]
 1915 095a 19E6     		b	.L107
 1916              	.LVL174:
 1917              	.L280:
 1918              	.LBE78:
 1919              	.LBE77:
 1920              		.loc 1 1190 0 discriminator 1
 1921 095c 6E4B     		ldr	r3, .L291
 1922 095e 0093     		str	r3, [sp]
 1923 0960 6F49     		ldr	r1, .L291+8
 1924 0962 714A     		ldr	r2, .L291+16
 1925 0964 6F48     		ldr	r0, .L291+12
 1926 0966 40F2A643 		movw	r3, #1190
 1927 096a FFF7FEFF 		bl	chprintf.constprop.1
 1928              	.LVL175:
 1929              	.LBB79:
 1930              	.LBB80:
 1931              		.loc 3 416 0 discriminator 1
 1932 096e 6E48     		ldr	r0, .L291+16
 1933 0970 FFF7FEFF 		bl	chSysHalt
 1934              	.LVL176:
 1935 0974 23E6     		b	.L111
ARM GAS  C:\Users\jo\AppData\Local\Temp\ccfChKJS.s 			page 35


 1936              	.LVL177:
 1937              	.L281:
 1938              	.LBE80:
 1939              	.LBE79:
 1940              		.loc 1 1227 0
 1941 0976 3B69     		ldr	r3, [r7, #16]
 1942 0978 9889     		ldrh	r0, [r3, #12]	@ unaligned
 1943 097a FFF7FEFF 		bl	lwip_ntohs
 1944              	.LVL178:
 1945 097e C307     		lsls	r3, r0, #31
 1946 0980 00F1A280 		bmi	.L284
 1947              	.L118:
 1948              		.loc 1 1233 0
 1949 0984 A28D     		ldrh	r2, [r4, #44]
 1950              		.loc 1 1234 0
 1951 0986 3B69     		ldr	r3, [r7, #16]
 1952              		.loc 1 1233 0
 1953 0988 3A81     		strh	r2, [r7, #8]	@ movhi
 1954              		.loc 1 1234 0
 1955 098a 9889     		ldrh	r0, [r3, #12]	@ unaligned
 1956              		.loc 1 1233 0
 1957 098c 674D     		ldr	r5, .L291+20
 1958              		.loc 1 1234 0
 1959 098e FFF7FEFF 		bl	lwip_ntohs
 1960              	.LVL179:
 1961              		.loc 1 1235 0
 1962 0992 2989     		ldrh	r1, [r5, #8]
 1963              		.loc 1 1234 0
 1964 0994 8607     		lsls	r6, r0, #30
 1965              		.loc 1 1235 0
 1966 0996 44BF     		itt	mi
 1967 0998 01F1FF31 		addmi	r1, r1, #-1
 1968 099c 89B2     		uxthmi	r1, r1
 1969              		.loc 1 1237 0
 1970 099e 7868     		ldr	r0, [r7, #4]
 1971              		.loc 1 1235 0
 1972 09a0 48BF     		it	mi
 1973 09a2 2981     		strhmi	r1, [r5, #8]	@ movhi
 1974              		.loc 1 1237 0
 1975 09a4 FFF7FEFF 		bl	pbuf_realloc
 1976              	.LVL180:
 1977              		.loc 1 1238 0
 1978 09a8 3B69     		ldr	r3, [r7, #16]
 1979 09aa 3D89     		ldrh	r5, [r7, #8]
 1980 09ac 9889     		ldrh	r0, [r3, #12]	@ unaligned
 1981 09ae FFF7FEFF 		bl	lwip_ntohs
 1982              	.LVL181:
 1983 09b2 10F00300 		ands	r0, r0, #3
 1984 09b6 18BF     		it	ne
 1985 09b8 0120     		movne	r0, #1
 1986 09ba 2B18     		adds	r3, r5, r0
 1987              		.loc 1 1239 0
 1988 09bc D8F80010 		ldr	r1, [r8]
 1989 09c0 A08D     		ldrh	r0, [r4, #44]
 1990 09c2 A26A     		ldr	r2, [r4, #40]
 1991              		.loc 1 1238 0
 1992 09c4 9BB2     		uxth	r3, r3
ARM GAS  C:\Users\jo\AppData\Local\Temp\ccfChKJS.s 			page 36


 1993              		.loc 1 1239 0
 1994 09c6 1944     		add	r1, r1, r3
 1995 09c8 0244     		add	r2, r2, r0
 1996 09ca 9142     		cmp	r1, r2
 1997              		.loc 1 1238 0
 1998 09cc A9F80030 		strh	r3, [r9]	@ movhi
 1999              		.loc 1 1239 0
 2000 09d0 3FF453AE 		beq	.L117
 2001              		.loc 1 1239 0 is_stmt 0 discriminator 1
 2002 09d4 504B     		ldr	r3, .L291
 2003 09d6 0093     		str	r3, [sp]
 2004 09d8 5149     		ldr	r1, .L291+8
 2005 09da 554A     		ldr	r2, .L291+24
 2006 09dc 5148     		ldr	r0, .L291+12
 2007 09de 4FF49B63 		mov	r3, #1240
 2008 09e2 FFF7FEFF 		bl	chprintf.constprop.1
 2009              	.LVL182:
 2010              	.LBB81:
 2011              	.LBB82:
 2012              		.loc 3 416 0 is_stmt 1 discriminator 1
 2013 09e6 5248     		ldr	r0, .L291+24
 2014 09e8 FFF7FEFF 		bl	chSysHalt
 2015              	.LVL183:
 2016 09ec 45E6     		b	.L117
 2017              	.LVL184:
 2018              	.L282:
 2019              	.LBE82:
 2020              	.LBE81:
 2021              		.loc 1 1298 0 discriminator 1
 2022 09ee 4A4B     		ldr	r3, .L291
 2023 09f0 4B49     		ldr	r1, .L291+8
 2024 09f2 504A     		ldr	r2, .L291+28
 2025 09f4 0093     		str	r3, [sp]
 2026 09f6 4B48     		ldr	r0, .L291+12
 2027 09f8 40F21253 		movw	r3, #1298
 2028 09fc FFF7FEFF 		bl	chprintf.constprop.1
 2029              	.LVL185:
 2030              	.LBB83:
 2031              	.LBB84:
 2032              		.loc 3 416 0 discriminator 1
 2033 0a00 4C48     		ldr	r0, .L291+28
 2034 0a02 FFF7FEFF 		bl	chSysHalt
 2035              	.LVL186:
 2036 0a06 B9F80020 		ldrh	r2, [r9]
 2037 0a0a A18D     		ldrh	r1, [r4, #44]
 2038 0a0c A6E6     		b	.L136
 2039              	.LVL187:
 2040              	.L127:
 2041 0a0e B9F80020 		ldrh	r2, [r9]
 2042 0a12 D8F80030 		ldr	r3, [r8]
 2043              	.LBE84:
 2044              	.LBE83:
 2045 0a16 0025     		movs	r5, #0
 2046 0a18 1344     		add	r3, r3, r2
 2047              	.L135:
 2048              		.loc 1 1290 0
 2049 0a1a 6567     		str	r5, [r4, #116]
ARM GAS  C:\Users\jo\AppData\Local\Temp\ccfChKJS.s 			page 37


 2050 0a1c 99E6     		b	.L123
 2051              	.LVL188:
 2052              	.L171:
 2053              		.loc 1 1262 0
 2054 0a1e 5546     		mov	r5, r10
 2055              	.LVL189:
 2056              	.L128:
 2057              		.loc 1 1277 0
 2058 0a20 002B     		cmp	r3, #0
 2059 0a22 0EDC     		bgt	.L169
 2060 0a24 8318     		adds	r3, r0, r2
 2061 0a26 F8E7     		b	.L135
 2062              	.LVL190:
 2063              	.L277:
 2064              		.loc 1 1174 0 discriminator 1
 2065 0a28 3B4B     		ldr	r3, .L291
 2066 0a2a 0093     		str	r3, [sp]
 2067 0a2c 3C49     		ldr	r1, .L291+8
 2068 0a2e 424A     		ldr	r2, .L291+32
 2069 0a30 3C48     		ldr	r0, .L291+12
 2070 0a32 40F29643 		movw	r3, #1174
 2071 0a36 FFF7FEFF 		bl	chprintf.constprop.1
 2072              	.LVL191:
 2073              	.LBB85:
 2074              	.LBB86:
 2075              		.loc 3 416 0 discriminator 1
 2076 0a3a 3F48     		ldr	r0, .L291+32
 2077 0a3c FFF7FEFF 		bl	chSysHalt
 2078              	.LVL192:
 2079 0a40 96E5     		b	.L104
 2080              	.LVL193:
 2081              	.L169:
 2082              	.LBE86:
 2083              	.LBE85:
 2084              		.loc 1 1281 0
 2085 0a42 C0EB0C03 		rsb	r3, r0, ip
 2086              		.loc 1 1282 0
 2087 0a46 3A69     		ldr	r2, [r7, #16]
 2088              		.loc 1 1281 0
 2089 0a48 3B81     		strh	r3, [r7, #8]	@ movhi
 2090              		.loc 1 1282 0
 2091 0a4a 9089     		ldrh	r0, [r2, #12]	@ unaligned
 2092              		.loc 1 1281 0
 2093 0a4c 374E     		ldr	r6, .L291+20
 2094              		.loc 1 1286 0
 2095 0a4e DFF8F4A0 		ldr	r10, .L291+44
 2096              		.loc 1 1282 0
 2097 0a52 FFF7FEFF 		bl	lwip_ntohs
 2098              	.LVL194:
 2099              		.loc 1 1283 0
 2100 0a56 3189     		ldrh	r1, [r6, #8]
 2101              		.loc 1 1282 0
 2102 0a58 8307     		lsls	r3, r0, #30
 2103              		.loc 1 1283 0
 2104 0a5a 44BF     		itt	mi
 2105 0a5c 01F1FF31 		addmi	r1, r1, #-1
 2106 0a60 89B2     		uxthmi	r1, r1
ARM GAS  C:\Users\jo\AppData\Local\Temp\ccfChKJS.s 			page 38


 2107              		.loc 1 1285 0
 2108 0a62 7868     		ldr	r0, [r7, #4]
 2109              		.loc 1 1283 0
 2110 0a64 48BF     		it	mi
 2111 0a66 3181     		strhmi	r1, [r6, #8]	@ movhi
 2112              		.loc 1 1285 0
 2113 0a68 FFF7FEFF 		bl	pbuf_realloc
 2114              	.LVL195:
 2115              		.loc 1 1286 0
 2116 0a6c 3B69     		ldr	r3, [r7, #16]
 2117 0a6e B7F808B0 		ldrh	fp, [r7, #8]
 2118 0a72 9889     		ldrh	r0, [r3, #12]	@ unaligned
 2119              		.loc 1 1287 0
 2120 0a74 314E     		ldr	r6, .L291+36
 2121              		.loc 1 1286 0
 2122 0a76 FFF7FEFF 		bl	lwip_ntohs
 2123              	.LVL196:
 2124 0a7a 10F00300 		ands	r0, r0, #3
 2125 0a7e 18BF     		it	ne
 2126 0a80 0120     		movne	r0, #1
 2127 0a82 0BEB0002 		add	r2, fp, r0
 2128 0a86 92B2     		uxth	r2, r2
 2129              		.loc 1 1287 0
 2130 0a88 2B69     		ldr	r3, [r5, #16]
 2131              		.loc 1 1286 0
 2132 0a8a A9F80020 		strh	r2, [r9]	@ movhi
 2133              		.loc 1 1287 0
 2134 0a8e D8F80010 		ldr	r1, [r8]
 2135 0a92 5B68     		ldr	r3, [r3, #4]	@ unaligned
 2136 0a94 1144     		add	r1, r1, r2
 2137 0a96 9942     		cmp	r1, r3
 2138 0a98 BFD0     		beq	.L135
 2139              		.loc 1 1287 0 is_stmt 0 discriminator 1
 2140 0a9a 1F4B     		ldr	r3, .L291
 2141 0a9c 284A     		ldr	r2, .L291+40
 2142 0a9e 0093     		str	r3, [sp]
 2143 0aa0 1F49     		ldr	r1, .L291+8
 2144 0aa2 2048     		ldr	r0, .L291+12
 2145 0aa4 4FF4A163 		mov	r3, #1288
 2146 0aa8 FFF7FEFF 		bl	chprintf.constprop.1
 2147              	.LVL197:
 2148              	.LBB87:
 2149              	.LBB88:
 2150              		.loc 3 416 0 is_stmt 1 discriminator 1
 2151 0aac 2448     		ldr	r0, .L291+40
 2152 0aae FFF7FEFF 		bl	chSysHalt
 2153              	.LVL198:
 2154 0ab2 BAF80020 		ldrh	r2, [r10]
 2155 0ab6 3368     		ldr	r3, [r6]
 2156 0ab8 1344     		add	r3, r3, r2
 2157 0aba AEE7     		b	.L135
 2158              	.LVL199:
 2159              	.L267:
 2160              	.LBE88:
 2161              	.LBE87:
 2162              		.loc 1 1373 0
 2163 0abc 1B48     		ldr	r0, .L291+20
ARM GAS  C:\Users\jo\AppData\Local\Temp\ccfChKJS.s 			page 39


 2164 0abe FFF7FEFF 		bl	tcp_seg_copy
 2165              	.LVL200:
 2166 0ac2 6067     		str	r0, [r4, #116]
 2167 0ac4 FFF7C3BA 		b	.L56
 2168              	.L284:
 2169              		.loc 1 1230 0
 2170 0ac8 3E69     		ldr	r6, [r7, #16]
 2171 0aca B589     		ldrh	r5, [r6, #12]	@ unaligned
 2172 0acc 2846     		mov	r0, r5
 2173 0ace FFF7FEFF 		bl	lwip_ntohs
 2174              	.LVL201:
 2175 0ad2 00F03E00 		and	r0, r0, #62
 2176 0ad6 FFF7FEFF 		bl	lwip_htons
 2177              	.LVL202:
 2178 0ada 25F47C55 		bic	r5, r5, #16128
 2179 0ade 2843     		orrs	r0, r0, r5
 2180 0ae0 B081     		strh	r0, [r6, #12]	@ unaligned
 2181 0ae2 4FE7     		b	.L118
 2182              	.LVL203:
 2183              	.L70:
 2184              		.loc 1 944 0
 2185 0ae4 7FF4D7AA 		bne	.L87
 2186              		.loc 1 946 0
 2187 0ae8 2046     		mov	r0, r4
 2188 0aea FFF7FEFF 		bl	tcp_rexmit_fast
 2189              	.LVL204:
 2190 0aee FFF7D2BA 		b	.L87
 2191              	.LVL205:
 2192              	.L156:
 2193              		.loc 1 1403 0
 2194 0af2 6067     		str	r0, [r4, #116]
 2195 0af4 FFF7ECBB 		b	.L245
 2196              	.LVL206:
 2197              	.L271:
 2198              		.loc 1 1475 0
 2199 0af8 2B68     		ldr	r3, [r5]
 2200 0afa 1F69     		ldr	r7, [r3, #16]
 2201 0afc BE89     		ldrh	r6, [r7, #12]	@ unaligned
 2202 0afe 3046     		mov	r0, r6
 2203 0b00 FFF7FEFF 		bl	lwip_ntohs
 2204              	.LVL207:
 2205 0b04 00F03E00 		and	r0, r0, #62
 2206 0b08 FFF7FEFF 		bl	lwip_htons
 2207              	.LVL208:
 2208 0b0c 26F47C56 		bic	r6, r6, #16128
 2209 0b10 3043     		orrs	r0, r0, r6
 2210 0b12 B881     		strh	r0, [r7, #12]	@ unaligned
 2211 0b14 35E4     		b	.L163
 2212              	.L292:
 2213 0b16 00BF     		.align	2
 2214              	.L291:
 2215 0b18 44000000 		.word	.LC2
 2216 0b1c D0000000 		.word	.LC7
 2217 0b20 00000000 		.word	.LC0
 2218 0b24 00000000 		.word	itm_port
 2219 0b28 E0000000 		.word	.LC8
 2220 0b2c 00000000 		.word	.LANCHOR5
ARM GAS  C:\Users\jo\AppData\Local\Temp\ccfChKJS.s 			page 40


 2221 0b30 F4000000 		.word	.LC9
 2222 0b34 68010000 		.word	.LC11
 2223 0b38 B0000000 		.word	.LC5
 2224 0b3c 00000000 		.word	.LANCHOR0
 2225 0b40 2C010000 		.word	.LC10
 2226 0b44 00000000 		.word	.LANCHOR4
 2227              		.cfi_endproc
 2228              	.LFE265:
 2229              		.size	tcp_receive, .-tcp_receive
 2230 0b48 AFF30080 		.section	.text.tcp_input,"ax",%progbits
 2230      AFF30080 
 2231              		.align	2
 2232              		.p2align 4,,15
 2233              		.global	tcp_input
 2234              		.thumb
 2235              		.thumb_func
 2236              		.type	tcp_input, %function
 2237              	tcp_input:
 2238              	.LFB260:
 2239              		.loc 1 93 0
 2240              		.cfi_startproc
 2241              		@ args = 0, pretend = 0, frame = 0
 2242              		@ frame_needed = 0, uses_anonymous_args = 0
 2243              	.LVL209:
 2244 0000 2DE9F04F 		push	{r4, r5, r6, r7, r8, r9, r10, fp, lr}
 2245              		.cfi_def_cfa_offset 36
 2246              		.cfi_offset 4, -36
 2247              		.cfi_offset 5, -32
 2248              		.cfi_offset 6, -28
 2249              		.cfi_offset 7, -24
 2250              		.cfi_offset 8, -20
 2251              		.cfi_offset 9, -16
 2252              		.cfi_offset 10, -12
 2253              		.cfi_offset 11, -8
 2254              		.cfi_offset 14, -4
 2255              		.loc 1 105 0
 2256 0004 A04C     		ldr	r4, .L537
 2257              		.loc 1 108 0
 2258 0006 4368     		ldr	r3, [r0, #4]
 2259              		.loc 1 105 0
 2260 0008 B4F89220 		ldrh	r2, [r4, #146]
 2261              		.loc 1 108 0
 2262 000c 9F4F     		ldr	r7, .L537+4
 2263              		.loc 1 109 0
 2264 000e A04E     		ldr	r6, .L537+8
 2265              		.loc 1 108 0
 2266 0010 3B60     		str	r3, [r7]
 2267              		.loc 1 105 0
 2268 0012 0132     		adds	r2, r2, #1
 2269 0014 A4F89220 		strh	r2, [r4, #146]	@ movhi
 2270              		.loc 1 109 0
 2271 0018 1A78     		ldrb	r2, [r3]	@ zero_extendqisi2
 2272 001a 02F00F02 		and	r2, r2, #15
 2273              		.loc 1 116 0
 2274 001e 4FEA820E 		lsl	lr, r2, #2
 2275              		.loc 1 93 0
 2276 0022 83B0     		sub	sp, sp, #12
ARM GAS  C:\Users\jo\AppData\Local\Temp\ccfChKJS.s 			page 41


 2277              		.cfi_def_cfa_offset 48
 2278              		.loc 1 93 0
 2279 0024 0F46     		mov	r7, r1
 2280              		.loc 1 109 0
 2281 0026 03EB8203 		add	r3, r3, r2, lsl #2
 2282              		.loc 1 116 0
 2283 002a CEF10001 		rsb	r1, lr, #0
 2284              	.LVL210:
 2285              		.loc 1 93 0
 2286 002e 0546     		mov	r5, r0
 2287              		.loc 1 109 0
 2288 0030 3360     		str	r3, [r6]
 2289              		.loc 1 116 0
 2290 0032 FFF7FEFF 		bl	pbuf_header
 2291              	.LVL211:
 2292 0036 10B9     		cbnz	r0, .L511
 2293              		.loc 1 116 0 is_stmt 0 discriminator 1
 2294 0038 2B89     		ldrh	r3, [r5, #8]
 2295 003a 132B     		cmp	r3, #19
 2296 003c 0FD8     		bhi	.L518
 2297              	.L511:
 2298              		.loc 1 151 0 is_stmt 1
 2299 003e B4F89A30 		ldrh	r3, [r4, #154]
 2300 0042 0133     		adds	r3, r3, #1
 2301 0044 A4F89A30 		strh	r3, [r4, #154]	@ movhi
 2302              	.L296:
 2303              		.loc 1 422 0
 2304 0048 B4F89630 		ldrh	r3, [r4, #150]
 2305 004c 0133     		adds	r3, r3, #1
 2306              		.loc 1 424 0
 2307 004e 2846     		mov	r0, r5
 2308              		.loc 1 422 0
 2309 0050 A4F89630 		strh	r3, [r4, #150]	@ movhi
 2310              	.LVL212:
 2311              	.L512:
 2312              		.loc 1 425 0
 2313 0054 03B0     		add	sp, sp, #12
 2314              		.cfi_remember_state
 2315              		.cfi_def_cfa_offset 36
 2316              		@ sp needed
 2317 0056 BDE8F04F 		pop	{r4, r5, r6, r7, r8, r9, r10, fp, lr}
 2318              		.cfi_restore 14
 2319              		.cfi_restore 11
 2320              		.cfi_restore 10
 2321              		.cfi_restore 9
 2322              		.cfi_restore 8
 2323              		.cfi_restore 7
 2324              		.cfi_restore 6
 2325              		.cfi_restore 5
 2326              		.cfi_restore 4
 2327              		.cfi_def_cfa_offset 0
 2328              		.loc 1 424 0
 2329 005a FFF7FEBF 		b	pbuf_free
 2330              	.LVL213:
 2331              	.L518:
 2332              		.cfi_restore_state
 2333              		.loc 1 124 0
ARM GAS  C:\Users\jo\AppData\Local\Temp\ccfChKJS.s 			page 42


 2334 005e DFF86882 		ldr	r8, .L537+64
 2335 0062 3946     		mov	r1, r7
 2336 0064 D8F80000 		ldr	r0, [r8]
 2337 0068 FFF7FEFF 		bl	ip4_addr_isbroadcast
 2338              	.LVL214:
 2339 006c A0B9     		cbnz	r0, .L297
 2340              		.loc 1 125 0 discriminator 1
 2341 006e D8F80030 		ldr	r3, [r8]
 2342 0072 03F0F003 		and	r3, r3, #240
 2343              		.loc 1 124 0 discriminator 1
 2344 0076 E02B     		cmp	r3, #224
 2345 0078 0ED0     		beq	.L297
 2346              		.loc 1 132 0
 2347 007a 2B89     		ldrh	r3, [r5, #8]
 2348 007c 0093     		str	r3, [sp]
 2349 007e 2846     		mov	r0, r5
 2350 0080 8449     		ldr	r1, .L537+12
 2351 0082 4246     		mov	r2, r8
 2352 0084 0623     		movs	r3, #6
 2353 0086 FFF7FEFF 		bl	inet_chksum_pseudo
 2354              	.LVL215:
 2355 008a 58B1     		cbz	r0, .L299
 2356              		.loc 1 140 0
 2357 008c B4F89830 		ldrh	r3, [r4, #152]
 2358 0090 0133     		adds	r3, r3, #1
 2359 0092 A4F89830 		strh	r3, [r4, #152]	@ movhi
 2360              		.loc 1 141 0
 2361 0096 D7E7     		b	.L296
 2362              	.L297:
 2363              		.loc 1 126 0
 2364 0098 B4F8A030 		ldrh	r3, [r4, #160]
 2365 009c 0133     		adds	r3, r3, #1
 2366 009e A4F8A030 		strh	r3, [r4, #160]	@ movhi
 2367              		.loc 1 127 0
 2368 00a2 D1E7     		b	.L296
 2369              	.L299:
 2370              		.loc 1 147 0
 2371 00a4 3368     		ldr	r3, [r6]
 2372 00a6 9889     		ldrh	r0, [r3, #12]	@ unaligned
 2373 00a8 FFF7FEFF 		bl	lwip_ntohs
 2374              	.LVL216:
 2375 00ac 000B     		lsrs	r0, r0, #12
 2376              	.LVL217:
 2377              		.loc 1 148 0
 2378 00ae C0EB8030 		rsb	r0, r0, r0, lsl #14
 2379 00b2 8100     		lsls	r1, r0, #2
 2380 00b4 09B2     		sxth	r1, r1
 2381 00b6 2846     		mov	r0, r5
 2382 00b8 FFF7FEFF 		bl	pbuf_header
 2383              	.LVL218:
 2384 00bc 8146     		mov	r9, r0
 2385 00be 0028     		cmp	r0, #0
 2386 00c0 BDD1     		bne	.L511
 2387              		.loc 1 156 0
 2388 00c2 3768     		ldr	r7, [r6]
 2389              	.LVL219:
 2390              		.loc 1 159 0
ARM GAS  C:\Users\jo\AppData\Local\Temp\ccfChKJS.s 			page 43


 2391 00c4 DFF804A2 		ldr	r10, .L537+68
 2392              		.loc 1 156 0
 2393 00c8 3888     		ldrh	r0, [r7]	@ unaligned
 2394 00ca FFF7FEFF 		bl	lwip_ntohs
 2395              	.LVL220:
 2396              		.loc 1 157 0
 2397 00ce D6F800B0 		ldr	fp, [r6]
 2398              		.loc 1 156 0
 2399 00d2 3880     		strh	r0, [r7]	@ unaligned
 2400              		.loc 1 157 0
 2401 00d4 BBF80200 		ldrh	r0, [fp, #2]	@ unaligned
 2402 00d8 FFF7FEFF 		bl	lwip_ntohs
 2403              	.LVL221:
 2404              		.loc 1 158 0
 2405 00dc 3768     		ldr	r7, [r6]
 2406              		.loc 1 157 0
 2407 00de ABF80200 		strh	r0, [fp, #2]	@ unaligned
 2408              		.loc 1 158 0
 2409 00e2 7868     		ldr	r0, [r7, #4]	@ unaligned
 2410 00e4 FFF7FEFF 		bl	lwip_ntohl
 2411              	.LVL222:
 2412 00e8 6B4B     		ldr	r3, .L537+16
 2413              		.loc 1 159 0
 2414 00ea D6F800B0 		ldr	fp, [r6]
 2415              		.loc 1 158 0
 2416 00ee 1860     		str	r0, [r3]
 2417 00f0 7860     		str	r0, [r7, #4]	@ unaligned
 2418              		.loc 1 159 0
 2419 00f2 DBF80800 		ldr	r0, [fp, #8]	@ unaligned
 2420 00f6 FFF7FEFF 		bl	lwip_ntohl
 2421              	.LVL223:
 2422              		.loc 1 160 0
 2423 00fa 3768     		ldr	r7, [r6]
 2424              		.loc 1 159 0
 2425 00fc CBF80800 		str	r0, [fp, #8]	@ unaligned
 2426 0100 CAF80000 		str	r0, [r10]
 2427              		.loc 1 160 0
 2428 0104 F889     		ldrh	r0, [r7, #14]	@ unaligned
 2429 0106 FFF7FEFF 		bl	lwip_ntohs
 2430              	.LVL224:
 2431              		.loc 1 162 0
 2432 010a 3368     		ldr	r3, [r6]
 2433              		.loc 1 160 0
 2434 010c F881     		strh	r0, [r7, #14]	@ unaligned
 2435              		.loc 1 162 0
 2436 010e 9889     		ldrh	r0, [r3, #12]	@ unaligned
 2437 0110 FFF7FEFF 		bl	lwip_ntohs
 2438              	.LVL225:
 2439 0114 C0B2     		uxtb	r0, r0
 2440              		.loc 1 163 0
 2441 0116 10F00302 		ands	r2, r0, #3
 2442 011a 2B89     		ldrh	r3, [r5, #8]
 2443              		.loc 1 170 0
 2444 011c 5F49     		ldr	r1, .L537+20
 2445              		.loc 1 163 0
 2446 011e 18BF     		it	ne
 2447 0120 0122     		movne	r2, #1
ARM GAS  C:\Users\jo\AppData\Local\Temp\ccfChKJS.s 			page 44


 2448 0122 1344     		add	r3, r3, r2
 2449 0124 5E4A     		ldr	r2, .L537+24
 2450              		.loc 1 170 0
 2451 0126 0F68     		ldr	r7, [r1]
 2452              		.loc 1 163 0
 2453 0128 1380     		strh	r3, [r2]	@ movhi
 2454              	.LVL226:
 2455              		.loc 1 162 0
 2456 012a 5E4B     		ldr	r3, .L537+28
 2457 012c 00F03F00 		and	r0, r0, #63
 2458 0130 1870     		strb	r0, [r3]
 2459              		.loc 1 170 0
 2460 0132 002F     		cmp	r7, #0
 2461 0134 00F0A080 		beq	.L301
 2462              		.loc 1 171 0
 2463 0138 DFF894B1 		ldr	fp, .L537+72
 2464 013c 0FE0     		b	.L309
 2465              	.LVL227:
 2466              	.L302:
 2467              		.loc 1 172 0
 2468 013e 0A2B     		cmp	r3, #10
 2469 0140 00F08D80 		beq	.L519
 2470              	.L303:
 2471              		.loc 1 173 0
 2472 0144 012B     		cmp	r3, #1
 2473 0146 7ED0     		beq	.L520
 2474              	.L304:
 2475              		.loc 1 174 0
 2476 0148 3368     		ldr	r3, [r6]
 2477 014a B98B     		ldrh	r1, [r7, #28]
 2478 014c 1A88     		ldrh	r2, [r3]	@ unaligned
 2479 014e 9142     		cmp	r1, r2
 2480 0150 15D0     		beq	.L521
 2481              	.L305:
 2482              	.LVL228:
 2483              		.loc 1 170 0 discriminator 2
 2484 0152 FB68     		ldr	r3, [r7, #12]
 2485              	.LVL229:
 2486 0154 B946     		mov	r9, r7
 2487 0156 002B     		cmp	r3, #0
 2488 0158 00F08E80 		beq	.L301
 2489 015c 1F46     		mov	r7, r3
 2490              	.LVL230:
 2491              	.L309:
 2492              		.loc 1 171 0
 2493 015e 3B7E     		ldrb	r3, [r7, #24]	@ zero_extendqisi2
 2494 0160 002B     		cmp	r3, #0
 2495 0162 ECD1     		bne	.L302
 2496              		.loc 1 171 0 is_stmt 0 discriminator 1
 2497 0164 AB23     		movs	r3, #171
 2498 0166 5049     		ldr	r1, .L537+32
 2499 0168 504A     		ldr	r2, .L537+36
 2500 016a CDF800B0 		str	fp, [sp]
 2501 016e 5048     		ldr	r0, .L537+40
 2502 0170 FFF7FEFF 		bl	chprintf.constprop.1
 2503              	.LVL231:
 2504              	.LBB116:
ARM GAS  C:\Users\jo\AppData\Local\Temp\ccfChKJS.s 			page 45


 2505              	.LBB117:
 2506              		.loc 3 416 0 is_stmt 1 discriminator 1
 2507 0174 4D48     		ldr	r0, .L537+36
 2508 0176 FFF7FEFF 		bl	chSysHalt
 2509              	.LVL232:
 2510 017a 3B7E     		ldrb	r3, [r7, #24]	@ zero_extendqisi2
 2511 017c DFE7     		b	.L302
 2512              	.LVL233:
 2513              	.L521:
 2514              	.LBE117:
 2515              	.LBE116:
 2516              		.loc 1 174 0 discriminator 1
 2517 017e 5B88     		ldrh	r3, [r3, #2]	@ unaligned
 2518 0180 7A8B     		ldrh	r2, [r7, #26]
 2519 0182 9A42     		cmp	r2, r3
 2520 0184 E5D1     		bne	.L305
 2521              		.loc 1 176 0
 2522 0186 434B     		ldr	r3, .L537+12
 2523              		.loc 1 175 0
 2524 0188 7A68     		ldr	r2, [r7, #4]
 2525 018a 1B68     		ldr	r3, [r3]
 2526 018c 9A42     		cmp	r2, r3
 2527 018e E0D1     		bne	.L305
 2528              		.loc 1 176 0
 2529 0190 3A68     		ldr	r2, [r7]
 2530 0192 D8F80030 		ldr	r3, [r8]
 2531 0196 9A42     		cmp	r2, r3
 2532 0198 DBD1     		bne	.L305
 2533              		.loc 1 182 0
 2534 019a FB68     		ldr	r3, [r7, #12]
 2535 019c BB42     		cmp	r3, r7
 2536 019e 00F08F84 		beq	.L522
 2537              	.L306:
 2538              		.loc 1 183 0
 2539 01a2 B9F1000F 		cmp	r9, #0
 2540 01a6 07D0     		beq	.L307
 2541              		.loc 1 185 0
 2542 01a8 3C4A     		ldr	r2, .L537+20
 2543              		.loc 1 184 0
 2544 01aa C9F80C30 		str	r3, [r9, #12]
 2545              		.loc 1 185 0
 2546 01ae 1268     		ldr	r2, [r2]
 2547              		.loc 1 186 0
 2548 01b0 3A4B     		ldr	r3, .L537+20
 2549              		.loc 1 185 0
 2550 01b2 FA60     		str	r2, [r7, #12]
 2551              		.loc 1 186 0
 2552 01b4 1F60     		str	r7, [r3]
 2553 01b6 1346     		mov	r3, r2
 2554              	.L307:
 2555              		.loc 1 188 0
 2556 01b8 BB42     		cmp	r3, r7
 2557 01ba 00F06A84 		beq	.L523
 2558              	.L308:
 2559              		.loc 1 288 0
 2560 01be 394B     		ldr	r3, .L537+28
 2561              		.loc 1 280 0
ARM GAS  C:\Users\jo\AppData\Local\Temp\ccfChKJS.s 			page 46


 2562 01c0 DFF8F4B0 		ldr	fp, .L537+48
 2563              		.loc 1 288 0
 2564 01c4 1A78     		ldrb	r2, [r3]	@ zero_extendqisi2
 2565              		.loc 1 281 0
 2566 01c6 2B89     		ldrh	r3, [r5, #8]
 2567              		.loc 1 285 0
 2568 01c8 DFF80891 		ldr	r9, .L537+76
 2569              		.loc 1 286 0
 2570 01cc DFF80881 		ldr	r8, .L537+80
 2571              		.loc 1 281 0
 2572 01d0 ABF80830 		strh	r3, [fp, #8]	@ movhi
 2573              		.loc 1 283 0
 2574 01d4 3368     		ldr	r3, [r6]
 2575 01d6 CBF81030 		str	r3, [fp, #16]
 2576              		.loc 1 288 0
 2577 01da 1207     		lsls	r2, r2, #28
 2578              		.loc 1 280 0
 2579 01dc 4FF00003 		mov	r3, #0
 2580              		.loc 1 282 0
 2581 01e0 CBF80450 		str	r5, [fp, #4]
 2582              		.loc 1 280 0
 2583 01e4 CBF80030 		str	r3, [fp]
 2584              		.loc 1 285 0
 2585 01e8 C9F80030 		str	r3, [r9]
 2586              		.loc 1 286 0
 2587 01ec 88F80030 		strb	r3, [r8]
 2588              		.loc 1 288 0
 2589 01f0 03D5     		bpl	.L400
 2590              		.loc 1 289 0
 2591 01f2 6B7B     		ldrb	r3, [r5, #13]	@ zero_extendqisi2
 2592 01f4 43F00103 		orr	r3, r3, #1
 2593 01f8 6B73     		strb	r3, [r5, #13]
 2594              	.L400:
 2595              		.loc 1 293 0
 2596 01fa BB6F     		ldr	r3, [r7, #120]
 2597 01fc 002B     		cmp	r3, #0
 2598 01fe 00F0AD80 		beq	.L325
 2599              		.loc 1 294 0
 2600 0202 3846     		mov	r0, r7
 2601 0204 FFF7FEFF 		bl	tcp_process_refused_data
 2602              	.LVL234:
 2603 0208 0A30     		adds	r0, r0, #10
 2604 020a 08D0     		beq	.L326
 2605              		.loc 1 294 0 is_stmt 0 discriminator 1
 2606 020c BB6F     		ldr	r3, [r7, #120]
 2607 020e 002B     		cmp	r3, #0
 2608 0210 00F0A480 		beq	.L325
 2609              		.loc 1 295 0 is_stmt 1
 2610 0214 224B     		ldr	r3, .L537+24
 2611 0216 1B88     		ldrh	r3, [r3]
 2612 0218 002B     		cmp	r3, #0
 2613 021a 00F09F80 		beq	.L325
 2614              	.L326:
 2615              		.loc 1 298 0
 2616 021e B4F89630 		ldrh	r3, [r4, #150]
 2617 0222 244D     		ldr	r5, .L537+44
 2618              	.LVL235:
ARM GAS  C:\Users\jo\AppData\Local\Temp\ccfChKJS.s 			page 47


 2619 0224 0133     		adds	r3, r3, #1
 2620 0226 A4F89630 		strh	r3, [r4, #150]	@ movhi
 2621              	.L327:
 2622              		.loc 1 398 0
 2623 022a DBF80400 		ldr	r0, [fp, #4]
 2624 022e 224E     		ldr	r6, .L537+48
 2625              		.loc 1 394 0
 2626 0230 0024     		movs	r4, #0
 2627 0232 2C60     		str	r4, [r5]
 2628              		.loc 1 395 0
 2629 0234 C9F80040 		str	r4, [r9]
 2630              		.loc 1 398 0
 2631 0238 10B1     		cbz	r0, .L293
 2632              		.loc 1 400 0
 2633 023a FFF7FEFF 		bl	pbuf_free
 2634              	.LVL236:
 2635              		.loc 1 401 0
 2636 023e 7460     		str	r4, [r6, #4]
 2637              	.L293:
 2638              		.loc 1 425 0
 2639 0240 03B0     		add	sp, sp, #12
 2640              		.cfi_remember_state
 2641              		.cfi_def_cfa_offset 36
 2642              		@ sp needed
 2643 0242 BDE8F08F 		pop	{r4, r5, r6, r7, r8, r9, r10, fp, pc}
 2644              	.LVL237:
 2645              	.L520:
 2646              		.cfi_restore_state
 2647              		.loc 1 173 0 discriminator 1
 2648 0246 CDF800B0 		str	fp, [sp]
 2649 024a 1749     		ldr	r1, .L537+32
 2650 024c 1B4A     		ldr	r2, .L537+52
 2651 024e 1848     		ldr	r0, .L537+40
 2652 0250 AD23     		movs	r3, #173
 2653 0252 FFF7FEFF 		bl	chprintf.constprop.1
 2654              	.LVL238:
 2655              	.LBB118:
 2656              	.LBB119:
 2657              		.loc 3 416 0 discriminator 1
 2658 0256 1948     		ldr	r0, .L537+52
 2659 0258 FFF7FEFF 		bl	chSysHalt
 2660              	.LVL239:
 2661 025c 74E7     		b	.L304
 2662              	.LVL240:
 2663              	.L519:
 2664              	.LBE119:
 2665              	.LBE118:
 2666              		.loc 1 172 0 discriminator 1
 2667 025e AC23     		movs	r3, #172
 2668 0260 1149     		ldr	r1, .L537+32
 2669 0262 174A     		ldr	r2, .L537+56
 2670 0264 CDF800B0 		str	fp, [sp]
 2671 0268 1148     		ldr	r0, .L537+40
 2672 026a FFF7FEFF 		bl	chprintf.constprop.1
 2673              	.LVL241:
 2674              	.LBB120:
 2675              	.LBB121:
ARM GAS  C:\Users\jo\AppData\Local\Temp\ccfChKJS.s 			page 48


 2676              		.loc 3 416 0 discriminator 1
 2677 026e 1448     		ldr	r0, .L537+56
 2678 0270 FFF7FEFF 		bl	chSysHalt
 2679              	.LVL242:
 2680 0274 3B7E     		ldrb	r3, [r7, #24]	@ zero_extendqisi2
 2681 0276 65E7     		b	.L303
 2682              	.LVL243:
 2683              	.L301:
 2684              	.LBE121:
 2685              	.LBE120:
 2686              		.loc 1 197 0
 2687 0278 124B     		ldr	r3, .L537+60
 2688 027a 1F68     		ldr	r7, [r3]
 2689              	.LVL244:
 2690 027c 002F     		cmp	r7, #0
 2691 027e 00F0B080 		beq	.L398
 2692              		.loc 1 198 0
 2693 0282 DFF84C90 		ldr	r9, .L537+72
 2694 0286 2CE0     		b	.L317
 2695              	.L538:
 2696              		.align	2
 2697              	.L537:
 2698 0288 00000000 		.word	lwip_stats
 2699 028c 00000000 		.word	.LANCHOR8
 2700 0290 00000000 		.word	.LANCHOR1
 2701 0294 00000000 		.word	current_iphdr_src
 2702 0298 00000000 		.word	.LANCHOR0
 2703 029c 00000000 		.word	tcp_active_pcbs
 2704 02a0 00000000 		.word	.LANCHOR4
 2705 02a4 00000000 		.word	.LANCHOR2
 2706 02a8 00000000 		.word	.LC0
 2707 02ac B0010000 		.word	.LC13
 2708 02b0 00000000 		.word	itm_port
 2709 02b4 00000000 		.word	.LANCHOR9
 2710 02b8 00000000 		.word	.LANCHOR5
 2711 02bc 04020000 		.word	.LC15
 2712 02c0 D8010000 		.word	.LC14
 2713 02c4 00000000 		.word	tcp_tw_pcbs
 2714 02c8 00000000 		.word	current_iphdr_dest
 2715 02cc 00000000 		.word	.LANCHOR3
 2716 02d0 44000000 		.word	.LC2
 2717 02d4 00000000 		.word	.LANCHOR6
 2718 02d8 00000000 		.word	.LANCHOR7
 2719              	.L311:
 2720              		.loc 1 197 0 discriminator 2
 2721 02dc FF68     		ldr	r7, [r7, #12]
 2722              	.LVL245:
 2723 02de 002F     		cmp	r7, #0
 2724 02e0 7FD0     		beq	.L398
 2725              	.L317:
 2726              		.loc 1 198 0
 2727 02e2 97F818E0 		ldrb	lr, [r7, #24]	@ zero_extendqisi2
 2728 02e6 B148     		ldr	r0, .L539
 2729 02e8 B149     		ldr	r1, .L539+4
 2730 02ea B24A     		ldr	r2, .L539+8
 2731 02ec BEF10A0F 		cmp	lr, #10
 2732 02f0 4FF0C603 		mov	r3, #198
ARM GAS  C:\Users\jo\AppData\Local\Temp\ccfChKJS.s 			page 49


 2733 02f4 06D0     		beq	.L310
 2734              		.loc 1 198 0 is_stmt 0 discriminator 1
 2735 02f6 CDF80090 		str	r9, [sp]
 2736 02fa FFF7FEFF 		bl	chprintf.constprop.1
 2737              	.LVL246:
 2738              	.LBB122:
 2739              	.LBB123:
 2740              		.loc 3 416 0 is_stmt 1 discriminator 1
 2741 02fe AD48     		ldr	r0, .L539+8
 2742 0300 FFF7FEFF 		bl	chSysHalt
 2743              	.LVL247:
 2744              	.L310:
 2745              	.LBE123:
 2746              	.LBE122:
 2747              		.loc 1 199 0
 2748 0304 3368     		ldr	r3, [r6]
 2749 0306 B98B     		ldrh	r1, [r7, #28]
 2750 0308 1A88     		ldrh	r2, [r3]	@ unaligned
 2751 030a 8A42     		cmp	r2, r1
 2752 030c E6D1     		bne	.L311
 2753              		.loc 1 199 0 is_stmt 0 discriminator 1
 2754 030e B3F802E0 		ldrh	lr, [r3, #2]	@ unaligned
 2755              		.loc 1 200 0 is_stmt 1 discriminator 1
 2756 0312 7B8B     		ldrh	r3, [r7, #26]
 2757              		.loc 1 199 0 discriminator 1
 2758 0314 9E45     		cmp	lr, r3
 2759 0316 E1D1     		bne	.L311
 2760              		.loc 1 201 0
 2761 0318 A74B     		ldr	r3, .L539+12
 2762              		.loc 1 200 0
 2763 031a 7868     		ldr	r0, [r7, #4]
 2764 031c 1968     		ldr	r1, [r3]
 2765 031e 8842     		cmp	r0, r1
 2766 0320 DCD1     		bne	.L311
 2767              		.loc 1 201 0
 2768 0322 3868     		ldr	r0, [r7]
 2769 0324 D8F80010 		ldr	r1, [r8]
 2770 0328 8842     		cmp	r0, r1
 2771 032a D7D1     		bne	.L311
 2772              	.LVL248:
 2773              	.LBB124:
 2774              	.LBB125:
 2775              		.loc 1 536 0
 2776 032c A349     		ldr	r1, .L539+16
 2777 032e 0978     		ldrb	r1, [r1]	@ zero_extendqisi2
 2778 0330 4807     		lsls	r0, r1, #29
 2779 0332 11D4     		bmi	.L313
 2780              		.loc 1 540 0
 2781 0334 8E07     		lsls	r6, r1, #30
 2782 0336 40F13D83 		bpl	.L314
 2783              		.loc 1 543 0
 2784 033a A149     		ldr	r1, .L539+20
 2785 033c B86A     		ldr	r0, [r7, #40]
 2786 033e 0968     		ldr	r1, [r1]
 2787 0340 081A     		subs	r0, r1, r0
 2788 0342 04D4     		bmi	.L315
 2789 0344 BC8D     		ldrh	r4, [r7, #44]
ARM GAS  C:\Users\jo\AppData\Local\Temp\ccfChKJS.s 			page 50


 2790 0346 001B     		subs	r0, r0, r4
 2791 0348 0028     		cmp	r0, #0
 2792 034a 40F37383 		ble	.L524
 2793              	.L315:
 2794              		.loc 1 555 0
 2795 034e 9D4B     		ldr	r3, .L539+24
 2796 0350 1B88     		ldrh	r3, [r3]
 2797 0352 002B     		cmp	r3, #0
 2798 0354 40F0AA83 		bne	.L525
 2799              	.LVL249:
 2800              	.L313:
 2801              	.LBE125:
 2802              	.LBE124:
 2803              		.loc 1 208 0
 2804 0358 2846     		mov	r0, r5
 2805 035a 7BE6     		b	.L512
 2806              	.LVL250:
 2807              	.L325:
 2808              	.LBB129:
 2809              	.LBB130:
 2810              		.loc 1 584 0
 2811 035c 974B     		ldr	r3, .L539+16
 2812              	.LBE130:
 2813              	.LBE129:
 2814              		.loc 1 303 0
 2815 035e 9A4D     		ldr	r5, .L539+28
 2816              	.LVL251:
 2817              	.LBB148:
 2818              	.LBB139:
 2819              		.loc 1 584 0
 2820 0360 1B78     		ldrb	r3, [r3]	@ zero_extendqisi2
 2821              	.LBE139:
 2822              	.LBE148:
 2823              		.loc 1 303 0
 2824 0362 2F60     		str	r7, [r5]
 2825              	.LVL252:
 2826              	.LBB149:
 2827              	.LBB140:
 2828              		.loc 1 584 0
 2829 0364 5A07     		lsls	r2, r3, #29
 2830 0366 20D5     		bpl	.L328
 2831              	.LVL253:
 2832              		.loc 1 586 0
 2833 0368 3A7E     		ldrb	r2, [r7, #24]	@ zero_extendqisi2
 2834 036a 022A     		cmp	r2, #2
 2835 036c 00F02382 		beq	.L526
 2836              		.loc 1 591 0
 2837 0370 934B     		ldr	r3, .L539+20
 2838 0372 B96A     		ldr	r1, [r7, #40]
 2839 0374 1B68     		ldr	r3, [r3]
 2840 0376 5B1A     		subs	r3, r3, r1
 2841 0378 04D4     		bmi	.L331
 2842 037a B98D     		ldrh	r1, [r7, #44]
 2843 037c 5B1A     		subs	r3, r3, r1
 2844 037e 002B     		cmp	r3, #0
 2845 0380 40F31F83 		ble	.L527
 2846              	.LVL254:
ARM GAS  C:\Users\jo\AppData\Local\Temp\ccfChKJS.s 			page 51


 2847              	.L331:
 2848              	.LBE140:
 2849              	.LBE149:
 2850              		.loc 1 308 0
 2851 0384 98F80030 		ldrb	r3, [r8]	@ zero_extendqisi2
 2852 0388 1E07     		lsls	r6, r3, #28
 2853 038a 1BD5     		bpl	.L377
 2854              		.loc 1 313 0
 2855 038c D7F88C30 		ldr	r3, [r7, #140]
 2856 0390 1BB1     		cbz	r3, .L380
 2857              		.loc 1 313 0 is_stmt 0 discriminator 1
 2858 0392 3869     		ldr	r0, [r7, #16]
 2859 0394 6FF00A01 		mvn	r1, #10
 2860 0398 9847     		blx	r3
 2861              	.LVL255:
 2862              	.L380:
 2863              		.loc 1 325 0 is_stmt 1
 2864 039a 8C48     		ldr	r0, .L539+32
 2865 039c 3946     		mov	r1, r7
 2866 039e FFF7FEFF 		bl	tcp_pcb_remove
 2867              	.LVL256:
 2868              		.loc 1 326 0
 2869 03a2 3846     		mov	r0, r7
 2870 03a4 FFF7FEFF 		bl	free
 2871              	.LVL257:
 2872 03a8 3FE7     		b	.L327
 2873              	.LVL258:
 2874              	.L328:
 2875              	.LBB150:
 2876              	.LBB141:
 2877              		.loc 1 612 0
 2878 03aa 9B07     		lsls	r3, r3, #30
 2879 03ac 40F1B080 		bpl	.L334
 2880 03b0 3B7E     		ldrb	r3, [r7, #24]	@ zero_extendqisi2
 2881 03b2 023B     		subs	r3, r3, #2
 2882 03b4 012B     		cmp	r3, #1
 2883 03b6 40F2AB80 		bls	.L334
 2884              	.LVL259:
 2885              	.L351:
 2886              		.loc 1 674 0
 2887 03ba BB7F     		ldrb	r3, [r7, #30]	@ zero_extendqisi2
 2888 03bc 43F00203 		orr	r3, r3, #2
 2889 03c0 BB77     		strb	r3, [r7, #30]
 2890 03c2 DFE7     		b	.L331
 2891              	.LVL260:
 2892              	.L377:
 2893              	.LBE141:
 2894              	.LBE150:
 2895              		.loc 1 316 0
 2896 03c4 DC06     		lsls	r4, r3, #27
 2897 03c6 40F1B281 		bpl	.L379
 2898              		.loc 1 319 0
 2899 03ca BB7F     		ldrb	r3, [r7, #30]	@ zero_extendqisi2
 2900 03cc D806     		lsls	r0, r3, #27
 2901 03ce E4D4     		bmi	.L380
 2902              		.loc 1 323 0
 2903 03d0 D7F88C30 		ldr	r3, [r7, #140]
ARM GAS  C:\Users\jo\AppData\Local\Temp\ccfChKJS.s 			page 52


 2904 03d4 002B     		cmp	r3, #0
 2905 03d6 E0D0     		beq	.L380
 2906              		.loc 1 323 0 is_stmt 0 discriminator 1
 2907 03d8 3869     		ldr	r0, [r7, #16]
 2908 03da 6FF00B01 		mvn	r1, #11
 2909 03de 9847     		blx	r3
 2910              	.LVL261:
 2911 03e0 DBE7     		b	.L380
 2912              	.LVL262:
 2913              	.L398:
 2914              		.loc 1 216 0 is_stmt 1
 2915 03e2 DFF8F8E1 		ldr	lr, .L539+48
 2916 03e6 DEF80070 		ldr	r7, [lr]
 2917              	.LVL263:
 2918 03ea 002F     		cmp	r7, #0
 2919 03ec 00F07681 		beq	.L318
 2920 03f0 D6F800C0 		ldr	ip, [r6]
 2921              		.loc 1 228 0
 2922 03f4 D8F80000 		ldr	r0, [r8]
 2923 03f8 BCF80220 		ldrh	r2, [ip, #2]	@ unaligned
 2924 03fc B946     		mov	r9, r7
 2925 03fe 0021     		movs	r1, #0
 2926 0400 06E0     		b	.L321
 2927              	.LVL264:
 2928              	.L319:
 2929              		.loc 1 216 0 discriminator 2
 2930 0402 D9F80C30 		ldr	r3, [r9, #12]
 2931              	.LVL265:
 2932 0406 4946     		mov	r1, r9
 2933 0408 002B     		cmp	r3, #0
 2934 040a 00F06781 		beq	.L318
 2935              	.LVL266:
 2936 040e 9946     		mov	r9, r3
 2937              	.LVL267:
 2938              	.L321:
 2939              		.loc 1 217 0
 2940 0410 B9F81A30 		ldrh	r3, [r9, #26]
 2941 0414 9342     		cmp	r3, r2
 2942 0416 F4D1     		bne	.L319
 2943              		.loc 1 228 0
 2944 0418 D9F80030 		ldr	r3, [r9]
 2945 041c 8342     		cmp	r3, r0
 2946 041e 01D0     		beq	.L320
 2947              		.loc 1 229 0 discriminator 1
 2948 0420 002B     		cmp	r3, #0
 2949 0422 EED1     		bne	.L319
 2950              	.L320:
 2951              		.loc 1 249 0
 2952 0424 31B1     		cbz	r1, .L402
 2953              		.loc 1 250 0
 2954 0426 D9F80C30 		ldr	r3, [r9, #12]
 2955 042a CB60     		str	r3, [r1, #12]
 2956              		.loc 1 254 0
 2957 042c CEF80090 		str	r9, [lr]
 2958              		.loc 1 252 0
 2959 0430 C9F80C70 		str	r7, [r9, #12]
 2960              	.L402:
ARM GAS  C:\Users\jo\AppData\Local\Temp\ccfChKJS.s 			page 53


 2961              	.LVL268:
 2962              	.LBB151:
 2963              	.LBB152:
 2964              		.loc 1 445 0
 2965 0434 614B     		ldr	r3, .L539+16
 2966 0436 1B78     		ldrb	r3, [r3]	@ zero_extendqisi2
 2967 0438 5807     		lsls	r0, r3, #29
 2968 043a 8DD4     		bmi	.L313
 2969              		.loc 1 452 0
 2970 043c 03F01001 		and	r1, r3, #16
 2971 0440 01F0FF07 		and	r7, r1, #255
 2972 0444 0029     		cmp	r1, #0
 2973 0446 40F01283 		bne	.L528
 2974              		.loc 1 458 0
 2975 044a 9907     		lsls	r1, r3, #30
 2976 044c 84D5     		bpl	.L313
 2977              		.loc 1 466 0
 2978 044e 99F81900 		ldrb	r0, [r9, #25]	@ zero_extendqisi2
 2979 0452 FFF7FEFF 		bl	tcp_alloc
 2980              	.LVL269:
 2981              		.loc 1 470 0
 2982 0456 8246     		mov	r10, r0
 2983 0458 0028     		cmp	r0, #0
 2984 045a 00F00083 		beq	.L529
 2985              		.loc 1 482 0
 2986 045e 3068     		ldr	r0, [r6]
 2987              	.LVL270:
 2988              		.loc 1 484 0
 2989 0460 574B     		ldr	r3, .L539+20
 2990              		.loc 1 482 0
 2991 0462 0478     		ldrb	r4, [r0]	@ zero_extendqisi2
 2992 0464 4678     		ldrb	r6, [r0, #1]	@ zero_extendqisi2
 2993              		.loc 1 484 0
 2994 0466 1B68     		ldr	r3, [r3]
 2995              		.loc 1 481 0
 2996 0468 534A     		ldr	r2, .L539+12
 2997              		.loc 1 479 0
 2998 046a D8F80010 		ldr	r1, [r8]
 2999              		.loc 1 480 0
 3000 046e B9F81AE0 		ldrh	lr, [r9, #26]
 3001              		.loc 1 481 0
 3002 0472 1268     		ldr	r2, [r2]
 3003              		.loc 1 479 0
 3004 0474 CAF80010 		str	r1, [r10]
 3005              		.loc 1 482 0
 3006 0478 44EA0621 		orr	r1, r4, r6, lsl #8
 3007              		.loc 1 484 0
 3008 047c 5C1C     		adds	r4, r3, #1
 3009              		.loc 1 483 0
 3010 047e 0326     		movs	r6, #3
 3011              		.loc 1 480 0
 3012 0480 AAF81AE0 		strh	lr, [r10, #26]	@ movhi
 3013              		.loc 1 482 0
 3014 0484 AAF81C10 		strh	r1, [r10, #28]	@ movhi
 3015              		.loc 1 481 0
 3016 0488 CAF80420 		str	r2, [r10, #4]
 3017              		.loc 1 484 0
ARM GAS  C:\Users\jo\AppData\Local\Temp\ccfChKJS.s 			page 54


 3018 048c CAF82840 		str	r4, [r10, #40]
 3019              		.loc 1 485 0
 3020 0490 CAF83040 		str	r4, [r10, #48]
 3021              		.loc 1 483 0
 3022 0494 8AF81860 		strb	r6, [r10, #24]
 3023              		.loc 1 486 0
 3024 0498 C089     		ldrh	r0, [r0, #14]	@ unaligned
 3025              		.loc 1 490 0
 3026 049a D9F81010 		ldr	r1, [r9, #16]
 3027              		.loc 1 492 0
 3028 049e D9F81420 		ldr	r2, [r9, #20]
 3029 04a2 CAF81420 		str	r2, [r10, #20]
 3030              		.loc 1 489 0
 3031 04a6 013B     		subs	r3, r3, #1
 3032              		.loc 1 490 0
 3033 04a8 CAF81010 		str	r1, [r10, #16]
 3034              		.loc 1 486 0
 3035 04ac AAF86000 		strh	r0, [r10, #96]	@ movhi
 3036              		.loc 1 487 0
 3037 04b0 AAF86200 		strh	r0, [r10, #98]	@ movhi
 3038              		.loc 1 488 0
 3039 04b4 AAF84E00 		strh	r0, [r10, #78]	@ movhi
 3040              		.loc 1 489 0
 3041 04b8 CAF85430 		str	r3, [r10, #84]
 3042              		.loc 1 495 0
 3043 04bc 99F80830 		ldrb	r3, [r9, #8]	@ zero_extendqisi2
 3044              		.loc 1 498 0
 3045 04c0 424A     		ldr	r2, .L539+32
 3046              		.loc 1 495 0
 3047 04c2 23F07303 		bic	r3, r3, #115
 3048              		.loc 1 498 0
 3049 04c6 1268     		ldr	r2, [r2]
 3050              		.loc 1 495 0
 3051 04c8 8AF80830 		strb	r3, [r10, #8]
 3052              		.loc 1 498 0
 3053 04cc 3F4B     		ldr	r3, .L539+32
 3054 04ce CAF80C20 		str	r2, [r10, #12]
 3055 04d2 C3F800A0 		str	r10, [r3]
 3056 04d6 FFF7FEFF 		bl	tcp_timer_needed
 3057              	.LVL271:
 3058 04da 3D4B     		ldr	r3, .L539+36
 3059 04dc 0122     		movs	r2, #1
 3060              		.loc 1 501 0
 3061 04de 0AF13600 		add	r0, r10, #54
 3062              		.loc 1 498 0
 3063 04e2 1A70     		strb	r2, [r3]
 3064              		.loc 1 501 0
 3065 04e4 FFF7FEFF 		bl	tcp_parseopt.isra.0
 3066              	.LVL272:
 3067              		.loc 1 503 0
 3068 04e8 0AF10401 		add	r1, r10, #4
 3069 04ec BAF83600 		ldrh	r0, [r10, #54]
 3070 04f0 FFF7FEFF 		bl	tcp_eff_send_mss
 3071              	.LVL273:
 3072              		.loc 1 509 0
 3073 04f4 1221     		movs	r1, #18
 3074              		.loc 1 503 0
ARM GAS  C:\Users\jo\AppData\Local\Temp\ccfChKJS.s 			page 55


 3075 04f6 AAF83600 		strh	r0, [r10, #54]	@ movhi
 3076              		.loc 1 509 0
 3077 04fa 5046     		mov	r0, r10
 3078 04fc FFF7FEFF 		bl	tcp_enqueue_flags
 3079              	.LVL274:
 3080              		.loc 1 510 0
 3081 0500 0028     		cmp	r0, #0
 3082 0502 40F0A582 		bne	.L530
 3083              		.loc 1 514 0
 3084 0506 5046     		mov	r0, r10
 3085              	.LVL275:
 3086 0508 FFF7FEFF 		bl	tcp_output
 3087              	.LVL276:
 3088              	.LBE152:
 3089              	.LBE151:
 3090              		.loc 1 208 0
 3091 050c 2846     		mov	r0, r5
 3092 050e A1E5     		b	.L512
 3093              	.LVL277:
 3094              	.L334:
 3095              	.LBB156:
 3096              	.LBB142:
 3097              		.loc 1 618 0
 3098 0510 BB7F     		ldrb	r3, [r7, #30]	@ zero_extendqisi2
 3099 0512 DC06     		lsls	r4, r3, #27
 3100 0514 02D4     		bmi	.L335
 3101              		.loc 1 620 0
 3102 0516 2F4B     		ldr	r3, .L539+40
 3103 0518 1B68     		ldr	r3, [r3]
 3104 051a 7B62     		str	r3, [r7, #36]
 3105              	.L335:
 3106              		.loc 1 622 0
 3107 051c 0023     		movs	r3, #0
 3108 051e 87F89630 		strb	r3, [r7, #150]
 3109              		.loc 1 624 0
 3110 0522 07F13600 		add	r0, r7, #54
 3111 0526 FFF7FEFF 		bl	tcp_parseopt.isra.0
 3112              	.LVL278:
 3113              		.loc 1 627 0
 3114 052a 3B7E     		ldrb	r3, [r7, #24]	@ zero_extendqisi2
 3115 052c 023B     		subs	r3, r3, #2
 3116 052e 072B     		cmp	r3, #7
 3117 0530 3FF628AF 		bhi	.L331
 3118 0534 DFE803F0 		tbb	[pc, r3]
 3119              	.L337:
 3120 0538 BB       		.byte	(.L336-.L337)/2
 3121 0539 9C       		.byte	(.L338-.L337)/2
 3122 053a 8D       		.byte	(.L339-.L337)/2
 3123 053b 73       		.byte	(.L340-.L337)/2
 3124 053c 54       		.byte	(.L341-.L337)/2
 3125 053d 8D       		.byte	(.L339-.L337)/2
 3126 053e 19       		.byte	(.L342-.L337)/2
 3127 053f 04       		.byte	(.L343-.L337)/2
 3128              		.p2align 1
 3129              	.L343:
 3130              		.loc 1 780 0
 3131 0540 3846     		mov	r0, r7
ARM GAS  C:\Users\jo\AppData\Local\Temp\ccfChKJS.s 			page 56


 3132 0542 FFF7FEFF 		bl	tcp_receive
 3133              	.LVL279:
 3134              		.loc 1 781 0
 3135 0546 1D4B     		ldr	r3, .L539+16
 3136 0548 1B78     		ldrb	r3, [r3]	@ zero_extendqisi2
 3137 054a DB06     		lsls	r3, r3, #27
 3138 054c 7FF51AAF 		bpl	.L331
 3139 0550 DAF80030 		ldr	r3, [r10]
 3140 0554 3A6D     		ldr	r2, [r7, #80]
 3141 0556 9A42     		cmp	r2, r3
 3142 0558 7FF414AF 		bne	.L331
 3143              		.loc 1 784 0
 3144 055c 98F80030 		ldrb	r3, [r8]	@ zero_extendqisi2
 3145 0560 43F01003 		orr	r3, r3, #16
 3146 0564 88F80030 		strb	r3, [r8]
 3147 0568 0CE7     		b	.L331
 3148              	.L342:
 3149              		.loc 1 770 0
 3150 056a 3846     		mov	r0, r7
 3151 056c FFF7FEFF 		bl	tcp_receive
 3152              	.LVL280:
 3153              		.loc 1 771 0
 3154 0570 124B     		ldr	r3, .L539+16
 3155 0572 1B78     		ldrb	r3, [r3]	@ zero_extendqisi2
 3156 0574 DA06     		lsls	r2, r3, #27
 3157 0576 7FF505AF 		bpl	.L331
 3158 057a DAF80030 		ldr	r3, [r10]
 3159 057e 3A6D     		ldr	r2, [r7, #80]
 3160 0580 9A42     		cmp	r2, r3
 3161 0582 7FF4FFAE 		bne	.L331
 3162              		.loc 1 773 0
 3163 0586 3846     		mov	r0, r7
 3164 0588 FFF7FEFF 		bl	tcp_pcb_purge
 3165              	.LVL281:
 3166              		.loc 1 774 0
 3167 058c 0F4B     		ldr	r3, .L539+32
 3168 058e 1A68     		ldr	r2, [r3]
 3169 0590 BA42     		cmp	r2, r7
 3170 0592 00F0DC81 		beq	.L515
 3171 0596 104B     		ldr	r3, .L539+44
 3172 0598 1A60     		str	r2, [r3]
 3173              	.L375:
 3174 059a 002A     		cmp	r2, #0
 3175 059c 00F00882 		beq	.L513
 3176 05a0 D168     		ldr	r1, [r2, #12]
 3177 05a2 B942     		cmp	r1, r7
 3178 05a4 00F00082 		beq	.L514
 3179 05a8 0A46     		mov	r2, r1
 3180 05aa F6E7     		b	.L375
 3181              	.L540:
 3182              		.align	2
 3183              	.L539:
 3184 05ac 00000000 		.word	itm_port
 3185 05b0 00000000 		.word	.LC0
 3186 05b4 84020000 		.word	.LC18
 3187 05b8 00000000 		.word	current_iphdr_src
 3188 05bc 00000000 		.word	.LANCHOR2
ARM GAS  C:\Users\jo\AppData\Local\Temp\ccfChKJS.s 			page 57


 3189 05c0 00000000 		.word	.LANCHOR0
 3190 05c4 00000000 		.word	.LANCHOR4
 3191 05c8 00000000 		.word	.LANCHOR9
 3192 05cc 00000000 		.word	tcp_active_pcbs
 3193 05d0 00000000 		.word	tcp_active_pcbs_changed
 3194 05d4 00000000 		.word	tcp_ticks
 3195 05d8 00000000 		.word	tcp_tmp_pcb
 3196 05dc 00000000 		.word	tcp_listen_pcbs
 3197              	.L341:
 3198              		.loc 1 759 0
 3199 05e0 3846     		mov	r0, r7
 3200 05e2 FFF7FEFF 		bl	tcp_receive
 3201              	.LVL282:
 3202              		.loc 1 760 0
 3203 05e6 98F80030 		ldrb	r3, [r8]	@ zero_extendqisi2
 3204 05ea 9906     		lsls	r1, r3, #26
 3205 05ec 7FF5CAAE 		bpl	.L331
 3206              		.loc 1 762 0
 3207 05f0 BB7F     		ldrb	r3, [r7, #30]	@ zero_extendqisi2
 3208 05f2 43F00203 		orr	r3, r3, #2
 3209 05f6 BB77     		strb	r3, [r7, #30]
 3210              		.loc 1 763 0
 3211 05f8 3846     		mov	r0, r7
 3212 05fa FFF7FEFF 		bl	tcp_pcb_purge
 3213              	.LVL283:
 3214              		.loc 1 764 0
 3215 05fe 974B     		ldr	r3, .L541
 3216 0600 1A68     		ldr	r2, [r3]
 3217 0602 BA42     		cmp	r2, r7
 3218 0604 00F0A381 		beq	.L515
 3219 0608 954B     		ldr	r3, .L541+4
 3220 060a 1A60     		str	r2, [r3]
 3221              	.L371:
 3222 060c 002A     		cmp	r2, #0
 3223 060e 00F0CF81 		beq	.L513
 3224 0612 D168     		ldr	r1, [r2, #12]
 3225 0614 B942     		cmp	r1, r7
 3226 0616 00F0C781 		beq	.L514
 3227 061a 0A46     		mov	r2, r1
 3228 061c F6E7     		b	.L371
 3229              	.L340:
 3230              		.loc 1 740 0
 3231 061e 3846     		mov	r0, r7
 3232 0620 FFF7FEFF 		bl	tcp_receive
 3233              	.LVL284:
 3234              		.loc 1 741 0
 3235 0624 98F80030 		ldrb	r3, [r8]	@ zero_extendqisi2
 3236 0628 13F0200F 		tst	r3, #32
 3237              		.loc 1 742 0
 3238 062c 8D4B     		ldr	r3, .L541+8
 3239 062e 1B78     		ldrb	r3, [r3]	@ zero_extendqisi2
 3240              		.loc 1 741 0
 3241 0630 00F09B81 		beq	.L363
 3242              		.loc 1 742 0
 3243 0634 DC06     		lsls	r4, r3, #27
 3244 0636 05D5     		bpl	.L364
 3245 0638 DAF80030 		ldr	r3, [r10]
ARM GAS  C:\Users\jo\AppData\Local\Temp\ccfChKJS.s 			page 58


 3246 063c 3A6D     		ldr	r2, [r7, #80]
 3247 063e 9A42     		cmp	r2, r3
 3248 0640 00F09F81 		beq	.L531
 3249              	.L364:
 3250              		.loc 1 751 0
 3251 0644 BB7F     		ldrb	r3, [r7, #30]	@ zero_extendqisi2
 3252              		.loc 1 752 0
 3253 0646 0822     		movs	r2, #8
 3254              		.loc 1 751 0
 3255 0648 43F00203 		orr	r3, r3, #2
 3256 064c BB77     		strb	r3, [r7, #30]
 3257              		.loc 1 752 0
 3258 064e 3A76     		strb	r2, [r7, #24]
 3259 0650 98E6     		b	.L331
 3260              	.L339:
 3261              		.loc 1 733 0
 3262 0652 3846     		mov	r0, r7
 3263 0654 FFF7FEFF 		bl	tcp_receive
 3264              	.LVL285:
 3265              		.loc 1 734 0
 3266 0658 98F80030 		ldrb	r3, [r8]	@ zero_extendqisi2
 3267 065c 9E06     		lsls	r6, r3, #26
 3268 065e 7FF591AE 		bpl	.L331
 3269              	.LVL286:
 3270              	.L509:
 3271              		.loc 1 735 0
 3272 0662 BB7F     		ldrb	r3, [r7, #30]	@ zero_extendqisi2
 3273              		.loc 1 736 0
 3274 0664 0722     		movs	r2, #7
 3275              		.loc 1 735 0
 3276 0666 43F00203 		orr	r3, r3, #2
 3277 066a BB77     		strb	r3, [r7, #30]
 3278              		.loc 1 736 0
 3279 066c 3A76     		strb	r2, [r7, #24]
 3280 066e 89E6     		b	.L331
 3281              	.LVL287:
 3282              	.L338:
 3283              		.loc 1 684 0
 3284 0670 7C4B     		ldr	r3, .L541+8
 3285 0672 1B78     		ldrb	r3, [r3]	@ zero_extendqisi2
 3286 0674 D906     		lsls	r1, r3, #27
 3287 0676 40F1BF80 		bpl	.L353
 3288              		.loc 1 686 0
 3289 067a BB6C     		ldr	r3, [r7, #72]
 3290 067c DAF80000 		ldr	r0, [r10]
 3291 0680 DB43     		mvns	r3, r3
 3292 0682 C342     		cmn	r3, r0
 3293 0684 04D4     		bmi	.L354
 3294 0686 3B6D     		ldr	r3, [r7, #80]
 3295 0688 C31A     		subs	r3, r0, r3
 3296 068a 002B     		cmp	r3, #0
 3297 068c 40F3C280 		ble	.L532
 3298              	.L354:
 3299              		.loc 1 722 0
 3300 0690 754A     		ldr	r2, .L541+12
 3301              		.loc 1 723 0
 3302 0692 3368     		ldr	r3, [r6]
ARM GAS  C:\Users\jo\AppData\Local\Temp\ccfChKJS.s 			page 59


 3303              		.loc 1 722 0
 3304 0694 1188     		ldrh	r1, [r2]
 3305 0696 754A     		ldr	r2, .L541+16
 3306 0698 5C88     		ldrh	r4, [r3, #2]	@ unaligned
 3307 069a 1268     		ldr	r2, [r2]
 3308 069c 0094     		str	r4, [sp]
 3309 069e 1B88     		ldrh	r3, [r3]	@ unaligned
 3310              	.L508:
 3311 06a0 0193     		str	r3, [sp, #4]
 3312 06a2 1144     		add	r1, r1, r2
 3313 06a4 724B     		ldr	r3, .L541+20
 3314 06a6 734A     		ldr	r2, .L541+24
 3315 06a8 FFF7FEFF 		bl	tcp_rst
 3316              	.LVL288:
 3317 06ac 6AE6     		b	.L331
 3318              	.L336:
 3319              		.loc 1 632 0
 3320 06ae 6D4B     		ldr	r3, .L541+8
 3321 06b0 1B78     		ldrb	r3, [r3]	@ zero_extendqisi2
 3322 06b2 03F01203 		and	r3, r3, #18
 3323 06b6 122B     		cmp	r3, #18
 3324 06b8 00F0E880 		beq	.L533
 3325              	.L344:
 3326              		.loc 1 677 0
 3327 06bc 694B     		ldr	r3, .L541+8
 3328 06be 1B78     		ldrb	r3, [r3]	@ zero_extendqisi2
 3329 06c0 D806     		lsls	r0, r3, #27
 3330 06c2 7FF55FAE 		bpl	.L331
 3331              		.loc 1 679 0
 3332 06c6 684A     		ldr	r2, .L541+12
 3333              		.loc 1 680 0
 3334 06c8 3368     		ldr	r3, [r6]
 3335              		.loc 1 679 0
 3336 06ca 1188     		ldrh	r1, [r2]
 3337 06cc 674A     		ldr	r2, .L541+16
 3338 06ce 5888     		ldrh	r0, [r3, #2]	@ unaligned
 3339 06d0 1268     		ldr	r2, [r2]
 3340 06d2 0090     		str	r0, [sp]
 3341 06d4 1B88     		ldrh	r3, [r3]	@ unaligned
 3342 06d6 DAF80000 		ldr	r0, [r10]
 3343 06da E1E7     		b	.L508
 3344              	.LVL289:
 3345              	.L318:
 3346              	.LBE142:
 3347              	.LBE156:
 3348              		.loc 1 408 0
 3349 06dc 3368     		ldr	r3, [r6]
 3350 06de DFF8A881 		ldr	r8, .L541+44
 3351 06e2 9889     		ldrh	r0, [r3, #12]	@ unaligned
 3352 06e4 FFF7FEFF 		bl	lwip_ntohs
 3353              	.LVL290:
 3354 06e8 4307     		lsls	r3, r0, #29
 3355 06ea 3FF535AE 		bmi	.L313
 3356              		.loc 1 409 0
 3357 06ee B4F8A070 		ldrh	r7, [r4, #160]
 3358              		.loc 1 410 0
 3359 06f2 B4F89660 		ldrh	r6, [r4, #150]
ARM GAS  C:\Users\jo\AppData\Local\Temp\ccfChKJS.s 			page 60


 3360              		.loc 1 411 0
 3361 06f6 5C4B     		ldr	r3, .L541+12
 3362              		.loc 1 413 0
 3363 06f8 D8F800E0 		ldr	lr, [r8]
 3364              		.loc 1 411 0
 3365 06fc B3F800C0 		ldrh	ip, [r3]
 3366 0700 5A4B     		ldr	r3, .L541+16
 3367 0702 DAF80000 		ldr	r0, [r10]
 3368 0706 1968     		ldr	r1, [r3]
 3369 0708 5A4A     		ldr	r2, .L541+24
 3370 070a 594B     		ldr	r3, .L541+20
 3371              		.loc 1 409 0
 3372 070c 0137     		adds	r7, r7, #1
 3373              		.loc 1 410 0
 3374 070e 0136     		adds	r6, r6, #1
 3375              		.loc 1 409 0
 3376 0710 A4F8A070 		strh	r7, [r4, #160]	@ movhi
 3377              		.loc 1 410 0
 3378 0714 A4F89660 		strh	r6, [r4, #150]	@ movhi
 3379              		.loc 1 411 0
 3380 0718 BEF80240 		ldrh	r4, [lr, #2]	@ unaligned
 3381 071c 0094     		str	r4, [sp]
 3382 071e BEF80040 		ldrh	r4, [lr]	@ unaligned
 3383 0722 0194     		str	r4, [sp, #4]
 3384 0724 6144     		add	r1, r1, ip
 3385 0726 FFF7FEFF 		bl	tcp_rst
 3386              	.LVL291:
 3387              		.loc 1 208 0
 3388 072a 2846     		mov	r0, r5
 3389 072c 92E4     		b	.L512
 3390              	.LVL292:
 3391              	.L379:
 3392              		.loc 1 332 0
 3393 072e B7F86420 		ldrh	r2, [r7, #100]
 3394 0732 3AB1     		cbz	r2, .L384
 3395              		.loc 1 333 0
 3396 0734 FB6F     		ldr	r3, [r7, #124]
 3397 0736 2BB1     		cbz	r3, .L384
 3398              		.loc 1 333 0 is_stmt 0 discriminator 1
 3399 0738 3869     		ldr	r0, [r7, #16]
 3400 073a 3946     		mov	r1, r7
 3401 073c 9847     		blx	r3
 3402              	.LVL293:
 3403              		.loc 1 334 0 is_stmt 1 discriminator 1
 3404 073e 0A30     		adds	r0, r0, #10
 3405              	.LVL294:
 3406 0740 3FF473AD 		beq	.L327
 3407              	.L384:
 3408              		.loc 1 339 0
 3409 0744 D9F80030 		ldr	r3, [r9]
 3410 0748 23B3     		cbz	r3, .L385
 3411              		.loc 1 340 0
 3412 074a BB6F     		ldr	r3, [r7, #120]
 3413 074c 5BB1     		cbz	r3, .L386
 3414              		.loc 1 340 0 is_stmt 0 discriminator 1
 3415 074e 4A4B     		ldr	r3, .L541+28
 3416 0750 0093     		str	r3, [sp]
ARM GAS  C:\Users\jo\AppData\Local\Temp\ccfChKJS.s 			page 61


 3417 0752 4A48     		ldr	r0, .L541+32
 3418 0754 4A49     		ldr	r1, .L541+36
 3419 0756 4B4A     		ldr	r2, .L541+40
 3420 0758 4FF4AA73 		mov	r3, #340
 3421 075c FFF7FEFF 		bl	chprintf.constprop.1
 3422              	.LVL295:
 3423              	.LBB157:
 3424              	.LBB158:
 3425              		.loc 3 416 0 is_stmt 1 discriminator 1
 3426 0760 4848     		ldr	r0, .L541+40
 3427 0762 FFF7FEFF 		bl	chSysHalt
 3428              	.LVL296:
 3429              	.L386:
 3430              	.LBE158:
 3431              	.LBE157:
 3432              		.loc 1 341 0
 3433 0766 BA7F     		ldrb	r2, [r7, #30]	@ zero_extendqisi2
 3434 0768 02F01002 		and	r2, r2, #16
 3435 076c 02F0FF03 		and	r3, r2, #255
 3436 0770 002A     		cmp	r2, #0
 3437 0772 39D1     		bne	.L534
 3438              		.loc 1 350 0
 3439 0774 D7F88040 		ldr	r4, [r7, #128]
 3440 0778 74B3     		cbz	r4, .L388
 3441              		.loc 1 350 0 is_stmt 0 discriminator 1
 3442 077a 3869     		ldr	r0, [r7, #16]
 3443 077c D9F80020 		ldr	r2, [r9]
 3444 0780 3946     		mov	r1, r7
 3445 0782 A047     		blx	r4
 3446              	.LVL297:
 3447              	.L389:
 3448              		.loc 1 351 0 is_stmt 1
 3449 0784 43B2     		sxtb	r3, r0
 3450 0786 0A33     		adds	r3, r3, #10
 3451 0788 3FF44FAD 		beq	.L327
 3452              		.loc 1 356 0
 3453 078c 10B1     		cbz	r0, .L385
 3454              		.loc 1 357 0
 3455 078e D9F80030 		ldr	r3, [r9]
 3456 0792 BB67     		str	r3, [r7, #120]
 3457              	.LVL298:
 3458              	.L385:
 3459              		.loc 1 364 0
 3460 0794 98F80030 		ldrb	r3, [r8]	@ zero_extendqisi2
 3461 0798 9906     		lsls	r1, r3, #26
 3462 079a 06D5     		bpl	.L392
 3463              		.loc 1 365 0
 3464 079c BB6F     		ldr	r3, [r7, #120]
 3465 079e 002B     		cmp	r3, #0
 3466 07a0 48D0     		beq	.L393
 3467              		.loc 1 367 0
 3468 07a2 5A7B     		ldrb	r2, [r3, #13]	@ zero_extendqisi2
 3469 07a4 42F02002 		orr	r2, r2, #32
 3470 07a8 5A73     		strb	r2, [r3, #13]
 3471              	.L392:
 3472              		.loc 1 381 0
 3473 07aa 0023     		movs	r3, #0
ARM GAS  C:\Users\jo\AppData\Local\Temp\ccfChKJS.s 			page 62


 3474              		.loc 1 383 0
 3475 07ac 3846     		mov	r0, r7
 3476              		.loc 1 381 0
 3477 07ae 2B60     		str	r3, [r5]
 3478              		.loc 1 383 0
 3479 07b0 FFF7FEFF 		bl	tcp_output
 3480              	.LVL299:
 3481 07b4 39E5     		b	.L327
 3482              	.LVL300:
 3483              	.L526:
 3484              	.LBB159:
 3485              	.LBB143:
 3486              		.loc 1 587 0
 3487 07b6 DAF80030 		ldr	r3, [r10]
 3488 07ba 3A6D     		ldr	r2, [r7, #80]
 3489 07bc 9A42     		cmp	r2, r3
 3490 07be 7FF4E1AD 		bne	.L331
 3491              	.LVL301:
 3492              	.L330:
 3493              		.loc 1 600 0
 3494 07c2 98F80020 		ldrb	r2, [r8]	@ zero_extendqisi2
 3495              		.loc 1 601 0
 3496 07c6 BB7F     		ldrb	r3, [r7, #30]	@ zero_extendqisi2
 3497              		.loc 1 600 0
 3498 07c8 42F00802 		orr	r2, r2, #8
 3499              		.loc 1 601 0
 3500 07cc 23F00103 		bic	r3, r3, #1
 3501              		.loc 1 600 0
 3502 07d0 88F80020 		strb	r2, [r8]
 3503              		.loc 1 601 0
 3504 07d4 BB77     		strb	r3, [r7, #30]
 3505 07d6 D5E5     		b	.L331
 3506              	.LVL302:
 3507              	.L388:
 3508              	.LBE143:
 3509              	.LBE159:
 3510              		.loc 1 350 0 discriminator 2
 3511 07d8 2046     		mov	r0, r4
 3512 07da 2346     		mov	r3, r4
 3513 07dc 3946     		mov	r1, r7
 3514 07de D9F80020 		ldr	r2, [r9]
 3515 07e2 FFF7FEFF 		bl	tcp_recv_null
 3516              	.LVL303:
 3517 07e6 CDE7     		b	.L389
 3518              	.LVL304:
 3519              	.L534:
 3520              		.loc 1 344 0
 3521 07e8 D9F80000 		ldr	r0, [r9]
 3522 07ec FFF7FEFF 		bl	pbuf_free
 3523              	.LVL305:
 3524              	.L510:
 3525              		.loc 1 345 0
 3526 07f0 3846     		mov	r0, r7
 3527 07f2 FFF7FEFF 		bl	tcp_abort
 3528              	.LVL306:
 3529              		.loc 1 346 0
 3530 07f6 18E5     		b	.L327
ARM GAS  C:\Users\jo\AppData\Local\Temp\ccfChKJS.s 			page 63


 3531              	.LVL307:
 3532              	.L353:
 3533              	.LBB160:
 3534              	.LBB144:
 3535              		.loc 1 725 0
 3536 07f8 9B07     		lsls	r3, r3, #30
 3537 07fa 7FF5C3AD 		bpl	.L331
 3538 07fe 1B4A     		ldr	r2, .L541+16
 3539 0800 BB6A     		ldr	r3, [r7, #40]
 3540 0802 1268     		ldr	r2, [r2]
 3541 0804 013B     		subs	r3, r3, #1
 3542 0806 9342     		cmp	r3, r2
 3543 0808 7FF4BCAD 		bne	.L331
 3544              		.loc 1 727 0
 3545 080c 3846     		mov	r0, r7
 3546 080e FFF7FEFF 		bl	tcp_rexmit
 3547              	.LVL308:
 3548 0812 B7E5     		b	.L331
 3549              	.L532:
 3550              	.LBB131:
 3551              		.loc 1 691 0
 3552 0814 7B69     		ldr	r3, [r7, #20]
 3553              		.loc 1 688 0
 3554 0816 0422     		movs	r2, #4
 3555 0818 3A76     		strb	r2, [r7, #24]
 3556              		.loc 1 691 0
 3557 081a 002B     		cmp	r3, #0
 3558 081c 00F0F980 		beq	.L535
 3559              	.L355:
 3560              		.loc 1 694 0
 3561 0820 3869     		ldr	r0, [r7, #16]
 3562 0822 3946     		mov	r1, r7
 3563 0824 0022     		movs	r2, #0
 3564 0826 9847     		blx	r3
 3565              	.LVL309:
 3566              		.loc 1 695 0
 3567 0828 0028     		cmp	r0, #0
 3568 082a 00F0DA80 		beq	.L357
 3569              		.loc 1 699 0
 3570 082e 0A30     		adds	r0, r0, #10
 3571              	.LVL310:
 3572 0830 DED1     		bne	.L510
 3573 0832 FAE4     		b	.L327
 3574              	.LVL311:
 3575              	.L393:
 3576              	.LBE131:
 3577              	.LBE144:
 3578              	.LBE160:
 3579              		.loc 1 371 0
 3580 0834 BB8D     		ldrh	r3, [r7, #44]
 3581              		.loc 1 374 0
 3582 0836 D7F88040 		ldr	r4, [r7, #128]
 3583              		.loc 1 371 0
 3584 083a 41F2D062 		movw	r2, #5840
 3585 083e 9342     		cmp	r3, r2
 3586              		.loc 1 372 0
 3587 0840 1CBF     		itt	ne
ARM GAS  C:\Users\jo\AppData\Local\Temp\ccfChKJS.s 			page 64


 3588 0842 0133     		addne	r3, r3, #1
 3589 0844 BB85     		strhne	r3, [r7, #44]	@ movhi
 3590              		.loc 1 374 0
 3591 0846 002C     		cmp	r4, #0
 3592 0848 AFD0     		beq	.L392
 3593              		.loc 1 374 0 is_stmt 0 discriminator 1
 3594 084a 0022     		movs	r2, #0
 3595 084c 1346     		mov	r3, r2
 3596 084e 3869     		ldr	r0, [r7, #16]
 3597 0850 3946     		mov	r1, r7
 3598 0852 A047     		blx	r4
 3599              	.LVL312:
 3600              		.loc 1 375 0 is_stmt 1 discriminator 1
 3601 0854 0A30     		adds	r0, r0, #10
 3602              	.LVL313:
 3603 0856 A8D1     		bne	.L392
 3604 0858 E7E4     		b	.L327
 3605              	.L542:
 3606 085a 00BF     		.align	2
 3607              	.L541:
 3608 085c 00000000 		.word	tcp_active_pcbs
 3609 0860 00000000 		.word	tcp_tmp_pcb
 3610 0864 00000000 		.word	.LANCHOR2
 3611 0868 00000000 		.word	.LANCHOR4
 3612 086c 00000000 		.word	.LANCHOR0
 3613 0870 00000000 		.word	current_iphdr_src
 3614 0874 00000000 		.word	current_iphdr_dest
 3615 0878 44000000 		.word	.LC2
 3616 087c 00000000 		.word	itm_port
 3617 0880 00000000 		.word	.LC0
 3618 0884 00030000 		.word	.LC22
 3619 0888 00000000 		.word	.LANCHOR1
 3620              	.LVL314:
 3621              	.L533:
 3622              	.LBB161:
 3623              	.LBB145:
 3624              		.loc 1 633 0
 3625 088c 3B6F     		ldr	r3, [r7, #112]
 3626 088e 1B69     		ldr	r3, [r3, #16]
 3627 0890 5868     		ldr	r0, [r3, #4]	@ unaligned
 3628 0892 FFF7FEFF 		bl	lwip_ntohl
 3629              	.LVL315:
 3630 0896 DAF80030 		ldr	r3, [r10]
 3631 089a 0130     		adds	r0, r0, #1
 3632 089c 9842     		cmp	r0, r3
 3633 089e 7FF40DAF 		bne	.L344
 3634              		.loc 1 635 0
 3635 08a2 904B     		ldr	r3, .L543
 3636              		.loc 1 634 0
 3637 08a4 B7F86620 		ldrh	r2, [r7, #102]
 3638              		.loc 1 635 0
 3639 08a8 1B68     		ldr	r3, [r3]
 3640              		.loc 1 638 0
 3641 08aa 3468     		ldr	r4, [r6]
 3642              		.loc 1 637 0
 3643 08ac B864     		str	r0, [r7, #72]
 3644              		.loc 1 635 0
ARM GAS  C:\Users\jo\AppData\Local\Temp\ccfChKJS.s 			page 65


 3645 08ae 591C     		adds	r1, r3, #1
 3646              		.loc 1 634 0
 3647 08b0 0132     		adds	r2, r2, #1
 3648              		.loc 1 635 0
 3649 08b2 B962     		str	r1, [r7, #40]
 3650              		.loc 1 636 0
 3651 08b4 3963     		str	r1, [r7, #48]
 3652              		.loc 1 634 0
 3653 08b6 A7F86620 		strh	r2, [r7, #102]	@ movhi
 3654              		.loc 1 638 0
 3655 08ba E289     		ldrh	r2, [r4, #14]	@ unaligned
 3656 08bc A7F86020 		strh	r2, [r7, #96]	@ movhi
 3657              		.loc 1 640 0
 3658 08c0 013B     		subs	r3, r3, #1
 3659              		.loc 1 641 0
 3660 08c2 0421     		movs	r1, #4
 3661              		.loc 1 640 0
 3662 08c4 7B65     		str	r3, [r7, #84]
 3663              		.loc 1 639 0
 3664 08c6 A7F86220 		strh	r2, [r7, #98]	@ movhi
 3665              		.loc 1 641 0
 3666 08ca 3976     		strb	r1, [r7, #24]
 3667              		.loc 1 644 0
 3668 08cc F88E     		ldrh	r0, [r7, #54]
 3669 08ce 7918     		adds	r1, r7, r1
 3670 08d0 FFF7FEFF 		bl	tcp_eff_send_mss
 3671              	.LVL316:
 3672              		.loc 1 651 0
 3673 08d4 B7F84C20 		ldrh	r2, [r7, #76]
 3674              		.loc 1 644 0
 3675 08d8 F886     		strh	r0, [r7, #54]	@ movhi
 3676              		.loc 1 649 0
 3677 08da 00EB8003 		add	r3, r0, r0, lsl #2
 3678 08de 5B00     		lsls	r3, r3, #1
 3679              		.loc 1 651 0
 3680 08e0 012A     		cmp	r2, #1
 3681 08e2 08BF     		it	eq
 3682 08e4 4000     		lsleq	r0, r0, #1
 3683              		.loc 1 649 0
 3684 08e6 A7F84E30 		strh	r3, [r7, #78]	@ movhi
 3685              		.loc 1 652 0
 3686 08ea B7F86830 		ldrh	r3, [r7, #104]
 3687              		.loc 1 651 0
 3688 08ee 08BF     		it	eq
 3689 08f0 80B2     		uxtheq	r0, r0
 3690 08f2 A7F84C00 		strh	r0, [r7, #76]	@ movhi
 3691              		.loc 1 652 0
 3692 08f6 5BB9     		cbnz	r3, .L346
 3693 08f8 7B4B     		ldr	r3, .L543+4
 3694 08fa 0093     		str	r3, [sp]
 3695 08fc 7B48     		ldr	r0, .L543+8
 3696 08fe 7C49     		ldr	r1, .L543+12
 3697 0900 7C4A     		ldr	r2, .L543+16
 3698 0902 4FF42373 		mov	r3, #652
 3699 0906 FFF7FEFF 		bl	chprintf.constprop.1
 3700              	.LVL317:
 3701              	.LBB134:
ARM GAS  C:\Users\jo\AppData\Local\Temp\ccfChKJS.s 			page 66


 3702              	.LBB135:
 3703              		.loc 3 416 0
 3704 090a 7A48     		ldr	r0, .L543+16
 3705 090c FFF7FEFF 		bl	chSysHalt
 3706              	.LVL318:
 3707              	.L346:
 3708              	.LBE135:
 3709              	.LBE134:
 3710              		.loc 1 653 0
 3711 0910 B7F86830 		ldrh	r3, [r7, #104]
 3712              		.loc 1 655 0
 3713 0914 386F     		ldr	r0, [r7, #112]
 3714              	.LVL319:
 3715              		.loc 1 653 0
 3716 0916 013B     		subs	r3, r3, #1
 3717              		.loc 1 656 0
 3718 0918 0268     		ldr	r2, [r0]
 3719 091a 3A67     		str	r2, [r7, #112]
 3720              		.loc 1 653 0
 3721 091c A7F86830 		strh	r3, [r7, #104]	@ movhi
 3722              		.loc 1 657 0
 3723 0920 FFF7FEFF 		bl	tcp_seg_free
 3724              	.LVL320:
 3725              		.loc 1 661 0
 3726 0924 3B6F     		ldr	r3, [r7, #112]
 3727 0926 002B     		cmp	r3, #0
 3728 0928 00F0D880 		beq	.L536
 3729              		.loc 1 664 0
 3730 092c 0023     		movs	r3, #0
 3731 092e BB86     		strh	r3, [r7, #52]	@ movhi
 3732              		.loc 1 665 0
 3733 0930 87F84630 		strb	r3, [r7, #70]
 3734              	.L348:
 3735              		.loc 1 670 0
 3736 0934 D7F88430 		ldr	r3, [r7, #132]
 3737 0938 002B     		cmp	r3, #0
 3738 093a 3FF43EAD 		beq	.L351
 3739 093e 3869     		ldr	r0, [r7, #16]
 3740 0940 3946     		mov	r1, r7
 3741 0942 0022     		movs	r2, #0
 3742 0944 9847     		blx	r3
 3743              	.LVL321:
 3744              		.loc 1 671 0
 3745 0946 0A30     		adds	r0, r0, #10
 3746              	.LVL322:
 3747 0948 7FF437AD 		bne	.L351
 3748 094c 6DE4     		b	.L327
 3749              	.LVL323:
 3750              	.L515:
 3751              		.loc 1 774 0
 3752 094e FA68     		ldr	r2, [r7, #12]
 3753 0950 1A60     		str	r2, [r3]
 3754              	.L374:
 3755              		.loc 1 776 0
 3756 0952 694B     		ldr	r3, .L543+20
 3757              		.loc 1 774 0
 3758 0954 694A     		ldr	r2, .L543+24
ARM GAS  C:\Users\jo\AppData\Local\Temp\ccfChKJS.s 			page 67


 3759              		.loc 1 776 0
 3760 0956 1968     		ldr	r1, [r3]
 3761 0958 F960     		str	r1, [r7, #12]
 3762              		.loc 1 775 0
 3763 095a 0A20     		movs	r0, #10
 3764              		.loc 1 774 0
 3765 095c 0121     		movs	r1, #1
 3766              		.loc 1 775 0
 3767 095e 3876     		strb	r0, [r7, #24]
 3768              		.loc 1 776 0
 3769 0960 1F60     		str	r7, [r3]
 3770              		.loc 1 774 0
 3771 0962 1170     		strb	r1, [r2]
 3772              		.loc 1 776 0
 3773 0964 FFF7FEFF 		bl	tcp_timer_needed
 3774              	.LVL324:
 3775 0968 0CE5     		b	.L331
 3776              	.L363:
 3777              		.loc 1 754 0
 3778 096a D806     		lsls	r0, r3, #27
 3779 096c 7FF50AAD 		bpl	.L331
 3780 0970 DAF80030 		ldr	r3, [r10]
 3781 0974 3A6D     		ldr	r2, [r7, #80]
 3782 0976 9A42     		cmp	r2, r3
 3783 0978 7FF404AD 		bne	.L331
 3784              		.loc 1 755 0
 3785 097c 0623     		movs	r3, #6
 3786 097e 3B76     		strb	r3, [r7, #24]
 3787 0980 00E5     		b	.L331
 3788              	.L531:
 3789              		.loc 1 745 0
 3790 0982 BB7F     		ldrb	r3, [r7, #30]	@ zero_extendqisi2
 3791 0984 43F00203 		orr	r3, r3, #2
 3792 0988 BB77     		strb	r3, [r7, #30]
 3793              		.loc 1 746 0
 3794 098a 3846     		mov	r0, r7
 3795 098c FFF7FEFF 		bl	tcp_pcb_purge
 3796              	.LVL325:
 3797              		.loc 1 747 0
 3798 0990 5B4B     		ldr	r3, .L543+28
 3799 0992 1A68     		ldr	r2, [r3]
 3800 0994 BA42     		cmp	r2, r7
 3801 0996 DAD0     		beq	.L515
 3802 0998 5A4B     		ldr	r3, .L543+32
 3803 099a 1A60     		str	r2, [r3]
 3804              	.L367:
 3805 099c 42B1     		cbz	r2, .L513
 3806 099e D168     		ldr	r1, [r2, #12]
 3807 09a0 B942     		cmp	r1, r7
 3808 09a2 01D0     		beq	.L514
 3809 09a4 0A46     		mov	r2, r1
 3810 09a6 F9E7     		b	.L367
 3811              	.L514:
 3812              		.loc 1 774 0
 3813 09a8 F968     		ldr	r1, [r7, #12]
 3814 09aa 1A60     		str	r2, [r3]
 3815 09ac D160     		str	r1, [r2, #12]
ARM GAS  C:\Users\jo\AppData\Local\Temp\ccfChKJS.s 			page 68


 3816 09ae D0E7     		b	.L374
 3817              	.L513:
 3818 09b0 1A60     		str	r2, [r3]
 3819 09b2 CEE7     		b	.L374
 3820              	.LVL326:
 3821              	.L314:
 3822              	.LBE145:
 3823              	.LBE161:
 3824              	.LBB162:
 3825              	.LBB126:
 3826              		.loc 1 549 0
 3827 09b4 CC07     		lsls	r4, r1, #31
 3828 09b6 7FF5CAAC 		bpl	.L315
 3829              		.loc 1 552 0
 3830 09ba 534B     		ldr	r3, .L543+36
 3831 09bc 1B68     		ldr	r3, [r3]
 3832 09be 7B62     		str	r3, [r7, #36]
 3833 09c0 C5E4     		b	.L315
 3834              	.LVL327:
 3835              	.L527:
 3836              	.LBE126:
 3837              	.LBE162:
 3838              	.LBB163:
 3839              	.LBB146:
 3840              		.loc 1 599 0
 3841 09c2 002A     		cmp	r2, #0
 3842 09c4 7FF4FDAE 		bne	.L330
 3843 09c8 474B     		ldr	r3, .L543+4
 3844 09ca 0093     		str	r3, [sp]
 3845 09cc 4849     		ldr	r1, .L543+12
 3846 09ce 4F4A     		ldr	r2, .L543+40
 3847 09d0 4648     		ldr	r0, .L543+8
 3848 09d2 40F25723 		movw	r3, #599
 3849 09d6 FFF7FEFF 		bl	chprintf.constprop.1
 3850              	.LVL328:
 3851              	.LBB136:
 3852              	.LBB137:
 3853              		.loc 3 416 0
 3854 09da 4C48     		ldr	r0, .L543+40
 3855 09dc FFF7FEFF 		bl	chSysHalt
 3856              	.LVL329:
 3857 09e0 EFE6     		b	.L330
 3858              	.LVL330:
 3859              	.L357:
 3860              	.LBE137:
 3861              	.LBE136:
 3862              	.LBB138:
 3863              		.loc 1 707 0
 3864 09e2 3846     		mov	r0, r7
 3865              	.LVL331:
 3866              		.loc 1 704 0
 3867 09e4 B7F84C40 		ldrh	r4, [r7, #76]
 3868              	.LVL332:
 3869              		.loc 1 707 0
 3870 09e8 FFF7FEFF 		bl	tcp_receive
 3871              	.LVL333:
 3872              		.loc 1 710 0
ARM GAS  C:\Users\jo\AppData\Local\Temp\ccfChKJS.s 			page 69


 3873 09ec B7F86430 		ldrh	r3, [r7, #100]
 3874 09f0 13B1     		cbz	r3, .L359
 3875              		.loc 1 711 0
 3876 09f2 013B     		subs	r3, r3, #1
 3877 09f4 A7F86430 		strh	r3, [r7, #100]	@ movhi
 3878              	.L359:
 3879              		.loc 1 714 0
 3880 09f8 FB8E     		ldrh	r3, [r7, #54]
 3881              		.loc 1 716 0
 3882 09fa 98F80020 		ldrb	r2, [r8]	@ zero_extendqisi2
 3883              		.loc 1 714 0
 3884 09fe 012C     		cmp	r4, #1
 3885 0a00 04BF     		itt	eq
 3886 0a02 5B00     		lsleq	r3, r3, #1
 3887 0a04 9BB2     		uxtheq	r3, r3
 3888              		.loc 1 716 0
 3889 0a06 9206     		lsls	r2, r2, #26
 3890              		.loc 1 714 0
 3891 0a08 A7F84C30 		strh	r3, [r7, #76]	@ movhi
 3892              		.loc 1 716 0
 3893 0a0c 7FF5BAAC 		bpl	.L331
 3894 0a10 27E6     		b	.L509
 3895              	.LVL334:
 3896              	.L535:
 3897              		.loc 1 691 0
 3898 0a12 354B     		ldr	r3, .L543+4
 3899 0a14 0093     		str	r3, [sp]
 3900 0a16 3649     		ldr	r1, .L543+12
 3901 0a18 3D4A     		ldr	r2, .L543+44
 3902 0a1a 3448     		ldr	r0, .L543+8
 3903 0a1c 40F2B323 		movw	r3, #691
 3904 0a20 FFF7FEFF 		bl	chprintf.constprop.1
 3905              	.LVL335:
 3906              	.LBB132:
 3907              	.LBB133:
 3908              		.loc 3 416 0
 3909 0a24 3A48     		ldr	r0, .L543+44
 3910 0a26 FFF7FEFF 		bl	chSysHalt
 3911              	.LVL336:
 3912              	.LBE133:
 3913              	.LBE132:
 3914              		.loc 1 694 0
 3915 0a2a 7B69     		ldr	r3, [r7, #20]
 3916 0a2c 002B     		cmp	r3, #0
 3917 0a2e 7FF4F7AE 		bne	.L355
 3918 0a32 DDE6     		b	.L510
 3919              	.LVL337:
 3920              	.L524:
 3921              	.LBE138:
 3922              	.LBE146:
 3923              	.LBE163:
 3924              	.LBB164:
 3925              	.LBB127:
 3926              		.loc 1 545 0
 3927 0a34 3748     		ldr	r0, .L543+48
 3928 0a36 0088     		ldrh	r0, [r0]
 3929 0a38 0192     		str	r2, [sp, #4]
ARM GAS  C:\Users\jo\AppData\Local\Temp\ccfChKJS.s 			page 70


 3930 0a3a CDF800E0 		str	lr, [sp]
 3931 0a3e 0144     		add	r1, r1, r0
 3932 0a40 354A     		ldr	r2, .L543+52
 3933 0a42 DAF80000 		ldr	r0, [r10]
 3934 0a46 FFF7FEFF 		bl	tcp_rst
 3935              	.LVL338:
 3936              	.LBE127:
 3937              	.LBE164:
 3938              		.loc 1 208 0
 3939 0a4a 2846     		mov	r0, r5
 3940 0a4c FFF702BB 		b	.L512
 3941              	.LVL339:
 3942              	.L530:
 3943              	.LBB165:
 3944              	.LBB153:
 3945              		.loc 1 511 0
 3946 0a50 5046     		mov	r0, r10
 3947              	.LVL340:
 3948 0a52 3946     		mov	r1, r7
 3949 0a54 FFF7FEFF 		bl	tcp_abandon
 3950              	.LVL341:
 3951              	.LBE153:
 3952              	.LBE165:
 3953              		.loc 1 208 0
 3954 0a58 2846     		mov	r0, r5
 3955 0a5a FFF7FBBA 		b	.L512
 3956              	.LVL342:
 3957              	.L529:
 3958              	.LBB166:
 3959              	.LBB154:
 3960              		.loc 1 472 0
 3961 0a5e B4F89C30 		ldrh	r3, [r4, #156]
 3962 0a62 0133     		adds	r3, r3, #1
 3963 0a64 A4F89C30 		strh	r3, [r4, #156]	@ movhi
 3964              	.LBE154:
 3965              	.LBE166:
 3966              		.loc 1 208 0
 3967 0a68 2846     		mov	r0, r5
 3968              	.LVL343:
 3969 0a6a FFF7F3BA 		b	.L512
 3970              	.LVL344:
 3971              	.L528:
 3972              	.LBB167:
 3973              	.LBB155:
 3974              		.loc 1 456 0
 3975 0a6e 294B     		ldr	r3, .L543+48
 3976 0a70 0092     		str	r2, [sp]
 3977 0a72 1988     		ldrh	r1, [r3]
 3978 0a74 1B4B     		ldr	r3, .L543
 3979 0a76 BCF80020 		ldrh	r2, [ip]	@ unaligned
 3980 0a7a 1B68     		ldr	r3, [r3]
 3981 0a7c 0192     		str	r2, [sp, #4]
 3982 0a7e 1944     		add	r1, r1, r3
 3983 0a80 DAF80000 		ldr	r0, [r10]
 3984 0a84 244A     		ldr	r2, .L543+52
 3985 0a86 254B     		ldr	r3, .L543+56
 3986 0a88 FFF7FEFF 		bl	tcp_rst
ARM GAS  C:\Users\jo\AppData\Local\Temp\ccfChKJS.s 			page 71


 3987              	.LVL345:
 3988              	.LBE155:
 3989              	.LBE167:
 3990              		.loc 1 208 0
 3991 0a8c 2846     		mov	r0, r5
 3992 0a8e FFF7E1BA 		b	.L512
 3993              	.LVL346:
 3994              	.L523:
 3995              		.loc 1 188 0 discriminator 1
 3996 0a92 154B     		ldr	r3, .L543+4
 3997 0a94 0093     		str	r3, [sp]
 3998 0a96 1649     		ldr	r1, .L543+12
 3999 0a98 214A     		ldr	r2, .L543+60
 4000 0a9a 1448     		ldr	r0, .L543+8
 4001 0a9c BC23     		movs	r3, #188
 4002 0a9e FFF7FEFF 		bl	chprintf.constprop.1
 4003              	.LVL347:
 4004              	.LBB168:
 4005              	.LBB169:
 4006              		.loc 3 416 0 discriminator 1
 4007 0aa2 1F48     		ldr	r0, .L543+60
 4008 0aa4 FFF7FEFF 		bl	chSysHalt
 4009              	.LVL348:
 4010 0aa8 FFF789BB 		b	.L308
 4011              	.LVL349:
 4012              	.L525:
 4013              	.LBE169:
 4014              	.LBE168:
 4015              	.LBB170:
 4016              	.LBB128:
 4017              		.loc 1 557 0
 4018 0aac BB7F     		ldrb	r3, [r7, #30]	@ zero_extendqisi2
 4019 0aae 43F00203 		orr	r3, r3, #2
 4020 0ab2 BB77     		strb	r3, [r7, #30]
 4021              		.loc 1 558 0
 4022 0ab4 3846     		mov	r0, r7
 4023 0ab6 FFF7FEFF 		bl	tcp_output
 4024              	.LVL350:
 4025              	.LBE128:
 4026              	.LBE170:
 4027              		.loc 1 208 0
 4028 0aba 2846     		mov	r0, r5
 4029 0abc FFF7CABA 		b	.L512
 4030              	.LVL351:
 4031              	.L522:
 4032              		.loc 1 182 0 discriminator 1
 4033 0ac0 094B     		ldr	r3, .L543+4
 4034 0ac2 0093     		str	r3, [sp]
 4035 0ac4 0A49     		ldr	r1, .L543+12
 4036 0ac6 174A     		ldr	r2, .L543+64
 4037 0ac8 0848     		ldr	r0, .L543+8
 4038 0aca B623     		movs	r3, #182
 4039 0acc FFF7FEFF 		bl	chprintf.constprop.1
 4040              	.LVL352:
 4041              	.LBB171:
 4042              	.LBB172:
 4043              		.loc 3 416 0 discriminator 1
ARM GAS  C:\Users\jo\AppData\Local\Temp\ccfChKJS.s 			page 72


 4044 0ad0 1448     		ldr	r0, .L543+64
 4045 0ad2 FFF7FEFF 		bl	chSysHalt
 4046              	.LVL353:
 4047 0ad6 FB68     		ldr	r3, [r7, #12]
 4048 0ad8 FFF763BB 		b	.L306
 4049              	.LVL354:
 4050              	.L536:
 4051              	.LBE172:
 4052              	.LBE171:
 4053              	.LBB173:
 4054              	.LBB147:
 4055              		.loc 1 662 0
 4056 0adc 4FF6FF73 		movw	r3, #65535
 4057 0ae0 BB86     		strh	r3, [r7, #52]	@ movhi
 4058 0ae2 27E7     		b	.L348
 4059              	.L544:
 4060              		.align	2
 4061              	.L543:
 4062 0ae4 00000000 		.word	.LANCHOR0
 4063 0ae8 44000000 		.word	.LC2
 4064 0aec 00000000 		.word	itm_port
 4065 0af0 00000000 		.word	.LC0
 4066 0af4 D4020000 		.word	.LC20
 4067 0af8 00000000 		.word	tcp_tw_pcbs
 4068 0afc 00000000 		.word	tcp_active_pcbs_changed
 4069 0b00 00000000 		.word	tcp_active_pcbs
 4070 0b04 00000000 		.word	tcp_tmp_pcb
 4071 0b08 00000000 		.word	tcp_ticks
 4072 0b0c B4020000 		.word	.LC19
 4073 0b10 EC020000 		.word	.LC21
 4074 0b14 00000000 		.word	.LANCHOR4
 4075 0b18 00000000 		.word	current_iphdr_dest
 4076 0b1c 00000000 		.word	current_iphdr_src
 4077 0b20 58020000 		.word	.LC17
 4078 0b24 2C020000 		.word	.LC16
 4079              	.LBE147:
 4080              	.LBE173:
 4081              		.cfi_endproc
 4082              	.LFE260:
 4083              		.size	tcp_input, .-tcp_input
 4084              		.global	tcp_input_pcb
 4085 0b28 AFF30080 		.section	.bss.seqno,"aw",%nobits
 4085      AFF30080 
 4086              		.align	2
 4087              		.set	.LANCHOR0,. + 0
 4088              		.type	seqno, %object
 4089              		.size	seqno, 4
 4090              	seqno:
 4091 0000 00000000 		.space	4
 4092              		.section	.bss.iphdr,"aw",%nobits
 4093              		.align	2
 4094              		.set	.LANCHOR8,. + 0
 4095              		.type	iphdr, %object
 4096              		.size	iphdr, 4
 4097              	iphdr:
 4098 0000 00000000 		.space	4
 4099              		.section	.bss.tcplen,"aw",%nobits
ARM GAS  C:\Users\jo\AppData\Local\Temp\ccfChKJS.s 			page 73


 4100              		.align	1
 4101              		.set	.LANCHOR4,. + 0
 4102              		.type	tcplen, %object
 4103              		.size	tcplen, 2
 4104              	tcplen:
 4105 0000 0000     		.space	2
 4106              		.section	.bss.ackno,"aw",%nobits
 4107              		.align	2
 4108              		.set	.LANCHOR3,. + 0
 4109              		.type	ackno, %object
 4110              		.size	ackno, 4
 4111              	ackno:
 4112 0000 00000000 		.space	4
 4113              		.section	.bss.flags,"aw",%nobits
 4114              		.set	.LANCHOR2,. + 0
 4115              		.type	flags, %object
 4116              		.size	flags, 1
 4117              	flags:
 4118 0000 00       		.space	1
 4119              		.section	.bss.recv_flags,"aw",%nobits
 4120              		.set	.LANCHOR7,. + 0
 4121              		.type	recv_flags, %object
 4122              		.size	recv_flags, 1
 4123              	recv_flags:
 4124 0000 00       		.space	1
 4125              		.section	.bss.tcphdr,"aw",%nobits
 4126              		.align	2
 4127              		.set	.LANCHOR1,. + 0
 4128              		.type	tcphdr, %object
 4129              		.size	tcphdr, 4
 4130              	tcphdr:
 4131 0000 00000000 		.space	4
 4132              		.section	.bss.recv_data,"aw",%nobits
 4133              		.align	2
 4134              		.set	.LANCHOR6,. + 0
 4135              		.type	recv_data, %object
 4136              		.size	recv_data, 4
 4137              	recv_data:
 4138 0000 00000000 		.space	4
 4139              		.section	.rodata.str1.4,"aMS",%progbits,1
 4140              		.align	2
 4141              	.LC0:
 4142 0000 41737365 		.ascii	"Assertion \"%s\" failed at line %d in %s\012\000"
 4142      7274696F 
 4142      6E202225 
 4142      73222066 
 4142      61696C65 
 4143              	.LC1:
 4144 0028 7463705F 		.ascii	"tcp_receive: wrong state\000"
 4144      72656365 
 4144      6976653A 
 4144      2077726F 
 4144      6E672073 
 4145 0041 000000   		.space	3
 4146              	.LC2:
 4147 0044 2E2E2F2E 		.ascii	"../../../ext/lwip/src/core/tcp_in.c\000"
 4147      2E2F2E2E 
ARM GAS  C:\Users\jo\AppData\Local\Temp\ccfChKJS.s 			page 74


 4147      2F657874 
 4147      2F6C7769 
 4147      702F7372 
 4148              	.LC3:
 4149 0068 7063622D 		.ascii	"pcb->snd_queuelen >= pbuf_clen(next->p)\000"
 4149      3E736E64 
 4149      5F717565 
 4149      75656C65 
 4149      6E203E3D 
 4150              	.LC4:
 4151 0090 7463705F 		.ascii	"tcp_receive: valid queue length\000"
 4151      72656365 
 4151      6976653A 
 4151      2076616C 
 4151      69642071 
 4152              	.LC5:
 4153 00b0 696E7365 		.ascii	"inseg.p != NULL\000"
 4153      672E7020 
 4153      213D204E 
 4153      554C4C00 
 4154              	.LC6:
 4155 00c0 696E7361 		.ascii	"insane offset!\000"
 4155      6E65206F 
 4155      66667365 
 4155      742100
 4156 00cf 00       		.space	1
 4157              	.LC7:
 4158 00d0 70627566 		.ascii	"pbuf too short!\000"
 4158      20746F6F 
 4158      2073686F 
 4158      72742100 
 4159              	.LC8:
 4160 00e0 70627566 		.ascii	"pbuf_header failed\000"
 4160      5F686561 
 4160      64657220 
 4160      6661696C 
 4160      656400
 4161 00f3 00       		.space	1
 4162              	.LC9:
 4163 00f4 7463705F 		.ascii	"tcp_receive: segment not trimmed correctly to rcv_w"
 4163      72656365 
 4163      6976653A 
 4163      20736567 
 4163      6D656E74 
 4164 0127 6E640A00 		.ascii	"nd\012\000"
 4165 012b 00       		.space	1
 4166              	.LC10:
 4167 012c 7463705F 		.ascii	"tcp_receive: segment not trimmed correctly to ooseq"
 4167      72656365 
 4167      6976653A 
 4167      20736567 
 4167      6D656E74 
 4168 015f 20717565 		.ascii	" queue\012\000"
 4168      75650A00 
 4169 0167 00       		.space	1
 4170              	.LC11:
 4171 0168 7463705F 		.ascii	"tcp_receive: tcplen > rcv_wnd\012\000"
ARM GAS  C:\Users\jo\AppData\Local\Temp\ccfChKJS.s 			page 75


 4171      72656365 
 4171      6976653A 
 4171      20746370 
 4171      6C656E20 
 4172 0187 00       		.space	1
 4173              	.LC12:
 4174 0188 7463705F 		.ascii	"tcp_receive: ooseq tcplen > rcv_wnd\012\000"
 4174      72656365 
 4174      6976653A 
 4174      206F6F73 
 4174      65712074 
 4175 01ad 000000   		.space	3
 4176              	.LC13:
 4177 01b0 7463705F 		.ascii	"tcp_input: active pcb->state != CLOSED\000"
 4177      696E7075 
 4177      743A2061 
 4177      63746976 
 4177      65207063 
 4178 01d7 00       		.space	1
 4179              	.LC14:
 4180 01d8 7463705F 		.ascii	"tcp_input: active pcb->state != TIME-WAIT\000"
 4180      696E7075 
 4180      743A2061 
 4180      63746976 
 4180      65207063 
 4181 0202 0000     		.space	2
 4182              	.LC15:
 4183 0204 7463705F 		.ascii	"tcp_input: active pcb->state != LISTEN\000"
 4183      696E7075 
 4183      743A2061 
 4183      63746976 
 4183      65207063 
 4184 022b 00       		.space	1
 4185              	.LC16:
 4186 022c 7463705F 		.ascii	"tcp_input: pcb->next != pcb (before cache)\000"
 4186      696E7075 
 4186      743A2070 
 4186      63622D3E 
 4186      6E657874 
 4187 0257 00       		.space	1
 4188              	.LC17:
 4189 0258 7463705F 		.ascii	"tcp_input: pcb->next != pcb (after cache)\000"
 4189      696E7075 
 4189      743A2070 
 4189      63622D3E 
 4189      6E657874 
 4190 0282 0000     		.space	2
 4191              	.LC18:
 4192 0284 7463705F 		.ascii	"tcp_input: TIME-WAIT pcb->state == TIME-WAIT\000"
 4192      696E7075 
 4192      743A2054 
 4192      494D452D 
 4192      57414954 
 4193 02b1 000000   		.space	3
 4194              	.LC19:
 4195 02b4 7463705F 		.ascii	"tcp_input: pcb->state != CLOSED\000"
 4195      696E7075 
ARM GAS  C:\Users\jo\AppData\Local\Temp\ccfChKJS.s 			page 76


 4195      743A2070 
 4195      63622D3E 
 4195      73746174 
 4196              	.LC20:
 4197 02d4 7063622D 		.ascii	"pcb->snd_queuelen > 0\000"
 4197      3E736E64 
 4197      5F717565 
 4197      75656C65 
 4197      6E203E20 
 4198 02ea 0000     		.space	2
 4199              	.LC21:
 4200 02ec 7063622D 		.ascii	"pcb->accept != NULL\000"
 4200      3E616363 
 4200      65707420 
 4200      213D204E 
 4200      554C4C00 
 4201              	.LC22:
 4202 0300 7063622D 		.ascii	"pcb->refused_data == NULL\000"
 4202      3E726566 
 4202      75736564 
 4202      5F646174 
 4202      61203D3D 
 4203 031a 0000     		.section	.bss.inseg,"aw",%nobits
 4204              		.align	2
 4205              		.set	.LANCHOR5,. + 0
 4206              		.type	inseg, %object
 4207              		.size	inseg, 20
 4208              	inseg:
 4209 0000 00000000 		.space	20
 4209      00000000 
 4209      00000000 
 4209      00000000 
 4209      00000000 
 4210              		.section	.bss.tcp_input_pcb,"aw",%nobits
 4211              		.align	2
 4212              		.set	.LANCHOR9,. + 0
 4213              		.type	tcp_input_pcb, %object
 4214              		.size	tcp_input_pcb, 4
 4215              	tcp_input_pcb:
 4216 0000 00000000 		.space	4
 4217              		.text
 4218              	.Letext0:
 4219              		.file 4 "c:\\program files\\gnu tools arm embedded\\4.9 2014q4\\lib\\gcc\\arm-none-eabi\\4.9.3\\in
 4220              		.file 5 "c:\\program files\\gnu tools arm embedded\\4.9 2014q4\\arm-none-eabi\\include\\machine\\_
 4221              		.file 6 "c:\\program files\\gnu tools arm embedded\\4.9 2014q4\\arm-none-eabi\\include\\stdint.h"
 4222              		.file 7 "../../../os/rt/ports/ARMCMx/compilers/GCC/chtypes.h"
 4223              		.file 8 "../../../os/rt/include/chsystypes.h"
 4224              		.file 9 "../../../os/rt/include/chschd.h"
 4225              		.file 10 "../../../os/rt/ports/ARMCMx/chcore.h"
 4226              		.file 11 "../../../os/rt/ports/ARMCMx/chcore_v7m.h"
 4227              		.file 12 "../../../os/rt/include/chdebug.h"
 4228              		.file 13 "../../../os/rt/include/chtm.h"
 4229              		.file 14 "../../../os/rt/include/chsem.h"
 4230              		.file 15 "../../../os/rt/include/chmtx.h"
 4231              		.file 16 "../../../os/rt/include/chstreams.h"
 4232              		.file 17 "./ITM_trace.h"
 4233              		.file 18 "c:\\program files\\gnu tools arm embedded\\4.9 2014q4\\lib\\gcc\\arm-none-eabi\\4.9.3\\i
ARM GAS  C:\Users\jo\AppData\Local\Temp\ccfChKJS.s 			page 77


 4234              		.file 19 "<built-in>"
 4235              		.file 20 "../../../os/various/lwip_bindings/arch/cc.h"
 4236              		.file 21 "../../../ext/lwip/src/include/lwip/mem.h"
 4237              		.file 22 "../../../ext/lwip/src/include/lwip/err.h"
 4238              		.file 23 "../../../ext/lwip/src/include/lwip/pbuf.h"
 4239              		.file 24 "../../../ext/lwip/src/include/ipv4/lwip/ip_addr.h"
 4240              		.file 25 "../../../ext/lwip/src/include/lwip/netif.h"
 4241              		.file 26 "../../../ext/lwip/src/include/ipv4/lwip/ip.h"
 4242              		.file 27 "../../../ext/lwip/src/include/lwip/tcp.h"
 4243              		.file 28 "../../../ext/lwip/src/include/lwip/tcp_impl.h"
 4244              		.file 29 "../../../ext/lwip/src/include/lwip/stats.h"
 4245              		.file 30 "../../../os/ext/CMSIS/include/core_cm4.h"
 4246              		.file 31 "../../../ext/lwip/src/include/lwip/def.h"
 4247              		.file 32 "../../../os/rt/include/chsys.h"
 4248              		.file 33 "../../../ext/lwip/src/include/ipv4/lwip/inet_chksum.h"
 4249              		.file 34 "c:\\program files\\gnu tools arm embedded\\4.9 2014q4\\arm-none-eabi\\include\\stdlib.h"
 4250              		.file 35 "../../../ext/lwip/src/include/lwip/memp.h"
 4251              		.section	.debug_info,"",%progbits
 4252              	.Ldebug_info0:
 4253 0000 5B2C0000 		.4byte	0x2c5b
 4254 0004 0400     		.2byte	0x4
 4255 0006 00000000 		.4byte	.Ldebug_abbrev0
 4256 000a 04       		.byte	0x4
 4257 000b 01       		.uleb128 0x1
 4258 000c EB090000 		.4byte	.LASF361
 4259 0010 01       		.byte	0x1
 4260 0011 38010000 		.4byte	.LASF362
 4261 0015 A1010000 		.4byte	.LASF363
 4262 0019 D8000000 		.4byte	.Ldebug_ranges0+0xd8
 4263 001d 00000000 		.4byte	0
 4264 0021 00000000 		.4byte	.Ldebug_line0
 4265 0025 02       		.uleb128 0x2
 4266 0026 04       		.byte	0x4
 4267 0027 05       		.byte	0x5
 4268 0028 696E7400 		.ascii	"int\000"
 4269 002c 03       		.uleb128 0x3
 4270 002d 74090000 		.4byte	.LASF1
 4271 0031 04       		.byte	0x4
 4272 0032 D4       		.byte	0xd4
 4273 0033 37000000 		.4byte	0x37
 4274 0037 04       		.uleb128 0x4
 4275 0038 04       		.byte	0x4
 4276 0039 07       		.byte	0x7
 4277 003a 030C0000 		.4byte	.LASF0
 4278 003e 03       		.uleb128 0x3
 4279 003f BA0E0000 		.4byte	.LASF2
 4280 0043 05       		.byte	0x5
 4281 0044 1B       		.byte	0x1b
 4282 0045 49000000 		.4byte	0x49
 4283 0049 04       		.uleb128 0x4
 4284 004a 01       		.byte	0x1
 4285 004b 06       		.byte	0x6
 4286 004c 820E0000 		.4byte	.LASF3
 4287 0050 03       		.uleb128 0x3
 4288 0051 D50B0000 		.4byte	.LASF4
 4289 0055 05       		.byte	0x5
 4290 0056 1D       		.byte	0x1d
ARM GAS  C:\Users\jo\AppData\Local\Temp\ccfChKJS.s 			page 78


 4291 0057 5B000000 		.4byte	0x5b
 4292 005b 04       		.uleb128 0x4
 4293 005c 01       		.byte	0x1
 4294 005d 08       		.byte	0x8
 4295 005e 4B0D0000 		.4byte	.LASF5
 4296 0062 03       		.uleb128 0x3
 4297 0063 CA070000 		.4byte	.LASF6
 4298 0067 05       		.byte	0x5
 4299 0068 29       		.byte	0x29
 4300 0069 6D000000 		.4byte	0x6d
 4301 006d 04       		.uleb128 0x4
 4302 006e 02       		.byte	0x2
 4303 006f 05       		.byte	0x5
 4304 0070 09020000 		.4byte	.LASF7
 4305 0074 03       		.uleb128 0x3
 4306 0075 20040000 		.4byte	.LASF8
 4307 0079 05       		.byte	0x5
 4308 007a 2B       		.byte	0x2b
 4309 007b 7F000000 		.4byte	0x7f
 4310 007f 04       		.uleb128 0x4
 4311 0080 02       		.byte	0x2
 4312 0081 07       		.byte	0x7
 4313 0082 960E0000 		.4byte	.LASF9
 4314 0086 03       		.uleb128 0x3
 4315 0087 66010000 		.4byte	.LASF10
 4316 008b 05       		.byte	0x5
 4317 008c 3F       		.byte	0x3f
 4318 008d 91000000 		.4byte	0x91
 4319 0091 04       		.uleb128 0x4
 4320 0092 04       		.byte	0x4
 4321 0093 05       		.byte	0x5
 4322 0094 E70A0000 		.4byte	.LASF11
 4323 0098 03       		.uleb128 0x3
 4324 0099 A8060000 		.4byte	.LASF12
 4325 009d 05       		.byte	0x5
 4326 009e 41       		.byte	0x41
 4327 009f A3000000 		.4byte	0xa3
 4328 00a3 04       		.uleb128 0x4
 4329 00a4 04       		.byte	0x4
 4330 00a5 07       		.byte	0x7
 4331 00a6 850C0000 		.4byte	.LASF13
 4332 00aa 04       		.uleb128 0x4
 4333 00ab 08       		.byte	0x8
 4334 00ac 05       		.byte	0x5
 4335 00ad 78060000 		.4byte	.LASF14
 4336 00b1 03       		.uleb128 0x3
 4337 00b2 4D050000 		.4byte	.LASF15
 4338 00b6 05       		.byte	0x5
 4339 00b7 5B       		.byte	0x5b
 4340 00b8 BC000000 		.4byte	0xbc
 4341 00bc 04       		.uleb128 0x4
 4342 00bd 08       		.byte	0x8
 4343 00be 07       		.byte	0x7
 4344 00bf E0030000 		.4byte	.LASF16
 4345 00c3 03       		.uleb128 0x3
 4346 00c4 A7050000 		.4byte	.LASF17
 4347 00c8 06       		.byte	0x6
ARM GAS  C:\Users\jo\AppData\Local\Temp\ccfChKJS.s 			page 79


 4348 00c9 14       		.byte	0x14
 4349 00ca 3E000000 		.4byte	0x3e
 4350 00ce 03       		.uleb128 0x3
 4351 00cf B8060000 		.4byte	.LASF18
 4352 00d3 06       		.byte	0x6
 4353 00d4 15       		.byte	0x15
 4354 00d5 50000000 		.4byte	0x50
 4355 00d9 03       		.uleb128 0x3
 4356 00da C2030000 		.4byte	.LASF19
 4357 00de 06       		.byte	0x6
 4358 00df 20       		.byte	0x20
 4359 00e0 62000000 		.4byte	0x62
 4360 00e4 03       		.uleb128 0x3
 4361 00e5 47090000 		.4byte	.LASF20
 4362 00e9 06       		.byte	0x6
 4363 00ea 21       		.byte	0x21
 4364 00eb 74000000 		.4byte	0x74
 4365 00ef 03       		.uleb128 0x3
 4366 00f0 D00C0000 		.4byte	.LASF21
 4367 00f4 06       		.byte	0x6
 4368 00f5 2C       		.byte	0x2c
 4369 00f6 86000000 		.4byte	0x86
 4370 00fa 03       		.uleb128 0x3
 4371 00fb 1C030000 		.4byte	.LASF22
 4372 00ff 06       		.byte	0x6
 4373 0100 2D       		.byte	0x2d
 4374 0101 98000000 		.4byte	0x98
 4375 0105 03       		.uleb128 0x3
 4376 0106 120E0000 		.4byte	.LASF23
 4377 010a 06       		.byte	0x6
 4378 010b 39       		.byte	0x39
 4379 010c B1000000 		.4byte	0xb1
 4380 0110 05       		.uleb128 0x5
 4381 0111 EF000000 		.4byte	0xef
 4382 0115 03       		.uleb128 0x3
 4383 0116 85090000 		.4byte	.LASF24
 4384 011a 07       		.byte	0x7
 4385 011b 45       		.byte	0x45
 4386 011c FA000000 		.4byte	0xfa
 4387 0120 03       		.uleb128 0x3
 4388 0121 DE080000 		.4byte	.LASF25
 4389 0125 07       		.byte	0x7
 4390 0126 48       		.byte	0x48
 4391 0127 CE000000 		.4byte	0xce
 4392 012b 03       		.uleb128 0x3
 4393 012c 69060000 		.4byte	.LASF26
 4394 0130 07       		.byte	0x7
 4395 0131 49       		.byte	0x49
 4396 0132 CE000000 		.4byte	0xce
 4397 0136 03       		.uleb128 0x3
 4398 0137 7D0C0000 		.4byte	.LASF27
 4399 013b 07       		.byte	0x7
 4400 013c 4A       		.byte	0x4a
 4401 013d CE000000 		.4byte	0xce
 4402 0141 03       		.uleb128 0x3
 4403 0142 A9030000 		.4byte	.LASF28
 4404 0146 07       		.byte	0x7
ARM GAS  C:\Users\jo\AppData\Local\Temp\ccfChKJS.s 			page 80


 4405 0147 4C       		.byte	0x4c
 4406 0148 FA000000 		.4byte	0xfa
 4407 014c 03       		.uleb128 0x3
 4408 014d AA070000 		.4byte	.LASF29
 4409 0151 07       		.byte	0x7
 4410 0152 4D       		.byte	0x4d
 4411 0153 EF000000 		.4byte	0xef
 4412 0157 03       		.uleb128 0x3
 4413 0158 4F030000 		.4byte	.LASF30
 4414 015c 07       		.byte	0x7
 4415 015d 4F       		.byte	0x4f
 4416 015e FA000000 		.4byte	0xfa
 4417 0162 03       		.uleb128 0x3
 4418 0163 A4070000 		.4byte	.LASF31
 4419 0167 07       		.byte	0x7
 4420 0168 51       		.byte	0x51
 4421 0169 EF000000 		.4byte	0xef
 4422 016d 03       		.uleb128 0x3
 4423 016e C0000000 		.4byte	.LASF32
 4424 0172 08       		.byte	0x8
 4425 0173 33       		.byte	0x33
 4426 0174 FA000000 		.4byte	0xfa
 4427 0178 03       		.uleb128 0x3
 4428 0179 9D040000 		.4byte	.LASF33
 4429 017d 08       		.byte	0x8
 4430 017e 3F       		.byte	0x3f
 4431 017f 83010000 		.4byte	0x183
 4432 0183 06       		.uleb128 0x6
 4433 0184 07070000 		.4byte	.LASF54
 4434 0188 48       		.byte	0x48
 4435 0189 09       		.byte	0x9
 4436 018a C2       		.byte	0xc2
 4437 018b 7C020000 		.4byte	0x27c
 4438 018f 07       		.uleb128 0x7
 4439 0190 AF040000 		.4byte	.LASF34
 4440 0194 09       		.byte	0x9
 4441 0195 C3       		.byte	0xc3
 4442 0196 87020000 		.4byte	0x287
 4443 019a 00       		.byte	0
 4444 019b 07       		.uleb128 0x7
 4445 019c 680C0000 		.4byte	.LASF35
 4446 01a0 09       		.byte	0x9
 4447 01a1 C5       		.byte	0xc5
 4448 01a2 87020000 		.4byte	0x287
 4449 01a6 04       		.byte	0x4
 4450 01a7 07       		.uleb128 0x7
 4451 01a8 78000000 		.4byte	.LASF36
 4452 01ac 09       		.byte	0x9
 4453 01ad C7       		.byte	0xc7
 4454 01ae 41010000 		.4byte	0x141
 4455 01b2 08       		.byte	0x8
 4456 01b3 07       		.uleb128 0x7
 4457 01b4 A30B0000 		.4byte	.LASF37
 4458 01b8 09       		.byte	0x9
 4459 01b9 C8       		.byte	0xc8
 4460 01ba E2040000 		.4byte	0x4e2
 4461 01be 0C       		.byte	0xc
ARM GAS  C:\Users\jo\AppData\Local\Temp\ccfChKJS.s 			page 81


 4462 01bf 07       		.uleb128 0x7
 4463 01c0 49040000 		.4byte	.LASF38
 4464 01c4 09       		.byte	0x9
 4465 01c5 CA       		.byte	0xca
 4466 01c6 87020000 		.4byte	0x287
 4467 01ca 10       		.byte	0x10
 4468 01cb 07       		.uleb128 0x7
 4469 01cc 86060000 		.4byte	.LASF39
 4470 01d0 09       		.byte	0x9
 4471 01d1 CB       		.byte	0xcb
 4472 01d2 87020000 		.4byte	0x287
 4473 01d6 14       		.byte	0x14
 4474 01d7 07       		.uleb128 0x7
 4475 01d8 40090000 		.4byte	.LASF40
 4476 01dc 09       		.byte	0x9
 4477 01dd D2       		.byte	0xd2
 4478 01de F4060000 		.4byte	0x6f4
 4479 01e2 18       		.byte	0x18
 4480 01e3 07       		.uleb128 0x7
 4481 01e4 9D060000 		.4byte	.LASF41
 4482 01e8 09       		.byte	0x9
 4483 01e9 D8       		.byte	0xd8
 4484 01ea 06070000 		.4byte	0x706
 4485 01ee 1C       		.byte	0x1c
 4486 01ef 07       		.uleb128 0x7
 4487 01f0 FF060000 		.4byte	.LASF42
 4488 01f4 09       		.byte	0x9
 4489 01f5 DD       		.byte	0xdd
 4490 01f6 2B010000 		.4byte	0x12b
 4491 01fa 20       		.byte	0x20
 4492 01fb 07       		.uleb128 0x7
 4493 01fc C2070000 		.4byte	.LASF43
 4494 0200 09       		.byte	0x9
 4495 0201 E1       		.byte	0xe1
 4496 0202 20010000 		.4byte	0x120
 4497 0206 21       		.byte	0x21
 4498 0207 07       		.uleb128 0x7
 4499 0208 E60D0000 		.4byte	.LASF44
 4500 020c 09       		.byte	0x9
 4501 020d E6       		.byte	0xe6
 4502 020e 36010000 		.4byte	0x136
 4503 0212 22       		.byte	0x22
 4504 0213 08       		.uleb128 0x8
 4505 0214 705F7500 		.ascii	"p_u\000"
 4506 0218 09       		.byte	0x9
 4507 0219 3101     		.2byte	0x131
 4508 021b 2F060000 		.4byte	0x62f
 4509 021f 24       		.byte	0x24
 4510 0220 09       		.uleb128 0x9
 4511 0221 5C010000 		.4byte	.LASF45
 4512 0225 09       		.byte	0x9
 4513 0226 3601     		.2byte	0x136
 4514 0228 8D020000 		.4byte	0x28d
 4515 022c 28       		.byte	0x28
 4516 022d 09       		.uleb128 0x9
 4517 022e 970C0000 		.4byte	.LASF46
 4518 0232 09       		.byte	0x9
ARM GAS  C:\Users\jo\AppData\Local\Temp\ccfChKJS.s 			page 82


 4519 0233 3C01     		.2byte	0x13c
 4520 0235 B1020000 		.4byte	0x2b1
 4521 0239 2C       		.byte	0x2c
 4522 023a 09       		.uleb128 0x9
 4523 023b C7080000 		.4byte	.LASF47
 4524 023f 09       		.byte	0x9
 4525 0240 4001     		.2byte	0x140
 4526 0242 4C010000 		.4byte	0x14c
 4527 0246 34       		.byte	0x34
 4528 0247 09       		.uleb128 0x9
 4529 0248 D40A0000 		.4byte	.LASF48
 4530 024c 09       		.byte	0x9
 4531 024d 4601     		.2byte	0x146
 4532 024f 57010000 		.4byte	0x157
 4533 0253 38       		.byte	0x38
 4534 0254 09       		.uleb128 0x9
 4535 0255 A20C0000 		.4byte	.LASF49
 4536 0259 09       		.byte	0x9
 4537 025a 4D01     		.2byte	0x14d
 4538 025c EE060000 		.4byte	0x6ee
 4539 0260 3C       		.byte	0x3c
 4540 0261 09       		.uleb128 0x9
 4541 0262 D3090000 		.4byte	.LASF50
 4542 0266 09       		.byte	0x9
 4543 0267 5101     		.2byte	0x151
 4544 0269 41010000 		.4byte	0x141
 4545 026d 40       		.byte	0x40
 4546 026e 09       		.uleb128 0x9
 4547 026f 210E0000 		.4byte	.LASF51
 4548 0273 09       		.byte	0x9
 4549 0274 5801     		.2byte	0x158
 4550 0276 64030000 		.4byte	0x364
 4551 027a 44       		.byte	0x44
 4552 027b 00       		.byte	0
 4553 027c 03       		.uleb128 0x3
 4554 027d 50090000 		.4byte	.LASF52
 4555 0281 08       		.byte	0x8
 4556 0282 44       		.byte	0x44
 4557 0283 87020000 		.4byte	0x287
 4558 0287 0A       		.uleb128 0xa
 4559 0288 04       		.byte	0x4
 4560 0289 78010000 		.4byte	0x178
 4561 028d 03       		.uleb128 0x3
 4562 028e 23010000 		.4byte	.LASF53
 4563 0292 08       		.byte	0x8
 4564 0293 49       		.byte	0x49
 4565 0294 98020000 		.4byte	0x298
 4566 0298 06       		.uleb128 0x6
 4567 0299 05080000 		.4byte	.LASF55
 4568 029d 04       		.byte	0x4
 4569 029e 09       		.byte	0x9
 4570 029f B0       		.byte	0xb0
 4571 02a0 B1020000 		.4byte	0x2b1
 4572 02a4 07       		.uleb128 0x7
 4573 02a5 AF040000 		.4byte	.LASF34
 4574 02a9 09       		.byte	0x9
 4575 02aa B1       		.byte	0xb1
ARM GAS  C:\Users\jo\AppData\Local\Temp\ccfChKJS.s 			page 83


 4576 02ab 87020000 		.4byte	0x287
 4577 02af 00       		.byte	0
 4578 02b0 00       		.byte	0
 4579 02b1 03       		.uleb128 0x3
 4580 02b2 00000000 		.4byte	.LASF56
 4581 02b6 08       		.byte	0x8
 4582 02b7 50       		.byte	0x50
 4583 02b8 BC020000 		.4byte	0x2bc
 4584 02bc 06       		.uleb128 0x6
 4585 02bd 60070000 		.4byte	.LASF57
 4586 02c1 08       		.byte	0x8
 4587 02c2 09       		.byte	0x9
 4588 02c3 B7       		.byte	0xb7
 4589 02c4 E1020000 		.4byte	0x2e1
 4590 02c8 07       		.uleb128 0x7
 4591 02c9 AF040000 		.4byte	.LASF34
 4592 02cd 09       		.byte	0x9
 4593 02ce B8       		.byte	0xb8
 4594 02cf 87020000 		.4byte	0x287
 4595 02d3 00       		.byte	0
 4596 02d4 07       		.uleb128 0x7
 4597 02d5 680C0000 		.4byte	.LASF35
 4598 02d9 09       		.byte	0x9
 4599 02da B9       		.byte	0xb9
 4600 02db 87020000 		.4byte	0x287
 4601 02df 04       		.byte	0x4
 4602 02e0 00       		.byte	0
 4603 02e1 03       		.uleb128 0x3
 4604 02e2 AC0C0000 		.4byte	.LASF58
 4605 02e6 08       		.byte	0x8
 4606 02e7 57       		.byte	0x57
 4607 02e8 EC020000 		.4byte	0x2ec
 4608 02ec 0B       		.uleb128 0xb
 4609 02ed 13020000 		.4byte	.LASF59
 4610 02f1 1C       		.byte	0x1c
 4611 02f2 09       		.byte	0x9
 4612 02f3 9001     		.2byte	0x190
 4613 02f5 48030000 		.4byte	0x348
 4614 02f9 09       		.uleb128 0x9
 4615 02fa 8C070000 		.4byte	.LASF60
 4616 02fe 09       		.byte	0x9
 4617 02ff 9101     		.2byte	0x191
 4618 0301 B1020000 		.4byte	0x2b1
 4619 0305 00       		.byte	0
 4620 0306 09       		.uleb128 0x9
 4621 0307 5B030000 		.4byte	.LASF61
 4622 030b 09       		.byte	0x9
 4623 030c 9201     		.2byte	0x192
 4624 030e 41010000 		.4byte	0x141
 4625 0312 08       		.byte	0x8
 4626 0313 09       		.uleb128 0x9
 4627 0314 A90E0000 		.4byte	.LASF62
 4628 0318 09       		.byte	0x9
 4629 0319 9401     		.2byte	0x194
 4630 031b E2040000 		.4byte	0x4e2
 4631 031f 0C       		.byte	0xc
 4632 0320 09       		.uleb128 0x9
ARM GAS  C:\Users\jo\AppData\Local\Temp\ccfChKJS.s 			page 84


 4633 0321 29060000 		.4byte	.LASF63
 4634 0325 09       		.byte	0x9
 4635 0326 9701     		.2byte	0x197
 4636 0328 87020000 		.4byte	0x287
 4637 032c 10       		.byte	0x10
 4638 032d 09       		.uleb128 0x9
 4639 032e 73080000 		.4byte	.LASF64
 4640 0332 09       		.byte	0x9
 4641 0333 9801     		.2byte	0x198
 4642 0335 87020000 		.4byte	0x287
 4643 0339 14       		.byte	0x14
 4644 033a 09       		.uleb128 0x9
 4645 033b CA0A0000 		.4byte	.LASF65
 4646 033f 09       		.byte	0x9
 4647 0340 9B01     		.2byte	0x19b
 4648 0342 87020000 		.4byte	0x287
 4649 0346 18       		.byte	0x18
 4650 0347 00       		.byte	0
 4651 0348 03       		.uleb128 0x3
 4652 0349 B8020000 		.4byte	.LASF66
 4653 034d 08       		.byte	0x8
 4654 034e 5C       		.byte	0x5c
 4655 034f 53030000 		.4byte	0x353
 4656 0353 0A       		.uleb128 0xa
 4657 0354 04       		.byte	0x4
 4658 0355 59030000 		.4byte	0x359
 4659 0359 0C       		.uleb128 0xc
 4660 035a 64030000 		.4byte	0x364
 4661 035e 0D       		.uleb128 0xd
 4662 035f 64030000 		.4byte	0x364
 4663 0363 00       		.byte	0
 4664 0364 0E       		.uleb128 0xe
 4665 0365 04       		.byte	0x4
 4666 0366 03       		.uleb128 0x3
 4667 0367 DA070000 		.4byte	.LASF67
 4668 036b 08       		.byte	0x8
 4669 036c 61       		.byte	0x61
 4670 036d 71030000 		.4byte	0x371
 4671 0371 0B       		.uleb128 0xb
 4672 0372 B1030000 		.4byte	.LASF68
 4673 0376 14       		.byte	0x14
 4674 0377 09       		.byte	0x9
 4675 0378 6B01     		.2byte	0x16b
 4676 037a C0030000 		.4byte	0x3c0
 4677 037e 09       		.uleb128 0x9
 4678 037f 0A0E0000 		.4byte	.LASF69
 4679 0383 09       		.byte	0x9
 4680 0384 6C01     		.2byte	0x16c
 4681 0386 0C070000 		.4byte	0x70c
 4682 038a 00       		.byte	0
 4683 038b 09       		.uleb128 0x9
 4684 038c EC000000 		.4byte	.LASF70
 4685 0390 09       		.byte	0x9
 4686 0391 6D01     		.2byte	0x16d
 4687 0393 0C070000 		.4byte	0x70c
 4688 0397 04       		.byte	0x4
 4689 0398 09       		.uleb128 0x9
ARM GAS  C:\Users\jo\AppData\Local\Temp\ccfChKJS.s 			page 85


 4690 0399 68040000 		.4byte	.LASF71
 4691 039d 09       		.byte	0x9
 4692 039e 6E01     		.2byte	0x16e
 4693 03a0 6D010000 		.4byte	0x16d
 4694 03a4 08       		.byte	0x8
 4695 03a5 09       		.uleb128 0x9
 4696 03a6 F90E0000 		.4byte	.LASF72
 4697 03aa 09       		.byte	0x9
 4698 03ab 6F01     		.2byte	0x16f
 4699 03ad 48030000 		.4byte	0x348
 4700 03b1 0C       		.byte	0xc
 4701 03b2 09       		.uleb128 0x9
 4702 03b3 350D0000 		.4byte	.LASF73
 4703 03b7 09       		.byte	0x9
 4704 03b8 7101     		.2byte	0x171
 4705 03ba 64030000 		.4byte	0x364
 4706 03be 10       		.byte	0x10
 4707 03bf 00       		.byte	0
 4708 03c0 03       		.uleb128 0x3
 4709 03c1 780D0000 		.4byte	.LASF74
 4710 03c5 08       		.byte	0x8
 4711 03c6 66       		.byte	0x66
 4712 03c7 CB030000 		.4byte	0x3cb
 4713 03cb 0B       		.uleb128 0xb
 4714 03cc 51040000 		.4byte	.LASF75
 4715 03d0 10       		.byte	0x10
 4716 03d1 09       		.byte	0x9
 4717 03d2 7B01     		.2byte	0x17b
 4718 03d4 0D040000 		.4byte	0x40d
 4719 03d8 09       		.uleb128 0x9
 4720 03d9 0A0E0000 		.4byte	.LASF69
 4721 03dd 09       		.byte	0x9
 4722 03de 7C01     		.2byte	0x17c
 4723 03e0 0C070000 		.4byte	0x70c
 4724 03e4 00       		.byte	0
 4725 03e5 09       		.uleb128 0x9
 4726 03e6 EC000000 		.4byte	.LASF70
 4727 03ea 09       		.byte	0x9
 4728 03eb 7E01     		.2byte	0x17e
 4729 03ed 0C070000 		.4byte	0x70c
 4730 03f1 04       		.byte	0x4
 4731 03f2 09       		.uleb128 0x9
 4732 03f3 68040000 		.4byte	.LASF71
 4733 03f7 09       		.byte	0x9
 4734 03f8 8001     		.2byte	0x180
 4735 03fa 6D010000 		.4byte	0x16d
 4736 03fe 08       		.byte	0x8
 4737 03ff 09       		.uleb128 0x9
 4738 0400 31060000 		.4byte	.LASF76
 4739 0404 09       		.byte	0x9
 4740 0405 8801     		.2byte	0x188
 4741 0407 6D010000 		.4byte	0x16d
 4742 040b 0C       		.byte	0xc
 4743 040c 00       		.byte	0
 4744 040d 03       		.uleb128 0x3
 4745 040e 3D070000 		.4byte	.LASF77
 4746 0412 08       		.byte	0x8
ARM GAS  C:\Users\jo\AppData\Local\Temp\ccfChKJS.s 			page 86


 4747 0413 6B       		.byte	0x6b
 4748 0414 18040000 		.4byte	0x418
 4749 0418 0F       		.uleb128 0xf
 4750 0419 DD020000 		.4byte	.LASF78
 4751 041d 1404     		.2byte	0x414
 4752 041f 09       		.byte	0x9
 4753 0420 A201     		.2byte	0x1a2
 4754 0422 5B040000 		.4byte	0x45b
 4755 0426 09       		.uleb128 0x9
 4756 0427 AB080000 		.4byte	.LASF79
 4757 042b 09       		.byte	0x9
 4758 042c AA01     		.2byte	0x1aa
 4759 042e 12070000 		.4byte	0x712
 4760 0432 00       		.byte	0
 4761 0433 09       		.uleb128 0x9
 4762 0434 41040000 		.4byte	.LASF80
 4763 0438 09       		.byte	0x9
 4764 0439 AF01     		.2byte	0x1af
 4765 043b 62010000 		.4byte	0x162
 4766 043f 04       		.byte	0x4
 4767 0440 09       		.uleb128 0x9
 4768 0441 A2090000 		.4byte	.LASF81
 4769 0445 09       		.byte	0x9
 4770 0446 B301     		.2byte	0x1b3
 4771 0448 62010000 		.4byte	0x162
 4772 044c 08       		.byte	0x8
 4773 044d 09       		.uleb128 0x9
 4774 044e F10C0000 		.4byte	.LASF82
 4775 0452 09       		.byte	0x9
 4776 0453 B901     		.2byte	0x1b9
 4777 0455 04060000 		.4byte	0x604
 4778 0459 0C       		.byte	0xc
 4779 045a 00       		.byte	0
 4780 045b 03       		.uleb128 0x3
 4781 045c 360E0000 		.4byte	.LASF83
 4782 0460 08       		.byte	0x8
 4783 0461 70       		.byte	0x70
 4784 0462 66040000 		.4byte	0x466
 4785 0466 0F       		.uleb128 0xf
 4786 0467 5E0B0000 		.4byte	.LASF84
 4787 046b 7005     		.2byte	0x570
 4788 046d 09       		.byte	0x9
 4789 046e C201     		.2byte	0x1c2
 4790 0470 C5040000 		.4byte	0x4c5
 4791 0474 09       		.uleb128 0x9
 4792 0475 AE0B0000 		.4byte	.LASF85
 4793 0479 09       		.byte	0x9
 4794 047a C601     		.2byte	0x1c6
 4795 047c E1020000 		.4byte	0x2e1
 4796 0480 00       		.byte	0
 4797 0481 09       		.uleb128 0x9
 4798 0482 EF010000 		.4byte	.LASF86
 4799 0486 09       		.byte	0x9
 4800 0487 CA01     		.2byte	0x1ca
 4801 0489 C0030000 		.4byte	0x3c0
 4802 048d 1C       		.byte	0x1c
 4803 048e 08       		.uleb128 0x8
ARM GAS  C:\Users\jo\AppData\Local\Temp\ccfChKJS.s 			page 87


 4804 048f 64626700 		.ascii	"dbg\000"
 4805 0493 09       		.byte	0x9
 4806 0494 CE01     		.2byte	0x1ce
 4807 0496 0D040000 		.4byte	0x40d
 4808 049a 2C       		.byte	0x2c
 4809 049b 10       		.uleb128 0x10
 4810 049c FD080000 		.4byte	.LASF87
 4811 04a0 09       		.byte	0x9
 4812 04a1 D201     		.2byte	0x1d2
 4813 04a3 78010000 		.4byte	0x178
 4814 04a7 4004     		.2byte	0x440
 4815 04a9 11       		.uleb128 0x11
 4816 04aa 746D00   		.ascii	"tm\000"
 4817 04ad 09       		.byte	0x9
 4818 04ae D701     		.2byte	0x1d7
 4819 04b0 24060000 		.4byte	0x624
 4820 04b4 8804     		.2byte	0x488
 4821 04b6 10       		.uleb128 0x10
 4822 04b7 21020000 		.4byte	.LASF88
 4823 04bb 09       		.byte	0x9
 4824 04bc E301     		.2byte	0x1e3
 4825 04be 17070000 		.4byte	0x717
 4826 04c2 9004     		.2byte	0x490
 4827 04c4 00       		.byte	0
 4828 04c5 04       		.uleb128 0x4
 4829 04c6 04       		.byte	0x4
 4830 04c7 07       		.byte	0x7
 4831 04c8 740C0000 		.4byte	.LASF89
 4832 04cc 03       		.uleb128 0x3
 4833 04cd 590D0000 		.4byte	.LASF90
 4834 04d1 0A       		.byte	0xa
 4835 04d2 65       		.byte	0x65
 4836 04d3 64030000 		.4byte	0x364
 4837 04d7 03       		.uleb128 0x3
 4838 04d8 AF0E0000 		.4byte	.LASF91
 4839 04dc 0A       		.byte	0xa
 4840 04dd 6D       		.byte	0x6d
 4841 04de 05010000 		.4byte	0x105
 4842 04e2 06       		.uleb128 0x6
 4843 04e3 BF080000 		.4byte	.LASF92
 4844 04e7 04       		.byte	0x4
 4845 04e8 0A       		.byte	0xa
 4846 04e9 89       		.byte	0x89
 4847 04ea FB040000 		.4byte	0x4fb
 4848 04ee 12       		.uleb128 0x12
 4849 04ef 72313300 		.ascii	"r13\000"
 4850 04f3 0A       		.byte	0xa
 4851 04f4 8A       		.byte	0x8a
 4852 04f5 76050000 		.4byte	0x576
 4853 04f9 00       		.byte	0
 4854 04fa 00       		.byte	0
 4855 04fb 06       		.uleb128 0x6
 4856 04fc F00A0000 		.4byte	.LASF93
 4857 0500 24       		.byte	0x24
 4858 0501 0B       		.byte	0xb
 4859 0502 F4       		.byte	0xf4
 4860 0503 76050000 		.4byte	0x576
ARM GAS  C:\Users\jo\AppData\Local\Temp\ccfChKJS.s 			page 88


 4861 0507 08       		.uleb128 0x8
 4862 0508 723400   		.ascii	"r4\000"
 4863 050b 0B       		.byte	0xb
 4864 050c 0701     		.2byte	0x107
 4865 050e CC040000 		.4byte	0x4cc
 4866 0512 00       		.byte	0
 4867 0513 08       		.uleb128 0x8
 4868 0514 723500   		.ascii	"r5\000"
 4869 0517 0B       		.byte	0xb
 4870 0518 0801     		.2byte	0x108
 4871 051a CC040000 		.4byte	0x4cc
 4872 051e 04       		.byte	0x4
 4873 051f 08       		.uleb128 0x8
 4874 0520 723600   		.ascii	"r6\000"
 4875 0523 0B       		.byte	0xb
 4876 0524 0901     		.2byte	0x109
 4877 0526 CC040000 		.4byte	0x4cc
 4878 052a 08       		.byte	0x8
 4879 052b 08       		.uleb128 0x8
 4880 052c 723700   		.ascii	"r7\000"
 4881 052f 0B       		.byte	0xb
 4882 0530 0A01     		.2byte	0x10a
 4883 0532 CC040000 		.4byte	0x4cc
 4884 0536 0C       		.byte	0xc
 4885 0537 08       		.uleb128 0x8
 4886 0538 723800   		.ascii	"r8\000"
 4887 053b 0B       		.byte	0xb
 4888 053c 0B01     		.2byte	0x10b
 4889 053e CC040000 		.4byte	0x4cc
 4890 0542 10       		.byte	0x10
 4891 0543 08       		.uleb128 0x8
 4892 0544 723900   		.ascii	"r9\000"
 4893 0547 0B       		.byte	0xb
 4894 0548 0C01     		.2byte	0x10c
 4895 054a CC040000 		.4byte	0x4cc
 4896 054e 14       		.byte	0x14
 4897 054f 08       		.uleb128 0x8
 4898 0550 72313000 		.ascii	"r10\000"
 4899 0554 0B       		.byte	0xb
 4900 0555 0D01     		.2byte	0x10d
 4901 0557 CC040000 		.4byte	0x4cc
 4902 055b 18       		.byte	0x18
 4903 055c 08       		.uleb128 0x8
 4904 055d 72313100 		.ascii	"r11\000"
 4905 0561 0B       		.byte	0xb
 4906 0562 0E01     		.2byte	0x10e
 4907 0564 CC040000 		.4byte	0x4cc
 4908 0568 1C       		.byte	0x1c
 4909 0569 08       		.uleb128 0x8
 4910 056a 6C7200   		.ascii	"lr\000"
 4911 056d 0B       		.byte	0xb
 4912 056e 0F01     		.2byte	0x10f
 4913 0570 CC040000 		.4byte	0x4cc
 4914 0574 20       		.byte	0x20
 4915 0575 00       		.byte	0
 4916 0576 0A       		.uleb128 0xa
 4917 0577 04       		.byte	0x4
ARM GAS  C:\Users\jo\AppData\Local\Temp\ccfChKJS.s 			page 89


 4918 0578 FB040000 		.4byte	0x4fb
 4919 057c 13       		.uleb128 0x13
 4920 057d 10       		.byte	0x10
 4921 057e 0C       		.byte	0xc
 4922 057f 51       		.byte	0x51
 4923 0580 B5050000 		.4byte	0x5b5
 4924 0584 07       		.uleb128 0x7
 4925 0585 95060000 		.4byte	.LASF94
 4926 0589 0C       		.byte	0xc
 4927 058a 55       		.byte	0x55
 4928 058b 6D010000 		.4byte	0x16d
 4929 058f 00       		.byte	0
 4930 0590 07       		.uleb128 0x7
 4931 0591 72060000 		.4byte	.LASF95
 4932 0595 0C       		.byte	0xc
 4933 0596 59       		.byte	0x59
 4934 0597 87020000 		.4byte	0x287
 4935 059b 04       		.byte	0x4
 4936 059c 07       		.uleb128 0x7
 4937 059d F7030000 		.4byte	.LASF96
 4938 05a1 0C       		.byte	0xc
 4939 05a2 5D       		.byte	0x5d
 4940 05a3 64030000 		.4byte	0x364
 4941 05a7 08       		.byte	0x8
 4942 05a8 07       		.uleb128 0x7
 4943 05a9 88010000 		.4byte	.LASF97
 4944 05ad 0C       		.byte	0xc
 4945 05ae 61       		.byte	0x61
 4946 05af CE000000 		.4byte	0xce
 4947 05b3 0C       		.byte	0xc
 4948 05b4 00       		.byte	0
 4949 05b5 03       		.uleb128 0x3
 4950 05b6 160D0000 		.4byte	.LASF98
 4951 05ba 0C       		.byte	0xc
 4952 05bb 62       		.byte	0x62
 4953 05bc 7C050000 		.4byte	0x57c
 4954 05c0 14       		.uleb128 0x14
 4955 05c1 0804     		.2byte	0x408
 4956 05c3 0C       		.byte	0xc
 4957 05c4 67       		.byte	0x67
 4958 05c5 EE050000 		.4byte	0x5ee
 4959 05c9 07       		.uleb128 0x7
 4960 05ca 23070000 		.4byte	.LASF99
 4961 05ce 0C       		.byte	0xc
 4962 05cf 6B       		.byte	0x6b
 4963 05d0 37000000 		.4byte	0x37
 4964 05d4 00       		.byte	0
 4965 05d5 07       		.uleb128 0x7
 4966 05d6 3C080000 		.4byte	.LASF100
 4967 05da 0C       		.byte	0xc
 4968 05db 6F       		.byte	0x6f
 4969 05dc EE050000 		.4byte	0x5ee
 4970 05e0 04       		.byte	0x4
 4971 05e1 07       		.uleb128 0x7
 4972 05e2 C0060000 		.4byte	.LASF101
 4973 05e6 0C       		.byte	0xc
 4974 05e7 73       		.byte	0x73
ARM GAS  C:\Users\jo\AppData\Local\Temp\ccfChKJS.s 			page 90


 4975 05e8 F4050000 		.4byte	0x5f4
 4976 05ec 08       		.byte	0x8
 4977 05ed 00       		.byte	0
 4978 05ee 0A       		.uleb128 0xa
 4979 05ef 04       		.byte	0x4
 4980 05f0 B5050000 		.4byte	0x5b5
 4981 05f4 15       		.uleb128 0x15
 4982 05f5 B5050000 		.4byte	0x5b5
 4983 05f9 04060000 		.4byte	0x604
 4984 05fd 16       		.uleb128 0x16
 4985 05fe C5040000 		.4byte	0x4c5
 4986 0602 3F       		.byte	0x3f
 4987 0603 00       		.byte	0
 4988 0604 03       		.uleb128 0x3
 4989 0605 620E0000 		.4byte	.LASF102
 4990 0609 0C       		.byte	0xc
 4991 060a 74       		.byte	0x74
 4992 060b C0050000 		.4byte	0x5c0
 4993 060f 13       		.uleb128 0x13
 4994 0610 04       		.byte	0x4
 4995 0611 0D       		.byte	0xd
 4996 0612 38       		.byte	0x38
 4997 0613 24060000 		.4byte	0x624
 4998 0617 07       		.uleb128 0x7
 4999 0618 F3040000 		.4byte	.LASF103
 5000 061c 0D       		.byte	0xd
 5001 061d 3C       		.byte	0x3c
 5002 061e 15010000 		.4byte	0x115
 5003 0622 00       		.byte	0
 5004 0623 00       		.byte	0
 5005 0624 03       		.uleb128 0x3
 5006 0625 CD080000 		.4byte	.LASF104
 5007 0629 0D       		.byte	0xd
 5008 062a 3D       		.byte	0x3d
 5009 062b 0F060000 		.4byte	0x60f
 5010 062f 17       		.uleb128 0x17
 5011 0630 04       		.byte	0x4
 5012 0631 09       		.byte	0x9
 5013 0632 FA       		.byte	0xfa
 5014 0633 8C060000 		.4byte	0x68c
 5015 0637 18       		.uleb128 0x18
 5016 0638 DA040000 		.4byte	.LASF105
 5017 063c 09       		.byte	0x9
 5018 063d 0101     		.2byte	0x101
 5019 063f 4C010000 		.4byte	0x14c
 5020 0643 18       		.uleb128 0x18
 5021 0644 BB0F0000 		.4byte	.LASF106
 5022 0648 09       		.byte	0x9
 5023 0649 0801     		.2byte	0x108
 5024 064b 4C010000 		.4byte	0x14c
 5025 064f 18       		.uleb128 0x18
 5026 0650 C1020000 		.4byte	.LASF107
 5027 0654 09       		.byte	0x9
 5028 0655 0F01     		.2byte	0x10f
 5029 0657 64030000 		.4byte	0x364
 5030 065b 18       		.uleb128 0x18
 5031 065c 470E0000 		.4byte	.LASF108
ARM GAS  C:\Users\jo\AppData\Local\Temp\ccfChKJS.s 			page 91


 5032 0660 09       		.byte	0x9
 5033 0661 1601     		.2byte	0x116
 5034 0663 8C060000 		.4byte	0x68c
 5035 0667 18       		.uleb128 0x18
 5036 0668 060D0000 		.4byte	.LASF109
 5037 066c 09       		.byte	0x9
 5038 066d 1E01     		.2byte	0x11e
 5039 066f B7060000 		.4byte	0x6b7
 5040 0673 18       		.uleb128 0x18
 5041 0674 9F0F0000 		.4byte	.LASF110
 5042 0678 09       		.byte	0x9
 5043 0679 2701     		.2byte	0x127
 5044 067b EE060000 		.4byte	0x6ee
 5045 067f 18       		.uleb128 0x18
 5046 0680 45020000 		.4byte	.LASF111
 5047 0684 09       		.byte	0x9
 5048 0685 2F01     		.2byte	0x12f
 5049 0687 57010000 		.4byte	0x157
 5050 068b 00       		.byte	0
 5051 068c 0A       		.uleb128 0xa
 5052 068d 04       		.byte	0x4
 5053 068e 7C020000 		.4byte	0x27c
 5054 0692 06       		.uleb128 0x6
 5055 0693 9C030000 		.4byte	.LASF112
 5056 0697 0C       		.byte	0xc
 5057 0698 0E       		.byte	0xe
 5058 0699 34       		.byte	0x34
 5059 069a B7060000 		.4byte	0x6b7
 5060 069e 07       		.uleb128 0x7
 5061 069f DA000000 		.4byte	.LASF113
 5062 06a3 0E       		.byte	0xe
 5063 06a4 35       		.byte	0x35
 5064 06a5 B1020000 		.4byte	0x2b1
 5065 06a9 00       		.byte	0
 5066 06aa 07       		.uleb128 0x7
 5067 06ab C8020000 		.4byte	.LASF114
 5068 06af 0E       		.byte	0xe
 5069 06b0 37       		.byte	0x37
 5070 06b1 62010000 		.4byte	0x162
 5071 06b5 08       		.byte	0x8
 5072 06b6 00       		.byte	0
 5073 06b7 0A       		.uleb128 0xa
 5074 06b8 04       		.byte	0x4
 5075 06b9 92060000 		.4byte	0x692
 5076 06bd 06       		.uleb128 0x6
 5077 06be 3F050000 		.4byte	.LASF115
 5078 06c2 10       		.byte	0x10
 5079 06c3 0F       		.byte	0xf
 5080 06c4 39       		.byte	0x39
 5081 06c5 EE060000 		.4byte	0x6ee
 5082 06c9 07       		.uleb128 0x7
 5083 06ca DF0A0000 		.4byte	.LASF116
 5084 06ce 0F       		.byte	0xf
 5085 06cf 3A       		.byte	0x3a
 5086 06d0 B1020000 		.4byte	0x2b1
 5087 06d4 00       		.byte	0
 5088 06d5 07       		.uleb128 0x7
ARM GAS  C:\Users\jo\AppData\Local\Temp\ccfChKJS.s 			page 92


 5089 06d6 D2000000 		.4byte	.LASF117
 5090 06da 0F       		.byte	0xf
 5091 06db 3C       		.byte	0x3c
 5092 06dc 87020000 		.4byte	0x287
 5093 06e0 08       		.byte	0x8
 5094 06e1 07       		.uleb128 0x7
 5095 06e2 740E0000 		.4byte	.LASF118
 5096 06e6 0F       		.byte	0xf
 5097 06e7 3E       		.byte	0x3e
 5098 06e8 32070000 		.4byte	0x732
 5099 06ec 0C       		.byte	0xc
 5100 06ed 00       		.byte	0
 5101 06ee 0A       		.uleb128 0xa
 5102 06ef 04       		.byte	0x4
 5103 06f0 BD060000 		.4byte	0x6bd
 5104 06f4 0A       		.uleb128 0xa
 5105 06f5 04       		.byte	0x4
 5106 06f6 FA060000 		.4byte	0x6fa
 5107 06fa 19       		.uleb128 0x19
 5108 06fb FF060000 		.4byte	0x6ff
 5109 06ff 04       		.uleb128 0x4
 5110 0700 01       		.byte	0x1
 5111 0701 08       		.byte	0x8
 5112 0702 5A000000 		.4byte	.LASF119
 5113 0706 0A       		.uleb128 0xa
 5114 0707 04       		.byte	0x4
 5115 0708 D7040000 		.4byte	0x4d7
 5116 070c 0A       		.uleb128 0xa
 5117 070d 04       		.byte	0x4
 5118 070e 66030000 		.4byte	0x366
 5119 0712 05       		.uleb128 0x5
 5120 0713 F4060000 		.4byte	0x6f4
 5121 0717 15       		.uleb128 0x15
 5122 0718 D7040000 		.4byte	0x4d7
 5123 071c 27070000 		.4byte	0x727
 5124 0720 16       		.uleb128 0x16
 5125 0721 C5040000 		.4byte	0x4c5
 5126 0725 1B       		.byte	0x1b
 5127 0726 00       		.byte	0
 5128 0727 03       		.uleb128 0x3
 5129 0728 250D0000 		.4byte	.LASF120
 5130 072c 0F       		.byte	0xf
 5131 072d 34       		.byte	0x34
 5132 072e BD060000 		.4byte	0x6bd
 5133 0732 0A       		.uleb128 0xa
 5134 0733 04       		.byte	0x4
 5135 0734 27070000 		.4byte	0x727
 5136 0738 0A       		.uleb128 0xa
 5137 0739 04       		.byte	0x4
 5138 073a CE000000 		.4byte	0xce
 5139 073e 06       		.uleb128 0x6
 5140 073f 70010000 		.4byte	.LASF121
 5141 0743 10       		.byte	0x10
 5142 0744 10       		.byte	0x10
 5143 0745 40       		.byte	0x40
 5144 0746 7B070000 		.4byte	0x77b
 5145 074a 07       		.uleb128 0x7
ARM GAS  C:\Users\jo\AppData\Local\Temp\ccfChKJS.s 			page 93


 5146 074b 80070000 		.4byte	.LASF122
 5147 074f 10       		.byte	0x10
 5148 0750 41       		.byte	0x41
 5149 0751 9F070000 		.4byte	0x79f
 5150 0755 00       		.byte	0
 5151 0756 07       		.uleb128 0x7
 5152 0757 FE0B0000 		.4byte	.LASF123
 5153 075b 10       		.byte	0x10
 5154 075c 41       		.byte	0x41
 5155 075d BE070000 		.4byte	0x7be
 5156 0761 04       		.byte	0x4
 5157 0762 12       		.uleb128 0x12
 5158 0763 70757400 		.ascii	"put\000"
 5159 0767 10       		.byte	0x10
 5160 0768 41       		.byte	0x41
 5161 0769 D8070000 		.4byte	0x7d8
 5162 076d 08       		.byte	0x8
 5163 076e 12       		.uleb128 0x12
 5164 076f 67657400 		.ascii	"get\000"
 5165 0773 10       		.byte	0x10
 5166 0774 41       		.byte	0x41
 5167 0775 ED070000 		.4byte	0x7ed
 5168 0779 0C       		.byte	0xc
 5169 077a 00       		.byte	0
 5170 077b 1A       		.uleb128 0x1a
 5171 077c 2C000000 		.4byte	0x2c
 5172 0780 94070000 		.4byte	0x794
 5173 0784 0D       		.uleb128 0xd
 5174 0785 64030000 		.4byte	0x364
 5175 0789 0D       		.uleb128 0xd
 5176 078a 94070000 		.4byte	0x794
 5177 078e 0D       		.uleb128 0xd
 5178 078f 2C000000 		.4byte	0x2c
 5179 0793 00       		.byte	0
 5180 0794 0A       		.uleb128 0xa
 5181 0795 04       		.byte	0x4
 5182 0796 9A070000 		.4byte	0x79a
 5183 079a 19       		.uleb128 0x19
 5184 079b CE000000 		.4byte	0xce
 5185 079f 0A       		.uleb128 0xa
 5186 07a0 04       		.byte	0x4
 5187 07a1 7B070000 		.4byte	0x77b
 5188 07a5 1A       		.uleb128 0x1a
 5189 07a6 2C000000 		.4byte	0x2c
 5190 07aa BE070000 		.4byte	0x7be
 5191 07ae 0D       		.uleb128 0xd
 5192 07af 64030000 		.4byte	0x364
 5193 07b3 0D       		.uleb128 0xd
 5194 07b4 38070000 		.4byte	0x738
 5195 07b8 0D       		.uleb128 0xd
 5196 07b9 2C000000 		.4byte	0x2c
 5197 07bd 00       		.byte	0
 5198 07be 0A       		.uleb128 0xa
 5199 07bf 04       		.byte	0x4
 5200 07c0 A5070000 		.4byte	0x7a5
 5201 07c4 1A       		.uleb128 0x1a
 5202 07c5 4C010000 		.4byte	0x14c
ARM GAS  C:\Users\jo\AppData\Local\Temp\ccfChKJS.s 			page 94


 5203 07c9 D8070000 		.4byte	0x7d8
 5204 07cd 0D       		.uleb128 0xd
 5205 07ce 64030000 		.4byte	0x364
 5206 07d2 0D       		.uleb128 0xd
 5207 07d3 CE000000 		.4byte	0xce
 5208 07d7 00       		.byte	0
 5209 07d8 0A       		.uleb128 0xa
 5210 07d9 04       		.byte	0x4
 5211 07da C4070000 		.4byte	0x7c4
 5212 07de 1A       		.uleb128 0x1a
 5213 07df 4C010000 		.4byte	0x14c
 5214 07e3 ED070000 		.4byte	0x7ed
 5215 07e7 0D       		.uleb128 0xd
 5216 07e8 64030000 		.4byte	0x364
 5217 07ec 00       		.byte	0
 5218 07ed 0A       		.uleb128 0xa
 5219 07ee 04       		.byte	0x4
 5220 07ef DE070000 		.4byte	0x7de
 5221 07f3 13       		.uleb128 0x13
 5222 07f4 04       		.byte	0x4
 5223 07f5 10       		.byte	0x10
 5224 07f6 49       		.byte	0x49
 5225 07f7 08080000 		.4byte	0x808
 5226 07fb 12       		.uleb128 0x12
 5227 07fc 766D7400 		.ascii	"vmt\000"
 5228 0800 10       		.byte	0x10
 5229 0801 4B       		.byte	0x4b
 5230 0802 08080000 		.4byte	0x808
 5231 0806 00       		.byte	0
 5232 0807 00       		.byte	0
 5233 0808 0A       		.uleb128 0xa
 5234 0809 04       		.byte	0x4
 5235 080a 0E080000 		.4byte	0x80e
 5236 080e 19       		.uleb128 0x19
 5237 080f 3E070000 		.4byte	0x73e
 5238 0813 03       		.uleb128 0x3
 5239 0814 BA050000 		.4byte	.LASF124
 5240 0818 10       		.byte	0x10
 5241 0819 4D       		.byte	0x4d
 5242 081a F3070000 		.4byte	0x7f3
 5243 081e 04       		.uleb128 0x4
 5244 081f 01       		.byte	0x1
 5245 0820 02       		.byte	0x2
 5246 0821 17050000 		.4byte	.LASF125
 5247 0825 06       		.uleb128 0x6
 5248 0826 15080000 		.4byte	.LASF126
 5249 082a 10       		.byte	0x10
 5250 082b 11       		.byte	0x11
 5251 082c 2E       		.byte	0x2e
 5252 082d 62080000 		.4byte	0x862
 5253 0831 07       		.uleb128 0x7
 5254 0832 80070000 		.4byte	.LASF122
 5255 0836 11       		.byte	0x11
 5256 0837 2F       		.byte	0x2f
 5257 0838 9F070000 		.4byte	0x79f
 5258 083c 00       		.byte	0
 5259 083d 07       		.uleb128 0x7
ARM GAS  C:\Users\jo\AppData\Local\Temp\ccfChKJS.s 			page 95


 5260 083e FE0B0000 		.4byte	.LASF123
 5261 0842 11       		.byte	0x11
 5262 0843 2F       		.byte	0x2f
 5263 0844 BE070000 		.4byte	0x7be
 5264 0848 04       		.byte	0x4
 5265 0849 12       		.uleb128 0x12
 5266 084a 70757400 		.ascii	"put\000"
 5267 084e 11       		.byte	0x11
 5268 084f 2F       		.byte	0x2f
 5269 0850 D8070000 		.4byte	0x7d8
 5270 0854 08       		.byte	0x8
 5271 0855 12       		.uleb128 0x12
 5272 0856 67657400 		.ascii	"get\000"
 5273 085a 11       		.byte	0x11
 5274 085b 2F       		.byte	0x2f
 5275 085c ED070000 		.4byte	0x7ed
 5276 0860 0C       		.byte	0xc
 5277 0861 00       		.byte	0
 5278 0862 13       		.uleb128 0x13
 5279 0863 04       		.byte	0x4
 5280 0864 11       		.byte	0x11
 5281 0865 39       		.byte	0x39
 5282 0866 77080000 		.4byte	0x877
 5283 086a 12       		.uleb128 0x12
 5284 086b 766D7400 		.ascii	"vmt\000"
 5285 086f 11       		.byte	0x11
 5286 0870 3B       		.byte	0x3b
 5287 0871 77080000 		.4byte	0x877
 5288 0875 00       		.byte	0
 5289 0876 00       		.byte	0
 5290 0877 0A       		.uleb128 0xa
 5291 0878 04       		.byte	0x4
 5292 0879 7D080000 		.4byte	0x87d
 5293 087d 19       		.uleb128 0x19
 5294 087e 25080000 		.4byte	0x825
 5295 0882 03       		.uleb128 0x3
 5296 0883 96080000 		.4byte	.LASF127
 5297 0887 11       		.byte	0x11
 5298 0888 3D       		.byte	0x3d
 5299 0889 62080000 		.4byte	0x862
 5300 088d 03       		.uleb128 0x3
 5301 088e B6040000 		.4byte	.LASF128
 5302 0892 12       		.byte	0x12
 5303 0893 28       		.byte	0x28
 5304 0894 98080000 		.4byte	0x898
 5305 0898 06       		.uleb128 0x6
 5306 0899 530E0000 		.4byte	.LASF129
 5307 089d 04       		.byte	0x4
 5308 089e 13       		.byte	0x13
 5309 089f 00       		.byte	0
 5310 08a0 AF080000 		.4byte	0x8af
 5311 08a4 1B       		.uleb128 0x1b
 5312 08a5 A0080000 		.4byte	.LASF130
 5313 08a9 64030000 		.4byte	0x364
 5314 08ad 00       		.byte	0
 5315 08ae 00       		.byte	0
 5316 08af 03       		.uleb128 0x3
ARM GAS  C:\Users\jo\AppData\Local\Temp\ccfChKJS.s 			page 96


 5317 08b0 35070000 		.4byte	.LASF131
 5318 08b4 12       		.byte	0x12
 5319 08b5 62       		.byte	0x62
 5320 08b6 8D080000 		.4byte	0x88d
 5321 08ba 03       		.uleb128 0x3
 5322 08bb BD070000 		.4byte	.LASF132
 5323 08bf 14       		.byte	0x14
 5324 08c0 3F       		.byte	0x3f
 5325 08c1 CE000000 		.4byte	0xce
 5326 08c5 03       		.uleb128 0x3
 5327 08c6 61050000 		.4byte	.LASF133
 5328 08ca 14       		.byte	0x14
 5329 08cb 40       		.byte	0x40
 5330 08cc C3000000 		.4byte	0xc3
 5331 08d0 03       		.uleb128 0x3
 5332 08d1 96010000 		.4byte	.LASF134
 5333 08d5 14       		.byte	0x14
 5334 08d6 41       		.byte	0x41
 5335 08d7 E4000000 		.4byte	0xe4
 5336 08db 03       		.uleb128 0x3
 5337 08dc CA0C0000 		.4byte	.LASF135
 5338 08e0 14       		.byte	0x14
 5339 08e1 42       		.byte	0x42
 5340 08e2 D9000000 		.4byte	0xd9
 5341 08e6 03       		.uleb128 0x3
 5342 08e7 E5090000 		.4byte	.LASF136
 5343 08eb 14       		.byte	0x14
 5344 08ec 43       		.byte	0x43
 5345 08ed FA000000 		.4byte	0xfa
 5346 08f1 03       		.uleb128 0x3
 5347 08f2 66050000 		.4byte	.LASF137
 5348 08f6 14       		.byte	0x14
 5349 08f7 44       		.byte	0x44
 5350 08f8 EF000000 		.4byte	0xef
 5351 08fc 03       		.uleb128 0x3
 5352 08fd 16060000 		.4byte	.LASF138
 5353 0901 15       		.byte	0x15
 5354 0902 2E       		.byte	0x2e
 5355 0903 2C000000 		.4byte	0x2c
 5356 0907 03       		.uleb128 0x3
 5357 0908 32010000 		.4byte	.LASF139
 5358 090c 16       		.byte	0x16
 5359 090d 2F       		.byte	0x2f
 5360 090e C5080000 		.4byte	0x8c5
 5361 0912 06       		.uleb128 0x6
 5362 0913 A20D0000 		.4byte	.LASF140
 5363 0917 10       		.byte	0x10
 5364 0918 17       		.byte	0x17
 5365 0919 4F       		.byte	0x4f
 5366 091a 73090000 		.4byte	0x973
 5367 091e 07       		.uleb128 0x7
 5368 091f 18010000 		.4byte	.LASF141
 5369 0923 17       		.byte	0x17
 5370 0924 51       		.byte	0x51
 5371 0925 73090000 		.4byte	0x973
 5372 0929 00       		.byte	0
 5373 092a 07       		.uleb128 0x7
ARM GAS  C:\Users\jo\AppData\Local\Temp\ccfChKJS.s 			page 97


 5374 092b E1040000 		.4byte	.LASF142
 5375 092f 17       		.byte	0x17
 5376 0930 54       		.byte	0x54
 5377 0931 64030000 		.4byte	0x364
 5378 0935 04       		.byte	0x4
 5379 0936 07       		.uleb128 0x7
 5380 0937 F80D0000 		.4byte	.LASF143
 5381 093b 17       		.byte	0x17
 5382 093c 5D       		.byte	0x5d
 5383 093d D0080000 		.4byte	0x8d0
 5384 0941 08       		.byte	0x8
 5385 0942 12       		.uleb128 0x12
 5386 0943 6C656E00 		.ascii	"len\000"
 5387 0947 17       		.byte	0x17
 5388 0948 60       		.byte	0x60
 5389 0949 D0080000 		.4byte	0x8d0
 5390 094d 0A       		.byte	0xa
 5391 094e 07       		.uleb128 0x7
 5392 094f 3C0D0000 		.4byte	.LASF144
 5393 0953 17       		.byte	0x17
 5394 0954 63       		.byte	0x63
 5395 0955 BA080000 		.4byte	0x8ba
 5396 0959 0C       		.byte	0xc
 5397 095a 07       		.uleb128 0x7
 5398 095b BA000000 		.4byte	.LASF145
 5399 095f 17       		.byte	0x17
 5400 0960 66       		.byte	0x66
 5401 0961 BA080000 		.4byte	0x8ba
 5402 0965 0D       		.byte	0xd
 5403 0966 12       		.uleb128 0x12
 5404 0967 72656600 		.ascii	"ref\000"
 5405 096b 17       		.byte	0x17
 5406 096c 6D       		.byte	0x6d
 5407 096d D0080000 		.4byte	0x8d0
 5408 0971 0E       		.byte	0xe
 5409 0972 00       		.byte	0
 5410 0973 0A       		.uleb128 0xa
 5411 0974 04       		.byte	0x4
 5412 0975 12090000 		.4byte	0x912
 5413 0979 06       		.uleb128 0x6
 5414 097a CD0F0000 		.4byte	.LASF146
 5415 097e 04       		.byte	0x4
 5416 097f 18       		.byte	0x18
 5417 0980 2C       		.byte	0x2c
 5418 0981 92090000 		.4byte	0x992
 5419 0985 07       		.uleb128 0x7
 5420 0986 E10D0000 		.4byte	.LASF147
 5421 098a 18       		.byte	0x18
 5422 098b 2D       		.byte	0x2d
 5423 098c E6080000 		.4byte	0x8e6
 5424 0990 00       		.byte	0
 5425 0991 00       		.byte	0
 5426 0992 06       		.uleb128 0x6
 5427 0993 49060000 		.4byte	.LASF148
 5428 0997 04       		.byte	0x4
 5429 0998 18       		.byte	0x18
 5430 0999 36       		.byte	0x36
ARM GAS  C:\Users\jo\AppData\Local\Temp\ccfChKJS.s 			page 98


 5431 099a AB090000 		.4byte	0x9ab
 5432 099e 07       		.uleb128 0x7
 5433 099f E10D0000 		.4byte	.LASF147
 5434 09a3 18       		.byte	0x18
 5435 09a4 37       		.byte	0x37
 5436 09a5 E6080000 		.4byte	0x8e6
 5437 09a9 00       		.byte	0
 5438 09aa 00       		.byte	0
 5439 09ab 03       		.uleb128 0x3
 5440 09ac 3E0F0000 		.4byte	.LASF149
 5441 09b0 18       		.byte	0x18
 5442 09b1 40       		.byte	0x40
 5443 09b2 79090000 		.4byte	0x979
 5444 09b6 03       		.uleb128 0x3
 5445 09b7 A70D0000 		.4byte	.LASF150
 5446 09bb 18       		.byte	0x18
 5447 09bc 41       		.byte	0x41
 5448 09bd 92090000 		.4byte	0x992
 5449 09c1 0A       		.uleb128 0xa
 5450 09c2 04       		.byte	0x4
 5451 09c3 C7090000 		.4byte	0x9c7
 5452 09c7 06       		.uleb128 0x6
 5453 09c8 1B0E0000 		.4byte	.LASF151
 5454 09cc 30       		.byte	0x30
 5455 09cd 19       		.byte	0x19
 5456 09ce 88       		.byte	0x88
 5457 09cf 7B0A0000 		.4byte	0xa7b
 5458 09d3 07       		.uleb128 0x7
 5459 09d4 18010000 		.4byte	.LASF141
 5460 09d8 19       		.byte	0x19
 5461 09d9 8A       		.byte	0x8a
 5462 09da C1090000 		.4byte	0x9c1
 5463 09de 00       		.byte	0
 5464 09df 07       		.uleb128 0x7
 5465 09e0 CD0F0000 		.4byte	.LASF146
 5466 09e4 19       		.byte	0x19
 5467 09e5 8D       		.byte	0x8d
 5468 09e6 AB090000 		.4byte	0x9ab
 5469 09ea 04       		.byte	0x4
 5470 09eb 07       		.uleb128 0x7
 5471 09ec 58070000 		.4byte	.LASF152
 5472 09f0 19       		.byte	0x19
 5473 09f1 8E       		.byte	0x8e
 5474 09f2 AB090000 		.4byte	0x9ab
 5475 09f6 08       		.byte	0x8
 5476 09f7 12       		.uleb128 0x12
 5477 09f8 677700   		.ascii	"gw\000"
 5478 09fb 19       		.byte	0x19
 5479 09fc 8F       		.byte	0x8f
 5480 09fd AB090000 		.4byte	0x9ab
 5481 0a01 0C       		.byte	0xc
 5482 0a02 07       		.uleb128 0x7
 5483 0a03 A5080000 		.4byte	.LASF153
 5484 0a07 19       		.byte	0x19
 5485 0a08 93       		.byte	0x93
 5486 0a09 7B0A0000 		.4byte	0xa7b
 5487 0a0d 10       		.byte	0x10
ARM GAS  C:\Users\jo\AppData\Local\Temp\ccfChKJS.s 			page 99


 5488 0a0e 07       		.uleb128 0x7
 5489 0a0f 69000000 		.4byte	.LASF154
 5490 0a13 19       		.byte	0x19
 5491 0a14 97       		.byte	0x97
 5492 0a15 A00A0000 		.4byte	0xaa0
 5493 0a19 14       		.byte	0x14
 5494 0a1a 07       		.uleb128 0x7
 5495 0a1b AB0F0000 		.4byte	.LASF155
 5496 0a1f 19       		.byte	0x19
 5497 0a20 9B       		.byte	0x9b
 5498 0a21 D00A0000 		.4byte	0xad0
 5499 0a25 18       		.byte	0x18
 5500 0a26 07       		.uleb128 0x7
 5501 0a27 F20D0000 		.4byte	.LASF156
 5502 0a2b 19       		.byte	0x19
 5503 0a2c AC       		.byte	0xac
 5504 0a2d 64030000 		.4byte	0x364
 5505 0a31 1C       		.byte	0x1c
 5506 0a32 12       		.uleb128 0x12
 5507 0a33 6D747500 		.ascii	"mtu\000"
 5508 0a37 19       		.byte	0x19
 5509 0a38 BA       		.byte	0xba
 5510 0a39 D0080000 		.4byte	0x8d0
 5511 0a3d 20       		.byte	0x20
 5512 0a3e 07       		.uleb128 0x7
 5513 0a3f 2A090000 		.4byte	.LASF157
 5514 0a43 19       		.byte	0x19
 5515 0a44 BC       		.byte	0xbc
 5516 0a45 BA080000 		.4byte	0x8ba
 5517 0a49 22       		.byte	0x22
 5518 0a4a 07       		.uleb128 0x7
 5519 0a4b CA030000 		.4byte	.LASF158
 5520 0a4f 19       		.byte	0x19
 5521 0a50 BE       		.byte	0xbe
 5522 0a51 F50A0000 		.4byte	0xaf5
 5523 0a55 23       		.byte	0x23
 5524 0a56 07       		.uleb128 0x7
 5525 0a57 BA000000 		.4byte	.LASF145
 5526 0a5b 19       		.byte	0x19
 5527 0a5c C0       		.byte	0xc0
 5528 0a5d BA080000 		.4byte	0x8ba
 5529 0a61 29       		.byte	0x29
 5530 0a62 07       		.uleb128 0x7
 5531 0a63 28000000 		.4byte	.LASF159
 5532 0a67 19       		.byte	0x19
 5533 0a68 C2       		.byte	0xc2
 5534 0a69 050B0000 		.4byte	0xb05
 5535 0a6d 2A       		.byte	0x2a
 5536 0a6e 12       		.uleb128 0x12
 5537 0a6f 6E756D00 		.ascii	"num\000"
 5538 0a73 19       		.byte	0x19
 5539 0a74 C4       		.byte	0xc4
 5540 0a75 BA080000 		.4byte	0x8ba
 5541 0a79 2C       		.byte	0x2c
 5542 0a7a 00       		.byte	0
 5543 0a7b 03       		.uleb128 0x3
 5544 0a7c 01030000 		.4byte	.LASF160
ARM GAS  C:\Users\jo\AppData\Local\Temp\ccfChKJS.s 			page 100


 5545 0a80 19       		.byte	0x19
 5546 0a81 6D       		.byte	0x6d
 5547 0a82 860A0000 		.4byte	0xa86
 5548 0a86 0A       		.uleb128 0xa
 5549 0a87 04       		.byte	0x4
 5550 0a88 8C0A0000 		.4byte	0xa8c
 5551 0a8c 1A       		.uleb128 0x1a
 5552 0a8d 07090000 		.4byte	0x907
 5553 0a91 A00A0000 		.4byte	0xaa0
 5554 0a95 0D       		.uleb128 0xd
 5555 0a96 73090000 		.4byte	0x973
 5556 0a9a 0D       		.uleb128 0xd
 5557 0a9b C1090000 		.4byte	0x9c1
 5558 0a9f 00       		.byte	0
 5559 0aa0 03       		.uleb128 0x3
 5560 0aa1 4C020000 		.4byte	.LASF161
 5561 0aa5 19       		.byte	0x19
 5562 0aa6 76       		.byte	0x76
 5563 0aa7 AB0A0000 		.4byte	0xaab
 5564 0aab 0A       		.uleb128 0xa
 5565 0aac 04       		.byte	0x4
 5566 0aad B10A0000 		.4byte	0xab1
 5567 0ab1 1A       		.uleb128 0x1a
 5568 0ab2 07090000 		.4byte	0x907
 5569 0ab6 CA0A0000 		.4byte	0xaca
 5570 0aba 0D       		.uleb128 0xd
 5571 0abb C1090000 		.4byte	0x9c1
 5572 0abf 0D       		.uleb128 0xd
 5573 0ac0 73090000 		.4byte	0x973
 5574 0ac4 0D       		.uleb128 0xd
 5575 0ac5 CA0A0000 		.4byte	0xaca
 5576 0ac9 00       		.byte	0
 5577 0aca 0A       		.uleb128 0xa
 5578 0acb 04       		.byte	0x4
 5579 0acc AB090000 		.4byte	0x9ab
 5580 0ad0 03       		.uleb128 0x3
 5581 0ad1 100C0000 		.4byte	.LASF162
 5582 0ad5 19       		.byte	0x19
 5583 0ad6 7E       		.byte	0x7e
 5584 0ad7 DB0A0000 		.4byte	0xadb
 5585 0adb 0A       		.uleb128 0xa
 5586 0adc 04       		.byte	0x4
 5587 0add E10A0000 		.4byte	0xae1
 5588 0ae1 1A       		.uleb128 0x1a
 5589 0ae2 07090000 		.4byte	0x907
 5590 0ae6 F50A0000 		.4byte	0xaf5
 5591 0aea 0D       		.uleb128 0xd
 5592 0aeb C1090000 		.4byte	0x9c1
 5593 0aef 0D       		.uleb128 0xd
 5594 0af0 73090000 		.4byte	0x973
 5595 0af4 00       		.byte	0
 5596 0af5 15       		.uleb128 0x15
 5597 0af6 BA080000 		.4byte	0x8ba
 5598 0afa 050B0000 		.4byte	0xb05
 5599 0afe 16       		.uleb128 0x16
 5600 0aff C5040000 		.4byte	0x4c5
 5601 0b03 05       		.byte	0x5
ARM GAS  C:\Users\jo\AppData\Local\Temp\ccfChKJS.s 			page 101


 5602 0b04 00       		.byte	0
 5603 0b05 15       		.uleb128 0x15
 5604 0b06 FF060000 		.4byte	0x6ff
 5605 0b0a 150B0000 		.4byte	0xb15
 5606 0b0e 16       		.uleb128 0x16
 5607 0b0f C5040000 		.4byte	0x4c5
 5608 0b13 01       		.byte	0x1
 5609 0b14 00       		.byte	0
 5610 0b15 06       		.uleb128 0x6
 5611 0b16 EB0B0000 		.4byte	.LASF163
 5612 0b1a 14       		.byte	0x14
 5613 0b1b 1A       		.byte	0x1a
 5614 0b1c 74       		.byte	0x74
 5615 0b1d 9A0B0000 		.4byte	0xb9a
 5616 0b21 07       		.uleb128 0x7
 5617 0b22 D4070000 		.4byte	.LASF164
 5618 0b26 1A       		.byte	0x1a
 5619 0b27 76       		.byte	0x76
 5620 0b28 BA080000 		.4byte	0x8ba
 5621 0b2c 00       		.byte	0
 5622 0b2d 07       		.uleb128 0x7
 5623 0b2e 6F0C0000 		.4byte	.LASF165
 5624 0b32 1A       		.byte	0x1a
 5625 0b33 78       		.byte	0x78
 5626 0b34 BA080000 		.4byte	0x8ba
 5627 0b38 01       		.byte	0x1
 5628 0b39 07       		.uleb128 0x7
 5629 0b3a 390F0000 		.4byte	.LASF166
 5630 0b3e 1A       		.byte	0x1a
 5631 0b3f 7A       		.byte	0x7a
 5632 0b40 D0080000 		.4byte	0x8d0
 5633 0b44 02       		.byte	0x2
 5634 0b45 12       		.uleb128 0x12
 5635 0b46 5F696400 		.ascii	"_id\000"
 5636 0b4a 1A       		.byte	0x1a
 5637 0b4b 7C       		.byte	0x7c
 5638 0b4c D0080000 		.4byte	0x8d0
 5639 0b50 04       		.byte	0x4
 5640 0b51 07       		.uleb128 0x7
 5641 0b52 39040000 		.4byte	.LASF167
 5642 0b56 1A       		.byte	0x1a
 5643 0b57 7E       		.byte	0x7e
 5644 0b58 D0080000 		.4byte	0x8d0
 5645 0b5c 06       		.byte	0x6
 5646 0b5d 07       		.uleb128 0x7
 5647 0b5e 9C010000 		.4byte	.LASF168
 5648 0b62 1A       		.byte	0x1a
 5649 0b63 84       		.byte	0x84
 5650 0b64 BA080000 		.4byte	0x8ba
 5651 0b68 08       		.byte	0x8
 5652 0b69 07       		.uleb128 0x7
 5653 0b6a ED060000 		.4byte	.LASF169
 5654 0b6e 1A       		.byte	0x1a
 5655 0b6f 86       		.byte	0x86
 5656 0b70 BA080000 		.4byte	0x8ba
 5657 0b74 09       		.byte	0x9
 5658 0b75 07       		.uleb128 0x7
ARM GAS  C:\Users\jo\AppData\Local\Temp\ccfChKJS.s 			page 102


 5659 0b76 2B040000 		.4byte	.LASF170
 5660 0b7a 1A       		.byte	0x1a
 5661 0b7b 88       		.byte	0x88
 5662 0b7c D0080000 		.4byte	0x8d0
 5663 0b80 0A       		.byte	0xa
 5664 0b81 12       		.uleb128 0x12
 5665 0b82 73726300 		.ascii	"src\000"
 5666 0b86 1A       		.byte	0x1a
 5667 0b87 8A       		.byte	0x8a
 5668 0b88 B6090000 		.4byte	0x9b6
 5669 0b8c 0C       		.byte	0xc
 5670 0b8d 07       		.uleb128 0x7
 5671 0b8e B60F0000 		.4byte	.LASF171
 5672 0b92 1A       		.byte	0x1a
 5673 0b93 8B       		.byte	0x8b
 5674 0b94 B6090000 		.4byte	0x9b6
 5675 0b98 10       		.byte	0x10
 5676 0b99 00       		.byte	0
 5677 0b9a 03       		.uleb128 0x3
 5678 0b9b AC000000 		.4byte	.LASF172
 5679 0b9f 1B       		.byte	0x1b
 5680 0ba0 3C       		.byte	0x3c
 5681 0ba1 A50B0000 		.4byte	0xba5
 5682 0ba5 0A       		.uleb128 0xa
 5683 0ba6 04       		.byte	0x4
 5684 0ba7 AB0B0000 		.4byte	0xbab
 5685 0bab 1A       		.uleb128 0x1a
 5686 0bac 07090000 		.4byte	0x907
 5687 0bb0 C40B0000 		.4byte	0xbc4
 5688 0bb4 0D       		.uleb128 0xd
 5689 0bb5 64030000 		.4byte	0x364
 5690 0bb9 0D       		.uleb128 0xd
 5691 0bba C40B0000 		.4byte	0xbc4
 5692 0bbe 0D       		.uleb128 0xd
 5693 0bbf 07090000 		.4byte	0x907
 5694 0bc3 00       		.byte	0
 5695 0bc4 0A       		.uleb128 0xa
 5696 0bc5 04       		.byte	0x4
 5697 0bc6 CA0B0000 		.4byte	0xbca
 5698 0bca 06       		.uleb128 0x6
 5699 0bcb 8E0E0000 		.4byte	.LASF173
 5700 0bcf 98       		.byte	0x98
 5701 0bd0 1B       		.byte	0x1b
 5702 0bd1 A8       		.byte	0xa8
 5703 0bd2 7C0E0000 		.4byte	0xe7c
 5704 0bd6 07       		.uleb128 0x7
 5705 0bd7 9A0B0000 		.4byte	.LASF174
 5706 0bdb 1B       		.byte	0x1b
 5707 0bdc AA       		.byte	0xaa
 5708 0bdd AB090000 		.4byte	0x9ab
 5709 0be1 00       		.byte	0
 5710 0be2 07       		.uleb128 0x7
 5711 0be3 EF0E0000 		.4byte	.LASF175
 5712 0be7 1B       		.byte	0x1b
 5713 0be8 AA       		.byte	0xaa
 5714 0be9 AB090000 		.4byte	0x9ab
 5715 0bed 04       		.byte	0x4
ARM GAS  C:\Users\jo\AppData\Local\Temp\ccfChKJS.s 			page 103


 5716 0bee 07       		.uleb128 0x7
 5717 0bef 4F000000 		.4byte	.LASF176
 5718 0bf3 1B       		.byte	0x1b
 5719 0bf4 AA       		.byte	0xaa
 5720 0bf5 BA080000 		.4byte	0x8ba
 5721 0bf9 08       		.byte	0x8
 5722 0bfa 12       		.uleb128 0x12
 5723 0bfb 746F7300 		.ascii	"tos\000"
 5724 0bff 1B       		.byte	0x1b
 5725 0c00 AA       		.byte	0xaa
 5726 0c01 BA080000 		.4byte	0x8ba
 5727 0c05 09       		.byte	0x9
 5728 0c06 12       		.uleb128 0x12
 5729 0c07 74746C00 		.ascii	"ttl\000"
 5730 0c0b 1B       		.byte	0x1b
 5731 0c0c AA       		.byte	0xaa
 5732 0c0d BA080000 		.4byte	0x8ba
 5733 0c11 0A       		.byte	0xa
 5734 0c12 07       		.uleb128 0x7
 5735 0c13 18010000 		.4byte	.LASF141
 5736 0c17 1B       		.byte	0x1b
 5737 0c18 AC       		.byte	0xac
 5738 0c19 C40B0000 		.4byte	0xbc4
 5739 0c1d 0C       		.byte	0xc
 5740 0c1e 07       		.uleb128 0x7
 5741 0c1f C30D0000 		.4byte	.LASF177
 5742 0c23 1B       		.byte	0x1b
 5743 0c24 AC       		.byte	0xac
 5744 0c25 64030000 		.4byte	0x364
 5745 0c29 10       		.byte	0x10
 5746 0c2a 07       		.uleb128 0x7
 5747 0c2b 62030000 		.4byte	.LASF178
 5748 0c2f 1B       		.byte	0x1b
 5749 0c30 AC       		.byte	0xac
 5750 0c31 9A0B0000 		.4byte	0xb9a
 5751 0c35 14       		.byte	0x14
 5752 0c36 07       		.uleb128 0x7
 5753 0c37 F20D0000 		.4byte	.LASF156
 5754 0c3b 1B       		.byte	0x1b
 5755 0c3c AC       		.byte	0xac
 5756 0c3d 260F0000 		.4byte	0xf26
 5757 0c41 18       		.byte	0x18
 5758 0c42 07       		.uleb128 0x7
 5759 0c43 D7050000 		.4byte	.LASF179
 5760 0c47 1B       		.byte	0x1b
 5761 0c48 AC       		.byte	0xac
 5762 0c49 BA080000 		.4byte	0x8ba
 5763 0c4d 19       		.byte	0x19
 5764 0c4e 07       		.uleb128 0x7
 5765 0c4f 83030000 		.4byte	.LASF180
 5766 0c53 1B       		.byte	0x1b
 5767 0c54 AC       		.byte	0xac
 5768 0c55 D0080000 		.4byte	0x8d0
 5769 0c59 1A       		.byte	0x1a
 5770 0c5a 07       		.uleb128 0x7
 5771 0c5b 22080000 		.4byte	.LASF181
 5772 0c5f 1B       		.byte	0x1b
ARM GAS  C:\Users\jo\AppData\Local\Temp\ccfChKJS.s 			page 104


 5773 0c60 AF       		.byte	0xaf
 5774 0c61 D0080000 		.4byte	0x8d0
 5775 0c65 1C       		.byte	0x1c
 5776 0c66 07       		.uleb128 0x7
 5777 0c67 BA000000 		.4byte	.LASF145
 5778 0c6b 1B       		.byte	0x1b
 5779 0c6c B1       		.byte	0xb1
 5780 0c6d BA080000 		.4byte	0x8ba
 5781 0c71 1E       		.byte	0x1e
 5782 0c72 07       		.uleb128 0x7
 5783 0c73 860F0000 		.4byte	.LASF182
 5784 0c77 1B       		.byte	0x1b
 5785 0c78 BF       		.byte	0xbf
 5786 0c79 BA080000 		.4byte	0x8ba
 5787 0c7d 1F       		.byte	0x1f
 5788 0c7e 07       		.uleb128 0x7
 5789 0c7f DC050000 		.4byte	.LASF183
 5790 0c83 1B       		.byte	0x1b
 5791 0c84 BF       		.byte	0xbf
 5792 0c85 BA080000 		.4byte	0x8ba
 5793 0c89 20       		.byte	0x20
 5794 0c8a 07       		.uleb128 0x7
 5795 0c8b 820B0000 		.4byte	.LASF184
 5796 0c8f 1B       		.byte	0x1b
 5797 0c90 C0       		.byte	0xc0
 5798 0c91 BA080000 		.4byte	0x8ba
 5799 0c95 21       		.byte	0x21
 5800 0c96 12       		.uleb128 0x12
 5801 0c97 746D7200 		.ascii	"tmr\000"
 5802 0c9b 1B       		.byte	0x1b
 5803 0c9c C1       		.byte	0xc1
 5804 0c9d E6080000 		.4byte	0x8e6
 5805 0ca1 24       		.byte	0x24
 5806 0ca2 07       		.uleb128 0x7
 5807 0ca3 71040000 		.4byte	.LASF185
 5808 0ca7 1B       		.byte	0x1b
 5809 0ca8 C4       		.byte	0xc4
 5810 0ca9 E6080000 		.4byte	0x8e6
 5811 0cad 28       		.byte	0x28
 5812 0cae 07       		.uleb128 0x7
 5813 0caf 370B0000 		.4byte	.LASF186
 5814 0cb3 1B       		.byte	0x1b
 5815 0cb4 C5       		.byte	0xc5
 5816 0cb5 D0080000 		.4byte	0x8d0
 5817 0cb9 2C       		.byte	0x2c
 5818 0cba 07       		.uleb128 0x7
 5819 0cbb 5B080000 		.4byte	.LASF187
 5820 0cbf 1B       		.byte	0x1b
 5821 0cc0 C6       		.byte	0xc6
 5822 0cc1 D0080000 		.4byte	0x8d0
 5823 0cc5 2E       		.byte	0x2e
 5824 0cc6 07       		.uleb128 0x7
 5825 0cc7 F6010000 		.4byte	.LASF188
 5826 0ccb 1B       		.byte	0x1b
 5827 0ccc C7       		.byte	0xc7
 5828 0ccd E6080000 		.4byte	0x8e6
 5829 0cd1 30       		.byte	0x30
ARM GAS  C:\Users\jo\AppData\Local\Temp\ccfChKJS.s 			page 105


 5830 0cd2 07       		.uleb128 0x7
 5831 0cd3 33040000 		.4byte	.LASF189
 5832 0cd7 1B       		.byte	0x1b
 5833 0cd8 CA       		.byte	0xca
 5834 0cd9 DB080000 		.4byte	0x8db
 5835 0cdd 34       		.byte	0x34
 5836 0cde 12       		.uleb128 0x12
 5837 0cdf 6D737300 		.ascii	"mss\000"
 5838 0ce3 1B       		.byte	0x1b
 5839 0ce4 CC       		.byte	0xcc
 5840 0ce5 D0080000 		.4byte	0x8d0
 5841 0ce9 36       		.byte	0x36
 5842 0cea 07       		.uleb128 0x7
 5843 0ceb 3F0B0000 		.4byte	.LASF190
 5844 0cef 1B       		.byte	0x1b
 5845 0cf0 CF       		.byte	0xcf
 5846 0cf1 E6080000 		.4byte	0x8e6
 5847 0cf5 38       		.byte	0x38
 5848 0cf6 07       		.uleb128 0x7
 5849 0cf7 08040000 		.4byte	.LASF191
 5850 0cfb 1B       		.byte	0x1b
 5851 0cfc D0       		.byte	0xd0
 5852 0cfd E6080000 		.4byte	0x8e6
 5853 0d01 3C       		.byte	0x3c
 5854 0d02 12       		.uleb128 0x12
 5855 0d03 736100   		.ascii	"sa\000"
 5856 0d06 1B       		.byte	0x1b
 5857 0d07 D1       		.byte	0xd1
 5858 0d08 DB080000 		.4byte	0x8db
 5859 0d0c 40       		.byte	0x40
 5860 0d0d 12       		.uleb128 0x12
 5861 0d0e 737600   		.ascii	"sv\000"
 5862 0d11 1B       		.byte	0x1b
 5863 0d12 D1       		.byte	0xd1
 5864 0d13 DB080000 		.4byte	0x8db
 5865 0d17 42       		.byte	0x42
 5866 0d18 12       		.uleb128 0x12
 5867 0d19 72746F00 		.ascii	"rto\000"
 5868 0d1d 1B       		.byte	0x1b
 5869 0d1e D3       		.byte	0xd3
 5870 0d1f DB080000 		.4byte	0x8db
 5871 0d23 44       		.byte	0x44
 5872 0d24 07       		.uleb128 0x7
 5873 0d25 A60F0000 		.4byte	.LASF192
 5874 0d29 1B       		.byte	0x1b
 5875 0d2a D4       		.byte	0xd4
 5876 0d2b BA080000 		.4byte	0x8ba
 5877 0d2f 46       		.byte	0x46
 5878 0d30 07       		.uleb128 0x7
 5879 0d31 CF050000 		.4byte	.LASF193
 5880 0d35 1B       		.byte	0x1b
 5881 0d36 D7       		.byte	0xd7
 5882 0d37 BA080000 		.4byte	0x8ba
 5883 0d3b 47       		.byte	0x47
 5884 0d3c 07       		.uleb128 0x7
 5885 0d3d 53080000 		.4byte	.LASF194
 5886 0d41 1B       		.byte	0x1b
ARM GAS  C:\Users\jo\AppData\Local\Temp\ccfChKJS.s 			page 106


 5887 0d42 D8       		.byte	0xd8
 5888 0d43 E6080000 		.4byte	0x8e6
 5889 0d47 48       		.byte	0x48
 5890 0d48 07       		.uleb128 0x7
 5891 0d49 32030000 		.4byte	.LASF195
 5892 0d4d 1B       		.byte	0x1b
 5893 0d4e DB       		.byte	0xdb
 5894 0d4f D0080000 		.4byte	0x8d0
 5895 0d53 4C       		.byte	0x4c
 5896 0d54 07       		.uleb128 0x7
 5897 0d55 330C0000 		.4byte	.LASF196
 5898 0d59 1B       		.byte	0x1b
 5899 0d5a DC       		.byte	0xdc
 5900 0d5b D0080000 		.4byte	0x8d0
 5901 0d5f 4E       		.byte	0x4e
 5902 0d60 07       		.uleb128 0x7
 5903 0d61 CD0B0000 		.4byte	.LASF197
 5904 0d65 1B       		.byte	0x1b
 5905 0d66 DF       		.byte	0xdf
 5906 0d67 E6080000 		.4byte	0x8e6
 5907 0d6b 50       		.byte	0x50
 5908 0d6c 07       		.uleb128 0x7
 5909 0d6d 21060000 		.4byte	.LASF198
 5910 0d71 1B       		.byte	0x1b
 5911 0d72 E0       		.byte	0xe0
 5912 0d73 E6080000 		.4byte	0x8e6
 5913 0d77 54       		.byte	0x54
 5914 0d78 07       		.uleb128 0x7
 5915 0d79 CA060000 		.4byte	.LASF199
 5916 0d7d 1B       		.byte	0x1b
 5917 0d7e E0       		.byte	0xe0
 5918 0d7f E6080000 		.4byte	0x8e6
 5919 0d83 58       		.byte	0x58
 5920 0d84 07       		.uleb128 0x7
 5921 0d85 85050000 		.4byte	.LASF200
 5922 0d89 1B       		.byte	0x1b
 5923 0d8a E2       		.byte	0xe2
 5924 0d8b E6080000 		.4byte	0x8e6
 5925 0d8f 5C       		.byte	0x5c
 5926 0d90 07       		.uleb128 0x7
 5927 0d91 C80E0000 		.4byte	.LASF201
 5928 0d95 1B       		.byte	0x1b
 5929 0d96 E3       		.byte	0xe3
 5930 0d97 D0080000 		.4byte	0x8d0
 5931 0d9b 60       		.byte	0x60
 5932 0d9c 07       		.uleb128 0x7
 5933 0d9d F20B0000 		.4byte	.LASF202
 5934 0da1 1B       		.byte	0x1b
 5935 0da2 E4       		.byte	0xe4
 5936 0da3 D0080000 		.4byte	0x8d0
 5937 0da7 62       		.byte	0x62
 5938 0da8 07       		.uleb128 0x7
 5939 0da9 58060000 		.4byte	.LASF203
 5940 0dad 1B       		.byte	0x1b
 5941 0dae E6       		.byte	0xe6
 5942 0daf D0080000 		.4byte	0x8d0
 5943 0db3 64       		.byte	0x64
ARM GAS  C:\Users\jo\AppData\Local\Temp\ccfChKJS.s 			page 107


 5944 0db4 07       		.uleb128 0x7
 5945 0db5 CA000000 		.4byte	.LASF204
 5946 0db9 1B       		.byte	0x1b
 5947 0dba E8       		.byte	0xe8
 5948 0dbb D0080000 		.4byte	0x8d0
 5949 0dbf 66       		.byte	0x66
 5950 0dc0 07       		.uleb128 0x7
 5951 0dc1 290E0000 		.4byte	.LASF205
 5952 0dc5 1B       		.byte	0x1b
 5953 0dc6 EA       		.byte	0xea
 5954 0dc7 D0080000 		.4byte	0x8d0
 5955 0dcb 68       		.byte	0x68
 5956 0dcc 07       		.uleb128 0x7
 5957 0dcd B40B0000 		.4byte	.LASF206
 5958 0dd1 1B       		.byte	0x1b
 5959 0dd2 EE       		.byte	0xee
 5960 0dd3 D0080000 		.4byte	0x8d0
 5961 0dd7 6A       		.byte	0x6a
 5962 0dd8 07       		.uleb128 0x7
 5963 0dd9 300B0000 		.4byte	.LASF207
 5964 0ddd 1B       		.byte	0x1b
 5965 0dde F2       		.byte	0xf2
 5966 0ddf CF0F0000 		.4byte	0xfcf
 5967 0de3 6C       		.byte	0x6c
 5968 0de4 07       		.uleb128 0x7
 5969 0de5 8E040000 		.4byte	.LASF208
 5970 0de9 1B       		.byte	0x1b
 5971 0dea F3       		.byte	0xf3
 5972 0deb CF0F0000 		.4byte	0xfcf
 5973 0def 70       		.byte	0x70
 5974 0df0 07       		.uleb128 0x7
 5975 0df1 1D010000 		.4byte	.LASF209
 5976 0df5 1B       		.byte	0x1b
 5977 0df6 F5       		.byte	0xf5
 5978 0df7 CF0F0000 		.4byte	0xfcf
 5979 0dfb 74       		.byte	0x74
 5980 0dfc 07       		.uleb128 0x7
 5981 0dfd E40C0000 		.4byte	.LASF210
 5982 0e01 1B       		.byte	0x1b
 5983 0e02 F8       		.byte	0xf8
 5984 0e03 73090000 		.4byte	0x973
 5985 0e07 78       		.byte	0x78
 5986 0e08 07       		.uleb128 0x7
 5987 0e09 B3060000 		.4byte	.LASF211
 5988 0e0d 1B       		.byte	0x1b
 5989 0e0e FC       		.byte	0xfc
 5990 0e0f AB0E0000 		.4byte	0xeab
 5991 0e13 7C       		.byte	0x7c
 5992 0e14 07       		.uleb128 0x7
 5993 0e15 5D0E0000 		.4byte	.LASF212
 5994 0e19 1B       		.byte	0x1b
 5995 0e1a FE       		.byte	0xfe
 5996 0e1b 7C0E0000 		.4byte	0xe7c
 5997 0e1f 80       		.byte	0x80
 5998 0e20 09       		.uleb128 0x9
 5999 0e21 05050000 		.4byte	.LASF213
 6000 0e25 1B       		.byte	0x1b
ARM GAS  C:\Users\jo\AppData\Local\Temp\ccfChKJS.s 			page 108


 6001 0e26 0001     		.2byte	0x100
 6002 0e28 1B0F0000 		.4byte	0xf1b
 6003 0e2c 84       		.byte	0x84
 6004 0e2d 09       		.uleb128 0x9
 6005 0e2e F3050000 		.4byte	.LASF214
 6006 0e32 1B       		.byte	0x1b
 6007 0e33 0201     		.2byte	0x102
 6008 0e35 D50E0000 		.4byte	0xed5
 6009 0e39 88       		.byte	0x88
 6010 0e3a 09       		.uleb128 0x9
 6011 0e3b 63090000 		.4byte	.LASF215
 6012 0e3f 1B       		.byte	0x1b
 6013 0e40 0401     		.2byte	0x104
 6014 0e42 FA0E0000 		.4byte	0xefa
 6015 0e46 8C       		.byte	0x8c
 6016 0e47 09       		.uleb128 0x9
 6017 0e48 B30D0000 		.4byte	.LASF216
 6018 0e4c 1B       		.byte	0x1b
 6019 0e4d 0D01     		.2byte	0x10d
 6020 0e4f E6080000 		.4byte	0x8e6
 6021 0e53 90       		.byte	0x90
 6022 0e54 09       		.uleb128 0x9
 6023 0e55 D00E0000 		.4byte	.LASF217
 6024 0e59 1B       		.byte	0x1b
 6025 0e5a 1401     		.2byte	0x114
 6026 0e5c BA080000 		.4byte	0x8ba
 6027 0e60 94       		.byte	0x94
 6028 0e61 09       		.uleb128 0x9
 6029 0e62 94070000 		.4byte	.LASF218
 6030 0e66 1B       		.byte	0x1b
 6031 0e67 1601     		.2byte	0x116
 6032 0e69 BA080000 		.4byte	0x8ba
 6033 0e6d 95       		.byte	0x95
 6034 0e6e 09       		.uleb128 0x9
 6035 0e6f 67020000 		.4byte	.LASF219
 6036 0e73 1B       		.byte	0x1b
 6037 0e74 1901     		.2byte	0x119
 6038 0e76 BA080000 		.4byte	0x8ba
 6039 0e7a 96       		.byte	0x96
 6040 0e7b 00       		.byte	0
 6041 0e7c 03       		.uleb128 0x3
 6042 0e7d 8A080000 		.4byte	.LASF220
 6043 0e81 1B       		.byte	0x1b
 6044 0e82 48       		.byte	0x48
 6045 0e83 870E0000 		.4byte	0xe87
 6046 0e87 0A       		.uleb128 0xa
 6047 0e88 04       		.byte	0x4
 6048 0e89 8D0E0000 		.4byte	0xe8d
 6049 0e8d 1A       		.uleb128 0x1a
 6050 0e8e 07090000 		.4byte	0x907
 6051 0e92 AB0E0000 		.4byte	0xeab
 6052 0e96 0D       		.uleb128 0xd
 6053 0e97 64030000 		.4byte	0x364
 6054 0e9b 0D       		.uleb128 0xd
 6055 0e9c C40B0000 		.4byte	0xbc4
 6056 0ea0 0D       		.uleb128 0xd
 6057 0ea1 73090000 		.4byte	0x973
ARM GAS  C:\Users\jo\AppData\Local\Temp\ccfChKJS.s 			page 109


 6058 0ea5 0D       		.uleb128 0xd
 6059 0ea6 07090000 		.4byte	0x907
 6060 0eaa 00       		.byte	0
 6061 0eab 03       		.uleb128 0x3
 6062 0eac A6020000 		.4byte	.LASF221
 6063 0eb0 1B       		.byte	0x1b
 6064 0eb1 56       		.byte	0x56
 6065 0eb2 B60E0000 		.4byte	0xeb6
 6066 0eb6 0A       		.uleb128 0xa
 6067 0eb7 04       		.byte	0x4
 6068 0eb8 BC0E0000 		.4byte	0xebc
 6069 0ebc 1A       		.uleb128 0x1a
 6070 0ebd 07090000 		.4byte	0x907
 6071 0ec1 D50E0000 		.4byte	0xed5
 6072 0ec5 0D       		.uleb128 0xd
 6073 0ec6 64030000 		.4byte	0x364
 6074 0eca 0D       		.uleb128 0xd
 6075 0ecb C40B0000 		.4byte	0xbc4
 6076 0ecf 0D       		.uleb128 0xd
 6077 0ed0 D0080000 		.4byte	0x8d0
 6078 0ed4 00       		.byte	0
 6079 0ed5 03       		.uleb128 0x3
 6080 0ed6 68090000 		.4byte	.LASF222
 6081 0eda 1B       		.byte	0x1b
 6082 0edb 62       		.byte	0x62
 6083 0edc E00E0000 		.4byte	0xee0
 6084 0ee0 0A       		.uleb128 0xa
 6085 0ee1 04       		.byte	0x4
 6086 0ee2 E60E0000 		.4byte	0xee6
 6087 0ee6 1A       		.uleb128 0x1a
 6088 0ee7 07090000 		.4byte	0x907
 6089 0eeb FA0E0000 		.4byte	0xefa
 6090 0eef 0D       		.uleb128 0xd
 6091 0ef0 64030000 		.4byte	0x364
 6092 0ef4 0D       		.uleb128 0xd
 6093 0ef5 C40B0000 		.4byte	0xbc4
 6094 0ef9 00       		.byte	0
 6095 0efa 03       		.uleb128 0x3
 6096 0efb F4060000 		.4byte	.LASF223
 6097 0eff 1B       		.byte	0x1b
 6098 0f00 6E       		.byte	0x6e
 6099 0f01 050F0000 		.4byte	0xf05
 6100 0f05 0A       		.uleb128 0xa
 6101 0f06 04       		.byte	0x4
 6102 0f07 0B0F0000 		.4byte	0xf0b
 6103 0f0b 0C       		.uleb128 0xc
 6104 0f0c 1B0F0000 		.4byte	0xf1b
 6105 0f10 0D       		.uleb128 0xd
 6106 0f11 64030000 		.4byte	0x364
 6107 0f15 0D       		.uleb128 0xd
 6108 0f16 07090000 		.4byte	0x907
 6109 0f1a 00       		.byte	0
 6110 0f1b 03       		.uleb128 0x3
 6111 0f1c 07010000 		.4byte	.LASF224
 6112 0f20 1B       		.byte	0x1b
 6113 0f21 7C       		.byte	0x7c
 6114 0f22 A50B0000 		.4byte	0xba5
ARM GAS  C:\Users\jo\AppData\Local\Temp\ccfChKJS.s 			page 110


 6115 0f26 1C       		.uleb128 0x1c
 6116 0f27 7B090000 		.4byte	.LASF364
 6117 0f2b 01       		.byte	0x1
 6118 0f2c 1B       		.byte	0x1b
 6119 0f2d 7E       		.byte	0x7e
 6120 0f2e 750F0000 		.4byte	0xf75
 6121 0f32 1D       		.uleb128 0x1d
 6122 0f33 DE090000 		.4byte	.LASF225
 6123 0f37 00       		.sleb128 0
 6124 0f38 1D       		.uleb128 0x1d
 6125 0f39 DA0D0000 		.4byte	.LASF226
 6126 0f3d 01       		.sleb128 1
 6127 0f3e 1D       		.uleb128 0x1d
 6128 0f3f C40B0000 		.4byte	.LASF227
 6129 0f43 02       		.sleb128 2
 6130 0f44 1D       		.uleb128 0x1d
 6131 0f45 C40F0000 		.4byte	.LASF228
 6132 0f49 03       		.sleb128 3
 6133 0f4a 1D       		.uleb128 0x1d
 6134 0f4b DF0B0000 		.4byte	.LASF229
 6135 0f4f 04       		.sleb128 4
 6136 0f50 1D       		.uleb128 0x1d
 6137 0f51 620D0000 		.4byte	.LASF230
 6138 0f55 05       		.sleb128 5
 6139 0f56 1D       		.uleb128 0x1d
 6140 0f57 6D0D0000 		.4byte	.LASF231
 6141 0f5b 06       		.sleb128 6
 6142 0f5c 1D       		.uleb128 0x1d
 6143 0f5d 5E060000 		.4byte	.LASF232
 6144 0f61 07       		.sleb128 7
 6145 0f62 1D       		.uleb128 0x1d
 6146 0f63 37050000 		.4byte	.LASF233
 6147 0f67 08       		.sleb128 8
 6148 0f68 1D       		.uleb128 0x1d
 6149 0f69 0D0D0000 		.4byte	.LASF234
 6150 0f6d 09       		.sleb128 9
 6151 0f6e 1D       		.uleb128 0x1d
 6152 0f6f E2000000 		.4byte	.LASF235
 6153 0f73 0A       		.sleb128 10
 6154 0f74 00       		.byte	0
 6155 0f75 0B       		.uleb128 0xb
 6156 0f76 D8030000 		.4byte	.LASF236
 6157 0f7a 14       		.byte	0x14
 6158 0f7b 1C       		.byte	0x1c
 6159 0f7c 1501     		.2byte	0x115
 6160 0f7e CF0F0000 		.4byte	0xfcf
 6161 0f82 09       		.uleb128 0x9
 6162 0f83 18010000 		.4byte	.LASF141
 6163 0f87 1C       		.byte	0x1c
 6164 0f88 1601     		.2byte	0x116
 6165 0f8a CF0F0000 		.4byte	0xfcf
 6166 0f8e 00       		.byte	0
 6167 0f8f 08       		.uleb128 0x8
 6168 0f90 7000     		.ascii	"p\000"
 6169 0f92 1C       		.byte	0x1c
 6170 0f93 1701     		.2byte	0x117
 6171 0f95 73090000 		.4byte	0x973
ARM GAS  C:\Users\jo\AppData\Local\Temp\ccfChKJS.s 			page 111


 6172 0f99 04       		.byte	0x4
 6173 0f9a 08       		.uleb128 0x8
 6174 0f9b 6C656E00 		.ascii	"len\000"
 6175 0f9f 1C       		.byte	0x1c
 6176 0fa0 1801     		.2byte	0x118
 6177 0fa2 D0080000 		.4byte	0x8d0
 6178 0fa6 08       		.byte	0x8
 6179 0fa7 09       		.uleb128 0x9
 6180 0fa8 D2060000 		.4byte	.LASF237
 6181 0fac 1C       		.byte	0x1c
 6182 0fad 1A01     		.2byte	0x11a
 6183 0faf D0080000 		.4byte	0x8d0
 6184 0fb3 0A       		.byte	0xa
 6185 0fb4 09       		.uleb128 0x9
 6186 0fb5 BA000000 		.4byte	.LASF145
 6187 0fb9 1C       		.byte	0x1c
 6188 0fba 2201     		.2byte	0x122
 6189 0fbc BA080000 		.4byte	0x8ba
 6190 0fc0 0C       		.byte	0xc
 6191 0fc1 09       		.uleb128 0x9
 6192 0fc2 C30C0000 		.4byte	.LASF238
 6193 0fc6 1C       		.byte	0x1c
 6194 0fc7 2701     		.2byte	0x127
 6195 0fc9 E5100000 		.4byte	0x10e5
 6196 0fcd 10       		.byte	0x10
 6197 0fce 00       		.byte	0
 6198 0fcf 0A       		.uleb128 0xa
 6199 0fd0 04       		.byte	0x4
 6200 0fd1 750F0000 		.4byte	0xf75
 6201 0fd5 0B       		.uleb128 0xb
 6202 0fd6 71070000 		.4byte	.LASF239
 6203 0fda 1C       		.byte	0x1c
 6204 0fdb 1B       		.byte	0x1b
 6205 0fdc 1C01     		.2byte	0x11c
 6206 0fde 72100000 		.4byte	0x1072
 6207 0fe2 09       		.uleb128 0x9
 6208 0fe3 9A0B0000 		.4byte	.LASF174
 6209 0fe7 1B       		.byte	0x1b
 6210 0fe8 1E01     		.2byte	0x11e
 6211 0fea AB090000 		.4byte	0x9ab
 6212 0fee 00       		.byte	0
 6213 0fef 09       		.uleb128 0x9
 6214 0ff0 EF0E0000 		.4byte	.LASF175
 6215 0ff4 1B       		.byte	0x1b
 6216 0ff5 1E01     		.2byte	0x11e
 6217 0ff7 AB090000 		.4byte	0x9ab
 6218 0ffb 04       		.byte	0x4
 6219 0ffc 09       		.uleb128 0x9
 6220 0ffd 4F000000 		.4byte	.LASF176
 6221 1001 1B       		.byte	0x1b
 6222 1002 1E01     		.2byte	0x11e
 6223 1004 BA080000 		.4byte	0x8ba
 6224 1008 08       		.byte	0x8
 6225 1009 08       		.uleb128 0x8
 6226 100a 746F7300 		.ascii	"tos\000"
 6227 100e 1B       		.byte	0x1b
 6228 100f 1E01     		.2byte	0x11e
ARM GAS  C:\Users\jo\AppData\Local\Temp\ccfChKJS.s 			page 112


 6229 1011 BA080000 		.4byte	0x8ba
 6230 1015 09       		.byte	0x9
 6231 1016 08       		.uleb128 0x8
 6232 1017 74746C00 		.ascii	"ttl\000"
 6233 101b 1B       		.byte	0x1b
 6234 101c 1E01     		.2byte	0x11e
 6235 101e BA080000 		.4byte	0x8ba
 6236 1022 0A       		.byte	0xa
 6237 1023 09       		.uleb128 0x9
 6238 1024 18010000 		.4byte	.LASF141
 6239 1028 1B       		.byte	0x1b
 6240 1029 2001     		.2byte	0x120
 6241 102b 72100000 		.4byte	0x1072
 6242 102f 0C       		.byte	0xc
 6243 1030 09       		.uleb128 0x9
 6244 1031 C30D0000 		.4byte	.LASF177
 6245 1035 1B       		.byte	0x1b
 6246 1036 2001     		.2byte	0x120
 6247 1038 64030000 		.4byte	0x364
 6248 103c 10       		.byte	0x10
 6249 103d 09       		.uleb128 0x9
 6250 103e 62030000 		.4byte	.LASF178
 6251 1042 1B       		.byte	0x1b
 6252 1043 2001     		.2byte	0x120
 6253 1045 9A0B0000 		.4byte	0xb9a
 6254 1049 14       		.byte	0x14
 6255 104a 09       		.uleb128 0x9
 6256 104b F20D0000 		.4byte	.LASF156
 6257 104f 1B       		.byte	0x1b
 6258 1050 2001     		.2byte	0x120
 6259 1052 260F0000 		.4byte	0xf26
 6260 1056 18       		.byte	0x18
 6261 1057 09       		.uleb128 0x9
 6262 1058 D7050000 		.4byte	.LASF179
 6263 105c 1B       		.byte	0x1b
 6264 105d 2001     		.2byte	0x120
 6265 105f BA080000 		.4byte	0x8ba
 6266 1063 19       		.byte	0x19
 6267 1064 09       		.uleb128 0x9
 6268 1065 83030000 		.4byte	.LASF180
 6269 1069 1B       		.byte	0x1b
 6270 106a 2001     		.2byte	0x120
 6271 106c D0080000 		.4byte	0x8d0
 6272 1070 1A       		.byte	0x1a
 6273 1071 00       		.byte	0
 6274 1072 0A       		.uleb128 0xa
 6275 1073 04       		.byte	0x4
 6276 1074 D50F0000 		.4byte	0xfd5
 6277 1078 06       		.uleb128 0x6
 6278 1079 2D0D0000 		.4byte	.LASF240
 6279 107d 14       		.byte	0x14
 6280 107e 1C       		.byte	0x1c
 6281 107f 9F       		.byte	0x9f
 6282 1080 E5100000 		.4byte	0x10e5
 6283 1084 12       		.uleb128 0x12
 6284 1085 73726300 		.ascii	"src\000"
 6285 1089 1C       		.byte	0x1c
ARM GAS  C:\Users\jo\AppData\Local\Temp\ccfChKJS.s 			page 113


 6286 108a A0       		.byte	0xa0
 6287 108b D0080000 		.4byte	0x8d0
 6288 108f 00       		.byte	0
 6289 1090 07       		.uleb128 0x7
 6290 1091 B60F0000 		.4byte	.LASF171
 6291 1095 1C       		.byte	0x1c
 6292 1096 A1       		.byte	0xa1
 6293 1097 D0080000 		.4byte	0x8d0
 6294 109b 02       		.byte	0x2
 6295 109c 07       		.uleb128 0x7
 6296 109d FB020000 		.4byte	.LASF241
 6297 10a1 1C       		.byte	0x1c
 6298 10a2 A2       		.byte	0xa2
 6299 10a3 E6080000 		.4byte	0x8e6
 6300 10a7 04       		.byte	0x4
 6301 10a8 07       		.uleb128 0x7
 6302 10a9 86070000 		.4byte	.LASF242
 6303 10ad 1C       		.byte	0x1c
 6304 10ae A3       		.byte	0xa3
 6305 10af E6080000 		.4byte	0x8e6
 6306 10b3 08       		.byte	0x8
 6307 10b4 07       		.uleb128 0x7
 6308 10b5 4E0C0000 		.4byte	.LASF243
 6309 10b9 1C       		.byte	0x1c
 6310 10ba A4       		.byte	0xa4
 6311 10bb D0080000 		.4byte	0x8d0
 6312 10bf 0C       		.byte	0xc
 6313 10c0 12       		.uleb128 0x12
 6314 10c1 776E6400 		.ascii	"wnd\000"
 6315 10c5 1C       		.byte	0x1c
 6316 10c6 A5       		.byte	0xa5
 6317 10c7 D0080000 		.4byte	0x8d0
 6318 10cb 0E       		.byte	0xe
 6319 10cc 07       		.uleb128 0x7
 6320 10cd D3040000 		.4byte	.LASF244
 6321 10d1 1C       		.byte	0x1c
 6322 10d2 A6       		.byte	0xa6
 6323 10d3 D0080000 		.4byte	0x8d0
 6324 10d7 10       		.byte	0x10
 6325 10d8 07       		.uleb128 0x7
 6326 10d9 8E000000 		.4byte	.LASF245
 6327 10dd 1C       		.byte	0x1c
 6328 10de A7       		.byte	0xa7
 6329 10df D0080000 		.4byte	0x8d0
 6330 10e3 12       		.byte	0x12
 6331 10e4 00       		.byte	0
 6332 10e5 0A       		.uleb128 0xa
 6333 10e6 04       		.byte	0x4
 6334 10e7 78100000 		.4byte	0x1078
 6335 10eb 1E       		.uleb128 0x1e
 6336 10ec 11070000 		.4byte	.LASF365
 6337 10f0 04       		.byte	0x4
 6338 10f1 1C       		.byte	0x1c
 6339 10f2 3701     		.2byte	0x137
 6340 10f4 11110000 		.4byte	0x1111
 6341 10f8 18       		.uleb128 0x18
 6342 10f9 10000000 		.4byte	.LASF246
ARM GAS  C:\Users\jo\AppData\Local\Temp\ccfChKJS.s 			page 114


 6343 10fd 1C       		.byte	0x1c
 6344 10fe 3801     		.2byte	0x138
 6345 1100 72100000 		.4byte	0x1072
 6346 1104 18       		.uleb128 0x18
 6347 1105 D50F0000 		.4byte	.LASF247
 6348 1109 1C       		.byte	0x1c
 6349 110a 3901     		.2byte	0x139
 6350 110c C40B0000 		.4byte	0xbc4
 6351 1110 00       		.byte	0
 6352 1111 1F       		.uleb128 0x1f
 6353 1112 01       		.byte	0x1
 6354 1113 23       		.byte	0x23
 6355 1114 2B       		.byte	0x2b
 6356 1115 6E110000 		.4byte	0x116e
 6357 1119 1D       		.uleb128 0x1d
 6358 111a 8D0B0000 		.4byte	.LASF248
 6359 111e 00       		.sleb128 0
 6360 111f 1D       		.uleb128 0x1d
 6361 1120 B0070000 		.4byte	.LASF249
 6362 1124 01       		.sleb128 1
 6363 1125 1D       		.uleb128 0x1d
 6364 1126 2D000000 		.4byte	.LASF250
 6365 112a 02       		.sleb128 2
 6366 112b 1D       		.uleb128 0x1d
 6367 112c 950D0000 		.4byte	.LASF251
 6368 1130 03       		.sleb128 3
 6369 1131 1D       		.uleb128 0x1d
 6370 1132 7B080000 		.4byte	.LASF252
 6371 1136 04       		.sleb128 4
 6372 1137 1D       		.uleb128 0x1d
 6373 1138 240C0000 		.4byte	.LASF253
 6374 113c 05       		.sleb128 5
 6375 113d 1D       		.uleb128 0x1d
 6376 113e 4C070000 		.4byte	.LASF254
 6377 1142 06       		.sleb128 6
 6378 1143 1D       		.uleb128 0x1d
 6379 1144 25030000 		.4byte	.LASF255
 6380 1148 07       		.sleb128 7
 6381 1149 1D       		.uleb128 0x1d
 6382 114a 69030000 		.4byte	.LASF256
 6383 114e 08       		.sleb128 8
 6384 114f 1D       		.uleb128 0x1d
 6385 1150 79040000 		.4byte	.LASF257
 6386 1154 09       		.sleb128 9
 6387 1155 1D       		.uleb128 0x1d
 6388 1156 680B0000 		.4byte	.LASF258
 6389 115a 0A       		.sleb128 10
 6390 115b 1D       		.uleb128 0x1d
 6391 115c E9050000 		.4byte	.LASF259
 6392 1160 0B       		.sleb128 11
 6393 1161 1D       		.uleb128 0x1d
 6394 1162 75020000 		.4byte	.LASF260
 6395 1166 0C       		.sleb128 12
 6396 1167 1D       		.uleb128 0x1d
 6397 1168 58050000 		.4byte	.LASF261
 6398 116c 0D       		.sleb128 13
 6399 116d 00       		.byte	0
ARM GAS  C:\Users\jo\AppData\Local\Temp\ccfChKJS.s 			page 115


 6400 116e 06       		.uleb128 0x6
 6401 116f 1C000000 		.4byte	.LASF262
 6402 1173 18       		.byte	0x18
 6403 1174 1D       		.byte	0x1d
 6404 1175 3A       		.byte	0x3a
 6405 1176 0A120000 		.4byte	0x120a
 6406 117a 07       		.uleb128 0x7
 6407 117b C30E0000 		.4byte	.LASF263
 6408 117f 1D       		.byte	0x1d
 6409 1180 3B       		.byte	0x3b
 6410 1181 D0080000 		.4byte	0x8d0
 6411 1185 00       		.byte	0
 6412 1186 07       		.uleb128 0x7
 6413 1187 5D0E0000 		.4byte	.LASF212
 6414 118b 1D       		.byte	0x1d
 6415 118c 3C       		.byte	0x3c
 6416 118d D0080000 		.4byte	0x8d0
 6417 1191 02       		.byte	0x2
 6418 1192 12       		.uleb128 0x12
 6419 1193 667700   		.ascii	"fw\000"
 6420 1196 1D       		.byte	0x1d
 6421 1197 3D       		.byte	0x3d
 6422 1198 D0080000 		.4byte	0x8d0
 6423 119c 04       		.byte	0x4
 6424 119d 07       		.uleb128 0x7
 6425 119e ED0D0000 		.4byte	.LASF264
 6426 11a2 1D       		.byte	0x1d
 6427 11a3 3E       		.byte	0x3e
 6428 11a4 D0080000 		.4byte	0x8d0
 6429 11a8 06       		.byte	0x6
 6430 11a9 07       		.uleb128 0x7
 6431 11aa 67080000 		.4byte	.LASF265
 6432 11ae 1D       		.byte	0x1d
 6433 11af 3F       		.byte	0x3f
 6434 11b0 D0080000 		.4byte	0x8d0
 6435 11b4 08       		.byte	0x8
 6436 11b5 07       		.uleb128 0x7
 6437 11b6 610C0000 		.4byte	.LASF266
 6438 11ba 1D       		.byte	0x1d
 6439 11bb 40       		.byte	0x40
 6440 11bc D0080000 		.4byte	0x8d0
 6441 11c0 0A       		.byte	0xa
 6442 11c1 07       		.uleb128 0x7
 6443 11c2 8E0D0000 		.4byte	.LASF267
 6444 11c6 1D       		.byte	0x1d
 6445 11c7 41       		.byte	0x41
 6446 11c8 D0080000 		.4byte	0x8d0
 6447 11cc 0C       		.byte	0xc
 6448 11cd 07       		.uleb128 0x7
 6449 11ce 0F0B0000 		.4byte	.LASF268
 6450 11d2 1D       		.byte	0x1d
 6451 11d3 42       		.byte	0x42
 6452 11d4 D0080000 		.4byte	0x8d0
 6453 11d8 0E       		.byte	0xe
 6454 11d9 07       		.uleb128 0x7
 6455 11da FE0C0000 		.4byte	.LASF269
 6456 11de 1D       		.byte	0x1d
ARM GAS  C:\Users\jo\AppData\Local\Temp\ccfChKJS.s 			page 116


 6457 11df 43       		.byte	0x43
 6458 11e0 D0080000 		.4byte	0x8d0
 6459 11e4 10       		.byte	0x10
 6460 11e5 07       		.uleb128 0x7
 6461 11e6 7C030000 		.4byte	.LASF270
 6462 11ea 1D       		.byte	0x1d
 6463 11eb 44       		.byte	0x44
 6464 11ec D0080000 		.4byte	0x8d0
 6465 11f0 12       		.byte	0x12
 6466 11f1 12       		.uleb128 0x12
 6467 11f2 65727200 		.ascii	"err\000"
 6468 11f6 1D       		.byte	0x1d
 6469 11f7 45       		.byte	0x45
 6470 11f8 D0080000 		.4byte	0x8d0
 6471 11fc 14       		.byte	0x14
 6472 11fd 07       		.uleb128 0x7
 6473 11fe 790B0000 		.4byte	.LASF271
 6474 1202 1D       		.byte	0x1d
 6475 1203 46       		.byte	0x46
 6476 1204 D0080000 		.4byte	0x8d0
 6477 1208 16       		.byte	0x16
 6478 1209 00       		.byte	0
 6479 120a 06       		.uleb128 0x6
 6480 120b 30020000 		.4byte	.LASF272
 6481 120f 14       		.byte	0x14
 6482 1210 1D       		.byte	0x1d
 6483 1211 5A       		.byte	0x5a
 6484 1212 5F120000 		.4byte	0x125f
 6485 1216 07       		.uleb128 0x7
 6486 1217 28000000 		.4byte	.LASF159
 6487 121b 1D       		.byte	0x1d
 6488 121c 5C       		.byte	0x5c
 6489 121d F4060000 		.4byte	0x6f4
 6490 1221 00       		.byte	0
 6491 1222 07       		.uleb128 0x7
 6492 1223 220B0000 		.4byte	.LASF273
 6493 1227 1D       		.byte	0x1d
 6494 1228 5E       		.byte	0x5e
 6495 1229 FC080000 		.4byte	0x8fc
 6496 122d 04       		.byte	0x4
 6497 122e 07       		.uleb128 0x7
 6498 122f 2E080000 		.4byte	.LASF274
 6499 1233 1D       		.byte	0x1d
 6500 1234 5F       		.byte	0x5f
 6501 1235 FC080000 		.4byte	0x8fc
 6502 1239 08       		.byte	0x8
 6503 123a 12       		.uleb128 0x12
 6504 123b 6D617800 		.ascii	"max\000"
 6505 123f 1D       		.byte	0x1d
 6506 1240 60       		.byte	0x60
 6507 1241 FC080000 		.4byte	0x8fc
 6508 1245 0C       		.byte	0xc
 6509 1246 12       		.uleb128 0x12
 6510 1247 65727200 		.ascii	"err\000"
 6511 124b 1D       		.byte	0x1d
 6512 124c 61       		.byte	0x61
 6513 124d D0080000 		.4byte	0x8d0
ARM GAS  C:\Users\jo\AppData\Local\Temp\ccfChKJS.s 			page 117


 6514 1251 10       		.byte	0x10
 6515 1252 07       		.uleb128 0x7
 6516 1253 01060000 		.4byte	.LASF275
 6517 1257 1D       		.byte	0x1d
 6518 1258 62       		.byte	0x62
 6519 1259 D0080000 		.4byte	0x8d0
 6520 125d 12       		.byte	0x12
 6521 125e 00       		.byte	0
 6522 125f 06       		.uleb128 0x6
 6523 1260 ED020000 		.4byte	.LASF276
 6524 1264 06       		.byte	0x6
 6525 1265 1D       		.byte	0x1d
 6526 1266 65       		.byte	0x65
 6527 1267 90120000 		.4byte	0x1290
 6528 126b 07       		.uleb128 0x7
 6529 126c 2E080000 		.4byte	.LASF274
 6530 1270 1D       		.byte	0x1d
 6531 1271 66       		.byte	0x66
 6532 1272 D0080000 		.4byte	0x8d0
 6533 1276 00       		.byte	0
 6534 1277 12       		.uleb128 0x12
 6535 1278 6D617800 		.ascii	"max\000"
 6536 127c 1D       		.byte	0x1d
 6537 127d 67       		.byte	0x67
 6538 127e D0080000 		.4byte	0x8d0
 6539 1282 02       		.byte	0x2
 6540 1283 12       		.uleb128 0x12
 6541 1284 65727200 		.ascii	"err\000"
 6542 1288 1D       		.byte	0x1d
 6543 1289 68       		.byte	0x68
 6544 128a D0080000 		.4byte	0x8d0
 6545 128e 04       		.byte	0x4
 6546 128f 00       		.byte	0
 6547 1290 06       		.uleb128 0x6
 6548 1291 410D0000 		.4byte	.LASF277
 6549 1295 12       		.byte	0x12
 6550 1296 1D       		.byte	0x1d
 6551 1297 6B       		.byte	0x6b
 6552 1298 C1120000 		.4byte	0x12c1
 6553 129c 12       		.uleb128 0x12
 6554 129d 73656D00 		.ascii	"sem\000"
 6555 12a1 1D       		.byte	0x1d
 6556 12a2 6C       		.byte	0x6c
 6557 12a3 5F120000 		.4byte	0x125f
 6558 12a7 00       		.byte	0
 6559 12a8 07       		.uleb128 0x7
 6560 12a9 8E030000 		.4byte	.LASF278
 6561 12ad 1D       		.byte	0x1d
 6562 12ae 6D       		.byte	0x6d
 6563 12af 5F120000 		.4byte	0x125f
 6564 12b3 06       		.byte	0x6
 6565 12b4 07       		.uleb128 0x7
 6566 12b5 A90B0000 		.4byte	.LASF279
 6567 12b9 1D       		.byte	0x1d
 6568 12ba 6E       		.byte	0x6e
 6569 12bb 5F120000 		.4byte	0x125f
 6570 12bf 0C       		.byte	0xc
ARM GAS  C:\Users\jo\AppData\Local\Temp\ccfChKJS.s 			page 118


 6571 12c0 00       		.byte	0
 6572 12c1 20       		.uleb128 0x20
 6573 12c2 96040000 		.4byte	.LASF280
 6574 12c6 D401     		.2byte	0x1d4
 6575 12c8 1D       		.byte	0x1d
 6576 12c9 71       		.byte	0x71
 6577 12ca 47130000 		.4byte	0x1347
 6578 12ce 07       		.uleb128 0x7
 6579 12cf A2050000 		.4byte	.LASF281
 6580 12d3 1D       		.byte	0x1d
 6581 12d4 73       		.byte	0x73
 6582 12d5 6E110000 		.4byte	0x116e
 6583 12d9 00       		.byte	0
 6584 12da 07       		.uleb128 0x7
 6585 12db D1030000 		.4byte	.LASF282
 6586 12df 1D       		.byte	0x1d
 6587 12e0 76       		.byte	0x76
 6588 12e1 6E110000 		.4byte	0x116e
 6589 12e5 18       		.byte	0x18
 6590 12e6 07       		.uleb128 0x7
 6591 12e7 94030000 		.4byte	.LASF283
 6592 12eb 1D       		.byte	0x1d
 6593 12ec 79       		.byte	0x79
 6594 12ed 6E110000 		.4byte	0x116e
 6595 12f1 30       		.byte	0x30
 6596 12f2 12       		.uleb128 0x12
 6597 12f3 697000   		.ascii	"ip\000"
 6598 12f6 1D       		.byte	0x1d
 6599 12f7 7C       		.byte	0x7c
 6600 12f8 6E110000 		.4byte	0x116e
 6601 12fc 48       		.byte	0x48
 6602 12fd 07       		.uleb128 0x7
 6603 12fe C50A0000 		.4byte	.LASF284
 6604 1302 1D       		.byte	0x1d
 6605 1303 7F       		.byte	0x7f
 6606 1304 6E110000 		.4byte	0x116e
 6607 1308 60       		.byte	0x60
 6608 1309 12       		.uleb128 0x12
 6609 130a 75647000 		.ascii	"udp\000"
 6610 130e 1D       		.byte	0x1d
 6611 130f 85       		.byte	0x85
 6612 1310 6E110000 		.4byte	0x116e
 6613 1314 78       		.byte	0x78
 6614 1315 12       		.uleb128 0x12
 6615 1316 74637000 		.ascii	"tcp\000"
 6616 131a 1D       		.byte	0x1d
 6617 131b 88       		.byte	0x88
 6618 131c 6E110000 		.4byte	0x116e
 6619 1320 90       		.byte	0x90
 6620 1321 12       		.uleb128 0x12
 6621 1322 6D656D00 		.ascii	"mem\000"
 6622 1326 1D       		.byte	0x1d
 6623 1327 8B       		.byte	0x8b
 6624 1328 0A120000 		.4byte	0x120a
 6625 132c A8       		.byte	0xa8
 6626 132d 07       		.uleb128 0x7
 6627 132e 490C0000 		.4byte	.LASF285
ARM GAS  C:\Users\jo\AppData\Local\Temp\ccfChKJS.s 			page 119


 6628 1332 1D       		.byte	0x1d
 6629 1333 8E       		.byte	0x8e
 6630 1334 47130000 		.4byte	0x1347
 6631 1338 BC       		.byte	0xbc
 6632 1339 21       		.uleb128 0x21
 6633 133a 73797300 		.ascii	"sys\000"
 6634 133e 1D       		.byte	0x1d
 6635 133f 91       		.byte	0x91
 6636 1340 90120000 		.4byte	0x1290
 6637 1344 C001     		.2byte	0x1c0
 6638 1346 00       		.byte	0
 6639 1347 15       		.uleb128 0x15
 6640 1348 0A120000 		.4byte	0x120a
 6641 134c 57130000 		.4byte	0x1357
 6642 1350 16       		.uleb128 0x16
 6643 1351 C5040000 		.4byte	0x4c5
 6644 1355 0C       		.byte	0xc
 6645 1356 00       		.byte	0
 6646 1357 22       		.uleb128 0x22
 6647 1358 690F0000 		.4byte	.LASF288
 6648 135c 01       		.byte	0x1
 6649 135d 0606     		.2byte	0x606
 6650 135f 01       		.byte	0x1
 6651 1360 AB130000 		.4byte	0x13ab
 6652 1364 23       		.uleb128 0x23
 6653 1365 70636200 		.ascii	"pcb\000"
 6654 1369 01       		.byte	0x1
 6655 136a 0606     		.2byte	0x606
 6656 136c C40B0000 		.4byte	0xbc4
 6657 1370 24       		.uleb128 0x24
 6658 1371 6300     		.ascii	"c\000"
 6659 1373 01       		.byte	0x1
 6660 1374 0806     		.2byte	0x608
 6661 1376 D0080000 		.4byte	0x8d0
 6662 137a 25       		.uleb128 0x25
 6663 137b BD0D0000 		.4byte	.LASF286
 6664 137f 01       		.byte	0x1
 6665 1380 0806     		.2byte	0x608
 6666 1382 D0080000 		.4byte	0x8d0
 6667 1386 24       		.uleb128 0x24
 6668 1387 6D737300 		.ascii	"mss\000"
 6669 138b 01       		.byte	0x1
 6670 138c 0906     		.2byte	0x609
 6671 138e D0080000 		.4byte	0x8d0
 6672 1392 25       		.uleb128 0x25
 6673 1393 590B0000 		.4byte	.LASF287
 6674 1397 01       		.byte	0x1
 6675 1398 0A06     		.2byte	0x60a
 6676 139a AB130000 		.4byte	0x13ab
 6677 139e 24       		.uleb128 0x24
 6678 139f 6F707400 		.ascii	"opt\000"
 6679 13a3 01       		.byte	0x1
 6680 13a4 0A06     		.2byte	0x60a
 6681 13a6 BA080000 		.4byte	0x8ba
 6682 13aa 00       		.byte	0
 6683 13ab 0A       		.uleb128 0xa
 6684 13ac 04       		.byte	0x4
ARM GAS  C:\Users\jo\AppData\Local\Temp\ccfChKJS.s 			page 120


 6685 13ad BA080000 		.4byte	0x8ba
 6686 13b1 22       		.uleb128 0x22
 6687 13b2 F9070000 		.4byte	.LASF289
 6688 13b6 03       		.byte	0x3
 6689 13b7 9E01     		.2byte	0x19e
 6690 13b9 03       		.byte	0x3
 6691 13ba CB130000 		.4byte	0x13cb
 6692 13be 26       		.uleb128 0x26
 6693 13bf 01040000 		.4byte	.LASF290
 6694 13c3 03       		.byte	0x3
 6695 13c4 9E01     		.2byte	0x19e
 6696 13c6 F4060000 		.4byte	0x6f4
 6697 13ca 00       		.byte	0
 6698 13cb 27       		.uleb128 0x27
 6699 13cc F8050000 		.4byte	.LASF302
 6700 13d0 02       		.byte	0x2
 6701 13d1 45       		.byte	0x45
 6702 13d2 25000000 		.4byte	0x25
 6703 13d6 03       		.byte	0x3
 6704 13d7 08140000 		.4byte	0x1408
 6705 13db 28       		.uleb128 0x28
 6706 13dc 63687000 		.ascii	"chp\000"
 6707 13e0 02       		.byte	0x2
 6708 13e1 45       		.byte	0x45
 6709 13e2 08140000 		.4byte	0x1408
 6710 13e6 28       		.uleb128 0x28
 6711 13e7 666D7400 		.ascii	"fmt\000"
 6712 13eb 02       		.byte	0x2
 6713 13ec 45       		.byte	0x45
 6714 13ed F4060000 		.4byte	0x6f4
 6715 13f1 29       		.uleb128 0x29
 6716 13f2 2A       		.uleb128 0x2a
 6717 13f3 617000   		.ascii	"ap\000"
 6718 13f6 02       		.byte	0x2
 6719 13f7 46       		.byte	0x46
 6720 13f8 AF080000 		.4byte	0x8af
 6721 13fc 2B       		.uleb128 0x2b
 6722 13fd 290F0000 		.4byte	.LASF291
 6723 1401 02       		.byte	0x2
 6724 1402 47       		.byte	0x47
 6725 1403 25000000 		.4byte	0x25
 6726 1407 00       		.byte	0
 6727 1408 0A       		.uleb128 0xa
 6728 1409 04       		.byte	0x4
 6729 140a 13080000 		.4byte	0x813
 6730 140e 2C       		.uleb128 0x2c
 6731 140f 8F020000 		.4byte	.LASF293
 6732 1413 01       		.byte	0x1
 6733 1414 2003     		.2byte	0x320
 6734 1416 00000000 		.4byte	.LFB264
 6735 141a B4000000 		.4byte	.LFE264-.LFB264
 6736 141e 01       		.uleb128 0x1
 6737 141f 9C       		.byte	0x9c
 6738 1420 BB140000 		.4byte	0x14bb
 6739 1424 2D       		.uleb128 0x2d
 6740 1425 41000000 		.4byte	.LASF292
 6741 1429 01       		.byte	0x1
ARM GAS  C:\Users\jo\AppData\Local\Temp\ccfChKJS.s 			page 121


 6742 142a 2003     		.2byte	0x320
 6743 142c CF0F0000 		.4byte	0xfcf
 6744 1430 00000000 		.4byte	.LLST0
 6745 1434 2D       		.uleb128 0x2d
 6746 1435 18010000 		.4byte	.LASF141
 6747 1439 01       		.byte	0x1
 6748 143a 2003     		.2byte	0x320
 6749 143c CF0F0000 		.4byte	0xfcf
 6750 1440 1E000000 		.4byte	.LLST1
 6751 1444 2E       		.uleb128 0x2e
 6752 1445 70000000 		.4byte	.LASF295
 6753 1449 01       		.byte	0x1
 6754 144a 2203     		.2byte	0x322
 6755 144c CF0F0000 		.4byte	0xfcf
 6756 1450 8A000000 		.4byte	.LLST2
 6757 1454 2F       		.uleb128 0x2f
 6758 1455 10000000 		.4byte	.LVL2
 6759 1459 78290000 		.4byte	0x2978
 6760 145d 30       		.uleb128 0x30
 6761 145e 40000000 		.4byte	.LVL5
 6762 1462 8D290000 		.4byte	0x298d
 6763 1466 71140000 		.4byte	0x1471
 6764 146a 31       		.uleb128 0x31
 6765 146b 01       		.uleb128 0x1
 6766 146c 50       		.byte	0x50
 6767 146d 02       		.uleb128 0x2
 6768 146e 77       		.byte	0x77
 6769 146f 00       		.sleb128 0
 6770 1470 00       		.byte	0
 6771 1471 2F       		.uleb128 0x2f
 6772 1472 62000000 		.4byte	.LVL7
 6773 1476 78290000 		.4byte	0x2978
 6774 147a 30       		.uleb128 0x30
 6775 147b 74000000 		.4byte	.LVL8
 6776 147f 9F290000 		.4byte	0x299f
 6777 1483 8D140000 		.4byte	0x148d
 6778 1487 31       		.uleb128 0x31
 6779 1488 01       		.uleb128 0x1
 6780 1489 50       		.byte	0x50
 6781 148a 01       		.uleb128 0x1
 6782 148b 31       		.byte	0x31
 6783 148c 00       		.byte	0
 6784 148d 30       		.uleb128 0x30
 6785 148e 82000000 		.4byte	.LVL10
 6786 1492 8D290000 		.4byte	0x298d
 6787 1496 A1140000 		.4byte	0x14a1
 6788 149a 31       		.uleb128 0x31
 6789 149b 01       		.uleb128 0x1
 6790 149c 50       		.byte	0x50
 6791 149d 02       		.uleb128 0x2
 6792 149e 77       		.byte	0x77
 6793 149f 00       		.sleb128 0
 6794 14a0 00       		.byte	0
 6795 14a1 2F       		.uleb128 0x2f
 6796 14a2 A0000000 		.4byte	.LVL14
 6797 14a6 B4290000 		.4byte	0x29b4
 6798 14aa 32       		.uleb128 0x32
ARM GAS  C:\Users\jo\AppData\Local\Temp\ccfChKJS.s 			page 122


 6799 14ab AC000000 		.4byte	.LVL16
 6800 14af CA290000 		.4byte	0x29ca
 6801 14b3 31       		.uleb128 0x31
 6802 14b4 01       		.uleb128 0x1
 6803 14b5 50       		.byte	0x50
 6804 14b6 02       		.uleb128 0x2
 6805 14b7 77       		.byte	0x77
 6806 14b8 00       		.sleb128 0
 6807 14b9 00       		.byte	0
 6808 14ba 00       		.byte	0
 6809 14bb 33       		.uleb128 0x33
 6810 14bc 57130000 		.4byte	0x1357
 6811 14c0 00000000 		.4byte	.LFB267
 6812 14c4 90000000 		.4byte	.LFE267-.LFB267
 6813 14c8 01       		.uleb128 0x1
 6814 14c9 9C       		.byte	0x9c
 6815 14ca 18150000 		.4byte	0x1518
 6816 14ce 34       		.uleb128 0x34
 6817 14cf 64130000 		.4byte	0x1364
 6818 14d3 06       		.uleb128 0x6
 6819 14d4 FA       		.byte	0xfa
 6820 14d5 64130000 		.4byte	0x1364
 6821 14d9 9F       		.byte	0x9f
 6822 14da 35       		.uleb128 0x35
 6823 14db 70130000 		.4byte	0x1370
 6824 14df A8000000 		.4byte	.LLST3
 6825 14e3 36       		.uleb128 0x36
 6826 14e4 7A130000 		.4byte	0x137a
 6827 14e8 01       		.uleb128 0x1
 6828 14e9 50       		.byte	0x50
 6829 14ea 35       		.uleb128 0x35
 6830 14eb 86130000 		.4byte	0x1386
 6831 14ef E8000000 		.4byte	.LLST4
 6832 14f3 35       		.uleb128 0x35
 6833 14f4 92130000 		.4byte	0x1392
 6834 14f8 17010000 		.4byte	.LLST5
 6835 14fc 35       		.uleb128 0x35
 6836 14fd 9E130000 		.4byte	0x139e
 6837 1501 44010000 		.4byte	.LLST6
 6838 1505 2F       		.uleb128 0x2f
 6839 1506 0E000000 		.4byte	.LVL19
 6840 150a 78290000 		.4byte	0x2978
 6841 150e 2F       		.uleb128 0x2f
 6842 150f 20000000 		.4byte	.LVL22
 6843 1513 78290000 		.4byte	0x2978
 6844 1517 00       		.byte	0
 6845 1518 33       		.uleb128 0x33
 6846 1519 CB130000 		.4byte	0x13cb
 6847 151d 00000000 		.4byte	.LFB268
 6848 1521 28000000 		.4byte	.LFE268-.LFB268
 6849 1525 01       		.uleb128 0x1
 6850 1526 9C       		.byte	0x9c
 6851 1527 77150000 		.4byte	0x1577
 6852 152b 37       		.uleb128 0x37
 6853 152c DB130000 		.4byte	0x13db
 6854 1530 6A010000 		.4byte	.LLST7
 6855 1534 34       		.uleb128 0x34
ARM GAS  C:\Users\jo\AppData\Local\Temp\ccfChKJS.s 			page 123


 6856 1535 E6130000 		.4byte	0x13e6
 6857 1539 02       		.uleb128 0x2
 6858 153a 91       		.byte	0x91
 6859 153b 74       		.sleb128 -12
 6860 153c 29       		.uleb128 0x29
 6861 153d 36       		.uleb128 0x36
 6862 153e F2130000 		.4byte	0x13f2
 6863 1542 02       		.uleb128 0x2
 6864 1543 91       		.byte	0x91
 6865 1544 6C       		.sleb128 -20
 6866 1545 36       		.uleb128 0x36
 6867 1546 FC130000 		.4byte	0x13fc
 6868 154a 01       		.uleb128 0x1
 6869 154b 50       		.byte	0x50
 6870 154c 34       		.uleb128 0x34
 6871 154d E6130000 		.4byte	0x13e6
 6872 1551 06       		.uleb128 0x6
 6873 1552 03       		.byte	0x3
 6874 1553 00000000 		.4byte	.LC0
 6875 1557 9F       		.byte	0x9f
 6876 1558 38       		.uleb128 0x38
 6877 1559 DB130000 		.4byte	0x13db
 6878 155d 32       		.uleb128 0x32
 6879 155e 14000000 		.4byte	.LVL38
 6880 1562 DC290000 		.4byte	0x29dc
 6881 1566 31       		.uleb128 0x31
 6882 1567 01       		.uleb128 0x1
 6883 1568 52       		.byte	0x52
 6884 1569 02       		.uleb128 0x2
 6885 156a 91       		.byte	0x91
 6886 156b 60       		.sleb128 -32
 6887 156c 31       		.uleb128 0x31
 6888 156d 01       		.uleb128 0x1
 6889 156e 51       		.byte	0x51
 6890 156f 05       		.uleb128 0x5
 6891 1570 03       		.byte	0x3
 6892 1571 00000000 		.4byte	.LC0
 6893 1575 00       		.byte	0
 6894 1576 00       		.byte	0
 6895 1577 2C       		.uleb128 0x2c
 6896 1578 D80C0000 		.4byte	.LASF294
 6897 157c 01       		.byte	0x1
 6898 157d 4F03     		.2byte	0x34f
 6899 157f 00000000 		.4byte	.LFB265
 6900 1583 480B0000 		.4byte	.LFE265-.LFB265
 6901 1587 01       		.uleb128 0x1
 6902 1588 9C       		.byte	0x9c
 6903 1589 041F0000 		.4byte	0x1f04
 6904 158d 39       		.uleb128 0x39
 6905 158e 70636200 		.ascii	"pcb\000"
 6906 1592 01       		.byte	0x1
 6907 1593 4F03     		.2byte	0x34f
 6908 1595 C40B0000 		.4byte	0xbc4
 6909 1599 8B010000 		.4byte	.LLST8
 6910 159d 2E       		.uleb128 0x2e
 6911 159e 18010000 		.4byte	.LASF141
 6912 15a2 01       		.byte	0x1
ARM GAS  C:\Users\jo\AppData\Local\Temp\ccfChKJS.s 			page 124


 6913 15a3 5103     		.2byte	0x351
 6914 15a5 CF0F0000 		.4byte	0xfcf
 6915 15a9 47020000 		.4byte	.LLST9
 6916 15ad 2E       		.uleb128 0x2e
 6917 15ae 91010000 		.4byte	.LASF296
 6918 15b2 01       		.byte	0x1
 6919 15b3 5303     		.2byte	0x353
 6920 15b5 CF0F0000 		.4byte	0xfcf
 6921 15b9 FF020000 		.4byte	.LLST10
 6922 15bd 2E       		.uleb128 0x2e
 6923 15be 41000000 		.4byte	.LASF292
 6924 15c2 01       		.byte	0x1
 6925 15c3 5303     		.2byte	0x353
 6926 15c5 CF0F0000 		.4byte	0xfcf
 6927 15c9 49030000 		.4byte	.LLST11
 6928 15cd 3A       		.uleb128 0x3a
 6929 15ce 7000     		.ascii	"p\000"
 6930 15d0 01       		.byte	0x1
 6931 15d1 5503     		.2byte	0x355
 6932 15d3 73090000 		.4byte	0x973
 6933 15d7 9E030000 		.4byte	.LLST12
 6934 15db 3A       		.uleb128 0x3a
 6935 15dc 6F666600 		.ascii	"off\000"
 6936 15e0 01       		.byte	0x1
 6937 15e1 5603     		.2byte	0x356
 6938 15e3 F1080000 		.4byte	0x8f1
 6939 15e7 DD030000 		.4byte	.LLST13
 6940 15eb 3A       		.uleb128 0x3a
 6941 15ec 6D00     		.ascii	"m\000"
 6942 15ee 01       		.byte	0x1
 6943 15ef 5703     		.2byte	0x357
 6944 15f1 DB080000 		.4byte	0x8db
 6945 15f5 32040000 		.4byte	.LLST14
 6946 15f9 2E       		.uleb128 0x2e
 6947 15fa EA070000 		.4byte	.LASF297
 6948 15fe 01       		.byte	0x1
 6949 15ff 5803     		.2byte	0x358
 6950 1601 E6080000 		.4byte	0x8e6
 6951 1605 7E040000 		.4byte	.LLST15
 6952 1609 2E       		.uleb128 0x2e
 6953 160a 10030000 		.4byte	.LASF298
 6954 160e 01       		.byte	0x1
 6955 160f 5903     		.2byte	0x359
 6956 1611 D0080000 		.4byte	0x8d0
 6957 1615 D6040000 		.4byte	.LLST16
 6958 1619 2E       		.uleb128 0x2e
 6959 161a 3C0C0000 		.4byte	.LASF299
 6960 161e 01       		.byte	0x1
 6961 161f 5A03     		.2byte	0x35a
 6962 1621 25000000 		.4byte	0x25
 6963 1625 E9040000 		.4byte	.LLST17
 6964 1629 3B       		.uleb128 0x3b
 6965 162a B1130000 		.4byte	0x13b1
 6966 162e E0010000 		.4byte	.LBB55
 6967 1632 08000000 		.4byte	.LBE55-.LBB55
 6968 1636 01       		.byte	0x1
 6969 1637 2E04     		.2byte	0x42e
ARM GAS  C:\Users\jo\AppData\Local\Temp\ccfChKJS.s 			page 125


 6970 1639 5A160000 		.4byte	0x165a
 6971 163d 37       		.uleb128 0x37
 6972 163e BE130000 		.4byte	0x13be
 6973 1642 51050000 		.4byte	.LLST18
 6974 1646 32       		.uleb128 0x32
 6975 1647 E6010000 		.4byte	.LVL67
 6976 164b FB290000 		.4byte	0x29fb
 6977 164f 31       		.uleb128 0x31
 6978 1650 01       		.uleb128 0x1
 6979 1651 50       		.byte	0x50
 6980 1652 05       		.uleb128 0x5
 6981 1653 03       		.byte	0x3
 6982 1654 68000000 		.4byte	.LC3
 6983 1658 00       		.byte	0
 6984 1659 00       		.byte	0
 6985 165a 3B       		.uleb128 0x3b
 6986 165b B1130000 		.4byte	0x13b1
 6987 165f 08020000 		.4byte	.LBB57
 6988 1663 08000000 		.4byte	.LBE57-.LBB57
 6989 1667 01       		.byte	0x1
 6990 1668 3704     		.2byte	0x437
 6991 166a 8B160000 		.4byte	0x168b
 6992 166e 37       		.uleb128 0x37
 6993 166f BE130000 		.4byte	0x13be
 6994 1673 69050000 		.4byte	.LLST19
 6995 1677 32       		.uleb128 0x32
 6996 1678 0E020000 		.4byte	.LVL70
 6997 167c FB290000 		.4byte	0x29fb
 6998 1680 31       		.uleb128 0x31
 6999 1681 01       		.uleb128 0x1
 7000 1682 50       		.byte	0x50
 7001 1683 05       		.uleb128 0x5
 7002 1684 03       		.byte	0x3
 7003 1685 90000000 		.4byte	.LC4
 7004 1689 00       		.byte	0
 7005 168a 00       		.byte	0
 7006 168b 3B       		.uleb128 0x3b
 7007 168c B1130000 		.4byte	0x13b1
 7008 1690 22020000 		.4byte	.LBB59
 7009 1694 08000000 		.4byte	.LBE59-.LBB59
 7010 1698 01       		.byte	0x1
 7011 1699 6003     		.2byte	0x360
 7012 169b BC160000 		.4byte	0x16bc
 7013 169f 37       		.uleb128 0x37
 7014 16a0 BE130000 		.4byte	0x13be
 7015 16a4 81050000 		.4byte	.LLST20
 7016 16a8 32       		.uleb128 0x32
 7017 16a9 28020000 		.4byte	.LVL74
 7018 16ad FB290000 		.4byte	0x29fb
 7019 16b1 31       		.uleb128 0x31
 7020 16b2 01       		.uleb128 0x1
 7021 16b3 50       		.byte	0x50
 7022 16b4 05       		.uleb128 0x5
 7023 16b5 03       		.byte	0x3
 7024 16b6 28000000 		.4byte	.LC1
 7025 16ba 00       		.byte	0
 7026 16bb 00       		.byte	0
ARM GAS  C:\Users\jo\AppData\Local\Temp\ccfChKJS.s 			page 126


 7027 16bc 3C       		.uleb128 0x3c
 7028 16bd B1130000 		.4byte	0x13b1
 7029 16c1 DA030000 		.4byte	.LBB61
 7030 16c5 00000000 		.4byte	.Ldebug_ranges0+0
 7031 16c9 01       		.byte	0x1
 7032 16ca C905     		.2byte	0x5c9
 7033 16cc ED160000 		.4byte	0x16ed
 7034 16d0 37       		.uleb128 0x37
 7035 16d1 BE130000 		.4byte	0x13be
 7036 16d5 99050000 		.4byte	.LLST21
 7037 16d9 3D       		.uleb128 0x3d
 7038 16da E6030000 		.4byte	.LVL95
 7039 16de FB290000 		.4byte	0x29fb
 7040 16e2 31       		.uleb128 0x31
 7041 16e3 01       		.uleb128 0x1
 7042 16e4 50       		.byte	0x50
 7043 16e5 05       		.uleb128 0x5
 7044 16e6 03       		.byte	0x3
 7045 16e7 F4000000 		.4byte	.LC9
 7046 16eb 00       		.byte	0
 7047 16ec 00       		.byte	0
 7048 16ed 3E       		.uleb128 0x3e
 7049 16ee 7E040000 		.4byte	.LBB65
 7050 16f2 16000000 		.4byte	.LBE65-.LBB65
 7051 16f6 0B170000 		.4byte	0x170b
 7052 16fa 2E       		.uleb128 0x2e
 7053 16fb A6040000 		.4byte	.LASF300
 7054 16ff 01       		.byte	0x1
 7055 1700 E003     		.2byte	0x3e0
 7056 1702 D0080000 		.4byte	0x8d0
 7057 1706 B1050000 		.4byte	.LLST22
 7058 170a 00       		.byte	0
 7059 170b 3B       		.uleb128 0x3b
 7060 170c B1130000 		.4byte	0x13b1
 7061 1710 2A050000 		.4byte	.LBB66
 7062 1714 0A000000 		.4byte	.LBE66-.LBB66
 7063 1718 01       		.byte	0x1
 7064 1719 0704     		.2byte	0x407
 7065 171b 3C170000 		.4byte	0x173c
 7066 171f 37       		.uleb128 0x37
 7067 1720 BE130000 		.4byte	0x13be
 7068 1724 C4050000 		.4byte	.LLST23
 7069 1728 32       		.uleb128 0x32
 7070 1729 30050000 		.4byte	.LVL110
 7071 172d FB290000 		.4byte	0x29fb
 7072 1731 31       		.uleb128 0x31
 7073 1732 01       		.uleb128 0x1
 7074 1733 50       		.byte	0x50
 7075 1734 05       		.uleb128 0x5
 7076 1735 03       		.byte	0x3
 7077 1736 90000000 		.4byte	.LC4
 7078 173a 00       		.byte	0
 7079 173b 00       		.byte	0
 7080 173c 3B       		.uleb128 0x3b
 7081 173d B1130000 		.4byte	0x13b1
 7082 1741 5C050000 		.4byte	.LBB68
 7083 1745 08000000 		.4byte	.LBE68-.LBB68
ARM GAS  C:\Users\jo\AppData\Local\Temp\ccfChKJS.s 			page 127


 7084 1749 01       		.byte	0x1
 7085 174a FC03     		.2byte	0x3fc
 7086 174c 6D170000 		.4byte	0x176d
 7087 1750 37       		.uleb128 0x37
 7088 1751 BE130000 		.4byte	0x13be
 7089 1755 DC050000 		.4byte	.LLST24
 7090 1759 32       		.uleb128 0x32
 7091 175a 62050000 		.4byte	.LVL113
 7092 175e FB290000 		.4byte	0x29fb
 7093 1762 31       		.uleb128 0x31
 7094 1763 01       		.uleb128 0x1
 7095 1764 50       		.byte	0x50
 7096 1765 05       		.uleb128 0x5
 7097 1766 03       		.byte	0x3
 7098 1767 68000000 		.4byte	.LC3
 7099 176b 00       		.byte	0
 7100 176c 00       		.byte	0
 7101 176d 3E       		.uleb128 0x3e
 7102 176e 3A070000 		.4byte	.LBB70
 7103 1772 08000000 		.4byte	.LBE70-.LBB70
 7104 1776 94170000 		.4byte	0x1794
 7105 177a 2E       		.uleb128 0x2e
 7106 177b D00D0000 		.4byte	.LASF301
 7107 177f 01       		.byte	0x1
 7108 1780 E604     		.2byte	0x4e6
 7109 1782 CF0F0000 		.4byte	0xfcf
 7110 1786 F4050000 		.4byte	.LLST25
 7111 178a 2F       		.uleb128 0x2f
 7112 178b 42070000 		.4byte	.LVL139
 7113 178f 8D290000 		.4byte	0x298d
 7114 1793 00       		.byte	0
 7115 1794 3B       		.uleb128 0x3b
 7116 1795 B1130000 		.4byte	0x13b1
 7117 1799 58080000 		.4byte	.LBB71
 7118 179d 08000000 		.4byte	.LBE71-.LBB71
 7119 17a1 01       		.byte	0x1
 7120 17a2 3605     		.2byte	0x536
 7121 17a4 C5170000 		.4byte	0x17c5
 7122 17a8 37       		.uleb128 0x37
 7123 17a9 BE130000 		.4byte	0x13be
 7124 17ad 07060000 		.4byte	.LLST26
 7125 17b1 32       		.uleb128 0x32
 7126 17b2 5E080000 		.4byte	.LVL153
 7127 17b6 FB290000 		.4byte	0x29fb
 7128 17ba 31       		.uleb128 0x31
 7129 17bb 01       		.uleb128 0x1
 7130 17bc 50       		.byte	0x50
 7131 17bd 05       		.uleb128 0x5
 7132 17be 03       		.byte	0x3
 7133 17bf 88010000 		.4byte	.LC12
 7134 17c3 00       		.byte	0
 7135 17c4 00       		.byte	0
 7136 17c5 3B       		.uleb128 0x3b
 7137 17c6 B1130000 		.4byte	0x13b1
 7138 17ca B8080000 		.4byte	.LBB73
 7139 17ce 08000000 		.4byte	.LBE73-.LBB73
 7140 17d2 01       		.byte	0x1
ARM GAS  C:\Users\jo\AppData\Local\Temp\ccfChKJS.s 			page 128


 7141 17d3 AB04     		.2byte	0x4ab
 7142 17d5 F6170000 		.4byte	0x17f6
 7143 17d9 37       		.uleb128 0x37
 7144 17da BE130000 		.4byte	0x13be
 7145 17de 1F060000 		.4byte	.LLST27
 7146 17e2 32       		.uleb128 0x32
 7147 17e3 BE080000 		.4byte	.LVL161
 7148 17e7 FB290000 		.4byte	0x29fb
 7149 17eb 31       		.uleb128 0x31
 7150 17ec 01       		.uleb128 0x1
 7151 17ed 50       		.byte	0x50
 7152 17ee 05       		.uleb128 0x5
 7153 17ef 03       		.byte	0x3
 7154 17f0 E0000000 		.4byte	.LC8
 7155 17f4 00       		.byte	0
 7156 17f5 00       		.byte	0
 7157 17f6 3B       		.uleb128 0x3b
 7158 17f7 B1130000 		.4byte	0x13b1
 7159 17fb D2080000 		.4byte	.LBB75
 7160 17ff 08000000 		.4byte	.LBE75-.LBB75
 7161 1803 01       		.byte	0x1
 7162 1804 9704     		.2byte	0x497
 7163 1806 27180000 		.4byte	0x1827
 7164 180a 37       		.uleb128 0x37
 7165 180b BE130000 		.4byte	0x13be
 7166 180f 37060000 		.4byte	.LLST28
 7167 1813 32       		.uleb128 0x32
 7168 1814 D8080000 		.4byte	.LVL164
 7169 1818 FB290000 		.4byte	0x29fb
 7170 181c 31       		.uleb128 0x31
 7171 181d 01       		.uleb128 0x1
 7172 181e 50       		.byte	0x50
 7173 181f 05       		.uleb128 0x5
 7174 1820 03       		.byte	0x3
 7175 1821 C0000000 		.4byte	.LC6
 7176 1825 00       		.byte	0
 7177 1826 00       		.byte	0
 7178 1827 3B       		.uleb128 0x3b
 7179 1828 B1130000 		.4byte	0x13b1
 7180 182c 4E090000 		.4byte	.LBB77
 7181 1830 0E000000 		.4byte	.LBE77-.LBB77
 7182 1834 01       		.byte	0x1
 7183 1835 9904     		.2byte	0x499
 7184 1837 58180000 		.4byte	0x1858
 7185 183b 37       		.uleb128 0x37
 7186 183c BE130000 		.4byte	0x13be
 7187 1840 4F060000 		.4byte	.LLST29
 7188 1844 32       		.uleb128 0x32
 7189 1845 54090000 		.4byte	.LVL173
 7190 1849 FB290000 		.4byte	0x29fb
 7191 184d 31       		.uleb128 0x31
 7192 184e 01       		.uleb128 0x1
 7193 184f 50       		.byte	0x50
 7194 1850 05       		.uleb128 0x5
 7195 1851 03       		.byte	0x3
 7196 1852 D0000000 		.4byte	.LC7
 7197 1856 00       		.byte	0
ARM GAS  C:\Users\jo\AppData\Local\Temp\ccfChKJS.s 			page 129


 7198 1857 00       		.byte	0
 7199 1858 3B       		.uleb128 0x3b
 7200 1859 B1130000 		.4byte	0x13b1
 7201 185d 6E090000 		.4byte	.LBB79
 7202 1861 08000000 		.4byte	.LBE79-.LBB79
 7203 1865 01       		.byte	0x1
 7204 1866 A604     		.2byte	0x4a6
 7205 1868 89180000 		.4byte	0x1889
 7206 186c 37       		.uleb128 0x37
 7207 186d BE130000 		.4byte	0x13be
 7208 1871 67060000 		.4byte	.LLST30
 7209 1875 32       		.uleb128 0x32
 7210 1876 74090000 		.4byte	.LVL176
 7211 187a FB290000 		.4byte	0x29fb
 7212 187e 31       		.uleb128 0x31
 7213 187f 01       		.uleb128 0x1
 7214 1880 50       		.byte	0x50
 7215 1881 05       		.uleb128 0x5
 7216 1882 03       		.byte	0x3
 7217 1883 E0000000 		.4byte	.LC8
 7218 1887 00       		.byte	0
 7219 1888 00       		.byte	0
 7220 1889 3B       		.uleb128 0x3b
 7221 188a B1130000 		.4byte	0x13b1
 7222 188e E6090000 		.4byte	.LBB81
 7223 1892 08000000 		.4byte	.LBE81-.LBB81
 7224 1896 01       		.byte	0x1
 7225 1897 D704     		.2byte	0x4d7
 7226 1899 BA180000 		.4byte	0x18ba
 7227 189d 37       		.uleb128 0x37
 7228 189e BE130000 		.4byte	0x13be
 7229 18a2 7F060000 		.4byte	.LLST31
 7230 18a6 32       		.uleb128 0x32
 7231 18a7 EC090000 		.4byte	.LVL183
 7232 18ab FB290000 		.4byte	0x29fb
 7233 18af 31       		.uleb128 0x31
 7234 18b0 01       		.uleb128 0x1
 7235 18b1 50       		.byte	0x50
 7236 18b2 05       		.uleb128 0x5
 7237 18b3 03       		.byte	0x3
 7238 18b4 F4000000 		.4byte	.LC9
 7239 18b8 00       		.byte	0
 7240 18b9 00       		.byte	0
 7241 18ba 3B       		.uleb128 0x3b
 7242 18bb B1130000 		.4byte	0x13b1
 7243 18bf 000A0000 		.4byte	.LBB83
 7244 18c3 16000000 		.4byte	.LBE83-.LBB83
 7245 18c7 01       		.byte	0x1
 7246 18c8 1205     		.2byte	0x512
 7247 18ca EB180000 		.4byte	0x18eb
 7248 18ce 37       		.uleb128 0x37
 7249 18cf BE130000 		.4byte	0x13be
 7250 18d3 97060000 		.4byte	.LLST32
 7251 18d7 32       		.uleb128 0x32
 7252 18d8 060A0000 		.4byte	.LVL186
 7253 18dc FB290000 		.4byte	0x29fb
 7254 18e0 31       		.uleb128 0x31
ARM GAS  C:\Users\jo\AppData\Local\Temp\ccfChKJS.s 			page 130


 7255 18e1 01       		.uleb128 0x1
 7256 18e2 50       		.byte	0x50
 7257 18e3 05       		.uleb128 0x5
 7258 18e4 03       		.byte	0x3
 7259 18e5 68010000 		.4byte	.LC11
 7260 18e9 00       		.byte	0
 7261 18ea 00       		.byte	0
 7262 18eb 3B       		.uleb128 0x3b
 7263 18ec B1130000 		.4byte	0x13b1
 7264 18f0 3A0A0000 		.4byte	.LBB85
 7265 18f4 08000000 		.4byte	.LBE85-.LBB85
 7266 18f8 01       		.byte	0x1
 7267 18f9 9604     		.2byte	0x496
 7268 18fb 1C190000 		.4byte	0x191c
 7269 18ff 37       		.uleb128 0x37
 7270 1900 BE130000 		.4byte	0x13be
 7271 1904 AF060000 		.4byte	.LLST33
 7272 1908 32       		.uleb128 0x32
 7273 1909 400A0000 		.4byte	.LVL192
 7274 190d FB290000 		.4byte	0x29fb
 7275 1911 31       		.uleb128 0x31
 7276 1912 01       		.uleb128 0x1
 7277 1913 50       		.byte	0x50
 7278 1914 05       		.uleb128 0x5
 7279 1915 03       		.byte	0x3
 7280 1916 B0000000 		.4byte	.LC5
 7281 191a 00       		.byte	0
 7282 191b 00       		.byte	0
 7283 191c 3B       		.uleb128 0x3b
 7284 191d B1130000 		.4byte	0x13b1
 7285 1921 AC0A0000 		.4byte	.LBB87
 7286 1925 10000000 		.4byte	.LBE87-.LBB87
 7287 1929 01       		.byte	0x1
 7288 192a 0705     		.2byte	0x507
 7289 192c 4D190000 		.4byte	0x194d
 7290 1930 37       		.uleb128 0x37
 7291 1931 BE130000 		.4byte	0x13be
 7292 1935 C7060000 		.4byte	.LLST34
 7293 1939 32       		.uleb128 0x32
 7294 193a B20A0000 		.4byte	.LVL198
 7295 193e FB290000 		.4byte	0x29fb
 7296 1942 31       		.uleb128 0x31
 7297 1943 01       		.uleb128 0x1
 7298 1944 50       		.byte	0x50
 7299 1945 05       		.uleb128 0x5
 7300 1946 03       		.byte	0x3
 7301 1947 2C010000 		.4byte	.LC10
 7302 194b 00       		.byte	0
 7303 194c 00       		.byte	0
 7304 194d 2F       		.uleb128 0x2f
 7305 194e A8000000 		.4byte	.LVL46
 7306 1952 0D2A0000 		.4byte	0x2a0d
 7307 1956 2F       		.uleb128 0x2f
 7308 1957 B8000000 		.4byte	.LVL47
 7309 195b 78290000 		.4byte	0x2978
 7310 195f 2F       		.uleb128 0x2f
 7311 1960 EC000000 		.4byte	.LVL49
ARM GAS  C:\Users\jo\AppData\Local\Temp\ccfChKJS.s 			page 131


 7312 1964 222A0000 		.4byte	0x2a22
 7313 1968 2F       		.uleb128 0x2f
 7314 1969 00010000 		.4byte	.LVL50
 7315 196d 222A0000 		.4byte	0x2a22
 7316 1971 30       		.uleb128 0x30
 7317 1972 10010000 		.4byte	.LVL51
 7318 1976 8D290000 		.4byte	0x298d
 7319 197a 85190000 		.4byte	0x1985
 7320 197e 31       		.uleb128 0x31
 7321 197f 01       		.uleb128 0x1
 7322 1980 50       		.byte	0x50
 7323 1981 02       		.uleb128 0x2
 7324 1982 75       		.byte	0x75
 7325 1983 00       		.sleb128 0
 7326 1984 00       		.byte	0
 7327 1985 3F       		.uleb128 0x3f
 7328 1986 B6010000 		.4byte	.LVL64
 7329 198a 372A0000 		.4byte	0x2a37
 7330 198e 9A190000 		.4byte	0x199a
 7331 1992 31       		.uleb128 0x31
 7332 1993 01       		.uleb128 0x1
 7333 1994 50       		.byte	0x50
 7334 1995 03       		.uleb128 0x3
 7335 1996 F3       		.byte	0xf3
 7336 1997 01       		.uleb128 0x1
 7337 1998 50       		.byte	0x50
 7338 1999 00       		.byte	0
 7339 199a 2F       		.uleb128 0x2f
 7340 199b BE010000 		.4byte	.LVL65
 7341 199f 78290000 		.4byte	0x2978
 7342 19a3 30       		.uleb128 0x30
 7343 19a4 E0010000 		.4byte	.LVL66
 7344 19a8 18150000 		.4byte	0x1518
 7345 19ac D4190000 		.4byte	0x19d4
 7346 19b0 31       		.uleb128 0x31
 7347 19b1 01       		.uleb128 0x1
 7348 19b2 53       		.byte	0x53
 7349 19b3 03       		.uleb128 0x3
 7350 19b4 0A       		.byte	0xa
 7351 19b5 2E04     		.2byte	0x42e
 7352 19b7 31       		.uleb128 0x31
 7353 19b8 01       		.uleb128 0x1
 7354 19b9 52       		.byte	0x52
 7355 19ba 05       		.uleb128 0x5
 7356 19bb 03       		.byte	0x3
 7357 19bc 68000000 		.4byte	.LC3
 7358 19c0 31       		.uleb128 0x31
 7359 19c1 01       		.uleb128 0x1
 7360 19c2 51       		.byte	0x51
 7361 19c3 05       		.uleb128 0x5
 7362 19c4 03       		.byte	0x3
 7363 19c5 00000000 		.4byte	.LC0
 7364 19c9 31       		.uleb128 0x31
 7365 19ca 02       		.uleb128 0x2
 7366 19cb 7D       		.byte	0x7d
 7367 19cc 00       		.sleb128 0
 7368 19cd 05       		.uleb128 0x5
ARM GAS  C:\Users\jo\AppData\Local\Temp\ccfChKJS.s 			page 132


 7369 19ce 03       		.byte	0x3
 7370 19cf 44000000 		.4byte	.LC2
 7371 19d3 00       		.byte	0
 7372 19d4 30       		.uleb128 0x30
 7373 19d5 08020000 		.4byte	.LVL69
 7374 19d9 18150000 		.4byte	0x1518
 7375 19dd 051A0000 		.4byte	0x1a05
 7376 19e1 31       		.uleb128 0x31
 7377 19e2 01       		.uleb128 0x1
 7378 19e3 53       		.byte	0x53
 7379 19e4 03       		.uleb128 0x3
 7380 19e5 0A       		.byte	0xa
 7381 19e6 3804     		.2byte	0x438
 7382 19e8 31       		.uleb128 0x31
 7383 19e9 01       		.uleb128 0x1
 7384 19ea 52       		.byte	0x52
 7385 19eb 05       		.uleb128 0x5
 7386 19ec 03       		.byte	0x3
 7387 19ed 90000000 		.4byte	.LC4
 7388 19f1 31       		.uleb128 0x31
 7389 19f2 01       		.uleb128 0x1
 7390 19f3 51       		.byte	0x51
 7391 19f4 05       		.uleb128 0x5
 7392 19f5 03       		.byte	0x3
 7393 19f6 00000000 		.4byte	.LC0
 7394 19fa 31       		.uleb128 0x31
 7395 19fb 02       		.uleb128 0x2
 7396 19fc 7D       		.byte	0x7d
 7397 19fd 00       		.sleb128 0
 7398 19fe 05       		.uleb128 0x5
 7399 19ff 03       		.byte	0x3
 7400 1a00 44000000 		.4byte	.LC2
 7401 1a04 00       		.byte	0
 7402 1a05 30       		.uleb128 0x30
 7403 1a06 22020000 		.4byte	.LVL73
 7404 1a0a 18150000 		.4byte	0x1518
 7405 1a0e 361A0000 		.4byte	0x1a36
 7406 1a12 31       		.uleb128 0x31
 7407 1a13 01       		.uleb128 0x1
 7408 1a14 53       		.byte	0x53
 7409 1a15 03       		.uleb128 0x3
 7410 1a16 0A       		.byte	0xa
 7411 1a17 6003     		.2byte	0x360
 7412 1a19 31       		.uleb128 0x31
 7413 1a1a 01       		.uleb128 0x1
 7414 1a1b 52       		.byte	0x52
 7415 1a1c 05       		.uleb128 0x5
 7416 1a1d 03       		.byte	0x3
 7417 1a1e 28000000 		.4byte	.LC1
 7418 1a22 31       		.uleb128 0x31
 7419 1a23 01       		.uleb128 0x1
 7420 1a24 51       		.byte	0x51
 7421 1a25 05       		.uleb128 0x5
 7422 1a26 03       		.byte	0x3
 7423 1a27 00000000 		.4byte	.LC0
 7424 1a2b 31       		.uleb128 0x31
 7425 1a2c 02       		.uleb128 0x2
ARM GAS  C:\Users\jo\AppData\Local\Temp\ccfChKJS.s 			page 133


 7426 1a2d 7D       		.byte	0x7d
 7427 1a2e 00       		.sleb128 0
 7428 1a2f 05       		.uleb128 0x5
 7429 1a30 03       		.byte	0x3
 7430 1a31 44000000 		.4byte	.LC2
 7431 1a35 00       		.byte	0
 7432 1a36 30       		.uleb128 0x30
 7433 1a37 76020000 		.4byte	.LVL77
 7434 1a3b 372A0000 		.4byte	0x2a37
 7435 1a3f 4A1A0000 		.4byte	0x1a4a
 7436 1a43 31       		.uleb128 0x31
 7437 1a44 01       		.uleb128 0x1
 7438 1a45 50       		.byte	0x50
 7439 1a46 02       		.uleb128 0x2
 7440 1a47 74       		.byte	0x74
 7441 1a48 00       		.sleb128 0
 7442 1a49 00       		.byte	0
 7443 1a4a 30       		.uleb128 0x30
 7444 1a4b C8020000 		.4byte	.LVL81
 7445 1a4f 4C2A0000 		.4byte	0x2a4c
 7446 1a53 611A0000 		.4byte	0x1a61
 7447 1a57 31       		.uleb128 0x31
 7448 1a58 01       		.uleb128 0x1
 7449 1a59 50       		.byte	0x50
 7450 1a5a 05       		.uleb128 0x5
 7451 1a5b 03       		.byte	0x3
 7452 1a5c 00000000 		.4byte	.LANCHOR5
 7453 1a60 00       		.byte	0
 7454 1a61 40       		.uleb128 0x40
 7455 1a62 DC020000 		.4byte	.LVL84
 7456 1a66 0E140000 		.4byte	0x140e
 7457 1a6a 2F       		.uleb128 0x2f
 7458 1a6b 2A030000 		.4byte	.LVL86
 7459 1a6f 78290000 		.4byte	0x2978
 7460 1a73 30       		.uleb128 0x30
 7461 1a74 36030000 		.4byte	.LVL87
 7462 1a78 4C2A0000 		.4byte	0x2a4c
 7463 1a7c 8A1A0000 		.4byte	0x1a8a
 7464 1a80 31       		.uleb128 0x31
 7465 1a81 01       		.uleb128 0x1
 7466 1a82 50       		.byte	0x50
 7467 1a83 05       		.uleb128 0x5
 7468 1a84 03       		.byte	0x3
 7469 1a85 00000000 		.4byte	.LANCHOR5
 7470 1a89 00       		.byte	0
 7471 1a8a 2F       		.uleb128 0x2f
 7472 1a8b 5E030000 		.4byte	.LVL88
 7473 1a8f B4290000 		.4byte	0x29b4
 7474 1a93 2F       		.uleb128 0x2f
 7475 1a94 7C030000 		.4byte	.LVL89
 7476 1a98 78290000 		.4byte	0x2978
 7477 1a9c 2F       		.uleb128 0x2f
 7478 1a9d 9A030000 		.4byte	.LVL90
 7479 1aa1 B4290000 		.4byte	0x29b4
 7480 1aa5 2F       		.uleb128 0x2f
 7481 1aa6 A6030000 		.4byte	.LVL92
 7482 1aaa 78290000 		.4byte	0x2978
ARM GAS  C:\Users\jo\AppData\Local\Temp\ccfChKJS.s 			page 134


 7483 1aae 30       		.uleb128 0x30
 7484 1aaf DA030000 		.4byte	.LVL93
 7485 1ab3 18150000 		.4byte	0x1518
 7486 1ab7 DF1A0000 		.4byte	0x1adf
 7487 1abb 31       		.uleb128 0x31
 7488 1abc 01       		.uleb128 0x1
 7489 1abd 53       		.byte	0x53
 7490 1abe 03       		.uleb128 0x3
 7491 1abf 0A       		.byte	0xa
 7492 1ac0 CA05     		.2byte	0x5ca
 7493 1ac2 31       		.uleb128 0x31
 7494 1ac3 01       		.uleb128 0x1
 7495 1ac4 52       		.byte	0x52
 7496 1ac5 05       		.uleb128 0x5
 7497 1ac6 03       		.byte	0x3
 7498 1ac7 F4000000 		.4byte	.LC9
 7499 1acb 31       		.uleb128 0x31
 7500 1acc 01       		.uleb128 0x1
 7501 1acd 51       		.byte	0x51
 7502 1ace 05       		.uleb128 0x5
 7503 1acf 03       		.byte	0x3
 7504 1ad0 00000000 		.4byte	.LC0
 7505 1ad4 31       		.uleb128 0x31
 7506 1ad5 02       		.uleb128 0x2
 7507 1ad6 7D       		.byte	0x7d
 7508 1ad7 00       		.sleb128 0
 7509 1ad8 05       		.uleb128 0x5
 7510 1ad9 03       		.byte	0x3
 7511 1ada 44000000 		.4byte	.LC2
 7512 1ade 00       		.byte	0
 7513 1adf 2F       		.uleb128 0x2f
 7514 1ae0 A2040000 		.4byte	.LVL101
 7515 1ae4 0D2A0000 		.4byte	0x2a0d
 7516 1ae8 2F       		.uleb128 0x2f
 7517 1ae9 B2040000 		.4byte	.LVL102
 7518 1aed 78290000 		.4byte	0x2978
 7519 1af1 2F       		.uleb128 0x2f
 7520 1af2 D8040000 		.4byte	.LVL104
 7521 1af6 222A0000 		.4byte	0x2a22
 7522 1afa 2F       		.uleb128 0x2f
 7523 1afb EA040000 		.4byte	.LVL105
 7524 1aff 222A0000 		.4byte	0x2a22
 7525 1b03 30       		.uleb128 0x30
 7526 1b04 FA040000 		.4byte	.LVL106
 7527 1b08 8D290000 		.4byte	0x298d
 7528 1b0c 171B0000 		.4byte	0x1b17
 7529 1b10 31       		.uleb128 0x31
 7530 1b11 01       		.uleb128 0x1
 7531 1b12 50       		.byte	0x50
 7532 1b13 02       		.uleb128 0x2
 7533 1b14 75       		.byte	0x75
 7534 1b15 00       		.sleb128 0
 7535 1b16 00       		.byte	0
 7536 1b17 30       		.uleb128 0x30
 7537 1b18 2A050000 		.4byte	.LVL109
 7538 1b1c 18150000 		.4byte	0x1518
 7539 1b20 451B0000 		.4byte	0x1b45
ARM GAS  C:\Users\jo\AppData\Local\Temp\ccfChKJS.s 			page 135


 7540 1b24 31       		.uleb128 0x31
 7541 1b25 01       		.uleb128 0x1
 7542 1b26 53       		.byte	0x53
 7543 1b27 03       		.uleb128 0x3
 7544 1b28 0A       		.byte	0xa
 7545 1b29 0804     		.2byte	0x408
 7546 1b2b 31       		.uleb128 0x31
 7547 1b2c 01       		.uleb128 0x1
 7548 1b2d 52       		.byte	0x52
 7549 1b2e 05       		.uleb128 0x5
 7550 1b2f 03       		.byte	0x3
 7551 1b30 90000000 		.4byte	.LC4
 7552 1b34 31       		.uleb128 0x31
 7553 1b35 01       		.uleb128 0x1
 7554 1b36 51       		.byte	0x51
 7555 1b37 05       		.uleb128 0x5
 7556 1b38 03       		.byte	0x3
 7557 1b39 00000000 		.4byte	.LC0
 7558 1b3d 31       		.uleb128 0x31
 7559 1b3e 02       		.uleb128 0x2
 7560 1b3f 7D       		.byte	0x7d
 7561 1b40 00       		.sleb128 0
 7562 1b41 02       		.uleb128 0x2
 7563 1b42 77       		.byte	0x77
 7564 1b43 00       		.sleb128 0
 7565 1b44 00       		.byte	0
 7566 1b45 2F       		.uleb128 0x2f
 7567 1b46 3C050000 		.4byte	.LVL111
 7568 1b4a 78290000 		.4byte	0x2978
 7569 1b4e 30       		.uleb128 0x30
 7570 1b4f 5C050000 		.4byte	.LVL112
 7571 1b53 18150000 		.4byte	0x1518
 7572 1b57 7C1B0000 		.4byte	0x1b7c
 7573 1b5b 31       		.uleb128 0x31
 7574 1b5c 01       		.uleb128 0x1
 7575 1b5d 53       		.byte	0x53
 7576 1b5e 03       		.uleb128 0x3
 7577 1b5f 0A       		.byte	0xa
 7578 1b60 FC03     		.2byte	0x3fc
 7579 1b62 31       		.uleb128 0x31
 7580 1b63 01       		.uleb128 0x1
 7581 1b64 52       		.byte	0x52
 7582 1b65 05       		.uleb128 0x5
 7583 1b66 03       		.byte	0x3
 7584 1b67 68000000 		.4byte	.LC3
 7585 1b6b 31       		.uleb128 0x31
 7586 1b6c 01       		.uleb128 0x1
 7587 1b6d 51       		.byte	0x51
 7588 1b6e 05       		.uleb128 0x5
 7589 1b6f 03       		.byte	0x3
 7590 1b70 00000000 		.4byte	.LC0
 7591 1b74 31       		.uleb128 0x31
 7592 1b75 02       		.uleb128 0x2
 7593 1b76 7D       		.byte	0x7d
 7594 1b77 00       		.sleb128 0
 7595 1b78 02       		.uleb128 0x2
 7596 1b79 77       		.byte	0x77
ARM GAS  C:\Users\jo\AppData\Local\Temp\ccfChKJS.s 			page 136


 7597 1b7a 00       		.sleb128 0
 7598 1b7b 00       		.byte	0
 7599 1b7c 30       		.uleb128 0x30
 7600 1b7d B8050000 		.4byte	.LVL121
 7601 1b81 622A0000 		.4byte	0x2a62
 7602 1b85 971B0000 		.4byte	0x1b97
 7603 1b89 31       		.uleb128 0x31
 7604 1b8a 01       		.uleb128 0x1
 7605 1b8b 51       		.byte	0x51
 7606 1b8c 03       		.uleb128 0x3
 7607 1b8d 7A       		.byte	0x7a
 7608 1b8e 00       		.sleb128 0
 7609 1b8f 1F       		.byte	0x1f
 7610 1b90 31       		.uleb128 0x31
 7611 1b91 01       		.uleb128 0x1
 7612 1b92 50       		.byte	0x50
 7613 1b93 02       		.uleb128 0x2
 7614 1b94 75       		.byte	0x75
 7615 1b95 00       		.sleb128 0
 7616 1b96 00       		.byte	0
 7617 1b97 2F       		.uleb128 0x2f
 7618 1b98 62060000 		.4byte	.LVL127
 7619 1b9c 78290000 		.4byte	0x2978
 7620 1ba0 2F       		.uleb128 0x2f
 7621 1ba1 88060000 		.4byte	.LVL128
 7622 1ba5 78290000 		.4byte	0x2978
 7623 1ba9 30       		.uleb128 0x30
 7624 1baa C8060000 		.4byte	.LVL132
 7625 1bae 8D290000 		.4byte	0x298d
 7626 1bb2 BD1B0000 		.4byte	0x1bbd
 7627 1bb6 31       		.uleb128 0x31
 7628 1bb7 01       		.uleb128 0x1
 7629 1bb8 50       		.byte	0x50
 7630 1bb9 02       		.uleb128 0x2
 7631 1bba 7A       		.byte	0x7a
 7632 1bbb 00       		.sleb128 0
 7633 1bbc 00       		.byte	0
 7634 1bbd 2F       		.uleb128 0x2f
 7635 1bbe F8060000 		.4byte	.LVL134
 7636 1bc2 78290000 		.4byte	0x2978
 7637 1bc6 2F       		.uleb128 0x2f
 7638 1bc7 04070000 		.4byte	.LVL135
 7639 1bcb 78290000 		.4byte	0x2978
 7640 1bcf 30       		.uleb128 0x30
 7641 1bd0 16070000 		.4byte	.LVL136
 7642 1bd4 9F290000 		.4byte	0x299f
 7643 1bd8 E21B0000 		.4byte	0x1be2
 7644 1bdc 31       		.uleb128 0x31
 7645 1bdd 01       		.uleb128 0x1
 7646 1bde 50       		.byte	0x50
 7647 1bdf 01       		.uleb128 0x1
 7648 1be0 31       		.byte	0x31
 7649 1be1 00       		.byte	0
 7650 1be2 2F       		.uleb128 0x2f
 7651 1be3 28070000 		.4byte	.LVL137
 7652 1be7 78290000 		.4byte	0x2978
 7653 1beb 30       		.uleb128 0x30
ARM GAS  C:\Users\jo\AppData\Local\Temp\ccfChKJS.s 			page 137


 7654 1bec 66070000 		.4byte	.LVL140
 7655 1bf0 7C2A0000 		.4byte	0x2a7c
 7656 1bf4 FF1B0000 		.4byte	0x1bff
 7657 1bf8 31       		.uleb128 0x31
 7658 1bf9 01       		.uleb128 0x1
 7659 1bfa 50       		.byte	0x50
 7660 1bfb 02       		.uleb128 0x2
 7661 1bfc 74       		.byte	0x74
 7662 1bfd 00       		.sleb128 0
 7663 1bfe 00       		.byte	0
 7664 1bff 2F       		.uleb128 0x2f
 7665 1c00 7E070000 		.4byte	.LVL141
 7666 1c04 78290000 		.4byte	0x2978
 7667 1c08 2F       		.uleb128 0x2f
 7668 1c09 AA070000 		.4byte	.LVL143
 7669 1c0d 78290000 		.4byte	0x2978
 7670 1c11 30       		.uleb128 0x30
 7671 1c12 C0070000 		.4byte	.LVL144
 7672 1c16 7C2A0000 		.4byte	0x2a7c
 7673 1c1a 251C0000 		.4byte	0x1c25
 7674 1c1e 31       		.uleb128 0x31
 7675 1c1f 01       		.uleb128 0x1
 7676 1c20 50       		.byte	0x50
 7677 1c21 02       		.uleb128 0x2
 7678 1c22 74       		.byte	0x74
 7679 1c23 00       		.sleb128 0
 7680 1c24 00       		.byte	0
 7681 1c25 2F       		.uleb128 0x2f
 7682 1c26 D2070000 		.4byte	.LVL145
 7683 1c2a 912A0000 		.4byte	0x2a91
 7684 1c2e 2F       		.uleb128 0x2f
 7685 1c2f DE070000 		.4byte	.LVL146
 7686 1c33 78290000 		.4byte	0x2978
 7687 1c37 30       		.uleb128 0x30
 7688 1c38 00080000 		.4byte	.LVL147
 7689 1c3c 8D290000 		.4byte	0x298d
 7690 1c40 4B1C0000 		.4byte	0x1c4b
 7691 1c44 31       		.uleb128 0x31
 7692 1c45 01       		.uleb128 0x1
 7693 1c46 50       		.byte	0x50
 7694 1c47 02       		.uleb128 0x2
 7695 1c48 75       		.byte	0x75
 7696 1c49 00       		.sleb128 0
 7697 1c4a 00       		.byte	0
 7698 1c4b 2F       		.uleb128 0x2f
 7699 1c4c 1C080000 		.4byte	.LVL150
 7700 1c50 78290000 		.4byte	0x2978
 7701 1c54 2F       		.uleb128 0x2f
 7702 1c55 3A080000 		.4byte	.LVL151
 7703 1c59 78290000 		.4byte	0x2978
 7704 1c5d 30       		.uleb128 0x30
 7705 1c5e 58080000 		.4byte	.LVL152
 7706 1c62 18150000 		.4byte	0x1518
 7707 1c66 8B1C0000 		.4byte	0x1c8b
 7708 1c6a 31       		.uleb128 0x31
 7709 1c6b 01       		.uleb128 0x1
 7710 1c6c 53       		.byte	0x53
ARM GAS  C:\Users\jo\AppData\Local\Temp\ccfChKJS.s 			page 138


 7711 1c6d 03       		.uleb128 0x3
 7712 1c6e 0A       		.byte	0xa
 7713 1c6f 3705     		.2byte	0x537
 7714 1c71 31       		.uleb128 0x31
 7715 1c72 01       		.uleb128 0x1
 7716 1c73 52       		.byte	0x52
 7717 1c74 05       		.uleb128 0x5
 7718 1c75 03       		.byte	0x3
 7719 1c76 88010000 		.4byte	.LC12
 7720 1c7a 31       		.uleb128 0x31
 7721 1c7b 01       		.uleb128 0x1
 7722 1c7c 51       		.byte	0x51
 7723 1c7d 05       		.uleb128 0x5
 7724 1c7e 03       		.byte	0x3
 7725 1c7f 00000000 		.4byte	.LC0
 7726 1c83 31       		.uleb128 0x31
 7727 1c84 02       		.uleb128 0x2
 7728 1c85 7D       		.byte	0x7d
 7729 1c86 00       		.sleb128 0
 7730 1c87 02       		.uleb128 0x2
 7731 1c88 76       		.byte	0x76
 7732 1c89 00       		.sleb128 0
 7733 1c8a 00       		.byte	0
 7734 1c8b 30       		.uleb128 0x30
 7735 1c8c 88080000 		.4byte	.LVL157
 7736 1c90 4C2A0000 		.4byte	0x2a4c
 7737 1c94 A21C0000 		.4byte	0x1ca2
 7738 1c98 31       		.uleb128 0x31
 7739 1c99 01       		.uleb128 0x1
 7740 1c9a 50       		.byte	0x50
 7741 1c9b 05       		.uleb128 0x5
 7742 1c9c 03       		.byte	0x3
 7743 1c9d 00000000 		.4byte	.LANCHOR5
 7744 1ca1 00       		.byte	0
 7745 1ca2 30       		.uleb128 0x30
 7746 1ca3 A0080000 		.4byte	.LVL159
 7747 1ca7 622A0000 		.4byte	0x2a62
 7748 1cab B71C0000 		.4byte	0x1cb7
 7749 1caf 31       		.uleb128 0x31
 7750 1cb0 01       		.uleb128 0x1
 7751 1cb1 51       		.byte	0x51
 7752 1cb2 03       		.uleb128 0x3
 7753 1cb3 76       		.byte	0x76
 7754 1cb4 00       		.sleb128 0
 7755 1cb5 1F       		.byte	0x1f
 7756 1cb6 00       		.byte	0
 7757 1cb7 30       		.uleb128 0x30
 7758 1cb8 B8080000 		.4byte	.LVL160
 7759 1cbc 18150000 		.4byte	0x1518
 7760 1cc0 E81C0000 		.4byte	0x1ce8
 7761 1cc4 31       		.uleb128 0x31
 7762 1cc5 01       		.uleb128 0x1
 7763 1cc6 53       		.byte	0x53
 7764 1cc7 03       		.uleb128 0x3
 7765 1cc8 0A       		.byte	0xa
 7766 1cc9 AB04     		.2byte	0x4ab
 7767 1ccb 31       		.uleb128 0x31
ARM GAS  C:\Users\jo\AppData\Local\Temp\ccfChKJS.s 			page 139


 7768 1ccc 01       		.uleb128 0x1
 7769 1ccd 52       		.byte	0x52
 7770 1cce 05       		.uleb128 0x5
 7771 1ccf 03       		.byte	0x3
 7772 1cd0 E0000000 		.4byte	.LC8
 7773 1cd4 31       		.uleb128 0x31
 7774 1cd5 01       		.uleb128 0x1
 7775 1cd6 51       		.byte	0x51
 7776 1cd7 05       		.uleb128 0x5
 7777 1cd8 03       		.byte	0x3
 7778 1cd9 00000000 		.4byte	.LC0
 7779 1cdd 31       		.uleb128 0x31
 7780 1cde 02       		.uleb128 0x2
 7781 1cdf 7D       		.byte	0x7d
 7782 1ce0 00       		.sleb128 0
 7783 1ce1 05       		.uleb128 0x5
 7784 1ce2 03       		.byte	0x3
 7785 1ce3 44000000 		.4byte	.LC2
 7786 1ce7 00       		.byte	0
 7787 1ce8 30       		.uleb128 0x30
 7788 1ce9 D2080000 		.4byte	.LVL163
 7789 1ced 18150000 		.4byte	0x1518
 7790 1cf1 191D0000 		.4byte	0x1d19
 7791 1cf5 31       		.uleb128 0x31
 7792 1cf6 01       		.uleb128 0x1
 7793 1cf7 53       		.byte	0x53
 7794 1cf8 03       		.uleb128 0x3
 7795 1cf9 0A       		.byte	0xa
 7796 1cfa 9704     		.2byte	0x497
 7797 1cfc 31       		.uleb128 0x31
 7798 1cfd 01       		.uleb128 0x1
 7799 1cfe 52       		.byte	0x52
 7800 1cff 05       		.uleb128 0x5
 7801 1d00 03       		.byte	0x3
 7802 1d01 C0000000 		.4byte	.LC6
 7803 1d05 31       		.uleb128 0x31
 7804 1d06 01       		.uleb128 0x1
 7805 1d07 51       		.byte	0x51
 7806 1d08 05       		.uleb128 0x5
 7807 1d09 03       		.byte	0x3
 7808 1d0a 00000000 		.4byte	.LC0
 7809 1d0e 31       		.uleb128 0x31
 7810 1d0f 02       		.uleb128 0x2
 7811 1d10 7D       		.byte	0x7d
 7812 1d11 00       		.sleb128 0
 7813 1d12 05       		.uleb128 0x5
 7814 1d13 03       		.byte	0x3
 7815 1d14 44000000 		.4byte	.LC2
 7816 1d18 00       		.byte	0
 7817 1d19 30       		.uleb128 0x30
 7818 1d1a E0080000 		.4byte	.LVL166
 7819 1d1e 4C2A0000 		.4byte	0x2a4c
 7820 1d22 301D0000 		.4byte	0x1d30
 7821 1d26 31       		.uleb128 0x31
 7822 1d27 01       		.uleb128 0x1
 7823 1d28 50       		.byte	0x50
 7824 1d29 05       		.uleb128 0x5
ARM GAS  C:\Users\jo\AppData\Local\Temp\ccfChKJS.s 			page 140


 7825 1d2a 03       		.byte	0x3
 7826 1d2b 00000000 		.4byte	.LANCHOR5
 7827 1d2f 00       		.byte	0
 7828 1d30 2F       		.uleb128 0x2f
 7829 1d31 06090000 		.4byte	.LVL169
 7830 1d35 B4290000 		.4byte	0x29b4
 7831 1d39 30       		.uleb128 0x30
 7832 1d3a 4E090000 		.4byte	.LVL172
 7833 1d3e 18150000 		.4byte	0x1518
 7834 1d42 6A1D0000 		.4byte	0x1d6a
 7835 1d46 31       		.uleb128 0x31
 7836 1d47 01       		.uleb128 0x1
 7837 1d48 53       		.byte	0x53
 7838 1d49 03       		.uleb128 0x3
 7839 1d4a 0A       		.byte	0xa
 7840 1d4b 9904     		.2byte	0x499
 7841 1d4d 31       		.uleb128 0x31
 7842 1d4e 01       		.uleb128 0x1
 7843 1d4f 52       		.byte	0x52
 7844 1d50 05       		.uleb128 0x5
 7845 1d51 03       		.byte	0x3
 7846 1d52 D0000000 		.4byte	.LC7
 7847 1d56 31       		.uleb128 0x31
 7848 1d57 01       		.uleb128 0x1
 7849 1d58 51       		.byte	0x51
 7850 1d59 05       		.uleb128 0x5
 7851 1d5a 03       		.byte	0x3
 7852 1d5b 00000000 		.4byte	.LC0
 7853 1d5f 31       		.uleb128 0x31
 7854 1d60 02       		.uleb128 0x2
 7855 1d61 7D       		.byte	0x7d
 7856 1d62 00       		.sleb128 0
 7857 1d63 05       		.uleb128 0x5
 7858 1d64 03       		.byte	0x3
 7859 1d65 44000000 		.4byte	.LC2
 7860 1d69 00       		.byte	0
 7861 1d6a 30       		.uleb128 0x30
 7862 1d6b 6E090000 		.4byte	.LVL175
 7863 1d6f 18150000 		.4byte	0x1518
 7864 1d73 9B1D0000 		.4byte	0x1d9b
 7865 1d77 31       		.uleb128 0x31
 7866 1d78 01       		.uleb128 0x1
 7867 1d79 53       		.byte	0x53
 7868 1d7a 03       		.uleb128 0x3
 7869 1d7b 0A       		.byte	0xa
 7870 1d7c A604     		.2byte	0x4a6
 7871 1d7e 31       		.uleb128 0x31
 7872 1d7f 01       		.uleb128 0x1
 7873 1d80 52       		.byte	0x52
 7874 1d81 05       		.uleb128 0x5
 7875 1d82 03       		.byte	0x3
 7876 1d83 E0000000 		.4byte	.LC8
 7877 1d87 31       		.uleb128 0x31
 7878 1d88 01       		.uleb128 0x1
 7879 1d89 51       		.byte	0x51
 7880 1d8a 05       		.uleb128 0x5
 7881 1d8b 03       		.byte	0x3
ARM GAS  C:\Users\jo\AppData\Local\Temp\ccfChKJS.s 			page 141


 7882 1d8c 00000000 		.4byte	.LC0
 7883 1d90 31       		.uleb128 0x31
 7884 1d91 02       		.uleb128 0x2
 7885 1d92 7D       		.byte	0x7d
 7886 1d93 00       		.sleb128 0
 7887 1d94 05       		.uleb128 0x5
 7888 1d95 03       		.byte	0x3
 7889 1d96 44000000 		.4byte	.LC2
 7890 1d9a 00       		.byte	0
 7891 1d9b 2F       		.uleb128 0x2f
 7892 1d9c 7E090000 		.4byte	.LVL178
 7893 1da0 78290000 		.4byte	0x2978
 7894 1da4 2F       		.uleb128 0x2f
 7895 1da5 92090000 		.4byte	.LVL179
 7896 1da9 78290000 		.4byte	0x2978
 7897 1dad 2F       		.uleb128 0x2f
 7898 1dae A8090000 		.4byte	.LVL180
 7899 1db2 B4290000 		.4byte	0x29b4
 7900 1db6 2F       		.uleb128 0x2f
 7901 1db7 B2090000 		.4byte	.LVL181
 7902 1dbb 78290000 		.4byte	0x2978
 7903 1dbf 30       		.uleb128 0x30
 7904 1dc0 E6090000 		.4byte	.LVL182
 7905 1dc4 18150000 		.4byte	0x1518
 7906 1dc8 F01D0000 		.4byte	0x1df0
 7907 1dcc 31       		.uleb128 0x31
 7908 1dcd 01       		.uleb128 0x1
 7909 1dce 53       		.byte	0x53
 7910 1dcf 03       		.uleb128 0x3
 7911 1dd0 0A       		.byte	0xa
 7912 1dd1 D804     		.2byte	0x4d8
 7913 1dd3 31       		.uleb128 0x31
 7914 1dd4 01       		.uleb128 0x1
 7915 1dd5 52       		.byte	0x52
 7916 1dd6 05       		.uleb128 0x5
 7917 1dd7 03       		.byte	0x3
 7918 1dd8 F4000000 		.4byte	.LC9
 7919 1ddc 31       		.uleb128 0x31
 7920 1ddd 01       		.uleb128 0x1
 7921 1dde 51       		.byte	0x51
 7922 1ddf 05       		.uleb128 0x5
 7923 1de0 03       		.byte	0x3
 7924 1de1 00000000 		.4byte	.LC0
 7925 1de5 31       		.uleb128 0x31
 7926 1de6 02       		.uleb128 0x2
 7927 1de7 7D       		.byte	0x7d
 7928 1de8 00       		.sleb128 0
 7929 1de9 05       		.uleb128 0x5
 7930 1dea 03       		.byte	0x3
 7931 1deb 44000000 		.4byte	.LC2
 7932 1def 00       		.byte	0
 7933 1df0 30       		.uleb128 0x30
 7934 1df1 000A0000 		.4byte	.LVL185
 7935 1df5 18150000 		.4byte	0x1518
 7936 1df9 211E0000 		.4byte	0x1e21
 7937 1dfd 31       		.uleb128 0x31
 7938 1dfe 01       		.uleb128 0x1
ARM GAS  C:\Users\jo\AppData\Local\Temp\ccfChKJS.s 			page 142


 7939 1dff 53       		.byte	0x53
 7940 1e00 03       		.uleb128 0x3
 7941 1e01 0A       		.byte	0xa
 7942 1e02 1205     		.2byte	0x512
 7943 1e04 31       		.uleb128 0x31
 7944 1e05 01       		.uleb128 0x1
 7945 1e06 52       		.byte	0x52
 7946 1e07 05       		.uleb128 0x5
 7947 1e08 03       		.byte	0x3
 7948 1e09 68010000 		.4byte	.LC11
 7949 1e0d 31       		.uleb128 0x31
 7950 1e0e 01       		.uleb128 0x1
 7951 1e0f 51       		.byte	0x51
 7952 1e10 05       		.uleb128 0x5
 7953 1e11 03       		.byte	0x3
 7954 1e12 00000000 		.4byte	.LC0
 7955 1e16 31       		.uleb128 0x31
 7956 1e17 02       		.uleb128 0x2
 7957 1e18 7D       		.byte	0x7d
 7958 1e19 00       		.sleb128 0
 7959 1e1a 05       		.uleb128 0x5
 7960 1e1b 03       		.byte	0x3
 7961 1e1c 44000000 		.4byte	.LC2
 7962 1e20 00       		.byte	0
 7963 1e21 30       		.uleb128 0x30
 7964 1e22 3A0A0000 		.4byte	.LVL191
 7965 1e26 18150000 		.4byte	0x1518
 7966 1e2a 521E0000 		.4byte	0x1e52
 7967 1e2e 31       		.uleb128 0x31
 7968 1e2f 01       		.uleb128 0x1
 7969 1e30 53       		.byte	0x53
 7970 1e31 03       		.uleb128 0x3
 7971 1e32 0A       		.byte	0xa
 7972 1e33 9604     		.2byte	0x496
 7973 1e35 31       		.uleb128 0x31
 7974 1e36 01       		.uleb128 0x1
 7975 1e37 52       		.byte	0x52
 7976 1e38 05       		.uleb128 0x5
 7977 1e39 03       		.byte	0x3
 7978 1e3a B0000000 		.4byte	.LC5
 7979 1e3e 31       		.uleb128 0x31
 7980 1e3f 01       		.uleb128 0x1
 7981 1e40 51       		.byte	0x51
 7982 1e41 05       		.uleb128 0x5
 7983 1e42 03       		.byte	0x3
 7984 1e43 00000000 		.4byte	.LC0
 7985 1e47 31       		.uleb128 0x31
 7986 1e48 02       		.uleb128 0x2
 7987 1e49 7D       		.byte	0x7d
 7988 1e4a 00       		.sleb128 0
 7989 1e4b 05       		.uleb128 0x5
 7990 1e4c 03       		.byte	0x3
 7991 1e4d 44000000 		.4byte	.LC2
 7992 1e51 00       		.byte	0
 7993 1e52 2F       		.uleb128 0x2f
 7994 1e53 560A0000 		.4byte	.LVL194
 7995 1e57 78290000 		.4byte	0x2978
ARM GAS  C:\Users\jo\AppData\Local\Temp\ccfChKJS.s 			page 143


 7996 1e5b 2F       		.uleb128 0x2f
 7997 1e5c 6C0A0000 		.4byte	.LVL195
 7998 1e60 B4290000 		.4byte	0x29b4
 7999 1e64 2F       		.uleb128 0x2f
 8000 1e65 7A0A0000 		.4byte	.LVL196
 8001 1e69 78290000 		.4byte	0x2978
 8002 1e6d 30       		.uleb128 0x30
 8003 1e6e AC0A0000 		.4byte	.LVL197
 8004 1e72 18150000 		.4byte	0x1518
 8005 1e76 9E1E0000 		.4byte	0x1e9e
 8006 1e7a 31       		.uleb128 0x31
 8007 1e7b 01       		.uleb128 0x1
 8008 1e7c 53       		.byte	0x53
 8009 1e7d 03       		.uleb128 0x3
 8010 1e7e 0A       		.byte	0xa
 8011 1e7f 0805     		.2byte	0x508
 8012 1e81 31       		.uleb128 0x31
 8013 1e82 01       		.uleb128 0x1
 8014 1e83 52       		.byte	0x52
 8015 1e84 05       		.uleb128 0x5
 8016 1e85 03       		.byte	0x3
 8017 1e86 2C010000 		.4byte	.LC10
 8018 1e8a 31       		.uleb128 0x31
 8019 1e8b 01       		.uleb128 0x1
 8020 1e8c 51       		.byte	0x51
 8021 1e8d 05       		.uleb128 0x5
 8022 1e8e 03       		.byte	0x3
 8023 1e8f 00000000 		.4byte	.LC0
 8024 1e93 31       		.uleb128 0x31
 8025 1e94 02       		.uleb128 0x2
 8026 1e95 7D       		.byte	0x7d
 8027 1e96 00       		.sleb128 0
 8028 1e97 05       		.uleb128 0x5
 8029 1e98 03       		.byte	0x3
 8030 1e99 44000000 		.4byte	.LC2
 8031 1e9d 00       		.byte	0
 8032 1e9e 30       		.uleb128 0x30
 8033 1e9f C20A0000 		.4byte	.LVL200
 8034 1ea3 4C2A0000 		.4byte	0x2a4c
 8035 1ea7 B51E0000 		.4byte	0x1eb5
 8036 1eab 31       		.uleb128 0x31
 8037 1eac 01       		.uleb128 0x1
 8038 1ead 50       		.byte	0x50
 8039 1eae 05       		.uleb128 0x5
 8040 1eaf 03       		.byte	0x3
 8041 1eb0 00000000 		.4byte	.LANCHOR5
 8042 1eb4 00       		.byte	0
 8043 1eb5 30       		.uleb128 0x30
 8044 1eb6 D20A0000 		.4byte	.LVL201
 8045 1eba 78290000 		.4byte	0x2978
 8046 1ebe C91E0000 		.4byte	0x1ec9
 8047 1ec2 31       		.uleb128 0x31
 8048 1ec3 01       		.uleb128 0x1
 8049 1ec4 50       		.byte	0x50
 8050 1ec5 02       		.uleb128 0x2
 8051 1ec6 75       		.byte	0x75
 8052 1ec7 00       		.sleb128 0
ARM GAS  C:\Users\jo\AppData\Local\Temp\ccfChKJS.s 			page 144


 8053 1ec8 00       		.byte	0
 8054 1ec9 2F       		.uleb128 0x2f
 8055 1eca DA0A0000 		.4byte	.LVL202
 8056 1ece 9F290000 		.4byte	0x299f
 8057 1ed2 30       		.uleb128 0x30
 8058 1ed3 EE0A0000 		.4byte	.LVL204
 8059 1ed7 A72A0000 		.4byte	0x2aa7
 8060 1edb E61E0000 		.4byte	0x1ee6
 8061 1edf 31       		.uleb128 0x31
 8062 1ee0 01       		.uleb128 0x1
 8063 1ee1 50       		.byte	0x50
 8064 1ee2 02       		.uleb128 0x2
 8065 1ee3 74       		.byte	0x74
 8066 1ee4 00       		.sleb128 0
 8067 1ee5 00       		.byte	0
 8068 1ee6 30       		.uleb128 0x30
 8069 1ee7 040B0000 		.4byte	.LVL207
 8070 1eeb 78290000 		.4byte	0x2978
 8071 1eef FA1E0000 		.4byte	0x1efa
 8072 1ef3 31       		.uleb128 0x31
 8073 1ef4 01       		.uleb128 0x1
 8074 1ef5 50       		.byte	0x50
 8075 1ef6 02       		.uleb128 0x2
 8076 1ef7 76       		.byte	0x76
 8077 1ef8 00       		.sleb128 0
 8078 1ef9 00       		.byte	0
 8079 1efa 2F       		.uleb128 0x2f
 8080 1efb 0C0B0000 		.4byte	.LVL208
 8081 1eff 9F290000 		.4byte	0x299f
 8082 1f03 00       		.byte	0
 8083 1f04 41       		.uleb128 0x41
 8084 1f05 F4000000 		.4byte	.LASF303
 8085 1f09 01       		.byte	0x1
 8086 1f0a 1102     		.2byte	0x211
 8087 1f0c 07090000 		.4byte	0x907
 8088 1f10 01       		.byte	0x1
 8089 1f11 221F0000 		.4byte	0x1f22
 8090 1f15 23       		.uleb128 0x23
 8091 1f16 70636200 		.ascii	"pcb\000"
 8092 1f1a 01       		.byte	0x1
 8093 1f1b 1102     		.2byte	0x211
 8094 1f1d C40B0000 		.4byte	0xbc4
 8095 1f21 00       		.byte	0
 8096 1f22 41       		.uleb128 0x41
 8097 1f23 8E0F0000 		.4byte	.LASF304
 8098 1f27 01       		.byte	0x1
 8099 1f28 B801     		.2byte	0x1b8
 8100 1f2a 07090000 		.4byte	0x907
 8101 1f2e 01       		.byte	0x1
 8102 1f2f 571F0000 		.4byte	0x1f57
 8103 1f33 23       		.uleb128 0x23
 8104 1f34 70636200 		.ascii	"pcb\000"
 8105 1f38 01       		.byte	0x1
 8106 1f39 B801     		.2byte	0x1b8
 8107 1f3b 72100000 		.4byte	0x1072
 8108 1f3f 25       		.uleb128 0x25
 8109 1f40 89000000 		.4byte	.LASF305
ARM GAS  C:\Users\jo\AppData\Local\Temp\ccfChKJS.s 			page 145


 8110 1f44 01       		.byte	0x1
 8111 1f45 BA01     		.2byte	0x1ba
 8112 1f47 C40B0000 		.4byte	0xbc4
 8113 1f4b 24       		.uleb128 0x24
 8114 1f4c 726300   		.ascii	"rc\000"
 8115 1f4f 01       		.byte	0x1
 8116 1f50 BB01     		.2byte	0x1bb
 8117 1f52 07090000 		.4byte	0x907
 8118 1f56 00       		.byte	0
 8119 1f57 41       		.uleb128 0x41
 8120 1f58 3D060000 		.4byte	.LASF306
 8121 1f5c 01       		.byte	0x1
 8122 1f5d 3F02     		.2byte	0x23f
 8123 1f5f 07090000 		.4byte	0x907
 8124 1f63 01       		.byte	0x1
 8125 1f64 A71F0000 		.4byte	0x1fa7
 8126 1f68 23       		.uleb128 0x23
 8127 1f69 70636200 		.ascii	"pcb\000"
 8128 1f6d 01       		.byte	0x1
 8129 1f6e 3F02     		.2byte	0x23f
 8130 1f70 C40B0000 		.4byte	0xbc4
 8131 1f74 25       		.uleb128 0x25
 8132 1f75 6E080000 		.4byte	.LASF307
 8133 1f79 01       		.byte	0x1
 8134 1f7a 4102     		.2byte	0x241
 8135 1f7c CF0F0000 		.4byte	0xfcf
 8136 1f80 25       		.uleb128 0x25
 8137 1f81 FA040000 		.4byte	.LASF308
 8138 1f85 01       		.byte	0x1
 8139 1f86 4202     		.2byte	0x242
 8140 1f88 BA080000 		.4byte	0x8ba
 8141 1f8c 24       		.uleb128 0x24
 8142 1f8d 65727200 		.ascii	"err\000"
 8143 1f91 01       		.byte	0x1
 8144 1f92 4302     		.2byte	0x243
 8145 1f94 07090000 		.4byte	0x907
 8146 1f98 42       		.uleb128 0x42
 8147 1f99 25       		.uleb128 0x25
 8148 1f9a 46000000 		.4byte	.LASF309
 8149 1f9e 01       		.byte	0x1
 8150 1f9f AF02     		.2byte	0x2af
 8151 1fa1 D0080000 		.4byte	0x8d0
 8152 1fa5 00       		.byte	0
 8153 1fa6 00       		.byte	0
 8154 1fa7 43       		.uleb128 0x43
 8155 1fa8 E9040000 		.4byte	.LASF366
 8156 1fac 01       		.byte	0x1
 8157 1fad 5C       		.byte	0x5c
 8158 1fae 00000000 		.4byte	.LFB260
 8159 1fb2 280B0000 		.4byte	.LFE260-.LFB260
 8160 1fb6 01       		.uleb128 0x1
 8161 1fb7 9C       		.byte	0x9c
 8162 1fb8 3D280000 		.4byte	0x283d
 8163 1fbc 44       		.uleb128 0x44
 8164 1fbd 7000     		.ascii	"p\000"
 8165 1fbf 01       		.byte	0x1
 8166 1fc0 5C       		.byte	0x5c
ARM GAS  C:\Users\jo\AppData\Local\Temp\ccfChKJS.s 			page 146


 8167 1fc1 73090000 		.4byte	0x973
 8168 1fc5 DF060000 		.4byte	.LLST35
 8169 1fc9 44       		.uleb128 0x44
 8170 1fca 696E7000 		.ascii	"inp\000"
 8171 1fce 01       		.byte	0x1
 8172 1fcf 5C       		.byte	0x5c
 8173 1fd0 C1090000 		.4byte	0x9c1
 8174 1fd4 AC070000 		.4byte	.LLST36
 8175 1fd8 45       		.uleb128 0x45
 8176 1fd9 70636200 		.ascii	"pcb\000"
 8177 1fdd 01       		.byte	0x1
 8178 1fde 5E       		.byte	0x5e
 8179 1fdf C40B0000 		.4byte	0xbc4
 8180 1fe3 F1070000 		.4byte	.LLST37
 8181 1fe7 46       		.uleb128 0x46
 8182 1fe8 91010000 		.4byte	.LASF296
 8183 1fec 01       		.byte	0x1
 8184 1fed 5E       		.byte	0x5e
 8185 1fee C40B0000 		.4byte	0xbc4
 8186 1ff2 5D080000 		.4byte	.LLST38
 8187 1ff6 46       		.uleb128 0x46
 8188 1ff7 420E0000 		.4byte	.LASF310
 8189 1ffb 01       		.byte	0x1
 8190 1ffc 5F       		.byte	0x5f
 8191 1ffd 72100000 		.4byte	0x1072
 8192 2001 B4080000 		.4byte	.LLST39
 8193 2005 46       		.uleb128 0x46
 8194 2006 7B0E0000 		.4byte	.LASF311
 8195 200a 01       		.byte	0x1
 8196 200b 64       		.byte	0x64
 8197 200c BA080000 		.4byte	0x8ba
 8198 2010 F3080000 		.4byte	.LLST40
 8199 2014 45       		.uleb128 0x45
 8200 2015 65727200 		.ascii	"err\000"
 8201 2019 01       		.byte	0x1
 8202 201a 65       		.byte	0x65
 8203 201b 07090000 		.4byte	0x907
 8204 201f 0A090000 		.4byte	.LLST41
 8205 2023 47       		.uleb128 0x47
 8206 2024 0F050000 		.4byte	.LASF312
 8207 2028 01       		.byte	0x1
 8208 2029 A501     		.2byte	0x1a5
 8209 202b 48000000 		.4byte	.L296
 8210 202f 47       		.uleb128 0x47
 8211 2030 280B0000 		.4byte	.LASF313
 8212 2034 01       		.byte	0x1
 8213 2035 8901     		.2byte	0x189
 8214 2037 2A020000 		.4byte	.L327
 8215 203b 48       		.uleb128 0x48
 8216 203c B1130000 		.4byte	0x13b1
 8217 2040 74010000 		.4byte	.LBB116
 8218 2044 0A000000 		.4byte	.LBE116-.LBB116
 8219 2048 01       		.byte	0x1
 8220 2049 AB       		.byte	0xab
 8221 204a 6B200000 		.4byte	0x206b
 8222 204e 37       		.uleb128 0x37
 8223 204f BE130000 		.4byte	0x13be
ARM GAS  C:\Users\jo\AppData\Local\Temp\ccfChKJS.s 			page 147


 8224 2053 4A090000 		.4byte	.LLST42
 8225 2057 32       		.uleb128 0x32
 8226 2058 7A010000 		.4byte	.LVL232
 8227 205c FB290000 		.4byte	0x29fb
 8228 2060 31       		.uleb128 0x31
 8229 2061 01       		.uleb128 0x1
 8230 2062 50       		.byte	0x50
 8231 2063 05       		.uleb128 0x5
 8232 2064 03       		.byte	0x3
 8233 2065 B0010000 		.4byte	.LC13
 8234 2069 00       		.byte	0
 8235 206a 00       		.byte	0
 8236 206b 48       		.uleb128 0x48
 8237 206c B1130000 		.4byte	0x13b1
 8238 2070 56020000 		.4byte	.LBB118
 8239 2074 08000000 		.4byte	.LBE118-.LBB118
 8240 2078 01       		.byte	0x1
 8241 2079 AD       		.byte	0xad
 8242 207a 9B200000 		.4byte	0x209b
 8243 207e 37       		.uleb128 0x37
 8244 207f BE130000 		.4byte	0x13be
 8245 2083 62090000 		.4byte	.LLST43
 8246 2087 32       		.uleb128 0x32
 8247 2088 5C020000 		.4byte	.LVL239
 8248 208c FB290000 		.4byte	0x29fb
 8249 2090 31       		.uleb128 0x31
 8250 2091 01       		.uleb128 0x1
 8251 2092 50       		.byte	0x50
 8252 2093 05       		.uleb128 0x5
 8253 2094 03       		.byte	0x3
 8254 2095 04020000 		.4byte	.LC15
 8255 2099 00       		.byte	0
 8256 209a 00       		.byte	0
 8257 209b 48       		.uleb128 0x48
 8258 209c B1130000 		.4byte	0x13b1
 8259 20a0 6E020000 		.4byte	.LBB120
 8260 20a4 0A000000 		.4byte	.LBE120-.LBB120
 8261 20a8 01       		.byte	0x1
 8262 20a9 AC       		.byte	0xac
 8263 20aa CB200000 		.4byte	0x20cb
 8264 20ae 37       		.uleb128 0x37
 8265 20af BE130000 		.4byte	0x13be
 8266 20b3 7A090000 		.4byte	.LLST44
 8267 20b7 32       		.uleb128 0x32
 8268 20b8 74020000 		.4byte	.LVL242
 8269 20bc FB290000 		.4byte	0x29fb
 8270 20c0 31       		.uleb128 0x31
 8271 20c1 01       		.uleb128 0x1
 8272 20c2 50       		.byte	0x50
 8273 20c3 05       		.uleb128 0x5
 8274 20c4 03       		.byte	0x3
 8275 20c5 D8010000 		.4byte	.LC14
 8276 20c9 00       		.byte	0
 8277 20ca 00       		.byte	0
 8278 20cb 48       		.uleb128 0x48
 8279 20cc B1130000 		.4byte	0x13b1
 8280 20d0 FE020000 		.4byte	.LBB122
ARM GAS  C:\Users\jo\AppData\Local\Temp\ccfChKJS.s 			page 148


 8281 20d4 06000000 		.4byte	.LBE122-.LBB122
 8282 20d8 01       		.byte	0x1
 8283 20d9 C6       		.byte	0xc6
 8284 20da FB200000 		.4byte	0x20fb
 8285 20de 37       		.uleb128 0x37
 8286 20df BE130000 		.4byte	0x13be
 8287 20e3 92090000 		.4byte	.LLST45
 8288 20e7 32       		.uleb128 0x32
 8289 20e8 04030000 		.4byte	.LVL247
 8290 20ec FB290000 		.4byte	0x29fb
 8291 20f0 31       		.uleb128 0x31
 8292 20f1 01       		.uleb128 0x1
 8293 20f2 50       		.byte	0x50
 8294 20f3 05       		.uleb128 0x5
 8295 20f4 03       		.byte	0x3
 8296 20f5 84020000 		.4byte	.LC18
 8297 20f9 00       		.byte	0
 8298 20fa 00       		.byte	0
 8299 20fb 49       		.uleb128 0x49
 8300 20fc 041F0000 		.4byte	0x1f04
 8301 2100 2C030000 		.4byte	.LBB124
 8302 2104 18000000 		.4byte	.Ldebug_ranges0+0x18
 8303 2108 01       		.byte	0x1
 8304 2109 CF       		.byte	0xcf
 8305 210a 3C210000 		.4byte	0x213c
 8306 210e 37       		.uleb128 0x37
 8307 210f 151F0000 		.4byte	0x1f15
 8308 2113 AA090000 		.4byte	.LLST46
 8309 2117 30       		.uleb128 0x30
 8310 2118 4A0A0000 		.4byte	.LVL338
 8311 211c B82A0000 		.4byte	0x2ab8
 8312 2120 2B210000 		.4byte	0x212b
 8313 2124 31       		.uleb128 0x31
 8314 2125 01       		.uleb128 0x1
 8315 2126 52       		.byte	0x52
 8316 2127 02       		.uleb128 0x2
 8317 2128 78       		.byte	0x78
 8318 2129 00       		.sleb128 0
 8319 212a 00       		.byte	0
 8320 212b 32       		.uleb128 0x32
 8321 212c BA0A0000 		.4byte	.LVL350
 8322 2130 E32A0000 		.4byte	0x2ae3
 8323 2134 31       		.uleb128 0x31
 8324 2135 01       		.uleb128 0x1
 8325 2136 50       		.byte	0x50
 8326 2137 02       		.uleb128 0x2
 8327 2138 77       		.byte	0x77
 8328 2139 00       		.sleb128 0
 8329 213a 00       		.byte	0
 8330 213b 00       		.byte	0
 8331 213c 3C       		.uleb128 0x3c
 8332 213d 571F0000 		.4byte	0x1f57
 8333 2141 5C030000 		.4byte	.LBB129
 8334 2145 40000000 		.4byte	.Ldebug_ranges0+0x40
 8335 2149 01       		.byte	0x1
 8336 214a 3001     		.2byte	0x130
 8337 214c EA230000 		.4byte	0x23ea
ARM GAS  C:\Users\jo\AppData\Local\Temp\ccfChKJS.s 			page 149


 8338 2150 37       		.uleb128 0x37
 8339 2151 681F0000 		.4byte	0x1f68
 8340 2155 DE090000 		.4byte	.LLST47
 8341 2159 4A       		.uleb128 0x4a
 8342 215a 40000000 		.4byte	.Ldebug_ranges0+0x40
 8343 215e 35       		.uleb128 0x35
 8344 215f 741F0000 		.4byte	0x1f74
 8345 2163 2C0A0000 		.4byte	.LLST48
 8346 2167 35       		.uleb128 0x35
 8347 2168 801F0000 		.4byte	0x1f80
 8348 216c 3F0A0000 		.4byte	.LLST49
 8349 2170 35       		.uleb128 0x35
 8350 2171 8C1F0000 		.4byte	0x1f8c
 8351 2175 B30A0000 		.4byte	.LLST50
 8352 2179 4B       		.uleb128 0x4b
 8353 217a 98000000 		.4byte	.Ldebug_ranges0+0x98
 8354 217e 13220000 		.4byte	0x2213
 8355 2182 35       		.uleb128 0x35
 8356 2183 991F0000 		.4byte	0x1f99
 8357 2187 600B0000 		.4byte	.LLST51
 8358 218b 3B       		.uleb128 0x3b
 8359 218c B1130000 		.4byte	0x13b1
 8360 2190 240A0000 		.4byte	.LBB132
 8361 2194 06000000 		.4byte	.LBE132-.LBB132
 8362 2198 01       		.byte	0x1
 8363 2199 B302     		.2byte	0x2b3
 8364 219b BC210000 		.4byte	0x21bc
 8365 219f 37       		.uleb128 0x37
 8366 21a0 BE130000 		.4byte	0x13be
 8367 21a4 730B0000 		.4byte	.LLST52
 8368 21a8 32       		.uleb128 0x32
 8369 21a9 2A0A0000 		.4byte	.LVL336
 8370 21ad FB290000 		.4byte	0x29fb
 8371 21b1 31       		.uleb128 0x31
 8372 21b2 01       		.uleb128 0x1
 8373 21b3 50       		.byte	0x50
 8374 21b4 05       		.uleb128 0x5
 8375 21b5 03       		.byte	0x3
 8376 21b6 EC020000 		.4byte	.LC21
 8377 21ba 00       		.byte	0
 8378 21bb 00       		.byte	0
 8379 21bc 4C       		.uleb128 0x4c
 8380 21bd 28080000 		.4byte	.LVL309
 8381 21c1 D1210000 		.4byte	0x21d1
 8382 21c5 31       		.uleb128 0x31
 8383 21c6 01       		.uleb128 0x1
 8384 21c7 52       		.byte	0x52
 8385 21c8 01       		.uleb128 0x1
 8386 21c9 30       		.byte	0x30
 8387 21ca 31       		.uleb128 0x31
 8388 21cb 01       		.uleb128 0x1
 8389 21cc 51       		.byte	0x51
 8390 21cd 02       		.uleb128 0x2
 8391 21ce 77       		.byte	0x77
 8392 21cf 00       		.sleb128 0
 8393 21d0 00       		.byte	0
 8394 21d1 30       		.uleb128 0x30
ARM GAS  C:\Users\jo\AppData\Local\Temp\ccfChKJS.s 			page 150


 8395 21d2 EC090000 		.4byte	.LVL333
 8396 21d6 77150000 		.4byte	0x1577
 8397 21da E5210000 		.4byte	0x21e5
 8398 21de 31       		.uleb128 0x31
 8399 21df 01       		.uleb128 0x1
 8400 21e0 50       		.byte	0x50
 8401 21e1 02       		.uleb128 0x2
 8402 21e2 77       		.byte	0x77
 8403 21e3 00       		.sleb128 0
 8404 21e4 00       		.byte	0
 8405 21e5 32       		.uleb128 0x32
 8406 21e6 240A0000 		.4byte	.LVL335
 8407 21ea 18150000 		.4byte	0x1518
 8408 21ee 31       		.uleb128 0x31
 8409 21ef 01       		.uleb128 0x1
 8410 21f0 53       		.byte	0x53
 8411 21f1 03       		.uleb128 0x3
 8412 21f2 0A       		.byte	0xa
 8413 21f3 B302     		.2byte	0x2b3
 8414 21f5 31       		.uleb128 0x31
 8415 21f6 01       		.uleb128 0x1
 8416 21f7 52       		.byte	0x52
 8417 21f8 05       		.uleb128 0x5
 8418 21f9 03       		.byte	0x3
 8419 21fa EC020000 		.4byte	.LC21
 8420 21fe 31       		.uleb128 0x31
 8421 21ff 01       		.uleb128 0x1
 8422 2200 51       		.byte	0x51
 8423 2201 05       		.uleb128 0x5
 8424 2202 03       		.byte	0x3
 8425 2203 00000000 		.4byte	.LC0
 8426 2207 31       		.uleb128 0x31
 8427 2208 02       		.uleb128 0x2
 8428 2209 7D       		.byte	0x7d
 8429 220a 00       		.sleb128 0
 8430 220b 05       		.uleb128 0x5
 8431 220c 03       		.byte	0x3
 8432 220d 44000000 		.4byte	.LC2
 8433 2211 00       		.byte	0
 8434 2212 00       		.byte	0
 8435 2213 3B       		.uleb128 0x3b
 8436 2214 B1130000 		.4byte	0x13b1
 8437 2218 0A090000 		.4byte	.LBB134
 8438 221c 06000000 		.4byte	.LBE134-.LBB134
 8439 2220 01       		.byte	0x1
 8440 2221 8C02     		.2byte	0x28c
 8441 2223 44220000 		.4byte	0x2244
 8442 2227 37       		.uleb128 0x37
 8443 2228 BE130000 		.4byte	0x13be
 8444 222c 8B0B0000 		.4byte	.LLST53
 8445 2230 32       		.uleb128 0x32
 8446 2231 10090000 		.4byte	.LVL318
 8447 2235 FB290000 		.4byte	0x29fb
 8448 2239 31       		.uleb128 0x31
 8449 223a 01       		.uleb128 0x1
 8450 223b 50       		.byte	0x50
 8451 223c 05       		.uleb128 0x5
ARM GAS  C:\Users\jo\AppData\Local\Temp\ccfChKJS.s 			page 151


 8452 223d 03       		.byte	0x3
 8453 223e D4020000 		.4byte	.LC20
 8454 2242 00       		.byte	0
 8455 2243 00       		.byte	0
 8456 2244 3B       		.uleb128 0x3b
 8457 2245 B1130000 		.4byte	0x13b1
 8458 2249 DA090000 		.4byte	.LBB136
 8459 224d 08000000 		.4byte	.LBE136-.LBB136
 8460 2251 01       		.byte	0x1
 8461 2252 5702     		.2byte	0x257
 8462 2254 75220000 		.4byte	0x2275
 8463 2258 37       		.uleb128 0x37
 8464 2259 BE130000 		.4byte	0x13be
 8465 225d A30B0000 		.4byte	.LLST54
 8466 2261 32       		.uleb128 0x32
 8467 2262 E0090000 		.4byte	.LVL329
 8468 2266 FB290000 		.4byte	0x29fb
 8469 226a 31       		.uleb128 0x31
 8470 226b 01       		.uleb128 0x1
 8471 226c 50       		.byte	0x50
 8472 226d 05       		.uleb128 0x5
 8473 226e 03       		.byte	0x3
 8474 226f B4020000 		.4byte	.LC19
 8475 2273 00       		.byte	0
 8476 2274 00       		.byte	0
 8477 2275 30       		.uleb128 0x30
 8478 2276 2A050000 		.4byte	.LVL278
 8479 227a BB140000 		.4byte	0x14bb
 8480 227e 89220000 		.4byte	0x2289
 8481 2282 31       		.uleb128 0x31
 8482 2283 01       		.uleb128 0x1
 8483 2284 50       		.byte	0x50
 8484 2285 02       		.uleb128 0x2
 8485 2286 77       		.byte	0x77
 8486 2287 36       		.sleb128 54
 8487 2288 00       		.byte	0
 8488 2289 30       		.uleb128 0x30
 8489 228a 46050000 		.4byte	.LVL279
 8490 228e 77150000 		.4byte	0x1577
 8491 2292 9D220000 		.4byte	0x229d
 8492 2296 31       		.uleb128 0x31
 8493 2297 01       		.uleb128 0x1
 8494 2298 50       		.byte	0x50
 8495 2299 02       		.uleb128 0x2
 8496 229a 77       		.byte	0x77
 8497 229b 00       		.sleb128 0
 8498 229c 00       		.byte	0
 8499 229d 30       		.uleb128 0x30
 8500 229e 70050000 		.4byte	.LVL280
 8501 22a2 77150000 		.4byte	0x1577
 8502 22a6 B1220000 		.4byte	0x22b1
 8503 22aa 31       		.uleb128 0x31
 8504 22ab 01       		.uleb128 0x1
 8505 22ac 50       		.byte	0x50
 8506 22ad 02       		.uleb128 0x2
 8507 22ae 77       		.byte	0x77
 8508 22af 00       		.sleb128 0
ARM GAS  C:\Users\jo\AppData\Local\Temp\ccfChKJS.s 			page 152


 8509 22b0 00       		.byte	0
 8510 22b1 30       		.uleb128 0x30
 8511 22b2 8C050000 		.4byte	.LVL281
 8512 22b6 F92A0000 		.4byte	0x2af9
 8513 22ba C5220000 		.4byte	0x22c5
 8514 22be 31       		.uleb128 0x31
 8515 22bf 01       		.uleb128 0x1
 8516 22c0 50       		.byte	0x50
 8517 22c1 02       		.uleb128 0x2
 8518 22c2 77       		.byte	0x77
 8519 22c3 00       		.sleb128 0
 8520 22c4 00       		.byte	0
 8521 22c5 30       		.uleb128 0x30
 8522 22c6 E6050000 		.4byte	.LVL282
 8523 22ca 77150000 		.4byte	0x1577
 8524 22ce D9220000 		.4byte	0x22d9
 8525 22d2 31       		.uleb128 0x31
 8526 22d3 01       		.uleb128 0x1
 8527 22d4 50       		.byte	0x50
 8528 22d5 02       		.uleb128 0x2
 8529 22d6 77       		.byte	0x77
 8530 22d7 00       		.sleb128 0
 8531 22d8 00       		.byte	0
 8532 22d9 30       		.uleb128 0x30
 8533 22da FE050000 		.4byte	.LVL283
 8534 22de F92A0000 		.4byte	0x2af9
 8535 22e2 ED220000 		.4byte	0x22ed
 8536 22e6 31       		.uleb128 0x31
 8537 22e7 01       		.uleb128 0x1
 8538 22e8 50       		.byte	0x50
 8539 22e9 02       		.uleb128 0x2
 8540 22ea 77       		.byte	0x77
 8541 22eb 00       		.sleb128 0
 8542 22ec 00       		.byte	0
 8543 22ed 30       		.uleb128 0x30
 8544 22ee 24060000 		.4byte	.LVL284
 8545 22f2 77150000 		.4byte	0x1577
 8546 22f6 01230000 		.4byte	0x2301
 8547 22fa 31       		.uleb128 0x31
 8548 22fb 01       		.uleb128 0x1
 8549 22fc 50       		.byte	0x50
 8550 22fd 02       		.uleb128 0x2
 8551 22fe 77       		.byte	0x77
 8552 22ff 00       		.sleb128 0
 8553 2300 00       		.byte	0
 8554 2301 30       		.uleb128 0x30
 8555 2302 58060000 		.4byte	.LVL285
 8556 2306 77150000 		.4byte	0x1577
 8557 230a 15230000 		.4byte	0x2315
 8558 230e 31       		.uleb128 0x31
 8559 230f 01       		.uleb128 0x1
 8560 2310 50       		.byte	0x50
 8561 2311 02       		.uleb128 0x2
 8562 2312 77       		.byte	0x77
 8563 2313 00       		.sleb128 0
 8564 2314 00       		.byte	0
 8565 2315 2F       		.uleb128 0x2f
ARM GAS  C:\Users\jo\AppData\Local\Temp\ccfChKJS.s 			page 153


 8566 2316 AC060000 		.4byte	.LVL288
 8567 231a B82A0000 		.4byte	0x2ab8
 8568 231e 30       		.uleb128 0x30
 8569 231f 12080000 		.4byte	.LVL308
 8570 2323 0B2B0000 		.4byte	0x2b0b
 8571 2327 32230000 		.4byte	0x2332
 8572 232b 31       		.uleb128 0x31
 8573 232c 01       		.uleb128 0x1
 8574 232d 50       		.byte	0x50
 8575 232e 02       		.uleb128 0x2
 8576 232f 77       		.byte	0x77
 8577 2330 00       		.sleb128 0
 8578 2331 00       		.byte	0
 8579 2332 2F       		.uleb128 0x2f
 8580 2333 96080000 		.4byte	.LVL315
 8581 2337 0D2A0000 		.4byte	0x2a0d
 8582 233b 30       		.uleb128 0x30
 8583 233c D4080000 		.4byte	.LVL316
 8584 2340 1C2B0000 		.4byte	0x2b1c
 8585 2344 4F230000 		.4byte	0x234f
 8586 2348 31       		.uleb128 0x31
 8587 2349 01       		.uleb128 0x1
 8588 234a 51       		.byte	0x51
 8589 234b 02       		.uleb128 0x2
 8590 234c 77       		.byte	0x77
 8591 234d 04       		.sleb128 4
 8592 234e 00       		.byte	0
 8593 234f 30       		.uleb128 0x30
 8594 2350 0A090000 		.4byte	.LVL317
 8595 2354 18150000 		.4byte	0x1518
 8596 2358 80230000 		.4byte	0x2380
 8597 235c 31       		.uleb128 0x31
 8598 235d 01       		.uleb128 0x1
 8599 235e 53       		.byte	0x53
 8600 235f 03       		.uleb128 0x3
 8601 2360 0A       		.byte	0xa
 8602 2361 8C02     		.2byte	0x28c
 8603 2363 31       		.uleb128 0x31
 8604 2364 01       		.uleb128 0x1
 8605 2365 52       		.byte	0x52
 8606 2366 05       		.uleb128 0x5
 8607 2367 03       		.byte	0x3
 8608 2368 D4020000 		.4byte	.LC20
 8609 236c 31       		.uleb128 0x31
 8610 236d 01       		.uleb128 0x1
 8611 236e 51       		.byte	0x51
 8612 236f 05       		.uleb128 0x5
 8613 2370 03       		.byte	0x3
 8614 2371 00000000 		.4byte	.LC0
 8615 2375 31       		.uleb128 0x31
 8616 2376 02       		.uleb128 0x2
 8617 2377 7D       		.byte	0x7d
 8618 2378 00       		.sleb128 0
 8619 2379 05       		.uleb128 0x5
 8620 237a 03       		.byte	0x3
 8621 237b 44000000 		.4byte	.LC2
 8622 237f 00       		.byte	0
ARM GAS  C:\Users\jo\AppData\Local\Temp\ccfChKJS.s 			page 154


 8623 2380 2F       		.uleb128 0x2f
 8624 2381 24090000 		.4byte	.LVL320
 8625 2385 8D290000 		.4byte	0x298d
 8626 2389 4C       		.uleb128 0x4c
 8627 238a 46090000 		.4byte	.LVL321
 8628 238e 9E230000 		.4byte	0x239e
 8629 2392 31       		.uleb128 0x31
 8630 2393 01       		.uleb128 0x1
 8631 2394 52       		.byte	0x52
 8632 2395 01       		.uleb128 0x1
 8633 2396 30       		.byte	0x30
 8634 2397 31       		.uleb128 0x31
 8635 2398 01       		.uleb128 0x1
 8636 2399 51       		.byte	0x51
 8637 239a 02       		.uleb128 0x2
 8638 239b 77       		.byte	0x77
 8639 239c 00       		.sleb128 0
 8640 239d 00       		.byte	0
 8641 239e 2F       		.uleb128 0x2f
 8642 239f 68090000 		.4byte	.LVL324
 8643 23a3 372B0000 		.4byte	0x2b37
 8644 23a7 30       		.uleb128 0x30
 8645 23a8 90090000 		.4byte	.LVL325
 8646 23ac F92A0000 		.4byte	0x2af9
 8647 23b0 BB230000 		.4byte	0x23bb
 8648 23b4 31       		.uleb128 0x31
 8649 23b5 01       		.uleb128 0x1
 8650 23b6 50       		.byte	0x50
 8651 23b7 02       		.uleb128 0x2
 8652 23b8 77       		.byte	0x77
 8653 23b9 00       		.sleb128 0
 8654 23ba 00       		.byte	0
 8655 23bb 32       		.uleb128 0x32
 8656 23bc DA090000 		.4byte	.LVL328
 8657 23c0 18150000 		.4byte	0x1518
 8658 23c4 31       		.uleb128 0x31
 8659 23c5 01       		.uleb128 0x1
 8660 23c6 53       		.byte	0x53
 8661 23c7 03       		.uleb128 0x3
 8662 23c8 0A       		.byte	0xa
 8663 23c9 5702     		.2byte	0x257
 8664 23cb 31       		.uleb128 0x31
 8665 23cc 01       		.uleb128 0x1
 8666 23cd 52       		.byte	0x52
 8667 23ce 05       		.uleb128 0x5
 8668 23cf 03       		.byte	0x3
 8669 23d0 B4020000 		.4byte	.LC19
 8670 23d4 31       		.uleb128 0x31
 8671 23d5 01       		.uleb128 0x1
 8672 23d6 51       		.byte	0x51
 8673 23d7 05       		.uleb128 0x5
 8674 23d8 03       		.byte	0x3
 8675 23d9 00000000 		.4byte	.LC0
 8676 23dd 31       		.uleb128 0x31
 8677 23de 02       		.uleb128 0x2
 8678 23df 7D       		.byte	0x7d
 8679 23e0 00       		.sleb128 0
ARM GAS  C:\Users\jo\AppData\Local\Temp\ccfChKJS.s 			page 155


 8680 23e1 05       		.uleb128 0x5
 8681 23e2 03       		.byte	0x3
 8682 23e3 44000000 		.4byte	.LC2
 8683 23e7 00       		.byte	0
 8684 23e8 00       		.byte	0
 8685 23e9 00       		.byte	0
 8686 23ea 3C       		.uleb128 0x3c
 8687 23eb 221F0000 		.4byte	0x1f22
 8688 23ef 34040000 		.4byte	.LBB151
 8689 23f3 B0000000 		.4byte	.Ldebug_ranges0+0xb0
 8690 23f7 01       		.byte	0x1
 8691 23f8 0201     		.2byte	0x102
 8692 23fa B9240000 		.4byte	0x24b9
 8693 23fe 37       		.uleb128 0x37
 8694 23ff 331F0000 		.4byte	0x1f33
 8695 2403 BB0B0000 		.4byte	.LLST55
 8696 2407 4A       		.uleb128 0x4a
 8697 2408 B0000000 		.4byte	.Ldebug_ranges0+0xb0
 8698 240c 35       		.uleb128 0x35
 8699 240d 3F1F0000 		.4byte	0x1f3f
 8700 2411 D90B0000 		.4byte	.LLST56
 8701 2415 35       		.uleb128 0x35
 8702 2416 4B1F0000 		.4byte	0x1f4b
 8703 241a 180C0000 		.4byte	.LLST57
 8704 241e 2F       		.uleb128 0x2f
 8705 241f 56040000 		.4byte	.LVL269
 8706 2423 3F2B0000 		.4byte	0x2b3f
 8707 2427 2F       		.uleb128 0x2f
 8708 2428 DA040000 		.4byte	.LVL271
 8709 242c 372B0000 		.4byte	0x2b37
 8710 2430 30       		.uleb128 0x30
 8711 2431 E8040000 		.4byte	.LVL272
 8712 2435 BB140000 		.4byte	0x14bb
 8713 2439 4C240000 		.4byte	0x244c
 8714 243d 31       		.uleb128 0x31
 8715 243e 01       		.uleb128 0x1
 8716 243f 50       		.byte	0x50
 8717 2440 02       		.uleb128 0x2
 8718 2441 7A       		.byte	0x7a
 8719 2442 36       		.sleb128 54
 8720 2443 4D       		.uleb128 0x4d
 8721 2444 64130000 		.4byte	0x1364
 8722 2448 02       		.uleb128 0x2
 8723 2449 7A       		.byte	0x7a
 8724 244a 00       		.sleb128 0
 8725 244b 00       		.byte	0
 8726 244c 30       		.uleb128 0x30
 8727 244d F4040000 		.4byte	.LVL273
 8728 2451 1C2B0000 		.4byte	0x2b1c
 8729 2455 60240000 		.4byte	0x2460
 8730 2459 31       		.uleb128 0x31
 8731 245a 01       		.uleb128 0x1
 8732 245b 51       		.byte	0x51
 8733 245c 02       		.uleb128 0x2
 8734 245d 7A       		.byte	0x7a
 8735 245e 04       		.sleb128 4
 8736 245f 00       		.byte	0
ARM GAS  C:\Users\jo\AppData\Local\Temp\ccfChKJS.s 			page 156


 8737 2460 30       		.uleb128 0x30
 8738 2461 00050000 		.4byte	.LVL274
 8739 2465 542B0000 		.4byte	0x2b54
 8740 2469 79240000 		.4byte	0x2479
 8741 246d 31       		.uleb128 0x31
 8742 246e 01       		.uleb128 0x1
 8743 246f 51       		.byte	0x51
 8744 2470 01       		.uleb128 0x1
 8745 2471 42       		.byte	0x42
 8746 2472 31       		.uleb128 0x31
 8747 2473 01       		.uleb128 0x1
 8748 2474 50       		.byte	0x50
 8749 2475 02       		.uleb128 0x2
 8750 2476 7A       		.byte	0x7a
 8751 2477 00       		.sleb128 0
 8752 2478 00       		.byte	0
 8753 2479 30       		.uleb128 0x30
 8754 247a 0C050000 		.4byte	.LVL276
 8755 247e E32A0000 		.4byte	0x2ae3
 8756 2482 8D240000 		.4byte	0x248d
 8757 2486 31       		.uleb128 0x31
 8758 2487 01       		.uleb128 0x1
 8759 2488 50       		.byte	0x50
 8760 2489 02       		.uleb128 0x2
 8761 248a 7A       		.byte	0x7a
 8762 248b 00       		.sleb128 0
 8763 248c 00       		.byte	0
 8764 248d 30       		.uleb128 0x30
 8765 248e 580A0000 		.4byte	.LVL341
 8766 2492 6F2B0000 		.4byte	0x2b6f
 8767 2496 A7240000 		.4byte	0x24a7
 8768 249a 31       		.uleb128 0x31
 8769 249b 01       		.uleb128 0x1
 8770 249c 51       		.byte	0x51
 8771 249d 02       		.uleb128 0x2
 8772 249e 77       		.byte	0x77
 8773 249f 00       		.sleb128 0
 8774 24a0 31       		.uleb128 0x31
 8775 24a1 01       		.uleb128 0x1
 8776 24a2 50       		.byte	0x50
 8777 24a3 02       		.uleb128 0x2
 8778 24a4 7A       		.byte	0x7a
 8779 24a5 00       		.sleb128 0
 8780 24a6 00       		.byte	0
 8781 24a7 32       		.uleb128 0x32
 8782 24a8 8C0A0000 		.4byte	.LVL345
 8783 24ac B82A0000 		.4byte	0x2ab8
 8784 24b0 31       		.uleb128 0x31
 8785 24b1 01       		.uleb128 0x1
 8786 24b2 52       		.byte	0x52
 8787 24b3 02       		.uleb128 0x2
 8788 24b4 78       		.byte	0x78
 8789 24b5 00       		.sleb128 0
 8790 24b6 00       		.byte	0
 8791 24b7 00       		.byte	0
 8792 24b8 00       		.byte	0
 8793 24b9 3B       		.uleb128 0x3b
ARM GAS  C:\Users\jo\AppData\Local\Temp\ccfChKJS.s 			page 157


 8794 24ba B1130000 		.4byte	0x13b1
 8795 24be 60070000 		.4byte	.LBB157
 8796 24c2 06000000 		.4byte	.LBE157-.LBB157
 8797 24c6 01       		.byte	0x1
 8798 24c7 5401     		.2byte	0x154
 8799 24c9 EA240000 		.4byte	0x24ea
 8800 24cd 37       		.uleb128 0x37
 8801 24ce BE130000 		.4byte	0x13be
 8802 24d2 360C0000 		.4byte	.LLST58
 8803 24d6 32       		.uleb128 0x32
 8804 24d7 66070000 		.4byte	.LVL296
 8805 24db FB290000 		.4byte	0x29fb
 8806 24df 31       		.uleb128 0x31
 8807 24e0 01       		.uleb128 0x1
 8808 24e1 50       		.byte	0x50
 8809 24e2 05       		.uleb128 0x5
 8810 24e3 03       		.byte	0x3
 8811 24e4 00030000 		.4byte	.LC22
 8812 24e8 00       		.byte	0
 8813 24e9 00       		.byte	0
 8814 24ea 48       		.uleb128 0x48
 8815 24eb B1130000 		.4byte	0x13b1
 8816 24ef A20A0000 		.4byte	.LBB168
 8817 24f3 0A000000 		.4byte	.LBE168-.LBB168
 8818 24f7 01       		.byte	0x1
 8819 24f8 BC       		.byte	0xbc
 8820 24f9 1A250000 		.4byte	0x251a
 8821 24fd 37       		.uleb128 0x37
 8822 24fe BE130000 		.4byte	0x13be
 8823 2502 4E0C0000 		.4byte	.LLST59
 8824 2506 32       		.uleb128 0x32
 8825 2507 A80A0000 		.4byte	.LVL348
 8826 250b FB290000 		.4byte	0x29fb
 8827 250f 31       		.uleb128 0x31
 8828 2510 01       		.uleb128 0x1
 8829 2511 50       		.byte	0x50
 8830 2512 05       		.uleb128 0x5
 8831 2513 03       		.byte	0x3
 8832 2514 58020000 		.4byte	.LC17
 8833 2518 00       		.byte	0
 8834 2519 00       		.byte	0
 8835 251a 48       		.uleb128 0x48
 8836 251b B1130000 		.4byte	0x13b1
 8837 251f D00A0000 		.4byte	.LBB171
 8838 2523 0C000000 		.4byte	.LBE171-.LBB171
 8839 2527 01       		.byte	0x1
 8840 2528 B6       		.byte	0xb6
 8841 2529 4A250000 		.4byte	0x254a
 8842 252d 37       		.uleb128 0x37
 8843 252e BE130000 		.4byte	0x13be
 8844 2532 660C0000 		.4byte	.LLST60
 8845 2536 32       		.uleb128 0x32
 8846 2537 D60A0000 		.4byte	.LVL353
 8847 253b FB290000 		.4byte	0x29fb
 8848 253f 31       		.uleb128 0x31
 8849 2540 01       		.uleb128 0x1
 8850 2541 50       		.byte	0x50
ARM GAS  C:\Users\jo\AppData\Local\Temp\ccfChKJS.s 			page 158


 8851 2542 05       		.uleb128 0x5
 8852 2543 03       		.byte	0x3
 8853 2544 2C020000 		.4byte	.LC16
 8854 2548 00       		.byte	0
 8855 2549 00       		.byte	0
 8856 254a 30       		.uleb128 0x30
 8857 254b 36000000 		.4byte	.LVL211
 8858 254f 622A0000 		.4byte	0x2a62
 8859 2553 5E250000 		.4byte	0x255e
 8860 2557 31       		.uleb128 0x31
 8861 2558 01       		.uleb128 0x1
 8862 2559 50       		.byte	0x50
 8863 255a 02       		.uleb128 0x2
 8864 255b 75       		.byte	0x75
 8865 255c 00       		.sleb128 0
 8866 255d 00       		.byte	0
 8867 255e 40       		.uleb128 0x40
 8868 255f 5E000000 		.4byte	.LVL213
 8869 2563 852B0000 		.4byte	0x2b85
 8870 2567 30       		.uleb128 0x30
 8871 2568 6C000000 		.4byte	.LVL214
 8872 256c 9A2B0000 		.4byte	0x2b9a
 8873 2570 7B250000 		.4byte	0x257b
 8874 2574 31       		.uleb128 0x31
 8875 2575 01       		.uleb128 0x1
 8876 2576 51       		.byte	0x51
 8877 2577 02       		.uleb128 0x2
 8878 2578 77       		.byte	0x77
 8879 2579 00       		.sleb128 0
 8880 257a 00       		.byte	0
 8881 257b 30       		.uleb128 0x30
 8882 257c 8A000000 		.4byte	.LVL215
 8883 2580 BF2B0000 		.4byte	0x2bbf
 8884 2584 9A250000 		.4byte	0x259a
 8885 2588 31       		.uleb128 0x31
 8886 2589 01       		.uleb128 0x1
 8887 258a 53       		.byte	0x53
 8888 258b 01       		.uleb128 0x1
 8889 258c 36       		.byte	0x36
 8890 258d 31       		.uleb128 0x31
 8891 258e 01       		.uleb128 0x1
 8892 258f 52       		.byte	0x52
 8893 2590 02       		.uleb128 0x2
 8894 2591 78       		.byte	0x78
 8895 2592 00       		.sleb128 0
 8896 2593 31       		.uleb128 0x31
 8897 2594 01       		.uleb128 0x1
 8898 2595 50       		.byte	0x50
 8899 2596 02       		.uleb128 0x2
 8900 2597 75       		.byte	0x75
 8901 2598 00       		.sleb128 0
 8902 2599 00       		.byte	0
 8903 259a 2F       		.uleb128 0x2f
 8904 259b AC000000 		.4byte	.LVL216
 8905 259f 78290000 		.4byte	0x2978
 8906 25a3 30       		.uleb128 0x30
 8907 25a4 BC000000 		.4byte	.LVL218
ARM GAS  C:\Users\jo\AppData\Local\Temp\ccfChKJS.s 			page 159


 8908 25a8 622A0000 		.4byte	0x2a62
 8909 25ac B7250000 		.4byte	0x25b7
 8910 25b0 31       		.uleb128 0x31
 8911 25b1 01       		.uleb128 0x1
 8912 25b2 50       		.byte	0x50
 8913 25b3 02       		.uleb128 0x2
 8914 25b4 75       		.byte	0x75
 8915 25b5 00       		.sleb128 0
 8916 25b6 00       		.byte	0
 8917 25b7 2F       		.uleb128 0x2f
 8918 25b8 CE000000 		.4byte	.LVL220
 8919 25bc 78290000 		.4byte	0x2978
 8920 25c0 2F       		.uleb128 0x2f
 8921 25c1 DC000000 		.4byte	.LVL221
 8922 25c5 78290000 		.4byte	0x2978
 8923 25c9 2F       		.uleb128 0x2f
 8924 25ca E8000000 		.4byte	.LVL222
 8925 25ce 0D2A0000 		.4byte	0x2a0d
 8926 25d2 2F       		.uleb128 0x2f
 8927 25d3 FA000000 		.4byte	.LVL223
 8928 25d7 0D2A0000 		.4byte	0x2a0d
 8929 25db 2F       		.uleb128 0x2f
 8930 25dc 0A010000 		.4byte	.LVL224
 8931 25e0 78290000 		.4byte	0x2978
 8932 25e4 2F       		.uleb128 0x2f
 8933 25e5 14010000 		.4byte	.LVL225
 8934 25e9 78290000 		.4byte	0x2978
 8935 25ed 30       		.uleb128 0x30
 8936 25ee 74010000 		.4byte	.LVL231
 8937 25f2 18150000 		.4byte	0x1518
 8938 25f6 1A260000 		.4byte	0x261a
 8939 25fa 31       		.uleb128 0x31
 8940 25fb 01       		.uleb128 0x1
 8941 25fc 53       		.byte	0x53
 8942 25fd 02       		.uleb128 0x2
 8943 25fe 08       		.byte	0x8
 8944 25ff AB       		.byte	0xab
 8945 2600 31       		.uleb128 0x31
 8946 2601 01       		.uleb128 0x1
 8947 2602 52       		.byte	0x52
 8948 2603 05       		.uleb128 0x5
 8949 2604 03       		.byte	0x3
 8950 2605 B0010000 		.4byte	.LC13
 8951 2609 31       		.uleb128 0x31
 8952 260a 01       		.uleb128 0x1
 8953 260b 51       		.byte	0x51
 8954 260c 05       		.uleb128 0x5
 8955 260d 03       		.byte	0x3
 8956 260e 00000000 		.4byte	.LC0
 8957 2612 31       		.uleb128 0x31
 8958 2613 02       		.uleb128 0x2
 8959 2614 7D       		.byte	0x7d
 8960 2615 00       		.sleb128 0
 8961 2616 02       		.uleb128 0x2
 8962 2617 7B       		.byte	0x7b
 8963 2618 00       		.sleb128 0
 8964 2619 00       		.byte	0
ARM GAS  C:\Users\jo\AppData\Local\Temp\ccfChKJS.s 			page 160


 8965 261a 30       		.uleb128 0x30
 8966 261b 08020000 		.4byte	.LVL234
 8967 261f E82B0000 		.4byte	0x2be8
 8968 2623 2E260000 		.4byte	0x262e
 8969 2627 31       		.uleb128 0x31
 8970 2628 01       		.uleb128 0x1
 8971 2629 50       		.byte	0x50
 8972 262a 02       		.uleb128 0x2
 8973 262b 77       		.byte	0x77
 8974 262c 00       		.sleb128 0
 8975 262d 00       		.byte	0
 8976 262e 2F       		.uleb128 0x2f
 8977 262f 3E020000 		.4byte	.LVL236
 8978 2633 852B0000 		.4byte	0x2b85
 8979 2637 30       		.uleb128 0x30
 8980 2638 56020000 		.4byte	.LVL238
 8981 263c 18150000 		.4byte	0x1518
 8982 2640 64260000 		.4byte	0x2664
 8983 2644 31       		.uleb128 0x31
 8984 2645 01       		.uleb128 0x1
 8985 2646 53       		.byte	0x53
 8986 2647 02       		.uleb128 0x2
 8987 2648 08       		.byte	0x8
 8988 2649 AD       		.byte	0xad
 8989 264a 31       		.uleb128 0x31
 8990 264b 01       		.uleb128 0x1
 8991 264c 52       		.byte	0x52
 8992 264d 05       		.uleb128 0x5
 8993 264e 03       		.byte	0x3
 8994 264f 04020000 		.4byte	.LC15
 8995 2653 31       		.uleb128 0x31
 8996 2654 01       		.uleb128 0x1
 8997 2655 51       		.byte	0x51
 8998 2656 05       		.uleb128 0x5
 8999 2657 03       		.byte	0x3
 9000 2658 00000000 		.4byte	.LC0
 9001 265c 31       		.uleb128 0x31
 9002 265d 02       		.uleb128 0x2
 9003 265e 7D       		.byte	0x7d
 9004 265f 00       		.sleb128 0
 9005 2660 02       		.uleb128 0x2
 9006 2661 7B       		.byte	0x7b
 9007 2662 00       		.sleb128 0
 9008 2663 00       		.byte	0
 9009 2664 30       		.uleb128 0x30
 9010 2665 6E020000 		.4byte	.LVL241
 9011 2669 18150000 		.4byte	0x1518
 9012 266d 91260000 		.4byte	0x2691
 9013 2671 31       		.uleb128 0x31
 9014 2672 01       		.uleb128 0x1
 9015 2673 53       		.byte	0x53
 9016 2674 02       		.uleb128 0x2
 9017 2675 08       		.byte	0x8
 9018 2676 AC       		.byte	0xac
 9019 2677 31       		.uleb128 0x31
 9020 2678 01       		.uleb128 0x1
 9021 2679 52       		.byte	0x52
ARM GAS  C:\Users\jo\AppData\Local\Temp\ccfChKJS.s 			page 161


 9022 267a 05       		.uleb128 0x5
 9023 267b 03       		.byte	0x3
 9024 267c D8010000 		.4byte	.LC14
 9025 2680 31       		.uleb128 0x31
 9026 2681 01       		.uleb128 0x1
 9027 2682 51       		.byte	0x51
 9028 2683 05       		.uleb128 0x5
 9029 2684 03       		.byte	0x3
 9030 2685 00000000 		.4byte	.LC0
 9031 2689 31       		.uleb128 0x31
 9032 268a 02       		.uleb128 0x2
 9033 268b 7D       		.byte	0x7d
 9034 268c 00       		.sleb128 0
 9035 268d 02       		.uleb128 0x2
 9036 268e 7B       		.byte	0x7b
 9037 268f 00       		.sleb128 0
 9038 2690 00       		.byte	0
 9039 2691 30       		.uleb128 0x30
 9040 2692 FE020000 		.4byte	.LVL246
 9041 2696 18150000 		.4byte	0x1518
 9042 269a BE260000 		.4byte	0x26be
 9043 269e 31       		.uleb128 0x31
 9044 269f 01       		.uleb128 0x1
 9045 26a0 53       		.byte	0x53
 9046 26a1 02       		.uleb128 0x2
 9047 26a2 08       		.byte	0x8
 9048 26a3 C6       		.byte	0xc6
 9049 26a4 31       		.uleb128 0x31
 9050 26a5 01       		.uleb128 0x1
 9051 26a6 52       		.byte	0x52
 9052 26a7 05       		.uleb128 0x5
 9053 26a8 03       		.byte	0x3
 9054 26a9 84020000 		.4byte	.LC18
 9055 26ad 31       		.uleb128 0x31
 9056 26ae 01       		.uleb128 0x1
 9057 26af 51       		.byte	0x51
 9058 26b0 05       		.uleb128 0x5
 9059 26b1 03       		.byte	0x3
 9060 26b2 00000000 		.4byte	.LC0
 9061 26b6 31       		.uleb128 0x31
 9062 26b7 02       		.uleb128 0x2
 9063 26b8 7D       		.byte	0x7d
 9064 26b9 00       		.sleb128 0
 9065 26ba 02       		.uleb128 0x2
 9066 26bb 79       		.byte	0x79
 9067 26bc 00       		.sleb128 0
 9068 26bd 00       		.byte	0
 9069 26be 4C       		.uleb128 0x4c
 9070 26bf 9A030000 		.4byte	.LVL255
 9071 26c3 CE260000 		.4byte	0x26ce
 9072 26c7 31       		.uleb128 0x31
 9073 26c8 01       		.uleb128 0x1
 9074 26c9 51       		.byte	0x51
 9075 26ca 02       		.uleb128 0x2
 9076 26cb 09       		.byte	0x9
 9077 26cc F5       		.byte	0xf5
 9078 26cd 00       		.byte	0
ARM GAS  C:\Users\jo\AppData\Local\Temp\ccfChKJS.s 			page 162


 9079 26ce 30       		.uleb128 0x30
 9080 26cf A2030000 		.4byte	.LVL256
 9081 26d3 FD2B0000 		.4byte	0x2bfd
 9082 26d7 E2260000 		.4byte	0x26e2
 9083 26db 31       		.uleb128 0x31
 9084 26dc 01       		.uleb128 0x1
 9085 26dd 51       		.byte	0x51
 9086 26de 02       		.uleb128 0x2
 9087 26df 77       		.byte	0x77
 9088 26e0 00       		.sleb128 0
 9089 26e1 00       		.byte	0
 9090 26e2 30       		.uleb128 0x30
 9091 26e3 A8030000 		.4byte	.LVL257
 9092 26e7 1A2C0000 		.4byte	0x2c1a
 9093 26eb F6260000 		.4byte	0x26f6
 9094 26ef 31       		.uleb128 0x31
 9095 26f0 01       		.uleb128 0x1
 9096 26f1 50       		.byte	0x50
 9097 26f2 02       		.uleb128 0x2
 9098 26f3 77       		.byte	0x77
 9099 26f4 00       		.sleb128 0
 9100 26f5 00       		.byte	0
 9101 26f6 4C       		.uleb128 0x4c
 9102 26f7 E0030000 		.4byte	.LVL261
 9103 26fb 06270000 		.4byte	0x2706
 9104 26ff 31       		.uleb128 0x31
 9105 2700 01       		.uleb128 0x1
 9106 2701 51       		.byte	0x51
 9107 2702 02       		.uleb128 0x2
 9108 2703 09       		.byte	0x9
 9109 2704 F4       		.byte	0xf4
 9110 2705 00       		.byte	0
 9111 2706 2F       		.uleb128 0x2f
 9112 2707 E8060000 		.4byte	.LVL290
 9113 270b 78290000 		.4byte	0x2978
 9114 270f 30       		.uleb128 0x30
 9115 2710 2A070000 		.4byte	.LVL291
 9116 2714 B82A0000 		.4byte	0x2ab8
 9117 2718 24270000 		.4byte	0x2724
 9118 271c 31       		.uleb128 0x31
 9119 271d 02       		.uleb128 0x2
 9120 271e 7D       		.byte	0x7d
 9121 271f 04       		.sleb128 4
 9122 2720 02       		.uleb128 0x2
 9123 2721 74       		.byte	0x74
 9124 2722 00       		.sleb128 0
 9125 2723 00       		.byte	0
 9126 2724 4C       		.uleb128 0x4c
 9127 2725 3E070000 		.4byte	.LVL293
 9128 2729 34270000 		.4byte	0x2734
 9129 272d 31       		.uleb128 0x31
 9130 272e 01       		.uleb128 0x1
 9131 272f 51       		.byte	0x51
 9132 2730 02       		.uleb128 0x2
 9133 2731 77       		.byte	0x77
 9134 2732 00       		.sleb128 0
 9135 2733 00       		.byte	0
ARM GAS  C:\Users\jo\AppData\Local\Temp\ccfChKJS.s 			page 163


 9136 2734 30       		.uleb128 0x30
 9137 2735 60070000 		.4byte	.LVL295
 9138 2739 18150000 		.4byte	0x1518
 9139 273d 65270000 		.4byte	0x2765
 9140 2741 31       		.uleb128 0x31
 9141 2742 01       		.uleb128 0x1
 9142 2743 53       		.byte	0x53
 9143 2744 03       		.uleb128 0x3
 9144 2745 0A       		.byte	0xa
 9145 2746 5401     		.2byte	0x154
 9146 2748 31       		.uleb128 0x31
 9147 2749 01       		.uleb128 0x1
 9148 274a 52       		.byte	0x52
 9149 274b 05       		.uleb128 0x5
 9150 274c 03       		.byte	0x3
 9151 274d 00030000 		.4byte	.LC22
 9152 2751 31       		.uleb128 0x31
 9153 2752 01       		.uleb128 0x1
 9154 2753 51       		.byte	0x51
 9155 2754 05       		.uleb128 0x5
 9156 2755 03       		.byte	0x3
 9157 2756 00000000 		.4byte	.LC0
 9158 275a 31       		.uleb128 0x31
 9159 275b 02       		.uleb128 0x2
 9160 275c 7D       		.byte	0x7d
 9161 275d 00       		.sleb128 0
 9162 275e 05       		.uleb128 0x5
 9163 275f 03       		.byte	0x3
 9164 2760 44000000 		.4byte	.LC2
 9165 2764 00       		.byte	0
 9166 2765 4E       		.uleb128 0x4e
 9167 2766 84070000 		.4byte	.LVL297
 9168 276a 02       		.uleb128 0x2
 9169 276b 74       		.byte	0x74
 9170 276c 00       		.sleb128 0
 9171 276d 78270000 		.4byte	0x2778
 9172 2771 31       		.uleb128 0x31
 9173 2772 01       		.uleb128 0x1
 9174 2773 51       		.byte	0x51
 9175 2774 02       		.uleb128 0x2
 9176 2775 77       		.byte	0x77
 9177 2776 00       		.sleb128 0
 9178 2777 00       		.byte	0
 9179 2778 30       		.uleb128 0x30
 9180 2779 B4070000 		.4byte	.LVL299
 9181 277d E32A0000 		.4byte	0x2ae3
 9182 2781 8C270000 		.4byte	0x278c
 9183 2785 31       		.uleb128 0x31
 9184 2786 01       		.uleb128 0x1
 9185 2787 50       		.byte	0x50
 9186 2788 02       		.uleb128 0x2
 9187 2789 77       		.byte	0x77
 9188 278a 00       		.sleb128 0
 9189 278b 00       		.byte	0
 9190 278c 30       		.uleb128 0x30
 9191 278d E6070000 		.4byte	.LVL303
 9192 2791 2B2C0000 		.4byte	0x2c2b
ARM GAS  C:\Users\jo\AppData\Local\Temp\ccfChKJS.s 			page 164


 9193 2795 AC270000 		.4byte	0x27ac
 9194 2799 31       		.uleb128 0x31
 9195 279a 01       		.uleb128 0x1
 9196 279b 53       		.byte	0x53
 9197 279c 02       		.uleb128 0x2
 9198 279d 74       		.byte	0x74
 9199 279e 00       		.sleb128 0
 9200 279f 31       		.uleb128 0x31
 9201 27a0 01       		.uleb128 0x1
 9202 27a1 51       		.byte	0x51
 9203 27a2 02       		.uleb128 0x2
 9204 27a3 77       		.byte	0x77
 9205 27a4 00       		.sleb128 0
 9206 27a5 31       		.uleb128 0x31
 9207 27a6 01       		.uleb128 0x1
 9208 27a7 50       		.byte	0x50
 9209 27a8 02       		.uleb128 0x2
 9210 27a9 74       		.byte	0x74
 9211 27aa 00       		.sleb128 0
 9212 27ab 00       		.byte	0
 9213 27ac 2F       		.uleb128 0x2f
 9214 27ad F0070000 		.4byte	.LVL305
 9215 27b1 852B0000 		.4byte	0x2b85
 9216 27b5 30       		.uleb128 0x30
 9217 27b6 F6070000 		.4byte	.LVL306
 9218 27ba 502C0000 		.4byte	0x2c50
 9219 27be C9270000 		.4byte	0x27c9
 9220 27c2 31       		.uleb128 0x31
 9221 27c3 01       		.uleb128 0x1
 9222 27c4 50       		.byte	0x50
 9223 27c5 02       		.uleb128 0x2
 9224 27c6 77       		.byte	0x77
 9225 27c7 00       		.sleb128 0
 9226 27c8 00       		.byte	0
 9227 27c9 4E       		.uleb128 0x4e
 9228 27ca 54080000 		.4byte	.LVL312
 9229 27ce 02       		.uleb128 0x2
 9230 27cf 74       		.byte	0x74
 9231 27d0 00       		.sleb128 0
 9232 27d1 E6270000 		.4byte	0x27e6
 9233 27d5 31       		.uleb128 0x31
 9234 27d6 01       		.uleb128 0x1
 9235 27d7 53       		.byte	0x53
 9236 27d8 01       		.uleb128 0x1
 9237 27d9 30       		.byte	0x30
 9238 27da 31       		.uleb128 0x31
 9239 27db 01       		.uleb128 0x1
 9240 27dc 52       		.byte	0x52
 9241 27dd 01       		.uleb128 0x1
 9242 27de 30       		.byte	0x30
 9243 27df 31       		.uleb128 0x31
 9244 27e0 01       		.uleb128 0x1
 9245 27e1 51       		.byte	0x51
 9246 27e2 02       		.uleb128 0x2
 9247 27e3 77       		.byte	0x77
 9248 27e4 00       		.sleb128 0
 9249 27e5 00       		.byte	0
ARM GAS  C:\Users\jo\AppData\Local\Temp\ccfChKJS.s 			page 165


 9250 27e6 30       		.uleb128 0x30
 9251 27e7 A20A0000 		.4byte	.LVL347
 9252 27eb 18150000 		.4byte	0x1518
 9253 27ef 13280000 		.4byte	0x2813
 9254 27f3 31       		.uleb128 0x31
 9255 27f4 01       		.uleb128 0x1
 9256 27f5 53       		.byte	0x53
 9257 27f6 02       		.uleb128 0x2
 9258 27f7 08       		.byte	0x8
 9259 27f8 BC       		.byte	0xbc
 9260 27f9 31       		.uleb128 0x31
 9261 27fa 01       		.uleb128 0x1
 9262 27fb 52       		.byte	0x52
 9263 27fc 05       		.uleb128 0x5
 9264 27fd 03       		.byte	0x3
 9265 27fe 58020000 		.4byte	.LC17
 9266 2802 31       		.uleb128 0x31
 9267 2803 01       		.uleb128 0x1
 9268 2804 51       		.byte	0x51
 9269 2805 05       		.uleb128 0x5
 9270 2806 03       		.byte	0x3
 9271 2807 00000000 		.4byte	.LC0
 9272 280b 31       		.uleb128 0x31
 9273 280c 02       		.uleb128 0x2
 9274 280d 7D       		.byte	0x7d
 9275 280e 00       		.sleb128 0
 9276 280f 02       		.uleb128 0x2
 9277 2810 7B       		.byte	0x7b
 9278 2811 00       		.sleb128 0
 9279 2812 00       		.byte	0
 9280 2813 32       		.uleb128 0x32
 9281 2814 D00A0000 		.4byte	.LVL352
 9282 2818 18150000 		.4byte	0x1518
 9283 281c 31       		.uleb128 0x31
 9284 281d 01       		.uleb128 0x1
 9285 281e 53       		.byte	0x53
 9286 281f 02       		.uleb128 0x2
 9287 2820 08       		.byte	0x8
 9288 2821 B6       		.byte	0xb6
 9289 2822 31       		.uleb128 0x31
 9290 2823 01       		.uleb128 0x1
 9291 2824 52       		.byte	0x52
 9292 2825 05       		.uleb128 0x5
 9293 2826 03       		.byte	0x3
 9294 2827 2C020000 		.4byte	.LC16
 9295 282b 31       		.uleb128 0x31
 9296 282c 01       		.uleb128 0x1
 9297 282d 51       		.byte	0x51
 9298 282e 05       		.uleb128 0x5
 9299 282f 03       		.byte	0x3
 9300 2830 00000000 		.4byte	.LC0
 9301 2834 31       		.uleb128 0x31
 9302 2835 02       		.uleb128 0x2
 9303 2836 7D       		.byte	0x7d
 9304 2837 00       		.sleb128 0
 9305 2838 02       		.uleb128 0x2
 9306 2839 7B       		.byte	0x7b
ARM GAS  C:\Users\jo\AppData\Local\Temp\ccfChKJS.s 			page 166


 9307 283a 00       		.sleb128 0
 9308 283b 00       		.byte	0
 9309 283c 00       		.byte	0
 9310 283d 4F       		.uleb128 0x4f
 9311 283e B2020000 		.4byte	.LASF314
 9312 2842 01       		.byte	0x1
 9313 2843 3E       		.byte	0x3e
 9314 2844 750F0000 		.4byte	0xf75
 9315 2848 05       		.uleb128 0x5
 9316 2849 03       		.byte	0x3
 9317 284a 00000000 		.4byte	inseg
 9318 284e 4F       		.uleb128 0x4f
 9319 284f C30C0000 		.4byte	.LASF238
 9320 2853 01       		.byte	0x1
 9321 2854 3F       		.byte	0x3f
 9322 2855 E5100000 		.4byte	0x10e5
 9323 2859 05       		.uleb128 0x5
 9324 285a 03       		.byte	0x3
 9325 285b 00000000 		.4byte	tcphdr
 9326 285f 4F       		.uleb128 0x4f
 9327 2860 4D0E0000 		.4byte	.LASF315
 9328 2864 01       		.byte	0x1
 9329 2865 40       		.byte	0x40
 9330 2866 70280000 		.4byte	0x2870
 9331 286a 05       		.uleb128 0x5
 9332 286b 03       		.byte	0x3
 9333 286c 00000000 		.4byte	iphdr
 9334 2870 0A       		.uleb128 0xa
 9335 2871 04       		.byte	0x4
 9336 2872 150B0000 		.4byte	0xb15
 9337 2876 4F       		.uleb128 0x4f
 9338 2877 FB020000 		.4byte	.LASF241
 9339 287b 01       		.byte	0x1
 9340 287c 41       		.byte	0x41
 9341 287d E6080000 		.4byte	0x8e6
 9342 2881 05       		.uleb128 0x5
 9343 2882 03       		.byte	0x3
 9344 2883 00000000 		.4byte	seqno
 9345 2887 4F       		.uleb128 0x4f
 9346 2888 86070000 		.4byte	.LASF242
 9347 288c 01       		.byte	0x1
 9348 288d 41       		.byte	0x41
 9349 288e E6080000 		.4byte	0x8e6
 9350 2892 05       		.uleb128 0x5
 9351 2893 03       		.byte	0x3
 9352 2894 00000000 		.4byte	ackno
 9353 2898 4F       		.uleb128 0x4f
 9354 2899 BA000000 		.4byte	.LASF145
 9355 289d 01       		.byte	0x1
 9356 289e 42       		.byte	0x42
 9357 289f BA080000 		.4byte	0x8ba
 9358 28a3 05       		.uleb128 0x5
 9359 28a4 03       		.byte	0x3
 9360 28a5 00000000 		.4byte	flags
 9361 28a9 4F       		.uleb128 0x4f
 9362 28aa 8E060000 		.4byte	.LASF316
 9363 28ae 01       		.byte	0x1
ARM GAS  C:\Users\jo\AppData\Local\Temp\ccfChKJS.s 			page 167


 9364 28af 43       		.byte	0x43
 9365 28b0 D0080000 		.4byte	0x8d0
 9366 28b4 05       		.uleb128 0x5
 9367 28b5 03       		.byte	0x3
 9368 28b6 00000000 		.4byte	tcplen
 9369 28ba 4F       		.uleb128 0x4f
 9370 28bb 3A020000 		.4byte	.LASF317
 9371 28bf 01       		.byte	0x1
 9372 28c0 45       		.byte	0x45
 9373 28c1 BA080000 		.4byte	0x8ba
 9374 28c5 05       		.uleb128 0x5
 9375 28c6 03       		.byte	0x3
 9376 28c7 00000000 		.4byte	recv_flags
 9377 28cb 4F       		.uleb128 0x4f
 9378 28cc B90C0000 		.4byte	.LASF318
 9379 28d0 01       		.byte	0x1
 9380 28d1 46       		.byte	0x46
 9381 28d2 73090000 		.4byte	0x973
 9382 28d6 05       		.uleb128 0x5
 9383 28d7 03       		.byte	0x3
 9384 28d8 00000000 		.4byte	recv_data
 9385 28dc 50       		.uleb128 0x50
 9386 28dd 150B0000 		.4byte	.LASF319
 9387 28e1 1E       		.byte	0x1e
 9388 28e2 A706     		.2byte	0x6a7
 9389 28e4 10010000 		.4byte	0x110
 9390 28e8 51       		.uleb128 0x51
 9391 28e9 636800   		.ascii	"ch\000"
 9392 28ec 09       		.byte	0x9
 9393 28ed 0902     		.2byte	0x209
 9394 28ef 5B040000 		.4byte	0x45b
 9395 28f3 52       		.uleb128 0x52
 9396 28f4 33080000 		.4byte	.LASF320
 9397 28f8 14       		.byte	0x14
 9398 28f9 3D       		.byte	0x3d
 9399 28fa 82080000 		.4byte	0x882
 9400 28fe 52       		.uleb128 0x52
 9401 28ff 0E040000 		.4byte	.LASF321
 9402 2903 1A       		.byte	0x1a
 9403 2904 AA       		.byte	0xaa
 9404 2905 AB090000 		.4byte	0x9ab
 9405 2909 52       		.uleb128 0x52
 9406 290a DC0E0000 		.4byte	.LASF322
 9407 290e 1A       		.byte	0x1a
 9408 290f AC       		.byte	0xac
 9409 2910 AB090000 		.4byte	0x9ab
 9410 2914 53       		.uleb128 0x53
 9411 2915 C5040000 		.4byte	.LASF323
 9412 2919 01       		.byte	0x1
 9413 291a 48       		.byte	0x48
 9414 291b C40B0000 		.4byte	0xbc4
 9415 291f 05       		.uleb128 0x5
 9416 2920 03       		.byte	0x3
 9417 2921 00000000 		.4byte	tcp_input_pcb
 9418 2925 50       		.uleb128 0x50
 9419 2926 DA0F0000 		.4byte	.LASF324
 9420 292a 1C       		.byte	0x1c
ARM GAS  C:\Users\jo\AppData\Local\Temp\ccfChKJS.s 			page 168


 9421 292b 3301     		.2byte	0x133
 9422 292d E6080000 		.4byte	0x8e6
 9423 2931 50       		.uleb128 0x50
 9424 2932 37030000 		.4byte	.LASF325
 9425 2936 1C       		.byte	0x1c
 9426 2937 3401     		.2byte	0x134
 9427 2939 BA080000 		.4byte	0x8ba
 9428 293d 50       		.uleb128 0x50
 9429 293e 43080000 		.4byte	.LASF326
 9430 2942 1C       		.byte	0x1c
 9431 2943 3C01     		.2byte	0x13c
 9432 2945 EB100000 		.4byte	0x10eb
 9433 2949 50       		.uleb128 0x50
 9434 294a 760F0000 		.4byte	.LASF327
 9435 294e 1C       		.byte	0x1c
 9436 294f 3D01     		.2byte	0x13d
 9437 2951 C40B0000 		.4byte	0xbc4
 9438 2955 50       		.uleb128 0x50
 9439 2956 010F0000 		.4byte	.LASF328
 9440 295a 1C       		.byte	0x1c
 9441 295b 4001     		.2byte	0x140
 9442 295d C40B0000 		.4byte	0xbc4
 9443 2961 50       		.uleb128 0x50
 9444 2962 1D050000 		.4byte	.LASF329
 9445 2966 1C       		.byte	0x1c
 9446 2967 4201     		.2byte	0x142
 9447 2969 C40B0000 		.4byte	0xbc4
 9448 296d 52       		.uleb128 0x52
 9449 296e 84020000 		.4byte	.LASF330
 9450 2972 1D       		.byte	0x1d
 9451 2973 95       		.byte	0x95
 9452 2974 C1120000 		.4byte	0x12c1
 9453 2978 54       		.uleb128 0x54
 9454 2979 C8090000 		.4byte	.LASF331
 9455 297d 1F       		.byte	0x1f
 9456 297e 64       		.byte	0x64
 9457 297f D0080000 		.4byte	0x8d0
 9458 2983 8D290000 		.4byte	0x298d
 9459 2987 0D       		.uleb128 0xd
 9460 2988 D0080000 		.4byte	0x8d0
 9461 298c 00       		.byte	0
 9462 298d 55       		.uleb128 0x55
 9463 298e 8D090000 		.4byte	.LASF333
 9464 2992 1C       		.byte	0x1c
 9465 2993 A401     		.2byte	0x1a4
 9466 2995 9F290000 		.4byte	0x299f
 9467 2999 0D       		.uleb128 0xd
 9468 299a CF0F0000 		.4byte	0xfcf
 9469 299e 00       		.byte	0
 9470 299f 54       		.uleb128 0x54
 9471 29a0 5C020000 		.4byte	.LASF332
 9472 29a4 1F       		.byte	0x1f
 9473 29a5 63       		.byte	0x63
 9474 29a6 D0080000 		.4byte	0x8d0
 9475 29aa B4290000 		.4byte	0x29b4
 9476 29ae 0D       		.uleb128 0xd
 9477 29af D0080000 		.4byte	0x8d0
ARM GAS  C:\Users\jo\AppData\Local\Temp\ccfChKJS.s 			page 169


 9478 29b3 00       		.byte	0
 9479 29b4 56       		.uleb128 0x56
 9480 29b5 09060000 		.4byte	.LASF334
 9481 29b9 17       		.byte	0x17
 9482 29ba 98       		.byte	0x98
 9483 29bb CA290000 		.4byte	0x29ca
 9484 29bf 0D       		.uleb128 0xd
 9485 29c0 73090000 		.4byte	0x973
 9486 29c4 0D       		.uleb128 0xd
 9487 29c5 D0080000 		.4byte	0x8d0
 9488 29c9 00       		.byte	0
 9489 29ca 55       		.uleb128 0x55
 9490 29cb 480F0000 		.4byte	.LASF335
 9491 29cf 1C       		.byte	0x1c
 9492 29d0 A301     		.2byte	0x1a3
 9493 29d2 DC290000 		.4byte	0x29dc
 9494 29d6 0D       		.uleb128 0xd
 9495 29d7 CF0F0000 		.4byte	0xfcf
 9496 29db 00       		.byte	0
 9497 29dc 54       		.uleb128 0x54
 9498 29dd 5F000000 		.4byte	.LASF336
 9499 29e1 02       		.byte	0x2
 9500 29e2 28       		.byte	0x28
 9501 29e3 25000000 		.4byte	0x25
 9502 29e7 FB290000 		.4byte	0x29fb
 9503 29eb 0D       		.uleb128 0xd
 9504 29ec 08140000 		.4byte	0x1408
 9505 29f0 0D       		.uleb128 0xd
 9506 29f1 F4060000 		.4byte	0x6f4
 9507 29f5 0D       		.uleb128 0xd
 9508 29f6 AF080000 		.4byte	0x8af
 9509 29fa 00       		.byte	0
 9510 29fb 55       		.uleb128 0x55
 9511 29fc 000E0000 		.4byte	.LASF337
 9512 2a00 20       		.byte	0x20
 9513 2a01 1601     		.2byte	0x116
 9514 2a03 0D2A0000 		.4byte	0x2a0d
 9515 2a07 0D       		.uleb128 0xd
 9516 2a08 F4060000 		.4byte	0x6f4
 9517 2a0c 00       		.byte	0
 9518 2a0d 54       		.uleb128 0x54
 9519 2a0e AB090000 		.4byte	.LASF338
 9520 2a12 1F       		.byte	0x1f
 9521 2a13 66       		.byte	0x66
 9522 2a14 E6080000 		.4byte	0x8e6
 9523 2a18 222A0000 		.4byte	0x2a22
 9524 2a1c 0D       		.uleb128 0xd
 9525 2a1d E6080000 		.4byte	0x8e6
 9526 2a21 00       		.byte	0
 9527 2a22 54       		.uleb128 0x54
 9528 2a23 7F000000 		.4byte	.LASF339
 9529 2a27 17       		.byte	0x17
 9530 2a28 9C       		.byte	0x9c
 9531 2a29 BA080000 		.4byte	0x8ba
 9532 2a2d 372A0000 		.4byte	0x2a37
 9533 2a31 0D       		.uleb128 0xd
 9534 2a32 73090000 		.4byte	0x973
ARM GAS  C:\Users\jo\AppData\Local\Temp\ccfChKJS.s 			page 170


 9535 2a36 00       		.byte	0
 9536 2a37 54       		.uleb128 0x54
 9537 2a38 460B0000 		.4byte	.LASF340
 9538 2a3c 1C       		.byte	0x1c
 9539 2a3d 44       		.byte	0x44
 9540 2a3e 07090000 		.4byte	0x907
 9541 2a42 4C2A0000 		.4byte	0x2a4c
 9542 2a46 0D       		.uleb128 0xd
 9543 2a47 C40B0000 		.4byte	0xbc4
 9544 2a4b 00       		.byte	0
 9545 2a4c 57       		.uleb128 0x57
 9546 2a4d E0060000 		.4byte	.LASF341
 9547 2a51 1C       		.byte	0x1c
 9548 2a52 A501     		.2byte	0x1a5
 9549 2a54 CF0F0000 		.4byte	0xfcf
 9550 2a58 622A0000 		.4byte	0x2a62
 9551 2a5c 0D       		.uleb128 0xd
 9552 2a5d CF0F0000 		.4byte	0xfcf
 9553 2a61 00       		.byte	0
 9554 2a62 54       		.uleb128 0x54
 9555 2a63 AE050000 		.4byte	.LASF342
 9556 2a67 17       		.byte	0x17
 9557 2a68 99       		.byte	0x99
 9558 2a69 BA080000 		.4byte	0x8ba
 9559 2a6d 7C2A0000 		.4byte	0x2a7c
 9560 2a71 0D       		.uleb128 0xd
 9561 2a72 73090000 		.4byte	0x973
 9562 2a76 0D       		.uleb128 0xd
 9563 2a77 DB080000 		.4byte	0x8db
 9564 2a7b 00       		.byte	0
 9565 2a7c 54       		.uleb128 0x54
 9566 2a7d E6080000 		.4byte	.LASF343
 9567 2a81 1C       		.byte	0x1c
 9568 2a82 48       		.byte	0x48
 9569 2a83 E6080000 		.4byte	0x8e6
 9570 2a87 912A0000 		.4byte	0x2a91
 9571 2a8b 0D       		.uleb128 0xd
 9572 2a8c C40B0000 		.4byte	0xbc4
 9573 2a90 00       		.byte	0
 9574 2a91 56       		.uleb128 0x56
 9575 2a92 560F0000 		.4byte	.LASF344
 9576 2a96 17       		.byte	0x17
 9577 2a97 9D       		.byte	0x9d
 9578 2a98 A72A0000 		.4byte	0x2aa7
 9579 2a9c 0D       		.uleb128 0xd
 9580 2a9d 73090000 		.4byte	0x973
 9581 2aa1 0D       		.uleb128 0xd
 9582 2aa2 73090000 		.4byte	0x973
 9583 2aa6 00       		.byte	0
 9584 2aa7 56       		.uleb128 0x56
 9585 2aa8 190F0000 		.4byte	.LASF345
 9586 2aac 1C       		.byte	0x1c
 9587 2aad 47       		.byte	0x47
 9588 2aae B82A0000 		.4byte	0x2ab8
 9589 2ab2 0D       		.uleb128 0xd
 9590 2ab3 C40B0000 		.4byte	0xbc4
 9591 2ab7 00       		.byte	0
ARM GAS  C:\Users\jo\AppData\Local\Temp\ccfChKJS.s 			page 171


 9592 2ab8 55       		.uleb128 0x55
 9593 2ab9 9A090000 		.4byte	.LASF346
 9594 2abd 1C       		.byte	0x1c
 9595 2abe BC01     		.2byte	0x1bc
 9596 2ac0 E32A0000 		.4byte	0x2ae3
 9597 2ac4 0D       		.uleb128 0xd
 9598 2ac5 E6080000 		.4byte	0x8e6
 9599 2ac9 0D       		.uleb128 0xd
 9600 2aca E6080000 		.4byte	0x8e6
 9601 2ace 0D       		.uleb128 0xd
 9602 2acf CA0A0000 		.4byte	0xaca
 9603 2ad3 0D       		.uleb128 0xd
 9604 2ad4 CA0A0000 		.4byte	0xaca
 9605 2ad8 0D       		.uleb128 0xd
 9606 2ad9 D0080000 		.4byte	0x8d0
 9607 2add 0D       		.uleb128 0xd
 9608 2ade D0080000 		.4byte	0x8d0
 9609 2ae2 00       		.byte	0
 9610 2ae3 57       		.uleb128 0x57
 9611 2ae4 7A050000 		.4byte	.LASF347
 9612 2ae8 1B       		.byte	0x1b
 9613 2ae9 6F01     		.2byte	0x16f
 9614 2aeb 07090000 		.4byte	0x907
 9615 2aef F92A0000 		.4byte	0x2af9
 9616 2af3 0D       		.uleb128 0xd
 9617 2af4 C40B0000 		.4byte	0xbc4
 9618 2af8 00       		.byte	0
 9619 2af9 55       		.uleb128 0x55
 9620 2afa 29050000 		.4byte	.LASF348
 9621 2afe 1C       		.byte	0x1c
 9622 2aff A001     		.2byte	0x1a0
 9623 2b01 0B2B0000 		.4byte	0x2b0b
 9624 2b05 0D       		.uleb128 0xd
 9625 2b06 C40B0000 		.4byte	0xbc4
 9626 2b0a 00       		.byte	0
 9627 2b0b 56       		.uleb128 0x56
 9628 2b0c 35090000 		.4byte	.LASF349
 9629 2b10 1C       		.byte	0x1c
 9630 2b11 45       		.byte	0x45
 9631 2b12 1C2B0000 		.4byte	0x2b1c
 9632 2b16 0D       		.uleb128 0xd
 9633 2b17 C40B0000 		.4byte	0xbc4
 9634 2b1b 00       		.byte	0
 9635 2b1c 57       		.uleb128 0x57
 9636 2b1d 19090000 		.4byte	.LASF350
 9637 2b21 1C       		.byte	0x1c
 9638 2b22 C601     		.2byte	0x1c6
 9639 2b24 D0080000 		.4byte	0x8d0
 9640 2b28 372B0000 		.4byte	0x2b37
 9641 2b2c 0D       		.uleb128 0xd
 9642 2b2d D0080000 		.4byte	0x8d0
 9643 2b31 0D       		.uleb128 0xd
 9644 2b32 CA0A0000 		.4byte	0xaca
 9645 2b36 00       		.byte	0
 9646 2b37 58       		.uleb128 0x58
 9647 2b38 08090000 		.4byte	.LASF367
 9648 2b3c 1C       		.byte	0x1c
ARM GAS  C:\Users\jo\AppData\Local\Temp\ccfChKJS.s 			page 172


 9649 2b3d DD01     		.2byte	0x1dd
 9650 2b3f 54       		.uleb128 0x54
 9651 2b40 5F0F0000 		.4byte	.LASF351
 9652 2b44 1C       		.byte	0x1c
 9653 2b45 42       		.byte	0x42
 9654 2b46 C40B0000 		.4byte	0xbc4
 9655 2b4a 542B0000 		.4byte	0x2b54
 9656 2b4e 0D       		.uleb128 0xd
 9657 2b4f BA080000 		.4byte	0x8ba
 9658 2b53 00       		.byte	0
 9659 2b54 57       		.uleb128 0x57
 9660 2b55 B6090000 		.4byte	.LASF352
 9661 2b59 1C       		.byte	0x1c
 9662 2b5a B801     		.2byte	0x1b8
 9663 2b5c 07090000 		.4byte	0x907
 9664 2b60 6F2B0000 		.4byte	0x2b6f
 9665 2b64 0D       		.uleb128 0xd
 9666 2b65 C40B0000 		.4byte	0xbc4
 9667 2b69 0D       		.uleb128 0xd
 9668 2b6a BA080000 		.4byte	0x8ba
 9669 2b6e 00       		.byte	0
 9670 2b6f 56       		.uleb128 0x56
 9671 2b70 0D0F0000 		.4byte	.LASF353
 9672 2b74 1C       		.byte	0x1c
 9673 2b75 43       		.byte	0x43
 9674 2b76 852B0000 		.4byte	0x2b85
 9675 2b7a 0D       		.uleb128 0xd
 9676 2b7b C40B0000 		.4byte	0xbc4
 9677 2b7f 0D       		.uleb128 0xd
 9678 2b80 25000000 		.4byte	0x25
 9679 2b84 00       		.byte	0
 9680 2b85 54       		.uleb128 0x54
 9681 2b86 2B070000 		.4byte	.LASF354
 9682 2b8a 17       		.byte	0x17
 9683 2b8b 9B       		.byte	0x9b
 9684 2b8c BA080000 		.4byte	0x8ba
 9685 2b90 9A2B0000 		.4byte	0x2b9a
 9686 2b94 0D       		.uleb128 0xd
 9687 2b95 73090000 		.4byte	0x973
 9688 2b99 00       		.byte	0
 9689 2b9a 54       		.uleb128 0x54
 9690 2b9b 8D050000 		.4byte	.LASF355
 9691 2b9f 18       		.byte	0x18
 9692 2ba0 CB       		.byte	0xcb
 9693 2ba1 BA080000 		.4byte	0x8ba
 9694 2ba5 B42B0000 		.4byte	0x2bb4
 9695 2ba9 0D       		.uleb128 0xd
 9696 2baa E6080000 		.4byte	0x8e6
 9697 2bae 0D       		.uleb128 0xd
 9698 2baf B42B0000 		.4byte	0x2bb4
 9699 2bb3 00       		.byte	0
 9700 2bb4 0A       		.uleb128 0xa
 9701 2bb5 04       		.byte	0x4
 9702 2bb6 BA2B0000 		.4byte	0x2bba
 9703 2bba 19       		.uleb128 0x19
 9704 2bbb C7090000 		.4byte	0x9c7
 9705 2bbf 54       		.uleb128 0x54
ARM GAS  C:\Users\jo\AppData\Local\Temp\ccfChKJS.s 			page 173


 9706 2bc0 FC0A0000 		.4byte	.LASF356
 9707 2bc4 21       		.byte	0x21
 9708 2bc5 4B       		.byte	0x4b
 9709 2bc6 D0080000 		.4byte	0x8d0
 9710 2bca E82B0000 		.4byte	0x2be8
 9711 2bce 0D       		.uleb128 0xd
 9712 2bcf 73090000 		.4byte	0x973
 9713 2bd3 0D       		.uleb128 0xd
 9714 2bd4 CA0A0000 		.4byte	0xaca
 9715 2bd8 0D       		.uleb128 0xd
 9716 2bd9 CA0A0000 		.4byte	0xaca
 9717 2bdd 0D       		.uleb128 0xd
 9718 2bde BA080000 		.4byte	0x8ba
 9719 2be2 0D       		.uleb128 0xd
 9720 2be3 D0080000 		.4byte	0x8d0
 9721 2be7 00       		.byte	0
 9722 2be8 54       		.uleb128 0x54
 9723 2be9 93000000 		.4byte	.LASF357
 9724 2bed 1C       		.byte	0x1c
 9725 2bee 49       		.byte	0x49
 9726 2bef 07090000 		.4byte	0x907
 9727 2bf3 FD2B0000 		.4byte	0x2bfd
 9728 2bf7 0D       		.uleb128 0xd
 9729 2bf8 C40B0000 		.4byte	0xbc4
 9730 2bfc 00       		.byte	0
 9731 2bfd 55       		.uleb128 0x55
 9732 2bfe CE020000 		.4byte	.LASF358
 9733 2c02 1C       		.byte	0x1c
 9734 2c03 A101     		.2byte	0x1a1
 9735 2c05 142C0000 		.4byte	0x2c14
 9736 2c09 0D       		.uleb128 0xd
 9737 2c0a 142C0000 		.4byte	0x2c14
 9738 2c0e 0D       		.uleb128 0xd
 9739 2c0f C40B0000 		.4byte	0xbc4
 9740 2c13 00       		.byte	0
 9741 2c14 0A       		.uleb128 0xa
 9742 2c15 04       		.byte	0x4
 9743 2c16 C40B0000 		.4byte	0xbc4
 9744 2c1a 56       		.uleb128 0x56
 9745 2c1b 48050000 		.4byte	.LASF359
 9746 2c1f 22       		.byte	0x22
 9747 2c20 55       		.byte	0x55
 9748 2c21 2B2C0000 		.4byte	0x2c2b
 9749 2c25 0D       		.uleb128 0xd
 9750 2c26 64030000 		.4byte	0x364
 9751 2c2a 00       		.byte	0
 9752 2c2b 57       		.uleb128 0x57
 9753 2c2c 6C050000 		.4byte	.LASF360
 9754 2c30 1C       		.byte	0x1c
 9755 2c31 CA01     		.2byte	0x1ca
 9756 2c33 07090000 		.4byte	0x907
 9757 2c37 502C0000 		.4byte	0x2c50
 9758 2c3b 0D       		.uleb128 0xd
 9759 2c3c 64030000 		.4byte	0x364
 9760 2c40 0D       		.uleb128 0xd
 9761 2c41 C40B0000 		.4byte	0xbc4
 9762 2c45 0D       		.uleb128 0xd
ARM GAS  C:\Users\jo\AppData\Local\Temp\ccfChKJS.s 			page 174


 9763 2c46 73090000 		.4byte	0x973
 9764 2c4a 0D       		.uleb128 0xd
 9765 2c4b 07090000 		.4byte	0x907
 9766 2c4f 00       		.byte	0
 9767 2c50 59       		.uleb128 0x59
 9768 2c51 B5080000 		.4byte	.LASF368
 9769 2c55 1B       		.byte	0x1b
 9770 2c56 5E01     		.2byte	0x15e
 9771 2c58 0D       		.uleb128 0xd
 9772 2c59 C40B0000 		.4byte	0xbc4
 9773 2c5d 00       		.byte	0
 9774 2c5e 00       		.byte	0
 9775              		.section	.debug_abbrev,"",%progbits
 9776              	.Ldebug_abbrev0:
 9777 0000 01       		.uleb128 0x1
 9778 0001 11       		.uleb128 0x11
 9779 0002 01       		.byte	0x1
 9780 0003 25       		.uleb128 0x25
 9781 0004 0E       		.uleb128 0xe
 9782 0005 13       		.uleb128 0x13
 9783 0006 0B       		.uleb128 0xb
 9784 0007 03       		.uleb128 0x3
 9785 0008 0E       		.uleb128 0xe
 9786 0009 1B       		.uleb128 0x1b
 9787 000a 0E       		.uleb128 0xe
 9788 000b 55       		.uleb128 0x55
 9789 000c 17       		.uleb128 0x17
 9790 000d 11       		.uleb128 0x11
 9791 000e 01       		.uleb128 0x1
 9792 000f 10       		.uleb128 0x10
 9793 0010 17       		.uleb128 0x17
 9794 0011 00       		.byte	0
 9795 0012 00       		.byte	0
 9796 0013 02       		.uleb128 0x2
 9797 0014 24       		.uleb128 0x24
 9798 0015 00       		.byte	0
 9799 0016 0B       		.uleb128 0xb
 9800 0017 0B       		.uleb128 0xb
 9801 0018 3E       		.uleb128 0x3e
 9802 0019 0B       		.uleb128 0xb
 9803 001a 03       		.uleb128 0x3
 9804 001b 08       		.uleb128 0x8
 9805 001c 00       		.byte	0
 9806 001d 00       		.byte	0
 9807 001e 03       		.uleb128 0x3
 9808 001f 16       		.uleb128 0x16
 9809 0020 00       		.byte	0
 9810 0021 03       		.uleb128 0x3
 9811 0022 0E       		.uleb128 0xe
 9812 0023 3A       		.uleb128 0x3a
 9813 0024 0B       		.uleb128 0xb
 9814 0025 3B       		.uleb128 0x3b
 9815 0026 0B       		.uleb128 0xb
 9816 0027 49       		.uleb128 0x49
 9817 0028 13       		.uleb128 0x13
 9818 0029 00       		.byte	0
 9819 002a 00       		.byte	0
ARM GAS  C:\Users\jo\AppData\Local\Temp\ccfChKJS.s 			page 175


 9820 002b 04       		.uleb128 0x4
 9821 002c 24       		.uleb128 0x24
 9822 002d 00       		.byte	0
 9823 002e 0B       		.uleb128 0xb
 9824 002f 0B       		.uleb128 0xb
 9825 0030 3E       		.uleb128 0x3e
 9826 0031 0B       		.uleb128 0xb
 9827 0032 03       		.uleb128 0x3
 9828 0033 0E       		.uleb128 0xe
 9829 0034 00       		.byte	0
 9830 0035 00       		.byte	0
 9831 0036 05       		.uleb128 0x5
 9832 0037 35       		.uleb128 0x35
 9833 0038 00       		.byte	0
 9834 0039 49       		.uleb128 0x49
 9835 003a 13       		.uleb128 0x13
 9836 003b 00       		.byte	0
 9837 003c 00       		.byte	0
 9838 003d 06       		.uleb128 0x6
 9839 003e 13       		.uleb128 0x13
 9840 003f 01       		.byte	0x1
 9841 0040 03       		.uleb128 0x3
 9842 0041 0E       		.uleb128 0xe
 9843 0042 0B       		.uleb128 0xb
 9844 0043 0B       		.uleb128 0xb
 9845 0044 3A       		.uleb128 0x3a
 9846 0045 0B       		.uleb128 0xb
 9847 0046 3B       		.uleb128 0x3b
 9848 0047 0B       		.uleb128 0xb
 9849 0048 01       		.uleb128 0x1
 9850 0049 13       		.uleb128 0x13
 9851 004a 00       		.byte	0
 9852 004b 00       		.byte	0
 9853 004c 07       		.uleb128 0x7
 9854 004d 0D       		.uleb128 0xd
 9855 004e 00       		.byte	0
 9856 004f 03       		.uleb128 0x3
 9857 0050 0E       		.uleb128 0xe
 9858 0051 3A       		.uleb128 0x3a
 9859 0052 0B       		.uleb128 0xb
 9860 0053 3B       		.uleb128 0x3b
 9861 0054 0B       		.uleb128 0xb
 9862 0055 49       		.uleb128 0x49
 9863 0056 13       		.uleb128 0x13
 9864 0057 38       		.uleb128 0x38
 9865 0058 0B       		.uleb128 0xb
 9866 0059 00       		.byte	0
 9867 005a 00       		.byte	0
 9868 005b 08       		.uleb128 0x8
 9869 005c 0D       		.uleb128 0xd
 9870 005d 00       		.byte	0
 9871 005e 03       		.uleb128 0x3
 9872 005f 08       		.uleb128 0x8
 9873 0060 3A       		.uleb128 0x3a
 9874 0061 0B       		.uleb128 0xb
 9875 0062 3B       		.uleb128 0x3b
 9876 0063 05       		.uleb128 0x5
ARM GAS  C:\Users\jo\AppData\Local\Temp\ccfChKJS.s 			page 176


 9877 0064 49       		.uleb128 0x49
 9878 0065 13       		.uleb128 0x13
 9879 0066 38       		.uleb128 0x38
 9880 0067 0B       		.uleb128 0xb
 9881 0068 00       		.byte	0
 9882 0069 00       		.byte	0
 9883 006a 09       		.uleb128 0x9
 9884 006b 0D       		.uleb128 0xd
 9885 006c 00       		.byte	0
 9886 006d 03       		.uleb128 0x3
 9887 006e 0E       		.uleb128 0xe
 9888 006f 3A       		.uleb128 0x3a
 9889 0070 0B       		.uleb128 0xb
 9890 0071 3B       		.uleb128 0x3b
 9891 0072 05       		.uleb128 0x5
 9892 0073 49       		.uleb128 0x49
 9893 0074 13       		.uleb128 0x13
 9894 0075 38       		.uleb128 0x38
 9895 0076 0B       		.uleb128 0xb
 9896 0077 00       		.byte	0
 9897 0078 00       		.byte	0
 9898 0079 0A       		.uleb128 0xa
 9899 007a 0F       		.uleb128 0xf
 9900 007b 00       		.byte	0
 9901 007c 0B       		.uleb128 0xb
 9902 007d 0B       		.uleb128 0xb
 9903 007e 49       		.uleb128 0x49
 9904 007f 13       		.uleb128 0x13
 9905 0080 00       		.byte	0
 9906 0081 00       		.byte	0
 9907 0082 0B       		.uleb128 0xb
 9908 0083 13       		.uleb128 0x13
 9909 0084 01       		.byte	0x1
 9910 0085 03       		.uleb128 0x3
 9911 0086 0E       		.uleb128 0xe
 9912 0087 0B       		.uleb128 0xb
 9913 0088 0B       		.uleb128 0xb
 9914 0089 3A       		.uleb128 0x3a
 9915 008a 0B       		.uleb128 0xb
 9916 008b 3B       		.uleb128 0x3b
 9917 008c 05       		.uleb128 0x5
 9918 008d 01       		.uleb128 0x1
 9919 008e 13       		.uleb128 0x13
 9920 008f 00       		.byte	0
 9921 0090 00       		.byte	0
 9922 0091 0C       		.uleb128 0xc
 9923 0092 15       		.uleb128 0x15
 9924 0093 01       		.byte	0x1
 9925 0094 27       		.uleb128 0x27
 9926 0095 19       		.uleb128 0x19
 9927 0096 01       		.uleb128 0x1
 9928 0097 13       		.uleb128 0x13
 9929 0098 00       		.byte	0
 9930 0099 00       		.byte	0
 9931 009a 0D       		.uleb128 0xd
 9932 009b 05       		.uleb128 0x5
 9933 009c 00       		.byte	0
ARM GAS  C:\Users\jo\AppData\Local\Temp\ccfChKJS.s 			page 177


 9934 009d 49       		.uleb128 0x49
 9935 009e 13       		.uleb128 0x13
 9936 009f 00       		.byte	0
 9937 00a0 00       		.byte	0
 9938 00a1 0E       		.uleb128 0xe
 9939 00a2 0F       		.uleb128 0xf
 9940 00a3 00       		.byte	0
 9941 00a4 0B       		.uleb128 0xb
 9942 00a5 0B       		.uleb128 0xb
 9943 00a6 00       		.byte	0
 9944 00a7 00       		.byte	0
 9945 00a8 0F       		.uleb128 0xf
 9946 00a9 13       		.uleb128 0x13
 9947 00aa 01       		.byte	0x1
 9948 00ab 03       		.uleb128 0x3
 9949 00ac 0E       		.uleb128 0xe
 9950 00ad 0B       		.uleb128 0xb
 9951 00ae 05       		.uleb128 0x5
 9952 00af 3A       		.uleb128 0x3a
 9953 00b0 0B       		.uleb128 0xb
 9954 00b1 3B       		.uleb128 0x3b
 9955 00b2 05       		.uleb128 0x5
 9956 00b3 01       		.uleb128 0x1
 9957 00b4 13       		.uleb128 0x13
 9958 00b5 00       		.byte	0
 9959 00b6 00       		.byte	0
 9960 00b7 10       		.uleb128 0x10
 9961 00b8 0D       		.uleb128 0xd
 9962 00b9 00       		.byte	0
 9963 00ba 03       		.uleb128 0x3
 9964 00bb 0E       		.uleb128 0xe
 9965 00bc 3A       		.uleb128 0x3a
 9966 00bd 0B       		.uleb128 0xb
 9967 00be 3B       		.uleb128 0x3b
 9968 00bf 05       		.uleb128 0x5
 9969 00c0 49       		.uleb128 0x49
 9970 00c1 13       		.uleb128 0x13
 9971 00c2 38       		.uleb128 0x38
 9972 00c3 05       		.uleb128 0x5
 9973 00c4 00       		.byte	0
 9974 00c5 00       		.byte	0
 9975 00c6 11       		.uleb128 0x11
 9976 00c7 0D       		.uleb128 0xd
 9977 00c8 00       		.byte	0
 9978 00c9 03       		.uleb128 0x3
 9979 00ca 08       		.uleb128 0x8
 9980 00cb 3A       		.uleb128 0x3a
 9981 00cc 0B       		.uleb128 0xb
 9982 00cd 3B       		.uleb128 0x3b
 9983 00ce 05       		.uleb128 0x5
 9984 00cf 49       		.uleb128 0x49
 9985 00d0 13       		.uleb128 0x13
 9986 00d1 38       		.uleb128 0x38
 9987 00d2 05       		.uleb128 0x5
 9988 00d3 00       		.byte	0
 9989 00d4 00       		.byte	0
 9990 00d5 12       		.uleb128 0x12
ARM GAS  C:\Users\jo\AppData\Local\Temp\ccfChKJS.s 			page 178


 9991 00d6 0D       		.uleb128 0xd
 9992 00d7 00       		.byte	0
 9993 00d8 03       		.uleb128 0x3
 9994 00d9 08       		.uleb128 0x8
 9995 00da 3A       		.uleb128 0x3a
 9996 00db 0B       		.uleb128 0xb
 9997 00dc 3B       		.uleb128 0x3b
 9998 00dd 0B       		.uleb128 0xb
 9999 00de 49       		.uleb128 0x49
 10000 00df 13       		.uleb128 0x13
 10001 00e0 38       		.uleb128 0x38
 10002 00e1 0B       		.uleb128 0xb
 10003 00e2 00       		.byte	0
 10004 00e3 00       		.byte	0
 10005 00e4 13       		.uleb128 0x13
 10006 00e5 13       		.uleb128 0x13
 10007 00e6 01       		.byte	0x1
 10008 00e7 0B       		.uleb128 0xb
 10009 00e8 0B       		.uleb128 0xb
 10010 00e9 3A       		.uleb128 0x3a
 10011 00ea 0B       		.uleb128 0xb
 10012 00eb 3B       		.uleb128 0x3b
 10013 00ec 0B       		.uleb128 0xb
 10014 00ed 01       		.uleb128 0x1
 10015 00ee 13       		.uleb128 0x13
 10016 00ef 00       		.byte	0
 10017 00f0 00       		.byte	0
 10018 00f1 14       		.uleb128 0x14
 10019 00f2 13       		.uleb128 0x13
 10020 00f3 01       		.byte	0x1
 10021 00f4 0B       		.uleb128 0xb
 10022 00f5 05       		.uleb128 0x5
 10023 00f6 3A       		.uleb128 0x3a
 10024 00f7 0B       		.uleb128 0xb
 10025 00f8 3B       		.uleb128 0x3b
 10026 00f9 0B       		.uleb128 0xb
 10027 00fa 01       		.uleb128 0x1
 10028 00fb 13       		.uleb128 0x13
 10029 00fc 00       		.byte	0
 10030 00fd 00       		.byte	0
 10031 00fe 15       		.uleb128 0x15
 10032 00ff 01       		.uleb128 0x1
 10033 0100 01       		.byte	0x1
 10034 0101 49       		.uleb128 0x49
 10035 0102 13       		.uleb128 0x13
 10036 0103 01       		.uleb128 0x1
 10037 0104 13       		.uleb128 0x13
 10038 0105 00       		.byte	0
 10039 0106 00       		.byte	0
 10040 0107 16       		.uleb128 0x16
 10041 0108 21       		.uleb128 0x21
 10042 0109 00       		.byte	0
 10043 010a 49       		.uleb128 0x49
 10044 010b 13       		.uleb128 0x13
 10045 010c 2F       		.uleb128 0x2f
 10046 010d 0B       		.uleb128 0xb
 10047 010e 00       		.byte	0
ARM GAS  C:\Users\jo\AppData\Local\Temp\ccfChKJS.s 			page 179


 10048 010f 00       		.byte	0
 10049 0110 17       		.uleb128 0x17
 10050 0111 17       		.uleb128 0x17
 10051 0112 01       		.byte	0x1
 10052 0113 0B       		.uleb128 0xb
 10053 0114 0B       		.uleb128 0xb
 10054 0115 3A       		.uleb128 0x3a
 10055 0116 0B       		.uleb128 0xb
 10056 0117 3B       		.uleb128 0x3b
 10057 0118 0B       		.uleb128 0xb
 10058 0119 01       		.uleb128 0x1
 10059 011a 13       		.uleb128 0x13
 10060 011b 00       		.byte	0
 10061 011c 00       		.byte	0
 10062 011d 18       		.uleb128 0x18
 10063 011e 0D       		.uleb128 0xd
 10064 011f 00       		.byte	0
 10065 0120 03       		.uleb128 0x3
 10066 0121 0E       		.uleb128 0xe
 10067 0122 3A       		.uleb128 0x3a
 10068 0123 0B       		.uleb128 0xb
 10069 0124 3B       		.uleb128 0x3b
 10070 0125 05       		.uleb128 0x5
 10071 0126 49       		.uleb128 0x49
 10072 0127 13       		.uleb128 0x13
 10073 0128 00       		.byte	0
 10074 0129 00       		.byte	0
 10075 012a 19       		.uleb128 0x19
 10076 012b 26       		.uleb128 0x26
 10077 012c 00       		.byte	0
 10078 012d 49       		.uleb128 0x49
 10079 012e 13       		.uleb128 0x13
 10080 012f 00       		.byte	0
 10081 0130 00       		.byte	0
 10082 0131 1A       		.uleb128 0x1a
 10083 0132 15       		.uleb128 0x15
 10084 0133 01       		.byte	0x1
 10085 0134 27       		.uleb128 0x27
 10086 0135 19       		.uleb128 0x19
 10087 0136 49       		.uleb128 0x49
 10088 0137 13       		.uleb128 0x13
 10089 0138 01       		.uleb128 0x1
 10090 0139 13       		.uleb128 0x13
 10091 013a 00       		.byte	0
 10092 013b 00       		.byte	0
 10093 013c 1B       		.uleb128 0x1b
 10094 013d 0D       		.uleb128 0xd
 10095 013e 00       		.byte	0
 10096 013f 03       		.uleb128 0x3
 10097 0140 0E       		.uleb128 0xe
 10098 0141 49       		.uleb128 0x49
 10099 0142 13       		.uleb128 0x13
 10100 0143 38       		.uleb128 0x38
 10101 0144 0B       		.uleb128 0xb
 10102 0145 34       		.uleb128 0x34
 10103 0146 19       		.uleb128 0x19
 10104 0147 00       		.byte	0
ARM GAS  C:\Users\jo\AppData\Local\Temp\ccfChKJS.s 			page 180


 10105 0148 00       		.byte	0
 10106 0149 1C       		.uleb128 0x1c
 10107 014a 04       		.uleb128 0x4
 10108 014b 01       		.byte	0x1
 10109 014c 03       		.uleb128 0x3
 10110 014d 0E       		.uleb128 0xe
 10111 014e 0B       		.uleb128 0xb
 10112 014f 0B       		.uleb128 0xb
 10113 0150 3A       		.uleb128 0x3a
 10114 0151 0B       		.uleb128 0xb
 10115 0152 3B       		.uleb128 0x3b
 10116 0153 0B       		.uleb128 0xb
 10117 0154 01       		.uleb128 0x1
 10118 0155 13       		.uleb128 0x13
 10119 0156 00       		.byte	0
 10120 0157 00       		.byte	0
 10121 0158 1D       		.uleb128 0x1d
 10122 0159 28       		.uleb128 0x28
 10123 015a 00       		.byte	0
 10124 015b 03       		.uleb128 0x3
 10125 015c 0E       		.uleb128 0xe
 10126 015d 1C       		.uleb128 0x1c
 10127 015e 0D       		.uleb128 0xd
 10128 015f 00       		.byte	0
 10129 0160 00       		.byte	0
 10130 0161 1E       		.uleb128 0x1e
 10131 0162 17       		.uleb128 0x17
 10132 0163 01       		.byte	0x1
 10133 0164 03       		.uleb128 0x3
 10134 0165 0E       		.uleb128 0xe
 10135 0166 0B       		.uleb128 0xb
 10136 0167 0B       		.uleb128 0xb
 10137 0168 3A       		.uleb128 0x3a
 10138 0169 0B       		.uleb128 0xb
 10139 016a 3B       		.uleb128 0x3b
 10140 016b 05       		.uleb128 0x5
 10141 016c 01       		.uleb128 0x1
 10142 016d 13       		.uleb128 0x13
 10143 016e 00       		.byte	0
 10144 016f 00       		.byte	0
 10145 0170 1F       		.uleb128 0x1f
 10146 0171 04       		.uleb128 0x4
 10147 0172 01       		.byte	0x1
 10148 0173 0B       		.uleb128 0xb
 10149 0174 0B       		.uleb128 0xb
 10150 0175 3A       		.uleb128 0x3a
 10151 0176 0B       		.uleb128 0xb
 10152 0177 3B       		.uleb128 0x3b
 10153 0178 0B       		.uleb128 0xb
 10154 0179 01       		.uleb128 0x1
 10155 017a 13       		.uleb128 0x13
 10156 017b 00       		.byte	0
 10157 017c 00       		.byte	0
 10158 017d 20       		.uleb128 0x20
 10159 017e 13       		.uleb128 0x13
 10160 017f 01       		.byte	0x1
 10161 0180 03       		.uleb128 0x3
ARM GAS  C:\Users\jo\AppData\Local\Temp\ccfChKJS.s 			page 181


 10162 0181 0E       		.uleb128 0xe
 10163 0182 0B       		.uleb128 0xb
 10164 0183 05       		.uleb128 0x5
 10165 0184 3A       		.uleb128 0x3a
 10166 0185 0B       		.uleb128 0xb
 10167 0186 3B       		.uleb128 0x3b
 10168 0187 0B       		.uleb128 0xb
 10169 0188 01       		.uleb128 0x1
 10170 0189 13       		.uleb128 0x13
 10171 018a 00       		.byte	0
 10172 018b 00       		.byte	0
 10173 018c 21       		.uleb128 0x21
 10174 018d 0D       		.uleb128 0xd
 10175 018e 00       		.byte	0
 10176 018f 03       		.uleb128 0x3
 10177 0190 08       		.uleb128 0x8
 10178 0191 3A       		.uleb128 0x3a
 10179 0192 0B       		.uleb128 0xb
 10180 0193 3B       		.uleb128 0x3b
 10181 0194 0B       		.uleb128 0xb
 10182 0195 49       		.uleb128 0x49
 10183 0196 13       		.uleb128 0x13
 10184 0197 38       		.uleb128 0x38
 10185 0198 05       		.uleb128 0x5
 10186 0199 00       		.byte	0
 10187 019a 00       		.byte	0
 10188 019b 22       		.uleb128 0x22
 10189 019c 2E       		.uleb128 0x2e
 10190 019d 01       		.byte	0x1
 10191 019e 03       		.uleb128 0x3
 10192 019f 0E       		.uleb128 0xe
 10193 01a0 3A       		.uleb128 0x3a
 10194 01a1 0B       		.uleb128 0xb
 10195 01a2 3B       		.uleb128 0x3b
 10196 01a3 05       		.uleb128 0x5
 10197 01a4 27       		.uleb128 0x27
 10198 01a5 19       		.uleb128 0x19
 10199 01a6 20       		.uleb128 0x20
 10200 01a7 0B       		.uleb128 0xb
 10201 01a8 01       		.uleb128 0x1
 10202 01a9 13       		.uleb128 0x13
 10203 01aa 00       		.byte	0
 10204 01ab 00       		.byte	0
 10205 01ac 23       		.uleb128 0x23
 10206 01ad 05       		.uleb128 0x5
 10207 01ae 00       		.byte	0
 10208 01af 03       		.uleb128 0x3
 10209 01b0 08       		.uleb128 0x8
 10210 01b1 3A       		.uleb128 0x3a
 10211 01b2 0B       		.uleb128 0xb
 10212 01b3 3B       		.uleb128 0x3b
 10213 01b4 05       		.uleb128 0x5
 10214 01b5 49       		.uleb128 0x49
 10215 01b6 13       		.uleb128 0x13
 10216 01b7 00       		.byte	0
 10217 01b8 00       		.byte	0
 10218 01b9 24       		.uleb128 0x24
ARM GAS  C:\Users\jo\AppData\Local\Temp\ccfChKJS.s 			page 182


 10219 01ba 34       		.uleb128 0x34
 10220 01bb 00       		.byte	0
 10221 01bc 03       		.uleb128 0x3
 10222 01bd 08       		.uleb128 0x8
 10223 01be 3A       		.uleb128 0x3a
 10224 01bf 0B       		.uleb128 0xb
 10225 01c0 3B       		.uleb128 0x3b
 10226 01c1 05       		.uleb128 0x5
 10227 01c2 49       		.uleb128 0x49
 10228 01c3 13       		.uleb128 0x13
 10229 01c4 00       		.byte	0
 10230 01c5 00       		.byte	0
 10231 01c6 25       		.uleb128 0x25
 10232 01c7 34       		.uleb128 0x34
 10233 01c8 00       		.byte	0
 10234 01c9 03       		.uleb128 0x3
 10235 01ca 0E       		.uleb128 0xe
 10236 01cb 3A       		.uleb128 0x3a
 10237 01cc 0B       		.uleb128 0xb
 10238 01cd 3B       		.uleb128 0x3b
 10239 01ce 05       		.uleb128 0x5
 10240 01cf 49       		.uleb128 0x49
 10241 01d0 13       		.uleb128 0x13
 10242 01d1 00       		.byte	0
 10243 01d2 00       		.byte	0
 10244 01d3 26       		.uleb128 0x26
 10245 01d4 05       		.uleb128 0x5
 10246 01d5 00       		.byte	0
 10247 01d6 03       		.uleb128 0x3
 10248 01d7 0E       		.uleb128 0xe
 10249 01d8 3A       		.uleb128 0x3a
 10250 01d9 0B       		.uleb128 0xb
 10251 01da 3B       		.uleb128 0x3b
 10252 01db 05       		.uleb128 0x5
 10253 01dc 49       		.uleb128 0x49
 10254 01dd 13       		.uleb128 0x13
 10255 01de 00       		.byte	0
 10256 01df 00       		.byte	0
 10257 01e0 27       		.uleb128 0x27
 10258 01e1 2E       		.uleb128 0x2e
 10259 01e2 01       		.byte	0x1
 10260 01e3 03       		.uleb128 0x3
 10261 01e4 0E       		.uleb128 0xe
 10262 01e5 3A       		.uleb128 0x3a
 10263 01e6 0B       		.uleb128 0xb
 10264 01e7 3B       		.uleb128 0x3b
 10265 01e8 0B       		.uleb128 0xb
 10266 01e9 27       		.uleb128 0x27
 10267 01ea 19       		.uleb128 0x19
 10268 01eb 49       		.uleb128 0x49
 10269 01ec 13       		.uleb128 0x13
 10270 01ed 20       		.uleb128 0x20
 10271 01ee 0B       		.uleb128 0xb
 10272 01ef 01       		.uleb128 0x1
 10273 01f0 13       		.uleb128 0x13
 10274 01f1 00       		.byte	0
 10275 01f2 00       		.byte	0
ARM GAS  C:\Users\jo\AppData\Local\Temp\ccfChKJS.s 			page 183


 10276 01f3 28       		.uleb128 0x28
 10277 01f4 05       		.uleb128 0x5
 10278 01f5 00       		.byte	0
 10279 01f6 03       		.uleb128 0x3
 10280 01f7 08       		.uleb128 0x8
 10281 01f8 3A       		.uleb128 0x3a
 10282 01f9 0B       		.uleb128 0xb
 10283 01fa 3B       		.uleb128 0x3b
 10284 01fb 0B       		.uleb128 0xb
 10285 01fc 49       		.uleb128 0x49
 10286 01fd 13       		.uleb128 0x13
 10287 01fe 00       		.byte	0
 10288 01ff 00       		.byte	0
 10289 0200 29       		.uleb128 0x29
 10290 0201 18       		.uleb128 0x18
 10291 0202 00       		.byte	0
 10292 0203 00       		.byte	0
 10293 0204 00       		.byte	0
 10294 0205 2A       		.uleb128 0x2a
 10295 0206 34       		.uleb128 0x34
 10296 0207 00       		.byte	0
 10297 0208 03       		.uleb128 0x3
 10298 0209 08       		.uleb128 0x8
 10299 020a 3A       		.uleb128 0x3a
 10300 020b 0B       		.uleb128 0xb
 10301 020c 3B       		.uleb128 0x3b
 10302 020d 0B       		.uleb128 0xb
 10303 020e 49       		.uleb128 0x49
 10304 020f 13       		.uleb128 0x13
 10305 0210 00       		.byte	0
 10306 0211 00       		.byte	0
 10307 0212 2B       		.uleb128 0x2b
 10308 0213 34       		.uleb128 0x34
 10309 0214 00       		.byte	0
 10310 0215 03       		.uleb128 0x3
 10311 0216 0E       		.uleb128 0xe
 10312 0217 3A       		.uleb128 0x3a
 10313 0218 0B       		.uleb128 0xb
 10314 0219 3B       		.uleb128 0x3b
 10315 021a 0B       		.uleb128 0xb
 10316 021b 49       		.uleb128 0x49
 10317 021c 13       		.uleb128 0x13
 10318 021d 00       		.byte	0
 10319 021e 00       		.byte	0
 10320 021f 2C       		.uleb128 0x2c
 10321 0220 2E       		.uleb128 0x2e
 10322 0221 01       		.byte	0x1
 10323 0222 03       		.uleb128 0x3
 10324 0223 0E       		.uleb128 0xe
 10325 0224 3A       		.uleb128 0x3a
 10326 0225 0B       		.uleb128 0xb
 10327 0226 3B       		.uleb128 0x3b
 10328 0227 05       		.uleb128 0x5
 10329 0228 27       		.uleb128 0x27
 10330 0229 19       		.uleb128 0x19
 10331 022a 11       		.uleb128 0x11
 10332 022b 01       		.uleb128 0x1
ARM GAS  C:\Users\jo\AppData\Local\Temp\ccfChKJS.s 			page 184


 10333 022c 12       		.uleb128 0x12
 10334 022d 06       		.uleb128 0x6
 10335 022e 40       		.uleb128 0x40
 10336 022f 18       		.uleb128 0x18
 10337 0230 9742     		.uleb128 0x2117
 10338 0232 19       		.uleb128 0x19
 10339 0233 01       		.uleb128 0x1
 10340 0234 13       		.uleb128 0x13
 10341 0235 00       		.byte	0
 10342 0236 00       		.byte	0
 10343 0237 2D       		.uleb128 0x2d
 10344 0238 05       		.uleb128 0x5
 10345 0239 00       		.byte	0
 10346 023a 03       		.uleb128 0x3
 10347 023b 0E       		.uleb128 0xe
 10348 023c 3A       		.uleb128 0x3a
 10349 023d 0B       		.uleb128 0xb
 10350 023e 3B       		.uleb128 0x3b
 10351 023f 05       		.uleb128 0x5
 10352 0240 49       		.uleb128 0x49
 10353 0241 13       		.uleb128 0x13
 10354 0242 02       		.uleb128 0x2
 10355 0243 17       		.uleb128 0x17
 10356 0244 00       		.byte	0
 10357 0245 00       		.byte	0
 10358 0246 2E       		.uleb128 0x2e
 10359 0247 34       		.uleb128 0x34
 10360 0248 00       		.byte	0
 10361 0249 03       		.uleb128 0x3
 10362 024a 0E       		.uleb128 0xe
 10363 024b 3A       		.uleb128 0x3a
 10364 024c 0B       		.uleb128 0xb
 10365 024d 3B       		.uleb128 0x3b
 10366 024e 05       		.uleb128 0x5
 10367 024f 49       		.uleb128 0x49
 10368 0250 13       		.uleb128 0x13
 10369 0251 02       		.uleb128 0x2
 10370 0252 17       		.uleb128 0x17
 10371 0253 00       		.byte	0
 10372 0254 00       		.byte	0
 10373 0255 2F       		.uleb128 0x2f
 10374 0256 898201   		.uleb128 0x4109
 10375 0259 00       		.byte	0
 10376 025a 11       		.uleb128 0x11
 10377 025b 01       		.uleb128 0x1
 10378 025c 31       		.uleb128 0x31
 10379 025d 13       		.uleb128 0x13
 10380 025e 00       		.byte	0
 10381 025f 00       		.byte	0
 10382 0260 30       		.uleb128 0x30
 10383 0261 898201   		.uleb128 0x4109
 10384 0264 01       		.byte	0x1
 10385 0265 11       		.uleb128 0x11
 10386 0266 01       		.uleb128 0x1
 10387 0267 31       		.uleb128 0x31
 10388 0268 13       		.uleb128 0x13
 10389 0269 01       		.uleb128 0x1
ARM GAS  C:\Users\jo\AppData\Local\Temp\ccfChKJS.s 			page 185


 10390 026a 13       		.uleb128 0x13
 10391 026b 00       		.byte	0
 10392 026c 00       		.byte	0
 10393 026d 31       		.uleb128 0x31
 10394 026e 8A8201   		.uleb128 0x410a
 10395 0271 00       		.byte	0
 10396 0272 02       		.uleb128 0x2
 10397 0273 18       		.uleb128 0x18
 10398 0274 9142     		.uleb128 0x2111
 10399 0276 18       		.uleb128 0x18
 10400 0277 00       		.byte	0
 10401 0278 00       		.byte	0
 10402 0279 32       		.uleb128 0x32
 10403 027a 898201   		.uleb128 0x4109
 10404 027d 01       		.byte	0x1
 10405 027e 11       		.uleb128 0x11
 10406 027f 01       		.uleb128 0x1
 10407 0280 31       		.uleb128 0x31
 10408 0281 13       		.uleb128 0x13
 10409 0282 00       		.byte	0
 10410 0283 00       		.byte	0
 10411 0284 33       		.uleb128 0x33
 10412 0285 2E       		.uleb128 0x2e
 10413 0286 01       		.byte	0x1
 10414 0287 31       		.uleb128 0x31
 10415 0288 13       		.uleb128 0x13
 10416 0289 11       		.uleb128 0x11
 10417 028a 01       		.uleb128 0x1
 10418 028b 12       		.uleb128 0x12
 10419 028c 06       		.uleb128 0x6
 10420 028d 40       		.uleb128 0x40
 10421 028e 18       		.uleb128 0x18
 10422 028f 9742     		.uleb128 0x2117
 10423 0291 19       		.uleb128 0x19
 10424 0292 01       		.uleb128 0x1
 10425 0293 13       		.uleb128 0x13
 10426 0294 00       		.byte	0
 10427 0295 00       		.byte	0
 10428 0296 34       		.uleb128 0x34
 10429 0297 05       		.uleb128 0x5
 10430 0298 00       		.byte	0
 10431 0299 31       		.uleb128 0x31
 10432 029a 13       		.uleb128 0x13
 10433 029b 02       		.uleb128 0x2
 10434 029c 18       		.uleb128 0x18
 10435 029d 00       		.byte	0
 10436 029e 00       		.byte	0
 10437 029f 35       		.uleb128 0x35
 10438 02a0 34       		.uleb128 0x34
 10439 02a1 00       		.byte	0
 10440 02a2 31       		.uleb128 0x31
 10441 02a3 13       		.uleb128 0x13
 10442 02a4 02       		.uleb128 0x2
 10443 02a5 17       		.uleb128 0x17
 10444 02a6 00       		.byte	0
 10445 02a7 00       		.byte	0
 10446 02a8 36       		.uleb128 0x36
ARM GAS  C:\Users\jo\AppData\Local\Temp\ccfChKJS.s 			page 186


 10447 02a9 34       		.uleb128 0x34
 10448 02aa 00       		.byte	0
 10449 02ab 31       		.uleb128 0x31
 10450 02ac 13       		.uleb128 0x13
 10451 02ad 02       		.uleb128 0x2
 10452 02ae 18       		.uleb128 0x18
 10453 02af 00       		.byte	0
 10454 02b0 00       		.byte	0
 10455 02b1 37       		.uleb128 0x37
 10456 02b2 05       		.uleb128 0x5
 10457 02b3 00       		.byte	0
 10458 02b4 31       		.uleb128 0x31
 10459 02b5 13       		.uleb128 0x13
 10460 02b6 02       		.uleb128 0x2
 10461 02b7 17       		.uleb128 0x17
 10462 02b8 00       		.byte	0
 10463 02b9 00       		.byte	0
 10464 02ba 38       		.uleb128 0x38
 10465 02bb 05       		.uleb128 0x5
 10466 02bc 00       		.byte	0
 10467 02bd 31       		.uleb128 0x31
 10468 02be 13       		.uleb128 0x13
 10469 02bf 00       		.byte	0
 10470 02c0 00       		.byte	0
 10471 02c1 39       		.uleb128 0x39
 10472 02c2 05       		.uleb128 0x5
 10473 02c3 00       		.byte	0
 10474 02c4 03       		.uleb128 0x3
 10475 02c5 08       		.uleb128 0x8
 10476 02c6 3A       		.uleb128 0x3a
 10477 02c7 0B       		.uleb128 0xb
 10478 02c8 3B       		.uleb128 0x3b
 10479 02c9 05       		.uleb128 0x5
 10480 02ca 49       		.uleb128 0x49
 10481 02cb 13       		.uleb128 0x13
 10482 02cc 02       		.uleb128 0x2
 10483 02cd 17       		.uleb128 0x17
 10484 02ce 00       		.byte	0
 10485 02cf 00       		.byte	0
 10486 02d0 3A       		.uleb128 0x3a
 10487 02d1 34       		.uleb128 0x34
 10488 02d2 00       		.byte	0
 10489 02d3 03       		.uleb128 0x3
 10490 02d4 08       		.uleb128 0x8
 10491 02d5 3A       		.uleb128 0x3a
 10492 02d6 0B       		.uleb128 0xb
 10493 02d7 3B       		.uleb128 0x3b
 10494 02d8 05       		.uleb128 0x5
 10495 02d9 49       		.uleb128 0x49
 10496 02da 13       		.uleb128 0x13
 10497 02db 02       		.uleb128 0x2
 10498 02dc 17       		.uleb128 0x17
 10499 02dd 00       		.byte	0
 10500 02de 00       		.byte	0
 10501 02df 3B       		.uleb128 0x3b
 10502 02e0 1D       		.uleb128 0x1d
 10503 02e1 01       		.byte	0x1
ARM GAS  C:\Users\jo\AppData\Local\Temp\ccfChKJS.s 			page 187


 10504 02e2 31       		.uleb128 0x31
 10505 02e3 13       		.uleb128 0x13
 10506 02e4 11       		.uleb128 0x11
 10507 02e5 01       		.uleb128 0x1
 10508 02e6 12       		.uleb128 0x12
 10509 02e7 06       		.uleb128 0x6
 10510 02e8 58       		.uleb128 0x58
 10511 02e9 0B       		.uleb128 0xb
 10512 02ea 59       		.uleb128 0x59
 10513 02eb 05       		.uleb128 0x5
 10514 02ec 01       		.uleb128 0x1
 10515 02ed 13       		.uleb128 0x13
 10516 02ee 00       		.byte	0
 10517 02ef 00       		.byte	0
 10518 02f0 3C       		.uleb128 0x3c
 10519 02f1 1D       		.uleb128 0x1d
 10520 02f2 01       		.byte	0x1
 10521 02f3 31       		.uleb128 0x31
 10522 02f4 13       		.uleb128 0x13
 10523 02f5 52       		.uleb128 0x52
 10524 02f6 01       		.uleb128 0x1
 10525 02f7 55       		.uleb128 0x55
 10526 02f8 17       		.uleb128 0x17
 10527 02f9 58       		.uleb128 0x58
 10528 02fa 0B       		.uleb128 0xb
 10529 02fb 59       		.uleb128 0x59
 10530 02fc 05       		.uleb128 0x5
 10531 02fd 01       		.uleb128 0x1
 10532 02fe 13       		.uleb128 0x13
 10533 02ff 00       		.byte	0
 10534 0300 00       		.byte	0
 10535 0301 3D       		.uleb128 0x3d
 10536 0302 898201   		.uleb128 0x4109
 10537 0305 01       		.byte	0x1
 10538 0306 11       		.uleb128 0x11
 10539 0307 01       		.uleb128 0x1
 10540 0308 9542     		.uleb128 0x2115
 10541 030a 19       		.uleb128 0x19
 10542 030b 31       		.uleb128 0x31
 10543 030c 13       		.uleb128 0x13
 10544 030d 00       		.byte	0
 10545 030e 00       		.byte	0
 10546 030f 3E       		.uleb128 0x3e
 10547 0310 0B       		.uleb128 0xb
 10548 0311 01       		.byte	0x1
 10549 0312 11       		.uleb128 0x11
 10550 0313 01       		.uleb128 0x1
 10551 0314 12       		.uleb128 0x12
 10552 0315 06       		.uleb128 0x6
 10553 0316 01       		.uleb128 0x1
 10554 0317 13       		.uleb128 0x13
 10555 0318 00       		.byte	0
 10556 0319 00       		.byte	0
 10557 031a 3F       		.uleb128 0x3f
 10558 031b 898201   		.uleb128 0x4109
 10559 031e 01       		.byte	0x1
 10560 031f 11       		.uleb128 0x11
ARM GAS  C:\Users\jo\AppData\Local\Temp\ccfChKJS.s 			page 188


 10561 0320 01       		.uleb128 0x1
 10562 0321 9542     		.uleb128 0x2115
 10563 0323 19       		.uleb128 0x19
 10564 0324 31       		.uleb128 0x31
 10565 0325 13       		.uleb128 0x13
 10566 0326 01       		.uleb128 0x1
 10567 0327 13       		.uleb128 0x13
 10568 0328 00       		.byte	0
 10569 0329 00       		.byte	0
 10570 032a 40       		.uleb128 0x40
 10571 032b 898201   		.uleb128 0x4109
 10572 032e 00       		.byte	0
 10573 032f 11       		.uleb128 0x11
 10574 0330 01       		.uleb128 0x1
 10575 0331 9542     		.uleb128 0x2115
 10576 0333 19       		.uleb128 0x19
 10577 0334 31       		.uleb128 0x31
 10578 0335 13       		.uleb128 0x13
 10579 0336 00       		.byte	0
 10580 0337 00       		.byte	0
 10581 0338 41       		.uleb128 0x41
 10582 0339 2E       		.uleb128 0x2e
 10583 033a 01       		.byte	0x1
 10584 033b 03       		.uleb128 0x3
 10585 033c 0E       		.uleb128 0xe
 10586 033d 3A       		.uleb128 0x3a
 10587 033e 0B       		.uleb128 0xb
 10588 033f 3B       		.uleb128 0x3b
 10589 0340 05       		.uleb128 0x5
 10590 0341 27       		.uleb128 0x27
 10591 0342 19       		.uleb128 0x19
 10592 0343 49       		.uleb128 0x49
 10593 0344 13       		.uleb128 0x13
 10594 0345 20       		.uleb128 0x20
 10595 0346 0B       		.uleb128 0xb
 10596 0347 01       		.uleb128 0x1
 10597 0348 13       		.uleb128 0x13
 10598 0349 00       		.byte	0
 10599 034a 00       		.byte	0
 10600 034b 42       		.uleb128 0x42
 10601 034c 0B       		.uleb128 0xb
 10602 034d 01       		.byte	0x1
 10603 034e 00       		.byte	0
 10604 034f 00       		.byte	0
 10605 0350 43       		.uleb128 0x43
 10606 0351 2E       		.uleb128 0x2e
 10607 0352 01       		.byte	0x1
 10608 0353 3F       		.uleb128 0x3f
 10609 0354 19       		.uleb128 0x19
 10610 0355 03       		.uleb128 0x3
 10611 0356 0E       		.uleb128 0xe
 10612 0357 3A       		.uleb128 0x3a
 10613 0358 0B       		.uleb128 0xb
 10614 0359 3B       		.uleb128 0x3b
 10615 035a 0B       		.uleb128 0xb
 10616 035b 27       		.uleb128 0x27
 10617 035c 19       		.uleb128 0x19
ARM GAS  C:\Users\jo\AppData\Local\Temp\ccfChKJS.s 			page 189


 10618 035d 11       		.uleb128 0x11
 10619 035e 01       		.uleb128 0x1
 10620 035f 12       		.uleb128 0x12
 10621 0360 06       		.uleb128 0x6
 10622 0361 40       		.uleb128 0x40
 10623 0362 18       		.uleb128 0x18
 10624 0363 9742     		.uleb128 0x2117
 10625 0365 19       		.uleb128 0x19
 10626 0366 01       		.uleb128 0x1
 10627 0367 13       		.uleb128 0x13
 10628 0368 00       		.byte	0
 10629 0369 00       		.byte	0
 10630 036a 44       		.uleb128 0x44
 10631 036b 05       		.uleb128 0x5
 10632 036c 00       		.byte	0
 10633 036d 03       		.uleb128 0x3
 10634 036e 08       		.uleb128 0x8
 10635 036f 3A       		.uleb128 0x3a
 10636 0370 0B       		.uleb128 0xb
 10637 0371 3B       		.uleb128 0x3b
 10638 0372 0B       		.uleb128 0xb
 10639 0373 49       		.uleb128 0x49
 10640 0374 13       		.uleb128 0x13
 10641 0375 02       		.uleb128 0x2
 10642 0376 17       		.uleb128 0x17
 10643 0377 00       		.byte	0
 10644 0378 00       		.byte	0
 10645 0379 45       		.uleb128 0x45
 10646 037a 34       		.uleb128 0x34
 10647 037b 00       		.byte	0
 10648 037c 03       		.uleb128 0x3
 10649 037d 08       		.uleb128 0x8
 10650 037e 3A       		.uleb128 0x3a
 10651 037f 0B       		.uleb128 0xb
 10652 0380 3B       		.uleb128 0x3b
 10653 0381 0B       		.uleb128 0xb
 10654 0382 49       		.uleb128 0x49
 10655 0383 13       		.uleb128 0x13
 10656 0384 02       		.uleb128 0x2
 10657 0385 17       		.uleb128 0x17
 10658 0386 00       		.byte	0
 10659 0387 00       		.byte	0
 10660 0388 46       		.uleb128 0x46
 10661 0389 34       		.uleb128 0x34
 10662 038a 00       		.byte	0
 10663 038b 03       		.uleb128 0x3
 10664 038c 0E       		.uleb128 0xe
 10665 038d 3A       		.uleb128 0x3a
 10666 038e 0B       		.uleb128 0xb
 10667 038f 3B       		.uleb128 0x3b
 10668 0390 0B       		.uleb128 0xb
 10669 0391 49       		.uleb128 0x49
 10670 0392 13       		.uleb128 0x13
 10671 0393 02       		.uleb128 0x2
 10672 0394 17       		.uleb128 0x17
 10673 0395 00       		.byte	0
 10674 0396 00       		.byte	0
ARM GAS  C:\Users\jo\AppData\Local\Temp\ccfChKJS.s 			page 190


 10675 0397 47       		.uleb128 0x47
 10676 0398 0A       		.uleb128 0xa
 10677 0399 00       		.byte	0
 10678 039a 03       		.uleb128 0x3
 10679 039b 0E       		.uleb128 0xe
 10680 039c 3A       		.uleb128 0x3a
 10681 039d 0B       		.uleb128 0xb
 10682 039e 3B       		.uleb128 0x3b
 10683 039f 05       		.uleb128 0x5
 10684 03a0 11       		.uleb128 0x11
 10685 03a1 01       		.uleb128 0x1
 10686 03a2 00       		.byte	0
 10687 03a3 00       		.byte	0
 10688 03a4 48       		.uleb128 0x48
 10689 03a5 1D       		.uleb128 0x1d
 10690 03a6 01       		.byte	0x1
 10691 03a7 31       		.uleb128 0x31
 10692 03a8 13       		.uleb128 0x13
 10693 03a9 11       		.uleb128 0x11
 10694 03aa 01       		.uleb128 0x1
 10695 03ab 12       		.uleb128 0x12
 10696 03ac 06       		.uleb128 0x6
 10697 03ad 58       		.uleb128 0x58
 10698 03ae 0B       		.uleb128 0xb
 10699 03af 59       		.uleb128 0x59
 10700 03b0 0B       		.uleb128 0xb
 10701 03b1 01       		.uleb128 0x1
 10702 03b2 13       		.uleb128 0x13
 10703 03b3 00       		.byte	0
 10704 03b4 00       		.byte	0
 10705 03b5 49       		.uleb128 0x49
 10706 03b6 1D       		.uleb128 0x1d
 10707 03b7 01       		.byte	0x1
 10708 03b8 31       		.uleb128 0x31
 10709 03b9 13       		.uleb128 0x13
 10710 03ba 52       		.uleb128 0x52
 10711 03bb 01       		.uleb128 0x1
 10712 03bc 55       		.uleb128 0x55
 10713 03bd 17       		.uleb128 0x17
 10714 03be 58       		.uleb128 0x58
 10715 03bf 0B       		.uleb128 0xb
 10716 03c0 59       		.uleb128 0x59
 10717 03c1 0B       		.uleb128 0xb
 10718 03c2 01       		.uleb128 0x1
 10719 03c3 13       		.uleb128 0x13
 10720 03c4 00       		.byte	0
 10721 03c5 00       		.byte	0
 10722 03c6 4A       		.uleb128 0x4a
 10723 03c7 0B       		.uleb128 0xb
 10724 03c8 01       		.byte	0x1
 10725 03c9 55       		.uleb128 0x55
 10726 03ca 17       		.uleb128 0x17
 10727 03cb 00       		.byte	0
 10728 03cc 00       		.byte	0
 10729 03cd 4B       		.uleb128 0x4b
 10730 03ce 0B       		.uleb128 0xb
 10731 03cf 01       		.byte	0x1
ARM GAS  C:\Users\jo\AppData\Local\Temp\ccfChKJS.s 			page 191


 10732 03d0 55       		.uleb128 0x55
 10733 03d1 17       		.uleb128 0x17
 10734 03d2 01       		.uleb128 0x1
 10735 03d3 13       		.uleb128 0x13
 10736 03d4 00       		.byte	0
 10737 03d5 00       		.byte	0
 10738 03d6 4C       		.uleb128 0x4c
 10739 03d7 898201   		.uleb128 0x4109
 10740 03da 01       		.byte	0x1
 10741 03db 11       		.uleb128 0x11
 10742 03dc 01       		.uleb128 0x1
 10743 03dd 01       		.uleb128 0x1
 10744 03de 13       		.uleb128 0x13
 10745 03df 00       		.byte	0
 10746 03e0 00       		.byte	0
 10747 03e1 4D       		.uleb128 0x4d
 10748 03e2 8A8201   		.uleb128 0x410a
 10749 03e5 00       		.byte	0
 10750 03e6 31       		.uleb128 0x31
 10751 03e7 13       		.uleb128 0x13
 10752 03e8 9142     		.uleb128 0x2111
 10753 03ea 18       		.uleb128 0x18
 10754 03eb 00       		.byte	0
 10755 03ec 00       		.byte	0
 10756 03ed 4E       		.uleb128 0x4e
 10757 03ee 898201   		.uleb128 0x4109
 10758 03f1 01       		.byte	0x1
 10759 03f2 11       		.uleb128 0x11
 10760 03f3 01       		.uleb128 0x1
 10761 03f4 9342     		.uleb128 0x2113
 10762 03f6 18       		.uleb128 0x18
 10763 03f7 01       		.uleb128 0x1
 10764 03f8 13       		.uleb128 0x13
 10765 03f9 00       		.byte	0
 10766 03fa 00       		.byte	0
 10767 03fb 4F       		.uleb128 0x4f
 10768 03fc 34       		.uleb128 0x34
 10769 03fd 00       		.byte	0
 10770 03fe 03       		.uleb128 0x3
 10771 03ff 0E       		.uleb128 0xe
 10772 0400 3A       		.uleb128 0x3a
 10773 0401 0B       		.uleb128 0xb
 10774 0402 3B       		.uleb128 0x3b
 10775 0403 0B       		.uleb128 0xb
 10776 0404 49       		.uleb128 0x49
 10777 0405 13       		.uleb128 0x13
 10778 0406 02       		.uleb128 0x2
 10779 0407 18       		.uleb128 0x18
 10780 0408 00       		.byte	0
 10781 0409 00       		.byte	0
 10782 040a 50       		.uleb128 0x50
 10783 040b 34       		.uleb128 0x34
 10784 040c 00       		.byte	0
 10785 040d 03       		.uleb128 0x3
 10786 040e 0E       		.uleb128 0xe
 10787 040f 3A       		.uleb128 0x3a
 10788 0410 0B       		.uleb128 0xb
ARM GAS  C:\Users\jo\AppData\Local\Temp\ccfChKJS.s 			page 192


 10789 0411 3B       		.uleb128 0x3b
 10790 0412 05       		.uleb128 0x5
 10791 0413 49       		.uleb128 0x49
 10792 0414 13       		.uleb128 0x13
 10793 0415 3F       		.uleb128 0x3f
 10794 0416 19       		.uleb128 0x19
 10795 0417 3C       		.uleb128 0x3c
 10796 0418 19       		.uleb128 0x19
 10797 0419 00       		.byte	0
 10798 041a 00       		.byte	0
 10799 041b 51       		.uleb128 0x51
 10800 041c 34       		.uleb128 0x34
 10801 041d 00       		.byte	0
 10802 041e 03       		.uleb128 0x3
 10803 041f 08       		.uleb128 0x8
 10804 0420 3A       		.uleb128 0x3a
 10805 0421 0B       		.uleb128 0xb
 10806 0422 3B       		.uleb128 0x3b
 10807 0423 05       		.uleb128 0x5
 10808 0424 49       		.uleb128 0x49
 10809 0425 13       		.uleb128 0x13
 10810 0426 3F       		.uleb128 0x3f
 10811 0427 19       		.uleb128 0x19
 10812 0428 3C       		.uleb128 0x3c
 10813 0429 19       		.uleb128 0x19
 10814 042a 00       		.byte	0
 10815 042b 00       		.byte	0
 10816 042c 52       		.uleb128 0x52
 10817 042d 34       		.uleb128 0x34
 10818 042e 00       		.byte	0
 10819 042f 03       		.uleb128 0x3
 10820 0430 0E       		.uleb128 0xe
 10821 0431 3A       		.uleb128 0x3a
 10822 0432 0B       		.uleb128 0xb
 10823 0433 3B       		.uleb128 0x3b
 10824 0434 0B       		.uleb128 0xb
 10825 0435 49       		.uleb128 0x49
 10826 0436 13       		.uleb128 0x13
 10827 0437 3F       		.uleb128 0x3f
 10828 0438 19       		.uleb128 0x19
 10829 0439 3C       		.uleb128 0x3c
 10830 043a 19       		.uleb128 0x19
 10831 043b 00       		.byte	0
 10832 043c 00       		.byte	0
 10833 043d 53       		.uleb128 0x53
 10834 043e 34       		.uleb128 0x34
 10835 043f 00       		.byte	0
 10836 0440 03       		.uleb128 0x3
 10837 0441 0E       		.uleb128 0xe
 10838 0442 3A       		.uleb128 0x3a
 10839 0443 0B       		.uleb128 0xb
 10840 0444 3B       		.uleb128 0x3b
 10841 0445 0B       		.uleb128 0xb
 10842 0446 49       		.uleb128 0x49
 10843 0447 13       		.uleb128 0x13
 10844 0448 3F       		.uleb128 0x3f
 10845 0449 19       		.uleb128 0x19
ARM GAS  C:\Users\jo\AppData\Local\Temp\ccfChKJS.s 			page 193


 10846 044a 02       		.uleb128 0x2
 10847 044b 18       		.uleb128 0x18
 10848 044c 00       		.byte	0
 10849 044d 00       		.byte	0
 10850 044e 54       		.uleb128 0x54
 10851 044f 2E       		.uleb128 0x2e
 10852 0450 01       		.byte	0x1
 10853 0451 3F       		.uleb128 0x3f
 10854 0452 19       		.uleb128 0x19
 10855 0453 03       		.uleb128 0x3
 10856 0454 0E       		.uleb128 0xe
 10857 0455 3A       		.uleb128 0x3a
 10858 0456 0B       		.uleb128 0xb
 10859 0457 3B       		.uleb128 0x3b
 10860 0458 0B       		.uleb128 0xb
 10861 0459 27       		.uleb128 0x27
 10862 045a 19       		.uleb128 0x19
 10863 045b 49       		.uleb128 0x49
 10864 045c 13       		.uleb128 0x13
 10865 045d 3C       		.uleb128 0x3c
 10866 045e 19       		.uleb128 0x19
 10867 045f 01       		.uleb128 0x1
 10868 0460 13       		.uleb128 0x13
 10869 0461 00       		.byte	0
 10870 0462 00       		.byte	0
 10871 0463 55       		.uleb128 0x55
 10872 0464 2E       		.uleb128 0x2e
 10873 0465 01       		.byte	0x1
 10874 0466 3F       		.uleb128 0x3f
 10875 0467 19       		.uleb128 0x19
 10876 0468 03       		.uleb128 0x3
 10877 0469 0E       		.uleb128 0xe
 10878 046a 3A       		.uleb128 0x3a
 10879 046b 0B       		.uleb128 0xb
 10880 046c 3B       		.uleb128 0x3b
 10881 046d 05       		.uleb128 0x5
 10882 046e 27       		.uleb128 0x27
 10883 046f 19       		.uleb128 0x19
 10884 0470 3C       		.uleb128 0x3c
 10885 0471 19       		.uleb128 0x19
 10886 0472 01       		.uleb128 0x1
 10887 0473 13       		.uleb128 0x13
 10888 0474 00       		.byte	0
 10889 0475 00       		.byte	0
 10890 0476 56       		.uleb128 0x56
 10891 0477 2E       		.uleb128 0x2e
 10892 0478 01       		.byte	0x1
 10893 0479 3F       		.uleb128 0x3f
 10894 047a 19       		.uleb128 0x19
 10895 047b 03       		.uleb128 0x3
 10896 047c 0E       		.uleb128 0xe
 10897 047d 3A       		.uleb128 0x3a
 10898 047e 0B       		.uleb128 0xb
 10899 047f 3B       		.uleb128 0x3b
 10900 0480 0B       		.uleb128 0xb
 10901 0481 27       		.uleb128 0x27
 10902 0482 19       		.uleb128 0x19
ARM GAS  C:\Users\jo\AppData\Local\Temp\ccfChKJS.s 			page 194


 10903 0483 3C       		.uleb128 0x3c
 10904 0484 19       		.uleb128 0x19
 10905 0485 01       		.uleb128 0x1
 10906 0486 13       		.uleb128 0x13
 10907 0487 00       		.byte	0
 10908 0488 00       		.byte	0
 10909 0489 57       		.uleb128 0x57
 10910 048a 2E       		.uleb128 0x2e
 10911 048b 01       		.byte	0x1
 10912 048c 3F       		.uleb128 0x3f
 10913 048d 19       		.uleb128 0x19
 10914 048e 03       		.uleb128 0x3
 10915 048f 0E       		.uleb128 0xe
 10916 0490 3A       		.uleb128 0x3a
 10917 0491 0B       		.uleb128 0xb
 10918 0492 3B       		.uleb128 0x3b
 10919 0493 05       		.uleb128 0x5
 10920 0494 27       		.uleb128 0x27
 10921 0495 19       		.uleb128 0x19
 10922 0496 49       		.uleb128 0x49
 10923 0497 13       		.uleb128 0x13
 10924 0498 3C       		.uleb128 0x3c
 10925 0499 19       		.uleb128 0x19
 10926 049a 01       		.uleb128 0x1
 10927 049b 13       		.uleb128 0x13
 10928 049c 00       		.byte	0
 10929 049d 00       		.byte	0
 10930 049e 58       		.uleb128 0x58
 10931 049f 2E       		.uleb128 0x2e
 10932 04a0 00       		.byte	0
 10933 04a1 3F       		.uleb128 0x3f
 10934 04a2 19       		.uleb128 0x19
 10935 04a3 03       		.uleb128 0x3
 10936 04a4 0E       		.uleb128 0xe
 10937 04a5 3A       		.uleb128 0x3a
 10938 04a6 0B       		.uleb128 0xb
 10939 04a7 3B       		.uleb128 0x3b
 10940 04a8 05       		.uleb128 0x5
 10941 04a9 27       		.uleb128 0x27
 10942 04aa 19       		.uleb128 0x19
 10943 04ab 3C       		.uleb128 0x3c
 10944 04ac 19       		.uleb128 0x19
 10945 04ad 00       		.byte	0
 10946 04ae 00       		.byte	0
 10947 04af 59       		.uleb128 0x59
 10948 04b0 2E       		.uleb128 0x2e
 10949 04b1 01       		.byte	0x1
 10950 04b2 3F       		.uleb128 0x3f
 10951 04b3 19       		.uleb128 0x19
 10952 04b4 03       		.uleb128 0x3
 10953 04b5 0E       		.uleb128 0xe
 10954 04b6 3A       		.uleb128 0x3a
 10955 04b7 0B       		.uleb128 0xb
 10956 04b8 3B       		.uleb128 0x3b
 10957 04b9 05       		.uleb128 0x5
 10958 04ba 27       		.uleb128 0x27
 10959 04bb 19       		.uleb128 0x19
ARM GAS  C:\Users\jo\AppData\Local\Temp\ccfChKJS.s 			page 195


 10960 04bc 3C       		.uleb128 0x3c
 10961 04bd 19       		.uleb128 0x19
 10962 04be 00       		.byte	0
 10963 04bf 00       		.byte	0
 10964 04c0 00       		.byte	0
 10965              		.section	.debug_loc,"",%progbits
 10966              	.Ldebug_loc0:
 10967              	.LLST0:
 10968 0000 00000000 		.4byte	.LVL0
 10969 0004 0A000000 		.4byte	.LVL1
 10970 0008 0100     		.2byte	0x1
 10971 000a 50       		.byte	0x50
 10972 000b 0A000000 		.4byte	.LVL1
 10973 000f B4000000 		.4byte	.LFE264
 10974 0013 0100     		.2byte	0x1
 10975 0015 55       		.byte	0x55
 10976 0016 00000000 		.4byte	0
 10977 001a 00000000 		.4byte	0
 10978              	.LLST1:
 10979 001e 00000000 		.4byte	.LVL0
 10980 0022 0F000000 		.4byte	.LVL2-1
 10981 0026 0100     		.2byte	0x1
 10982 0028 51       		.byte	0x51
 10983 0029 0F000000 		.4byte	.LVL2-1
 10984 002d 3A000000 		.4byte	.LVL4
 10985 0031 0100     		.2byte	0x1
 10986 0033 57       		.byte	0x57
 10987 0034 3A000000 		.4byte	.LVL4
 10988 0038 5C000000 		.4byte	.LVL6
 10989 003c 0100     		.2byte	0x1
 10990 003e 54       		.byte	0x54
 10991 003f 5C000000 		.4byte	.LVL6
 10992 0043 7C000000 		.4byte	.LVL9
 10993 0047 0100     		.2byte	0x1
 10994 0049 57       		.byte	0x57
 10995 004a 7C000000 		.4byte	.LVL9
 10996 004e 86000000 		.4byte	.LVL11
 10997 0052 0100     		.2byte	0x1
 10998 0054 54       		.byte	0x54
 10999 0055 86000000 		.4byte	.LVL11
 11000 0059 88000000 		.4byte	.LVL12
 11001 005d 0200     		.2byte	0x2
 11002 005f 30       		.byte	0x30
 11003 0060 9F       		.byte	0x9f
 11004 0061 88000000 		.4byte	.LVL12
 11005 0065 8E000000 		.4byte	.LVL13
 11006 0069 0100     		.2byte	0x1
 11007 006b 54       		.byte	0x54
 11008 006c A0000000 		.4byte	.LVL14
 11009 0070 A6000000 		.4byte	.LVL15
 11010 0074 0100     		.2byte	0x1
 11011 0076 54       		.byte	0x54
 11012 0077 A6000000 		.4byte	.LVL15
 11013 007b B4000000 		.4byte	.LFE264
 11014 007f 0100     		.2byte	0x1
 11015 0081 57       		.byte	0x57
 11016 0082 00000000 		.4byte	0
ARM GAS  C:\Users\jo\AppData\Local\Temp\ccfChKJS.s 			page 196


 11017 0086 00000000 		.4byte	0
 11018              	.LLST2:
 11019 008a 38000000 		.4byte	.LVL3
 11020 008e 5C000000 		.4byte	.LVL6
 11021 0092 0100     		.2byte	0x1
 11022 0094 57       		.byte	0x57
 11023 0095 7C000000 		.4byte	.LVL9
 11024 0099 86000000 		.4byte	.LVL11
 11025 009d 0100     		.2byte	0x1
 11026 009f 57       		.byte	0x57
 11027 00a0 00000000 		.4byte	0
 11028 00a4 00000000 		.4byte	0
 11029              	.LLST3:
 11030 00a8 28000000 		.4byte	.LVL23
 11031 00ac 3E000000 		.4byte	.LVL24
 11032 00b0 0200     		.2byte	0x2
 11033 00b2 30       		.byte	0x30
 11034 00b3 9F       		.byte	0x9f
 11035 00b4 3E000000 		.4byte	.LVL24
 11036 00b8 64000000 		.4byte	.LVL27
 11037 00bc 0100     		.2byte	0x1
 11038 00be 53       		.byte	0x53
 11039 00bf 6C000000 		.4byte	.LVL29
 11040 00c3 7A000000 		.4byte	.LVL32
 11041 00c7 0100     		.2byte	0x1
 11042 00c9 53       		.byte	0x53
 11043 00ca 7C000000 		.4byte	.LVL33
 11044 00ce 88000000 		.4byte	.LVL34
 11045 00d2 0100     		.2byte	0x1
 11046 00d4 53       		.byte	0x53
 11047 00d5 8A000000 		.4byte	.LVL35
 11048 00d9 90000000 		.4byte	.LFE267
 11049 00dd 0100     		.2byte	0x1
 11050 00df 53       		.byte	0x53
 11051 00e0 00000000 		.4byte	0
 11052 00e4 00000000 		.4byte	0
 11053              	.LLST4:
 11054 00e8 5E000000 		.4byte	.LVL26
 11055 00ec 6A000000 		.4byte	.LVL28
 11056 00f0 0100     		.2byte	0x1
 11057 00f2 51       		.byte	0x51
 11058 00f3 6A000000 		.4byte	.LVL28
 11059 00f7 6C000000 		.4byte	.LVL29
 11060 00fb 1200     		.2byte	0x12
 11061 00fd 7E       		.byte	0x7e
 11062 00fe 00       		.sleb128 0
 11063 00ff 38       		.byte	0x38
 11064 0100 24       		.byte	0x24
 11065 0101 72       		.byte	0x72
 11066 0102 00       		.sleb128 0
 11067 0103 73       		.byte	0x73
 11068 0104 00       		.sleb128 0
 11069 0105 22       		.byte	0x22
 11070 0106 31       		.byte	0x31
 11071 0107 1C       		.byte	0x1c
 11072 0108 94       		.byte	0x94
 11073 0109 01       		.byte	0x1
ARM GAS  C:\Users\jo\AppData\Local\Temp\ccfChKJS.s 			page 197


 11074 010a 08       		.byte	0x8
 11075 010b FF       		.byte	0xff
 11076 010c 1A       		.byte	0x1a
 11077 010d 21       		.byte	0x21
 11078 010e 9F       		.byte	0x9f
 11079 010f 00000000 		.4byte	0
 11080 0113 00000000 		.4byte	0
 11081              	.LLST5:
 11082 0117 06000000 		.4byte	.LVL18
 11083 011b 16000000 		.4byte	.LVL20
 11084 011f 0300     		.2byte	0x3
 11085 0121 75       		.byte	0x75
 11086 0122 14       		.sleb128 20
 11087 0123 9F       		.byte	0x9f
 11088 0124 18000000 		.4byte	.LVL21
 11089 0128 3E000000 		.4byte	.LVL24
 11090 012c 0300     		.2byte	0x3
 11091 012e 75       		.byte	0x75
 11092 012f 14       		.sleb128 20
 11093 0130 9F       		.byte	0x9f
 11094 0131 3E000000 		.4byte	.LVL24
 11095 0135 90000000 		.4byte	.LFE267
 11096 0139 0100     		.2byte	0x1
 11097 013b 52       		.byte	0x52
 11098 013c 00000000 		.4byte	0
 11099 0140 00000000 		.4byte	0
 11100              	.LLST6:
 11101 0144 3E000000 		.4byte	.LVL24
 11102 0148 40000000 		.4byte	.LVL25
 11103 014c 0500     		.2byte	0x5
 11104 014e 72       		.byte	0x72
 11105 014f 00       		.sleb128 0
 11106 0150 73       		.byte	0x73
 11107 0151 00       		.sleb128 0
 11108 0152 22       		.byte	0x22
 11109 0153 72000000 		.4byte	.LVL30
 11110 0157 78000000 		.4byte	.LVL31
 11111 015b 0500     		.2byte	0x5
 11112 015d 72       		.byte	0x72
 11113 015e 00       		.sleb128 0
 11114 015f 73       		.byte	0x73
 11115 0160 00       		.sleb128 0
 11116 0161 22       		.byte	0x22
 11117 0162 00000000 		.4byte	0
 11118 0166 00000000 		.4byte	0
 11119              	.LLST7:
 11120 016a 00000000 		.4byte	.LVL36
 11121 016e 0E000000 		.4byte	.LVL37
 11122 0172 0100     		.2byte	0x1
 11123 0174 50       		.byte	0x50
 11124 0175 0E000000 		.4byte	.LVL37
 11125 0179 28000000 		.4byte	.LFE268
 11126 017d 0400     		.2byte	0x4
 11127 017f F3       		.byte	0xf3
 11128 0180 01       		.uleb128 0x1
 11129 0181 50       		.byte	0x50
 11130 0182 9F       		.byte	0x9f
ARM GAS  C:\Users\jo\AppData\Local\Temp\ccfChKJS.s 			page 198


 11131 0183 00000000 		.4byte	0
 11132 0187 00000000 		.4byte	0
 11133              	.LLST8:
 11134 018b 00000000 		.4byte	.LVL39
 11135 018f 10000000 		.4byte	.LVL40
 11136 0193 0100     		.2byte	0x1
 11137 0195 50       		.byte	0x50
 11138 0196 10000000 		.4byte	.LVL40
 11139 019a 4E000000 		.4byte	.LVL42
 11140 019e 0100     		.2byte	0x1
 11141 01a0 54       		.byte	0x54
 11142 01a1 4E000000 		.4byte	.LVL42
 11143 01a5 54000000 		.4byte	.LVL43
 11144 01a9 0400     		.2byte	0x4
 11145 01ab F3       		.byte	0xf3
 11146 01ac 01       		.uleb128 0x1
 11147 01ad 50       		.byte	0x50
 11148 01ae 9F       		.byte	0x9f
 11149 01af 54000000 		.4byte	.LVL43
 11150 01b3 B2010000 		.4byte	.LVL63
 11151 01b7 0100     		.2byte	0x1
 11152 01b9 54       		.byte	0x54
 11153 01ba B2010000 		.4byte	.LVL63
 11154 01be B5010000 		.4byte	.LVL64-1
 11155 01c2 0100     		.2byte	0x1
 11156 01c4 50       		.byte	0x50
 11157 01c5 B5010000 		.4byte	.LVL64-1
 11158 01c9 B6010000 		.4byte	.LVL64
 11159 01cd 0400     		.2byte	0x4
 11160 01cf F3       		.byte	0xf3
 11161 01d0 01       		.uleb128 0x1
 11162 01d1 50       		.byte	0x50
 11163 01d2 9F       		.byte	0x9f
 11164 01d3 B6010000 		.4byte	.LVL64
 11165 01d7 10020000 		.4byte	.LVL71
 11166 01db 0100     		.2byte	0x1
 11167 01dd 54       		.byte	0x54
 11168 01de 10020000 		.4byte	.LVL71
 11169 01e2 1A020000 		.4byte	.LVL72
 11170 01e6 0100     		.2byte	0x1
 11171 01e8 50       		.byte	0x50
 11172 01e9 1A020000 		.4byte	.LVL72
 11173 01ed D0020000 		.4byte	.LVL82
 11174 01f1 0100     		.2byte	0x1
 11175 01f3 54       		.byte	0x54
 11176 01f4 D0020000 		.4byte	.LVL82
 11177 01f8 DC020000 		.4byte	.LVL84
 11178 01fc 0400     		.2byte	0x4
 11179 01fe F3       		.byte	0xf3
 11180 01ff 01       		.uleb128 0x1
 11181 0200 50       		.byte	0x50
 11182 0201 9F       		.byte	0x9f
 11183 0202 DC020000 		.4byte	.LVL84
 11184 0206 E2030000 		.4byte	.LVL94
 11185 020a 0100     		.2byte	0x1
 11186 020c 54       		.byte	0x54
 11187 020d E2030000 		.4byte	.LVL94
ARM GAS  C:\Users\jo\AppData\Local\Temp\ccfChKJS.s 			page 199


 11188 0211 E6030000 		.4byte	.LVL95
 11189 0215 0400     		.2byte	0x4
 11190 0217 F3       		.byte	0xf3
 11191 0218 01       		.uleb128 0x1
 11192 0219 50       		.byte	0x50
 11193 021a 9F       		.byte	0x9f
 11194 021b E6030000 		.4byte	.LVL95
 11195 021f E2080000 		.4byte	.LVL167
 11196 0223 0100     		.2byte	0x1
 11197 0225 54       		.byte	0x54
 11198 0226 E2080000 		.4byte	.LVL167
 11199 022a 0C090000 		.4byte	.LVL170
 11200 022e 0400     		.2byte	0x4
 11201 0230 F3       		.byte	0xf3
 11202 0231 01       		.uleb128 0x1
 11203 0232 50       		.byte	0x50
 11204 0233 9F       		.byte	0x9f
 11205 0234 0C090000 		.4byte	.LVL170
 11206 0238 480B0000 		.4byte	.LFE265
 11207 023c 0100     		.2byte	0x1
 11208 023e 54       		.byte	0x54
 11209 023f 00000000 		.4byte	0
 11210 0243 00000000 		.4byte	0
 11211              	.LLST9:
 11212 0247 D8000000 		.4byte	.LVL48
 11213 024b 22010000 		.4byte	.LVL52
 11214 024f 0100     		.2byte	0x1
 11215 0251 55       		.byte	0x55
 11216 0252 B6010000 		.4byte	.LVL64
 11217 0256 10020000 		.4byte	.LVL71
 11218 025a 0100     		.2byte	0x1
 11219 025c 55       		.byte	0x55
 11220 025d 8C020000 		.4byte	.LVL78
 11221 0261 D8020000 		.4byte	.LVL83
 11222 0265 0100     		.2byte	0x1
 11223 0267 55       		.byte	0x55
 11224 0268 D8020000 		.4byte	.LVL83
 11225 026c DB020000 		.4byte	.LVL84-1
 11226 0270 0100     		.2byte	0x1
 11227 0272 51       		.byte	0x51
 11228 0273 1C030000 		.4byte	.LVL85
 11229 0277 A0030000 		.4byte	.LVL91
 11230 027b 0100     		.2byte	0x1
 11231 027d 55       		.byte	0x55
 11232 027e CA040000 		.4byte	.LVL103
 11233 0282 0A050000 		.4byte	.LVL107
 11234 0286 0100     		.2byte	0x1
 11235 0288 55       		.byte	0x55
 11236 0289 1A050000 		.4byte	.LVL108
 11237 028d 64050000 		.4byte	.LVL114
 11238 0291 0100     		.2byte	0x1
 11239 0293 55       		.byte	0x55
 11240 0294 90060000 		.4byte	.LVL129
 11241 0298 C2060000 		.4byte	.LVL131
 11242 029c 0100     		.2byte	0x1
 11243 029e 5A       		.byte	0x5a
 11244 029f C2060000 		.4byte	.LVL131
ARM GAS  C:\Users\jo\AppData\Local\Temp\ccfChKJS.s 			page 200


 11245 02a3 F0060000 		.4byte	.LVL133
 11246 02a7 0100     		.2byte	0x1
 11247 02a9 55       		.byte	0x55
 11248 02aa F0060000 		.4byte	.LVL133
 11249 02ae 3A070000 		.4byte	.LVL138
 11250 02b2 0100     		.2byte	0x1
 11251 02b4 5A       		.byte	0x5a
 11252 02b5 78080000 		.4byte	.LVL156
 11253 02b9 98080000 		.4byte	.LVL158
 11254 02bd 0100     		.2byte	0x1
 11255 02bf 55       		.byte	0x55
 11256 02c0 DA080000 		.4byte	.LVL165
 11257 02c4 0C090000 		.4byte	.LVL170
 11258 02c8 0100     		.2byte	0x1
 11259 02ca 55       		.byte	0x55
 11260 02cb 1E0A0000 		.4byte	.LVL188
 11261 02cf 200A0000 		.4byte	.LVL189
 11262 02d3 0100     		.2byte	0x1
 11263 02d5 5A       		.byte	0x5a
 11264 02d6 200A0000 		.4byte	.LVL189
 11265 02da 280A0000 		.4byte	.LVL190
 11266 02de 0100     		.2byte	0x1
 11267 02e0 55       		.byte	0x55
 11268 02e1 420A0000 		.4byte	.LVL193
 11269 02e5 BC0A0000 		.4byte	.LVL199
 11270 02e9 0100     		.2byte	0x1
 11271 02eb 55       		.byte	0x55
 11272 02ec F20A0000 		.4byte	.LVL205
 11273 02f0 480B0000 		.4byte	.LFE265
 11274 02f4 0100     		.2byte	0x1
 11275 02f6 55       		.byte	0x55
 11276 02f7 00000000 		.4byte	0
 11277 02fb 00000000 		.4byte	0
 11278              	.LLST10:
 11279 02ff 8C020000 		.4byte	.LVL78
 11280 0303 A4020000 		.4byte	.LVL79
 11281 0307 0100     		.2byte	0x1
 11282 0309 56       		.byte	0x56
 11283 030a AA020000 		.4byte	.LVL80
 11284 030e D8020000 		.4byte	.LVL83
 11285 0312 0100     		.2byte	0x1
 11286 0314 56       		.byte	0x56
 11287 0315 BE060000 		.4byte	.LVL130
 11288 0319 F0060000 		.4byte	.LVL133
 11289 031d 0100     		.2byte	0x1
 11290 031f 5A       		.byte	0x5a
 11291 0320 78080000 		.4byte	.LVL156
 11292 0324 98080000 		.4byte	.LVL158
 11293 0328 0100     		.2byte	0x1
 11294 032a 56       		.byte	0x56
 11295 032b DA080000 		.4byte	.LVL165
 11296 032f 0C090000 		.4byte	.LVL170
 11297 0333 0100     		.2byte	0x1
 11298 0335 56       		.byte	0x56
 11299 0336 F20A0000 		.4byte	.LVL205
 11300 033a F80A0000 		.4byte	.LVL206
 11301 033e 0100     		.2byte	0x1
ARM GAS  C:\Users\jo\AppData\Local\Temp\ccfChKJS.s 			page 201


 11302 0340 56       		.byte	0x56
 11303 0341 00000000 		.4byte	0
 11304 0345 00000000 		.4byte	0
 11305              	.LLST11:
 11306 0349 C8020000 		.4byte	.LVL81
 11307 034d DB020000 		.4byte	.LVL84-1
 11308 0351 0100     		.2byte	0x1
 11309 0353 50       		.byte	0x50
 11310 0354 A0070000 		.4byte	.LVL142
 11311 0358 02080000 		.4byte	.LVL148
 11312 035c 0100     		.2byte	0x1
 11313 035e 55       		.byte	0x55
 11314 035f 0E080000 		.4byte	.LVL149
 11315 0363 64080000 		.4byte	.LVL155
 11316 0367 0100     		.2byte	0x1
 11317 0369 55       		.byte	0x55
 11318 036a 88080000 		.4byte	.LVL157
 11319 036e 98080000 		.4byte	.LVL158
 11320 0372 0100     		.2byte	0x1
 11321 0374 50       		.byte	0x50
 11322 0375 E0080000 		.4byte	.LVL166
 11323 0379 02090000 		.4byte	.LVL168
 11324 037d 0100     		.2byte	0x1
 11325 037f 50       		.byte	0x50
 11326 0380 02090000 		.4byte	.LVL168
 11327 0384 0C090000 		.4byte	.LVL170
 11328 0388 0100     		.2byte	0x1
 11329 038a 54       		.byte	0x54
 11330 038b F20A0000 		.4byte	.LVL205
 11331 038f F80A0000 		.4byte	.LVL206
 11332 0393 0100     		.2byte	0x1
 11333 0395 50       		.byte	0x50
 11334 0396 00000000 		.4byte	0
 11335 039a 00000000 		.4byte	0
 11336              	.LLST12:
 11337 039e 6A050000 		.4byte	.LVL115
 11338 03a2 A2050000 		.4byte	.LVL119
 11339 03a6 0100     		.2byte	0x1
 11340 03a8 55       		.byte	0x55
 11341 03a9 A6050000 		.4byte	.LVL120
 11342 03ad C8050000 		.4byte	.LVL122
 11343 03b1 0100     		.2byte	0x1
 11344 03b3 55       		.byte	0x55
 11345 03b4 98080000 		.4byte	.LVL158
 11346 03b8 DA080000 		.4byte	.LVL165
 11347 03bc 0100     		.2byte	0x1
 11348 03be 55       		.byte	0x55
 11349 03bf 3C090000 		.4byte	.LVL171
 11350 03c3 76090000 		.4byte	.LVL177
 11351 03c7 0100     		.2byte	0x1
 11352 03c9 55       		.byte	0x55
 11353 03ca 280A0000 		.4byte	.LVL190
 11354 03ce 420A0000 		.4byte	.LVL193
 11355 03d2 0100     		.2byte	0x1
 11356 03d4 55       		.byte	0x55
 11357 03d5 00000000 		.4byte	0
 11358 03d9 00000000 		.4byte	0
ARM GAS  C:\Users\jo\AppData\Local\Temp\ccfChKJS.s 			page 202


 11359              	.LLST13:
 11360 03dd 6A050000 		.4byte	.LVL115
 11361 03e1 70050000 		.4byte	.LVL116
 11362 03e5 0100     		.2byte	0x1
 11363 03e7 5A       		.byte	0x5a
 11364 03e8 70050000 		.4byte	.LVL116
 11365 03ec 9C050000 		.4byte	.LVL118
 11366 03f0 0100     		.2byte	0x1
 11367 03f2 56       		.byte	0x56
 11368 03f3 9C050000 		.4byte	.LVL118
 11369 03f7 E0050000 		.4byte	.LVL123
 11370 03fb 0100     		.2byte	0x1
 11371 03fd 5A       		.byte	0x5a
 11372 03fe 98080000 		.4byte	.LVL158
 11373 0402 DA080000 		.4byte	.LVL165
 11374 0406 0100     		.2byte	0x1
 11375 0408 56       		.byte	0x56
 11376 0409 3C090000 		.4byte	.LVL171
 11377 040d 5C090000 		.4byte	.LVL174
 11378 0411 0100     		.2byte	0x1
 11379 0413 56       		.byte	0x56
 11380 0414 5C090000 		.4byte	.LVL174
 11381 0418 76090000 		.4byte	.LVL177
 11382 041c 0100     		.2byte	0x1
 11383 041e 5A       		.byte	0x5a
 11384 041f 280A0000 		.4byte	.LVL190
 11385 0423 420A0000 		.4byte	.LVL193
 11386 0427 0100     		.2byte	0x1
 11387 0429 56       		.byte	0x56
 11388 042a 00000000 		.4byte	0
 11389 042e 00000000 		.4byte	0
 11390              	.LLST14:
 11391 0432 38010000 		.4byte	.LVL54
 11392 0436 42010000 		.4byte	.LVL55
 11393 043a 0800     		.2byte	0x8
 11394 043c 71       		.byte	0x71
 11395 043d 00       		.sleb128 0
 11396 043e 94       		.byte	0x94
 11397 043f 02       		.byte	0x2
 11398 0440 73       		.byte	0x73
 11399 0441 00       		.sleb128 0
 11400 0442 1C       		.byte	0x1c
 11401 0443 9F       		.byte	0x9f
 11402 0444 4C010000 		.4byte	.LVL57
 11403 0448 58010000 		.4byte	.LVL59
 11404 044c 0100     		.2byte	0x1
 11405 044e 52       		.byte	0x52
 11406 044f 58010000 		.4byte	.LVL59
 11407 0453 5E010000 		.4byte	.LVL60
 11408 0457 0800     		.2byte	0x8
 11409 0459 72       		.byte	0x72
 11410 045a 00       		.sleb128 0
 11411 045b 71       		.byte	0x71
 11412 045c 00       		.sleb128 0
 11413 045d 32       		.byte	0x32
 11414 045e 26       		.byte	0x26
 11415 045f 1C       		.byte	0x1c
ARM GAS  C:\Users\jo\AppData\Local\Temp\ccfChKJS.s 			page 203


 11416 0460 9F       		.byte	0x9f
 11417 0461 5E010000 		.4byte	.LVL60
 11418 0465 62010000 		.4byte	.LVL61
 11419 0469 0B00     		.2byte	0xb
 11420 046b 72       		.byte	0x72
 11421 046c 00       		.sleb128 0
 11422 046d 74       		.byte	0x74
 11423 046e C200     		.sleb128 66
 11424 0470 94       		.byte	0x94
 11425 0471 02       		.byte	0x2
 11426 0472 32       		.byte	0x32
 11427 0473 26       		.byte	0x26
 11428 0474 1C       		.byte	0x1c
 11429 0475 9F       		.byte	0x9f
 11430 0476 00000000 		.4byte	0
 11431 047a 00000000 		.4byte	0
 11432              	.LLST15:
 11433 047e 60000000 		.4byte	.LVL44
 11434 0482 96000000 		.4byte	.LVL45
 11435 0486 0A00     		.2byte	0xa
 11436 0488 75       		.byte	0x75
 11437 0489 00       		.sleb128 0
 11438 048a 0A       		.byte	0xa
 11439 048b FFFF     		.2byte	0xffff
 11440 048d 1A       		.byte	0x1a
 11441 048e 70       		.byte	0x70
 11442 048f 00       		.sleb128 0
 11443 0490 22       		.byte	0x22
 11444 0491 9F       		.byte	0x9f
 11445 0492 2A020000 		.4byte	.LVL75
 11446 0496 6A020000 		.4byte	.LVL76
 11447 049a 0A00     		.2byte	0xa
 11448 049c 75       		.byte	0x75
 11449 049d 00       		.sleb128 0
 11450 049e 0A       		.byte	0xa
 11451 049f FFFF     		.2byte	0xffff
 11452 04a1 1A       		.byte	0x1a
 11453 04a2 70       		.byte	0x70
 11454 04a3 00       		.sleb128 0
 11455 04a4 22       		.byte	0x22
 11456 04a5 9F       		.byte	0x9f
 11457 04a6 E6030000 		.4byte	.LVL95
 11458 04aa FE030000 		.4byte	.LVL96
 11459 04ae 0A00     		.2byte	0xa
 11460 04b0 75       		.byte	0x75
 11461 04b1 00       		.sleb128 0
 11462 04b2 0A       		.byte	0xa
 11463 04b3 FFFF     		.2byte	0xffff
 11464 04b5 1A       		.byte	0x1a
 11465 04b6 70       		.byte	0x70
 11466 04b7 00       		.sleb128 0
 11467 04b8 22       		.byte	0x22
 11468 04b9 9F       		.byte	0x9f
 11469 04ba 0E040000 		.4byte	.LVL97
 11470 04be 30040000 		.4byte	.LVL98
 11471 04c2 0A00     		.2byte	0xa
 11472 04c4 75       		.byte	0x75
ARM GAS  C:\Users\jo\AppData\Local\Temp\ccfChKJS.s 			page 204


 11473 04c5 00       		.sleb128 0
 11474 04c6 0A       		.byte	0xa
 11475 04c7 FFFF     		.2byte	0xffff
 11476 04c9 1A       		.byte	0x1a
 11477 04ca 70       		.byte	0x70
 11478 04cb 00       		.sleb128 0
 11479 04cc 22       		.byte	0x22
 11480 04cd 9F       		.byte	0x9f
 11481 04ce 00000000 		.4byte	0
 11482 04d2 00000000 		.4byte	0
 11483              	.LLST16:
 11484 04d6 98050000 		.4byte	.LVL117
 11485 04da B7050000 		.4byte	.LVL121-1
 11486 04de 0100     		.2byte	0x1
 11487 04e0 52       		.byte	0x52
 11488 04e1 00000000 		.4byte	0
 11489 04e5 00000000 		.4byte	0
 11490              	.LLST17:
 11491 04e9 00000000 		.4byte	.LVL39
 11492 04ed 20000000 		.4byte	.LVL41
 11493 04f1 0200     		.2byte	0x2
 11494 04f3 30       		.byte	0x30
 11495 04f4 9F       		.byte	0x9f
 11496 04f5 54000000 		.4byte	.LVL43
 11497 04f9 96000000 		.4byte	.LVL45
 11498 04fd 0200     		.2byte	0x2
 11499 04ff 30       		.byte	0x30
 11500 0500 9F       		.byte	0x9f
 11501 0501 10020000 		.4byte	.LVL71
 11502 0505 6A020000 		.4byte	.LVL76
 11503 0509 0200     		.2byte	0x2
 11504 050b 30       		.byte	0x30
 11505 050c 9F       		.byte	0x9f
 11506 050d E6030000 		.4byte	.LVL95
 11507 0511 64050000 		.4byte	.LVL114
 11508 0515 0200     		.2byte	0x2
 11509 0517 30       		.byte	0x30
 11510 0518 9F       		.byte	0x9f
 11511 0519 E0050000 		.4byte	.LVL123
 11512 051d F0050000 		.4byte	.LVL124
 11513 0521 0200     		.2byte	0x2
 11514 0523 30       		.byte	0x30
 11515 0524 9F       		.byte	0x9f
 11516 0525 F0050000 		.4byte	.LVL124
 11517 0529 48060000 		.4byte	.LVL125
 11518 052d 0200     		.2byte	0x2
 11519 052f 31       		.byte	0x31
 11520 0530 9F       		.byte	0x9f
 11521 0531 48060000 		.4byte	.LVL125
 11522 0535 56060000 		.4byte	.LVL126
 11523 0539 0200     		.2byte	0x2
 11524 053b 30       		.byte	0x30
 11525 053c 9F       		.byte	0x9f
 11526 053d E40A0000 		.4byte	.LVL203
 11527 0541 F20A0000 		.4byte	.LVL205
 11528 0545 0200     		.2byte	0x2
 11529 0547 31       		.byte	0x31
ARM GAS  C:\Users\jo\AppData\Local\Temp\ccfChKJS.s 			page 205


 11530 0548 9F       		.byte	0x9f
 11531 0549 00000000 		.4byte	0
 11532 054d 00000000 		.4byte	0
 11533              	.LLST18:
 11534 0551 E0010000 		.4byte	.LVL66
 11535 0555 E8010000 		.4byte	.LVL68
 11536 0559 0600     		.2byte	0x6
 11537 055b 03       		.byte	0x3
 11538 055c 68000000 		.4byte	.LC3
 11539 0560 9F       		.byte	0x9f
 11540 0561 00000000 		.4byte	0
 11541 0565 00000000 		.4byte	0
 11542              	.LLST19:
 11543 0569 08020000 		.4byte	.LVL69
 11544 056d 10020000 		.4byte	.LVL71
 11545 0571 0600     		.2byte	0x6
 11546 0573 03       		.byte	0x3
 11547 0574 90000000 		.4byte	.LC4
 11548 0578 9F       		.byte	0x9f
 11549 0579 00000000 		.4byte	0
 11550 057d 00000000 		.4byte	0
 11551              	.LLST20:
 11552 0581 22020000 		.4byte	.LVL73
 11553 0585 2A020000 		.4byte	.LVL75
 11554 0589 0600     		.2byte	0x6
 11555 058b 03       		.byte	0x3
 11556 058c 28000000 		.4byte	.LC1
 11557 0590 9F       		.byte	0x9f
 11558 0591 00000000 		.4byte	0
 11559 0595 00000000 		.4byte	0
 11560              	.LLST21:
 11561 0599 DA030000 		.4byte	.LVL93
 11562 059d E6030000 		.4byte	.LVL95
 11563 05a1 0600     		.2byte	0x6
 11564 05a3 03       		.byte	0x3
 11565 05a4 F4000000 		.4byte	.LC9
 11566 05a8 9F       		.byte	0x9f
 11567 05a9 00000000 		.4byte	0
 11568 05ad 00000000 		.4byte	0
 11569              	.LLST22:
 11570 05b1 8A040000 		.4byte	.LVL99
 11571 05b5 92040000 		.4byte	.LVL100
 11572 05b9 0100     		.2byte	0x1
 11573 05bb 53       		.byte	0x53
 11574 05bc 00000000 		.4byte	0
 11575 05c0 00000000 		.4byte	0
 11576              	.LLST23:
 11577 05c4 2A050000 		.4byte	.LVL109
 11578 05c8 30050000 		.4byte	.LVL110
 11579 05cc 0600     		.2byte	0x6
 11580 05ce 03       		.byte	0x3
 11581 05cf 90000000 		.4byte	.LC4
 11582 05d3 9F       		.byte	0x9f
 11583 05d4 00000000 		.4byte	0
 11584 05d8 00000000 		.4byte	0
 11585              	.LLST24:
 11586 05dc 5C050000 		.4byte	.LVL112
ARM GAS  C:\Users\jo\AppData\Local\Temp\ccfChKJS.s 			page 206


 11587 05e0 64050000 		.4byte	.LVL114
 11588 05e4 0600     		.2byte	0x6
 11589 05e6 03       		.byte	0x3
 11590 05e7 68000000 		.4byte	.LC3
 11591 05eb 9F       		.byte	0x9f
 11592 05ec 00000000 		.4byte	0
 11593 05f0 00000000 		.4byte	0
 11594              	.LLST25:
 11595 05f4 3A070000 		.4byte	.LVL138
 11596 05f8 41070000 		.4byte	.LVL139-1
 11597 05fc 0100     		.2byte	0x1
 11598 05fe 50       		.byte	0x50
 11599 05ff 00000000 		.4byte	0
 11600 0603 00000000 		.4byte	0
 11601              	.LLST26:
 11602 0607 58080000 		.4byte	.LVL152
 11603 060b 60080000 		.4byte	.LVL154
 11604 060f 0600     		.2byte	0x6
 11605 0611 03       		.byte	0x3
 11606 0612 88010000 		.4byte	.LC12
 11607 0616 9F       		.byte	0x9f
 11608 0617 00000000 		.4byte	0
 11609 061b 00000000 		.4byte	0
 11610              	.LLST27:
 11611 061f B8080000 		.4byte	.LVL160
 11612 0623 C0080000 		.4byte	.LVL162
 11613 0627 0600     		.2byte	0x6
 11614 0629 03       		.byte	0x3
 11615 062a E0000000 		.4byte	.LC8
 11616 062e 9F       		.byte	0x9f
 11617 062f 00000000 		.4byte	0
 11618 0633 00000000 		.4byte	0
 11619              	.LLST28:
 11620 0637 D2080000 		.4byte	.LVL163
 11621 063b DA080000 		.4byte	.LVL165
 11622 063f 0600     		.2byte	0x6
 11623 0641 03       		.byte	0x3
 11624 0642 C0000000 		.4byte	.LC6
 11625 0646 9F       		.byte	0x9f
 11626 0647 00000000 		.4byte	0
 11627 064b 00000000 		.4byte	0
 11628              	.LLST29:
 11629 064f 4E090000 		.4byte	.LVL172
 11630 0653 5C090000 		.4byte	.LVL174
 11631 0657 0600     		.2byte	0x6
 11632 0659 03       		.byte	0x3
 11633 065a D0000000 		.4byte	.LC7
 11634 065e 9F       		.byte	0x9f
 11635 065f 00000000 		.4byte	0
 11636 0663 00000000 		.4byte	0
 11637              	.LLST30:
 11638 0667 6E090000 		.4byte	.LVL175
 11639 066b 76090000 		.4byte	.LVL177
 11640 066f 0600     		.2byte	0x6
 11641 0671 03       		.byte	0x3
 11642 0672 E0000000 		.4byte	.LC8
 11643 0676 9F       		.byte	0x9f
ARM GAS  C:\Users\jo\AppData\Local\Temp\ccfChKJS.s 			page 207


 11644 0677 00000000 		.4byte	0
 11645 067b 00000000 		.4byte	0
 11646              	.LLST31:
 11647 067f E6090000 		.4byte	.LVL182
 11648 0683 EE090000 		.4byte	.LVL184
 11649 0687 0600     		.2byte	0x6
 11650 0689 03       		.byte	0x3
 11651 068a F4000000 		.4byte	.LC9
 11652 068e 9F       		.byte	0x9f
 11653 068f 00000000 		.4byte	0
 11654 0693 00000000 		.4byte	0
 11655              	.LLST32:
 11656 0697 000A0000 		.4byte	.LVL185
 11657 069b 0E0A0000 		.4byte	.LVL187
 11658 069f 0600     		.2byte	0x6
 11659 06a1 03       		.byte	0x3
 11660 06a2 68010000 		.4byte	.LC11
 11661 06a6 9F       		.byte	0x9f
 11662 06a7 00000000 		.4byte	0
 11663 06ab 00000000 		.4byte	0
 11664              	.LLST33:
 11665 06af 3A0A0000 		.4byte	.LVL191
 11666 06b3 420A0000 		.4byte	.LVL193
 11667 06b7 0600     		.2byte	0x6
 11668 06b9 03       		.byte	0x3
 11669 06ba B0000000 		.4byte	.LC5
 11670 06be 9F       		.byte	0x9f
 11671 06bf 00000000 		.4byte	0
 11672 06c3 00000000 		.4byte	0
 11673              	.LLST34:
 11674 06c7 AC0A0000 		.4byte	.LVL197
 11675 06cb BC0A0000 		.4byte	.LVL199
 11676 06cf 0600     		.2byte	0x6
 11677 06d1 03       		.byte	0x3
 11678 06d2 2C010000 		.4byte	.LC10
 11679 06d6 9F       		.byte	0x9f
 11680 06d7 00000000 		.4byte	0
 11681 06db 00000000 		.4byte	0
 11682              	.LLST35:
 11683 06df 00000000 		.4byte	.LVL209
 11684 06e3 35000000 		.4byte	.LVL211-1
 11685 06e7 0100     		.2byte	0x1
 11686 06e9 50       		.byte	0x50
 11687 06ea 35000000 		.4byte	.LVL211-1
 11688 06ee 54000000 		.4byte	.LVL212
 11689 06f2 0100     		.2byte	0x1
 11690 06f4 55       		.byte	0x55
 11691 06f5 54000000 		.4byte	.LVL212
 11692 06f9 5D000000 		.4byte	.LVL213-1
 11693 06fd 0100     		.2byte	0x1
 11694 06ff 50       		.byte	0x50
 11695 0700 5D000000 		.4byte	.LVL213-1
 11696 0704 5E000000 		.4byte	.LVL213
 11697 0708 0400     		.2byte	0x4
 11698 070a F3       		.byte	0xf3
 11699 070b 01       		.uleb128 0x1
 11700 070c 50       		.byte	0x50
ARM GAS  C:\Users\jo\AppData\Local\Temp\ccfChKJS.s 			page 208


 11701 070d 9F       		.byte	0x9f
 11702 070e 5E000000 		.4byte	.LVL213
 11703 0712 24020000 		.4byte	.LVL235
 11704 0716 0100     		.2byte	0x1
 11705 0718 55       		.byte	0x55
 11706 0719 24020000 		.4byte	.LVL235
 11707 071d 46020000 		.4byte	.LVL237
 11708 0721 0400     		.2byte	0x4
 11709 0723 F3       		.byte	0xf3
 11710 0724 01       		.uleb128 0x1
 11711 0725 50       		.byte	0x50
 11712 0726 9F       		.byte	0x9f
 11713 0727 46020000 		.4byte	.LVL237
 11714 072b 60030000 		.4byte	.LVL251
 11715 072f 0100     		.2byte	0x1
 11716 0731 55       		.byte	0x55
 11717 0732 60030000 		.4byte	.LVL251
 11718 0736 E2030000 		.4byte	.LVL262
 11719 073a 0400     		.2byte	0x4
 11720 073c F3       		.byte	0xf3
 11721 073d 01       		.uleb128 0x1
 11722 073e 50       		.byte	0x50
 11723 073f 9F       		.byte	0x9f
 11724 0740 E2030000 		.4byte	.LVL262
 11725 0744 10050000 		.4byte	.LVL277
 11726 0748 0100     		.2byte	0x1
 11727 074a 55       		.byte	0x55
 11728 074b 10050000 		.4byte	.LVL277
 11729 074f DC060000 		.4byte	.LVL289
 11730 0753 0400     		.2byte	0x4
 11731 0755 F3       		.byte	0xf3
 11732 0756 01       		.uleb128 0x1
 11733 0757 50       		.byte	0x50
 11734 0758 9F       		.byte	0x9f
 11735 0759 DC060000 		.4byte	.LVL289
 11736 075d 2E070000 		.4byte	.LVL292
 11737 0761 0100     		.2byte	0x1
 11738 0763 55       		.byte	0x55
 11739 0764 2E070000 		.4byte	.LVL292
 11740 0768 B4090000 		.4byte	.LVL326
 11741 076c 0400     		.2byte	0x4
 11742 076e F3       		.byte	0xf3
 11743 076f 01       		.uleb128 0x1
 11744 0770 50       		.byte	0x50
 11745 0771 9F       		.byte	0x9f
 11746 0772 B4090000 		.4byte	.LVL326
 11747 0776 C2090000 		.4byte	.LVL327
 11748 077a 0100     		.2byte	0x1
 11749 077c 55       		.byte	0x55
 11750 077d C2090000 		.4byte	.LVL327
 11751 0781 340A0000 		.4byte	.LVL337
 11752 0785 0400     		.2byte	0x4
 11753 0787 F3       		.byte	0xf3
 11754 0788 01       		.uleb128 0x1
 11755 0789 50       		.byte	0x50
 11756 078a 9F       		.byte	0x9f
 11757 078b 340A0000 		.4byte	.LVL337
ARM GAS  C:\Users\jo\AppData\Local\Temp\ccfChKJS.s 			page 209


 11758 078f DC0A0000 		.4byte	.LVL354
 11759 0793 0100     		.2byte	0x1
 11760 0795 55       		.byte	0x55
 11761 0796 DC0A0000 		.4byte	.LVL354
 11762 079a 280B0000 		.4byte	.LFE260
 11763 079e 0400     		.2byte	0x4
 11764 07a0 F3       		.byte	0xf3
 11765 07a1 01       		.uleb128 0x1
 11766 07a2 50       		.byte	0x50
 11767 07a3 9F       		.byte	0x9f
 11768 07a4 00000000 		.4byte	0
 11769 07a8 00000000 		.4byte	0
 11770              	.LLST36:
 11771 07ac 00000000 		.4byte	.LVL209
 11772 07b0 2E000000 		.4byte	.LVL210
 11773 07b4 0100     		.2byte	0x1
 11774 07b6 51       		.byte	0x51
 11775 07b7 2E000000 		.4byte	.LVL210
 11776 07bb 54000000 		.4byte	.LVL212
 11777 07bf 0100     		.2byte	0x1
 11778 07c1 57       		.byte	0x57
 11779 07c2 54000000 		.4byte	.LVL212
 11780 07c6 5E000000 		.4byte	.LVL213
 11781 07ca 0400     		.2byte	0x4
 11782 07cc F3       		.byte	0xf3
 11783 07cd 01       		.uleb128 0x1
 11784 07ce 51       		.byte	0x51
 11785 07cf 9F       		.byte	0x9f
 11786 07d0 5E000000 		.4byte	.LVL213
 11787 07d4 C4000000 		.4byte	.LVL219
 11788 07d8 0100     		.2byte	0x1
 11789 07da 57       		.byte	0x57
 11790 07db C4000000 		.4byte	.LVL219
 11791 07df 280B0000 		.4byte	.LFE260
 11792 07e3 0400     		.2byte	0x4
 11793 07e5 F3       		.byte	0xf3
 11794 07e6 01       		.uleb128 0x1
 11795 07e7 51       		.byte	0x51
 11796 07e8 9F       		.byte	0x9f
 11797 07e9 00000000 		.4byte	0
 11798 07ed 00000000 		.4byte	0
 11799              	.LLST37:
 11800 07f1 2A010000 		.4byte	.LVL226
 11801 07f5 54010000 		.4byte	.LVL229
 11802 07f9 0100     		.2byte	0x1
 11803 07fb 57       		.byte	0x57
 11804 07fc 54010000 		.4byte	.LVL229
 11805 0800 5E010000 		.4byte	.LVL230
 11806 0804 0100     		.2byte	0x1
 11807 0806 53       		.byte	0x53
 11808 0807 5E010000 		.4byte	.LVL230
 11809 080b 78020000 		.4byte	.LVL243
 11810 080f 0100     		.2byte	0x1
 11811 0811 57       		.byte	0x57
 11812 0812 7C020000 		.4byte	.LVL244
 11813 0816 58030000 		.4byte	.LVL249
 11814 081a 0100     		.2byte	0x1
ARM GAS  C:\Users\jo\AppData\Local\Temp\ccfChKJS.s 			page 210


 11815 081c 57       		.byte	0x57
 11816 081d 5C030000 		.4byte	.LVL250
 11817 0821 EA030000 		.4byte	.LVL263
 11818 0825 0100     		.2byte	0x1
 11819 0827 57       		.byte	0x57
 11820 0828 10050000 		.4byte	.LVL277
 11821 082c DC060000 		.4byte	.LVL289
 11822 0830 0100     		.2byte	0x1
 11823 0832 57       		.byte	0x57
 11824 0833 DC060000 		.4byte	.LVL289
 11825 0837 2E070000 		.4byte	.LVL292
 11826 083b 0200     		.2byte	0x2
 11827 083d 30       		.byte	0x30
 11828 083e 9F       		.byte	0x9f
 11829 083f 2E070000 		.4byte	.LVL292
 11830 0843 500A0000 		.4byte	.LVL339
 11831 0847 0100     		.2byte	0x1
 11832 0849 57       		.byte	0x57
 11833 084a 920A0000 		.4byte	.LVL346
 11834 084e 280B0000 		.4byte	.LFE260
 11835 0852 0100     		.2byte	0x1
 11836 0854 57       		.byte	0x57
 11837 0855 00000000 		.4byte	0
 11838 0859 00000000 		.4byte	0
 11839              	.LLST38:
 11840 085d 2A010000 		.4byte	.LVL226
 11841 0861 3E010000 		.4byte	.LVL227
 11842 0865 0200     		.2byte	0x2
 11843 0867 30       		.byte	0x30
 11844 0868 9F       		.byte	0x9f
 11845 0869 52010000 		.4byte	.LVL228
 11846 086d 5E010000 		.4byte	.LVL230
 11847 0871 0100     		.2byte	0x1
 11848 0873 57       		.byte	0x57
 11849 0874 E2030000 		.4byte	.LVL262
 11850 0878 02040000 		.4byte	.LVL264
 11851 087c 0200     		.2byte	0x2
 11852 087e 30       		.byte	0x30
 11853 087f 9F       		.byte	0x9f
 11854 0880 02040000 		.4byte	.LVL264
 11855 0884 0E040000 		.4byte	.LVL266
 11856 0888 0100     		.2byte	0x1
 11857 088a 59       		.byte	0x59
 11858 088b 0E040000 		.4byte	.LVL266
 11859 088f 10040000 		.4byte	.LVL267
 11860 0893 0100     		.2byte	0x1
 11861 0895 51       		.byte	0x51
 11862 0896 10040000 		.4byte	.LVL267
 11863 089a 10050000 		.4byte	.LVL277
 11864 089e 0100     		.2byte	0x1
 11865 08a0 59       		.byte	0x59
 11866 08a1 500A0000 		.4byte	.LVL339
 11867 08a5 920A0000 		.4byte	.LVL346
 11868 08a9 0100     		.2byte	0x1
 11869 08ab 59       		.byte	0x59
 11870 08ac 00000000 		.4byte	0
 11871 08b0 00000000 		.4byte	0
ARM GAS  C:\Users\jo\AppData\Local\Temp\ccfChKJS.s 			page 211


 11872              	.LLST39:
 11873 08b4 EA030000 		.4byte	.LVL263
 11874 08b8 02040000 		.4byte	.LVL264
 11875 08bc 0100     		.2byte	0x1
 11876 08be 57       		.byte	0x57
 11877 08bf 02040000 		.4byte	.LVL264
 11878 08c3 06040000 		.4byte	.LVL265
 11879 08c7 0100     		.2byte	0x1
 11880 08c9 59       		.byte	0x59
 11881 08ca 06040000 		.4byte	.LVL265
 11882 08ce 10040000 		.4byte	.LVL267
 11883 08d2 0100     		.2byte	0x1
 11884 08d4 53       		.byte	0x53
 11885 08d5 10040000 		.4byte	.LVL267
 11886 08d9 10050000 		.4byte	.LVL277
 11887 08dd 0100     		.2byte	0x1
 11888 08df 59       		.byte	0x59
 11889 08e0 500A0000 		.4byte	.LVL339
 11890 08e4 920A0000 		.4byte	.LVL346
 11891 08e8 0100     		.2byte	0x1
 11892 08ea 59       		.byte	0x59
 11893 08eb 00000000 		.4byte	0
 11894 08ef 00000000 		.4byte	0
 11895              	.LLST40:
 11896 08f3 AC000000 		.4byte	.LVL216
 11897 08f7 AE000000 		.4byte	.LVL217
 11898 08fb 0500     		.2byte	0x5
 11899 08fd 70       		.byte	0x70
 11900 08fe 00       		.sleb128 0
 11901 08ff 3C       		.byte	0x3c
 11902 0900 25       		.byte	0x25
 11903 0901 9F       		.byte	0x9f
 11904 0902 00000000 		.4byte	0
 11905 0906 00000000 		.4byte	0
 11906              	.LLST41:
 11907 090a 2E070000 		.4byte	.LVL292
 11908 090e 3E070000 		.4byte	.LVL293
 11909 0912 0200     		.2byte	0x2
 11910 0914 30       		.byte	0x30
 11911 0915 9F       		.byte	0x9f
 11912 0916 3E070000 		.4byte	.LVL293
 11913 091a 40070000 		.4byte	.LVL294
 11914 091e 0100     		.2byte	0x1
 11915 0920 50       		.byte	0x50
 11916 0921 84070000 		.4byte	.LVL297
 11917 0925 94070000 		.4byte	.LVL298
 11918 0929 0100     		.2byte	0x1
 11919 092b 50       		.byte	0x50
 11920 092c E6070000 		.4byte	.LVL303
 11921 0930 E8070000 		.4byte	.LVL304
 11922 0934 0100     		.2byte	0x1
 11923 0936 50       		.byte	0x50
 11924 0937 54080000 		.4byte	.LVL312
 11925 093b 56080000 		.4byte	.LVL313
 11926 093f 0100     		.2byte	0x1
 11927 0941 50       		.byte	0x50
 11928 0942 00000000 		.4byte	0
ARM GAS  C:\Users\jo\AppData\Local\Temp\ccfChKJS.s 			page 212


 11929 0946 00000000 		.4byte	0
 11930              	.LLST42:
 11931 094a 74010000 		.4byte	.LVL231
 11932 094e 7E010000 		.4byte	.LVL233
 11933 0952 0600     		.2byte	0x6
 11934 0954 03       		.byte	0x3
 11935 0955 B0010000 		.4byte	.LC13
 11936 0959 9F       		.byte	0x9f
 11937 095a 00000000 		.4byte	0
 11938 095e 00000000 		.4byte	0
 11939              	.LLST43:
 11940 0962 56020000 		.4byte	.LVL238
 11941 0966 5E020000 		.4byte	.LVL240
 11942 096a 0600     		.2byte	0x6
 11943 096c 03       		.byte	0x3
 11944 096d 04020000 		.4byte	.LC15
 11945 0971 9F       		.byte	0x9f
 11946 0972 00000000 		.4byte	0
 11947 0976 00000000 		.4byte	0
 11948              	.LLST44:
 11949 097a 6E020000 		.4byte	.LVL241
 11950 097e 78020000 		.4byte	.LVL243
 11951 0982 0600     		.2byte	0x6
 11952 0984 03       		.byte	0x3
 11953 0985 D8010000 		.4byte	.LC14
 11954 0989 9F       		.byte	0x9f
 11955 098a 00000000 		.4byte	0
 11956 098e 00000000 		.4byte	0
 11957              	.LLST45:
 11958 0992 FE020000 		.4byte	.LVL246
 11959 0996 04030000 		.4byte	.LVL247
 11960 099a 0600     		.2byte	0x6
 11961 099c 03       		.byte	0x3
 11962 099d 84020000 		.4byte	.LC18
 11963 09a1 9F       		.byte	0x9f
 11964 09a2 00000000 		.4byte	0
 11965 09a6 00000000 		.4byte	0
 11966              	.LLST46:
 11967 09aa 2C030000 		.4byte	.LVL248
 11968 09ae 58030000 		.4byte	.LVL249
 11969 09b2 0100     		.2byte	0x1
 11970 09b4 57       		.byte	0x57
 11971 09b5 B4090000 		.4byte	.LVL326
 11972 09b9 C2090000 		.4byte	.LVL327
 11973 09bd 0100     		.2byte	0x1
 11974 09bf 57       		.byte	0x57
 11975 09c0 340A0000 		.4byte	.LVL337
 11976 09c4 500A0000 		.4byte	.LVL339
 11977 09c8 0100     		.2byte	0x1
 11978 09ca 57       		.byte	0x57
 11979 09cb AC0A0000 		.4byte	.LVL349
 11980 09cf C00A0000 		.4byte	.LVL351
 11981 09d3 0100     		.2byte	0x1
 11982 09d5 57       		.byte	0x57
 11983 09d6 00000000 		.4byte	0
 11984 09da 00000000 		.4byte	0
 11985              	.LLST47:
ARM GAS  C:\Users\jo\AppData\Local\Temp\ccfChKJS.s 			page 213


 11986 09de 64030000 		.4byte	.LVL252
 11987 09e2 68030000 		.4byte	.LVL253
 11988 09e6 0500     		.2byte	0x5
 11989 09e8 03       		.byte	0x3
 11990 09e9 00000000 		.4byte	tcp_input_pcb
 11991 09ed 68030000 		.4byte	.LVL253
 11992 09f1 E2030000 		.4byte	.LVL262
 11993 09f5 0100     		.2byte	0x1
 11994 09f7 57       		.byte	0x57
 11995 09f8 10050000 		.4byte	.LVL277
 11996 09fc DC060000 		.4byte	.LVL289
 11997 0a00 0100     		.2byte	0x1
 11998 0a02 57       		.byte	0x57
 11999 0a03 2E070000 		.4byte	.LVL292
 12000 0a07 B4090000 		.4byte	.LVL326
 12001 0a0b 0100     		.2byte	0x1
 12002 0a0d 57       		.byte	0x57
 12003 0a0e C2090000 		.4byte	.LVL327
 12004 0a12 340A0000 		.4byte	.LVL337
 12005 0a16 0100     		.2byte	0x1
 12006 0a18 57       		.byte	0x57
 12007 0a19 DC0A0000 		.4byte	.LVL354
 12008 0a1d 280B0000 		.4byte	.LFE260
 12009 0a21 0100     		.2byte	0x1
 12010 0a23 57       		.byte	0x57
 12011 0a24 00000000 		.4byte	0
 12012 0a28 00000000 		.4byte	0
 12013              	.LLST48:
 12014 0a2c 16090000 		.4byte	.LVL319
 12015 0a30 23090000 		.4byte	.LVL320-1
 12016 0a34 0100     		.2byte	0x1
 12017 0a36 50       		.byte	0x50
 12018 0a37 00000000 		.4byte	0
 12019 0a3b 00000000 		.4byte	0
 12020              	.LLST49:
 12021 0a3f 64030000 		.4byte	.LVL252
 12022 0a43 84030000 		.4byte	.LVL254
 12023 0a47 0200     		.2byte	0x2
 12024 0a49 30       		.byte	0x30
 12025 0a4a 9F       		.byte	0x9f
 12026 0a4b AA030000 		.4byte	.LVL258
 12027 0a4f C4030000 		.4byte	.LVL260
 12028 0a53 0200     		.2byte	0x2
 12029 0a55 30       		.byte	0x30
 12030 0a56 9F       		.byte	0x9f
 12031 0a57 10050000 		.4byte	.LVL277
 12032 0a5b DC060000 		.4byte	.LVL289
 12033 0a5f 0200     		.2byte	0x2
 12034 0a61 30       		.byte	0x30
 12035 0a62 9F       		.byte	0x9f
 12036 0a63 B6070000 		.4byte	.LVL300
 12037 0a67 C2070000 		.4byte	.LVL301
 12038 0a6b 0200     		.2byte	0x2
 12039 0a6d 30       		.byte	0x30
 12040 0a6e 9F       		.byte	0x9f
 12041 0a6f F8070000 		.4byte	.LVL307
 12042 0a73 34080000 		.4byte	.LVL311
ARM GAS  C:\Users\jo\AppData\Local\Temp\ccfChKJS.s 			page 214


 12043 0a77 0200     		.2byte	0x2
 12044 0a79 30       		.byte	0x30
 12045 0a7a 9F       		.byte	0x9f
 12046 0a7b 8C080000 		.4byte	.LVL314
 12047 0a7f B4090000 		.4byte	.LVL326
 12048 0a83 0200     		.2byte	0x2
 12049 0a85 30       		.byte	0x30
 12050 0a86 9F       		.byte	0x9f
 12051 0a87 C2090000 		.4byte	.LVL327
 12052 0a8b E2090000 		.4byte	.LVL330
 12053 0a8f 0200     		.2byte	0x2
 12054 0a91 31       		.byte	0x31
 12055 0a92 9F       		.byte	0x9f
 12056 0a93 E2090000 		.4byte	.LVL330
 12057 0a97 340A0000 		.4byte	.LVL337
 12058 0a9b 0200     		.2byte	0x2
 12059 0a9d 30       		.byte	0x30
 12060 0a9e 9F       		.byte	0x9f
 12061 0a9f DC0A0000 		.4byte	.LVL354
 12062 0aa3 280B0000 		.4byte	.LFE260
 12063 0aa7 0200     		.2byte	0x2
 12064 0aa9 30       		.byte	0x30
 12065 0aaa 9F       		.byte	0x9f
 12066 0aab 00000000 		.4byte	0
 12067 0aaf 00000000 		.4byte	0
 12068              	.LLST50:
 12069 0ab3 64030000 		.4byte	.LVL252
 12070 0ab7 84030000 		.4byte	.LVL254
 12071 0abb 0200     		.2byte	0x2
 12072 0abd 30       		.byte	0x30
 12073 0abe 9F       		.byte	0x9f
 12074 0abf AA030000 		.4byte	.LVL258
 12075 0ac3 BA030000 		.4byte	.LVL259
 12076 0ac7 0200     		.2byte	0x2
 12077 0ac9 30       		.byte	0x30
 12078 0aca 9F       		.byte	0x9f
 12079 0acb 10050000 		.4byte	.LVL277
 12080 0acf 62060000 		.4byte	.LVL286
 12081 0ad3 0200     		.2byte	0x2
 12082 0ad5 30       		.byte	0x30
 12083 0ad6 9F       		.byte	0x9f
 12084 0ad7 70060000 		.4byte	.LVL287
 12085 0adb DC060000 		.4byte	.LVL289
 12086 0adf 0200     		.2byte	0x2
 12087 0ae1 30       		.byte	0x30
 12088 0ae2 9F       		.byte	0x9f
 12089 0ae3 B6070000 		.4byte	.LVL300
 12090 0ae7 D8070000 		.4byte	.LVL302
 12091 0aeb 0200     		.2byte	0x2
 12092 0aed 30       		.byte	0x30
 12093 0aee 9F       		.byte	0x9f
 12094 0aef F8070000 		.4byte	.LVL307
 12095 0af3 28080000 		.4byte	.LVL309
 12096 0af7 0200     		.2byte	0x2
 12097 0af9 30       		.byte	0x30
 12098 0afa 9F       		.byte	0x9f
 12099 0afb 28080000 		.4byte	.LVL309
ARM GAS  C:\Users\jo\AppData\Local\Temp\ccfChKJS.s 			page 215


 12100 0aff 30080000 		.4byte	.LVL310
 12101 0b03 0100     		.2byte	0x1
 12102 0b05 50       		.byte	0x50
 12103 0b06 8C080000 		.4byte	.LVL314
 12104 0b0a 46090000 		.4byte	.LVL321
 12105 0b0e 0200     		.2byte	0x2
 12106 0b10 30       		.byte	0x30
 12107 0b11 9F       		.byte	0x9f
 12108 0b12 46090000 		.4byte	.LVL321
 12109 0b16 48090000 		.4byte	.LVL322
 12110 0b1a 0100     		.2byte	0x1
 12111 0b1c 50       		.byte	0x50
 12112 0b1d 4E090000 		.4byte	.LVL323
 12113 0b21 B4090000 		.4byte	.LVL326
 12114 0b25 0200     		.2byte	0x2
 12115 0b27 30       		.byte	0x30
 12116 0b28 9F       		.byte	0x9f
 12117 0b29 C2090000 		.4byte	.LVL327
 12118 0b2d E2090000 		.4byte	.LVL330
 12119 0b31 0200     		.2byte	0x2
 12120 0b33 30       		.byte	0x30
 12121 0b34 9F       		.byte	0x9f
 12122 0b35 E2090000 		.4byte	.LVL330
 12123 0b39 E4090000 		.4byte	.LVL331
 12124 0b3d 0100     		.2byte	0x1
 12125 0b3f 50       		.byte	0x50
 12126 0b40 120A0000 		.4byte	.LVL334
 12127 0b44 340A0000 		.4byte	.LVL337
 12128 0b48 0200     		.2byte	0x2
 12129 0b4a 30       		.byte	0x30
 12130 0b4b 9F       		.byte	0x9f
 12131 0b4c DC0A0000 		.4byte	.LVL354
 12132 0b50 280B0000 		.4byte	.LFE260
 12133 0b54 0200     		.2byte	0x2
 12134 0b56 30       		.byte	0x30
 12135 0b57 9F       		.byte	0x9f
 12136 0b58 00000000 		.4byte	0
 12137 0b5c 00000000 		.4byte	0
 12138              	.LLST51:
 12139 0b60 E8090000 		.4byte	.LVL332
 12140 0b64 120A0000 		.4byte	.LVL334
 12141 0b68 0100     		.2byte	0x1
 12142 0b6a 54       		.byte	0x54
 12143 0b6b 00000000 		.4byte	0
 12144 0b6f 00000000 		.4byte	0
 12145              	.LLST52:
 12146 0b73 240A0000 		.4byte	.LVL335
 12147 0b77 340A0000 		.4byte	.LVL337
 12148 0b7b 0600     		.2byte	0x6
 12149 0b7d 03       		.byte	0x3
 12150 0b7e EC020000 		.4byte	.LC21
 12151 0b82 9F       		.byte	0x9f
 12152 0b83 00000000 		.4byte	0
 12153 0b87 00000000 		.4byte	0
 12154              	.LLST53:
 12155 0b8b 0A090000 		.4byte	.LVL317
 12156 0b8f 10090000 		.4byte	.LVL318
ARM GAS  C:\Users\jo\AppData\Local\Temp\ccfChKJS.s 			page 216


 12157 0b93 0600     		.2byte	0x6
 12158 0b95 03       		.byte	0x3
 12159 0b96 D4020000 		.4byte	.LC20
 12160 0b9a 9F       		.byte	0x9f
 12161 0b9b 00000000 		.4byte	0
 12162 0b9f 00000000 		.4byte	0
 12163              	.LLST54:
 12164 0ba3 DA090000 		.4byte	.LVL328
 12165 0ba7 E2090000 		.4byte	.LVL330
 12166 0bab 0600     		.2byte	0x6
 12167 0bad 03       		.byte	0x3
 12168 0bae B4020000 		.4byte	.LC19
 12169 0bb2 9F       		.byte	0x9f
 12170 0bb3 00000000 		.4byte	0
 12171 0bb7 00000000 		.4byte	0
 12172              	.LLST55:
 12173 0bbb 34040000 		.4byte	.LVL268
 12174 0bbf 10050000 		.4byte	.LVL277
 12175 0bc3 0100     		.2byte	0x1
 12176 0bc5 59       		.byte	0x59
 12177 0bc6 500A0000 		.4byte	.LVL339
 12178 0bca 920A0000 		.4byte	.LVL346
 12179 0bce 0100     		.2byte	0x1
 12180 0bd0 59       		.byte	0x59
 12181 0bd1 00000000 		.4byte	0
 12182 0bd5 00000000 		.4byte	0
 12183              	.LLST56:
 12184 0bd9 56040000 		.4byte	.LVL269
 12185 0bdd 60040000 		.4byte	.LVL270
 12186 0be1 0100     		.2byte	0x1
 12187 0be3 50       		.byte	0x50
 12188 0be4 60040000 		.4byte	.LVL270
 12189 0be8 10050000 		.4byte	.LVL277
 12190 0bec 0100     		.2byte	0x1
 12191 0bee 5A       		.byte	0x5a
 12192 0bef 500A0000 		.4byte	.LVL339
 12193 0bf3 5E0A0000 		.4byte	.LVL342
 12194 0bf7 0100     		.2byte	0x1
 12195 0bf9 5A       		.byte	0x5a
 12196 0bfa 5E0A0000 		.4byte	.LVL342
 12197 0bfe 6A0A0000 		.4byte	.LVL343
 12198 0c02 0100     		.2byte	0x1
 12199 0c04 50       		.byte	0x50
 12200 0c05 6A0A0000 		.4byte	.LVL343
 12201 0c09 6E0A0000 		.4byte	.LVL344
 12202 0c0d 0100     		.2byte	0x1
 12203 0c0f 5A       		.byte	0x5a
 12204 0c10 00000000 		.4byte	0
 12205 0c14 00000000 		.4byte	0
 12206              	.LLST57:
 12207 0c18 00050000 		.4byte	.LVL274
 12208 0c1c 08050000 		.4byte	.LVL275
 12209 0c20 0100     		.2byte	0x1
 12210 0c22 50       		.byte	0x50
 12211 0c23 500A0000 		.4byte	.LVL339
 12212 0c27 520A0000 		.4byte	.LVL340
 12213 0c2b 0100     		.2byte	0x1
ARM GAS  C:\Users\jo\AppData\Local\Temp\ccfChKJS.s 			page 217


 12214 0c2d 50       		.byte	0x50
 12215 0c2e 00000000 		.4byte	0
 12216 0c32 00000000 		.4byte	0
 12217              	.LLST58:
 12218 0c36 60070000 		.4byte	.LVL295
 12219 0c3a 66070000 		.4byte	.LVL296
 12220 0c3e 0600     		.2byte	0x6
 12221 0c40 03       		.byte	0x3
 12222 0c41 00030000 		.4byte	.LC22
 12223 0c45 9F       		.byte	0x9f
 12224 0c46 00000000 		.4byte	0
 12225 0c4a 00000000 		.4byte	0
 12226              	.LLST59:
 12227 0c4e A20A0000 		.4byte	.LVL347
 12228 0c52 AC0A0000 		.4byte	.LVL349
 12229 0c56 0600     		.2byte	0x6
 12230 0c58 03       		.byte	0x3
 12231 0c59 58020000 		.4byte	.LC17
 12232 0c5d 9F       		.byte	0x9f
 12233 0c5e 00000000 		.4byte	0
 12234 0c62 00000000 		.4byte	0
 12235              	.LLST60:
 12236 0c66 D00A0000 		.4byte	.LVL352
 12237 0c6a DC0A0000 		.4byte	.LVL354
 12238 0c6e 0600     		.2byte	0x6
 12239 0c70 03       		.byte	0x3
 12240 0c71 2C020000 		.4byte	.LC16
 12241 0c75 9F       		.byte	0x9f
 12242 0c76 00000000 		.4byte	0
 12243 0c7a 00000000 		.4byte	0
 12244              		.section	.debug_aranges,"",%progbits
 12245 0000 3C000000 		.4byte	0x3c
 12246 0004 0200     		.2byte	0x2
 12247 0006 00000000 		.4byte	.Ldebug_info0
 12248 000a 04       		.byte	0x4
 12249 000b 00       		.byte	0
 12250 000c 0000     		.2byte	0
 12251 000e 0000     		.2byte	0
 12252 0010 00000000 		.4byte	.LFB264
 12253 0014 B4000000 		.4byte	.LFE264-.LFB264
 12254 0018 00000000 		.4byte	.LFB267
 12255 001c 90000000 		.4byte	.LFE267-.LFB267
 12256 0020 00000000 		.4byte	.LFB268
 12257 0024 28000000 		.4byte	.LFE268-.LFB268
 12258 0028 00000000 		.4byte	.LFB265
 12259 002c 480B0000 		.4byte	.LFE265-.LFB265
 12260 0030 00000000 		.4byte	.LFB260
 12261 0034 280B0000 		.4byte	.LFE260-.LFB260
 12262 0038 00000000 		.4byte	0
 12263 003c 00000000 		.4byte	0
 12264              		.section	.debug_ranges,"",%progbits
 12265              	.Ldebug_ranges0:
 12266 0000 DA030000 		.4byte	.LBB61
 12267 0004 DC030000 		.4byte	.LBE61
 12268 0008 E2030000 		.4byte	.LBB64
 12269 000c E6030000 		.4byte	.LBE64
 12270 0010 00000000 		.4byte	0
ARM GAS  C:\Users\jo\AppData\Local\Temp\ccfChKJS.s 			page 218


 12271 0014 00000000 		.4byte	0
 12272 0018 2C030000 		.4byte	.LBB124
 12273 001c 58030000 		.4byte	.LBE124
 12274 0020 B4090000 		.4byte	.LBB162
 12275 0024 C2090000 		.4byte	.LBE162
 12276 0028 340A0000 		.4byte	.LBB164
 12277 002c 4A0A0000 		.4byte	.LBE164
 12278 0030 AC0A0000 		.4byte	.LBB170
 12279 0034 BA0A0000 		.4byte	.LBE170
 12280 0038 00000000 		.4byte	0
 12281 003c 00000000 		.4byte	0
 12282 0040 5C030000 		.4byte	.LBB129
 12283 0044 5E030000 		.4byte	.LBE129
 12284 0048 60030000 		.4byte	.LBB148
 12285 004c 62030000 		.4byte	.LBE148
 12286 0050 64030000 		.4byte	.LBB149
 12287 0054 84030000 		.4byte	.LBE149
 12288 0058 AA030000 		.4byte	.LBB150
 12289 005c C4030000 		.4byte	.LBE150
 12290 0060 10050000 		.4byte	.LBB156
 12291 0064 DC060000 		.4byte	.LBE156
 12292 0068 B6070000 		.4byte	.LBB159
 12293 006c D8070000 		.4byte	.LBE159
 12294 0070 F8070000 		.4byte	.LBB160
 12295 0074 34080000 		.4byte	.LBE160
 12296 0078 8C080000 		.4byte	.LBB161
 12297 007c B4090000 		.4byte	.LBE161
 12298 0080 C2090000 		.4byte	.LBB163
 12299 0084 340A0000 		.4byte	.LBE163
 12300 0088 DC0A0000 		.4byte	.LBB173
 12301 008c 280B0000 		.4byte	.LBE173
 12302 0090 00000000 		.4byte	0
 12303 0094 00000000 		.4byte	0
 12304 0098 14080000 		.4byte	.LBB131
 12305 009c 34080000 		.4byte	.LBE131
 12306 00a0 E2090000 		.4byte	.LBB138
 12307 00a4 340A0000 		.4byte	.LBE138
 12308 00a8 00000000 		.4byte	0
 12309 00ac 00000000 		.4byte	0
 12310 00b0 34040000 		.4byte	.LBB151
 12311 00b4 0C050000 		.4byte	.LBE151
 12312 00b8 500A0000 		.4byte	.LBB165
 12313 00bc 580A0000 		.4byte	.LBE165
 12314 00c0 5E0A0000 		.4byte	.LBB166
 12315 00c4 680A0000 		.4byte	.LBE166
 12316 00c8 6E0A0000 		.4byte	.LBB167
 12317 00cc 8C0A0000 		.4byte	.LBE167
 12318 00d0 00000000 		.4byte	0
 12319 00d4 00000000 		.4byte	0
 12320 00d8 00000000 		.4byte	.LFB264
 12321 00dc B4000000 		.4byte	.LFE264
 12322 00e0 00000000 		.4byte	.LFB267
 12323 00e4 90000000 		.4byte	.LFE267
 12324 00e8 00000000 		.4byte	.LFB268
 12325 00ec 28000000 		.4byte	.LFE268
 12326 00f0 00000000 		.4byte	.LFB265
 12327 00f4 480B0000 		.4byte	.LFE265
ARM GAS  C:\Users\jo\AppData\Local\Temp\ccfChKJS.s 			page 219


 12328 00f8 00000000 		.4byte	.LFB260
 12329 00fc 280B0000 		.4byte	.LFE260
 12330 0100 00000000 		.4byte	0
 12331 0104 00000000 		.4byte	0
 12332              		.section	.debug_line,"",%progbits
 12333              	.Ldebug_line0:
 12334 0000 E10B0000 		.section	.debug_str,"MS",%progbits,1
 12334      0200EB03 
 12334      00000201 
 12334      FB0E0D00 
 12334      01010101 
 12335              	.LASF56:
 12336 0000 74687265 		.ascii	"threads_queue_t\000"
 12336      6164735F 
 12336      71756575 
 12336      655F7400 
 12337              	.LASF246:
 12338 0010 6C697374 		.ascii	"listen_pcbs\000"
 12338      656E5F70 
 12338      63627300 
 12339              	.LASF262:
 12340 001c 73746174 		.ascii	"stats_proto\000"
 12340      735F7072 
 12340      6F746F00 
 12341              	.LASF159:
 12342 0028 6E616D65 		.ascii	"name\000"
 12342      00
 12343              	.LASF250:
 12344 002d 4D454D50 		.ascii	"MEMP_TCP_PCB_LISTEN\000"
 12344      5F544350 
 12344      5F504342 
 12344      5F4C4953 
 12344      54454E00 
 12345              	.LASF292:
 12346 0041 63736567 		.ascii	"cseg\000"
 12346      00
 12347              	.LASF309:
 12348 0046 6F6C645F 		.ascii	"old_cwnd\000"
 12348      63776E64 
 12348      00
 12349              	.LASF176:
 12350 004f 736F5F6F 		.ascii	"so_options\000"
 12350      7074696F 
 12350      6E7300
 12351              	.LASF119:
 12352 005a 63686172 		.ascii	"char\000"
 12352      00
 12353              	.LASF336:
 12354 005f 63687670 		.ascii	"chvprintf\000"
 12354      72696E74 
 12354      6600
 12355              	.LASF154:
 12356 0069 6F757470 		.ascii	"output\000"
 12356      757400
 12357              	.LASF295:
 12358 0070 6F6C645F 		.ascii	"old_seg\000"
 12358      73656700 
ARM GAS  C:\Users\jo\AppData\Local\Temp\ccfChKJS.s 			page 220


 12359              	.LASF36:
 12360 0078 705F7072 		.ascii	"p_prio\000"
 12360      696F00
 12361              	.LASF339:
 12362 007f 70627566 		.ascii	"pbuf_clen\000"
 12362      5F636C65 
 12362      6E00
 12363              	.LASF305:
 12364 0089 6E706362 		.ascii	"npcb\000"
 12364      00
 12365              	.LASF245:
 12366 008e 75726770 		.ascii	"urgp\000"
 12366      00
 12367              	.LASF357:
 12368 0093 7463705F 		.ascii	"tcp_process_refused_data\000"
 12368      70726F63 
 12368      6573735F 
 12368      72656675 
 12368      7365645F 
 12369              	.LASF172:
 12370 00ac 7463705F 		.ascii	"tcp_accept_fn\000"
 12370      61636365 
 12370      70745F66 
 12370      6E00
 12371              	.LASF145:
 12372 00ba 666C6167 		.ascii	"flags\000"
 12372      7300
 12373              	.LASF32:
 12374 00c0 73797374 		.ascii	"systime_t\000"
 12374      696D655F 
 12374      7400
 12375              	.LASF204:
 12376 00ca 736E645F 		.ascii	"snd_buf\000"
 12376      62756600 
 12377              	.LASF117:
 12378 00d2 6D5F6F77 		.ascii	"m_owner\000"
 12378      6E657200 
 12379              	.LASF113:
 12380 00da 735F7175 		.ascii	"s_queue\000"
 12380      65756500 
 12381              	.LASF235:
 12382 00e2 54494D45 		.ascii	"TIME_WAIT\000"
 12382      5F574149 
 12382      5400
 12383              	.LASF70:
 12384 00ec 76745F70 		.ascii	"vt_prev\000"
 12384      72657600 
 12385              	.LASF303:
 12386 00f4 7463705F 		.ascii	"tcp_timewait_input\000"
 12386      74696D65 
 12386      77616974 
 12386      5F696E70 
 12386      757400
 12387              	.LASF224:
 12388 0107 7463705F 		.ascii	"tcp_connected_fn\000"
 12388      636F6E6E 
 12388      65637465 
ARM GAS  C:\Users\jo\AppData\Local\Temp\ccfChKJS.s 			page 221


 12388      645F666E 
 12388      00
 12389              	.LASF141:
 12390 0118 6E657874 		.ascii	"next\000"
 12390      00
 12391              	.LASF209:
 12392 011d 6F6F7365 		.ascii	"ooseq\000"
 12392      7100
 12393              	.LASF53:
 12394 0123 74687265 		.ascii	"threads_list_t\000"
 12394      6164735F 
 12394      6C697374 
 12394      5F7400
 12395              	.LASF139:
 12396 0132 6572725F 		.ascii	"err_t\000"
 12396      7400
 12397              	.LASF362:
 12398 0138 2E2E2F2E 		.ascii	"../../../ext/lwip/src/core/tcp_in.c\000"
 12398      2E2F2E2E 
 12398      2F657874 
 12398      2F6C7769 
 12398      702F7372 
 12399              	.LASF45:
 12400 015c 705F7761 		.ascii	"p_waiting\000"
 12400      6974696E 
 12400      6700
 12401              	.LASF10:
 12402 0166 5F5F696E 		.ascii	"__int32_t\000"
 12402      7433325F 
 12402      7400
 12403              	.LASF121:
 12404 0170 42617365 		.ascii	"BaseSequentialStreamVMT\000"
 12404      53657175 
 12404      656E7469 
 12404      616C5374 
 12404      7265616D 
 12405              	.LASF97:
 12406 0188 73655F73 		.ascii	"se_state\000"
 12406      74617465 
 12406      00
 12407              	.LASF296:
 12408 0191 70726576 		.ascii	"prev\000"
 12408      00
 12409              	.LASF134:
 12410 0196 7531365F 		.ascii	"u16_t\000"
 12410      7400
 12411              	.LASF168:
 12412 019c 5F74746C 		.ascii	"_ttl\000"
 12412      00
 12413              	.LASF363:
 12414 01a1 433A5C55 		.ascii	"C:\\Users\\jo\\Documents\\GitHub\\ChibiOS\\demos\\S"
 12414      73657273 
 12414      5C6A6F5C 
 12414      446F6375 
 12414      6D656E74 
 12415 01cd 544D3332 		.ascii	"TM32\\RT-STM32F407-DISCOVERY-uHttp\000"
 12415      5C52542D 
ARM GAS  C:\Users\jo\AppData\Local\Temp\ccfChKJS.s 			page 222


 12415      53544D33 
 12415      32463430 
 12415      372D4449 
 12416              	.LASF86:
 12417 01ef 76746C69 		.ascii	"vtlist\000"
 12417      737400
 12418              	.LASF188:
 12419 01f6 7263765F 		.ascii	"rcv_ann_right_edge\000"
 12419      616E6E5F 
 12419      72696768 
 12419      745F6564 
 12419      676500
 12420              	.LASF7:
 12421 0209 73686F72 		.ascii	"short int\000"
 12421      7420696E 
 12421      7400
 12422              	.LASF59:
 12423 0213 63685F72 		.ascii	"ch_ready_list\000"
 12423      65616479 
 12423      5F6C6973 
 12423      7400
 12424              	.LASF88:
 12425 0221 69646C65 		.ascii	"idle_thread_wa\000"
 12425      5F746872 
 12425      6561645F 
 12425      776100
 12426              	.LASF272:
 12427 0230 73746174 		.ascii	"stats_mem\000"
 12427      735F6D65 
 12427      6D00
 12428              	.LASF317:
 12429 023a 72656376 		.ascii	"recv_flags\000"
 12429      5F666C61 
 12429      677300
 12430              	.LASF111:
 12431 0245 65776D61 		.ascii	"ewmask\000"
 12431      736B00
 12432              	.LASF161:
 12433 024c 6E657469 		.ascii	"netif_output_fn\000"
 12433      665F6F75 
 12433      74707574 
 12433      5F666E00 
 12434              	.LASF332:
 12435 025c 6C776970 		.ascii	"lwip_htons\000"
 12435      5F68746F 
 12435      6E7300
 12436              	.LASF219:
 12437 0267 6B656570 		.ascii	"keep_cnt_sent\000"
 12437      5F636E74 
 12437      5F73656E 
 12437      7400
 12438              	.LASF260:
 12439 0275 4D454D50 		.ascii	"MEMP_PBUF_POOL\000"
 12439      5F504255 
 12439      465F504F 
 12439      4F4C00
 12440              	.LASF330:
ARM GAS  C:\Users\jo\AppData\Local\Temp\ccfChKJS.s 			page 223


 12441 0284 6C776970 		.ascii	"lwip_stats\000"
 12441      5F737461 
 12441      747300
 12442              	.LASF293:
 12443 028f 7463705F 		.ascii	"tcp_oos_insert_segment\000"
 12443      6F6F735F 
 12443      696E7365 
 12443      72745F73 
 12443      65676D65 
 12444              	.LASF221:
 12445 02a6 7463705F 		.ascii	"tcp_sent_fn\000"
 12445      73656E74 
 12445      5F666E00 
 12446              	.LASF314:
 12447 02b2 696E7365 		.ascii	"inseg\000"
 12447      6700
 12448              	.LASF66:
 12449 02b8 76746675 		.ascii	"vtfunc_t\000"
 12449      6E635F74 
 12449      00
 12450              	.LASF107:
 12451 02c1 77746F62 		.ascii	"wtobjp\000"
 12451      6A7000
 12452              	.LASF114:
 12453 02c8 735F636E 		.ascii	"s_cnt\000"
 12453      7400
 12454              	.LASF358:
 12455 02ce 7463705F 		.ascii	"tcp_pcb_remove\000"
 12455      7063625F 
 12455      72656D6F 
 12455      766500
 12456              	.LASF78:
 12457 02dd 63685F73 		.ascii	"ch_system_debug\000"
 12457      79737465 
 12457      6D5F6465 
 12457      62756700 
 12458              	.LASF276:
 12459 02ed 73746174 		.ascii	"stats_syselem\000"
 12459      735F7379 
 12459      73656C65 
 12459      6D00
 12460              	.LASF241:
 12461 02fb 7365716E 		.ascii	"seqno\000"
 12461      6F00
 12462              	.LASF160:
 12463 0301 6E657469 		.ascii	"netif_input_fn\000"
 12463      665F696E 
 12463      7075745F 
 12463      666E00
 12464              	.LASF298:
 12465 0310 6E65775F 		.ascii	"new_tot_len\000"
 12465      746F745F 
 12465      6C656E00 
 12466              	.LASF22:
 12467 031c 75696E74 		.ascii	"uint32_t\000"
 12467      33325F74 
 12467      00
ARM GAS  C:\Users\jo\AppData\Local\Temp\ccfChKJS.s 			page 224


 12468              	.LASF255:
 12469 0325 4D454D50 		.ascii	"MEMP_NETCONN\000"
 12469      5F4E4554 
 12469      434F4E4E 
 12469      00
 12470              	.LASF195:
 12471 0332 63776E64 		.ascii	"cwnd\000"
 12471      00
 12472              	.LASF325:
 12473 0337 7463705F 		.ascii	"tcp_active_pcbs_changed\000"
 12473      61637469 
 12473      76655F70 
 12473      6362735F 
 12473      6368616E 
 12474              	.LASF30:
 12475 034f 6576656E 		.ascii	"eventmask_t\000"
 12475      746D6173 
 12475      6B5F7400 
 12476              	.LASF61:
 12477 035b 725F7072 		.ascii	"r_prio\000"
 12477      696F00
 12478              	.LASF178:
 12479 0362 61636365 		.ascii	"accept\000"
 12479      707400
 12480              	.LASF256:
 12481 0369 4D454D50 		.ascii	"MEMP_TCPIP_MSG_API\000"
 12481      5F544350 
 12481      49505F4D 
 12481      53475F41 
 12481      504900
 12482              	.LASF270:
 12483 037c 6F707465 		.ascii	"opterr\000"
 12483      727200
 12484              	.LASF180:
 12485 0383 6C6F6361 		.ascii	"local_port\000"
 12485      6C5F706F 
 12485      727400
 12486              	.LASF278:
 12487 038e 6D757465 		.ascii	"mutex\000"
 12487      7800
 12488              	.LASF283:
 12489 0394 69705F66 		.ascii	"ip_frag\000"
 12489      72616700 
 12490              	.LASF112:
 12491 039c 63685F73 		.ascii	"ch_semaphore\000"
 12491      656D6170 
 12491      686F7265 
 12491      00
 12492              	.LASF28:
 12493 03a9 74707269 		.ascii	"tprio_t\000"
 12493      6F5F7400 
 12494              	.LASF68:
 12495 03b1 63685F76 		.ascii	"ch_virtual_timer\000"
 12495      69727475 
 12495      616C5F74 
 12495      696D6572 
 12495      00
ARM GAS  C:\Users\jo\AppData\Local\Temp\ccfChKJS.s 			page 225


 12496              	.LASF19:
 12497 03c2 696E7431 		.ascii	"int16_t\000"
 12497      365F7400 
 12498              	.LASF158:
 12499 03ca 68776164 		.ascii	"hwaddr\000"
 12499      647200
 12500              	.LASF282:
 12501 03d1 65746861 		.ascii	"etharp\000"
 12501      727000
 12502              	.LASF236:
 12503 03d8 7463705F 		.ascii	"tcp_seg\000"
 12503      73656700 
 12504              	.LASF16:
 12505 03e0 6C6F6E67 		.ascii	"long long unsigned int\000"
 12505      206C6F6E 
 12505      6720756E 
 12505      7369676E 
 12505      65642069 
 12506              	.LASF96:
 12507 03f7 73655F77 		.ascii	"se_wtobjp\000"
 12507      746F626A 
 12507      7000
 12508              	.LASF290:
 12509 0401 72656173 		.ascii	"reason\000"
 12509      6F6E00
 12510              	.LASF191:
 12511 0408 72747365 		.ascii	"rtseq\000"
 12511      7100
 12512              	.LASF321:
 12513 040e 63757272 		.ascii	"current_iphdr_src\000"
 12513      656E745F 
 12513      69706864 
 12513      725F7372 
 12513      6300
 12514              	.LASF8:
 12515 0420 5F5F7569 		.ascii	"__uint16_t\000"
 12515      6E743136 
 12515      5F7400
 12516              	.LASF170:
 12517 042b 5F63686B 		.ascii	"_chksum\000"
 12517      73756D00 
 12518              	.LASF189:
 12519 0433 7274696D 		.ascii	"rtime\000"
 12519      6500
 12520              	.LASF167:
 12521 0439 5F6F6666 		.ascii	"_offset\000"
 12521      73657400 
 12522              	.LASF80:
 12523 0441 6973725F 		.ascii	"isr_cnt\000"
 12523      636E7400 
 12524              	.LASF38:
 12525 0449 705F6E65 		.ascii	"p_newer\000"
 12525      77657200 
 12526              	.LASF75:
 12527 0451 63685F76 		.ascii	"ch_virtual_timers_list\000"
 12527      69727475 
 12527      616C5F74 
ARM GAS  C:\Users\jo\AppData\Local\Temp\ccfChKJS.s 			page 226


 12527      696D6572 
 12527      735F6C69 
 12528              	.LASF71:
 12529 0468 76745F64 		.ascii	"vt_delta\000"
 12529      656C7461 
 12529      00
 12530              	.LASF185:
 12531 0471 7263765F 		.ascii	"rcv_nxt\000"
 12531      6E787400 
 12532              	.LASF257:
 12533 0479 4D454D50 		.ascii	"MEMP_TCPIP_MSG_INPKT\000"
 12533      5F544350 
 12533      49505F4D 
 12533      53475F49 
 12533      4E504B54 
 12534              	.LASF208:
 12535 048e 756E6163 		.ascii	"unacked\000"
 12535      6B656400 
 12536              	.LASF280:
 12537 0496 73746174 		.ascii	"stats_\000"
 12537      735F00
 12538              	.LASF33:
 12539 049d 74687265 		.ascii	"thread_t\000"
 12539      61645F74 
 12539      00
 12540              	.LASF300:
 12541 04a6 6E65775F 		.ascii	"new_cwnd\000"
 12541      63776E64 
 12541      00
 12542              	.LASF34:
 12543 04af 705F6E65 		.ascii	"p_next\000"
 12543      787400
 12544              	.LASF128:
 12545 04b6 5F5F676E 		.ascii	"__gnuc_va_list\000"
 12545      75635F76 
 12545      615F6C69 
 12545      737400
 12546              	.LASF323:
 12547 04c5 7463705F 		.ascii	"tcp_input_pcb\000"
 12547      696E7075 
 12547      745F7063 
 12547      6200
 12548              	.LASF244:
 12549 04d3 63686B73 		.ascii	"chksum\000"
 12549      756D00
 12550              	.LASF105:
 12551 04da 7264796D 		.ascii	"rdymsg\000"
 12551      736700
 12552              	.LASF142:
 12553 04e1 7061796C 		.ascii	"payload\000"
 12553      6F616400 
 12554              	.LASF366:
 12555 04e9 7463705F 		.ascii	"tcp_input\000"
 12555      696E7075 
 12555      7400
 12556              	.LASF103:
 12557 04f3 6F666673 		.ascii	"offset\000"
ARM GAS  C:\Users\jo\AppData\Local\Temp\ccfChKJS.s 			page 227


 12557      657400
 12558              	.LASF308:
 12559 04fa 61636365 		.ascii	"acceptable\000"
 12559      70746162 
 12559      6C6500
 12560              	.LASF213:
 12561 0505 636F6E6E 		.ascii	"connected\000"
 12561      65637465 
 12561      6400
 12562              	.LASF312:
 12563 050f 64726F70 		.ascii	"dropped\000"
 12563      70656400 
 12564              	.LASF125:
 12565 0517 5F426F6F 		.ascii	"_Bool\000"
 12565      6C00
 12566              	.LASF329:
 12567 051d 7463705F 		.ascii	"tcp_tmp_pcb\000"
 12567      746D705F 
 12567      70636200 
 12568              	.LASF348:
 12569 0529 7463705F 		.ascii	"tcp_pcb_purge\000"
 12569      7063625F 
 12569      70757267 
 12569      6500
 12570              	.LASF233:
 12571 0537 434C4F53 		.ascii	"CLOSING\000"
 12571      494E4700 
 12572              	.LASF115:
 12573 053f 63685F6D 		.ascii	"ch_mutex\000"
 12573      75746578 
 12573      00
 12574              	.LASF359:
 12575 0548 66726565 		.ascii	"free\000"
 12575      00
 12576              	.LASF15:
 12577 054d 5F5F7569 		.ascii	"__uint64_t\000"
 12577      6E743634 
 12577      5F7400
 12578              	.LASF261:
 12579 0558 4D454D50 		.ascii	"MEMP_MAX\000"
 12579      5F4D4158 
 12579      00
 12580              	.LASF133:
 12581 0561 73385F74 		.ascii	"s8_t\000"
 12581      00
 12582              	.LASF137:
 12583 0566 7333325F 		.ascii	"s32_t\000"
 12583      7400
 12584              	.LASF360:
 12585 056c 7463705F 		.ascii	"tcp_recv_null\000"
 12585      72656376 
 12585      5F6E756C 
 12585      6C00
 12586              	.LASF347:
 12587 057a 7463705F 		.ascii	"tcp_output\000"
 12587      6F757470 
 12587      757400
ARM GAS  C:\Users\jo\AppData\Local\Temp\ccfChKJS.s 			page 228


 12588              	.LASF200:
 12589 0585 736E645F 		.ascii	"snd_lbb\000"
 12589      6C626200 
 12590              	.LASF355:
 12591 058d 6970345F 		.ascii	"ip4_addr_isbroadcast\000"
 12591      61646472 
 12591      5F697362 
 12591      726F6164 
 12591      63617374 
 12592              	.LASF281:
 12593 05a2 6C696E6B 		.ascii	"link\000"
 12593      00
 12594              	.LASF17:
 12595 05a7 696E7438 		.ascii	"int8_t\000"
 12595      5F7400
 12596              	.LASF342:
 12597 05ae 70627566 		.ascii	"pbuf_header\000"
 12597      5F686561 
 12597      64657200 
 12598              	.LASF124:
 12599 05ba 42617365 		.ascii	"BaseSequentialStream\000"
 12599      53657175 
 12599      656E7469 
 12599      616C5374 
 12599      7265616D 
 12600              	.LASF193:
 12601 05cf 64757061 		.ascii	"dupacks\000"
 12601      636B7300 
 12602              	.LASF179:
 12603 05d7 7072696F 		.ascii	"prio\000"
 12603      00
 12604              	.LASF183:
 12605 05dc 706F6C6C 		.ascii	"pollinterval\000"
 12605      696E7465 
 12605      7276616C 
 12605      00
 12606              	.LASF259:
 12607 05e9 4D454D50 		.ascii	"MEMP_PBUF\000"
 12607      5F504255 
 12607      4600
 12608              	.LASF214:
 12609 05f3 706F6C6C 		.ascii	"poll\000"
 12609      00
 12610              	.LASF302:
 12611 05f8 63687072 		.ascii	"chprintf\000"
 12611      696E7466 
 12611      00
 12612              	.LASF275:
 12613 0601 696C6C65 		.ascii	"illegal\000"
 12613      67616C00 
 12614              	.LASF334:
 12615 0609 70627566 		.ascii	"pbuf_realloc\000"
 12615      5F726561 
 12615      6C6C6F63 
 12615      00
 12616              	.LASF138:
 12617 0616 6D656D5F 		.ascii	"mem_size_t\000"
ARM GAS  C:\Users\jo\AppData\Local\Temp\ccfChKJS.s 			page 229


 12617      73697A65 
 12617      5F7400
 12618              	.LASF198:
 12619 0621 736E645F 		.ascii	"snd_wl1\000"
 12619      776C3100 
 12620              	.LASF63:
 12621 0629 725F6E65 		.ascii	"r_newer\000"
 12621      77657200 
 12622              	.LASF76:
 12623 0631 76745F6C 		.ascii	"vt_lasttime\000"
 12623      61737474 
 12623      696D6500 
 12624              	.LASF306:
 12625 063d 7463705F 		.ascii	"tcp_process\000"
 12625      70726F63 
 12625      65737300 
 12626              	.LASF148:
 12627 0649 69705F61 		.ascii	"ip_addr_packed\000"
 12627      6464725F 
 12627      7061636B 
 12627      656400
 12628              	.LASF203:
 12629 0658 61636B65 		.ascii	"acked\000"
 12629      6400
 12630              	.LASF232:
 12631 065e 434C4F53 		.ascii	"CLOSE_WAIT\000"
 12631      455F5741 
 12631      495400
 12632              	.LASF26:
 12633 0669 74737461 		.ascii	"tstate_t\000"
 12633      74655F74 
 12633      00
 12634              	.LASF95:
 12635 0672 73655F74 		.ascii	"se_tp\000"
 12635      7000
 12636              	.LASF14:
 12637 0678 6C6F6E67 		.ascii	"long long int\000"
 12637      206C6F6E 
 12637      6720696E 
 12637      7400
 12638              	.LASF39:
 12639 0686 705F6F6C 		.ascii	"p_older\000"
 12639      64657200 
 12640              	.LASF316:
 12641 068e 7463706C 		.ascii	"tcplen\000"
 12641      656E00
 12642              	.LASF94:
 12643 0695 73655F74 		.ascii	"se_time\000"
 12643      696D6500 
 12644              	.LASF41:
 12645 069d 705F7374 		.ascii	"p_stklimit\000"
 12645      6B6C696D 
 12645      697400
 12646              	.LASF12:
 12647 06a8 5F5F7569 		.ascii	"__uint32_t\000"
 12647      6E743332 
 12647      5F7400
ARM GAS  C:\Users\jo\AppData\Local\Temp\ccfChKJS.s 			page 230


 12648              	.LASF211:
 12649 06b3 73656E74 		.ascii	"sent\000"
 12649      00
 12650              	.LASF18:
 12651 06b8 75696E74 		.ascii	"uint8_t\000"
 12651      385F7400 
 12652              	.LASF101:
 12653 06c0 74625F62 		.ascii	"tb_buffer\000"
 12653      75666665 
 12653      7200
 12654              	.LASF199:
 12655 06ca 736E645F 		.ascii	"snd_wl2\000"
 12655      776C3200 
 12656              	.LASF237:
 12657 06d2 6F766572 		.ascii	"oversize_left\000"
 12657      73697A65 
 12657      5F6C6566 
 12657      7400
 12658              	.LASF341:
 12659 06e0 7463705F 		.ascii	"tcp_seg_copy\000"
 12659      7365675F 
 12659      636F7079 
 12659      00
 12660              	.LASF169:
 12661 06ed 5F70726F 		.ascii	"_proto\000"
 12661      746F00
 12662              	.LASF223:
 12663 06f4 7463705F 		.ascii	"tcp_err_fn\000"
 12663      6572725F 
 12663      666E00
 12664              	.LASF42:
 12665 06ff 705F7374 		.ascii	"p_state\000"
 12665      61746500 
 12666              	.LASF54:
 12667 0707 63685F74 		.ascii	"ch_thread\000"
 12667      68726561 
 12667      6400
 12668              	.LASF365:
 12669 0711 7463705F 		.ascii	"tcp_listen_pcbs_t\000"
 12669      6C697374 
 12669      656E5F70 
 12669      6362735F 
 12669      7400
 12670              	.LASF99:
 12671 0723 74625F73 		.ascii	"tb_size\000"
 12671      697A6500 
 12672              	.LASF354:
 12673 072b 70627566 		.ascii	"pbuf_free\000"
 12673      5F667265 
 12673      6500
 12674              	.LASF131:
 12675 0735 76615F6C 		.ascii	"va_list\000"
 12675      69737400 
 12676              	.LASF77:
 12677 073d 73797374 		.ascii	"system_debug_t\000"
 12677      656D5F64 
 12677      65627567 
ARM GAS  C:\Users\jo\AppData\Local\Temp\ccfChKJS.s 			page 231


 12677      5F7400
 12678              	.LASF254:
 12679 074c 4D454D50 		.ascii	"MEMP_NETBUF\000"
 12679      5F4E4554 
 12679      42554600 
 12680              	.LASF152:
 12681 0758 6E65746D 		.ascii	"netmask\000"
 12681      61736B00 
 12682              	.LASF57:
 12683 0760 63685F74 		.ascii	"ch_threads_queue\000"
 12683      68726561 
 12683      64735F71 
 12683      75657565 
 12683      00
 12684              	.LASF239:
 12685 0771 7463705F 		.ascii	"tcp_pcb_listen\000"
 12685      7063625F 
 12685      6C697374 
 12685      656E00
 12686              	.LASF122:
 12687 0780 77726974 		.ascii	"write\000"
 12687      6500
 12688              	.LASF242:
 12689 0786 61636B6E 		.ascii	"ackno\000"
 12689      6F00
 12690              	.LASF60:
 12691 078c 725F7175 		.ascii	"r_queue\000"
 12691      65756500 
 12692              	.LASF218:
 12693 0794 70657273 		.ascii	"persist_backoff\000"
 12693      6973745F 
 12693      6261636B 
 12693      6F666600 
 12694              	.LASF31:
 12695 07a4 636E745F 		.ascii	"cnt_t\000"
 12695      7400
 12696              	.LASF29:
 12697 07aa 6D73675F 		.ascii	"msg_t\000"
 12697      7400
 12698              	.LASF249:
 12699 07b0 4D454D50 		.ascii	"MEMP_TCP_PCB\000"
 12699      5F544350 
 12699      5F504342 
 12699      00
 12700              	.LASF132:
 12701 07bd 75385F74 		.ascii	"u8_t\000"
 12701      00
 12702              	.LASF43:
 12703 07c2 705F666C 		.ascii	"p_flags\000"
 12703      61677300 
 12704              	.LASF6:
 12705 07ca 5F5F696E 		.ascii	"__int16_t\000"
 12705      7431365F 
 12705      7400
 12706              	.LASF164:
 12707 07d4 5F765F68 		.ascii	"_v_hl\000"
 12707      6C00
ARM GAS  C:\Users\jo\AppData\Local\Temp\ccfChKJS.s 			page 232


 12708              	.LASF67:
 12709 07da 76697274 		.ascii	"virtual_timer_t\000"
 12709      75616C5F 
 12709      74696D65 
 12709      725F7400 
 12710              	.LASF297:
 12711 07ea 72696768 		.ascii	"right_wnd_edge\000"
 12711      745F776E 
 12711      645F6564 
 12711      676500
 12712              	.LASF289:
 12713 07f9 6F73616C 		.ascii	"osalSysHalt\000"
 12713      53797348 
 12713      616C7400 
 12714              	.LASF55:
 12715 0805 63685F74 		.ascii	"ch_threads_list\000"
 12715      68726561 
 12715      64735F6C 
 12715      69737400 
 12716              	.LASF126:
 12717 0815 49544D53 		.ascii	"ITMStreamVMT\000"
 12717      74726561 
 12717      6D564D54 
 12717      00
 12718              	.LASF181:
 12719 0822 72656D6F 		.ascii	"remote_port\000"
 12719      74655F70 
 12719      6F727400 
 12720              	.LASF274:
 12721 082e 75736564 		.ascii	"used\000"
 12721      00
 12722              	.LASF320:
 12723 0833 69746D5F 		.ascii	"itm_port\000"
 12723      706F7274 
 12723      00
 12724              	.LASF100:
 12725 083c 74625F70 		.ascii	"tb_ptr\000"
 12725      747200
 12726              	.LASF326:
 12727 0843 7463705F 		.ascii	"tcp_listen_pcbs\000"
 12727      6C697374 
 12727      656E5F70 
 12727      63627300 
 12728              	.LASF194:
 12729 0853 6C617374 		.ascii	"lastack\000"
 12729      61636B00 
 12730              	.LASF187:
 12731 085b 7263765F 		.ascii	"rcv_ann_wnd\000"
 12731      616E6E5F 
 12731      776E6400 
 12732              	.LASF265:
 12733 0867 63686B65 		.ascii	"chkerr\000"
 12733      727200
 12734              	.LASF307:
 12735 086e 72736567 		.ascii	"rseg\000"
 12735      00
 12736              	.LASF64:
ARM GAS  C:\Users\jo\AppData\Local\Temp\ccfChKJS.s 			page 233


 12737 0873 725F6F6C 		.ascii	"r_older\000"
 12737      64657200 
 12738              	.LASF252:
 12739 087b 4D454D50 		.ascii	"MEMP_REASSDATA\000"
 12739      5F524541 
 12739      53534441 
 12739      544100
 12740              	.LASF220:
 12741 088a 7463705F 		.ascii	"tcp_recv_fn\000"
 12741      72656376 
 12741      5F666E00 
 12742              	.LASF127:
 12743 0896 49544D53 		.ascii	"ITMStream\000"
 12743      74726561 
 12743      6D00
 12744              	.LASF130:
 12745 08a0 5F5F6170 		.ascii	"__ap\000"
 12745      00
 12746              	.LASF153:
 12747 08a5 696E7075 		.ascii	"input\000"
 12747      7400
 12748              	.LASF79:
 12749 08ab 70616E69 		.ascii	"panic_msg\000"
 12749      635F6D73 
 12749      6700
 12750              	.LASF368:
 12751 08b5 7463705F 		.ascii	"tcp_abort\000"
 12751      61626F72 
 12751      7400
 12752              	.LASF92:
 12753 08bf 636F6E74 		.ascii	"context\000"
 12753      65787400 
 12754              	.LASF47:
 12755 08c7 705F6D73 		.ascii	"p_msg\000"
 12755      6700
 12756              	.LASF104:
 12757 08cd 746D5F63 		.ascii	"tm_calibration_t\000"
 12757      616C6962 
 12757      72617469 
 12757      6F6E5F74 
 12757      00
 12758              	.LASF25:
 12759 08de 746D6F64 		.ascii	"tmode_t\000"
 12759      655F7400 
 12760              	.LASF343:
 12761 08e6 7463705F 		.ascii	"tcp_update_rcv_ann_wnd\000"
 12761      75706461 
 12761      74655F72 
 12761      63765F61 
 12761      6E6E5F77 
 12762              	.LASF87:
 12763 08fd 6D61696E 		.ascii	"mainthread\000"
 12763      74687265 
 12763      616400
 12764              	.LASF367:
 12765 0908 7463705F 		.ascii	"tcp_timer_needed\000"
 12765      74696D65 
ARM GAS  C:\Users\jo\AppData\Local\Temp\ccfChKJS.s 			page 234


 12765      725F6E65 
 12765      65646564 
 12765      00
 12766              	.LASF350:
 12767 0919 7463705F 		.ascii	"tcp_eff_send_mss\000"
 12767      6566665F 
 12767      73656E64 
 12767      5F6D7373 
 12767      00
 12768              	.LASF157:
 12769 092a 68776164 		.ascii	"hwaddr_len\000"
 12769      64725F6C 
 12769      656E00
 12770              	.LASF349:
 12771 0935 7463705F 		.ascii	"tcp_rexmit\000"
 12771      7265786D 
 12771      697400
 12772              	.LASF40:
 12773 0940 705F6E61 		.ascii	"p_name\000"
 12773      6D6500
 12774              	.LASF20:
 12775 0947 75696E74 		.ascii	"uint16_t\000"
 12775      31365F74 
 12775      00
 12776              	.LASF52:
 12777 0950 74687265 		.ascii	"thread_reference_t\000"
 12777      61645F72 
 12777      65666572 
 12777      656E6365 
 12777      5F7400
 12778              	.LASF215:
 12779 0963 65727266 		.ascii	"errf\000"
 12779      00
 12780              	.LASF222:
 12781 0968 7463705F 		.ascii	"tcp_poll_fn\000"
 12781      706F6C6C 
 12781      5F666E00 
 12782              	.LASF1:
 12783 0974 73697A65 		.ascii	"size_t\000"
 12783      5F7400
 12784              	.LASF364:
 12785 097b 7463705F 		.ascii	"tcp_state\000"
 12785      73746174 
 12785      6500
 12786              	.LASF24:
 12787 0985 7274636E 		.ascii	"rtcnt_t\000"
 12787      745F7400 
 12788              	.LASF333:
 12789 098d 7463705F 		.ascii	"tcp_seg_free\000"
 12789      7365675F 
 12789      66726565 
 12789      00
 12790              	.LASF346:
 12791 099a 7463705F 		.ascii	"tcp_rst\000"
 12791      72737400 
 12792              	.LASF81:
 12793 09a2 6C6F636B 		.ascii	"lock_cnt\000"
ARM GAS  C:\Users\jo\AppData\Local\Temp\ccfChKJS.s 			page 235


 12793      5F636E74 
 12793      00
 12794              	.LASF338:
 12795 09ab 6C776970 		.ascii	"lwip_ntohl\000"
 12795      5F6E746F 
 12795      686C00
 12796              	.LASF352:
 12797 09b6 7463705F 		.ascii	"tcp_enqueue_flags\000"
 12797      656E7175 
 12797      6575655F 
 12797      666C6167 
 12797      7300
 12798              	.LASF331:
 12799 09c8 6C776970 		.ascii	"lwip_ntohs\000"
 12799      5F6E746F 
 12799      687300
 12800              	.LASF50:
 12801 09d3 705F7265 		.ascii	"p_realprio\000"
 12801      616C7072 
 12801      696F00
 12802              	.LASF225:
 12803 09de 434C4F53 		.ascii	"CLOSED\000"
 12803      454400
 12804              	.LASF136:
 12805 09e5 7533325F 		.ascii	"u32_t\000"
 12805      7400
 12806              	.LASF361:
 12807 09eb 474E5520 		.ascii	"GNU C 4.9.3 20141119 (release) [ARM/embedded-4_9-br"
 12807      4320342E 
 12807      392E3320 
 12807      32303134 
 12807      31313139 
 12808 0a1e 616E6368 		.ascii	"anch revision 218278] -mcpu=cortex-m4 -mno-thumb-in"
 12808      20726576 
 12808      6973696F 
 12808      6E203231 
 12808      38323738 
 12809 0a51 74657277 		.ascii	"terwork -mthumb -ggdb -O2 -fomit-frame-pointer -fal"
 12809      6F726B20 
 12809      2D6D7468 
 12809      756D6220 
 12809      2D676764 
 12810 0a84 69676E2D 		.ascii	"ign-functions=16 -ffunction-sections -fdata-section"
 12810      66756E63 
 12810      74696F6E 
 12810      733D3136 
 12810      202D6666 
 12811 0ab7 73202D66 		.ascii	"s -fno-common\000"
 12811      6E6F2D63 
 12811      6F6D6D6F 
 12811      6E00
 12812              	.LASF284:
 12813 0ac5 69636D70 		.ascii	"icmp\000"
 12813      00
 12814              	.LASF65:
 12815 0aca 725F6375 		.ascii	"r_current\000"
 12815      7272656E 
ARM GAS  C:\Users\jo\AppData\Local\Temp\ccfChKJS.s 			page 236


 12815      7400
 12816              	.LASF48:
 12817 0ad4 705F6570 		.ascii	"p_epending\000"
 12817      656E6469 
 12817      6E6700
 12818              	.LASF116:
 12819 0adf 6D5F7175 		.ascii	"m_queue\000"
 12819      65756500 
 12820              	.LASF11:
 12821 0ae7 6C6F6E67 		.ascii	"long int\000"
 12821      20696E74 
 12821      00
 12822              	.LASF93:
 12823 0af0 706F7274 		.ascii	"port_intctx\000"
 12823      5F696E74 
 12823      63747800 
 12824              	.LASF356:
 12825 0afc 696E6574 		.ascii	"inet_chksum_pseudo\000"
 12825      5F63686B 
 12825      73756D5F 
 12825      70736575 
 12825      646F00
 12826              	.LASF268:
 12827 0b0f 72746572 		.ascii	"rterr\000"
 12827      7200
 12828              	.LASF319:
 12829 0b15 49544D5F 		.ascii	"ITM_RxBuffer\000"
 12829      52784275 
 12829      66666572 
 12829      00
 12830              	.LASF273:
 12831 0b22 61766169 		.ascii	"avail\000"
 12831      6C00
 12832              	.LASF313:
 12833 0b28 61626F72 		.ascii	"aborted\000"
 12833      74656400 
 12834              	.LASF207:
 12835 0b30 756E7365 		.ascii	"unsent\000"
 12835      6E7400
 12836              	.LASF186:
 12837 0b37 7263765F 		.ascii	"rcv_wnd\000"
 12837      776E6400 
 12838              	.LASF190:
 12839 0b3f 72747465 		.ascii	"rttest\000"
 12839      737400
 12840              	.LASF340:
 12841 0b46 7463705F 		.ascii	"tcp_send_empty_ack\000"
 12841      73656E64 
 12841      5F656D70 
 12841      74795F61 
 12841      636B00
 12842              	.LASF287:
 12843 0b59 6F707473 		.ascii	"opts\000"
 12843      00
 12844              	.LASF84:
 12845 0b5e 63685F73 		.ascii	"ch_system\000"
 12845      79737465 
ARM GAS  C:\Users\jo\AppData\Local\Temp\ccfChKJS.s 			page 237


 12845      6D00
 12846              	.LASF258:
 12847 0b68 4D454D50 		.ascii	"MEMP_SYS_TIMEOUT\000"
 12847      5F535953 
 12847      5F54494D 
 12847      454F5554 
 12847      00
 12848              	.LASF271:
 12849 0b79 63616368 		.ascii	"cachehit\000"
 12849      65686974 
 12849      00
 12850              	.LASF184:
 12851 0b82 6C617374 		.ascii	"last_timer\000"
 12851      5F74696D 
 12851      657200
 12852              	.LASF248:
 12853 0b8d 4D454D50 		.ascii	"MEMP_UDP_PCB\000"
 12853      5F554450 
 12853      5F504342 
 12853      00
 12854              	.LASF174:
 12855 0b9a 6C6F6361 		.ascii	"local_ip\000"
 12855      6C5F6970 
 12855      00
 12856              	.LASF37:
 12857 0ba3 705F6374 		.ascii	"p_ctx\000"
 12857      7800
 12858              	.LASF279:
 12859 0ba9 6D626F78 		.ascii	"mbox\000"
 12859      00
 12860              	.LASF85:
 12861 0bae 726C6973 		.ascii	"rlist\000"
 12861      7400
 12862              	.LASF206:
 12863 0bb4 756E7365 		.ascii	"unsent_oversize\000"
 12863      6E745F6F 
 12863      76657273 
 12863      697A6500 
 12864              	.LASF227:
 12865 0bc4 53594E5F 		.ascii	"SYN_SENT\000"
 12865      53454E54 
 12865      00
 12866              	.LASF197:
 12867 0bcd 736E645F 		.ascii	"snd_nxt\000"
 12867      6E787400 
 12868              	.LASF4:
 12869 0bd5 5F5F7569 		.ascii	"__uint8_t\000"
 12869      6E74385F 
 12869      7400
 12870              	.LASF229:
 12871 0bdf 45535441 		.ascii	"ESTABLISHED\000"
 12871      424C4953 
 12871      48454400 
 12872              	.LASF163:
 12873 0beb 69705F68 		.ascii	"ip_hdr\000"
 12873      647200
 12874              	.LASF202:
ARM GAS  C:\Users\jo\AppData\Local\Temp\ccfChKJS.s 			page 238


 12875 0bf2 736E645F 		.ascii	"snd_wnd_max\000"
 12875      776E645F 
 12875      6D617800 
 12876              	.LASF123:
 12877 0bfe 72656164 		.ascii	"read\000"
 12877      00
 12878              	.LASF0:
 12879 0c03 756E7369 		.ascii	"unsigned int\000"
 12879      676E6564 
 12879      20696E74 
 12879      00
 12880              	.LASF162:
 12881 0c10 6E657469 		.ascii	"netif_linkoutput_fn\000"
 12881      665F6C69 
 12881      6E6B6F75 
 12881      74707574 
 12881      5F666E00 
 12882              	.LASF253:
 12883 0c24 4D454D50 		.ascii	"MEMP_FRAG_PBUF\000"
 12883      5F465241 
 12883      475F5042 
 12883      554600
 12884              	.LASF196:
 12885 0c33 73737468 		.ascii	"ssthresh\000"
 12885      72657368 
 12885      00
 12886              	.LASF299:
 12887 0c3c 666F756E 		.ascii	"found_dupack\000"
 12887      645F6475 
 12887      7061636B 
 12887      00
 12888              	.LASF285:
 12889 0c49 6D656D70 		.ascii	"memp\000"
 12889      00
 12890              	.LASF243:
 12891 0c4e 5F686472 		.ascii	"_hdrlen_rsvd_flags\000"
 12891      6C656E5F 
 12891      72737664 
 12891      5F666C61 
 12891      677300
 12892              	.LASF266:
 12893 0c61 6C656E65 		.ascii	"lenerr\000"
 12893      727200
 12894              	.LASF35:
 12895 0c68 705F7072 		.ascii	"p_prev\000"
 12895      657600
 12896              	.LASF165:
 12897 0c6f 5F746F73 		.ascii	"_tos\000"
 12897      00
 12898              	.LASF89:
 12899 0c74 73697A65 		.ascii	"sizetype\000"
 12899      74797065 
 12899      00
 12900              	.LASF27:
 12901 0c7d 74726566 		.ascii	"trefs_t\000"
 12901      735F7400 
 12902              	.LASF13:
ARM GAS  C:\Users\jo\AppData\Local\Temp\ccfChKJS.s 			page 239


 12903 0c85 6C6F6E67 		.ascii	"long unsigned int\000"
 12903      20756E73 
 12903      69676E65 
 12903      6420696E 
 12903      7400
 12904              	.LASF46:
 12905 0c97 705F6D73 		.ascii	"p_msgqueue\000"
 12905      67717565 
 12905      756500
 12906              	.LASF49:
 12907 0ca2 705F6D74 		.ascii	"p_mtxlist\000"
 12907      786C6973 
 12907      7400
 12908              	.LASF58:
 12909 0cac 72656164 		.ascii	"ready_list_t\000"
 12909      795F6C69 
 12909      73745F74 
 12909      00
 12910              	.LASF318:
 12911 0cb9 72656376 		.ascii	"recv_data\000"
 12911      5F646174 
 12911      6100
 12912              	.LASF238:
 12913 0cc3 74637068 		.ascii	"tcphdr\000"
 12913      647200
 12914              	.LASF135:
 12915 0cca 7331365F 		.ascii	"s16_t\000"
 12915      7400
 12916              	.LASF21:
 12917 0cd0 696E7433 		.ascii	"int32_t\000"
 12917      325F7400 
 12918              	.LASF294:
 12919 0cd8 7463705F 		.ascii	"tcp_receive\000"
 12919      72656365 
 12919      69766500 
 12920              	.LASF210:
 12921 0ce4 72656675 		.ascii	"refused_data\000"
 12921      7365645F 
 12921      64617461 
 12921      00
 12922              	.LASF82:
 12923 0cf1 74726163 		.ascii	"trace_buffer\000"
 12923      655F6275 
 12923      66666572 
 12923      00
 12924              	.LASF269:
 12925 0cfe 70726F74 		.ascii	"proterr\000"
 12925      65727200 
 12926              	.LASF109:
 12927 0d06 77747365 		.ascii	"wtsemp\000"
 12927      6D7000
 12928              	.LASF234:
 12929 0d0d 4C415354 		.ascii	"LAST_ACK\000"
 12929      5F41434B 
 12929      00
 12930              	.LASF98:
 12931 0d16 63685F73 		.ascii	"ch_swc_event_t\000"
ARM GAS  C:\Users\jo\AppData\Local\Temp\ccfChKJS.s 			page 240


 12931      77635F65 
 12931      76656E74 
 12931      5F7400
 12932              	.LASF120:
 12933 0d25 6D757465 		.ascii	"mutex_t\000"
 12933      785F7400 
 12934              	.LASF240:
 12935 0d2d 7463705F 		.ascii	"tcp_hdr\000"
 12935      68647200 
 12936              	.LASF73:
 12937 0d35 76745F70 		.ascii	"vt_par\000"
 12937      617200
 12938              	.LASF144:
 12939 0d3c 74797065 		.ascii	"type\000"
 12939      00
 12940              	.LASF277:
 12941 0d41 73746174 		.ascii	"stats_sys\000"
 12941      735F7379 
 12941      7300
 12942              	.LASF5:
 12943 0d4b 756E7369 		.ascii	"unsigned char\000"
 12943      676E6564 
 12943      20636861 
 12943      7200
 12944              	.LASF90:
 12945 0d59 72656761 		.ascii	"regarm_t\000"
 12945      726D5F74 
 12945      00
 12946              	.LASF230:
 12947 0d62 46494E5F 		.ascii	"FIN_WAIT_1\000"
 12947      57414954 
 12947      5F3100
 12948              	.LASF231:
 12949 0d6d 46494E5F 		.ascii	"FIN_WAIT_2\000"
 12949      57414954 
 12949      5F3200
 12950              	.LASF74:
 12951 0d78 76697274 		.ascii	"virtual_timers_list_t\000"
 12951      75616C5F 
 12951      74696D65 
 12951      72735F6C 
 12951      6973745F 
 12952              	.LASF267:
 12953 0d8e 6D656D65 		.ascii	"memerr\000"
 12953      727200
 12954              	.LASF251:
 12955 0d95 4D454D50 		.ascii	"MEMP_TCP_SEG\000"
 12955      5F544350 
 12955      5F534547 
 12955      00
 12956              	.LASF140:
 12957 0da2 70627566 		.ascii	"pbuf\000"
 12957      00
 12958              	.LASF150:
 12959 0da7 69705F61 		.ascii	"ip_addr_p_t\000"
 12959      6464725F 
 12959      705F7400 
ARM GAS  C:\Users\jo\AppData\Local\Temp\ccfChKJS.s 			page 241


 12960              	.LASF216:
 12961 0db3 6B656570 		.ascii	"keep_idle\000"
 12961      5F69646C 
 12961      6500
 12962              	.LASF286:
 12963 0dbd 6D61785F 		.ascii	"max_c\000"
 12963      6300
 12964              	.LASF177:
 12965 0dc3 63616C6C 		.ascii	"callback_arg\000"
 12965      6261636B 
 12965      5F617267 
 12965      00
 12966              	.LASF301:
 12967 0dd0 6F6C645F 		.ascii	"old_ooseq\000"
 12967      6F6F7365 
 12967      7100
 12968              	.LASF226:
 12969 0dda 4C495354 		.ascii	"LISTEN\000"
 12969      454E00
 12970              	.LASF147:
 12971 0de1 61646472 		.ascii	"addr\000"
 12971      00
 12972              	.LASF44:
 12973 0de6 705F7265 		.ascii	"p_refs\000"
 12973      667300
 12974              	.LASF264:
 12975 0ded 64726F70 		.ascii	"drop\000"
 12975      00
 12976              	.LASF156:
 12977 0df2 73746174 		.ascii	"state\000"
 12977      6500
 12978              	.LASF143:
 12979 0df8 746F745F 		.ascii	"tot_len\000"
 12979      6C656E00 
 12980              	.LASF337:
 12981 0e00 63685379 		.ascii	"chSysHalt\000"
 12981      7348616C 
 12981      7400
 12982              	.LASF69:
 12983 0e0a 76745F6E 		.ascii	"vt_next\000"
 12983      65787400 
 12984              	.LASF23:
 12985 0e12 75696E74 		.ascii	"uint64_t\000"
 12985      36345F74 
 12985      00
 12986              	.LASF151:
 12987 0e1b 6E657469 		.ascii	"netif\000"
 12987      6600
 12988              	.LASF51:
 12989 0e21 705F6D70 		.ascii	"p_mpool\000"
 12989      6F6F6C00 
 12990              	.LASF205:
 12991 0e29 736E645F 		.ascii	"snd_queuelen\000"
 12991      71756575 
 12991      656C656E 
 12991      00
 12992              	.LASF83:
ARM GAS  C:\Users\jo\AppData\Local\Temp\ccfChKJS.s 			page 242


 12993 0e36 63685F73 		.ascii	"ch_system_t\000"
 12993      79737465 
 12993      6D5F7400 
 12994              	.LASF310:
 12995 0e42 6C706362 		.ascii	"lpcb\000"
 12995      00
 12996              	.LASF108:
 12997 0e47 77747472 		.ascii	"wttrp\000"
 12997      7000
 12998              	.LASF315:
 12999 0e4d 69706864 		.ascii	"iphdr\000"
 12999      7200
 13000              	.LASF129:
 13001 0e53 5F5F7661 		.ascii	"__va_list\000"
 13001      5F6C6973 
 13001      7400
 13002              	.LASF212:
 13003 0e5d 72656376 		.ascii	"recv\000"
 13003      00
 13004              	.LASF102:
 13005 0e62 63685F74 		.ascii	"ch_trace_buffer_t\000"
 13005      72616365 
 13005      5F627566 
 13005      6665725F 
 13005      7400
 13006              	.LASF118:
 13007 0e74 6D5F6E65 		.ascii	"m_next\000"
 13007      787400
 13008              	.LASF311:
 13009 0e7b 6864726C 		.ascii	"hdrlen\000"
 13009      656E00
 13010              	.LASF3:
 13011 0e82 7369676E 		.ascii	"signed char\000"
 13011      65642063 
 13011      68617200 
 13012              	.LASF173:
 13013 0e8e 7463705F 		.ascii	"tcp_pcb\000"
 13013      70636200 
 13014              	.LASF9:
 13015 0e96 73686F72 		.ascii	"short unsigned int\000"
 13015      7420756E 
 13015      7369676E 
 13015      65642069 
 13015      6E7400
 13016              	.LASF62:
 13017 0ea9 725F6374 		.ascii	"r_ctx\000"
 13017      7800
 13018              	.LASF91:
 13019 0eaf 73746B61 		.ascii	"stkalign_t\000"
 13019      6C69676E 
 13019      5F7400
 13020              	.LASF2:
 13021 0eba 5F5F696E 		.ascii	"__int8_t\000"
 13021      74385F74 
 13021      00
 13022              	.LASF263:
 13023 0ec3 786D6974 		.ascii	"xmit\000"
ARM GAS  C:\Users\jo\AppData\Local\Temp\ccfChKJS.s 			page 243


 13023      00
 13024              	.LASF201:
 13025 0ec8 736E645F 		.ascii	"snd_wnd\000"
 13025      776E6400 
 13026              	.LASF217:
 13027 0ed0 70657273 		.ascii	"persist_cnt\000"
 13027      6973745F 
 13027      636E7400 
 13028              	.LASF322:
 13029 0edc 63757272 		.ascii	"current_iphdr_dest\000"
 13029      656E745F 
 13029      69706864 
 13029      725F6465 
 13029      737400
 13030              	.LASF175:
 13031 0eef 72656D6F 		.ascii	"remote_ip\000"
 13031      74655F69 
 13031      7000
 13032              	.LASF72:
 13033 0ef9 76745F66 		.ascii	"vt_func\000"
 13033      756E6300 
 13034              	.LASF328:
 13035 0f01 7463705F 		.ascii	"tcp_tw_pcbs\000"
 13035      74775F70 
 13035      63627300 
 13036              	.LASF353:
 13037 0f0d 7463705F 		.ascii	"tcp_abandon\000"
 13037      6162616E 
 13037      646F6E00 
 13038              	.LASF345:
 13039 0f19 7463705F 		.ascii	"tcp_rexmit_fast\000"
 13039      7265786D 
 13039      69745F66 
 13039      61737400 
 13040              	.LASF291:
 13041 0f29 666F726D 		.ascii	"formatted_bytes\000"
 13041      61747465 
 13041      645F6279 
 13041      74657300 
 13042              	.LASF166:
 13043 0f39 5F6C656E 		.ascii	"_len\000"
 13043      00
 13044              	.LASF149:
 13045 0f3e 69705F61 		.ascii	"ip_addr_t\000"
 13045      6464725F 
 13045      7400
 13046              	.LASF335:
 13047 0f48 7463705F 		.ascii	"tcp_segs_free\000"
 13047      73656773 
 13047      5F667265 
 13047      6500
 13048              	.LASF344:
 13049 0f56 70627566 		.ascii	"pbuf_cat\000"
 13049      5F636174 
 13049      00
 13050              	.LASF351:
 13051 0f5f 7463705F 		.ascii	"tcp_alloc\000"
ARM GAS  C:\Users\jo\AppData\Local\Temp\ccfChKJS.s 			page 244


 13051      616C6C6F 
 13051      6300
 13052              	.LASF288:
 13053 0f69 7463705F 		.ascii	"tcp_parseopt\000"
 13053      70617273 
 13053      656F7074 
 13053      00
 13054              	.LASF327:
 13055 0f76 7463705F 		.ascii	"tcp_active_pcbs\000"
 13055      61637469 
 13055      76655F70 
 13055      63627300 
 13056              	.LASF182:
 13057 0f86 706F6C6C 		.ascii	"polltmr\000"
 13057      746D7200 
 13058              	.LASF304:
 13059 0f8e 7463705F 		.ascii	"tcp_listen_input\000"
 13059      6C697374 
 13059      656E5F69 
 13059      6E707574 
 13059      00
 13060              	.LASF110:
 13061 0f9f 77746D74 		.ascii	"wtmtxp\000"
 13061      787000
 13062              	.LASF192:
 13063 0fa6 6E727478 		.ascii	"nrtx\000"
 13063      00
 13064              	.LASF155:
 13065 0fab 6C696E6B 		.ascii	"linkoutput\000"
 13065      6F757470 
 13065      757400
 13066              	.LASF171:
 13067 0fb6 64657374 		.ascii	"dest\000"
 13067      00
 13068              	.LASF106:
 13069 0fbb 65786974 		.ascii	"exitcode\000"
 13069      636F6465 
 13069      00
 13070              	.LASF228:
 13071 0fc4 53594E5F 		.ascii	"SYN_RCVD\000"
 13071      52435644 
 13071      00
 13072              	.LASF146:
 13073 0fcd 69705F61 		.ascii	"ip_addr\000"
 13073      64647200 
 13074              	.LASF247:
 13075 0fd5 70636273 		.ascii	"pcbs\000"
 13075      00
 13076              	.LASF324:
 13077 0fda 7463705F 		.ascii	"tcp_ticks\000"
 13077      7469636B 
 13077      7300
 13078              		.ident	"GCC: (GNU Tools for ARM Embedded Processors) 4.9.3 20141119 (release) [ARM/embedded-4_9-br
ARM GAS  C:\Users\jo\AppData\Local\Temp\ccfChKJS.s 			page 245


DEFINED SYMBOLS
                            *ABS*:00000000 tcp_in.c
C:\Users\jo\AppData\Local\Temp\ccfChKJS.s:19     .text.tcp_oos_insert_segment:00000000 $t
C:\Users\jo\AppData\Local\Temp\ccfChKJS.s:24     .text.tcp_oos_insert_segment:00000000 tcp_oos_insert_segment
C:\Users\jo\AppData\Local\Temp\ccfChKJS.s:160    .text.tcp_oos_insert_segment:000000b0 $d
C:\Users\jo\AppData\Local\Temp\ccfChKJS.s:165    .text.tcp_parseopt.isra.0:00000000 $t
C:\Users\jo\AppData\Local\Temp\ccfChKJS.s:170    .text.tcp_parseopt.isra.0:00000000 tcp_parseopt.isra.0
C:\Users\jo\AppData\Local\Temp\ccfChKJS.s:295    .text.tcp_parseopt.isra.0:0000008c $d
C:\Users\jo\AppData\Local\Temp\ccfChKJS.s:300    .text.chprintf.constprop.1:00000000 $t
C:\Users\jo\AppData\Local\Temp\ccfChKJS.s:305    .text.chprintf.constprop.1:00000000 chprintf.constprop.1
C:\Users\jo\AppData\Local\Temp\ccfChKJS.s:351    .text.chprintf.constprop.1:00000020 $d
C:\Users\jo\AppData\Local\Temp\ccfChKJS.s:357    .text.tcp_receive:00000000 $t
C:\Users\jo\AppData\Local\Temp\ccfChKJS.s:362    .text.tcp_receive:00000000 tcp_receive
C:\Users\jo\AppData\Local\Temp\ccfChKJS.s:899    .text.tcp_receive:000002e8 $d
C:\Users\jo\AppData\Local\Temp\ccfChKJS.s:915    .text.tcp_receive:0000031c $t
C:\Users\jo\AppData\Local\Temp\ccfChKJS.s:1416   .text.tcp_receive:00000620 $d
C:\Users\jo\AppData\Local\Temp\ccfChKJS.s:1429   .text.tcp_receive:00000648 $t
C:\Users\jo\AppData\Local\Temp\ccfChKJS.s:1887   .text.tcp_receive:00000918 $d
C:\Users\jo\AppData\Local\Temp\ccfChKJS.s:1899   .text.tcp_receive:0000093c $t
C:\Users\jo\AppData\Local\Temp\ccfChKJS.s:2215   .text.tcp_receive:00000b18 $d
C:\Users\jo\AppData\Local\Temp\ccfChKJS.s:2231   .text.tcp_input:00000000 $t
C:\Users\jo\AppData\Local\Temp\ccfChKJS.s:2237   .text.tcp_input:00000000 tcp_input
C:\Users\jo\AppData\Local\Temp\ccfChKJS.s:2698   .text.tcp_input:00000288 $d
C:\Users\jo\AppData\Local\Temp\ccfChKJS.s:2721   .text.tcp_input:000002dc $t
C:\Users\jo\AppData\Local\Temp\ccfChKJS.s:3120   .text.tcp_input:00000538 $d
C:\Users\jo\AppData\Local\Temp\ccfChKJS.s:3128   .text.tcp_input:00000540 $t
C:\Users\jo\AppData\Local\Temp\ccfChKJS.s:3184   .text.tcp_input:000005ac $d
C:\Users\jo\AppData\Local\Temp\ccfChKJS.s:3199   .text.tcp_input:000005e0 $t
C:\Users\jo\AppData\Local\Temp\ccfChKJS.s:3608   .text.tcp_input:0000085c $d
C:\Users\jo\AppData\Local\Temp\ccfChKJS.s:3625   .text.tcp_input:0000088c $t
C:\Users\jo\AppData\Local\Temp\ccfChKJS.s:4062   .text.tcp_input:00000ae4 $d
C:\Users\jo\AppData\Local\Temp\ccfChKJS.s:4215   .bss.tcp_input_pcb:00000000 tcp_input_pcb
C:\Users\jo\AppData\Local\Temp\ccfChKJS.s:4086   .bss.seqno:00000000 $d
C:\Users\jo\AppData\Local\Temp\ccfChKJS.s:4090   .bss.seqno:00000000 seqno
C:\Users\jo\AppData\Local\Temp\ccfChKJS.s:4093   .bss.iphdr:00000000 $d
C:\Users\jo\AppData\Local\Temp\ccfChKJS.s:4097   .bss.iphdr:00000000 iphdr
C:\Users\jo\AppData\Local\Temp\ccfChKJS.s:4100   .bss.tcplen:00000000 $d
C:\Users\jo\AppData\Local\Temp\ccfChKJS.s:4104   .bss.tcplen:00000000 tcplen
C:\Users\jo\AppData\Local\Temp\ccfChKJS.s:4107   .bss.ackno:00000000 $d
C:\Users\jo\AppData\Local\Temp\ccfChKJS.s:4111   .bss.ackno:00000000 ackno
C:\Users\jo\AppData\Local\Temp\ccfChKJS.s:4117   .bss.flags:00000000 flags
C:\Users\jo\AppData\Local\Temp\ccfChKJS.s:4118   .bss.flags:00000000 $d
C:\Users\jo\AppData\Local\Temp\ccfChKJS.s:4123   .bss.recv_flags:00000000 recv_flags
C:\Users\jo\AppData\Local\Temp\ccfChKJS.s:4124   .bss.recv_flags:00000000 $d
C:\Users\jo\AppData\Local\Temp\ccfChKJS.s:4126   .bss.tcphdr:00000000 $d
C:\Users\jo\AppData\Local\Temp\ccfChKJS.s:4130   .bss.tcphdr:00000000 tcphdr
C:\Users\jo\AppData\Local\Temp\ccfChKJS.s:4133   .bss.recv_data:00000000 $d
C:\Users\jo\AppData\Local\Temp\ccfChKJS.s:4137   .bss.recv_data:00000000 recv_data
C:\Users\jo\AppData\Local\Temp\ccfChKJS.s:4140   .rodata.str1.4:00000000 $d
C:\Users\jo\AppData\Local\Temp\ccfChKJS.s:4204   .bss.inseg:00000000 $d
C:\Users\jo\AppData\Local\Temp\ccfChKJS.s:4208   .bss.inseg:00000000 inseg
C:\Users\jo\AppData\Local\Temp\ccfChKJS.s:4211   .bss.tcp_input_pcb:00000000 $d
                     .debug_frame:00000010 $d
C:\Users\jo\AppData\Local\Temp\ccfChKJS.s:164    .text.tcp_oos_insert_segment:000000b4 $t
C:\Users\jo\AppData\Local\Temp\ccfChKJS.s:356    .text.chprintf.constprop.1:00000028 $t
C:\Users\jo\AppData\Local\Temp\ccfChKJS.s:2230   .text.tcp_receive:00000b48 $t
C:\Users\jo\AppData\Local\Temp\ccfChKJS.s:4085   .text.tcp_input:00000b28 $t
ARM GAS  C:\Users\jo\AppData\Local\Temp\ccfChKJS.s 			page 246



UNDEFINED SYMBOLS
lwip_ntohs
tcp_seg_free
lwip_htons
pbuf_realloc
tcp_segs_free
chvprintf
itm_port
lwip_ntohl
pbuf_clen
tcp_send_empty_ack
chSysHalt
tcp_seg_copy
tcp_ticks
pbuf_header
tcp_update_rcv_ann_wnd
pbuf_cat
tcp_rexmit_fast
pbuf_free
ip4_addr_isbroadcast
inet_chksum_pseudo
tcp_process_refused_data
lwip_stats
current_iphdr_src
tcp_active_pcbs
tcp_tw_pcbs
current_iphdr_dest
tcp_pcb_remove
free
tcp_alloc
tcp_timer_needed
tcp_eff_send_mss
tcp_enqueue_flags
tcp_output
tcp_pcb_purge
tcp_active_pcbs_changed
tcp_tmp_pcb
tcp_listen_pcbs
tcp_rst
tcp_recv_null
tcp_abort
tcp_rexmit
tcp_abandon
