ARM GAS  C:\Users\jo\AppData\Local\Temp\ccfChKJS.s 			page 1


   1              		.syntax unified
   2              		.cpu cortex-m4
   3              		.fpu softvfp
   4              		.eabi_attribute 20, 1
   5              		.eabi_attribute 21, 1
   6              		.eabi_attribute 23, 3
   7              		.eabi_attribute 24, 1
   8              		.eabi_attribute 25, 1
   9              		.eabi_attribute 26, 1
  10              		.eabi_attribute 30, 2
  11              		.eabi_attribute 34, 1
  12              		.eabi_attribute 18, 4
  13              		.thumb
  14              		.file	"tcp_in.c"
  15              		.text
  16              	.Ltext0:
  17              		.cfi_sections	.debug_frame
  18              		.section	.text.tcp_oos_insert_segment,"ax",%progbits
  19              		.align	2
  20              		.p2align 4,,15
  21              		.thumb
  22              		.thumb_func
  23              		.type	tcp_oos_insert_segment, %function
  24              	tcp_oos_insert_segment:
  25              	.LFB264:
  26              		.file 1 "../../../ext/lwip/src/core/tcp_in.c"
  27              		.loc 1 801 0
  28              		.cfi_startproc
  29              		@ args = 0, pretend = 0, frame = 0
  30              		@ frame_needed = 0, uses_anonymous_args = 0
  31              	.LVL0:
  32 0000 2DE9F041 		push	{r4, r5, r6, r7, r8, lr}
  33              		.cfi_def_cfa_offset 24
  34              		.cfi_offset 4, -24
  35              		.cfi_offset 5, -20
  36              		.cfi_offset 6, -16
  37              		.cfi_offset 7, -12
  38              		.cfi_offset 8, -8
  39              		.cfi_offset 14, -4
  40              		.loc 1 804 0
  41 0004 0369     		ldr	r3, [r0, #16]
  42              		.loc 1 801 0
  43 0006 0546     		mov	r5, r0
  44              		.loc 1 804 0
  45 0008 9889     		ldrh	r0, [r3, #12]	@ unaligned
  46              	.LVL1:
  47              		.loc 1 801 0
  48 000a 0F46     		mov	r7, r1
  49              		.loc 1 804 0
  50 000c FFF7FEFF 		bl	lwip_ntohs
  51              	.LVL2:
  52 0010 C207     		lsls	r2, r0, #31
  53 0012 48D4     		bmi	.L2
  54              		.loc 1 812 0
  55 0014 002F     		cmp	r7, #0
  56 0016 36D0     		beq	.L20
  57              		.loc 1 813 0
ARM GAS  C:\Users\jo\AppData\Local\Temp\ccfChKJS.s 			page 2


  58 0018 3969     		ldr	r1, [r7, #16]
  59 001a 254E     		ldr	r6, .L23
  60 001c D1F804E0 		ldr	lr, [r1, #4]	@ unaligned
  61 0020 2B89     		ldrh	r3, [r5, #8]
  62 0022 3068     		ldr	r0, [r6]
  63 0024 3A89     		ldrh	r2, [r7, #8]
  64 0026 CEEB0303 		rsb	r3, lr, r3
  65 002a 0344     		add	r3, r3, r0
  66 002c 9A1A     		subs	r2, r3, r2
  67              		.loc 1 812 0
  68 002e 002A     		cmp	r2, #0
  69 0030 B8BF     		it	lt
  70 0032 3C46     		movlt	r4, r7
  71 0034 12DA     		bge	.L9
  72 0036 2AE0     		b	.L6
  73              	.L7:
  74              	.LVL3:
  75              		.loc 1 820 0
  76 0038 3C68     		ldr	r4, [r7]
  77              	.LVL4:
  78              		.loc 1 821 0
  79 003a 3846     		mov	r0, r7
  80 003c FFF7FEFF 		bl	tcp_seg_free
  81              	.LVL5:
  82              		.loc 1 812 0
  83 0040 0CB3     		cbz	r4, .L20
  84              	.L22:
  85              		.loc 1 813 0 discriminator 1
  86 0042 2169     		ldr	r1, [r4, #16]
  87 0044 2B89     		ldrh	r3, [r5, #8]
  88 0046 D1F804E0 		ldr	lr, [r1, #4]	@ unaligned
  89 004a 3068     		ldr	r0, [r6]
  90 004c 2289     		ldrh	r2, [r4, #8]
  91 004e CEEB0303 		rsb	r3, lr, r3
  92 0052 0344     		add	r3, r3, r0
  93 0054 9A1A     		subs	r2, r3, r2
  94              		.loc 1 812 0 discriminator 1
  95 0056 002A     		cmp	r2, #0
  96 0058 19DB     		blt	.L6
  97 005a 2746     		mov	r7, r4
  98              	.LVL6:
  99              	.L9:
 100              		.loc 1 816 0
 101 005c 8889     		ldrh	r0, [r1, #12]	@ unaligned
 102 005e FFF7FEFF 		bl	lwip_ntohs
 103              	.LVL7:
 104 0062 C307     		lsls	r3, r0, #31
 105 0064 E8D5     		bpl	.L7
 106              		.loc 1 817 0
 107 0066 D5F81080 		ldr	r8, [r5, #16]
 108 006a 0120     		movs	r0, #1
 109 006c B8F80C40 		ldrh	r4, [r8, #12]	@ unaligned
 110 0070 FFF7FEFF 		bl	lwip_htons
 111              	.LVL8:
 112 0074 2043     		orrs	r0, r0, r4
 113              		.loc 1 820 0
 114 0076 3C68     		ldr	r4, [r7]
ARM GAS  C:\Users\jo\AppData\Local\Temp\ccfChKJS.s 			page 3


 115              		.loc 1 817 0
 116 0078 A8F80C00 		strh	r0, [r8, #12]	@ unaligned
 117              	.LVL9:
 118              		.loc 1 821 0
 119 007c 3846     		mov	r0, r7
 120 007e FFF7FEFF 		bl	tcp_seg_free
 121              	.LVL10:
 122              		.loc 1 812 0
 123 0082 002C     		cmp	r4, #0
 124 0084 DDD1     		bne	.L22
 125              	.LVL11:
 126              	.L20:
 127              		.loc 1 807 0
 128 0086 0024     		movs	r4, #0
 129              	.LVL12:
 130              	.L4:
 131              		.loc 1 830 0
 132 0088 2C60     		str	r4, [r5]
 133 008a BDE8F081 		pop	{r4, r5, r6, r7, r8, pc}
 134              	.LVL13:
 135              	.L6:
 136              		.loc 1 823 0
 137 008e 002B     		cmp	r3, #0
 138 0090 FADD     		ble	.L4
 139              		.loc 1 826 0
 140 0092 C0EB0E00 		rsb	r0, r0, lr
 141 0096 81B2     		uxth	r1, r0
 142 0098 2981     		strh	r1, [r5, #8]	@ movhi
 143              		.loc 1 827 0
 144 009a 6868     		ldr	r0, [r5, #4]
 145 009c FFF7FEFF 		bl	pbuf_realloc
 146              	.LVL14:
 147              		.loc 1 830 0
 148 00a0 2C60     		str	r4, [r5]
 149 00a2 BDE8F081 		pop	{r4, r5, r6, r7, r8, pc}
 150              	.LVL15:
 151              	.L2:
 152              		.loc 1 806 0
 153 00a6 3846     		mov	r0, r7
 154 00a8 FFF7FEFF 		bl	tcp_segs_free
 155              	.LVL16:
 156 00ac EBE7     		b	.L20
 157              	.L24:
 158 00ae 00BF     		.align	2
 159              	.L23:
 160 00b0 00000000 		.word	.LANCHOR0
 161              		.cfi_endproc
 162              	.LFE264:
 163              		.size	tcp_oos_insert_segment, .-tcp_oos_insert_segment
 164 00b4 AFF30080 		.section	.text.tcp_parseopt.isra.0,"ax",%progbits
 164      AFF30080 
 164      AFF30080 
 165              		.align	2
 166              		.p2align 4,,15
 167              		.thumb
 168              		.thumb_func
 169              		.type	tcp_parseopt.isra.0, %function
ARM GAS  C:\Users\jo\AppData\Local\Temp\ccfChKJS.s 			page 4


 170              	tcp_parseopt.isra.0:
 171              	.LFB267:
 172              		.loc 1 1542 0
 173              		.cfi_startproc
 174              		@ args = 0, pretend = 0, frame = 0
 175              		@ frame_needed = 0, uses_anonymous_args = 0
 176              	.LVL17:
 177 0000 F8B5     		push	{r3, r4, r5, r6, r7, lr}
 178              		.cfi_def_cfa_offset 24
 179              		.cfi_offset 3, -24
 180              		.cfi_offset 4, -20
 181              		.cfi_offset 5, -16
 182              		.cfi_offset 6, -12
 183              		.cfi_offset 7, -8
 184              		.cfi_offset 14, -4
 185              		.loc 1 1551 0
 186 0002 224C     		ldr	r4, .L50
 187 0004 2568     		ldr	r5, [r4]
 188              	.LVL18:
 189              		.loc 1 1542 0
 190 0006 0646     		mov	r6, r0
 191              		.loc 1 1554 0
 192 0008 A889     		ldrh	r0, [r5, #12]	@ unaligned
 193 000a FFF7FEFF 		bl	lwip_ntohs
 194              	.LVL19:
 195 000e C0F30F30 		ubfx	r0, r0, #12, #16
 196 0012 0528     		cmp	r0, #5
 197 0014 00D8     		bhi	.L47
 198              	.LVL20:
 199              	.L25:
 200 0016 F8BD     		pop	{r3, r4, r5, r6, r7, pc}
 201              	.LVL21:
 202              	.L47:
 203              		.loc 1 1555 0
 204 0018 2368     		ldr	r3, [r4]
 205 001a 9889     		ldrh	r0, [r3, #12]	@ unaligned
 206 001c FFF7FEFF 		bl	lwip_ntohs
 207              	.LVL22:
 208 0020 000B     		lsrs	r0, r0, #12
 209 0022 0538     		subs	r0, r0, #5
 210 0024 8000     		lsls	r0, r0, #2
 211 0026 80B2     		uxth	r0, r0
 212              	.LVL23:
 213              		.loc 1 1556 0
 214 0028 0028     		cmp	r0, #0
 215 002a F4D0     		beq	.L25
 216              		.loc 1 1551 0
 217 002c 05F11402 		add	r2, r5, #20
 218 0030 0023     		movs	r3, #0
 219              		.loc 1 1578 0
 220 0032 40F2B357 		movw	r7, #1459
 221              		.loc 1 1558 0
 222 0036 D15C     		ldrb	r1, [r2, r3]	@ zero_extendqisi2
 223 0038 0129     		cmp	r1, #1
 224              		.loc 1 1578 0
 225 003a 40F2B455 		movw	r5, #1460
 226              	.LVL24:
ARM GAS  C:\Users\jo\AppData\Local\Temp\ccfChKJS.s 			page 5


 227              		.loc 1 1558 0
 228 003e 1BD0     		beq	.L30
 229              	.LVL25:
 230              	.L49:
 231 0040 E9D3     		bcc	.L25
 232 0042 0229     		cmp	r1, #2
 233 0044 1BD1     		bne	.L48
 234              		.loc 1 1570 0
 235 0046 D418     		adds	r4, r2, r3
 236 0048 6178     		ldrb	r1, [r4, #1]	@ zero_extendqisi2
 237 004a 0429     		cmp	r1, #4
 238 004c E3D1     		bne	.L25
 239 004e D91C     		adds	r1, r3, #3
 240 0050 8142     		cmp	r1, r0
 241 0052 E0DA     		bge	.L25
 242              		.loc 1 1576 0
 243 0054 94F802E0 		ldrb	lr, [r4, #2]	@ zero_extendqisi2
 244 0058 E178     		ldrb	r1, [r4, #3]	@ zero_extendqisi2
 245 005a 41EA0E21 		orr	r1, r1, lr, lsl #8
 246              	.LVL26:
 247              		.loc 1 1578 0
 248 005e 4C1E     		subs	r4, r1, #1
 249 0060 A4B2     		uxth	r4, r4
 250              		.loc 1 1580 0
 251 0062 0433     		adds	r3, r3, #4
 252              	.LVL27:
 253              		.loc 1 1578 0
 254 0064 BC42     		cmp	r4, r7
 255 0066 88BF     		it	hi
 256 0068 2946     		movhi	r1, r5
 257              	.LVL28:
 258              		.loc 1 1580 0
 259 006a 9BB2     		uxth	r3, r3
 260              	.LVL29:
 261              		.loc 1 1578 0
 262 006c 3180     		strh	r1, [r6]	@ movhi
 263              	.L32:
 264              		.loc 1 1556 0
 265 006e 9842     		cmp	r0, r3
 266 0070 D1D9     		bls	.L25
 267              	.LVL30:
 268              		.loc 1 1558 0
 269 0072 D15C     		ldrb	r1, [r2, r3]	@ zero_extendqisi2
 270 0074 0129     		cmp	r1, #1
 271 0076 E3D1     		bne	.L49
 272              	.LVL31:
 273              	.L30:
 274              		.loc 1 1565 0
 275 0078 0133     		adds	r3, r3, #1
 276              	.LVL32:
 277 007a 9BB2     		uxth	r3, r3
 278              	.LVL33:
 279 007c F7E7     		b	.L32
 280              	.L48:
 281              		.loc 1 1605 0
 282 007e D118     		adds	r1, r2, r3
 283 0080 4978     		ldrb	r1, [r1, #1]	@ zero_extendqisi2
ARM GAS  C:\Users\jo\AppData\Local\Temp\ccfChKJS.s 			page 6


 284 0082 0029     		cmp	r1, #0
 285 0084 C7D0     		beq	.L25
 286              		.loc 1 1613 0
 287 0086 0B44     		add	r3, r3, r1
 288              	.LVL34:
 289 0088 9BB2     		uxth	r3, r3
 290              	.LVL35:
 291 008a F0E7     		b	.L32
 292              	.L51:
 293              		.align	2
 294              	.L50:
 295 008c 00000000 		.word	.LANCHOR1
 296              		.cfi_endproc
 297              	.LFE267:
 298              		.size	tcp_parseopt.isra.0, .-tcp_parseopt.isra.0
 299              		.section	.text.chprintf.constprop.1,"ax",%progbits
 300              		.align	2
 301              		.p2align 4,,15
 302              		.thumb
 303              		.thumb_func
 304              		.type	chprintf.constprop.1, %function
 305              	chprintf.constprop.1:
 306              	.LFB268:
 307              		.file 2 "../../../os/hal/lib/streams/chprintf.h"
 308              		.loc 2 69 0
 309              		.cfi_startproc
 310              		@ args = 4, pretend = 12, frame = 8
 311              		@ frame_needed = 0, uses_anonymous_args = 1
 312              	.LVL36:
 313 0000 0EB4     		push	{r1, r2, r3}
 314              		.cfi_def_cfa_offset 12
 315              		.cfi_offset 1, -12
 316              		.cfi_offset 2, -8
 317              		.cfi_offset 3, -4
 318 0002 00B5     		push	{lr}
 319              		.cfi_def_cfa_offset 16
 320              		.cfi_offset 14, -16
 321 0004 82B0     		sub	sp, sp, #8
 322              		.cfi_def_cfa_offset 24
 323              		.loc 2 73 0
 324 0006 04AB     		add	r3, sp, #16
 325              		.loc 2 74 0
 326 0008 1A46     		mov	r2, r3
 327 000a 0549     		ldr	r1, .L54
 328 000c 0548     		ldr	r0, .L54+4
 329              	.LVL37:
 330              		.loc 2 73 0
 331 000e 0193     		str	r3, [sp, #4]
 332              		.loc 2 74 0
 333 0010 FFF7FEFF 		bl	chvprintf
 334              	.LVL38:
 335              		.loc 2 78 0
 336 0014 02B0     		add	sp, sp, #8
 337              		.cfi_def_cfa_offset 16
 338              		@ sp needed
 339 0016 5DF804EB 		ldr	lr, [sp], #4
 340              		.cfi_restore 14
ARM GAS  C:\Users\jo\AppData\Local\Temp\ccfChKJS.s 			page 7


 341              		.cfi_def_cfa_offset 12
 342 001a 03B0     		add	sp, sp, #12
 343              		.cfi_restore 3
 344              		.cfi_restore 2
 345              		.cfi_restore 1
 346              		.cfi_def_cfa_offset 0
 347 001c 7047     		bx	lr
 348              	.L55:
 349 001e 00BF     		.align	2
 350              	.L54:
 351 0020 00000000 		.word	.LC0
 352 0024 00000000 		.word	itm_port
 353              		.cfi_endproc
 354              	.LFE268:
 355              		.size	chprintf.constprop.1, .-chprintf.constprop.1
 356 0028 AFF30080 		.section	.text.tcp_receive,"ax",%progbits
 356      AFF30080 
 357              		.align	2
 358              		.p2align 4,,15
 359              		.thumb
 360              		.thumb_func
 361              		.type	tcp_receive, %function
 362              	tcp_receive:
 363              	.LFB265:
 364              		.loc 1 848 0
 365              		.cfi_startproc
 366              		@ args = 0, pretend = 0, frame = 8
 367              		@ frame_needed = 0, uses_anonymous_args = 0
 368              	.LVL39:
 369 0000 2DE9F04F 		push	{r4, r5, r6, r7, r8, r9, r10, fp, lr}
 370              		.cfi_def_cfa_offset 36
 371              		.cfi_offset 4, -36
 372              		.cfi_offset 5, -32
 373              		.cfi_offset 6, -28
 374              		.cfi_offset 7, -24
 375              		.cfi_offset 8, -20
 376              		.cfi_offset 9, -16
 377              		.cfi_offset 10, -12
 378              		.cfi_offset 11, -8
 379              		.cfi_offset 14, -4
 380              		.loc 1 864 0
 381 0004 037E     		ldrb	r3, [r0, #24]	@ zero_extendqisi2
 382 0006 032B     		cmp	r3, #3
 383              		.loc 1 848 0
 384 0008 85B0     		sub	sp, sp, #20
 385              		.cfi_def_cfa_offset 56
 386              		.loc 1 848 0
 387 000a 0446     		mov	r4, r0
 388              		.loc 1 864 0
 389 000c 40F20081 		bls	.L253
 390              	.LVL40:
 391              	.L57:
 392              		.loc 1 866 0
 393 0010 B54B     		ldr	r3, .L285
 394              		.loc 1 870 0
 395 0012 DFF80083 		ldr	r8, .L285+44
 396              		.loc 1 866 0
ARM GAS  C:\Users\jo\AppData\Local\Temp\ccfChKJS.s 			page 8


 397 0016 1B78     		ldrb	r3, [r3]	@ zero_extendqisi2
 398 0018 DD06     		lsls	r5, r3, #27
 399 001a 1BD4     		bmi	.L58
 400 001c DFF8F892 		ldr	r9, .L285+48
 401              	.LVL41:
 402              	.L59:
 403              		.loc 1 1120 0
 404 0020 B9F80030 		ldrh	r3, [r9]
 405 0024 1BB1     		cbz	r3, .L102
 406              		.loc 1 1120 0 is_stmt 0 discriminator 1
 407 0026 227E     		ldrb	r2, [r4, #24]	@ zero_extendqisi2
 408 0028 062A     		cmp	r2, #6
 409 002a 40F2A780 		bls	.L254
 410              	.L102:
 411              		.loc 1 1527 0 is_stmt 1
 412 002e D8F80030 		ldr	r3, [r8]
 413 0032 A16A     		ldr	r1, [r4, #40]
 414 0034 5A1A     		subs	r2, r3, r1
 415 0036 002A     		cmp	r2, #0
 416 0038 05DB     		blt	.L164
 417 003a 5A1C     		adds	r2, r3, #1
 418              		.loc 1 1527 0 is_stmt 0 discriminator 1
 419 003c A08D     		ldrh	r0, [r4, #44]
 420 003e 531A     		subs	r3, r2, r1
 421 0040 1B1A     		subs	r3, r3, r0
 422 0042 002B     		cmp	r3, #0
 423 0044 03DD     		ble	.L56
 424              	.L164:
 425              		.loc 1 1528 0 is_stmt 1
 426 0046 A37F     		ldrb	r3, [r4, #30]	@ zero_extendqisi2
 427 0048 43F00203 		orr	r3, r3, #2
 428 004c A377     		strb	r3, [r4, #30]
 429              	.LVL42:
 430              	.L56:
 431              		.loc 1 1531 0
 432 004e 05B0     		add	sp, sp, #20
 433              		.cfi_remember_state
 434              		.cfi_def_cfa_offset 36
 435              		@ sp needed
 436 0050 BDE8F08F 		pop	{r4, r5, r6, r7, r8, r9, r10, fp, pc}
 437              	.LVL43:
 438              	.L58:
 439              		.cfi_restore_state
 440              		.loc 1 870 0
 441 0054 636D     		ldr	r3, [r4, #84]
 442 0056 D8F80020 		ldr	r2, [r8]
 443              		.loc 1 867 0
 444 005a B4F86050 		ldrh	r5, [r4, #96]
 445 005e A06D     		ldr	r0, [r4, #88]
 446              	.LVL44:
 447 0060 A24E     		ldr	r6, .L285+4
 448              		.loc 1 870 0
 449 0062 991A     		subs	r1, r3, r2
 450 0064 0029     		cmp	r1, #0
 451 0066 C0F2E480 		blt	.L64
 452              		.loc 1 870 0 is_stmt 0 discriminator 1
 453 006a 9342     		cmp	r3, r2
ARM GAS  C:\Users\jo\AppData\Local\Temp\ccfChKJS.s 			page 9


 454              		.loc 1 871 0 is_stmt 1 discriminator 1
 455 006c 3368     		ldr	r3, [r6]
 456              		.loc 1 870 0 discriminator 1
 457 006e 00F0DC80 		beq	.L255
 458              	.L63:
 459              		.loc 1 871 0 discriminator 1
 460 0072 9842     		cmp	r0, r3
 461 0074 00F0D281 		beq	.L256
 462              	.L65:
 463              		.loc 1 924 0
 464 0078 A76C     		ldr	r7, [r4, #72]
 465 007a DA1B     		subs	r2, r3, r7
 466 007c 002A     		cmp	r2, #0
 467 007e 40F3B281 		ble	.L257
 468              		.loc 1 957 0
 469 0082 216D     		ldr	r1, [r4, #80]
 470 0084 591A     		subs	r1, r3, r1
 471 0086 0029     		cmp	r1, #0
 472 0088 40F3D081 		ble	.L258
 473              		.loc 1 1046 0
 474 008c 0023     		movs	r3, #0
 475 008e DFF88892 		ldr	r9, .L285+48
 476 0092 A4F86430 		strh	r3, [r4, #100]	@ movhi
 477              	.LVL45:
 478              	.L87:
 479 0096 E36E     		ldr	r3, [r4, #108]
 480              		.loc 1 1056 0
 481 0098 944F     		ldr	r7, .L285+4
 482              	.L72:
 483              		.loc 1 1055 0
 484 009a 002B     		cmp	r3, #0
 485 009c 41D0     		beq	.L99
 486              	.L96:
 487              		.loc 1 1056 0 discriminator 1
 488 009e 1B69     		ldr	r3, [r3, #16]
 489 00a0 3568     		ldr	r5, [r6]
 490 00a2 5868     		ldr	r0, [r3, #4]	@ unaligned
 491 00a4 FFF7FEFF 		bl	lwip_ntohl
 492              	.LVL46:
 493 00a8 E36E     		ldr	r3, [r4, #108]
 494 00aa 1969     		ldr	r1, [r3, #16]
 495 00ac B3F808B0 		ldrh	fp, [r3, #8]
 496 00b0 8246     		mov	r10, r0
 497 00b2 8889     		ldrh	r0, [r1, #12]	@ unaligned
 498 00b4 FFF7FEFF 		bl	lwip_ntohs
 499              	.LVL47:
 500 00b8 10F00300 		ands	r0, r0, #3
 501 00bc 18BF     		it	ne
 502 00be 0120     		movne	r0, #1
 503 00c0 CAEB0505 		rsb	r5, r10, r5
 504 00c4 5844     		add	r0, r0, fp
 505 00c6 2D1A     		subs	r5, r5, r0
 506              		.loc 1 1055 0 discriminator 1
 507 00c8 002D     		cmp	r5, #0
 508 00ca 2ADB     		blt	.L99
 509              		.loc 1 1056 0
 510 00cc 3B68     		ldr	r3, [r7]
ARM GAS  C:\Users\jo\AppData\Local\Temp\ccfChKJS.s 			page 10


 511 00ce 226D     		ldr	r2, [r4, #80]
 512 00d0 9B1A     		subs	r3, r3, r2
 513 00d2 002B     		cmp	r3, #0
 514 00d4 25DC     		bgt	.L99
 515              		.loc 1 1062 0
 516 00d6 E56E     		ldr	r5, [r4, #108]
 517              	.LVL48:
 518              		.loc 1 1063 0
 519 00d8 2B68     		ldr	r3, [r5]
 520 00da E366     		str	r3, [r4, #108]
 521              		.loc 1 1065 0
 522 00dc 002B     		cmp	r3, #0
 523 00de 00F08380 		beq	.L259
 524              	.L88:
 525              		.loc 1 1070 0
 526 00e2 6868     		ldr	r0, [r5, #4]
 527 00e4 B4F868B0 		ldrh	fp, [r4, #104]
 528 00e8 FFF7FEFF 		bl	pbuf_clen
 529              	.LVL49:
 530 00ec 80B2     		uxth	r0, r0
 531 00ee 8345     		cmp	fp, r0
 532 00f0 6DD3     		bcc	.L260
 533              	.L89:
 534              		.loc 1 1072 0
 535 00f2 B4F86430 		ldrh	r3, [r4, #100]
 536 00f6 002B     		cmp	r3, #0
 537 00f8 5DD1     		bne	.L261
 538              	.L91:
 539              		.loc 1 1075 0
 540 00fa 6868     		ldr	r0, [r5, #4]
 541 00fc FFF7FEFF 		bl	pbuf_clen
 542              	.LVL50:
 543 0100 B4F86830 		ldrh	r3, [r4, #104]
 544 0104 181A     		subs	r0, r3, r0
 545 0106 A4F86800 		strh	r0, [r4, #104]	@ movhi
 546              		.loc 1 1076 0
 547 010a 2846     		mov	r0, r5
 548 010c FFF7FEFF 		bl	tcp_seg_free
 549              	.LVL51:
 550              		.loc 1 1078 0
 551 0110 B4F86830 		ldrh	r3, [r4, #104]
 552 0114 13B1     		cbz	r3, .L242
 553              		.loc 1 1079 0
 554 0116 236F     		ldr	r3, [r4, #112]
 555 0118 002B     		cmp	r3, #0
 556 011a 68D0     		beq	.L262
 557              	.L242:
 558 011c E36E     		ldr	r3, [r4, #108]
 559              		.loc 1 1055 0 discriminator 2
 560 011e 002B     		cmp	r3, #0
 561 0120 BDD1     		bne	.L96
 562              	.LVL52:
 563              	.L99:
 564              		.loc 1 1091 0
 565 0122 A36B     		ldr	r3, [r4, #56]
 566 0124 002B     		cmp	r3, #0
 567 0126 3FF47BAF 		beq	.L59
ARM GAS  C:\Users\jo\AppData\Local\Temp\ccfChKJS.s 			page 11


 568              		.loc 1 1091 0 is_stmt 0 discriminator 1
 569 012a 3168     		ldr	r1, [r6]
 570 012c E26B     		ldr	r2, [r4, #60]
 571 012e 521A     		subs	r2, r2, r1
 572 0130 002A     		cmp	r2, #0
 573 0132 BFF675AF 		bge	.L59
 574              	.LVL53:
 575              		.loc 1 1094 0 is_stmt 1
 576 0136 6E49     		ldr	r1, .L285+8
 577              	.LVL54:
 578              		.loc 1 1100 0
 579 0138 B4F84020 		ldrh	r2, [r4, #64]
 580              		.loc 1 1094 0
 581 013c 0868     		ldr	r0, [r1]
 582              		.loc 1 1100 0
 583 013e 42F3CC01 		sbfx	r1, r2, #3, #13
 584              	.LVL55:
 585              		.loc 1 1094 0
 586 0142 C31A     		subs	r3, r0, r3
 587              	.LVL56:
 588              		.loc 1 1100 0
 589 0144 591A     		subs	r1, r3, r1
 590 0146 89B2     		uxth	r1, r1
 591              		.loc 1 1101 0
 592 0148 8B18     		adds	r3, r1, r2
 593              		.loc 1 1100 0
 594 014a 8AB2     		uxth	r2, r1
 595              	.LVL57:
 596              		.loc 1 1102 0
 597 014c 1004     		lsls	r0, r2, #16
 598              		.loc 1 1103 0
 599 014e 44BF     		itt	mi
 600 0150 4942     		rsbmi	r1, r1, #0
 601 0152 8AB2     		uxthmi	r2, r1
 602              	.LVL58:
 603              		.loc 1 1105 0
 604 0154 B4F84210 		ldrh	r1, [r4, #66]
 605              	.LVL59:
 606 0158 41F38D00 		sbfx	r0, r1, #2, #14
 607 015c 091A     		subs	r1, r1, r0
 608              	.LVL60:
 609              		.loc 1 1101 0
 610 015e 9BB2     		uxth	r3, r3
 611              		.loc 1 1106 0
 612 0160 0A44     		add	r2, r2, r1
 613              	.LVL61:
 614 0162 92B2     		uxth	r2, r2
 615              		.loc 1 1101 0
 616 0164 A4F84030 		strh	r3, [r4, #64]	@ movhi
 617              	.LVL62:
 618              		.loc 1 1107 0
 619 0168 43F3CC03 		sbfx	r3, r3, #3, #13
 620 016c 1344     		add	r3, r3, r2
 621              		.loc 1 1112 0
 622 016e 0021     		movs	r1, #0
 623              		.loc 1 1107 0
 624 0170 A4F84430 		strh	r3, [r4, #68]	@ movhi
ARM GAS  C:\Users\jo\AppData\Local\Temp\ccfChKJS.s 			page 12


 625              		.loc 1 1106 0
 626 0174 A4F84220 		strh	r2, [r4, #66]	@ movhi
 627              		.loc 1 1112 0
 628 0178 A163     		str	r1, [r4, #56]
 629 017a 51E7     		b	.L59
 630              	.L254:
 631              		.loc 1 1151 0
 632 017c A16A     		ldr	r1, [r4, #40]
 633 017e D8F80020 		ldr	r2, [r8]
 634 0182 8E1A     		subs	r6, r1, r2
 635 0184 012E     		cmp	r6, #1
 636 0186 05D4     		bmi	.L103
 637 0188 481C     		adds	r0, r1, #1
 638 018a 801A     		subs	r0, r0, r2
 639              		.loc 1 1151 0 is_stmt 0 discriminator 1
 640 018c C31A     		subs	r3, r0, r3
 641 018e 002B     		cmp	r3, #0
 642 0190 40F3E881 		ble	.L263
 643              	.L103:
 644              		.loc 1 1202 0 is_stmt 1
 645 0194 531A     		subs	r3, r2, r1
 646 0196 002B     		cmp	r3, #0
 647 0198 C0F2A080 		blt	.L264
 648              	.L113:
 649              		.loc 1 1214 0 discriminator 1
 650 019c A38D     		ldrh	r3, [r4, #44]
 651 019e C3F10103 		rsb	r3, r3, #1
 652 01a2 1344     		add	r3, r3, r2
 653 01a4 5B1A     		subs	r3, r3, r1
 654 01a6 002B     		cmp	r3, #0
 655 01a8 5FDD     		ble	.L265
 656              	.L114:
 657              		.loc 1 1520 0
 658 01aa 2046     		mov	r0, r4
 659              		.loc 1 1531 0
 660 01ac 05B0     		add	sp, sp, #20
 661              		.cfi_remember_state
 662              		.cfi_def_cfa_offset 36
 663              		@ sp needed
 664 01ae BDE8F04F 		pop	{r4, r5, r6, r7, r8, r9, r10, fp, lr}
 665              		.cfi_restore 14
 666              		.cfi_restore 11
 667              		.cfi_restore 10
 668              		.cfi_restore 9
 669              		.cfi_restore 8
 670              		.cfi_restore 7
 671              		.cfi_restore 6
 672              		.cfi_restore 5
 673              		.cfi_restore 4
 674              		.cfi_def_cfa_offset 0
 675              	.LVL63:
 676              		.loc 1 1520 0
 677 01b2 FFF7FEBF 		b	tcp_send_empty_ack
 678              	.LVL64:
 679              	.L261:
 680              		.cfi_restore_state
 681              		.loc 1 1072 0 discriminator 1
ARM GAS  C:\Users\jo\AppData\Local\Temp\ccfChKJS.s 			page 13


 682 01b6 2B69     		ldr	r3, [r5, #16]
 683 01b8 9889     		ldrh	r0, [r3, #12]	@ unaligned
 684 01ba FFF7FEFF 		bl	lwip_ntohs
 685              	.LVL65:
 686 01be C307     		lsls	r3, r0, #31
 687 01c0 9BD5     		bpl	.L91
 688              		.loc 1 1073 0
 689 01c2 B4F86430 		ldrh	r3, [r4, #100]
 690 01c6 013B     		subs	r3, r3, #1
 691 01c8 A4F86430 		strh	r3, [r4, #100]	@ movhi
 692 01cc 95E7     		b	.L91
 693              	.L260:
 694              		.loc 1 1070 0 discriminator 1
 695 01ce 494B     		ldr	r3, .L285+12
 696 01d0 0093     		str	r3, [sp]
 697 01d2 4949     		ldr	r1, .L285+16
 698 01d4 494A     		ldr	r2, .L285+20
 699 01d6 4A48     		ldr	r0, .L285+24
 700 01d8 40F22E43 		movw	r3, #1070
 701 01dc FFF7FEFF 		bl	chprintf.constprop.1
 702              	.LVL66:
 703              	.LBB55:
 704              	.LBB56:
 705              		.file 3 "../../../os/hal/osal/rt/osal.h"
 706              		.loc 3 416 0 discriminator 1
 707 01e0 4648     		ldr	r0, .L285+20
 708 01e2 FFF7FEFF 		bl	chSysHalt
 709              	.LVL67:
 710 01e6 84E7     		b	.L89
 711              	.LVL68:
 712              	.L259:
 713              	.LBE56:
 714              	.LBE55:
 715              		.loc 1 1066 0
 716 01e8 A4F86A30 		strh	r3, [r4, #106]	@ movhi
 717 01ec 79E7     		b	.L88
 718              	.L262:
 719              		.loc 1 1079 0 discriminator 1
 720 01ee E36E     		ldr	r3, [r4, #108]
 721 01f0 002B     		cmp	r3, #0
 722 01f2 7FF452AF 		bne	.L72
 723              		.loc 1 1079 0 is_stmt 0 discriminator 2
 724 01f6 3F4B     		ldr	r3, .L285+12
 725 01f8 0093     		str	r3, [sp]
 726 01fa 3F49     		ldr	r1, .L285+16
 727 01fc 414A     		ldr	r2, .L285+28
 728 01fe 4048     		ldr	r0, .L285+24
 729 0200 4FF48763 		mov	r3, #1080
 730 0204 FFF7FEFF 		bl	chprintf.constprop.1
 731              	.LVL69:
 732              	.LBB57:
 733              	.LBB58:
 734              		.loc 3 416 0 is_stmt 1 discriminator 2
 735 0208 3E48     		ldr	r0, .L285+28
 736 020a FFF7FEFF 		bl	chSysHalt
 737              	.LVL70:
 738 020e 85E7     		b	.L242
ARM GAS  C:\Users\jo\AppData\Local\Temp\ccfChKJS.s 			page 14


 739              	.LVL71:
 740              	.L253:
 741              	.LBE58:
 742              	.LBE57:
 743              		.loc 1 864 0 discriminator 1
 744 0210 384B     		ldr	r3, .L285+12
 745 0212 0093     		str	r3, [sp]
 746 0214 3849     		ldr	r1, .L285+16
 747 0216 3C4A     		ldr	r2, .L285+32
 748 0218 3948     		ldr	r0, .L285+24
 749              	.LVL72:
 750 021a 4FF45873 		mov	r3, #864
 751 021e FFF7FEFF 		bl	chprintf.constprop.1
 752              	.LVL73:
 753              	.LBB59:
 754              	.LBB60:
 755              		.loc 3 416 0 discriminator 1
 756 0222 3948     		ldr	r0, .L285+32
 757 0224 FFF7FEFF 		bl	chSysHalt
 758              	.LVL74:
 759 0228 F2E6     		b	.L57
 760              	.LVL75:
 761              	.L255:
 762              	.LBE60:
 763              	.LBE59:
 764              		.loc 1 871 0
 765 022a C11A     		subs	r1, r0, r3
 766 022c 0029     		cmp	r1, #0
 767 022e BFF620AF 		bge	.L63
 768              	.L64:
 769 0232 3649     		ldr	r1, .L285+36
 770 0234 3368     		ldr	r3, [r6]
 771 0236 0968     		ldr	r1, [r1]
 772 0238 C989     		ldrh	r1, [r1, #14]	@ unaligned
 773              	.L61:
 774              		.loc 1 876 0
 775 023a B4F86270 		ldrh	r7, [r4, #98]
 776              		.loc 1 879 0
 777 023e 6265     		str	r2, [r4, #84]
 778              		.loc 1 876 0
 779 0240 8F42     		cmp	r7, r1
 780              		.loc 1 873 0
 781 0242 A4F86010 		strh	r1, [r4, #96]	@ movhi
 782              		.loc 1 877 0
 783 0246 38BF     		it	cc
 784 0248 A4F86210 		strhcc	r1, [r4, #98]	@ movhi
 785              		.loc 1 880 0
 786 024c A365     		str	r3, [r4, #88]
 787              		.loc 1 882 0
 788 024e 94F89520 		ldrb	r2, [r4, #149]	@ zero_extendqisi2
 789              		.loc 1 881 0
 790 0252 0029     		cmp	r1, #0
 791 0254 40F0DB80 		bne	.L67
 792              		.loc 1 882 0
 793 0258 002A     		cmp	r2, #0
 794 025a 7FF40DAF 		bne	.L65
 795              		.loc 1 885 0
ARM GAS  C:\Users\jo\AppData\Local\Temp\ccfChKJS.s 			page 15


 796 025e 0122     		movs	r2, #1
 797              		.loc 1 884 0
 798 0260 84F89410 		strb	r1, [r4, #148]
 799              		.loc 1 885 0
 800 0264 84F89520 		strb	r2, [r4, #149]
 801 0268 06E7     		b	.L65
 802              	.LVL76:
 803              	.L265:
 804              		.loc 1 1216 0
 805 026a 8A42     		cmp	r2, r1
 806 026c 00F0F381 		beq	.L266
 807              		.loc 1 1369 0
 808 0270 2046     		mov	r0, r4
 809 0272 FFF7FEFF 		bl	tcp_send_empty_ack
 810              	.LVL77:
 811              		.loc 1 1372 0
 812 0276 656F     		ldr	r5, [r4, #116]
 813 0278 002D     		cmp	r5, #0
 814 027a 00F01F84 		beq	.L267
 815 027e D8F80000 		ldr	r0, [r8]
 816 0282 0026     		movs	r6, #0
 817 0284 00F1FF3E 		add	lr, r0, #-1
 818 0288 471C     		adds	r7, r0, #1
 819 028a 0EE0     		b	.L161
 820              	.LVL78:
 821              	.L158:
 822              		.loc 1 1431 0
 823 028c 3369     		ldr	r3, [r6, #16]
 824 028e 5B68     		ldr	r3, [r3, #4]	@ unaligned
 825 0290 C3EB0E03 		rsb	r3, r3, lr
 826 0294 002B     		cmp	r3, #0
 827 0296 03DB     		blt	.L159
 828              		.loc 1 1431 0 is_stmt 0 discriminator 1
 829 0298 BCF1000F 		cmp	ip, #0
 830 029c 40F31D83 		ble	.L268
 831              	.L159:
 832              		.loc 1 1453 0 is_stmt 1
 833 02a0 2B68     		ldr	r3, [r5]
 834 02a2 2E46     		mov	r6, r5
 835              	.LVL79:
 836 02a4 002B     		cmp	r3, #0
 837 02a6 39D0     		beq	.L269
 838 02a8 1D46     		mov	r5, r3
 839              	.LVL80:
 840              	.L161:
 841              		.loc 1 1389 0
 842 02aa 2969     		ldr	r1, [r5, #16]
 843 02ac 4A68     		ldr	r2, [r1, #4]	@ unaligned
 844 02ae 8242     		cmp	r2, r0
 845              		.loc 1 1431 0
 846 02b0 C2EB070C 		rsb	ip, r2, r7
 847              		.loc 1 1389 0
 848 02b4 00F0E082 		beq	.L270
 849              		.loc 1 1415 0
 850 02b8 002E     		cmp	r6, #0
 851 02ba E7D1     		bne	.L158
 852              		.loc 1 1416 0
ARM GAS  C:\Users\jo\AppData\Local\Temp\ccfChKJS.s 			page 16


 853 02bc 831A     		subs	r3, r0, r2
 854 02be 002B     		cmp	r3, #0
 855 02c0 EEDA     		bge	.L159
 856              		.loc 1 1421 0
 857 02c2 1348     		ldr	r0, .L285+40
 858 02c4 FFF7FEFF 		bl	tcp_seg_copy
 859              	.LVL81:
 860              		.loc 1 1422 0
 861 02c8 0028     		cmp	r0, #0
 862 02ca 3FF4C0AE 		beq	.L56
 863              		.loc 1 1423 0
 864 02ce 6067     		str	r0, [r4, #116]
 865              	.LVL82:
 866              	.L245:
 867              		.loc 1 1424 0
 868 02d0 2946     		mov	r1, r5
 869              		.loc 1 1531 0
 870 02d2 05B0     		add	sp, sp, #20
 871              		.cfi_remember_state
 872              		.cfi_def_cfa_offset 36
 873              		@ sp needed
 874 02d4 BDE8F04F 		pop	{r4, r5, r6, r7, r8, r9, r10, fp, lr}
 875              		.cfi_restore 14
 876              		.cfi_restore 11
 877              		.cfi_restore 10
 878              		.cfi_restore 9
 879              		.cfi_restore 8
 880              		.cfi_restore 7
 881              		.cfi_restore 6
 882              		.cfi_restore 5
 883              		.cfi_restore 4
 884              		.cfi_def_cfa_offset 0
 885              	.LVL83:
 886              		.loc 1 1424 0
 887 02d8 FFF7FEBF 		b	tcp_oos_insert_segment
 888              	.LVL84:
 889              	.L264:
 890              		.cfi_restore_state
 891              		.loc 1 1207 0
 892 02dc A37F     		ldrb	r3, [r4, #30]	@ zero_extendqisi2
 893 02de 43F00203 		orr	r3, r3, #2
 894 02e2 A377     		strb	r3, [r4, #30]
 895 02e4 61E7     		b	.L114
 896              	.L286:
 897 02e6 00BF     		.align	2
 898              	.L285:
 899 02e8 00000000 		.word	.LANCHOR2
 900 02ec 00000000 		.word	.LANCHOR3
 901 02f0 00000000 		.word	tcp_ticks
 902 02f4 44000000 		.word	.LC2
 903 02f8 00000000 		.word	.LC0
 904 02fc 68000000 		.word	.LC3
 905 0300 00000000 		.word	itm_port
 906 0304 90000000 		.word	.LC4
 907 0308 28000000 		.word	.LC1
 908 030c 00000000 		.word	.LANCHOR1
 909 0310 00000000 		.word	.LANCHOR5
ARM GAS  C:\Users\jo\AppData\Local\Temp\ccfChKJS.s 			page 17


 910 0314 00000000 		.word	.LANCHOR0
 911 0318 00000000 		.word	.LANCHOR4
 912              	.LVL85:
 913              	.L269:
 914              		.loc 1 1454 0 discriminator 1
 915 031c 821A     		subs	r2, r0, r2
 916              		.loc 1 1453 0 discriminator 1
 917 031e 002A     		cmp	r2, #0
 918 0320 7FF795AE 		ble	.L56
 919              		.loc 1 1455 0
 920 0324 8889     		ldrh	r0, [r1, #12]	@ unaligned
 921 0326 FFF7FEFF 		bl	lwip_ntohs
 922              	.LVL86:
 923 032a C207     		lsls	r2, r0, #31
 924 032c 3FF58FAE 		bmi	.L56
 925              		.loc 1 1459 0
 926 0330 BB48     		ldr	r0, .L287
 927 0332 FFF7FEFF 		bl	tcp_seg_copy
 928              	.LVL87:
 929 0336 2860     		str	r0, [r5]
 930              		.loc 1 1460 0
 931 0338 0028     		cmp	r0, #0
 932 033a 3FF488AE 		beq	.L56
 933              		.loc 1 1461 0
 934 033e 2969     		ldr	r1, [r5, #16]
 935 0340 D8F80030 		ldr	r3, [r8]
 936 0344 2A89     		ldrh	r2, [r5, #8]
 937 0346 4968     		ldr	r1, [r1, #4]	@ unaligned
 938 0348 B64E     		ldr	r6, .L287+4
 939 034a D21A     		subs	r2, r2, r3
 940 034c 0A44     		add	r2, r2, r1
 941 034e 002A     		cmp	r2, #0
 942 0350 06DD     		ble	.L162
 943              		.loc 1 1463 0
 944 0352 5B1A     		subs	r3, r3, r1
 945 0354 99B2     		uxth	r1, r3
 946 0356 2981     		strh	r1, [r5, #8]	@ movhi
 947              		.loc 1 1464 0
 948 0358 6868     		ldr	r0, [r5, #4]
 949 035a FFF7FEFF 		bl	pbuf_realloc
 950              	.LVL88:
 951 035e 3368     		ldr	r3, [r6]
 952              	.L162:
 953              		.loc 1 1467 0
 954 0360 B9F80010 		ldrh	r1, [r9]
 955 0364 A08D     		ldrh	r0, [r4, #44]
 956 0366 A26A     		ldr	r2, [r4, #40]
 957 0368 0B44     		add	r3, r3, r1
 958 036a 0244     		add	r2, r2, r0
 959 036c 9342     		cmp	r3, r2
 960 036e 7FF66EAE 		bls	.L56
 961              		.loc 1 1472 0
 962 0372 2B68     		ldr	r3, [r5]
 963 0374 1B69     		ldr	r3, [r3, #16]
 964 0376 9889     		ldrh	r0, [r3, #12]	@ unaligned
 965 0378 FFF7FEFF 		bl	lwip_ntohs
 966              	.LVL89:
ARM GAS  C:\Users\jo\AppData\Local\Temp\ccfChKJS.s 			page 18


 967 037c C307     		lsls	r3, r0, #31
 968 037e 00F1BB83 		bmi	.L271
 969              	.L163:
 970              		.loc 1 1478 0
 971 0382 A06A     		ldr	r0, [r4, #40]
 972 0384 A38D     		ldrh	r3, [r4, #44]
 973 0386 D8F80010 		ldr	r1, [r8]
 974 038a 2A68     		ldr	r2, [r5]
 975 038c 0344     		add	r3, r3, r0
 976 038e 591A     		subs	r1, r3, r1
 977 0390 89B2     		uxth	r1, r1
 978 0392 1181     		strh	r1, [r2, #8]	@ movhi
 979              		.loc 1 1479 0
 980 0394 5068     		ldr	r0, [r2, #4]
 981 0396 FFF7FEFF 		bl	pbuf_realloc
 982              	.LVL90:
 983              		.loc 1 1480 0
 984 039a 2B68     		ldr	r3, [r5]
 985 039c 1A69     		ldr	r2, [r3, #16]
 986 039e 1D89     		ldrh	r5, [r3, #8]
 987              	.LVL91:
 988 03a0 9089     		ldrh	r0, [r2, #12]	@ unaligned
 989 03a2 FFF7FEFF 		bl	lwip_ntohs
 990              	.LVL92:
 991 03a6 10F00300 		ands	r0, r0, #3
 992 03aa 18BF     		it	ne
 993 03ac 0120     		movne	r0, #1
 994 03ae 2B18     		adds	r3, r5, r0
 995              		.loc 1 1481 0
 996 03b0 D8F80010 		ldr	r1, [r8]
 997 03b4 A08D     		ldrh	r0, [r4, #44]
 998 03b6 A26A     		ldr	r2, [r4, #40]
 999              		.loc 1 1480 0
 1000 03b8 9BB2     		uxth	r3, r3
 1001              		.loc 1 1481 0
 1002 03ba 1944     		add	r1, r1, r3
 1003 03bc 0244     		add	r2, r2, r0
 1004 03be 9142     		cmp	r1, r2
 1005              		.loc 1 1480 0
 1006 03c0 A9F80030 		strh	r3, [r9]	@ movhi
 1007              		.loc 1 1481 0
 1008 03c4 3FF443AE 		beq	.L56
 1009              		.loc 1 1481 0 is_stmt 0 discriminator 1
 1010 03c8 974B     		ldr	r3, .L287+8
 1011 03ca 0093     		str	r3, [sp]
 1012 03cc 9749     		ldr	r1, .L287+12
 1013 03ce 984A     		ldr	r2, .L287+16
 1014 03d0 9848     		ldr	r0, .L287+20
 1015 03d2 40F2CA53 		movw	r3, #1482
 1016 03d6 FFF7FEFF 		bl	chprintf.constprop.1
 1017              	.LVL93:
 1018              	.LBB61:
 1019              	.LBB62:
 1020              		.loc 3 416 0 is_stmt 1 discriminator 1
 1021 03da 9548     		ldr	r0, .L287+16
 1022              	.LBE62:
 1023              	.LBE61:
ARM GAS  C:\Users\jo\AppData\Local\Temp\ccfChKJS.s 			page 19


 1024              		.loc 1 1531 0 discriminator 1
 1025 03dc 05B0     		add	sp, sp, #20
 1026              		.cfi_remember_state
 1027              		.cfi_def_cfa_offset 36
 1028              		@ sp needed
 1029 03de BDE8F04F 		pop	{r4, r5, r6, r7, r8, r9, r10, fp, lr}
 1030              		.cfi_restore 14
 1031              		.cfi_restore 11
 1032              		.cfi_restore 10
 1033              		.cfi_restore 9
 1034              		.cfi_restore 8
 1035              		.cfi_restore 7
 1036              		.cfi_restore 6
 1037              		.cfi_restore 5
 1038              		.cfi_restore 4
 1039              		.cfi_def_cfa_offset 0
 1040              	.LVL94:
 1041              	.LBB64:
 1042              	.LBB63:
 1043              		.loc 3 416 0 discriminator 1
 1044 03e2 FFF7FEBF 		b	chSysHalt
 1045              	.LVL95:
 1046              	.L257:
 1047              		.cfi_restore_state
 1048              	.LBE63:
 1049              	.LBE64:
 1050              		.loc 1 927 0
 1051 03e6 DFF85C92 		ldr	r9, .L287+36
 1052 03ea B9F80020 		ldrh	r2, [r9]
 1053              		.loc 1 925 0
 1054 03ee 0021     		movs	r1, #0
 1055 03f0 A4F86410 		strh	r1, [r4, #100]	@ movhi
 1056              		.loc 1 927 0
 1057 03f4 3AB9     		cbnz	r2, .L68
 1058              		.loc 1 929 0
 1059 03f6 B4F86010 		ldrh	r1, [r4, #96]
 1060 03fa A26D     		ldr	r2, [r4, #88]
 1061              		.loc 1 867 0
 1062 03fc 2844     		add	r0, r0, r5
 1063              	.LVL96:
 1064              		.loc 1 929 0
 1065 03fe 0A44     		add	r2, r2, r1
 1066 0400 8242     		cmp	r2, r0
 1067 0402 00F0ED80 		beq	.L272
 1068              	.L68:
 1069              		.loc 1 955 0
 1070 0406 0023     		movs	r3, #0
 1071 0408 84F84730 		strb	r3, [r4, #71]
 1072 040c 43E6     		b	.L87
 1073              	.LVL97:
 1074              	.L67:
 1075              		.loc 1 887 0
 1076 040e 002A     		cmp	r2, #0
 1077 0410 3FF432AE 		beq	.L65
 1078              		.loc 1 889 0
 1079 0414 0022     		movs	r2, #0
 1080 0416 84F89520 		strb	r2, [r4, #149]
ARM GAS  C:\Users\jo\AppData\Local\Temp\ccfChKJS.s 			page 20


 1081 041a 2DE6     		b	.L65
 1082              	.L256:
 1083              		.loc 1 872 0
 1084 041c 864B     		ldr	r3, .L287+24
 1085 041e 1B68     		ldr	r3, [r3]
 1086 0420 D989     		ldrh	r1, [r3, #14]	@ unaligned
 1087 0422 8D42     		cmp	r5, r1
 1088 0424 0346     		mov	r3, r0
 1089 0426 BFF427AE 		bcs	.L65
 1090 042a 06E7     		b	.L61
 1091              	.L258:
 1092              		.loc 1 963 0
 1093 042c A17F     		ldrb	r1, [r4, #30]	@ zero_extendqisi2
 1094 042e 4807     		lsls	r0, r1, #29
 1095              	.LVL98:
 1096 0430 06D5     		bpl	.L73
 1097              		.loc 1 964 0
 1098 0432 21F00401 		bic	r1, r1, #4
 1099              		.loc 1 965 0
 1100 0436 B4F84E00 		ldrh	r0, [r4, #78]
 1101              		.loc 1 964 0
 1102 043a A177     		strb	r1, [r4, #30]
 1103              		.loc 1 965 0
 1104 043c A4F84C00 		strh	r0, [r4, #76]	@ movhi
 1105              	.L73:
 1106              		.loc 1 977 0
 1107 0440 B4F86600 		ldrh	r0, [r4, #102]
 1108              		.loc 1 972 0
 1109 0444 B4F84210 		ldrh	r1, [r4, #66]
 1110 0448 B4F94070 		ldrsh	r7, [r4, #64]
 1111              		.loc 1 985 0
 1112 044c 257E     		ldrb	r5, [r4, #24]	@ zero_extendqisi2
 1113              		.loc 1 981 0
 1114 044e A364     		str	r3, [r4, #72]
 1115              		.loc 1 975 0
 1116 0450 92B2     		uxth	r2, r2
 1117              		.loc 1 972 0
 1118 0452 01EBE703 		add	r3, r1, r7, asr #3
 1119              		.loc 1 977 0
 1120 0456 1044     		add	r0, r0, r2
 1121              		.loc 1 969 0
 1122 0458 0021     		movs	r1, #0
 1123              		.loc 1 985 0
 1124 045a 032D     		cmp	r5, #3
 1125              		.loc 1 975 0
 1126 045c A4F86420 		strh	r2, [r4, #100]	@ movhi
 1127              		.loc 1 977 0
 1128 0460 A4F86600 		strh	r0, [r4, #102]	@ movhi
 1129              		.loc 1 972 0
 1130 0464 A4F84430 		strh	r3, [r4, #68]	@ movhi
 1131              		.loc 1 969 0
 1132 0468 84F84610 		strb	r1, [r4, #70]
 1133              		.loc 1 980 0
 1134 046c 84F84710 		strb	r1, [r4, #71]
 1135              		.loc 1 985 0
 1136 0470 0FD9     		bls	.L74
 1137              		.loc 1 986 0
ARM GAS  C:\Users\jo\AppData\Local\Temp\ccfChKJS.s 			page 21


 1138 0472 B4F84C20 		ldrh	r2, [r4, #76]
 1139 0476 B4F84E30 		ldrh	r3, [r4, #78]
 1140 047a 9342     		cmp	r3, r2
 1141              		.loc 1 987 0
 1142 047c E38E     		ldrh	r3, [r4, #54]
 1143              	.LBB65:
 1144              		.loc 1 992 0
 1145 047e 9CBF     		itt	ls
 1146 0480 5B43     		mulls	r3, r3, r3
 1147 0482 93FBF2F3 		sdivls	r3, r3, r2
 1148 0486 1344     		add	r3, r3, r2
 1149 0488 9BB2     		uxth	r3, r3
 1150              	.LVL99:
 1151              		.loc 1 993 0
 1152 048a 9A42     		cmp	r2, r3
 1153              		.loc 1 994 0
 1154 048c 38BF     		it	cc
 1155 048e A4F84C30 		strhcc	r3, [r4, #76]	@ movhi
 1156              	.LVL100:
 1157              	.L74:
 1158 0492 236F     		ldr	r3, [r4, #112]
 1159              	.LBE65:
 1160              		.loc 1 1020 0
 1161 0494 644F     		ldr	r7, .L287+8
 1162              	.L76:
 1163              		.loc 1 1008 0
 1164 0496 002B     		cmp	r3, #0
 1165 0498 37D0     		beq	.L86
 1166              		.loc 1 1009 0 discriminator 1
 1167 049a 1B69     		ldr	r3, [r3, #16]
 1168 049c 5868     		ldr	r0, [r3, #4]	@ unaligned
 1169 049e FFF7FEFF 		bl	lwip_ntohl
 1170              	.LVL101:
 1171 04a2 236F     		ldr	r3, [r4, #112]
 1172 04a4 1A69     		ldr	r2, [r3, #16]
 1173 04a6 B3F80890 		ldrh	r9, [r3, #8]
 1174 04aa 0546     		mov	r5, r0
 1175 04ac 9089     		ldrh	r0, [r2, #12]	@ unaligned
 1176 04ae FFF7FEFF 		bl	lwip_ntohs
 1177              	.LVL102:
 1178 04b2 3368     		ldr	r3, [r6]
 1179 04b4 10F00300 		ands	r0, r0, #3
 1180 04b8 18BF     		it	ne
 1181 04ba 0120     		movne	r0, #1
 1182 04bc 4844     		add	r0, r0, r9
 1183 04be EB1A     		subs	r3, r5, r3
 1184 04c0 1844     		add	r0, r0, r3
 1185              		.loc 1 1008 0 discriminator 1
 1186 04c2 0028     		cmp	r0, #0
 1187 04c4 00F3C080 		bgt	.L273
 1188              		.loc 1 1016 0
 1189 04c8 256F     		ldr	r5, [r4, #112]
 1190              	.LVL103:
 1191              		.loc 1 1020 0
 1192 04ca B4F86890 		ldrh	r9, [r4, #104]
 1193              		.loc 1 1017 0
 1194 04ce 2B68     		ldr	r3, [r5]
ARM GAS  C:\Users\jo\AppData\Local\Temp\ccfChKJS.s 			page 22


 1195 04d0 2367     		str	r3, [r4, #112]
 1196              		.loc 1 1020 0
 1197 04d2 6868     		ldr	r0, [r5, #4]
 1198 04d4 FFF7FEFF 		bl	pbuf_clen
 1199              	.LVL104:
 1200 04d8 80B2     		uxth	r0, r0
 1201 04da 8145     		cmp	r9, r0
 1202 04dc 36D3     		bcc	.L274
 1203              	.L77:
 1204              		.loc 1 1022 0
 1205 04de B4F86430 		ldrh	r3, [r4, #100]
 1206 04e2 3BBB     		cbnz	r3, .L275
 1207              	.L79:
 1208              		.loc 1 1026 0
 1209 04e4 6868     		ldr	r0, [r5, #4]
 1210 04e6 FFF7FEFF 		bl	pbuf_clen
 1211              	.LVL105:
 1212 04ea B4F86830 		ldrh	r3, [r4, #104]
 1213 04ee 181A     		subs	r0, r3, r0
 1214 04f0 A4F86800 		strh	r0, [r4, #104]	@ movhi
 1215              		.loc 1 1027 0
 1216 04f4 2846     		mov	r0, r5
 1217 04f6 FFF7FEFF 		bl	tcp_seg_free
 1218              	.LVL106:
 1219              		.loc 1 1030 0
 1220 04fa B4F86830 		ldrh	r3, [r4, #104]
 1221 04fe BBB1     		cbz	r3, .L241
 1222              		.loc 1 1031 0
 1223 0500 236F     		ldr	r3, [r4, #112]
 1224 0502 002B     		cmp	r3, #0
 1225 0504 C7D1     		bne	.L76
 1226              		.loc 1 1031 0 is_stmt 0 discriminator 1
 1227 0506 E36E     		ldr	r3, [r4, #108]
 1228 0508 3BB1     		cbz	r3, .L276
 1229              	.LVL107:
 1230              	.L86:
 1231              		.loc 1 1039 0 is_stmt 1
 1232 050a 4FF6FF73 		movw	r3, #65535
 1233 050e A386     		strh	r3, [r4, #52]	@ movhi
 1234              	.L84:
 1235              		.loc 1 1043 0
 1236 0510 0023     		movs	r3, #0
 1237 0512 E377     		strb	r3, [r4, #31]
 1238 0514 DFF82C91 		ldr	r9, .L287+36
 1239 0518 BDE5     		b	.L87
 1240              	.LVL108:
 1241              	.L276:
 1242              		.loc 1 1031 0 discriminator 2
 1243 051a 0097     		str	r7, [sp]
 1244 051c 4548     		ldr	r0, .L287+20
 1245 051e 4349     		ldr	r1, .L287+12
 1246 0520 464A     		ldr	r2, .L287+28
 1247 0522 4FF48163 		mov	r3, #1032
 1248 0526 FFF7FEFF 		bl	chprintf.constprop.1
 1249              	.LVL109:
 1250              	.LBB66:
 1251              	.LBB67:
ARM GAS  C:\Users\jo\AppData\Local\Temp\ccfChKJS.s 			page 23


 1252              		.loc 3 416 0 discriminator 2
 1253 052a 4448     		ldr	r0, .L287+28
 1254 052c FFF7FEFF 		bl	chSysHalt
 1255              	.LVL110:
 1256              	.L241:
 1257 0530 236F     		ldr	r3, [r4, #112]
 1258 0532 B0E7     		b	.L76
 1259              	.L275:
 1260              	.LBE67:
 1261              	.LBE66:
 1262              		.loc 1 1022 0 discriminator 1
 1263 0534 2B69     		ldr	r3, [r5, #16]
 1264 0536 9889     		ldrh	r0, [r3, #12]	@ unaligned
 1265 0538 FFF7FEFF 		bl	lwip_ntohs
 1266              	.LVL111:
 1267 053c C207     		lsls	r2, r0, #31
 1268 053e D1D5     		bpl	.L79
 1269              		.loc 1 1023 0
 1270 0540 B4F86430 		ldrh	r3, [r4, #100]
 1271 0544 013B     		subs	r3, r3, #1
 1272 0546 A4F86430 		strh	r3, [r4, #100]	@ movhi
 1273 054a CBE7     		b	.L79
 1274              	.L274:
 1275              		.loc 1 1020 0 discriminator 1
 1276 054c 0097     		str	r7, [sp]
 1277 054e 3749     		ldr	r1, .L287+12
 1278 0550 3B4A     		ldr	r2, .L287+32
 1279 0552 3848     		ldr	r0, .L287+20
 1280 0554 4FF47F73 		mov	r3, #1020
 1281 0558 FFF7FEFF 		bl	chprintf.constprop.1
 1282              	.LVL112:
 1283              	.LBB68:
 1284              	.LBB69:
 1285              		.loc 3 416 0 discriminator 1
 1286 055c 3848     		ldr	r0, .L287+32
 1287 055e FFF7FEFF 		bl	chSysHalt
 1288              	.LVL113:
 1289 0562 BCE7     		b	.L77
 1290              	.LVL114:
 1291              	.L263:
 1292              	.LBE69:
 1293              	.LBE68:
 1294              		.loc 1 1173 0
 1295 0564 2E4F     		ldr	r7, .L287
 1296 0566 7D68     		ldr	r5, [r7, #4]
 1297              		.loc 1 1172 0
 1298 0568 B246     		mov	r10, r6
 1299              	.LVL115:
 1300              		.loc 1 1174 0
 1301 056a 002D     		cmp	r5, #0
 1302 056c 00F05C82 		beq	.L277
 1303              	.LVL116:
 1304              	.L104:
 1305              		.loc 1 1175 0
 1306 0570 47F6FE73 		movw	r3, #32766
 1307 0574 9E42     		cmp	r6, r3
 1308 0576 00F3A381 		bgt	.L278
ARM GAS  C:\Users\jo\AppData\Local\Temp\ccfChKJS.s 			page 24


 1309              	.L105:
 1310              		.loc 1 1176 0
 1311 057a 7868     		ldr	r0, [r7, #4]
 1312 057c DFF8A0B0 		ldr	fp, .L287
 1313 0580 4389     		ldrh	r3, [r0, #10]
 1314 0582 9E42     		cmp	r6, r3
 1315 0584 40F38881 		ble	.L106
 1316              		.loc 1 1177 0
 1317 0588 0289     		ldrh	r2, [r0, #8]
 1318 058a 9642     		cmp	r6, r2
 1319 058c 00F3D681 		bgt	.L279
 1320              	.L107:
 1321              		.loc 1 1179 0
 1322 0590 6B89     		ldrh	r3, [r5, #10]
 1323              		.loc 1 1178 0
 1324 0592 921B     		subs	r2, r2, r6
 1325              		.loc 1 1179 0
 1326 0594 9E42     		cmp	r6, r3
 1327              		.loc 1 1178 0
 1328 0596 92B2     		uxth	r2, r2
 1329              	.LVL117:
 1330              		.loc 1 1179 0
 1331 0598 08DD     		ble	.L108
 1332              		.loc 1 1185 0
 1333 059a 0021     		movs	r1, #0
 1334              	.LVL118:
 1335              	.L109:
 1336 059c 6981     		strh	r1, [r5, #10]	@ movhi
 1337              		.loc 1 1184 0
 1338 059e 2A81     		strh	r2, [r5, #8]	@ movhi
 1339              		.loc 1 1186 0
 1340 05a0 2D68     		ldr	r5, [r5]
 1341              	.LVL119:
 1342              		.loc 1 1180 0
 1343 05a2 C3EB0A0A 		rsb	r10, r3, r10
 1344              	.LVL120:
 1345              		.loc 1 1179 0
 1346 05a6 6B89     		ldrh	r3, [r5, #10]
 1347 05a8 5345     		cmp	r3, r10
 1348 05aa F7DB     		blt	.L109
 1349              	.L108:
 1350              		.loc 1 1188 0
 1351 05ac CAF10001 		rsb	r1, r10, #0
 1352 05b0 09B2     		sxth	r1, r1
 1353 05b2 2846     		mov	r0, r5
 1354 05b4 FFF7FEFF 		bl	pbuf_header
 1355              	.LVL121:
 1356 05b8 0028     		cmp	r0, #0
 1357 05ba 40F0CF81 		bne	.L280
 1358              	.L111:
 1359              		.loc 1 1198 0
 1360 05be A26A     		ldr	r2, [r4, #40]
 1361 05c0 D8F80000 		ldr	r0, [r8]
 1362 05c4 3B89     		ldrh	r3, [r7, #8]
 1363              		.loc 1 1199 0
 1364 05c6 3D69     		ldr	r5, [r7, #16]
 1365              	.LVL122:
ARM GAS  C:\Users\jo\AppData\Local\Temp\ccfChKJS.s 			page 25


 1366 05c8 C8F80020 		str	r2, [r8]
 1367 05cc 0344     		add	r3, r3, r0
 1368 05ce 901A     		subs	r0, r2, r2
 1369              		.loc 1 1198 0
 1370 05d0 9B1A     		subs	r3, r3, r2
 1371              		.loc 1 1214 0
 1372 05d2 0028     		cmp	r0, #0
 1373              		.loc 1 1198 0
 1374 05d4 3B81     		strh	r3, [r7, #8]	@ movhi
 1375 05d6 1146     		mov	r1, r2
 1376              		.loc 1 1199 0
 1377 05d8 6A60     		str	r2, [r5, #4]	@ unaligned
 1378              		.loc 1 1214 0
 1379 05da BFF6DFAD 		bge	.L113
 1380 05de E4E5     		b	.L114
 1381              	.LVL123:
 1382              	.L272:
 1383              		.loc 1 931 0
 1384 05e0 B4F93420 		ldrsh	r2, [r4, #52]
 1385 05e4 002A     		cmp	r2, #0
 1386 05e6 FFF60EAF 		blt	.L68
 1387              		.loc 1 933 0
 1388 05ea 9F42     		cmp	r7, r3
 1389 05ec 7FF40BAF 		bne	.L68
 1390              	.LVL124:
 1391              		.loc 1 935 0
 1392 05f0 94F84720 		ldrb	r2, [r4, #71]	@ zero_extendqisi2
 1393 05f4 531C     		adds	r3, r2, #1
 1394 05f6 DBB2     		uxtb	r3, r3
 1395 05f8 9A42     		cmp	r2, r3
 1396              		.loc 1 936 0
 1397 05fa 3CBF     		itt	cc
 1398 05fc 1A46     		movcc	r2, r3
 1399 05fe 84F84730 		strbcc	r3, [r4, #71]
 1400              		.loc 1 938 0
 1401 0602 032A     		cmp	r2, #3
 1402 0604 40F26E82 		bls	.L70
 1403              		.loc 1 941 0
 1404 0608 B4F84C20 		ldrh	r2, [r4, #76]
 1405 060c E38E     		ldrh	r3, [r4, #54]
 1406 060e 1344     		add	r3, r3, r2
 1407 0610 9BB2     		uxth	r3, r3
 1408 0612 9A42     		cmp	r2, r3
 1409 0614 BFF43FAD 		bcs	.L87
 1410              		.loc 1 942 0
 1411 0618 A4F84C30 		strh	r3, [r4, #76]	@ movhi
 1412 061c 3BE5     		b	.L87
 1413              	.L288:
 1414 061e 00BF     		.align	2
 1415              	.L287:
 1416 0620 00000000 		.word	.LANCHOR5
 1417 0624 00000000 		.word	.LANCHOR0
 1418 0628 44000000 		.word	.LC2
 1419 062c 00000000 		.word	.LC0
 1420 0630 F4000000 		.word	.LC9
 1421 0634 00000000 		.word	itm_port
 1422 0638 00000000 		.word	.LANCHOR1
ARM GAS  C:\Users\jo\AppData\Local\Temp\ccfChKJS.s 			page 26


 1423 063c 90000000 		.word	.LC4
 1424 0640 68000000 		.word	.LC3
 1425 0644 00000000 		.word	.LANCHOR4
 1426              	.LVL125:
 1427              	.L273:
 1428              		.loc 1 1038 0
 1429 0648 236F     		ldr	r3, [r4, #112]
 1430 064a 002B     		cmp	r3, #0
 1431 064c 3FF45DAF 		beq	.L86
 1432              		.loc 1 1041 0
 1433 0650 0023     		movs	r3, #0
 1434 0652 A386     		strh	r3, [r4, #52]	@ movhi
 1435 0654 5CE7     		b	.L84
 1436              	.LVL126:
 1437              	.L266:
 1438              		.loc 1 1220 0
 1439 0656 B04F     		ldr	r7, .L289
 1440 0658 3B69     		ldr	r3, [r7, #16]
 1441 065a 3D89     		ldrh	r5, [r7, #8]
 1442 065c 9889     		ldrh	r0, [r3, #12]	@ unaligned
 1443 065e FFF7FEFF 		bl	lwip_ntohs
 1444              	.LVL127:
 1445 0662 10F00300 		ands	r0, r0, #3
 1446 0666 18BF     		it	ne
 1447 0668 0120     		movne	r0, #1
 1448 066a 2B18     		adds	r3, r5, r0
 1449              		.loc 1 1222 0
 1450 066c A28D     		ldrh	r2, [r4, #44]
 1451              		.loc 1 1220 0
 1452 066e 9BB2     		uxth	r3, r3
 1453              		.loc 1 1222 0
 1454 0670 9A42     		cmp	r2, r3
 1455              		.loc 1 1220 0
 1456 0672 A9F80030 		strh	r3, [r9]	@ movhi
 1457              		.loc 1 1222 0
 1458 0676 C0F07E81 		bcc	.L281
 1459              	.L117:
 1460              		.loc 1 1246 0
 1461 067a 636F     		ldr	r3, [r4, #116]
 1462 067c 002B     		cmp	r3, #0
 1463 067e 63D0     		beq	.L244
 1464              		.loc 1 1247 0
 1465 0680 3B69     		ldr	r3, [r7, #16]
 1466 0682 9889     		ldrh	r0, [r3, #12]	@ unaligned
 1467 0684 FFF7FEFF 		bl	lwip_ntohs
 1468              	.LVL128:
 1469 0688 C007     		lsls	r0, r0, #31
 1470 068a 5AD4     		bmi	.L249
 1471              		.loc 1 1259 0
 1472 068c D4F874A0 		ldr	r10, [r4, #116]
 1473              	.LVL129:
 1474              		.loc 1 1262 0
 1475 0690 BAF1000F 		cmp	r10, #0
 1476 0694 00F0BB81 		beq	.L127
 1477              		.loc 1 1263 0
 1478 0698 DAF810E0 		ldr	lr, [r10, #16]
 1479 069c B9F80020 		ldrh	r2, [r9]
ARM GAS  C:\Users\jo\AppData\Local\Temp\ccfChKJS.s 			page 27


 1480 06a0 DEF804C0 		ldr	ip, [lr, #4]	@ unaligned
 1481 06a4 D8F80000 		ldr	r0, [r8]
 1482 06a8 BAF80810 		ldrh	r1, [r10, #8]
 1483 06ac CCEB0203 		rsb	r3, ip, r2
 1484 06b0 0344     		add	r3, r3, r0
 1485 06b2 591A     		subs	r1, r3, r1
 1486              		.loc 1 1262 0
 1487 06b4 0029     		cmp	r1, #0
 1488 06b6 C0F2B281 		blt	.L171
 1489              		.loc 1 1267 0
 1490 06ba 974E     		ldr	r6, .L289
 1491 06bc 18E0     		b	.L132
 1492              	.L130:
 1493              	.LVL130:
 1494              		.loc 1 1272 0
 1495 06be DAF80050 		ldr	r5, [r10]
 1496              	.LVL131:
 1497              		.loc 1 1273 0
 1498 06c2 5046     		mov	r0, r10
 1499 06c4 FFF7FEFF 		bl	tcp_seg_free
 1500              	.LVL132:
 1501              		.loc 1 1262 0
 1502 06c8 002D     		cmp	r5, #0
 1503 06ca 00F0A081 		beq	.L127
 1504              		.loc 1 1263 0 discriminator 1
 1505 06ce D5F810E0 		ldr	lr, [r5, #16]
 1506 06d2 B9F80020 		ldrh	r2, [r9]
 1507 06d6 DEF804C0 		ldr	ip, [lr, #4]	@ unaligned
 1508 06da D8F80000 		ldr	r0, [r8]
 1509 06de 2989     		ldrh	r1, [r5, #8]
 1510 06e0 CCEB0203 		rsb	r3, ip, r2
 1511 06e4 0344     		add	r3, r3, r0
 1512 06e6 591A     		subs	r1, r3, r1
 1513              		.loc 1 1262 0 discriminator 1
 1514 06e8 0029     		cmp	r1, #0
 1515 06ea C0F29981 		blt	.L128
 1516 06ee AA46     		mov	r10, r5
 1517              	.LVL133:
 1518              	.L132:
 1519              		.loc 1 1266 0
 1520 06f0 BEF80C00 		ldrh	r0, [lr, #12]	@ unaligned
 1521 06f4 FFF7FEFF 		bl	lwip_ntohs
 1522              	.LVL134:
 1523 06f8 C107     		lsls	r1, r0, #31
 1524 06fa E0D5     		bpl	.L130
 1525              		.loc 1 1267 0 discriminator 1
 1526 06fc 3B69     		ldr	r3, [r7, #16]
 1527 06fe 9889     		ldrh	r0, [r3, #12]	@ unaligned
 1528 0700 FFF7FEFF 		bl	lwip_ntohs
 1529              	.LVL135:
 1530              		.loc 1 1266 0 discriminator 1
 1531 0704 8207     		lsls	r2, r0, #30
 1532 0706 DAD4     		bmi	.L130
 1533              		.loc 1 1268 0
 1534 0708 D6F810B0 		ldr	fp, [r6, #16]
 1535 070c 0120     		movs	r0, #1
 1536 070e BBF80C50 		ldrh	r5, [fp, #12]	@ unaligned
ARM GAS  C:\Users\jo\AppData\Local\Temp\ccfChKJS.s 			page 28


 1537 0712 FFF7FEFF 		bl	lwip_htons
 1538              	.LVL136:
 1539              		.loc 1 1269 0
 1540 0716 3269     		ldr	r2, [r6, #16]
 1541 0718 3389     		ldrh	r3, [r6, #8]
 1542 071a 0393     		str	r3, [sp, #12]
 1543              		.loc 1 1268 0
 1544 071c 2843     		orrs	r0, r0, r5
 1545 071e ABF80C00 		strh	r0, [fp, #12]	@ unaligned
 1546              		.loc 1 1269 0
 1547 0722 9089     		ldrh	r0, [r2, #12]	@ unaligned
 1548 0724 FFF7FEFF 		bl	lwip_ntohs
 1549              	.LVL137:
 1550 0728 039B     		ldr	r3, [sp, #12]
 1551 072a 10F00300 		ands	r0, r0, #3
 1552 072e 18BF     		it	ne
 1553 0730 0120     		movne	r0, #1
 1554 0732 1844     		add	r0, r0, r3
 1555 0734 A9F80000 		strh	r0, [r9]	@ movhi
 1556 0738 C1E7     		b	.L130
 1557              	.LVL138:
 1558              	.L126:
 1559              	.LBB70:
 1560              		.loc 1 1255 0
 1561 073a 0368     		ldr	r3, [r0]
 1562 073c 6367     		str	r3, [r4, #116]
 1563              		.loc 1 1256 0
 1564 073e FFF7FEFF 		bl	tcp_seg_free
 1565              	.LVL139:
 1566              	.L249:
 1567              	.LBE70:
 1568              		.loc 1 1253 0
 1569 0742 606F     		ldr	r0, [r4, #116]
 1570 0744 0028     		cmp	r0, #0
 1571 0746 F8D1     		bne	.L126
 1572              	.L244:
 1573 0748 B9F80020 		ldrh	r2, [r9]
 1574 074c D8F80030 		ldr	r3, [r8]
 1575 0750 1344     		add	r3, r3, r2
 1576              	.L123:
 1577              		.loc 1 1298 0
 1578 0752 A18D     		ldrh	r1, [r4, #44]
 1579              		.loc 1 1295 0
 1580 0754 A362     		str	r3, [r4, #40]
 1581              		.loc 1 1298 0
 1582 0756 9142     		cmp	r1, r2
 1583 0758 C0F04981 		bcc	.L282
 1584              	.L136:
 1585              		.loc 1 1299 0
 1586 075c 8A1A     		subs	r2, r1, r2
 1587 075e A285     		strh	r2, [r4, #44]	@ movhi
 1588              		.loc 1 1301 0
 1589 0760 2046     		mov	r0, r4
 1590 0762 FFF7FEFF 		bl	tcp_update_rcv_ann_wnd
 1591              	.LVL140:
 1592              		.loc 1 1312 0
 1593 0766 7B68     		ldr	r3, [r7, #4]
ARM GAS  C:\Users\jo\AppData\Local\Temp\ccfChKJS.s 			page 29


 1594 0768 6B49     		ldr	r1, .L289
 1595 076a 1A89     		ldrh	r2, [r3, #8]
 1596 076c 1AB1     		cbz	r2, .L137
 1597              		.loc 1 1313 0
 1598 076e 6B48     		ldr	r0, .L289+4
 1599              		.loc 1 1317 0
 1600 0770 0022     		movs	r2, #0
 1601              		.loc 1 1313 0
 1602 0772 0360     		str	r3, [r0]
 1603              		.loc 1 1317 0
 1604 0774 4A60     		str	r2, [r1, #4]
 1605              	.L137:
 1606              		.loc 1 1319 0
 1607 0776 3B69     		ldr	r3, [r7, #16]
 1608 0778 9889     		ldrh	r0, [r3, #12]	@ unaligned
 1609 077a FFF7FEFF 		bl	lwip_ntohs
 1610              	.LVL141:
 1611 077e C507     		lsls	r5, r0, #31
 1612 0780 04D5     		bpl	.L138
 1613              		.loc 1 1321 0
 1614 0782 674A     		ldr	r2, .L289+8
 1615 0784 1378     		ldrb	r3, [r2]	@ zero_extendqisi2
 1616 0786 43F02003 		orr	r3, r3, #32
 1617 078a 1370     		strb	r3, [r2]
 1618              	.L138:
 1619              		.loc 1 1327 0
 1620 078c 656F     		ldr	r5, [r4, #116]
 1621 078e 002D     		cmp	r5, #0
 1622 0790 68D0     		beq	.L142
 1623              		.loc 1 1328 0
 1624 0792 2A69     		ldr	r2, [r5, #16]
 1625 0794 A36A     		ldr	r3, [r4, #40]
 1626 0796 5168     		ldr	r1, [r2, #4]	@ unaligned
 1627              		.loc 1 1327 0
 1628 0798 9942     		cmp	r1, r3
 1629 079a 63D1     		bne	.L142
 1630              		.loc 1 1334 0
 1631 079c 614E     		ldr	r6, .L289+12
 1632 079e 36E0     		b	.L150
 1633              	.LVL142:
 1634              	.L143:
 1635              		.loc 1 1336 0
 1636 07a0 2B69     		ldr	r3, [r5, #16]
 1637 07a2 2F89     		ldrh	r7, [r5, #8]
 1638 07a4 9889     		ldrh	r0, [r3, #12]	@ unaligned
 1639 07a6 FFF7FEFF 		bl	lwip_ntohs
 1640              	.LVL143:
 1641 07aa 10F00300 		ands	r0, r0, #3
 1642 07ae A38D     		ldrh	r3, [r4, #44]
 1643 07b0 18BF     		it	ne
 1644 07b2 0120     		movne	r0, #1
 1645 07b4 3844     		add	r0, r0, r7
 1646 07b6 181A     		subs	r0, r3, r0
 1647 07b8 A085     		strh	r0, [r4, #44]	@ movhi
 1648              		.loc 1 1338 0
 1649 07ba 2046     		mov	r0, r4
 1650 07bc FFF7FEFF 		bl	tcp_update_rcv_ann_wnd
ARM GAS  C:\Users\jo\AppData\Local\Temp\ccfChKJS.s 			page 30


 1651              	.LVL144:
 1652              		.loc 1 1340 0
 1653 07c0 6968     		ldr	r1, [r5, #4]
 1654 07c2 0B89     		ldrh	r3, [r1, #8]
 1655 07c4 3BB1     		cbz	r3, .L144
 1656              		.loc 1 1343 0
 1657 07c6 554B     		ldr	r3, .L289+4
 1658 07c8 1868     		ldr	r0, [r3]
 1659 07ca 0028     		cmp	r0, #0
 1660 07cc 48D0     		beq	.L145
 1661              		.loc 1 1344 0
 1662 07ce FFF7FEFF 		bl	pbuf_cat
 1663              	.LVL145:
 1664              	.L146:
 1665              		.loc 1 1348 0
 1666 07d2 0023     		movs	r3, #0
 1667 07d4 6B60     		str	r3, [r5, #4]
 1668              	.L144:
 1669              		.loc 1 1350 0
 1670 07d6 2B69     		ldr	r3, [r5, #16]
 1671 07d8 9889     		ldrh	r0, [r3, #12]	@ unaligned
 1672 07da FFF7FEFF 		bl	lwip_ntohs
 1673              	.LVL146:
 1674 07de C107     		lsls	r1, r0, #31
 1675 07e0 09D5     		bpl	.L148
 1676              		.loc 1 1352 0
 1677 07e2 4F4A     		ldr	r2, .L289+8
 1678              		.loc 1 1353 0
 1679 07e4 217E     		ldrb	r1, [r4, #24]	@ zero_extendqisi2
 1680              		.loc 1 1352 0
 1681 07e6 1378     		ldrb	r3, [r2]	@ zero_extendqisi2
 1682              		.loc 1 1353 0
 1683 07e8 0429     		cmp	r1, #4
 1684              		.loc 1 1352 0
 1685 07ea 43F02003 		orr	r3, r3, #32
 1686 07ee 1370     		strb	r3, [r2]
 1687              		.loc 1 1354 0
 1688 07f0 04BF     		itt	eq
 1689 07f2 0723     		moveq	r3, #7
 1690 07f4 2376     		strbeq	r3, [r4, #24]
 1691              	.L148:
 1692              		.loc 1 1358 0
 1693 07f6 2B68     		ldr	r3, [r5]
 1694 07f8 6367     		str	r3, [r4, #116]
 1695              		.loc 1 1359 0
 1696 07fa 2846     		mov	r0, r5
 1697 07fc FFF7FEFF 		bl	tcp_seg_free
 1698              	.LVL147:
 1699              		.loc 1 1327 0
 1700 0800 656F     		ldr	r5, [r4, #116]
 1701              	.LVL148:
 1702 0802 7DB3     		cbz	r5, .L142
 1703              		.loc 1 1328 0 discriminator 1
 1704 0804 2A69     		ldr	r2, [r5, #16]
 1705              		.loc 1 1327 0 discriminator 1
 1706 0806 A16A     		ldr	r1, [r4, #40]
 1707              		.loc 1 1328 0 discriminator 1
ARM GAS  C:\Users\jo\AppData\Local\Temp\ccfChKJS.s 			page 31


 1708 0808 5368     		ldr	r3, [r2, #4]	@ unaligned
 1709              		.loc 1 1327 0 discriminator 1
 1710 080a 8B42     		cmp	r3, r1
 1711 080c 2AD1     		bne	.L142
 1712              	.L150:
 1713              	.LVL149:
 1714              		.loc 1 1331 0
 1715 080e C8F80030 		str	r3, [r8]
 1716              		.loc 1 1333 0
 1717 0812 9089     		ldrh	r0, [r2, #12]	@ unaligned
 1718 0814 B5F808A0 		ldrh	r10, [r5, #8]
 1719 0818 FFF7FEFF 		bl	lwip_ntohs
 1720              	.LVL150:
 1721 081c 10F00300 		ands	r0, r0, #3
 1722 0820 18BF     		it	ne
 1723 0822 0120     		movne	r0, #1
 1724 0824 A36A     		ldr	r3, [r4, #40]
 1725              		.loc 1 1334 0
 1726 0826 2A69     		ldr	r2, [r5, #16]
 1727 0828 B5F80890 		ldrh	r9, [r5, #8]
 1728 082c A78D     		ldrh	r7, [r4, #44]
 1729              		.loc 1 1333 0
 1730 082e 5044     		add	r0, r0, r10
 1731 0830 1844     		add	r0, r0, r3
 1732 0832 A062     		str	r0, [r4, #40]
 1733              		.loc 1 1334 0
 1734 0834 9089     		ldrh	r0, [r2, #12]	@ unaligned
 1735 0836 FFF7FEFF 		bl	lwip_ntohs
 1736              	.LVL151:
 1737 083a 10F00300 		ands	r0, r0, #3
 1738 083e 18BF     		it	ne
 1739 0840 0120     		movne	r0, #1
 1740 0842 4844     		add	r0, r0, r9
 1741 0844 8742     		cmp	r7, r0
 1742 0846 ABDA     		bge	.L143
 1743              		.loc 1 1334 0 is_stmt 0 discriminator 1
 1744 0848 0096     		str	r6, [sp]
 1745 084a 3749     		ldr	r1, .L289+16
 1746 084c 374A     		ldr	r2, .L289+20
 1747 084e 3848     		ldr	r0, .L289+24
 1748 0850 40F23753 		movw	r3, #1335
 1749 0854 FFF7FEFF 		bl	chprintf.constprop.1
 1750              	.LVL152:
 1751              	.LBB71:
 1752              	.LBB72:
 1753              		.loc 3 416 0 is_stmt 1 discriminator 1
 1754 0858 3448     		ldr	r0, .L289+20
 1755 085a FFF7FEFF 		bl	chSysHalt
 1756              	.LVL153:
 1757 085e 9FE7     		b	.L143
 1758              	.LVL154:
 1759              	.L145:
 1760              	.LBE72:
 1761              	.LBE71:
 1762              		.loc 1 1346 0
 1763 0860 1960     		str	r1, [r3]
 1764 0862 B6E7     		b	.L146
ARM GAS  C:\Users\jo\AppData\Local\Temp\ccfChKJS.s 			page 32


 1765              	.LVL155:
 1766              	.L142:
 1767              		.loc 1 1365 0
 1768 0864 A37F     		ldrb	r3, [r4, #30]	@ zero_extendqisi2
 1769 0866 D807     		lsls	r0, r3, #31
 1770 0868 50D5     		bpl	.L283
 1771              		.loc 1 1365 0 is_stmt 0 discriminator 1
 1772 086a 23F00103 		bic	r3, r3, #1
 1773 086e 43F00203 		orr	r3, r3, #2
 1774 0872 A377     		strb	r3, [r4, #30]
 1775 0874 FFF7EBBB 		b	.L56
 1776              	.LVL156:
 1777              	.L270:
 1778              		.loc 1 1394 0 is_stmt 1
 1779 0878 2748     		ldr	r0, .L289
 1780 087a 2B89     		ldrh	r3, [r5, #8]
 1781 087c 0289     		ldrh	r2, [r0, #8]
 1782 087e 9A42     		cmp	r2, r3
 1783 0880 7FF6E5AB 		bls	.L56
 1784              		.loc 1 1398 0
 1785 0884 FFF7FEFF 		bl	tcp_seg_copy
 1786              	.LVL157:
 1787              		.loc 1 1399 0
 1788 0888 0028     		cmp	r0, #0
 1789 088a 3FF4E0AB 		beq	.L56
 1790              		.loc 1 1400 0
 1791 088e 002E     		cmp	r6, #0
 1792 0890 00F02F81 		beq	.L156
 1793              		.loc 1 1401 0
 1794 0894 3060     		str	r0, [r6]
 1795 0896 1BE5     		b	.L245
 1796              	.LVL158:
 1797              	.L106:
 1798              		.loc 1 1193 0
 1799 0898 7142     		negs	r1, r6
 1800 089a 09B2     		sxth	r1, r1
 1801 089c FFF7FEFF 		bl	pbuf_header
 1802              	.LVL159:
 1803 08a0 0028     		cmp	r0, #0
 1804 08a2 3FF48CAE 		beq	.L111
 1805              		.loc 1 1195 0 discriminator 1
 1806 08a6 1F4B     		ldr	r3, .L289+12
 1807 08a8 0093     		str	r3, [sp]
 1808 08aa 1F49     		ldr	r1, .L289+16
 1809 08ac 214A     		ldr	r2, .L289+28
 1810 08ae 2048     		ldr	r0, .L289+24
 1811 08b0 40F2AB43 		movw	r3, #1195
 1812 08b4 FFF7FEFF 		bl	chprintf.constprop.1
 1813              	.LVL160:
 1814              	.LBB73:
 1815              	.LBB74:
 1816              		.loc 3 416 0 discriminator 1
 1817 08b8 1E48     		ldr	r0, .L289+28
 1818 08ba FFF7FEFF 		bl	chSysHalt
 1819              	.LVL161:
 1820 08be 7EE6     		b	.L111
 1821              	.LVL162:
ARM GAS  C:\Users\jo\AppData\Local\Temp\ccfChKJS.s 			page 33


 1822              	.L278:
 1823              	.LBE74:
 1824              	.LBE73:
 1825              		.loc 1 1175 0 discriminator 1
 1826 08c0 184B     		ldr	r3, .L289+12
 1827 08c2 0093     		str	r3, [sp]
 1828 08c4 1849     		ldr	r1, .L289+16
 1829 08c6 1C4A     		ldr	r2, .L289+32
 1830 08c8 1948     		ldr	r0, .L289+24
 1831 08ca 40F29743 		movw	r3, #1175
 1832 08ce FFF7FEFF 		bl	chprintf.constprop.1
 1833              	.LVL163:
 1834              	.LBB75:
 1835              	.LBB76:
 1836              		.loc 3 416 0 discriminator 1
 1837 08d2 1948     		ldr	r0, .L289+32
 1838 08d4 FFF7FEFF 		bl	chSysHalt
 1839              	.LVL164:
 1840 08d8 4FE6     		b	.L105
 1841              	.LVL165:
 1842              	.L268:
 1843              	.LBE76:
 1844              	.LBE75:
 1845              		.loc 1 1437 0
 1846 08da 0F48     		ldr	r0, .L289
 1847 08dc FFF7FEFF 		bl	tcp_seg_copy
 1848              	.LVL166:
 1849              		.loc 1 1438 0
 1850 08e0 0446     		mov	r4, r0
 1851              	.LVL167:
 1852 08e2 0028     		cmp	r0, #0
 1853 08e4 3FF4B3AB 		beq	.L56
 1854              		.loc 1 1439 0
 1855 08e8 3169     		ldr	r1, [r6, #16]
 1856 08ea D8F80030 		ldr	r3, [r8]
 1857 08ee 3289     		ldrh	r2, [r6, #8]
 1858 08f0 4968     		ldr	r1, [r1, #4]	@ unaligned
 1859 08f2 D21A     		subs	r2, r2, r3
 1860 08f4 0A44     		add	r2, r2, r1
 1861 08f6 002A     		cmp	r2, #0
 1862 08f8 05DD     		ble	.L160
 1863              		.loc 1 1441 0
 1864 08fa 5B1A     		subs	r3, r3, r1
 1865 08fc 99B2     		uxth	r1, r3
 1866 08fe 3181     		strh	r1, [r6, #8]	@ movhi
 1867              		.loc 1 1442 0
 1868 0900 7068     		ldr	r0, [r6, #4]
 1869              	.LVL168:
 1870 0902 FFF7FEFF 		bl	pbuf_realloc
 1871              	.LVL169:
 1872              	.L160:
 1873              		.loc 1 1444 0
 1874 0906 3460     		str	r4, [r6]
 1875              		.loc 1 1445 0
 1876 0908 2046     		mov	r0, r4
 1877 090a E1E4     		b	.L245
 1878              	.LVL170:
ARM GAS  C:\Users\jo\AppData\Local\Temp\ccfChKJS.s 			page 34


 1879              	.L283:
 1880              		.loc 1 1365 0 discriminator 2
 1881 090c 43F00103 		orr	r3, r3, #1
 1882 0910 A377     		strb	r3, [r4, #30]
 1883 0912 FFF79CBB 		b	.L56
 1884              	.L290:
 1885 0916 00BF     		.align	2
 1886              	.L289:
 1887 0918 00000000 		.word	.LANCHOR5
 1888 091c 00000000 		.word	.LANCHOR6
 1889 0920 00000000 		.word	.LANCHOR7
 1890 0924 44000000 		.word	.LC2
 1891 0928 00000000 		.word	.LC0
 1892 092c 88010000 		.word	.LC12
 1893 0930 00000000 		.word	itm_port
 1894 0934 E0000000 		.word	.LC8
 1895 0938 C0000000 		.word	.LC6
 1896              	.LVL171:
 1897              	.L279:
 1898              		.loc 1 1177 0 discriminator 1
 1899 093c 764B     		ldr	r3, .L291
 1900 093e 774A     		ldr	r2, .L291+4
 1901 0940 0093     		str	r3, [sp]
 1902 0942 7749     		ldr	r1, .L291+8
 1903 0944 7748     		ldr	r0, .L291+12
 1904 0946 40F29943 		movw	r3, #1177
 1905 094a FFF7FEFF 		bl	chprintf.constprop.1
 1906              	.LVL172:
 1907              	.LBB77:
 1908              	.LBB78:
 1909              		.loc 3 416 0 discriminator 1
 1910 094e 7348     		ldr	r0, .L291+4
 1911 0950 FFF7FEFF 		bl	chSysHalt
 1912              	.LVL173:
 1913 0954 DBF80430 		ldr	r3, [fp, #4]
 1914 0958 1A89     		ldrh	r2, [r3, #8]
 1915 095a 19E6     		b	.L107
 1916              	.LVL174:
 1917              	.L280:
 1918              	.LBE78:
 1919              	.LBE77:
 1920              		.loc 1 1190 0 discriminator 1
 1921 095c 6E4B     		ldr	r3, .L291
 1922 095e 0093     		str	r3, [sp]
 1923 0960 6F49     		ldr	r1, .L291+8
 1924 0962 714A     		ldr	r2, .L291+16
 1925 0964 6F48     		ldr	r0, .L291+12
 1926 0966 40F2A643 		movw	r3, #1190
 1927 096a FFF7FEFF 		bl	chprintf.constprop.1
 1928              	.LVL175:
 1929              	.LBB79:
 1930              	.LBB80:
 1931              		.loc 3 416 0 discriminator 1
 1932 096e 6E48     		ldr	r0, .L291+16
 1933 0970 FFF7FEFF 		bl	chSysHalt
 1934              	.LVL176:
 1935 0974 23E6     		b	.L111
ARM GAS  C:\Users\jo\AppData\Local\Temp\ccfChKJS.s 			page 35


 1936              	.LVL177:
 1937              	.L281:
 1938              	.LBE80:
 1939              	.LBE79:
 1940              		.loc 1 1227 0
 1941 0976 3B69     		ldr	r3, [r7, #16]
 1942 0978 9889     		ldrh	r0, [r3, #12]	@ unaligned
 1943 097a FFF7FEFF 		bl	lwip_ntohs
 1944              	.LVL178:
 1945 097e C307     		lsls	r3, r0, #31
 1946 0980 00F1A280 		bmi	.L284
 1947              	.L118:
 1948              		.loc 1 1233 0
 1949 0984 A28D     		ldrh	r2, [r4, #44]
 1950              		.loc 1 1234 0
 1951 0986 3B69     		ldr	r3, [r7, #16]
 1952              		.loc 1 1233 0
 1953 0988 3A81     		strh	r2, [r7, #8]	@ movhi
 1954              		.loc 1 1234 0
 1955 098a 9889     		ldrh	r0, [r3, #12]	@ unaligned
 1956              		.loc 1 1233 0
 1957 098c 674D     		ldr	r5, .L291+20
 1958              		.loc 1 1234 0
 1959 098e FFF7FEFF 		bl	lwip_ntohs
 1960              	.LVL179:
 1961              		.loc 1 1235 0
 1962 0992 2989     		ldrh	r1, [r5, #8]
 1963              		.loc 1 1234 0
 1964 0994 8607     		lsls	r6, r0, #30
 1965              		.loc 1 1235 0
 1966 0996 44BF     		itt	mi
 1967 0998 01F1FF31 		addmi	r1, r1, #-1
 1968 099c 89B2     		uxthmi	r1, r1
 1969              		.loc 1 1237 0
 1970 099e 7868     		ldr	r0, [r7, #4]
 1971              		.loc 1 1235 0
 1972 09a0 48BF     		it	mi
 1973 09a2 2981     		strhmi	r1, [r5, #8]	@ movhi
 1974              		.loc 1 1237 0
 1975 09a4 FFF7FEFF 		bl	pbuf_realloc
 1976              	.LVL180:
 1977              		.loc 1 1238 0
 1978 09a8 3B69     		ldr	r3, [r7, #16]
 1979 09aa 3D89     		ldrh	r5, [r7, #8]
 1980 09ac 9889     		ldrh	r0, [r3, #12]	@ unaligned
 1981 09ae FFF7FEFF 		bl	lwip_ntohs
 1982              	.LVL181:
 1983 09b2 10F00300 		ands	r0, r0, #3
 1984 09b6 18BF     		it	ne
 1985 09b8 0120     		movne	r0, #1
 1986 09ba 2B18     		adds	r3, r5, r0
 1987              		.loc 1 1239 0
 1988 09bc D8F80010 		ldr	r1, [r8]
 1989 09c0 A08D     		ldrh	r0, [r4, #44]
 1990 09c2 A26A     		ldr	r2, [r4, #40]
 1991              		.loc 1 1238 0
 1992 09c4 9BB2     		uxth	r3, r3
ARM GAS  C:\Users\jo\AppData\Local\Temp\ccfChKJS.s 			page 36


 1993              		.loc 1 1239 0
 1994 09c6 1944     		add	r1, r1, r3
 1995 09c8 0244     		add	r2, r2, r0
 1996 09ca 9142     		cmp	r1, r2
 1997              		.loc 1 1238 0
 1998 09cc A9F80030 		strh	r3, [r9]	@ movhi
 1999              		.loc 1 1239 0
 2000 09d0 3FF453AE 		beq	.L117
 2001              		.loc 1 1239 0 is_stmt 0 discriminator 1
 2002 09d4 504B     		ldr	r3, .L291
 2003 09d6 0093     		str	r3, [sp]
 2004 09d8 5149     		ldr	r1, .L291+8
 2005 09da 554A     		ldr	r2, .L291+24
 2006 09dc 5148     		ldr	r0, .L291+12
 2007 09de 4FF49B63 		mov	r3, #1240
 2008 09e2 FFF7FEFF 		bl	chprintf.constprop.1
 2009              	.LVL182:
 2010              	.LBB81:
 2011              	.LBB82:
 2012              		.loc 3 416 0 is_stmt 1 discriminator 1
 2013 09e6 5248     		ldr	r0, .L291+24
 2014 09e8 FFF7FEFF 		bl	chSysHalt
 2015              	.LVL183:
 2016 09ec 45E6     		b	.L117
 2017              	.LVL184:
 2018              	.L282:
 2019              	.LBE82:
 2020              	.LBE81:
 2021              		.loc 1 1298 0 discriminator 1
 2022 09ee 4A4B     		ldr	r3, .L291
 2023 09f0 4B49     		ldr	r1, .L291+8
 2024 09f2 504A     		ldr	r2, .L291+28
 2025 09f4 0093     		str	r3, [sp]
 2026 09f6 4B48     		ldr	r0, .L291+12
 2027 09f8 40F21253 		movw	r3, #1298
 2028 09fc FFF7FEFF 		bl	chprintf.constprop.1
 2029              	.LVL185:
 2030              	.LBB83:
 2031              	.LBB84:
 2032              		.loc 3 416 0 discriminator 1
 2033 0a00 4C48     		ldr	r0, .L291+28
 2034 0a02 FFF7FEFF 		bl	chSysHalt
 2035              	.LVL186:
 2036 0a06 B9F80020 		ldrh	r2, [r9]
 2037 0a0a A18D     		ldrh	r1, [r4, #44]
 2038 0a0c A6E6     		b	.L136
 2039              	.LVL187:
 2040              	.L127:
 2041 0a0e B9F80020 		ldrh	r2, [r9]
 2042 0a12 D8F80030 		ldr	r3, [r8]
 2043              	.LBE84:
 2044              	.LBE83:
 2045 0a16 0025     		movs	r5, #0
 2046 0a18 1344     		add	r3, r3, r2
 2047              	.L135:
 2048              		.loc 1 1290 0
 2049 0a1a 6567     		str	r5, [r4, #116]
ARM GAS  C:\Users\jo\AppData\Local\Temp\ccfChKJS.s 			page 37


 2050 0a1c 99E6     		b	.L123
 2051              	.LVL188:
 2052              	.L171:
 2053              		.loc 1 1262 0
 2054 0a1e 5546     		mov	r5, r10
 2055              	.LVL189:
 2056              	.L128:
 2057              		.loc 1 1277 0
 2058 0a20 002B     		cmp	r3, #0
 2059 0a22 0EDC     		bgt	.L169
 2060 0a24 8318     		adds	r3, r0, r2
 2061 0a26 F8E7     		b	.L135
 2062              	.LVL190:
 2063              	.L277:
 2064              		.loc 1 1174 0 discriminator 1
 2065 0a28 3B4B     		ldr	r3, .L291
 2066 0a2a 0093     		str	r3, [sp]
 2067 0a2c 3C49     		ldr	r1, .L291+8
 2068 0a2e 424A     		ldr	r2, .L291+32
 2069 0a30 3C48     		ldr	r0, .L291+12
 2070 0a32 40F29643 		movw	r3, #1174
 2071 0a36 FFF7FEFF 		bl	chprintf.constprop.1
 2072              	.LVL191:
 2073              	.LBB85:
 2074              	.LBB86:
 2075              		.loc 3 416 0 discriminator 1
 2076 0a3a 3F48     		ldr	r0, .L291+32
 2077 0a3c FFF7FEFF 		bl	chSysHalt
 2078              	.LVL192:
 2079 0a40 96E5     		b	.L104
 2080              	.LVL193:
 2081              	.L169:
 2082              	.LBE86:
 2083              	.LBE85:
 2084              		.loc 1 1281 0
 2085 0a42 C0EB0C03 		rsb	r3, r0, ip
 2086              		.loc 1 1282 0
 2087 0a46 3A69     		ldr	r2, [r7, #16]
 2088              		.loc 1 1281 0
 2089 0a48 3B81     		strh	r3, [r7, #8]	@ movhi
 2090              		.loc 1 1282 0
 2091 0a4a 9089     		ldrh	r0, [r2, #12]	@ unaligned
 2092              		.loc 1 1281 0
 2093 0a4c 374E     		ldr	r6, .L291+20
 2094              		.loc 1 1286 0
 2095 0a4e DFF8F4A0 		ldr	r10, .L291+44
 2096              		.loc 1 1282 0
 2097 0a52 FFF7FEFF 		bl	lwip_ntohs
 2098              	.LVL194:
 2099              		.loc 1 1283 0
 2100 0a56 3189     		ldrh	r1, [r6, #8]
 2101              		.loc 1 1282 0
 2102 0a58 8307     		lsls	r3, r0, #30
 2103              		.loc 1 1283 0
 2104 0a5a 44BF     		itt	mi
 2105 0a5c 01F1FF31 		addmi	r1, r1, #-1
 2106 0a60 89B2     		uxthmi	r1, r1
ARM GAS  C:\Users\jo\AppData\Local\Temp\ccfChKJS.s 			page 38


 2107              		.loc 1 1285 0
 2108 0a62 7868     		ldr	r0, [r7, #4]
 2109              		.loc 1 1283 0
 2110 0a64 48BF     		it	mi
 2111 0a66 3181     		strhmi	r1, [r6, #8]	@ movhi
 2112              		.loc 1 1285 0
 2113 0a68 FFF7FEFF 		bl	pbuf_realloc
 2114              	.LVL195:
 2115              		.loc 1 1286 0
 2116 0a6c 3B69     		ldr	r3, [r7, #16]
 2117 0a6e B7F808B0 		ldrh	fp, [r7, #8]
 2118 0a72 9889     		ldrh	r0, [r3, #12]	@ unaligned
 2119              		.loc 1 1287 0
 2120 0a74 314E     		ldr	r6, .L291+36
 2121              		.loc 1 1286 0
 2122 0a76 FFF7FEFF 		bl	lwip_ntohs
 2123              	.LVL196:
 2124 0a7a 10F00300 		ands	r0, r0, #3
 2125 0a7e 18BF     		it	ne
 2126 0a80 0120     		movne	r0, #1
 2127 0a82 0BEB0002 		add	r2, fp, r0
 2128 0a86 92B2     		uxth	r2, r2
 2129              		.loc 1 1287 0
 2130 0a88 2B69     		ldr	r3, [r5, #16]
 2131              		.loc 1 1286 0
 2132 0a8a A9F80020 		strh	r2, [r9]	@ movhi
 2133              		.loc 1 1287 0
 2134 0a8e D8F80010 		ldr	r1, [r8]
 2135 0a92 5B68     		ldr	r3, [r3, #4]	@ unaligned
 2136 0a94 1144     		add	r1, r1, r2
 2137 0a96 9942     		cmp	r1, r3
 2138 0a98 BFD0     		beq	.L135
 2139              		.loc 1 1287 0 is_stmt 0 discriminator 1
 2140 0a9a 1F4B     		ldr	r3, .L291
 2141 0a9c 284A     		ldr	r2, .L291+40
 2142 0a9e 0093     		str	r3, [sp]
 2143 0aa0 1F49     		ldr	r1, .L291+8
 2144 0aa2 2048     		ldr	r0, .L291+12
 2145 0aa4 4FF4A163 		mov	r3, #1288
 2146 0aa8 FFF7FEFF 		bl	chprintf.constprop.1
 2147              	.LVL197:
 2148              	.LBB87:
 2149              	.LBB88:
 2150              		.loc 3 416 0 is_stmt 1 discriminator 1
 2151 0aac 2448     		ldr	r0, .L291+40
 2152 0aae FFF7FEFF 		bl	chSysHalt
 2153              	.LVL198:
 2154 0ab2 BAF80020 		ldrh	r2, [r10]
 2155 0ab6 3368     		ldr	r3, [r6]
 2156 0ab8 1344     		add	r3, r3, r2
 2157 0aba AEE7     		b	.L135
 2158              	.LVL199:
 2159              	.L267:
 2160              	.LBE88:
 2161              	.LBE87:
 2162              		.loc 1 1373 0
 2163 0abc 1B48     		ldr	r0, .L291+20
ARM GAS  C:\Users\jo\AppData\Local\Temp\ccfChKJS.s 			page 39


 2164 0abe FFF7FEFF 		bl	tcp_seg_copy
 2165              	.LVL200:
 2166 0ac2 6067     		str	r0, [r4, #116]
 2167 0ac4 FFF7C3BA 		b	.L56
 2168              	.L284:
 2169              		.loc 1 1230 0
 2170 0ac8 3E69     		ldr	r6, [r7, #16]
 2171 0aca B589     		ldrh	r5, [r6, #12]	@ unaligned
 2172 0acc 2846     		mov	r0, r5
 2173 0ace FFF7FEFF 		bl	lwip_ntohs
 2174              	.LVL201:
 2175 0ad2 00F03E00 		and	r0, r0, #62
 2176 0ad6 FFF7FEFF 		bl	lwip_htons
 2177              	.LVL202:
 2178 0ada 25F47C55 		bic	r5, r5, #16128
 2179 0ade 2843     		orrs	r0, r0, r5
 2180 0ae0 B081     		strh	r0, [r6, #12]	@ unaligned
 2181 0ae2 4FE7     		b	.L118
 2182              	.LVL203:
 2183              	.L70:
 2184              		.loc 1 944 0
 2185 0ae4 7FF4D7AA 		bne	.L87
 2186              		.loc 1 946 0
 2187 0ae8 2046     		mov	r0, r4
 2188 0aea FFF7FEFF 		bl	tcp_rexmit_fast
 2189              	.LVL204:
 2190 0aee FFF7D2BA 		b	.L87
 2191              	.LVL205:
 2192              	.L156:
 2193              		.loc 1 1403 0
 2194 0af2 6067     		str	r0, [r4, #116]
 2195 0af4 FFF7ECBB 		b	.L245
 2196              	.LVL206:
 2197              	.L271:
 2198              		.loc 1 1475 0
 2199 0af8 2B68     		ldr	r3, [r5]
 2200 0afa 1F69     		ldr	r7, [r3, #16]
 2201 0afc BE89     		ldrh	r6, [r7, #12]	@ unaligned
 2202 0afe 3046     		mov	r0, r6
 2203 0b00 FFF7FEFF 		bl	lwip_ntohs
 2204              	.LVL207:
 2205 0b04 00F03E00 		and	r0, r0, #62
 2206 0b08 FFF7FEFF 		bl	lwip_htons
 2207              	.LVL208:
 2208 0b0c 26F47C56 		bic	r6, r6, #16128
 2209 0b10 3043     		orrs	r0, r0, r6
 2210 0b12 B881     		strh	r0, [r7, #12]	@ unaligned
 2211 0b14 35E4     		b	.L163
 2212              	.L292:
 2213 0b16 00BF     		.align	2
 2214              	.L291:
 2215 0b18 44000000 		.word	.LC2
 2216 0b1c D0000000 		.word	.LC7
 2217 0b20 00000000 		.word	.LC0
 2218 0b24 00000000 		.word	itm_port
 2219 0b28 E0000000 		.word	.LC8
 2220 0b2c 00000000 		.word	.LANCHOR5
ARM GAS  C:\Users\jo\AppData\Local\Temp\ccfChKJS.s 			page 40


 2221 0b30 F4000000 		.word	.LC9
 2222 0b34 68010000 		.word	.LC11
 2223 0b38 B0000000 		.word	.LC5
 2224 0b3c 00000000 		.word	.LANCHOR0
 2225 0b40 2C010000 		.word	.LC10
 2226 0b44 00000000 		.word	.LANCHOR4
 2227              		.cfi_endproc
 2228              	.LFE265:
 2229              		.size	tcp_receive, .-tcp_receive
 2230 0b48 AFF30080 		.section	.text.tcp_input,"ax",%progbits
 2230      AFF30080 
 2231              		.align	2
 2232              		.p2align 4,,15
 2233              		.global	tcp_input
 2234              		.thumb
 2235              		.thumb_func
 2236              		.type	tcp_input, %function
 2237              	tcp_input:
 2238              	.LFB260:
 2239              		.loc 1 93 0
 2240              		.cfi_startproc
 2241              		@ args = 0, pretend = 0, frame = 0
 2242              		@ frame_needed = 0, uses_anonymous_args = 0
 2243              	.LVL209:
 2244 0000 2DE9F04F 		push	{r4, r5, r6, r7, r8, r9, r10, fp, lr}
 2245              		.cfi_def_cfa_offset 36
 2246              		.cfi_offset 4, -36
 2247              		.cfi_offset 5, -32
 2248              		.cfi_offset 6, -28
 2249              		.cfi_offset 7, -24
 2250              		.cfi_offset 8, -20
 2251              		.cfi_offset 9, -16
 2252              		.cfi_offset 10, -12
 2253              		.cfi_offset 11, -8
 2254              		.cfi_offset 14, -4
 2255              		.loc 1 105 0
 2256 0004 A04C     		ldr	r4, .L537
 2257              		.loc 1 108 0
 2258 0006 4368     		ldr	r3, [r0, #4]
 2259              		.loc 1 105 0
 2260 0008 B4F89220 		ldrh	r2, [r4, #146]
 2261              		.loc 1 108 0
 2262 000c 9F4F     		ldr	r7, .L537+4
 2263              		.loc 1 109 0
 2264 000e A04E     		ldr	r6, .L537+8
 2265              		.loc 1 108 0
 2266 0010 3B60     		str	r3, [r7]
 2267              		.loc 1 105 0
 2268 0012 0132     		adds	r2, r2, #1
 2269 0014 A4F89220 		strh	r2, [r4, #146]	@ movhi
 2270              		.loc 1 109 0
 2271 0018 1A78     		ldrb	r2, [r3]	@ zero_extendqisi2
 2272 001a 02F00F02 		and	r2, r2, #15
 2273              		.loc 1 116 0
 2274 001e 4FEA820E 		lsl	lr, r2, #2
 2275              		.loc 1 93 0
 2276 0022 83B0     		sub	sp, sp, #12
ARM GAS  C:\Users\jo\AppData\Local\Temp\ccfChKJS.s 			page 41


 2277              		.cfi_def_cfa_offset 48
 2278              		.loc 1 93 0
 2279 0024 0F46     		mov	r7, r1
 2280              		.loc 1 109 0
 2281 0026 03EB8203 		add	r3, r3, r2, lsl #2
 2282              		.loc 1 116 0
 2283 002a CEF10001 		rsb	r1, lr, #0
 2284              	.LVL210:
 2285              		.loc 1 93 0
 2286 002e 0546     		mov	r5, r0
 2287              		.loc 1 109 0
 2288 0030 3360     		str	r3, [r6]
 2289              		.loc 1 116 0
 2290 0032 FFF7FEFF 		bl	pbuf_header
 2291              	.LVL211:
 2292 0036 10B9     		cbnz	r0, .L511
 2293              		.loc 1 116 0 is_stmt 0 discriminator 1
 2294 0038 2B89     		ldrh	r3, [r5, #8]
 2295 003a 132B     		cmp	r3, #19
 2296 003c 0FD8     		bhi	.L518
 2297              	.L511:
 2298              		.loc 1 151 0 is_stmt 1
 2299 003e B4F89A30 		ldrh	r3, [r4, #154]
 2300 0042 0133     		adds	r3, r3, #1
 2301 0044 A4F89A30 		strh	r3, [r4, #154]	@ movhi
 2302              	.L296:
 2303              		.loc 1 422 0
 2304 0048 B4F89630 		ldrh	r3, [r4, #150]
 2305 004c 0133     		adds	r3, r3, #1
 2306              		.loc 1 424 0
 2307 004e 2846     		mov	r0, r5
 2308              		.loc 1 422 0
 2309 0050 A4F89630 		strh	r3, [r4, #150]	@ movhi
 2310              	.LVL212:
 2311              	.L512:
 2312              		.loc 1 425 0
 2313 0054 03B0     		add	sp, sp, #12
 2314              		.cfi_remember_state
 2315              		.cfi_def_cfa_offset 36
 2316              		@ sp needed
 2317 0056 BDE8F04F 		pop	{r4, r5, r6, r7, r8, r9, r10, fp, lr}
 2318              		.cfi_restore 14
 2319              		.cfi_restore 11
 2320              		.cfi_restore 10
 2321              		.cfi_restore 9
 2322              		.cfi_restore 8
 2323              		.cfi_restore 7
 2324              		.cfi_restore 6
 2325              		.cfi_restore 5
 2326              		.cfi_restore 4
 2327              		.cfi_def_cfa_offset 0
 2328              		.loc 1 424 0
 2329 005a FFF7FEBF 		b	pbuf_free
 2330              	.LVL213:
 2331              	.L518:
 2332              		.cfi_restore_state
 2333              		.loc 1 124 0
ARM GAS  C:\Users\jo\AppData\Local\Temp\ccfChKJS.s 			page 42


 2334 005e DFF86882 		ldr	r8, .L537+64
 2335 0062 3946     		mov	r1, r7
 2336 0064 D8F80000 		ldr	r0, [r8]
 2337 0068 FFF7FEFF 		bl	ip4_addr_isbroadcast
 2338              	.LVL214:
 2339 006c A0B9     		cbnz	r0, .L297
 2340              		.loc 1 125 0 discriminator 1
 2341 006e D8F80030 		ldr	r3, [r8]
 2342 0072 03F0F003 		and	r3, r3, #240
 2343              		.loc 1 124 0 discriminator 1
 2344 0076 E02B     		cmp	r3, #224
 2345 0078 0ED0     		beq	.L297
 2346              		.loc 1 132 0
 2347 007a 2B89     		ldrh	r3, [r5, #8]
 2348 007c 0093     		str	r3, [sp]
 2349 007e 2846     		mov	r0, r5
 2350 0080 8449     		ldr	r1, .L537+12
 2351 0082 4246     		mov	r2, r8
 2352 0084 0623     		movs	r3, #6
 2353 0086 FFF7FEFF 		bl	inet_chksum_pseudo
 2354              	.LVL215:
 2355 008a 58B1     		cbz	r0, .L299
 2356              		.loc 1 140 0
 2357 008c B4F89830 		ldrh	r3, [r4, #152]
 2358 0090 0133     		adds	r3, r3, #1
 2359 0092 A4F89830 		strh	r3, [r4, #152]	@ movhi
 2360              		.loc 1 141 0
 2361 0096 D7E7     		b	.L296
 2362              	.L297:
 2363              		.loc 1 126 0
 2364 0098 B4F8A030 		ldrh	r3, [r4, #160]
 2365 009c 0133     		adds	r3, r3, #1
 2366 009e A4F8A030 		strh	r3, [r4, #160]	@ movhi
 2367              		.loc 1 127 0
 2368 00a2 D1E7     		b	.L296
 2369              	.L299:
 2370              		.loc 1 147 0
 2371 00a4 3368     		ldr	r3, [r6]
 2372 00a6 9889     		ldrh	r0, [r3, #12]	@ unaligned
 2373 00a8 FFF7FEFF 		bl	lwip_ntohs
 2374              	.LVL216:
 2375 00ac 000B     		lsrs	r0, r0, #12
 2376              	.LVL217:
 2377              		.loc 1 148 0
 2378 00ae C0EB8030 		rsb	r0, r0, r0, lsl #14
 2379 00b2 8100     		lsls	r1, r0, #2
 2380 00b4 09B2     		sxth	r1, r1
 2381 00b6 2846     		mov	r0, r5
 2382 00b8 FFF7FEFF 		bl	pbuf_header
 2383              	.LVL218:
 2384 00bc 8146     		mov	r9, r0
 2385 00be 0028     		cmp	r0, #0
 2386 00c0 BDD1     		bne	.L511
 2387              		.loc 1 156 0
 2388 00c2 3768     		ldr	r7, [r6]
 2389              	.LVL219:
 2390              		.loc 1 159 0
ARM GAS  C:\Users\jo\AppData\Local\Temp\ccfChKJS.s 			page 43


 2391 00c4 DFF804A2 		ldr	r10, .L537+68
 2392              		.loc 1 156 0
 2393 00c8 3888     		ldrh	r0, [r7]	@ unaligned
 2394 00ca FFF7FEFF 		bl	lwip_ntohs
 2395              	.LVL220:
 2396              		.loc 1 157 0
 2397 00ce D6F800B0 		ldr	fp, [r6]
 2398              		.loc 1 156 0
 2399 00d2 3880     		strh	r0, [r7]	@ unaligned
 2400              		.loc 1 157 0
 2401 00d4 BBF80200 		ldrh	r0, [fp, #2]	@ unaligned
 2402 00d8 FFF7FEFF 		bl	lwip_ntohs
 2403              	.LVL221:
 2404              		.loc 1 158 0
 2405 00dc 3768     		ldr	r7, [r6]
 2406              		.loc 1 157 0
 2407 00de ABF80200 		strh	r0, [fp, #2]	@ unaligned
 2408              		.loc 1 158 0
 2409 00e2 7868     		ldr	r0, [r7, #4]	@ unaligned
 2410 00e4 FFF7FEFF 		bl	lwip_ntohl
 2411              	.LVL222:
 2412 00e8 6B4B     		ldr	r3, .L537+16
 2413              		.loc 1 159 0
 2414 00ea D6F800B0 		ldr	fp, [r6]
 2415              		.loc 1 158 0
 2416 00ee 1860     		str	r0, [r3]
 2417 00f0 7860     		str	r0, [r7, #4]	@ unaligned
 2418              		.loc 1 159 0
 2419 00f2 DBF80800 		ldr	r0, [fp, #8]	@ unaligned
 2420 00f6 FFF7FEFF 		bl	lwip_ntohl
 2421              	.LVL223:
 2422              		.loc 1 160 0
 2423 00fa 3768     		ldr	r7, [r6]
 2424              		.loc 1 159 0
 2425 00fc CBF80800 		str	r0, [fp, #8]	@ unaligned
 2426 0100 CAF80000 		str	r0, [r10]
 2427              		.loc 1 160 0
 2428 0104 F889     		ldrh	r0, [r7, #14]	@ unaligned
 2429 0106 FFF7FEFF 		bl	lwip_ntohs
 2430              	.LVL224:
 2431              		.loc 1 162 0
 2432 010a 3368     		ldr	r3, [r6]
 2433              		.loc 1 160 0
 2434 010c F881     		strh	r0, [r7, #14]	@ unaligned
 2435              		.loc 1 162 0
 2436 010e 9889     		ldrh	r0, [r3, #12]	@ unaligned
 2437 0110 FFF7FEFF 		bl	lwip_ntohs
 2438              	.LVL225:
 2439 0114 C0B2     		uxtb	r0, r0
 2440              		.loc 1 163 0
 2441 0116 10F00302 		ands	r2, r0, #3
 2442 011a 2B89     		ldrh	r3, [r5, #8]
 2443              		.loc 1 170 0
 2444 011c 5F49     		ldr	r1, .L537+20
 2445              		.loc 1 163 0
 2446 011e 18BF     		it	ne
 2447 0120 0122     		movne	r2, #1
ARM GAS  C:\Users\jo\AppData\Local\Temp\ccfChKJS.s 			page 44


 2448 0122 1344     		add	r3, r3, r2
 2449 0124 5E4A     		ldr	r2, .L537+24
 2450              		.loc 1 170 0
 2451 0126 0F68     		ldr	r7, [r1]
 2452              		.loc 1 163 0
 2453 0128 1380     		strh	r3, [r2]	@ movhi
 2454              	.LVL226:
 2455              		.loc 1 162 0
 2456 012a 5E4B     		ldr	r3, .L537+28
 2457 012c 00F03F00 		and	r0, r0, #63
 2458 0130 1870     		strb	r0, [r3]
 2459              		.loc 1 170 0
 2460 0132 002F     		cmp	r7, #0
 2461 0134 00F0A080 		beq	.L301
 2462              		.loc 1 171 0
 2463 0138 DFF894B1 		ldr	fp, .L537+72
 2464 013c 0FE0     		b	.L309
 2465              	.LVL227:
 2466              	.L302:
 2467              		.loc 1 172 0
 2468 013e 0A2B     		cmp	r3, #10
 2469 0140 00F08D80 		beq	.L519
 2470              	.L303:
 2471              		.loc 1 173 0
 2472 0144 012B     		cmp	r3, #1
 2473 0146 7ED0     		beq	.L520
 2474              	.L304:
 2475              		.loc 1 174 0
 2476 0148 3368     		ldr	r3, [r6]
 2477 014a B98B     		ldrh	r1, [r7, #28]
 2478 014c 1A88     		ldrh	r2, [r3]	@ unaligned
 2479 014e 9142     		cmp	r1, r2
 2480 0150 15D0     		beq	.L521
 2481              	.L305:
 2482              	.LVL228:
 2483              		.loc 1 170 0 discriminator 2
 2484 0152 FB68     		ldr	r3, [r7, #12]
 2485              	.LVL229:
 2486 0154 B946     		mov	r9, r7
 2487 0156 002B     		cmp	r3, #0
 2488 0158 00F08E80 		beq	.L301
 2489 015c 1F46     		mov	r7, r3
 2490              	.LVL230:
 2491              	.L309:
 2492              		.loc 1 171 0
 2493 015e 3B7E     		ldrb	r3, [r7, #24]	@ zero_extendqisi2
 2494 0160 002B     		cmp	r3, #0
 2495 0162 ECD1     		bne	.L302
 2496              		.loc 1 171 0 is_stmt 0 discriminator 1
 2497 0164 AB23     		movs	r3, #171
 2498 0166 5049     		ldr	r1, .L537+32
 2499 0168 504A     		ldr	r2, .L537+36
 2500 016a CDF800B0 		str	fp, [sp]
 2501 016e 5048     		ldr	r0, .L537+40
 2502 0170 FFF7FEFF 		bl	chprintf.constprop.1
 2503              	.LVL231:
 2504              	.LBB116:
ARM GAS  C:\Users\jo\AppData\Local\Temp\ccfChKJS.s 			page 45


 2505              	.LBB117:
 2506              		.loc 3 416 0 is_stmt 1 discriminator 1
 2507 0174 4D48     		ldr	r0, .L537+36
 2508 0176 FFF7FEFF 		bl	chSysHalt
 2509              	.LVL232:
 2510 017a 3B7E     		ldrb	r3, [r7, #24]	@ zero_extendqisi2
 2511 017c DFE7     		b	.L302
 2512              	.LVL233:
 2513              	.L521:
 2514              	.LBE117:
 2515              	.LBE116:
 2516              		.loc 1 174 0 discriminator 1
 2517 017e 5B88     		ldrh	r3, [r3, #2]	@ unaligned
 2518 0180 7A8B     		ldrh	r2, [r7, #26]
 2519 0182 9A42     		cmp	r2, r3
 2520 0184 E5D1     		bne	.L305
 2521              		.loc 1 176 0
 2522 0186 434B     		ldr	r3, .L537+12
 2523              		.loc 1 175 0
 2524 0188 7A68     		ldr	r2, [r7, #4]
 2525 018a 1B68     		ldr	r3, [r3]
 2526 018c 9A42     		cmp	r2, r3
 2527 018e E0D1     		bne	.L305
 2528              		.loc 1 176 0
 2529 0190 3A68     		ldr	r2, [r7]
 2530 0192 D8F80030 		ldr	r3, [r8]
 2531 0196 9A42     		cmp	r2, r3
 2532 0198 DBD1     		bne	.L305
 2533              		.loc 1 182 0
 2534 019a FB68     		ldr	r3, [r7, #12]
 2535 019c BB42     		cmp	r3, r7
 2536 019e 00F08F84 		beq	.L522
 2537              	.L306:
 2538              		.loc 1 183 0
 2539 01a2 B9F1000F 		cmp	r9, #0
 2540 01a6 07D0     		beq	.L307
 2541              		.loc 1 185 0
 2542 01a8 3C4A     		ldr	r2, .L537+20
 2543              		.loc 1 184 0
 2544 01aa C9F80C30 		str	r3, [r9, #12]
 2545              		.loc 1 185 0
 2546 01ae 1268     		ldr	r2, [r2]
 2547              		.loc 1 186 0
 2548 01b0 3A4B     		ldr	r3, .L537+20
 2549              		.loc 1 185 0
 2550 01b2 FA60     		str	r2, [r7, #12]
 2551              		.loc 1 186 0
 2552 01b4 1F60     		str	r7, [r3]
 2553 01b6 1346     		mov	r3, r2
 2554              	.L307:
 2555              		.loc 1 188 0
 2556 01b8 BB42     		cmp	r3, r7
 2557 01ba 00F06A84 		beq	.L523
 2558              	.L308:
 2559              		.loc 1 288 0
 2560 01be 394B     		ldr	r3, .L537+28
 2561              		.loc 1 280 0
ARM GAS  C:\Users\jo\AppData\Local\Temp\ccfChKJS.s 			page 46


 2562 01c0 DFF8F4B0 		ldr	fp, .L537+48
 2563              		.loc 1 288 0
 2564 01c4 1A78     		ldrb	r2, [r3]	@ zero_extendqisi2
 2565              		.loc 1 281 0
 2566 01c6 2B89     		ldrh	r3, [r5, #8]
 2567              		.loc 1 285 0
 2568 01c8 DFF80891 		ldr	r9, .L537+76
 2569              		.loc 1 286 0
 2570 01cc DFF80881 		ldr	r8, .L537+80
 2571              		.loc 1 281 0
 2572 01d0 ABF80830 		strh	r3, [fp, #8]	@ movhi
 2573              		.loc 1 283 0
 2574 01d4 3368     		ldr	r3, [r6]
 2575 01d6 CBF81030 		str	r3, [fp, #16]
 2576              		.loc 1 288 0
 2577 01da 1207     		lsls	r2, r2, #28
 2578              		.loc 1 280 0
 2579 01dc 4FF00003 		mov	r3, #0
 2580              		.loc 1 282 0
 2581 01e0 CBF80450 		str	r5, [fp, #4]
 2582              		.loc 1 280 0
 2583 01e4 CBF80030 		str	r3, [fp]
 2584              		.loc 1 285 0
 2585 01e8 C9F80030 		str	r3, [r9]
 2586              		.loc 1 286 0
 2587 01ec 88F80030 		strb	r3, [r8]
 2588              		.loc 1 288 0
 2589 01f0 03D5     		bpl	.L400
 2590              		.loc 1 289 0
 2591 01f2 6B7B     		ldrb	r3, [r5, #13]	@ zero_extendqisi2
 2592 01f4 43F00103 		orr	r3, r3, #1
 2593 01f8 6B73     		strb	r3, [r5, #13]
 2594              	.L400:
 2595              		.loc 1 293 0
 2596 01fa BB6F     		ldr	r3, [r7, #120]
 2597 01fc 002B     		cmp	r3, #0
 2598 01fe 00F0AD80 		beq	.L325
 2599              		.loc 1 294 0
 2600 0202 3846     		mov	r0, r7
 2601 0204 FFF7FEFF 		bl	tcp_process_refused_data
 2602              	.LVL234:
 2603 0208 0A30     		adds	r0, r0, #10
 2604 020a 08D0     		beq	.L326
 2605              		.loc 1 294 0 is_stmt 0 discriminator 1
 2606 020c BB6F     		ldr	r3, [r7, #120]
 2607 020e 002B     		cmp	r3, #0
 2608 0210 00F0A480 		beq	.L325
 2609              		.loc 1 295 0 is_stmt 1
 2610 0214 224B     		ldr	r3, .L537+24
 2611 0216 1B88     		ldrh	r3, [r3]
 2612 0218 002B     		cmp	r3, #0
 2613 021a 00F09F80 		beq	.L325
 2614              	.L326:
 2615              		.loc 1 298 0
 2616 021e B4F89630 		ldrh	r3, [r4, #150]
 2617 0222 244D     		ldr	r5, .L537+44
 2618              	.LVL235:
ARM GAS  C:\Users\jo\AppData\Local\Temp\ccfChKJS.s 			page 47


 2619 0224 0133     		adds	r3, r3, #1
 2620 0226 A4F89630 		strh	r3, [r4, #150]	@ movhi
 2621              	.L327:
 2622              		.loc 1 398 0
 2623 022a DBF80400 		ldr	r0, [fp, #4]
 2624 022e 224E     		ldr	r6, .L537+48
 2625              		.loc 1 394 0
 2626 0230 0024     		movs	r4, #0
 2627 0232 2C60     		str	r4, [r5]
 2628              		.loc 1 395 0
 2629 0234 C9F80040 		str	r4, [r9]
 2630              		.loc 1 398 0
 2631 0238 10B1     		cbz	r0, .L293
 2632              		.loc 1 400 0
 2633 023a FFF7FEFF 		bl	pbuf_free
 2634              	.LVL236:
 2635              		.loc 1 401 0
 2636 023e 7460     		str	r4, [r6, #4]
 2637              	.L293:
 2638              		.loc 1 425 0
 2639 0240 03B0     		add	sp, sp, #12
 2640              		.cfi_remember_state
 2641              		.cfi_def_cfa_offset 36
 2642              		@ sp needed
 2643 0242 BDE8F08F 		pop	{r4, r5, r6, r7, r8, r9, r10, fp, pc}
 2644              	.LVL237:
 2645              	.L520:
 2646              		.cfi_restore_state
 2647              		.loc 1 173 0 discriminator 1
 2648 0246 CDF800B0 		str	fp, [sp]
 2649 024a 1749     		ldr	r1, .L537+32
 2650 024c 1B4A     		ldr	r2, .L537+52
 2651 024e 1848     		ldr	r0, .L537+40
 2652 0250 AD23     		movs	r3, #173
 2653 0252 FFF7FEFF 		bl	chprintf.constprop.1
 2654              	.LVL238:
 2655              	.LBB118:
 2656              	.LBB119:
 2657              		.loc 3 416 0 discriminator 1
 2658 0256 1948     		ldr	r0, .L537+52
 2659 0258 FFF7FEFF 		bl	chSysHalt
 2660              	.LVL239:
 2661 025c 74E7     		b	.L304
 2662              	.LVL240:
 2663              	.L519:
 2664              	.LBE119:
 2665              	.LBE118:
 2666              		.loc 1 172 0 discriminator 1
 2667 025e AC23     		movs	r3, #172
 2668 0260 1149     		ldr	r1, .L537+32
 2669 0262 174A     		ldr	r2, .L537+56
 2670 0264 CDF800B0 		str	fp, [sp]
 2671 0268 1148     		ldr	r0, .L537+40
 2672 026a FFF7FEFF 		bl	chprintf.constprop.1
 2673              	.LVL241:
 2674              	.LBB120:
 2675              	.LBB121:
ARM GAS  C:\Users\jo\AppData\Local\Temp\ccfChKJS.s 			page 48


 2676              		.loc 3 416 0 discriminator 1
 2677 026e 1448     		ldr	r0, .L537+56
 2678 0270 FFF7FEFF 		bl	chSysHalt
 2679              	.LVL242:
 2680 0274 3B7E     		ldrb	r3, [r7, #24]	@ zero_extendqisi2
 2681 0276 65E7     		b	.L303
 2682              	.LVL243:
 2683              	.L301:
 2684              	.LBE121:
 2685              	.LBE120:
 2686              		.loc 1 197 0
 2687 0278 124B     		ldr	r3, .L537+60
 2688 027a 1F68     		ldr	r7, [r3]
 2689              	.LVL244:
 2690 027c 002F     		cmp	r7, #0
 2691 027e 00F0B080 		beq	.L398
 2692              		.loc 1 198 0
 2693 0282 DFF84C90 		ldr	r9, .L537+72
 2694 0286 2CE0     		b	.L317
 2695              	.L538:
 2696              		.align	2
 2697              	.L537:
 2698 0288 00000000 		.word	lwip_stats
 2699 028c 00000000 		.word	.LANCHOR8
 2700 0290 00000000 		.word	.LANCHOR1
 2701 0294 00000000 		.word	current_iphdr_src
 2702 0298 00000000 		.word	.LANCHOR0
 2703 029c 00000000 		.word	tcp_active_pcbs
 2704 02a0 00000000 		.word	.LANCHOR4
 2705 02a4 00000000 		.word	.LANCHOR2
 2706 02a8 00000000 		.word	.LC0
 2707 02ac B0010000 		.word	.LC13
 2708 02b0 00000000 		.word	itm_port
 2709 02b4 00000000 		.word	.LANCHOR9
 2710 02b8 00000000 		.word	.LANCHOR5
 2711 02bc 04020000 		.word	.LC15
 2712 02c0 D8010000 		.word	.LC14
 2713 02c4 00000000 		.word	tcp_tw_pcbs
 2714 02c8 00000000 		.word	current_iphdr_dest
 2715 02cc 00000000 		.word	.LANCHOR3
 2716 02d0 44000000 		.word	.LC2
 2717 02d4 00000000 		.word	.LANCHOR6
 2718 02d8 00000000 		.word	.LANCHOR7
 2719              	.L311:
 2720              		.loc 1 197 0 discriminator 2
 2721 02dc FF68     		ldr	r7, [r7, #12]
 2722              	.LVL245:
 2723 02de 002F     		cmp	r7, #0
 2724 02e0 7FD0     		beq	.L398
 2725              	.L317:
 2726              		.loc 1 198 0
 2727 02e2 97F818E0 		ldrb	lr, [r7, #24]	@ zero_extendqisi2
 2728 02e6 B148     		ldr	r0, .L539
 2729 02e8 B149     		ldr	r1, .L539+4
 2730 02ea B24A     		ldr	r2, .L539+8
 2731 02ec BEF10A0F 		cmp	lr, #10
 2732 02f0 4FF0C603 		mov	r3, #198
ARM GAS  C:\Users\jo\AppData\Local\Temp\ccfChKJS.s 			page 49


 2733 02f4 06D0     		beq	.L310
 2734              		.loc 1 198 0 is_stmt 0 discriminator 1
 2735 02f6 CDF80090 		str	r9, [sp]
 2736 02fa FFF7FEFF 		bl	chprintf.constprop.1
 2737              	.LVL246:
 2738              	.LBB122:
 2739              	.LBB123:
 2740              		.loc 3 416 0 is_stmt 1 discriminator 1
 2741 02fe AD48     		ldr	r0, .L539+8
 2742 0300 FFF7FEFF 		bl	chSysHalt
 2743              	.LVL247:
 2744              	.L310:
 2745              	.LBE123:
 2746              	.LBE122:
 2747              		.loc 1 199 0
 2748 0304 3368     		ldr	r3, [r6]
 2749 0306 B98B     		ldrh	r1, [r7, #28]
 2750 0308 1A88     		ldrh	r2, [r3]	@ unaligned
 2751 030a 8A42     		cmp	r2, r1
 2752 030c E6D1     		bne	.L311
 2753              		.loc 1 199 0 is_stmt 0 discriminator 1
 2754 030e B3F802E0 		ldrh	lr, [r3, #2]	@ unaligned
 2755              		.loc 1 200 0 is_stmt 1 discriminator 1
 2756 0312 7B8B     		ldrh	r3, [r7, #26]
 2757              		.loc 1 199 0 discriminator 1
 2758 0314 9E45     		cmp	lr, r3
 2759 0316 E1D1     		bne	.L311
 2760              		.loc 1 201 0
 2761 0318 A74B     		ldr	r3, .L539+12
 2762              		.loc 1 200 0
 2763 031a 7868     		ldr	r0, [r7, #4]
 2764 031c 1968     		ldr	r1, [r3]
 2765 031e 8842     		cmp	r0, r1
 2766 0320 DCD1     		bne	.L311
 2767              		.loc 1 201 0
 2768 0322 3868     		ldr	r0, [r7]
 2769 0324 D8F80010 		ldr	r1, [r8]
 2770 0328 8842     		cmp	r0, r1
 2771 032a D7D1     		bne	.L311
 2772              	.LVL248:
 2773              	.LBB124:
 2774              	.LBB125:
 2775              		.loc 1 536 0
 2776 032c A349     		ldr	r1, .L539+16
 2777 032e 0978     		ldrb	r1, [r1]	@ zero_extendqisi2
 2778 0330 4807     		lsls	r0, r1, #29
 2779 0332 11D4     		bmi	.L313
 2780              		.loc 1 540 0
 2781 0334 8E07     		lsls	r6, r1, #30
 2782 0336 40F13D83 		bpl	.L314
 2783              		.loc 1 543 0
 2784 033a A149     		ldr	r1, .L539+20
 2785 033c B86A     		ldr	r0, [r7, #40]
 2786 033e 0968     		ldr	r1, [r1]
 2787 0340 081A     		subs	r0, r1, r0
 2788 0342 04D4     		bmi	.L315
 2789 0344 BC8D     		ldrh	r4, [r7, #44]
ARM GAS  C:\Users\jo\AppData\Local\Temp\ccfChKJS.s 			page 50


 2790 0346 001B     		subs	r0, r0, r4
 2791 0348 0028     		cmp	r0, #0
 2792 034a 40F37383 		ble	.L524
 2793              	.L315:
 2794              		.loc 1 555 0
 2795 034e 9D4B     		ldr	r3, .L539+24
 2796 0350 1B88     		ldrh	r3, [r3]
 2797 0352 002B     		cmp	r3, #0
 2798 0354 40F0AA83 		bne	.L525
 2799              	.LVL249:
 2800              	.L313:
 2801              	.LBE125:
 2802              	.LBE124:
 2803              		.loc 1 208 0
 2804 0358 2846     		mov	r0, r5
 2805 035a 7BE6     		b	.L512
 2806              	.LVL250:
 2807              	.L325:
 2808              	.LBB129:
 2809              	.LBB130:
 2810              		.loc 1 584 0
 2811 035c 974B     		ldr	r3, .L539+16
 2812              	.LBE130:
 2813              	.LBE129:
 2814              		.loc 1 303 0
 2815 035e 9A4D     		ldr	r5, .L539+28
 2816              	.LVL251:
 2817              	.LBB148:
 2818              	.LBB139:
 2819              		.loc 1 584 0
 2820 0360 1B78     		ldrb	r3, [r3]	@ zero_extendqisi2
 2821              	.LBE139:
 2822              	.LBE148:
 2823              		.loc 1 303 0
 2824 0362 2F60     		str	r7, [r5]
 2825              	.LVL252:
 2826              	.LBB149:
 2827              	.LBB140:
 2828              		.loc 1 584 0
 2829 0364 5A07     		lsls	r2, r3, #29
 2830 0366 20D5     		bpl	.L328
 2831              	.LVL253:
 2832              		.loc 1 586 0
 2833 0368 3A7E     		ldrb	r2, [r7, #24]	@ zero_extendqisi2
 2834 036a 022A     		cmp	r2, #2
 2835 036c 00F02382 		beq	.L526
 2836              		.loc 1 591 0
 2837 0370 934B     		ldr	r3, .L539+20
 2838 0372 B96A     		ldr	r1, [r7, #40]
 2839 0374 1B68     		ldr	r3, [r3]
 2840 0376 5B1A     		subs	r3, r3, r1
 2841 0378 04D4     		bmi	.L331
 2842 037a B98D     		ldrh	r1, [r7, #44]
 2843 037c 5B1A     		subs	r3, r3, r1
 2844 037e 002B     		cmp	r3, #0
 2845 0380 40F31F83 		ble	.L527
 2846              	.LVL254:
ARM GAS  C:\Users\jo\AppData\Local\Temp\ccfChKJS.s 			page 51


 2847              	.L331:
 2848              	.LBE140:
 2849              	.LBE149:
 2850              		.loc 1 308 0
 2851 0384 98F80030 		ldrb	r3, [r8]	@ zero_extendqisi2
 2852 0388 1E07     		lsls	r6, r3, #28
 2853 038a 1BD5     		bpl	.L377
 2854              		.loc 1 313 0
 2855 038c D7F88C30 		ldr	r3, [r7, #140]
 2856 0390 1BB1     		cbz	r3, .L380
 2857              		.loc 1 313 0 is_stmt 0 discriminator 1
 2858 0392 3869     		ldr	r0, [r7, #16]
 2859 0394 6FF00A01 		mvn	r1, #10
 2860 0398 9847     		blx	r3
 2861              	.LVL255:
 2862              	.L380:
 2863              		.loc 1 325 0 is_stmt 1
 2864 039a 8C48     		ldr	r0, .L539+32
 2865 039c 3946     		mov	r1, r7
 2866 039e FFF7FEFF 		bl	tcp_pcb_remove
 2867              	.LVL256:
 2868              		.loc 1 326 0
 2869 03a2 3846     		mov	r0, r7
 2870 03a4 FFF7FEFF 		bl	free
 2871              	.LVL257:
 2872 03a8 3FE7     		b	.L327
 2873              	.LVL258:
 2874              	.L328:
 2875              	.LBB150:
 2876              	.LBB141:
 2877              		.loc 1 612 0
 2878 03aa 9B07     		lsls	r3, r3, #30
 2879 03ac 40F1B080 		bpl	.L334
 2880 03b0 3B7E     		ldrb	r3, [r7, #24]	@ zero_extendqisi2
 2881 03b2 023B     		subs	r3, r3, #2
 2882 03b4 012B     		cmp	r3, #1
 2883 03b6 40F2AB80 		bls	.L334
 2884              	.LVL259:
 2885              	.L351:
 2886              		.loc 1 674 0
 2887 03ba BB7F     		ldrb	r3, [r7, #30]	@ zero_extendqisi2
 2888 03bc 43F00203 		orr	r3, r3, #2
 2889 03c0 BB77     		strb	r3, [r7, #30]
 2890 03c2 DFE7     		b	.L331
 2891              	.LVL260:
 2892              	.L377:
 2893              	.LBE141:
 2894              	.LBE150:
 2895              		.loc 1 316 0
 2896 03c4 DC06     		lsls	r4, r3, #27
 2897 03c6 40F1B281 		bpl	.L379
 2898              		.loc 1 319 0
 2899 03ca BB7F     		ldrb	r3, [r7, #30]	@ zero_extendqisi2
 2900 03cc D806     		lsls	r0, r3, #27
 2901 03ce E4D4     		bmi	.L380
 2902              		.loc 1 323 0
 2903 03d0 D7F88C30 		ldr	r3, [r7, #140]
ARM GAS  C:\Users\jo\AppData\Local\Temp\ccfChKJS.s 			page 52


 2904 03d4 002B     		cmp	r3, #0
 2905 03d6 E0D0     		beq	.L380
 2906              		.loc 1 323 0 is_stmt 0 discriminator 1
 2907 03d8 3869     		ldr	r0, [r7, #16]
 2908 03da 6FF00B01 		mvn	r1, #11
 2909 03de 9847     		blx	r3
 2910              	.LVL261:
 2911 03e0 DBE7     		b	.L380
 2912              	.LVL262:
 2913              	.L398:
 2914              		.loc 1 216 0 is_stmt 1
 2915 03e2 DFF8F8E1 		ldr	lr, .L539+48
 2916 03e6 DEF80070 		ldr	r7, [lr]
 2917              	.LVL263:
 2918 03ea 002F     		cmp	r7, #0
 2919 03ec 00F07681 		beq	.L318
 2920 03f0 D6F800C0 		ldr	ip, [r6]
 2921              		.loc 1 228 0
 2922 03f4 D8F80000 		ldr	r0, [r8]
 2923 03f8 BCF80220 		ldrh	r2, [ip, #2]	@ unaligned
 2924 03fc B946     		mov	r9, r7
 2925 03fe 0021     		movs	r1, #0
 2926 0400 06E0     		b	.L321
 2927              	.LVL264:
 2928              	.L319:
 2929              		.loc 1 216 0 discriminator 2
 2930 0402 D9F80C30 		ldr	r3, [r9, #12]
 2931              	.LVL265:
 2932 0406 4946     		mov	r1, r9
 2933 0408 002B     		cmp	r3, #0
 2934 040a 00F06781 		beq	.L318
 2935              	.LVL266:
 2936 040e 9946     		mov	r9, r3
 2937              	.LVL267:
 2938              	.L321:
 2939              		.loc 1 217 0
 2940 0410 B9F81A30 		ldrh	r3, [r9, #26]
 2941 0414 9342     		cmp	r3, r2
 2942 0416 F4D1     		bne	.L319
 2943              		.loc 1 228 0
 2944 0418 D9F80030 		ldr	r3, [r9]
 2945 041c 8342     		cmp	r3, r0
 2946 041e 01D0     		beq	.L320
 2947              		.loc 1 229 0 discriminator 1
 2948 0420 002B     		cmp	r3, #0
 2949 0422 EED1     		bne	.L319
 2950              	.L320:
 2951              		.loc 1 249 0
 2952 0424 31B1     		cbz	r1, .L402
 2953              		.loc 1 250 0
 2954 0426 D9F80C30 		ldr	r3, [r9, #12]
 2955 042a CB60     		str	r3, [r1, #12]
 2956              		.loc 1 254 0
 2957 042c CEF80090 		str	r9, [lr]
 2958              		.loc 1 252 0
 2959 0430 C9F80C70 		str	r7, [r9, #12]
 2960              	.L402:
ARM GAS  C:\Users\jo\AppData\Local\Temp\ccfChKJS.s 			page 53


 2961              	.LVL268:
 2962              	.LBB151:
 2963              	.LBB152:
 2964              		.loc 1 445 0
 2965 0434 614B     		ldr	r3, .L539+16
 2966 0436 1B78     		ldrb	r3, [r3]	@ zero_extendqisi2
 2967 0438 5807     		lsls	r0, r3, #29
 2968 043a 8DD4     		bmi	.L313
 2969              		.loc 1 452 0
 2970 043c 03F01001 		and	r1, r3, #16
 2971 0440 01F0FF07 		and	r7, r1, #255
 2972 0444 0029     		cmp	r1, #0
 2973 0446 40F01283 		bne	.L528
 2974              		.loc 1 458 0
 2975 044a 9907     		lsls	r1, r3, #30
 2976 044c 84D5     		bpl	.L313
 2977              		.loc 1 466 0
 2978 044e 99F81900 		ldrb	r0, [r9, #25]	@ zero_extendqisi2
 2979 0452 FFF7FEFF 		bl	tcp_alloc
 2980              	.LVL269:
 2981              		.loc 1 470 0
 2982 0456 8246     		mov	r10, r0
 2983 0458 0028     		cmp	r0, #0
 2984 045a 00F00083 		beq	.L529
 2985              		.loc 1 482 0
 2986 045e 3068     		ldr	r0, [r6]
 2987              	.LVL270:
 2988              		.loc 1 484 0
 2989 0460 574B     		ldr	r3, .L539+20
 2990              		.loc 1 482 0
 2991 0462 0478     		ldrb	r4, [r0]	@ zero_extendqisi2
 2992 0464 4678     		ldrb	r6, [r0, #1]	@ zero_extendqisi2
 2993              		.loc 1 484 0
 2994 0466 1B68     		ldr	r3, [r3]
 2995              		.loc 1 481 0
 2996 0468 534A     		ldr	r2, .L539+12
 2997              		.loc 1 479 0
 2998 046a D8F80010 		ldr	r1, [r8]
 2999              		.loc 1 480 0
 3000 046e B9F81AE0 		ldrh	lr, [r9, #26]
 3001              		.loc 1 481 0
 3002 0472 1268     		ldr	r2, [r2]
 3003              		.loc 1 479 0
 3004 0474 CAF80010 		str	r1, [r10]
 3005              		.loc 1 482 0
 3006 0478 44EA0621 		orr	r1, r4, r6, lsl #8
 3007              		.loc 1 484 0
 3008 047c 5C1C     		adds	r4, r3, #1
 3009              		.loc 1 483 0
 3010 047e 0326     		movs	r6, #3
 3011              		.loc 1 480 0
 3012 0480 AAF81AE0 		strh	lr, [r10, #26]	@ movhi
 3013              		.loc 1 482 0
 3014 0484 AAF81C10 		strh	r1, [r10, #28]	@ movhi
 3015              		.loc 1 481 0
 3016 0488 CAF80420 		str	r2, [r10, #4]
 3017              		.loc 1 484 0
ARM GAS  C:\Users\jo\AppData\Local\Temp\ccfChKJS.s 			page 54


 3018 048c CAF82840 		str	r4, [r10, #40]
 3019              		.loc 1 485 0
 3020 0490 CAF83040 		str	r4, [r10, #48]
 3021              		.loc 1 483 0
 3022 0494 8AF81860 		strb	r6, [r10, #24]
 3023              		.loc 1 486 0
 3024 0498 C089     		ldrh	r0, [r0, #14]	@ unaligned
 3025              		.loc 1 490 0
 3026 049a D9F81010 		ldr	r1, [r9, #16]
 3027              		.loc 1 492 0
 3028 049e D9F81420 		ldr	r2, [r9, #20]
 3029 04a2 CAF81420 		str	r2, [r10, #20]
 3030              		.loc 1 489 0
 3031 04a6 013B     		subs	r3, r3, #1
 3032              		.loc 1 490 0
 3033 04a8 CAF81010 		str	r1, [r10, #16]
 3034              		.loc 1 486 0
 3035 04ac AAF86000 		strh	r0, [r10, #96]	@ movhi
 3036              		.loc 1 487 0
 3037 04b0 AAF86200 		strh	r0, [r10, #98]	@ movhi
 3038              		.loc 1 488 0
 3039 04b4 AAF84E00 		strh	r0, [r10, #78]	@ movhi
 3040              		.loc 1 489 0
 3041 04b8 CAF85430 		str	r3, [r10, #84]
 3042              		.loc 1 495 0
 3043 04bc 99F80830 		ldrb	r3, [r9, #8]	@ zero_extendqisi2
 3044              		.loc 1 498 0
 3045 04c0 424A     		ldr	r2, .L539+32
 3046              		.loc 1 495 0
 3047 04c2 23F07303 		bic	r3, r3, #115
 3048              		.loc 1 498 0
 3049 04c6 1268     		ldr	r2, [r2]
 3050              		.loc 1 495 0
 3051 04c8 8AF80830 		strb	r3, [r10, #8]
 3052              		.loc 1 498 0
 3053 04cc 3F4B     		ldr	r3, .L539+32
 3054 04ce CAF80C20 		str	r2, [r10, #12]
 3055 04d2 C3F800A0 		str	r10, [r3]
 3056 04d6 FFF7FEFF 		bl	tcp_timer_needed
 3057              	.LVL271:
 3058 04da 3D4B     		ldr	r3, .L539+36
 3059 04dc 0122     		movs	r2, #1
 3060              		.loc 1 501 0
 3061 04de 0AF13600 		add	r0, r10, #54
 3062              		.loc 1 498 0
 3063 04e2 1A70     		strb	r2, [r3]
 3064              		.loc 1 501 0
 3065 04e4 FFF7FEFF 		bl	tcp_parseopt.isra.0
 3066              	.LVL272:
 3067              		.loc 1 503 0
 3068 04e8 0AF10401 		add	r1, r10, #4
 3069 04ec BAF83600 		ldrh	r0, [r10, #54]
 3070 04f0 FFF7FEFF 		bl	tcp_eff_send_mss
 3071              	.LVL273:
 3072              		.loc 1 509 0
 3073 04f4 1221     		movs	r1, #18
 3074              		.loc 1 503 0
ARM GAS  C:\Users\jo\AppData\Local\Temp\ccfChKJS.s 			page 55


 3075 04f6 AAF83600 		strh	r0, [r10, #54]	@ movhi
 3076              		.loc 1 509 0
 3077 04fa 5046     		mov	r0, r10
 3078 04fc FFF7FEFF 		bl	tcp_enqueue_flags
 3079              	.LVL274:
 3080              		.loc 1 510 0
 3081 0500 0028     		cmp	r0, #0
 3082 0502 40F0A582 		bne	.L530
 3083              		.loc 1 514 0
 3084 0506 5046     		mov	r0, r10
 3085              	.LVL275:
 3086 0508 FFF7FEFF 		bl	tcp_output
 3087              	.LVL276:
 3088              	.LBE152:
 3089              	.LBE151:
 3090              		.loc 1 208 0
 3091 050c 2846     		mov	r0, r5
 3092 050e A1E5     		b	.L512
 3093              	.LVL277:
 3094              	.L334:
 3095              	.LBB156:
 3096              	.LBB142:
 3097              		.loc 1 618 0
 3098 0510 BB7F     		ldrb	r3, [r7, #30]	@ zero_extendqisi2
 3099 0512 DC06     		lsls	r4, r3, #27
 3100 0514 02D4     		bmi	.L335
 3101              		.loc 1 620 0
 3102 0516 2F4B     		ldr	r3, .L539+40
 3103 0518 1B68     		ldr	r3, [r3]
 3104 051a 7B62     		str	r3, [r7, #36]
 3105              	.L335:
 3106              		.loc 1 622 0
 3107 051c 0023     		movs	r3, #0
 3108 051e 87F89630 		strb	r3, [r7, #150]
 3109              		.loc 1 624 0
 3110 0522 07F13600 		add	r0, r7, #54
 3111 0526 FFF7FEFF 		bl	tcp_parseopt.isra.0
 3112              	.LVL278:
 3113              		.loc 1 627 0
 3114 052a 3B7E     		ldrb	r3, [r7, #24]	@ zero_extendqisi2
 3115 052c 023B     		subs	r3, r3, #2
 3116 052e 072B     		cmp	r3, #7
 3117 0530 3FF628AF 		bhi	.L331
 3118 0534 DFE803F0 		tbb	[pc, r3]
 3119              	.L337:
 3120 0538 BB       		.byte	(.L336-.L337)/2
 3121 0539 9C       		.byte	(.L338-.L337)/2
 3122 053a 8D       		.byte	(.L339-.L337)/2
 3123 053b 73       		.byte	(.L340-.L337)/2
 3124 053c 54       		.byte	(.L341-.L337)/2
 3125 053d 8D       		.byte	(.L339-.L337)/2
 3126 053e 19       		.byte	(.L342-.L337)/2
 3127 053f 04       		.byte	(.L343-.L337)/2
 3128              		.p2align 1
 3129              	.L343:
 3130              		.loc 1 780 0
 3131 0540 3846     		mov	r0, r7
ARM GAS  C:\Users\jo\AppData\Local\Temp\ccfChKJS.s 			page 56


 3132 0542 FFF7FEFF 		bl	tcp_receive
 3133              	.LVL279:
 3134              		.loc 1 781 0
 3135 0546 1D4B     		ldr	r3, .L539+16
 3136 0548 1B78     		ldrb	r3, [r3]	@ zero_extendqisi2
 3137 054a DB06     		lsls	r3, r3, #27
 3138 054c 7FF51AAF 		bpl	.L331
 3139 0550 DAF80030 		ldr	r3, [r10]
 3140 0554 3A6D     		ldr	r2, [r7, #80]
 3141 0556 9A42     		cmp	r2, r3
 3142 0558 7FF414AF 		bne	.L331
 3143              		.loc 1 784 0
 3144 055c 98F80030 		ldrb	r3, [r8]	@ zero_extendqisi2
 3145 0560 43F01003 		orr	r3, r3, #16
 3146 0564 88F80030 		strb	r3, [r8]
 3147 0568 0CE7     		b	.L331
 3148              	.L342:
 3149              		.loc 1 770 0
 3150 056a 3846     		mov	r0, r7
 3151 056c FFF7FEFF 		bl	tcp_receive
 3152              	.LVL280:
 3153              		.loc 1 771 0
 3154 0570 124B     		ldr	r3, .L539+16
 3155 0572 1B78     		ldrb	r3, [r3]	@ zero_extendqisi2
 3156 0574 DA06     		lsls	r2, r3, #27
 3157 0576 7FF505AF 		bpl	.L331
 3158 057a DAF80030 		ldr	r3, [r10]
 3159 057e 3A6D     		ldr	r2, [r7, #80]
 3160 0580 9A42     		cmp	r2, r3
 3161 0582 7FF4FFAE 		bne	.L331
 3162              		.loc 1 773 0
 3163 0586 3846     		mov	r0, r7
 3164 0588 FFF7FEFF 		bl	tcp_pcb_purge
 3165              	.LVL281:
 3166              		.loc 1 774 0
 3167 058c 0F4B     		ldr	r3, .L539+32
 3168 058e 1A68     		ldr	r2, [r3]
 3169 0590 BA42     		cmp	r2, r7
 3170 0592 00F0DC81 		beq	.L515
 3171 0596 104B     		ldr	r3, .L539+44
 3172 0598 1A60     		str	r2, [r3]
 3173              	.L375:
 3174 059a 002A     		cmp	r2, #0
 3175 059c 00F00882 		beq	.L513
 3176 05a0 D168     		ldr	r1, [r2, #12]
 3177 05a2 B942     		cmp	r1, r7
 3178 05a4 00F00082 		beq	.L514
 3179 05a8 0A46     		mov	r2, r1
 3180 05aa F6E7     		b	.L375
 3181              	.L540:
 3182              		.align	2
 3183              	.L539:
 3184 05ac 00000000 		.word	itm_port
 3185 05b0 00000000 		.word	.LC0
 3186 05b4 84020000 		.word	.LC18
 3187 05b8 00000000 		.word	current_iphdr_src
 3188 05bc 00000000 		.word	.LANCHOR2
ARM GAS  C:\Users\jo\AppData\Local\Temp\ccfChKJS.s 			page 57


 3189 05c0 00000000 		.word	.LANCHOR0
 3190 05c4 00000000 		.word	.LANCHOR4
 3191 05c8 00000000 		.word	.LANCHOR9
 3192 05cc 00000000 		.word	tcp_active_pcbs
 3193 05d0 00000000 		.word	tcp_active_pcbs_changed
 3194 05d4 00000000 		.word	tcp_ticks
 3195 05d8 00000000 		.word	tcp_tmp_pcb
 3196 05dc 00000000 		.word	tcp_listen_pcbs
 3197              	.L341:
 3198              		.loc 1 759 0
 3199 05e0 3846     		mov	r0, r7
 3200 05e2 FFF7FEFF 		bl	tcp_receive
 3201              	.LVL282:
 3202              		.loc 1 760 0
 3203 05e6 98F80030 		ldrb	r3, [r8]	@ zero_extendqisi2
 3204 05ea 9906     		lsls	r1, r3, #26
 3205 05ec 7FF5CAAE 		bpl	.L331
 3206              		.loc 1 762 0
 3207 05f0 BB7F     		ldrb	r3, [r7, #30]	@ zero_extendqisi2
 3208 05f2 43F00203 		orr	r3, r3, #2
 3209 05f6 BB77     		strb	r3, [r7, #30]
 3210              		.loc 1 763 0
 3211 05f8 3846     		mov	r0, r7
 3212 05fa FFF7FEFF 		bl	tcp_pcb_purge
 3213              	.LVL283:
 3214              		.loc 1 764 0
 3215 05fe 974B     		ldr	r3, .L541
 3216 0600 1A68     		ldr	r2, [r3]
 3217 0602 BA42     		cmp	r2, r7
 3218 0604 00F0A381 		beq	.L515
 3219 0608 954B     		ldr	r3, .L541+4
 3220 060a 1A60     		str	r2, [r3]
 3221              	.L371:
 3222 060c 002A     		cmp	r2, #0
 3223 060e 00F0CF81 		beq	.L513
 3224 0612 D168     		ldr	r1, [r2, #12]
 3225 0614 B942     		cmp	r1, r7
 3226 0616 00F0C781 		beq	.L514
 3227 061a 0A46     		mov	r2, r1
 3228 061c F6E7     		b	.L371
 3229              	.L340:
 3230              		.loc 1 740 0
 3231 061e 3846     		mov	r0, r7
 3232 0620 FFF7FEFF 		bl	tcp_receive
 3233              	.LVL284:
 3234              		.loc 1 741 0
 3235 0624 98F80030 		ldrb	r3, [r8]	@ zero_extendqisi2
 3236 0628 13F0200F 		tst	r3, #32
 3237              		.loc 1 742 0
 3238 062c 8D4B     		ldr	r3, .L541+8
 3239 062e 1B78     		ldrb	r3, [r3]	@ zero_extendqisi2
 3240              		.loc 1 741 0
 3241 0630 00F09B81 		beq	.L363
 3242              		.loc 1 742 0
 3243 0634 DC06     		lsls	r4, r3, #27
 3244 0636 05D5     		bpl	.L364
 3245 0638 DAF80030 		ldr	r3, [r10]
ARM GAS  C:\Users\jo\AppData\Local\Temp\ccfChKJS.s 			page 58


 3246 063c 3A6D     		ldr	r2, [r7, #80]
 3247 063e 9A42     		cmp	r2, r3
 3248 0640 00F09F81 		beq	.L531
 3249              	.L364:
 3250              		.loc 1 751 0
 3251 0644 BB7F     		ldrb	r3, [r7, #30]	@ zero_extendqisi2
 3252              		.loc 1 752 0
 3253 0646 0822     		movs	r2, #8
 3254              		.loc 1 751 0
 3255 0648 43F00203 		orr	r3, r3, #2
 3256 064c BB77     		strb	r3, [r7, #30]
 3257              		.loc 1 752 0
 3258 064e 3A76     		strb	r2, [r7, #24]
 3259 0650 98E6     		b	.L331
 3260              	.L339:
 3261              		.loc 1 733 0
 3262 0652 3846     		mov	r0, r7
 3263 0654 FFF7FEFF 		bl	tcp_receive
 3264              	.LVL285:
 3265              		.loc 1 734 0
 3266 0658 98F80030 		ldrb	r3, [r8]	@ zero_extendqisi2
 3267 065c 9E06     		lsls	r6, r3, #26
 3268 065e 7FF591AE 		bpl	.L331
 3269              	.LVL286:
 3270              	.L509:
 3271              		.loc 1 735 0
 3272 0662 BB7F     		ldrb	r3, [r7, #30]	@ zero_extendqisi2
 3273              		.loc 1 736 0
 3274 0664 0722     		movs	r2, #7
 3275              		.loc 1 735 0
 3276 0666 43F00203 		orr	r3, r3, #2
 3277 066a BB77     		strb	r3, [r7, #30]
 3278              		.loc 1 736 0
 3279 066c 3A76     		strb	r2, [r7, #24]
 3280 066e 89E6     		b	.L331
 3281              	.LVL287:
 3282              	.L338:
 3283              		.loc 1 684 0
 3284 0670 7C4B     		ldr	r3, .L541+8
 3285 0672 1B78     		ldrb	r3, [r3]	@ zero_extendqisi2
 3286 0674 D906     		lsls	r1, r3, #27
 3287 0676 40F1BF80 		bpl	.L353
 3288              		.loc 1 686 0
 3289 067a BB6C     		ldr	r3, [r7, #72]
 3290 067c DAF80000 		ldr	r0, [r10]
 3291 0680 DB43     		mvns	r3, r3
 3292 0682 C342     		cmn	r3, r0
 3293 0684 04D4     		bmi	.L354
 3294 0686 3B6D     		ldr	r3, [r7, #80]
 3295 0688 C31A     		subs	r3, r0, r3
 3296 068a 002B     		cmp	r3, #0
 3297 068c 40F3C280 		ble	.L532
 3298              	.L354:
 3299              		.loc 1 722 0
 3300 0690 754A     		ldr	r2, .L541+12
 3301              		.loc 1 723 0
 3302 0692 3368     		ldr	r3, [r6]
ARM GAS  C:\Users\jo\AppData\Local\Temp\ccfChKJS.s 			page 59


 3303              		.loc 1 722 0
 3304 0694 1188     		ldrh	r1, [r2]
 3305 0696 754A     		ldr	r2, .L541+16
 3306 0698 5C88     		ldrh	r4, [r3, #2]	@ unaligned
 3307 069a 1268     		ldr	r2, [r2]
 3308 069c 0094     		str	r4, [sp]
 3309 069e 1B88     		ldrh	r3, [r3]	@ unaligned
 3310              	.L508:
 3311 06a0 0193     		str	r3, [sp, #4]
 3312 06a2 1144     		add	r1, r1, r2
 3313 06a4 724B     		ldr	r3, .L541+20
 3314 06a6 734A     		ldr	r2, .L541+24
 3315 06a8 FFF7FEFF 		bl	tcp_rst
 3316              	.LVL288:
 3317 06ac 6AE6     		b	.L331
 3318              	.L336:
 3319              		.loc 1 632 0
 3320 06ae 6D4B     		ldr	r3, .L541+8
 3321 06b0 1B78     		ldrb	r3, [r3]	@ zero_extendqisi2
 3322 06b2 03F01203 		and	r3, r3, #18
 3323 06b6 122B     		cmp	r3, #18
 3324 06b8 00F0E880 		beq	.L533
 3325              	.L344:
 3326              		.loc 1 677 0
 3327 06bc 694B     		ldr	r3, .L541+8
 3328 06be 1B78     		ldrb	r3, [r3]	@ zero_extendqisi2
 3329 06c0 D806     		lsls	r0, r3, #27
 3330 06c2 7FF55FAE 		bpl	.L331
 3331              		.loc 1 679 0
 3332 06c6 684A     		ldr	r2, .L541+12
 3333              		.loc 1 680 0
 3334 06c8 3368     		ldr	r3, [r6]
 3335              		.loc 1 679 0
 3336 06ca 1188     		ldrh	r1, [r2]
 3337 06cc 674A     		ldr	r2, .L541+16
 3338 06ce 5888     		ldrh	r0, [r3, #2]	@ unaligned
 3339 06d0 1268     		ldr	r2, [r2]
 3340 06d2 0090     		str	r0, [sp]
 3341 06d4 1B88     		ldrh	r3, [r3]	@ unaligned
 3342 06d6 DAF80000 		ldr	r0, [r10]
 3343 06da E1E7     		b	.L508
 3344              	.LVL289:
 3345              	.L318:
 3346              	.LBE142:
 3347              	.LBE156:
 3348              		.loc 1 408 0
 3349 06dc 3368     		ldr	r3, [r6]
 3350 06de DFF8A881 		ldr	r8, .L541+44
 3351 06e2 9889     		ldrh	r0, [r3, #12]	@ unaligned
 3352 06e4 FFF7FEFF 		bl	lwip_ntohs
 3353              	.LVL290:
 3354 06e8 4307     		lsls	r3, r0, #29
 3355 06ea 3FF535AE 		bmi	.L313
 3356              		.loc 1 409 0
 3357 06ee B4F8A070 		ldrh	r7, [r4, #160]
 3358              		.loc 1 410 0
 3359 06f2 B4F89660 		ldrh	r6, [r4, #150]
ARM GAS  C:\Users\jo\AppData\Local\Temp\ccfChKJS.s 			page 60


 3360              		.loc 1 411 0
 3361 06f6 5C4B     		ldr	r3, .L541+12
 3362              		.loc 1 413 0
 3363 06f8 D8F800E0 		ldr	lr, [r8]
 3364              		.loc 1 411 0
 3365 06fc B3F800C0 		ldrh	ip, [r3]
 3366 0700 5A4B     		ldr	r3, .L541+16
 3367 0702 DAF80000 		ldr	r0, [r10]
 3368 0706 1968     		ldr	r1, [r3]
 3369 0708 5A4A     		ldr	r2, .L541+24
 3370 070a 594B     		ldr	r3, .L541+20
 3371              		.loc 1 409 0
 3372 070c 0137     		adds	r7, r7, #1
 3373              		.loc 1 410 0
 3374 070e 0136     		adds	r6, r6, #1
 3375              		.loc 1 409 0
 3376 0710 A4F8A070 		strh	r7, [r4, #160]	@ movhi
 3377              		.loc 1 410 0
 3378 0714 A4F89660 		strh	r6, [r4, #150]	@ movhi
 3379              		.loc 1 411 0
 3380 0718 BEF80240 		ldrh	r4, [lr, #2]	@ unaligned
 3381 071c 0094     		str	r4, [sp]
 3382 071e BEF80040 		ldrh	r4, [lr]	@ unaligned
 3383 0722 0194     		str	r4, [sp, #4]
 3384 0724 6144     		add	r1, r1, ip
 3385 0726 FFF7FEFF 		bl	tcp_rst
 3386              	.LVL291:
 3387              		.loc 1 208 0
 3388 072a 2846     		mov	r0, r5
 3389 072c 92E4     		b	.L512
 3390              	.LVL292:
 3391              	.L379:
 3392              		.loc 1 332 0
 3393 072e B7F86420 		ldrh	r2, [r7, #100]
 3394 0732 3AB1     		cbz	r2, .L384
 3395              		.loc 1 333 0
 3396 0734 FB6F     		ldr	r3, [r7, #124]
 3397 0736 2BB1     		cbz	r3, .L384
 3398              		.loc 1 333 0 is_stmt 0 discriminator 1
 3399 0738 3869     		ldr	r0, [r7, #16]
 3400 073a 3946     		mov	r1, r7
 3401 073c 9847     		blx	r3
 3402              	.LVL293:
 3403              		.loc 1 334 0 is_stmt 1 discriminator 1
 3404 073e 0A30     		adds	r0, r0, #10
 3405              	.LVL294:
 3406 0740 3FF473AD 		beq	.L327
 3407              	.L384:
 3408              		.loc 1 339 0
 3409 0744 D9F80030 		ldr	r3, [r9]
 3410 0748 23B3     		cbz	r3, .L385
 3411              		.loc 1 340 0
 3412 074a BB6F     		ldr	r3, [r7, #120]
 3413 074c 5BB1     		cbz	r3, .L386
 3414              		.loc 1 340 0 is_stmt 0 discriminator 1
 3415 074e 4A4B     		ldr	r3, .L541+28
 3416 0750 0093     		str	r3, [sp]
ARM GAS  C:\Users\jo\AppData\Local\Temp\ccfChKJS.s 			page 61


 3417 0752 4A48     		ldr	r0, .L541+32
 3418 0754 4A49     		ldr	r1, .L541+36
 3419 0756 4B4A     		ldr	r2, .L541+40
 3420 0758 4FF4AA73 		mov	r3, #340
 3421 075c FFF7FEFF 		bl	chprintf.constprop.1
 3422              	.LVL295:
 3423              	.LBB157:
 3424              	.LBB158:
 3425              		.loc 3 416 0 is_stmt 1 discriminator 1
 3426 0760 4848     		ldr	r0, .L541+40
 3427 0762 FFF7FEFF 		bl	chSysHalt
 3428              	.LVL296:
 3429              	.L386:
 3430              	.LBE158:
 3431              	.LBE157:
 3432              		.loc 1 341 0
 3433 0766 BA7F     		ldrb	r2, [r7, #30]	@ zero_extendqisi2
 3434 0768 02F01002 		and	r2, r2, #16
 3435 076c 02F0FF03 		and	r3, r2, #255
 3436 0770 002A     		cmp	r2, #0
 3437 0772 39D1     		bne	.L534
 3438              		.loc 1 350 0
 3439 0774 D7F88040 		ldr	r4, [r7, #128]
 3440 0778 74B3     		cbz	r4, .L388
 3441              		.loc 1 350 0 is_stmt 0 discriminator 1
 3442 077a 3869     		ldr	r0, [r7, #16]
 3443 077c D9F80020 		ldr	r2, [r9]
 3444 0780 3946     		mov	r1, r7
 3445 0782 A047     		blx	r4
 3446              	.LVL297:
 3447              	.L389:
 3448              		.loc 1 351 0 is_stmt 1
 3449 0784 43B2     		sxtb	r3, r0
 3450 0786 0A33     		adds	r3, r3, #10
 3451 0788 3FF44FAD 		beq	.L327
 3452              		.loc 1 356 0
 3453 078c 10B1     		cbz	r0, .L385
 3454              		.loc 1 357 0
 3455 078e D9F80030 		ldr	r3, [r9]
 3456 0792 BB67     		str	r3, [r7, #120]
 3457              	.LVL298:
 3458              	.L385:
 3459              		.loc 1 364 0
 3460 0794 98F80030 		ldrb	r3, [r8]	@ zero_extendqisi2
 3461 0798 9906     		lsls	r1, r3, #26
 3462 079a 06D5     		bpl	.L392
 3463              		.loc 1 365 0
 3464 079c BB6F     		ldr	r3, [r7, #120]
 3465 079e 002B     		cmp	r3, #0
 3466 07a0 48D0     		beq	.L393
 3467              		.loc 1 367 0
 3468 07a2 5A7B     		ldrb	r2, [r3, #13]	@ zero_extendqisi2
 3469 07a4 42F02002 		orr	r2, r2, #32
 3470 07a8 5A73     		strb	r2, [r3, #13]
 3471              	.L392:
 3472              		.loc 1 381 0
 3473 07aa 0023     		movs	r3, #0
ARM GAS  C:\Users\jo\AppData\Local\Temp\ccfChKJS.s 			page 62


 3474              		.loc 1 383 0
 3475 07ac 3846     		mov	r0, r7
 3476              		.loc 1 381 0
 3477 07ae 2B60     		str	r3, [r5]
 3478              		.loc 1 383 0
 3479 07b0 FFF7FEFF 		bl	tcp_output
 3480              	.LVL299:
 3481 07b4 39E5     		b	.L327
 3482              	.LVL300:
 3483              	.L526:
 3484              	.LBB159:
 3485              	.LBB143:
 3486              		.loc 1 587 0
 3487 07b6 DAF80030 		ldr	r3, [r10]
 3488 07ba 3A6D     		ldr	r2, [r7, #80]
 3489 07bc 9A42     		cmp	r2, r3
 3490 07be 7FF4E1AD 		bne	.L331
 3491              	.LVL301:
 3492              	.L330:
 3493              		.loc 1 600 0
 3494 07c2 98F80020 		ldrb	r2, [r8]	@ zero_extendqisi2
 3495              		.loc 1 601 0
 3496 07c6 BB7F     		ldrb	r3, [r7, #30]	@ zero_extendqisi2
 3497              		.loc 1 600 0
 3498 07c8 42F00802 		orr	r2, r2, #8
 3499              		.loc 1 601 0
 3500 07cc 23F00103 		bic	r3, r3, #1
 3501              		.loc 1 600 0
 3502 07d0 88F80020 		strb	r2, [r8]
 3503              		.loc 1 601 0
 3504 07d4 BB77     		strb	r3, [r7, #30]
 3505 07d6 D5E5     		b	.L331
 3506              	.LVL302:
 3507              	.L388:
 3508              	.LBE143:
 3509              	.LBE159:
 3510              		.loc 1 350 0 discriminator 2
 3511 07d8 2046     		mov	r0, r4
 3512 07da 2346     		mov	r3, r4
 3513 07dc 3946     		mov	r1, r7
 3514 07de D9F80020 		ldr	r2, [r9]
 3515 07e2 FFF7FEFF 		bl	tcp_recv_null
 3516              	.LVL303:
 3517 07e6 CDE7     		b	.L389
 3518              	.LVL304:
 3519              	.L534:
 3520              		.loc 1 344 0
 3521 07e8 D9F80000 		ldr	r0, [r9]
 3522 07ec FFF7FEFF 		bl	pbuf_free
 3523              	.LVL305:
 3524              	.L510:
 3525              		.loc 1 345 0
 3526 07f0 3846     		mov	r0, r7
 3527 07f2 FFF7FEFF 		bl	tcp_abort
 3528              	.LVL306:
 3529              		.loc 1 346 0
 3530 07f6 18E5     		b	.L327
ARM GAS  C:\Users\jo\AppData\Local\Temp\ccfChKJS.s 			page 63


 3531              	.LVL307:
 3532              	.L353:
 3533              	.LBB160:
 3534              	.LBB144:
 3535              		.loc 1 725 0
 3536 07f8 9B07     		lsls	r3, r3, #30
 3537 07fa 7FF5C3AD 		bpl	.L331
 3538 07fe 1B4A     		ldr	r2, .L541+16
 3539 0800 BB6A     		ldr	r3, [r7, #40]
 3540 0802 1268     		ldr	r2, [r2]
 3541 0804 013B     		subs	r3, r3, #1
 3542 0806 9342     		cmp	r3, r2
 3543 0808 7FF4BCAD 		bne	.L331
 3544              		.loc 1 727 0
 3545 080c 3846     		mov	r0, r7
 3546 080e FFF7FEFF 		bl	tcp_rexmit
 3547              	.LVL308:
 3548 0812 B7E5     		b	.L331
 3549              	.L532:
 3550              	.LBB131:
 3551              		.loc 1 691 0
 3552 0814 7B69     		ldr	r3, [r7, #20]
 3553              		.loc 1 688 0
 3554 0816 0422     		movs	r2, #4
 3555 0818 3A76     		strb	r2, [r7, #24]
 3556              		.loc 1 691 0
 3557 081a 002B     		cmp	r3, #0
 3558 081c 00F0F980 		beq	.L535
 3559              	.L355:
 3560              		.loc 1 694 0
 3561 0820 3869     		ldr	r0, [r7, #16]
 3562 0822 3946     		mov	r1, r7
 3563 0824 0022     		movs	r2, #0
 3564 0826 9847     		blx	r3
 3565              	.LVL309:
 3566              		.loc 1 695 0
 3567 0828 0028     		cmp	r0, #0
 3568 082a 00F0DA80 		beq	.L357
 3569              		.loc 1 699 0
 3570 082e 0A30     		adds	r0, r0, #10
 3571              	.LVL310:
 3572 0830 DED1     		bne	.L510
 3573 0832 FAE4     		b	.L327
 3574              	.LVL311:
 3575              	.L393:
 3576              	.LBE131:
 3577              	.LBE144:
 3578              	.LBE160:
 3579              		.loc 1 371 0
 3580 0834 BB8D     		ldrh	r3, [r7, #44]
 3581              		.loc 1 374 0
 3582 0836 D7F88040 		ldr	r4, [r7, #128]
 3583              		.loc 1 371 0
 3584 083a 41F2D062 		movw	r2, #5840
 3585 083e 9342     		cmp	r3, r2
 3586              		.loc 1 372 0
 3587 0840 1CBF     		itt	ne
ARM GAS  C:\Users\jo\AppData\Local\Temp\ccfChKJS.s 			page 64


 3588 0842 0133     		addne	r3, r3, #1
 3589 0844 BB85     		strhne	r3, [r7, #44]	@ movhi
 3590              		.loc 1 374 0
 3591 0846 002C     		cmp	r4, #0
 3592 0848 AFD0     		beq	.L392
 3593              		.loc 1 374 0 is_stmt 0 discriminator 1
 3594 084a 0022     		movs	r2, #0
 3595 084c 1346     		mov	r3, r2
 3596 084e 3869     		ldr	r0, [r7, #16]
 3597 0850 3946     		mov	r1, r7
 3598 0852 A047     		blx	r4
 3599              	.LVL312:
 3600              		.loc 1 375 0 is_stmt 1 discriminator 1
 3601 0854 0A30     		adds	r0, r0, #10
 3602              	.LVL313:
 3603 0856 A8D1     		bne	.L392
 3604 0858 E7E4     		b	.L327
 3605              	.L542:
 3606 085a 00BF     		.align	2
 3607              	.L541:
 3608 085c 00000000 		.word	tcp_active_pcbs
 3609 0860 00000000 		.word	tcp_tmp_pcb
 3610 0864 00000000 		.word	.LANCHOR2
 3611 0868 00000000 		.word	.LANCHOR4
 3612 086c 00000000 		.word	.LANCHOR0
 3613 0870 00000000 		.word	current_iphdr_src
 3614 0874 00000000 		.word	current_iphdr_dest
 3615 0878 44000000 		.word	.LC2
 3616 087c 00000000 		.word	itm_port
 3617 0880 00000000 		.word	.LC0
 3618 0884 00030000 		.word	.LC22
 3619 0888 00000000 		.word	.LANCHOR1
 3620              	.LVL314:
 3621              	.L533:
 3622              	.LBB161:
 3623              	.LBB145:
 3624              		.loc 1 633 0
 3625 088c 3B6F     		ldr	r3, [r7, #112]
 3626 088e 1B69     		ldr	r3, [r3, #16]
 3627 0890 5868     		ldr	r0, [r3, #4]	@ unaligned
 3628 0892 FFF7FEFF 		bl	lwip_ntohl
 3629              	.LVL315:
 3630 0896 DAF80030 		ldr	r3, [r10]
 3631 089a 0130     		adds	r0, r0, #1
 3632 089c 9842     		cmp	r0, r3
 3633 089e 7FF40DAF 		bne	.L344
 3634              		.loc 1 635 0
 3635 08a2 904B     		ldr	r3, .L543
 3636              		.loc 1 634 0
 3637 08a4 B7F86620 		ldrh	r2, [r7, #102]
 3638              		.loc 1 635 0
 3639 08a8 1B68     		ldr	r3, [r3]
 3640              		.loc 1 638 0
 3641 08aa 3468     		ldr	r4, [r6]
 3642              		.loc 1 637 0
 3643 08ac B864     		str	r0, [r7, #72]
 3644              		.loc 1 635 0
ARM GAS  C:\Users\jo\AppData\Local\Temp\ccfChKJS.s 			page 65


 3645 08ae 591C     		adds	r1, r3, #1
 3646              		.loc 1 634 0
 3647 08b0 0132     		adds	r2, r2, #1
 3648              		.loc 1 635 0
 3649 08b2 B962     		str	r1, [r7, #40]
 3650              		.loc 1 636 0
 3651 08b4 3963     		str	r1, [r7, #48]
 3652              		.loc 1 634 0
 3653 08b6 A7F86620 		strh	r2, [r7, #102]	@ movhi
 3654              		.loc 1 638 0
 3655 08ba E289     		ldrh	r2, [r4, #14]	@ unaligned
 3656 08bc A7F86020 		strh	r2, [r7, #96]	@ movhi
 3657              		.loc 1 640 0
 3658 08c0 013B     		subs	r3, r3, #1
 3659              		.loc 1 641 0
 3660 08c2 0421     		movs	r1, #4
 3661              		.loc 1 640 0
 3662 08c4 7B65     		str	r3, [r7, #84]
 3663              		.loc 1 639 0
 3664 08c6 A7F86220 		strh	r2, [r7, #98]	@ movhi
 3665              		.loc 1 641 0
 3666 08ca 3976     		strb	r1, [r7, #24]
 3667              		.loc 1 644 0
 3668 08cc F88E     		ldrh	r0, [r7, #54]
 3669 08ce 7918     		adds	r1, r7, r1
 3670 08d0 FFF7FEFF 		bl	tcp_eff_send_mss
 3671              	.LVL316:
 3672              		.loc 1 651 0
 3673 08d4 B7F84C20 		ldrh	r2, [r7, #76]
 3674              		.loc 1 644 0
 3675 08d8 F886     		strh	r0, [r7, #54]	@ movhi
 3676              		.loc 1 649 0
 3677 08da 00EB8003 		add	r3, r0, r0, lsl #2
 3678 08de 5B00     		lsls	r3, r3, #1
 3679              		.loc 1 651 0
 3680 08e0 012A     		cmp	r2, #1
 3681 08e2 08BF     		it	eq
 3682 08e4 4000     		lsleq	r0, r0, #1
 3683              		.loc 1 649 0
 3684 08e6 A7F84E30 		strh	r3, [r7, #78]	@ movhi
 3685              		.loc 1 652 0
 3686 08ea B7F86830 		ldrh	r3, [r7, #104]
 3687              		.loc 1 651 0
 3688 08ee 08BF     		it	eq
 3689 08f0 80B2     		uxtheq	r0, r0
 3690 08f2 A7F84C00 		strh	r0, [r7, #76]	@ movhi
 3691              		.loc 1 652 0
 3692 08f6 5BB9     		cbnz	r3, .L346
 3693 08f8 7B4B     		ldr	r3, .L543+4
 3694 08fa 0093     		str	r3, [sp]
 3695 08fc 7B48     		ldr	r0, .L543+8
 3696 08fe 7C49     		ldr	r1, .L543+12
 3697 0900 7C4A     		ldr	r2, .L543+16
 3698 0902 4FF42373 		mov	r3, #652
 3699 0906 FFF7FEFF 		bl	chprintf.constprop.1
 3700              	.LVL317:
 3701              	.LBB134:
ARM GAS  C:\Users\jo\AppData\Local\Temp\ccfChKJS.s 			page 66


 3702              	.LBB135:
 3703              		.loc 3 416 0
 3704 090a 7A48     		ldr	r0, .L543+16
 3705 090c FFF7FEFF 		bl	chSysHalt
 3706              	.LVL318:
 3707              	.L346:
 3708              	.LBE135:
 3709              	.LBE134:
 3710              		.loc 1 653 0
 3711 0910 B7F86830 		ldrh	r3, [r7, #104]
 3712              		.loc 1 655 0
 3713 0914 386F     		ldr	r0, [r7, #112]
 3714              	.LVL319:
 3715              		.loc 1 653 0
 3716 0916 013B     		subs	r3, r3, #1
 3717              		.loc 1 656 0
 3718 0918 0268     		ldr	r2, [r0]
 3719 091a 3A67     		str	r2, [r7, #112]
 3720              		.loc 1 653 0
 3721 091c A7F86830 		strh	r3, [r7, #104]	@ movhi
 3722              		.loc 1 657 0
 3723 0920 FFF7FEFF 		bl	tcp_seg_free
 3724              	.LVL320:
 3725              		.loc 1 661 0
 3726 0924 3B6F     		ldr	r3, [r7, #112]
 3727 0926 002B     		cmp	r3, #0
 3728 0928 00F0D880 		beq	.L536
 3729              		.loc 1 664 0
 3730 092c 0023     		movs	r3, #0
 3731 092e BB86     		strh	r3, [r7, #52]	@ movhi
 3732              		.loc 1 665 0
 3733 0930 87F84630 		strb	r3, [r7, #70]
 3734              	.L348:
 3735              		.loc 1 670 0
 3736 0934 D7F88430 		ldr	r3, [r7, #132]
 3737 0938 002B     		cmp	r3, #0
 3738 093a 3FF43EAD 		beq	.L351
 3739 093e 3869     		ldr	r0, [r7, #16]
 3740 0940 3946     		mov	r1, r7
 3741 0942 0022     		movs	r2, #0
 3742 0944 9847     		blx	r3
 3743              	.LVL321:
 3744              		.loc 1 671 0
 3745 0946 0A30     		adds	r0, r0, #10
 3746              	.LVL322:
 3747 0948 7FF437AD 		bne	.L351
 3748 094c 6DE4     		b	.L327
 3749              	.LVL323:
 3750              	.L515:
 3751              		.loc 1 774 0
 3752 094e FA68     		ldr	r2, [r7, #12]
 3753 0950 1A60     		str	r2, [r3]
 3754              	.L374:
 3755              		.loc 1 776 0
 3756 0952 694B     		ldr	r3, .L543+20
 3757              		.loc 1 774 0
 3758 0954 694A     		ldr	r2, .L543+24
ARM GAS  C:\Users\jo\AppData\Local\Temp\ccfChKJS.s 			page 67


 3759              		.loc 1 776 0
 3760 0956 1968     		ldr	r1, [r3]
 3761 0958 F960     		str	r1, [r7, #12]
 3762              		.loc 1 775 0
 3763 095a 0A20     		movs	r0, #10
 3764              		.loc 1 774 0
 3765 095c 0121     		movs	r1, #1
 3766              		.loc 1 775 0
 3767 095e 3876     		strb	r0, [r7, #24]
 3768              		.loc 1 776 0
 3769 0960 1F60     		str	r7, [r3]
 3770              		.loc 1 774 0
 3771 0962 1170     		strb	r1, [r2]
 3772              		.loc 1 776 0
 3773 0964 FFF7FEFF 		bl	tcp_timer_needed
 3774              	.LVL324:
 3775 0968 0CE5     		b	.L331
 3776              	.L363:
 3777              		.loc 1 754 0
 3778 096a D806     		lsls	r0, r3, #27
 3779 096c 7FF50AAD 		bpl	.L331
 3780 0970 DAF80030 		ldr	r3, [r10]
 3781 0974 3A6D     		ldr	r2, [r7, #80]
 3782 0976 9A42     		cmp	r2, r3
 3783 0978 7FF404AD 		bne	.L331
 3784              		.loc 1 755 0
 3785 097c 0623     		movs	r3, #6
 3786 097e 3B76     		strb	r3, [r7, #24]
 3787 0980 00E5     		b	.L331
 3788              	.L531:
 3789              		.loc 1 745 0
 3790 0982 BB7F     		ldrb	r3, [r7, #30]	@ zero_extendqisi2
 3791 0984 43F00203 		orr	r3, r3, #2
 3792 0988 BB77     		strb	r3, [r7, #30]
 3793              		.loc 1 746 0
 3794 098a 3846     		mov	r0, r7
 3795 098c FFF7FEFF 		bl	tcp_pcb_purge
 3796              	.LVL325:
 3797              		.loc 1 747 0
 3798 0990 5B4B     		ldr	r3, .L543+28
 3799 0992 1A68     		ldr	r2, [r3]
 3800 0994 BA42     		cmp	r2, r7
 3801 0996 DAD0     		beq	.L515
 3802 0998 5A4B     		ldr	r3, .L543+32
 3803 099a 1A60     		str	r2, [r3]
 3804              	.L367:
 3805 099c 42B1     		cbz	r2, .L513
 3806 099e D168     		ldr	r1, [r2, #12]
 3807 09a0 B942     		cmp	r1, r7
 3808 09a2 01D0     		beq	.L514
 3809 09a4 0A46     		mov	r2, r1
 3810 09a6 F9E7     		b	.L367
 3811              	.L514:
 3812              		.loc 1 774 0
 3813 09a8 F968     		ldr	r1, [r7, #12]
 3814 09aa 1A60     		str	r2, [r3]
 3815 09ac D160     		str	r1, [r2, #12]
ARM GAS  C:\Users\jo\AppData\Local\Temp\ccfChKJS.s 			page 68


 3816 09ae D0E7     		b	.L374
 3817              	.L513:
 3818 09b0 1A60     		str	r2, [r3]
 3819 09b2 CEE7     		b	.L374
 3820              	.LVL326:
 3821              	.L314:
 3822              	.LBE145:
 3823              	.LBE161:
 3824              	.LBB162:
 3825              	.LBB126:
 3826              		.loc 1 549 0
 3827 09b4 CC07     		lsls	r4, r1, #31
 3828 09b6 7FF5CAAC 		bpl	.L315
 3829              		.loc 1 552 0
 3830 09ba 534B     		ldr	r3, .L543+36
 3831 09bc 1B68     		ldr	r3, [r3]
 3832 09be 7B62     		str	r3, [r7, #36]
 3833 09c0 C5E4     		b	.L315
 3834              	.LVL327:
 3835              	.L527:
 3836              	.LBE126:
 3837              	.LBE162:
 3838              	.LBB163:
 3839              	.LBB146:
 3840              		.loc 1 599 0
 3841 09c2 002A     		cmp	r2, #0
 3842 09c4 7FF4FDAE 		bne	.L330
 3843 09c8 474B     		ldr	r3, .L543+4
 3844 09ca 0093     		str	r3, [sp]
 3845 09cc 4849     		ldr	r1, .L543+12
 3846 09ce 4F4A     		ldr	r2, .L543+40
 3847 09d0 4648     		ldr	r0, .L543+8
 3848 09d2 40F25723 		movw	r3, #599
 3849 09d6 FFF7FEFF 		bl	chprintf.constprop.1
 3850              	.LVL328:
 3851              	.LBB136:
 3852              	.LBB137:
 3853              		.loc 3 416 0
 3854 09da 4C48     		ldr	r0, .L543+40
 3855 09dc FFF7FEFF 		bl	chSysHalt
 3856              	.LVL329:
 3857 09e0 EFE6     		b	.L330
 3858              	.LVL330:
 3859              	.L357:
 3860              	.LBE137:
 3861              	.LBE136:
 3862              	.LBB138:
 3863              		.loc 1 707 0
 3864 09e2 3846     		mov	r0, r7
 3865              	.LVL331:
 3866              		.loc 1 704 0
 3867 09e4 B7F84C40 		ldrh	r4, [r7, #76]
 3868              	.LVL332:
 3869              		.loc 1 707 0
 3870 09e8 FFF7FEFF 		bl	tcp_receive
 3871              	.LVL333:
 3872              		.loc 1 710 0
ARM GAS  C:\Users\jo\AppData\Local\Temp\ccfChKJS.s 			page 69


 3873 09ec B7F86430 		ldrh	r3, [r7, #100]
 3874 09f0 13B1     		cbz	r3, .L359
 3875              		.loc 1 711 0
 3876 09f2 013B     		subs	r3, r3, #1
 3877 09f4 A7F86430 		strh	r3, [r7, #100]	@ movhi
 3878              	.L359:
 3879              		.loc 1 714 0
 3880 09f8 FB8E     		ldrh	r3, [r7, #54]
 3881              		.loc 1 716 0
 3882 09fa 98F80020 		ldrb	r2, [r8]	@ zero_extendqisi2
 3883              		.loc 1 714 0
 3884 09fe 012C     		cmp	r4, #1
 3885 0a00 04BF     		itt	eq
 3886 0a02 5B00     		lsleq	r3, r3, #1
 3887 0a04 9BB2     		uxtheq	r3, r3
 3888              		.loc 1 716 0
 3889 0a06 9206     		lsls	r2, r2, #26
 3890              		.loc 1 714 0
 3891 0a08 A7F84C30 		strh	r3, [r7, #76]	@ movhi
 3892              		.loc 1 716 0
 3893 0a0c 7FF5BAAC 		bpl	.L331
 3894 0a10 27E6     		b	.L509
 3895              	.LVL334:
 3896              	.L535:
 3897              		.loc 1 691 0
 3898 0a12 354B     		ldr	r3, .L543+4
 3899 0a14 0093     		str	r3, [sp]
 3900 0a16 3649     		ldr	r1, .L543+12
 3901 0a18 3D4A     		ldr	r2, .L543+44
 3902 0a1a 3448     		ldr	r0, .L543+8
 3903 0a1c 40F2B323 		movw	r3, #691
 3904 0a20 FFF7FEFF 		bl	chprintf.constprop.1
 3905              	.LVL335:
 3906              	.LBB132:
 3907              	.LBB133:
 3908              		.loc 3 416 0
 3909 0a24 3A48     		ldr	r0, .L543+44
 3910 0a26 FFF7FEFF 		bl	chSysHalt
 3911              	.LVL336:
 3912              	.LBE133:
 3913              	.LBE132:
 3914              		.loc 1 694 0
 3915 0a2a 7B69     		ldr	r3, [r7, #20]
 3916 0a2c 002B     		cmp	r3, #0
 3917 0a2e 7FF4F7AE 		bne	.L355
 3918 0a32 DDE6     		b	.L510
 3919              	.LVL337:
 3920              	.L524:
 3921              	.LBE138:
 3922              	.LBE146:
 3923              	.LBE163:
 3924              	.LBB164:
 3925              	.LBB127:
 3926              		.loc 1 545 0
 3927 0a34 3748     		ldr	r0, .L543+48
 3928 0a36 0088     		ldrh	r0, [r0]
 3929 0a38 0192     		str	r2, [sp, #4]
ARM GAS  C:\Users\jo\AppData\Local\Temp\ccfChKJS.s 			page 70


 3930 0a3a CDF800E0 		str	lr, [sp]
 3931 0a3e 0144     		add	r1, r1, r0
 3932 0a40 354A     		ldr	r2, .L543+52
 3933 0a42 DAF80000 		ldr	r0, [r10]
 3934 0a46 FFF7FEFF 		bl	tcp_rst
 3935              	.LVL338:
 3936              	.LBE127:
 3937              	.LBE164:
 3938              		.loc 1 208 0
 3939 0a4a 2846     		mov	r0, r5
 3940 0a4c FFF702BB 		b	.L512
 3941              	.LVL339:
 3942              	.L530:
 3943              	.LBB165:
 3944              	.LBB153:
 3945              		.loc 1 511 0
 3946 0a50 5046     		mov	r0, r10
 3947              	.LVL340:
 3948 0a52 3946     		mov	r1, r7
 3949 0a54 FFF7FEFF 		bl	tcp_abandon
 3950              	.LVL341:
 3951              	.LBE153:
 3952              	.LBE165:
 3953              		.loc 1 208 0
 3954 0a58 2846     		mov	r0, r5
 3955 0a5a FFF7FBBA 		b	.L512
 3956              	.LVL342:
 3957              	.L529:
 3958              	.LBB166:
 3959              	.LBB154:
 3960              		.loc 1 472 0
 3961 0a5e B4F89C30 		ldrh	r3, [r4, #156]
 3962 0a62 0133     		adds	r3, r3, #1
 3963 0a64 A4F89C30 		strh	r3, [r4, #156]	@ movhi
 3964              	.LBE154:
 3965              	.LBE166:
 3966              		.loc 1 208 0
 3967 0a68 2846     		mov	r0, r5
 3968              	.LVL343:
 3969 0a6a FFF7F3BA 		b	.L512
 3970              	.LVL344:
 3971              	.L528:
 3972              	.LBB167:
 3973              	.LBB155:
 3974              		.loc 1 456 0
 3975 0a6e 294B     		ldr	r3, .L543+48
 3976 0a70 0092     		str	r2, [sp]
 3977 0a72 1988     		ldrh	r1, [r3]
 3978 0a74 1B4B     		ldr	r3, .L543
 3979 0a76 BCF80020 		ldrh	r2, [ip]	@ unaligned
 3980 0a7a 1B68     		ldr	r3, [r3]
 3981 0a7c 0192     		str	r2, [sp, #4]
 3982 0a7e 1944     		add	r1, r1, r3
 3983 0a80 DAF80000 		ldr	r0, [r10]
 3984 0a84 244A     		ldr	r2, .L543+52
 3985 0a86 254B     		ldr	r3, .L543+56
 3986 0a88 FFF7FEFF 		bl	tcp_rst
ARM GAS  C:\Users\jo\AppData\Local\Temp\ccfChKJS.s 			page 71


 3987              	.LVL345:
 3988              	.LBE155:
 3989              	.LBE167:
 3990              		.loc 1 208 0
 3991 0a8c 2846     		mov	r0, r5
 3992 0a8e FFF7E1BA 		b	.L512
 3993              	.LVL346:
 3994              	.L523:
 3995              		.loc 1 188 0 discriminator 1
 3996 0a92 154B     		ldr	r3, .L543+4
 3997 0a94 0093     		str	r3, [sp]
 3998 0a96 1649     		ldr	r1, .L543+12
 3999 0a98 214A     		ldr	r2, .L543+60
 4000 0a9a 1448     		ldr	r0, .L543+8
 4001 0a9c BC23     		movs	r3, #188
 4002 0a9e FFF7FEFF 		bl	chprintf.constprop.1
 4003              	.LVL347:
 4004              	.LBB168:
 4005              	.LBB169:
 4006              		.loc 3 416 0 discriminator 1
 4007 0aa2 1F48     		ldr	r0, .L543+60
 4008 0aa4 FFF7FEFF 		bl	chSysHalt
 4009              	.LVL348:
 4010 0aa8 FFF789BB 		b	.L308
 4011              	.LVL349:
 4012              	.L525:
 4013              	.LBE169:
 4014              	.LBE168:
 4015              	.LBB170:
 4016              	.LBB128:
 4017              		.loc 1 557 0
 4018 0aac BB7F     		ldrb	r3, [r7, #30]	@ zero_extendqisi2
 4019 0aae 43F00203 		orr	r3, r3, #2
 4020 0ab2 BB77     		strb	r3, [r7, #30]
 4021              		.loc 1 558 0
 4022 0ab4 3846     		mov	r0, r7
 4023 0ab6 FFF7FEFF 		bl	tcp_output
 4024              	.LVL350:
 4025              	.LBE128:
 4026              	.LBE170:
 4027              		.loc 1 208 0
 4028 0aba 2846     		mov	r0, r5
 4029 0abc FFF7CABA 		b	.L512
 4030              	.LVL351:
 4031              	.L522:
 4032              		.loc 1 182 0 discriminator 1
 4033 0ac0 094B     		ldr	r3, .L543+4
 4034 0ac2 0093     		str	r3, [sp]
 4035 0ac4 0A49     		ldr	r1, .L543+12
 4036 0ac6 174A     		ldr	r2, .L543+64
 4037 0ac8 0848     		ldr	r0, .L543+8
 4038 0aca B623     		movs	r3, #182
 4039 0acc FFF7FEFF 		bl	chprintf.constprop.1
 4040              	.LVL352:
 4041              	.LBB171:
 4042              	.LBB172:
 4043              		.loc 3 416 0 discriminator 1
ARM GAS  C:\Users\jo\AppData\Local\Temp\ccfChKJS.s 			page 72


 4044 0ad0 1448     		ldr	r0, .L543+64
 4045 0ad2 FFF7FEFF 		bl	chSysHalt
 4046              	.LVL353:
 4047 0ad6 FB68     		ldr	r3, [r7, #12]
 4048 0ad8 FFF763BB 		b	.L306
 4049              	.LVL354:
 4050              	.L536:
 4051              	.LBE172:
 4052              	.LBE171:
 4053              	.LBB173:
 4054              	.LBB147:
 4055              		.loc 1 662 0
 4056 0adc 4FF6FF73 		movw	r3, #65535
 4057 0ae0 BB86     		strh	r3, [r7, #52]	@ movhi
 4058 0ae2 27E7     		b	.L348
 4059              	.L544:
 4060              		.align	2
 4061              	.L543:
 4062 0ae4 00000000 		.word	.LANCHOR0
 4063 0ae8 44000000 		.word	.LC2
 4064 0aec 00000000 		.word	itm_port
 4065 0af0 00000000 		.word	.LC0
 4066 0af4 D4020000 		.word	.LC20
 4067 0af8 00000000 		.word	tcp_tw_pcbs
 4068 0afc 00000000 		.word	tcp_active_pcbs_changed
 4069 0b00 00000000 		.word	tcp_active_pcbs
 4070 0b04 00000000 		.word	tcp_tmp_pcb
 4071 0b08 00000000 		.word	tcp_ticks
 4072 0b0c B4020000 		.word	.LC19
 4073 0b10 EC020000 		.word	.LC21
 4074 0b14 00000000 		.word	.LANCHOR4
 4075 0b18 00000000 		.word	current_iphdr_dest
 4076 0b1c 00000000 		.word	current_iphdr_src
 4077 0b20 58020000 		.word	.LC17
 4078 0b24 2C020000 		.word	.LC16
 4079              	.LBE147:
 4080              	.LBE173:
 4081              		.cfi_endproc
 4082              	.LFE260:
 4083              		.size	tcp_input, .-tcp_input
 4084              		.global	tcp_input_pcb
 4085 0b28 AFF30080 		.section	.bss.seqno,"aw",%nobits
 4085      AFF30080 
 4086              		.align	2
 4087              		.set	.LANCHOR0,. + 0
 4088              		.type	seqno, %object
 4089              		.size	seqno, 4
 4090              	seqno:
 4091 0000 00000000 		.space	4
 4092              		.section	.bss.iphdr,"aw",%nobits
 4093              		.align	2
 4094              		.set	.LANCHOR8,. + 0
 4095              		.type	iphdr, %object
 4096              		.size	iphdr, 4
 4097              	iphdr:
 4098 0000 00000000 		.space	4
 4099              		.section	.bss.tcplen,"aw",%nobits
ARM GAS  C:\Users\jo\AppData\Local\Temp\ccfChKJS.s 			page 73


 4100              		.align	1
 4101              		.set	.LANCHOR4,. + 0
 4102              		.type	tcplen, %object
 4103              		.size	tcplen, 2
 4104              	tcplen:
 4105 0000 0000     		.space	2
 4106              		.section	.bss.ackno,"aw",%nobits
 4107              		.align	2
 4108              		.set	.LANCHOR3,. + 0
 4109              		.type	ackno, %object
 4110              		.size	ackno, 4
 4111              	ackno:
 4112 0000 00000000 		.space	4
 4113              		.section	.bss.flags,"aw",%nobits
 4114              		.set	.LANCHOR2,. + 0
 4115              		.type	flags, %object
 4116              		.size	flags, 1
 4117              	flags:
 4118 0000 00       		.space	1
 4119              		.section	.bss.recv_flags,"aw",%nobits
 4120              		.set	.LANCHOR7,. + 0
 4121              		.type	recv_flags, %object
 4122              		.size	recv_flags, 1
 4123              	recv_flags:
 4124 0000 00       		.space	1
 4125              		.section	.bss.tcphdr,"aw",%nobits
 4126              		.align	2
 4127              		.set	.LANCHOR1,. + 0
 4128              		.type	tcphdr, %object
 4129              		.size	tcphdr, 4
 4130              	tcphdr:
 4131 0000 00000000 		.space	4
 4132              		.section	.bss.recv_data,"aw",%nobits
 4133              		.align	2
 4134              		.set	.LANCHOR6,. + 0
 4135              		.type	recv_data, %object
 4136              		.size	recv_data, 4
 4137              	recv_data:
 4138 0000 00000000 		.space	4
 4139              		.section	.rodata.str1.4,"aMS",%progbits,1
 4140              		.align	2
 4141              	.LC0:
 4142 0000 41737365 		.ascii	"Assertion \"%s\" failed at line %d in %s\012\000"
 4142      7274696F 
 4142      6E202225 
 4142      73222066 
 4142      61696C65 
 4143              	.LC1:
 4144 0028 7463705F 		.ascii	"tcp_receive: wrong state\000"
 4144      72656365 
 4144      6976653A 
 4144      2077726F 
 4144      6E672073 
 4145 0041 000000   		.space	3
 4146              	.LC2:
 4147 0044 2E2E2F2E 		.ascii	"../../../ext/lwip/src/core/tcp_in.c\000"
 4147      2E2F2E2E 
ARM GAS  C:\Users\jo\AppData\Local\Temp\ccfChKJS.s 			page 74


 4147      2F657874 
 4147      2F6C7769 
 4147      702F7372 
 4148              	.LC3:
 4149 0068 7063622D 		.ascii	"pcb->snd_queuelen >= pbuf_clen(next->p)\000"
 4149      3E736E64 
 4149      5F717565 
 4149      75656C65 
 4149      6E203E3D 
 4150              	.LC4:
 4151 0090 7463705F 		.ascii	"tcp_receive: valid queue length\000"
 4151      72656365 
 4151      6976653A 
 4151      2076616C 
 4151      69642071 
 4152              	.LC5:
 4153 00b0 696E7365 		.ascii	"inseg.p != NULL\000"
 4153      672E7020 
 4153      213D204E 
 4153      554C4C00 
 4154              	.LC6:
 4155 00c0 696E7361 		.ascii	"insane offset!\000"
 4155      6E65206F 
 4155      66667365 
 4155      742100
 4156 00cf 00       		.space	1
 4157              	.LC7:
 4158 00d0 70627566 		.ascii	"pbuf too short!\000"
 4158      20746F6F 
 4158      2073686F 
 4158      72742100 
 4159              	.LC8:
 4160 00e0 70627566 		.ascii	"pbuf_header failed\000"
 4160      5F686561 
 4160      64657220 
 4160      6661696C 
 4160      656400
 4161 00f3 00       		.space	1
 4162              	.LC9:
 4163 00f4 7463705F 		.ascii	"tcp_receive: segment not trimmed correctly to rcv_w"
 4163      72656365 
 4163      6976653A 
 4163      20736567 
 4163      6D656E74 
 4164 0127 6E640A00 		.ascii	"nd\012\000"
 4165 012b 00       		.space	1
 4166              	.LC10:
 4167 012c 7463705F 		.ascii	"tcp_receive: segment not trimmed correctly to ooseq"
 4167      72656365 
 4167      6976653A 
 4167      20736567 
 4167      6D656E74 
 4168 015f 20717565 		.ascii	" queue\012\000"
 4168      75650A00 
 4169 0167 00       		.space	1
 4170              	.LC11:
 4171 0168 7463705F 		.ascii	"tcp_receive: tcplen > rcv_wnd\012\000"
ARM GAS  C:\Users\jo\AppData\Local\Temp\ccfChKJS.s 			page 75


 4171      72656365 
 4171      6976653A 
 4171      20746370 
 4171      6C656E20 
 4172 0187 00       		.space	1
 4173              	.LC12:
 4174 0188 7463705F 		.ascii	"tcp_receive: ooseq tcplen > rcv_wnd\012\000"
 4174      72656365 
 4174      6976653A 
 4174      206F6F73 
 4174      65712074 
 4175 01ad 000000   		.space	3
 4176              	.LC13:
 4177 01b0 7463705F 		.ascii	"tcp_input: active pcb->state != CLOSED\000"
 4177      696E7075 
 4177      743A2061 
 4177      63746976 
 4177      65207063 
 4178 01d7 00       		.space	1
 4179              	.LC14:
 4180 01d8 7463705F 		.ascii	"tcp_input: active pcb->state != TIME-WAIT\000"
 4180      696E7075 
 4180      743A2061 
 4180      63746976 
 4180      65207063 
 4181 0202 0000     		.space	2
 4182              	.LC15:
 4183 0204 7463705F 		.ascii	"tcp_input: active pcb->state != LISTEN\000"
 4183      696E7075 
 4183      743A2061 
 4183      63746976 
 4183      65207063 
 4184 022b 00       		.space	1
 4185              	.LC16:
 4186 022c 7463705F 		.ascii	"tcp_input: pcb->next != pcb (before cache)\000"
 4186      696E7075 
 4186      743A2070 
 4186      63622D3E 
 4186      6E657874 
 4187 0257 00       		.space	1
 4188              	.LC17:
 4189 0258 7463705F 		.ascii	"tcp_input: pcb->next != pcb (after cache)\000"
 4189      696E7075 
 4189      743A2070 
 4189      63622D3E 
 4189      6E657874 
 4190 0282 0000     		.space	2
 4191              	.LC18:
 4192 0284 7463705F 		.ascii	"tcp_input: TIME-WAIT pcb->state == TIME-WAIT\000"
 4192      696E7075 
 4192      743A2054 
 4192      494D452D 
 4192      57414954 
 4193 02b1 000000   		.space	3
 4194              	.LC19:
 4195 02b4 7463705F 		.ascii	"tcp_input: pcb->state != CLOSED\000"
 4195      696E7075 
ARM GAS  C:\Users\jo\AppData\Local\Temp\ccfChKJS.s 			page 76


 4195      743A2070 
 4195      63622D3E 
 4195      73746174 
 4196              	.LC20:
 4197 02d4 7063622D 		.ascii	"pcb->snd_queuelen > 0\000"
 4197      3E736E64 
 4197      5F717565 
 4197      75656C65 
 4197      6E203E20 
 4198 02ea 0000     		.space	2
 4199              	.LC21:
 4200 02ec 7063622D 		.ascii	"pcb->accept != NULL\000"
 4200      3E616363 
 4200      65707420 
 4200      213D204E 
 4200      554C4C00 
 4201              	.LC22:
 4202 0300 7063622D 		.ascii	"pcb->refused_data == NULL\000"
 4202      3E726566 
 4202      75736564 
 4202      5F646174 
 4202      61203D3D 
 4203 031a 0000     		.section	.bss.inseg,"aw",%nobits
 4204              		.align	2
 4205              		.set	.LANCHOR5,. + 0
 4206              		.type	inseg, %object
 4207              		.size	inseg, 20
 4208              	inseg:
 4209 0000 00000000 		.space	20
 4209      00000000 
 4209      00000000 
 4209      00000000 
 4209      00000000 
 4210              		.section	.bss.tcp_input_pcb,"aw",%nobits
 4211              		.align	2
 4212              		.set	.LANCHOR9,. + 0
 4213              		.type	tcp_input_pcb, %object
 4214              		.size	tcp_input_pcb, 4
 4215              	tcp_input_pcb:
 4216 0000 00000000 		.space	4
 4217              		.text
 4218              	.Letext0:
 4219              		.file 4 "c:\\program files\\gnu tools arm embedded\\4.9 2014q4\\lib\\gcc\\arm-none-eabi\\4.9.3\\in
 4220              		.file 5 "c:\\program files\\gnu tools arm embedded\\4.9 2014q4\\arm-none-eabi\\include\\machine\\_
 4221              		.file 6 "c:\\program files\\gnu tools arm embedded\\4.9 2014q4\\arm-none-eabi\\include\\stdint.h"
 4222              		.file 7 "../../../os/rt/ports/ARMCMx/compilers/GCC/chtypes.h"
 4223              		.file 8 "../../../os/rt/include/chsystypes.h"
 4224              		.file 9 "../../../os/rt/include/chschd.h"
 4225              		.file 10 "../../../os/rt/ports/ARMCMx/chcore.h"
 4226              		.file 11 "../../../os/rt/ports/ARMCMx/chcore_v7m.h"
 4227              		.file 12 "../../../os/rt/include/chdebug.h"
 4228              		.file 13 "../../../os/rt/include/chtm.h"
 4229              		.file 14 "../../../os/rt/include/chsem.h"
 4230              		.file 15 "../../../os/rt/include/chmtx.h"
 4231              		.file 16 "../../../os/rt/include/chstreams.h"
 4232              		.file 17 "./ITM_trace.h"
 4233              		.file 18 "c:\\program files\\gnu tools arm embedded\\4.9 2014q4\\lib\\gcc\\arm-none-eabi\\4.9.3\\i
ARM GAS  C:\Users\jo\AppData\Local\Temp\ccfChKJS.s 			page 77


 4234              		.file 19 "<built-in>"
 4235              		.file 20 "../../../os/various/lwip_bindings/arch/cc.h"
 4236              		.file 21 "../../../ext/lwip/src/include/lwip/mem.h"
 4237              		.file 22 "../../../ext/lwip/src/include/lwip/err.h"
 4238              		.file 23 "../../../ext/lwip/src/include/lwip/pbuf.h"
 4239              		.file 24 "../../../ext/lwip/src/include/ipv4/lwip/ip_addr.h"
 4240              		.file 25 "../../../ext/lwip/src/include/lwip/netif.h"
 4241              		.file 26 "../../../ext/lwip/src/include/ipv4/lwip/ip.h"
 4242              		.file 27 "../../../ext/lwip/src/include/lwip/tcp.h"
 4243              		.file 28 "../../../ext/lwip/src/include/lwip/tcp_impl.h"
 4244              		.file 29 "../../../ext/lwip/src/include/lwip/stats.h"
 4245              		.file 30 "../../../os/ext/CMSIS/include/core_cm4.h"
 4246              		.file 31 "../../../ext/lwip/src/include/lwip/def.h"
 4247              		.file 32 "../../../os/rt/include/chsys.h"
 4248              		.file 33 "../../../ext/lwip/src/include/ipv4/lwip/inet_chksum.h"
 4249              		.file 34 "c:\\program files\\gnu tools arm embedded\\4.9 2014q4\\arm-none-eabi\\include\\stdlib.h"
 4250              		.file 35 "../../../ext/lwip/src/include/lwip/memp.h"