ARM GAS  C:\Users\jo\AppData\Local\Temp\ccxGc4C3.s 			page 1


   1              		.syntax unified
   2              		.cpu cortex-m4
   3              		.fpu softvfp
   4              		.eabi_attribute 20, 1
   5              		.eabi_attribute 21, 1
   6              		.eabi_attribute 23, 3
   7              		.eabi_attribute 24, 1
   8              		.eabi_attribute 25, 1
   9              		.eabi_attribute 26, 1
  10              		.eabi_attribute 30, 2
  11              		.eabi_attribute 34, 1
  12              		.eabi_attribute 18, 4
  13              		.thumb
  14              		.file	"tcpip.c"
  15              		.text
  16              	.Ltext0:
  17              		.cfi_sections	.debug_frame
  18              		.section	.text.pbuf_free_int,"ax",%progbits
  19              		.align	2
  20              		.p2align 4,,15
  21              		.thumb
  22              		.thumb_func
  23              		.type	pbuf_free_int, %function
  24              	pbuf_free_int:
  25              	.LFB270:
  26              		.file 1 "../../../ext/lwip/src/api/tcpip.c"
  27              		.loc 1 481 0
  28              		.cfi_startproc
  29              		@ args = 0, pretend = 0, frame = 0
  30              		@ frame_needed = 0, uses_anonymous_args = 0
  31              		@ link register save eliminated.
  32              	.LVL0:
  33              		.loc 1 483 0
  34 0000 FFF7FEBF 		b	pbuf_free
  35              	.LVL1:
  36              		.cfi_endproc
  37              	.LFE270:
  38              		.size	pbuf_free_int, .-pbuf_free_int
  39 0004 AFF30080 		.section	.text.chprintf.constprop.0,"ax",%progbits
  39      AFF30080 
  39      AFF30080 
  40              		.align	2
  41              		.p2align 4,,15
  42              		.thumb
  43              		.thumb_func
  44              		.type	chprintf.constprop.0, %function
  45              	chprintf.constprop.0:
  46              	.LFB273:
  47              		.file 2 "../../../os/hal/lib/streams/chprintf.h"
  48              		.loc 2 69 0
  49              		.cfi_startproc
  50              		@ args = 4, pretend = 12, frame = 8
  51              		@ frame_needed = 0, uses_anonymous_args = 1
  52              	.LVL2:
  53 0000 0EB4     		push	{r1, r2, r3}
  54              		.cfi_def_cfa_offset 12
  55              		.cfi_offset 1, -12
ARM GAS  C:\Users\jo\AppData\Local\Temp\ccxGc4C3.s 			page 2


  56              		.cfi_offset 2, -8
  57              		.cfi_offset 3, -4
  58 0002 00B5     		push	{lr}
  59              		.cfi_def_cfa_offset 16
  60              		.cfi_offset 14, -16
  61 0004 82B0     		sub	sp, sp, #8
  62              		.cfi_def_cfa_offset 24
  63              		.loc 2 73 0
  64 0006 04AB     		add	r3, sp, #16
  65              		.loc 2 74 0
  66 0008 1A46     		mov	r2, r3
  67 000a 0549     		ldr	r1, .L4
  68 000c 0548     		ldr	r0, .L4+4
  69              	.LVL3:
  70              		.loc 2 73 0
  71 000e 0193     		str	r3, [sp, #4]
  72              		.loc 2 74 0
  73 0010 FFF7FEFF 		bl	chvprintf
  74              	.LVL4:
  75              		.loc 2 78 0
  76 0014 02B0     		add	sp, sp, #8
  77              		.cfi_def_cfa_offset 16
  78              		@ sp needed
  79 0016 5DF804EB 		ldr	lr, [sp], #4
  80              		.cfi_restore 14
  81              		.cfi_def_cfa_offset 12
  82 001a 03B0     		add	sp, sp, #12
  83              		.cfi_restore 3
  84              		.cfi_restore 2
  85              		.cfi_restore 1
  86              		.cfi_def_cfa_offset 0
  87 001c 7047     		bx	lr
  88              	.L5:
  89 001e 00BF     		.align	2
  90              	.L4:
  91 0020 00000000 		.word	.LC0
  92 0024 00000000 		.word	itm_port
  93              		.cfi_endproc
  94              	.LFE273:
  95              		.size	chprintf.constprop.0, .-chprintf.constprop.0
  96 0028 AFF30080 		.section	.text.tcpip_thread,"ax",%progbits
  96      AFF30080 
  97              		.align	2
  98              		.p2align 4,,15
  99              		.thumb
 100              		.thumb_func
 101              		.type	tcpip_thread, %function
 102              	tcpip_thread:
 103              	.LFB260:
 104              		.loc 1 75 0
 105              		.cfi_startproc
 106              		@ args = 0, pretend = 0, frame = 8
 107              		@ frame_needed = 0, uses_anonymous_args = 0
 108              	.LVL5:
 109 0000 10B5     		push	{r4, lr}
 110              		.cfi_def_cfa_offset 8
 111              		.cfi_offset 4, -8
ARM GAS  C:\Users\jo\AppData\Local\Temp\ccxGc4C3.s 			page 3


 112              		.cfi_offset 14, -4
 113              		.loc 1 79 0
 114 0002 274B     		ldr	r3, .L26
 115 0004 1B68     		ldr	r3, [r3]
 116              		.loc 1 75 0
 117 0006 84B0     		sub	sp, sp, #16
 118              		.cfi_def_cfa_offset 24
 119              		.loc 1 79 0
 120 0008 13B1     		cbz	r3, .L7
 121              		.loc 1 80 0
 122 000a 264A     		ldr	r2, .L26+4
 123 000c 1068     		ldr	r0, [r2]
 124              	.LVL6:
 125 000e 9847     		blx	r3
 126              	.LVL7:
 127              	.L7:
 128 0010 254C     		ldr	r4, .L26+8
 129              	.L8:
 130              		.loc 1 88 0
 131 0012 2648     		ldr	r0, .L26+12
 132 0014 03A9     		add	r1, sp, #12
 133 0016 FFF7FEFF 		bl	sys_timeouts_mbox_fetch
 134              	.LVL8:
 135              		.loc 1 90 0
 136 001a 039B     		ldr	r3, [sp, #12]
 137 001c 1A78     		ldrb	r2, [r3]	@ zero_extendqisi2
 138 001e 052A     		cmp	r2, #5
 139 0020 2FD8     		bhi	.L9
 140 0022 DFE802F0 		tbb	[pc, r2]
 141              	.L11:
 142 0026 29       		.byte	(.L10-.L11)/2
 143 0027 1F       		.byte	(.L12-.L11)/2
 144 0028 16       		.byte	(.L13-.L11)/2
 145 0029 0E       		.byte	(.L14-.L11)/2
 146 002a 07       		.byte	(.L15-.L11)/2
 147 002b 03       		.byte	(.L16-.L11)/2
 148              		.p2align 1
 149              	.L16:
 150              		.loc 1 141 0
 151 002c 9A68     		ldr	r2, [r3, #8]
 152 002e D868     		ldr	r0, [r3, #12]
 153 0030 9047     		blx	r2
 154              	.LVL9:
 155              		.loc 1 142 0
 156 0032 EEE7     		b	.L8
 157              	.L15:
 158              		.loc 1 135 0
 159 0034 9A68     		ldr	r2, [r3, #8]
 160 0036 D868     		ldr	r0, [r3, #12]
 161 0038 9047     		blx	r2
 162              	.LVL10:
 163              	.L24:
 164              		.loc 1 136 0
 165 003a 0398     		ldr	r0, [sp, #12]
 166 003c FFF7FEFF 		bl	free
 167              	.LVL11:
 168              		.loc 1 137 0
ARM GAS  C:\Users\jo\AppData\Local\Temp\ccxGc4C3.s 			page 4


 169 0040 E7E7     		b	.L8
 170              	.L14:
 171              		.loc 1 128 0
 172 0042 D868     		ldr	r0, [r3, #12]
 173 0044 1969     		ldr	r1, [r3, #16]
 174 0046 FFF7FEFF 		bl	sys_untimeout
 175              	.LVL12:
 176              		.loc 1 129 0
 177 004a 0398     		ldr	r0, [sp, #12]
 178 004c FFF7FEFF 		bl	free
 179              	.LVL13:
 180              		.loc 1 130 0
 181 0050 DFE7     		b	.L8
 182              	.L13:
 183              		.loc 1 123 0
 184 0052 03F10800 		add	r0, r3, #8
 185 0056 07C8     		ldmia	r0, {r0, r1, r2}
 186 0058 FFF7FEFF 		bl	sys_timeout
 187              	.LVL14:
 188              		.loc 1 124 0
 189 005c 0398     		ldr	r0, [sp, #12]
 190 005e FFF7FEFF 		bl	free
 191              	.LVL15:
 192              		.loc 1 125 0
 193 0062 D6E7     		b	.L8
 194              	.L12:
 195              		.loc 1 102 0
 196 0064 D968     		ldr	r1, [r3, #12]
 197              		.loc 1 103 0
 198 0066 9868     		ldr	r0, [r3, #8]
 199              		.loc 1 102 0
 200 0068 91F82920 		ldrb	r2, [r1, #41]	@ zero_extendqisi2
 201 006c 12F0600F 		tst	r2, #96
 202 0070 12D0     		beq	.L18
 203              		.loc 1 103 0
 204 0072 FFF7FEFF 		bl	ethernet_input
 205              	.LVL16:
 206 0076 E0E7     		b	.L24
 207              	.L10:
 208              		.loc 1 94 0
 209 0078 9868     		ldr	r0, [r3, #8]
 210 007a 0368     		ldr	r3, [r0]
 211 007c 0430     		adds	r0, r0, #4
 212 007e 9847     		blx	r3
 213              	.LVL17:
 214              		.loc 1 95 0
 215 0080 C7E7     		b	.L8
 216              	.L9:
 217              		.loc 1 146 0 discriminator 1
 218 0082 0094     		str	r4, [sp]
 219 0084 0A49     		ldr	r1, .L26+16
 220 0086 0B4A     		ldr	r2, .L26+20
 221 0088 0B48     		ldr	r0, .L26+24
 222 008a 9223     		movs	r3, #146
 223 008c FFF7FEFF 		bl	chprintf.constprop.0
 224              	.LVL18:
 225              	.LBB6:
ARM GAS  C:\Users\jo\AppData\Local\Temp\ccxGc4C3.s 			page 5


 226              	.LBB7:
 227              		.file 3 "../../../os/hal/osal/rt/osal.h"
 228              		.loc 3 416 0 discriminator 1
 229 0090 0848     		ldr	r0, .L26+20
 230 0092 FFF7FEFF 		bl	chSysHalt
 231              	.LVL19:
 232 0096 BCE7     		b	.L8
 233              	.LVL20:
 234              	.L18:
 235              	.LBE7:
 236              	.LBE6:
 237              		.loc 1 107 0
 238 0098 FFF7FEFF 		bl	ip_input
 239              	.LVL21:
 240 009c CDE7     		b	.L24
 241              	.L27:
 242 009e 00BF     		.align	2
 243              	.L26:
 244 00a0 00000000 		.word	.LANCHOR0
 245 00a4 00000000 		.word	.LANCHOR1
 246 00a8 48000000 		.word	.LC2
 247 00ac 00000000 		.word	.LANCHOR2
 248 00b0 00000000 		.word	.LC0
 249 00b4 28000000 		.word	.LC1
 250 00b8 00000000 		.word	itm_port
 251              		.cfi_endproc
 252              	.LFE260:
 253              		.size	tcpip_thread, .-tcpip_thread
 254 00bc AFF30080 		.section	.text.tcpip_input,"ax",%progbits
 255              		.align	2
 256              		.p2align 4,,15
 257              		.global	tcpip_input
 258              		.thumb
 259              		.thumb_func
 260              		.type	tcpip_input, %function
 261              	tcpip_input:
 262              	.LFB261:
 263              		.loc 1 162 0
 264              		.cfi_startproc
 265              		@ args = 0, pretend = 0, frame = 0
 266              		@ frame_needed = 0, uses_anonymous_args = 0
 267              	.LVL22:
 268 0000 70B5     		push	{r4, r5, r6, lr}
 269              		.cfi_def_cfa_offset 16
 270              		.cfi_offset 4, -16
 271              		.cfi_offset 5, -12
 272              		.cfi_offset 6, -8
 273              		.cfi_offset 14, -4
 274              		.loc 1 162 0
 275 0002 0646     		mov	r6, r0
 276              		.loc 1 180 0
 277 0004 0F48     		ldr	r0, .L37
 278              	.LVL23:
 279              		.loc 1 162 0
 280 0006 0D46     		mov	r5, r1
 281              		.loc 1 180 0
 282 0008 FFF7FEFF 		bl	sys_mbox_valid
ARM GAS  C:\Users\jo\AppData\Local\Temp\ccxGc4C3.s 			page 6


 283              	.LVL24:
 284 000c 80B1     		cbz	r0, .L30
 285              		.loc 1 183 0
 286 000e 0E4B     		ldr	r3, .L37+4
 287 0010 588A     		ldrh	r0, [r3, #18]
 288 0012 FFF7FEFF 		bl	malloc
 289              	.LVL25:
 290              		.loc 1 184 0
 291 0016 0446     		mov	r4, r0
 292 0018 60B1     		cbz	r0, .L31
 293              		.loc 1 188 0
 294 001a 0123     		movs	r3, #1
 295              		.loc 1 189 0
 296 001c 8660     		str	r6, [r0, #8]
 297              		.loc 1 190 0
 298 001e C560     		str	r5, [r0, #12]
 299              		.loc 1 188 0
 300 0020 0370     		strb	r3, [r0]
 301              		.loc 1 191 0
 302 0022 2146     		mov	r1, r4
 303 0024 0748     		ldr	r0, .L37
 304              	.LVL26:
 305 0026 FFF7FEFF 		bl	sys_mbox_trypost
 306              	.LVL27:
 307 002a 28B9     		cbnz	r0, .L36
 308              	.LVL28:
 309              	.L29:
 310              		.loc 1 197 0
 311 002c 40B2     		sxtb	r0, r0
 312 002e 70BD     		pop	{r4, r5, r6, pc}
 313              	.LVL29:
 314              	.L30:
 315              		.loc 1 181 0
 316 0030 FA20     		movs	r0, #250
 317 0032 FBE7     		b	.L29
 318              	.LVL30:
 319              	.L31:
 320              		.loc 1 185 0
 321 0034 FF20     		movs	r0, #255
 322              	.LVL31:
 323 0036 F9E7     		b	.L29
 324              	.L36:
 325              		.loc 1 192 0
 326 0038 2046     		mov	r0, r4
 327 003a FFF7FEFF 		bl	free
 328              	.LVL32:
 329              		.loc 1 193 0
 330 003e FF20     		movs	r0, #255
 331 0040 F4E7     		b	.L29
 332              	.L38:
 333 0042 00BF     		.align	2
 334              	.L37:
 335 0044 00000000 		.word	.LANCHOR2
 336 0048 00000000 		.word	memp_sizes
 337              		.cfi_endproc
 338              	.LFE261:
 339              		.size	tcpip_input, .-tcpip_input
ARM GAS  C:\Users\jo\AppData\Local\Temp\ccxGc4C3.s 			page 7


 340 004c AFF30080 		.section	.text.tcpip_callback_with_block,"ax",%progbits
 341              		.align	2
 342              		.p2align 4,,15
 343              		.global	tcpip_callback_with_block
 344              		.thumb
 345              		.thumb_func
 346              		.type	tcpip_callback_with_block, %function
 347              	tcpip_callback_with_block:
 348              	.LFB262:
 349              		.loc 1 212 0
 350              		.cfi_startproc
 351              		@ args = 0, pretend = 0, frame = 0
 352              		@ frame_needed = 0, uses_anonymous_args = 0
 353              	.LVL33:
 354 0000 F8B5     		push	{r3, r4, r5, r6, r7, lr}
 355              		.cfi_def_cfa_offset 24
 356              		.cfi_offset 3, -24
 357              		.cfi_offset 4, -20
 358              		.cfi_offset 5, -16
 359              		.cfi_offset 6, -12
 360              		.cfi_offset 7, -8
 361              		.cfi_offset 14, -4
 362              		.loc 1 212 0
 363 0002 0746     		mov	r7, r0
 364              		.loc 1 215 0
 365 0004 1348     		ldr	r0, .L50
 366              	.LVL34:
 367              		.loc 1 212 0
 368 0006 0E46     		mov	r6, r1
 369 0008 1546     		mov	r5, r2
 370              		.loc 1 215 0
 371 000a FFF7FEFF 		bl	sys_mbox_valid
 372              	.LVL35:
 373 000e C0B1     		cbz	r0, .L42
 374              		.loc 1 216 0
 375 0010 114B     		ldr	r3, .L50+4
 376 0012 188A     		ldrh	r0, [r3, #16]
 377 0014 FFF7FEFF 		bl	malloc
 378              	.LVL36:
 379              		.loc 1 217 0
 380 0018 0446     		mov	r4, r0
 381 001a C8B1     		cbz	r0, .L43
 382              		.loc 1 221 0
 383 001c 0423     		movs	r3, #4
 384              		.loc 1 222 0
 385 001e 8760     		str	r7, [r0, #8]
 386              		.loc 1 223 0
 387 0020 C660     		str	r6, [r0, #12]
 388              		.loc 1 221 0
 389 0022 0370     		strb	r3, [r0]
 390              		.loc 1 224 0
 391 0024 35B9     		cbnz	r5, .L48
 392              		.loc 1 227 0
 393 0026 0B48     		ldr	r0, .L50
 394              	.LVL37:
 395 0028 2146     		mov	r1, r4
 396 002a FFF7FEFF 		bl	sys_mbox_trypost
ARM GAS  C:\Users\jo\AppData\Local\Temp\ccxGc4C3.s 			page 8


 397              	.LVL38:
 398 002e 50B9     		cbnz	r0, .L49
 399              	.LVL39:
 400              	.L40:
 401              		.loc 1 235 0
 402 0030 40B2     		sxtb	r0, r0
 403 0032 F8BD     		pop	{r3, r4, r5, r6, r7, pc}
 404              	.LVL40:
 405              	.L48:
 406              		.loc 1 225 0
 407 0034 0146     		mov	r1, r0
 408 0036 0748     		ldr	r0, .L50
 409              	.LVL41:
 410 0038 FFF7FEFF 		bl	sys_mbox_post
 411              	.LVL42:
 412              		.loc 1 232 0
 413 003c 0020     		movs	r0, #0
 414              		.loc 1 235 0
 415 003e 40B2     		sxtb	r0, r0
 416 0040 F8BD     		pop	{r3, r4, r5, r6, r7, pc}
 417              	.LVL43:
 418              	.L42:
 419              		.loc 1 234 0
 420 0042 FA20     		movs	r0, #250
 421 0044 F4E7     		b	.L40
 422              	.LVL44:
 423              	.L49:
 424              		.loc 1 228 0
 425 0046 2046     		mov	r0, r4
 426 0048 FFF7FEFF 		bl	free
 427              	.LVL45:
 428              		.loc 1 229 0
 429 004c FF20     		movs	r0, #255
 430 004e EFE7     		b	.L40
 431              	.LVL46:
 432              	.L43:
 433              		.loc 1 218 0
 434 0050 FF20     		movs	r0, #255
 435              	.LVL47:
 436 0052 EDE7     		b	.L40
 437              	.L51:
 438              		.align	2
 439              	.L50:
 440 0054 00000000 		.word	.LANCHOR2
 441 0058 00000000 		.word	memp_sizes
 442              		.cfi_endproc
 443              	.LFE262:
 444              		.size	tcpip_callback_with_block, .-tcpip_callback_with_block
 445 005c AFF30080 		.section	.text.tcpip_timeout,"ax",%progbits
 446              		.align	2
 447              		.p2align 4,,15
 448              		.global	tcpip_timeout
 449              		.thumb
 450              		.thumb_func
 451              		.type	tcpip_timeout, %function
 452              	tcpip_timeout:
 453              	.LFB263:
ARM GAS  C:\Users\jo\AppData\Local\Temp\ccxGc4C3.s 			page 9


 454              		.loc 1 248 0
 455              		.cfi_startproc
 456              		@ args = 0, pretend = 0, frame = 0
 457              		@ frame_needed = 0, uses_anonymous_args = 0
 458              	.LVL48:
 459 0000 70B5     		push	{r4, r5, r6, lr}
 460              		.cfi_def_cfa_offset 16
 461              		.cfi_offset 4, -16
 462              		.cfi_offset 5, -12
 463              		.cfi_offset 6, -8
 464              		.cfi_offset 14, -4
 465              		.loc 1 248 0
 466 0002 0646     		mov	r6, r0
 467              		.loc 1 251 0
 468 0004 0D48     		ldr	r0, .L57
 469              	.LVL49:
 470              		.loc 1 248 0
 471 0006 0D46     		mov	r5, r1
 472 0008 1446     		mov	r4, r2
 473              		.loc 1 251 0
 474 000a FFF7FEFF 		bl	sys_mbox_valid
 475              	.LVL50:
 476 000e 80B1     		cbz	r0, .L54
 477              		.loc 1 252 0
 478 0010 0B4B     		ldr	r3, .L57+4
 479 0012 188A     		ldrh	r0, [r3, #16]
 480 0014 FFF7FEFF 		bl	malloc
 481              	.LVL51:
 482              		.loc 1 253 0
 483 0018 68B1     		cbz	r0, .L55
 484              		.loc 1 257 0
 485 001a 0223     		movs	r3, #2
 486              		.loc 1 258 0
 487 001c 8660     		str	r6, [r0, #8]
 488              		.loc 1 259 0
 489 001e C560     		str	r5, [r0, #12]
 490              		.loc 1 260 0
 491 0020 0461     		str	r4, [r0, #16]
 492              		.loc 1 257 0
 493 0022 0370     		strb	r3, [r0]
 494              		.loc 1 261 0
 495 0024 0146     		mov	r1, r0
 496 0026 0548     		ldr	r0, .L57
 497              	.LVL52:
 498 0028 FFF7FEFF 		bl	sys_mbox_post
 499              	.LVL53:
 500              		.loc 1 262 0
 501 002c 0020     		movs	r0, #0
 502              	.L53:
 503              		.loc 1 265 0
 504 002e 40B2     		sxtb	r0, r0
 505 0030 70BD     		pop	{r4, r5, r6, pc}
 506              	.LVL54:
 507              	.L54:
 508              		.loc 1 264 0
 509 0032 FA20     		movs	r0, #250
 510 0034 FBE7     		b	.L53
ARM GAS  C:\Users\jo\AppData\Local\Temp\ccxGc4C3.s 			page 10


 511              	.LVL55:
 512              	.L55:
 513              		.loc 1 254 0
 514 0036 FF20     		movs	r0, #255
 515              	.LVL56:
 516 0038 F9E7     		b	.L53
 517              	.L58:
 518 003a 00BF     		.align	2
 519              	.L57:
 520 003c 00000000 		.word	.LANCHOR2
 521 0040 00000000 		.word	memp_sizes
 522              		.cfi_endproc
 523              	.LFE263:
 524              		.size	tcpip_timeout, .-tcpip_timeout
 525 0044 AFF30080 		.section	.text.tcpip_untimeout,"ax",%progbits
 525      AFF30080 
 525      AFF30080 
 526              		.align	2
 527              		.p2align 4,,15
 528              		.global	tcpip_untimeout
 529              		.thumb
 530              		.thumb_func
 531              		.type	tcpip_untimeout, %function
 532              	tcpip_untimeout:
 533              	.LFB264:
 534              		.loc 1 277 0
 535              		.cfi_startproc
 536              		@ args = 0, pretend = 0, frame = 0
 537              		@ frame_needed = 0, uses_anonymous_args = 0
 538              	.LVL57:
 539 0000 38B5     		push	{r3, r4, r5, lr}
 540              		.cfi_def_cfa_offset 16
 541              		.cfi_offset 3, -16
 542              		.cfi_offset 4, -12
 543              		.cfi_offset 5, -8
 544              		.cfi_offset 14, -4
 545              		.loc 1 277 0
 546 0002 0546     		mov	r5, r0
 547              		.loc 1 280 0
 548 0004 0C48     		ldr	r0, .L64
 549              	.LVL58:
 550              		.loc 1 277 0
 551 0006 0C46     		mov	r4, r1
 552              		.loc 1 280 0
 553 0008 FFF7FEFF 		bl	sys_mbox_valid
 554              	.LVL59:
 555 000c 78B1     		cbz	r0, .L61
 556              		.loc 1 281 0
 557 000e 0B4B     		ldr	r3, .L64+4
 558 0010 188A     		ldrh	r0, [r3, #16]
 559 0012 FFF7FEFF 		bl	malloc
 560              	.LVL60:
 561              		.loc 1 282 0
 562 0016 60B1     		cbz	r0, .L62
 563              		.loc 1 286 0
 564 0018 0323     		movs	r3, #3
 565              		.loc 1 287 0
ARM GAS  C:\Users\jo\AppData\Local\Temp\ccxGc4C3.s 			page 11


 566 001a C560     		str	r5, [r0, #12]
 567              		.loc 1 288 0
 568 001c 0461     		str	r4, [r0, #16]
 569              		.loc 1 286 0
 570 001e 0370     		strb	r3, [r0]
 571              		.loc 1 289 0
 572 0020 0146     		mov	r1, r0
 573 0022 0548     		ldr	r0, .L64
 574              	.LVL61:
 575 0024 FFF7FEFF 		bl	sys_mbox_post
 576              	.LVL62:
 577              		.loc 1 290 0
 578 0028 0020     		movs	r0, #0
 579              	.L60:
 580              		.loc 1 293 0
 581 002a 40B2     		sxtb	r0, r0
 582 002c 38BD     		pop	{r3, r4, r5, pc}
 583              	.LVL63:
 584              	.L61:
 585              		.loc 1 292 0
 586 002e FA20     		movs	r0, #250
 587 0030 FBE7     		b	.L60
 588              	.LVL64:
 589              	.L62:
 590              		.loc 1 283 0
 591 0032 FF20     		movs	r0, #255
 592              	.LVL65:
 593 0034 F9E7     		b	.L60
 594              	.L65:
 595 0036 00BF     		.align	2
 596              	.L64:
 597 0038 00000000 		.word	.LANCHOR2
 598 003c 00000000 		.word	memp_sizes
 599              		.cfi_endproc
 600              	.LFE264:
 601              		.size	tcpip_untimeout, .-tcpip_untimeout
 602              		.section	.text.tcpip_apimsg,"ax",%progbits
 603              		.align	2
 604              		.p2align 4,,15
 605              		.global	tcpip_apimsg
 606              		.thumb
 607              		.thumb_func
 608              		.type	tcpip_apimsg, %function
 609              	tcpip_apimsg:
 610              	.LFB265:
 611              		.loc 1 307 0
 612              		.cfi_startproc
 613              		@ args = 0, pretend = 0, frame = 24
 614              		@ frame_needed = 0, uses_anonymous_args = 0
 615              	.LVL66:
 616 0000 30B5     		push	{r4, r5, lr}
 617              		.cfi_def_cfa_offset 12
 618              		.cfi_offset 4, -12
 619              		.cfi_offset 5, -8
 620              		.cfi_offset 14, -4
 621              		.loc 1 311 0
 622 0002 FA25     		movs	r5, #250
ARM GAS  C:\Users\jo\AppData\Local\Temp\ccxGc4C3.s 			page 12


 623              		.loc 1 307 0
 624 0004 87B0     		sub	sp, sp, #28
 625              		.cfi_def_cfa_offset 40
 626              		.loc 1 307 0
 627 0006 0446     		mov	r4, r0
 628              		.loc 1 311 0
 629 0008 0572     		strb	r5, [r0, #8]
 630              		.loc 1 314 0
 631 000a 0B48     		ldr	r0, .L70
 632              	.LVL67:
 633 000c FFF7FEFF 		bl	sys_mbox_valid
 634              	.LVL68:
 635 0010 80B1     		cbz	r0, .L68
 636              		.loc 1 315 0
 637 0012 0025     		movs	r5, #0
 638              		.loc 1 317 0
 639 0014 0848     		ldr	r0, .L70
 640              		.loc 1 316 0
 641 0016 0394     		str	r4, [sp, #12]
 642              		.loc 1 317 0
 643 0018 01A9     		add	r1, sp, #4
 644              		.loc 1 315 0
 645 001a 8DF80450 		strb	r5, [sp, #4]
 646              		.loc 1 317 0
 647 001e FFF7FEFF 		bl	sys_mbox_post
 648              	.LVL69:
 649              		.loc 1 318 0
 650 0022 6068     		ldr	r0, [r4, #4]
 651 0024 2946     		mov	r1, r5
 652 0026 0C30     		adds	r0, r0, #12
 653 0028 FFF7FEFF 		bl	sys_arch_sem_wait
 654              	.LVL70:
 655              		.loc 1 319 0
 656 002c 207A     		ldrb	r0, [r4, #8]	@ zero_extendqisi2
 657              	.L67:
 658              		.loc 1 322 0
 659 002e 40B2     		sxtb	r0, r0
 660 0030 07B0     		add	sp, sp, #28
 661              		.cfi_remember_state
 662              		.cfi_def_cfa_offset 12
 663              		@ sp needed
 664 0032 30BD     		pop	{r4, r5, pc}
 665              	.LVL71:
 666              	.L68:
 667              		.cfi_restore_state
 668              		.loc 1 321 0
 669 0034 2846     		mov	r0, r5
 670 0036 FAE7     		b	.L67
 671              	.L71:
 672              		.align	2
 673              	.L70:
 674 0038 00000000 		.word	.LANCHOR2
 675              		.cfi_endproc
 676              	.LFE265:
 677              		.size	tcpip_apimsg, .-tcpip_apimsg
 678 003c AFF30080 		.section	.text.tcpip_callbackmsg_new,"ax",%progbits
 679              		.align	2
ARM GAS  C:\Users\jo\AppData\Local\Temp\ccxGc4C3.s 			page 13


 680              		.p2align 4,,15
 681              		.global	tcpip_callbackmsg_new
 682              		.thumb
 683              		.thumb_func
 684              		.type	tcpip_callbackmsg_new, %function
 685              	tcpip_callbackmsg_new:
 686              	.LFB266:
 687              		.loc 1 409 0
 688              		.cfi_startproc
 689              		@ args = 0, pretend = 0, frame = 0
 690              		@ frame_needed = 0, uses_anonymous_args = 0
 691              	.LVL72:
 692 0000 38B5     		push	{r3, r4, r5, lr}
 693              		.cfi_def_cfa_offset 16
 694              		.cfi_offset 3, -16
 695              		.cfi_offset 4, -12
 696              		.cfi_offset 5, -8
 697              		.cfi_offset 14, -4
 698              		.loc 1 410 0
 699 0002 064B     		ldr	r3, .L78
 700              		.loc 1 409 0
 701 0004 0546     		mov	r5, r0
 702              		.loc 1 410 0
 703 0006 188A     		ldrh	r0, [r3, #16]
 704              	.LVL73:
 705              		.loc 1 409 0
 706 0008 0C46     		mov	r4, r1
 707              		.loc 1 410 0
 708 000a FFF7FEFF 		bl	malloc
 709              	.LVL74:
 710              		.loc 1 411 0
 711 000e 18B1     		cbz	r0, .L73
 712              		.loc 1 414 0
 713 0010 0523     		movs	r3, #5
 714              		.loc 1 415 0
 715 0012 8560     		str	r5, [r0, #8]
 716              		.loc 1 416 0
 717 0014 C460     		str	r4, [r0, #12]
 718              		.loc 1 414 0
 719 0016 0370     		strb	r3, [r0]
 720              	.L73:
 721              		.loc 1 418 0
 722 0018 38BD     		pop	{r3, r4, r5, pc}
 723              	.LVL75:
 724              	.L79:
 725 001a 00BF     		.align	2
 726              	.L78:
 727 001c 00000000 		.word	memp_sizes
 728              		.cfi_endproc
 729              	.LFE266:
 730              		.size	tcpip_callbackmsg_new, .-tcpip_callbackmsg_new
 731              		.section	.text.tcpip_callbackmsg_delete,"ax",%progbits
 732              		.align	2
 733              		.p2align 4,,15
 734              		.global	tcpip_callbackmsg_delete
 735              		.thumb
 736              		.thumb_func
ARM GAS  C:\Users\jo\AppData\Local\Temp\ccxGc4C3.s 			page 14


 737              		.type	tcpip_callbackmsg_delete, %function
 738              	tcpip_callbackmsg_delete:
 739              	.LFB267:
 740              		.loc 1 426 0
 741              		.cfi_startproc
 742              		@ args = 0, pretend = 0, frame = 0
 743              		@ frame_needed = 0, uses_anonymous_args = 0
 744              		@ link register save eliminated.
 745              	.LVL76:
 746              		.loc 1 427 0
 747 0000 FFF7FEBF 		b	free
 748              	.LVL77:
 749              		.cfi_endproc
 750              	.LFE267:
 751              		.size	tcpip_callbackmsg_delete, .-tcpip_callbackmsg_delete
 752 0004 AFF30080 		.section	.text.tcpip_trycallback,"ax",%progbits
 752      AFF30080 
 752      AFF30080 
 753              		.align	2
 754              		.p2align 4,,15
 755              		.global	tcpip_trycallback
 756              		.thumb
 757              		.thumb_func
 758              		.type	tcpip_trycallback, %function
 759              	tcpip_trycallback:
 760              	.LFB268:
 761              		.loc 1 439 0
 762              		.cfi_startproc
 763              		@ args = 0, pretend = 0, frame = 0
 764              		@ frame_needed = 0, uses_anonymous_args = 0
 765              	.LVL78:
 766 0000 10B5     		push	{r4, lr}
 767              		.cfi_def_cfa_offset 8
 768              		.cfi_offset 4, -8
 769              		.cfi_offset 14, -4
 770              		.loc 1 439 0
 771 0002 0446     		mov	r4, r0
 772              		.loc 1 440 0
 773 0004 0648     		ldr	r0, .L84
 774              	.LVL79:
 775 0006 FFF7FEFF 		bl	sys_mbox_valid
 776              	.LVL80:
 777 000a 28B1     		cbz	r0, .L82
 778              		.loc 1 443 0
 779 000c 2146     		mov	r1, r4
 780 000e 0448     		ldr	r0, .L84
 781              		.loc 1 444 0
 782 0010 BDE81040 		pop	{r4, lr}
 783              		.cfi_remember_state
 784              		.cfi_restore 14
 785              		.cfi_restore 4
 786              		.cfi_def_cfa_offset 0
 787              	.LVL81:
 788              		.loc 1 443 0
 789 0014 FFF7FEBF 		b	sys_mbox_trypost
 790              	.LVL82:
 791              	.L82:
ARM GAS  C:\Users\jo\AppData\Local\Temp\ccxGc4C3.s 			page 15


 792              		.cfi_restore_state
 793              		.loc 1 444 0
 794 0018 6FF00500 		mvn	r0, #5
 795 001c 10BD     		pop	{r4, pc}
 796              	.LVL83:
 797              	.L85:
 798 001e 00BF     		.align	2
 799              	.L84:
 800 0020 00000000 		.word	.LANCHOR2
 801              		.cfi_endproc
 802              	.LFE268:
 803              		.size	tcpip_trycallback, .-tcpip_trycallback
 804 0024 AFF30080 		.section	.text.tcpip_init,"ax",%progbits
 804      AFF30080 
 804      AFF30080 
 805              		.align	2
 806              		.p2align 4,,15
 807              		.global	tcpip_init
 808              		.thumb
 809              		.thumb_func
 810              		.type	tcpip_init, %function
 811              	tcpip_init:
 812              	.LFB269:
 813              		.loc 1 456 0
 814              		.cfi_startproc
 815              		@ args = 0, pretend = 0, frame = 0
 816              		@ frame_needed = 0, uses_anonymous_args = 0
 817              	.LVL84:
 818 0000 30B5     		push	{r4, r5, lr}
 819              		.cfi_def_cfa_offset 12
 820              		.cfi_offset 4, -12
 821              		.cfi_offset 5, -8
 822              		.cfi_offset 14, -4
 823 0002 83B0     		sub	sp, sp, #12
 824              		.cfi_def_cfa_offset 24
 825              		.loc 1 456 0
 826 0004 0546     		mov	r5, r0
 827 0006 0C46     		mov	r4, r1
 828              		.loc 1 457 0
 829 0008 FFF7FEFF 		bl	lwip_init
 830              	.LVL85:
 831              		.loc 1 459 0
 832 000c 0F4A     		ldr	r2, .L92
 833              		.loc 1 460 0
 834 000e 104B     		ldr	r3, .L92+4
 835              		.loc 1 461 0
 836 0010 1048     		ldr	r0, .L92+8
 837              		.loc 1 459 0
 838 0012 1560     		str	r5, [r2]
 839              		.loc 1 461 0
 840 0014 0821     		movs	r1, #8
 841              		.loc 1 460 0
 842 0016 1C60     		str	r4, [r3]
 843              		.loc 1 461 0
 844 0018 FFF7FEFF 		bl	sys_mbox_new
 845              	.LVL86:
 846 001c 58B1     		cbz	r0, .L87
ARM GAS  C:\Users\jo\AppData\Local\Temp\ccxGc4C3.s 			page 16


 847              		.loc 1 462 0 discriminator 1
 848 001e 0E4B     		ldr	r3, .L92+12
 849 0020 0093     		str	r3, [sp]
 850 0022 0E48     		ldr	r0, .L92+16
 851 0024 0E49     		ldr	r1, .L92+20
 852 0026 0F4A     		ldr	r2, .L92+24
 853 0028 4FF4E773 		mov	r3, #462
 854 002c FFF7FEFF 		bl	chprintf.constprop.0
 855              	.LVL87:
 856              	.LBB8:
 857              	.LBB9:
 858              		.loc 3 416 0 discriminator 1
 859 0030 0C48     		ldr	r0, .L92+24
 860 0032 FFF7FEFF 		bl	chSysHalt
 861              	.LVL88:
 862              	.L87:
 863              	.LBE9:
 864              	.LBE8:
 865              		.loc 1 470 0
 866 0036 4123     		movs	r3, #65
 867 0038 0093     		str	r3, [sp]
 868 003a 0B49     		ldr	r1, .L92+28
 869 003c 0B48     		ldr	r0, .L92+32
 870 003e 0022     		movs	r2, #0
 871 0040 4FF48063 		mov	r3, #1024
 872 0044 FFF7FEFF 		bl	sys_thread_new
 873              	.LVL89:
 874              		.loc 1 471 0
 875 0048 03B0     		add	sp, sp, #12
 876              		.cfi_def_cfa_offset 12
 877              		@ sp needed
 878 004a 30BD     		pop	{r4, r5, pc}
 879              	.LVL90:
 880              	.L93:
 881              		.align	2
 882              	.L92:
 883 004c 00000000 		.word	.LANCHOR0
 884 0050 00000000 		.word	.LANCHOR1
 885 0054 00000000 		.word	.LANCHOR2
 886 0058 48000000 		.word	.LC2
 887 005c 00000000 		.word	itm_port
 888 0060 00000000 		.word	.LC0
 889 0064 6C000000 		.word	.LC3
 890 0068 00000000 		.word	tcpip_thread
 891 006c 90000000 		.word	.LC4
 892              		.cfi_endproc
 893              	.LFE269:
 894              		.size	tcpip_init, .-tcpip_init
 895              		.section	.text.pbuf_free_callback,"ax",%progbits
 896              		.align	2
 897              		.p2align 4,,15
 898              		.global	pbuf_free_callback
 899              		.thumb
 900              		.thumb_func
 901              		.type	pbuf_free_callback, %function
 902              	pbuf_free_callback:
 903              	.LFB271:
ARM GAS  C:\Users\jo\AppData\Local\Temp\ccxGc4C3.s 			page 17


 904              		.loc 1 494 0
 905              		.cfi_startproc
 906              		@ args = 0, pretend = 0, frame = 0
 907              		@ frame_needed = 0, uses_anonymous_args = 0
 908              		@ link register save eliminated.
 909              	.LVL91:
 910              		.loc 1 494 0
 911 0000 0146     		mov	r1, r0
 912              		.loc 1 495 0
 913 0002 0022     		movs	r2, #0
 914 0004 0148     		ldr	r0, .L95
 915              	.LVL92:
 916 0006 FFF7FEBF 		b	tcpip_callback_with_block
 917              	.LVL93:
 918              	.L96:
 919 000a 00BF     		.align	2
 920              	.L95:
 921 000c 00000000 		.word	pbuf_free_int
 922              		.cfi_endproc
 923              	.LFE271:
 924              		.size	pbuf_free_callback, .-pbuf_free_callback
 925              		.section	.text.mem_free_callback,"ax",%progbits
 926              		.align	2
 927              		.p2align 4,,15
 928              		.global	mem_free_callback
 929              		.thumb
 930              		.thumb_func
 931              		.type	mem_free_callback, %function
 932              	mem_free_callback:
 933              	.LFB272:
 934              		.loc 1 507 0
 935              		.cfi_startproc
 936              		@ args = 0, pretend = 0, frame = 0
 937              		@ frame_needed = 0, uses_anonymous_args = 0
 938              		@ link register save eliminated.
 939              	.LVL94:
 940              		.loc 1 507 0
 941 0000 0146     		mov	r1, r0
 942              		.loc 1 508 0
 943 0002 0022     		movs	r2, #0
 944 0004 0148     		ldr	r0, .L98
 945              	.LVL95:
 946 0006 FFF7FEBF 		b	tcpip_callback_with_block
 947              	.LVL96:
 948              	.L99:
 949 000a 00BF     		.align	2
 950              	.L98:
 951 000c 00000000 		.word	free
 952              		.cfi_endproc
 953              	.LFE272:
 954              		.size	mem_free_callback, .-mem_free_callback
 955              		.section	.rodata.str1.4,"aMS",%progbits,1
 956              		.align	2
 957              	.LC0:
 958 0000 41737365 		.ascii	"Assertion \"%s\" failed at line %d in %s\012\000"
 958      7274696F 
 958      6E202225 
ARM GAS  C:\Users\jo\AppData\Local\Temp\ccxGc4C3.s 			page 18


 958      73222066 
 958      61696C65 
 959              	.LC1:
 960 0028 74637069 		.ascii	"tcpip_thread: invalid message\000"
 960      705F7468 
 960      72656164 
 960      3A20696E 
 960      76616C69 
 961 0046 0000     		.space	2
 962              	.LC2:
 963 0048 2E2E2F2E 		.ascii	"../../../ext/lwip/src/api/tcpip.c\000"
 963      2E2F2E2E 
 963      2F657874 
 963      2F6C7769 
 963      702F7372 
 964 006a 0000     		.space	2
 965              	.LC3:
 966 006c 6661696C 		.ascii	"failed to create tcpip_thread mbox\000"
 966      65642074 
 966      6F206372 
 966      65617465 
 966      20746370 
 967 008f 00       		.space	1
 968              	.LC4:
 969 0090 74637069 		.ascii	"tcpip_thread\000"
 969      705F7468 
 969      72656164 
 969      00
 970 009d 000000   		.section	.bss.mbox,"aw",%nobits
 971              		.align	2
 972              		.set	.LANCHOR2,. + 0
 973              		.type	mbox, %object
 974              		.size	mbox, 4
 975              	mbox:
 976 0000 00000000 		.space	4
 977              		.section	.bss.tcpip_init_done_arg,"aw",%nobits
 978              		.align	2
 979              		.set	.LANCHOR1,. + 0
 980              		.type	tcpip_init_done_arg, %object
 981              		.size	tcpip_init_done_arg, 4
 982              	tcpip_init_done_arg:
 983 0000 00000000 		.space	4
 984              		.section	.bss.tcpip_init_done,"aw",%nobits
 985              		.align	2
 986              		.set	.LANCHOR0,. + 0
 987              		.type	tcpip_init_done, %object
 988              		.size	tcpip_init_done, 4
 989              	tcpip_init_done:
 990 0000 00000000 		.space	4
 991              		.text
 992              	.Letext0:
 993              		.file 4 "c:\\program files\\gnu tools arm embedded\\4.9 2014q4\\lib\\gcc\\arm-none-eabi\\4.9.3\\in
 994              		.file 5 "c:\\program files\\gnu tools arm embedded\\4.9 2014q4\\arm-none-eabi\\include\\machine\\_
 995              		.file 6 "c:\\program files\\gnu tools arm embedded\\4.9 2014q4\\arm-none-eabi\\include\\stdint.h"
 996              		.file 7 "../../../os/rt/ports/ARMCMx/compilers/GCC/chtypes.h"
 997              		.file 8 "../../../os/rt/include/chsystypes.h"
 998              		.file 9 "../../../os/rt/include/chschd.h"
ARM GAS  C:\Users\jo\AppData\Local\Temp\ccxGc4C3.s 			page 19


 999              		.file 10 "../../../os/rt/ports/ARMCMx/chcore.h"
 1000              		.file 11 "../../../os/rt/ports/ARMCMx/chcore_v7m.h"
 1001              		.file 12 "../../../os/rt/include/chdebug.h"
 1002              		.file 13 "../../../os/rt/include/chtm.h"
 1003              		.file 14 "../../../os/rt/include/chsem.h"
 1004              		.file 15 "../../../os/rt/include/chmtx.h"
 1005              		.file 16 "../../../os/rt/include/chmboxes.h"
 1006              		.file 17 "../../../os/rt/include/chstreams.h"
 1007              		.file 18 "./ITM_trace.h"
 1008              		.file 19 "c:\\program files\\gnu tools arm embedded\\4.9 2014q4\\lib\\gcc\\arm-none-eabi\\4.9.3\\i
 1009              		.file 20 "<built-in>"
 1010              		.file 21 "../../../os/various/lwip_bindings/arch/cc.h"
 1011              		.file 22 "../../../ext/lwip/src/include/lwip/err.h"
 1012              		.file 23 "../../../os/various/lwip_bindings/arch/sys_arch.h"
 1013              		.file 24 "../../../ext/lwip/src/include/lwip/sys.h"
 1014              		.file 25 "../../../ext/lwip/src/include/lwip/pbuf.h"
 1015              		.file 26 "../../../ext/lwip/src/include/ipv4/lwip/ip_addr.h"
 1016              		.file 27 "../../../ext/lwip/src/include/lwip/netif.h"
 1017              		.file 28 "../../../ext/lwip/src/include/lwip/netbuf.h"
 1018              		.file 29 "../../../ext/lwip/src/include/lwip/api.h"
 1019              		.file 30 "../../../ext/lwip/src/include/ipv4/lwip/ip.h"
 1020              		.file 31 "../../../ext/lwip/src/include/lwip/api_msg.h"
 1021              		.file 32 "../../../ext/lwip/src/include/lwip/timers.h"
 1022              		.file 33 "../../../ext/lwip/src/include/lwip/tcpip.h"
 1023              		.file 34 "../../../os/ext/CMSIS/include/core_cm4.h"
 1024              		.file 35 "../../../ext/lwip/src/include/lwip/memp.h"
 1025              		.file 36 "../../../os/rt/include/chsys.h"
 1026              		.file 37 "c:\\program files\\gnu tools arm embedded\\4.9 2014q4\\arm-none-eabi\\include\\stdlib.h"
 1027              		.file 38 "../../../ext/lwip/src/include/netif/etharp.h"
 1028              		.file 39 "../../../ext/lwip/src/include/lwip/init.h"