ARM GAS  C:\Users\jo\AppData\Local\Temp\cc2fkiA0.s 			page 1


   1              		.syntax unified
   2              		.cpu cortex-m4
   3              		.fpu softvfp
   4              		.eabi_attribute 20, 1
   5              		.eabi_attribute 21, 1
   6              		.eabi_attribute 23, 3
   7              		.eabi_attribute 24, 1
   8              		.eabi_attribute 25, 1
   9              		.eabi_attribute 26, 1
  10              		.eabi_attribute 30, 2
  11              		.eabi_attribute 34, 1
  12              		.eabi_attribute 18, 4
  13              		.thumb
  14              		.file	"testmsg.c"
  15              		.text
  16              	.Ltext0:
  17              		.cfi_sections	.debug_frame
  18              		.section	.text.msg1_execute,"ax",%progbits
  19              		.align	2
  20              		.p2align 4,,15
  21              		.thumb
  22              		.thumb_func
  23              		.type	msg1_execute, %function
  24              	msg1_execute:
  25              	.LFB229:
  26              		.file 1 "../../../test/rt/testmsg.c"
  27              		.loc 1 66 0
  28              		.cfi_startproc
  29              		@ args = 0, pretend = 0, frame = 0
  30              		@ frame_needed = 0, uses_anonymous_args = 0
  31 0000 10B5     		push	{r4, lr}
  32              		.cfi_def_cfa_offset 8
  33              		.cfi_offset 4, -8
  34              		.cfi_offset 14, -4
  35              	.LBB16:
  36              	.LBB17:
  37              	.LBB18:
  38              	.LBB19:
  39              		.file 2 "../../../os/rt/include/chthreads.h"
  40              		.loc 2 176 0
  41 0002 184A     		ldr	r2, .L3
  42              	.LBE19:
  43              	.LBE18:
  44              	.LBE17:
  45              	.LBE16:
  46              		.loc 1 73 0
  47 0004 184B     		ldr	r3, .L3+4
  48              	.LBB23:
  49              	.LBB22:
  50              	.LBB21:
  51              	.LBB20:
  52              		.loc 2 176 0
  53 0006 9169     		ldr	r1, [r2, #24]
  54              	.LBE20:
  55              	.LBE21:
  56              	.LBE22:
  57              	.LBE23:
ARM GAS  C:\Users\jo\AppData\Local\Temp\cc2fkiA0.s 			page 2


  58              		.loc 1 73 0
  59 0008 1868     		ldr	r0, [r3]
  60 000a 8A68     		ldr	r2, [r1, #8]
  61 000c 174B     		ldr	r3, .L3+8
  62              		.loc 1 66 0
  63 000e 82B0     		sub	sp, sp, #8
  64              		.cfi_def_cfa_offset 16
  65              		.loc 1 73 0
  66 0010 0132     		adds	r2, r2, #1
  67 0012 0091     		str	r1, [sp]
  68 0014 4FF4A871 		mov	r1, #336
  69 0018 FFF7FEFF 		bl	chThdCreateStatic
  70              	.LVL0:
  71 001c 144B     		ldr	r3, .L3+12
  72 001e 1860     		str	r0, [r3]
  73              		.loc 1 75 0
  74 0020 FFF7FEFF 		bl	chMsgWait
  75              	.LVL1:
  76 0024 446B     		ldr	r4, [r0, #52]
  77              	.LVL2:
  78              		.loc 1 77 0
  79 0026 2146     		mov	r1, r4
  80 0028 FFF7FEFF 		bl	chMsgRelease
  81              	.LVL3:
  82              		.loc 1 78 0
  83 002c E0B2     		uxtb	r0, r4
  84 002e FFF7FEFF 		bl	test_emit_token
  85              	.LVL4:
  86              		.loc 1 79 0
  87 0032 FFF7FEFF 		bl	chMsgWait
  88              	.LVL5:
  89 0036 446B     		ldr	r4, [r0, #52]
  90              	.LVL6:
  91              		.loc 1 81 0
  92 0038 2146     		mov	r1, r4
  93 003a FFF7FEFF 		bl	chMsgRelease
  94              	.LVL7:
  95              		.loc 1 82 0
  96 003e E0B2     		uxtb	r0, r4
  97 0040 FFF7FEFF 		bl	test_emit_token
  98              	.LVL8:
  99              		.loc 1 83 0
 100 0044 FFF7FEFF 		bl	chMsgWait
 101              	.LVL9:
 102 0048 446B     		ldr	r4, [r0, #52]
 103              	.LVL10:
 104              		.loc 1 85 0
 105 004a 2146     		mov	r1, r4
 106 004c FFF7FEFF 		bl	chMsgRelease
 107              	.LVL11:
 108              		.loc 1 86 0
 109 0050 E0B2     		uxtb	r0, r4
 110 0052 FFF7FEFF 		bl	test_emit_token
 111              	.LVL12:
 112              		.loc 1 87 0
 113 0056 0749     		ldr	r1, .L3+16
 114 0058 0120     		movs	r0, #1
ARM GAS  C:\Users\jo\AppData\Local\Temp\cc2fkiA0.s 			page 3


 115              		.loc 1 88 0
 116 005a 02B0     		add	sp, sp, #8
 117              		.cfi_def_cfa_offset 8
 118              		@ sp needed
 119 005c BDE81040 		pop	{r4, lr}
 120              		.cfi_restore 14
 121              		.cfi_restore 4
 122              		.cfi_def_cfa_offset 0
 123              		.loc 1 87 0
 124 0060 FFF7FEBF 		b	_test_assert_sequence
 125              	.LVL13:
 126              	.L4:
 127              		.align	2
 128              	.L3:
 129 0064 00000000 		.word	ch
 130 0068 00000000 		.word	wa
 131 006c 00000000 		.word	thread
 132 0070 00000000 		.word	threads
 133 0074 00000000 		.word	.LC0
 134              		.cfi_endproc
 135              	.LFE229:
 136              		.size	msg1_execute, .-msg1_execute
 137 0078 AFF30080 		.section	.text.thread,"ax",%progbits
 137      AFF30080 
 138              		.align	2
 139              		.p2align 4,,15
 140              		.thumb
 141              		.thumb_func
 142              		.type	thread, %function
 143              	thread:
 144              	.LFB228:
 145              		.loc 1 59 0
 146              		.cfi_startproc
 147              		@ args = 0, pretend = 0, frame = 0
 148              		@ frame_needed = 0, uses_anonymous_args = 0
 149              	.LVL14:
 150 0000 10B5     		push	{r4, lr}
 151              		.cfi_def_cfa_offset 8
 152              		.cfi_offset 4, -8
 153              		.cfi_offset 14, -4
 154              		.loc 1 61 0
 155 0002 4121     		movs	r1, #65
 156              		.loc 1 59 0
 157 0004 0446     		mov	r4, r0
 158              		.loc 1 61 0
 159 0006 FFF7FEFF 		bl	chMsgSend
 160              	.LVL15:
 161              		.loc 1 62 0
 162 000a 2046     		mov	r0, r4
 163 000c 4221     		movs	r1, #66
 164 000e FFF7FEFF 		bl	chMsgSend
 165              	.LVL16:
 166              		.loc 1 63 0
 167 0012 2046     		mov	r0, r4
 168 0014 4321     		movs	r1, #67
 169              		.loc 1 64 0
 170 0016 BDE81040 		pop	{r4, lr}
ARM GAS  C:\Users\jo\AppData\Local\Temp\cc2fkiA0.s 			page 4


 171              		.cfi_restore 14
 172              		.cfi_restore 4
 173              		.cfi_def_cfa_offset 0
 174              	.LVL17:
 175              		.loc 1 63 0
 176 001a FFF7FEBF 		b	chMsgSend
 177              	.LVL18:
 178              		.cfi_endproc
 179              	.LFE228:
 180              		.size	thread, .-thread
 181              		.global	patternmsg
 182              		.global	testmsg1
 183 001e 00BF     		.section	.rodata.testmsg1,"a",%progbits
 184              		.align	2
 185              		.type	testmsg1, %object
 186              		.size	testmsg1, 16
 187              	testmsg1:
 188 0000 04000000 		.word	.LC1
 189 0004 00000000 		.word	0
 190 0008 00000000 		.word	0
 191 000c 00000000 		.word	msg1_execute
 192              		.section	.rodata.str1.4,"aMS",%progbits,1
 193              		.align	2
 194              	.LC0:
 195 0000 41424300 		.ascii	"ABC\000"
 196              	.LC1:
 197 0004 4D657373 		.ascii	"Messages, loop\000"
 197      61676573 
 197      2C206C6F 
 197      6F7000
 198 0013 00       		.section	.rodata.patternmsg,"a",%progbits
 199              		.align	2
 200              		.type	patternmsg, %object
 201              		.size	patternmsg, 8
 202              	patternmsg:
 203 0000 00000000 		.word	testmsg1
 204 0004 00000000 		.word	0
 205              		.text
 206              	.Letext0:
 207              		.file 3 "c:\\program files\\gnu tools arm embedded\\4.9 2014q4\\lib\\gcc\\arm-none-eabi\\4.9.3\\in
 208              		.file 4 "c:\\program files\\gnu tools arm embedded\\4.9 2014q4\\arm-none-eabi\\include\\machine\\_
 209              		.file 5 "c:\\program files\\gnu tools arm embedded\\4.9 2014q4\\arm-none-eabi\\include\\stdint.h"
 210              		.file 6 "../../../os/rt/ports/ARMCMx/compilers/GCC/chtypes.h"
 211              		.file 7 "../../../os/rt/include/chsystypes.h"
 212              		.file 8 "../../../os/rt/include/chschd.h"
 213              		.file 9 "../../../os/rt/ports/ARMCMx/chcore.h"
 214              		.file 10 "../../../os/rt/ports/ARMCMx/chcore_v7m.h"
 215              		.file 11 "../../../os/rt/include/chdebug.h"
 216              		.file 12 "../../../os/rt/include/chtm.h"
 217              		.file 13 "../../../os/rt/include/chsem.h"
 218              		.file 14 "../../../os/rt/include/chmtx.h"
 219              		.file 15 "../../../test/rt/test.h"
 220              		.file 16 "../../../os/ext/CMSIS/include/core_cm4.h"
 221              		.file 17 "../../../os/rt/include/chmsg.h"
 222              		.section	.debug_info,"",%progbits
 223              	.Ldebug_info0:
 224 0000 240A0000 		.4byte	0xa24
ARM GAS  C:\Users\jo\AppData\Local\Temp\cc2fkiA0.s 			page 5


 225 0004 0400     		.2byte	0x4
 226 0006 00000000 		.4byte	.Ldebug_abbrev0
 227 000a 04       		.byte	0x4
 228 000b 01       		.uleb128 0x1
 229 000c A3020000 		.4byte	.LASF135
 230 0010 01       		.byte	0x1
 231 0011 5C040000 		.4byte	.LASF136
 232 0015 E1000000 		.4byte	.LASF137
 233 0019 30000000 		.4byte	.Ldebug_ranges0+0x30
 234 001d 00000000 		.4byte	0
 235 0021 00000000 		.4byte	.Ldebug_line0
 236 0025 02       		.uleb128 0x2
 237 0026 04       		.byte	0x4
 238 0027 05       		.byte	0x5
 239 0028 696E7400 		.ascii	"int\000"
 240 002c 03       		.uleb128 0x3
 241 002d 24000000 		.4byte	.LASF2
 242 0031 03       		.byte	0x3
 243 0032 D4       		.byte	0xd4
 244 0033 37000000 		.4byte	0x37
 245 0037 04       		.uleb128 0x4
 246 0038 04       		.byte	0x4
 247 0039 07       		.byte	0x7
 248 003a 04020000 		.4byte	.LASF0
 249 003e 04       		.uleb128 0x4
 250 003f 01       		.byte	0x1
 251 0040 06       		.byte	0x6
 252 0041 3D010000 		.4byte	.LASF1
 253 0045 03       		.uleb128 0x3
 254 0046 3B000000 		.4byte	.LASF3
 255 004a 04       		.byte	0x4
 256 004b 1D       		.byte	0x1d
 257 004c 50000000 		.4byte	0x50
 258 0050 04       		.uleb128 0x4
 259 0051 01       		.byte	0x1
 260 0052 08       		.byte	0x8
 261 0053 E0040000 		.4byte	.LASF4
 262 0057 04       		.uleb128 0x4
 263 0058 02       		.byte	0x2
 264 0059 05       		.byte	0x5
 265 005a F8040000 		.4byte	.LASF5
 266 005e 04       		.uleb128 0x4
 267 005f 02       		.byte	0x2
 268 0060 07       		.byte	0x7
 269 0061 48020000 		.4byte	.LASF6
 270 0065 03       		.uleb128 0x3
 271 0066 99020000 		.4byte	.LASF7
 272 006a 04       		.byte	0x4
 273 006b 3F       		.byte	0x3f
 274 006c 70000000 		.4byte	0x70
 275 0070 04       		.uleb128 0x4
 276 0071 04       		.byte	0x4
 277 0072 05       		.byte	0x5
 278 0073 80010000 		.4byte	.LASF8
 279 0077 03       		.uleb128 0x3
 280 0078 ED050000 		.4byte	.LASF9
 281 007c 04       		.byte	0x4
ARM GAS  C:\Users\jo\AppData\Local\Temp\cc2fkiA0.s 			page 6


 282 007d 41       		.byte	0x41
 283 007e 82000000 		.4byte	0x82
 284 0082 04       		.uleb128 0x4
 285 0083 04       		.byte	0x4
 286 0084 07       		.byte	0x7
 287 0085 A8050000 		.4byte	.LASF10
 288 0089 04       		.uleb128 0x4
 289 008a 08       		.byte	0x8
 290 008b 05       		.byte	0x5
 291 008c 2F010000 		.4byte	.LASF11
 292 0090 03       		.uleb128 0x3
 293 0091 77040000 		.4byte	.LASF12
 294 0095 04       		.byte	0x4
 295 0096 5B       		.byte	0x5b
 296 0097 9B000000 		.4byte	0x9b
 297 009b 04       		.uleb128 0x4
 298 009c 08       		.byte	0x8
 299 009d 07       		.byte	0x7
 300 009e 60000000 		.4byte	.LASF13
 301 00a2 03       		.uleb128 0x3
 302 00a3 66060000 		.4byte	.LASF14
 303 00a7 05       		.byte	0x5
 304 00a8 15       		.byte	0x15
 305 00a9 45000000 		.4byte	0x45
 306 00ad 03       		.uleb128 0x3
 307 00ae D8040000 		.4byte	.LASF15
 308 00b2 05       		.byte	0x5
 309 00b3 2C       		.byte	0x2c
 310 00b4 65000000 		.4byte	0x65
 311 00b8 03       		.uleb128 0x3
 312 00b9 77050000 		.4byte	.LASF16
 313 00bd 05       		.byte	0x5
 314 00be 2D       		.byte	0x2d
 315 00bf 77000000 		.4byte	0x77
 316 00c3 03       		.uleb128 0x3
 317 00c4 32000000 		.4byte	.LASF17
 318 00c8 05       		.byte	0x5
 319 00c9 39       		.byte	0x39
 320 00ca 90000000 		.4byte	0x90
 321 00ce 05       		.uleb128 0x5
 322 00cf AD000000 		.4byte	0xad
 323 00d3 03       		.uleb128 0x3
 324 00d4 11060000 		.4byte	.LASF18
 325 00d8 06       		.byte	0x6
 326 00d9 45       		.byte	0x45
 327 00da B8000000 		.4byte	0xb8
 328 00de 03       		.uleb128 0x3
 329 00df 77020000 		.4byte	.LASF19
 330 00e3 06       		.byte	0x6
 331 00e4 48       		.byte	0x48
 332 00e5 A2000000 		.4byte	0xa2
 333 00e9 03       		.uleb128 0x3
 334 00ea 93010000 		.4byte	.LASF20
 335 00ee 06       		.byte	0x6
 336 00ef 49       		.byte	0x49
 337 00f0 A2000000 		.4byte	0xa2
 338 00f4 03       		.uleb128 0x3
ARM GAS  C:\Users\jo\AppData\Local\Temp\cc2fkiA0.s 			page 7


 339 00f5 82040000 		.4byte	.LASF21
 340 00f9 06       		.byte	0x6
 341 00fa 4A       		.byte	0x4a
 342 00fb A2000000 		.4byte	0xa2
 343 00ff 03       		.uleb128 0x3
 344 0100 B3040000 		.4byte	.LASF22
 345 0104 06       		.byte	0x6
 346 0105 4C       		.byte	0x4c
 347 0106 B8000000 		.4byte	0xb8
 348 010a 03       		.uleb128 0x3
 349 010b 65020000 		.4byte	.LASF23
 350 010f 06       		.byte	0x6
 351 0110 4D       		.byte	0x4d
 352 0111 AD000000 		.4byte	0xad
 353 0115 03       		.uleb128 0x3
 354 0116 8D020000 		.4byte	.LASF24
 355 011a 06       		.byte	0x6
 356 011b 4F       		.byte	0x4f
 357 011c B8000000 		.4byte	0xb8
 358 0120 03       		.uleb128 0x3
 359 0121 F3010000 		.4byte	.LASF25
 360 0125 06       		.byte	0x6
 361 0126 51       		.byte	0x51
 362 0127 AD000000 		.4byte	0xad
 363 012b 03       		.uleb128 0x3
 364 012c CF050000 		.4byte	.LASF26
 365 0130 07       		.byte	0x7
 366 0131 33       		.byte	0x33
 367 0132 B8000000 		.4byte	0xb8
 368 0136 03       		.uleb128 0x3
 369 0137 BF050000 		.4byte	.LASF27
 370 013b 07       		.byte	0x7
 371 013c 3F       		.byte	0x3f
 372 013d 41010000 		.4byte	0x141
 373 0141 06       		.uleb128 0x6
 374 0142 5B020000 		.4byte	.LASF48
 375 0146 48       		.byte	0x48
 376 0147 08       		.byte	0x8
 377 0148 C2       		.byte	0xc2
 378 0149 3A020000 		.4byte	0x23a
 379 014d 07       		.uleb128 0x7
 380 014e 29050000 		.4byte	.LASF28
 381 0152 08       		.byte	0x8
 382 0153 C3       		.byte	0xc3
 383 0154 45020000 		.4byte	0x245
 384 0158 00       		.byte	0
 385 0159 07       		.uleb128 0x7
 386 015a A4040000 		.4byte	.LASF29
 387 015e 08       		.byte	0x8
 388 015f C5       		.byte	0xc5
 389 0160 45020000 		.4byte	0x245
 390 0164 04       		.byte	0x4
 391 0165 07       		.uleb128 0x7
 392 0166 DA000000 		.4byte	.LASF30
 393 016a 08       		.byte	0x8
 394 016b C7       		.byte	0xc7
 395 016c FF000000 		.4byte	0xff
ARM GAS  C:\Users\jo\AppData\Local\Temp\cc2fkiA0.s 			page 8


 396 0170 08       		.byte	0x8
 397 0171 07       		.uleb128 0x7
 398 0172 BD060000 		.4byte	.LASF31
 399 0176 08       		.byte	0x8
 400 0177 C8       		.byte	0xc8
 401 0178 A0040000 		.4byte	0x4a0
 402 017c 0C       		.byte	0xc
 403 017d 07       		.uleb128 0x7
 404 017e A2010000 		.4byte	.LASF32
 405 0182 08       		.byte	0x8
 406 0183 CA       		.byte	0xca
 407 0184 45020000 		.4byte	0x245
 408 0188 10       		.byte	0x10
 409 0189 07       		.uleb128 0x7
 410 018a 0E040000 		.4byte	.LASF33
 411 018e 08       		.byte	0x8
 412 018f CB       		.byte	0xcb
 413 0190 45020000 		.4byte	0x245
 414 0194 14       		.byte	0x14
 415 0195 07       		.uleb128 0x7
 416 0196 82060000 		.4byte	.LASF34
 417 019a 08       		.byte	0x8
 418 019b D2       		.byte	0xd2
 419 019c B2060000 		.4byte	0x6b2
 420 01a0 18       		.byte	0x18
 421 01a1 07       		.uleb128 0x7
 422 01a2 F9010000 		.4byte	.LASF35
 423 01a6 08       		.byte	0x8
 424 01a7 D8       		.byte	0xd8
 425 01a8 C4060000 		.4byte	0x6c4
 426 01ac 1C       		.byte	0x1c
 427 01ad 07       		.uleb128 0x7
 428 01ae 02050000 		.4byte	.LASF36
 429 01b2 08       		.byte	0x8
 430 01b3 DD       		.byte	0xdd
 431 01b4 E9000000 		.4byte	0xe9
 432 01b8 20       		.byte	0x20
 433 01b9 07       		.uleb128 0x7
 434 01ba 30050000 		.4byte	.LASF37
 435 01be 08       		.byte	0x8
 436 01bf E1       		.byte	0xe1
 437 01c0 DE000000 		.4byte	0xde
 438 01c4 21       		.byte	0x21
 439 01c5 07       		.uleb128 0x7
 440 01c6 43060000 		.4byte	.LASF38
 441 01ca 08       		.byte	0x8
 442 01cb E6       		.byte	0xe6
 443 01cc F4000000 		.4byte	0xf4
 444 01d0 22       		.byte	0x22
 445 01d1 08       		.uleb128 0x8
 446 01d2 705F7500 		.ascii	"p_u\000"
 447 01d6 08       		.byte	0x8
 448 01d7 3101     		.2byte	0x131
 449 01d9 ED050000 		.4byte	0x5ed
 450 01dd 24       		.byte	0x24
 451 01de 09       		.uleb128 0x9
 452 01df 9A030000 		.4byte	.LASF39
ARM GAS  C:\Users\jo\AppData\Local\Temp\cc2fkiA0.s 			page 9


 453 01e3 08       		.byte	0x8
 454 01e4 3601     		.2byte	0x136
 455 01e6 4B020000 		.4byte	0x24b
 456 01ea 28       		.byte	0x28
 457 01eb 09       		.uleb128 0x9
 458 01ec 20020000 		.4byte	.LASF40
 459 01f0 08       		.byte	0x8
 460 01f1 3C01     		.2byte	0x13c
 461 01f3 6F020000 		.4byte	0x26f
 462 01f7 2C       		.byte	0x2c
 463 01f8 09       		.uleb128 0x9
 464 01f9 A5060000 		.4byte	.LASF41
 465 01fd 08       		.byte	0x8
 466 01fe 4001     		.2byte	0x140
 467 0200 0A010000 		.4byte	0x10a
 468 0204 34       		.byte	0x34
 469 0205 09       		.uleb128 0x9
 470 0206 6C050000 		.4byte	.LASF42
 471 020a 08       		.byte	0x8
 472 020b 4601     		.2byte	0x146
 473 020d 15010000 		.4byte	0x115
 474 0211 38       		.byte	0x38
 475 0212 09       		.uleb128 0x9
 476 0213 EE040000 		.4byte	.LASF43
 477 0217 08       		.byte	0x8
 478 0218 4D01     		.2byte	0x14d
 479 021a AC060000 		.4byte	0x6ac
 480 021e 3C       		.byte	0x3c
 481 021f 09       		.uleb128 0x9
 482 0220 D9050000 		.4byte	.LASF44
 483 0224 08       		.byte	0x8
 484 0225 5101     		.2byte	0x151
 485 0227 FF000000 		.4byte	0xff
 486 022b 40       		.byte	0x40
 487 022c 09       		.uleb128 0x9
 488 022d 49010000 		.4byte	.LASF45
 489 0231 08       		.byte	0x8
 490 0232 5801     		.2byte	0x158
 491 0234 22030000 		.4byte	0x322
 492 0238 44       		.byte	0x44
 493 0239 00       		.byte	0
 494 023a 03       		.uleb128 0x3
 495 023b B8030000 		.4byte	.LASF46
 496 023f 07       		.byte	0x7
 497 0240 44       		.byte	0x44
 498 0241 45020000 		.4byte	0x245
 499 0245 0A       		.uleb128 0xa
 500 0246 04       		.byte	0x4
 501 0247 36010000 		.4byte	0x136
 502 024b 03       		.uleb128 0x3
 503 024c 89060000 		.4byte	.LASF47
 504 0250 07       		.byte	0x7
 505 0251 49       		.byte	0x49
 506 0252 56020000 		.4byte	0x256
 507 0256 06       		.uleb128 0x6
 508 0257 98050000 		.4byte	.LASF49
 509 025b 04       		.byte	0x4
ARM GAS  C:\Users\jo\AppData\Local\Temp\cc2fkiA0.s 			page 10


 510 025c 08       		.byte	0x8
 511 025d B0       		.byte	0xb0
 512 025e 6F020000 		.4byte	0x26f
 513 0262 07       		.uleb128 0x7
 514 0263 29050000 		.4byte	.LASF28
 515 0267 08       		.byte	0x8
 516 0268 B1       		.byte	0xb1
 517 0269 45020000 		.4byte	0x245
 518 026d 00       		.byte	0
 519 026e 00       		.byte	0
 520 026f 03       		.uleb128 0x3
 521 0270 2A060000 		.4byte	.LASF50
 522 0274 07       		.byte	0x7
 523 0275 50       		.byte	0x50
 524 0276 7A020000 		.4byte	0x27a
 525 027a 06       		.uleb128 0x6
 526 027b C9000000 		.4byte	.LASF51
 527 027f 08       		.byte	0x8
 528 0280 08       		.byte	0x8
 529 0281 B7       		.byte	0xb7
 530 0282 9F020000 		.4byte	0x29f
 531 0286 07       		.uleb128 0x7
 532 0287 29050000 		.4byte	.LASF28
 533 028b 08       		.byte	0x8
 534 028c B8       		.byte	0xb8
 535 028d 45020000 		.4byte	0x245
 536 0291 00       		.byte	0
 537 0292 07       		.uleb128 0x7
 538 0293 A4040000 		.4byte	.LASF29
 539 0297 08       		.byte	0x8
 540 0298 B9       		.byte	0xb9
 541 0299 45020000 		.4byte	0x245
 542 029d 04       		.byte	0x4
 543 029e 00       		.byte	0
 544 029f 03       		.uleb128 0x3
 545 02a0 0F000000 		.4byte	.LASF52
 546 02a4 07       		.byte	0x7
 547 02a5 57       		.byte	0x57
 548 02a6 AA020000 		.4byte	0x2aa
 549 02aa 0B       		.uleb128 0xb
 550 02ab 7F020000 		.4byte	.LASF53
 551 02af 1C       		.byte	0x1c
 552 02b0 08       		.byte	0x8
 553 02b1 9001     		.2byte	0x190
 554 02b3 06030000 		.4byte	0x306
 555 02b7 09       		.uleb128 0x9
 556 02b8 87050000 		.4byte	.LASF54
 557 02bc 08       		.byte	0x8
 558 02bd 9101     		.2byte	0x191
 559 02bf 6F020000 		.4byte	0x26f
 560 02c3 00       		.byte	0
 561 02c4 09       		.uleb128 0x9
 562 02c5 12050000 		.4byte	.LASF55
 563 02c9 08       		.byte	0x8
 564 02ca 9201     		.2byte	0x192
 565 02cc FF000000 		.4byte	0xff
 566 02d0 08       		.byte	0x8
ARM GAS  C:\Users\jo\AppData\Local\Temp\cc2fkiA0.s 			page 11


 567 02d1 09       		.uleb128 0x9
 568 02d2 16040000 		.4byte	.LASF56
 569 02d6 08       		.byte	0x8
 570 02d7 9401     		.2byte	0x194
 571 02d9 A0040000 		.4byte	0x4a0
 572 02dd 0C       		.byte	0xc
 573 02de 09       		.uleb128 0x9
 574 02df BA010000 		.4byte	.LASF57
 575 02e3 08       		.byte	0x8
 576 02e4 9701     		.2byte	0x197
 577 02e6 45020000 		.4byte	0x245
 578 02ea 10       		.byte	0x10
 579 02eb 09       		.uleb128 0x9
 580 02ec 54040000 		.4byte	.LASF58
 581 02f0 08       		.byte	0x8
 582 02f1 9801     		.2byte	0x198
 583 02f3 45020000 		.4byte	0x245
 584 02f7 14       		.byte	0x14
 585 02f8 09       		.uleb128 0x9
 586 02f9 4A040000 		.4byte	.LASF59
 587 02fd 08       		.byte	0x8
 588 02fe 9B01     		.2byte	0x19b
 589 0300 45020000 		.4byte	0x245
 590 0304 18       		.byte	0x18
 591 0305 00       		.byte	0
 592 0306 03       		.uleb128 0x3
 593 0307 E4050000 		.4byte	.LASF60
 594 030b 07       		.byte	0x7
 595 030c 5C       		.byte	0x5c
 596 030d 11030000 		.4byte	0x311
 597 0311 0A       		.uleb128 0xa
 598 0312 04       		.byte	0x4
 599 0313 17030000 		.4byte	0x317
 600 0317 0C       		.uleb128 0xc
 601 0318 22030000 		.4byte	0x322
 602 031c 0D       		.uleb128 0xd
 603 031d 22030000 		.4byte	0x322
 604 0321 00       		.byte	0
 605 0322 0E       		.uleb128 0xe
 606 0323 04       		.byte	0x4
 607 0324 03       		.uleb128 0x3
 608 0325 94040000 		.4byte	.LASF61
 609 0329 07       		.byte	0x7
 610 032a 61       		.byte	0x61
 611 032b 2F030000 		.4byte	0x32f
 612 032f 0B       		.uleb128 0xb
 613 0330 38050000 		.4byte	.LASF62
 614 0334 14       		.byte	0x14
 615 0335 08       		.byte	0x8
 616 0336 6B01     		.2byte	0x16b
 617 0338 7E030000 		.4byte	0x37e
 618 033c 09       		.uleb128 0x9
 619 033d 11020000 		.4byte	.LASF63
 620 0341 08       		.byte	0x8
 621 0342 6C01     		.2byte	0x16c
 622 0344 CA060000 		.4byte	0x6ca
 623 0348 00       		.byte	0
ARM GAS  C:\Users\jo\AppData\Local\Temp\cc2fkiA0.s 			page 12


 624 0349 09       		.uleb128 0x9
 625 034a CB010000 		.4byte	.LASF64
 626 034e 08       		.byte	0x8
 627 034f 6D01     		.2byte	0x16d
 628 0351 CA060000 		.4byte	0x6ca
 629 0355 04       		.byte	0x4
 630 0356 09       		.uleb128 0x9
 631 0357 8F050000 		.4byte	.LASF65
 632 035b 08       		.byte	0x8
 633 035c 6E01     		.2byte	0x16e
 634 035e 2B010000 		.4byte	0x12b
 635 0362 08       		.byte	0x8
 636 0363 09       		.uleb128 0x9
 637 0364 C3060000 		.4byte	.LASF66
 638 0368 08       		.byte	0x8
 639 0369 6F01     		.2byte	0x16f
 640 036b 06030000 		.4byte	0x306
 641 036f 0C       		.byte	0xc
 642 0370 09       		.uleb128 0x9
 643 0371 19060000 		.4byte	.LASF67
 644 0375 08       		.byte	0x8
 645 0376 7101     		.2byte	0x171
 646 0378 22030000 		.4byte	0x322
 647 037c 10       		.byte	0x10
 648 037d 00       		.byte	0
 649 037e 03       		.uleb128 0x3
 650 037f A6000000 		.4byte	.LASF68
 651 0383 07       		.byte	0x7
 652 0384 66       		.byte	0x66
 653 0385 89030000 		.4byte	0x389
 654 0389 0B       		.uleb128 0xb
 655 038a DC030000 		.4byte	.LASF69
 656 038e 10       		.byte	0x10
 657 038f 08       		.byte	0x8
 658 0390 7B01     		.2byte	0x17b
 659 0392 CB030000 		.4byte	0x3cb
 660 0396 09       		.uleb128 0x9
 661 0397 11020000 		.4byte	.LASF63
 662 039b 08       		.byte	0x8
 663 039c 7C01     		.2byte	0x17c
 664 039e CA060000 		.4byte	0x6ca
 665 03a2 00       		.byte	0
 666 03a3 09       		.uleb128 0x9
 667 03a4 CB010000 		.4byte	.LASF64
 668 03a8 08       		.byte	0x8
 669 03a9 7E01     		.2byte	0x17e
 670 03ab CA060000 		.4byte	0x6ca
 671 03af 04       		.byte	0x4
 672 03b0 09       		.uleb128 0x9
 673 03b1 8F050000 		.4byte	.LASF65
 674 03b5 08       		.byte	0x8
 675 03b6 8001     		.2byte	0x180
 676 03b8 2B010000 		.4byte	0x12b
 677 03bc 08       		.byte	0x8
 678 03bd 09       		.uleb128 0x9
 679 03be 02040000 		.4byte	.LASF70
 680 03c2 08       		.byte	0x8
ARM GAS  C:\Users\jo\AppData\Local\Temp\cc2fkiA0.s 			page 13


 681 03c3 8801     		.2byte	0x188
 682 03c5 2B010000 		.4byte	0x12b
 683 03c9 0C       		.byte	0xc
 684 03ca 00       		.byte	0
 685 03cb 03       		.uleb128 0x3
 686 03cc 51000000 		.4byte	.LASF71
 687 03d0 07       		.byte	0x7
 688 03d1 6B       		.byte	0x6b
 689 03d2 D6030000 		.4byte	0x3d6
 690 03d6 0F       		.uleb128 0xf
 691 03d7 C2040000 		.4byte	.LASF72
 692 03db 1404     		.2byte	0x414
 693 03dd 08       		.byte	0x8
 694 03de A201     		.2byte	0x1a2
 695 03e0 19040000 		.4byte	0x419
 696 03e4 09       		.uleb128 0x9
 697 03e5 F8050000 		.4byte	.LASF73
 698 03e9 08       		.byte	0x8
 699 03ea AA01     		.2byte	0x1aa
 700 03ec D0060000 		.4byte	0x6d0
 701 03f0 00       		.byte	0
 702 03f1 09       		.uleb128 0x9
 703 03f2 4A060000 		.4byte	.LASF74
 704 03f6 08       		.byte	0x8
 705 03f7 AF01     		.2byte	0x1af
 706 03f9 20010000 		.4byte	0x120
 707 03fd 04       		.byte	0x4
 708 03fe 09       		.uleb128 0x9
 709 03ff DB010000 		.4byte	.LASF75
 710 0403 08       		.byte	0x8
 711 0404 B301     		.2byte	0x1b3
 712 0406 20010000 		.4byte	0x120
 713 040a 08       		.byte	0x8
 714 040b 09       		.uleb128 0x9
 715 040c 98060000 		.4byte	.LASF76
 716 0410 08       		.byte	0x8
 717 0411 B901     		.2byte	0x1b9
 718 0413 C2050000 		.4byte	0x5c2
 719 0417 0C       		.byte	0xc
 720 0418 00       		.byte	0
 721 0419 03       		.uleb128 0x3
 722 041a 6B020000 		.4byte	.LASF77
 723 041e 07       		.byte	0x7
 724 041f 70       		.byte	0x70
 725 0420 24040000 		.4byte	0x424
 726 0424 0F       		.uleb128 0xf
 727 0425 76010000 		.4byte	.LASF78
 728 0429 7005     		.2byte	0x570
 729 042b 08       		.byte	0x8
 730 042c C201     		.2byte	0x1c2
 731 042e 83040000 		.4byte	0x483
 732 0432 09       		.uleb128 0x9
 733 0433 52060000 		.4byte	.LASF79
 734 0437 08       		.byte	0x8
 735 0438 C601     		.2byte	0x1c6
 736 043a 9F020000 		.4byte	0x29f
 737 043e 00       		.byte	0
ARM GAS  C:\Users\jo\AppData\Local\Temp\cc2fkiA0.s 			page 14


 738 043f 09       		.uleb128 0x9
 739 0440 69010000 		.4byte	.LASF80
 740 0444 08       		.byte	0x8
 741 0445 CA01     		.2byte	0x1ca
 742 0447 7E030000 		.4byte	0x37e
 743 044b 1C       		.byte	0x1c
 744 044c 08       		.uleb128 0x8
 745 044d 64626700 		.ascii	"dbg\000"
 746 0451 08       		.byte	0x8
 747 0452 CE01     		.2byte	0x1ce
 748 0454 CB030000 		.4byte	0x3cb
 749 0458 2C       		.byte	0x2c
 750 0459 10       		.uleb128 0x10
 751 045a 9B000000 		.4byte	.LASF81
 752 045e 08       		.byte	0x8
 753 045f D201     		.2byte	0x1d2
 754 0461 36010000 		.4byte	0x136
 755 0465 4004     		.2byte	0x440
 756 0467 11       		.uleb128 0x11
 757 0468 746D00   		.ascii	"tm\000"
 758 046b 08       		.byte	0x8
 759 046c D701     		.2byte	0x1d7
 760 046e E2050000 		.4byte	0x5e2
 761 0472 8804     		.2byte	0x488
 762 0474 10       		.uleb128 0x10
 763 0475 E4010000 		.4byte	.LASF82
 764 0479 08       		.byte	0x8
 765 047a E301     		.2byte	0x1e3
 766 047c D5060000 		.4byte	0x6d5
 767 0480 9004     		.2byte	0x490
 768 0482 00       		.byte	0
 769 0483 04       		.uleb128 0x4
 770 0484 04       		.byte	0x4
 771 0485 07       		.byte	0x7
 772 0486 AF030000 		.4byte	.LASF83
 773 048a 03       		.uleb128 0x3
 774 048b C2010000 		.4byte	.LASF84
 775 048f 09       		.byte	0x9
 776 0490 65       		.byte	0x65
 777 0491 22030000 		.4byte	0x322
 778 0495 03       		.uleb128 0x3
 779 0496 7D030000 		.4byte	.LASF85
 780 049a 09       		.byte	0x9
 781 049b 6D       		.byte	0x6d
 782 049c C3000000 		.4byte	0xc3
 783 04a0 06       		.uleb128 0x6
 784 04a1 09060000 		.4byte	.LASF86
 785 04a5 04       		.byte	0x4
 786 04a6 09       		.byte	0x9
 787 04a7 89       		.byte	0x89
 788 04a8 B9040000 		.4byte	0x4b9
 789 04ac 12       		.uleb128 0x12
 790 04ad 72313300 		.ascii	"r13\000"
 791 04b1 09       		.byte	0x9
 792 04b2 8A       		.byte	0x8a
 793 04b3 34050000 		.4byte	0x534
 794 04b7 00       		.byte	0
ARM GAS  C:\Users\jo\AppData\Local\Temp\cc2fkiA0.s 			page 15


 795 04b8 00       		.byte	0
 796 04b9 06       		.uleb128 0x6
 797 04ba 45000000 		.4byte	.LASF87
 798 04be 24       		.byte	0x24
 799 04bf 0A       		.byte	0xa
 800 04c0 F4       		.byte	0xf4
 801 04c1 34050000 		.4byte	0x534
 802 04c5 08       		.uleb128 0x8
 803 04c6 723400   		.ascii	"r4\000"
 804 04c9 0A       		.byte	0xa
 805 04ca 0701     		.2byte	0x107
 806 04cc 8A040000 		.4byte	0x48a
 807 04d0 00       		.byte	0
 808 04d1 08       		.uleb128 0x8
 809 04d2 723500   		.ascii	"r5\000"
 810 04d5 0A       		.byte	0xa
 811 04d6 0801     		.2byte	0x108
 812 04d8 8A040000 		.4byte	0x48a
 813 04dc 04       		.byte	0x4
 814 04dd 08       		.uleb128 0x8
 815 04de 723600   		.ascii	"r6\000"
 816 04e1 0A       		.byte	0xa
 817 04e2 0901     		.2byte	0x109
 818 04e4 8A040000 		.4byte	0x48a
 819 04e8 08       		.byte	0x8
 820 04e9 08       		.uleb128 0x8
 821 04ea 723700   		.ascii	"r7\000"
 822 04ed 0A       		.byte	0xa
 823 04ee 0A01     		.2byte	0x10a
 824 04f0 8A040000 		.4byte	0x48a
 825 04f4 0C       		.byte	0xc
 826 04f5 08       		.uleb128 0x8
 827 04f6 723800   		.ascii	"r8\000"
 828 04f9 0A       		.byte	0xa
 829 04fa 0B01     		.2byte	0x10b
 830 04fc 8A040000 		.4byte	0x48a
 831 0500 10       		.byte	0x10
 832 0501 08       		.uleb128 0x8
 833 0502 723900   		.ascii	"r9\000"
 834 0505 0A       		.byte	0xa
 835 0506 0C01     		.2byte	0x10c
 836 0508 8A040000 		.4byte	0x48a
 837 050c 14       		.byte	0x14
 838 050d 08       		.uleb128 0x8
 839 050e 72313000 		.ascii	"r10\000"
 840 0512 0A       		.byte	0xa
 841 0513 0D01     		.2byte	0x10d
 842 0515 8A040000 		.4byte	0x48a
 843 0519 18       		.byte	0x18
 844 051a 08       		.uleb128 0x8
 845 051b 72313100 		.ascii	"r11\000"
 846 051f 0A       		.byte	0xa
 847 0520 0E01     		.2byte	0x10e
 848 0522 8A040000 		.4byte	0x48a
 849 0526 1C       		.byte	0x1c
 850 0527 08       		.uleb128 0x8
 851 0528 6C7200   		.ascii	"lr\000"
ARM GAS  C:\Users\jo\AppData\Local\Temp\cc2fkiA0.s 			page 16


 852 052b 0A       		.byte	0xa
 853 052c 0F01     		.2byte	0x10f
 854 052e 8A040000 		.4byte	0x48a
 855 0532 20       		.byte	0x20
 856 0533 00       		.byte	0
 857 0534 0A       		.uleb128 0xa
 858 0535 04       		.byte	0x4
 859 0536 B9040000 		.4byte	0x4b9
 860 053a 13       		.uleb128 0x13
 861 053b 10       		.byte	0x10
 862 053c 0B       		.byte	0xb
 863 053d 51       		.byte	0x51
 864 053e 73050000 		.4byte	0x573
 865 0542 07       		.uleb128 0x7
 866 0543 1C000000 		.4byte	.LASF88
 867 0547 0B       		.byte	0xb
 868 0548 55       		.byte	0x55
 869 0549 2B010000 		.4byte	0x12b
 870 054d 00       		.byte	0
 871 054e 07       		.uleb128 0x7
 872 054f 9C010000 		.4byte	.LASF89
 873 0553 0B       		.byte	0xb
 874 0554 59       		.byte	0x59
 875 0555 45020000 		.4byte	0x245
 876 0559 04       		.byte	0x4
 877 055a 07       		.uleb128 0x7
 878 055b B3060000 		.4byte	.LASF90
 879 055f 0B       		.byte	0xb
 880 0560 5D       		.byte	0x5d
 881 0561 22030000 		.4byte	0x322
 882 0565 08       		.byte	0x8
 883 0566 07       		.uleb128 0x7
 884 0567 89000000 		.4byte	.LASF91
 885 056b 0B       		.byte	0xb
 886 056c 61       		.byte	0x61
 887 056d A2000000 		.4byte	0xa2
 888 0571 0C       		.byte	0xc
 889 0572 00       		.byte	0
 890 0573 03       		.uleb128 0x3
 891 0574 F3030000 		.4byte	.LASF92
 892 0578 0B       		.byte	0xb
 893 0579 62       		.byte	0x62
 894 057a 3A050000 		.4byte	0x53a
 895 057e 14       		.uleb128 0x14
 896 057f 0804     		.2byte	0x408
 897 0581 0B       		.byte	0xb
 898 0582 67       		.byte	0x67
 899 0583 AC050000 		.4byte	0x5ac
 900 0587 07       		.uleb128 0x7
 901 0588 B2010000 		.4byte	.LASF93
 902 058c 0B       		.byte	0xb
 903 058d 6B       		.byte	0x6b
 904 058e 37000000 		.4byte	0x37
 905 0592 00       		.byte	0
 906 0593 07       		.uleb128 0x7
 907 0594 08000000 		.4byte	.LASF94
 908 0598 0B       		.byte	0xb
ARM GAS  C:\Users\jo\AppData\Local\Temp\cc2fkiA0.s 			page 17


 909 0599 6F       		.byte	0x6f
 910 059a AC050000 		.4byte	0x5ac
 911 059e 04       		.byte	0x4
 912 059f 07       		.uleb128 0x7
 913 05a0 8A040000 		.4byte	.LASF95
 914 05a4 0B       		.byte	0xb
 915 05a5 73       		.byte	0x73
 916 05a6 B2050000 		.4byte	0x5b2
 917 05aa 08       		.byte	0x8
 918 05ab 00       		.byte	0
 919 05ac 0A       		.uleb128 0xa
 920 05ad 04       		.byte	0x4
 921 05ae 73050000 		.4byte	0x573
 922 05b2 15       		.uleb128 0x15
 923 05b3 73050000 		.4byte	0x573
 924 05b7 C2050000 		.4byte	0x5c2
 925 05bb 16       		.uleb128 0x16
 926 05bc 83040000 		.4byte	0x483
 927 05c0 3F       		.byte	0x3f
 928 05c1 00       		.byte	0
 929 05c2 03       		.uleb128 0x3
 930 05c3 77000000 		.4byte	.LASF96
 931 05c7 0B       		.byte	0xb
 932 05c8 74       		.byte	0x74
 933 05c9 7E050000 		.4byte	0x57e
 934 05cd 13       		.uleb128 0x13
 935 05ce 04       		.byte	0x4
 936 05cf 0C       		.byte	0xc
 937 05d0 38       		.byte	0x38
 938 05d1 E2050000 		.4byte	0x5e2
 939 05d5 07       		.uleb128 0x7
 940 05d6 02060000 		.4byte	.LASF97
 941 05da 0C       		.byte	0xc
 942 05db 3C       		.byte	0x3c
 943 05dc D3000000 		.4byte	0xd3
 944 05e0 00       		.byte	0
 945 05e1 00       		.byte	0
 946 05e2 03       		.uleb128 0x3
 947 05e3 CB030000 		.4byte	.LASF98
 948 05e7 0C       		.byte	0xc
 949 05e8 3D       		.byte	0x3d
 950 05e9 CD050000 		.4byte	0x5cd
 951 05ed 17       		.uleb128 0x17
 952 05ee 04       		.byte	0x4
 953 05ef 08       		.byte	0x8
 954 05f0 FA       		.byte	0xfa
 955 05f1 4A060000 		.4byte	0x64a
 956 05f5 18       		.uleb128 0x18
 957 05f6 2B000000 		.4byte	.LASF99
 958 05fa 08       		.byte	0x8
 959 05fb 0101     		.2byte	0x101
 960 05fd 0A010000 		.4byte	0x10a
 961 0601 18       		.uleb128 0x18
 962 0602 92000000 		.4byte	.LASF100
 963 0606 08       		.byte	0x8
 964 0607 0801     		.2byte	0x108
 965 0609 0A010000 		.4byte	0x10a
ARM GAS  C:\Users\jo\AppData\Local\Temp\cc2fkiA0.s 			page 18


 966 060d 18       		.uleb128 0x18
 967 060e 7B060000 		.4byte	.LASF101
 968 0612 08       		.byte	0x8
 969 0613 0F01     		.2byte	0x10f
 970 0615 22030000 		.4byte	0x322
 971 0619 18       		.uleb128 0x18
 972 061a 70010000 		.4byte	.LASF102
 973 061e 08       		.byte	0x8
 974 061f 1601     		.2byte	0x116
 975 0621 4A060000 		.4byte	0x64a
 976 0625 18       		.uleb128 0x18
 977 0626 19020000 		.4byte	.LASF103
 978 062a 08       		.byte	0x8
 979 062b 1E01     		.2byte	0x11e
 980 062d 75060000 		.4byte	0x675
 981 0631 18       		.uleb128 0x18
 982 0632 80050000 		.4byte	.LASF104
 983 0636 08       		.byte	0x8
 984 0637 2701     		.2byte	0x127
 985 0639 AC060000 		.4byte	0x6ac
 986 063d 18       		.uleb128 0x18
 987 063e 22050000 		.4byte	.LASF105
 988 0642 08       		.byte	0x8
 989 0643 2F01     		.2byte	0x12f
 990 0645 15010000 		.4byte	0x115
 991 0649 00       		.byte	0
 992 064a 0A       		.uleb128 0xa
 993 064b 04       		.byte	0x4
 994 064c 3A020000 		.4byte	0x23a
 995 0650 06       		.uleb128 0x6
 996 0651 5F050000 		.4byte	.LASF106
 997 0655 0C       		.byte	0xc
 998 0656 0D       		.byte	0xd
 999 0657 34       		.byte	0x34
 1000 0658 75060000 		.4byte	0x675
 1001 065c 07       		.uleb128 0x7
 1002 065d AA010000 		.4byte	.LASF107
 1003 0661 0D       		.byte	0xd
 1004 0662 35       		.byte	0x35
 1005 0663 6F020000 		.4byte	0x26f
 1006 0667 00       		.byte	0
 1007 0668 07       		.uleb128 0x7
 1008 0669 42020000 		.4byte	.LASF108
 1009 066d 0D       		.byte	0xd
 1010 066e 37       		.byte	0x37
 1011 066f 20010000 		.4byte	0x120
 1012 0673 08       		.byte	0x8
 1013 0674 00       		.byte	0
 1014 0675 0A       		.uleb128 0xa
 1015 0676 04       		.byte	0x4
 1016 0677 50060000 		.4byte	0x650
 1017 067b 06       		.uleb128 0x6
 1018 067c 3A060000 		.4byte	.LASF109
 1019 0680 10       		.byte	0x10
 1020 0681 0E       		.byte	0xe
 1021 0682 39       		.byte	0x39
 1022 0683 AC060000 		.4byte	0x6ac
ARM GAS  C:\Users\jo\AppData\Local\Temp\cc2fkiA0.s 			page 19


 1023 0687 07       		.uleb128 0x7
 1024 0688 51010000 		.4byte	.LASF110
 1025 068c 0E       		.byte	0xe
 1026 068d 3A       		.byte	0x3a
 1027 068e 6F020000 		.4byte	0x26f
 1028 0692 00       		.byte	0
 1029 0693 07       		.uleb128 0x7
 1030 0694 AB060000 		.4byte	.LASF111
 1031 0698 0E       		.byte	0xe
 1032 0699 3C       		.byte	0x3c
 1033 069a 45020000 		.4byte	0x245
 1034 069e 08       		.byte	0x8
 1035 069f 07       		.uleb128 0x7
 1036 06a0 C8050000 		.4byte	.LASF112
 1037 06a4 0E       		.byte	0xe
 1038 06a5 3E       		.byte	0x3e
 1039 06a6 FB060000 		.4byte	0x6fb
 1040 06aa 0C       		.byte	0xc
 1041 06ab 00       		.byte	0
 1042 06ac 0A       		.uleb128 0xa
 1043 06ad 04       		.byte	0x4
 1044 06ae 7B060000 		.4byte	0x67b
 1045 06b2 0A       		.uleb128 0xa
 1046 06b3 04       		.byte	0x4
 1047 06b4 B8060000 		.4byte	0x6b8
 1048 06b8 19       		.uleb128 0x19
 1049 06b9 BD060000 		.4byte	0x6bd
 1050 06bd 04       		.uleb128 0x4
 1051 06be 01       		.byte	0x1
 1052 06bf 08       		.byte	0x8
 1053 06c0 BA050000 		.4byte	.LASF113
 1054 06c4 0A       		.uleb128 0xa
 1055 06c5 04       		.byte	0x4
 1056 06c6 95040000 		.4byte	0x495
 1057 06ca 0A       		.uleb128 0xa
 1058 06cb 04       		.byte	0x4
 1059 06cc 24030000 		.4byte	0x324
 1060 06d0 05       		.uleb128 0x5
 1061 06d1 B2060000 		.4byte	0x6b2
 1062 06d5 15       		.uleb128 0x15
 1063 06d6 95040000 		.4byte	0x495
 1064 06da E5060000 		.4byte	0x6e5
 1065 06de 16       		.uleb128 0x16
 1066 06df 83040000 		.4byte	0x483
 1067 06e3 1B       		.byte	0x1b
 1068 06e4 00       		.byte	0
 1069 06e5 03       		.uleb128 0x3
 1070 06e6 00000000 		.4byte	.LASF114
 1071 06ea 02       		.byte	0x2
 1072 06eb 34       		.byte	0x34
 1073 06ec 11030000 		.4byte	0x311
 1074 06f0 03       		.uleb128 0x3
 1075 06f1 D3010000 		.4byte	.LASF115
 1076 06f5 0E       		.byte	0xe
 1077 06f6 34       		.byte	0x34
 1078 06f7 7B060000 		.4byte	0x67b
 1079 06fb 0A       		.uleb128 0xa
ARM GAS  C:\Users\jo\AppData\Local\Temp\cc2fkiA0.s 			page 20


 1080 06fc 04       		.byte	0x4
 1081 06fd F0060000 		.4byte	0x6f0
 1082 0701 06       		.uleb128 0x6
 1083 0702 56050000 		.4byte	.LASF116
 1084 0706 10       		.byte	0x10
 1085 0707 0F       		.byte	0xf
 1086 0708 3B       		.byte	0x3b
 1087 0709 3E070000 		.4byte	0x73e
 1088 070d 07       		.uleb128 0x7
 1089 070e 3D020000 		.4byte	.LASF117
 1090 0712 0F       		.byte	0xf
 1091 0713 3C       		.byte	0x3c
 1092 0714 B2060000 		.4byte	0x6b2
 1093 0718 00       		.byte	0
 1094 0719 07       		.uleb128 0x7
 1095 071a 2E040000 		.4byte	.LASF118
 1096 071e 0F       		.byte	0xf
 1097 071f 3D       		.byte	0x3d
 1098 0720 3F070000 		.4byte	0x73f
 1099 0724 04       		.byte	0x4
 1100 0725 07       		.uleb128 0x7
 1101 0726 2B020000 		.4byte	.LASF119
 1102 072a 0F       		.byte	0xf
 1103 072b 3E       		.byte	0x3e
 1104 072c 3F070000 		.4byte	0x73f
 1105 0730 08       		.byte	0x8
 1106 0731 07       		.uleb128 0x7
 1107 0732 AB040000 		.4byte	.LASF120
 1108 0736 0F       		.byte	0xf
 1109 0737 3F       		.byte	0x3f
 1110 0738 3F070000 		.4byte	0x73f
 1111 073c 0C       		.byte	0xc
 1112 073d 00       		.byte	0
 1113 073e 1A       		.uleb128 0x1a
 1114 073f 0A       		.uleb128 0xa
 1115 0740 04       		.byte	0x4
 1116 0741 3E070000 		.4byte	0x73e
 1117 0745 1B       		.uleb128 0x1b
 1118 0746 58060000 		.4byte	.LASF121
 1119 074a 02       		.byte	0x2
 1120 074b AE       		.byte	0xae
 1121 074c 45020000 		.4byte	0x245
 1122 0750 03       		.byte	0x3
 1123 0751 1C       		.uleb128 0x1c
 1124 0752 34020000 		.4byte	.LASF138
 1125 0756 11       		.byte	0x11
 1126 0757 60       		.byte	0x60
 1127 0758 0A010000 		.4byte	0x10a
 1128 075c 03       		.byte	0x3
 1129 075d 6C070000 		.4byte	0x76c
 1130 0761 1D       		.uleb128 0x1d
 1131 0762 747000   		.ascii	"tp\000"
 1132 0765 11       		.byte	0x11
 1133 0766 60       		.byte	0x60
 1134 0767 45020000 		.4byte	0x245
 1135 076b 00       		.byte	0
 1136 076c 1B       		.uleb128 0x1b
ARM GAS  C:\Users\jo\AppData\Local\Temp\cc2fkiA0.s 			page 21


 1137 076d 1C040000 		.4byte	.LASF122
 1138 0771 02       		.byte	0x2
 1139 0772 BB       		.byte	0xbb
 1140 0773 FF000000 		.4byte	0xff
 1141 0777 03       		.byte	0x3
 1142 0778 1E       		.uleb128 0x1e
 1143 0779 6E060000 		.4byte	.LASF123
 1144 077d 01       		.byte	0x1
 1145 077e 42       		.byte	0x42
 1146 077f 00000000 		.4byte	.LFB229
 1147 0783 78000000 		.4byte	.LFE229-.LFB229
 1148 0787 01       		.uleb128 0x1
 1149 0788 9C       		.byte	0x9c
 1150 0789 93080000 		.4byte	0x893
 1151 078d 1F       		.uleb128 0x1f
 1152 078e 747000   		.ascii	"tp\000"
 1153 0791 01       		.byte	0x1
 1154 0792 43       		.byte	0x43
 1155 0793 45020000 		.4byte	0x245
 1156 0797 00000000 		.4byte	.LLST0
 1157 079b 20       		.uleb128 0x20
 1158 079c 6D736700 		.ascii	"msg\000"
 1159 07a0 01       		.byte	0x1
 1160 07a1 44       		.byte	0x44
 1161 07a2 0A010000 		.4byte	0x10a
 1162 07a6 21       		.uleb128 0x21
 1163 07a7 6C070000 		.4byte	0x76c
 1164 07ab 02000000 		.4byte	.LBB16
 1165 07af 00000000 		.4byte	.Ldebug_ranges0+0
 1166 07b3 01       		.byte	0x1
 1167 07b4 49       		.byte	0x49
 1168 07b5 C9070000 		.4byte	0x7c9
 1169 07b9 22       		.uleb128 0x22
 1170 07ba 45070000 		.4byte	0x745
 1171 07be 02000000 		.4byte	.LBB18
 1172 07c2 18000000 		.4byte	.Ldebug_ranges0+0x18
 1173 07c6 02       		.byte	0x2
 1174 07c7 BD       		.byte	0xbd
 1175 07c8 00       		.byte	0
 1176 07c9 23       		.uleb128 0x23
 1177 07ca 1C000000 		.4byte	.LVL0
 1178 07ce 8F090000 		.4byte	0x98f
 1179 07d2 E7070000 		.4byte	0x7e7
 1180 07d6 24       		.uleb128 0x24
 1181 07d7 01       		.uleb128 0x1
 1182 07d8 53       		.byte	0x53
 1183 07d9 05       		.uleb128 0x5
 1184 07da 03       		.byte	0x3
 1185 07db 00000000 		.4byte	thread
 1186 07df 24       		.uleb128 0x24
 1187 07e0 01       		.uleb128 0x1
 1188 07e1 51       		.byte	0x51
 1189 07e2 03       		.uleb128 0x3
 1190 07e3 0A       		.byte	0xa
 1191 07e4 5001     		.2byte	0x150
 1192 07e6 00       		.byte	0
 1193 07e7 25       		.uleb128 0x25
ARM GAS  C:\Users\jo\AppData\Local\Temp\cc2fkiA0.s 			page 22


 1194 07e8 24000000 		.4byte	.LVL1
 1195 07ec B8090000 		.4byte	0x9b8
 1196 07f0 23       		.uleb128 0x23
 1197 07f1 2C000000 		.4byte	.LVL3
 1198 07f5 C3090000 		.4byte	0x9c3
 1199 07f9 04080000 		.4byte	0x804
 1200 07fd 24       		.uleb128 0x24
 1201 07fe 01       		.uleb128 0x1
 1202 07ff 51       		.byte	0x51
 1203 0800 02       		.uleb128 0x2
 1204 0801 74       		.byte	0x74
 1205 0802 00       		.sleb128 0
 1206 0803 00       		.byte	0
 1207 0804 23       		.uleb128 0x23
 1208 0805 32000000 		.4byte	.LVL4
 1209 0809 D9090000 		.4byte	0x9d9
 1210 080d 18080000 		.4byte	0x818
 1211 0811 24       		.uleb128 0x24
 1212 0812 01       		.uleb128 0x1
 1213 0813 50       		.byte	0x50
 1214 0814 02       		.uleb128 0x2
 1215 0815 74       		.byte	0x74
 1216 0816 00       		.sleb128 0
 1217 0817 00       		.byte	0
 1218 0818 25       		.uleb128 0x25
 1219 0819 36000000 		.4byte	.LVL5
 1220 081d B8090000 		.4byte	0x9b8
 1221 0821 23       		.uleb128 0x23
 1222 0822 3E000000 		.4byte	.LVL7
 1223 0826 C3090000 		.4byte	0x9c3
 1224 082a 35080000 		.4byte	0x835
 1225 082e 24       		.uleb128 0x24
 1226 082f 01       		.uleb128 0x1
 1227 0830 51       		.byte	0x51
 1228 0831 02       		.uleb128 0x2
 1229 0832 74       		.byte	0x74
 1230 0833 00       		.sleb128 0
 1231 0834 00       		.byte	0
 1232 0835 23       		.uleb128 0x23
 1233 0836 44000000 		.4byte	.LVL8
 1234 083a D9090000 		.4byte	0x9d9
 1235 083e 49080000 		.4byte	0x849
 1236 0842 24       		.uleb128 0x24
 1237 0843 01       		.uleb128 0x1
 1238 0844 50       		.byte	0x50
 1239 0845 02       		.uleb128 0x2
 1240 0846 74       		.byte	0x74
 1241 0847 00       		.sleb128 0
 1242 0848 00       		.byte	0
 1243 0849 25       		.uleb128 0x25
 1244 084a 48000000 		.4byte	.LVL9
 1245 084e B8090000 		.4byte	0x9b8
 1246 0852 23       		.uleb128 0x23
 1247 0853 50000000 		.4byte	.LVL11
 1248 0857 C3090000 		.4byte	0x9c3
 1249 085b 66080000 		.4byte	0x866
 1250 085f 24       		.uleb128 0x24
ARM GAS  C:\Users\jo\AppData\Local\Temp\cc2fkiA0.s 			page 23


 1251 0860 01       		.uleb128 0x1
 1252 0861 51       		.byte	0x51
 1253 0862 02       		.uleb128 0x2
 1254 0863 74       		.byte	0x74
 1255 0864 00       		.sleb128 0
 1256 0865 00       		.byte	0
 1257 0866 23       		.uleb128 0x23
 1258 0867 56000000 		.4byte	.LVL12
 1259 086b D9090000 		.4byte	0x9d9
 1260 086f 7A080000 		.4byte	0x87a
 1261 0873 24       		.uleb128 0x24
 1262 0874 01       		.uleb128 0x1
 1263 0875 50       		.byte	0x50
 1264 0876 02       		.uleb128 0x2
 1265 0877 74       		.byte	0x74
 1266 0878 00       		.sleb128 0
 1267 0879 00       		.byte	0
 1268 087a 26       		.uleb128 0x26
 1269 087b 64000000 		.4byte	.LVL13
 1270 087f EA090000 		.4byte	0x9ea
 1271 0883 24       		.uleb128 0x24
 1272 0884 01       		.uleb128 0x1
 1273 0885 51       		.byte	0x51
 1274 0886 05       		.uleb128 0x5
 1275 0887 03       		.byte	0x3
 1276 0888 00000000 		.4byte	.LC0
 1277 088c 24       		.uleb128 0x24
 1278 088d 01       		.uleb128 0x1
 1279 088e 50       		.byte	0x50
 1280 088f 01       		.uleb128 0x1
 1281 0890 31       		.byte	0x31
 1282 0891 00       		.byte	0
 1283 0892 00       		.byte	0
 1284 0893 1E       		.uleb128 0x1e
 1285 0894 BB040000 		.4byte	.LASF124
 1286 0898 01       		.byte	0x1
 1287 0899 3B       		.byte	0x3b
 1288 089a 00000000 		.4byte	.LFB228
 1289 089e 1E000000 		.4byte	.LFE228-.LFB228
 1290 08a2 01       		.uleb128 0x1
 1291 08a3 9C       		.byte	0x9c
 1292 08a4 01090000 		.4byte	0x901
 1293 08a8 27       		.uleb128 0x27
 1294 08a9 7000     		.ascii	"p\000"
 1295 08ab 01       		.byte	0x1
 1296 08ac 3B       		.byte	0x3b
 1297 08ad 22030000 		.4byte	0x322
 1298 08b1 29000000 		.4byte	.LLST1
 1299 08b5 23       		.uleb128 0x23
 1300 08b6 0A000000 		.4byte	.LVL15
 1301 08ba 110A0000 		.4byte	0xa11
 1302 08be CF080000 		.4byte	0x8cf
 1303 08c2 24       		.uleb128 0x24
 1304 08c3 01       		.uleb128 0x1
 1305 08c4 51       		.byte	0x51
 1306 08c5 02       		.uleb128 0x2
 1307 08c6 08       		.byte	0x8
ARM GAS  C:\Users\jo\AppData\Local\Temp\cc2fkiA0.s 			page 24


 1308 08c7 41       		.byte	0x41
 1309 08c8 24       		.uleb128 0x24
 1310 08c9 01       		.uleb128 0x1
 1311 08ca 50       		.byte	0x50
 1312 08cb 02       		.uleb128 0x2
 1313 08cc 74       		.byte	0x74
 1314 08cd 00       		.sleb128 0
 1315 08ce 00       		.byte	0
 1316 08cf 23       		.uleb128 0x23
 1317 08d0 12000000 		.4byte	.LVL16
 1318 08d4 110A0000 		.4byte	0xa11
 1319 08d8 E9080000 		.4byte	0x8e9
 1320 08dc 24       		.uleb128 0x24
 1321 08dd 01       		.uleb128 0x1
 1322 08de 51       		.byte	0x51
 1323 08df 02       		.uleb128 0x2
 1324 08e0 08       		.byte	0x8
 1325 08e1 42       		.byte	0x42
 1326 08e2 24       		.uleb128 0x24
 1327 08e3 01       		.uleb128 0x1
 1328 08e4 50       		.byte	0x50
 1329 08e5 02       		.uleb128 0x2
 1330 08e6 74       		.byte	0x74
 1331 08e7 00       		.sleb128 0
 1332 08e8 00       		.byte	0
 1333 08e9 26       		.uleb128 0x26
 1334 08ea 1E000000 		.4byte	.LVL18
 1335 08ee 110A0000 		.4byte	0xa11
 1336 08f2 24       		.uleb128 0x24
 1337 08f3 01       		.uleb128 0x1
 1338 08f4 51       		.byte	0x51
 1339 08f5 02       		.uleb128 0x2
 1340 08f6 08       		.byte	0x8
 1341 08f7 43       		.byte	0x43
 1342 08f8 24       		.uleb128 0x24
 1343 08f9 01       		.uleb128 0x1
 1344 08fa 50       		.byte	0x50
 1345 08fb 03       		.uleb128 0x3
 1346 08fc F3       		.byte	0xf3
 1347 08fd 01       		.uleb128 0x1
 1348 08fe 50       		.byte	0x50
 1349 08ff 00       		.byte	0
 1350 0900 00       		.byte	0
 1351 0901 28       		.uleb128 0x28
 1352 0902 BC000000 		.4byte	.LASF125
 1353 0906 10       		.byte	0x10
 1354 0907 A706     		.2byte	0x6a7
 1355 0909 CE000000 		.4byte	0xce
 1356 090d 29       		.uleb128 0x29
 1357 090e 636800   		.ascii	"ch\000"
 1358 0911 08       		.byte	0x8
 1359 0912 0902     		.2byte	0x209
 1360 0914 19040000 		.4byte	0x419
 1361 0918 15       		.uleb128 0x15
 1362 0919 45020000 		.4byte	0x245
 1363 091d 28090000 		.4byte	0x928
 1364 0921 16       		.uleb128 0x16
ARM GAS  C:\Users\jo\AppData\Local\Temp\cc2fkiA0.s 			page 25


 1365 0922 83040000 		.4byte	0x483
 1366 0926 04       		.byte	0x4
 1367 0927 00       		.byte	0
 1368 0928 2A       		.uleb128 0x2a
 1369 0929 0A050000 		.4byte	.LASF126
 1370 092d 0F       		.byte	0xf
 1371 092e A7       		.byte	0xa7
 1372 092f 18090000 		.4byte	0x918
 1373 0933 15       		.uleb128 0x15
 1374 0934 22030000 		.4byte	0x322
 1375 0938 3E090000 		.4byte	0x93e
 1376 093c 2B       		.uleb128 0x2b
 1377 093d 00       		.byte	0
 1378 093e 2C       		.uleb128 0x2c
 1379 093f 776100   		.ascii	"wa\000"
 1380 0942 0F       		.byte	0xf
 1381 0943 A9       		.byte	0xa9
 1382 0944 48090000 		.4byte	0x948
 1383 0948 19       		.uleb128 0x19
 1384 0949 33090000 		.4byte	0x933
 1385 094d 2D       		.uleb128 0x2d
 1386 094e 19050000 		.4byte	.LASF127
 1387 0952 01       		.byte	0x1
 1388 0953 5A       		.byte	0x5a
 1389 0954 5E090000 		.4byte	0x95e
 1390 0958 05       		.uleb128 0x5
 1391 0959 03       		.byte	0x3
 1392 095a 00000000 		.4byte	testmsg1
 1393 095e 19       		.uleb128 0x19
 1394 095f 01070000 		.4byte	0x701
 1395 0963 15       		.uleb128 0x15
 1396 0964 73090000 		.4byte	0x973
 1397 0968 73090000 		.4byte	0x973
 1398 096c 16       		.uleb128 0x16
 1399 096d 83040000 		.4byte	0x483
 1400 0971 01       		.byte	0x1
 1401 0972 00       		.byte	0
 1402 0973 0A       		.uleb128 0xa
 1403 0974 04       		.byte	0x4
 1404 0975 5E090000 		.4byte	0x95e
 1405 0979 2D       		.uleb128 0x2d
 1406 097a A4030000 		.4byte	.LASF128
 1407 097e 01       		.byte	0x1
 1408 097f 66       		.byte	0x66
 1409 0980 8A090000 		.4byte	0x98a
 1410 0984 05       		.uleb128 0x5
 1411 0985 03       		.byte	0x3
 1412 0986 00000000 		.4byte	patternmsg
 1413 098a 19       		.uleb128 0x19
 1414 098b 63090000 		.4byte	0x963
 1415 098f 2E       		.uleb128 0x2e
 1416 0990 88030000 		.4byte	.LASF131
 1417 0994 02       		.byte	0x2
 1418 0995 89       		.byte	0x89
 1419 0996 45020000 		.4byte	0x245
 1420 099a B8090000 		.4byte	0x9b8
 1421 099e 0D       		.uleb128 0xd
ARM GAS  C:\Users\jo\AppData\Local\Temp\cc2fkiA0.s 			page 26


 1422 099f 22030000 		.4byte	0x322
 1423 09a3 0D       		.uleb128 0xd
 1424 09a4 2C000000 		.4byte	0x2c
 1425 09a8 0D       		.uleb128 0xd
 1426 09a9 FF000000 		.4byte	0xff
 1427 09ad 0D       		.uleb128 0xd
 1428 09ae E5060000 		.4byte	0x6e5
 1429 09b2 0D       		.uleb128 0xd
 1430 09b3 22030000 		.4byte	0x322
 1431 09b7 00       		.byte	0
 1432 09b8 2F       		.uleb128 0x2f
 1433 09b9 20060000 		.4byte	.LASF139
 1434 09bd 11       		.byte	0x11
 1435 09be 3D       		.byte	0x3d
 1436 09bf 45020000 		.4byte	0x245
 1437 09c3 30       		.uleb128 0x30
 1438 09c4 49050000 		.4byte	.LASF129
 1439 09c8 11       		.byte	0x11
 1440 09c9 3E       		.byte	0x3e
 1441 09ca D9090000 		.4byte	0x9d9
 1442 09ce 0D       		.uleb128 0xd
 1443 09cf 45020000 		.4byte	0x245
 1444 09d3 0D       		.uleb128 0xd
 1445 09d4 0A010000 		.4byte	0x10a
 1446 09d8 00       		.byte	0
 1447 09d9 30       		.uleb128 0x30
 1448 09da 59010000 		.4byte	.LASF130
 1449 09de 0F       		.byte	0xf
 1450 09df 58       		.byte	0x58
 1451 09e0 EA090000 		.4byte	0x9ea
 1452 09e4 0D       		.uleb128 0xd
 1453 09e5 BD060000 		.4byte	0x6bd
 1454 09e9 00       		.byte	0
 1455 09ea 2E       		.uleb128 0x2e
 1456 09eb 34040000 		.4byte	.LASF132
 1457 09ef 0F       		.byte	0xf
 1458 09f0 5B       		.byte	0x5b
 1459 09f1 040A0000 		.4byte	0xa04
 1460 09f5 040A0000 		.4byte	0xa04
 1461 09f9 0D       		.uleb128 0xd
 1462 09fa 37000000 		.4byte	0x37
 1463 09fe 0D       		.uleb128 0xd
 1464 09ff 0B0A0000 		.4byte	0xa0b
 1465 0a03 00       		.byte	0
 1466 0a04 04       		.uleb128 0x4
 1467 0a05 01       		.byte	0x1
 1468 0a06 02       		.byte	0x2
 1469 0a07 D2040000 		.4byte	.LASF133
 1470 0a0b 0A       		.uleb128 0xa
 1471 0a0c 04       		.byte	0x4
 1472 0a0d BD060000 		.4byte	0x6bd
 1473 0a11 31       		.uleb128 0x31
 1474 0a12 89010000 		.4byte	.LASF134
 1475 0a16 11       		.byte	0x11
 1476 0a17 3C       		.byte	0x3c
 1477 0a18 0A010000 		.4byte	0x10a
 1478 0a1c 0D       		.uleb128 0xd
ARM GAS  C:\Users\jo\AppData\Local\Temp\cc2fkiA0.s 			page 27


 1479 0a1d 45020000 		.4byte	0x245
 1480 0a21 0D       		.uleb128 0xd
 1481 0a22 0A010000 		.4byte	0x10a
 1482 0a26 00       		.byte	0
 1483 0a27 00       		.byte	0
 1484              		.section	.debug_abbrev,"",%progbits
 1485              	.Ldebug_abbrev0:
 1486 0000 01       		.uleb128 0x1
 1487 0001 11       		.uleb128 0x11
 1488 0002 01       		.byte	0x1
 1489 0003 25       		.uleb128 0x25
 1490 0004 0E       		.uleb128 0xe
 1491 0005 13       		.uleb128 0x13
 1492 0006 0B       		.uleb128 0xb
 1493 0007 03       		.uleb128 0x3
 1494 0008 0E       		.uleb128 0xe
 1495 0009 1B       		.uleb128 0x1b
 1496 000a 0E       		.uleb128 0xe
 1497 000b 55       		.uleb128 0x55
 1498 000c 17       		.uleb128 0x17
 1499 000d 11       		.uleb128 0x11
 1500 000e 01       		.uleb128 0x1
 1501 000f 10       		.uleb128 0x10
 1502 0010 17       		.uleb128 0x17
 1503 0011 00       		.byte	0
 1504 0012 00       		.byte	0
 1505 0013 02       		.uleb128 0x2
 1506 0014 24       		.uleb128 0x24
 1507 0015 00       		.byte	0
 1508 0016 0B       		.uleb128 0xb
 1509 0017 0B       		.uleb128 0xb
 1510 0018 3E       		.uleb128 0x3e
 1511 0019 0B       		.uleb128 0xb
 1512 001a 03       		.uleb128 0x3
 1513 001b 08       		.uleb128 0x8
 1514 001c 00       		.byte	0
 1515 001d 00       		.byte	0
 1516 001e 03       		.uleb128 0x3
 1517 001f 16       		.uleb128 0x16
 1518 0020 00       		.byte	0
 1519 0021 03       		.uleb128 0x3
 1520 0022 0E       		.uleb128 0xe
 1521 0023 3A       		.uleb128 0x3a
 1522 0024 0B       		.uleb128 0xb
 1523 0025 3B       		.uleb128 0x3b
 1524 0026 0B       		.uleb128 0xb
 1525 0027 49       		.uleb128 0x49
 1526 0028 13       		.uleb128 0x13
 1527 0029 00       		.byte	0
 1528 002a 00       		.byte	0
 1529 002b 04       		.uleb128 0x4
 1530 002c 24       		.uleb128 0x24
 1531 002d 00       		.byte	0
 1532 002e 0B       		.uleb128 0xb
 1533 002f 0B       		.uleb128 0xb
 1534 0030 3E       		.uleb128 0x3e
 1535 0031 0B       		.uleb128 0xb
ARM GAS  C:\Users\jo\AppData\Local\Temp\cc2fkiA0.s 			page 28


 1536 0032 03       		.uleb128 0x3
 1537 0033 0E       		.uleb128 0xe
 1538 0034 00       		.byte	0
 1539 0035 00       		.byte	0
 1540 0036 05       		.uleb128 0x5
 1541 0037 35       		.uleb128 0x35
 1542 0038 00       		.byte	0
 1543 0039 49       		.uleb128 0x49
 1544 003a 13       		.uleb128 0x13
 1545 003b 00       		.byte	0
 1546 003c 00       		.byte	0
 1547 003d 06       		.uleb128 0x6
 1548 003e 13       		.uleb128 0x13
 1549 003f 01       		.byte	0x1
 1550 0040 03       		.uleb128 0x3
 1551 0041 0E       		.uleb128 0xe
 1552 0042 0B       		.uleb128 0xb
 1553 0043 0B       		.uleb128 0xb
 1554 0044 3A       		.uleb128 0x3a
 1555 0045 0B       		.uleb128 0xb
 1556 0046 3B       		.uleb128 0x3b
 1557 0047 0B       		.uleb128 0xb
 1558 0048 01       		.uleb128 0x1
 1559 0049 13       		.uleb128 0x13
 1560 004a 00       		.byte	0
 1561 004b 00       		.byte	0
 1562 004c 07       		.uleb128 0x7
 1563 004d 0D       		.uleb128 0xd
 1564 004e 00       		.byte	0
 1565 004f 03       		.uleb128 0x3
 1566 0050 0E       		.uleb128 0xe
 1567 0051 3A       		.uleb128 0x3a
 1568 0052 0B       		.uleb128 0xb
 1569 0053 3B       		.uleb128 0x3b
 1570 0054 0B       		.uleb128 0xb
 1571 0055 49       		.uleb128 0x49
 1572 0056 13       		.uleb128 0x13
 1573 0057 38       		.uleb128 0x38
 1574 0058 0B       		.uleb128 0xb
 1575 0059 00       		.byte	0
 1576 005a 00       		.byte	0
 1577 005b 08       		.uleb128 0x8
 1578 005c 0D       		.uleb128 0xd
 1579 005d 00       		.byte	0
 1580 005e 03       		.uleb128 0x3
 1581 005f 08       		.uleb128 0x8
 1582 0060 3A       		.uleb128 0x3a
 1583 0061 0B       		.uleb128 0xb
 1584 0062 3B       		.uleb128 0x3b
 1585 0063 05       		.uleb128 0x5
 1586 0064 49       		.uleb128 0x49
 1587 0065 13       		.uleb128 0x13
 1588 0066 38       		.uleb128 0x38
 1589 0067 0B       		.uleb128 0xb
 1590 0068 00       		.byte	0
 1591 0069 00       		.byte	0
 1592 006a 09       		.uleb128 0x9
ARM GAS  C:\Users\jo\AppData\Local\Temp\cc2fkiA0.s 			page 29


 1593 006b 0D       		.uleb128 0xd
 1594 006c 00       		.byte	0
 1595 006d 03       		.uleb128 0x3
 1596 006e 0E       		.uleb128 0xe
 1597 006f 3A       		.uleb128 0x3a
 1598 0070 0B       		.uleb128 0xb
 1599 0071 3B       		.uleb128 0x3b
 1600 0072 05       		.uleb128 0x5
 1601 0073 49       		.uleb128 0x49
 1602 0074 13       		.uleb128 0x13
 1603 0075 38       		.uleb128 0x38
 1604 0076 0B       		.uleb128 0xb
 1605 0077 00       		.byte	0
 1606 0078 00       		.byte	0
 1607 0079 0A       		.uleb128 0xa
 1608 007a 0F       		.uleb128 0xf
 1609 007b 00       		.byte	0
 1610 007c 0B       		.uleb128 0xb
 1611 007d 0B       		.uleb128 0xb
 1612 007e 49       		.uleb128 0x49
 1613 007f 13       		.uleb128 0x13
 1614 0080 00       		.byte	0
 1615 0081 00       		.byte	0
 1616 0082 0B       		.uleb128 0xb
 1617 0083 13       		.uleb128 0x13
 1618 0084 01       		.byte	0x1
 1619 0085 03       		.uleb128 0x3
 1620 0086 0E       		.uleb128 0xe
 1621 0087 0B       		.uleb128 0xb
 1622 0088 0B       		.uleb128 0xb
 1623 0089 3A       		.uleb128 0x3a
 1624 008a 0B       		.uleb128 0xb
 1625 008b 3B       		.uleb128 0x3b
 1626 008c 05       		.uleb128 0x5
 1627 008d 01       		.uleb128 0x1
 1628 008e 13       		.uleb128 0x13
 1629 008f 00       		.byte	0
 1630 0090 00       		.byte	0
 1631 0091 0C       		.uleb128 0xc
 1632 0092 15       		.uleb128 0x15
 1633 0093 01       		.byte	0x1
 1634 0094 27       		.uleb128 0x27
 1635 0095 19       		.uleb128 0x19
 1636 0096 01       		.uleb128 0x1
 1637 0097 13       		.uleb128 0x13
 1638 0098 00       		.byte	0
 1639 0099 00       		.byte	0
 1640 009a 0D       		.uleb128 0xd
 1641 009b 05       		.uleb128 0x5
 1642 009c 00       		.byte	0
 1643 009d 49       		.uleb128 0x49
 1644 009e 13       		.uleb128 0x13
 1645 009f 00       		.byte	0
 1646 00a0 00       		.byte	0
 1647 00a1 0E       		.uleb128 0xe
 1648 00a2 0F       		.uleb128 0xf
 1649 00a3 00       		.byte	0
ARM GAS  C:\Users\jo\AppData\Local\Temp\cc2fkiA0.s 			page 30


 1650 00a4 0B       		.uleb128 0xb
 1651 00a5 0B       		.uleb128 0xb
 1652 00a6 00       		.byte	0
 1653 00a7 00       		.byte	0
 1654 00a8 0F       		.uleb128 0xf
 1655 00a9 13       		.uleb128 0x13
 1656 00aa 01       		.byte	0x1
 1657 00ab 03       		.uleb128 0x3
 1658 00ac 0E       		.uleb128 0xe
 1659 00ad 0B       		.uleb128 0xb
 1660 00ae 05       		.uleb128 0x5
 1661 00af 3A       		.uleb128 0x3a
 1662 00b0 0B       		.uleb128 0xb
 1663 00b1 3B       		.uleb128 0x3b
 1664 00b2 05       		.uleb128 0x5
 1665 00b3 01       		.uleb128 0x1
 1666 00b4 13       		.uleb128 0x13
 1667 00b5 00       		.byte	0
 1668 00b6 00       		.byte	0
 1669 00b7 10       		.uleb128 0x10
 1670 00b8 0D       		.uleb128 0xd
 1671 00b9 00       		.byte	0
 1672 00ba 03       		.uleb128 0x3
 1673 00bb 0E       		.uleb128 0xe
 1674 00bc 3A       		.uleb128 0x3a
 1675 00bd 0B       		.uleb128 0xb
 1676 00be 3B       		.uleb128 0x3b
 1677 00bf 05       		.uleb128 0x5
 1678 00c0 49       		.uleb128 0x49
 1679 00c1 13       		.uleb128 0x13
 1680 00c2 38       		.uleb128 0x38
 1681 00c3 05       		.uleb128 0x5
 1682 00c4 00       		.byte	0
 1683 00c5 00       		.byte	0
 1684 00c6 11       		.uleb128 0x11
 1685 00c7 0D       		.uleb128 0xd
 1686 00c8 00       		.byte	0
 1687 00c9 03       		.uleb128 0x3
 1688 00ca 08       		.uleb128 0x8
 1689 00cb 3A       		.uleb128 0x3a
 1690 00cc 0B       		.uleb128 0xb
 1691 00cd 3B       		.uleb128 0x3b
 1692 00ce 05       		.uleb128 0x5
 1693 00cf 49       		.uleb128 0x49
 1694 00d0 13       		.uleb128 0x13
 1695 00d1 38       		.uleb128 0x38
 1696 00d2 05       		.uleb128 0x5
 1697 00d3 00       		.byte	0
 1698 00d4 00       		.byte	0
 1699 00d5 12       		.uleb128 0x12
 1700 00d6 0D       		.uleb128 0xd
 1701 00d7 00       		.byte	0
 1702 00d8 03       		.uleb128 0x3
 1703 00d9 08       		.uleb128 0x8
 1704 00da 3A       		.uleb128 0x3a
 1705 00db 0B       		.uleb128 0xb
 1706 00dc 3B       		.uleb128 0x3b
ARM GAS  C:\Users\jo\AppData\Local\Temp\cc2fkiA0.s 			page 31


 1707 00dd 0B       		.uleb128 0xb
 1708 00de 49       		.uleb128 0x49
 1709 00df 13       		.uleb128 0x13
 1710 00e0 38       		.uleb128 0x38
 1711 00e1 0B       		.uleb128 0xb
 1712 00e2 00       		.byte	0
 1713 00e3 00       		.byte	0
 1714 00e4 13       		.uleb128 0x13
 1715 00e5 13       		.uleb128 0x13
 1716 00e6 01       		.byte	0x1
 1717 00e7 0B       		.uleb128 0xb
 1718 00e8 0B       		.uleb128 0xb
 1719 00e9 3A       		.uleb128 0x3a
 1720 00ea 0B       		.uleb128 0xb
 1721 00eb 3B       		.uleb128 0x3b
 1722 00ec 0B       		.uleb128 0xb
 1723 00ed 01       		.uleb128 0x1
 1724 00ee 13       		.uleb128 0x13
 1725 00ef 00       		.byte	0
 1726 00f0 00       		.byte	0
 1727 00f1 14       		.uleb128 0x14
 1728 00f2 13       		.uleb128 0x13
 1729 00f3 01       		.byte	0x1
 1730 00f4 0B       		.uleb128 0xb
 1731 00f5 05       		.uleb128 0x5
 1732 00f6 3A       		.uleb128 0x3a
 1733 00f7 0B       		.uleb128 0xb
 1734 00f8 3B       		.uleb128 0x3b
 1735 00f9 0B       		.uleb128 0xb
 1736 00fa 01       		.uleb128 0x1
 1737 00fb 13       		.uleb128 0x13
 1738 00fc 00       		.byte	0
 1739 00fd 00       		.byte	0
 1740 00fe 15       		.uleb128 0x15
 1741 00ff 01       		.uleb128 0x1
 1742 0100 01       		.byte	0x1
 1743 0101 49       		.uleb128 0x49
 1744 0102 13       		.uleb128 0x13
 1745 0103 01       		.uleb128 0x1
 1746 0104 13       		.uleb128 0x13
 1747 0105 00       		.byte	0
 1748 0106 00       		.byte	0
 1749 0107 16       		.uleb128 0x16
 1750 0108 21       		.uleb128 0x21
 1751 0109 00       		.byte	0
 1752 010a 49       		.uleb128 0x49
 1753 010b 13       		.uleb128 0x13
 1754 010c 2F       		.uleb128 0x2f
 1755 010d 0B       		.uleb128 0xb
 1756 010e 00       		.byte	0
 1757 010f 00       		.byte	0
 1758 0110 17       		.uleb128 0x17
 1759 0111 17       		.uleb128 0x17
 1760 0112 01       		.byte	0x1
 1761 0113 0B       		.uleb128 0xb
 1762 0114 0B       		.uleb128 0xb
 1763 0115 3A       		.uleb128 0x3a
ARM GAS  C:\Users\jo\AppData\Local\Temp\cc2fkiA0.s 			page 32


 1764 0116 0B       		.uleb128 0xb
 1765 0117 3B       		.uleb128 0x3b
 1766 0118 0B       		.uleb128 0xb
 1767 0119 01       		.uleb128 0x1
 1768 011a 13       		.uleb128 0x13
 1769 011b 00       		.byte	0
 1770 011c 00       		.byte	0
 1771 011d 18       		.uleb128 0x18
 1772 011e 0D       		.uleb128 0xd
 1773 011f 00       		.byte	0
 1774 0120 03       		.uleb128 0x3
 1775 0121 0E       		.uleb128 0xe
 1776 0122 3A       		.uleb128 0x3a
 1777 0123 0B       		.uleb128 0xb
 1778 0124 3B       		.uleb128 0x3b
 1779 0125 05       		.uleb128 0x5
 1780 0126 49       		.uleb128 0x49
 1781 0127 13       		.uleb128 0x13
 1782 0128 00       		.byte	0
 1783 0129 00       		.byte	0
 1784 012a 19       		.uleb128 0x19
 1785 012b 26       		.uleb128 0x26
 1786 012c 00       		.byte	0
 1787 012d 49       		.uleb128 0x49
 1788 012e 13       		.uleb128 0x13
 1789 012f 00       		.byte	0
 1790 0130 00       		.byte	0
 1791 0131 1A       		.uleb128 0x1a
 1792 0132 15       		.uleb128 0x15
 1793 0133 00       		.byte	0
 1794 0134 27       		.uleb128 0x27
 1795 0135 19       		.uleb128 0x19
 1796 0136 00       		.byte	0
 1797 0137 00       		.byte	0
 1798 0138 1B       		.uleb128 0x1b
 1799 0139 2E       		.uleb128 0x2e
 1800 013a 00       		.byte	0
 1801 013b 03       		.uleb128 0x3
 1802 013c 0E       		.uleb128 0xe
 1803 013d 3A       		.uleb128 0x3a
 1804 013e 0B       		.uleb128 0xb
 1805 013f 3B       		.uleb128 0x3b
 1806 0140 0B       		.uleb128 0xb
 1807 0141 27       		.uleb128 0x27
 1808 0142 19       		.uleb128 0x19
 1809 0143 49       		.uleb128 0x49
 1810 0144 13       		.uleb128 0x13
 1811 0145 20       		.uleb128 0x20
 1812 0146 0B       		.uleb128 0xb
 1813 0147 00       		.byte	0
 1814 0148 00       		.byte	0
 1815 0149 1C       		.uleb128 0x1c
 1816 014a 2E       		.uleb128 0x2e
 1817 014b 01       		.byte	0x1
 1818 014c 03       		.uleb128 0x3
 1819 014d 0E       		.uleb128 0xe
 1820 014e 3A       		.uleb128 0x3a
ARM GAS  C:\Users\jo\AppData\Local\Temp\cc2fkiA0.s 			page 33


 1821 014f 0B       		.uleb128 0xb
 1822 0150 3B       		.uleb128 0x3b
 1823 0151 0B       		.uleb128 0xb
 1824 0152 27       		.uleb128 0x27
 1825 0153 19       		.uleb128 0x19
 1826 0154 49       		.uleb128 0x49
 1827 0155 13       		.uleb128 0x13
 1828 0156 20       		.uleb128 0x20
 1829 0157 0B       		.uleb128 0xb
 1830 0158 01       		.uleb128 0x1
 1831 0159 13       		.uleb128 0x13
 1832 015a 00       		.byte	0
 1833 015b 00       		.byte	0
 1834 015c 1D       		.uleb128 0x1d
 1835 015d 05       		.uleb128 0x5
 1836 015e 00       		.byte	0
 1837 015f 03       		.uleb128 0x3
 1838 0160 08       		.uleb128 0x8
 1839 0161 3A       		.uleb128 0x3a
 1840 0162 0B       		.uleb128 0xb
 1841 0163 3B       		.uleb128 0x3b
 1842 0164 0B       		.uleb128 0xb
 1843 0165 49       		.uleb128 0x49
 1844 0166 13       		.uleb128 0x13
 1845 0167 00       		.byte	0
 1846 0168 00       		.byte	0
 1847 0169 1E       		.uleb128 0x1e
 1848 016a 2E       		.uleb128 0x2e
 1849 016b 01       		.byte	0x1
 1850 016c 03       		.uleb128 0x3
 1851 016d 0E       		.uleb128 0xe
 1852 016e 3A       		.uleb128 0x3a
 1853 016f 0B       		.uleb128 0xb
 1854 0170 3B       		.uleb128 0x3b
 1855 0171 0B       		.uleb128 0xb
 1856 0172 27       		.uleb128 0x27
 1857 0173 19       		.uleb128 0x19
 1858 0174 11       		.uleb128 0x11
 1859 0175 01       		.uleb128 0x1
 1860 0176 12       		.uleb128 0x12
 1861 0177 06       		.uleb128 0x6
 1862 0178 40       		.uleb128 0x40
 1863 0179 18       		.uleb128 0x18
 1864 017a 9742     		.uleb128 0x2117
 1865 017c 19       		.uleb128 0x19
 1866 017d 01       		.uleb128 0x1
 1867 017e 13       		.uleb128 0x13
 1868 017f 00       		.byte	0
 1869 0180 00       		.byte	0
 1870 0181 1F       		.uleb128 0x1f
 1871 0182 34       		.uleb128 0x34
 1872 0183 00       		.byte	0
 1873 0184 03       		.uleb128 0x3
 1874 0185 08       		.uleb128 0x8
 1875 0186 3A       		.uleb128 0x3a
 1876 0187 0B       		.uleb128 0xb
 1877 0188 3B       		.uleb128 0x3b
ARM GAS  C:\Users\jo\AppData\Local\Temp\cc2fkiA0.s 			page 34


 1878 0189 0B       		.uleb128 0xb
 1879 018a 49       		.uleb128 0x49
 1880 018b 13       		.uleb128 0x13
 1881 018c 02       		.uleb128 0x2
 1882 018d 17       		.uleb128 0x17
 1883 018e 00       		.byte	0
 1884 018f 00       		.byte	0
 1885 0190 20       		.uleb128 0x20
 1886 0191 34       		.uleb128 0x34
 1887 0192 00       		.byte	0
 1888 0193 03       		.uleb128 0x3
 1889 0194 08       		.uleb128 0x8
 1890 0195 3A       		.uleb128 0x3a
 1891 0196 0B       		.uleb128 0xb
 1892 0197 3B       		.uleb128 0x3b
 1893 0198 0B       		.uleb128 0xb
 1894 0199 49       		.uleb128 0x49
 1895 019a 13       		.uleb128 0x13
 1896 019b 00       		.byte	0
 1897 019c 00       		.byte	0
 1898 019d 21       		.uleb128 0x21
 1899 019e 1D       		.uleb128 0x1d
 1900 019f 01       		.byte	0x1
 1901 01a0 31       		.uleb128 0x31
 1902 01a1 13       		.uleb128 0x13
 1903 01a2 52       		.uleb128 0x52
 1904 01a3 01       		.uleb128 0x1
 1905 01a4 55       		.uleb128 0x55
 1906 01a5 17       		.uleb128 0x17
 1907 01a6 58       		.uleb128 0x58
 1908 01a7 0B       		.uleb128 0xb
 1909 01a8 59       		.uleb128 0x59
 1910 01a9 0B       		.uleb128 0xb
 1911 01aa 01       		.uleb128 0x1
 1912 01ab 13       		.uleb128 0x13
 1913 01ac 00       		.byte	0
 1914 01ad 00       		.byte	0
 1915 01ae 22       		.uleb128 0x22
 1916 01af 1D       		.uleb128 0x1d
 1917 01b0 00       		.byte	0
 1918 01b1 31       		.uleb128 0x31
 1919 01b2 13       		.uleb128 0x13
 1920 01b3 52       		.uleb128 0x52
 1921 01b4 01       		.uleb128 0x1
 1922 01b5 55       		.uleb128 0x55
 1923 01b6 17       		.uleb128 0x17
 1924 01b7 58       		.uleb128 0x58
 1925 01b8 0B       		.uleb128 0xb
 1926 01b9 59       		.uleb128 0x59
 1927 01ba 0B       		.uleb128 0xb
 1928 01bb 00       		.byte	0
 1929 01bc 00       		.byte	0
 1930 01bd 23       		.uleb128 0x23
 1931 01be 898201   		.uleb128 0x4109
 1932 01c1 01       		.byte	0x1
 1933 01c2 11       		.uleb128 0x11
 1934 01c3 01       		.uleb128 0x1
ARM GAS  C:\Users\jo\AppData\Local\Temp\cc2fkiA0.s 			page 35


 1935 01c4 31       		.uleb128 0x31
 1936 01c5 13       		.uleb128 0x13
 1937 01c6 01       		.uleb128 0x1
 1938 01c7 13       		.uleb128 0x13
 1939 01c8 00       		.byte	0
 1940 01c9 00       		.byte	0
 1941 01ca 24       		.uleb128 0x24
 1942 01cb 8A8201   		.uleb128 0x410a
 1943 01ce 00       		.byte	0
 1944 01cf 02       		.uleb128 0x2
 1945 01d0 18       		.uleb128 0x18
 1946 01d1 9142     		.uleb128 0x2111
 1947 01d3 18       		.uleb128 0x18
 1948 01d4 00       		.byte	0
 1949 01d5 00       		.byte	0
 1950 01d6 25       		.uleb128 0x25
 1951 01d7 898201   		.uleb128 0x4109
 1952 01da 00       		.byte	0
 1953 01db 11       		.uleb128 0x11
 1954 01dc 01       		.uleb128 0x1
 1955 01dd 31       		.uleb128 0x31
 1956 01de 13       		.uleb128 0x13
 1957 01df 00       		.byte	0
 1958 01e0 00       		.byte	0
 1959 01e1 26       		.uleb128 0x26
 1960 01e2 898201   		.uleb128 0x4109
 1961 01e5 01       		.byte	0x1
 1962 01e6 11       		.uleb128 0x11
 1963 01e7 01       		.uleb128 0x1
 1964 01e8 9542     		.uleb128 0x2115
 1965 01ea 19       		.uleb128 0x19
 1966 01eb 31       		.uleb128 0x31
 1967 01ec 13       		.uleb128 0x13
 1968 01ed 00       		.byte	0
 1969 01ee 00       		.byte	0
 1970 01ef 27       		.uleb128 0x27
 1971 01f0 05       		.uleb128 0x5
 1972 01f1 00       		.byte	0
 1973 01f2 03       		.uleb128 0x3
 1974 01f3 08       		.uleb128 0x8
 1975 01f4 3A       		.uleb128 0x3a
 1976 01f5 0B       		.uleb128 0xb
 1977 01f6 3B       		.uleb128 0x3b
 1978 01f7 0B       		.uleb128 0xb
 1979 01f8 49       		.uleb128 0x49
 1980 01f9 13       		.uleb128 0x13
 1981 01fa 02       		.uleb128 0x2
 1982 01fb 17       		.uleb128 0x17
 1983 01fc 00       		.byte	0
 1984 01fd 00       		.byte	0
 1985 01fe 28       		.uleb128 0x28
 1986 01ff 34       		.uleb128 0x34
 1987 0200 00       		.byte	0
 1988 0201 03       		.uleb128 0x3
 1989 0202 0E       		.uleb128 0xe
 1990 0203 3A       		.uleb128 0x3a
 1991 0204 0B       		.uleb128 0xb
ARM GAS  C:\Users\jo\AppData\Local\Temp\cc2fkiA0.s 			page 36


 1992 0205 3B       		.uleb128 0x3b
 1993 0206 05       		.uleb128 0x5
 1994 0207 49       		.uleb128 0x49
 1995 0208 13       		.uleb128 0x13
 1996 0209 3F       		.uleb128 0x3f
 1997 020a 19       		.uleb128 0x19
 1998 020b 3C       		.uleb128 0x3c
 1999 020c 19       		.uleb128 0x19
 2000 020d 00       		.byte	0
 2001 020e 00       		.byte	0
 2002 020f 29       		.uleb128 0x29
 2003 0210 34       		.uleb128 0x34
 2004 0211 00       		.byte	0
 2005 0212 03       		.uleb128 0x3
 2006 0213 08       		.uleb128 0x8
 2007 0214 3A       		.uleb128 0x3a
 2008 0215 0B       		.uleb128 0xb
 2009 0216 3B       		.uleb128 0x3b
 2010 0217 05       		.uleb128 0x5
 2011 0218 49       		.uleb128 0x49
 2012 0219 13       		.uleb128 0x13
 2013 021a 3F       		.uleb128 0x3f
 2014 021b 19       		.uleb128 0x19
 2015 021c 3C       		.uleb128 0x3c
 2016 021d 19       		.uleb128 0x19
 2017 021e 00       		.byte	0
 2018 021f 00       		.byte	0
 2019 0220 2A       		.uleb128 0x2a
 2020 0221 34       		.uleb128 0x34
 2021 0222 00       		.byte	0
 2022 0223 03       		.uleb128 0x3
 2023 0224 0E       		.uleb128 0xe
 2024 0225 3A       		.uleb128 0x3a
 2025 0226 0B       		.uleb128 0xb
 2026 0227 3B       		.uleb128 0x3b
 2027 0228 0B       		.uleb128 0xb
 2028 0229 49       		.uleb128 0x49
 2029 022a 13       		.uleb128 0x13
 2030 022b 3F       		.uleb128 0x3f
 2031 022c 19       		.uleb128 0x19
 2032 022d 3C       		.uleb128 0x3c
 2033 022e 19       		.uleb128 0x19
 2034 022f 00       		.byte	0
 2035 0230 00       		.byte	0
 2036 0231 2B       		.uleb128 0x2b
 2037 0232 21       		.uleb128 0x21
 2038 0233 00       		.byte	0
 2039 0234 00       		.byte	0
 2040 0235 00       		.byte	0
 2041 0236 2C       		.uleb128 0x2c
 2042 0237 34       		.uleb128 0x34
 2043 0238 00       		.byte	0
 2044 0239 03       		.uleb128 0x3
 2045 023a 08       		.uleb128 0x8
 2046 023b 3A       		.uleb128 0x3a
 2047 023c 0B       		.uleb128 0xb
 2048 023d 3B       		.uleb128 0x3b
ARM GAS  C:\Users\jo\AppData\Local\Temp\cc2fkiA0.s 			page 37


 2049 023e 0B       		.uleb128 0xb
 2050 023f 49       		.uleb128 0x49
 2051 0240 13       		.uleb128 0x13
 2052 0241 3F       		.uleb128 0x3f
 2053 0242 19       		.uleb128 0x19
 2054 0243 3C       		.uleb128 0x3c
 2055 0244 19       		.uleb128 0x19
 2056 0245 00       		.byte	0
 2057 0246 00       		.byte	0
 2058 0247 2D       		.uleb128 0x2d
 2059 0248 34       		.uleb128 0x34
 2060 0249 00       		.byte	0
 2061 024a 03       		.uleb128 0x3
 2062 024b 0E       		.uleb128 0xe
 2063 024c 3A       		.uleb128 0x3a
 2064 024d 0B       		.uleb128 0xb
 2065 024e 3B       		.uleb128 0x3b
 2066 024f 0B       		.uleb128 0xb
 2067 0250 49       		.uleb128 0x49
 2068 0251 13       		.uleb128 0x13
 2069 0252 3F       		.uleb128 0x3f
 2070 0253 19       		.uleb128 0x19
 2071 0254 02       		.uleb128 0x2
 2072 0255 18       		.uleb128 0x18
 2073 0256 00       		.byte	0
 2074 0257 00       		.byte	0
 2075 0258 2E       		.uleb128 0x2e
 2076 0259 2E       		.uleb128 0x2e
 2077 025a 01       		.byte	0x1
 2078 025b 3F       		.uleb128 0x3f
 2079 025c 19       		.uleb128 0x19
 2080 025d 03       		.uleb128 0x3
 2081 025e 0E       		.uleb128 0xe
 2082 025f 3A       		.uleb128 0x3a
 2083 0260 0B       		.uleb128 0xb
 2084 0261 3B       		.uleb128 0x3b
 2085 0262 0B       		.uleb128 0xb
 2086 0263 27       		.uleb128 0x27
 2087 0264 19       		.uleb128 0x19
 2088 0265 49       		.uleb128 0x49
 2089 0266 13       		.uleb128 0x13
 2090 0267 3C       		.uleb128 0x3c
 2091 0268 19       		.uleb128 0x19
 2092 0269 01       		.uleb128 0x1
 2093 026a 13       		.uleb128 0x13
 2094 026b 00       		.byte	0
 2095 026c 00       		.byte	0
 2096 026d 2F       		.uleb128 0x2f
 2097 026e 2E       		.uleb128 0x2e
 2098 026f 00       		.byte	0
 2099 0270 3F       		.uleb128 0x3f
 2100 0271 19       		.uleb128 0x19
 2101 0272 03       		.uleb128 0x3
 2102 0273 0E       		.uleb128 0xe
 2103 0274 3A       		.uleb128 0x3a
 2104 0275 0B       		.uleb128 0xb
 2105 0276 3B       		.uleb128 0x3b
ARM GAS  C:\Users\jo\AppData\Local\Temp\cc2fkiA0.s 			page 38


 2106 0277 0B       		.uleb128 0xb
 2107 0278 27       		.uleb128 0x27
 2108 0279 19       		.uleb128 0x19
 2109 027a 49       		.uleb128 0x49
 2110 027b 13       		.uleb128 0x13
 2111 027c 3C       		.uleb128 0x3c
 2112 027d 19       		.uleb128 0x19
 2113 027e 00       		.byte	0
 2114 027f 00       		.byte	0
 2115 0280 30       		.uleb128 0x30
 2116 0281 2E       		.uleb128 0x2e
 2117 0282 01       		.byte	0x1
 2118 0283 3F       		.uleb128 0x3f
 2119 0284 19       		.uleb128 0x19
 2120 0285 03       		.uleb128 0x3
 2121 0286 0E       		.uleb128 0xe
 2122 0287 3A       		.uleb128 0x3a
 2123 0288 0B       		.uleb128 0xb
 2124 0289 3B       		.uleb128 0x3b
 2125 028a 0B       		.uleb128 0xb
 2126 028b 27       		.uleb128 0x27
 2127 028c 19       		.uleb128 0x19
 2128 028d 3C       		.uleb128 0x3c
 2129 028e 19       		.uleb128 0x19
 2130 028f 01       		.uleb128 0x1
 2131 0290 13       		.uleb128 0x13
 2132 0291 00       		.byte	0
 2133 0292 00       		.byte	0
 2134 0293 31       		.uleb128 0x31
 2135 0294 2E       		.uleb128 0x2e
 2136 0295 01       		.byte	0x1
 2137 0296 3F       		.uleb128 0x3f
 2138 0297 19       		.uleb128 0x19
 2139 0298 03       		.uleb128 0x3
 2140 0299 0E       		.uleb128 0xe
 2141 029a 3A       		.uleb128 0x3a
 2142 029b 0B       		.uleb128 0xb
 2143 029c 3B       		.uleb128 0x3b
 2144 029d 0B       		.uleb128 0xb
 2145 029e 27       		.uleb128 0x27
 2146 029f 19       		.uleb128 0x19
 2147 02a0 49       		.uleb128 0x49
 2148 02a1 13       		.uleb128 0x13
 2149 02a2 3C       		.uleb128 0x3c
 2150 02a3 19       		.uleb128 0x19
 2151 02a4 00       		.byte	0
 2152 02a5 00       		.byte	0
 2153 02a6 00       		.byte	0
 2154              		.section	.debug_loc,"",%progbits
 2155              	.Ldebug_loc0:
 2156              	.LLST0:
 2157 0000 24000000 		.4byte	.LVL1
 2158 0004 2B000000 		.4byte	.LVL3-1
 2159 0008 0100     		.2byte	0x1
 2160 000a 50       		.byte	0x50
 2161 000b 36000000 		.4byte	.LVL5
 2162 000f 3D000000 		.4byte	.LVL7-1
ARM GAS  C:\Users\jo\AppData\Local\Temp\cc2fkiA0.s 			page 39


 2163 0013 0100     		.2byte	0x1
 2164 0015 50       		.byte	0x50
 2165 0016 48000000 		.4byte	.LVL9
 2166 001a 4F000000 		.4byte	.LVL11-1
 2167 001e 0100     		.2byte	0x1
 2168 0020 50       		.byte	0x50
 2169 0021 00000000 		.4byte	0
 2170 0025 00000000 		.4byte	0
 2171              	.LLST1:
 2172 0029 00000000 		.4byte	.LVL14
 2173 002d 09000000 		.4byte	.LVL15-1
 2174 0031 0100     		.2byte	0x1
 2175 0033 50       		.byte	0x50
 2176 0034 09000000 		.4byte	.LVL15-1
 2177 0038 1A000000 		.4byte	.LVL17
 2178 003c 0100     		.2byte	0x1
 2179 003e 54       		.byte	0x54
 2180 003f 1A000000 		.4byte	.LVL17
 2181 0043 1D000000 		.4byte	.LVL18-1
 2182 0047 0100     		.2byte	0x1
 2183 0049 50       		.byte	0x50
 2184 004a 1D000000 		.4byte	.LVL18-1
 2185 004e 1E000000 		.4byte	.LFE228
 2186 0052 0400     		.2byte	0x4
 2187 0054 F3       		.byte	0xf3
 2188 0055 01       		.uleb128 0x1
 2189 0056 50       		.byte	0x50
 2190 0057 9F       		.byte	0x9f
 2191 0058 00000000 		.4byte	0
 2192 005c 00000000 		.4byte	0
 2193              		.section	.debug_aranges,"",%progbits
 2194 0000 24000000 		.4byte	0x24
 2195 0004 0200     		.2byte	0x2
 2196 0006 00000000 		.4byte	.Ldebug_info0
 2197 000a 04       		.byte	0x4
 2198 000b 00       		.byte	0
 2199 000c 0000     		.2byte	0
 2200 000e 0000     		.2byte	0
 2201 0010 00000000 		.4byte	.LFB229
 2202 0014 78000000 		.4byte	.LFE229-.LFB229
 2203 0018 00000000 		.4byte	.LFB228
 2204 001c 1E000000 		.4byte	.LFE228-.LFB228
 2205 0020 00000000 		.4byte	0
 2206 0024 00000000 		.4byte	0
 2207              		.section	.debug_ranges,"",%progbits
 2208              	.Ldebug_ranges0:
 2209 0000 02000000 		.4byte	.LBB16
 2210 0004 04000000 		.4byte	.LBE16
 2211 0008 06000000 		.4byte	.LBB23
 2212 000c 08000000 		.4byte	.LBE23
 2213 0010 00000000 		.4byte	0
 2214 0014 00000000 		.4byte	0
 2215 0018 02000000 		.4byte	.LBB18
 2216 001c 04000000 		.4byte	.LBE18
 2217 0020 06000000 		.4byte	.LBB21
 2218 0024 08000000 		.4byte	.LBE21
 2219 0028 00000000 		.4byte	0
ARM GAS  C:\Users\jo\AppData\Local\Temp\cc2fkiA0.s 			page 40


 2220 002c 00000000 		.4byte	0
 2221 0030 00000000 		.4byte	.LFB229
 2222 0034 78000000 		.4byte	.LFE229
 2223 0038 00000000 		.4byte	.LFB228
 2224 003c 1E000000 		.4byte	.LFE228
 2225 0040 00000000 		.4byte	0
 2226 0044 00000000 		.4byte	0
 2227              		.section	.debug_line,"",%progbits
 2228              	.Ldebug_line0:
 2229 0000 C1020000 		.section	.debug_str,"MS",%progbits,1
 2229      02006D02 
 2229      00000201 
 2229      FB0E0D00 
 2229      01010101 
 2230              	.LASF114:
 2231 0000 7466756E 		.ascii	"tfunc_t\000"
 2231      635F7400 
 2232              	.LASF94:
 2233 0008 74625F70 		.ascii	"tb_ptr\000"
 2233      747200
 2234              	.LASF52:
 2235 000f 72656164 		.ascii	"ready_list_t\000"
 2235      795F6C69 
 2235      73745F74 
 2235      00
 2236              	.LASF88:
 2237 001c 73655F74 		.ascii	"se_time\000"
 2237      696D6500 
 2238              	.LASF2:
 2239 0024 73697A65 		.ascii	"size_t\000"
 2239      5F7400
 2240              	.LASF99:
 2241 002b 7264796D 		.ascii	"rdymsg\000"
 2241      736700
 2242              	.LASF17:
 2243 0032 75696E74 		.ascii	"uint64_t\000"
 2243      36345F74 
 2243      00
 2244              	.LASF3:
 2245 003b 5F5F7569 		.ascii	"__uint8_t\000"
 2245      6E74385F 
 2245      7400
 2246              	.LASF87:
 2247 0045 706F7274 		.ascii	"port_intctx\000"
 2247      5F696E74 
 2247      63747800 
 2248              	.LASF71:
 2249 0051 73797374 		.ascii	"system_debug_t\000"
 2249      656D5F64 
 2249      65627567 
 2249      5F7400
 2250              	.LASF13:
 2251 0060 6C6F6E67 		.ascii	"long long unsigned int\000"
 2251      206C6F6E 
 2251      6720756E 
 2251      7369676E 
 2251      65642069 
ARM GAS  C:\Users\jo\AppData\Local\Temp\cc2fkiA0.s 			page 41


 2252              	.LASF96:
 2253 0077 63685F74 		.ascii	"ch_trace_buffer_t\000"
 2253      72616365 
 2253      5F627566 
 2253      6665725F 
 2253      7400
 2254              	.LASF91:
 2255 0089 73655F73 		.ascii	"se_state\000"
 2255      74617465 
 2255      00
 2256              	.LASF100:
 2257 0092 65786974 		.ascii	"exitcode\000"
 2257      636F6465 
 2257      00
 2258              	.LASF81:
 2259 009b 6D61696E 		.ascii	"mainthread\000"
 2259      74687265 
 2259      616400
 2260              	.LASF68:
 2261 00a6 76697274 		.ascii	"virtual_timers_list_t\000"
 2261      75616C5F 
 2261      74696D65 
 2261      72735F6C 
 2261      6973745F 
 2262              	.LASF125:
 2263 00bc 49544D5F 		.ascii	"ITM_RxBuffer\000"
 2263      52784275 
 2263      66666572 
 2263      00
 2264              	.LASF51:
 2265 00c9 63685F74 		.ascii	"ch_threads_queue\000"
 2265      68726561 
 2265      64735F71 
 2265      75657565 
 2265      00
 2266              	.LASF30:
 2267 00da 705F7072 		.ascii	"p_prio\000"
 2267      696F00
 2268              	.LASF137:
 2269 00e1 433A5C55 		.ascii	"C:\\Users\\jo\\Documents\\GitHub\\ChibiOS\\demos\\S"
 2269      73657273 
 2269      5C6A6F5C 
 2269      446F6375 
 2269      6D656E74 
 2270 010d 544D3332 		.ascii	"TM32\\RT-STM32F407-DISCOVERY-uHttp\000"
 2270      5C52542D 
 2270      53544D33 
 2270      32463430 
 2270      372D4449 
 2271              	.LASF11:
 2272 012f 6C6F6E67 		.ascii	"long long int\000"
 2272      206C6F6E 
 2272      6720696E 
 2272      7400
 2273              	.LASF1:
 2274 013d 7369676E 		.ascii	"signed char\000"
 2274      65642063 
ARM GAS  C:\Users\jo\AppData\Local\Temp\cc2fkiA0.s 			page 42


 2274      68617200 
 2275              	.LASF45:
 2276 0149 705F6D70 		.ascii	"p_mpool\000"
 2276      6F6F6C00 
 2277              	.LASF110:
 2278 0151 6D5F7175 		.ascii	"m_queue\000"
 2278      65756500 
 2279              	.LASF130:
 2280 0159 74657374 		.ascii	"test_emit_token\000"
 2280      5F656D69 
 2280      745F746F 
 2280      6B656E00 
 2281              	.LASF80:
 2282 0169 76746C69 		.ascii	"vtlist\000"
 2282      737400
 2283              	.LASF102:
 2284 0170 77747472 		.ascii	"wttrp\000"
 2284      7000
 2285              	.LASF78:
 2286 0176 63685F73 		.ascii	"ch_system\000"
 2286      79737465 
 2286      6D00
 2287              	.LASF8:
 2288 0180 6C6F6E67 		.ascii	"long int\000"
 2288      20696E74 
 2288      00
 2289              	.LASF134:
 2290 0189 63684D73 		.ascii	"chMsgSend\000"
 2290      6753656E 
 2290      6400
 2291              	.LASF20:
 2292 0193 74737461 		.ascii	"tstate_t\000"
 2292      74655F74 
 2292      00
 2293              	.LASF89:
 2294 019c 73655F74 		.ascii	"se_tp\000"
 2294      7000
 2295              	.LASF32:
 2296 01a2 705F6E65 		.ascii	"p_newer\000"
 2296      77657200 
 2297              	.LASF107:
 2298 01aa 735F7175 		.ascii	"s_queue\000"
 2298      65756500 
 2299              	.LASF93:
 2300 01b2 74625F73 		.ascii	"tb_size\000"
 2300      697A6500 
 2301              	.LASF57:
 2302 01ba 725F6E65 		.ascii	"r_newer\000"
 2302      77657200 
 2303              	.LASF84:
 2304 01c2 72656761 		.ascii	"regarm_t\000"
 2304      726D5F74 
 2304      00
 2305              	.LASF64:
 2306 01cb 76745F70 		.ascii	"vt_prev\000"
 2306      72657600 
 2307              	.LASF115:
ARM GAS  C:\Users\jo\AppData\Local\Temp\cc2fkiA0.s 			page 43


 2308 01d3 6D757465 		.ascii	"mutex_t\000"
 2308      785F7400 
 2309              	.LASF75:
 2310 01db 6C6F636B 		.ascii	"lock_cnt\000"
 2310      5F636E74 
 2310      00
 2311              	.LASF82:
 2312 01e4 69646C65 		.ascii	"idle_thread_wa\000"
 2312      5F746872 
 2312      6561645F 
 2312      776100
 2313              	.LASF25:
 2314 01f3 636E745F 		.ascii	"cnt_t\000"
 2314      7400
 2315              	.LASF35:
 2316 01f9 705F7374 		.ascii	"p_stklimit\000"
 2316      6B6C696D 
 2316      697400
 2317              	.LASF0:
 2318 0204 756E7369 		.ascii	"unsigned int\000"
 2318      676E6564 
 2318      20696E74 
 2318      00
 2319              	.LASF63:
 2320 0211 76745F6E 		.ascii	"vt_next\000"
 2320      65787400 
 2321              	.LASF103:
 2322 0219 77747365 		.ascii	"wtsemp\000"
 2322      6D7000
 2323              	.LASF40:
 2324 0220 705F6D73 		.ascii	"p_msgqueue\000"
 2324      67717565 
 2324      756500
 2325              	.LASF119:
 2326 022b 74656172 		.ascii	"teardown\000"
 2326      646F776E 
 2326      00
 2327              	.LASF138:
 2328 0234 63684D73 		.ascii	"chMsgGet\000"
 2328      67476574 
 2328      00
 2329              	.LASF117:
 2330 023d 6E616D65 		.ascii	"name\000"
 2330      00
 2331              	.LASF108:
 2332 0242 735F636E 		.ascii	"s_cnt\000"
 2332      7400
 2333              	.LASF6:
 2334 0248 73686F72 		.ascii	"short unsigned int\000"
 2334      7420756E 
 2334      7369676E 
 2334      65642069 
 2334      6E7400
 2335              	.LASF48:
 2336 025b 63685F74 		.ascii	"ch_thread\000"
 2336      68726561 
 2336      6400
ARM GAS  C:\Users\jo\AppData\Local\Temp\cc2fkiA0.s 			page 44


 2337              	.LASF23:
 2338 0265 6D73675F 		.ascii	"msg_t\000"
 2338      7400
 2339              	.LASF77:
 2340 026b 63685F73 		.ascii	"ch_system_t\000"
 2340      79737465 
 2340      6D5F7400 
 2341              	.LASF19:
 2342 0277 746D6F64 		.ascii	"tmode_t\000"
 2342      655F7400 
 2343              	.LASF53:
 2344 027f 63685F72 		.ascii	"ch_ready_list\000"
 2344      65616479 
 2344      5F6C6973 
 2344      7400
 2345              	.LASF24:
 2346 028d 6576656E 		.ascii	"eventmask_t\000"
 2346      746D6173 
 2346      6B5F7400 
 2347              	.LASF7:
 2348 0299 5F5F696E 		.ascii	"__int32_t\000"
 2348      7433325F 
 2348      7400
 2349              	.LASF135:
 2350 02a3 474E5520 		.ascii	"GNU C 4.9.3 20141119 (release) [ARM/embedded-4_9-br"
 2350      4320342E 
 2350      392E3320 
 2350      32303134 
 2350      31313139 
 2351 02d6 616E6368 		.ascii	"anch revision 218278] -mcpu=cortex-m4 -mno-thumb-in"
 2351      20726576 
 2351      6973696F 
 2351      6E203231 
 2351      38323738 
 2352 0309 74657277 		.ascii	"terwork -mthumb -ggdb -O2 -fomit-frame-pointer -fal"
 2352      6F726B20 
 2352      2D6D7468 
 2352      756D6220 
 2352      2D676764 
 2353 033c 69676E2D 		.ascii	"ign-functions=16 -ffunction-sections -fdata-section"
 2353      66756E63 
 2353      74696F6E 
 2353      733D3136 
 2353      202D6666 
 2354 036f 73202D66 		.ascii	"s -fno-common\000"
 2354      6E6F2D63 
 2354      6F6D6D6F 
 2354      6E00
 2355              	.LASF85:
 2356 037d 73746B61 		.ascii	"stkalign_t\000"
 2356      6C69676E 
 2356      5F7400
 2357              	.LASF131:
 2358 0388 63685468 		.ascii	"chThdCreateStatic\000"
 2358      64437265 
 2358      61746553 
 2358      74617469 
ARM GAS  C:\Users\jo\AppData\Local\Temp\cc2fkiA0.s 			page 45


 2358      6300
 2359              	.LASF39:
 2360 039a 705F7761 		.ascii	"p_waiting\000"
 2360      6974696E 
 2360      6700
 2361              	.LASF128:
 2362 03a4 70617474 		.ascii	"patternmsg\000"
 2362      65726E6D 
 2362      736700
 2363              	.LASF83:
 2364 03af 73697A65 		.ascii	"sizetype\000"
 2364      74797065 
 2364      00
 2365              	.LASF46:
 2366 03b8 74687265 		.ascii	"thread_reference_t\000"
 2366      61645F72 
 2366      65666572 
 2366      656E6365 
 2366      5F7400
 2367              	.LASF98:
 2368 03cb 746D5F63 		.ascii	"tm_calibration_t\000"
 2368      616C6962 
 2368      72617469 
 2368      6F6E5F74 
 2368      00
 2369              	.LASF69:
 2370 03dc 63685F76 		.ascii	"ch_virtual_timers_list\000"
 2370      69727475 
 2370      616C5F74 
 2370      696D6572 
 2370      735F6C69 
 2371              	.LASF92:
 2372 03f3 63685F73 		.ascii	"ch_swc_event_t\000"
 2372      77635F65 
 2372      76656E74 
 2372      5F7400
 2373              	.LASF70:
 2374 0402 76745F6C 		.ascii	"vt_lasttime\000"
 2374      61737474 
 2374      696D6500 
 2375              	.LASF33:
 2376 040e 705F6F6C 		.ascii	"p_older\000"
 2376      64657200 
 2377              	.LASF56:
 2378 0416 725F6374 		.ascii	"r_ctx\000"
 2378      7800
 2379              	.LASF122:
 2380 041c 63685468 		.ascii	"chThdGetPriorityX\000"
 2380      64476574 
 2380      5072696F 
 2380      72697479 
 2380      5800
 2381              	.LASF118:
 2382 042e 73657475 		.ascii	"setup\000"
 2382      7000
 2383              	.LASF132:
 2384 0434 5F746573 		.ascii	"_test_assert_sequence\000"
ARM GAS  C:\Users\jo\AppData\Local\Temp\cc2fkiA0.s 			page 46


 2384      745F6173 
 2384      73657274 
 2384      5F736571 
 2384      75656E63 
 2385              	.LASF59:
 2386 044a 725F6375 		.ascii	"r_current\000"
 2386      7272656E 
 2386      7400
 2387              	.LASF58:
 2388 0454 725F6F6C 		.ascii	"r_older\000"
 2388      64657200 
 2389              	.LASF136:
 2390 045c 2E2E2F2E 		.ascii	"../../../test/rt/testmsg.c\000"
 2390      2E2F2E2E 
 2390      2F746573 
 2390      742F7274 
 2390      2F746573 
 2391              	.LASF12:
 2392 0477 5F5F7569 		.ascii	"__uint64_t\000"
 2392      6E743634 
 2392      5F7400
 2393              	.LASF21:
 2394 0482 74726566 		.ascii	"trefs_t\000"
 2394      735F7400 
 2395              	.LASF95:
 2396 048a 74625F62 		.ascii	"tb_buffer\000"
 2396      75666665 
 2396      7200
 2397              	.LASF61:
 2398 0494 76697274 		.ascii	"virtual_timer_t\000"
 2398      75616C5F 
 2398      74696D65 
 2398      725F7400 
 2399              	.LASF29:
 2400 04a4 705F7072 		.ascii	"p_prev\000"
 2400      657600
 2401              	.LASF120:
 2402 04ab 65786563 		.ascii	"execute\000"
 2402      75746500 
 2403              	.LASF22:
 2404 04b3 74707269 		.ascii	"tprio_t\000"
 2404      6F5F7400 
 2405              	.LASF124:
 2406 04bb 74687265 		.ascii	"thread\000"
 2406      616400
 2407              	.LASF72:
 2408 04c2 63685F73 		.ascii	"ch_system_debug\000"
 2408      79737465 
 2408      6D5F6465 
 2408      62756700 
 2409              	.LASF133:
 2410 04d2 5F426F6F 		.ascii	"_Bool\000"
 2410      6C00
 2411              	.LASF15:
 2412 04d8 696E7433 		.ascii	"int32_t\000"
 2412      325F7400 
 2413              	.LASF4:
ARM GAS  C:\Users\jo\AppData\Local\Temp\cc2fkiA0.s 			page 47


 2414 04e0 756E7369 		.ascii	"unsigned char\000"
 2414      676E6564 
 2414      20636861 
 2414      7200
 2415              	.LASF43:
 2416 04ee 705F6D74 		.ascii	"p_mtxlist\000"
 2416      786C6973 
 2416      7400
 2417              	.LASF5:
 2418 04f8 73686F72 		.ascii	"short int\000"
 2418      7420696E 
 2418      7400
 2419              	.LASF36:
 2420 0502 705F7374 		.ascii	"p_state\000"
 2420      61746500 
 2421              	.LASF126:
 2422 050a 74687265 		.ascii	"threads\000"
 2422      61647300 
 2423              	.LASF55:
 2424 0512 725F7072 		.ascii	"r_prio\000"
 2424      696F00
 2425              	.LASF127:
 2426 0519 74657374 		.ascii	"testmsg1\000"
 2426      6D736731 
 2426      00
 2427              	.LASF105:
 2428 0522 65776D61 		.ascii	"ewmask\000"
 2428      736B00
 2429              	.LASF28:
 2430 0529 705F6E65 		.ascii	"p_next\000"
 2430      787400
 2431              	.LASF37:
 2432 0530 705F666C 		.ascii	"p_flags\000"
 2432      61677300 
 2433              	.LASF62:
 2434 0538 63685F76 		.ascii	"ch_virtual_timer\000"
 2434      69727475 
 2434      616C5F74 
 2434      696D6572 
 2434      00
 2435              	.LASF129:
 2436 0549 63684D73 		.ascii	"chMsgRelease\000"
 2436      6752656C 
 2436      65617365 
 2436      00
 2437              	.LASF116:
 2438 0556 74657374 		.ascii	"testcase\000"
 2438      63617365 
 2438      00
 2439              	.LASF106:
 2440 055f 63685F73 		.ascii	"ch_semaphore\000"
 2440      656D6170 
 2440      686F7265 
 2440      00
 2441              	.LASF42:
 2442 056c 705F6570 		.ascii	"p_epending\000"
 2442      656E6469 
ARM GAS  C:\Users\jo\AppData\Local\Temp\cc2fkiA0.s 			page 48


 2442      6E6700
 2443              	.LASF16:
 2444 0577 75696E74 		.ascii	"uint32_t\000"
 2444      33325F74 
 2444      00
 2445              	.LASF104:
 2446 0580 77746D74 		.ascii	"wtmtxp\000"
 2446      787000
 2447              	.LASF54:
 2448 0587 725F7175 		.ascii	"r_queue\000"
 2448      65756500 
 2449              	.LASF65:
 2450 058f 76745F64 		.ascii	"vt_delta\000"
 2450      656C7461 
 2450      00
 2451              	.LASF49:
 2452 0598 63685F74 		.ascii	"ch_threads_list\000"
 2452      68726561 
 2452      64735F6C 
 2452      69737400 
 2453              	.LASF10:
 2454 05a8 6C6F6E67 		.ascii	"long unsigned int\000"
 2454      20756E73 
 2454      69676E65 
 2454      6420696E 
 2454      7400
 2455              	.LASF113:
 2456 05ba 63686172 		.ascii	"char\000"
 2456      00
 2457              	.LASF27:
 2458 05bf 74687265 		.ascii	"thread_t\000"
 2458      61645F74 
 2458      00
 2459              	.LASF112:
 2460 05c8 6D5F6E65 		.ascii	"m_next\000"
 2460      787400
 2461              	.LASF26:
 2462 05cf 73797374 		.ascii	"systime_t\000"
 2462      696D655F 
 2462      7400
 2463              	.LASF44:
 2464 05d9 705F7265 		.ascii	"p_realprio\000"
 2464      616C7072 
 2464      696F00
 2465              	.LASF60:
 2466 05e4 76746675 		.ascii	"vtfunc_t\000"
 2466      6E635F74 
 2466      00
 2467              	.LASF9:
 2468 05ed 5F5F7569 		.ascii	"__uint32_t\000"
 2468      6E743332 
 2468      5F7400
 2469              	.LASF73:
 2470 05f8 70616E69 		.ascii	"panic_msg\000"
 2470      635F6D73 
 2470      6700
 2471              	.LASF97:
ARM GAS  C:\Users\jo\AppData\Local\Temp\cc2fkiA0.s 			page 49


 2472 0602 6F666673 		.ascii	"offset\000"
 2472      657400
 2473              	.LASF86:
 2474 0609 636F6E74 		.ascii	"context\000"
 2474      65787400 
 2475              	.LASF18:
 2476 0611 7274636E 		.ascii	"rtcnt_t\000"
 2476      745F7400 
 2477              	.LASF67:
 2478 0619 76745F70 		.ascii	"vt_par\000"
 2478      617200
 2479              	.LASF139:
 2480 0620 63684D73 		.ascii	"chMsgWait\000"
 2480      67576169 
 2480      7400
 2481              	.LASF50:
 2482 062a 74687265 		.ascii	"threads_queue_t\000"
 2482      6164735F 
 2482      71756575 
 2482      655F7400 
 2483              	.LASF109:
 2484 063a 63685F6D 		.ascii	"ch_mutex\000"
 2484      75746578 
 2484      00
 2485              	.LASF38:
 2486 0643 705F7265 		.ascii	"p_refs\000"
 2486      667300
 2487              	.LASF74:
 2488 064a 6973725F 		.ascii	"isr_cnt\000"
 2488      636E7400 
 2489              	.LASF79:
 2490 0652 726C6973 		.ascii	"rlist\000"
 2490      7400
 2491              	.LASF121:
 2492 0658 63685468 		.ascii	"chThdGetSelfX\000"
 2492      64476574 
 2492      53656C66 
 2492      5800
 2493              	.LASF14:
 2494 0666 75696E74 		.ascii	"uint8_t\000"
 2494      385F7400 
 2495              	.LASF123:
 2496 066e 6D736731 		.ascii	"msg1_execute\000"
 2496      5F657865 
 2496      63757465 
 2496      00
 2497              	.LASF101:
 2498 067b 77746F62 		.ascii	"wtobjp\000"
 2498      6A7000
 2499              	.LASF34:
 2500 0682 705F6E61 		.ascii	"p_name\000"
 2500      6D6500
 2501              	.LASF47:
 2502 0689 74687265 		.ascii	"threads_list_t\000"
 2502      6164735F 
 2502      6C697374 
 2502      5F7400
ARM GAS  C:\Users\jo\AppData\Local\Temp\cc2fkiA0.s 			page 50


 2503              	.LASF76:
 2504 0698 74726163 		.ascii	"trace_buffer\000"
 2504      655F6275 
 2504      66666572 
 2504      00
 2505              	.LASF41:
 2506 06a5 705F6D73 		.ascii	"p_msg\000"
 2506      6700
 2507              	.LASF111:
 2508 06ab 6D5F6F77 		.ascii	"m_owner\000"
 2508      6E657200 
 2509              	.LASF90:
 2510 06b3 73655F77 		.ascii	"se_wtobjp\000"
 2510      746F626A 
 2510      7000
 2511              	.LASF31:
 2512 06bd 705F6374 		.ascii	"p_ctx\000"
 2512      7800
 2513              	.LASF66:
 2514 06c3 76745F66 		.ascii	"vt_func\000"
 2514      756E6300 
 2515              		.ident	"GCC: (GNU Tools for ARM Embedded Processors) 4.9.3 20141119 (release) [ARM/embedded-4_9-br
ARM GAS  C:\Users\jo\AppData\Local\Temp\cc2fkiA0.s 			page 51


DEFINED SYMBOLS
                            *ABS*:00000000 testmsg.c
C:\Users\jo\AppData\Local\Temp\cc2fkiA0.s:19     .text.msg1_execute:00000000 $t
C:\Users\jo\AppData\Local\Temp\cc2fkiA0.s:24     .text.msg1_execute:00000000 msg1_execute
C:\Users\jo\AppData\Local\Temp\cc2fkiA0.s:129    .text.msg1_execute:00000064 $d
C:\Users\jo\AppData\Local\Temp\cc2fkiA0.s:143    .text.thread:00000000 thread
C:\Users\jo\AppData\Local\Temp\cc2fkiA0.s:138    .text.thread:00000000 $t
C:\Users\jo\AppData\Local\Temp\cc2fkiA0.s:202    .rodata.patternmsg:00000000 patternmsg
C:\Users\jo\AppData\Local\Temp\cc2fkiA0.s:187    .rodata.testmsg1:00000000 testmsg1
C:\Users\jo\AppData\Local\Temp\cc2fkiA0.s:184    .rodata.testmsg1:00000000 $d
C:\Users\jo\AppData\Local\Temp\cc2fkiA0.s:193    .rodata.str1.4:00000000 $d
C:\Users\jo\AppData\Local\Temp\cc2fkiA0.s:199    .rodata.patternmsg:00000000 $d
                     .debug_frame:00000010 $d
C:\Users\jo\AppData\Local\Temp\cc2fkiA0.s:137    .text.msg1_execute:00000078 $t

UNDEFINED SYMBOLS
chThdCreateStatic
chMsgWait
chMsgRelease
test_emit_token
_test_assert_sequence
ch
wa
threads
chMsgSend
