ARM GAS  C:\Users\jo\AppData\Local\Temp\ccs6rMSa.s 			page 1


   1              		.syntax unified
   2              		.cpu cortex-m4
   3              		.fpu softvfp
   4              		.eabi_attribute 20, 1
   5              		.eabi_attribute 21, 1
   6              		.eabi_attribute 23, 3
   7              		.eabi_attribute 24, 1
   8              		.eabi_attribute 25, 1
   9              		.eabi_attribute 26, 1
  10              		.eabi_attribute 30, 2
  11              		.eabi_attribute 34, 1
  12              		.eabi_attribute 18, 4
  13              		.thumb
  14              		.file	"testpools.c"
  15              		.text
  16              	.Ltext0:
  17              		.cfi_sections	.debug_frame
  18              		.section	.text.null_provider,"ax",%progbits
  19              		.align	2
  20              		.p2align 4,,15
  21              		.thumb
  22              		.thumb_func
  23              		.type	null_provider, %function
  24              	null_provider:
  25              	.LFB228:
  26              		.file 1 "../../../test/rt/testpools.c"
  27              		.loc 1 60 0
  28              		.cfi_startproc
  29              		@ args = 0, pretend = 0, frame = 0
  30              		@ frame_needed = 0, uses_anonymous_args = 0
  31              		@ link register save eliminated.
  32              	.LVL0:
  33              		.loc 1 64 0
  34 0000 0020     		movs	r0, #0
  35              	.LVL1:
  36 0002 7047     		bx	lr
  37              		.cfi_endproc
  38              	.LFE228:
  39              		.size	null_provider, .-null_provider
  40 0004 AFF30080 		.section	.text.pools1_setup,"ax",%progbits
  40      AFF30080 
  40      AFF30080 
  41              		.align	2
  42              		.p2align 4,,15
  43              		.thumb
  44              		.thumb_func
  45              		.type	pools1_setup, %function
  46              	pools1_setup:
  47              	.LFB229:
  48              		.loc 1 66 0
  49              		.cfi_startproc
  50              		@ args = 0, pretend = 0, frame = 0
  51              		@ frame_needed = 0, uses_anonymous_args = 0
  52              		@ link register save eliminated.
  53              		.loc 1 68 0
  54 0000 0248     		ldr	r0, .L3
  55 0002 4FF4A871 		mov	r1, #336
ARM GAS  C:\Users\jo\AppData\Local\Temp\ccs6rMSa.s 			page 2


  56 0006 0022     		movs	r2, #0
  57 0008 FFF7FEBF 		b	chPoolObjectInit
  58              	.LVL2:
  59              	.L4:
  60              		.align	2
  61              	.L3:
  62 000c 00000000 		.word	.LANCHOR0
  63              		.cfi_endproc
  64              	.LFE229:
  65              		.size	pools1_setup, .-pools1_setup
  66              		.section	.text.pools1_execute,"ax",%progbits
  67              		.align	2
  68              		.p2align 4,,15
  69              		.thumb
  70              		.thumb_func
  71              		.type	pools1_execute, %function
  72              	pools1_execute:
  73              	.LFB230:
  74              		.loc 1 71 0
  75              		.cfi_startproc
  76              		@ args = 0, pretend = 0, frame = 0
  77              		@ frame_needed = 0, uses_anonymous_args = 0
  78 0000 38B5     		push	{r3, r4, r5, lr}
  79              		.cfi_def_cfa_offset 16
  80              		.cfi_offset 3, -16
  81              		.cfi_offset 4, -12
  82              		.cfi_offset 5, -8
  83              		.cfi_offset 14, -4
  84              		.loc 1 75 0
  85 0002 2B4B     		ldr	r3, .L19
  86 0004 2B48     		ldr	r0, .L19+4
  87 0006 1D68     		ldr	r5, [r3]
  88 0008 0522     		movs	r2, #5
  89 000a 2946     		mov	r1, r5
  90 000c FFF7FEFF 		bl	chPoolLoadArray
  91              	.LVL3:
  92 0010 0524     		movs	r4, #5
  93              	.LVL4:
  94              	.L8:
  95              		.loc 1 79 0
  96 0012 2848     		ldr	r0, .L19+4
  97 0014 FFF7FEFF 		bl	chPoolAlloc
  98              	.LVL5:
  99 0018 011C     		adds	r1, r0, #0
 100 001a 18BF     		it	ne
 101 001c 0121     		movne	r1, #1
 102 001e 0120     		movs	r0, #1
 103 0020 FFF7FEFF 		bl	_test_assert
 104              	.LVL6:
 105 0024 90BB     		cbnz	r0, .L5
 106              		.loc 1 78 0 discriminator 2
 107 0026 013C     		subs	r4, r4, #1
 108              	.LVL7:
 109 0028 F3D1     		bne	.L8
 110              		.loc 1 82 0
 111 002a 2248     		ldr	r0, .L19+4
 112 002c FFF7FEFF 		bl	chPoolAlloc
ARM GAS  C:\Users\jo\AppData\Local\Temp\ccs6rMSa.s 			page 3


 113              	.LVL8:
 114 0030 B0FA80F1 		clz	r1, r0
 115 0034 0220     		movs	r0, #2
 116 0036 4909     		lsrs	r1, r1, #5
 117 0038 FFF7FEFF 		bl	_test_assert
 118              	.LVL9:
 119 003c 30BB     		cbnz	r0, .L5
 120 003e 1C4C     		ldr	r4, .L19
 121              	.LVL10:
 122              	.LBB4:
 123              	.LBB5:
 124              		.loc 1 86 0
 125 0040 1C48     		ldr	r0, .L19+4
 126              	.LBE5:
 127              	.LBE4:
 128              		.loc 1 82 0
 129 0042 2946     		mov	r1, r5
 130 0044 04F11005 		add	r5, r4, #16
 131              	.LBB8:
 132              	.LBB6:
 133              		.loc 1 86 0
 134 0048 FFF7FEFF 		bl	chPoolFree
 135              	.LVL11:
 136              		.loc 1 85 0
 137 004c AC42     		cmp	r4, r5
 138 004e 06D0     		beq	.L12
 139              	.L17:
 140 0050 54F8041F 		ldr	r1, [r4, #4]!
 141              		.loc 1 86 0
 142 0054 1748     		ldr	r0, .L19+4
 143 0056 FFF7FEFF 		bl	chPoolFree
 144              	.LVL12:
 145              		.loc 1 85 0
 146 005a AC42     		cmp	r4, r5
 147 005c F8D1     		bne	.L17
 148              	.L12:
 149 005e 0524     		movs	r4, #5
 150              	.L10:
 151              	.LVL13:
 152              		.loc 1 90 0
 153 0060 1448     		ldr	r0, .L19+4
 154 0062 FFF7FEFF 		bl	chPoolAlloc
 155              	.LVL14:
 156 0066 011C     		adds	r1, r0, #0
 157 0068 18BF     		it	ne
 158 006a 0121     		movne	r1, #1
 159 006c 0320     		movs	r0, #3
 160 006e FFF7FEFF 		bl	_test_assert
 161              	.LVL15:
 162 0072 58B9     		cbnz	r0, .L5
 163              		.loc 1 89 0
 164 0074 013C     		subs	r4, r4, #1
 165              	.LVL16:
 166 0076 F3D1     		bne	.L10
 167              		.loc 1 93 0
 168 0078 0E48     		ldr	r0, .L19+4
 169 007a FFF7FEFF 		bl	chPoolAlloc
ARM GAS  C:\Users\jo\AppData\Local\Temp\ccs6rMSa.s 			page 4


 170              	.LVL17:
 171 007e B0FA80F1 		clz	r1, r0
 172 0082 0420     		movs	r0, #4
 173 0084 4909     		lsrs	r1, r1, #5
 174 0086 FFF7FEFF 		bl	_test_assert
 175              	.LVL18:
 176 008a 00B1     		cbz	r0, .L18
 177              	.LVL19:
 178              	.L5:
 179 008c 38BD     		pop	{r3, r4, r5, pc}
 180              	.LVL20:
 181              	.L18:
 182              		.loc 1 96 0
 183 008e 1021     		movs	r1, #16
 184 0090 0848     		ldr	r0, .L19+4
 185 0092 094A     		ldr	r2, .L19+8
 186 0094 FFF7FEFF 		bl	chPoolObjectInit
 187              	.LVL21:
 188              		.loc 1 97 0
 189 0098 0648     		ldr	r0, .L19+4
 190 009a FFF7FEFF 		bl	chPoolAlloc
 191              	.LVL22:
 192              	.LBE6:
 193              	.LBE8:
 194              		.loc 1 98 0
 195 009e BDE83840 		pop	{r3, r4, r5, lr}
 196              		.cfi_restore 14
 197              		.cfi_restore 5
 198              		.cfi_restore 4
 199              		.cfi_restore 3
 200              		.cfi_def_cfa_offset 0
 201              	.LVL23:
 202              	.LBB9:
 203              	.LBB7:
 204              		.loc 1 97 0
 205 00a2 B0FA80F1 		clz	r1, r0
 206 00a6 0520     		movs	r0, #5
 207 00a8 4909     		lsrs	r1, r1, #5
 208 00aa FFF7FEBF 		b	_test_assert
 209              	.LVL24:
 210              	.L20:
 211 00ae 00BF     		.align	2
 212              	.L19:
 213 00b0 00000000 		.word	wa
 214 00b4 00000000 		.word	.LANCHOR0
 215 00b8 00000000 		.word	null_provider
 216              	.LBE7:
 217              	.LBE9:
 218              		.cfi_endproc
 219              	.LFE230:
 220              		.size	pools1_execute, .-pools1_execute
 221              		.global	patternpools
 222              		.global	testpools1
 223 00bc AFF30080 		.section	.rodata.str1.4,"aMS",%progbits,1
 224              		.align	2
 225              	.LC0:
 226 0000 4D656D6F 		.ascii	"Memory Pools, queue/dequeue\000"
ARM GAS  C:\Users\jo\AppData\Local\Temp\ccs6rMSa.s 			page 5


 226      72792050 
 226      6F6F6C73 
 226      2C207175 
 226      6575652F 
 227              		.section	.rodata.patternpools,"a",%progbits
 228              		.align	2
 229              		.type	patternpools, %object
 230              		.size	patternpools, 8
 231              	patternpools:
 232 0000 00000000 		.word	testpools1
 233 0004 00000000 		.word	0
 234              		.section	.data.mp1,"aw",%progbits
 235              		.align	2
 236              		.set	.LANCHOR0,. + 0
 237              		.type	mp1, %object
 238              		.size	mp1, 12
 239              	mp1:
 240 0000 00000000 		.word	0
 241 0004 50010000 		.word	336
 242 0008 00000000 		.word	0
 243              		.section	.rodata.testpools1,"a",%progbits
 244              		.align	2
 245              		.type	testpools1, %object
 246              		.size	testpools1, 16
 247              	testpools1:
 248 0000 00000000 		.word	.LC0
 249 0004 00000000 		.word	pools1_setup
 250 0008 00000000 		.word	0
 251 000c 00000000 		.word	pools1_execute
 252              		.text
 253              	.Letext0:
 254              		.file 2 "c:\\program files\\gnu tools arm embedded\\4.9 2014q4\\lib\\gcc\\arm-none-eabi\\4.9.3\\in
 255              		.file 3 "c:\\program files\\gnu tools arm embedded\\4.9 2014q4\\arm-none-eabi\\include\\machine\\_
 256              		.file 4 "c:\\program files\\gnu tools arm embedded\\4.9 2014q4\\arm-none-eabi\\include\\stdint.h"
 257              		.file 5 "../../../os/rt/ports/ARMCMx/compilers/GCC/chtypes.h"
 258              		.file 6 "../../../os/rt/include/chsystypes.h"
 259              		.file 7 "../../../os/rt/include/chschd.h"
 260              		.file 8 "../../../os/rt/ports/ARMCMx/chcore.h"
 261              		.file 9 "../../../os/rt/ports/ARMCMx/chcore_v7m.h"
 262              		.file 10 "../../../os/rt/include/chdebug.h"
 263              		.file 11 "../../../os/rt/include/chtm.h"
 264              		.file 12 "../../../os/rt/include/chsem.h"
 265              		.file 13 "../../../os/rt/include/chmtx.h"
 266              		.file 14 "../../../os/rt/include/chmemcore.h"
 267              		.file 15 "../../../os/rt/include/chmempools.h"
 268              		.file 16 "../../../test/rt/test.h"
 269              		.file 17 "../../../os/ext/CMSIS/include/core_cm4.h"
 270              		.section	.debug_info,"",%progbits
 271              	.Ldebug_info0:
 272 0000 A00A0000 		.4byte	0xaa0
 273 0004 0400     		.2byte	0x4
 274 0006 00000000 		.4byte	.Ldebug_abbrev0
 275 000a 04       		.byte	0x4
 276 000b 01       		.uleb128 0x1
 277 000c B0020000 		.4byte	.LASF135
 278 0010 01       		.byte	0x1
 279 0011 79060000 		.4byte	.LASF136
ARM GAS  C:\Users\jo\AppData\Local\Temp\ccs6rMSa.s 			page 6


 280 0015 E6000000 		.4byte	.LASF137
 281 0019 20000000 		.4byte	.Ldebug_ranges0+0x20
 282 001d 00000000 		.4byte	0
 283 0021 00000000 		.4byte	.Ldebug_line0
 284 0025 02       		.uleb128 0x2
 285 0026 04       		.byte	0x4
 286 0027 05       		.byte	0x5
 287 0028 696E7400 		.ascii	"int\000"
 288 002c 03       		.uleb128 0x3
 289 002d 1C000000 		.4byte	.LASF2
 290 0031 02       		.byte	0x2
 291 0032 D4       		.byte	0xd4
 292 0033 37000000 		.4byte	0x37
 293 0037 04       		.uleb128 0x4
 294 0038 04       		.byte	0x4
 295 0039 07       		.byte	0x7
 296 003a FB010000 		.4byte	.LASF0
 297 003e 04       		.uleb128 0x4
 298 003f 01       		.byte	0x1
 299 0040 06       		.byte	0x6
 300 0041 42010000 		.4byte	.LASF1
 301 0045 03       		.uleb128 0x3
 302 0046 33000000 		.4byte	.LASF3
 303 004a 03       		.byte	0x3
 304 004b 1D       		.byte	0x1d
 305 004c 50000000 		.4byte	0x50
 306 0050 04       		.uleb128 0x4
 307 0051 01       		.byte	0x1
 308 0052 08       		.byte	0x8
 309 0053 B2040000 		.4byte	.LASF4
 310 0057 04       		.uleb128 0x4
 311 0058 02       		.byte	0x2
 312 0059 05       		.byte	0x5
 313 005a CA040000 		.4byte	.LASF5
 314 005e 04       		.uleb128 0x4
 315 005f 02       		.byte	0x2
 316 0060 07       		.byte	0x7
 317 0061 44020000 		.4byte	.LASF6
 318 0065 03       		.uleb128 0x3
 319 0066 A6020000 		.4byte	.LASF7
 320 006a 03       		.byte	0x3
 321 006b 3F       		.byte	0x3f
 322 006c 70000000 		.4byte	0x70
 323 0070 04       		.uleb128 0x4
 324 0071 04       		.byte	0x4
 325 0072 05       		.byte	0x5
 326 0073 75010000 		.4byte	.LASF8
 327 0077 03       		.uleb128 0x3
 328 0078 B8050000 		.4byte	.LASF9
 329 007c 03       		.byte	0x3
 330 007d 41       		.byte	0x41
 331 007e 82000000 		.4byte	0x82
 332 0082 04       		.uleb128 0x4
 333 0083 04       		.byte	0x4
 334 0084 07       		.byte	0x7
 335 0085 66050000 		.4byte	.LASF10
 336 0089 04       		.uleb128 0x4
ARM GAS  C:\Users\jo\AppData\Local\Temp\ccs6rMSa.s 			page 7


 337 008a 08       		.byte	0x8
 338 008b 05       		.byte	0x5
 339 008c 34010000 		.4byte	.LASF11
 340 0090 03       		.uleb128 0x3
 341 0091 48040000 		.4byte	.LASF12
 342 0095 03       		.byte	0x3
 343 0096 5B       		.byte	0x5b
 344 0097 9B000000 		.4byte	0x9b
 345 009b 04       		.uleb128 0x4
 346 009c 08       		.byte	0x8
 347 009d 07       		.byte	0x7
 348 009e 65000000 		.4byte	.LASF13
 349 00a2 03       		.uleb128 0x3
 350 00a3 33060000 		.4byte	.LASF14
 351 00a7 04       		.byte	0x4
 352 00a8 15       		.byte	0x15
 353 00a9 45000000 		.4byte	0x45
 354 00ad 03       		.uleb128 0x3
 355 00ae AA040000 		.4byte	.LASF15
 356 00b2 04       		.byte	0x4
 357 00b3 2C       		.byte	0x2c
 358 00b4 65000000 		.4byte	0x65
 359 00b8 03       		.uleb128 0x3
 360 00b9 32050000 		.4byte	.LASF16
 361 00bd 04       		.byte	0x4
 362 00be 2D       		.byte	0x2d
 363 00bf 77000000 		.4byte	0x77
 364 00c3 03       		.uleb128 0x3
 365 00c4 2A000000 		.4byte	.LASF17
 366 00c8 04       		.byte	0x4
 367 00c9 39       		.byte	0x39
 368 00ca 90000000 		.4byte	0x90
 369 00ce 05       		.uleb128 0x5
 370 00cf AD000000 		.4byte	0xad
 371 00d3 03       		.uleb128 0x3
 372 00d4 F3050000 		.4byte	.LASF18
 373 00d8 05       		.byte	0x5
 374 00d9 45       		.byte	0x45
 375 00da B8000000 		.4byte	0xb8
 376 00de 03       		.uleb128 0x3
 377 00df 73020000 		.4byte	.LASF19
 378 00e3 05       		.byte	0x5
 379 00e4 48       		.byte	0x48
 380 00e5 A2000000 		.4byte	0xa2
 381 00e9 03       		.uleb128 0x3
 382 00ea 7E010000 		.4byte	.LASF20
 383 00ee 05       		.byte	0x5
 384 00ef 49       		.byte	0x49
 385 00f0 A2000000 		.4byte	0xa2
 386 00f4 03       		.uleb128 0x3
 387 00f5 5B040000 		.4byte	.LASF21
 388 00f9 05       		.byte	0x5
 389 00fa 4A       		.byte	0x4a
 390 00fb A2000000 		.4byte	0xa2
 391 00ff 03       		.uleb128 0x3
 392 0100 8C040000 		.4byte	.LASF22
 393 0104 05       		.byte	0x5
ARM GAS  C:\Users\jo\AppData\Local\Temp\ccs6rMSa.s 			page 8


 394 0105 4C       		.byte	0x4c
 395 0106 B8000000 		.4byte	0xb8
 396 010a 03       		.uleb128 0x3
 397 010b 61020000 		.4byte	.LASF23
 398 010f 05       		.byte	0x5
 399 0110 4D       		.byte	0x4d
 400 0111 AD000000 		.4byte	0xad
 401 0115 03       		.uleb128 0x3
 402 0116 9A020000 		.4byte	.LASF24
 403 011a 05       		.byte	0x5
 404 011b 4F       		.byte	0x4f
 405 011c B8000000 		.4byte	0xb8
 406 0120 03       		.uleb128 0x3
 407 0121 EA010000 		.4byte	.LASF25
 408 0125 05       		.byte	0x5
 409 0126 51       		.byte	0x51
 410 0127 AD000000 		.4byte	0xad
 411 012b 03       		.uleb128 0x3
 412 012c 9A050000 		.4byte	.LASF26
 413 0130 06       		.byte	0x6
 414 0131 33       		.byte	0x33
 415 0132 B8000000 		.4byte	0xb8
 416 0136 03       		.uleb128 0x3
 417 0137 8A050000 		.4byte	.LASF27
 418 013b 06       		.byte	0x6
 419 013c 3F       		.byte	0x3f
 420 013d 41010000 		.4byte	0x141
 421 0141 06       		.uleb128 0x6
 422 0142 57020000 		.4byte	.LASF48
 423 0146 48       		.byte	0x48
 424 0147 07       		.byte	0x7
 425 0148 C2       		.byte	0xc2
 426 0149 3A020000 		.4byte	0x23a
 427 014d 07       		.uleb128 0x7
 428 014e EA040000 		.4byte	.LASF28
 429 0152 07       		.byte	0x7
 430 0153 C3       		.byte	0xc3
 431 0154 45020000 		.4byte	0x245
 432 0158 00       		.byte	0
 433 0159 07       		.uleb128 0x7
 434 015a 7D040000 		.4byte	.LASF29
 435 015e 07       		.byte	0x7
 436 015f C5       		.byte	0xc5
 437 0160 45020000 		.4byte	0x245
 438 0164 04       		.byte	0x4
 439 0165 07       		.uleb128 0x7
 440 0166 DF000000 		.4byte	.LASF30
 441 016a 07       		.byte	0x7
 442 016b C7       		.byte	0xc7
 443 016c FF000000 		.4byte	0xff
 444 0170 08       		.byte	0x8
 445 0171 07       		.uleb128 0x7
 446 0172 D4060000 		.4byte	.LASF31
 447 0176 07       		.byte	0x7
 448 0177 C8       		.byte	0xc8
 449 0178 A0040000 		.4byte	0x4a0
 450 017c 0C       		.byte	0xc
ARM GAS  C:\Users\jo\AppData\Local\Temp\ccs6rMSa.s 			page 9


 451 017d 07       		.uleb128 0x7
 452 017e 8D010000 		.4byte	.LASF32
 453 0182 07       		.byte	0x7
 454 0183 CA       		.byte	0xca
 455 0184 45020000 		.4byte	0x245
 456 0188 10       		.byte	0x10
 457 0189 07       		.uleb128 0x7
 458 018a F5030000 		.4byte	.LASF33
 459 018e 07       		.byte	0x7
 460 018f CB       		.byte	0xcb
 461 0190 45020000 		.4byte	0x245
 462 0194 14       		.byte	0x14
 463 0195 07       		.uleb128 0x7
 464 0196 F9040000 		.4byte	.LASF34
 465 019a 07       		.byte	0x7
 466 019b D2       		.byte	0xd2
 467 019c B2060000 		.4byte	0x6b2
 468 01a0 18       		.byte	0x18
 469 01a1 07       		.uleb128 0x7
 470 01a2 F0010000 		.4byte	.LASF35
 471 01a6 07       		.byte	0x7
 472 01a7 D8       		.byte	0xd8
 473 01a8 C4060000 		.4byte	0x6c4
 474 01ac 1C       		.byte	0x1c
 475 01ad 07       		.uleb128 0x7
 476 01ae D4040000 		.4byte	.LASF36
 477 01b2 07       		.byte	0x7
 478 01b3 DD       		.byte	0xdd
 479 01b4 E9000000 		.4byte	0xe9
 480 01b8 20       		.byte	0x20
 481 01b9 07       		.uleb128 0x7
 482 01ba F1040000 		.4byte	.LASF37
 483 01be 07       		.byte	0x7
 484 01bf E1       		.byte	0xe1
 485 01c0 DE000000 		.4byte	0xde
 486 01c4 21       		.byte	0x21
 487 01c5 07       		.uleb128 0x7
 488 01c6 1E060000 		.4byte	.LASF38
 489 01ca 07       		.byte	0x7
 490 01cb E6       		.byte	0xe6
 491 01cc F4000000 		.4byte	0xf4
 492 01d0 22       		.byte	0x22
 493 01d1 08       		.uleb128 0x8
 494 01d2 705F7500 		.ascii	"p_u\000"
 495 01d6 07       		.byte	0x7
 496 01d7 3101     		.2byte	0x131
 497 01d9 ED050000 		.4byte	0x5ed
 498 01dd 24       		.byte	0x24
 499 01de 09       		.uleb128 0x9
 500 01df 95030000 		.4byte	.LASF39
 501 01e3 07       		.byte	0x7
 502 01e4 3601     		.2byte	0x136
 503 01e6 4B020000 		.4byte	0x24b
 504 01ea 28       		.byte	0x28
 505 01eb 09       		.uleb128 0x9
 506 01ec 17020000 		.4byte	.LASF40
 507 01f0 07       		.byte	0x7
ARM GAS  C:\Users\jo\AppData\Local\Temp\ccs6rMSa.s 			page 10


 508 01f1 3C01     		.2byte	0x13c
 509 01f3 6F020000 		.4byte	0x26f
 510 01f7 2C       		.byte	0x2c
 511 01f8 09       		.uleb128 0x9
 512 01f9 ED050000 		.4byte	.LASF41
 513 01fd 07       		.byte	0x7
 514 01fe 4001     		.2byte	0x140
 515 0200 0A010000 		.4byte	0x10a
 516 0204 34       		.byte	0x34
 517 0205 09       		.uleb128 0x9
 518 0206 27050000 		.4byte	.LASF42
 519 020a 07       		.byte	0x7
 520 020b 4601     		.2byte	0x146
 521 020d 15010000 		.4byte	0x115
 522 0211 38       		.byte	0x38
 523 0212 09       		.uleb128 0x9
 524 0213 C0040000 		.4byte	.LASF43
 525 0217 07       		.byte	0x7
 526 0218 4D01     		.2byte	0x14d
 527 021a AC060000 		.4byte	0x6ac
 528 021e 3C       		.byte	0x3c
 529 021f 09       		.uleb128 0x9
 530 0220 A4050000 		.4byte	.LASF44
 531 0224 07       		.byte	0x7
 532 0225 5101     		.2byte	0x151
 533 0227 FF000000 		.4byte	0xff
 534 022b 40       		.byte	0x40
 535 022c 09       		.uleb128 0x9
 536 022d 4E010000 		.4byte	.LASF45
 537 0231 07       		.byte	0x7
 538 0232 5801     		.2byte	0x158
 539 0234 22030000 		.4byte	0x322
 540 0238 44       		.byte	0x44
 541 0239 00       		.byte	0
 542 023a 03       		.uleb128 0x3
 543 023b A8030000 		.4byte	.LASF46
 544 023f 06       		.byte	0x6
 545 0240 44       		.byte	0x44
 546 0241 45020000 		.4byte	0x245
 547 0245 0A       		.uleb128 0xa
 548 0246 04       		.byte	0x4
 549 0247 36010000 		.4byte	0x136
 550 024b 03       		.uleb128 0x3
 551 024c 96060000 		.4byte	.LASF47
 552 0250 06       		.byte	0x6
 553 0251 49       		.byte	0x49
 554 0252 56020000 		.4byte	0x256
 555 0256 06       		.uleb128 0x6
 556 0257 56050000 		.4byte	.LASF49
 557 025b 04       		.byte	0x4
 558 025c 07       		.byte	0x7
 559 025d B0       		.byte	0xb0
 560 025e 6F020000 		.4byte	0x26f
 561 0262 07       		.uleb128 0x7
 562 0263 EA040000 		.4byte	.LASF28
 563 0267 07       		.byte	0x7
 564 0268 B1       		.byte	0xb1
ARM GAS  C:\Users\jo\AppData\Local\Temp\ccs6rMSa.s 			page 11


 565 0269 45020000 		.4byte	0x245
 566 026d 00       		.byte	0
 567 026e 00       		.byte	0
 568 026f 03       		.uleb128 0x3
 569 0270 02060000 		.4byte	.LASF50
 570 0274 06       		.byte	0x6
 571 0275 50       		.byte	0x50
 572 0276 7A020000 		.4byte	0x27a
 573 027a 06       		.uleb128 0x6
 574 027b CE000000 		.4byte	.LASF51
 575 027f 08       		.byte	0x8
 576 0280 07       		.byte	0x7
 577 0281 B7       		.byte	0xb7
 578 0282 9F020000 		.4byte	0x29f
 579 0286 07       		.uleb128 0x7
 580 0287 EA040000 		.4byte	.LASF28
 581 028b 07       		.byte	0x7
 582 028c B8       		.byte	0xb8
 583 028d 45020000 		.4byte	0x245
 584 0291 00       		.byte	0
 585 0292 07       		.uleb128 0x7
 586 0293 7D040000 		.4byte	.LASF29
 587 0297 07       		.byte	0x7
 588 0298 B9       		.byte	0xb9
 589 0299 45020000 		.4byte	0x245
 590 029d 04       		.byte	0x4
 591 029e 00       		.byte	0
 592 029f 03       		.uleb128 0x3
 593 02a0 07000000 		.4byte	.LASF52
 594 02a4 06       		.byte	0x6
 595 02a5 57       		.byte	0x57
 596 02a6 AA020000 		.4byte	0x2aa
 597 02aa 0B       		.uleb128 0xb
 598 02ab 8C020000 		.4byte	.LASF53
 599 02af 1C       		.byte	0x1c
 600 02b0 07       		.byte	0x7
 601 02b1 9001     		.2byte	0x190
 602 02b3 06030000 		.4byte	0x306
 603 02b7 09       		.uleb128 0x9
 604 02b8 D2030000 		.4byte	.LASF54
 605 02bc 07       		.byte	0x7
 606 02bd 9101     		.2byte	0x191
 607 02bf 6F020000 		.4byte	0x26f
 608 02c3 00       		.byte	0
 609 02c4 09       		.uleb128 0x9
 610 02c5 DC040000 		.4byte	.LASF55
 611 02c9 07       		.byte	0x7
 612 02ca 9201     		.2byte	0x192
 613 02cc FF000000 		.4byte	0xff
 614 02d0 08       		.byte	0x8
 615 02d1 09       		.uleb128 0x9
 616 02d2 FD030000 		.4byte	.LASF56
 617 02d6 07       		.byte	0x7
 618 02d7 9401     		.2byte	0x194
 619 02d9 A0040000 		.4byte	0x4a0
 620 02dd 0C       		.byte	0xc
 621 02de 09       		.uleb128 0x9
ARM GAS  C:\Users\jo\AppData\Local\Temp\ccs6rMSa.s 			page 12


 622 02df A5010000 		.4byte	.LASF57
 623 02e3 07       		.byte	0x7
 624 02e4 9701     		.2byte	0x197
 625 02e6 45020000 		.4byte	0x245
 626 02ea 10       		.byte	0x10
 627 02eb 09       		.uleb128 0x9
 628 02ec 33040000 		.4byte	.LASF58
 629 02f0 07       		.byte	0x7
 630 02f1 9801     		.2byte	0x198
 631 02f3 45020000 		.4byte	0x245
 632 02f7 14       		.byte	0x14
 633 02f8 09       		.uleb128 0x9
 634 02f9 29040000 		.4byte	.LASF59
 635 02fd 07       		.byte	0x7
 636 02fe 9B01     		.2byte	0x19b
 637 0300 45020000 		.4byte	0x245
 638 0304 18       		.byte	0x18
 639 0305 00       		.byte	0
 640 0306 03       		.uleb128 0x3
 641 0307 AF050000 		.4byte	.LASF60
 642 030b 06       		.byte	0x6
 643 030c 5C       		.byte	0x5c
 644 030d 11030000 		.4byte	0x311
 645 0311 0A       		.uleb128 0xa
 646 0312 04       		.byte	0x4
 647 0313 17030000 		.4byte	0x317
 648 0317 0C       		.uleb128 0xc
 649 0318 22030000 		.4byte	0x322
 650 031c 0D       		.uleb128 0xd
 651 031d 22030000 		.4byte	0x322
 652 0321 00       		.byte	0
 653 0322 0E       		.uleb128 0xe
 654 0323 04       		.byte	0x4
 655 0324 03       		.uleb128 0x3
 656 0325 6D040000 		.4byte	.LASF61
 657 0329 06       		.byte	0x6
 658 032a 61       		.byte	0x61
 659 032b 2F030000 		.4byte	0x32f
 660 032f 0B       		.uleb128 0xb
 661 0330 00050000 		.4byte	.LASF62
 662 0334 14       		.byte	0x14
 663 0335 07       		.byte	0x7
 664 0336 6B01     		.2byte	0x16b
 665 0338 7E030000 		.4byte	0x37e
 666 033c 09       		.uleb128 0x9
 667 033d 08020000 		.4byte	.LASF63
 668 0341 07       		.byte	0x7
 669 0342 6C01     		.2byte	0x16c
 670 0344 CA060000 		.4byte	0x6ca
 671 0348 00       		.byte	0
 672 0349 09       		.uleb128 0x9
 673 034a C2010000 		.4byte	.LASF64
 674 034e 07       		.byte	0x7
 675 034f 6D01     		.2byte	0x16d
 676 0351 CA060000 		.4byte	0x6ca
 677 0355 04       		.byte	0x4
 678 0356 09       		.uleb128 0x9
ARM GAS  C:\Users\jo\AppData\Local\Temp\ccs6rMSa.s 			page 13


 679 0357 4D050000 		.4byte	.LASF65
 680 035b 07       		.byte	0x7
 681 035c 6E01     		.2byte	0x16e
 682 035e 2B010000 		.4byte	0x12b
 683 0362 08       		.byte	0x8
 684 0363 09       		.uleb128 0x9
 685 0364 DA060000 		.4byte	.LASF66
 686 0368 07       		.byte	0x7
 687 0369 6F01     		.2byte	0x16f
 688 036b 06030000 		.4byte	0x306
 689 036f 0C       		.byte	0xc
 690 0370 09       		.uleb128 0x9
 691 0371 FB050000 		.4byte	.LASF67
 692 0375 07       		.byte	0x7
 693 0376 7101     		.2byte	0x171
 694 0378 22030000 		.4byte	0x322
 695 037c 10       		.byte	0x10
 696 037d 00       		.byte	0
 697 037e 03       		.uleb128 0x3
 698 037f AB000000 		.4byte	.LASF68
 699 0383 06       		.byte	0x6
 700 0384 66       		.byte	0x66
 701 0385 89030000 		.4byte	0x389
 702 0389 0B       		.uleb128 0xb
 703 038a BB030000 		.4byte	.LASF69
 704 038e 10       		.byte	0x10
 705 038f 07       		.byte	0x7
 706 0390 7B01     		.2byte	0x17b
 707 0392 CB030000 		.4byte	0x3cb
 708 0396 09       		.uleb128 0x9
 709 0397 08020000 		.4byte	.LASF63
 710 039b 07       		.byte	0x7
 711 039c 7C01     		.2byte	0x17c
 712 039e CA060000 		.4byte	0x6ca
 713 03a2 00       		.byte	0
 714 03a3 09       		.uleb128 0x9
 715 03a4 C2010000 		.4byte	.LASF64
 716 03a8 07       		.byte	0x7
 717 03a9 7E01     		.2byte	0x17e
 718 03ab CA060000 		.4byte	0x6ca
 719 03af 04       		.byte	0x4
 720 03b0 09       		.uleb128 0x9
 721 03b1 4D050000 		.4byte	.LASF65
 722 03b5 07       		.byte	0x7
 723 03b6 8001     		.2byte	0x180
 724 03b8 2B010000 		.4byte	0x12b
 725 03bc 08       		.byte	0x8
 726 03bd 09       		.uleb128 0x9
 727 03be E9030000 		.4byte	.LASF70
 728 03c2 07       		.byte	0x7
 729 03c3 8801     		.2byte	0x188
 730 03c5 2B010000 		.4byte	0x12b
 731 03c9 0C       		.byte	0xc
 732 03ca 00       		.byte	0
 733 03cb 03       		.uleb128 0x3
 734 03cc 49000000 		.4byte	.LASF71
 735 03d0 06       		.byte	0x6
ARM GAS  C:\Users\jo\AppData\Local\Temp\ccs6rMSa.s 			page 14


 736 03d1 6B       		.byte	0x6b
 737 03d2 D6030000 		.4byte	0x3d6
 738 03d6 0F       		.uleb128 0xf
 739 03d7 94040000 		.4byte	.LASF72
 740 03db 1404     		.2byte	0x414
 741 03dd 07       		.byte	0x7
 742 03de A201     		.2byte	0x1a2
 743 03e0 19040000 		.4byte	0x419
 744 03e4 09       		.uleb128 0x9
 745 03e5 C3050000 		.4byte	.LASF73
 746 03e9 07       		.byte	0x7
 747 03ea AA01     		.2byte	0x1aa
 748 03ec D0060000 		.4byte	0x6d0
 749 03f0 00       		.byte	0
 750 03f1 09       		.uleb128 0x9
 751 03f2 25060000 		.4byte	.LASF74
 752 03f6 07       		.byte	0x7
 753 03f7 AF01     		.2byte	0x1af
 754 03f9 20010000 		.4byte	0x120
 755 03fd 04       		.byte	0x4
 756 03fe 09       		.uleb128 0x9
 757 03ff D2010000 		.4byte	.LASF75
 758 0403 07       		.byte	0x7
 759 0404 B301     		.2byte	0x1b3
 760 0406 20010000 		.4byte	0x120
 761 040a 08       		.byte	0x8
 762 040b 09       		.uleb128 0x9
 763 040c A5060000 		.4byte	.LASF76
 764 0410 07       		.byte	0x7
 765 0411 B901     		.2byte	0x1b9
 766 0413 C2050000 		.4byte	0x5c2
 767 0417 0C       		.byte	0xc
 768 0418 00       		.byte	0
 769 0419 03       		.uleb128 0x3
 770 041a 67020000 		.4byte	.LASF77
 771 041e 06       		.byte	0x6
 772 041f 70       		.byte	0x70
 773 0420 24040000 		.4byte	0x424
 774 0424 0F       		.uleb128 0xf
 775 0425 6B010000 		.4byte	.LASF78
 776 0429 7005     		.2byte	0x570
 777 042b 07       		.byte	0x7
 778 042c C201     		.2byte	0x1c2
 779 042e 83040000 		.4byte	0x483
 780 0432 09       		.uleb128 0x9
 781 0433 2D060000 		.4byte	.LASF79
 782 0437 07       		.byte	0x7
 783 0438 C601     		.2byte	0x1c6
 784 043a 9F020000 		.4byte	0x29f
 785 043e 00       		.byte	0
 786 043f 09       		.uleb128 0x9
 787 0440 5E010000 		.4byte	.LASF80
 788 0444 07       		.byte	0x7
 789 0445 CA01     		.2byte	0x1ca
 790 0447 7E030000 		.4byte	0x37e
 791 044b 1C       		.byte	0x1c
 792 044c 08       		.uleb128 0x8
ARM GAS  C:\Users\jo\AppData\Local\Temp\ccs6rMSa.s 			page 15


 793 044d 64626700 		.ascii	"dbg\000"
 794 0451 07       		.byte	0x7
 795 0452 CE01     		.2byte	0x1ce
 796 0454 CB030000 		.4byte	0x3cb
 797 0458 2C       		.byte	0x2c
 798 0459 10       		.uleb128 0x10
 799 045a A0000000 		.4byte	.LASF81
 800 045e 07       		.byte	0x7
 801 045f D201     		.2byte	0x1d2
 802 0461 36010000 		.4byte	0x136
 803 0465 4004     		.2byte	0x440
 804 0467 11       		.uleb128 0x11
 805 0468 746D00   		.ascii	"tm\000"
 806 046b 07       		.byte	0x7
 807 046c D701     		.2byte	0x1d7
 808 046e E2050000 		.4byte	0x5e2
 809 0472 8804     		.2byte	0x488
 810 0474 10       		.uleb128 0x10
 811 0475 DB010000 		.4byte	.LASF82
 812 0479 07       		.byte	0x7
 813 047a E301     		.2byte	0x1e3
 814 047c D5060000 		.4byte	0x6d5
 815 0480 9004     		.2byte	0x490
 816 0482 00       		.byte	0
 817 0483 04       		.uleb128 0x4
 818 0484 04       		.byte	0x4
 819 0485 07       		.byte	0x7
 820 0486 9F030000 		.4byte	.LASF83
 821 048a 03       		.uleb128 0x3
 822 048b B9010000 		.4byte	.LASF84
 823 048f 08       		.byte	0x8
 824 0490 65       		.byte	0x65
 825 0491 22030000 		.4byte	0x322
 826 0495 03       		.uleb128 0x3
 827 0496 8A030000 		.4byte	.LASF85
 828 049a 08       		.byte	0x8
 829 049b 6D       		.byte	0x6d
 830 049c C3000000 		.4byte	0xc3
 831 04a0 06       		.uleb128 0x6
 832 04a1 E5050000 		.4byte	.LASF86
 833 04a5 04       		.byte	0x4
 834 04a6 08       		.byte	0x8
 835 04a7 89       		.byte	0x89
 836 04a8 B9040000 		.4byte	0x4b9
 837 04ac 12       		.uleb128 0x12
 838 04ad 72313300 		.ascii	"r13\000"
 839 04b1 08       		.byte	0x8
 840 04b2 8A       		.byte	0x8a
 841 04b3 34050000 		.4byte	0x534
 842 04b7 00       		.byte	0
 843 04b8 00       		.byte	0
 844 04b9 06       		.uleb128 0x6
 845 04ba 3D000000 		.4byte	.LASF87
 846 04be 24       		.byte	0x24
 847 04bf 09       		.byte	0x9
 848 04c0 F4       		.byte	0xf4
 849 04c1 34050000 		.4byte	0x534
ARM GAS  C:\Users\jo\AppData\Local\Temp\ccs6rMSa.s 			page 16


 850 04c5 08       		.uleb128 0x8
 851 04c6 723400   		.ascii	"r4\000"
 852 04c9 09       		.byte	0x9
 853 04ca 0701     		.2byte	0x107
 854 04cc 8A040000 		.4byte	0x48a
 855 04d0 00       		.byte	0
 856 04d1 08       		.uleb128 0x8
 857 04d2 723500   		.ascii	"r5\000"
 858 04d5 09       		.byte	0x9
 859 04d6 0801     		.2byte	0x108
 860 04d8 8A040000 		.4byte	0x48a
 861 04dc 04       		.byte	0x4
 862 04dd 08       		.uleb128 0x8
 863 04de 723600   		.ascii	"r6\000"
 864 04e1 09       		.byte	0x9
 865 04e2 0901     		.2byte	0x109
 866 04e4 8A040000 		.4byte	0x48a
 867 04e8 08       		.byte	0x8
 868 04e9 08       		.uleb128 0x8
 869 04ea 723700   		.ascii	"r7\000"
 870 04ed 09       		.byte	0x9
 871 04ee 0A01     		.2byte	0x10a
 872 04f0 8A040000 		.4byte	0x48a
 873 04f4 0C       		.byte	0xc
 874 04f5 08       		.uleb128 0x8
 875 04f6 723800   		.ascii	"r8\000"
 876 04f9 09       		.byte	0x9
 877 04fa 0B01     		.2byte	0x10b
 878 04fc 8A040000 		.4byte	0x48a
 879 0500 10       		.byte	0x10
 880 0501 08       		.uleb128 0x8
 881 0502 723900   		.ascii	"r9\000"
 882 0505 09       		.byte	0x9
 883 0506 0C01     		.2byte	0x10c
 884 0508 8A040000 		.4byte	0x48a
 885 050c 14       		.byte	0x14
 886 050d 08       		.uleb128 0x8
 887 050e 72313000 		.ascii	"r10\000"
 888 0512 09       		.byte	0x9
 889 0513 0D01     		.2byte	0x10d
 890 0515 8A040000 		.4byte	0x48a
 891 0519 18       		.byte	0x18
 892 051a 08       		.uleb128 0x8
 893 051b 72313100 		.ascii	"r11\000"
 894 051f 09       		.byte	0x9
 895 0520 0E01     		.2byte	0x10e
 896 0522 8A040000 		.4byte	0x48a
 897 0526 1C       		.byte	0x1c
 898 0527 08       		.uleb128 0x8
 899 0528 6C7200   		.ascii	"lr\000"
 900 052b 09       		.byte	0x9
 901 052c 0F01     		.2byte	0x10f
 902 052e 8A040000 		.4byte	0x48a
 903 0532 20       		.byte	0x20
 904 0533 00       		.byte	0
 905 0534 0A       		.uleb128 0xa
 906 0535 04       		.byte	0x4
ARM GAS  C:\Users\jo\AppData\Local\Temp\ccs6rMSa.s 			page 17


 907 0536 B9040000 		.4byte	0x4b9
 908 053a 13       		.uleb128 0x13
 909 053b 10       		.byte	0x10
 910 053c 0A       		.byte	0xa
 911 053d 51       		.byte	0x51
 912 053e 73050000 		.4byte	0x573
 913 0542 07       		.uleb128 0x7
 914 0543 14000000 		.4byte	.LASF88
 915 0547 0A       		.byte	0xa
 916 0548 55       		.byte	0x55
 917 0549 2B010000 		.4byte	0x12b
 918 054d 00       		.byte	0
 919 054e 07       		.uleb128 0x7
 920 054f 87010000 		.4byte	.LASF89
 921 0553 0A       		.byte	0xa
 922 0554 59       		.byte	0x59
 923 0555 45020000 		.4byte	0x245
 924 0559 04       		.byte	0x4
 925 055a 07       		.uleb128 0x7
 926 055b CA060000 		.4byte	.LASF90
 927 055f 0A       		.byte	0xa
 928 0560 5D       		.byte	0x5d
 929 0561 22030000 		.4byte	0x322
 930 0565 08       		.byte	0x8
 931 0566 07       		.uleb128 0x7
 932 0567 8E000000 		.4byte	.LASF91
 933 056b 0A       		.byte	0xa
 934 056c 61       		.byte	0x61
 935 056d A2000000 		.4byte	0xa2
 936 0571 0C       		.byte	0xc
 937 0572 00       		.byte	0
 938 0573 03       		.uleb128 0x3
 939 0574 DA030000 		.4byte	.LASF92
 940 0578 0A       		.byte	0xa
 941 0579 62       		.byte	0x62
 942 057a 3A050000 		.4byte	0x53a
 943 057e 14       		.uleb128 0x14
 944 057f 0804     		.2byte	0x408
 945 0581 0A       		.byte	0xa
 946 0582 67       		.byte	0x67
 947 0583 AC050000 		.4byte	0x5ac
 948 0587 07       		.uleb128 0x7
 949 0588 9D010000 		.4byte	.LASF93
 950 058c 0A       		.byte	0xa
 951 058d 6B       		.byte	0x6b
 952 058e 37000000 		.4byte	0x37
 953 0592 00       		.byte	0
 954 0593 07       		.uleb128 0x7
 955 0594 00000000 		.4byte	.LASF94
 956 0598 0A       		.byte	0xa
 957 0599 6F       		.byte	0x6f
 958 059a AC050000 		.4byte	0x5ac
 959 059e 04       		.byte	0x4
 960 059f 07       		.uleb128 0x7
 961 05a0 63040000 		.4byte	.LASF95
 962 05a4 0A       		.byte	0xa
 963 05a5 73       		.byte	0x73
ARM GAS  C:\Users\jo\AppData\Local\Temp\ccs6rMSa.s 			page 18


 964 05a6 B2050000 		.4byte	0x5b2
 965 05aa 08       		.byte	0x8
 966 05ab 00       		.byte	0
 967 05ac 0A       		.uleb128 0xa
 968 05ad 04       		.byte	0x4
 969 05ae 73050000 		.4byte	0x573
 970 05b2 15       		.uleb128 0x15
 971 05b3 73050000 		.4byte	0x573
 972 05b7 C2050000 		.4byte	0x5c2
 973 05bb 16       		.uleb128 0x16
 974 05bc 83040000 		.4byte	0x483
 975 05c0 3F       		.byte	0x3f
 976 05c1 00       		.byte	0
 977 05c2 03       		.uleb128 0x3
 978 05c3 7C000000 		.4byte	.LASF96
 979 05c7 0A       		.byte	0xa
 980 05c8 74       		.byte	0x74
 981 05c9 7E050000 		.4byte	0x57e
 982 05cd 13       		.uleb128 0x13
 983 05ce 04       		.byte	0x4
 984 05cf 0B       		.byte	0xb
 985 05d0 38       		.byte	0x38
 986 05d1 E2050000 		.4byte	0x5e2
 987 05d5 07       		.uleb128 0x7
 988 05d6 CD050000 		.4byte	.LASF97
 989 05da 0B       		.byte	0xb
 990 05db 3C       		.byte	0x3c
 991 05dc D3000000 		.4byte	0xd3
 992 05e0 00       		.byte	0
 993 05e1 00       		.byte	0
 994 05e2 03       		.uleb128 0x3
 995 05e3 12040000 		.4byte	.LASF98
 996 05e7 0B       		.byte	0xb
 997 05e8 3D       		.byte	0x3d
 998 05e9 CD050000 		.4byte	0x5cd
 999 05ed 17       		.uleb128 0x17
 1000 05ee 04       		.byte	0x4
 1001 05ef 07       		.byte	0x7
 1002 05f0 FA       		.byte	0xfa
 1003 05f1 4A060000 		.4byte	0x64a
 1004 05f5 18       		.uleb128 0x18
 1005 05f6 23000000 		.4byte	.LASF99
 1006 05fa 07       		.byte	0x7
 1007 05fb 0101     		.2byte	0x101
 1008 05fd 0A010000 		.4byte	0x10a
 1009 0601 18       		.uleb128 0x18
 1010 0602 97000000 		.4byte	.LASF100
 1011 0606 07       		.byte	0x7
 1012 0607 0801     		.2byte	0x108
 1013 0609 0A010000 		.4byte	0x10a
 1014 060d 18       		.uleb128 0x18
 1015 060e 52060000 		.4byte	.LASF101
 1016 0612 07       		.byte	0x7
 1017 0613 0F01     		.2byte	0x10f
 1018 0615 22030000 		.4byte	0x322
 1019 0619 18       		.uleb128 0x18
 1020 061a 65010000 		.4byte	.LASF102
ARM GAS  C:\Users\jo\AppData\Local\Temp\ccs6rMSa.s 			page 19


 1021 061e 07       		.byte	0x7
 1022 061f 1601     		.2byte	0x116
 1023 0621 4A060000 		.4byte	0x64a
 1024 0625 18       		.uleb128 0x18
 1025 0626 10020000 		.4byte	.LASF103
 1026 062a 07       		.byte	0x7
 1027 062b 1E01     		.2byte	0x11e
 1028 062d 75060000 		.4byte	0x675
 1029 0631 18       		.uleb128 0x18
 1030 0632 3B050000 		.4byte	.LASF104
 1031 0636 07       		.byte	0x7
 1032 0637 2701     		.2byte	0x127
 1033 0639 AC060000 		.4byte	0x6ac
 1034 063d 18       		.uleb128 0x18
 1035 063e E3040000 		.4byte	.LASF105
 1036 0642 07       		.byte	0x7
 1037 0643 2F01     		.2byte	0x12f
 1038 0645 15010000 		.4byte	0x115
 1039 0649 00       		.byte	0
 1040 064a 0A       		.uleb128 0xa
 1041 064b 04       		.byte	0x4
 1042 064c 3A020000 		.4byte	0x23a
 1043 0650 06       		.uleb128 0x6
 1044 0651 1A050000 		.4byte	.LASF106
 1045 0655 0C       		.byte	0xc
 1046 0656 0C       		.byte	0xc
 1047 0657 34       		.byte	0x34
 1048 0658 75060000 		.4byte	0x675
 1049 065c 07       		.uleb128 0x7
 1050 065d 95010000 		.4byte	.LASF107
 1051 0661 0C       		.byte	0xc
 1052 0662 35       		.byte	0x35
 1053 0663 6F020000 		.4byte	0x26f
 1054 0667 00       		.byte	0
 1055 0668 07       		.uleb128 0x7
 1056 0669 3E020000 		.4byte	.LASF108
 1057 066d 0C       		.byte	0xc
 1058 066e 37       		.byte	0x37
 1059 066f 20010000 		.4byte	0x120
 1060 0673 08       		.byte	0x8
 1061 0674 00       		.byte	0
 1062 0675 0A       		.uleb128 0xa
 1063 0676 04       		.byte	0x4
 1064 0677 50060000 		.4byte	0x650
 1065 067b 06       		.uleb128 0x6
 1066 067c D4050000 		.4byte	.LASF109
 1067 0680 10       		.byte	0x10
 1068 0681 0D       		.byte	0xd
 1069 0682 39       		.byte	0x39
 1070 0683 AC060000 		.4byte	0x6ac
 1071 0687 07       		.uleb128 0x7
 1072 0688 56010000 		.4byte	.LASF110
 1073 068c 0D       		.byte	0xd
 1074 068d 3A       		.byte	0x3a
 1075 068e 6F020000 		.4byte	0x26f
 1076 0692 00       		.byte	0
 1077 0693 07       		.uleb128 0x7
ARM GAS  C:\Users\jo\AppData\Local\Temp\ccs6rMSa.s 			page 20


 1078 0694 C2060000 		.4byte	.LASF111
 1079 0698 0D       		.byte	0xd
 1080 0699 3C       		.byte	0x3c
 1081 069a 45020000 		.4byte	0x245
 1082 069e 08       		.byte	0x8
 1083 069f 07       		.uleb128 0x7
 1084 06a0 93050000 		.4byte	.LASF112
 1085 06a4 0D       		.byte	0xd
 1086 06a5 3E       		.byte	0x3e
 1087 06a6 F0060000 		.4byte	0x6f0
 1088 06aa 0C       		.byte	0xc
 1089 06ab 00       		.byte	0
 1090 06ac 0A       		.uleb128 0xa
 1091 06ad 04       		.byte	0x4
 1092 06ae 7B060000 		.4byte	0x67b
 1093 06b2 0A       		.uleb128 0xa
 1094 06b3 04       		.byte	0x4
 1095 06b4 B8060000 		.4byte	0x6b8
 1096 06b8 19       		.uleb128 0x19
 1097 06b9 BD060000 		.4byte	0x6bd
 1098 06bd 04       		.uleb128 0x4
 1099 06be 01       		.byte	0x1
 1100 06bf 08       		.byte	0x8
 1101 06c0 78050000 		.4byte	.LASF113
 1102 06c4 0A       		.uleb128 0xa
 1103 06c5 04       		.byte	0x4
 1104 06c6 95040000 		.4byte	0x495
 1105 06ca 0A       		.uleb128 0xa
 1106 06cb 04       		.byte	0x4
 1107 06cc 24030000 		.4byte	0x324
 1108 06d0 05       		.uleb128 0x5
 1109 06d1 B2060000 		.4byte	0x6b2
 1110 06d5 15       		.uleb128 0x15
 1111 06d6 95040000 		.4byte	0x495
 1112 06da E5060000 		.4byte	0x6e5
 1113 06de 16       		.uleb128 0x16
 1114 06df 83040000 		.4byte	0x483
 1115 06e3 1B       		.byte	0x1b
 1116 06e4 00       		.byte	0
 1117 06e5 03       		.uleb128 0x3
 1118 06e6 CA010000 		.4byte	.LASF114
 1119 06ea 0D       		.byte	0xd
 1120 06eb 34       		.byte	0x34
 1121 06ec 7B060000 		.4byte	0x67b
 1122 06f0 0A       		.uleb128 0xa
 1123 06f1 04       		.byte	0x4
 1124 06f2 E5060000 		.4byte	0x6e5
 1125 06f6 03       		.uleb128 0x3
 1126 06f7 58000000 		.4byte	.LASF115
 1127 06fb 0E       		.byte	0xe
 1128 06fc 36       		.byte	0x36
 1129 06fd 01070000 		.4byte	0x701
 1130 0701 0A       		.uleb128 0xa
 1131 0702 04       		.byte	0x4
 1132 0703 07070000 		.4byte	0x707
 1133 0707 1A       		.uleb128 0x1a
 1134 0708 22030000 		.4byte	0x322
ARM GAS  C:\Users\jo\AppData\Local\Temp\ccs6rMSa.s 			page 21


 1135 070c 16070000 		.4byte	0x716
 1136 0710 0D       		.uleb128 0xd
 1137 0711 2C000000 		.4byte	0x2c
 1138 0715 00       		.byte	0
 1139 0716 06       		.uleb128 0x6
 1140 0717 12060000 		.4byte	.LASF116
 1141 071b 04       		.byte	0x4
 1142 071c 0F       		.byte	0xf
 1143 071d 38       		.byte	0x38
 1144 071e 2F070000 		.4byte	0x72f
 1145 0722 07       		.uleb128 0x7
 1146 0723 53040000 		.4byte	.LASF117
 1147 0727 0F       		.byte	0xf
 1148 0728 39       		.byte	0x39
 1149 0729 2F070000 		.4byte	0x72f
 1150 072d 00       		.byte	0
 1151 072e 00       		.byte	0
 1152 072f 0A       		.uleb128 0xa
 1153 0730 04       		.byte	0x4
 1154 0731 16070000 		.4byte	0x716
 1155 0735 13       		.uleb128 0x13
 1156 0736 0C       		.byte	0xc
 1157 0737 0F       		.byte	0xf
 1158 0738 40       		.byte	0x40
 1159 0739 62070000 		.4byte	0x762
 1160 073d 07       		.uleb128 0x7
 1161 073e DD050000 		.4byte	.LASF118
 1162 0742 0F       		.byte	0xf
 1163 0743 41       		.byte	0x41
 1164 0744 2F070000 		.4byte	0x72f
 1165 0748 00       		.byte	0
 1166 0749 07       		.uleb128 0x7
 1167 074a 03040000 		.4byte	.LASF119
 1168 074e 0F       		.byte	0xf
 1169 074f 42       		.byte	0x42
 1170 0750 2C000000 		.4byte	0x2c
 1171 0754 04       		.byte	0x4
 1172 0755 07       		.uleb128 0x7
 1173 0756 AD010000 		.4byte	.LASF120
 1174 075a 0F       		.byte	0xf
 1175 075b 44       		.byte	0x44
 1176 075c F6060000 		.4byte	0x6f6
 1177 0760 08       		.byte	0x8
 1178 0761 00       		.byte	0
 1179 0762 03       		.uleb128 0x3
 1180 0763 2B020000 		.4byte	.LASF121
 1181 0767 0F       		.byte	0xf
 1182 0768 46       		.byte	0x46
 1183 0769 35070000 		.4byte	0x735
 1184 076d 06       		.uleb128 0x6
 1185 076e 11050000 		.4byte	.LASF122
 1186 0772 10       		.byte	0x10
 1187 0773 10       		.byte	0x10
 1188 0774 3B       		.byte	0x3b
 1189 0775 AA070000 		.4byte	0x7aa
 1190 0779 07       		.uleb128 0x7
 1191 077a 39020000 		.4byte	.LASF123
ARM GAS  C:\Users\jo\AppData\Local\Temp\ccs6rMSa.s 			page 22


 1192 077e 10       		.byte	0x10
 1193 077f 3C       		.byte	0x3c
 1194 0780 B2060000 		.4byte	0x6b2
 1195 0784 00       		.byte	0
 1196 0785 07       		.uleb128 0x7
 1197 0786 23040000 		.4byte	.LASF124
 1198 078a 10       		.byte	0x10
 1199 078b 3D       		.byte	0x3d
 1200 078c AB070000 		.4byte	0x7ab
 1201 0790 04       		.byte	0x4
 1202 0791 07       		.uleb128 0x7
 1203 0792 22020000 		.4byte	.LASF125
 1204 0796 10       		.byte	0x10
 1205 0797 3E       		.byte	0x3e
 1206 0798 AB070000 		.4byte	0x7ab
 1207 079c 08       		.byte	0x8
 1208 079d 07       		.uleb128 0x7
 1209 079e 84040000 		.4byte	.LASF126
 1210 07a2 10       		.byte	0x10
 1211 07a3 3F       		.byte	0x3f
 1212 07a4 AB070000 		.4byte	0x7ab
 1213 07a8 0C       		.byte	0xc
 1214 07a9 00       		.byte	0
 1215 07aa 1B       		.uleb128 0x1b
 1216 07ab 0A       		.uleb128 0xa
 1217 07ac 04       		.byte	0x4
 1218 07ad AA070000 		.4byte	0x7aa
 1219 07b1 1C       		.uleb128 0x1c
 1220 07b2 E2060000 		.4byte	.LASF138
 1221 07b6 01       		.byte	0x1
 1222 07b7 47       		.byte	0x47
 1223 07b8 01       		.byte	0x1
 1224 07b9 C7070000 		.4byte	0x7c7
 1225 07bd 1D       		.uleb128 0x1d
 1226 07be 6900     		.ascii	"i\000"
 1227 07c0 01       		.byte	0x1
 1228 07c1 48       		.byte	0x48
 1229 07c2 25000000 		.4byte	0x25
 1230 07c6 00       		.byte	0
 1231 07c7 1E       		.uleb128 0x1e
 1232 07c8 59060000 		.4byte	.LASF139
 1233 07cc 01       		.byte	0x1
 1234 07cd 3C       		.byte	0x3c
 1235 07ce 22030000 		.4byte	0x322
 1236 07d2 00000000 		.4byte	.LFB228
 1237 07d6 04000000 		.4byte	.LFE228-.LFB228
 1238 07da 01       		.uleb128 0x1
 1239 07db 9C       		.byte	0x9c
 1240 07dc F0070000 		.4byte	0x7f0
 1241 07e0 1F       		.uleb128 0x1f
 1242 07e1 67060000 		.4byte	.LASF140
 1243 07e5 01       		.byte	0x1
 1244 07e6 3C       		.byte	0x3c
 1245 07e7 2C000000 		.4byte	0x2c
 1246 07eb 00000000 		.4byte	.LLST0
 1247 07ef 00       		.byte	0
 1248 07f0 20       		.uleb128 0x20
ARM GAS  C:\Users\jo\AppData\Local\Temp\ccs6rMSa.s 			page 23


 1249 07f1 7D050000 		.4byte	.LASF141
 1250 07f5 01       		.byte	0x1
 1251 07f6 42       		.byte	0x42
 1252 07f7 00000000 		.4byte	.LFB229
 1253 07fb 10000000 		.4byte	.LFE229-.LFB229
 1254 07ff 01       		.uleb128 0x1
 1255 0800 9C       		.byte	0x9c
 1256 0801 25080000 		.4byte	0x825
 1257 0805 21       		.uleb128 0x21
 1258 0806 0C000000 		.4byte	.LVL2
 1259 080a 1F0A0000 		.4byte	0xa1f
 1260 080e 22       		.uleb128 0x22
 1261 080f 01       		.uleb128 0x1
 1262 0810 52       		.byte	0x52
 1263 0811 01       		.uleb128 0x1
 1264 0812 30       		.byte	0x30
 1265 0813 22       		.uleb128 0x22
 1266 0814 01       		.uleb128 0x1
 1267 0815 51       		.byte	0x51
 1268 0816 03       		.uleb128 0x3
 1269 0817 0A       		.byte	0xa
 1270 0818 5001     		.2byte	0x150
 1271 081a 22       		.uleb128 0x22
 1272 081b 01       		.uleb128 0x1
 1273 081c 50       		.byte	0x50
 1274 081d 05       		.uleb128 0x5
 1275 081e 03       		.byte	0x3
 1276 081f 00000000 		.4byte	.LANCHOR0
 1277 0823 00       		.byte	0
 1278 0824 00       		.byte	0
 1279 0825 23       		.uleb128 0x23
 1280 0826 B1070000 		.4byte	0x7b1
 1281 082a 00000000 		.4byte	.LFB230
 1282 082e BC000000 		.4byte	.LFE230-.LFB230
 1283 0832 01       		.uleb128 0x1
 1284 0833 9C       		.byte	0x9c
 1285 0834 9B090000 		.4byte	0x99b
 1286 0838 24       		.uleb128 0x24
 1287 0839 BD070000 		.4byte	0x7bd
 1288 083d 21000000 		.4byte	.LLST1
 1289 0841 25       		.uleb128 0x25
 1290 0842 00000000 		.4byte	.Ldebug_ranges0+0
 1291 0846 28090000 		.4byte	0x928
 1292 084a 24       		.uleb128 0x24
 1293 084b BD070000 		.4byte	0x7bd
 1294 084f 62000000 		.4byte	.LLST2
 1295 0853 26       		.uleb128 0x26
 1296 0854 4C000000 		.4byte	.LVL11
 1297 0858 400A0000 		.4byte	0xa40
 1298 085c 71080000 		.4byte	0x871
 1299 0860 22       		.uleb128 0x22
 1300 0861 01       		.uleb128 0x1
 1301 0862 51       		.byte	0x51
 1302 0863 03       		.uleb128 0x3
 1303 0864 74       		.byte	0x74
 1304 0865 00       		.sleb128 0
 1305 0866 06       		.byte	0x6
ARM GAS  C:\Users\jo\AppData\Local\Temp\ccs6rMSa.s 			page 24


 1306 0867 22       		.uleb128 0x22
 1307 0868 01       		.uleb128 0x1
 1308 0869 50       		.byte	0x50
 1309 086a 05       		.uleb128 0x5
 1310 086b 03       		.byte	0x3
 1311 086c 00000000 		.4byte	.LANCHOR0
 1312 0870 00       		.byte	0
 1313 0871 26       		.uleb128 0x26
 1314 0872 5A000000 		.4byte	.LVL12
 1315 0876 400A0000 		.4byte	0xa40
 1316 087a 88080000 		.4byte	0x888
 1317 087e 22       		.uleb128 0x22
 1318 087f 01       		.uleb128 0x1
 1319 0880 50       		.byte	0x50
 1320 0881 05       		.uleb128 0x5
 1321 0882 03       		.byte	0x3
 1322 0883 00000000 		.4byte	.LANCHOR0
 1323 0887 00       		.byte	0
 1324 0888 26       		.uleb128 0x26
 1325 0889 66000000 		.4byte	.LVL14
 1326 088d 560A0000 		.4byte	0xa56
 1327 0891 9F080000 		.4byte	0x89f
 1328 0895 22       		.uleb128 0x22
 1329 0896 01       		.uleb128 0x1
 1330 0897 50       		.byte	0x50
 1331 0898 05       		.uleb128 0x5
 1332 0899 03       		.byte	0x3
 1333 089a 00000000 		.4byte	.LANCHOR0
 1334 089e 00       		.byte	0
 1335 089f 26       		.uleb128 0x26
 1336 08a0 72000000 		.4byte	.LVL15
 1337 08a4 6B0A0000 		.4byte	0xa6b
 1338 08a8 B2080000 		.4byte	0x8b2
 1339 08ac 22       		.uleb128 0x22
 1340 08ad 01       		.uleb128 0x1
 1341 08ae 50       		.byte	0x50
 1342 08af 01       		.uleb128 0x1
 1343 08b0 33       		.byte	0x33
 1344 08b1 00       		.byte	0
 1345 08b2 26       		.uleb128 0x26
 1346 08b3 7E000000 		.4byte	.LVL17
 1347 08b7 560A0000 		.4byte	0xa56
 1348 08bb C9080000 		.4byte	0x8c9
 1349 08bf 22       		.uleb128 0x22
 1350 08c0 01       		.uleb128 0x1
 1351 08c1 50       		.byte	0x50
 1352 08c2 05       		.uleb128 0x5
 1353 08c3 03       		.byte	0x3
 1354 08c4 00000000 		.4byte	.LANCHOR0
 1355 08c8 00       		.byte	0
 1356 08c9 26       		.uleb128 0x26
 1357 08ca 8A000000 		.4byte	.LVL18
 1358 08ce 6B0A0000 		.4byte	0xa6b
 1359 08d2 DC080000 		.4byte	0x8dc
 1360 08d6 22       		.uleb128 0x22
 1361 08d7 01       		.uleb128 0x1
 1362 08d8 50       		.byte	0x50
ARM GAS  C:\Users\jo\AppData\Local\Temp\ccs6rMSa.s 			page 25


 1363 08d9 01       		.uleb128 0x1
 1364 08da 34       		.byte	0x34
 1365 08db 00       		.byte	0
 1366 08dc 26       		.uleb128 0x26
 1367 08dd 98000000 		.4byte	.LVL21
 1368 08e1 1F0A0000 		.4byte	0xa1f
 1369 08e5 01090000 		.4byte	0x901
 1370 08e9 22       		.uleb128 0x22
 1371 08ea 01       		.uleb128 0x1
 1372 08eb 52       		.byte	0x52
 1373 08ec 05       		.uleb128 0x5
 1374 08ed 03       		.byte	0x3
 1375 08ee 00000000 		.4byte	null_provider
 1376 08f2 22       		.uleb128 0x22
 1377 08f3 01       		.uleb128 0x1
 1378 08f4 51       		.byte	0x51
 1379 08f5 01       		.uleb128 0x1
 1380 08f6 40       		.byte	0x40
 1381 08f7 22       		.uleb128 0x22
 1382 08f8 01       		.uleb128 0x1
 1383 08f9 50       		.byte	0x50
 1384 08fa 05       		.uleb128 0x5
 1385 08fb 03       		.byte	0x3
 1386 08fc 00000000 		.4byte	.LANCHOR0
 1387 0900 00       		.byte	0
 1388 0901 26       		.uleb128 0x26
 1389 0902 9E000000 		.4byte	.LVL22
 1390 0906 560A0000 		.4byte	0xa56
 1391 090a 18090000 		.4byte	0x918
 1392 090e 22       		.uleb128 0x22
 1393 090f 01       		.uleb128 0x1
 1394 0910 50       		.byte	0x50
 1395 0911 05       		.uleb128 0x5
 1396 0912 03       		.byte	0x3
 1397 0913 00000000 		.4byte	.LANCHOR0
 1398 0917 00       		.byte	0
 1399 0918 21       		.uleb128 0x21
 1400 0919 AE000000 		.4byte	.LVL24
 1401 091d 6B0A0000 		.4byte	0xa6b
 1402 0921 22       		.uleb128 0x22
 1403 0922 01       		.uleb128 0x1
 1404 0923 50       		.byte	0x50
 1405 0924 01       		.uleb128 0x1
 1406 0925 35       		.byte	0x35
 1407 0926 00       		.byte	0
 1408 0927 00       		.byte	0
 1409 0928 26       		.uleb128 0x26
 1410 0929 10000000 		.4byte	.LVL3
 1411 092d 8C0A0000 		.4byte	0xa8c
 1412 0931 4A090000 		.4byte	0x94a
 1413 0935 22       		.uleb128 0x22
 1414 0936 01       		.uleb128 0x1
 1415 0937 52       		.byte	0x52
 1416 0938 01       		.uleb128 0x1
 1417 0939 35       		.byte	0x35
 1418 093a 22       		.uleb128 0x22
 1419 093b 01       		.uleb128 0x1
ARM GAS  C:\Users\jo\AppData\Local\Temp\ccs6rMSa.s 			page 26


 1420 093c 51       		.byte	0x51
 1421 093d 02       		.uleb128 0x2
 1422 093e 75       		.byte	0x75
 1423 093f 00       		.sleb128 0
 1424 0940 22       		.uleb128 0x22
 1425 0941 01       		.uleb128 0x1
 1426 0942 50       		.byte	0x50
 1427 0943 05       		.uleb128 0x5
 1428 0944 03       		.byte	0x3
 1429 0945 00000000 		.4byte	.LANCHOR0
 1430 0949 00       		.byte	0
 1431 094a 26       		.uleb128 0x26
 1432 094b 18000000 		.4byte	.LVL5
 1433 094f 560A0000 		.4byte	0xa56
 1434 0953 61090000 		.4byte	0x961
 1435 0957 22       		.uleb128 0x22
 1436 0958 01       		.uleb128 0x1
 1437 0959 50       		.byte	0x50
 1438 095a 05       		.uleb128 0x5
 1439 095b 03       		.byte	0x3
 1440 095c 00000000 		.4byte	.LANCHOR0
 1441 0960 00       		.byte	0
 1442 0961 26       		.uleb128 0x26
 1443 0962 24000000 		.4byte	.LVL6
 1444 0966 6B0A0000 		.4byte	0xa6b
 1445 096a 74090000 		.4byte	0x974
 1446 096e 22       		.uleb128 0x22
 1447 096f 01       		.uleb128 0x1
 1448 0970 50       		.byte	0x50
 1449 0971 01       		.uleb128 0x1
 1450 0972 31       		.byte	0x31
 1451 0973 00       		.byte	0
 1452 0974 26       		.uleb128 0x26
 1453 0975 30000000 		.4byte	.LVL8
 1454 0979 560A0000 		.4byte	0xa56
 1455 097d 8B090000 		.4byte	0x98b
 1456 0981 22       		.uleb128 0x22
 1457 0982 01       		.uleb128 0x1
 1458 0983 50       		.byte	0x50
 1459 0984 05       		.uleb128 0x5
 1460 0985 03       		.byte	0x3
 1461 0986 00000000 		.4byte	.LANCHOR0
 1462 098a 00       		.byte	0
 1463 098b 27       		.uleb128 0x27
 1464 098c 3C000000 		.4byte	.LVL9
 1465 0990 6B0A0000 		.4byte	0xa6b
 1466 0994 22       		.uleb128 0x22
 1467 0995 01       		.uleb128 0x1
 1468 0996 50       		.byte	0x50
 1469 0997 01       		.uleb128 0x1
 1470 0998 32       		.byte	0x32
 1471 0999 00       		.byte	0
 1472 099a 00       		.byte	0
 1473 099b 28       		.uleb128 0x28
 1474 099c 6D703100 		.ascii	"mp1\000"
 1475 09a0 01       		.byte	0x1
 1476 09a1 31       		.byte	0x31
ARM GAS  C:\Users\jo\AppData\Local\Temp\ccs6rMSa.s 			page 27


 1477 09a2 62070000 		.4byte	0x762
 1478 09a6 05       		.uleb128 0x5
 1479 09a7 03       		.byte	0x3
 1480 09a8 00000000 		.4byte	mp1
 1481 09ac 29       		.uleb128 0x29
 1482 09ad C1000000 		.4byte	.LASF127
 1483 09b1 11       		.byte	0x11
 1484 09b2 A706     		.2byte	0x6a7
 1485 09b4 CE000000 		.4byte	0xce
 1486 09b8 2A       		.uleb128 0x2a
 1487 09b9 636800   		.ascii	"ch\000"
 1488 09bc 07       		.byte	0x7
 1489 09bd 0902     		.2byte	0x209
 1490 09bf 19040000 		.4byte	0x419
 1491 09c3 15       		.uleb128 0x15
 1492 09c4 22030000 		.4byte	0x322
 1493 09c8 CE090000 		.4byte	0x9ce
 1494 09cc 2B       		.uleb128 0x2b
 1495 09cd 00       		.byte	0
 1496 09ce 2C       		.uleb128 0x2c
 1497 09cf 776100   		.ascii	"wa\000"
 1498 09d2 10       		.byte	0x10
 1499 09d3 A9       		.byte	0xa9
 1500 09d4 D8090000 		.4byte	0x9d8
 1501 09d8 19       		.uleb128 0x19
 1502 09d9 C3090000 		.4byte	0x9c3
 1503 09dd 2D       		.uleb128 0x2d
 1504 09de 42050000 		.4byte	.LASF128
 1505 09e2 01       		.byte	0x1
 1506 09e3 64       		.byte	0x64
 1507 09e4 EE090000 		.4byte	0x9ee
 1508 09e8 05       		.uleb128 0x5
 1509 09e9 03       		.byte	0x3
 1510 09ea 00000000 		.4byte	testpools1
 1511 09ee 19       		.uleb128 0x19
 1512 09ef 6D070000 		.4byte	0x76d
 1513 09f3 15       		.uleb128 0x15
 1514 09f4 030A0000 		.4byte	0xa03
 1515 09f8 030A0000 		.4byte	0xa03
 1516 09fc 16       		.uleb128 0x16
 1517 09fd 83040000 		.4byte	0x483
 1518 0a01 01       		.byte	0x1
 1519 0a02 00       		.byte	0
 1520 0a03 0A       		.uleb128 0xa
 1521 0a04 04       		.byte	0x4
 1522 0a05 EE090000 		.4byte	0x9ee
 1523 0a09 2D       		.uleb128 0x2d
 1524 0a0a 3B040000 		.4byte	.LASF129
 1525 0a0e 01       		.byte	0x1
 1526 0a0f 70       		.byte	0x70
 1527 0a10 1A0A0000 		.4byte	0xa1a
 1528 0a14 05       		.uleb128 0x5
 1529 0a15 03       		.byte	0x3
 1530 0a16 00000000 		.4byte	patternpools
 1531 0a1a 19       		.uleb128 0x19
 1532 0a1b F3090000 		.4byte	0x9f3
 1533 0a1f 2E       		.uleb128 0x2e
ARM GAS  C:\Users\jo\AppData\Local\Temp\ccs6rMSa.s 			page 28


 1534 0a20 7B020000 		.4byte	.LASF130
 1535 0a24 0F       		.byte	0xf
 1536 0a25 6C       		.byte	0x6c
 1537 0a26 3A0A0000 		.4byte	0xa3a
 1538 0a2a 0D       		.uleb128 0xd
 1539 0a2b 3A0A0000 		.4byte	0xa3a
 1540 0a2f 0D       		.uleb128 0xd
 1541 0a30 2C000000 		.4byte	0x2c
 1542 0a34 0D       		.uleb128 0xd
 1543 0a35 F6060000 		.4byte	0x6f6
 1544 0a39 00       		.byte	0
 1545 0a3a 0A       		.uleb128 0xa
 1546 0a3b 04       		.byte	0x4
 1547 0a3c 62070000 		.4byte	0x762
 1548 0a40 2E       		.uleb128 0x2e
 1549 0a41 47060000 		.4byte	.LASF131
 1550 0a45 0F       		.byte	0xf
 1551 0a46 71       		.byte	0x71
 1552 0a47 560A0000 		.4byte	0xa56
 1553 0a4b 0D       		.uleb128 0xd
 1554 0a4c 3A0A0000 		.4byte	0xa3a
 1555 0a50 0D       		.uleb128 0xd
 1556 0a51 22030000 		.4byte	0x322
 1557 0a55 00       		.byte	0
 1558 0a56 2F       		.uleb128 0x2f
 1559 0a57 3B060000 		.4byte	.LASF132
 1560 0a5b 0F       		.byte	0xf
 1561 0a5c 6F       		.byte	0x6f
 1562 0a5d 22030000 		.4byte	0x322
 1563 0a61 6B0A0000 		.4byte	0xa6b
 1564 0a65 0D       		.uleb128 0xd
 1565 0a66 3A0A0000 		.4byte	0xa3a
 1566 0a6a 00       		.byte	0
 1567 0a6b 2F       		.uleb128 0x2f
 1568 0a6c 6C060000 		.4byte	.LASF133
 1569 0a70 10       		.byte	0x10
 1570 0a71 5A       		.byte	0x5a
 1571 0a72 850A0000 		.4byte	0xa85
 1572 0a76 850A0000 		.4byte	0xa85
 1573 0a7a 0D       		.uleb128 0xd
 1574 0a7b 37000000 		.4byte	0x37
 1575 0a7f 0D       		.uleb128 0xd
 1576 0a80 850A0000 		.4byte	0xa85
 1577 0a84 00       		.byte	0
 1578 0a85 04       		.uleb128 0x4
 1579 0a86 01       		.byte	0x1
 1580 0a87 02       		.byte	0x2
 1581 0a88 A4040000 		.4byte	.LASF134
 1582 0a8c 30       		.uleb128 0x30
 1583 0a8d B2060000 		.4byte	.LASF142
 1584 0a91 0F       		.byte	0xf
 1585 0a92 6D       		.byte	0x6d
 1586 0a93 0D       		.uleb128 0xd
 1587 0a94 3A0A0000 		.4byte	0xa3a
 1588 0a98 0D       		.uleb128 0xd
 1589 0a99 22030000 		.4byte	0x322
 1590 0a9d 0D       		.uleb128 0xd
ARM GAS  C:\Users\jo\AppData\Local\Temp\ccs6rMSa.s 			page 29


 1591 0a9e 2C000000 		.4byte	0x2c
 1592 0aa2 00       		.byte	0
 1593 0aa3 00       		.byte	0
 1594              		.section	.debug_abbrev,"",%progbits
 1595              	.Ldebug_abbrev0:
 1596 0000 01       		.uleb128 0x1
 1597 0001 11       		.uleb128 0x11
 1598 0002 01       		.byte	0x1
 1599 0003 25       		.uleb128 0x25
 1600 0004 0E       		.uleb128 0xe
 1601 0005 13       		.uleb128 0x13
 1602 0006 0B       		.uleb128 0xb
 1603 0007 03       		.uleb128 0x3
 1604 0008 0E       		.uleb128 0xe
 1605 0009 1B       		.uleb128 0x1b
 1606 000a 0E       		.uleb128 0xe
 1607 000b 55       		.uleb128 0x55
 1608 000c 17       		.uleb128 0x17
 1609 000d 11       		.uleb128 0x11
 1610 000e 01       		.uleb128 0x1
 1611 000f 10       		.uleb128 0x10
 1612 0010 17       		.uleb128 0x17
 1613 0011 00       		.byte	0
 1614 0012 00       		.byte	0
 1615 0013 02       		.uleb128 0x2
 1616 0014 24       		.uleb128 0x24
 1617 0015 00       		.byte	0
 1618 0016 0B       		.uleb128 0xb
 1619 0017 0B       		.uleb128 0xb
 1620 0018 3E       		.uleb128 0x3e
 1621 0019 0B       		.uleb128 0xb
 1622 001a 03       		.uleb128 0x3
 1623 001b 08       		.uleb128 0x8
 1624 001c 00       		.byte	0
 1625 001d 00       		.byte	0
 1626 001e 03       		.uleb128 0x3
 1627 001f 16       		.uleb128 0x16
 1628 0020 00       		.byte	0
 1629 0021 03       		.uleb128 0x3
 1630 0022 0E       		.uleb128 0xe
 1631 0023 3A       		.uleb128 0x3a
 1632 0024 0B       		.uleb128 0xb
 1633 0025 3B       		.uleb128 0x3b
 1634 0026 0B       		.uleb128 0xb
 1635 0027 49       		.uleb128 0x49
 1636 0028 13       		.uleb128 0x13
 1637 0029 00       		.byte	0
 1638 002a 00       		.byte	0
 1639 002b 04       		.uleb128 0x4
 1640 002c 24       		.uleb128 0x24
 1641 002d 00       		.byte	0
 1642 002e 0B       		.uleb128 0xb
 1643 002f 0B       		.uleb128 0xb
 1644 0030 3E       		.uleb128 0x3e
 1645 0031 0B       		.uleb128 0xb
 1646 0032 03       		.uleb128 0x3
 1647 0033 0E       		.uleb128 0xe
ARM GAS  C:\Users\jo\AppData\Local\Temp\ccs6rMSa.s 			page 30


 1648 0034 00       		.byte	0
 1649 0035 00       		.byte	0
 1650 0036 05       		.uleb128 0x5
 1651 0037 35       		.uleb128 0x35
 1652 0038 00       		.byte	0
 1653 0039 49       		.uleb128 0x49
 1654 003a 13       		.uleb128 0x13
 1655 003b 00       		.byte	0
 1656 003c 00       		.byte	0
 1657 003d 06       		.uleb128 0x6
 1658 003e 13       		.uleb128 0x13
 1659 003f 01       		.byte	0x1
 1660 0040 03       		.uleb128 0x3
 1661 0041 0E       		.uleb128 0xe
 1662 0042 0B       		.uleb128 0xb
 1663 0043 0B       		.uleb128 0xb
 1664 0044 3A       		.uleb128 0x3a
 1665 0045 0B       		.uleb128 0xb
 1666 0046 3B       		.uleb128 0x3b
 1667 0047 0B       		.uleb128 0xb
 1668 0048 01       		.uleb128 0x1
 1669 0049 13       		.uleb128 0x13
 1670 004a 00       		.byte	0
 1671 004b 00       		.byte	0
 1672 004c 07       		.uleb128 0x7
 1673 004d 0D       		.uleb128 0xd
 1674 004e 00       		.byte	0
 1675 004f 03       		.uleb128 0x3
 1676 0050 0E       		.uleb128 0xe
 1677 0051 3A       		.uleb128 0x3a
 1678 0052 0B       		.uleb128 0xb
 1679 0053 3B       		.uleb128 0x3b
 1680 0054 0B       		.uleb128 0xb
 1681 0055 49       		.uleb128 0x49
 1682 0056 13       		.uleb128 0x13
 1683 0057 38       		.uleb128 0x38
 1684 0058 0B       		.uleb128 0xb
 1685 0059 00       		.byte	0
 1686 005a 00       		.byte	0
 1687 005b 08       		.uleb128 0x8
 1688 005c 0D       		.uleb128 0xd
 1689 005d 00       		.byte	0
 1690 005e 03       		.uleb128 0x3
 1691 005f 08       		.uleb128 0x8
 1692 0060 3A       		.uleb128 0x3a
 1693 0061 0B       		.uleb128 0xb
 1694 0062 3B       		.uleb128 0x3b
 1695 0063 05       		.uleb128 0x5
 1696 0064 49       		.uleb128 0x49
 1697 0065 13       		.uleb128 0x13
 1698 0066 38       		.uleb128 0x38
 1699 0067 0B       		.uleb128 0xb
 1700 0068 00       		.byte	0
 1701 0069 00       		.byte	0
 1702 006a 09       		.uleb128 0x9
 1703 006b 0D       		.uleb128 0xd
 1704 006c 00       		.byte	0
ARM GAS  C:\Users\jo\AppData\Local\Temp\ccs6rMSa.s 			page 31


 1705 006d 03       		.uleb128 0x3
 1706 006e 0E       		.uleb128 0xe
 1707 006f 3A       		.uleb128 0x3a
 1708 0070 0B       		.uleb128 0xb
 1709 0071 3B       		.uleb128 0x3b
 1710 0072 05       		.uleb128 0x5
 1711 0073 49       		.uleb128 0x49
 1712 0074 13       		.uleb128 0x13
 1713 0075 38       		.uleb128 0x38
 1714 0076 0B       		.uleb128 0xb
 1715 0077 00       		.byte	0
 1716 0078 00       		.byte	0
 1717 0079 0A       		.uleb128 0xa
 1718 007a 0F       		.uleb128 0xf
 1719 007b 00       		.byte	0
 1720 007c 0B       		.uleb128 0xb
 1721 007d 0B       		.uleb128 0xb
 1722 007e 49       		.uleb128 0x49
 1723 007f 13       		.uleb128 0x13
 1724 0080 00       		.byte	0
 1725 0081 00       		.byte	0
 1726 0082 0B       		.uleb128 0xb
 1727 0083 13       		.uleb128 0x13
 1728 0084 01       		.byte	0x1
 1729 0085 03       		.uleb128 0x3
 1730 0086 0E       		.uleb128 0xe
 1731 0087 0B       		.uleb128 0xb
 1732 0088 0B       		.uleb128 0xb
 1733 0089 3A       		.uleb128 0x3a
 1734 008a 0B       		.uleb128 0xb
 1735 008b 3B       		.uleb128 0x3b
 1736 008c 05       		.uleb128 0x5
 1737 008d 01       		.uleb128 0x1
 1738 008e 13       		.uleb128 0x13
 1739 008f 00       		.byte	0
 1740 0090 00       		.byte	0
 1741 0091 0C       		.uleb128 0xc
 1742 0092 15       		.uleb128 0x15
 1743 0093 01       		.byte	0x1
 1744 0094 27       		.uleb128 0x27
 1745 0095 19       		.uleb128 0x19
 1746 0096 01       		.uleb128 0x1
 1747 0097 13       		.uleb128 0x13
 1748 0098 00       		.byte	0
 1749 0099 00       		.byte	0
 1750 009a 0D       		.uleb128 0xd
 1751 009b 05       		.uleb128 0x5
 1752 009c 00       		.byte	0
 1753 009d 49       		.uleb128 0x49
 1754 009e 13       		.uleb128 0x13
 1755 009f 00       		.byte	0
 1756 00a0 00       		.byte	0
 1757 00a1 0E       		.uleb128 0xe
 1758 00a2 0F       		.uleb128 0xf
 1759 00a3 00       		.byte	0
 1760 00a4 0B       		.uleb128 0xb
 1761 00a5 0B       		.uleb128 0xb
ARM GAS  C:\Users\jo\AppData\Local\Temp\ccs6rMSa.s 			page 32


 1762 00a6 00       		.byte	0
 1763 00a7 00       		.byte	0
 1764 00a8 0F       		.uleb128 0xf
 1765 00a9 13       		.uleb128 0x13
 1766 00aa 01       		.byte	0x1
 1767 00ab 03       		.uleb128 0x3
 1768 00ac 0E       		.uleb128 0xe
 1769 00ad 0B       		.uleb128 0xb
 1770 00ae 05       		.uleb128 0x5
 1771 00af 3A       		.uleb128 0x3a
 1772 00b0 0B       		.uleb128 0xb
 1773 00b1 3B       		.uleb128 0x3b
 1774 00b2 05       		.uleb128 0x5
 1775 00b3 01       		.uleb128 0x1
 1776 00b4 13       		.uleb128 0x13
 1777 00b5 00       		.byte	0
 1778 00b6 00       		.byte	0
 1779 00b7 10       		.uleb128 0x10
 1780 00b8 0D       		.uleb128 0xd
 1781 00b9 00       		.byte	0
 1782 00ba 03       		.uleb128 0x3
 1783 00bb 0E       		.uleb128 0xe
 1784 00bc 3A       		.uleb128 0x3a
 1785 00bd 0B       		.uleb128 0xb
 1786 00be 3B       		.uleb128 0x3b
 1787 00bf 05       		.uleb128 0x5
 1788 00c0 49       		.uleb128 0x49
 1789 00c1 13       		.uleb128 0x13
 1790 00c2 38       		.uleb128 0x38
 1791 00c3 05       		.uleb128 0x5
 1792 00c4 00       		.byte	0
 1793 00c5 00       		.byte	0
 1794 00c6 11       		.uleb128 0x11
 1795 00c7 0D       		.uleb128 0xd
 1796 00c8 00       		.byte	0
 1797 00c9 03       		.uleb128 0x3
 1798 00ca 08       		.uleb128 0x8
 1799 00cb 3A       		.uleb128 0x3a
 1800 00cc 0B       		.uleb128 0xb
 1801 00cd 3B       		.uleb128 0x3b
 1802 00ce 05       		.uleb128 0x5
 1803 00cf 49       		.uleb128 0x49
 1804 00d0 13       		.uleb128 0x13
 1805 00d1 38       		.uleb128 0x38
 1806 00d2 05       		.uleb128 0x5
 1807 00d3 00       		.byte	0
 1808 00d4 00       		.byte	0
 1809 00d5 12       		.uleb128 0x12
 1810 00d6 0D       		.uleb128 0xd
 1811 00d7 00       		.byte	0
 1812 00d8 03       		.uleb128 0x3
 1813 00d9 08       		.uleb128 0x8
 1814 00da 3A       		.uleb128 0x3a
 1815 00db 0B       		.uleb128 0xb
 1816 00dc 3B       		.uleb128 0x3b
 1817 00dd 0B       		.uleb128 0xb
 1818 00de 49       		.uleb128 0x49
ARM GAS  C:\Users\jo\AppData\Local\Temp\ccs6rMSa.s 			page 33


 1819 00df 13       		.uleb128 0x13
 1820 00e0 38       		.uleb128 0x38
 1821 00e1 0B       		.uleb128 0xb
 1822 00e2 00       		.byte	0
 1823 00e3 00       		.byte	0
 1824 00e4 13       		.uleb128 0x13
 1825 00e5 13       		.uleb128 0x13
 1826 00e6 01       		.byte	0x1
 1827 00e7 0B       		.uleb128 0xb
 1828 00e8 0B       		.uleb128 0xb
 1829 00e9 3A       		.uleb128 0x3a
 1830 00ea 0B       		.uleb128 0xb
 1831 00eb 3B       		.uleb128 0x3b
 1832 00ec 0B       		.uleb128 0xb
 1833 00ed 01       		.uleb128 0x1
 1834 00ee 13       		.uleb128 0x13
 1835 00ef 00       		.byte	0
 1836 00f0 00       		.byte	0
 1837 00f1 14       		.uleb128 0x14
 1838 00f2 13       		.uleb128 0x13
 1839 00f3 01       		.byte	0x1
 1840 00f4 0B       		.uleb128 0xb
 1841 00f5 05       		.uleb128 0x5
 1842 00f6 3A       		.uleb128 0x3a
 1843 00f7 0B       		.uleb128 0xb
 1844 00f8 3B       		.uleb128 0x3b
 1845 00f9 0B       		.uleb128 0xb
 1846 00fa 01       		.uleb128 0x1
 1847 00fb 13       		.uleb128 0x13
 1848 00fc 00       		.byte	0
 1849 00fd 00       		.byte	0
 1850 00fe 15       		.uleb128 0x15
 1851 00ff 01       		.uleb128 0x1
 1852 0100 01       		.byte	0x1
 1853 0101 49       		.uleb128 0x49
 1854 0102 13       		.uleb128 0x13
 1855 0103 01       		.uleb128 0x1
 1856 0104 13       		.uleb128 0x13
 1857 0105 00       		.byte	0
 1858 0106 00       		.byte	0
 1859 0107 16       		.uleb128 0x16
 1860 0108 21       		.uleb128 0x21
 1861 0109 00       		.byte	0
 1862 010a 49       		.uleb128 0x49
 1863 010b 13       		.uleb128 0x13
 1864 010c 2F       		.uleb128 0x2f
 1865 010d 0B       		.uleb128 0xb
 1866 010e 00       		.byte	0
 1867 010f 00       		.byte	0
 1868 0110 17       		.uleb128 0x17
 1869 0111 17       		.uleb128 0x17
 1870 0112 01       		.byte	0x1
 1871 0113 0B       		.uleb128 0xb
 1872 0114 0B       		.uleb128 0xb
 1873 0115 3A       		.uleb128 0x3a
 1874 0116 0B       		.uleb128 0xb
 1875 0117 3B       		.uleb128 0x3b
ARM GAS  C:\Users\jo\AppData\Local\Temp\ccs6rMSa.s 			page 34


 1876 0118 0B       		.uleb128 0xb
 1877 0119 01       		.uleb128 0x1
 1878 011a 13       		.uleb128 0x13
 1879 011b 00       		.byte	0
 1880 011c 00       		.byte	0
 1881 011d 18       		.uleb128 0x18
 1882 011e 0D       		.uleb128 0xd
 1883 011f 00       		.byte	0
 1884 0120 03       		.uleb128 0x3
 1885 0121 0E       		.uleb128 0xe
 1886 0122 3A       		.uleb128 0x3a
 1887 0123 0B       		.uleb128 0xb
 1888 0124 3B       		.uleb128 0x3b
 1889 0125 05       		.uleb128 0x5
 1890 0126 49       		.uleb128 0x49
 1891 0127 13       		.uleb128 0x13
 1892 0128 00       		.byte	0
 1893 0129 00       		.byte	0
 1894 012a 19       		.uleb128 0x19
 1895 012b 26       		.uleb128 0x26
 1896 012c 00       		.byte	0
 1897 012d 49       		.uleb128 0x49
 1898 012e 13       		.uleb128 0x13
 1899 012f 00       		.byte	0
 1900 0130 00       		.byte	0
 1901 0131 1A       		.uleb128 0x1a
 1902 0132 15       		.uleb128 0x15
 1903 0133 01       		.byte	0x1
 1904 0134 27       		.uleb128 0x27
 1905 0135 19       		.uleb128 0x19
 1906 0136 49       		.uleb128 0x49
 1907 0137 13       		.uleb128 0x13
 1908 0138 01       		.uleb128 0x1
 1909 0139 13       		.uleb128 0x13
 1910 013a 00       		.byte	0
 1911 013b 00       		.byte	0
 1912 013c 1B       		.uleb128 0x1b
 1913 013d 15       		.uleb128 0x15
 1914 013e 00       		.byte	0
 1915 013f 27       		.uleb128 0x27
 1916 0140 19       		.uleb128 0x19
 1917 0141 00       		.byte	0
 1918 0142 00       		.byte	0
 1919 0143 1C       		.uleb128 0x1c
 1920 0144 2E       		.uleb128 0x2e
 1921 0145 01       		.byte	0x1
 1922 0146 03       		.uleb128 0x3
 1923 0147 0E       		.uleb128 0xe
 1924 0148 3A       		.uleb128 0x3a
 1925 0149 0B       		.uleb128 0xb
 1926 014a 3B       		.uleb128 0x3b
 1927 014b 0B       		.uleb128 0xb
 1928 014c 27       		.uleb128 0x27
 1929 014d 19       		.uleb128 0x19
 1930 014e 20       		.uleb128 0x20
 1931 014f 0B       		.uleb128 0xb
 1932 0150 01       		.uleb128 0x1
ARM GAS  C:\Users\jo\AppData\Local\Temp\ccs6rMSa.s 			page 35


 1933 0151 13       		.uleb128 0x13
 1934 0152 00       		.byte	0
 1935 0153 00       		.byte	0
 1936 0154 1D       		.uleb128 0x1d
 1937 0155 34       		.uleb128 0x34
 1938 0156 00       		.byte	0
 1939 0157 03       		.uleb128 0x3
 1940 0158 08       		.uleb128 0x8
 1941 0159 3A       		.uleb128 0x3a
 1942 015a 0B       		.uleb128 0xb
 1943 015b 3B       		.uleb128 0x3b
 1944 015c 0B       		.uleb128 0xb
 1945 015d 49       		.uleb128 0x49
 1946 015e 13       		.uleb128 0x13
 1947 015f 00       		.byte	0
 1948 0160 00       		.byte	0
 1949 0161 1E       		.uleb128 0x1e
 1950 0162 2E       		.uleb128 0x2e
 1951 0163 01       		.byte	0x1
 1952 0164 03       		.uleb128 0x3
 1953 0165 0E       		.uleb128 0xe
 1954 0166 3A       		.uleb128 0x3a
 1955 0167 0B       		.uleb128 0xb
 1956 0168 3B       		.uleb128 0x3b
 1957 0169 0B       		.uleb128 0xb
 1958 016a 27       		.uleb128 0x27
 1959 016b 19       		.uleb128 0x19
 1960 016c 49       		.uleb128 0x49
 1961 016d 13       		.uleb128 0x13
 1962 016e 11       		.uleb128 0x11
 1963 016f 01       		.uleb128 0x1
 1964 0170 12       		.uleb128 0x12
 1965 0171 06       		.uleb128 0x6
 1966 0172 40       		.uleb128 0x40
 1967 0173 18       		.uleb128 0x18
 1968 0174 9742     		.uleb128 0x2117
 1969 0176 19       		.uleb128 0x19
 1970 0177 01       		.uleb128 0x1
 1971 0178 13       		.uleb128 0x13
 1972 0179 00       		.byte	0
 1973 017a 00       		.byte	0
 1974 017b 1F       		.uleb128 0x1f
 1975 017c 05       		.uleb128 0x5
 1976 017d 00       		.byte	0
 1977 017e 03       		.uleb128 0x3
 1978 017f 0E       		.uleb128 0xe
 1979 0180 3A       		.uleb128 0x3a
 1980 0181 0B       		.uleb128 0xb
 1981 0182 3B       		.uleb128 0x3b
 1982 0183 0B       		.uleb128 0xb
 1983 0184 49       		.uleb128 0x49
 1984 0185 13       		.uleb128 0x13
 1985 0186 02       		.uleb128 0x2
 1986 0187 17       		.uleb128 0x17
 1987 0188 00       		.byte	0
 1988 0189 00       		.byte	0
 1989 018a 20       		.uleb128 0x20
ARM GAS  C:\Users\jo\AppData\Local\Temp\ccs6rMSa.s 			page 36


 1990 018b 2E       		.uleb128 0x2e
 1991 018c 01       		.byte	0x1
 1992 018d 03       		.uleb128 0x3
 1993 018e 0E       		.uleb128 0xe
 1994 018f 3A       		.uleb128 0x3a
 1995 0190 0B       		.uleb128 0xb
 1996 0191 3B       		.uleb128 0x3b
 1997 0192 0B       		.uleb128 0xb
 1998 0193 27       		.uleb128 0x27
 1999 0194 19       		.uleb128 0x19
 2000 0195 11       		.uleb128 0x11
 2001 0196 01       		.uleb128 0x1
 2002 0197 12       		.uleb128 0x12
 2003 0198 06       		.uleb128 0x6
 2004 0199 40       		.uleb128 0x40
 2005 019a 18       		.uleb128 0x18
 2006 019b 9742     		.uleb128 0x2117
 2007 019d 19       		.uleb128 0x19
 2008 019e 01       		.uleb128 0x1
 2009 019f 13       		.uleb128 0x13
 2010 01a0 00       		.byte	0
 2011 01a1 00       		.byte	0
 2012 01a2 21       		.uleb128 0x21
 2013 01a3 898201   		.uleb128 0x4109
 2014 01a6 01       		.byte	0x1
 2015 01a7 11       		.uleb128 0x11
 2016 01a8 01       		.uleb128 0x1
 2017 01a9 9542     		.uleb128 0x2115
 2018 01ab 19       		.uleb128 0x19
 2019 01ac 31       		.uleb128 0x31
 2020 01ad 13       		.uleb128 0x13
 2021 01ae 00       		.byte	0
 2022 01af 00       		.byte	0
 2023 01b0 22       		.uleb128 0x22
 2024 01b1 8A8201   		.uleb128 0x410a
 2025 01b4 00       		.byte	0
 2026 01b5 02       		.uleb128 0x2
 2027 01b6 18       		.uleb128 0x18
 2028 01b7 9142     		.uleb128 0x2111
 2029 01b9 18       		.uleb128 0x18
 2030 01ba 00       		.byte	0
 2031 01bb 00       		.byte	0
 2032 01bc 23       		.uleb128 0x23
 2033 01bd 2E       		.uleb128 0x2e
 2034 01be 01       		.byte	0x1
 2035 01bf 31       		.uleb128 0x31
 2036 01c0 13       		.uleb128 0x13
 2037 01c1 11       		.uleb128 0x11
 2038 01c2 01       		.uleb128 0x1
 2039 01c3 12       		.uleb128 0x12
 2040 01c4 06       		.uleb128 0x6
 2041 01c5 40       		.uleb128 0x40
 2042 01c6 18       		.uleb128 0x18
 2043 01c7 9742     		.uleb128 0x2117
 2044 01c9 19       		.uleb128 0x19
 2045 01ca 01       		.uleb128 0x1
 2046 01cb 13       		.uleb128 0x13
ARM GAS  C:\Users\jo\AppData\Local\Temp\ccs6rMSa.s 			page 37


 2047 01cc 00       		.byte	0
 2048 01cd 00       		.byte	0
 2049 01ce 24       		.uleb128 0x24
 2050 01cf 34       		.uleb128 0x34
 2051 01d0 00       		.byte	0
 2052 01d1 31       		.uleb128 0x31
 2053 01d2 13       		.uleb128 0x13
 2054 01d3 02       		.uleb128 0x2
 2055 01d4 17       		.uleb128 0x17
 2056 01d5 00       		.byte	0
 2057 01d6 00       		.byte	0
 2058 01d7 25       		.uleb128 0x25
 2059 01d8 0B       		.uleb128 0xb
 2060 01d9 01       		.byte	0x1
 2061 01da 55       		.uleb128 0x55
 2062 01db 17       		.uleb128 0x17
 2063 01dc 01       		.uleb128 0x1
 2064 01dd 13       		.uleb128 0x13
 2065 01de 00       		.byte	0
 2066 01df 00       		.byte	0
 2067 01e0 26       		.uleb128 0x26
 2068 01e1 898201   		.uleb128 0x4109
 2069 01e4 01       		.byte	0x1
 2070 01e5 11       		.uleb128 0x11
 2071 01e6 01       		.uleb128 0x1
 2072 01e7 31       		.uleb128 0x31
 2073 01e8 13       		.uleb128 0x13
 2074 01e9 01       		.uleb128 0x1
 2075 01ea 13       		.uleb128 0x13
 2076 01eb 00       		.byte	0
 2077 01ec 00       		.byte	0
 2078 01ed 27       		.uleb128 0x27
 2079 01ee 898201   		.uleb128 0x4109
 2080 01f1 01       		.byte	0x1
 2081 01f2 11       		.uleb128 0x11
 2082 01f3 01       		.uleb128 0x1
 2083 01f4 31       		.uleb128 0x31
 2084 01f5 13       		.uleb128 0x13
 2085 01f6 00       		.byte	0
 2086 01f7 00       		.byte	0
 2087 01f8 28       		.uleb128 0x28
 2088 01f9 34       		.uleb128 0x34
 2089 01fa 00       		.byte	0
 2090 01fb 03       		.uleb128 0x3
 2091 01fc 08       		.uleb128 0x8
 2092 01fd 3A       		.uleb128 0x3a
 2093 01fe 0B       		.uleb128 0xb
 2094 01ff 3B       		.uleb128 0x3b
 2095 0200 0B       		.uleb128 0xb
 2096 0201 49       		.uleb128 0x49
 2097 0202 13       		.uleb128 0x13
 2098 0203 02       		.uleb128 0x2
 2099 0204 18       		.uleb128 0x18
 2100 0205 00       		.byte	0
 2101 0206 00       		.byte	0
 2102 0207 29       		.uleb128 0x29
 2103 0208 34       		.uleb128 0x34
ARM GAS  C:\Users\jo\AppData\Local\Temp\ccs6rMSa.s 			page 38


 2104 0209 00       		.byte	0
 2105 020a 03       		.uleb128 0x3
 2106 020b 0E       		.uleb128 0xe
 2107 020c 3A       		.uleb128 0x3a
 2108 020d 0B       		.uleb128 0xb
 2109 020e 3B       		.uleb128 0x3b
 2110 020f 05       		.uleb128 0x5
 2111 0210 49       		.uleb128 0x49
 2112 0211 13       		.uleb128 0x13
 2113 0212 3F       		.uleb128 0x3f
 2114 0213 19       		.uleb128 0x19
 2115 0214 3C       		.uleb128 0x3c
 2116 0215 19       		.uleb128 0x19
 2117 0216 00       		.byte	0
 2118 0217 00       		.byte	0
 2119 0218 2A       		.uleb128 0x2a
 2120 0219 34       		.uleb128 0x34
 2121 021a 00       		.byte	0
 2122 021b 03       		.uleb128 0x3
 2123 021c 08       		.uleb128 0x8
 2124 021d 3A       		.uleb128 0x3a
 2125 021e 0B       		.uleb128 0xb
 2126 021f 3B       		.uleb128 0x3b
 2127 0220 05       		.uleb128 0x5
 2128 0221 49       		.uleb128 0x49
 2129 0222 13       		.uleb128 0x13
 2130 0223 3F       		.uleb128 0x3f
 2131 0224 19       		.uleb128 0x19
 2132 0225 3C       		.uleb128 0x3c
 2133 0226 19       		.uleb128 0x19
 2134 0227 00       		.byte	0
 2135 0228 00       		.byte	0
 2136 0229 2B       		.uleb128 0x2b
 2137 022a 21       		.uleb128 0x21
 2138 022b 00       		.byte	0
 2139 022c 00       		.byte	0
 2140 022d 00       		.byte	0
 2141 022e 2C       		.uleb128 0x2c
 2142 022f 34       		.uleb128 0x34
 2143 0230 00       		.byte	0
 2144 0231 03       		.uleb128 0x3
 2145 0232 08       		.uleb128 0x8
 2146 0233 3A       		.uleb128 0x3a
 2147 0234 0B       		.uleb128 0xb
 2148 0235 3B       		.uleb128 0x3b
 2149 0236 0B       		.uleb128 0xb
 2150 0237 49       		.uleb128 0x49
 2151 0238 13       		.uleb128 0x13
 2152 0239 3F       		.uleb128 0x3f
 2153 023a 19       		.uleb128 0x19
 2154 023b 3C       		.uleb128 0x3c
 2155 023c 19       		.uleb128 0x19
 2156 023d 00       		.byte	0
 2157 023e 00       		.byte	0
 2158 023f 2D       		.uleb128 0x2d
 2159 0240 34       		.uleb128 0x34
 2160 0241 00       		.byte	0
ARM GAS  C:\Users\jo\AppData\Local\Temp\ccs6rMSa.s 			page 39


 2161 0242 03       		.uleb128 0x3
 2162 0243 0E       		.uleb128 0xe
 2163 0244 3A       		.uleb128 0x3a
 2164 0245 0B       		.uleb128 0xb
 2165 0246 3B       		.uleb128 0x3b
 2166 0247 0B       		.uleb128 0xb
 2167 0248 49       		.uleb128 0x49
 2168 0249 13       		.uleb128 0x13
 2169 024a 3F       		.uleb128 0x3f
 2170 024b 19       		.uleb128 0x19
 2171 024c 02       		.uleb128 0x2
 2172 024d 18       		.uleb128 0x18
 2173 024e 00       		.byte	0
 2174 024f 00       		.byte	0
 2175 0250 2E       		.uleb128 0x2e
 2176 0251 2E       		.uleb128 0x2e
 2177 0252 01       		.byte	0x1
 2178 0253 3F       		.uleb128 0x3f
 2179 0254 19       		.uleb128 0x19
 2180 0255 03       		.uleb128 0x3
 2181 0256 0E       		.uleb128 0xe
 2182 0257 3A       		.uleb128 0x3a
 2183 0258 0B       		.uleb128 0xb
 2184 0259 3B       		.uleb128 0x3b
 2185 025a 0B       		.uleb128 0xb
 2186 025b 27       		.uleb128 0x27
 2187 025c 19       		.uleb128 0x19
 2188 025d 3C       		.uleb128 0x3c
 2189 025e 19       		.uleb128 0x19
 2190 025f 01       		.uleb128 0x1
 2191 0260 13       		.uleb128 0x13
 2192 0261 00       		.byte	0
 2193 0262 00       		.byte	0
 2194 0263 2F       		.uleb128 0x2f
 2195 0264 2E       		.uleb128 0x2e
 2196 0265 01       		.byte	0x1
 2197 0266 3F       		.uleb128 0x3f
 2198 0267 19       		.uleb128 0x19
 2199 0268 03       		.uleb128 0x3
 2200 0269 0E       		.uleb128 0xe
 2201 026a 3A       		.uleb128 0x3a
 2202 026b 0B       		.uleb128 0xb
 2203 026c 3B       		.uleb128 0x3b
 2204 026d 0B       		.uleb128 0xb
 2205 026e 27       		.uleb128 0x27
 2206 026f 19       		.uleb128 0x19
 2207 0270 49       		.uleb128 0x49
 2208 0271 13       		.uleb128 0x13
 2209 0272 3C       		.uleb128 0x3c
 2210 0273 19       		.uleb128 0x19
 2211 0274 01       		.uleb128 0x1
 2212 0275 13       		.uleb128 0x13
 2213 0276 00       		.byte	0
 2214 0277 00       		.byte	0
 2215 0278 30       		.uleb128 0x30
 2216 0279 2E       		.uleb128 0x2e
 2217 027a 01       		.byte	0x1
ARM GAS  C:\Users\jo\AppData\Local\Temp\ccs6rMSa.s 			page 40


 2218 027b 3F       		.uleb128 0x3f
 2219 027c 19       		.uleb128 0x19
 2220 027d 03       		.uleb128 0x3
 2221 027e 0E       		.uleb128 0xe
 2222 027f 3A       		.uleb128 0x3a
 2223 0280 0B       		.uleb128 0xb
 2224 0281 3B       		.uleb128 0x3b
 2225 0282 0B       		.uleb128 0xb
 2226 0283 27       		.uleb128 0x27
 2227 0284 19       		.uleb128 0x19
 2228 0285 3C       		.uleb128 0x3c
 2229 0286 19       		.uleb128 0x19
 2230 0287 00       		.byte	0
 2231 0288 00       		.byte	0
 2232 0289 00       		.byte	0
 2233              		.section	.debug_loc,"",%progbits
 2234              	.Ldebug_loc0:
 2235              	.LLST0:
 2236 0000 00000000 		.4byte	.LVL0
 2237 0004 02000000 		.4byte	.LVL1
 2238 0008 0100     		.2byte	0x1
 2239 000a 50       		.byte	0x50
 2240 000b 02000000 		.4byte	.LVL1
 2241 000f 04000000 		.4byte	.LFE228
 2242 0013 0400     		.2byte	0x4
 2243 0015 F3       		.byte	0xf3
 2244 0016 01       		.uleb128 0x1
 2245 0017 50       		.byte	0x50
 2246 0018 9F       		.byte	0x9f
 2247 0019 00000000 		.4byte	0
 2248 001d 00000000 		.4byte	0
 2249              	.LLST1:
 2250 0021 10000000 		.4byte	.LVL3
 2251 0025 12000000 		.4byte	.LVL4
 2252 0029 0200     		.2byte	0x2
 2253 002b 30       		.byte	0x30
 2254 002c 9F       		.byte	0x9f
 2255 002d 12000000 		.4byte	.LVL4
 2256 0031 24000000 		.4byte	.LVL6
 2257 0035 0500     		.2byte	0x5
 2258 0037 35       		.byte	0x35
 2259 0038 74       		.byte	0x74
 2260 0039 00       		.sleb128 0
 2261 003a 1C       		.byte	0x1c
 2262 003b 9F       		.byte	0x9f
 2263 003c 24000000 		.4byte	.LVL6
 2264 0040 28000000 		.4byte	.LVL7
 2265 0044 0500     		.2byte	0x5
 2266 0046 36       		.byte	0x36
 2267 0047 74       		.byte	0x74
 2268 0048 00       		.sleb128 0
 2269 0049 1C       		.byte	0x1c
 2270 004a 9F       		.byte	0x9f
 2271 004b 28000000 		.4byte	.LVL7
 2272 004f 40000000 		.4byte	.LVL10
 2273 0053 0500     		.2byte	0x5
 2274 0055 35       		.byte	0x35
ARM GAS  C:\Users\jo\AppData\Local\Temp\ccs6rMSa.s 			page 41


 2275 0056 74       		.byte	0x74
 2276 0057 00       		.sleb128 0
 2277 0058 1C       		.byte	0x1c
 2278 0059 9F       		.byte	0x9f
 2279 005a 00000000 		.4byte	0
 2280 005e 00000000 		.4byte	0
 2281              	.LLST2:
 2282 0062 60000000 		.4byte	.LVL13
 2283 0066 72000000 		.4byte	.LVL15
 2284 006a 0500     		.2byte	0x5
 2285 006c 35       		.byte	0x35
 2286 006d 74       		.byte	0x74
 2287 006e 00       		.sleb128 0
 2288 006f 1C       		.byte	0x1c
 2289 0070 9F       		.byte	0x9f
 2290 0071 72000000 		.4byte	.LVL15
 2291 0075 76000000 		.4byte	.LVL16
 2292 0079 0500     		.2byte	0x5
 2293 007b 36       		.byte	0x36
 2294 007c 74       		.byte	0x74
 2295 007d 00       		.sleb128 0
 2296 007e 1C       		.byte	0x1c
 2297 007f 9F       		.byte	0x9f
 2298 0080 76000000 		.4byte	.LVL16
 2299 0084 8C000000 		.4byte	.LVL19
 2300 0088 0500     		.2byte	0x5
 2301 008a 35       		.byte	0x35
 2302 008b 74       		.byte	0x74
 2303 008c 00       		.sleb128 0
 2304 008d 1C       		.byte	0x1c
 2305 008e 9F       		.byte	0x9f
 2306 008f 8E000000 		.4byte	.LVL20
 2307 0093 A2000000 		.4byte	.LVL23
 2308 0097 0500     		.2byte	0x5
 2309 0099 35       		.byte	0x35
 2310 009a 74       		.byte	0x74
 2311 009b 00       		.sleb128 0
 2312 009c 1C       		.byte	0x1c
 2313 009d 9F       		.byte	0x9f
 2314 009e 00000000 		.4byte	0
 2315 00a2 00000000 		.4byte	0
 2316              		.section	.debug_aranges,"",%progbits
 2317 0000 2C000000 		.4byte	0x2c
 2318 0004 0200     		.2byte	0x2
 2319 0006 00000000 		.4byte	.Ldebug_info0
 2320 000a 04       		.byte	0x4
 2321 000b 00       		.byte	0
 2322 000c 0000     		.2byte	0
 2323 000e 0000     		.2byte	0
 2324 0010 00000000 		.4byte	.LFB228
 2325 0014 04000000 		.4byte	.LFE228-.LFB228
 2326 0018 00000000 		.4byte	.LFB229
 2327 001c 10000000 		.4byte	.LFE229-.LFB229
 2328 0020 00000000 		.4byte	.LFB230
 2329 0024 BC000000 		.4byte	.LFE230-.LFB230
 2330 0028 00000000 		.4byte	0
 2331 002c 00000000 		.4byte	0
ARM GAS  C:\Users\jo\AppData\Local\Temp\ccs6rMSa.s 			page 42


 2332              		.section	.debug_ranges,"",%progbits
 2333              	.Ldebug_ranges0:
 2334 0000 40000000 		.4byte	.LBB5
 2335 0004 42000000 		.4byte	.LBE5
 2336 0008 48000000 		.4byte	.LBB6
 2337 000c 9E000000 		.4byte	.LBE6
 2338 0010 A2000000 		.4byte	.LBB7
 2339 0014 BC000000 		.4byte	.LBE7
 2340 0018 00000000 		.4byte	0
 2341 001c 00000000 		.4byte	0
 2342 0020 00000000 		.4byte	.LFB228
 2343 0024 04000000 		.4byte	.LFE228
 2344 0028 00000000 		.4byte	.LFB229
 2345 002c 10000000 		.4byte	.LFE229
 2346 0030 00000000 		.4byte	.LFB230
 2347 0034 BC000000 		.4byte	.LFE230
 2348 0038 00000000 		.4byte	0
 2349 003c 00000000 		.4byte	0
 2350              		.section	.debug_line,"",%progbits
 2351              	.Ldebug_line0:
 2352 0000 C0020000 		.section	.debug_str,"MS",%progbits,1
 2352      02007402 
 2352      00000201 
 2352      FB0E0D00 
 2352      01010101 
 2353              	.LASF94:
 2354 0000 74625F70 		.ascii	"tb_ptr\000"
 2354      747200
 2355              	.LASF52:
 2356 0007 72656164 		.ascii	"ready_list_t\000"
 2356      795F6C69 
 2356      73745F74 
 2356      00
 2357              	.LASF88:
 2358 0014 73655F74 		.ascii	"se_time\000"
 2358      696D6500 
 2359              	.LASF2:
 2360 001c 73697A65 		.ascii	"size_t\000"
 2360      5F7400
 2361              	.LASF99:
 2362 0023 7264796D 		.ascii	"rdymsg\000"
 2362      736700
 2363              	.LASF17:
 2364 002a 75696E74 		.ascii	"uint64_t\000"
 2364      36345F74 
 2364      00
 2365              	.LASF3:
 2366 0033 5F5F7569 		.ascii	"__uint8_t\000"
 2366      6E74385F 
 2366      7400
 2367              	.LASF87:
 2368 003d 706F7274 		.ascii	"port_intctx\000"
 2368      5F696E74 
 2368      63747800 
 2369              	.LASF71:
 2370 0049 73797374 		.ascii	"system_debug_t\000"
 2370      656D5F64 
ARM GAS  C:\Users\jo\AppData\Local\Temp\ccs6rMSa.s 			page 43


 2370      65627567 
 2370      5F7400
 2371              	.LASF115:
 2372 0058 6D656D67 		.ascii	"memgetfunc_t\000"
 2372      65746675 
 2372      6E635F74 
 2372      00
 2373              	.LASF13:
 2374 0065 6C6F6E67 		.ascii	"long long unsigned int\000"
 2374      206C6F6E 
 2374      6720756E 
 2374      7369676E 
 2374      65642069 
 2375              	.LASF96:
 2376 007c 63685F74 		.ascii	"ch_trace_buffer_t\000"
 2376      72616365 
 2376      5F627566 
 2376      6665725F 
 2376      7400
 2377              	.LASF91:
 2378 008e 73655F73 		.ascii	"se_state\000"
 2378      74617465 
 2378      00
 2379              	.LASF100:
 2380 0097 65786974 		.ascii	"exitcode\000"
 2380      636F6465 
 2380      00
 2381              	.LASF81:
 2382 00a0 6D61696E 		.ascii	"mainthread\000"
 2382      74687265 
 2382      616400
 2383              	.LASF68:
 2384 00ab 76697274 		.ascii	"virtual_timers_list_t\000"
 2384      75616C5F 
 2384      74696D65 
 2384      72735F6C 
 2384      6973745F 
 2385              	.LASF127:
 2386 00c1 49544D5F 		.ascii	"ITM_RxBuffer\000"
 2386      52784275 
 2386      66666572 
 2386      00
 2387              	.LASF51:
 2388 00ce 63685F74 		.ascii	"ch_threads_queue\000"
 2388      68726561 
 2388      64735F71 
 2388      75657565 
 2388      00
 2389              	.LASF30:
 2390 00df 705F7072 		.ascii	"p_prio\000"
 2390      696F00
 2391              	.LASF137:
 2392 00e6 433A5C55 		.ascii	"C:\\Users\\jo\\Documents\\GitHub\\ChibiOS\\demos\\S"
 2392      73657273 
 2392      5C6A6F5C 
 2392      446F6375 
 2392      6D656E74 
ARM GAS  C:\Users\jo\AppData\Local\Temp\ccs6rMSa.s 			page 44


 2393 0112 544D3332 		.ascii	"TM32\\RT-STM32F407-DISCOVERY-uHttp\000"
 2393      5C52542D 
 2393      53544D33 
 2393      32463430 
 2393      372D4449 
 2394              	.LASF11:
 2395 0134 6C6F6E67 		.ascii	"long long int\000"
 2395      206C6F6E 
 2395      6720696E 
 2395      7400
 2396              	.LASF1:
 2397 0142 7369676E 		.ascii	"signed char\000"
 2397      65642063 
 2397      68617200 
 2398              	.LASF45:
 2399 014e 705F6D70 		.ascii	"p_mpool\000"
 2399      6F6F6C00 
 2400              	.LASF110:
 2401 0156 6D5F7175 		.ascii	"m_queue\000"
 2401      65756500 
 2402              	.LASF80:
 2403 015e 76746C69 		.ascii	"vtlist\000"
 2403      737400
 2404              	.LASF102:
 2405 0165 77747472 		.ascii	"wttrp\000"
 2405      7000
 2406              	.LASF78:
 2407 016b 63685F73 		.ascii	"ch_system\000"
 2407      79737465 
 2407      6D00
 2408              	.LASF8:
 2409 0175 6C6F6E67 		.ascii	"long int\000"
 2409      20696E74 
 2409      00
 2410              	.LASF20:
 2411 017e 74737461 		.ascii	"tstate_t\000"
 2411      74655F74 
 2411      00
 2412              	.LASF89:
 2413 0187 73655F74 		.ascii	"se_tp\000"
 2413      7000
 2414              	.LASF32:
 2415 018d 705F6E65 		.ascii	"p_newer\000"
 2415      77657200 
 2416              	.LASF107:
 2417 0195 735F7175 		.ascii	"s_queue\000"
 2417      65756500 
 2418              	.LASF93:
 2419 019d 74625F73 		.ascii	"tb_size\000"
 2419      697A6500 
 2420              	.LASF57:
 2421 01a5 725F6E65 		.ascii	"r_newer\000"
 2421      77657200 
 2422              	.LASF120:
 2423 01ad 6D705F70 		.ascii	"mp_provider\000"
 2423      726F7669 
 2423      64657200 
ARM GAS  C:\Users\jo\AppData\Local\Temp\ccs6rMSa.s 			page 45


 2424              	.LASF84:
 2425 01b9 72656761 		.ascii	"regarm_t\000"
 2425      726D5F74 
 2425      00
 2426              	.LASF64:
 2427 01c2 76745F70 		.ascii	"vt_prev\000"
 2427      72657600 
 2428              	.LASF114:
 2429 01ca 6D757465 		.ascii	"mutex_t\000"
 2429      785F7400 
 2430              	.LASF75:
 2431 01d2 6C6F636B 		.ascii	"lock_cnt\000"
 2431      5F636E74 
 2431      00
 2432              	.LASF82:
 2433 01db 69646C65 		.ascii	"idle_thread_wa\000"
 2433      5F746872 
 2433      6561645F 
 2433      776100
 2434              	.LASF25:
 2435 01ea 636E745F 		.ascii	"cnt_t\000"
 2435      7400
 2436              	.LASF35:
 2437 01f0 705F7374 		.ascii	"p_stklimit\000"
 2437      6B6C696D 
 2437      697400
 2438              	.LASF0:
 2439 01fb 756E7369 		.ascii	"unsigned int\000"
 2439      676E6564 
 2439      20696E74 
 2439      00
 2440              	.LASF63:
 2441 0208 76745F6E 		.ascii	"vt_next\000"
 2441      65787400 
 2442              	.LASF103:
 2443 0210 77747365 		.ascii	"wtsemp\000"
 2443      6D7000
 2444              	.LASF40:
 2445 0217 705F6D73 		.ascii	"p_msgqueue\000"
 2445      67717565 
 2445      756500
 2446              	.LASF125:
 2447 0222 74656172 		.ascii	"teardown\000"
 2447      646F776E 
 2447      00
 2448              	.LASF121:
 2449 022b 6D656D6F 		.ascii	"memory_pool_t\000"
 2449      72795F70 
 2449      6F6F6C5F 
 2449      7400
 2450              	.LASF123:
 2451 0239 6E616D65 		.ascii	"name\000"
 2451      00
 2452              	.LASF108:
 2453 023e 735F636E 		.ascii	"s_cnt\000"
 2453      7400
 2454              	.LASF6:
ARM GAS  C:\Users\jo\AppData\Local\Temp\ccs6rMSa.s 			page 46


 2455 0244 73686F72 		.ascii	"short unsigned int\000"
 2455      7420756E 
 2455      7369676E 
 2455      65642069 
 2455      6E7400
 2456              	.LASF48:
 2457 0257 63685F74 		.ascii	"ch_thread\000"
 2457      68726561 
 2457      6400
 2458              	.LASF23:
 2459 0261 6D73675F 		.ascii	"msg_t\000"
 2459      7400
 2460              	.LASF77:
 2461 0267 63685F73 		.ascii	"ch_system_t\000"
 2461      79737465 
 2461      6D5F7400 
 2462              	.LASF19:
 2463 0273 746D6F64 		.ascii	"tmode_t\000"
 2463      655F7400 
 2464              	.LASF130:
 2465 027b 6368506F 		.ascii	"chPoolObjectInit\000"
 2465      6F6C4F62 
 2465      6A656374 
 2465      496E6974 
 2465      00
 2466              	.LASF53:
 2467 028c 63685F72 		.ascii	"ch_ready_list\000"
 2467      65616479 
 2467      5F6C6973 
 2467      7400
 2468              	.LASF24:
 2469 029a 6576656E 		.ascii	"eventmask_t\000"
 2469      746D6173 
 2469      6B5F7400 
 2470              	.LASF7:
 2471 02a6 5F5F696E 		.ascii	"__int32_t\000"
 2471      7433325F 
 2471      7400
 2472              	.LASF135:
 2473 02b0 474E5520 		.ascii	"GNU C 4.9.3 20141119 (release) [ARM/embedded-4_9-br"
 2473      4320342E 
 2473      392E3320 
 2473      32303134 
 2473      31313139 
 2474 02e3 616E6368 		.ascii	"anch revision 218278] -mcpu=cortex-m4 -mno-thumb-in"
 2474      20726576 
 2474      6973696F 
 2474      6E203231 
 2474      38323738 
 2475 0316 74657277 		.ascii	"terwork -mthumb -ggdb -O2 -fomit-frame-pointer -fal"
 2475      6F726B20 
 2475      2D6D7468 
 2475      756D6220 
 2475      2D676764 
 2476 0349 69676E2D 		.ascii	"ign-functions=16 -ffunction-sections -fdata-section"
 2476      66756E63 
 2476      74696F6E 
ARM GAS  C:\Users\jo\AppData\Local\Temp\ccs6rMSa.s 			page 47


 2476      733D3136 
 2476      202D6666 
 2477 037c 73202D66 		.ascii	"s -fno-common\000"
 2477      6E6F2D63 
 2477      6F6D6D6F 
 2477      6E00
 2478              	.LASF85:
 2479 038a 73746B61 		.ascii	"stkalign_t\000"
 2479      6C69676E 
 2479      5F7400
 2480              	.LASF39:
 2481 0395 705F7761 		.ascii	"p_waiting\000"
 2481      6974696E 
 2481      6700
 2482              	.LASF83:
 2483 039f 73697A65 		.ascii	"sizetype\000"
 2483      74797065 
 2483      00
 2484              	.LASF46:
 2485 03a8 74687265 		.ascii	"thread_reference_t\000"
 2485      61645F72 
 2485      65666572 
 2485      656E6365 
 2485      5F7400
 2486              	.LASF69:
 2487 03bb 63685F76 		.ascii	"ch_virtual_timers_list\000"
 2487      69727475 
 2487      616C5F74 
 2487      696D6572 
 2487      735F6C69 
 2488              	.LASF54:
 2489 03d2 725F7175 		.ascii	"r_queue\000"
 2489      65756500 
 2490              	.LASF92:
 2491 03da 63685F73 		.ascii	"ch_swc_event_t\000"
 2491      77635F65 
 2491      76656E74 
 2491      5F7400
 2492              	.LASF70:
 2493 03e9 76745F6C 		.ascii	"vt_lasttime\000"
 2493      61737474 
 2493      696D6500 
 2494              	.LASF33:
 2495 03f5 705F6F6C 		.ascii	"p_older\000"
 2495      64657200 
 2496              	.LASF56:
 2497 03fd 725F6374 		.ascii	"r_ctx\000"
 2497      7800
 2498              	.LASF119:
 2499 0403 6D705F6F 		.ascii	"mp_object_size\000"
 2499      626A6563 
 2499      745F7369 
 2499      7A6500
 2500              	.LASF98:
 2501 0412 746D5F63 		.ascii	"tm_calibration_t\000"
 2501      616C6962 
 2501      72617469 
ARM GAS  C:\Users\jo\AppData\Local\Temp\ccs6rMSa.s 			page 48


 2501      6F6E5F74 
 2501      00
 2502              	.LASF124:
 2503 0423 73657475 		.ascii	"setup\000"
 2503      7000
 2504              	.LASF59:
 2505 0429 725F6375 		.ascii	"r_current\000"
 2505      7272656E 
 2505      7400
 2506              	.LASF58:
 2507 0433 725F6F6C 		.ascii	"r_older\000"
 2507      64657200 
 2508              	.LASF129:
 2509 043b 70617474 		.ascii	"patternpools\000"
 2509      65726E70 
 2509      6F6F6C73 
 2509      00
 2510              	.LASF12:
 2511 0448 5F5F7569 		.ascii	"__uint64_t\000"
 2511      6E743634 
 2511      5F7400
 2512              	.LASF117:
 2513 0453 70685F6E 		.ascii	"ph_next\000"
 2513      65787400 
 2514              	.LASF21:
 2515 045b 74726566 		.ascii	"trefs_t\000"
 2515      735F7400 
 2516              	.LASF95:
 2517 0463 74625F62 		.ascii	"tb_buffer\000"
 2517      75666665 
 2517      7200
 2518              	.LASF61:
 2519 046d 76697274 		.ascii	"virtual_timer_t\000"
 2519      75616C5F 
 2519      74696D65 
 2519      725F7400 
 2520              	.LASF29:
 2521 047d 705F7072 		.ascii	"p_prev\000"
 2521      657600
 2522              	.LASF126:
 2523 0484 65786563 		.ascii	"execute\000"
 2523      75746500 
 2524              	.LASF22:
 2525 048c 74707269 		.ascii	"tprio_t\000"
 2525      6F5F7400 
 2526              	.LASF72:
 2527 0494 63685F73 		.ascii	"ch_system_debug\000"
 2527      79737465 
 2527      6D5F6465 
 2527      62756700 
 2528              	.LASF134:
 2529 04a4 5F426F6F 		.ascii	"_Bool\000"
 2529      6C00
 2530              	.LASF15:
 2531 04aa 696E7433 		.ascii	"int32_t\000"
 2531      325F7400 
 2532              	.LASF4:
ARM GAS  C:\Users\jo\AppData\Local\Temp\ccs6rMSa.s 			page 49


 2533 04b2 756E7369 		.ascii	"unsigned char\000"
 2533      676E6564 
 2533      20636861 
 2533      7200
 2534              	.LASF43:
 2535 04c0 705F6D74 		.ascii	"p_mtxlist\000"
 2535      786C6973 
 2535      7400
 2536              	.LASF5:
 2537 04ca 73686F72 		.ascii	"short int\000"
 2537      7420696E 
 2537      7400
 2538              	.LASF36:
 2539 04d4 705F7374 		.ascii	"p_state\000"
 2539      61746500 
 2540              	.LASF55:
 2541 04dc 725F7072 		.ascii	"r_prio\000"
 2541      696F00
 2542              	.LASF105:
 2543 04e3 65776D61 		.ascii	"ewmask\000"
 2543      736B00
 2544              	.LASF28:
 2545 04ea 705F6E65 		.ascii	"p_next\000"
 2545      787400
 2546              	.LASF37:
 2547 04f1 705F666C 		.ascii	"p_flags\000"
 2547      61677300 
 2548              	.LASF34:
 2549 04f9 705F6E61 		.ascii	"p_name\000"
 2549      6D6500
 2550              	.LASF62:
 2551 0500 63685F76 		.ascii	"ch_virtual_timer\000"
 2551      69727475 
 2551      616C5F74 
 2551      696D6572 
 2551      00
 2552              	.LASF122:
 2553 0511 74657374 		.ascii	"testcase\000"
 2553      63617365 
 2553      00
 2554              	.LASF106:
 2555 051a 63685F73 		.ascii	"ch_semaphore\000"
 2555      656D6170 
 2555      686F7265 
 2555      00
 2556              	.LASF42:
 2557 0527 705F6570 		.ascii	"p_epending\000"
 2557      656E6469 
 2557      6E6700
 2558              	.LASF16:
 2559 0532 75696E74 		.ascii	"uint32_t\000"
 2559      33325F74 
 2559      00
 2560              	.LASF104:
 2561 053b 77746D74 		.ascii	"wtmtxp\000"
 2561      787000
 2562              	.LASF128:
ARM GAS  C:\Users\jo\AppData\Local\Temp\ccs6rMSa.s 			page 50


 2563 0542 74657374 		.ascii	"testpools1\000"
 2563      706F6F6C 
 2563      733100
 2564              	.LASF65:
 2565 054d 76745F64 		.ascii	"vt_delta\000"
 2565      656C7461 
 2565      00
 2566              	.LASF49:
 2567 0556 63685F74 		.ascii	"ch_threads_list\000"
 2567      68726561 
 2567      64735F6C 
 2567      69737400 
 2568              	.LASF10:
 2569 0566 6C6F6E67 		.ascii	"long unsigned int\000"
 2569      20756E73 
 2569      69676E65 
 2569      6420696E 
 2569      7400
 2570              	.LASF113:
 2571 0578 63686172 		.ascii	"char\000"
 2571      00
 2572              	.LASF141:
 2573 057d 706F6F6C 		.ascii	"pools1_setup\000"
 2573      73315F73 
 2573      65747570 
 2573      00
 2574              	.LASF27:
 2575 058a 74687265 		.ascii	"thread_t\000"
 2575      61645F74 
 2575      00
 2576              	.LASF112:
 2577 0593 6D5F6E65 		.ascii	"m_next\000"
 2577      787400
 2578              	.LASF26:
 2579 059a 73797374 		.ascii	"systime_t\000"
 2579      696D655F 
 2579      7400
 2580              	.LASF44:
 2581 05a4 705F7265 		.ascii	"p_realprio\000"
 2581      616C7072 
 2581      696F00
 2582              	.LASF60:
 2583 05af 76746675 		.ascii	"vtfunc_t\000"
 2583      6E635F74 
 2583      00
 2584              	.LASF9:
 2585 05b8 5F5F7569 		.ascii	"__uint32_t\000"
 2585      6E743332 
 2585      5F7400
 2586              	.LASF73:
 2587 05c3 70616E69 		.ascii	"panic_msg\000"
 2587      635F6D73 
 2587      6700
 2588              	.LASF97:
 2589 05cd 6F666673 		.ascii	"offset\000"
 2589      657400
 2590              	.LASF109:
ARM GAS  C:\Users\jo\AppData\Local\Temp\ccs6rMSa.s 			page 51


 2591 05d4 63685F6D 		.ascii	"ch_mutex\000"
 2591      75746578 
 2591      00
 2592              	.LASF118:
 2593 05dd 6D705F6E 		.ascii	"mp_next\000"
 2593      65787400 
 2594              	.LASF86:
 2595 05e5 636F6E74 		.ascii	"context\000"
 2595      65787400 
 2596              	.LASF41:
 2597 05ed 705F6D73 		.ascii	"p_msg\000"
 2597      6700
 2598              	.LASF18:
 2599 05f3 7274636E 		.ascii	"rtcnt_t\000"
 2599      745F7400 
 2600              	.LASF67:
 2601 05fb 76745F70 		.ascii	"vt_par\000"
 2601      617200
 2602              	.LASF50:
 2603 0602 74687265 		.ascii	"threads_queue_t\000"
 2603      6164735F 
 2603      71756575 
 2603      655F7400 
 2604              	.LASF116:
 2605 0612 706F6F6C 		.ascii	"pool_header\000"
 2605      5F686561 
 2605      64657200 
 2606              	.LASF38:
 2607 061e 705F7265 		.ascii	"p_refs\000"
 2607      667300
 2608              	.LASF74:
 2609 0625 6973725F 		.ascii	"isr_cnt\000"
 2609      636E7400 
 2610              	.LASF79:
 2611 062d 726C6973 		.ascii	"rlist\000"
 2611      7400
 2612              	.LASF14:
 2613 0633 75696E74 		.ascii	"uint8_t\000"
 2613      385F7400 
 2614              	.LASF132:
 2615 063b 6368506F 		.ascii	"chPoolAlloc\000"
 2615      6F6C416C 
 2615      6C6F6300 
 2616              	.LASF131:
 2617 0647 6368506F 		.ascii	"chPoolFree\000"
 2617      6F6C4672 
 2617      656500
 2618              	.LASF101:
 2619 0652 77746F62 		.ascii	"wtobjp\000"
 2619      6A7000
 2620              	.LASF139:
 2621 0659 6E756C6C 		.ascii	"null_provider\000"
 2621      5F70726F 
 2621      76696465 
 2621      7200
 2622              	.LASF140:
 2623 0667 73697A65 		.ascii	"size\000"
ARM GAS  C:\Users\jo\AppData\Local\Temp\ccs6rMSa.s 			page 52


 2623      00
 2624              	.LASF133:
 2625 066c 5F746573 		.ascii	"_test_assert\000"
 2625      745F6173 
 2625      73657274 
 2625      00
 2626              	.LASF136:
 2627 0679 2E2E2F2E 		.ascii	"../../../test/rt/testpools.c\000"
 2627      2E2F2E2E 
 2627      2F746573 
 2627      742F7274 
 2627      2F746573 
 2628              	.LASF47:
 2629 0696 74687265 		.ascii	"threads_list_t\000"
 2629      6164735F 
 2629      6C697374 
 2629      5F7400
 2630              	.LASF76:
 2631 06a5 74726163 		.ascii	"trace_buffer\000"
 2631      655F6275 
 2631      66666572 
 2631      00
 2632              	.LASF142:
 2633 06b2 6368506F 		.ascii	"chPoolLoadArray\000"
 2633      6F6C4C6F 
 2633      61644172 
 2633      72617900 
 2634              	.LASF111:
 2635 06c2 6D5F6F77 		.ascii	"m_owner\000"
 2635      6E657200 
 2636              	.LASF90:
 2637 06ca 73655F77 		.ascii	"se_wtobjp\000"
 2637      746F626A 
 2637      7000
 2638              	.LASF31:
 2639 06d4 705F6374 		.ascii	"p_ctx\000"
 2639      7800
 2640              	.LASF66:
 2641 06da 76745F66 		.ascii	"vt_func\000"
 2641      756E6300 
 2642              	.LASF138:
 2643 06e2 706F6F6C 		.ascii	"pools1_execute\000"
 2643      73315F65 
 2643      78656375 
 2643      746500
 2644              		.ident	"GCC: (GNU Tools for ARM Embedded Processors) 4.9.3 20141119 (release) [ARM/embedded-4_9-br
ARM GAS  C:\Users\jo\AppData\Local\Temp\ccs6rMSa.s 			page 53


DEFINED SYMBOLS
                            *ABS*:00000000 testpools.c
C:\Users\jo\AppData\Local\Temp\ccs6rMSa.s:19     .text.null_provider:00000000 $t
C:\Users\jo\AppData\Local\Temp\ccs6rMSa.s:24     .text.null_provider:00000000 null_provider
C:\Users\jo\AppData\Local\Temp\ccs6rMSa.s:41     .text.pools1_setup:00000000 $t
C:\Users\jo\AppData\Local\Temp\ccs6rMSa.s:46     .text.pools1_setup:00000000 pools1_setup
C:\Users\jo\AppData\Local\Temp\ccs6rMSa.s:62     .text.pools1_setup:0000000c $d
C:\Users\jo\AppData\Local\Temp\ccs6rMSa.s:67     .text.pools1_execute:00000000 $t
C:\Users\jo\AppData\Local\Temp\ccs6rMSa.s:72     .text.pools1_execute:00000000 pools1_execute
C:\Users\jo\AppData\Local\Temp\ccs6rMSa.s:213    .text.pools1_execute:000000b0 $d
C:\Users\jo\AppData\Local\Temp\ccs6rMSa.s:231    .rodata.patternpools:00000000 patternpools
C:\Users\jo\AppData\Local\Temp\ccs6rMSa.s:247    .rodata.testpools1:00000000 testpools1
C:\Users\jo\AppData\Local\Temp\ccs6rMSa.s:224    .rodata.str1.4:00000000 $d
C:\Users\jo\AppData\Local\Temp\ccs6rMSa.s:228    .rodata.patternpools:00000000 $d
C:\Users\jo\AppData\Local\Temp\ccs6rMSa.s:235    .data.mp1:00000000 $d
C:\Users\jo\AppData\Local\Temp\ccs6rMSa.s:239    .data.mp1:00000000 mp1
C:\Users\jo\AppData\Local\Temp\ccs6rMSa.s:244    .rodata.testpools1:00000000 $d
                     .debug_frame:00000010 $d
C:\Users\jo\AppData\Local\Temp\ccs6rMSa.s:223    .text.pools1_execute:000000bc $t

UNDEFINED SYMBOLS
chPoolObjectInit
chPoolLoadArray
chPoolAlloc
_test_assert
chPoolFree
wa
