ARM GAS  C:\Users\jo\AppData\Local\Temp\cclIJQpb.s 			page 1


   1              		.syntax unified
   2              		.cpu cortex-m4
   3              		.fpu softvfp
   4              		.eabi_attribute 20, 1
   5              		.eabi_attribute 21, 1
   6              		.eabi_attribute 23, 3
   7              		.eabi_attribute 24, 1
   8              		.eabi_attribute 25, 1
   9              		.eabi_attribute 26, 1
  10              		.eabi_attribute 30, 2
  11              		.eabi_attribute 34, 1
  12              		.eabi_attribute 18, 4
  13              		.thumb
  14              		.file	"test.c"
  15              		.text
  16              	.Ltext0:
  17              		.cfi_sections	.debug_frame
  18              		.section	.text.tmr,"ax",%progbits
  19              		.align	2
  20              		.p2align 4,,15
  21              		.thumb
  22              		.thumb_func
  23              		.type	tmr, %function
  24              	tmr:
  25              	.LFB272:
  26              		.file 1 "../../../test/rt/test.c"
  27              		.loc 1 264 0
  28              		.cfi_startproc
  29              		@ args = 0, pretend = 0, frame = 0
  30              		@ frame_needed = 0, uses_anonymous_args = 0
  31              		@ link register save eliminated.
  32              	.LVL0:
  33              		.loc 1 267 0
  34 0000 014B     		ldr	r3, .L2
  35 0002 0122     		movs	r2, #1
  36 0004 1A70     		strb	r2, [r3]
  37 0006 7047     		bx	lr
  38              	.L3:
  39              		.align	2
  40              	.L2:
  41 0008 00000000 		.word	.LANCHOR0
  42              		.cfi_endproc
  43              	.LFE272:
  44              		.size	tmr, .-tmr
  45 000c AFF30080 		.section	.text.print_line,"ax",%progbits
  46              		.align	2
  47              		.p2align 4,,15
  48              		.thumb
  49              		.thumb_func
  50              		.type	print_line, %function
  51              	print_line:
  52              	.LFB275:
  53              		.loc 1 303 0
  54              		.cfi_startproc
  55              		@ args = 0, pretend = 0, frame = 0
  56              		@ frame_needed = 0, uses_anonymous_args = 0
  57              	.LVL1:
ARM GAS  C:\Users\jo\AppData\Local\Temp\cclIJQpb.s 			page 2


  58 0000 70B5     		push	{r4, r5, r6, lr}
  59              		.cfi_def_cfa_offset 16
  60              		.cfi_offset 4, -16
  61              		.cfi_offset 5, -12
  62              		.cfi_offset 6, -8
  63              		.cfi_offset 14, -4
  64 0002 094E     		ldr	r6, .L9
  65              		.loc 1 303 0
  66 0004 4C24     		movs	r4, #76
  67              	.LVL2:
  68              	.L5:
  69              		.loc 1 307 0 discriminator 3
  70 0006 3068     		ldr	r0, [r6]
  71 0008 074D     		ldr	r5, .L9
  72 000a 0368     		ldr	r3, [r0]
  73 000c 2D21     		movs	r1, #45
  74 000e 9B68     		ldr	r3, [r3, #8]
  75 0010 9847     		blx	r3
  76              	.LVL3:
  77              		.loc 1 306 0 discriminator 3
  78 0012 013C     		subs	r4, r4, #1
  79              	.LVL4:
  80 0014 F7D1     		bne	.L5
  81              		.loc 1 308 0
  82 0016 2868     		ldr	r0, [r5]
  83 0018 0449     		ldr	r1, .L9+4
  84 001a 0368     		ldr	r3, [r0]
  85 001c 0222     		movs	r2, #2
  86 001e 1B68     		ldr	r3, [r3]
  87              		.loc 1 309 0
  88 0020 BDE87040 		pop	{r4, r5, r6, lr}
  89              		.cfi_restore 14
  90              		.cfi_restore 6
  91              		.cfi_restore 5
  92              		.cfi_restore 4
  93              		.cfi_def_cfa_offset 0
  94              	.LVL5:
  95              		.loc 1 308 0
  96 0024 1847     		bx	r3
  97              	.LVL6:
  98              	.L10:
  99 0026 00BF     		.align	2
 100              	.L9:
 101 0028 00000000 		.word	.LANCHOR1
 102 002c 00000000 		.word	.LC0
 103              		.cfi_endproc
 104              	.LFE275:
 105              		.size	print_line, .-print_line
 106              		.section	.text.test_printn,"ax",%progbits
 107              		.align	2
 108              		.p2align 4,,15
 109              		.global	test_printn
 110              		.thumb
 111              		.thumb_func
 112              		.type	test_printn, %function
 113              	test_printn:
 114              	.LFB259:
ARM GAS  C:\Users\jo\AppData\Local\Temp\cclIJQpb.s 			page 3


 115              		.loc 1 94 0
 116              		.cfi_startproc
 117              		@ args = 0, pretend = 0, frame = 16
 118              		@ frame_needed = 0, uses_anonymous_args = 0
 119              	.LVL7:
 120              		.loc 1 97 0
 121 0000 10B3     		cbz	r0, .L20
 122              		.loc 1 94 0
 123 0002 70B5     		push	{r4, r5, r6, lr}
 124              		.cfi_def_cfa_offset 16
 125              		.cfi_offset 4, -16
 126              		.cfi_offset 5, -12
 127              		.cfi_offset 6, -8
 128              		.cfi_offset 14, -4
 129              		.loc 1 102 0
 130 0004 134A     		ldr	r2, .L22
 131              		.loc 1 94 0
 132 0006 84B0     		sub	sp, sp, #16
 133              		.cfi_def_cfa_offset 32
 134              		.loc 1 97 0
 135 0008 6D46     		mov	r5, sp
 136 000a 6C46     		mov	r4, sp
 137              	.L13:
 138              	.LVL8:
 139              		.loc 1 102 0
 140 000c A2FB0013 		umull	r1, r3, r2, r0
 141 0010 DB08     		lsrs	r3, r3, #3
 142 0012 03EB8301 		add	r1, r3, r3, lsl #2
 143 0016 A0EB4100 		sub	r0, r0, r1, lsl #1
 144              	.LVL9:
 145 001a 00F13001 		add	r1, r0, #48
 146 001e C9B2     		uxtb	r1, r1
 147 0020 04F8011B 		strb	r1, [r4], #1
 148              	.LVL10:
 149              		.loc 1 101 0
 150 0024 1846     		mov	r0, r3
 151 0026 002B     		cmp	r3, #0
 152 0028 F0D1     		bne	.L13
 153              		.loc 1 103 0
 154 002a AC42     		cmp	r4, r5
 155 002c 0AD9     		bls	.L11
 156 002e 0A4E     		ldr	r6, .L22+4
 157 0030 013C     		subs	r4, r4, #1
 158              	.LVL11:
 159 0032 01E0     		b	.L17
 160              	.LVL12:
 161              	.L21:
 162 0034 14F8011D 		ldrb	r1, [r4, #-1]!	@ zero_extendqisi2
 163              	.LVL13:
 164              	.L17:
 165              		.loc 1 104 0
 166 0038 3068     		ldr	r0, [r6]
 167              	.LVL14:
 168 003a 0368     		ldr	r3, [r0]
 169 003c 9B68     		ldr	r3, [r3, #8]
 170 003e 9847     		blx	r3
 171              	.LVL15:
ARM GAS  C:\Users\jo\AppData\Local\Temp\cclIJQpb.s 			page 4


 172              		.loc 1 103 0
 173 0040 AC42     		cmp	r4, r5
 174 0042 F7D1     		bne	.L21
 175              	.LVL16:
 176              	.L11:
 177              		.loc 1 106 0
 178 0044 04B0     		add	sp, sp, #16
 179              		.cfi_def_cfa_offset 16
 180              		@ sp needed
 181 0046 70BD     		pop	{r4, r5, r6, pc}
 182              	.LVL17:
 183              	.L20:
 184              		.cfi_def_cfa_offset 0
 185              		.cfi_restore 4
 186              		.cfi_restore 5
 187              		.cfi_restore 6
 188              		.cfi_restore 14
 189              	.LBB140:
 190              	.LBB141:
 191              		.loc 1 98 0
 192 0048 034B     		ldr	r3, .L22+4
 193 004a 1868     		ldr	r0, [r3]
 194              	.LVL18:
 195 004c 0368     		ldr	r3, [r0]
 196 004e 3021     		movs	r1, #48
 197 0050 9B68     		ldr	r3, [r3, #8]
 198 0052 1847     		bx	r3
 199              	.LVL19:
 200              	.L23:
 201              		.align	2
 202              	.L22:
 203 0054 CDCCCCCC 		.word	-858993459
 204 0058 00000000 		.word	.LANCHOR1
 205              	.LBE141:
 206              	.LBE140:
 207              		.cfi_endproc
 208              	.LFE259:
 209              		.size	test_printn, .-test_printn
 210 005c AFF30080 		.section	.text.test_print,"ax",%progbits
 211              		.align	2
 212              		.p2align 4,,15
 213              		.global	test_print
 214              		.thumb
 215              		.thumb_func
 216              		.type	test_print, %function
 217              	test_print:
 218              	.LFB260:
 219              		.loc 1 113 0
 220              		.cfi_startproc
 221              		@ args = 0, pretend = 0, frame = 0
 222              		@ frame_needed = 0, uses_anonymous_args = 0
 223              	.LVL20:
 224 0000 38B5     		push	{r3, r4, r5, lr}
 225              		.cfi_def_cfa_offset 16
 226              		.cfi_offset 3, -16
 227              		.cfi_offset 4, -12
 228              		.cfi_offset 5, -8
ARM GAS  C:\Users\jo\AppData\Local\Temp\cclIJQpb.s 			page 5


 229              		.cfi_offset 14, -4
 230              		.loc 1 115 0
 231 0002 0178     		ldrb	r1, [r0]	@ zero_extendqisi2
 232              		.loc 1 113 0
 233 0004 0446     		mov	r4, r0
 234              		.loc 1 115 0
 235 0006 41B1     		cbz	r1, .L24
 236 0008 044D     		ldr	r5, .L30
 237              	.LVL21:
 238              	.L26:
 239              		.loc 1 116 0
 240 000a 2868     		ldr	r0, [r5]
 241 000c 0368     		ldr	r3, [r0]
 242 000e 9B68     		ldr	r3, [r3, #8]
 243 0010 9847     		blx	r3
 244              	.LVL22:
 245              		.loc 1 115 0
 246 0012 14F8011F 		ldrb	r1, [r4, #1]!	@ zero_extendqisi2
 247              	.LVL23:
 248 0016 0029     		cmp	r1, #0
 249 0018 F7D1     		bne	.L26
 250              	.LVL24:
 251              	.L24:
 252 001a 38BD     		pop	{r3, r4, r5, pc}
 253              	.L31:
 254              		.align	2
 255              	.L30:
 256 001c 00000000 		.word	.LANCHOR1
 257              		.cfi_endproc
 258              	.LFE260:
 259              		.size	test_print, .-test_print
 260              		.section	.text.test_println,"ax",%progbits
 261              		.align	2
 262              		.p2align 4,,15
 263              		.global	test_println
 264              		.thumb
 265              		.thumb_func
 266              		.type	test_println, %function
 267              	test_println:
 268              	.LFB261:
 269              		.loc 1 124 0
 270              		.cfi_startproc
 271              		@ args = 0, pretend = 0, frame = 0
 272              		@ frame_needed = 0, uses_anonymous_args = 0
 273              	.LVL25:
 274 0000 70B5     		push	{r4, r5, r6, lr}
 275              		.cfi_def_cfa_offset 16
 276              		.cfi_offset 4, -16
 277              		.cfi_offset 5, -12
 278              		.cfi_offset 6, -8
 279              		.cfi_offset 14, -4
 280              	.LBB142:
 281              	.LBB143:
 282              		.loc 1 115 0
 283 0002 0178     		ldrb	r1, [r0]	@ zero_extendqisi2
 284 0004 094D     		ldr	r5, .L38
 285              	.LBE143:
ARM GAS  C:\Users\jo\AppData\Local\Temp\cclIJQpb.s 			page 6


 286              	.LBE142:
 287              		.loc 1 124 0
 288 0006 0446     		mov	r4, r0
 289              	.LVL26:
 290              	.LBB145:
 291              	.LBB144:
 292              		.loc 1 115 0
 293 0008 39B1     		cbz	r1, .L35
 294              	.LVL27:
 295              	.L34:
 296              		.loc 1 116 0
 297 000a 2868     		ldr	r0, [r5]
 298 000c 0368     		ldr	r3, [r0]
 299 000e 9B68     		ldr	r3, [r3, #8]
 300 0010 9847     		blx	r3
 301              	.LVL28:
 302              		.loc 1 115 0
 303 0012 14F8011F 		ldrb	r1, [r4, #1]!	@ zero_extendqisi2
 304              	.LVL29:
 305 0016 0029     		cmp	r1, #0
 306 0018 F7D1     		bne	.L34
 307              	.LVL30:
 308              	.L35:
 309              	.LBE144:
 310              	.LBE145:
 311              		.loc 1 127 0
 312 001a 2868     		ldr	r0, [r5]
 313 001c 0449     		ldr	r1, .L38+4
 314 001e 0368     		ldr	r3, [r0]
 315 0020 0222     		movs	r2, #2
 316 0022 1B68     		ldr	r3, [r3]
 317              		.loc 1 128 0
 318 0024 BDE87040 		pop	{r4, r5, r6, lr}
 319              		.cfi_restore 14
 320              		.cfi_restore 6
 321              		.cfi_restore 5
 322              		.cfi_restore 4
 323              		.cfi_def_cfa_offset 0
 324              		.loc 1 127 0
 325 0028 1847     		bx	r3
 326              	.LVL31:
 327              	.L39:
 328 002a 00BF     		.align	2
 329              	.L38:
 330 002c 00000000 		.word	.LANCHOR1
 331 0030 00000000 		.word	.LC0
 332              		.cfi_endproc
 333              	.LFE261:
 334              		.size	test_println, .-test_println
 335 0034 AFF30080 		.section	.text.test_emit_token,"ax",%progbits
 335      AFF30080 
 335      AFF30080 
 336              		.align	2
 337              		.p2align 4,,15
 338              		.global	test_emit_token
 339              		.thumb
 340              		.thumb_func
ARM GAS  C:\Users\jo\AppData\Local\Temp\cclIJQpb.s 			page 7


 341              		.type	test_emit_token, %function
 342              	test_emit_token:
 343              	.LFB264:
 344              		.loc 1 150 0
 345              		.cfi_startproc
 346              		@ args = 0, pretend = 0, frame = 0
 347              		@ frame_needed = 0, uses_anonymous_args = 0
 348              	.LVL32:
 349 0000 10B5     		push	{r4, lr}
 350              		.cfi_def_cfa_offset 8
 351              		.cfi_offset 4, -8
 352              		.cfi_offset 14, -4
 353              	.LBB156:
 354              	.LBB157:
 355              	.LBB158:
 356              	.LBB159:
 357              	.LBB160:
 358              		.file 2 "../../../os/ext/CMSIS/include/core_cmFunc.h"
 359              		.loc 2 546 0
 360 0002 2023     		movs	r3, #32
 361              	.LBE160:
 362              	.LBE159:
 363              	.LBE158:
 364              	.LBE157:
 365              	.LBE156:
 366              		.loc 1 150 0
 367 0004 0446     		mov	r4, r0
 368              	.LBB165:
 369              	.LBB164:
 370              	.LBB163:
 371              	.LBB162:
 372              	.LBB161:
 373              		.loc 2 546 0
 374              	@ 546 "../../../os/ext/CMSIS/include/core_cmFunc.h" 1
 375 0006 83F31188 		MSR basepri, r3
 376              	@ 0 "" 2
 377              		.thumb
 378              	.LBE161:
 379              	.LBE162:
 380              	.LBE163:
 381              		.file 3 "../../../os/rt/include/chsys.h"
 382              		.loc 3 350 0
 383 000a FFF7FEFF 		bl	_dbg_check_lock
 384              	.LVL33:
 385              	.LBE164:
 386              	.LBE165:
 387              		.loc 1 153 0
 388 000e 0B4A     		ldr	r2, .L43
 389 0010 1368     		ldr	r3, [r2]
 390 0012 1C70     		strb	r4, [r3]
 391 0014 0133     		adds	r3, r3, #1
 392 0016 1360     		str	r3, [r2]
 393              	.LBB166:
 394              	.LBB167:
 395              		.loc 3 360 0
 396 0018 FFF7FEFF 		bl	_dbg_check_unlock
 397              	.LVL34:
ARM GAS  C:\Users\jo\AppData\Local\Temp\cclIJQpb.s 			page 8


 398              		.loc 3 367 0
 399 001c 084B     		ldr	r3, .L43+4
 400 001e 1A68     		ldr	r2, [r3]
 401 0020 9A42     		cmp	r2, r3
 402 0022 07D0     		beq	.L41
 403 0024 9969     		ldr	r1, [r3, #24]
 404 0026 9368     		ldr	r3, [r2, #8]
 405 0028 8A68     		ldr	r2, [r1, #8]
 406 002a 9A42     		cmp	r2, r3
 407 002c 02D2     		bcs	.L41
 408 002e 0548     		ldr	r0, .L43+8
 409 0030 FFF7FEFF 		bl	chSysHalt
 410              	.LVL35:
 411              	.L41:
 412              	.LBB168:
 413              	.LBB169:
 414              	.LBB170:
 415              		.loc 2 546 0
 416 0034 0023     		movs	r3, #0
 417              	@ 546 "../../../os/ext/CMSIS/include/core_cmFunc.h" 1
 418 0036 83F31188 		MSR basepri, r3
 419              	@ 0 "" 2
 420              		.thumb
 421 003a 10BD     		pop	{r4, pc}
 422              	.L44:
 423              		.align	2
 424              	.L43:
 425 003c 00000000 		.word	.LANCHOR2
 426 0040 00000000 		.word	ch
 427 0044 00000000 		.word	.LANCHOR3
 428              	.LBE170:
 429              	.LBE169:
 430              	.LBE168:
 431              	.LBE167:
 432              	.LBE166:
 433              		.cfi_endproc
 434              	.LFE264:
 435              		.size	test_emit_token, .-test_emit_token
 436 0048 AFF30080 		.section	.text._test_fail,"ax",%progbits
 436      AFF30080 
 437              		.align	2
 438              		.p2align 4,,15
 439              		.global	_test_fail
 440              		.thumb
 441              		.thumb_func
 442              		.type	_test_fail, %function
 443              	_test_fail:
 444              	.LFB265:
 445              		.loc 1 160 0
 446              		.cfi_startproc
 447              		@ args = 0, pretend = 0, frame = 0
 448              		@ frame_needed = 0, uses_anonymous_args = 0
 449              		@ link register save eliminated.
 450              	.LVL36:
 451              		.loc 1 164 0
 452 0000 0349     		ldr	r1, .L46
 453              		.loc 1 162 0
ARM GAS  C:\Users\jo\AppData\Local\Temp\cclIJQpb.s 			page 9


 454 0002 044A     		ldr	r2, .L46+4
 455              		.loc 1 163 0
 456 0004 044B     		ldr	r3, .L46+8
 457              		.loc 1 164 0
 458 0006 0860     		str	r0, [r1]
 459              		.loc 1 162 0
 460 0008 0120     		movs	r0, #1
 461              	.LVL37:
 462 000a 1070     		strb	r0, [r2]
 463              		.loc 1 163 0
 464 000c 1870     		strb	r0, [r3]
 465              		.loc 1 166 0
 466 000e 7047     		bx	lr
 467              	.L47:
 468              		.align	2
 469              	.L46:
 470 0010 00000000 		.word	.LANCHOR6
 471 0014 00000000 		.word	.LANCHOR4
 472 0018 00000000 		.word	.LANCHOR5
 473              		.cfi_endproc
 474              	.LFE265:
 475              		.size	_test_fail, .-_test_fail
 476 001c AFF30080 		.section	.text._test_assert,"ax",%progbits
 477              		.align	2
 478              		.p2align 4,,15
 479              		.global	_test_assert
 480              		.thumb
 481              		.thumb_func
 482              		.type	_test_assert, %function
 483              	_test_assert:
 484              	.LFB266:
 485              		.loc 1 168 0
 486              		.cfi_startproc
 487              		@ args = 0, pretend = 0, frame = 0
 488              		@ frame_needed = 0, uses_anonymous_args = 0
 489              		@ link register save eliminated.
 490              	.LVL38:
 491              		.loc 1 170 0
 492 0000 59B9     		cbnz	r1, .L50
 493              	.LVL39:
 494              		.loc 1 168 0
 495 0002 10B4     		push	{r4}
 496              		.cfi_def_cfa_offset 4
 497              		.cfi_offset 4, -4
 498              	.LBB171:
 499              	.LBB172:
 500              		.loc 1 163 0
 501 0004 0649     		ldr	r1, .L53
 502              	.LVL40:
 503              		.loc 1 162 0
 504 0006 074C     		ldr	r4, .L53+4
 505              		.loc 1 164 0
 506 0008 074A     		ldr	r2, .L53+8
 507              		.loc 1 162 0
 508 000a 0123     		movs	r3, #1
 509 000c 2370     		strb	r3, [r4]
 510              		.loc 1 164 0
ARM GAS  C:\Users\jo\AppData\Local\Temp\cclIJQpb.s 			page 10


 511 000e 1060     		str	r0, [r2]
 512              		.loc 1 163 0
 513 0010 0B70     		strb	r3, [r1]
 514              	.LBE172:
 515              	.LBE171:
 516              		.loc 1 173 0
 517 0012 1846     		mov	r0, r3
 518              	.LVL41:
 519 0014 5DF8044B 		ldr	r4, [sp], #4
 520              		.cfi_restore 4
 521              		.cfi_def_cfa_offset 0
 522 0018 7047     		bx	lr
 523              	.LVL42:
 524              	.L50:
 525              		.loc 1 172 0
 526 001a 0023     		movs	r3, #0
 527              		.loc 1 173 0
 528 001c 1846     		mov	r0, r3
 529              	.LVL43:
 530 001e 7047     		bx	lr
 531              	.L54:
 532              		.align	2
 533              	.L53:
 534 0020 00000000 		.word	.LANCHOR5
 535 0024 00000000 		.word	.LANCHOR4
 536 0028 00000000 		.word	.LANCHOR6
 537              		.cfi_endproc
 538              	.LFE266:
 539              		.size	_test_assert, .-_test_assert
 540 002c AFF30080 		.section	.text._test_assert_sequence,"ax",%progbits
 541              		.align	2
 542              		.p2align 4,,15
 543              		.global	_test_assert_sequence
 544              		.thumb
 545              		.thumb_func
 546              		.type	_test_assert_sequence, %function
 547              	_test_assert_sequence:
 548              	.LFB267:
 549              		.loc 1 175 0
 550              		.cfi_startproc
 551              		@ args = 0, pretend = 0, frame = 0
 552              		@ frame_needed = 0, uses_anonymous_args = 0
 553              		@ link register save eliminated.
 554              	.LVL44:
 555 0000 F0B4     		push	{r4, r5, r6, r7}
 556              		.cfi_def_cfa_offset 16
 557              		.cfi_offset 4, -16
 558              		.cfi_offset 5, -12
 559              		.cfi_offset 6, -8
 560              		.cfi_offset 7, -4
 561 0002 0E4E     		ldr	r6, .L62
 562              		.loc 1 176 0
 563 0004 0E4F     		ldr	r7, .L62+4
 564 0006 3568     		ldr	r5, [r6]
 565 0008 3B46     		mov	r3, r7
 566              		.loc 1 177 0
 567 000a 05E0     		b	.L56
ARM GAS  C:\Users\jo\AppData\Local\Temp\cclIJQpb.s 			page 11


 568              	.LVL45:
 569              	.L58:
 570              		.loc 1 178 0
 571 000c 13F8014B 		ldrb	r4, [r3], #1	@ zero_extendqisi2
 572              	.LVL46:
 573 0010 11F8012B 		ldrb	r2, [r1], #1	@ zero_extendqisi2
 574              	.LVL47:
 575 0014 9442     		cmp	r4, r2
 576 0016 07D1     		bne	.L59
 577              	.LVL48:
 578              	.L56:
 579              		.loc 1 177 0
 580 0018 AB42     		cmp	r3, r5
 581 001a F7D3     		bcc	.L58
 582              		.loc 1 181 0
 583 001c 0B78     		ldrb	r3, [r1]	@ zero_extendqisi2
 584              	.LVL49:
 585 001e 1BB9     		cbnz	r3, .L59
 586              	.LBB173:
 587              	.LBB174:
 588              		.loc 1 135 0
 589 0020 3760     		str	r7, [r6]
 590              	.LBE174:
 591              	.LBE173:
 592              		.loc 1 185 0
 593 0022 1846     		mov	r0, r3
 594              	.LVL50:
 595 0024 F0BC     		pop	{r4, r5, r6, r7}
 596              		.cfi_remember_state
 597              		.cfi_restore 4
 598              		.cfi_restore 5
 599              		.cfi_restore 6
 600              		.cfi_restore 7
 601              		.cfi_def_cfa_offset 0
 602 0026 7047     		bx	lr
 603              	.LVL51:
 604              	.L59:
 605              		.cfi_restore_state
 606              	.LBB175:
 607              	.LBB176:
 608              		.loc 1 162 0
 609 0028 064C     		ldr	r4, .L62+8
 610              		.loc 1 163 0
 611 002a 0749     		ldr	r1, .L62+12
 612              		.loc 1 164 0
 613 002c 074A     		ldr	r2, .L62+16
 614              		.loc 1 162 0
 615 002e 0123     		movs	r3, #1
 616 0030 2370     		strb	r3, [r4]
 617              		.loc 1 164 0
 618 0032 1060     		str	r0, [r2]
 619              		.loc 1 163 0
 620 0034 0B70     		strb	r3, [r1]
 621              	.LBE176:
 622              	.LBE175:
 623              		.loc 1 185 0
 624 0036 1846     		mov	r0, r3
ARM GAS  C:\Users\jo\AppData\Local\Temp\cclIJQpb.s 			page 12


 625              	.LVL52:
 626 0038 F0BC     		pop	{r4, r5, r6, r7}
 627              		.cfi_restore 7
 628              		.cfi_restore 6
 629              		.cfi_restore 5
 630              		.cfi_restore 4
 631              		.cfi_def_cfa_offset 0
 632 003a 7047     		bx	lr
 633              	.L63:
 634              		.align	2
 635              	.L62:
 636 003c 00000000 		.word	.LANCHOR2
 637 0040 00000000 		.word	.LANCHOR7
 638 0044 00000000 		.word	.LANCHOR4
 639 0048 00000000 		.word	.LANCHOR5
 640 004c 00000000 		.word	.LANCHOR6
 641              		.cfi_endproc
 642              	.LFE267:
 643              		.size	_test_assert_sequence, .-_test_assert_sequence
 644              		.section	.text._test_assert_time_window,"ax",%progbits
 645              		.align	2
 646              		.p2align 4,,15
 647              		.global	_test_assert_time_window
 648              		.thumb
 649              		.thumb_func
 650              		.type	_test_assert_time_window, %function
 651              	_test_assert_time_window:
 652              	.LFB268:
 653              		.loc 1 187 0
 654              		.cfi_startproc
 655              		@ args = 0, pretend = 0, frame = 0
 656              		@ frame_needed = 0, uses_anonymous_args = 0
 657              	.LVL53:
 658 0000 F8B5     		push	{r3, r4, r5, r6, r7, lr}
 659              		.cfi_def_cfa_offset 24
 660              		.cfi_offset 3, -24
 661              		.cfi_offset 4, -20
 662              		.cfi_offset 5, -16
 663              		.cfi_offset 6, -12
 664              		.cfi_offset 7, -8
 665              		.cfi_offset 14, -4
 666              		.loc 1 187 0
 667 0002 0646     		mov	r6, r0
 668 0004 0F46     		mov	r7, r1
 669              	.LVL54:
 670 0006 1446     		mov	r4, r2
 671              	.LVL55:
 672              	.LBB200:
 673              	.LBB201:
 674              	.LBB202:
 675              	.LBB203:
 676              	.LBB204:
 677              	.LBB205:
 678              	.LBB206:
 679              	.LBB207:
 680              		.loc 2 546 0
 681 0008 2023     		movs	r3, #32
ARM GAS  C:\Users\jo\AppData\Local\Temp\cclIJQpb.s 			page 13


 682              	@ 546 "../../../os/ext/CMSIS/include/core_cmFunc.h" 1
 683 000a 83F31188 		MSR basepri, r3
 684              	@ 0 "" 2
 685              		.thumb
 686              	.LBE207:
 687              	.LBE206:
 688              	.LBE205:
 689              		.loc 3 350 0
 690 000e FFF7FEFF 		bl	_dbg_check_lock
 691              	.LVL56:
 692              	.LBE204:
 693              	.LBE203:
 694              	.LBB208:
 695              	.LBB209:
 696              	.LBB210:
 697              	.LBB211:
 698              		.file 4 "../../../os/hal/ports/STM32/LLD/TIMv1/st_lld.h"
 699              		.loc 4 129 0
 700 0012 4FF08043 		mov	r3, #1073741824
 701 0016 5D6A     		ldr	r5, [r3, #36]
 702              	.LBE211:
 703              	.LBE210:
 704              	.LBE209:
 705              	.LBE208:
 706              	.LBB212:
 707              	.LBB213:
 708              		.loc 3 360 0
 709 0018 FFF7FEFF 		bl	_dbg_check_unlock
 710              	.LVL57:
 711              		.loc 3 367 0
 712 001c 0D4B     		ldr	r3, .L69
 713 001e 1A68     		ldr	r2, [r3]
 714 0020 9A42     		cmp	r2, r3
 715 0022 07D0     		beq	.L65
 716 0024 9969     		ldr	r1, [r3, #24]
 717 0026 9368     		ldr	r3, [r2, #8]
 718 0028 8A68     		ldr	r2, [r1, #8]
 719 002a 9A42     		cmp	r2, r3
 720 002c 02D2     		bcs	.L65
 721 002e 0A48     		ldr	r0, .L69+4
 722 0030 FFF7FEFF 		bl	chSysHalt
 723              	.LVL58:
 724              	.L65:
 725              	.LBB214:
 726              	.LBB215:
 727              	.LBB216:
 728              		.loc 2 546 0
 729 0034 0020     		movs	r0, #0
 730              	@ 546 "../../../os/ext/CMSIS/include/core_cmFunc.h" 1
 731 0036 80F31188 		MSR basepri, r0
 732              	@ 0 "" 2
 733              	.LVL59:
 734              		.thumb
 735              	.LBE216:
 736              	.LBE215:
 737              	.LBE214:
 738              	.LBE213:
ARM GAS  C:\Users\jo\AppData\Local\Temp\cclIJQpb.s 			page 14


 739              	.LBE212:
 740              	.LBE202:
 741              	.LBE201:
 742              	.LBB217:
 743              	.LBB218:
 744              		.file 5 "../../../os/rt/include/chvt.h"
 745              		.loc 5 288 0
 746 003a ED1B     		subs	r5, r5, r7
 747              	.LVL60:
 748 003c E41B     		subs	r4, r4, r7
 749              	.LVL61:
 750              	.LBE218:
 751              	.LBE217:
 752              	.LBE200:
 753              	.LBB219:
 754              	.LBB220:
 755              		.loc 1 170 0
 756 003e A542     		cmp	r5, r4
 757 0040 06D3     		bcc	.L66
 758              	.LVL62:
 759              	.LBB221:
 760              	.LBB222:
 761              		.loc 1 162 0
 762 0042 0649     		ldr	r1, .L69+8
 763              		.loc 1 163 0
 764 0044 064A     		ldr	r2, .L69+12
 765              		.loc 1 164 0
 766 0046 074B     		ldr	r3, .L69+16
 767              		.loc 1 162 0
 768 0048 0120     		movs	r0, #1
 769 004a 0870     		strb	r0, [r1]
 770              		.loc 1 163 0
 771 004c 1070     		strb	r0, [r2]
 772              		.loc 1 164 0
 773 004e 1E60     		str	r6, [r3]
 774              	.LVL63:
 775              	.L66:
 776              	.LBE222:
 777              	.LBE221:
 778              	.LBE220:
 779              	.LBE219:
 780              		.loc 1 190 0
 781 0050 F8BD     		pop	{r3, r4, r5, r6, r7, pc}
 782              	.LVL64:
 783              	.L70:
 784 0052 00BF     		.align	2
 785              	.L69:
 786 0054 00000000 		.word	ch
 787 0058 00000000 		.word	.LANCHOR3
 788 005c 00000000 		.word	.LANCHOR4
 789 0060 00000000 		.word	.LANCHOR5
 790 0064 00000000 		.word	.LANCHOR6
 791              		.cfi_endproc
 792              	.LFE268:
 793              		.size	_test_assert_time_window, .-_test_assert_time_window
 794 0068 AFF30080 		.section	.text.test_terminate_threads,"ax",%progbits
 794      AFF30080 
ARM GAS  C:\Users\jo\AppData\Local\Temp\cclIJQpb.s 			page 15


 795              		.align	2
 796              		.p2align 4,,15
 797              		.global	test_terminate_threads
 798              		.thumb
 799              		.thumb_func
 800              		.type	test_terminate_threads, %function
 801              	test_terminate_threads:
 802              	.LFB269:
 803              		.loc 1 199 0
 804              		.cfi_startproc
 805              		@ args = 0, pretend = 0, frame = 0
 806              		@ frame_needed = 0, uses_anonymous_args = 0
 807              	.LVL65:
 808 0000 38B5     		push	{r3, r4, r5, lr}
 809              		.cfi_def_cfa_offset 16
 810              		.cfi_offset 3, -16
 811              		.cfi_offset 4, -12
 812              		.cfi_offset 5, -8
 813              		.cfi_offset 14, -4
 814 0002 064C     		ldr	r4, .L79
 815 0004 04F11405 		add	r5, r4, #20
 816              	.LVL66:
 817              	.L73:
 818              		.loc 1 203 0
 819 0008 54F8043B 		ldr	r3, [r4], #4
 820              		.loc 1 204 0
 821 000c 1846     		mov	r0, r3
 822              		.loc 1 203 0
 823 000e 0BB1     		cbz	r3, .L72
 824              		.loc 1 204 0
 825 0010 FFF7FEFF 		bl	chThdTerminate
 826              	.LVL67:
 827              	.L72:
 828              		.loc 1 202 0 discriminator 2
 829 0014 AC42     		cmp	r4, r5
 830 0016 F7D1     		bne	.L73
 831              		.loc 1 205 0
 832 0018 38BD     		pop	{r3, r4, r5, pc}
 833              	.L80:
 834 001a 00BF     		.align	2
 835              	.L79:
 836 001c 00000000 		.word	.LANCHOR8
 837              		.cfi_endproc
 838              	.LFE269:
 839              		.size	test_terminate_threads, .-test_terminate_threads
 840              		.section	.text.test_wait_threads,"ax",%progbits
 841              		.align	2
 842              		.p2align 4,,15
 843              		.global	test_wait_threads
 844              		.thumb
 845              		.thumb_func
 846              		.type	test_wait_threads, %function
 847              	test_wait_threads:
 848              	.LFB270:
 849              		.loc 1 210 0
 850              		.cfi_startproc
 851              		@ args = 0, pretend = 0, frame = 0
ARM GAS  C:\Users\jo\AppData\Local\Temp\cclIJQpb.s 			page 16


 852              		@ frame_needed = 0, uses_anonymous_args = 0
 853              	.LVL68:
 854 0000 70B5     		push	{r4, r5, r6, lr}
 855              		.cfi_def_cfa_offset 16
 856              		.cfi_offset 4, -16
 857              		.cfi_offset 5, -12
 858              		.cfi_offset 6, -8
 859              		.cfi_offset 14, -4
 860 0002 074C     		ldr	r4, .L89
 861              		.loc 1 216 0
 862 0004 0026     		movs	r6, #0
 863 0006 04F11405 		add	r5, r4, #20
 864              	.LVL69:
 865              	.L83:
 866              		.loc 1 214 0
 867 000a 54F8040B 		ldr	r0, [r4], #4
 868 000e 18B1     		cbz	r0, .L82
 869              		.loc 1 215 0
 870 0010 FFF7FEFF 		bl	chThdWait
 871              	.LVL70:
 872              		.loc 1 216 0
 873 0014 44F8046C 		str	r6, [r4, #-4]
 874              	.L82:
 875              		.loc 1 213 0 discriminator 2
 876 0018 AC42     		cmp	r4, r5
 877 001a F6D1     		bne	.L83
 878              		.loc 1 218 0
 879 001c 70BD     		pop	{r4, r5, r6, pc}
 880              	.L90:
 881 001e 00BF     		.align	2
 882              	.L89:
 883 0020 00000000 		.word	.LANCHOR8
 884              		.cfi_endproc
 885              	.LFE270:
 886              		.size	test_wait_threads, .-test_wait_threads
 887 0024 AFF30080 		.section	.text.test_wait_tick,"ax",%progbits
 887      AFF30080 
 887      AFF30080 
 888              		.align	2
 889              		.p2align 4,,15
 890              		.global	test_wait_tick
 891              		.thumb
 892              		.thumb_func
 893              		.type	test_wait_tick, %function
 894              	test_wait_tick:
 895              	.LFB271:
 896              		.loc 1 248 0
 897              		.cfi_startproc
 898              		@ args = 0, pretend = 0, frame = 0
 899              		@ frame_needed = 0, uses_anonymous_args = 0
 900 0000 10B5     		push	{r4, lr}
 901              		.cfi_def_cfa_offset 8
 902              		.cfi_offset 4, -8
 903              		.cfi_offset 14, -4
 904              		.loc 1 250 0
 905 0002 0120     		movs	r0, #1
 906 0004 FFF7FEFF 		bl	chThdSleep
ARM GAS  C:\Users\jo\AppData\Local\Temp\cclIJQpb.s 			page 17


 907              	.LVL71:
 908              	.LBB239:
 909              	.LBB240:
 910              	.LBB241:
 911              	.LBB242:
 912              	.LBB243:
 913              	.LBB244:
 914              	.LBB245:
 915              		.loc 2 546 0
 916 0008 2023     		movs	r3, #32
 917              	@ 546 "../../../os/ext/CMSIS/include/core_cmFunc.h" 1
 918 000a 83F31188 		MSR basepri, r3
 919              	@ 0 "" 2
 920              		.thumb
 921              	.LBE245:
 922              	.LBE244:
 923              	.LBE243:
 924              		.loc 3 350 0
 925 000e FFF7FEFF 		bl	_dbg_check_lock
 926              	.LVL72:
 927              	.LBE242:
 928              	.LBE241:
 929              	.LBB246:
 930              	.LBB247:
 931              	.LBB248:
 932              	.LBB249:
 933              		.loc 4 129 0
 934 0012 4FF08043 		mov	r3, #1073741824
 935 0016 5C6A     		ldr	r4, [r3, #36]
 936              	.LBE249:
 937              	.LBE248:
 938              	.LBE247:
 939              	.LBE246:
 940              	.LBB250:
 941              	.LBB251:
 942              		.loc 3 360 0
 943 0018 FFF7FEFF 		bl	_dbg_check_unlock
 944              	.LVL73:
 945              		.loc 3 367 0
 946 001c 084B     		ldr	r3, .L94
 947 001e 1A68     		ldr	r2, [r3]
 948 0020 9A42     		cmp	r2, r3
 949 0022 07D0     		beq	.L92
 950 0024 9969     		ldr	r1, [r3, #24]
 951 0026 9368     		ldr	r3, [r2, #8]
 952 0028 8A68     		ldr	r2, [r1, #8]
 953 002a 9A42     		cmp	r2, r3
 954 002c 02D2     		bcs	.L92
 955 002e 0548     		ldr	r0, .L94+4
 956 0030 FFF7FEFF 		bl	chSysHalt
 957              	.LVL74:
 958              	.L92:
 959              	.LBB252:
 960              	.LBB253:
 961              	.LBB254:
 962              		.loc 2 546 0
 963 0034 0023     		movs	r3, #0
ARM GAS  C:\Users\jo\AppData\Local\Temp\cclIJQpb.s 			page 18


 964              	@ 546 "../../../os/ext/CMSIS/include/core_cmFunc.h" 1
 965 0036 83F31188 		MSR basepri, r3
 966              	@ 0 "" 2
 967              		.thumb
 968              	.LBE254:
 969              	.LBE253:
 970              	.LBE252:
 971              	.LBE251:
 972              	.LBE250:
 973              	.LBE240:
 974              	.LBE239:
 975              		.loc 1 252 0
 976 003a 2046     		mov	r0, r4
 977 003c 10BD     		pop	{r4, pc}
 978              	.L95:
 979 003e 00BF     		.align	2
 980              	.L94:
 981 0040 00000000 		.word	ch
 982 0044 00000000 		.word	.LANCHOR3
 983              		.cfi_endproc
 984              	.LFE271:
 985              		.size	test_wait_tick, .-test_wait_tick
 986 0048 AFF30080 		.section	.text.test_start_timer,"ax",%progbits
 986      AFF30080 
 987              		.align	2
 988              		.p2align 4,,15
 989              		.global	test_start_timer
 990              		.thumb
 991              		.thumb_func
 992              		.type	test_start_timer, %function
 993              	test_start_timer:
 994              	.LFB273:
 995              		.loc 1 275 0
 996              		.cfi_startproc
 997              		@ args = 0, pretend = 0, frame = 0
 998              		@ frame_needed = 0, uses_anonymous_args = 0
 999              	.LVL75:
 1000 0000 10B5     		push	{r4, lr}
 1001              		.cfi_def_cfa_offset 8
 1002              		.cfi_offset 4, -8
 1003              		.cfi_offset 14, -4
 1004              		.loc 1 277 0
 1005 0002 4CF25034 		movw	r4, #50000
 1006 0006 04FB00F4 		mul	r4, r4, r0
 1007 000a 1648     		ldr	r0, .L103
 1008              	.LVL76:
 1009              		.loc 1 278 0
 1010 000c 164B     		ldr	r3, .L103+4
 1011              		.loc 1 277 0
 1012 000e 04F2E734 		addw	r4, r4, #999
 1013 0012 A0FB0424 		umull	r2, r4, r0, r4
 1014              		.loc 1 278 0
 1015 0016 0022     		movs	r2, #0
 1016 0018 1A70     		strb	r2, [r3]
 1017              		.loc 1 277 0
 1018 001a A409     		lsrs	r4, r4, #6
 1019              	.LVL77:
ARM GAS  C:\Users\jo\AppData\Local\Temp\cclIJQpb.s 			page 19


 1020              	.LBB273:
 1021              	.LBB274:
 1022              	.LBB275:
 1023              	.LBB276:
 1024              	.LBB277:
 1025              	.LBB278:
 1026              		.loc 2 546 0
 1027 001c 2023     		movs	r3, #32
 1028              	@ 546 "../../../os/ext/CMSIS/include/core_cmFunc.h" 1
 1029 001e 83F31188 		MSR basepri, r3
 1030              	@ 0 "" 2
 1031              		.thumb
 1032              	.LBE278:
 1033              	.LBE277:
 1034              	.LBE276:
 1035              		.loc 3 350 0
 1036 0022 FFF7FEFF 		bl	_dbg_check_lock
 1037              	.LVL78:
 1038              	.LBE275:
 1039              	.LBE274:
 1040              	.LBB279:
 1041              	.LBB280:
 1042              	.LBB281:
 1043              	.LBB282:
 1044              	.LBB283:
 1045              	.LBB284:
 1046              		.loc 5 339 0
 1047 0026 FFF7FEFF 		bl	chDbgCheckClassI
 1048              	.LVL79:
 1049              		.loc 5 341 0
 1050 002a 1048     		ldr	r0, .L103+8
 1051              	.LBE284:
 1052              	.LBE283:
 1053              		.loc 5 376 0
 1054 002c C368     		ldr	r3, [r0, #12]
 1055 002e 0BB1     		cbz	r3, .L97
 1056              		.loc 5 377 0
 1057 0030 FFF7FEFF 		bl	chVTDoResetI
 1058              	.LVL80:
 1059              	.L97:
 1060              	.LBE282:
 1061              	.LBE281:
 1062              		.loc 5 424 0
 1063 0034 0E4A     		ldr	r2, .L103+12
 1064 0036 0D48     		ldr	r0, .L103+8
 1065 0038 0023     		movs	r3, #0
 1066 003a 2146     		mov	r1, r4
 1067 003c FFF7FEFF 		bl	chVTDoSetI
 1068              	.LVL81:
 1069              	.LBE280:
 1070              	.LBE279:
 1071              	.LBB285:
 1072              	.LBB286:
 1073              		.loc 3 360 0
 1074 0040 FFF7FEFF 		bl	_dbg_check_unlock
 1075              	.LVL82:
 1076              		.loc 3 367 0
ARM GAS  C:\Users\jo\AppData\Local\Temp\cclIJQpb.s 			page 20


 1077 0044 0B4B     		ldr	r3, .L103+16
 1078 0046 1A68     		ldr	r2, [r3]
 1079 0048 9A42     		cmp	r2, r3
 1080 004a 07D0     		beq	.L98
 1081 004c 9969     		ldr	r1, [r3, #24]
 1082 004e 9368     		ldr	r3, [r2, #8]
 1083 0050 8A68     		ldr	r2, [r1, #8]
 1084 0052 9A42     		cmp	r2, r3
 1085 0054 02D2     		bcs	.L98
 1086 0056 0848     		ldr	r0, .L103+20
 1087 0058 FFF7FEFF 		bl	chSysHalt
 1088              	.LVL83:
 1089              	.L98:
 1090              	.LBB287:
 1091              	.LBB288:
 1092              	.LBB289:
 1093              		.loc 2 546 0
 1094 005c 0023     		movs	r3, #0
 1095              	@ 546 "../../../os/ext/CMSIS/include/core_cmFunc.h" 1
 1096 005e 83F31188 		MSR basepri, r3
 1097              	@ 0 "" 2
 1098              		.thumb
 1099 0062 10BD     		pop	{r4, pc}
 1100              	.LVL84:
 1101              	.L104:
 1102              		.align	2
 1103              	.L103:
 1104 0064 D34D6210 		.word	274877907
 1105 0068 00000000 		.word	.LANCHOR0
 1106 006c 00000000 		.word	.LANCHOR9
 1107 0070 00000000 		.word	tmr
 1108 0074 00000000 		.word	ch
 1109 0078 00000000 		.word	.LANCHOR3
 1110              	.LBE289:
 1111              	.LBE288:
 1112              	.LBE287:
 1113              	.LBE286:
 1114              	.LBE285:
 1115              	.LBE273:
 1116              		.cfi_endproc
 1117              	.LFE273:
 1118              		.size	test_start_timer, .-test_start_timer
 1119 007c AFF30080 		.section	.text.TestThread,"ax",%progbits
 1120              		.align	2
 1121              		.p2align 4,,15
 1122              		.global	TestThread
 1123              		.thumb
 1124              		.thumb_func
 1125              		.type	TestThread, %function
 1126              	TestThread:
 1127              	.LFB276:
 1128              		.loc 1 316 0
 1129              		.cfi_startproc
 1130              		@ args = 0, pretend = 0, frame = 8
 1131              		@ frame_needed = 0, uses_anonymous_args = 0
 1132              	.LVL85:
 1133 0000 2DE9F04F 		push	{r4, r5, r6, r7, r8, r9, r10, fp, lr}
ARM GAS  C:\Users\jo\AppData\Local\Temp\cclIJQpb.s 			page 21


 1134              		.cfi_def_cfa_offset 36
 1135              		.cfi_offset 4, -36
 1136              		.cfi_offset 5, -32
 1137              		.cfi_offset 6, -28
 1138              		.cfi_offset 7, -24
 1139              		.cfi_offset 8, -20
 1140              		.cfi_offset 9, -16
 1141              		.cfi_offset 10, -12
 1142              		.cfi_offset 11, -8
 1143              		.cfi_offset 14, -4
 1144              		.loc 1 319 0
 1145 0004 9E4C     		ldr	r4, .L189
 1146              		.loc 1 322 0
 1147 0006 9F4D     		ldr	r5, .L189+4
 1148              		.loc 1 319 0
 1149 0008 2060     		str	r0, [r4]
 1150              		.loc 1 316 0
 1151 000a 83B0     		sub	sp, sp, #12
 1152              		.cfi_def_cfa_offset 48
 1153              		.loc 1 320 0
 1154 000c 9E48     		ldr	r0, .L189+8
 1155              	.LVL86:
 1156 000e FFF7FEFF 		bl	test_println
 1157              	.LVL87:
 1158              		.loc 1 321 0
 1159 0012 9E48     		ldr	r0, .L189+12
 1160 0014 FFF7FEFF 		bl	test_println
 1161              	.LVL88:
 1162              		.loc 1 322 0
 1163 0018 9D48     		ldr	r0, .L189+16
 1164 001a FFF7FEFF 		bl	test_println
 1165              	.LVL89:
 1166 001e 2A21     		movs	r1, #42
 1167              	.LVL90:
 1168              	.L106:
 1169              	.LBB326:
 1170              	.LBB327:
 1171              		.loc 1 116 0
 1172 0020 2068     		ldr	r0, [r4]
 1173 0022 0368     		ldr	r3, [r0]
 1174 0024 9B68     		ldr	r3, [r3, #8]
 1175 0026 9847     		blx	r3
 1176              	.LVL91:
 1177              		.loc 1 115 0
 1178 0028 15F8011F 		ldrb	r1, [r5, #1]!	@ zero_extendqisi2
 1179              	.LVL92:
 1180 002c 0029     		cmp	r1, #0
 1181 002e F7D1     		bne	.L106
 1182              	.LBE327:
 1183              	.LBE326:
 1184              		.loc 1 324 0
 1185 0030 9848     		ldr	r0, .L189+20
 1186 0032 994D     		ldr	r5, .L189+24
 1187              	.LVL93:
 1188 0034 FFF7FEFF 		bl	test_println
 1189              	.LVL94:
 1190 0038 2A21     		movs	r1, #42
ARM GAS  C:\Users\jo\AppData\Local\Temp\cclIJQpb.s 			page 22


 1191              	.LVL95:
 1192              	.L108:
 1193              	.LBB328:
 1194              	.LBB329:
 1195              		.loc 1 116 0
 1196 003a 2068     		ldr	r0, [r4]
 1197 003c 0368     		ldr	r3, [r0]
 1198 003e 9B68     		ldr	r3, [r3, #8]
 1199 0040 9847     		blx	r3
 1200              	.LVL96:
 1201              		.loc 1 115 0
 1202 0042 15F8011F 		ldrb	r1, [r5, #1]!	@ zero_extendqisi2
 1203              	.LVL97:
 1204 0046 0029     		cmp	r1, #0
 1205 0048 F7D1     		bne	.L108
 1206              	.LBE329:
 1207              	.LBE328:
 1208              		.loc 1 326 0
 1209 004a 9448     		ldr	r0, .L189+28
 1210 004c 944D     		ldr	r5, .L189+32
 1211              	.LVL98:
 1212 004e FFF7FEFF 		bl	test_println
 1213              	.LVL99:
 1214 0052 2A21     		movs	r1, #42
 1215              	.LVL100:
 1216              	.L110:
 1217              	.LBB330:
 1218              	.LBB331:
 1219              		.loc 1 116 0
 1220 0054 2068     		ldr	r0, [r4]
 1221 0056 0368     		ldr	r3, [r0]
 1222 0058 9B68     		ldr	r3, [r3, #8]
 1223 005a 9847     		blx	r3
 1224              	.LVL101:
 1225              		.loc 1 115 0
 1226 005c 15F8011F 		ldrb	r1, [r5, #1]!	@ zero_extendqisi2
 1227              	.LVL102:
 1228 0060 0029     		cmp	r1, #0
 1229 0062 F7D1     		bne	.L110
 1230              	.LBE331:
 1231              	.LBE330:
 1232              		.loc 1 329 0
 1233 0064 8F48     		ldr	r0, .L189+36
 1234 0066 904D     		ldr	r5, .L189+40
 1235              	.LVL103:
 1236 0068 FFF7FEFF 		bl	test_println
 1237              	.LVL104:
 1238 006c 2A21     		movs	r1, #42
 1239              	.LVL105:
 1240              	.L112:
 1241              	.LBB332:
 1242              	.LBB333:
 1243              		.loc 1 116 0
 1244 006e 2068     		ldr	r0, [r4]
 1245 0070 0368     		ldr	r3, [r0]
 1246 0072 9B68     		ldr	r3, [r3, #8]
 1247 0074 9847     		blx	r3
ARM GAS  C:\Users\jo\AppData\Local\Temp\cclIJQpb.s 			page 23


 1248              	.LVL106:
 1249              		.loc 1 115 0
 1250 0076 15F8011F 		ldrb	r1, [r5, #1]!	@ zero_extendqisi2
 1251              	.LVL107:
 1252 007a 0029     		cmp	r1, #0
 1253 007c F7D1     		bne	.L112
 1254              	.LBE333:
 1255              	.LBE332:
 1256              		.loc 1 332 0
 1257 007e 8B48     		ldr	r0, .L189+44
 1258 0080 8B4D     		ldr	r5, .L189+48
 1259              	.LVL108:
 1260 0082 FFF7FEFF 		bl	test_println
 1261              	.LVL109:
 1262 0086 2A21     		movs	r1, #42
 1263              	.LVL110:
 1264              	.L114:
 1265              	.LBB334:
 1266              	.LBB335:
 1267              		.loc 1 116 0
 1268 0088 2068     		ldr	r0, [r4]
 1269 008a 0368     		ldr	r3, [r0]
 1270 008c 9B68     		ldr	r3, [r3, #8]
 1271 008e 9847     		blx	r3
 1272              	.LVL111:
 1273              		.loc 1 115 0
 1274 0090 15F8011F 		ldrb	r1, [r5, #1]!	@ zero_extendqisi2
 1275              	.LVL112:
 1276 0094 0029     		cmp	r1, #0
 1277 0096 F7D1     		bne	.L114
 1278              	.LBE335:
 1279              	.LBE334:
 1280              		.loc 1 335 0
 1281 0098 8648     		ldr	r0, .L189+52
 1282 009a 874D     		ldr	r5, .L189+56
 1283              	.LVL113:
 1284 009c FFF7FEFF 		bl	test_println
 1285              	.LVL114:
 1286 00a0 2A21     		movs	r1, #42
 1287              	.LVL115:
 1288              	.L116:
 1289              	.LBB336:
 1290              	.LBB337:
 1291              		.loc 1 116 0
 1292 00a2 2068     		ldr	r0, [r4]
 1293 00a4 0368     		ldr	r3, [r0]
 1294 00a6 9B68     		ldr	r3, [r3, #8]
 1295 00a8 9847     		blx	r3
 1296              	.LVL116:
 1297              		.loc 1 115 0
 1298 00aa 15F8011F 		ldrb	r1, [r5, #1]!	@ zero_extendqisi2
 1299              	.LVL117:
 1300 00ae 0029     		cmp	r1, #0
 1301 00b0 F7D1     		bne	.L116
 1302              	.LBE337:
 1303              	.LBE336:
 1304              		.loc 1 339 0
ARM GAS  C:\Users\jo\AppData\Local\Temp\cclIJQpb.s 			page 24


 1305 00b2 8248     		ldr	r0, .L189+60
 1306 00b4 824D     		ldr	r5, .L189+64
 1307              	.LVL118:
 1308 00b6 FFF7FEFF 		bl	test_println
 1309              	.LVL119:
 1310 00ba 2A21     		movs	r1, #42
 1311              	.LVL120:
 1312              	.L118:
 1313              	.LBB338:
 1314              	.LBB339:
 1315              		.loc 1 116 0
 1316 00bc 2068     		ldr	r0, [r4]
 1317 00be 0368     		ldr	r3, [r0]
 1318 00c0 9B68     		ldr	r3, [r3, #8]
 1319 00c2 9847     		blx	r3
 1320              	.LVL121:
 1321              		.loc 1 115 0
 1322 00c4 15F8011F 		ldrb	r1, [r5, #1]!	@ zero_extendqisi2
 1323              	.LVL122:
 1324 00c8 0029     		cmp	r1, #0
 1325 00ca F7D1     		bne	.L118
 1326              	.LBE339:
 1327              	.LBE338:
 1328              		.loc 1 343 0
 1329 00cc 7D48     		ldr	r0, .L189+68
 1330 00ce 7E4D     		ldr	r5, .L189+72
 1331              	.LVL123:
 1332 00d0 FFF7FEFF 		bl	test_println
 1333              	.LVL124:
 1334 00d4 2A21     		movs	r1, #42
 1335              	.LVL125:
 1336              	.L120:
 1337              	.LBB340:
 1338              	.LBB341:
 1339              		.loc 1 116 0
 1340 00d6 2068     		ldr	r0, [r4]
 1341 00d8 0368     		ldr	r3, [r0]
 1342 00da 9B68     		ldr	r3, [r3, #8]
 1343 00dc 9847     		blx	r3
 1344              	.LVL126:
 1345              		.loc 1 115 0
 1346 00de 15F8011F 		ldrb	r1, [r5, #1]!	@ zero_extendqisi2
 1347              	.LVL127:
 1348 00e2 0029     		cmp	r1, #0
 1349 00e4 F7D1     		bne	.L120
 1350 00e6 794B     		ldr	r3, .L189+76
 1351              	.LBE341:
 1352              	.LBE340:
 1353              		.loc 1 347 0
 1354 00e8 7948     		ldr	r0, .L189+80
 1355 00ea 0091     		str	r1, [sp]
 1356 00ec 0193     		str	r3, [sp, #4]
 1357 00ee FFF7FEFF 		bl	test_println
 1358              	.LVL128:
 1359              		.loc 1 349 0
 1360 00f2 6548     		ldr	r0, .L189+8
 1361              		.loc 1 351 0
ARM GAS  C:\Users\jo\AppData\Local\Temp\cclIJQpb.s 			page 25


 1362 00f4 DFF81882 		ldr	r8, .L189+144
 1363              	.LBB342:
 1364              	.LBB343:
 1365              		.loc 1 116 0
 1366 00f8 DFF884B1 		ldr	fp, .L189
 1367              	.LBE343:
 1368              	.LBE342:
 1369              		.loc 1 349 0
 1370 00fc FFF7FEFF 		bl	test_println
 1371              	.LVL129:
 1372              		.loc 1 351 0
 1373 0100 744B     		ldr	r3, .L189+84
 1374 0102 0099     		ldr	r1, [sp]
 1375 0104 1970     		strb	r1, [r3]
 1376              	.LVL130:
 1377              	.L143:
 1378 0106 009B     		ldr	r3, [sp]
 1379 0108 0133     		adds	r3, r3, #1
 1380 010a 0093     		str	r3, [sp]
 1381              	.LVL131:
 1382              	.LBB345:
 1383              	.LBB346:
 1384              		.loc 1 141 0
 1385 010c 0026     		movs	r6, #0
 1386              	.LVL132:
 1387              	.L140:
 1388              	.LBE346:
 1389              	.LBE345:
 1390              		.loc 1 355 0
 1391 010e 58F82630 		ldr	r3, [r8, r6, lsl #2]
 1392 0112 08EB8607 		add	r7, r8, r6, lsl #2
 1393 0116 002B     		cmp	r3, #0
 1394 0118 00F08780 		beq	.L187
 1395              	.L138:
 1396              		.loc 1 356 0
 1397 011c 6E4D     		ldr	r5, .L189+88
 1398 011e FFF7FEFF 		bl	print_line
 1399              	.LVL133:
 1400 0122 2D21     		movs	r1, #45
 1401              	.LVL134:
 1402              	.L122:
 1403              	.LBB348:
 1404              	.LBB344:
 1405              		.loc 1 116 0
 1406 0124 2068     		ldr	r0, [r4]
 1407 0126 0368     		ldr	r3, [r0]
 1408 0128 9B68     		ldr	r3, [r3, #8]
 1409 012a 9847     		blx	r3
 1410              	.LVL135:
 1411              		.loc 1 115 0
 1412 012c 15F8011F 		ldrb	r1, [r5, #1]!	@ zero_extendqisi2
 1413              	.LVL136:
 1414 0130 0029     		cmp	r1, #0
 1415 0132 F7D1     		bne	.L122
 1416              	.LBE344:
 1417              	.LBE348:
 1418              		.loc 1 358 0
ARM GAS  C:\Users\jo\AppData\Local\Temp\cclIJQpb.s 			page 26


 1419 0134 0098     		ldr	r0, [sp]
 1420              		.loc 1 360 0
 1421 0136 694D     		ldr	r5, .L189+92
 1422              	.LVL137:
 1423              		.loc 1 358 0
 1424 0138 FFF7FEFF 		bl	test_printn
 1425              	.LVL138:
 1426              	.LBB349:
 1427              	.LBB350:
 1428              		.loc 1 116 0
 1429 013c DBF80000 		ldr	r0, [fp]
 1430              	.LVL139:
 1431 0140 0368     		ldr	r3, [r0]
 1432 0142 2E21     		movs	r1, #46
 1433 0144 9B68     		ldr	r3, [r3, #8]
 1434              	.LBE350:
 1435              	.LBE349:
 1436              		.loc 1 360 0
 1437 0146 0136     		adds	r6, r6, #1
 1438              	.LVL140:
 1439              	.LBB352:
 1440              	.LBB351:
 1441              		.loc 1 116 0
 1442 0148 9847     		blx	r3
 1443              	.LVL141:
 1444              	.LBE351:
 1445              	.LBE352:
 1446              		.loc 1 360 0
 1447 014a 3046     		mov	r0, r6
 1448 014c FFF7FEFF 		bl	test_printn
 1449              	.LVL142:
 1450 0150 2021     		movs	r1, #32
 1451              	.LVL143:
 1452              	.L124:
 1453              	.LBB353:
 1454              	.LBB354:
 1455              		.loc 1 116 0
 1456 0152 2068     		ldr	r0, [r4]
 1457 0154 0368     		ldr	r3, [r0]
 1458 0156 9B68     		ldr	r3, [r3, #8]
 1459 0158 9847     		blx	r3
 1460              	.LVL144:
 1461              		.loc 1 115 0
 1462 015a 15F8011F 		ldrb	r1, [r5, #1]!	@ zero_extendqisi2
 1463              	.LVL145:
 1464 015e 0029     		cmp	r1, #0
 1465 0160 F7D1     		bne	.L124
 1466              	.LBE354:
 1467              	.LBE353:
 1468              		.loc 1 362 0
 1469 0162 3B68     		ldr	r3, [r7]
 1470 0164 1D68     		ldr	r5, [r3]
 1471              	.LVL146:
 1472              	.LBB355:
 1473              	.LBB356:
 1474              		.loc 1 115 0
 1475 0166 2978     		ldrb	r1, [r5]	@ zero_extendqisi2
ARM GAS  C:\Users\jo\AppData\Local\Temp\cclIJQpb.s 			page 27


 1476 0168 39B1     		cbz	r1, .L129
 1477              	.LVL147:
 1478              	.L128:
 1479              		.loc 1 116 0
 1480 016a 2068     		ldr	r0, [r4]
 1481 016c 0368     		ldr	r3, [r0]
 1482 016e 9B68     		ldr	r3, [r3, #8]
 1483 0170 9847     		blx	r3
 1484              	.LVL148:
 1485              		.loc 1 115 0
 1486 0172 15F8011F 		ldrb	r1, [r5, #1]!	@ zero_extendqisi2
 1487              	.LVL149:
 1488 0176 0029     		cmp	r1, #0
 1489 0178 F7D1     		bne	.L128
 1490              	.LVL150:
 1491              	.L129:
 1492              	.LBE356:
 1493              	.LBE355:
 1494              		.loc 1 363 0
 1495 017a 5948     		ldr	r0, .L189+96
 1496              	.LBB357:
 1497              	.LBB358:
 1498              		.loc 1 290 0
 1499 017c DFF89491 		ldr	r9, .L189+148
 1500              	.LBB359:
 1501              	.LBB360:
 1502              		.loc 1 135 0
 1503 0180 584D     		ldr	r5, .L189+100
 1504 0182 DFF874A1 		ldr	r10, .L189+120
 1505              	.LBE360:
 1506              	.LBE359:
 1507              	.LBE358:
 1508              	.LBE357:
 1509              		.loc 1 363 0
 1510 0186 FFF7FEFF 		bl	test_println
 1511              	.LVL151:
 1512              		.loc 1 365 0
 1513 018a 42F21070 		movw	r0, #10000
 1514 018e FFF7FEFF 		bl	chThdSleep
 1515              	.LVL152:
 1516              	.LBB365:
 1517              	.LBB363:
 1518              		.loc 1 292 0
 1519 0192 554A     		ldr	r2, .L189+104
 1520              	.LBE363:
 1521              	.LBE365:
 1522              		.loc 1 367 0
 1523 0194 3F68     		ldr	r7, [r7]
 1524              	.LVL153:
 1525              	.LBB366:
 1526              	.LBB364:
 1527              	.LBB362:
 1528              	.LBB361:
 1529              		.loc 1 135 0
 1530 0196 C5F800A0 		str	r10, [r5]
 1531              	.LBE361:
 1532              	.LBE362:
ARM GAS  C:\Users\jo\AppData\Local\Temp\cclIJQpb.s 			page 28


 1533              		.loc 1 290 0
 1534 019a 0023     		movs	r3, #0
 1535              		.loc 1 292 0
 1536 019c 1360     		str	r3, [r2]
 1537 019e 5360     		str	r3, [r2, #4]
 1538 01a0 9360     		str	r3, [r2, #8]
 1539 01a2 D360     		str	r3, [r2, #12]
 1540 01a4 1361     		str	r3, [r2, #16]
 1541              		.loc 1 294 0
 1542 01a6 7A68     		ldr	r2, [r7, #4]
 1543              		.loc 1 290 0
 1544 01a8 89F80030 		strb	r3, [r9]
 1545              	.LVL154:
 1546              		.loc 1 294 0
 1547 01ac 02B1     		cbz	r2, .L127
 1548              		.loc 1 295 0
 1549 01ae 9047     		blx	r2
 1550              	.LVL155:
 1551              	.L127:
 1552              		.loc 1 296 0
 1553 01b0 FB68     		ldr	r3, [r7, #12]
 1554 01b2 9847     		blx	r3
 1555              	.LVL156:
 1556              		.loc 1 297 0
 1557 01b4 BB68     		ldr	r3, [r7, #8]
 1558 01b6 03B1     		cbz	r3, .L175
 1559              		.loc 1 298 0
 1560 01b8 9847     		blx	r3
 1561              	.LVL157:
 1562              	.L175:
 1563              		.loc 1 300 0
 1564 01ba FFF7FEFF 		bl	test_wait_threads
 1565              	.LVL158:
 1566              	.LBE364:
 1567              	.LBE366:
 1568              		.loc 1 368 0
 1569 01be 99F80030 		ldrb	r3, [r9]	@ zero_extendqisi2
 1570 01c2 002B     		cmp	r3, #0
 1571 01c4 51D0     		beq	.L131
 1572              	.LVL159:
 1573              		.loc 1 360 0
 1574 01c6 494F     		ldr	r7, .L189+108
 1575              	.LVL160:
 1576 01c8 2D21     		movs	r1, #45
 1577              	.LVL161:
 1578              	.L132:
 1579              	.LBB367:
 1580              	.LBB368:
 1581              		.loc 1 116 0
 1582 01ca 2068     		ldr	r0, [r4]
 1583 01cc 0368     		ldr	r3, [r0]
 1584 01ce 9B68     		ldr	r3, [r3, #8]
 1585 01d0 9847     		blx	r3
 1586              	.LVL162:
 1587              		.loc 1 115 0
 1588 01d2 17F8011F 		ldrb	r1, [r7, #1]!	@ zero_extendqisi2
 1589              	.LVL163:
ARM GAS  C:\Users\jo\AppData\Local\Temp\cclIJQpb.s 			page 29


 1590 01d6 0029     		cmp	r1, #0
 1591 01d8 F7D1     		bne	.L132
 1592              	.LBE368:
 1593              	.LBE367:
 1594              		.loc 1 370 0
 1595 01da 454B     		ldr	r3, .L189+112
 1596 01dc 454F     		ldr	r7, .L189+116
 1597              	.LVL164:
 1598 01de 1868     		ldr	r0, [r3]
 1599 01e0 FFF7FEFF 		bl	test_printn
 1600              	.LVL165:
 1601 01e4 2021     		movs	r1, #32
 1602              	.LVL166:
 1603              	.L134:
 1604              	.LBB369:
 1605              	.LBB370:
 1606              		.loc 1 116 0
 1607 01e6 2068     		ldr	r0, [r4]
 1608 01e8 0368     		ldr	r3, [r0]
 1609 01ea 9B68     		ldr	r3, [r3, #8]
 1610 01ec 9847     		blx	r3
 1611              	.LVL167:
 1612              		.loc 1 115 0
 1613 01ee 17F8011F 		ldrb	r1, [r7, #1]!	@ zero_extendqisi2
 1614              	.LVL168:
 1615 01f2 0029     		cmp	r1, #0
 1616 01f4 F7D1     		bne	.L134
 1617              	.LVL169:
 1618              	.LBE370:
 1619              	.LBE369:
 1620              	.LBB371:
 1621              	.LBB347:
 1622              		.loc 1 141 0
 1623 01f6 2B68     		ldr	r3, [r5]
 1624 01f8 5345     		cmp	r3, r10
 1625 01fa 09D9     		bls	.L137
 1626 01fc 3E4F     		ldr	r7, .L189+120
 1627              	.LVL170:
 1628              	.L135:
 1629              		.loc 1 142 0
 1630 01fe 2068     		ldr	r0, [r4]
 1631 0200 17F8011B 		ldrb	r1, [r7], #1	@ zero_extendqisi2
 1632              	.LVL171:
 1633 0204 0368     		ldr	r3, [r0]
 1634 0206 9B68     		ldr	r3, [r3, #8]
 1635 0208 9847     		blx	r3
 1636              	.LVL172:
 1637              		.loc 1 141 0
 1638 020a 2B68     		ldr	r3, [r5]
 1639 020c 9F42     		cmp	r7, r3
 1640 020e F6D3     		bcc	.L135
 1641              	.LVL173:
 1642              	.L137:
 1643              	.LBE347:
 1644              	.LBE371:
 1645              		.loc 1 373 0
 1646 0210 3A48     		ldr	r0, .L189+124
ARM GAS  C:\Users\jo\AppData\Local\Temp\cclIJQpb.s 			page 30


 1647 0212 FFF7FEFF 		bl	test_println
 1648              	.LVL174:
 1649 0216 019B     		ldr	r3, [sp, #4]
 1650 0218 D3F80080 		ldr	r8, [r3]
 1651              	.LVL175:
 1652              		.loc 1 355 0
 1653 021c 58F82630 		ldr	r3, [r8, r6, lsl #2]
 1654 0220 08EB8607 		add	r7, r8, r6, lsl #2
 1655 0224 002B     		cmp	r3, #0
 1656 0226 7FF479AF 		bne	.L138
 1657              	.LVL176:
 1658              	.L187:
 1659              		.loc 1 353 0
 1660 022a 019B     		ldr	r3, [sp, #4]
 1661 022c 53F8048F 		ldr	r8, [r3, #4]!
 1662 0230 0193     		str	r3, [sp, #4]
 1663 0232 B8F1000F 		cmp	r8, #0
 1664 0236 7FF466AF 		bne	.L143
 1665              		.loc 1 381 0
 1666 023a FFF7FEFF 		bl	print_line
 1667              	.LVL177:
 1668              		.loc 1 382 0
 1669 023e 304D     		ldr	r5, .L189+128
 1670 0240 1148     		ldr	r0, .L189+8
 1671 0242 FFF7FEFF 		bl	test_println
 1672              	.LVL178:
 1673 0246 4621     		movs	r1, #70
 1674              	.LVL179:
 1675              	.L141:
 1676              	.LBB372:
 1677              	.LBB373:
 1678              		.loc 1 116 0
 1679 0248 2068     		ldr	r0, [r4]
 1680 024a 0368     		ldr	r3, [r0]
 1681 024c 9B68     		ldr	r3, [r3, #8]
 1682 024e 9847     		blx	r3
 1683              	.LVL180:
 1684              		.loc 1 115 0
 1685 0250 15F8011F 		ldrb	r1, [r5, #1]!	@ zero_extendqisi2
 1686              	.LVL181:
 1687 0254 0029     		cmp	r1, #0
 1688 0256 F7D1     		bne	.L141
 1689              	.LBE373:
 1690              	.LBE372:
 1691              		.loc 1 384 0
 1692 0258 1E4B     		ldr	r3, .L189+84
 1693 025a 1B78     		ldrb	r3, [r3]	@ zero_extendqisi2
 1694 025c 4BB9     		cbnz	r3, .L188
 1695              		.loc 1 387 0
 1696 025e 2948     		ldr	r0, .L189+132
 1697              		.loc 1 388 0
 1698 0260 03B0     		add	sp, sp, #12
 1699              		.cfi_remember_state
 1700              		.cfi_def_cfa_offset 36
 1701              	.LVL182:
 1702              		@ sp needed
 1703 0262 BDE8F04F 		pop	{r4, r5, r6, r7, r8, r9, r10, fp, lr}
ARM GAS  C:\Users\jo\AppData\Local\Temp\cclIJQpb.s 			page 31


 1704              		.cfi_restore 14
 1705              		.cfi_restore 11
 1706              		.cfi_restore 10
 1707              		.cfi_restore 9
 1708              		.cfi_restore 8
 1709              		.cfi_restore 7
 1710              		.cfi_restore 6
 1711              		.cfi_restore 5
 1712              		.cfi_restore 4
 1713              		.cfi_def_cfa_offset 0
 1714              	.LVL183:
 1715              		.loc 1 387 0
 1716 0266 FFF7FEBF 		b	test_println
 1717              	.LVL184:
 1718              	.L131:
 1719              		.cfi_restore_state
 1720              		.loc 1 376 0
 1721 026a 2748     		ldr	r0, .L189+136
 1722 026c FFF7FEFF 		bl	test_println
 1723              	.LVL185:
 1724 0270 4DE7     		b	.L140
 1725              	.LVL186:
 1726              	.L188:
 1727              		.loc 1 385 0
 1728 0272 2648     		ldr	r0, .L189+140
 1729              		.loc 1 388 0
 1730 0274 03B0     		add	sp, sp, #12
 1731              		.cfi_def_cfa_offset 36
 1732              	.LVL187:
 1733              		@ sp needed
 1734 0276 BDE8F04F 		pop	{r4, r5, r6, r7, r8, r9, r10, fp, lr}
 1735              		.cfi_restore 4
 1736              		.cfi_restore 5
 1737              		.cfi_restore 6
 1738              		.cfi_restore 7
 1739              		.cfi_restore 8
 1740              		.cfi_restore 9
 1741              		.cfi_restore 10
 1742              		.cfi_restore 11
 1743              		.cfi_restore 14
 1744              		.cfi_def_cfa_offset 0
 1745              	.LVL188:
 1746              		.loc 1 387 0
 1747 027a FFF7FEBF 		b	test_println
 1748              	.LVL189:
 1749              	.L190:
 1750 027e 00BF     		.align	2
 1751              	.L189:
 1752 0280 00000000 		.word	.LANCHOR1
 1753 0284 04000000 		.word	.LC1
 1754 0288 E4000000 		.word	.LC14
 1755 028c E8000000 		.word	.LC15
 1756 0290 04010000 		.word	.LC16
 1757 0294 34010000 		.word	.LC22
 1758 0298 18000000 		.word	.LC2
 1759 029c 3C010000 		.word	.LC23
 1760 02a0 2C000000 		.word	.LC3
ARM GAS  C:\Users\jo\AppData\Local\Temp\cclIJQpb.s 			page 32


 1761 02a4 54010000 		.word	.LC24
 1762 02a8 40000000 		.word	.LC4
 1763 02ac 9C010000 		.word	.LC25
 1764 02b0 54000000 		.word	.LC5
 1765 02b4 A8010000 		.word	.LC26
 1766 02b8 68000000 		.word	.LC6
 1767 02bc B4010000 		.word	.LC27
 1768 02c0 7C000000 		.word	.LC7
 1769 02c4 CC010000 		.word	.LC28
 1770 02c8 90000000 		.word	.LC8
 1771 02cc 00000000 		.word	.LANCHOR10
 1772 02d0 F8010000 		.word	.LC29
 1773 02d4 00000000 		.word	.LANCHOR4
 1774 02d8 A4000000 		.word	.LC9
 1775 02dc B4000000 		.word	.LC10
 1776 02e0 08010000 		.word	.LC17
 1777 02e4 00000000 		.word	.LANCHOR2
 1778 02e8 00000000 		.word	.LANCHOR8
 1779 02ec B8000000 		.word	.LC11
 1780 02f0 00000000 		.word	.LANCHOR6
 1781 02f4 D0000000 		.word	.LC12
 1782 02f8 00000000 		.word	.LANCHOR7
 1783 02fc 0C010000 		.word	.LC18
 1784 0300 D4000000 		.word	.LC13
 1785 0304 2C010000 		.word	.LC21
 1786 0308 10010000 		.word	.LC19
 1787 030c 24010000 		.word	.LC20
 1788 0310 00000000 		.word	patternsys
 1789 0314 00000000 		.word	.LANCHOR5
 1790              		.cfi_endproc
 1791              	.LFE276:
 1792              		.size	TestThread, .-TestThread
 1793              		.global	test_timer_done
 1794              		.global	wa
 1795              		.global	threads
 1796              		.global	test
 1797              		.global	test_global_fail
 1798 0318 AFF30080 		.section	.bss.test,"aw",%nobits
 1798      AFF30080 
 1799              		.align	3
 1800              		.type	test, %object
 1801              		.size	test, 1680
 1802              	test:
 1803 0000 00000000 		.space	1680
 1803      00000000 
 1803      00000000 
 1803      00000000 
 1803      00000000 
 1804              		.section	.bss.failpoint,"aw",%nobits
 1805              		.align	2
 1806              		.set	.LANCHOR6,. + 0
 1807              		.type	failpoint, %object
 1808              		.size	failpoint, 4
 1809              	failpoint:
 1810 0000 00000000 		.space	4
 1811              		.section	.bss.local_fail,"aw",%nobits
 1812              		.set	.LANCHOR5,. + 0
ARM GAS  C:\Users\jo\AppData\Local\Temp\cclIJQpb.s 			page 33


 1813              		.type	local_fail, %object
 1814              		.size	local_fail, 1
 1815              	local_fail:
 1816 0000 00       		.space	1
 1817              		.section	.bss.test_timer_done,"aw",%nobits
 1818              		.set	.LANCHOR0,. + 0
 1819              		.type	test_timer_done, %object
 1820              		.size	test_timer_done, 1
 1821              	test_timer_done:
 1822 0000 00       		.space	1
 1823              		.section	.rodata.wa,"a",%progbits
 1824              		.align	2
 1825              		.type	wa, %object
 1826              		.size	wa, 20
 1827              	wa:
 1828 0000 00000000 		.word	test
 1829 0004 50010000 		.word	test+336
 1830 0008 A0020000 		.word	test+672
 1831 000c F0030000 		.word	test+1008
 1832 0010 40050000 		.word	test+1344
 1833              		.section	.bss.tokp,"aw",%nobits
 1834              		.align	2
 1835              		.set	.LANCHOR2,. + 0
 1836              		.type	tokp, %object
 1837              		.size	tokp, 4
 1838              	tokp:
 1839 0000 00000000 		.space	4
 1840              		.section	.rodata.patterns,"a",%progbits
 1841              		.align	2
 1842              		.set	.LANCHOR10,. + 0
 1843              		.type	patterns, %object
 1844              		.size	patterns, 52
 1845              	patterns:
 1846 0000 00000000 		.word	patternsys
 1847 0004 00000000 		.word	patternthd
 1848 0008 00000000 		.word	patternsem
 1849 000c 00000000 		.word	patternmtx
 1850 0010 00000000 		.word	patternmsg
 1851 0014 00000000 		.word	patternmbox
 1852 0018 00000000 		.word	patternevt
 1853 001c 00000000 		.word	patternheap
 1854 0020 00000000 		.word	patternpools
 1855 0024 00000000 		.word	patterndyn
 1856 0028 00000000 		.word	patternqueues
 1857 002c 00000000 		.word	patternbmk
 1858 0030 00000000 		.word	0
 1859              		.section	.rodata.str1.4,"aMS",%progbits,1
 1860              		.align	2
 1861              	.LC0:
 1862 0000 0D0A00   		.ascii	"\015\012\000"
 1863 0003 00       		.space	1
 1864              	.LC1:
 1865 0004 2A2A2A20 		.ascii	"*** Kernel:       \000"
 1865      4B65726E 
 1865      656C3A20 
 1865      20202020 
 1865      202000
ARM GAS  C:\Users\jo\AppData\Local\Temp\cclIJQpb.s 			page 34


 1866 0017 00       		.space	1
 1867              	.LC2:
 1868 0018 2A2A2A20 		.ascii	"*** Compiled:     \000"
 1868      436F6D70 
 1868      696C6564 
 1868      3A202020 
 1868      202000
 1869 002b 00       		.space	1
 1870              	.LC3:
 1871 002c 2A2A2A20 		.ascii	"*** Compiler:     \000"
 1871      436F6D70 
 1871      696C6572 
 1871      3A202020 
 1871      202000
 1872 003f 00       		.space	1
 1873              	.LC4:
 1874 0040 2A2A2A20 		.ascii	"*** Architecture: \000"
 1874      41726368 
 1874      69746563 
 1874      74757265 
 1874      3A2000
 1875 0053 00       		.space	1
 1876              	.LC5:
 1877 0054 2A2A2A20 		.ascii	"*** Core Variant: \000"
 1877      436F7265 
 1877      20566172 
 1877      69616E74 
 1877      3A2000
 1878 0067 00       		.space	1
 1879              	.LC6:
 1880 0068 2A2A2A20 		.ascii	"*** Port Info:    \000"
 1880      506F7274 
 1880      20496E66 
 1880      6F3A2020 
 1880      202000
 1881 007b 00       		.space	1
 1882              	.LC7:
 1883 007c 2A2A2A20 		.ascii	"*** Platform:     \000"
 1883      506C6174 
 1883      666F726D 
 1883      3A202020 
 1883      202000
 1884 008f 00       		.space	1
 1885              	.LC8:
 1886 0090 2A2A2A20 		.ascii	"*** Test Board:   \000"
 1886      54657374 
 1886      20426F61 
 1886      72643A20 
 1886      202000
 1887 00a3 00       		.space	1
 1888              	.LC9:
 1889 00a4 2D2D2D20 		.ascii	"--- Test Case \000"
 1889      54657374 
 1889      20436173 
 1889      652000
 1890 00b3 00       		.space	1
 1891              	.LC10:
ARM GAS  C:\Users\jo\AppData\Local\Temp\cclIJQpb.s 			page 35


 1892 00b4 202800   		.ascii	" (\000"
 1893 00b7 00       		.space	1
 1894              	.LC11:
 1895 00b8 2D2D2D20 		.ascii	"--- Result: FAILURE (#\000"
 1895      52657375 
 1895      6C743A20 
 1895      4641494C 
 1895      55524520 
 1896 00cf 00       		.space	1
 1897              	.LC12:
 1898 00d0 205B00   		.ascii	" [\000"
 1899 00d3 00       		.space	1
 1900              	.LC13:
 1901 00d4 46696E61 		.ascii	"Final result: \000"
 1901      6C207265 
 1901      73756C74 
 1901      3A2000
 1902 00e3 00       		.space	1
 1903              	.LC14:
 1904 00e4 00       		.ascii	"\000"
 1905 00e5 000000   		.space	3
 1906              	.LC15:
 1907 00e8 2A2A2A20 		.ascii	"*** ChibiOS/RT test suite\000"
 1907      43686962 
 1907      694F532F 
 1907      52542074 
 1907      65737420 
 1908 0102 0000     		.space	2
 1909              	.LC16:
 1910 0104 2A2A2A00 		.ascii	"***\000"
 1911              	.LC17:
 1912 0108 2900     		.ascii	")\000"
 1913 010a 0000     		.space	2
 1914              	.LC18:
 1915 010c 5D2900   		.ascii	"])\000"
 1916 010f 00       		.space	1
 1917              	.LC19:
 1918 0110 2D2D2D20 		.ascii	"--- Result: SUCCESS\000"
 1918      52657375 
 1918      6C743A20 
 1918      53554343 
 1918      45535300 
 1919              	.LC20:
 1920 0124 4641494C 		.ascii	"FAILURE\000"
 1920      55524500 
 1921              	.LC21:
 1922 012c 53554343 		.ascii	"SUCCESS\000"
 1922      45535300 
 1923              	.LC22:
 1924 0134 332E302E 		.ascii	"3.0.0p6\000"
 1924      30703600 
 1925              	.LC23:
 1926 013c 4A756C20 		.ascii	"Jul  2 2015 - 09:02:47\000"
 1926      20322032 
 1926      30313520 
 1926      2D203039 
 1926      3A30323A 
ARM GAS  C:\Users\jo\AppData\Local\Temp\cclIJQpb.s 			page 36


 1927 0153 00       		.space	1
 1928              	.LC24:
 1929 0154 47434320 		.ascii	"GCC 4.9.3 20141119 (release) [ARM/embedded-4_9-bran"
 1929      342E392E 
 1929      33203230 
 1929      31343131 
 1929      31392028 
 1930 0187 63682072 		.ascii	"ch revision 218278]\000"
 1930      65766973 
 1930      696F6E20 
 1930      32313832 
 1930      37385D00 
 1931 019b 00       		.space	1
 1932              	.LC25:
 1933 019c 41524D76 		.ascii	"ARMv7-ME\000"
 1933      372D4D45 
 1933      00
 1934 01a5 000000   		.space	3
 1935              	.LC26:
 1936 01a8 436F7274 		.ascii	"Cortex-M4\000"
 1936      65782D4D 
 1936      3400
 1937 01b2 0000     		.space	2
 1938              	.LC27:
 1939 01b4 41647661 		.ascii	"Advanced kernel mode\000"
 1939      6E636564 
 1939      206B6572 
 1939      6E656C20 
 1939      6D6F6465 
 1940 01c9 000000   		.space	3
 1941              	.LC28:
 1942 01cc 53544D33 		.ascii	"STM32F407 High Performance with DSP and FPU\000"
 1942      32463430 
 1942      37204869 
 1942      67682050 
 1942      6572666F 
 1943              	.LC29:
 1944 01f8 53544D69 		.ascii	"STMicroelectronics STM32F4-Discovery\000"
 1944      63726F65 
 1944      6C656374 
 1944      726F6E69 
 1944      63732053 
 1945 021d 000000   		.section	.rodata.__func__.5854,"a",%progbits
 1946              		.align	2
 1947              		.set	.LANCHOR3,. + 0
 1948              		.type	__func__.5854, %object
 1949              		.size	__func__.5854, 12
 1950              	__func__.5854:
 1951 0000 63685379 		.ascii	"chSysUnlock\000"
 1951      73556E6C 
 1951      6F636B00 
 1952              		.section	.bss.vt,"aw",%nobits
 1953              		.align	2
 1954              		.set	.LANCHOR9,. + 0
 1955              		.type	vt, %object
 1956              		.size	vt, 20
 1957              	vt:
ARM GAS  C:\Users\jo\AppData\Local\Temp\cclIJQpb.s 			page 37


 1958 0000 00000000 		.space	20
 1958      00000000 
 1958      00000000 
 1958      00000000 
 1958      00000000 
 1959              		.section	.bss.threads,"aw",%nobits
 1960              		.align	2
 1961              		.set	.LANCHOR8,. + 0
 1962              		.type	threads, %object
 1963              		.size	threads, 20
 1964              	threads:
 1965 0000 00000000 		.space	20
 1965      00000000 
 1965      00000000 
 1965      00000000 
 1965      00000000 
 1966              		.section	.bss.chp,"aw",%nobits
 1967              		.align	2
 1968              		.set	.LANCHOR1,. + 0
 1969              		.type	chp, %object
 1970              		.size	chp, 4
 1971              	chp:
 1972 0000 00000000 		.space	4
 1973              		.section	.bss.tokens_buffer,"aw",%nobits
 1974              		.align	2
 1975              		.set	.LANCHOR7,. + 0
 1976              		.type	tokens_buffer, %object
 1977              		.size	tokens_buffer, 16
 1978              	tokens_buffer:
 1979 0000 00000000 		.space	16
 1979      00000000 
 1979      00000000 
 1979      00000000 
 1980              		.section	.bss.test_global_fail,"aw",%nobits
 1981              		.set	.LANCHOR4,. + 0
 1982              		.type	test_global_fail, %object
 1983              		.size	test_global_fail, 1
 1984              	test_global_fail:
 1985 0000 00       		.space	1
 1986              		.text
 1987              	.Letext0:
 1988              		.file 6 "c:\\program files\\gnu tools arm embedded\\4.9 2014q4\\lib\\gcc\\arm-none-eabi\\4.9.3\\in
 1989              		.file 7 "c:\\program files\\gnu tools arm embedded\\4.9 2014q4\\arm-none-eabi\\include\\machine\\_
 1990              		.file 8 "c:\\program files\\gnu tools arm embedded\\4.9 2014q4\\arm-none-eabi\\include\\stdint.h"
 1991              		.file 9 "../../../os/rt/ports/ARMCMx/compilers/GCC/chtypes.h"
 1992              		.file 10 "../../../os/rt/include/chsystypes.h"
 1993              		.file 11 "../../../os/rt/include/chschd.h"
 1994              		.file 12 "../../../os/rt/ports/ARMCMx/chcore.h"
 1995              		.file 13 "../../../os/rt/ports/ARMCMx/chcore_v7m.h"
 1996              		.file 14 "../../../os/hal/ports/STM32/LLD/TIMv1/stm32_tim.h"
 1997              		.file 15 "../../../os/rt/include/chdebug.h"
 1998              		.file 16 "../../../os/rt/include/chtm.h"
 1999              		.file 17 "../../../os/rt/include/chsem.h"
 2000              		.file 18 "../../../os/rt/include/chmtx.h"
 2001              		.file 19 "../../../os/rt/include/chstreams.h"
 2002              		.file 20 "../../../test/rt/test.h"
 2003              		.file 21 "../../../os/rt/ports/ARMCMx/chcore_timer.h"
ARM GAS  C:\Users\jo\AppData\Local\Temp\cclIJQpb.s 			page 38


 2004              		.file 22 "../../../os/ext/CMSIS/include/core_cm4.h"
 2005              		.file 23 "../../../test/rt/testsys.h"
 2006              		.file 24 "../../../test/rt/testthd.h"
 2007              		.file 25 "../../../test/rt/testsem.h"
 2008              		.file 26 "../../../test/rt/testmtx.h"
 2009              		.file 27 "../../../test/rt/testmsg.h"
 2010              		.file 28 "../../../test/rt/testmbox.h"
 2011              		.file 29 "../../../test/rt/testevt.h"
 2012              		.file 30 "../../../test/rt/testheap.h"
 2013              		.file 31 "../../../test/rt/testpools.h"
 2014              		.file 32 "../../../test/rt/testdyn.h"
 2015              		.file 33 "../../../test/rt/testqueues.h"
 2016              		.file 34 "../../../test/rt/testbmk.h"
 2017              		.file 35 "../../../os/rt/include/chthreads.h"