ARM GAS  C:\Users\jo\AppData\Local\Temp\cceRVRht.s 			page 1


   1              		.syntax unified
   2              		.cpu cortex-m4
   3              		.fpu softvfp
   4              		.eabi_attribute 20, 1
   5              		.eabi_attribute 21, 1
   6              		.eabi_attribute 23, 3
   7              		.eabi_attribute 24, 1
   8              		.eabi_attribute 25, 1
   9              		.eabi_attribute 26, 1
  10              		.eabi_attribute 30, 2
  11              		.eabi_attribute 34, 1
  12              		.eabi_attribute 18, 4
  13              		.thumb
  14              		.file	"testdyn.c"
  15              		.text
  16              	.Ltext0:
  17              		.cfi_sections	.debug_frame
  18              		.section	.text.dyn1_execute,"ax",%progbits
  19              		.align	2
  20              		.p2align 4,,15
  21              		.thumb
  22              		.thumb_func
  23              		.type	dyn1_execute, %function
  24              	dyn1_execute:
  25              	.LFB230:
  26              		.file 1 "../../../test/rt/testdyn.c"
  27              		.loc 1 82 0
  28              		.cfi_startproc
  29              		@ args = 0, pretend = 0, frame = 8
  30              		@ frame_needed = 0, uses_anonymous_args = 0
  31 0000 70B5     		push	{r4, r5, r6, lr}
  32              		.cfi_def_cfa_offset 16
  33              		.cfi_offset 4, -16
  34              		.cfi_offset 5, -12
  35              		.cfi_offset 6, -8
  36              		.cfi_offset 14, -4
  37              	.LBB16:
  38              	.LBB17:
  39              	.LBB18:
  40              	.LBB19:
  41              		.file 2 "../../../os/rt/include/chthreads.h"
  42              		.loc 2 176 0
  43 0002 344B     		ldr	r3, .L13
  44              	.LBE19:
  45              	.LBE18:
  46              	.LBE17:
  47              	.LBE16:
  48              		.loc 1 87 0
  49 0004 3448     		ldr	r0, .L13+4
  50              	.LBB22:
  51              	.LBB20:
  52              		.loc 2 189 0
  53 0006 9B69     		ldr	r3, [r3, #24]
  54              	.LBE20:
  55              	.LBE22:
  56              		.loc 1 89 0
  57 0008 344C     		ldr	r4, .L13+8
ARM GAS  C:\Users\jo\AppData\Local\Temp\cceRVRht.s 			page 2


  58              	.LBB23:
  59              	.LBB21:
  60              		.loc 2 189 0
  61 000a 9D68     		ldr	r5, [r3, #8]
  62              	.LBE21:
  63              	.LBE23:
  64              		.loc 1 82 0
  65 000c 84B0     		sub	sp, sp, #16
  66              		.cfi_def_cfa_offset 32
  67              		.loc 1 87 0
  68 000e 03A9     		add	r1, sp, #12
  69 0010 FFF7FEFF 		bl	chHeapStatus
  70              	.LVL0:
  71              		.loc 1 89 0
  72 0014 324B     		ldr	r3, .L13+12
  73 0016 0093     		str	r3, [sp]
  74 0018 6A1E     		subs	r2, r5, #1
  75 001a 324B     		ldr	r3, .L13+16
  76 001c 2E48     		ldr	r0, .L13+4
  77 001e 4FF4A871 		mov	r1, #336
  78 0022 FFF7FEFF 		bl	chThdCreateFromHeap
  79              	.LVL1:
  80              		.loc 1 92 0
  81 0026 304B     		ldr	r3, .L13+20
  82              		.loc 1 89 0
  83 0028 2060     		str	r0, [r4]
  84              		.loc 1 92 0
  85 002a AA1E     		subs	r2, r5, #2
  86 002c 0093     		str	r3, [sp]
  87 002e 4FF4A871 		mov	r1, #336
  88 0032 2C4B     		ldr	r3, .L13+16
  89 0034 2848     		ldr	r0, .L13+4
  90 0036 FFF7FEFF 		bl	chThdCreateFromHeap
  91              	.LVL2:
  92              		.loc 1 96 0
  93 003a 02A9     		add	r1, sp, #8
  94              		.loc 1 92 0
  95 003c 6060     		str	r0, [r4, #4]
  96              		.loc 1 96 0
  97 003e 2648     		ldr	r0, .L13+4
  98 0040 FFF7FEFF 		bl	chHeapStatus
  99              	.LVL3:
 100              		.loc 1 97 0
 101 0044 0299     		ldr	r1, [sp, #8]
 102 0046 2448     		ldr	r0, .L13+4
 103 0048 FFF7FEFF 		bl	chHeapAlloc
 104              	.LVL4:
 105              		.loc 1 98 0
 106 004c 274B     		ldr	r3, .L13+24
 107 004e 0093     		str	r3, [sp]
 108 0050 4FF4A871 		mov	r1, #336
 109              		.loc 1 97 0
 110 0054 0646     		mov	r6, r0
 111              	.LVL5:
 112              		.loc 1 98 0
 113 0056 EA1E     		subs	r2, r5, #3
 114 0058 224B     		ldr	r3, .L13+16
ARM GAS  C:\Users\jo\AppData\Local\Temp\cceRVRht.s 			page 3


 115 005a 1F48     		ldr	r0, .L13+4
 116              	.LVL6:
 117 005c FFF7FEFF 		bl	chThdCreateFromHeap
 118              	.LVL7:
 119 0060 A060     		str	r0, [r4, #8]
 120              		.loc 1 101 0
 121 0062 3046     		mov	r0, r6
 122 0064 FFF7FEFF 		bl	chHeapFree
 123              	.LVL8:
 124              		.loc 1 103 0
 125 0068 2168     		ldr	r1, [r4]
 126 006a 21B1     		cbz	r1, .L2
 127              		.loc 1 103 0 is_stmt 0 discriminator 1
 128 006c 6168     		ldr	r1, [r4, #4]
 129 006e 11B1     		cbz	r1, .L2
 130              		.loc 1 103 0 discriminator 3
 131 0070 A168     		ldr	r1, [r4, #8]
 132 0072 31B3     		cbz	r1, .L11
 133 0074 0021     		movs	r1, #0
 134              	.L2:
 135              		.loc 1 103 0 discriminator 12
 136 0076 0120     		movs	r0, #1
 137 0078 FFF7FEFF 		bl	_test_assert
 138              	.LVL9:
 139 007c 08B1     		cbz	r0, .L12
 140              	.L1:
 141              		.loc 1 117 0 is_stmt 1
 142 007e 04B0     		add	sp, sp, #16
 143              		.cfi_remember_state
 144              		.cfi_def_cfa_offset 16
 145              		@ sp needed
 146 0080 70BD     		pop	{r4, r5, r6, pc}
 147              	.LVL10:
 148              	.L12:
 149              		.cfi_restore_state
 150              		.loc 1 111 0
 151 0082 FFF7FEFF 		bl	test_wait_threads
 152              	.LVL11:
 153              		.loc 1 112 0
 154 0086 0220     		movs	r0, #2
 155 0088 1949     		ldr	r1, .L13+28
 156 008a FFF7FEFF 		bl	_test_assert_sequence
 157              	.LVL12:
 158 008e 0028     		cmp	r0, #0
 159 0090 F5D1     		bne	.L1
 160              		.loc 1 115 0
 161 0092 02A9     		add	r1, sp, #8
 162 0094 1048     		ldr	r0, .L13+4
 163 0096 FFF7FEFF 		bl	chHeapStatus
 164              	.LVL13:
 165 009a A0F10101 		sub	r1, r0, #1
 166 009e 0320     		movs	r0, #3
 167 00a0 B1FA81F1 		clz	r1, r1
 168 00a4 4909     		lsrs	r1, r1, #5
 169 00a6 FFF7FEFF 		bl	_test_assert
 170              	.LVL14:
 171 00aa 0028     		cmp	r0, #0
ARM GAS  C:\Users\jo\AppData\Local\Temp\cceRVRht.s 			page 4


 172 00ac E7D1     		bne	.L1
 173              		.loc 1 116 0
 174 00ae 0299     		ldr	r1, [sp, #8]
 175 00b0 039B     		ldr	r3, [sp, #12]
 176 00b2 0420     		movs	r0, #4
 177 00b4 C91A     		subs	r1, r1, r3
 178 00b6 B1FA81F1 		clz	r1, r1
 179 00ba 4909     		lsrs	r1, r1, #5
 180 00bc FFF7FEFF 		bl	_test_assert
 181              	.LVL15:
 182 00c0 DDE7     		b	.L1
 183              	.L11:
 184              		.loc 1 103 0 discriminator 5
 185 00c2 E368     		ldr	r3, [r4, #12]
 186 00c4 002B     		cmp	r3, #0
 187 00c6 D6D1     		bne	.L2
 188              		.loc 1 103 0 is_stmt 0 discriminator 7
 189 00c8 2169     		ldr	r1, [r4, #16]
 190 00ca B1FA81F1 		clz	r1, r1
 191 00ce 4909     		lsrs	r1, r1, #5
 192 00d0 D1E7     		b	.L2
 193              	.L14:
 194 00d2 00BF     		.align	2
 195              	.L13:
 196 00d4 00000000 		.word	ch
 197 00d8 00000000 		.word	.LANCHOR0
 198 00dc 00000000 		.word	threads
 199 00e0 00000000 		.word	.LC0
 200 00e4 00000000 		.word	thread
 201 00e8 04000000 		.word	.LC1
 202 00ec 08000000 		.word	.LC2
 203 00f0 0C000000 		.word	.LC3
 204              		.cfi_endproc
 205              	.LFE230:
 206              		.size	dyn1_execute, .-dyn1_execute
 207 00f4 AFF30080 		.section	.text.thread,"ax",%progbits
 207      AFF30080 
 207      AFF30080 
 208              		.align	2
 209              		.p2align 4,,15
 210              		.thumb
 211              		.thumb_func
 212              		.type	thread, %function
 213              	thread:
 214              	.LFB228:
 215              		.loc 1 71 0 is_stmt 1
 216              		.cfi_startproc
 217              		@ args = 0, pretend = 0, frame = 0
 218              		@ frame_needed = 0, uses_anonymous_args = 0
 219              		@ link register save eliminated.
 220              	.LVL16:
 221              		.loc 1 73 0
 222 0000 0078     		ldrb	r0, [r0]	@ zero_extendqisi2
 223              	.LVL17:
 224 0002 FFF7FEBF 		b	test_emit_token
 225              	.LVL18:
 226              		.cfi_endproc
ARM GAS  C:\Users\jo\AppData\Local\Temp\cceRVRht.s 			page 5


 227              	.LFE228:
 228              		.size	thread, .-thread
 229 0006 00BFAFF3 		.section	.text.dyn1_setup,"ax",%progbits
 229      0080AFF3 
 229      0080
 230              		.align	2
 231              		.p2align 4,,15
 232              		.thumb
 233              		.thumb_func
 234              		.type	dyn1_setup, %function
 235              	dyn1_setup:
 236              	.LFB229:
 237              		.loc 1 77 0
 238              		.cfi_startproc
 239              		@ args = 0, pretend = 0, frame = 0
 240              		@ frame_needed = 0, uses_anonymous_args = 0
 241              		@ link register save eliminated.
 242              		.loc 1 79 0
 243 0000 0248     		ldr	r0, .L17
 244 0002 0349     		ldr	r1, .L17+4
 245 0004 4FF4D262 		mov	r2, #1680
 246 0008 FFF7FEBF 		b	chHeapObjectInit
 247              	.LVL19:
 248              	.L18:
 249              		.align	2
 250              	.L17:
 251 000c 00000000 		.word	.LANCHOR0
 252 0010 00000000 		.word	test
 253              		.cfi_endproc
 254              	.LFE229:
 255              		.size	dyn1_setup, .-dyn1_setup
 256 0014 AFF30080 		.section	.text.dyn3_setup,"ax",%progbits
 256      AFF30080 
 256      AFF30080 
 257              		.align	2
 258              		.p2align 4,,15
 259              		.thumb
 260              		.thumb_func
 261              		.type	dyn3_setup, %function
 262              	dyn3_setup:
 263              	.LFB234:
 264              		.loc 1 204 0
 265              		.cfi_startproc
 266              		@ args = 0, pretend = 0, frame = 0
 267              		@ frame_needed = 0, uses_anonymous_args = 0
 268              		@ link register save eliminated.
 269              		.loc 1 206 0
 270 0000 0248     		ldr	r0, .L20
 271 0002 0349     		ldr	r1, .L20+4
 272 0004 4FF4D262 		mov	r2, #1680
 273 0008 FFF7FEBF 		b	chHeapObjectInit
 274              	.LVL20:
 275              	.L21:
 276              		.align	2
 277              	.L20:
 278 000c 00000000 		.word	.LANCHOR0
 279 0010 00000000 		.word	test
ARM GAS  C:\Users\jo\AppData\Local\Temp\cceRVRht.s 			page 6


 280              		.cfi_endproc
 281              	.LFE234:
 282              		.size	dyn3_setup, .-dyn3_setup
 283 0014 AFF30080 		.section	.text.dyn2_execute,"ax",%progbits
 283      AFF30080 
 283      AFF30080 
 284              		.align	2
 285              		.p2align 4,,15
 286              		.thumb
 287              		.thumb_func
 288              		.type	dyn2_execute, %function
 289              	dyn2_execute:
 290              	.LFB232:
 291              		.loc 1 143 0
 292              		.cfi_startproc
 293              		@ args = 0, pretend = 0, frame = 0
 294              		@ frame_needed = 0, uses_anonymous_args = 0
 295              	.LBB24:
 296              	.LBB25:
 297              	.LBB26:
 298              	.LBB27:
 299              		.loc 2 176 0
 300 0000 314B     		ldr	r3, .L37
 301              	.LBE27:
 302              	.LBE26:
 303              		.loc 2 189 0
 304 0002 9B69     		ldr	r3, [r3, #24]
 305              	.LBE25:
 306              	.LBE24:
 307              		.loc 1 143 0
 308 0004 70B5     		push	{r4, r5, r6, lr}
 309              		.cfi_def_cfa_offset 16
 310              		.cfi_offset 4, -16
 311              		.cfi_offset 5, -12
 312              		.cfi_offset 6, -8
 313              		.cfi_offset 14, -4
 314 0006 314C     		ldr	r4, .L37+4
 315              	.LBB29:
 316              	.LBB28:
 317              		.loc 2 189 0
 318 0008 9D68     		ldr	r5, [r3, #8]
 319              	.LVL21:
 320 000a 04F11006 		add	r6, r4, #16
 321              	.LVL22:
 322              	.L23:
 323              	.LBE28:
 324              	.LBE29:
 325              		.loc 1 149 0 discriminator 3
 326 000e 54F8041B 		ldr	r1, [r4], #4
 327 0012 2F48     		ldr	r0, .L37+8
 328 0014 FFF7FEFF 		bl	chPoolFree
 329              	.LVL23:
 330              		.loc 1 148 0 discriminator 3
 331 0018 B442     		cmp	r4, r6
 332 001a F8D1     		bne	.L23
 333              		.loc 1 152 0
 334 001c 2D4A     		ldr	r2, .L37+12
ARM GAS  C:\Users\jo\AppData\Local\Temp\cceRVRht.s 			page 7


 335 001e 2E4B     		ldr	r3, .L37+16
 336 0020 2B48     		ldr	r0, .L37+8
 337 0022 2E4C     		ldr	r4, .L37+20
 338 0024 691E     		subs	r1, r5, #1
 339 0026 FFF7FEFF 		bl	chThdCreateFromMemoryPool
 340              	.LVL24:
 341              		.loc 1 153 0
 342 002a A91E     		subs	r1, r5, #2
 343              		.loc 1 152 0
 344 002c 2060     		str	r0, [r4]
 345              		.loc 1 153 0
 346 002e 294A     		ldr	r2, .L37+12
 347 0030 2B4B     		ldr	r3, .L37+24
 348 0032 2748     		ldr	r0, .L37+8
 349 0034 FFF7FEFF 		bl	chThdCreateFromMemoryPool
 350              	.LVL25:
 351              		.loc 1 154 0
 352 0038 E91E     		subs	r1, r5, #3
 353              		.loc 1 153 0
 354 003a 6060     		str	r0, [r4, #4]
 355              		.loc 1 154 0
 356 003c 254A     		ldr	r2, .L37+12
 357 003e 294B     		ldr	r3, .L37+28
 358 0040 2348     		ldr	r0, .L37+8
 359 0042 FFF7FEFF 		bl	chThdCreateFromMemoryPool
 360              	.LVL26:
 361              		.loc 1 155 0
 362 0046 291F     		subs	r1, r5, #4
 363              		.loc 1 154 0
 364 0048 A060     		str	r0, [r4, #8]
 365              		.loc 1 155 0
 366 004a 224A     		ldr	r2, .L37+12
 367 004c 264B     		ldr	r3, .L37+32
 368 004e 2048     		ldr	r0, .L37+8
 369 0050 FFF7FEFF 		bl	chThdCreateFromMemoryPool
 370              	.LVL27:
 371              		.loc 1 156 0
 372 0054 691F     		subs	r1, r5, #5
 373              		.loc 1 155 0
 374 0056 E060     		str	r0, [r4, #12]
 375              		.loc 1 156 0
 376 0058 1E4A     		ldr	r2, .L37+12
 377 005a 1D48     		ldr	r0, .L37+8
 378 005c 234B     		ldr	r3, .L37+36
 379 005e FFF7FEFF 		bl	chThdCreateFromMemoryPool
 380              	.LVL28:
 381              		.loc 1 158 0
 382 0062 2168     		ldr	r1, [r4]
 383              		.loc 1 156 0
 384 0064 2061     		str	r0, [r4, #16]
 385              		.loc 1 158 0
 386 0066 41B1     		cbz	r1, .L24
 387              		.loc 1 158 0 is_stmt 0 discriminator 1
 388 0068 6168     		ldr	r1, [r4, #4]
 389 006a 31B1     		cbz	r1, .L24
 390              		.loc 1 158 0 discriminator 3
 391 006c A168     		ldr	r1, [r4, #8]
ARM GAS  C:\Users\jo\AppData\Local\Temp\cceRVRht.s 			page 8


 392 006e 21B1     		cbz	r1, .L24
 393              		.loc 1 158 0 discriminator 5
 394 0070 E168     		ldr	r1, [r4, #12]
 395 0072 11B1     		cbz	r1, .L24
 396              		.loc 1 158 0 discriminator 7
 397 0074 B0FA80F1 		clz	r1, r0
 398 0078 4909     		lsrs	r1, r1, #5
 399              	.L24:
 400              		.loc 1 158 0 discriminator 12
 401 007a 0120     		movs	r0, #1
 402 007c FFF7FEFF 		bl	_test_assert
 403              	.LVL29:
 404 0080 00B1     		cbz	r0, .L36
 405              	.L22:
 406 0082 70BD     		pop	{r4, r5, r6, pc}
 407              	.L36:
 408              		.loc 1 166 0 is_stmt 1
 409 0084 FFF7FEFF 		bl	test_wait_threads
 410              	.LVL30:
 411              		.loc 1 167 0
 412 0088 0220     		movs	r0, #2
 413 008a 1949     		ldr	r1, .L37+40
 414 008c FFF7FEFF 		bl	_test_assert_sequence
 415              	.LVL31:
 416 0090 0028     		cmp	r0, #0
 417 0092 F6D1     		bne	.L22
 418 0094 0424     		movs	r4, #4
 419              	.L28:
 420              	.LVL32:
 421              		.loc 1 171 0
 422 0096 0E48     		ldr	r0, .L37+8
 423 0098 FFF7FEFF 		bl	chPoolAlloc
 424              	.LVL33:
 425 009c 011C     		adds	r1, r0, #0
 426 009e 18BF     		it	ne
 427 00a0 0121     		movne	r1, #1
 428 00a2 0320     		movs	r0, #3
 429 00a4 FFF7FEFF 		bl	_test_assert
 430              	.LVL34:
 431 00a8 0028     		cmp	r0, #0
 432 00aa EAD1     		bne	.L22
 433              		.loc 1 170 0 discriminator 2
 434 00ac 013C     		subs	r4, r4, #1
 435              	.LVL35:
 436 00ae F2D1     		bne	.L28
 437              		.loc 1 172 0
 438 00b0 0748     		ldr	r0, .L37+8
 439 00b2 FFF7FEFF 		bl	chPoolAlloc
 440              	.LVL36:
 441              		.loc 1 173 0
 442 00b6 BDE87040 		pop	{r4, r5, r6, lr}
 443              		.cfi_restore 14
 444              		.cfi_restore 6
 445              		.cfi_restore 5
 446              		.cfi_restore 4
 447              		.cfi_def_cfa_offset 0
 448              	.LVL37:
ARM GAS  C:\Users\jo\AppData\Local\Temp\cceRVRht.s 			page 9


 449              		.loc 1 172 0
 450 00ba B0FA80F1 		clz	r1, r0
 451 00be 0420     		movs	r0, #4
 452 00c0 4909     		lsrs	r1, r1, #5
 453 00c2 FFF7FEBF 		b	_test_assert
 454              	.LVL38:
 455              	.L38:
 456 00c6 00BF     		.align	2
 457              	.L37:
 458 00c8 00000000 		.word	ch
 459 00cc 00000000 		.word	wa
 460 00d0 00000000 		.word	.LANCHOR1
 461 00d4 00000000 		.word	thread
 462 00d8 00000000 		.word	.LC0
 463 00dc 00000000 		.word	threads
 464 00e0 04000000 		.word	.LC1
 465 00e4 08000000 		.word	.LC2
 466 00e8 10000000 		.word	.LC4
 467 00ec 14000000 		.word	.LC5
 468 00f0 18000000 		.word	.LC6
 469              		.cfi_endproc
 470              	.LFE232:
 471              		.size	dyn2_execute, .-dyn2_execute
 472 00f4 AFF30080 		.section	.text.dyn2_setup,"ax",%progbits
 472      AFF30080 
 472      AFF30080 
 473              		.align	2
 474              		.p2align 4,,15
 475              		.thumb
 476              		.thumb_func
 477              		.type	dyn2_setup, %function
 478              	dyn2_setup:
 479              	.LFB231:
 480              		.loc 1 138 0
 481              		.cfi_startproc
 482              		@ args = 0, pretend = 0, frame = 0
 483              		@ frame_needed = 0, uses_anonymous_args = 0
 484              		@ link register save eliminated.
 485              		.loc 1 140 0
 486 0000 0248     		ldr	r0, .L40
 487 0002 4FF4A871 		mov	r1, #336
 488 0006 0022     		movs	r2, #0
 489 0008 FFF7FEBF 		b	chPoolObjectInit
 490              	.LVL39:
 491              	.L41:
 492              		.align	2
 493              	.L40:
 494 000c 00000000 		.word	.LANCHOR1
 495              		.cfi_endproc
 496              	.LFE231:
 497              		.size	dyn2_setup, .-dyn2_setup
 498              		.section	.text.regfind,"ax",%progbits
 499              		.align	2
 500              		.p2align 4,,15
 501              		.thumb
 502              		.thumb_func
 503              		.type	regfind, %function
ARM GAS  C:\Users\jo\AppData\Local\Temp\cceRVRht.s 			page 10


 504              	regfind:
 505              	.LFB233:
 506              		.loc 1 192 0
 507              		.cfi_startproc
 508              		@ args = 0, pretend = 0, frame = 0
 509              		@ frame_needed = 0, uses_anonymous_args = 0
 510              	.LVL40:
 511 0000 38B5     		push	{r3, r4, r5, lr}
 512              		.cfi_def_cfa_offset 16
 513              		.cfi_offset 3, -16
 514              		.cfi_offset 4, -12
 515              		.cfi_offset 5, -8
 516              		.cfi_offset 14, -4
 517              		.loc 1 192 0
 518 0002 0546     		mov	r5, r0
 519              		.loc 1 196 0
 520 0004 FFF7FEFF 		bl	chRegFirstThread
 521              	.LVL41:
 522              		.loc 1 194 0
 523 0008 0024     		movs	r4, #0
 524              		.loc 1 196 0
 525 000a 0346     		mov	r3, r0
 526              	.LVL42:
 527              	.L43:
 528              		.loc 1 199 0 discriminator 1
 529 000c 1846     		mov	r0, r3
 530              		.loc 1 198 0 discriminator 1
 531 000e AB42     		cmp	r3, r5
 532 0010 08BF     		it	eq
 533 0012 44F00104 		orreq	r4, r4, #1
 534              	.LVL43:
 535              		.loc 1 199 0 discriminator 1
 536 0016 FFF7FEFF 		bl	chRegNextThread
 537              	.LVL44:
 538              		.loc 1 200 0 discriminator 1
 539 001a 0346     		mov	r3, r0
 540 001c 0028     		cmp	r0, #0
 541 001e F5D1     		bne	.L43
 542              		.loc 1 202 0
 543 0020 2046     		mov	r0, r4
 544              	.LVL45:
 545 0022 38BD     		pop	{r3, r4, r5, pc}
 546              		.cfi_endproc
 547              	.LFE233:
 548              		.size	regfind, .-regfind
 549 0024 AFF30080 		.section	.text.dyn3_execute,"ax",%progbits
 549      AFF30080 
 549      AFF30080 
 550              		.align	2
 551              		.p2align 4,,15
 552              		.thumb
 553              		.thumb_func
 554              		.type	dyn3_execute, %function
 555              	dyn3_execute:
 556              	.LFB235:
 557              		.loc 1 209 0
 558              		.cfi_startproc
ARM GAS  C:\Users\jo\AppData\Local\Temp\cceRVRht.s 			page 11


 559              		@ args = 0, pretend = 0, frame = 0
 560              		@ frame_needed = 0, uses_anonymous_args = 0
 561 0000 10B5     		push	{r4, lr}
 562              		.cfi_def_cfa_offset 8
 563              		.cfi_offset 4, -8
 564              		.cfi_offset 14, -4
 565              	.LBB30:
 566              	.LBB31:
 567              	.LBB32:
 568              	.LBB33:
 569              		.loc 2 176 0
 570 0002 4B4B     		ldr	r3, .L52
 571              	.LBE33:
 572              	.LBE32:
 573              	.LBE31:
 574              	.LBE30:
 575              		.loc 1 214 0
 576 0004 4B49     		ldr	r1, .L52+4
 577              	.LBB35:
 578              	.LBB34:
 579              		.loc 2 189 0
 580 0006 9B69     		ldr	r3, [r3, #24]
 581              	.LBE34:
 582              	.LBE35:
 583              		.loc 1 214 0
 584 0008 4B48     		ldr	r0, .L52+8
 585 000a 9A68     		ldr	r2, [r3, #8]
 586 000c 4B4B     		ldr	r3, .L52+12
 587              		.loc 1 209 0
 588 000e 82B0     		sub	sp, sp, #8
 589              		.cfi_def_cfa_offset 16
 590              		.loc 1 214 0
 591 0010 013A     		subs	r2, r2, #1
 592 0012 0091     		str	r1, [sp]
 593 0014 4FF4A871 		mov	r1, #336
 594 0018 FFF7FEFF 		bl	chThdCreateFromHeap
 595              	.LVL46:
 596 001c 0446     		mov	r4, r0
 597              	.LVL47:
 598              		.loc 1 215 0
 599 001e 0120     		movs	r0, #1
 600              	.LVL48:
 601 0020 94F82210 		ldrb	r1, [r4, #34]	@ zero_extendqisi2
 602 0024 091A     		subs	r1, r1, r0
 603 0026 B1FA81F1 		clz	r1, r1
 604 002a 4909     		lsrs	r1, r1, #5
 605 002c FFF7FEFF 		bl	_test_assert
 606              	.LVL49:
 607 0030 08B1     		cbz	r0, .L51
 608              	.L46:
 609              		.loc 1 237 0
 610 0032 02B0     		add	sp, sp, #8
 611              		.cfi_remember_state
 612              		.cfi_def_cfa_offset 8
 613              		@ sp needed
 614 0034 10BD     		pop	{r4, pc}
 615              	.LVL50:
ARM GAS  C:\Users\jo\AppData\Local\Temp\cceRVRht.s 			page 12


 616              	.L51:
 617              		.cfi_restore_state
 618              		.loc 1 216 0
 619 0036 2046     		mov	r0, r4
 620 0038 FFF7FEFF 		bl	chThdAddRef
 621              	.LVL51:
 622              		.loc 1 217 0
 623 003c 94F82210 		ldrb	r1, [r4, #34]	@ zero_extendqisi2
 624 0040 0220     		movs	r0, #2
 625 0042 091A     		subs	r1, r1, r0
 626 0044 B1FA81F1 		clz	r1, r1
 627 0048 4909     		lsrs	r1, r1, #5
 628 004a FFF7FEFF 		bl	_test_assert
 629              	.LVL52:
 630 004e 0028     		cmp	r0, #0
 631 0050 EFD1     		bne	.L46
 632              		.loc 1 218 0
 633 0052 2046     		mov	r0, r4
 634 0054 FFF7FEFF 		bl	chThdRelease
 635              	.LVL53:
 636              		.loc 1 219 0
 637 0058 94F82210 		ldrb	r1, [r4, #34]	@ zero_extendqisi2
 638 005c 0320     		movs	r0, #3
 639 005e A1F10101 		sub	r1, #1
 640 0062 B1FA81F1 		clz	r1, r1
 641 0066 4909     		lsrs	r1, r1, #5
 642 0068 FFF7FEFF 		bl	_test_assert
 643              	.LVL54:
 644 006c 0028     		cmp	r0, #0
 645 006e E0D1     		bne	.L46
 646              		.loc 1 222 0
 647 0070 2046     		mov	r0, r4
 648 0072 FFF7FEFF 		bl	regfind
 649              	.LVL55:
 650 0076 0146     		mov	r1, r0
 651 0078 0420     		movs	r0, #4
 652 007a FFF7FEFF 		bl	_test_assert
 653              	.LVL56:
 654 007e 0028     		cmp	r0, #0
 655 0080 D7D1     		bne	.L46
 656              		.loc 1 223 0
 657 0082 2046     		mov	r0, r4
 658 0084 FFF7FEFF 		bl	regfind
 659              	.LVL57:
 660 0088 0146     		mov	r1, r0
 661 008a 0520     		movs	r0, #5
 662 008c FFF7FEFF 		bl	_test_assert
 663              	.LVL58:
 664 0090 0028     		cmp	r0, #0
 665 0092 CED1     		bne	.L46
 666              		.loc 1 226 0
 667 0094 2046     		mov	r0, r4
 668 0096 FFF7FEFF 		bl	chThdRelease
 669              	.LVL59:
 670              		.loc 1 227 0
 671 009a 94F82210 		ldrb	r1, [r4, #34]	@ zero_extendqisi2
 672 009e B1FA81F1 		clz	r1, r1
ARM GAS  C:\Users\jo\AppData\Local\Temp\cceRVRht.s 			page 13


 673 00a2 0620     		movs	r0, #6
 674 00a4 4909     		lsrs	r1, r1, #5
 675 00a6 FFF7FEFF 		bl	_test_assert
 676              	.LVL60:
 677 00aa 0028     		cmp	r0, #0
 678 00ac C1D1     		bne	.L46
 679              		.loc 1 228 0
 680 00ae 94F82010 		ldrb	r1, [r4, #32]	@ zero_extendqisi2
 681 00b2 B1FA81F1 		clz	r1, r1
 682 00b6 0720     		movs	r0, #7
 683 00b8 4909     		lsrs	r1, r1, #5
 684 00ba FFF7FEFF 		bl	_test_assert
 685              	.LVL61:
 686 00be 0028     		cmp	r0, #0
 687 00c0 B7D1     		bne	.L46
 688              		.loc 1 229 0
 689 00c2 2046     		mov	r0, r4
 690 00c4 FFF7FEFF 		bl	regfind
 691              	.LVL62:
 692 00c8 0146     		mov	r1, r0
 693 00ca 0820     		movs	r0, #8
 694 00cc FFF7FEFF 		bl	_test_assert
 695              	.LVL63:
 696 00d0 0028     		cmp	r0, #0
 697 00d2 AED1     		bne	.L46
 698              		.loc 1 230 0
 699 00d4 2046     		mov	r0, r4
 700 00d6 FFF7FEFF 		bl	regfind
 701              	.LVL64:
 702 00da 0146     		mov	r1, r0
 703 00dc 0920     		movs	r0, #9
 704 00de FFF7FEFF 		bl	_test_assert
 705              	.LVL65:
 706 00e2 0028     		cmp	r0, #0
 707 00e4 A5D1     		bne	.L46
 708              		.loc 1 231 0
 709 00e6 40F6C410 		movw	r0, #2500
 710 00ea FFF7FEFF 		bl	chThdSleep
 711              	.LVL66:
 712              		.loc 1 232 0
 713 00ee 94F82010 		ldrb	r1, [r4, #32]	@ zero_extendqisi2
 714 00f2 A1F10F03 		sub	r3, r1, #15
 715 00f6 5942     		rsbs	r1, r3, #0
 716 00f8 5941     		adcs	r1, r1, r3
 717 00fa 0A20     		movs	r0, #10
 718 00fc FFF7FEFF 		bl	_test_assert
 719              	.LVL67:
 720 0100 0028     		cmp	r0, #0
 721 0102 96D1     		bne	.L46
 722              		.loc 1 235 0
 723 0104 2046     		mov	r0, r4
 724 0106 FFF7FEFF 		bl	regfind
 725              	.LVL68:
 726 010a 0146     		mov	r1, r0
 727 010c 0B20     		movs	r0, #11
 728 010e FFF7FEFF 		bl	_test_assert
 729              	.LVL69:
ARM GAS  C:\Users\jo\AppData\Local\Temp\cceRVRht.s 			page 14


 730 0112 0028     		cmp	r0, #0
 731 0114 8DD1     		bne	.L46
 732              		.loc 1 236 0
 733 0116 2046     		mov	r0, r4
 734 0118 FFF7FEFF 		bl	regfind
 735              	.LVL70:
 736 011c 80F00101 		eor	r1, r0, #1
 737 0120 C9B2     		uxtb	r1, r1
 738 0122 0C20     		movs	r0, #12
 739              		.loc 1 237 0
 740 0124 02B0     		add	sp, sp, #8
 741              		.cfi_def_cfa_offset 8
 742              		@ sp needed
 743 0126 BDE81040 		pop	{r4, lr}
 744              		.cfi_restore 14
 745              		.cfi_restore 4
 746              		.cfi_def_cfa_offset 0
 747              	.LVL71:
 748              		.loc 1 236 0
 749 012a FFF7FEBF 		b	_test_assert
 750              	.LVL72:
 751              	.L53:
 752 012e 00BF     		.align	2
 753              	.L52:
 754 0130 00000000 		.word	ch
 755 0134 00000000 		.word	.LC0
 756 0138 00000000 		.word	.LANCHOR0
 757 013c 00000000 		.word	thread
 758              		.cfi_endproc
 759              	.LFE235:
 760              		.size	dyn3_execute, .-dyn3_execute
 761              		.global	patterndyn
 762              		.global	testdyn3
 763              		.global	testdyn2
 764              		.global	testdyn1
 765              		.section	.rodata.testdyn1,"a",%progbits
 766              		.align	2
 767              		.type	testdyn1, %object
 768              		.size	testdyn1, 16
 769              	testdyn1:
 770 0000 78000000 		.word	.LC9
 771 0004 00000000 		.word	dyn1_setup
 772 0008 00000000 		.word	0
 773 000c 00000000 		.word	dyn1_execute
 774              		.section	.rodata.testdyn2,"a",%progbits
 775              		.align	2
 776              		.type	testdyn2, %object
 777              		.size	testdyn2, 16
 778              	testdyn2:
 779 0000 48000000 		.word	.LC8
 780 0004 00000000 		.word	dyn2_setup
 781 0008 00000000 		.word	0
 782 000c 00000000 		.word	dyn2_execute
 783              		.section	.rodata.testdyn3,"a",%progbits
 784              		.align	2
 785              		.type	testdyn3, %object
 786              		.size	testdyn3, 16
ARM GAS  C:\Users\jo\AppData\Local\Temp\cceRVRht.s 			page 15


 787              	testdyn3:
 788 0000 20000000 		.word	.LC7
 789 0004 00000000 		.word	dyn3_setup
 790 0008 00000000 		.word	0
 791 000c 00000000 		.word	dyn3_execute
 792              		.section	.bss.mp1,"aw",%nobits
 793              		.align	2
 794              		.set	.LANCHOR1,. + 0
 795              		.type	mp1, %object
 796              		.size	mp1, 12
 797              	mp1:
 798 0000 00000000 		.space	12
 798      00000000 
 798      00000000 
 799              		.section	.rodata.str1.4,"aMS",%progbits,1
 800              		.align	2
 801              	.LC0:
 802 0000 4100     		.ascii	"A\000"
 803 0002 0000     		.space	2
 804              	.LC1:
 805 0004 4200     		.ascii	"B\000"
 806 0006 0000     		.space	2
 807              	.LC2:
 808 0008 4300     		.ascii	"C\000"
 809 000a 0000     		.space	2
 810              	.LC3:
 811 000c 414200   		.ascii	"AB\000"
 812 000f 00       		.space	1
 813              	.LC4:
 814 0010 4400     		.ascii	"D\000"
 815 0012 0000     		.space	2
 816              	.LC5:
 817 0014 4500     		.ascii	"E\000"
 818 0016 0000     		.space	2
 819              	.LC6:
 820 0018 41424344 		.ascii	"ABCD\000"
 820      00
 821 001d 000000   		.space	3
 822              	.LC7:
 823 0020 44796E61 		.ascii	"Dynamic APIs, registry and references\000"
 823      6D696320 
 823      41504973 
 823      2C207265 
 823      67697374 
 824 0046 0000     		.space	2
 825              	.LC8:
 826 0048 44796E61 		.ascii	"Dynamic APIs, threads creation from memory pool\000"
 826      6D696320 
 826      41504973 
 826      2C207468 
 826      72656164 
 827              	.LC9:
 828 0078 44796E61 		.ascii	"Dynamic APIs, threads creation from heap\000"
 828      6D696320 
 828      41504973 
 828      2C207468 
 828      72656164 
ARM GAS  C:\Users\jo\AppData\Local\Temp\cceRVRht.s 			page 16


 829 00a1 000000   		.section	.rodata.patterndyn,"a",%progbits
 830              		.align	2
 831              		.type	patterndyn, %object
 832              		.size	patterndyn, 16
 833              	patterndyn:
 834 0000 00000000 		.word	testdyn1
 835 0004 00000000 		.word	testdyn2
 836 0008 00000000 		.word	testdyn3
 837 000c 00000000 		.word	0
 838              		.section	.bss.heap1,"aw",%nobits
 839              		.align	3
 840              		.set	.LANCHOR0,. + 0
 841              		.type	heap1, %object
 842              		.size	heap1, 32
 843              	heap1:
 844 0000 00000000 		.space	32
 844      00000000 
 844      00000000 
 844      00000000 
 844      00000000 
 845              		.text
 846              	.Letext0:
 847              		.file 3 "c:\\program files\\gnu tools arm embedded\\4.9 2014q4\\lib\\gcc\\arm-none-eabi\\4.9.3\\in
 848              		.file 4 "c:\\program files\\gnu tools arm embedded\\4.9 2014q4\\arm-none-eabi\\include\\machine\\_
 849              		.file 5 "c:\\program files\\gnu tools arm embedded\\4.9 2014q4\\arm-none-eabi\\include\\stdint.h"
 850              		.file 6 "../../../os/rt/ports/ARMCMx/compilers/GCC/chtypes.h"
 851              		.file 7 "../../../os/rt/include/chsystypes.h"
 852              		.file 8 "../../../os/rt/include/chschd.h"
 853              		.file 9 "../../../os/rt/ports/ARMCMx/chcore.h"
 854              		.file 10 "../../../os/rt/ports/ARMCMx/chcore_v7m.h"
 855              		.file 11 "../../../os/rt/include/chdebug.h"
 856              		.file 12 "../../../os/rt/include/chtm.h"
 857              		.file 13 "../../../os/rt/include/chsem.h"
 858              		.file 14 "../../../os/rt/include/chmtx.h"
 859              		.file 15 "../../../os/rt/include/chmemcore.h"
 860              		.file 16 "../../../os/rt/include/chheap.h"
 861              		.file 17 "../../../os/rt/include/chmempools.h"
 862              		.file 18 "../../../test/rt/test.h"
 863              		.file 19 "../../../os/ext/CMSIS/include/core_cm4.h"
 864              		.file 20 "../../../os/rt/include/chdynamic.h"
 865              		.file 21 "../../../os/rt/include/chregistry.h"
 866              		.section	.debug_info,"",%progbits
 867              	.Ldebug_info0:
 868 0000 95120000 		.4byte	0x1295
 869 0004 0400     		.2byte	0x4
 870 0006 00000000 		.4byte	.Ldebug_abbrev0
 871 000a 04       		.byte	0x4
 872 000b 01       		.uleb128 0x1
 873 000c 76030000 		.4byte	.LASF175
 874 0010 01       		.byte	0x1
 875 0011 38080000 		.4byte	.LASF176
 876 0015 5E000000 		.4byte	.LASF177
 877 0019 50000000 		.4byte	.Ldebug_ranges0+0x50
 878 001d 00000000 		.4byte	0
 879 0021 00000000 		.4byte	.Ldebug_line0
 880 0025 02       		.uleb128 0x2
 881 0026 04       		.byte	0x4
ARM GAS  C:\Users\jo\AppData\Local\Temp\cceRVRht.s 			page 17


 882 0027 05       		.byte	0x5
 883 0028 696E7400 		.ascii	"int\000"
 884 002c 03       		.uleb128 0x3
 885 002d 1D000000 		.4byte	.LASF2
 886 0031 03       		.byte	0x3
 887 0032 D4       		.byte	0xd4
 888 0033 37000000 		.4byte	0x37
 889 0037 04       		.uleb128 0x4
 890 0038 04       		.byte	0x4
 891 0039 07       		.byte	0x7
 892 003a 87020000 		.4byte	.LASF0
 893 003e 04       		.uleb128 0x4
 894 003f 01       		.byte	0x1
 895 0040 06       		.byte	0x6
 896 0041 5D010000 		.4byte	.LASF1
 897 0045 03       		.uleb128 0x3
 898 0046 39000000 		.4byte	.LASF3
 899 004a 04       		.byte	0x4
 900 004b 1D       		.byte	0x1d
 901 004c 50000000 		.4byte	0x50
 902 0050 04       		.uleb128 0x4
 903 0051 01       		.byte	0x1
 904 0052 08       		.byte	0x8
 905 0053 D4050000 		.4byte	.LASF4
 906 0057 04       		.uleb128 0x4
 907 0058 02       		.byte	0x2
 908 0059 05       		.byte	0x5
 909 005a F8050000 		.4byte	.LASF5
 910 005e 04       		.uleb128 0x4
 911 005f 02       		.byte	0x2
 912 0060 07       		.byte	0x7
 913 0061 D0020000 		.4byte	.LASF6
 914 0065 03       		.uleb128 0x3
 915 0066 4A030000 		.4byte	.LASF7
 916 006a 04       		.byte	0x4
 917 006b 3F       		.byte	0x3f
 918 006c 70000000 		.4byte	0x70
 919 0070 04       		.uleb128 0x4
 920 0071 04       		.byte	0x4
 921 0072 05       		.byte	0x5
 922 0073 BD010000 		.4byte	.LASF8
 923 0077 03       		.uleb128 0x3
 924 0078 44070000 		.4byte	.LASF9
 925 007c 04       		.byte	0x4
 926 007d 41       		.byte	0x41
 927 007e 82000000 		.4byte	0x82
 928 0082 04       		.uleb128 0x4
 929 0083 04       		.byte	0x4
 930 0084 07       		.byte	0x7
 931 0085 C5060000 		.4byte	.LASF10
 932 0089 04       		.uleb128 0x4
 933 008a 08       		.byte	0x8
 934 008b 05       		.byte	0x5
 935 008c 4F010000 		.4byte	.LASF11
 936 0090 03       		.uleb128 0x3
 937 0091 6B050000 		.4byte	.LASF12
 938 0095 04       		.byte	0x4
ARM GAS  C:\Users\jo\AppData\Local\Temp\cceRVRht.s 			page 18


 939 0096 5B       		.byte	0x5b
 940 0097 9B000000 		.4byte	0x9b
 941 009b 04       		.uleb128 0x4
 942 009c 08       		.byte	0x8
 943 009d 07       		.byte	0x7
 944 009e B9000000 		.4byte	.LASF13
 945 00a2 03       		.uleb128 0x3
 946 00a3 EE070000 		.4byte	.LASF14
 947 00a7 05       		.byte	0x5
 948 00a8 15       		.byte	0x15
 949 00a9 45000000 		.4byte	0x45
 950 00ad 03       		.uleb128 0x3
 951 00ae CC050000 		.4byte	.LASF15
 952 00b2 05       		.byte	0x5
 953 00b3 2C       		.byte	0x2c
 954 00b4 65000000 		.4byte	0x65
 955 00b8 03       		.uleb128 0x3
 956 00b9 84060000 		.4byte	.LASF16
 957 00bd 05       		.byte	0x5
 958 00be 2D       		.byte	0x2d
 959 00bf 77000000 		.4byte	0x77
 960 00c3 03       		.uleb128 0x3
 961 00c4 30000000 		.4byte	.LASF17
 962 00c8 05       		.byte	0x5
 963 00c9 39       		.byte	0x39
 964 00ca 90000000 		.4byte	0x90
 965 00ce 05       		.uleb128 0x5
 966 00cf AD000000 		.4byte	0xad
 967 00d3 03       		.uleb128 0x3
 968 00d4 95070000 		.4byte	.LASF18
 969 00d8 06       		.byte	0x6
 970 00d9 45       		.byte	0x45
 971 00da B8000000 		.4byte	0xb8
 972 00de 03       		.uleb128 0x3
 973 00df 17030000 		.4byte	.LASF19
 974 00e3 06       		.byte	0x6
 975 00e4 48       		.byte	0x48
 976 00e5 A2000000 		.4byte	0xa2
 977 00e9 03       		.uleb128 0x3
 978 00ea DA010000 		.4byte	.LASF20
 979 00ee 06       		.byte	0x6
 980 00ef 49       		.byte	0x49
 981 00f0 A2000000 		.4byte	0xa2
 982 00f4 03       		.uleb128 0x3
 983 00f5 47010000 		.4byte	.LASF21
 984 00f9 06       		.byte	0x6
 985 00fa 4A       		.byte	0x4a
 986 00fb A2000000 		.4byte	0xa2
 987 00ff 03       		.uleb128 0x3
 988 0100 A7050000 		.4byte	.LASF22
 989 0104 06       		.byte	0x6
 990 0105 4C       		.byte	0x4c
 991 0106 B8000000 		.4byte	0xb8
 992 010a 03       		.uleb128 0x3
 993 010b 05030000 		.4byte	.LASF23
 994 010f 06       		.byte	0x6
 995 0110 4D       		.byte	0x4d
ARM GAS  C:\Users\jo\AppData\Local\Temp\cceRVRht.s 			page 19


 996 0111 AD000000 		.4byte	0xad
 997 0115 03       		.uleb128 0x3
 998 0116 3E030000 		.4byte	.LASF24
 999 011a 06       		.byte	0x6
 1000 011b 4F       		.byte	0x4f
 1001 011c B8000000 		.4byte	0xb8
 1002 0120 03       		.uleb128 0x3
 1003 0121 76020000 		.4byte	.LASF25
 1004 0125 06       		.byte	0x6
 1005 0126 51       		.byte	0x51
 1006 0127 AD000000 		.4byte	0xad
 1007 012b 03       		.uleb128 0x3
 1008 012c 26070000 		.4byte	.LASF26
 1009 0130 07       		.byte	0x7
 1010 0131 33       		.byte	0x33
 1011 0132 B8000000 		.4byte	0xb8
 1012 0136 03       		.uleb128 0x3
 1013 0137 F7060000 		.4byte	.LASF27
 1014 013b 07       		.byte	0x7
 1015 013c 3F       		.byte	0x3f
 1016 013d 41010000 		.4byte	0x141
 1017 0141 06       		.uleb128 0x6
 1018 0142 F0020000 		.4byte	.LASF48
 1019 0146 48       		.byte	0x48
 1020 0147 08       		.byte	0x8
 1021 0148 C2       		.byte	0xc2
 1022 0149 3A020000 		.4byte	0x23a
 1023 014d 07       		.uleb128 0x7
 1024 014e 20060000 		.4byte	.LASF28
 1025 0152 08       		.byte	0x8
 1026 0153 C3       		.byte	0xc3
 1027 0154 45020000 		.4byte	0x245
 1028 0158 00       		.byte	0
 1029 0159 07       		.uleb128 0x7
 1030 015a 98050000 		.4byte	.LASF29
 1031 015e 08       		.byte	0x8
 1032 015f C5       		.byte	0xc5
 1033 0160 45020000 		.4byte	0x245
 1034 0164 04       		.byte	0x4
 1035 0165 07       		.uleb128 0x7
 1036 0166 35010000 		.4byte	.LASF30
 1037 016a 08       		.byte	0x8
 1038 016b C7       		.byte	0xc7
 1039 016c FF000000 		.4byte	0xff
 1040 0170 08       		.byte	0x8
 1041 0171 07       		.uleb128 0x7
 1042 0172 82080000 		.4byte	.LASF31
 1043 0176 08       		.byte	0x8
 1044 0177 C8       		.byte	0xc8
 1045 0178 A0040000 		.4byte	0x4a0
 1046 017c 0C       		.byte	0xc
 1047 017d 07       		.uleb128 0x7
 1048 017e 0B020000 		.4byte	.LASF32
 1049 0182 08       		.byte	0x8
 1050 0183 CA       		.byte	0xca
 1051 0184 45020000 		.4byte	0x245
 1052 0188 10       		.byte	0x10
ARM GAS  C:\Users\jo\AppData\Local\Temp\cceRVRht.s 			page 20


 1053 0189 07       		.uleb128 0x7
 1054 018a 13050000 		.4byte	.LASF33
 1055 018e 08       		.byte	0x8
 1056 018f CB       		.byte	0xcb
 1057 0190 45020000 		.4byte	0x245
 1058 0194 14       		.byte	0x14
 1059 0195 07       		.uleb128 0x7
 1060 0196 1F080000 		.4byte	.LASF34
 1061 019a 08       		.byte	0x8
 1062 019b D2       		.byte	0xd2
 1063 019c B2060000 		.4byte	0x6b2
 1064 01a0 18       		.byte	0x18
 1065 01a1 07       		.uleb128 0x7
 1066 01a2 7C020000 		.4byte	.LASF35
 1067 01a6 08       		.byte	0x8
 1068 01a7 D8       		.byte	0xd8
 1069 01a8 C4060000 		.4byte	0x6c4
 1070 01ac 1C       		.byte	0x1c
 1071 01ad 07       		.uleb128 0x7
 1072 01ae 02060000 		.4byte	.LASF36
 1073 01b2 08       		.byte	0x8
 1074 01b3 DD       		.byte	0xdd
 1075 01b4 E9000000 		.4byte	0xe9
 1076 01b8 20       		.byte	0x20
 1077 01b9 07       		.uleb128 0x7
 1078 01ba 27060000 		.4byte	.LASF37
 1079 01be 08       		.byte	0x8
 1080 01bf E1       		.byte	0xe1
 1081 01c0 DE000000 		.4byte	0xde
 1082 01c4 21       		.byte	0x21
 1083 01c5 07       		.uleb128 0x7
 1084 01c6 C3070000 		.4byte	.LASF38
 1085 01ca 08       		.byte	0x8
 1086 01cb E6       		.byte	0xe6
 1087 01cc F4000000 		.4byte	0xf4
 1088 01d0 22       		.byte	0x22
 1089 01d1 08       		.uleb128 0x8
 1090 01d2 705F7500 		.ascii	"p_u\000"
 1091 01d6 08       		.byte	0x8
 1092 01d7 3101     		.2byte	0x131
 1093 01d9 ED050000 		.4byte	0x5ed
 1094 01dd 24       		.byte	0x24
 1095 01de 09       		.uleb128 0x9
 1096 01df 7B040000 		.4byte	.LASF39
 1097 01e3 08       		.byte	0x8
 1098 01e4 3601     		.2byte	0x136
 1099 01e6 4B020000 		.4byte	0x24b
 1100 01ea 28       		.byte	0x28
 1101 01eb 09       		.uleb128 0x9
 1102 01ec A3020000 		.4byte	.LASF40
 1103 01f0 08       		.byte	0x8
 1104 01f1 3C01     		.2byte	0x13c
 1105 01f3 6F020000 		.4byte	0x26f
 1106 01f7 2C       		.byte	0x2c
 1107 01f8 09       		.uleb128 0x9
 1108 01f9 6A080000 		.4byte	.LASF41
 1109 01fd 08       		.byte	0x8
ARM GAS  C:\Users\jo\AppData\Local\Temp\cceRVRht.s 			page 21


 1110 01fe 4001     		.2byte	0x140
 1111 0200 0A010000 		.4byte	0x10a
 1112 0204 34       		.byte	0x34
 1113 0205 09       		.uleb128 0x9
 1114 0206 6E060000 		.4byte	.LASF42
 1115 020a 08       		.byte	0x8
 1116 020b 4601     		.2byte	0x146
 1117 020d 15010000 		.4byte	0x115
 1118 0211 38       		.byte	0x38
 1119 0212 09       		.uleb128 0x9
 1120 0213 EE050000 		.4byte	.LASF43
 1121 0217 08       		.byte	0x8
 1122 0218 4D01     		.2byte	0x14d
 1123 021a AC060000 		.4byte	0x6ac
 1124 021e 3C       		.byte	0x3c
 1125 021f 09       		.uleb128 0x9
 1126 0220 30070000 		.4byte	.LASF44
 1127 0224 08       		.byte	0x8
 1128 0225 5101     		.2byte	0x151
 1129 0227 FF000000 		.4byte	0xff
 1130 022b 40       		.byte	0x40
 1131 022c 09       		.uleb128 0x9
 1132 022d 7B010000 		.4byte	.LASF45
 1133 0231 08       		.byte	0x8
 1134 0232 5801     		.2byte	0x158
 1135 0234 22030000 		.4byte	0x322
 1136 0238 44       		.byte	0x44
 1137 0239 00       		.byte	0
 1138 023a 03       		.uleb128 0x3
 1139 023b 8E040000 		.4byte	.LASF46
 1140 023f 07       		.byte	0x7
 1141 0240 44       		.byte	0x44
 1142 0241 45020000 		.4byte	0x245
 1143 0245 0A       		.uleb128 0xa
 1144 0246 04       		.byte	0x4
 1145 0247 36010000 		.4byte	0x136
 1146 024b 03       		.uleb128 0x3
 1147 024c 6C040000 		.4byte	.LASF47
 1148 0250 07       		.byte	0x7
 1149 0251 49       		.byte	0x49
 1150 0252 56020000 		.4byte	0x256
 1151 0256 06       		.uleb128 0x6
 1152 0257 A5060000 		.4byte	.LASF49
 1153 025b 04       		.byte	0x4
 1154 025c 08       		.byte	0x8
 1155 025d B0       		.byte	0xb0
 1156 025e 6F020000 		.4byte	0x26f
 1157 0262 07       		.uleb128 0x7
 1158 0263 20060000 		.4byte	.LASF28
 1159 0267 08       		.byte	0x8
 1160 0268 B1       		.byte	0xb1
 1161 0269 45020000 		.4byte	0x245
 1162 026d 00       		.byte	0
 1163 026e 00       		.byte	0
 1164 026f 03       		.uleb128 0x3
 1165 0270 3C060000 		.4byte	.LASF50
 1166 0274 07       		.byte	0x7
ARM GAS  C:\Users\jo\AppData\Local\Temp\cceRVRht.s 			page 22


 1167 0275 50       		.byte	0x50
 1168 0276 7A020000 		.4byte	0x27a
 1169 027a 06       		.uleb128 0x6
 1170 027b 24010000 		.4byte	.LASF51
 1171 027f 08       		.byte	0x8
 1172 0280 08       		.byte	0x8
 1173 0281 B7       		.byte	0xb7
 1174 0282 9F020000 		.4byte	0x29f
 1175 0286 07       		.uleb128 0x7
 1176 0287 20060000 		.4byte	.LASF28
 1177 028b 08       		.byte	0x8
 1178 028c B8       		.byte	0xb8
 1179 028d 45020000 		.4byte	0x245
 1180 0291 00       		.byte	0
 1181 0292 07       		.uleb128 0x7
 1182 0293 98050000 		.4byte	.LASF29
 1183 0297 08       		.byte	0x8
 1184 0298 B9       		.byte	0xb9
 1185 0299 45020000 		.4byte	0x245
 1186 029d 04       		.byte	0x4
 1187 029e 00       		.byte	0
 1188 029f 03       		.uleb128 0x3
 1189 02a0 08000000 		.4byte	.LASF52
 1190 02a4 07       		.byte	0x7
 1191 02a5 57       		.byte	0x57
 1192 02a6 AA020000 		.4byte	0x2aa
 1193 02aa 0B       		.uleb128 0xb
 1194 02ab 30030000 		.4byte	.LASF53
 1195 02af 1C       		.byte	0x1c
 1196 02b0 08       		.byte	0x8
 1197 02b1 9001     		.2byte	0x190
 1198 02b3 06030000 		.4byte	0x306
 1199 02b7 09       		.uleb128 0x9
 1200 02b8 94060000 		.4byte	.LASF54
 1201 02bc 08       		.byte	0x8
 1202 02bd 9101     		.2byte	0x191
 1203 02bf 6F020000 		.4byte	0x26f
 1204 02c3 00       		.byte	0
 1205 02c4 09       		.uleb128 0x9
 1206 02c5 12060000 		.4byte	.LASF55
 1207 02c9 08       		.byte	0x8
 1208 02ca 9201     		.2byte	0x192
 1209 02cc FF000000 		.4byte	0xff
 1210 02d0 08       		.byte	0x8
 1211 02d1 09       		.uleb128 0x9
 1212 02d2 1B050000 		.4byte	.LASF56
 1213 02d6 08       		.byte	0x8
 1214 02d7 9401     		.2byte	0x194
 1215 02d9 A0040000 		.4byte	0x4a0
 1216 02dd 0C       		.byte	0xc
 1217 02de 09       		.uleb128 0x9
 1218 02df 3D020000 		.4byte	.LASF57
 1219 02e3 08       		.byte	0x8
 1220 02e4 9701     		.2byte	0x197
 1221 02e6 45020000 		.4byte	0x245
 1222 02ea 10       		.byte	0x10
 1223 02eb 09       		.uleb128 0x9
ARM GAS  C:\Users\jo\AppData\Local\Temp\cceRVRht.s 			page 23


 1224 02ec 63050000 		.4byte	.LASF58
 1225 02f0 08       		.byte	0x8
 1226 02f1 9801     		.2byte	0x198
 1227 02f3 45020000 		.4byte	0x245
 1228 02f7 14       		.byte	0x14
 1229 02f8 09       		.uleb128 0x9
 1230 02f9 53080000 		.4byte	.LASF59
 1231 02fd 08       		.byte	0x8
 1232 02fe 9B01     		.2byte	0x19b
 1233 0300 45020000 		.4byte	0x245
 1234 0304 18       		.byte	0x18
 1235 0305 00       		.byte	0
 1236 0306 03       		.uleb128 0x3
 1237 0307 3B070000 		.4byte	.LASF60
 1238 030b 07       		.byte	0x7
 1239 030c 5C       		.byte	0x5c
 1240 030d 11030000 		.4byte	0x311
 1241 0311 0A       		.uleb128 0xa
 1242 0312 04       		.byte	0x4
 1243 0313 17030000 		.4byte	0x317
 1244 0317 0C       		.uleb128 0xc
 1245 0318 22030000 		.4byte	0x322
 1246 031c 0D       		.uleb128 0xd
 1247 031d 22030000 		.4byte	0x322
 1248 0321 00       		.byte	0
 1249 0322 0E       		.uleb128 0xe
 1250 0323 04       		.byte	0x4
 1251 0324 03       		.uleb128 0x3
 1252 0325 88050000 		.4byte	.LASF61
 1253 0329 07       		.byte	0x7
 1254 032a 61       		.byte	0x61
 1255 032b 2F030000 		.4byte	0x32f
 1256 032f 0B       		.uleb128 0xb
 1257 0330 84070000 		.4byte	.LASF62
 1258 0334 14       		.byte	0x14
 1259 0335 08       		.byte	0x8
 1260 0336 6B01     		.2byte	0x16b
 1261 0338 7E030000 		.4byte	0x37e
 1262 033c 09       		.uleb128 0x9
 1263 033d 94020000 		.4byte	.LASF63
 1264 0341 08       		.byte	0x8
 1265 0342 6C01     		.2byte	0x16c
 1266 0344 CA060000 		.4byte	0x6ca
 1267 0348 00       		.byte	0
 1268 0349 09       		.uleb128 0x9
 1269 034a 4E020000 		.4byte	.LASF64
 1270 034e 08       		.byte	0x8
 1271 034f 6D01     		.2byte	0x16d
 1272 0351 CA060000 		.4byte	0x6ca
 1273 0355 04       		.byte	0x4
 1274 0356 09       		.uleb128 0x9
 1275 0357 9C060000 		.4byte	.LASF65
 1276 035b 08       		.byte	0x8
 1277 035c 6E01     		.2byte	0x16e
 1278 035e 2B010000 		.4byte	0x12b
 1279 0362 08       		.byte	0x8
 1280 0363 09       		.uleb128 0x9
ARM GAS  C:\Users\jo\AppData\Local\Temp\cceRVRht.s 			page 24


 1281 0364 88080000 		.4byte	.LASF66
 1282 0368 08       		.byte	0x8
 1283 0369 6F01     		.2byte	0x16f
 1284 036b 06030000 		.4byte	0x306
 1285 036f 0C       		.byte	0xc
 1286 0370 09       		.uleb128 0x9
 1287 0371 9D070000 		.4byte	.LASF67
 1288 0375 08       		.byte	0x8
 1289 0376 7101     		.2byte	0x171
 1290 0378 22030000 		.4byte	0x322
 1291 037c 10       		.byte	0x10
 1292 037d 00       		.byte	0
 1293 037e 03       		.uleb128 0x3
 1294 037f 60030000 		.4byte	.LASF68
 1295 0383 07       		.byte	0x7
 1296 0384 66       		.byte	0x66
 1297 0385 89030000 		.4byte	0x389
 1298 0389 0B       		.uleb128 0xb
 1299 038a B2040000 		.4byte	.LASF69
 1300 038e 10       		.byte	0x10
 1301 038f 08       		.byte	0x8
 1302 0390 7B01     		.2byte	0x17b
 1303 0392 CB030000 		.4byte	0x3cb
 1304 0396 09       		.uleb128 0x9
 1305 0397 94020000 		.4byte	.LASF63
 1306 039b 08       		.byte	0x8
 1307 039c 7C01     		.2byte	0x17c
 1308 039e CA060000 		.4byte	0x6ca
 1309 03a2 00       		.byte	0
 1310 03a3 09       		.uleb128 0x9
 1311 03a4 4E020000 		.4byte	.LASF64
 1312 03a8 08       		.byte	0x8
 1313 03a9 7E01     		.2byte	0x17e
 1314 03ab CA060000 		.4byte	0x6ca
 1315 03af 04       		.byte	0x4
 1316 03b0 09       		.uleb128 0x9
 1317 03b1 9C060000 		.4byte	.LASF65
 1318 03b5 08       		.byte	0x8
 1319 03b6 8001     		.2byte	0x180
 1320 03b8 2B010000 		.4byte	0x12b
 1321 03bc 08       		.byte	0x8
 1322 03bd 09       		.uleb128 0x9
 1323 03be F1040000 		.4byte	.LASF70
 1324 03c2 08       		.byte	0x8
 1325 03c3 8801     		.2byte	0x188
 1326 03c5 2B010000 		.4byte	0x12b
 1327 03c9 0C       		.byte	0xc
 1328 03ca 00       		.byte	0
 1329 03cb 03       		.uleb128 0x3
 1330 03cc 4F000000 		.4byte	.LASF71
 1331 03d0 07       		.byte	0x7
 1332 03d1 6B       		.byte	0x6b
 1333 03d2 D6030000 		.4byte	0x3d6
 1334 03d6 0F       		.uleb128 0xf
 1335 03d7 B6050000 		.4byte	.LASF72
 1336 03db 1404     		.2byte	0x414
 1337 03dd 08       		.byte	0x8
ARM GAS  C:\Users\jo\AppData\Local\Temp\cceRVRht.s 			page 25


 1338 03de A201     		.2byte	0x1a2
 1339 03e0 19040000 		.4byte	0x419
 1340 03e4 09       		.uleb128 0x9
 1341 03e5 4F070000 		.4byte	.LASF73
 1342 03e9 08       		.byte	0x8
 1343 03ea AA01     		.2byte	0x1aa
 1344 03ec D0060000 		.4byte	0x6d0
 1345 03f0 00       		.byte	0
 1346 03f1 09       		.uleb128 0x9
 1347 03f2 CA070000 		.4byte	.LASF74
 1348 03f6 08       		.byte	0x8
 1349 03f7 AF01     		.2byte	0x1af
 1350 03f9 20010000 		.4byte	0x120
 1351 03fd 04       		.byte	0x4
 1352 03fe 09       		.uleb128 0x9
 1353 03ff 5E020000 		.4byte	.LASF75
 1354 0403 08       		.byte	0x8
 1355 0404 B301     		.2byte	0x1b3
 1356 0406 20010000 		.4byte	0x120
 1357 040a 08       		.byte	0x8
 1358 040b 09       		.uleb128 0x9
 1359 040c 5D080000 		.4byte	.LASF76
 1360 0410 08       		.byte	0x8
 1361 0411 B901     		.2byte	0x1b9
 1362 0413 C2050000 		.4byte	0x5c2
 1363 0417 0C       		.byte	0xc
 1364 0418 00       		.byte	0
 1365 0419 03       		.uleb128 0x3
 1366 041a 0B030000 		.4byte	.LASF77
 1367 041e 07       		.byte	0x7
 1368 041f 70       		.byte	0x70
 1369 0420 24040000 		.4byte	0x424
 1370 0424 0F       		.uleb128 0xf
 1371 0425 B3010000 		.4byte	.LASF78
 1372 0429 7005     		.2byte	0x570
 1373 042b 08       		.byte	0x8
 1374 042c C201     		.2byte	0x1c2
 1375 042e 83040000 		.4byte	0x483
 1376 0432 09       		.uleb128 0x9
 1377 0433 DA070000 		.4byte	.LASF79
 1378 0437 08       		.byte	0x8
 1379 0438 C601     		.2byte	0x1c6
 1380 043a 9F020000 		.4byte	0x29f
 1381 043e 00       		.byte	0
 1382 043f 09       		.uleb128 0x9
 1383 0440 A6010000 		.4byte	.LASF80
 1384 0444 08       		.byte	0x8
 1385 0445 CA01     		.2byte	0x1ca
 1386 0447 7E030000 		.4byte	0x37e
 1387 044b 1C       		.byte	0x1c
 1388 044c 08       		.uleb128 0x8
 1389 044d 64626700 		.ascii	"dbg\000"
 1390 0451 08       		.byte	0x8
 1391 0452 CE01     		.2byte	0x1ce
 1392 0454 CB030000 		.4byte	0x3cb
 1393 0458 2C       		.byte	0x2c
 1394 0459 10       		.uleb128 0x10
ARM GAS  C:\Users\jo\AppData\Local\Temp\cceRVRht.s 			page 26


 1395 045a FA020000 		.4byte	.LASF81
 1396 045e 08       		.byte	0x8
 1397 045f D201     		.2byte	0x1d2
 1398 0461 36010000 		.4byte	0x136
 1399 0465 4004     		.2byte	0x440
 1400 0467 11       		.uleb128 0x11
 1401 0468 746D00   		.ascii	"tm\000"
 1402 046b 08       		.byte	0x8
 1403 046c D701     		.2byte	0x1d7
 1404 046e E2050000 		.4byte	0x5e2
 1405 0472 8804     		.2byte	0x488
 1406 0474 10       		.uleb128 0x10
 1407 0475 67020000 		.4byte	.LASF82
 1408 0479 08       		.byte	0x8
 1409 047a E301     		.2byte	0x1e3
 1410 047c D5060000 		.4byte	0x6d5
 1411 0480 9004     		.2byte	0x490
 1412 0482 00       		.byte	0
 1413 0483 04       		.uleb128 0x4
 1414 0484 04       		.byte	0x4
 1415 0485 07       		.byte	0x7
 1416 0486 85040000 		.4byte	.LASF83
 1417 048a 03       		.uleb128 0x3
 1418 048b 45020000 		.4byte	.LASF84
 1419 048f 09       		.byte	0x9
 1420 0490 65       		.byte	0x65
 1421 0491 22030000 		.4byte	0x322
 1422 0495 03       		.uleb128 0x3
 1423 0496 50040000 		.4byte	.LASF85
 1424 049a 09       		.byte	0x9
 1425 049b 6D       		.byte	0x6d
 1426 049c C3000000 		.4byte	0xc3
 1427 04a0 06       		.uleb128 0x6
 1428 04a1 7C070000 		.4byte	.LASF86
 1429 04a5 04       		.byte	0x4
 1430 04a6 09       		.byte	0x9
 1431 04a7 89       		.byte	0x89
 1432 04a8 B9040000 		.4byte	0x4b9
 1433 04ac 12       		.uleb128 0x12
 1434 04ad 72313300 		.ascii	"r13\000"
 1435 04b1 09       		.byte	0x9
 1436 04b2 8A       		.byte	0x8a
 1437 04b3 34050000 		.4byte	0x534
 1438 04b7 00       		.byte	0
 1439 04b8 00       		.byte	0
 1440 04b9 06       		.uleb128 0x6
 1441 04ba 43000000 		.4byte	.LASF87
 1442 04be 24       		.byte	0x24
 1443 04bf 0A       		.byte	0xa
 1444 04c0 F4       		.byte	0xf4
 1445 04c1 34050000 		.4byte	0x534
 1446 04c5 08       		.uleb128 0x8
 1447 04c6 723400   		.ascii	"r4\000"
 1448 04c9 0A       		.byte	0xa
 1449 04ca 0701     		.2byte	0x107
 1450 04cc 8A040000 		.4byte	0x48a
 1451 04d0 00       		.byte	0
ARM GAS  C:\Users\jo\AppData\Local\Temp\cceRVRht.s 			page 27


 1452 04d1 08       		.uleb128 0x8
 1453 04d2 723500   		.ascii	"r5\000"
 1454 04d5 0A       		.byte	0xa
 1455 04d6 0801     		.2byte	0x108
 1456 04d8 8A040000 		.4byte	0x48a
 1457 04dc 04       		.byte	0x4
 1458 04dd 08       		.uleb128 0x8
 1459 04de 723600   		.ascii	"r6\000"
 1460 04e1 0A       		.byte	0xa
 1461 04e2 0901     		.2byte	0x109
 1462 04e4 8A040000 		.4byte	0x48a
 1463 04e8 08       		.byte	0x8
 1464 04e9 08       		.uleb128 0x8
 1465 04ea 723700   		.ascii	"r7\000"
 1466 04ed 0A       		.byte	0xa
 1467 04ee 0A01     		.2byte	0x10a
 1468 04f0 8A040000 		.4byte	0x48a
 1469 04f4 0C       		.byte	0xc
 1470 04f5 08       		.uleb128 0x8
 1471 04f6 723800   		.ascii	"r8\000"
 1472 04f9 0A       		.byte	0xa
 1473 04fa 0B01     		.2byte	0x10b
 1474 04fc 8A040000 		.4byte	0x48a
 1475 0500 10       		.byte	0x10
 1476 0501 08       		.uleb128 0x8
 1477 0502 723900   		.ascii	"r9\000"
 1478 0505 0A       		.byte	0xa
 1479 0506 0C01     		.2byte	0x10c
 1480 0508 8A040000 		.4byte	0x48a
 1481 050c 14       		.byte	0x14
 1482 050d 08       		.uleb128 0x8
 1483 050e 72313000 		.ascii	"r10\000"
 1484 0512 0A       		.byte	0xa
 1485 0513 0D01     		.2byte	0x10d
 1486 0515 8A040000 		.4byte	0x48a
 1487 0519 18       		.byte	0x18
 1488 051a 08       		.uleb128 0x8
 1489 051b 72313100 		.ascii	"r11\000"
 1490 051f 0A       		.byte	0xa
 1491 0520 0E01     		.2byte	0x10e
 1492 0522 8A040000 		.4byte	0x48a
 1493 0526 1C       		.byte	0x1c
 1494 0527 08       		.uleb128 0x8
 1495 0528 6C7200   		.ascii	"lr\000"
 1496 052b 0A       		.byte	0xa
 1497 052c 0F01     		.2byte	0x10f
 1498 052e 8A040000 		.4byte	0x48a
 1499 0532 20       		.byte	0x20
 1500 0533 00       		.byte	0
 1501 0534 0A       		.uleb128 0xa
 1502 0535 04       		.byte	0x4
 1503 0536 B9040000 		.4byte	0x4b9
 1504 053a 13       		.uleb128 0x13
 1505 053b 10       		.byte	0x10
 1506 053c 0B       		.byte	0xb
 1507 053d 51       		.byte	0x51
 1508 053e 73050000 		.4byte	0x573
ARM GAS  C:\Users\jo\AppData\Local\Temp\cceRVRht.s 			page 28


 1509 0542 07       		.uleb128 0x7
 1510 0543 15000000 		.4byte	.LASF88
 1511 0547 0B       		.byte	0xb
 1512 0548 55       		.byte	0x55
 1513 0549 2B010000 		.4byte	0x12b
 1514 054d 00       		.byte	0
 1515 054e 07       		.uleb128 0x7
 1516 054f F1010000 		.4byte	.LASF89
 1517 0553 0B       		.byte	0xb
 1518 0554 59       		.byte	0x59
 1519 0555 45020000 		.4byte	0x245
 1520 0559 04       		.byte	0x4
 1521 055a 07       		.uleb128 0x7
 1522 055b 78080000 		.4byte	.LASF90
 1523 055f 0B       		.byte	0xb
 1524 0560 5D       		.byte	0x5d
 1525 0561 22030000 		.4byte	0x322
 1526 0565 08       		.byte	0x8
 1527 0566 07       		.uleb128 0x7
 1528 0567 E2000000 		.4byte	.LASF91
 1529 056b 0B       		.byte	0xb
 1530 056c 61       		.byte	0x61
 1531 056d A2000000 		.4byte	0xa2
 1532 0571 0C       		.byte	0xc
 1533 0572 00       		.byte	0
 1534 0573 03       		.uleb128 0x3
 1535 0574 E2040000 		.4byte	.LASF92
 1536 0578 0B       		.byte	0xb
 1537 0579 62       		.byte	0x62
 1538 057a 3A050000 		.4byte	0x53a
 1539 057e 14       		.uleb128 0x14
 1540 057f 0804     		.2byte	0x408
 1541 0581 0B       		.byte	0xb
 1542 0582 67       		.byte	0x67
 1543 0583 AC050000 		.4byte	0x5ac
 1544 0587 07       		.uleb128 0x7
 1545 0588 35020000 		.4byte	.LASF93
 1546 058c 0B       		.byte	0xb
 1547 058d 6B       		.byte	0x6b
 1548 058e 37000000 		.4byte	0x37
 1549 0592 00       		.byte	0
 1550 0593 07       		.uleb128 0x7
 1551 0594 DB040000 		.4byte	.LASF94
 1552 0598 0B       		.byte	0xb
 1553 0599 6F       		.byte	0x6f
 1554 059a AC050000 		.4byte	0x5ac
 1555 059e 04       		.byte	0x4
 1556 059f 07       		.uleb128 0x7
 1557 05a0 7E050000 		.4byte	.LASF95
 1558 05a4 0B       		.byte	0xb
 1559 05a5 73       		.byte	0x73
 1560 05a6 B2050000 		.4byte	0x5b2
 1561 05aa 08       		.byte	0x8
 1562 05ab 00       		.byte	0
 1563 05ac 0A       		.uleb128 0xa
 1564 05ad 04       		.byte	0x4
 1565 05ae 73050000 		.4byte	0x573
ARM GAS  C:\Users\jo\AppData\Local\Temp\cceRVRht.s 			page 29


 1566 05b2 15       		.uleb128 0x15
 1567 05b3 73050000 		.4byte	0x573
 1568 05b7 C2050000 		.4byte	0x5c2
 1569 05bb 16       		.uleb128 0x16
 1570 05bc 83040000 		.4byte	0x483
 1571 05c0 3F       		.byte	0x3f
 1572 05c1 00       		.byte	0
 1573 05c2 03       		.uleb128 0x3
 1574 05c3 D0000000 		.4byte	.LASF96
 1575 05c7 0B       		.byte	0xb
 1576 05c8 74       		.byte	0x74
 1577 05c9 7E050000 		.4byte	0x57e
 1578 05cd 13       		.uleb128 0x13
 1579 05ce 04       		.byte	0x4
 1580 05cf 0C       		.byte	0xc
 1581 05d0 38       		.byte	0x38
 1582 05d1 E2050000 		.4byte	0x5e2
 1583 05d5 07       		.uleb128 0x7
 1584 05d6 64070000 		.4byte	.LASF97
 1585 05da 0C       		.byte	0xc
 1586 05db 3C       		.byte	0x3c
 1587 05dc D3000000 		.4byte	0xd3
 1588 05e0 00       		.byte	0
 1589 05e1 00       		.byte	0
 1590 05e2 03       		.uleb128 0x3
 1591 05e3 A1040000 		.4byte	.LASF98
 1592 05e7 0C       		.byte	0xc
 1593 05e8 3D       		.byte	0x3d
 1594 05e9 CD050000 		.4byte	0x5cd
 1595 05ed 17       		.uleb128 0x17
 1596 05ee 04       		.byte	0x4
 1597 05ef 08       		.byte	0x8
 1598 05f0 FA       		.byte	0xfa
 1599 05f1 4A060000 		.4byte	0x64a
 1600 05f5 18       		.uleb128 0x18
 1601 05f6 29000000 		.4byte	.LASF99
 1602 05fa 08       		.byte	0x8
 1603 05fb 0101     		.2byte	0x101
 1604 05fd 0A010000 		.4byte	0x10a
 1605 0601 18       		.uleb128 0x18
 1606 0602 EB000000 		.4byte	.LASF100
 1607 0606 08       		.byte	0x8
 1608 0607 0801     		.2byte	0x108
 1609 0609 0A010000 		.4byte	0x10a
 1610 060d 18       		.uleb128 0x18
 1611 060e 18080000 		.4byte	.LASF101
 1612 0612 08       		.byte	0x8
 1613 0613 0F01     		.2byte	0x10f
 1614 0615 22030000 		.4byte	0x322
 1615 0619 18       		.uleb128 0x18
 1616 061a AD010000 		.4byte	.LASF102
 1617 061e 08       		.byte	0x8
 1618 061f 1601     		.2byte	0x116
 1619 0621 4A060000 		.4byte	0x64a
 1620 0625 18       		.uleb128 0x18
 1621 0626 9C020000 		.4byte	.LASF103
 1622 062a 08       		.byte	0x8
ARM GAS  C:\Users\jo\AppData\Local\Temp\cceRVRht.s 			page 30


 1623 062b 1E01     		.2byte	0x11e
 1624 062d 75060000 		.4byte	0x675
 1625 0631 18       		.uleb128 0x18
 1626 0632 8D060000 		.4byte	.LASF104
 1627 0636 08       		.byte	0x8
 1628 0637 2701     		.2byte	0x127
 1629 0639 AC060000 		.4byte	0x6ac
 1630 063d 18       		.uleb128 0x18
 1631 063e 19060000 		.4byte	.LASF105
 1632 0642 08       		.byte	0x8
 1633 0643 2F01     		.2byte	0x12f
 1634 0645 15010000 		.4byte	0x115
 1635 0649 00       		.byte	0
 1636 064a 0A       		.uleb128 0xa
 1637 064b 04       		.byte	0x4
 1638 064c 3A020000 		.4byte	0x23a
 1639 0650 06       		.uleb128 0x6
 1640 0651 61060000 		.4byte	.LASF106
 1641 0655 0C       		.byte	0xc
 1642 0656 0D       		.byte	0xd
 1643 0657 34       		.byte	0x34
 1644 0658 75060000 		.4byte	0x675
 1645 065c 07       		.uleb128 0x7
 1646 065d 13020000 		.4byte	.LASF107
 1647 0661 0D       		.byte	0xd
 1648 0662 35       		.byte	0x35
 1649 0663 6F020000 		.4byte	0x26f
 1650 0667 00       		.byte	0
 1651 0668 07       		.uleb128 0x7
 1652 0669 CA020000 		.4byte	.LASF108
 1653 066d 0D       		.byte	0xd
 1654 066e 37       		.byte	0x37
 1655 066f 20010000 		.4byte	0x120
 1656 0673 08       		.byte	0x8
 1657 0674 00       		.byte	0
 1658 0675 0A       		.uleb128 0xa
 1659 0676 04       		.byte	0x4
 1660 0677 50060000 		.4byte	0x650
 1661 067b 06       		.uleb128 0x6
 1662 067c 6B070000 		.4byte	.LASF109
 1663 0680 10       		.byte	0x10
 1664 0681 0E       		.byte	0xe
 1665 0682 39       		.byte	0x39
 1666 0683 AC060000 		.4byte	0x6ac
 1667 0687 07       		.uleb128 0x7
 1668 0688 83010000 		.4byte	.LASF110
 1669 068c 0E       		.byte	0xe
 1670 068d 3A       		.byte	0x3a
 1671 068e 6F020000 		.4byte	0x26f
 1672 0692 00       		.byte	0
 1673 0693 07       		.uleb128 0x7
 1674 0694 70080000 		.4byte	.LASF111
 1675 0698 0E       		.byte	0xe
 1676 0699 3C       		.byte	0x3c
 1677 069a 45020000 		.4byte	0x245
 1678 069e 08       		.byte	0x8
 1679 069f 07       		.uleb128 0x7
ARM GAS  C:\Users\jo\AppData\Local\Temp\cceRVRht.s 			page 31


 1680 06a0 1F070000 		.4byte	.LASF112
 1681 06a4 0E       		.byte	0xe
 1682 06a5 3E       		.byte	0x3e
 1683 06a6 FB060000 		.4byte	0x6fb
 1684 06aa 0C       		.byte	0xc
 1685 06ab 00       		.byte	0
 1686 06ac 0A       		.uleb128 0xa
 1687 06ad 04       		.byte	0x4
 1688 06ae 7B060000 		.4byte	0x67b
 1689 06b2 0A       		.uleb128 0xa
 1690 06b3 04       		.byte	0x4
 1691 06b4 B8060000 		.4byte	0x6b8
 1692 06b8 19       		.uleb128 0x19
 1693 06b9 BD060000 		.4byte	0x6bd
 1694 06bd 04       		.uleb128 0x4
 1695 06be 01       		.byte	0x1
 1696 06bf 08       		.byte	0x8
 1697 06c0 D7060000 		.4byte	.LASF113
 1698 06c4 0A       		.uleb128 0xa
 1699 06c5 04       		.byte	0x4
 1700 06c6 95040000 		.4byte	0x495
 1701 06ca 0A       		.uleb128 0xa
 1702 06cb 04       		.byte	0x4
 1703 06cc 24030000 		.4byte	0x324
 1704 06d0 05       		.uleb128 0x5
 1705 06d1 B2060000 		.4byte	0x6b2
 1706 06d5 15       		.uleb128 0x15
 1707 06d6 95040000 		.4byte	0x495
 1708 06da E5060000 		.4byte	0x6e5
 1709 06de 16       		.uleb128 0x16
 1710 06df 83040000 		.4byte	0x483
 1711 06e3 1B       		.byte	0x1b
 1712 06e4 00       		.byte	0
 1713 06e5 03       		.uleb128 0x3
 1714 06e6 00000000 		.4byte	.LASF114
 1715 06ea 02       		.byte	0x2
 1716 06eb 34       		.byte	0x34
 1717 06ec 11030000 		.4byte	0x311
 1718 06f0 03       		.uleb128 0x3
 1719 06f1 56020000 		.4byte	.LASF115
 1720 06f5 0E       		.byte	0xe
 1721 06f6 34       		.byte	0x34
 1722 06f7 7B060000 		.4byte	0x67b
 1723 06fb 0A       		.uleb128 0xa
 1724 06fc 04       		.byte	0x4
 1725 06fd F0060000 		.4byte	0x6f0
 1726 0701 03       		.uleb128 0x3
 1727 0702 AC000000 		.4byte	.LASF116
 1728 0706 0F       		.byte	0xf
 1729 0707 36       		.byte	0x36
 1730 0708 0C070000 		.4byte	0x70c
 1731 070c 0A       		.uleb128 0xa
 1732 070d 04       		.byte	0x4
 1733 070e 12070000 		.4byte	0x712
 1734 0712 1A       		.uleb128 0x1a
 1735 0713 22030000 		.4byte	0x322
 1736 0717 21070000 		.4byte	0x721
ARM GAS  C:\Users\jo\AppData\Local\Temp\cceRVRht.s 			page 32


 1737 071b 0D       		.uleb128 0xd
 1738 071c 2C000000 		.4byte	0x2c
 1739 0720 00       		.byte	0
 1740 0721 03       		.uleb128 0x3
 1741 0722 E3010000 		.4byte	.LASF117
 1742 0726 10       		.byte	0x10
 1743 0727 3C       		.byte	0x3c
 1744 0728 2C070000 		.4byte	0x72c
 1745 072c 06       		.uleb128 0x6
 1746 072d 96080000 		.4byte	.LASF118
 1747 0731 20       		.byte	0x20
 1748 0732 10       		.byte	0x10
 1749 0733 4F       		.byte	0x4f
 1750 0734 5D070000 		.4byte	0x75d
 1751 0738 07       		.uleb128 0x7
 1752 0739 0D080000 		.4byte	.LASF119
 1753 073d 10       		.byte	0x10
 1754 073e 50       		.byte	0x50
 1755 073f 01070000 		.4byte	0x701
 1756 0743 00       		.byte	0
 1757 0744 07       		.uleb128 0x7
 1758 0745 F4000000 		.4byte	.LASF120
 1759 0749 10       		.byte	0x10
 1760 074a 52       		.byte	0x52
 1761 074b 7C070000 		.4byte	0x77c
 1762 074f 08       		.byte	0x8
 1763 0750 07       		.uleb128 0x7
 1764 0751 69010000 		.4byte	.LASF121
 1765 0755 10       		.byte	0x10
 1766 0756 54       		.byte	0x54
 1767 0757 F0060000 		.4byte	0x6f0
 1768 075b 10       		.byte	0x10
 1769 075c 00       		.byte	0
 1770 075d 17       		.uleb128 0x17
 1771 075e 04       		.byte	0x4
 1772 075f 10       		.byte	0x10
 1773 0760 44       		.byte	0x44
 1774 0761 7C070000 		.4byte	0x77c
 1775 0765 1B       		.uleb128 0x1b
 1776 0766 24000000 		.4byte	.LASF122
 1777 076a 10       		.byte	0x10
 1778 076b 45       		.byte	0x45
 1779 076c 9D070000 		.4byte	0x79d
 1780 0770 1B       		.uleb128 0x1b
 1781 0771 B5060000 		.4byte	.LASF123
 1782 0775 10       		.byte	0x10
 1783 0776 46       		.byte	0x46
 1784 0777 A3070000 		.4byte	0x7a3
 1785 077b 00       		.byte	0
 1786 077c 1C       		.uleb128 0x1c
 1787 077d E2050000 		.4byte	.LASF137
 1788 0781 08       		.byte	0x8
 1789 0782 10       		.byte	0x10
 1790 0783 41       		.byte	0x41
 1791 0784 9D070000 		.4byte	0x79d
 1792 0788 1B       		.uleb128 0x1b
 1793 0789 1E010000 		.4byte	.LASF124
ARM GAS  C:\Users\jo\AppData\Local\Temp\cceRVRht.s 			page 33


 1794 078d 10       		.byte	0x10
 1795 078e 42       		.byte	0x42
 1796 078f 95040000 		.4byte	0x495
 1797 0793 1D       		.uleb128 0x1d
 1798 0794 6800     		.ascii	"h\000"
 1799 0796 10       		.byte	0x10
 1800 0797 49       		.byte	0x49
 1801 0798 A9070000 		.4byte	0x7a9
 1802 079c 00       		.byte	0
 1803 079d 0A       		.uleb128 0xa
 1804 079e 04       		.byte	0x4
 1805 079f 7C070000 		.4byte	0x77c
 1806 07a3 0A       		.uleb128 0xa
 1807 07a4 04       		.byte	0x4
 1808 07a5 21070000 		.4byte	0x721
 1809 07a9 13       		.uleb128 0x13
 1810 07aa 08       		.byte	0x8
 1811 07ab 10       		.byte	0x10
 1812 07ac 43       		.byte	0x43
 1813 07ad C8070000 		.4byte	0x7c8
 1814 07b1 12       		.uleb128 0x12
 1815 07b2 7500     		.ascii	"u\000"
 1816 07b4 10       		.byte	0x10
 1817 07b5 47       		.byte	0x47
 1818 07b6 5D070000 		.4byte	0x75d
 1819 07ba 00       		.byte	0
 1820 07bb 07       		.uleb128 0x7
 1821 07bc 26080000 		.4byte	.LASF125
 1822 07c0 10       		.byte	0x10
 1823 07c1 48       		.byte	0x48
 1824 07c2 2C000000 		.4byte	0x2c
 1825 07c6 04       		.byte	0x4
 1826 07c7 00       		.byte	0
 1827 07c8 06       		.uleb128 0x6
 1828 07c9 B7070000 		.4byte	.LASF126
 1829 07cd 04       		.byte	0x4
 1830 07ce 11       		.byte	0x11
 1831 07cf 38       		.byte	0x38
 1832 07d0 E1070000 		.4byte	0x7e1
 1833 07d4 07       		.uleb128 0x7
 1834 07d5 76050000 		.4byte	.LASF127
 1835 07d9 11       		.byte	0x11
 1836 07da 39       		.byte	0x39
 1837 07db E1070000 		.4byte	0x7e1
 1838 07df 00       		.byte	0
 1839 07e0 00       		.byte	0
 1840 07e1 0A       		.uleb128 0xa
 1841 07e2 04       		.byte	0x4
 1842 07e3 C8070000 		.4byte	0x7c8
 1843 07e7 13       		.uleb128 0x13
 1844 07e8 0C       		.byte	0xc
 1845 07e9 11       		.byte	0x11
 1846 07ea 40       		.byte	0x40
 1847 07eb 14080000 		.4byte	0x814
 1848 07ef 07       		.uleb128 0x7
 1849 07f0 74070000 		.4byte	.LASF128
 1850 07f4 11       		.byte	0x11
ARM GAS  C:\Users\jo\AppData\Local\Temp\cceRVRht.s 			page 34


 1851 07f5 41       		.byte	0x41
 1852 07f6 E1070000 		.4byte	0x7e1
 1853 07fa 00       		.byte	0
 1854 07fb 07       		.uleb128 0x7
 1855 07fc 21050000 		.4byte	.LASF129
 1856 0800 11       		.byte	0x11
 1857 0801 42       		.byte	0x42
 1858 0802 2C000000 		.4byte	0x2c
 1859 0806 04       		.byte	0x4
 1860 0807 07       		.uleb128 0x7
 1861 0808 6F010000 		.4byte	.LASF130
 1862 080c 11       		.byte	0x11
 1863 080d 44       		.byte	0x44
 1864 080e 01070000 		.4byte	0x701
 1865 0812 08       		.byte	0x8
 1866 0813 00       		.byte	0
 1867 0814 03       		.uleb128 0x3
 1868 0815 B7020000 		.4byte	.LASF131
 1869 0819 11       		.byte	0x11
 1870 081a 46       		.byte	0x46
 1871 081b E7070000 		.4byte	0x7e7
 1872 081f 06       		.uleb128 0x6
 1873 0820 58060000 		.4byte	.LASF132
 1874 0824 10       		.byte	0x10
 1875 0825 12       		.byte	0x12
 1876 0826 3B       		.byte	0x3b
 1877 0827 5C080000 		.4byte	0x85c
 1878 082b 07       		.uleb128 0x7
 1879 082c C5020000 		.4byte	.LASF133
 1880 0830 12       		.byte	0x12
 1881 0831 3C       		.byte	0x3c
 1882 0832 B2060000 		.4byte	0x6b2
 1883 0836 00       		.byte	0
 1884 0837 07       		.uleb128 0x7
 1885 0838 42050000 		.4byte	.LASF134
 1886 083c 12       		.byte	0x12
 1887 083d 3D       		.byte	0x3d
 1888 083e 5D080000 		.4byte	0x85d
 1889 0842 04       		.byte	0x4
 1890 0843 07       		.uleb128 0x7
 1891 0844 AE020000 		.4byte	.LASF135
 1892 0848 12       		.byte	0x12
 1893 0849 3E       		.byte	0x3e
 1894 084a 5D080000 		.4byte	0x85d
 1895 084e 08       		.byte	0x8
 1896 084f 07       		.uleb128 0x7
 1897 0850 9F050000 		.4byte	.LASF136
 1898 0854 12       		.byte	0x12
 1899 0855 3F       		.byte	0x3f
 1900 0856 5D080000 		.4byte	0x85d
 1901 085a 0C       		.byte	0xc
 1902 085b 00       		.byte	0
 1903 085c 1E       		.uleb128 0x1e
 1904 085d 0A       		.uleb128 0xa
 1905 085e 04       		.byte	0x4
 1906 085f 5C080000 		.4byte	0x85c
 1907 0863 14       		.uleb128 0x14
ARM GAS  C:\Users\jo\AppData\Local\Temp\cceRVRht.s 			page 35


 1908 0864 9006     		.2byte	0x690
 1909 0866 12       		.byte	0x12
 1910 0867 44       		.byte	0x44
 1911 0868 A8080000 		.4byte	0x8a8
 1912 086c 12       		.uleb128 0x12
 1913 086d 543000   		.ascii	"T0\000"
 1914 0870 12       		.byte	0x12
 1915 0871 45       		.byte	0x45
 1916 0872 A8080000 		.4byte	0x8a8
 1917 0876 00       		.byte	0
 1918 0877 1F       		.uleb128 0x1f
 1919 0878 543100   		.ascii	"T1\000"
 1920 087b 12       		.byte	0x12
 1921 087c 46       		.byte	0x46
 1922 087d A8080000 		.4byte	0x8a8
 1923 0881 5001     		.2byte	0x150
 1924 0883 1F       		.uleb128 0x1f
 1925 0884 543200   		.ascii	"T2\000"
 1926 0887 12       		.byte	0x12
 1927 0888 47       		.byte	0x47
 1928 0889 A8080000 		.4byte	0x8a8
 1929 088d A002     		.2byte	0x2a0
 1930 088f 1F       		.uleb128 0x1f
 1931 0890 543300   		.ascii	"T3\000"
 1932 0893 12       		.byte	0x12
 1933 0894 48       		.byte	0x48
 1934 0895 A8080000 		.4byte	0x8a8
 1935 0899 F003     		.2byte	0x3f0
 1936 089b 1F       		.uleb128 0x1f
 1937 089c 543400   		.ascii	"T4\000"
 1938 089f 12       		.byte	0x12
 1939 08a0 49       		.byte	0x49
 1940 08a1 A8080000 		.4byte	0x8a8
 1941 08a5 4005     		.2byte	0x540
 1942 08a7 00       		.byte	0
 1943 08a8 15       		.uleb128 0x15
 1944 08a9 95040000 		.4byte	0x495
 1945 08ad B8080000 		.4byte	0x8b8
 1946 08b1 16       		.uleb128 0x16
 1947 08b2 83040000 		.4byte	0x483
 1948 08b6 29       		.byte	0x29
 1949 08b7 00       		.byte	0
 1950 08b8 20       		.uleb128 0x20
 1951 08b9 AA070000 		.4byte	.LASF138
 1952 08bd 9006     		.2byte	0x690
 1953 08bf 12       		.byte	0x12
 1954 08c0 43       		.byte	0x43
 1955 08c1 DB080000 		.4byte	0x8db
 1956 08c5 1D       		.uleb128 0x1d
 1957 08c6 776100   		.ascii	"wa\000"
 1958 08c9 12       		.byte	0x12
 1959 08ca 4A       		.byte	0x4a
 1960 08cb 63080000 		.4byte	0x863
 1961 08cf 1B       		.uleb128 0x1b
 1962 08d0 04020000 		.4byte	.LASF139
 1963 08d4 12       		.byte	0x12
 1964 08d5 4B       		.byte	0x4b
ARM GAS  C:\Users\jo\AppData\Local\Temp\cceRVRht.s 			page 36


 1965 08d6 DB080000 		.4byte	0x8db
 1966 08da 00       		.byte	0
 1967 08db 15       		.uleb128 0x15
 1968 08dc A2000000 		.4byte	0xa2
 1969 08e0 EC080000 		.4byte	0x8ec
 1970 08e4 21       		.uleb128 0x21
 1971 08e5 83040000 		.4byte	0x483
 1972 08e9 8F06     		.2byte	0x68f
 1973 08eb 00       		.byte	0
 1974 08ec 22       		.uleb128 0x22
 1975 08ed E0070000 		.4byte	.LASF140
 1976 08f1 02       		.byte	0x2
 1977 08f2 AE       		.byte	0xae
 1978 08f3 45020000 		.4byte	0x245
 1979 08f7 03       		.byte	0x3
 1980 08f8 22       		.uleb128 0x22
 1981 08f9 30050000 		.4byte	.LASF141
 1982 08fd 02       		.byte	0x2
 1983 08fe BB       		.byte	0xbb
 1984 08ff FF000000 		.4byte	0xff
 1985 0903 03       		.byte	0x3
 1986 0904 23       		.uleb128 0x23
 1987 0905 F7010000 		.4byte	.LASF142
 1988 0909 01       		.byte	0x1
 1989 090a 52       		.byte	0x52
 1990 090b 00000000 		.4byte	.LFB230
 1991 090f F4000000 		.4byte	.LFE230-.LFB230
 1992 0913 01       		.uleb128 0x1
 1993 0914 9C       		.byte	0x9c
 1994 0915 F00A0000 		.4byte	0xaf0
 1995 0919 24       		.uleb128 0x24
 1996 091a 6E00     		.ascii	"n\000"
 1997 091c 01       		.byte	0x1
 1998 091d 53       		.byte	0x53
 1999 091e 2C000000 		.4byte	0x2c
 2000 0922 02       		.uleb128 0x2
 2001 0923 91       		.byte	0x91
 2002 0924 68       		.sleb128 -24
 2003 0925 24       		.uleb128 0x24
 2004 0926 737A00   		.ascii	"sz\000"
 2005 0929 01       		.byte	0x1
 2006 092a 53       		.byte	0x53
 2007 092b 2C000000 		.4byte	0x2c
 2008 092f 02       		.uleb128 0x2
 2009 0930 91       		.byte	0x91
 2010 0931 6C       		.sleb128 -20
 2011 0932 25       		.uleb128 0x25
 2012 0933 703100   		.ascii	"p1\000"
 2013 0936 01       		.byte	0x1
 2014 0937 54       		.byte	0x54
 2015 0938 22030000 		.4byte	0x322
 2016 093c 00000000 		.4byte	.LLST0
 2017 0940 26       		.uleb128 0x26
 2018 0941 5E050000 		.4byte	.LASF147
 2019 0945 01       		.byte	0x1
 2020 0946 55       		.byte	0x55
 2021 0947 FF000000 		.4byte	0xff
ARM GAS  C:\Users\jo\AppData\Local\Temp\cceRVRht.s 			page 37


 2022 094b 27       		.uleb128 0x27
 2023 094c F8080000 		.4byte	0x8f8
 2024 0950 02000000 		.4byte	.LBB16
 2025 0954 00000000 		.4byte	.Ldebug_ranges0+0
 2026 0958 01       		.byte	0x1
 2027 0959 55       		.byte	0x55
 2028 095a 6E090000 		.4byte	0x96e
 2029 095e 28       		.uleb128 0x28
 2030 095f EC080000 		.4byte	0x8ec
 2031 0963 02000000 		.4byte	.LBB18
 2032 0967 02000000 		.4byte	.LBE18-.LBB18
 2033 096b 02       		.byte	0x2
 2034 096c BD       		.byte	0xbd
 2035 096d 00       		.byte	0
 2036 096e 29       		.uleb128 0x29
 2037 096f 14000000 		.4byte	.LVL0
 2038 0973 F4100000 		.4byte	0x10f4
 2039 0977 8B090000 		.4byte	0x98b
 2040 097b 2A       		.uleb128 0x2a
 2041 097c 01       		.uleb128 0x1
 2042 097d 51       		.byte	0x51
 2043 097e 02       		.uleb128 0x2
 2044 097f 91       		.byte	0x91
 2045 0980 6C       		.sleb128 -20
 2046 0981 2A       		.uleb128 0x2a
 2047 0982 01       		.uleb128 0x1
 2048 0983 50       		.byte	0x50
 2049 0984 05       		.uleb128 0x5
 2050 0985 03       		.byte	0x3
 2051 0986 00000000 		.4byte	.LANCHOR0
 2052 098a 00       		.byte	0
 2053 098b 29       		.uleb128 0x29
 2054 098c 26000000 		.4byte	.LVL1
 2055 0990 14110000 		.4byte	0x1114
 2056 0994 C2090000 		.4byte	0x9c2
 2057 0998 2A       		.uleb128 0x2a
 2058 0999 01       		.uleb128 0x1
 2059 099a 53       		.byte	0x53
 2060 099b 05       		.uleb128 0x5
 2061 099c 03       		.byte	0x3
 2062 099d 00000000 		.4byte	thread
 2063 09a1 2A       		.uleb128 0x2a
 2064 09a2 01       		.uleb128 0x1
 2065 09a3 52       		.byte	0x52
 2066 09a4 02       		.uleb128 0x2
 2067 09a5 75       		.byte	0x75
 2068 09a6 7F       		.sleb128 -1
 2069 09a7 2A       		.uleb128 0x2a
 2070 09a8 01       		.uleb128 0x1
 2071 09a9 51       		.byte	0x51
 2072 09aa 03       		.uleb128 0x3
 2073 09ab 0A       		.byte	0xa
 2074 09ac 5001     		.2byte	0x150
 2075 09ae 2A       		.uleb128 0x2a
 2076 09af 01       		.uleb128 0x1
 2077 09b0 50       		.byte	0x50
 2078 09b1 05       		.uleb128 0x5
ARM GAS  C:\Users\jo\AppData\Local\Temp\cceRVRht.s 			page 38


 2079 09b2 03       		.byte	0x3
 2080 09b3 00000000 		.4byte	.LANCHOR0
 2081 09b7 2A       		.uleb128 0x2a
 2082 09b8 02       		.uleb128 0x2
 2083 09b9 7D       		.byte	0x7d
 2084 09ba 00       		.sleb128 0
 2085 09bb 05       		.uleb128 0x5
 2086 09bc 03       		.byte	0x3
 2087 09bd 00000000 		.4byte	.LC0
 2088 09c1 00       		.byte	0
 2089 09c2 29       		.uleb128 0x29
 2090 09c3 3A000000 		.4byte	.LVL2
 2091 09c7 14110000 		.4byte	0x1114
 2092 09cb F9090000 		.4byte	0x9f9
 2093 09cf 2A       		.uleb128 0x2a
 2094 09d0 01       		.uleb128 0x1
 2095 09d1 53       		.byte	0x53
 2096 09d2 05       		.uleb128 0x5
 2097 09d3 03       		.byte	0x3
 2098 09d4 00000000 		.4byte	thread
 2099 09d8 2A       		.uleb128 0x2a
 2100 09d9 01       		.uleb128 0x1
 2101 09da 52       		.byte	0x52
 2102 09db 02       		.uleb128 0x2
 2103 09dc 75       		.byte	0x75
 2104 09dd 7E       		.sleb128 -2
 2105 09de 2A       		.uleb128 0x2a
 2106 09df 01       		.uleb128 0x1
 2107 09e0 51       		.byte	0x51
 2108 09e1 03       		.uleb128 0x3
 2109 09e2 0A       		.byte	0xa
 2110 09e3 5001     		.2byte	0x150
 2111 09e5 2A       		.uleb128 0x2a
 2112 09e6 01       		.uleb128 0x1
 2113 09e7 50       		.byte	0x50
 2114 09e8 05       		.uleb128 0x5
 2115 09e9 03       		.byte	0x3
 2116 09ea 00000000 		.4byte	.LANCHOR0
 2117 09ee 2A       		.uleb128 0x2a
 2118 09ef 02       		.uleb128 0x2
 2119 09f0 7D       		.byte	0x7d
 2120 09f1 00       		.sleb128 0
 2121 09f2 05       		.uleb128 0x5
 2122 09f3 03       		.byte	0x3
 2123 09f4 04000000 		.4byte	.LC1
 2124 09f8 00       		.byte	0
 2125 09f9 29       		.uleb128 0x29
 2126 09fa 44000000 		.4byte	.LVL3
 2127 09fe F4100000 		.4byte	0x10f4
 2128 0a02 160A0000 		.4byte	0xa16
 2129 0a06 2A       		.uleb128 0x2a
 2130 0a07 01       		.uleb128 0x1
 2131 0a08 51       		.byte	0x51
 2132 0a09 02       		.uleb128 0x2
 2133 0a0a 91       		.byte	0x91
 2134 0a0b 68       		.sleb128 -24
 2135 0a0c 2A       		.uleb128 0x2a
ARM GAS  C:\Users\jo\AppData\Local\Temp\cceRVRht.s 			page 39


 2136 0a0d 01       		.uleb128 0x1
 2137 0a0e 50       		.byte	0x50
 2138 0a0f 05       		.uleb128 0x5
 2139 0a10 03       		.byte	0x3
 2140 0a11 00000000 		.4byte	.LANCHOR0
 2141 0a15 00       		.byte	0
 2142 0a16 29       		.uleb128 0x29
 2143 0a17 4C000000 		.4byte	.LVL4
 2144 0a1b 3D110000 		.4byte	0x113d
 2145 0a1f 2D0A0000 		.4byte	0xa2d
 2146 0a23 2A       		.uleb128 0x2a
 2147 0a24 01       		.uleb128 0x1
 2148 0a25 50       		.byte	0x50
 2149 0a26 05       		.uleb128 0x5
 2150 0a27 03       		.byte	0x3
 2151 0a28 00000000 		.4byte	.LANCHOR0
 2152 0a2c 00       		.byte	0
 2153 0a2d 29       		.uleb128 0x29
 2154 0a2e 60000000 		.4byte	.LVL7
 2155 0a32 14110000 		.4byte	0x1114
 2156 0a36 640A0000 		.4byte	0xa64
 2157 0a3a 2A       		.uleb128 0x2a
 2158 0a3b 01       		.uleb128 0x1
 2159 0a3c 53       		.byte	0x53
 2160 0a3d 05       		.uleb128 0x5
 2161 0a3e 03       		.byte	0x3
 2162 0a3f 00000000 		.4byte	thread
 2163 0a43 2A       		.uleb128 0x2a
 2164 0a44 01       		.uleb128 0x1
 2165 0a45 52       		.byte	0x52
 2166 0a46 02       		.uleb128 0x2
 2167 0a47 75       		.byte	0x75
 2168 0a48 7D       		.sleb128 -3
 2169 0a49 2A       		.uleb128 0x2a
 2170 0a4a 01       		.uleb128 0x1
 2171 0a4b 51       		.byte	0x51
 2172 0a4c 03       		.uleb128 0x3
 2173 0a4d 0A       		.byte	0xa
 2174 0a4e 5001     		.2byte	0x150
 2175 0a50 2A       		.uleb128 0x2a
 2176 0a51 01       		.uleb128 0x1
 2177 0a52 50       		.byte	0x50
 2178 0a53 05       		.uleb128 0x5
 2179 0a54 03       		.byte	0x3
 2180 0a55 00000000 		.4byte	.LANCHOR0
 2181 0a59 2A       		.uleb128 0x2a
 2182 0a5a 02       		.uleb128 0x2
 2183 0a5b 7D       		.byte	0x7d
 2184 0a5c 00       		.sleb128 0
 2185 0a5d 05       		.uleb128 0x5
 2186 0a5e 03       		.byte	0x3
 2187 0a5f 08000000 		.4byte	.LC2
 2188 0a63 00       		.byte	0
 2189 0a64 29       		.uleb128 0x29
 2190 0a65 68000000 		.4byte	.LVL8
 2191 0a69 57110000 		.4byte	0x1157
 2192 0a6d 780A0000 		.4byte	0xa78
ARM GAS  C:\Users\jo\AppData\Local\Temp\cceRVRht.s 			page 40


 2193 0a71 2A       		.uleb128 0x2a
 2194 0a72 01       		.uleb128 0x1
 2195 0a73 50       		.byte	0x50
 2196 0a74 02       		.uleb128 0x2
 2197 0a75 76       		.byte	0x76
 2198 0a76 00       		.sleb128 0
 2199 0a77 00       		.byte	0
 2200 0a78 29       		.uleb128 0x29
 2201 0a79 7C000000 		.4byte	.LVL9
 2202 0a7d 68110000 		.4byte	0x1168
 2203 0a81 8B0A0000 		.4byte	0xa8b
 2204 0a85 2A       		.uleb128 0x2a
 2205 0a86 01       		.uleb128 0x1
 2206 0a87 50       		.byte	0x50
 2207 0a88 01       		.uleb128 0x1
 2208 0a89 31       		.byte	0x31
 2209 0a8a 00       		.byte	0
 2210 0a8b 2B       		.uleb128 0x2b
 2211 0a8c 86000000 		.4byte	.LVL11
 2212 0a90 82110000 		.4byte	0x1182
 2213 0a94 29       		.uleb128 0x29
 2214 0a95 8E000000 		.4byte	.LVL12
 2215 0a99 89110000 		.4byte	0x1189
 2216 0a9d B00A0000 		.4byte	0xab0
 2217 0aa1 2A       		.uleb128 0x2a
 2218 0aa2 01       		.uleb128 0x1
 2219 0aa3 51       		.byte	0x51
 2220 0aa4 05       		.uleb128 0x5
 2221 0aa5 03       		.byte	0x3
 2222 0aa6 0C000000 		.4byte	.LC3
 2223 0aaa 2A       		.uleb128 0x2a
 2224 0aab 01       		.uleb128 0x1
 2225 0aac 50       		.byte	0x50
 2226 0aad 01       		.uleb128 0x1
 2227 0aae 32       		.byte	0x32
 2228 0aaf 00       		.byte	0
 2229 0ab0 29       		.uleb128 0x29
 2230 0ab1 9A000000 		.4byte	.LVL13
 2231 0ab5 F4100000 		.4byte	0x10f4
 2232 0ab9 CD0A0000 		.4byte	0xacd
 2233 0abd 2A       		.uleb128 0x2a
 2234 0abe 01       		.uleb128 0x1
 2235 0abf 51       		.byte	0x51
 2236 0ac0 02       		.uleb128 0x2
 2237 0ac1 91       		.byte	0x91
 2238 0ac2 68       		.sleb128 -24
 2239 0ac3 2A       		.uleb128 0x2a
 2240 0ac4 01       		.uleb128 0x1
 2241 0ac5 50       		.byte	0x50
 2242 0ac6 05       		.uleb128 0x5
 2243 0ac7 03       		.byte	0x3
 2244 0ac8 00000000 		.4byte	.LANCHOR0
 2245 0acc 00       		.byte	0
 2246 0acd 29       		.uleb128 0x29
 2247 0ace AA000000 		.4byte	.LVL14
 2248 0ad2 68110000 		.4byte	0x1168
 2249 0ad6 E00A0000 		.4byte	0xae0
ARM GAS  C:\Users\jo\AppData\Local\Temp\cceRVRht.s 			page 41


 2250 0ada 2A       		.uleb128 0x2a
 2251 0adb 01       		.uleb128 0x1
 2252 0adc 50       		.byte	0x50
 2253 0add 01       		.uleb128 0x1
 2254 0ade 33       		.byte	0x33
 2255 0adf 00       		.byte	0
 2256 0ae0 2C       		.uleb128 0x2c
 2257 0ae1 C0000000 		.4byte	.LVL15
 2258 0ae5 68110000 		.4byte	0x1168
 2259 0ae9 2A       		.uleb128 0x2a
 2260 0aea 01       		.uleb128 0x1
 2261 0aeb 50       		.byte	0x50
 2262 0aec 01       		.uleb128 0x1
 2263 0aed 34       		.byte	0x34
 2264 0aee 00       		.byte	0
 2265 0aef 00       		.byte	0
 2266 0af0 23       		.uleb128 0x23
 2267 0af1 AF050000 		.4byte	.LASF143
 2268 0af5 01       		.byte	0x1
 2269 0af6 47       		.byte	0x47
 2270 0af7 00000000 		.4byte	.LFB228
 2271 0afb 06000000 		.4byte	.LFE228-.LFB228
 2272 0aff 01       		.uleb128 0x1
 2273 0b00 9C       		.byte	0x9c
 2274 0b01 1C0B0000 		.4byte	0xb1c
 2275 0b05 2D       		.uleb128 0x2d
 2276 0b06 7000     		.ascii	"p\000"
 2277 0b08 01       		.byte	0x1
 2278 0b09 47       		.byte	0x47
 2279 0b0a 22030000 		.4byte	0x322
 2280 0b0e 1E000000 		.4byte	.LLST1
 2281 0b12 2E       		.uleb128 0x2e
 2282 0b13 06000000 		.4byte	.LVL18
 2283 0b17 A9110000 		.4byte	0x11a9
 2284 0b1b 00       		.byte	0
 2285 0b1c 23       		.uleb128 0x23
 2286 0b1d BA060000 		.4byte	.LASF144
 2287 0b21 01       		.byte	0x1
 2288 0b22 4D       		.byte	0x4d
 2289 0b23 00000000 		.4byte	.LFB229
 2290 0b27 14000000 		.4byte	.LFE229-.LFB229
 2291 0b2b 01       		.uleb128 0x1
 2292 0b2c 9C       		.byte	0x9c
 2293 0b2d 4C0B0000 		.4byte	0xb4c
 2294 0b31 2F       		.uleb128 0x2f
 2295 0b32 0C000000 		.4byte	.LVL19
 2296 0b36 BA110000 		.4byte	0x11ba
 2297 0b3a 2A       		.uleb128 0x2a
 2298 0b3b 01       		.uleb128 0x1
 2299 0b3c 52       		.byte	0x52
 2300 0b3d 03       		.uleb128 0x3
 2301 0b3e 0A       		.byte	0xa
 2302 0b3f 9006     		.2byte	0x690
 2303 0b41 2A       		.uleb128 0x2a
 2304 0b42 01       		.uleb128 0x1
 2305 0b43 50       		.byte	0x50
 2306 0b44 05       		.uleb128 0x5
ARM GAS  C:\Users\jo\AppData\Local\Temp\cceRVRht.s 			page 42


 2307 0b45 03       		.byte	0x3
 2308 0b46 00000000 		.4byte	.LANCHOR0
 2309 0b4a 00       		.byte	0
 2310 0b4b 00       		.byte	0
 2311 0b4c 23       		.uleb128 0x23
 2312 0b4d EC060000 		.4byte	.LASF145
 2313 0b51 01       		.byte	0x1
 2314 0b52 CC       		.byte	0xcc
 2315 0b53 00000000 		.4byte	.LFB234
 2316 0b57 14000000 		.4byte	.LFE234-.LFB234
 2317 0b5b 01       		.uleb128 0x1
 2318 0b5c 9C       		.byte	0x9c
 2319 0b5d 7C0B0000 		.4byte	0xb7c
 2320 0b61 2F       		.uleb128 0x2f
 2321 0b62 0C000000 		.4byte	.LVL20
 2322 0b66 BA110000 		.4byte	0x11ba
 2323 0b6a 2A       		.uleb128 0x2a
 2324 0b6b 01       		.uleb128 0x1
 2325 0b6c 52       		.byte	0x52
 2326 0b6d 03       		.uleb128 0x3
 2327 0b6e 0A       		.byte	0xa
 2328 0b6f 9006     		.2byte	0x690
 2329 0b71 2A       		.uleb128 0x2a
 2330 0b72 01       		.uleb128 0x1
 2331 0b73 50       		.byte	0x50
 2332 0b74 05       		.uleb128 0x5
 2333 0b75 03       		.byte	0x3
 2334 0b76 00000000 		.4byte	.LANCHOR0
 2335 0b7a 00       		.byte	0
 2336 0b7b 00       		.byte	0
 2337 0b7c 23       		.uleb128 0x23
 2338 0b7d E3020000 		.4byte	.LASF146
 2339 0b81 01       		.byte	0x1
 2340 0b82 8F       		.byte	0x8f
 2341 0b83 00000000 		.4byte	.LFB232
 2342 0b87 F4000000 		.4byte	.LFE232-.LFB232
 2343 0b8b 01       		.uleb128 0x1
 2344 0b8c 9C       		.byte	0x9c
 2345 0b8d 570D0000 		.4byte	0xd57
 2346 0b91 25       		.uleb128 0x25
 2347 0b92 6900     		.ascii	"i\000"
 2348 0b94 01       		.byte	0x1
 2349 0b95 90       		.byte	0x90
 2350 0b96 25000000 		.4byte	0x25
 2351 0b9a 3F000000 		.4byte	.LLST2
 2352 0b9e 26       		.uleb128 0x26
 2353 0b9f 5E050000 		.4byte	.LASF147
 2354 0ba3 01       		.byte	0x1
 2355 0ba4 91       		.byte	0x91
 2356 0ba5 FF000000 		.4byte	0xff
 2357 0ba9 27       		.uleb128 0x27
 2358 0baa F8080000 		.4byte	0x8f8
 2359 0bae 00000000 		.4byte	.LBB24
 2360 0bb2 20000000 		.4byte	.Ldebug_ranges0+0x20
 2361 0bb6 01       		.byte	0x1
 2362 0bb7 91       		.byte	0x91
 2363 0bb8 CC0B0000 		.4byte	0xbcc
ARM GAS  C:\Users\jo\AppData\Local\Temp\cceRVRht.s 			page 43


 2364 0bbc 28       		.uleb128 0x28
 2365 0bbd EC080000 		.4byte	0x8ec
 2366 0bc1 00000000 		.4byte	.LBB26
 2367 0bc5 02000000 		.4byte	.LBE26-.LBB26
 2368 0bc9 02       		.byte	0x2
 2369 0bca BD       		.byte	0xbd
 2370 0bcb 00       		.byte	0
 2371 0bcc 29       		.uleb128 0x29
 2372 0bcd 18000000 		.4byte	.LVL23
 2373 0bd1 D5110000 		.4byte	0x11d5
 2374 0bd5 E30B0000 		.4byte	0xbe3
 2375 0bd9 2A       		.uleb128 0x2a
 2376 0bda 01       		.uleb128 0x1
 2377 0bdb 50       		.byte	0x50
 2378 0bdc 05       		.uleb128 0x5
 2379 0bdd 03       		.byte	0x3
 2380 0bde 00000000 		.4byte	.LANCHOR1
 2381 0be2 00       		.byte	0
 2382 0be3 29       		.uleb128 0x29
 2383 0be4 2A000000 		.4byte	.LVL24
 2384 0be8 F1110000 		.4byte	0x11f1
 2385 0bec 120C0000 		.4byte	0xc12
 2386 0bf0 2A       		.uleb128 0x2a
 2387 0bf1 01       		.uleb128 0x1
 2388 0bf2 53       		.byte	0x53
 2389 0bf3 05       		.uleb128 0x5
 2390 0bf4 03       		.byte	0x3
 2391 0bf5 00000000 		.4byte	.LC0
 2392 0bf9 2A       		.uleb128 0x2a
 2393 0bfa 01       		.uleb128 0x1
 2394 0bfb 52       		.byte	0x52
 2395 0bfc 05       		.uleb128 0x5
 2396 0bfd 03       		.byte	0x3
 2397 0bfe 00000000 		.4byte	thread
 2398 0c02 2A       		.uleb128 0x2a
 2399 0c03 01       		.uleb128 0x1
 2400 0c04 51       		.byte	0x51
 2401 0c05 02       		.uleb128 0x2
 2402 0c06 75       		.byte	0x75
 2403 0c07 7F       		.sleb128 -1
 2404 0c08 2A       		.uleb128 0x2a
 2405 0c09 01       		.uleb128 0x1
 2406 0c0a 50       		.byte	0x50
 2407 0c0b 05       		.uleb128 0x5
 2408 0c0c 03       		.byte	0x3
 2409 0c0d 00000000 		.4byte	.LANCHOR1
 2410 0c11 00       		.byte	0
 2411 0c12 29       		.uleb128 0x29
 2412 0c13 38000000 		.4byte	.LVL25
 2413 0c17 F1110000 		.4byte	0x11f1
 2414 0c1b 410C0000 		.4byte	0xc41
 2415 0c1f 2A       		.uleb128 0x2a
 2416 0c20 01       		.uleb128 0x1
 2417 0c21 53       		.byte	0x53
 2418 0c22 05       		.uleb128 0x5
 2419 0c23 03       		.byte	0x3
 2420 0c24 04000000 		.4byte	.LC1
ARM GAS  C:\Users\jo\AppData\Local\Temp\cceRVRht.s 			page 44


 2421 0c28 2A       		.uleb128 0x2a
 2422 0c29 01       		.uleb128 0x1
 2423 0c2a 52       		.byte	0x52
 2424 0c2b 05       		.uleb128 0x5
 2425 0c2c 03       		.byte	0x3
 2426 0c2d 00000000 		.4byte	thread
 2427 0c31 2A       		.uleb128 0x2a
 2428 0c32 01       		.uleb128 0x1
 2429 0c33 51       		.byte	0x51
 2430 0c34 02       		.uleb128 0x2
 2431 0c35 75       		.byte	0x75
 2432 0c36 7E       		.sleb128 -2
 2433 0c37 2A       		.uleb128 0x2a
 2434 0c38 01       		.uleb128 0x1
 2435 0c39 50       		.byte	0x50
 2436 0c3a 05       		.uleb128 0x5
 2437 0c3b 03       		.byte	0x3
 2438 0c3c 00000000 		.4byte	.LANCHOR1
 2439 0c40 00       		.byte	0
 2440 0c41 29       		.uleb128 0x29
 2441 0c42 46000000 		.4byte	.LVL26
 2442 0c46 F1110000 		.4byte	0x11f1
 2443 0c4a 700C0000 		.4byte	0xc70
 2444 0c4e 2A       		.uleb128 0x2a
 2445 0c4f 01       		.uleb128 0x1
 2446 0c50 53       		.byte	0x53
 2447 0c51 05       		.uleb128 0x5
 2448 0c52 03       		.byte	0x3
 2449 0c53 08000000 		.4byte	.LC2
 2450 0c57 2A       		.uleb128 0x2a
 2451 0c58 01       		.uleb128 0x1
 2452 0c59 52       		.byte	0x52
 2453 0c5a 05       		.uleb128 0x5
 2454 0c5b 03       		.byte	0x3
 2455 0c5c 00000000 		.4byte	thread
 2456 0c60 2A       		.uleb128 0x2a
 2457 0c61 01       		.uleb128 0x1
 2458 0c62 51       		.byte	0x51
 2459 0c63 02       		.uleb128 0x2
 2460 0c64 75       		.byte	0x75
 2461 0c65 7D       		.sleb128 -3
 2462 0c66 2A       		.uleb128 0x2a
 2463 0c67 01       		.uleb128 0x1
 2464 0c68 50       		.byte	0x50
 2465 0c69 05       		.uleb128 0x5
 2466 0c6a 03       		.byte	0x3
 2467 0c6b 00000000 		.4byte	.LANCHOR1
 2468 0c6f 00       		.byte	0
 2469 0c70 29       		.uleb128 0x29
 2470 0c71 54000000 		.4byte	.LVL27
 2471 0c75 F1110000 		.4byte	0x11f1
 2472 0c79 9F0C0000 		.4byte	0xc9f
 2473 0c7d 2A       		.uleb128 0x2a
 2474 0c7e 01       		.uleb128 0x1
 2475 0c7f 53       		.byte	0x53
 2476 0c80 05       		.uleb128 0x5
 2477 0c81 03       		.byte	0x3
ARM GAS  C:\Users\jo\AppData\Local\Temp\cceRVRht.s 			page 45


 2478 0c82 10000000 		.4byte	.LC4
 2479 0c86 2A       		.uleb128 0x2a
 2480 0c87 01       		.uleb128 0x1
 2481 0c88 52       		.byte	0x52
 2482 0c89 05       		.uleb128 0x5
 2483 0c8a 03       		.byte	0x3
 2484 0c8b 00000000 		.4byte	thread
 2485 0c8f 2A       		.uleb128 0x2a
 2486 0c90 01       		.uleb128 0x1
 2487 0c91 51       		.byte	0x51
 2488 0c92 02       		.uleb128 0x2
 2489 0c93 75       		.byte	0x75
 2490 0c94 7C       		.sleb128 -4
 2491 0c95 2A       		.uleb128 0x2a
 2492 0c96 01       		.uleb128 0x1
 2493 0c97 50       		.byte	0x50
 2494 0c98 05       		.uleb128 0x5
 2495 0c99 03       		.byte	0x3
 2496 0c9a 00000000 		.4byte	.LANCHOR1
 2497 0c9e 00       		.byte	0
 2498 0c9f 29       		.uleb128 0x29
 2499 0ca0 62000000 		.4byte	.LVL28
 2500 0ca4 F1110000 		.4byte	0x11f1
 2501 0ca8 CE0C0000 		.4byte	0xcce
 2502 0cac 2A       		.uleb128 0x2a
 2503 0cad 01       		.uleb128 0x1
 2504 0cae 53       		.byte	0x53
 2505 0caf 05       		.uleb128 0x5
 2506 0cb0 03       		.byte	0x3
 2507 0cb1 14000000 		.4byte	.LC5
 2508 0cb5 2A       		.uleb128 0x2a
 2509 0cb6 01       		.uleb128 0x1
 2510 0cb7 52       		.byte	0x52
 2511 0cb8 05       		.uleb128 0x5
 2512 0cb9 03       		.byte	0x3
 2513 0cba 00000000 		.4byte	thread
 2514 0cbe 2A       		.uleb128 0x2a
 2515 0cbf 01       		.uleb128 0x1
 2516 0cc0 51       		.byte	0x51
 2517 0cc1 02       		.uleb128 0x2
 2518 0cc2 75       		.byte	0x75
 2519 0cc3 7B       		.sleb128 -5
 2520 0cc4 2A       		.uleb128 0x2a
 2521 0cc5 01       		.uleb128 0x1
 2522 0cc6 50       		.byte	0x50
 2523 0cc7 05       		.uleb128 0x5
 2524 0cc8 03       		.byte	0x3
 2525 0cc9 00000000 		.4byte	.LANCHOR1
 2526 0ccd 00       		.byte	0
 2527 0cce 29       		.uleb128 0x29
 2528 0ccf 80000000 		.4byte	.LVL29
 2529 0cd3 68110000 		.4byte	0x1168
 2530 0cd7 E10C0000 		.4byte	0xce1
 2531 0cdb 2A       		.uleb128 0x2a
 2532 0cdc 01       		.uleb128 0x1
 2533 0cdd 50       		.byte	0x50
 2534 0cde 01       		.uleb128 0x1
ARM GAS  C:\Users\jo\AppData\Local\Temp\cceRVRht.s 			page 46


 2535 0cdf 31       		.byte	0x31
 2536 0ce0 00       		.byte	0
 2537 0ce1 2B       		.uleb128 0x2b
 2538 0ce2 88000000 		.4byte	.LVL30
 2539 0ce6 82110000 		.4byte	0x1182
 2540 0cea 29       		.uleb128 0x29
 2541 0ceb 90000000 		.4byte	.LVL31
 2542 0cef 89110000 		.4byte	0x1189
 2543 0cf3 060D0000 		.4byte	0xd06
 2544 0cf7 2A       		.uleb128 0x2a
 2545 0cf8 01       		.uleb128 0x1
 2546 0cf9 51       		.byte	0x51
 2547 0cfa 05       		.uleb128 0x5
 2548 0cfb 03       		.byte	0x3
 2549 0cfc 18000000 		.4byte	.LC6
 2550 0d00 2A       		.uleb128 0x2a
 2551 0d01 01       		.uleb128 0x1
 2552 0d02 50       		.byte	0x50
 2553 0d03 01       		.uleb128 0x1
 2554 0d04 32       		.byte	0x32
 2555 0d05 00       		.byte	0
 2556 0d06 29       		.uleb128 0x29
 2557 0d07 9C000000 		.4byte	.LVL33
 2558 0d0b 15120000 		.4byte	0x1215
 2559 0d0f 1D0D0000 		.4byte	0xd1d
 2560 0d13 2A       		.uleb128 0x2a
 2561 0d14 01       		.uleb128 0x1
 2562 0d15 50       		.byte	0x50
 2563 0d16 05       		.uleb128 0x5
 2564 0d17 03       		.byte	0x3
 2565 0d18 00000000 		.4byte	.LANCHOR1
 2566 0d1c 00       		.byte	0
 2567 0d1d 29       		.uleb128 0x29
 2568 0d1e A8000000 		.4byte	.LVL34
 2569 0d22 68110000 		.4byte	0x1168
 2570 0d26 300D0000 		.4byte	0xd30
 2571 0d2a 2A       		.uleb128 0x2a
 2572 0d2b 01       		.uleb128 0x1
 2573 0d2c 50       		.byte	0x50
 2574 0d2d 01       		.uleb128 0x1
 2575 0d2e 33       		.byte	0x33
 2576 0d2f 00       		.byte	0
 2577 0d30 29       		.uleb128 0x29
 2578 0d31 B6000000 		.4byte	.LVL36
 2579 0d35 15120000 		.4byte	0x1215
 2580 0d39 470D0000 		.4byte	0xd47
 2581 0d3d 2A       		.uleb128 0x2a
 2582 0d3e 01       		.uleb128 0x1
 2583 0d3f 50       		.byte	0x50
 2584 0d40 05       		.uleb128 0x5
 2585 0d41 03       		.byte	0x3
 2586 0d42 00000000 		.4byte	.LANCHOR1
 2587 0d46 00       		.byte	0
 2588 0d47 2F       		.uleb128 0x2f
 2589 0d48 C6000000 		.4byte	.LVL38
 2590 0d4c 68110000 		.4byte	0x1168
 2591 0d50 2A       		.uleb128 0x2a
ARM GAS  C:\Users\jo\AppData\Local\Temp\cceRVRht.s 			page 47


 2592 0d51 01       		.uleb128 0x1
 2593 0d52 50       		.byte	0x50
 2594 0d53 01       		.uleb128 0x1
 2595 0d54 34       		.byte	0x34
 2596 0d55 00       		.byte	0
 2597 0d56 00       		.byte	0
 2598 0d57 23       		.uleb128 0x23
 2599 0d58 3C010000 		.4byte	.LASF148
 2600 0d5c 01       		.byte	0x1
 2601 0d5d 8A       		.byte	0x8a
 2602 0d5e 00000000 		.4byte	.LFB231
 2603 0d62 10000000 		.4byte	.LFE231-.LFB231
 2604 0d66 01       		.uleb128 0x1
 2605 0d67 9C       		.byte	0x9c
 2606 0d68 8C0D0000 		.4byte	0xd8c
 2607 0d6c 2F       		.uleb128 0x2f
 2608 0d6d 0C000000 		.4byte	.LVL39
 2609 0d71 2A120000 		.4byte	0x122a
 2610 0d75 2A       		.uleb128 0x2a
 2611 0d76 01       		.uleb128 0x1
 2612 0d77 52       		.byte	0x52
 2613 0d78 01       		.uleb128 0x1
 2614 0d79 30       		.byte	0x30
 2615 0d7a 2A       		.uleb128 0x2a
 2616 0d7b 01       		.uleb128 0x1
 2617 0d7c 51       		.byte	0x51
 2618 0d7d 03       		.uleb128 0x3
 2619 0d7e 0A       		.byte	0xa
 2620 0d7f 5001     		.2byte	0x150
 2621 0d81 2A       		.uleb128 0x2a
 2622 0d82 01       		.uleb128 0x1
 2623 0d83 50       		.byte	0x50
 2624 0d84 05       		.uleb128 0x5
 2625 0d85 03       		.byte	0x3
 2626 0d86 00000000 		.4byte	.LANCHOR1
 2627 0d8a 00       		.byte	0
 2628 0d8b 00       		.byte	0
 2629 0d8c 30       		.uleb128 0x30
 2630 0d8d D2070000 		.4byte	.LASF178
 2631 0d91 01       		.byte	0x1
 2632 0d92 C0       		.byte	0xc0
 2633 0d93 E40D0000 		.4byte	0xde4
 2634 0d97 00000000 		.4byte	.LFB233
 2635 0d9b 24000000 		.4byte	.LFE233-.LFB233
 2636 0d9f 01       		.uleb128 0x1
 2637 0da0 9C       		.byte	0x9c
 2638 0da1 E40D0000 		.4byte	0xde4
 2639 0da5 2D       		.uleb128 0x2d
 2640 0da6 747000   		.ascii	"tp\000"
 2641 0da9 01       		.byte	0x1
 2642 0daa C0       		.byte	0xc0
 2643 0dab 45020000 		.4byte	0x245
 2644 0daf 80000000 		.4byte	.LLST3
 2645 0db3 25       		.uleb128 0x25
 2646 0db4 66747000 		.ascii	"ftp\000"
 2647 0db8 01       		.byte	0x1
 2648 0db9 C1       		.byte	0xc1
ARM GAS  C:\Users\jo\AppData\Local\Temp\cceRVRht.s 			page 48


 2649 0dba 45020000 		.4byte	0x245
 2650 0dbe 9E000000 		.4byte	.LLST4
 2651 0dc2 31       		.uleb128 0x31
 2652 0dc3 A4070000 		.4byte	.LASF149
 2653 0dc7 01       		.byte	0x1
 2654 0dc8 C2       		.byte	0xc2
 2655 0dc9 E40D0000 		.4byte	0xde4
 2656 0dcd C7000000 		.4byte	.LLST5
 2657 0dd1 2B       		.uleb128 0x2b
 2658 0dd2 08000000 		.4byte	.LVL41
 2659 0dd6 45120000 		.4byte	0x1245
 2660 0dda 2B       		.uleb128 0x2b
 2661 0ddb 1A000000 		.4byte	.LVL44
 2662 0ddf 50120000 		.4byte	0x1250
 2663 0de3 00       		.byte	0
 2664 0de4 04       		.uleb128 0x4
 2665 0de5 01       		.byte	0x1
 2666 0de6 02       		.byte	0x2
 2667 0de7 C6050000 		.4byte	.LASF150
 2668 0deb 23       		.uleb128 0x23
 2669 0dec 06050000 		.4byte	.LASF151
 2670 0df0 01       		.byte	0x1
 2671 0df1 D1       		.byte	0xd1
 2672 0df2 00000000 		.4byte	.LFB235
 2673 0df6 40010000 		.4byte	.LFE235-.LFB235
 2674 0dfa 01       		.uleb128 0x1
 2675 0dfb 9C       		.byte	0x9c
 2676 0dfc 17100000 		.4byte	0x1017
 2677 0e00 25       		.uleb128 0x25
 2678 0e01 747000   		.ascii	"tp\000"
 2679 0e04 01       		.byte	0x1
 2680 0e05 D2       		.byte	0xd2
 2681 0e06 45020000 		.4byte	0x245
 2682 0e0a E6000000 		.4byte	.LLST6
 2683 0e0e 26       		.uleb128 0x26
 2684 0e0f 5E050000 		.4byte	.LASF147
 2685 0e13 01       		.byte	0x1
 2686 0e14 D3       		.byte	0xd3
 2687 0e15 FF000000 		.4byte	0xff
 2688 0e19 27       		.uleb128 0x27
 2689 0e1a F8080000 		.4byte	0x8f8
 2690 0e1e 02000000 		.4byte	.LBB30
 2691 0e22 38000000 		.4byte	.Ldebug_ranges0+0x38
 2692 0e26 01       		.byte	0x1
 2693 0e27 D3       		.byte	0xd3
 2694 0e28 3C0E0000 		.4byte	0xe3c
 2695 0e2c 28       		.uleb128 0x28
 2696 0e2d EC080000 		.4byte	0x8ec
 2697 0e31 02000000 		.4byte	.LBB32
 2698 0e35 02000000 		.4byte	.LBE32-.LBB32
 2699 0e39 02       		.byte	0x2
 2700 0e3a BD       		.byte	0xbd
 2701 0e3b 00       		.byte	0
 2702 0e3c 29       		.uleb128 0x29
 2703 0e3d 1C000000 		.4byte	.LVL46
 2704 0e41 14110000 		.4byte	0x1114
 2705 0e45 6D0E0000 		.4byte	0xe6d
ARM GAS  C:\Users\jo\AppData\Local\Temp\cceRVRht.s 			page 49


 2706 0e49 2A       		.uleb128 0x2a
 2707 0e4a 01       		.uleb128 0x1
 2708 0e4b 53       		.byte	0x53
 2709 0e4c 05       		.uleb128 0x5
 2710 0e4d 03       		.byte	0x3
 2711 0e4e 00000000 		.4byte	thread
 2712 0e52 2A       		.uleb128 0x2a
 2713 0e53 01       		.uleb128 0x1
 2714 0e54 51       		.byte	0x51
 2715 0e55 03       		.uleb128 0x3
 2716 0e56 0A       		.byte	0xa
 2717 0e57 5001     		.2byte	0x150
 2718 0e59 2A       		.uleb128 0x2a
 2719 0e5a 01       		.uleb128 0x1
 2720 0e5b 50       		.byte	0x50
 2721 0e5c 05       		.uleb128 0x5
 2722 0e5d 03       		.byte	0x3
 2723 0e5e 00000000 		.4byte	.LANCHOR0
 2724 0e62 2A       		.uleb128 0x2a
 2725 0e63 02       		.uleb128 0x2
 2726 0e64 7D       		.byte	0x7d
 2727 0e65 00       		.sleb128 0
 2728 0e66 05       		.uleb128 0x5
 2729 0e67 03       		.byte	0x3
 2730 0e68 00000000 		.4byte	.LC0
 2731 0e6c 00       		.byte	0
 2732 0e6d 29       		.uleb128 0x29
 2733 0e6e 30000000 		.4byte	.LVL49
 2734 0e72 68110000 		.4byte	0x1168
 2735 0e76 800E0000 		.4byte	0xe80
 2736 0e7a 2A       		.uleb128 0x2a
 2737 0e7b 01       		.uleb128 0x1
 2738 0e7c 50       		.byte	0x50
 2739 0e7d 01       		.uleb128 0x1
 2740 0e7e 31       		.byte	0x31
 2741 0e7f 00       		.byte	0
 2742 0e80 29       		.uleb128 0x29
 2743 0e81 3C000000 		.4byte	.LVL51
 2744 0e85 65120000 		.4byte	0x1265
 2745 0e89 940E0000 		.4byte	0xe94
 2746 0e8d 2A       		.uleb128 0x2a
 2747 0e8e 01       		.uleb128 0x1
 2748 0e8f 50       		.byte	0x50
 2749 0e90 02       		.uleb128 0x2
 2750 0e91 74       		.byte	0x74
 2751 0e92 00       		.sleb128 0
 2752 0e93 00       		.byte	0
 2753 0e94 29       		.uleb128 0x29
 2754 0e95 4E000000 		.4byte	.LVL52
 2755 0e99 68110000 		.4byte	0x1168
 2756 0e9d A70E0000 		.4byte	0xea7
 2757 0ea1 2A       		.uleb128 0x2a
 2758 0ea2 01       		.uleb128 0x1
 2759 0ea3 50       		.byte	0x50
 2760 0ea4 01       		.uleb128 0x1
 2761 0ea5 32       		.byte	0x32
 2762 0ea6 00       		.byte	0
ARM GAS  C:\Users\jo\AppData\Local\Temp\cceRVRht.s 			page 50


 2763 0ea7 29       		.uleb128 0x29
 2764 0ea8 58000000 		.4byte	.LVL53
 2765 0eac 7A120000 		.4byte	0x127a
 2766 0eb0 BB0E0000 		.4byte	0xebb
 2767 0eb4 2A       		.uleb128 0x2a
 2768 0eb5 01       		.uleb128 0x1
 2769 0eb6 50       		.byte	0x50
 2770 0eb7 02       		.uleb128 0x2
 2771 0eb8 74       		.byte	0x74
 2772 0eb9 00       		.sleb128 0
 2773 0eba 00       		.byte	0
 2774 0ebb 29       		.uleb128 0x29
 2775 0ebc 6C000000 		.4byte	.LVL54
 2776 0ec0 68110000 		.4byte	0x1168
 2777 0ec4 CE0E0000 		.4byte	0xece
 2778 0ec8 2A       		.uleb128 0x2a
 2779 0ec9 01       		.uleb128 0x1
 2780 0eca 50       		.byte	0x50
 2781 0ecb 01       		.uleb128 0x1
 2782 0ecc 33       		.byte	0x33
 2783 0ecd 00       		.byte	0
 2784 0ece 29       		.uleb128 0x29
 2785 0ecf 76000000 		.4byte	.LVL55
 2786 0ed3 8C0D0000 		.4byte	0xd8c
 2787 0ed7 E20E0000 		.4byte	0xee2
 2788 0edb 2A       		.uleb128 0x2a
 2789 0edc 01       		.uleb128 0x1
 2790 0edd 50       		.byte	0x50
 2791 0ede 02       		.uleb128 0x2
 2792 0edf 74       		.byte	0x74
 2793 0ee0 00       		.sleb128 0
 2794 0ee1 00       		.byte	0
 2795 0ee2 29       		.uleb128 0x29
 2796 0ee3 7E000000 		.4byte	.LVL56
 2797 0ee7 68110000 		.4byte	0x1168
 2798 0eeb F50E0000 		.4byte	0xef5
 2799 0eef 2A       		.uleb128 0x2a
 2800 0ef0 01       		.uleb128 0x1
 2801 0ef1 50       		.byte	0x50
 2802 0ef2 01       		.uleb128 0x1
 2803 0ef3 34       		.byte	0x34
 2804 0ef4 00       		.byte	0
 2805 0ef5 29       		.uleb128 0x29
 2806 0ef6 88000000 		.4byte	.LVL57
 2807 0efa 8C0D0000 		.4byte	0xd8c
 2808 0efe 090F0000 		.4byte	0xf09
 2809 0f02 2A       		.uleb128 0x2a
 2810 0f03 01       		.uleb128 0x1
 2811 0f04 50       		.byte	0x50
 2812 0f05 02       		.uleb128 0x2
 2813 0f06 74       		.byte	0x74
 2814 0f07 00       		.sleb128 0
 2815 0f08 00       		.byte	0
 2816 0f09 29       		.uleb128 0x29
 2817 0f0a 90000000 		.4byte	.LVL58
 2818 0f0e 68110000 		.4byte	0x1168
 2819 0f12 1C0F0000 		.4byte	0xf1c
ARM GAS  C:\Users\jo\AppData\Local\Temp\cceRVRht.s 			page 51


 2820 0f16 2A       		.uleb128 0x2a
 2821 0f17 01       		.uleb128 0x1
 2822 0f18 50       		.byte	0x50
 2823 0f19 01       		.uleb128 0x1
 2824 0f1a 35       		.byte	0x35
 2825 0f1b 00       		.byte	0
 2826 0f1c 29       		.uleb128 0x29
 2827 0f1d 9A000000 		.4byte	.LVL59
 2828 0f21 7A120000 		.4byte	0x127a
 2829 0f25 300F0000 		.4byte	0xf30
 2830 0f29 2A       		.uleb128 0x2a
 2831 0f2a 01       		.uleb128 0x1
 2832 0f2b 50       		.byte	0x50
 2833 0f2c 02       		.uleb128 0x2
 2834 0f2d 74       		.byte	0x74
 2835 0f2e 00       		.sleb128 0
 2836 0f2f 00       		.byte	0
 2837 0f30 29       		.uleb128 0x29
 2838 0f31 AA000000 		.4byte	.LVL60
 2839 0f35 68110000 		.4byte	0x1168
 2840 0f39 430F0000 		.4byte	0xf43
 2841 0f3d 2A       		.uleb128 0x2a
 2842 0f3e 01       		.uleb128 0x1
 2843 0f3f 50       		.byte	0x50
 2844 0f40 01       		.uleb128 0x1
 2845 0f41 36       		.byte	0x36
 2846 0f42 00       		.byte	0
 2847 0f43 29       		.uleb128 0x29
 2848 0f44 BE000000 		.4byte	.LVL61
 2849 0f48 68110000 		.4byte	0x1168
 2850 0f4c 560F0000 		.4byte	0xf56
 2851 0f50 2A       		.uleb128 0x2a
 2852 0f51 01       		.uleb128 0x1
 2853 0f52 50       		.byte	0x50
 2854 0f53 01       		.uleb128 0x1
 2855 0f54 37       		.byte	0x37
 2856 0f55 00       		.byte	0
 2857 0f56 29       		.uleb128 0x29
 2858 0f57 C8000000 		.4byte	.LVL62
 2859 0f5b 8C0D0000 		.4byte	0xd8c
 2860 0f5f 6A0F0000 		.4byte	0xf6a
 2861 0f63 2A       		.uleb128 0x2a
 2862 0f64 01       		.uleb128 0x1
 2863 0f65 50       		.byte	0x50
 2864 0f66 02       		.uleb128 0x2
 2865 0f67 74       		.byte	0x74
 2866 0f68 00       		.sleb128 0
 2867 0f69 00       		.byte	0
 2868 0f6a 29       		.uleb128 0x29
 2869 0f6b D0000000 		.4byte	.LVL63
 2870 0f6f 68110000 		.4byte	0x1168
 2871 0f73 7D0F0000 		.4byte	0xf7d
 2872 0f77 2A       		.uleb128 0x2a
 2873 0f78 01       		.uleb128 0x1
 2874 0f79 50       		.byte	0x50
 2875 0f7a 01       		.uleb128 0x1
 2876 0f7b 38       		.byte	0x38
ARM GAS  C:\Users\jo\AppData\Local\Temp\cceRVRht.s 			page 52


 2877 0f7c 00       		.byte	0
 2878 0f7d 29       		.uleb128 0x29
 2879 0f7e DA000000 		.4byte	.LVL64
 2880 0f82 8C0D0000 		.4byte	0xd8c
 2881 0f86 910F0000 		.4byte	0xf91
 2882 0f8a 2A       		.uleb128 0x2a
 2883 0f8b 01       		.uleb128 0x1
 2884 0f8c 50       		.byte	0x50
 2885 0f8d 02       		.uleb128 0x2
 2886 0f8e 74       		.byte	0x74
 2887 0f8f 00       		.sleb128 0
 2888 0f90 00       		.byte	0
 2889 0f91 29       		.uleb128 0x29
 2890 0f92 E2000000 		.4byte	.LVL65
 2891 0f96 68110000 		.4byte	0x1168
 2892 0f9a A40F0000 		.4byte	0xfa4
 2893 0f9e 2A       		.uleb128 0x2a
 2894 0f9f 01       		.uleb128 0x1
 2895 0fa0 50       		.byte	0x50
 2896 0fa1 01       		.uleb128 0x1
 2897 0fa2 39       		.byte	0x39
 2898 0fa3 00       		.byte	0
 2899 0fa4 29       		.uleb128 0x29
 2900 0fa5 EE000000 		.4byte	.LVL66
 2901 0fa9 8B120000 		.4byte	0x128b
 2902 0fad B90F0000 		.4byte	0xfb9
 2903 0fb1 2A       		.uleb128 0x2a
 2904 0fb2 01       		.uleb128 0x1
 2905 0fb3 50       		.byte	0x50
 2906 0fb4 03       		.uleb128 0x3
 2907 0fb5 0A       		.byte	0xa
 2908 0fb6 C409     		.2byte	0x9c4
 2909 0fb8 00       		.byte	0
 2910 0fb9 29       		.uleb128 0x29
 2911 0fba 00010000 		.4byte	.LVL67
 2912 0fbe 68110000 		.4byte	0x1168
 2913 0fc2 CC0F0000 		.4byte	0xfcc
 2914 0fc6 2A       		.uleb128 0x2a
 2915 0fc7 01       		.uleb128 0x1
 2916 0fc8 50       		.byte	0x50
 2917 0fc9 01       		.uleb128 0x1
 2918 0fca 3A       		.byte	0x3a
 2919 0fcb 00       		.byte	0
 2920 0fcc 29       		.uleb128 0x29
 2921 0fcd 0A010000 		.4byte	.LVL68
 2922 0fd1 8C0D0000 		.4byte	0xd8c
 2923 0fd5 E00F0000 		.4byte	0xfe0
 2924 0fd9 2A       		.uleb128 0x2a
 2925 0fda 01       		.uleb128 0x1
 2926 0fdb 50       		.byte	0x50
 2927 0fdc 02       		.uleb128 0x2
 2928 0fdd 74       		.byte	0x74
 2929 0fde 00       		.sleb128 0
 2930 0fdf 00       		.byte	0
 2931 0fe0 29       		.uleb128 0x29
 2932 0fe1 12010000 		.4byte	.LVL69
 2933 0fe5 68110000 		.4byte	0x1168
ARM GAS  C:\Users\jo\AppData\Local\Temp\cceRVRht.s 			page 53


 2934 0fe9 F30F0000 		.4byte	0xff3
 2935 0fed 2A       		.uleb128 0x2a
 2936 0fee 01       		.uleb128 0x1
 2937 0fef 50       		.byte	0x50
 2938 0ff0 01       		.uleb128 0x1
 2939 0ff1 3B       		.byte	0x3b
 2940 0ff2 00       		.byte	0
 2941 0ff3 29       		.uleb128 0x29
 2942 0ff4 1C010000 		.4byte	.LVL70
 2943 0ff8 8C0D0000 		.4byte	0xd8c
 2944 0ffc 07100000 		.4byte	0x1007
 2945 1000 2A       		.uleb128 0x2a
 2946 1001 01       		.uleb128 0x1
 2947 1002 50       		.byte	0x50
 2948 1003 02       		.uleb128 0x2
 2949 1004 74       		.byte	0x74
 2950 1005 00       		.sleb128 0
 2951 1006 00       		.byte	0
 2952 1007 2F       		.uleb128 0x2f
 2953 1008 2E010000 		.4byte	.LVL72
 2954 100c 68110000 		.4byte	0x1168
 2955 1010 2A       		.uleb128 0x2a
 2956 1011 01       		.uleb128 0x1
 2957 1012 50       		.byte	0x50
 2958 1013 01       		.uleb128 0x1
 2959 1014 3C       		.byte	0x3c
 2960 1015 00       		.byte	0
 2961 1016 00       		.byte	0
 2962 1017 32       		.uleb128 0x32
 2963 1018 90080000 		.4byte	.LASF152
 2964 101c 01       		.byte	0x1
 2965 101d 36       		.byte	0x36
 2966 101e 21070000 		.4byte	0x721
 2967 1022 05       		.uleb128 0x5
 2968 1023 03       		.byte	0x3
 2969 1024 00000000 		.4byte	heap1
 2970 1028 24       		.uleb128 0x24
 2971 1029 6D703100 		.ascii	"mp1\000"
 2972 102d 01       		.byte	0x1
 2973 102e 39       		.byte	0x39
 2974 102f 14080000 		.4byte	0x814
 2975 1033 05       		.uleb128 0x5
 2976 1034 03       		.byte	0x3
 2977 1035 00000000 		.4byte	mp1
 2978 1039 33       		.uleb128 0x33
 2979 103a 11010000 		.4byte	.LASF153
 2980 103e 13       		.byte	0x13
 2981 103f A706     		.2byte	0x6a7
 2982 1041 CE000000 		.4byte	0xce
 2983 1045 34       		.uleb128 0x34
 2984 1046 636800   		.ascii	"ch\000"
 2985 1049 08       		.byte	0x8
 2986 104a 0902     		.2byte	0x209
 2987 104c 19040000 		.4byte	0x419
 2988 1050 15       		.uleb128 0x15
 2989 1051 45020000 		.4byte	0x245
 2990 1055 60100000 		.4byte	0x1060
ARM GAS  C:\Users\jo\AppData\Local\Temp\cceRVRht.s 			page 54


 2991 1059 16       		.uleb128 0x16
 2992 105a 83040000 		.4byte	0x483
 2993 105e 04       		.byte	0x4
 2994 105f 00       		.byte	0
 2995 1060 35       		.uleb128 0x35
 2996 1061 0A060000 		.4byte	.LASF154
 2997 1065 12       		.byte	0x12
 2998 1066 A7       		.byte	0xa7
 2999 1067 50100000 		.4byte	0x1050
 3000 106b 35       		.uleb128 0x35
 3001 106c FB000000 		.4byte	.LASF155
 3002 1070 12       		.byte	0x12
 3003 1071 A8       		.byte	0xa8
 3004 1072 B8080000 		.4byte	0x8b8
 3005 1076 15       		.uleb128 0x15
 3006 1077 22030000 		.4byte	0x322
 3007 107b 81100000 		.4byte	0x1081
 3008 107f 36       		.uleb128 0x36
 3009 1080 00       		.byte	0
 3010 1081 37       		.uleb128 0x37
 3011 1082 776100   		.ascii	"wa\000"
 3012 1085 12       		.byte	0x12
 3013 1086 A9       		.byte	0xa9
 3014 1087 8B100000 		.4byte	0x108b
 3015 108b 19       		.uleb128 0x19
 3016 108c 76100000 		.4byte	0x1076
 3017 1090 38       		.uleb128 0x38
 3018 1091 FD040000 		.4byte	.LASF156
 3019 1095 01       		.byte	0x1
 3020 1096 77       		.byte	0x77
 3021 1097 A1100000 		.4byte	0x10a1
 3022 109b 05       		.uleb128 0x5
 3023 109c 03       		.byte	0x3
 3024 109d 00000000 		.4byte	testdyn1
 3025 10a1 19       		.uleb128 0x19
 3026 10a2 1F080000 		.4byte	0x81f
 3027 10a6 38       		.uleb128 0x38
 3028 10a7 C9040000 		.4byte	.LASF157
 3029 10ab 01       		.byte	0x1
 3030 10ac AF       		.byte	0xaf
 3031 10ad A1100000 		.4byte	0x10a1
 3032 10b1 05       		.uleb128 0x5
 3033 10b2 03       		.byte	0x3
 3034 10b3 00000000 		.4byte	testdyn2
 3035 10b7 38       		.uleb128 0x38
 3036 10b8 D2040000 		.4byte	.LASF158
 3037 10bc 01       		.byte	0x1
 3038 10bd EF       		.byte	0xef
 3039 10be A1100000 		.4byte	0x10a1
 3040 10c2 05       		.uleb128 0x5
 3041 10c3 03       		.byte	0x3
 3042 10c4 00000000 		.4byte	testdyn3
 3043 10c8 15       		.uleb128 0x15
 3044 10c9 D8100000 		.4byte	0x10d8
 3045 10cd D8100000 		.4byte	0x10d8
 3046 10d1 16       		.uleb128 0x16
 3047 10d2 83040000 		.4byte	0x483
ARM GAS  C:\Users\jo\AppData\Local\Temp\cceRVRht.s 			page 55


 3048 10d6 03       		.byte	0x3
 3049 10d7 00       		.byte	0
 3050 10d8 0A       		.uleb128 0xa
 3051 10d9 04       		.byte	0x4
 3052 10da A1100000 		.4byte	0x10a1
 3053 10de 38       		.uleb128 0x38
 3054 10df 59070000 		.4byte	.LASF159
 3055 10e3 01       		.byte	0x1
 3056 10e4 FB       		.byte	0xfb
 3057 10e5 EF100000 		.4byte	0x10ef
 3058 10e9 05       		.uleb128 0x5
 3059 10ea 03       		.byte	0x3
 3060 10eb 00000000 		.4byte	patterndyn
 3061 10ef 19       		.uleb128 0x19
 3062 10f0 C8100000 		.4byte	0x10c8
 3063 10f4 39       		.uleb128 0x39
 3064 10f5 00070000 		.4byte	.LASF160
 3065 10f9 10       		.byte	0x10
 3066 10fa 69       		.byte	0x69
 3067 10fb 2C000000 		.4byte	0x2c
 3068 10ff 0E110000 		.4byte	0x110e
 3069 1103 0D       		.uleb128 0xd
 3070 1104 A3070000 		.4byte	0x7a3
 3071 1108 0D       		.uleb128 0xd
 3072 1109 0E110000 		.4byte	0x110e
 3073 110d 00       		.byte	0
 3074 110e 0A       		.uleb128 0xa
 3075 110f 04       		.byte	0x4
 3076 1110 2C000000 		.4byte	0x2c
 3077 1114 39       		.uleb128 0x39
 3078 1115 C6010000 		.4byte	.LASF161
 3079 1119 14       		.byte	0x14
 3080 111a 4D       		.byte	0x4d
 3081 111b 45020000 		.4byte	0x245
 3082 111f 3D110000 		.4byte	0x113d
 3083 1123 0D       		.uleb128 0xd
 3084 1124 A3070000 		.4byte	0x7a3
 3085 1128 0D       		.uleb128 0xd
 3086 1129 2C000000 		.4byte	0x2c
 3087 112d 0D       		.uleb128 0xd
 3088 112e FF000000 		.4byte	0xff
 3089 1132 0D       		.uleb128 0xd
 3090 1133 E5060000 		.4byte	0x6e5
 3091 1137 0D       		.uleb128 0xd
 3092 1138 22030000 		.4byte	0x322
 3093 113c 00       		.byte	0
 3094 113d 39       		.uleb128 0x39
 3095 113e 4C060000 		.4byte	.LASF162
 3096 1142 10       		.byte	0x10
 3097 1143 67       		.byte	0x67
 3098 1144 22030000 		.4byte	0x322
 3099 1148 57110000 		.4byte	0x1157
 3100 114c 0D       		.uleb128 0xd
 3101 114d A3070000 		.4byte	0x7a3
 3102 1151 0D       		.uleb128 0xd
 3103 1152 2C000000 		.4byte	0x2c
 3104 1156 00       		.byte	0
ARM GAS  C:\Users\jo\AppData\Local\Temp\cceRVRht.s 			page 56


 3105 1157 3A       		.uleb128 0x3a
 3106 1158 9B010000 		.4byte	.LASF165
 3107 115c 10       		.byte	0x10
 3108 115d 68       		.byte	0x68
 3109 115e 68110000 		.4byte	0x1168
 3110 1162 0D       		.uleb128 0xd
 3111 1163 22030000 		.4byte	0x322
 3112 1167 00       		.byte	0
 3113 1168 39       		.uleb128 0x39
 3114 1169 2B080000 		.4byte	.LASF163
 3115 116d 12       		.byte	0x12
 3116 116e 5A       		.byte	0x5a
 3117 116f E40D0000 		.4byte	0xde4
 3118 1173 82110000 		.4byte	0x1182
 3119 1177 0D       		.uleb128 0xd
 3120 1178 37000000 		.4byte	0x37
 3121 117c 0D       		.uleb128 0xd
 3122 117d E40D0000 		.4byte	0xde4
 3123 1181 00       		.byte	0
 3124 1182 3B       		.uleb128 0x3b
 3125 1183 0D070000 		.4byte	.LASF179
 3126 1187 12       		.byte	0x12
 3127 1188 5E       		.byte	0x5e
 3128 1189 39       		.uleb128 0x39
 3129 118a 48050000 		.4byte	.LASF164
 3130 118e 12       		.byte	0x12
 3131 118f 5B       		.byte	0x5b
 3132 1190 E40D0000 		.4byte	0xde4
 3133 1194 A3110000 		.4byte	0x11a3
 3134 1198 0D       		.uleb128 0xd
 3135 1199 37000000 		.4byte	0x37
 3136 119d 0D       		.uleb128 0xd
 3137 119e A3110000 		.4byte	0x11a3
 3138 11a2 00       		.byte	0
 3139 11a3 0A       		.uleb128 0xa
 3140 11a4 04       		.byte	0x4
 3141 11a5 BD060000 		.4byte	0x6bd
 3142 11a9 3A       		.uleb128 0x3a
 3143 11aa 8B010000 		.4byte	.LASF166
 3144 11ae 12       		.byte	0x12
 3145 11af 58       		.byte	0x58
 3146 11b0 BA110000 		.4byte	0x11ba
 3147 11b4 0D       		.uleb128 0xd
 3148 11b5 BD060000 		.4byte	0x6bd
 3149 11b9 00       		.byte	0
 3150 11ba 3A       		.uleb128 0x3a
 3151 11bb 5B040000 		.4byte	.LASF167
 3152 11bf 10       		.byte	0x10
 3153 11c0 66       		.byte	0x66
 3154 11c1 D5110000 		.4byte	0x11d5
 3155 11c5 0D       		.uleb128 0xd
 3156 11c6 A3070000 		.4byte	0x7a3
 3157 11ca 0D       		.uleb128 0xd
 3158 11cb 22030000 		.4byte	0x322
 3159 11cf 0D       		.uleb128 0xd
 3160 11d0 2C000000 		.4byte	0x2c
 3161 11d4 00       		.byte	0
ARM GAS  C:\Users\jo\AppData\Local\Temp\cceRVRht.s 			page 57


 3162 11d5 3A       		.uleb128 0x3a
 3163 11d6 02080000 		.4byte	.LASF168
 3164 11da 11       		.byte	0x11
 3165 11db 71       		.byte	0x71
 3166 11dc EB110000 		.4byte	0x11eb
 3167 11e0 0D       		.uleb128 0xd
 3168 11e1 EB110000 		.4byte	0x11eb
 3169 11e5 0D       		.uleb128 0xd
 3170 11e6 22030000 		.4byte	0x322
 3171 11ea 00       		.byte	0
 3172 11eb 0A       		.uleb128 0xa
 3173 11ec 04       		.byte	0x4
 3174 11ed 14080000 		.4byte	0x814
 3175 11f1 39       		.uleb128 0x39
 3176 11f2 1B020000 		.4byte	.LASF169
 3177 11f6 14       		.byte	0x14
 3178 11f7 51       		.byte	0x51
 3179 11f8 45020000 		.4byte	0x245
 3180 11fc 15120000 		.4byte	0x1215
 3181 1200 0D       		.uleb128 0xd
 3182 1201 EB110000 		.4byte	0x11eb
 3183 1205 0D       		.uleb128 0xd
 3184 1206 FF000000 		.4byte	0xff
 3185 120a 0D       		.uleb128 0xd
 3186 120b E5060000 		.4byte	0x6e5
 3187 120f 0D       		.uleb128 0xd
 3188 1210 22030000 		.4byte	0x322
 3189 1214 00       		.byte	0
 3190 1215 39       		.uleb128 0x39
 3191 1216 F6070000 		.4byte	.LASF170
 3192 121a 11       		.byte	0x11
 3193 121b 6F       		.byte	0x6f
 3194 121c 22030000 		.4byte	0x322
 3195 1220 2A120000 		.4byte	0x122a
 3196 1224 0D       		.uleb128 0xd
 3197 1225 EB110000 		.4byte	0x11eb
 3198 1229 00       		.byte	0
 3199 122a 3A       		.uleb128 0x3a
 3200 122b 1F030000 		.4byte	.LASF171
 3201 122f 11       		.byte	0x11
 3202 1230 6C       		.byte	0x6c
 3203 1231 45120000 		.4byte	0x1245
 3204 1235 0D       		.uleb128 0xd
 3205 1236 EB110000 		.4byte	0x11eb
 3206 123a 0D       		.uleb128 0xd
 3207 123b 2C000000 		.4byte	0x2c
 3208 123f 0D       		.uleb128 0xd
 3209 1240 01070000 		.4byte	0x701
 3210 1244 00       		.byte	0
 3211 1245 3C       		.uleb128 0x3c
 3212 1246 00010000 		.4byte	.LASF180
 3213 124a 15       		.byte	0x15
 3214 124b 83       		.byte	0x83
 3215 124c 45020000 		.4byte	0x245
 3216 1250 39       		.uleb128 0x39
 3217 1251 DC060000 		.4byte	.LASF172
 3218 1255 15       		.byte	0x15
ARM GAS  C:\Users\jo\AppData\Local\Temp\cceRVRht.s 			page 58


 3219 1256 84       		.byte	0x84
 3220 1257 45020000 		.4byte	0x245
 3221 125b 65120000 		.4byte	0x1265
 3222 125f 0D       		.uleb128 0xd
 3223 1260 45020000 		.4byte	0x245
 3224 1264 00       		.byte	0
 3225 1265 39       		.uleb128 0x39
 3226 1266 54030000 		.4byte	.LASF173
 3227 126a 14       		.byte	0x14
 3228 126b 4A       		.byte	0x4a
 3229 126c 45020000 		.4byte	0x245
 3230 1270 7A120000 		.4byte	0x127a
 3231 1274 0D       		.uleb128 0xd
 3232 1275 45020000 		.4byte	0x245
 3233 1279 00       		.byte	0
 3234 127a 3A       		.uleb128 0x3a
 3235 127b 2F060000 		.4byte	.LASF174
 3236 127f 14       		.byte	0x14
 3237 1280 4B       		.byte	0x4b
 3238 1281 8B120000 		.4byte	0x128b
 3239 1285 0D       		.uleb128 0xd
 3240 1286 45020000 		.4byte	0x245
 3241 128a 00       		.byte	0
 3242 128b 3D       		.uleb128 0x3d
 3243 128c 79060000 		.4byte	.LASF181
 3244 1290 02       		.byte	0x2
 3245 1291 96       		.byte	0x96
 3246 1292 0D       		.uleb128 0xd
 3247 1293 2B010000 		.4byte	0x12b
 3248 1297 00       		.byte	0
 3249 1298 00       		.byte	0
 3250              		.section	.debug_abbrev,"",%progbits
 3251              	.Ldebug_abbrev0:
 3252 0000 01       		.uleb128 0x1
 3253 0001 11       		.uleb128 0x11
 3254 0002 01       		.byte	0x1
 3255 0003 25       		.uleb128 0x25
 3256 0004 0E       		.uleb128 0xe
 3257 0005 13       		.uleb128 0x13
 3258 0006 0B       		.uleb128 0xb
 3259 0007 03       		.uleb128 0x3
 3260 0008 0E       		.uleb128 0xe
 3261 0009 1B       		.uleb128 0x1b
 3262 000a 0E       		.uleb128 0xe
 3263 000b 55       		.uleb128 0x55
 3264 000c 17       		.uleb128 0x17
 3265 000d 11       		.uleb128 0x11
 3266 000e 01       		.uleb128 0x1
 3267 000f 10       		.uleb128 0x10
 3268 0010 17       		.uleb128 0x17
 3269 0011 00       		.byte	0
 3270 0012 00       		.byte	0
 3271 0013 02       		.uleb128 0x2
 3272 0014 24       		.uleb128 0x24
 3273 0015 00       		.byte	0
 3274 0016 0B       		.uleb128 0xb
 3275 0017 0B       		.uleb128 0xb
ARM GAS  C:\Users\jo\AppData\Local\Temp\cceRVRht.s 			page 59


 3276 0018 3E       		.uleb128 0x3e
 3277 0019 0B       		.uleb128 0xb
 3278 001a 03       		.uleb128 0x3
 3279 001b 08       		.uleb128 0x8
 3280 001c 00       		.byte	0
 3281 001d 00       		.byte	0
 3282 001e 03       		.uleb128 0x3
 3283 001f 16       		.uleb128 0x16
 3284 0020 00       		.byte	0
 3285 0021 03       		.uleb128 0x3
 3286 0022 0E       		.uleb128 0xe
 3287 0023 3A       		.uleb128 0x3a
 3288 0024 0B       		.uleb128 0xb
 3289 0025 3B       		.uleb128 0x3b
 3290 0026 0B       		.uleb128 0xb
 3291 0027 49       		.uleb128 0x49
 3292 0028 13       		.uleb128 0x13
 3293 0029 00       		.byte	0
 3294 002a 00       		.byte	0
 3295 002b 04       		.uleb128 0x4
 3296 002c 24       		.uleb128 0x24
 3297 002d 00       		.byte	0
 3298 002e 0B       		.uleb128 0xb
 3299 002f 0B       		.uleb128 0xb
 3300 0030 3E       		.uleb128 0x3e
 3301 0031 0B       		.uleb128 0xb
 3302 0032 03       		.uleb128 0x3
 3303 0033 0E       		.uleb128 0xe
 3304 0034 00       		.byte	0
 3305 0035 00       		.byte	0
 3306 0036 05       		.uleb128 0x5
 3307 0037 35       		.uleb128 0x35
 3308 0038 00       		.byte	0
 3309 0039 49       		.uleb128 0x49
 3310 003a 13       		.uleb128 0x13
 3311 003b 00       		.byte	0
 3312 003c 00       		.byte	0
 3313 003d 06       		.uleb128 0x6
 3314 003e 13       		.uleb128 0x13
 3315 003f 01       		.byte	0x1
 3316 0040 03       		.uleb128 0x3
 3317 0041 0E       		.uleb128 0xe
 3318 0042 0B       		.uleb128 0xb
 3319 0043 0B       		.uleb128 0xb
 3320 0044 3A       		.uleb128 0x3a
 3321 0045 0B       		.uleb128 0xb
 3322 0046 3B       		.uleb128 0x3b
 3323 0047 0B       		.uleb128 0xb
 3324 0048 01       		.uleb128 0x1
 3325 0049 13       		.uleb128 0x13
 3326 004a 00       		.byte	0
 3327 004b 00       		.byte	0
 3328 004c 07       		.uleb128 0x7
 3329 004d 0D       		.uleb128 0xd
 3330 004e 00       		.byte	0
 3331 004f 03       		.uleb128 0x3
 3332 0050 0E       		.uleb128 0xe
ARM GAS  C:\Users\jo\AppData\Local\Temp\cceRVRht.s 			page 60


 3333 0051 3A       		.uleb128 0x3a
 3334 0052 0B       		.uleb128 0xb
 3335 0053 3B       		.uleb128 0x3b
 3336 0054 0B       		.uleb128 0xb
 3337 0055 49       		.uleb128 0x49
 3338 0056 13       		.uleb128 0x13
 3339 0057 38       		.uleb128 0x38
 3340 0058 0B       		.uleb128 0xb
 3341 0059 00       		.byte	0
 3342 005a 00       		.byte	0
 3343 005b 08       		.uleb128 0x8
 3344 005c 0D       		.uleb128 0xd
 3345 005d 00       		.byte	0
 3346 005e 03       		.uleb128 0x3
 3347 005f 08       		.uleb128 0x8
 3348 0060 3A       		.uleb128 0x3a
 3349 0061 0B       		.uleb128 0xb
 3350 0062 3B       		.uleb128 0x3b
 3351 0063 05       		.uleb128 0x5
 3352 0064 49       		.uleb128 0x49
 3353 0065 13       		.uleb128 0x13
 3354 0066 38       		.uleb128 0x38
 3355 0067 0B       		.uleb128 0xb
 3356 0068 00       		.byte	0
 3357 0069 00       		.byte	0
 3358 006a 09       		.uleb128 0x9
 3359 006b 0D       		.uleb128 0xd
 3360 006c 00       		.byte	0
 3361 006d 03       		.uleb128 0x3
 3362 006e 0E       		.uleb128 0xe
 3363 006f 3A       		.uleb128 0x3a
 3364 0070 0B       		.uleb128 0xb
 3365 0071 3B       		.uleb128 0x3b
 3366 0072 05       		.uleb128 0x5
 3367 0073 49       		.uleb128 0x49
 3368 0074 13       		.uleb128 0x13
 3369 0075 38       		.uleb128 0x38
 3370 0076 0B       		.uleb128 0xb
 3371 0077 00       		.byte	0
 3372 0078 00       		.byte	0
 3373 0079 0A       		.uleb128 0xa
 3374 007a 0F       		.uleb128 0xf
 3375 007b 00       		.byte	0
 3376 007c 0B       		.uleb128 0xb
 3377 007d 0B       		.uleb128 0xb
 3378 007e 49       		.uleb128 0x49
 3379 007f 13       		.uleb128 0x13
 3380 0080 00       		.byte	0
 3381 0081 00       		.byte	0
 3382 0082 0B       		.uleb128 0xb
 3383 0083 13       		.uleb128 0x13
 3384 0084 01       		.byte	0x1
 3385 0085 03       		.uleb128 0x3
 3386 0086 0E       		.uleb128 0xe
 3387 0087 0B       		.uleb128 0xb
 3388 0088 0B       		.uleb128 0xb
 3389 0089 3A       		.uleb128 0x3a
ARM GAS  C:\Users\jo\AppData\Local\Temp\cceRVRht.s 			page 61


 3390 008a 0B       		.uleb128 0xb
 3391 008b 3B       		.uleb128 0x3b
 3392 008c 05       		.uleb128 0x5
 3393 008d 01       		.uleb128 0x1
 3394 008e 13       		.uleb128 0x13
 3395 008f 00       		.byte	0
 3396 0090 00       		.byte	0
 3397 0091 0C       		.uleb128 0xc
 3398 0092 15       		.uleb128 0x15
 3399 0093 01       		.byte	0x1
 3400 0094 27       		.uleb128 0x27
 3401 0095 19       		.uleb128 0x19
 3402 0096 01       		.uleb128 0x1
 3403 0097 13       		.uleb128 0x13
 3404 0098 00       		.byte	0
 3405 0099 00       		.byte	0
 3406 009a 0D       		.uleb128 0xd
 3407 009b 05       		.uleb128 0x5
 3408 009c 00       		.byte	0
 3409 009d 49       		.uleb128 0x49
 3410 009e 13       		.uleb128 0x13
 3411 009f 00       		.byte	0
 3412 00a0 00       		.byte	0
 3413 00a1 0E       		.uleb128 0xe
 3414 00a2 0F       		.uleb128 0xf
 3415 00a3 00       		.byte	0
 3416 00a4 0B       		.uleb128 0xb
 3417 00a5 0B       		.uleb128 0xb
 3418 00a6 00       		.byte	0
 3419 00a7 00       		.byte	0
 3420 00a8 0F       		.uleb128 0xf
 3421 00a9 13       		.uleb128 0x13
 3422 00aa 01       		.byte	0x1
 3423 00ab 03       		.uleb128 0x3
 3424 00ac 0E       		.uleb128 0xe
 3425 00ad 0B       		.uleb128 0xb
 3426 00ae 05       		.uleb128 0x5
 3427 00af 3A       		.uleb128 0x3a
 3428 00b0 0B       		.uleb128 0xb
 3429 00b1 3B       		.uleb128 0x3b
 3430 00b2 05       		.uleb128 0x5
 3431 00b3 01       		.uleb128 0x1
 3432 00b4 13       		.uleb128 0x13
 3433 00b5 00       		.byte	0
 3434 00b6 00       		.byte	0
 3435 00b7 10       		.uleb128 0x10
 3436 00b8 0D       		.uleb128 0xd
 3437 00b9 00       		.byte	0
 3438 00ba 03       		.uleb128 0x3
 3439 00bb 0E       		.uleb128 0xe
 3440 00bc 3A       		.uleb128 0x3a
 3441 00bd 0B       		.uleb128 0xb
 3442 00be 3B       		.uleb128 0x3b
 3443 00bf 05       		.uleb128 0x5
 3444 00c0 49       		.uleb128 0x49
 3445 00c1 13       		.uleb128 0x13
 3446 00c2 38       		.uleb128 0x38
ARM GAS  C:\Users\jo\AppData\Local\Temp\cceRVRht.s 			page 62


 3447 00c3 05       		.uleb128 0x5
 3448 00c4 00       		.byte	0
 3449 00c5 00       		.byte	0
 3450 00c6 11       		.uleb128 0x11
 3451 00c7 0D       		.uleb128 0xd
 3452 00c8 00       		.byte	0
 3453 00c9 03       		.uleb128 0x3
 3454 00ca 08       		.uleb128 0x8
 3455 00cb 3A       		.uleb128 0x3a
 3456 00cc 0B       		.uleb128 0xb
 3457 00cd 3B       		.uleb128 0x3b
 3458 00ce 05       		.uleb128 0x5
 3459 00cf 49       		.uleb128 0x49
 3460 00d0 13       		.uleb128 0x13
 3461 00d1 38       		.uleb128 0x38
 3462 00d2 05       		.uleb128 0x5
 3463 00d3 00       		.byte	0
 3464 00d4 00       		.byte	0
 3465 00d5 12       		.uleb128 0x12
 3466 00d6 0D       		.uleb128 0xd
 3467 00d7 00       		.byte	0
 3468 00d8 03       		.uleb128 0x3
 3469 00d9 08       		.uleb128 0x8
 3470 00da 3A       		.uleb128 0x3a
 3471 00db 0B       		.uleb128 0xb
 3472 00dc 3B       		.uleb128 0x3b
 3473 00dd 0B       		.uleb128 0xb
 3474 00de 49       		.uleb128 0x49
 3475 00df 13       		.uleb128 0x13
 3476 00e0 38       		.uleb128 0x38
 3477 00e1 0B       		.uleb128 0xb
 3478 00e2 00       		.byte	0
 3479 00e3 00       		.byte	0
 3480 00e4 13       		.uleb128 0x13
 3481 00e5 13       		.uleb128 0x13
 3482 00e6 01       		.byte	0x1
 3483 00e7 0B       		.uleb128 0xb
 3484 00e8 0B       		.uleb128 0xb
 3485 00e9 3A       		.uleb128 0x3a
 3486 00ea 0B       		.uleb128 0xb
 3487 00eb 3B       		.uleb128 0x3b
 3488 00ec 0B       		.uleb128 0xb
 3489 00ed 01       		.uleb128 0x1
 3490 00ee 13       		.uleb128 0x13
 3491 00ef 00       		.byte	0
 3492 00f0 00       		.byte	0
 3493 00f1 14       		.uleb128 0x14
 3494 00f2 13       		.uleb128 0x13
 3495 00f3 01       		.byte	0x1
 3496 00f4 0B       		.uleb128 0xb
 3497 00f5 05       		.uleb128 0x5
 3498 00f6 3A       		.uleb128 0x3a
 3499 00f7 0B       		.uleb128 0xb
 3500 00f8 3B       		.uleb128 0x3b
 3501 00f9 0B       		.uleb128 0xb
 3502 00fa 01       		.uleb128 0x1
 3503 00fb 13       		.uleb128 0x13
ARM GAS  C:\Users\jo\AppData\Local\Temp\cceRVRht.s 			page 63


 3504 00fc 00       		.byte	0
 3505 00fd 00       		.byte	0
 3506 00fe 15       		.uleb128 0x15
 3507 00ff 01       		.uleb128 0x1
 3508 0100 01       		.byte	0x1
 3509 0101 49       		.uleb128 0x49
 3510 0102 13       		.uleb128 0x13
 3511 0103 01       		.uleb128 0x1
 3512 0104 13       		.uleb128 0x13
 3513 0105 00       		.byte	0
 3514 0106 00       		.byte	0
 3515 0107 16       		.uleb128 0x16
 3516 0108 21       		.uleb128 0x21
 3517 0109 00       		.byte	0
 3518 010a 49       		.uleb128 0x49
 3519 010b 13       		.uleb128 0x13
 3520 010c 2F       		.uleb128 0x2f
 3521 010d 0B       		.uleb128 0xb
 3522 010e 00       		.byte	0
 3523 010f 00       		.byte	0
 3524 0110 17       		.uleb128 0x17
 3525 0111 17       		.uleb128 0x17
 3526 0112 01       		.byte	0x1
 3527 0113 0B       		.uleb128 0xb
 3528 0114 0B       		.uleb128 0xb
 3529 0115 3A       		.uleb128 0x3a
 3530 0116 0B       		.uleb128 0xb
 3531 0117 3B       		.uleb128 0x3b
 3532 0118 0B       		.uleb128 0xb
 3533 0119 01       		.uleb128 0x1
 3534 011a 13       		.uleb128 0x13
 3535 011b 00       		.byte	0
 3536 011c 00       		.byte	0
 3537 011d 18       		.uleb128 0x18
 3538 011e 0D       		.uleb128 0xd
 3539 011f 00       		.byte	0
 3540 0120 03       		.uleb128 0x3
 3541 0121 0E       		.uleb128 0xe
 3542 0122 3A       		.uleb128 0x3a
 3543 0123 0B       		.uleb128 0xb
 3544 0124 3B       		.uleb128 0x3b
 3545 0125 05       		.uleb128 0x5
 3546 0126 49       		.uleb128 0x49
 3547 0127 13       		.uleb128 0x13
 3548 0128 00       		.byte	0
 3549 0129 00       		.byte	0
 3550 012a 19       		.uleb128 0x19
 3551 012b 26       		.uleb128 0x26
 3552 012c 00       		.byte	0
 3553 012d 49       		.uleb128 0x49
 3554 012e 13       		.uleb128 0x13
 3555 012f 00       		.byte	0
 3556 0130 00       		.byte	0
 3557 0131 1A       		.uleb128 0x1a
 3558 0132 15       		.uleb128 0x15
 3559 0133 01       		.byte	0x1
 3560 0134 27       		.uleb128 0x27
ARM GAS  C:\Users\jo\AppData\Local\Temp\cceRVRht.s 			page 64


 3561 0135 19       		.uleb128 0x19
 3562 0136 49       		.uleb128 0x49
 3563 0137 13       		.uleb128 0x13
 3564 0138 01       		.uleb128 0x1
 3565 0139 13       		.uleb128 0x13
 3566 013a 00       		.byte	0
 3567 013b 00       		.byte	0
 3568 013c 1B       		.uleb128 0x1b
 3569 013d 0D       		.uleb128 0xd
 3570 013e 00       		.byte	0
 3571 013f 03       		.uleb128 0x3
 3572 0140 0E       		.uleb128 0xe
 3573 0141 3A       		.uleb128 0x3a
 3574 0142 0B       		.uleb128 0xb
 3575 0143 3B       		.uleb128 0x3b
 3576 0144 0B       		.uleb128 0xb
 3577 0145 49       		.uleb128 0x49
 3578 0146 13       		.uleb128 0x13
 3579 0147 00       		.byte	0
 3580 0148 00       		.byte	0
 3581 0149 1C       		.uleb128 0x1c
 3582 014a 17       		.uleb128 0x17
 3583 014b 01       		.byte	0x1
 3584 014c 03       		.uleb128 0x3
 3585 014d 0E       		.uleb128 0xe
 3586 014e 0B       		.uleb128 0xb
 3587 014f 0B       		.uleb128 0xb
 3588 0150 3A       		.uleb128 0x3a
 3589 0151 0B       		.uleb128 0xb
 3590 0152 3B       		.uleb128 0x3b
 3591 0153 0B       		.uleb128 0xb
 3592 0154 01       		.uleb128 0x1
 3593 0155 13       		.uleb128 0x13
 3594 0156 00       		.byte	0
 3595 0157 00       		.byte	0
 3596 0158 1D       		.uleb128 0x1d
 3597 0159 0D       		.uleb128 0xd
 3598 015a 00       		.byte	0
 3599 015b 03       		.uleb128 0x3
 3600 015c 08       		.uleb128 0x8
 3601 015d 3A       		.uleb128 0x3a
 3602 015e 0B       		.uleb128 0xb
 3603 015f 3B       		.uleb128 0x3b
 3604 0160 0B       		.uleb128 0xb
 3605 0161 49       		.uleb128 0x49
 3606 0162 13       		.uleb128 0x13
 3607 0163 00       		.byte	0
 3608 0164 00       		.byte	0
 3609 0165 1E       		.uleb128 0x1e
 3610 0166 15       		.uleb128 0x15
 3611 0167 00       		.byte	0
 3612 0168 27       		.uleb128 0x27
 3613 0169 19       		.uleb128 0x19
 3614 016a 00       		.byte	0
 3615 016b 00       		.byte	0
 3616 016c 1F       		.uleb128 0x1f
 3617 016d 0D       		.uleb128 0xd
ARM GAS  C:\Users\jo\AppData\Local\Temp\cceRVRht.s 			page 65


 3618 016e 00       		.byte	0
 3619 016f 03       		.uleb128 0x3
 3620 0170 08       		.uleb128 0x8
 3621 0171 3A       		.uleb128 0x3a
 3622 0172 0B       		.uleb128 0xb
 3623 0173 3B       		.uleb128 0x3b
 3624 0174 0B       		.uleb128 0xb
 3625 0175 49       		.uleb128 0x49
 3626 0176 13       		.uleb128 0x13
 3627 0177 38       		.uleb128 0x38
 3628 0178 05       		.uleb128 0x5
 3629 0179 00       		.byte	0
 3630 017a 00       		.byte	0
 3631 017b 20       		.uleb128 0x20
 3632 017c 17       		.uleb128 0x17
 3633 017d 01       		.byte	0x1
 3634 017e 03       		.uleb128 0x3
 3635 017f 0E       		.uleb128 0xe
 3636 0180 0B       		.uleb128 0xb
 3637 0181 05       		.uleb128 0x5
 3638 0182 3A       		.uleb128 0x3a
 3639 0183 0B       		.uleb128 0xb
 3640 0184 3B       		.uleb128 0x3b
 3641 0185 0B       		.uleb128 0xb
 3642 0186 01       		.uleb128 0x1
 3643 0187 13       		.uleb128 0x13
 3644 0188 00       		.byte	0
 3645 0189 00       		.byte	0
 3646 018a 21       		.uleb128 0x21
 3647 018b 21       		.uleb128 0x21
 3648 018c 00       		.byte	0
 3649 018d 49       		.uleb128 0x49
 3650 018e 13       		.uleb128 0x13
 3651 018f 2F       		.uleb128 0x2f
 3652 0190 05       		.uleb128 0x5
 3653 0191 00       		.byte	0
 3654 0192 00       		.byte	0
 3655 0193 22       		.uleb128 0x22
 3656 0194 2E       		.uleb128 0x2e
 3657 0195 00       		.byte	0
 3658 0196 03       		.uleb128 0x3
 3659 0197 0E       		.uleb128 0xe
 3660 0198 3A       		.uleb128 0x3a
 3661 0199 0B       		.uleb128 0xb
 3662 019a 3B       		.uleb128 0x3b
 3663 019b 0B       		.uleb128 0xb
 3664 019c 27       		.uleb128 0x27
 3665 019d 19       		.uleb128 0x19
 3666 019e 49       		.uleb128 0x49
 3667 019f 13       		.uleb128 0x13
 3668 01a0 20       		.uleb128 0x20
 3669 01a1 0B       		.uleb128 0xb
 3670 01a2 00       		.byte	0
 3671 01a3 00       		.byte	0
 3672 01a4 23       		.uleb128 0x23
 3673 01a5 2E       		.uleb128 0x2e
 3674 01a6 01       		.byte	0x1
ARM GAS  C:\Users\jo\AppData\Local\Temp\cceRVRht.s 			page 66


 3675 01a7 03       		.uleb128 0x3
 3676 01a8 0E       		.uleb128 0xe
 3677 01a9 3A       		.uleb128 0x3a
 3678 01aa 0B       		.uleb128 0xb
 3679 01ab 3B       		.uleb128 0x3b
 3680 01ac 0B       		.uleb128 0xb
 3681 01ad 27       		.uleb128 0x27
 3682 01ae 19       		.uleb128 0x19
 3683 01af 11       		.uleb128 0x11
 3684 01b0 01       		.uleb128 0x1
 3685 01b1 12       		.uleb128 0x12
 3686 01b2 06       		.uleb128 0x6
 3687 01b3 40       		.uleb128 0x40
 3688 01b4 18       		.uleb128 0x18
 3689 01b5 9742     		.uleb128 0x2117
 3690 01b7 19       		.uleb128 0x19
 3691 01b8 01       		.uleb128 0x1
 3692 01b9 13       		.uleb128 0x13
 3693 01ba 00       		.byte	0
 3694 01bb 00       		.byte	0
 3695 01bc 24       		.uleb128 0x24
 3696 01bd 34       		.uleb128 0x34
 3697 01be 00       		.byte	0
 3698 01bf 03       		.uleb128 0x3
 3699 01c0 08       		.uleb128 0x8
 3700 01c1 3A       		.uleb128 0x3a
 3701 01c2 0B       		.uleb128 0xb
 3702 01c3 3B       		.uleb128 0x3b
 3703 01c4 0B       		.uleb128 0xb
 3704 01c5 49       		.uleb128 0x49
 3705 01c6 13       		.uleb128 0x13
 3706 01c7 02       		.uleb128 0x2
 3707 01c8 18       		.uleb128 0x18
 3708 01c9 00       		.byte	0
 3709 01ca 00       		.byte	0
 3710 01cb 25       		.uleb128 0x25
 3711 01cc 34       		.uleb128 0x34
 3712 01cd 00       		.byte	0
 3713 01ce 03       		.uleb128 0x3
 3714 01cf 08       		.uleb128 0x8
 3715 01d0 3A       		.uleb128 0x3a
 3716 01d1 0B       		.uleb128 0xb
 3717 01d2 3B       		.uleb128 0x3b
 3718 01d3 0B       		.uleb128 0xb
 3719 01d4 49       		.uleb128 0x49
 3720 01d5 13       		.uleb128 0x13
 3721 01d6 02       		.uleb128 0x2
 3722 01d7 17       		.uleb128 0x17
 3723 01d8 00       		.byte	0
 3724 01d9 00       		.byte	0
 3725 01da 26       		.uleb128 0x26
 3726 01db 34       		.uleb128 0x34
 3727 01dc 00       		.byte	0
 3728 01dd 03       		.uleb128 0x3
 3729 01de 0E       		.uleb128 0xe
 3730 01df 3A       		.uleb128 0x3a
 3731 01e0 0B       		.uleb128 0xb
ARM GAS  C:\Users\jo\AppData\Local\Temp\cceRVRht.s 			page 67


 3732 01e1 3B       		.uleb128 0x3b
 3733 01e2 0B       		.uleb128 0xb
 3734 01e3 49       		.uleb128 0x49
 3735 01e4 13       		.uleb128 0x13
 3736 01e5 00       		.byte	0
 3737 01e6 00       		.byte	0
 3738 01e7 27       		.uleb128 0x27
 3739 01e8 1D       		.uleb128 0x1d
 3740 01e9 01       		.byte	0x1
 3741 01ea 31       		.uleb128 0x31
 3742 01eb 13       		.uleb128 0x13
 3743 01ec 52       		.uleb128 0x52
 3744 01ed 01       		.uleb128 0x1
 3745 01ee 55       		.uleb128 0x55
 3746 01ef 17       		.uleb128 0x17
 3747 01f0 58       		.uleb128 0x58
 3748 01f1 0B       		.uleb128 0xb
 3749 01f2 59       		.uleb128 0x59
 3750 01f3 0B       		.uleb128 0xb
 3751 01f4 01       		.uleb128 0x1
 3752 01f5 13       		.uleb128 0x13
 3753 01f6 00       		.byte	0
 3754 01f7 00       		.byte	0
 3755 01f8 28       		.uleb128 0x28
 3756 01f9 1D       		.uleb128 0x1d
 3757 01fa 00       		.byte	0
 3758 01fb 31       		.uleb128 0x31
 3759 01fc 13       		.uleb128 0x13
 3760 01fd 11       		.uleb128 0x11
 3761 01fe 01       		.uleb128 0x1
 3762 01ff 12       		.uleb128 0x12
 3763 0200 06       		.uleb128 0x6
 3764 0201 58       		.uleb128 0x58
 3765 0202 0B       		.uleb128 0xb
 3766 0203 59       		.uleb128 0x59
 3767 0204 0B       		.uleb128 0xb
 3768 0205 00       		.byte	0
 3769 0206 00       		.byte	0
 3770 0207 29       		.uleb128 0x29
 3771 0208 898201   		.uleb128 0x4109
 3772 020b 01       		.byte	0x1
 3773 020c 11       		.uleb128 0x11
 3774 020d 01       		.uleb128 0x1
 3775 020e 31       		.uleb128 0x31
 3776 020f 13       		.uleb128 0x13
 3777 0210 01       		.uleb128 0x1
 3778 0211 13       		.uleb128 0x13
 3779 0212 00       		.byte	0
 3780 0213 00       		.byte	0
 3781 0214 2A       		.uleb128 0x2a
 3782 0215 8A8201   		.uleb128 0x410a
 3783 0218 00       		.byte	0
 3784 0219 02       		.uleb128 0x2
 3785 021a 18       		.uleb128 0x18
 3786 021b 9142     		.uleb128 0x2111
 3787 021d 18       		.uleb128 0x18
 3788 021e 00       		.byte	0
ARM GAS  C:\Users\jo\AppData\Local\Temp\cceRVRht.s 			page 68


 3789 021f 00       		.byte	0
 3790 0220 2B       		.uleb128 0x2b
 3791 0221 898201   		.uleb128 0x4109
 3792 0224 00       		.byte	0
 3793 0225 11       		.uleb128 0x11
 3794 0226 01       		.uleb128 0x1
 3795 0227 31       		.uleb128 0x31
 3796 0228 13       		.uleb128 0x13
 3797 0229 00       		.byte	0
 3798 022a 00       		.byte	0
 3799 022b 2C       		.uleb128 0x2c
 3800 022c 898201   		.uleb128 0x4109
 3801 022f 01       		.byte	0x1
 3802 0230 11       		.uleb128 0x11
 3803 0231 01       		.uleb128 0x1
 3804 0232 31       		.uleb128 0x31
 3805 0233 13       		.uleb128 0x13
 3806 0234 00       		.byte	0
 3807 0235 00       		.byte	0
 3808 0236 2D       		.uleb128 0x2d
 3809 0237 05       		.uleb128 0x5
 3810 0238 00       		.byte	0
 3811 0239 03       		.uleb128 0x3
 3812 023a 08       		.uleb128 0x8
 3813 023b 3A       		.uleb128 0x3a
 3814 023c 0B       		.uleb128 0xb
 3815 023d 3B       		.uleb128 0x3b
 3816 023e 0B       		.uleb128 0xb
 3817 023f 49       		.uleb128 0x49
 3818 0240 13       		.uleb128 0x13
 3819 0241 02       		.uleb128 0x2
 3820 0242 17       		.uleb128 0x17
 3821 0243 00       		.byte	0
 3822 0244 00       		.byte	0
 3823 0245 2E       		.uleb128 0x2e
 3824 0246 898201   		.uleb128 0x4109
 3825 0249 00       		.byte	0
 3826 024a 11       		.uleb128 0x11
 3827 024b 01       		.uleb128 0x1
 3828 024c 9542     		.uleb128 0x2115
 3829 024e 19       		.uleb128 0x19
 3830 024f 31       		.uleb128 0x31
 3831 0250 13       		.uleb128 0x13
 3832 0251 00       		.byte	0
 3833 0252 00       		.byte	0
 3834 0253 2F       		.uleb128 0x2f
 3835 0254 898201   		.uleb128 0x4109
 3836 0257 01       		.byte	0x1
 3837 0258 11       		.uleb128 0x11
 3838 0259 01       		.uleb128 0x1
 3839 025a 9542     		.uleb128 0x2115
 3840 025c 19       		.uleb128 0x19
 3841 025d 31       		.uleb128 0x31
 3842 025e 13       		.uleb128 0x13
 3843 025f 00       		.byte	0
 3844 0260 00       		.byte	0
 3845 0261 30       		.uleb128 0x30
ARM GAS  C:\Users\jo\AppData\Local\Temp\cceRVRht.s 			page 69


 3846 0262 2E       		.uleb128 0x2e
 3847 0263 01       		.byte	0x1
 3848 0264 03       		.uleb128 0x3
 3849 0265 0E       		.uleb128 0xe
 3850 0266 3A       		.uleb128 0x3a
 3851 0267 0B       		.uleb128 0xb
 3852 0268 3B       		.uleb128 0x3b
 3853 0269 0B       		.uleb128 0xb
 3854 026a 27       		.uleb128 0x27
 3855 026b 19       		.uleb128 0x19
 3856 026c 49       		.uleb128 0x49
 3857 026d 13       		.uleb128 0x13
 3858 026e 11       		.uleb128 0x11
 3859 026f 01       		.uleb128 0x1
 3860 0270 12       		.uleb128 0x12
 3861 0271 06       		.uleb128 0x6
 3862 0272 40       		.uleb128 0x40
 3863 0273 18       		.uleb128 0x18
 3864 0274 9742     		.uleb128 0x2117
 3865 0276 19       		.uleb128 0x19
 3866 0277 01       		.uleb128 0x1
 3867 0278 13       		.uleb128 0x13
 3868 0279 00       		.byte	0
 3869 027a 00       		.byte	0
 3870 027b 31       		.uleb128 0x31
 3871 027c 34       		.uleb128 0x34
 3872 027d 00       		.byte	0
 3873 027e 03       		.uleb128 0x3
 3874 027f 0E       		.uleb128 0xe
 3875 0280 3A       		.uleb128 0x3a
 3876 0281 0B       		.uleb128 0xb
 3877 0282 3B       		.uleb128 0x3b
 3878 0283 0B       		.uleb128 0xb
 3879 0284 49       		.uleb128 0x49
 3880 0285 13       		.uleb128 0x13
 3881 0286 02       		.uleb128 0x2
 3882 0287 17       		.uleb128 0x17
 3883 0288 00       		.byte	0
 3884 0289 00       		.byte	0
 3885 028a 32       		.uleb128 0x32
 3886 028b 34       		.uleb128 0x34
 3887 028c 00       		.byte	0
 3888 028d 03       		.uleb128 0x3
 3889 028e 0E       		.uleb128 0xe
 3890 028f 3A       		.uleb128 0x3a
 3891 0290 0B       		.uleb128 0xb
 3892 0291 3B       		.uleb128 0x3b
 3893 0292 0B       		.uleb128 0xb
 3894 0293 49       		.uleb128 0x49
 3895 0294 13       		.uleb128 0x13
 3896 0295 02       		.uleb128 0x2
 3897 0296 18       		.uleb128 0x18
 3898 0297 00       		.byte	0
 3899 0298 00       		.byte	0
 3900 0299 33       		.uleb128 0x33
 3901 029a 34       		.uleb128 0x34
 3902 029b 00       		.byte	0
ARM GAS  C:\Users\jo\AppData\Local\Temp\cceRVRht.s 			page 70


 3903 029c 03       		.uleb128 0x3
 3904 029d 0E       		.uleb128 0xe
 3905 029e 3A       		.uleb128 0x3a
 3906 029f 0B       		.uleb128 0xb
 3907 02a0 3B       		.uleb128 0x3b
 3908 02a1 05       		.uleb128 0x5
 3909 02a2 49       		.uleb128 0x49
 3910 02a3 13       		.uleb128 0x13
 3911 02a4 3F       		.uleb128 0x3f
 3912 02a5 19       		.uleb128 0x19
 3913 02a6 3C       		.uleb128 0x3c
 3914 02a7 19       		.uleb128 0x19
 3915 02a8 00       		.byte	0
 3916 02a9 00       		.byte	0
 3917 02aa 34       		.uleb128 0x34
 3918 02ab 34       		.uleb128 0x34
 3919 02ac 00       		.byte	0
 3920 02ad 03       		.uleb128 0x3
 3921 02ae 08       		.uleb128 0x8
 3922 02af 3A       		.uleb128 0x3a
 3923 02b0 0B       		.uleb128 0xb
 3924 02b1 3B       		.uleb128 0x3b
 3925 02b2 05       		.uleb128 0x5
 3926 02b3 49       		.uleb128 0x49
 3927 02b4 13       		.uleb128 0x13
 3928 02b5 3F       		.uleb128 0x3f
 3929 02b6 19       		.uleb128 0x19
 3930 02b7 3C       		.uleb128 0x3c
 3931 02b8 19       		.uleb128 0x19
 3932 02b9 00       		.byte	0
 3933 02ba 00       		.byte	0
 3934 02bb 35       		.uleb128 0x35
 3935 02bc 34       		.uleb128 0x34
 3936 02bd 00       		.byte	0
 3937 02be 03       		.uleb128 0x3
 3938 02bf 0E       		.uleb128 0xe
 3939 02c0 3A       		.uleb128 0x3a
 3940 02c1 0B       		.uleb128 0xb
 3941 02c2 3B       		.uleb128 0x3b
 3942 02c3 0B       		.uleb128 0xb
 3943 02c4 49       		.uleb128 0x49
 3944 02c5 13       		.uleb128 0x13
 3945 02c6 3F       		.uleb128 0x3f
 3946 02c7 19       		.uleb128 0x19
 3947 02c8 3C       		.uleb128 0x3c
 3948 02c9 19       		.uleb128 0x19
 3949 02ca 00       		.byte	0
 3950 02cb 00       		.byte	0
 3951 02cc 36       		.uleb128 0x36
 3952 02cd 21       		.uleb128 0x21
 3953 02ce 00       		.byte	0
 3954 02cf 00       		.byte	0
 3955 02d0 00       		.byte	0
 3956 02d1 37       		.uleb128 0x37
 3957 02d2 34       		.uleb128 0x34
 3958 02d3 00       		.byte	0
 3959 02d4 03       		.uleb128 0x3
ARM GAS  C:\Users\jo\AppData\Local\Temp\cceRVRht.s 			page 71


 3960 02d5 08       		.uleb128 0x8
 3961 02d6 3A       		.uleb128 0x3a
 3962 02d7 0B       		.uleb128 0xb
 3963 02d8 3B       		.uleb128 0x3b
 3964 02d9 0B       		.uleb128 0xb
 3965 02da 49       		.uleb128 0x49
 3966 02db 13       		.uleb128 0x13
 3967 02dc 3F       		.uleb128 0x3f
 3968 02dd 19       		.uleb128 0x19
 3969 02de 3C       		.uleb128 0x3c
 3970 02df 19       		.uleb128 0x19
 3971 02e0 00       		.byte	0
 3972 02e1 00       		.byte	0
 3973 02e2 38       		.uleb128 0x38
 3974 02e3 34       		.uleb128 0x34
 3975 02e4 00       		.byte	0
 3976 02e5 03       		.uleb128 0x3
 3977 02e6 0E       		.uleb128 0xe
 3978 02e7 3A       		.uleb128 0x3a
 3979 02e8 0B       		.uleb128 0xb
 3980 02e9 3B       		.uleb128 0x3b
 3981 02ea 0B       		.uleb128 0xb
 3982 02eb 49       		.uleb128 0x49
 3983 02ec 13       		.uleb128 0x13
 3984 02ed 3F       		.uleb128 0x3f
 3985 02ee 19       		.uleb128 0x19
 3986 02ef 02       		.uleb128 0x2
 3987 02f0 18       		.uleb128 0x18
 3988 02f1 00       		.byte	0
 3989 02f2 00       		.byte	0
 3990 02f3 39       		.uleb128 0x39
 3991 02f4 2E       		.uleb128 0x2e
 3992 02f5 01       		.byte	0x1
 3993 02f6 3F       		.uleb128 0x3f
 3994 02f7 19       		.uleb128 0x19
 3995 02f8 03       		.uleb128 0x3
 3996 02f9 0E       		.uleb128 0xe
 3997 02fa 3A       		.uleb128 0x3a
 3998 02fb 0B       		.uleb128 0xb
 3999 02fc 3B       		.uleb128 0x3b
 4000 02fd 0B       		.uleb128 0xb
 4001 02fe 27       		.uleb128 0x27
 4002 02ff 19       		.uleb128 0x19
 4003 0300 49       		.uleb128 0x49
 4004 0301 13       		.uleb128 0x13
 4005 0302 3C       		.uleb128 0x3c
 4006 0303 19       		.uleb128 0x19
 4007 0304 01       		.uleb128 0x1
 4008 0305 13       		.uleb128 0x13
 4009 0306 00       		.byte	0
 4010 0307 00       		.byte	0
 4011 0308 3A       		.uleb128 0x3a
 4012 0309 2E       		.uleb128 0x2e
 4013 030a 01       		.byte	0x1
 4014 030b 3F       		.uleb128 0x3f
 4015 030c 19       		.uleb128 0x19
 4016 030d 03       		.uleb128 0x3
ARM GAS  C:\Users\jo\AppData\Local\Temp\cceRVRht.s 			page 72


 4017 030e 0E       		.uleb128 0xe
 4018 030f 3A       		.uleb128 0x3a
 4019 0310 0B       		.uleb128 0xb
 4020 0311 3B       		.uleb128 0x3b
 4021 0312 0B       		.uleb128 0xb
 4022 0313 27       		.uleb128 0x27
 4023 0314 19       		.uleb128 0x19
 4024 0315 3C       		.uleb128 0x3c
 4025 0316 19       		.uleb128 0x19
 4026 0317 01       		.uleb128 0x1
 4027 0318 13       		.uleb128 0x13
 4028 0319 00       		.byte	0
 4029 031a 00       		.byte	0
 4030 031b 3B       		.uleb128 0x3b
 4031 031c 2E       		.uleb128 0x2e
 4032 031d 00       		.byte	0
 4033 031e 3F       		.uleb128 0x3f
 4034 031f 19       		.uleb128 0x19
 4035 0320 03       		.uleb128 0x3
 4036 0321 0E       		.uleb128 0xe
 4037 0322 3A       		.uleb128 0x3a
 4038 0323 0B       		.uleb128 0xb
 4039 0324 3B       		.uleb128 0x3b
 4040 0325 0B       		.uleb128 0xb
 4041 0326 27       		.uleb128 0x27
 4042 0327 19       		.uleb128 0x19
 4043 0328 3C       		.uleb128 0x3c
 4044 0329 19       		.uleb128 0x19
 4045 032a 00       		.byte	0
 4046 032b 00       		.byte	0
 4047 032c 3C       		.uleb128 0x3c
 4048 032d 2E       		.uleb128 0x2e
 4049 032e 00       		.byte	0
 4050 032f 3F       		.uleb128 0x3f
 4051 0330 19       		.uleb128 0x19
 4052 0331 03       		.uleb128 0x3
 4053 0332 0E       		.uleb128 0xe
 4054 0333 3A       		.uleb128 0x3a
 4055 0334 0B       		.uleb128 0xb
 4056 0335 3B       		.uleb128 0x3b
 4057 0336 0B       		.uleb128 0xb
 4058 0337 27       		.uleb128 0x27
 4059 0338 19       		.uleb128 0x19
 4060 0339 49       		.uleb128 0x49
 4061 033a 13       		.uleb128 0x13
 4062 033b 3C       		.uleb128 0x3c
 4063 033c 19       		.uleb128 0x19
 4064 033d 00       		.byte	0
 4065 033e 00       		.byte	0
 4066 033f 3D       		.uleb128 0x3d
 4067 0340 2E       		.uleb128 0x2e
 4068 0341 01       		.byte	0x1
 4069 0342 3F       		.uleb128 0x3f
 4070 0343 19       		.uleb128 0x19
 4071 0344 03       		.uleb128 0x3
 4072 0345 0E       		.uleb128 0xe
 4073 0346 3A       		.uleb128 0x3a
ARM GAS  C:\Users\jo\AppData\Local\Temp\cceRVRht.s 			page 73


 4074 0347 0B       		.uleb128 0xb
 4075 0348 3B       		.uleb128 0x3b
 4076 0349 0B       		.uleb128 0xb
 4077 034a 27       		.uleb128 0x27
 4078 034b 19       		.uleb128 0x19
 4079 034c 3C       		.uleb128 0x3c
 4080 034d 19       		.uleb128 0x19
 4081 034e 00       		.byte	0
 4082 034f 00       		.byte	0
 4083 0350 00       		.byte	0
 4084              		.section	.debug_loc,"",%progbits
 4085              	.Ldebug_loc0:
 4086              	.LLST0:
 4087 0000 56000000 		.4byte	.LVL5
 4088 0004 5C000000 		.4byte	.LVL6
 4089 0008 0100     		.2byte	0x1
 4090 000a 50       		.byte	0x50
 4091 000b 5C000000 		.4byte	.LVL6
 4092 000f F4000000 		.4byte	.LFE230
 4093 0013 0100     		.2byte	0x1
 4094 0015 56       		.byte	0x56
 4095 0016 00000000 		.4byte	0
 4096 001a 00000000 		.4byte	0
 4097              	.LLST1:
 4098 001e 00000000 		.4byte	.LVL16
 4099 0022 02000000 		.4byte	.LVL17
 4100 0026 0100     		.2byte	0x1
 4101 0028 50       		.byte	0x50
 4102 0029 02000000 		.4byte	.LVL17
 4103 002d 06000000 		.4byte	.LFE228
 4104 0031 0400     		.2byte	0x4
 4105 0033 F3       		.byte	0xf3
 4106 0034 01       		.uleb128 0x1
 4107 0035 50       		.byte	0x50
 4108 0036 9F       		.byte	0x9f
 4109 0037 00000000 		.4byte	0
 4110 003b 00000000 		.4byte	0
 4111              	.LLST2:
 4112 003f 0A000000 		.4byte	.LVL21
 4113 0043 0E000000 		.4byte	.LVL22
 4114 0047 0200     		.2byte	0x2
 4115 0049 30       		.byte	0x30
 4116 004a 9F       		.byte	0x9f
 4117 004b 96000000 		.4byte	.LVL32
 4118 004f A8000000 		.4byte	.LVL34
 4119 0053 0500     		.2byte	0x5
 4120 0055 34       		.byte	0x34
 4121 0056 74       		.byte	0x74
 4122 0057 00       		.sleb128 0
 4123 0058 1C       		.byte	0x1c
 4124 0059 9F       		.byte	0x9f
 4125 005a A8000000 		.4byte	.LVL34
 4126 005e AE000000 		.4byte	.LVL35
 4127 0062 0500     		.2byte	0x5
 4128 0064 35       		.byte	0x35
 4129 0065 74       		.byte	0x74
 4130 0066 00       		.sleb128 0
ARM GAS  C:\Users\jo\AppData\Local\Temp\cceRVRht.s 			page 74


 4131 0067 1C       		.byte	0x1c
 4132 0068 9F       		.byte	0x9f
 4133 0069 AE000000 		.4byte	.LVL35
 4134 006d BA000000 		.4byte	.LVL37
 4135 0071 0500     		.2byte	0x5
 4136 0073 34       		.byte	0x34
 4137 0074 74       		.byte	0x74
 4138 0075 00       		.sleb128 0
 4139 0076 1C       		.byte	0x1c
 4140 0077 9F       		.byte	0x9f
 4141 0078 00000000 		.4byte	0
 4142 007c 00000000 		.4byte	0
 4143              	.LLST3:
 4144 0080 00000000 		.4byte	.LVL40
 4145 0084 07000000 		.4byte	.LVL41-1
 4146 0088 0100     		.2byte	0x1
 4147 008a 50       		.byte	0x50
 4148 008b 07000000 		.4byte	.LVL41-1
 4149 008f 24000000 		.4byte	.LFE233
 4150 0093 0100     		.2byte	0x1
 4151 0095 55       		.byte	0x55
 4152 0096 00000000 		.4byte	0
 4153 009a 00000000 		.4byte	0
 4154              	.LLST4:
 4155 009e 0C000000 		.4byte	.LVL42
 4156 00a2 19000000 		.4byte	.LVL44-1
 4157 00a6 0100     		.2byte	0x1
 4158 00a8 50       		.byte	0x50
 4159 00a9 1A000000 		.4byte	.LVL44
 4160 00ad 22000000 		.4byte	.LVL45
 4161 00b1 0100     		.2byte	0x1
 4162 00b3 50       		.byte	0x50
 4163 00b4 22000000 		.4byte	.LVL45
 4164 00b8 24000000 		.4byte	.LFE233
 4165 00bc 0100     		.2byte	0x1
 4166 00be 53       		.byte	0x53
 4167 00bf 00000000 		.4byte	0
 4168 00c3 00000000 		.4byte	0
 4169              	.LLST5:
 4170 00c7 00000000 		.4byte	.LVL40
 4171 00cb 0C000000 		.4byte	.LVL42
 4172 00cf 0200     		.2byte	0x2
 4173 00d1 30       		.byte	0x30
 4174 00d2 9F       		.byte	0x9f
 4175 00d3 0C000000 		.4byte	.LVL42
 4176 00d7 24000000 		.4byte	.LFE233
 4177 00db 0100     		.2byte	0x1
 4178 00dd 54       		.byte	0x54
 4179 00de 00000000 		.4byte	0
 4180 00e2 00000000 		.4byte	0
 4181              	.LLST6:
 4182 00e6 1E000000 		.4byte	.LVL47
 4183 00ea 20000000 		.4byte	.LVL48
 4184 00ee 0100     		.2byte	0x1
 4185 00f0 50       		.byte	0x50
 4186 00f1 20000000 		.4byte	.LVL48
 4187 00f5 2A010000 		.4byte	.LVL71
ARM GAS  C:\Users\jo\AppData\Local\Temp\cceRVRht.s 			page 75


 4188 00f9 0100     		.2byte	0x1
 4189 00fb 54       		.byte	0x54
 4190 00fc 00000000 		.4byte	0
 4191 0100 00000000 		.4byte	0
 4192              		.section	.debug_aranges,"",%progbits
 4193 0000 54000000 		.4byte	0x54
 4194 0004 0200     		.2byte	0x2
 4195 0006 00000000 		.4byte	.Ldebug_info0
 4196 000a 04       		.byte	0x4
 4197 000b 00       		.byte	0
 4198 000c 0000     		.2byte	0
 4199 000e 0000     		.2byte	0
 4200 0010 00000000 		.4byte	.LFB230
 4201 0014 F4000000 		.4byte	.LFE230-.LFB230
 4202 0018 00000000 		.4byte	.LFB228
 4203 001c 06000000 		.4byte	.LFE228-.LFB228
 4204 0020 00000000 		.4byte	.LFB229
 4205 0024 14000000 		.4byte	.LFE229-.LFB229
 4206 0028 00000000 		.4byte	.LFB234
 4207 002c 14000000 		.4byte	.LFE234-.LFB234
 4208 0030 00000000 		.4byte	.LFB232
 4209 0034 F4000000 		.4byte	.LFE232-.LFB232
 4210 0038 00000000 		.4byte	.LFB231
 4211 003c 10000000 		.4byte	.LFE231-.LFB231
 4212 0040 00000000 		.4byte	.LFB233
 4213 0044 24000000 		.4byte	.LFE233-.LFB233
 4214 0048 00000000 		.4byte	.LFB235
 4215 004c 40010000 		.4byte	.LFE235-.LFB235
 4216 0050 00000000 		.4byte	0
 4217 0054 00000000 		.4byte	0
 4218              		.section	.debug_ranges,"",%progbits
 4219              	.Ldebug_ranges0:
 4220 0000 02000000 		.4byte	.LBB16
 4221 0004 04000000 		.4byte	.LBE16
 4222 0008 06000000 		.4byte	.LBB22
 4223 000c 08000000 		.4byte	.LBE22
 4224 0010 0A000000 		.4byte	.LBB23
 4225 0014 0C000000 		.4byte	.LBE23
 4226 0018 00000000 		.4byte	0
 4227 001c 00000000 		.4byte	0
 4228 0020 00000000 		.4byte	.LBB24
 4229 0024 04000000 		.4byte	.LBE24
 4230 0028 08000000 		.4byte	.LBB29
 4231 002c 0E000000 		.4byte	.LBE29
 4232 0030 00000000 		.4byte	0
 4233 0034 00000000 		.4byte	0
 4234 0038 02000000 		.4byte	.LBB30
 4235 003c 04000000 		.4byte	.LBE30
 4236 0040 06000000 		.4byte	.LBB35
 4237 0044 08000000 		.4byte	.LBE35
 4238 0048 00000000 		.4byte	0
 4239 004c 00000000 		.4byte	0
 4240 0050 00000000 		.4byte	.LFB230
 4241 0054 F4000000 		.4byte	.LFE230
 4242 0058 00000000 		.4byte	.LFB228
 4243 005c 06000000 		.4byte	.LFE228
 4244 0060 00000000 		.4byte	.LFB229
ARM GAS  C:\Users\jo\AppData\Local\Temp\cceRVRht.s 			page 76


 4245 0064 14000000 		.4byte	.LFE229
 4246 0068 00000000 		.4byte	.LFB234
 4247 006c 14000000 		.4byte	.LFE234
 4248 0070 00000000 		.4byte	.LFB232
 4249 0074 F4000000 		.4byte	.LFE232
 4250 0078 00000000 		.4byte	.LFB231
 4251 007c 10000000 		.4byte	.LFE231
 4252 0080 00000000 		.4byte	.LFB233
 4253 0084 24000000 		.4byte	.LFE233
 4254 0088 00000000 		.4byte	.LFB235
 4255 008c 40010000 		.4byte	.LFE235
 4256 0090 00000000 		.4byte	0
 4257 0094 00000000 		.4byte	0
 4258              		.section	.debug_line,"",%progbits
 4259              	.Ldebug_line0:
 4260 0000 2B040000 		.section	.debug_str,"MS",%progbits,1
 4260      0200AC02 
 4260      00000201 
 4260      FB0E0D00 
 4260      01010101 
 4261              	.LASF114:
 4262 0000 7466756E 		.ascii	"tfunc_t\000"
 4262      635F7400 
 4263              	.LASF52:
 4264 0008 72656164 		.ascii	"ready_list_t\000"
 4264      795F6C69 
 4264      73745F74 
 4264      00
 4265              	.LASF88:
 4266 0015 73655F74 		.ascii	"se_time\000"
 4266      696D6500 
 4267              	.LASF2:
 4268 001d 73697A65 		.ascii	"size_t\000"
 4268      5F7400
 4269              	.LASF122:
 4270 0024 6E657874 		.ascii	"next\000"
 4270      00
 4271              	.LASF99:
 4272 0029 7264796D 		.ascii	"rdymsg\000"
 4272      736700
 4273              	.LASF17:
 4274 0030 75696E74 		.ascii	"uint64_t\000"
 4274      36345F74 
 4274      00
 4275              	.LASF3:
 4276 0039 5F5F7569 		.ascii	"__uint8_t\000"
 4276      6E74385F 
 4276      7400
 4277              	.LASF87:
 4278 0043 706F7274 		.ascii	"port_intctx\000"
 4278      5F696E74 
 4278      63747800 
 4279              	.LASF71:
 4280 004f 73797374 		.ascii	"system_debug_t\000"
 4280      656D5F64 
 4280      65627567 
 4280      5F7400
ARM GAS  C:\Users\jo\AppData\Local\Temp\cceRVRht.s 			page 77


 4281              	.LASF177:
 4282 005e 433A5C55 		.ascii	"C:\\Users\\jo\\Documents\\GitHub\\ChibiOS\\demos\\S"
 4282      73657273 
 4282      5C6A6F5C 
 4282      446F6375 
 4282      6D656E74 
 4283 008a 544D3332 		.ascii	"TM32\\RT-STM32F407-DISCOVERY-uHttp\000"
 4283      5C52542D 
 4283      53544D33 
 4283      32463430 
 4283      372D4449 
 4284              	.LASF116:
 4285 00ac 6D656D67 		.ascii	"memgetfunc_t\000"
 4285      65746675 
 4285      6E635F74 
 4285      00
 4286              	.LASF13:
 4287 00b9 6C6F6E67 		.ascii	"long long unsigned int\000"
 4287      206C6F6E 
 4287      6720756E 
 4287      7369676E 
 4287      65642069 
 4288              	.LASF96:
 4289 00d0 63685F74 		.ascii	"ch_trace_buffer_t\000"
 4289      72616365 
 4289      5F627566 
 4289      6665725F 
 4289      7400
 4290              	.LASF91:
 4291 00e2 73655F73 		.ascii	"se_state\000"
 4291      74617465 
 4291      00
 4292              	.LASF100:
 4293 00eb 65786974 		.ascii	"exitcode\000"
 4293      636F6465 
 4293      00
 4294              	.LASF120:
 4295 00f4 685F6672 		.ascii	"h_free\000"
 4295      656500
 4296              	.LASF155:
 4297 00fb 74657374 		.ascii	"test\000"
 4297      00
 4298              	.LASF180:
 4299 0100 63685265 		.ascii	"chRegFirstThread\000"
 4299      67466972 
 4299      73745468 
 4299      72656164 
 4299      00
 4300              	.LASF153:
 4301 0111 49544D5F 		.ascii	"ITM_RxBuffer\000"
 4301      52784275 
 4301      66666572 
 4301      00
 4302              	.LASF124:
 4303 011e 616C6967 		.ascii	"align\000"
 4303      6E00
 4304              	.LASF51:
ARM GAS  C:\Users\jo\AppData\Local\Temp\cceRVRht.s 			page 78


 4305 0124 63685F74 		.ascii	"ch_threads_queue\000"
 4305      68726561 
 4305      64735F71 
 4305      75657565 
 4305      00
 4306              	.LASF30:
 4307 0135 705F7072 		.ascii	"p_prio\000"
 4307      696F00
 4308              	.LASF148:
 4309 013c 64796E32 		.ascii	"dyn2_setup\000"
 4309      5F736574 
 4309      757000
 4310              	.LASF21:
 4311 0147 74726566 		.ascii	"trefs_t\000"
 4311      735F7400 
 4312              	.LASF11:
 4313 014f 6C6F6E67 		.ascii	"long long int\000"
 4313      206C6F6E 
 4313      6720696E 
 4313      7400
 4314              	.LASF1:
 4315 015d 7369676E 		.ascii	"signed char\000"
 4315      65642063 
 4315      68617200 
 4316              	.LASF121:
 4317 0169 685F6D74 		.ascii	"h_mtx\000"
 4317      7800
 4318              	.LASF130:
 4319 016f 6D705F70 		.ascii	"mp_provider\000"
 4319      726F7669 
 4319      64657200 
 4320              	.LASF45:
 4321 017b 705F6D70 		.ascii	"p_mpool\000"
 4321      6F6F6C00 
 4322              	.LASF110:
 4323 0183 6D5F7175 		.ascii	"m_queue\000"
 4323      65756500 
 4324              	.LASF166:
 4325 018b 74657374 		.ascii	"test_emit_token\000"
 4325      5F656D69 
 4325      745F746F 
 4325      6B656E00 
 4326              	.LASF165:
 4327 019b 63684865 		.ascii	"chHeapFree\000"
 4327      61704672 
 4327      656500
 4328              	.LASF80:
 4329 01a6 76746C69 		.ascii	"vtlist\000"
 4329      737400
 4330              	.LASF102:
 4331 01ad 77747472 		.ascii	"wttrp\000"
 4331      7000
 4332              	.LASF78:
 4333 01b3 63685F73 		.ascii	"ch_system\000"
 4333      79737465 
 4333      6D00
 4334              	.LASF8:
ARM GAS  C:\Users\jo\AppData\Local\Temp\cceRVRht.s 			page 79


 4335 01bd 6C6F6E67 		.ascii	"long int\000"
 4335      20696E74 
 4335      00
 4336              	.LASF161:
 4337 01c6 63685468 		.ascii	"chThdCreateFromHeap\000"
 4337      64437265 
 4337      61746546 
 4337      726F6D48 
 4337      65617000 
 4338              	.LASF20:
 4339 01da 74737461 		.ascii	"tstate_t\000"
 4339      74655F74 
 4339      00
 4340              	.LASF117:
 4341 01e3 6D656D6F 		.ascii	"memory_heap_t\000"
 4341      72795F68 
 4341      6561705F 
 4341      7400
 4342              	.LASF89:
 4343 01f1 73655F74 		.ascii	"se_tp\000"
 4343      7000
 4344              	.LASF142:
 4345 01f7 64796E31 		.ascii	"dyn1_execute\000"
 4345      5F657865 
 4345      63757465 
 4345      00
 4346              	.LASF139:
 4347 0204 62756666 		.ascii	"buffer\000"
 4347      657200
 4348              	.LASF32:
 4349 020b 705F6E65 		.ascii	"p_newer\000"
 4349      77657200 
 4350              	.LASF107:
 4351 0213 735F7175 		.ascii	"s_queue\000"
 4351      65756500 
 4352              	.LASF169:
 4353 021b 63685468 		.ascii	"chThdCreateFromMemoryPool\000"
 4353      64437265 
 4353      61746546 
 4353      726F6D4D 
 4353      656D6F72 
 4354              	.LASF93:
 4355 0235 74625F73 		.ascii	"tb_size\000"
 4355      697A6500 
 4356              	.LASF57:
 4357 023d 725F6E65 		.ascii	"r_newer\000"
 4357      77657200 
 4358              	.LASF84:
 4359 0245 72656761 		.ascii	"regarm_t\000"
 4359      726D5F74 
 4359      00
 4360              	.LASF64:
 4361 024e 76745F70 		.ascii	"vt_prev\000"
 4361      72657600 
 4362              	.LASF115:
 4363 0256 6D757465 		.ascii	"mutex_t\000"
 4363      785F7400 
ARM GAS  C:\Users\jo\AppData\Local\Temp\cceRVRht.s 			page 80


 4364              	.LASF75:
 4365 025e 6C6F636B 		.ascii	"lock_cnt\000"
 4365      5F636E74 
 4365      00
 4366              	.LASF82:
 4367 0267 69646C65 		.ascii	"idle_thread_wa\000"
 4367      5F746872 
 4367      6561645F 
 4367      776100
 4368              	.LASF25:
 4369 0276 636E745F 		.ascii	"cnt_t\000"
 4369      7400
 4370              	.LASF35:
 4371 027c 705F7374 		.ascii	"p_stklimit\000"
 4371      6B6C696D 
 4371      697400
 4372              	.LASF0:
 4373 0287 756E7369 		.ascii	"unsigned int\000"
 4373      676E6564 
 4373      20696E74 
 4373      00
 4374              	.LASF63:
 4375 0294 76745F6E 		.ascii	"vt_next\000"
 4375      65787400 
 4376              	.LASF103:
 4377 029c 77747365 		.ascii	"wtsemp\000"
 4377      6D7000
 4378              	.LASF40:
 4379 02a3 705F6D73 		.ascii	"p_msgqueue\000"
 4379      67717565 
 4379      756500
 4380              	.LASF135:
 4381 02ae 74656172 		.ascii	"teardown\000"
 4381      646F776E 
 4381      00
 4382              	.LASF131:
 4383 02b7 6D656D6F 		.ascii	"memory_pool_t\000"
 4383      72795F70 
 4383      6F6F6C5F 
 4383      7400
 4384              	.LASF133:
 4385 02c5 6E616D65 		.ascii	"name\000"
 4385      00
 4386              	.LASF108:
 4387 02ca 735F636E 		.ascii	"s_cnt\000"
 4387      7400
 4388              	.LASF6:
 4389 02d0 73686F72 		.ascii	"short unsigned int\000"
 4389      7420756E 
 4389      7369676E 
 4389      65642069 
 4389      6E7400
 4390              	.LASF146:
 4391 02e3 64796E32 		.ascii	"dyn2_execute\000"
 4391      5F657865 
 4391      63757465 
 4391      00
ARM GAS  C:\Users\jo\AppData\Local\Temp\cceRVRht.s 			page 81


 4392              	.LASF48:
 4393 02f0 63685F74 		.ascii	"ch_thread\000"
 4393      68726561 
 4393      6400
 4394              	.LASF81:
 4395 02fa 6D61696E 		.ascii	"mainthread\000"
 4395      74687265 
 4395      616400
 4396              	.LASF23:
 4397 0305 6D73675F 		.ascii	"msg_t\000"
 4397      7400
 4398              	.LASF77:
 4399 030b 63685F73 		.ascii	"ch_system_t\000"
 4399      79737465 
 4399      6D5F7400 
 4400              	.LASF19:
 4401 0317 746D6F64 		.ascii	"tmode_t\000"
 4401      655F7400 
 4402              	.LASF171:
 4403 031f 6368506F 		.ascii	"chPoolObjectInit\000"
 4403      6F6C4F62 
 4403      6A656374 
 4403      496E6974 
 4403      00
 4404              	.LASF53:
 4405 0330 63685F72 		.ascii	"ch_ready_list\000"
 4405      65616479 
 4405      5F6C6973 
 4405      7400
 4406              	.LASF24:
 4407 033e 6576656E 		.ascii	"eventmask_t\000"
 4407      746D6173 
 4407      6B5F7400 
 4408              	.LASF7:
 4409 034a 5F5F696E 		.ascii	"__int32_t\000"
 4409      7433325F 
 4409      7400
 4410              	.LASF173:
 4411 0354 63685468 		.ascii	"chThdAddRef\000"
 4411      64416464 
 4411      52656600 
 4412              	.LASF68:
 4413 0360 76697274 		.ascii	"virtual_timers_list_t\000"
 4413      75616C5F 
 4413      74696D65 
 4413      72735F6C 
 4413      6973745F 
 4414              	.LASF175:
 4415 0376 474E5520 		.ascii	"GNU C 4.9.3 20141119 (release) [ARM/embedded-4_9-br"
 4415      4320342E 
 4415      392E3320 
 4415      32303134 
 4415      31313139 
 4416 03a9 616E6368 		.ascii	"anch revision 218278] -mcpu=cortex-m4 -mno-thumb-in"
 4416      20726576 
 4416      6973696F 
 4416      6E203231 
ARM GAS  C:\Users\jo\AppData\Local\Temp\cceRVRht.s 			page 82


 4416      38323738 
 4417 03dc 74657277 		.ascii	"terwork -mthumb -ggdb -O2 -fomit-frame-pointer -fal"
 4417      6F726B20 
 4417      2D6D7468 
 4417      756D6220 
 4417      2D676764 
 4418 040f 69676E2D 		.ascii	"ign-functions=16 -ffunction-sections -fdata-section"
 4418      66756E63 
 4418      74696F6E 
 4418      733D3136 
 4418      202D6666 
 4419 0442 73202D66 		.ascii	"s -fno-common\000"
 4419      6E6F2D63 
 4419      6F6D6D6F 
 4419      6E00
 4420              	.LASF85:
 4421 0450 73746B61 		.ascii	"stkalign_t\000"
 4421      6C69676E 
 4421      5F7400
 4422              	.LASF167:
 4423 045b 63684865 		.ascii	"chHeapObjectInit\000"
 4423      61704F62 
 4423      6A656374 
 4423      496E6974 
 4423      00
 4424              	.LASF47:
 4425 046c 74687265 		.ascii	"threads_list_t\000"
 4425      6164735F 
 4425      6C697374 
 4425      5F7400
 4426              	.LASF39:
 4427 047b 705F7761 		.ascii	"p_waiting\000"
 4427      6974696E 
 4427      6700
 4428              	.LASF83:
 4429 0485 73697A65 		.ascii	"sizetype\000"
 4429      74797065 
 4429      00
 4430              	.LASF46:
 4431 048e 74687265 		.ascii	"thread_reference_t\000"
 4431      61645F72 
 4431      65666572 
 4431      656E6365 
 4431      5F7400
 4432              	.LASF98:
 4433 04a1 746D5F63 		.ascii	"tm_calibration_t\000"
 4433      616C6962 
 4433      72617469 
 4433      6F6E5F74 
 4433      00
 4434              	.LASF69:
 4435 04b2 63685F76 		.ascii	"ch_virtual_timers_list\000"
 4435      69727475 
 4435      616C5F74 
 4435      696D6572 
 4435      735F6C69 
 4436              	.LASF157:
ARM GAS  C:\Users\jo\AppData\Local\Temp\cceRVRht.s 			page 83


 4437 04c9 74657374 		.ascii	"testdyn2\000"
 4437      64796E32 
 4437      00
 4438              	.LASF158:
 4439 04d2 74657374 		.ascii	"testdyn3\000"
 4439      64796E33 
 4439      00
 4440              	.LASF94:
 4441 04db 74625F70 		.ascii	"tb_ptr\000"
 4441      747200
 4442              	.LASF92:
 4443 04e2 63685F73 		.ascii	"ch_swc_event_t\000"
 4443      77635F65 
 4443      76656E74 
 4443      5F7400
 4444              	.LASF70:
 4445 04f1 76745F6C 		.ascii	"vt_lasttime\000"
 4445      61737474 
 4445      696D6500 
 4446              	.LASF156:
 4447 04fd 74657374 		.ascii	"testdyn1\000"
 4447      64796E31 
 4447      00
 4448              	.LASF151:
 4449 0506 64796E33 		.ascii	"dyn3_execute\000"
 4449      5F657865 
 4449      63757465 
 4449      00
 4450              	.LASF33:
 4451 0513 705F6F6C 		.ascii	"p_older\000"
 4451      64657200 
 4452              	.LASF56:
 4453 051b 725F6374 		.ascii	"r_ctx\000"
 4453      7800
 4454              	.LASF129:
 4455 0521 6D705F6F 		.ascii	"mp_object_size\000"
 4455      626A6563 
 4455      745F7369 
 4455      7A6500
 4456              	.LASF141:
 4457 0530 63685468 		.ascii	"chThdGetPriorityX\000"
 4457      64476574 
 4457      5072696F 
 4457      72697479 
 4457      5800
 4458              	.LASF134:
 4459 0542 73657475 		.ascii	"setup\000"
 4459      7000
 4460              	.LASF164:
 4461 0548 5F746573 		.ascii	"_test_assert_sequence\000"
 4461      745F6173 
 4461      73657274 
 4461      5F736571 
 4461      75656E63 
 4462              	.LASF147:
 4463 055e 7072696F 		.ascii	"prio\000"
 4463      00
ARM GAS  C:\Users\jo\AppData\Local\Temp\cceRVRht.s 			page 84


 4464              	.LASF58:
 4465 0563 725F6F6C 		.ascii	"r_older\000"
 4465      64657200 
 4466              	.LASF12:
 4467 056b 5F5F7569 		.ascii	"__uint64_t\000"
 4467      6E743634 
 4467      5F7400
 4468              	.LASF127:
 4469 0576 70685F6E 		.ascii	"ph_next\000"
 4469      65787400 
 4470              	.LASF95:
 4471 057e 74625F62 		.ascii	"tb_buffer\000"
 4471      75666665 
 4471      7200
 4472              	.LASF61:
 4473 0588 76697274 		.ascii	"virtual_timer_t\000"
 4473      75616C5F 
 4473      74696D65 
 4473      725F7400 
 4474              	.LASF29:
 4475 0598 705F7072 		.ascii	"p_prev\000"
 4475      657600
 4476              	.LASF136:
 4477 059f 65786563 		.ascii	"execute\000"
 4477      75746500 
 4478              	.LASF22:
 4479 05a7 74707269 		.ascii	"tprio_t\000"
 4479      6F5F7400 
 4480              	.LASF143:
 4481 05af 74687265 		.ascii	"thread\000"
 4481      616400
 4482              	.LASF72:
 4483 05b6 63685F73 		.ascii	"ch_system_debug\000"
 4483      79737465 
 4483      6D5F6465 
 4483      62756700 
 4484              	.LASF150:
 4485 05c6 5F426F6F 		.ascii	"_Bool\000"
 4485      6C00
 4486              	.LASF15:
 4487 05cc 696E7433 		.ascii	"int32_t\000"
 4487      325F7400 
 4488              	.LASF4:
 4489 05d4 756E7369 		.ascii	"unsigned char\000"
 4489      676E6564 
 4489      20636861 
 4489      7200
 4490              	.LASF137:
 4491 05e2 68656170 		.ascii	"heap_header\000"
 4491      5F686561 
 4491      64657200 
 4492              	.LASF43:
 4493 05ee 705F6D74 		.ascii	"p_mtxlist\000"
 4493      786C6973 
 4493      7400
 4494              	.LASF5:
 4495 05f8 73686F72 		.ascii	"short int\000"
ARM GAS  C:\Users\jo\AppData\Local\Temp\cceRVRht.s 			page 85


 4495      7420696E 
 4495      7400
 4496              	.LASF36:
 4497 0602 705F7374 		.ascii	"p_state\000"
 4497      61746500 
 4498              	.LASF154:
 4499 060a 74687265 		.ascii	"threads\000"
 4499      61647300 
 4500              	.LASF55:
 4501 0612 725F7072 		.ascii	"r_prio\000"
 4501      696F00
 4502              	.LASF105:
 4503 0619 65776D61 		.ascii	"ewmask\000"
 4503      736B00
 4504              	.LASF28:
 4505 0620 705F6E65 		.ascii	"p_next\000"
 4505      787400
 4506              	.LASF37:
 4507 0627 705F666C 		.ascii	"p_flags\000"
 4507      61677300 
 4508              	.LASF174:
 4509 062f 63685468 		.ascii	"chThdRelease\000"
 4509      6452656C 
 4509      65617365 
 4509      00
 4510              	.LASF50:
 4511 063c 74687265 		.ascii	"threads_queue_t\000"
 4511      6164735F 
 4511      71756575 
 4511      655F7400 
 4512              	.LASF162:
 4513 064c 63684865 		.ascii	"chHeapAlloc\000"
 4513      6170416C 
 4513      6C6F6300 
 4514              	.LASF132:
 4515 0658 74657374 		.ascii	"testcase\000"
 4515      63617365 
 4515      00
 4516              	.LASF106:
 4517 0661 63685F73 		.ascii	"ch_semaphore\000"
 4517      656D6170 
 4517      686F7265 
 4517      00
 4518              	.LASF42:
 4519 066e 705F6570 		.ascii	"p_epending\000"
 4519      656E6469 
 4519      6E6700
 4520              	.LASF181:
 4521 0679 63685468 		.ascii	"chThdSleep\000"
 4521      64536C65 
 4521      657000
 4522              	.LASF16:
 4523 0684 75696E74 		.ascii	"uint32_t\000"
 4523      33325F74 
 4523      00
 4524              	.LASF104:
 4525 068d 77746D74 		.ascii	"wtmtxp\000"
ARM GAS  C:\Users\jo\AppData\Local\Temp\cceRVRht.s 			page 86


 4525      787000
 4526              	.LASF54:
 4527 0694 725F7175 		.ascii	"r_queue\000"
 4527      65756500 
 4528              	.LASF65:
 4529 069c 76745F64 		.ascii	"vt_delta\000"
 4529      656C7461 
 4529      00
 4530              	.LASF49:
 4531 06a5 63685F74 		.ascii	"ch_threads_list\000"
 4531      68726561 
 4531      64735F6C 
 4531      69737400 
 4532              	.LASF123:
 4533 06b5 68656170 		.ascii	"heap\000"
 4533      00
 4534              	.LASF144:
 4535 06ba 64796E31 		.ascii	"dyn1_setup\000"
 4535      5F736574 
 4535      757000
 4536              	.LASF10:
 4537 06c5 6C6F6E67 		.ascii	"long unsigned int\000"
 4537      20756E73 
 4537      69676E65 
 4537      6420696E 
 4537      7400
 4538              	.LASF113:
 4539 06d7 63686172 		.ascii	"char\000"
 4539      00
 4540              	.LASF172:
 4541 06dc 63685265 		.ascii	"chRegNextThread\000"
 4541      674E6578 
 4541      74546872 
 4541      65616400 
 4542              	.LASF145:
 4543 06ec 64796E33 		.ascii	"dyn3_setup\000"
 4543      5F736574 
 4543      757000
 4544              	.LASF27:
 4545 06f7 74687265 		.ascii	"thread_t\000"
 4545      61645F74 
 4545      00
 4546              	.LASF160:
 4547 0700 63684865 		.ascii	"chHeapStatus\000"
 4547      61705374 
 4547      61747573 
 4547      00
 4548              	.LASF179:
 4549 070d 74657374 		.ascii	"test_wait_threads\000"
 4549      5F776169 
 4549      745F7468 
 4549      72656164 
 4549      7300
 4550              	.LASF112:
 4551 071f 6D5F6E65 		.ascii	"m_next\000"
 4551      787400
 4552              	.LASF26:
ARM GAS  C:\Users\jo\AppData\Local\Temp\cceRVRht.s 			page 87


 4553 0726 73797374 		.ascii	"systime_t\000"
 4553      696D655F 
 4553      7400
 4554              	.LASF44:
 4555 0730 705F7265 		.ascii	"p_realprio\000"
 4555      616C7072 
 4555      696F00
 4556              	.LASF60:
 4557 073b 76746675 		.ascii	"vtfunc_t\000"
 4557      6E635F74 
 4557      00
 4558              	.LASF9:
 4559 0744 5F5F7569 		.ascii	"__uint32_t\000"
 4559      6E743332 
 4559      5F7400
 4560              	.LASF73:
 4561 074f 70616E69 		.ascii	"panic_msg\000"
 4561      635F6D73 
 4561      6700
 4562              	.LASF159:
 4563 0759 70617474 		.ascii	"patterndyn\000"
 4563      65726E64 
 4563      796E00
 4564              	.LASF97:
 4565 0764 6F666673 		.ascii	"offset\000"
 4565      657400
 4566              	.LASF109:
 4567 076b 63685F6D 		.ascii	"ch_mutex\000"
 4567      75746578 
 4567      00
 4568              	.LASF128:
 4569 0774 6D705F6E 		.ascii	"mp_next\000"
 4569      65787400 
 4570              	.LASF86:
 4571 077c 636F6E74 		.ascii	"context\000"
 4571      65787400 
 4572              	.LASF62:
 4573 0784 63685F76 		.ascii	"ch_virtual_timer\000"
 4573      69727475 
 4573      616C5F74 
 4573      696D6572 
 4573      00
 4574              	.LASF18:
 4575 0795 7274636E 		.ascii	"rtcnt_t\000"
 4575      745F7400 
 4576              	.LASF67:
 4577 079d 76745F70 		.ascii	"vt_par\000"
 4577      617200
 4578              	.LASF149:
 4579 07a4 666F756E 		.ascii	"found\000"
 4579      6400
 4580              	.LASF138:
 4581 07aa 74657374 		.ascii	"test_buffers\000"
 4581      5F627566 
 4581      66657273 
 4581      00
 4582              	.LASF126:
ARM GAS  C:\Users\jo\AppData\Local\Temp\cceRVRht.s 			page 88


 4583 07b7 706F6F6C 		.ascii	"pool_header\000"
 4583      5F686561 
 4583      64657200 
 4584              	.LASF38:
 4585 07c3 705F7265 		.ascii	"p_refs\000"
 4585      667300
 4586              	.LASF74:
 4587 07ca 6973725F 		.ascii	"isr_cnt\000"
 4587      636E7400 
 4588              	.LASF178:
 4589 07d2 72656766 		.ascii	"regfind\000"
 4589      696E6400 
 4590              	.LASF79:
 4591 07da 726C6973 		.ascii	"rlist\000"
 4591      7400
 4592              	.LASF140:
 4593 07e0 63685468 		.ascii	"chThdGetSelfX\000"
 4593      64476574 
 4593      53656C66 
 4593      5800
 4594              	.LASF14:
 4595 07ee 75696E74 		.ascii	"uint8_t\000"
 4595      385F7400 
 4596              	.LASF170:
 4597 07f6 6368506F 		.ascii	"chPoolAlloc\000"
 4597      6F6C416C 
 4597      6C6F6300 
 4598              	.LASF168:
 4599 0802 6368506F 		.ascii	"chPoolFree\000"
 4599      6F6C4672 
 4599      656500
 4600              	.LASF119:
 4601 080d 685F7072 		.ascii	"h_provider\000"
 4601      6F766964 
 4601      657200
 4602              	.LASF101:
 4603 0818 77746F62 		.ascii	"wtobjp\000"
 4603      6A7000
 4604              	.LASF34:
 4605 081f 705F6E61 		.ascii	"p_name\000"
 4605      6D6500
 4606              	.LASF125:
 4607 0826 73697A65 		.ascii	"size\000"
 4607      00
 4608              	.LASF163:
 4609 082b 5F746573 		.ascii	"_test_assert\000"
 4609      745F6173 
 4609      73657274 
 4609      00
 4610              	.LASF176:
 4611 0838 2E2E2F2E 		.ascii	"../../../test/rt/testdyn.c\000"
 4611      2E2F2E2E 
 4611      2F746573 
 4611      742F7274 
 4611      2F746573 
 4612              	.LASF59:
 4613 0853 725F6375 		.ascii	"r_current\000"
ARM GAS  C:\Users\jo\AppData\Local\Temp\cceRVRht.s 			page 89


 4613      7272656E 
 4613      7400
 4614              	.LASF76:
 4615 085d 74726163 		.ascii	"trace_buffer\000"
 4615      655F6275 
 4615      66666572 
 4615      00
 4616              	.LASF41:
 4617 086a 705F6D73 		.ascii	"p_msg\000"
 4617      6700
 4618              	.LASF111:
 4619 0870 6D5F6F77 		.ascii	"m_owner\000"
 4619      6E657200 
 4620              	.LASF90:
 4621 0878 73655F77 		.ascii	"se_wtobjp\000"
 4621      746F626A 
 4621      7000
 4622              	.LASF31:
 4623 0882 705F6374 		.ascii	"p_ctx\000"
 4623      7800
 4624              	.LASF66:
 4625 0888 76745F66 		.ascii	"vt_func\000"
 4625      756E6300 
 4626              	.LASF152:
 4627 0890 68656170 		.ascii	"heap1\000"
 4627      3100
 4628              	.LASF118:
 4629 0896 6D656D6F 		.ascii	"memory_heap\000"
 4629      72795F68 
 4629      65617000 
 4630              		.ident	"GCC: (GNU Tools for ARM Embedded Processors) 4.9.3 20141119 (release) [ARM/embedded-4_9-br
ARM GAS  C:\Users\jo\AppData\Local\Temp\cceRVRht.s 			page 90


DEFINED SYMBOLS
                            *ABS*:00000000 testdyn.c
C:\Users\jo\AppData\Local\Temp\cceRVRht.s:19     .text.dyn1_execute:00000000 $t
C:\Users\jo\AppData\Local\Temp\cceRVRht.s:24     .text.dyn1_execute:00000000 dyn1_execute
C:\Users\jo\AppData\Local\Temp\cceRVRht.s:196    .text.dyn1_execute:000000d4 $d
C:\Users\jo\AppData\Local\Temp\cceRVRht.s:213    .text.thread:00000000 thread
C:\Users\jo\AppData\Local\Temp\cceRVRht.s:208    .text.thread:00000000 $t
C:\Users\jo\AppData\Local\Temp\cceRVRht.s:230    .text.dyn1_setup:00000000 $t
C:\Users\jo\AppData\Local\Temp\cceRVRht.s:235    .text.dyn1_setup:00000000 dyn1_setup
C:\Users\jo\AppData\Local\Temp\cceRVRht.s:251    .text.dyn1_setup:0000000c $d
C:\Users\jo\AppData\Local\Temp\cceRVRht.s:257    .text.dyn3_setup:00000000 $t
C:\Users\jo\AppData\Local\Temp\cceRVRht.s:262    .text.dyn3_setup:00000000 dyn3_setup
C:\Users\jo\AppData\Local\Temp\cceRVRht.s:278    .text.dyn3_setup:0000000c $d
C:\Users\jo\AppData\Local\Temp\cceRVRht.s:284    .text.dyn2_execute:00000000 $t
C:\Users\jo\AppData\Local\Temp\cceRVRht.s:289    .text.dyn2_execute:00000000 dyn2_execute
C:\Users\jo\AppData\Local\Temp\cceRVRht.s:458    .text.dyn2_execute:000000c8 $d
C:\Users\jo\AppData\Local\Temp\cceRVRht.s:473    .text.dyn2_setup:00000000 $t
C:\Users\jo\AppData\Local\Temp\cceRVRht.s:478    .text.dyn2_setup:00000000 dyn2_setup
C:\Users\jo\AppData\Local\Temp\cceRVRht.s:494    .text.dyn2_setup:0000000c $d
C:\Users\jo\AppData\Local\Temp\cceRVRht.s:499    .text.regfind:00000000 $t
C:\Users\jo\AppData\Local\Temp\cceRVRht.s:504    .text.regfind:00000000 regfind
C:\Users\jo\AppData\Local\Temp\cceRVRht.s:550    .text.dyn3_execute:00000000 $t
C:\Users\jo\AppData\Local\Temp\cceRVRht.s:555    .text.dyn3_execute:00000000 dyn3_execute
C:\Users\jo\AppData\Local\Temp\cceRVRht.s:754    .text.dyn3_execute:00000130 $d
C:\Users\jo\AppData\Local\Temp\cceRVRht.s:833    .rodata.patterndyn:00000000 patterndyn
C:\Users\jo\AppData\Local\Temp\cceRVRht.s:787    .rodata.testdyn3:00000000 testdyn3
C:\Users\jo\AppData\Local\Temp\cceRVRht.s:778    .rodata.testdyn2:00000000 testdyn2
C:\Users\jo\AppData\Local\Temp\cceRVRht.s:769    .rodata.testdyn1:00000000 testdyn1
C:\Users\jo\AppData\Local\Temp\cceRVRht.s:766    .rodata.testdyn1:00000000 $d
C:\Users\jo\AppData\Local\Temp\cceRVRht.s:775    .rodata.testdyn2:00000000 $d
C:\Users\jo\AppData\Local\Temp\cceRVRht.s:784    .rodata.testdyn3:00000000 $d
C:\Users\jo\AppData\Local\Temp\cceRVRht.s:793    .bss.mp1:00000000 $d
C:\Users\jo\AppData\Local\Temp\cceRVRht.s:797    .bss.mp1:00000000 mp1
C:\Users\jo\AppData\Local\Temp\cceRVRht.s:800    .rodata.str1.4:00000000 $d
C:\Users\jo\AppData\Local\Temp\cceRVRht.s:830    .rodata.patterndyn:00000000 $d
C:\Users\jo\AppData\Local\Temp\cceRVRht.s:839    .bss.heap1:00000000 $d
C:\Users\jo\AppData\Local\Temp\cceRVRht.s:843    .bss.heap1:00000000 heap1
                     .debug_frame:00000010 $d
C:\Users\jo\AppData\Local\Temp\cceRVRht.s:207    .text.dyn1_execute:000000f4 $t
C:\Users\jo\AppData\Local\Temp\cceRVRht.s:256    .text.dyn1_setup:00000014 $t
C:\Users\jo\AppData\Local\Temp\cceRVRht.s:283    .text.dyn3_setup:00000014 $t
C:\Users\jo\AppData\Local\Temp\cceRVRht.s:472    .text.dyn2_execute:000000f4 $t

UNDEFINED SYMBOLS
chHeapStatus
chThdCreateFromHeap
chHeapAlloc
chHeapFree
_test_assert
test_wait_threads
_test_assert_sequence
ch
threads
test_emit_token
chHeapObjectInit
test
chPoolFree
ARM GAS  C:\Users\jo\AppData\Local\Temp\cceRVRht.s 			page 91


chThdCreateFromMemoryPool
chPoolAlloc
wa
chPoolObjectInit
chRegFirstThread
chRegNextThread
chThdAddRef
chThdRelease
chThdSleep
