ARM GAS  C:\Users\jo\AppData\Local\Temp\cceRVRht.s 			page 1


   1              		.syntax unified
   2              		.cpu cortex-m4
   3              		.fpu softvfp
   4              		.eabi_attribute 20, 1
   5              		.eabi_attribute 21, 1
   6              		.eabi_attribute 23, 3
   7              		.eabi_attribute 24, 1
   8              		.eabi_attribute 25, 1
   9              		.eabi_attribute 26, 1
  10              		.eabi_attribute 30, 2
  11              		.eabi_attribute 34, 1
  12              		.eabi_attribute 18, 4
  13              		.thumb
  14              		.file	"testdyn.c"
  15              		.text
  16              	.Ltext0:
  17              		.cfi_sections	.debug_frame
  18              		.section	.text.dyn1_execute,"ax",%progbits
  19              		.align	2
  20              		.p2align 4,,15
  21              		.thumb
  22              		.thumb_func
  23              		.type	dyn1_execute, %function
  24              	dyn1_execute:
  25              	.LFB230:
  26              		.file 1 "../../../test/rt/testdyn.c"
  27              		.loc 1 82 0
  28              		.cfi_startproc
  29              		@ args = 0, pretend = 0, frame = 8
  30              		@ frame_needed = 0, uses_anonymous_args = 0
  31 0000 70B5     		push	{r4, r5, r6, lr}
  32              		.cfi_def_cfa_offset 16
  33              		.cfi_offset 4, -16
  34              		.cfi_offset 5, -12
  35              		.cfi_offset 6, -8
  36              		.cfi_offset 14, -4
  37              	.LBB16:
  38              	.LBB17:
  39              	.LBB18:
  40              	.LBB19:
  41              		.file 2 "../../../os/rt/include/chthreads.h"
  42              		.loc 2 176 0
  43 0002 344B     		ldr	r3, .L13
  44              	.LBE19:
  45              	.LBE18:
  46              	.LBE17:
  47              	.LBE16:
  48              		.loc 1 87 0
  49 0004 3448     		ldr	r0, .L13+4
  50              	.LBB22:
  51              	.LBB20:
  52              		.loc 2 189 0
  53 0006 9B69     		ldr	r3, [r3, #24]
  54              	.LBE20:
  55              	.LBE22:
  56              		.loc 1 89 0
  57 0008 344C     		ldr	r4, .L13+8
ARM GAS  C:\Users\jo\AppData\Local\Temp\cceRVRht.s 			page 2


  58              	.LBB23:
  59              	.LBB21:
  60              		.loc 2 189 0
  61 000a 9D68     		ldr	r5, [r3, #8]
  62              	.LBE21:
  63              	.LBE23:
  64              		.loc 1 82 0
  65 000c 84B0     		sub	sp, sp, #16
  66              		.cfi_def_cfa_offset 32
  67              		.loc 1 87 0
  68 000e 03A9     		add	r1, sp, #12
  69 0010 FFF7FEFF 		bl	chHeapStatus
  70              	.LVL0:
  71              		.loc 1 89 0
  72 0014 324B     		ldr	r3, .L13+12
  73 0016 0093     		str	r3, [sp]
  74 0018 6A1E     		subs	r2, r5, #1
  75 001a 324B     		ldr	r3, .L13+16
  76 001c 2E48     		ldr	r0, .L13+4
  77 001e 4FF4A871 		mov	r1, #336
  78 0022 FFF7FEFF 		bl	chThdCreateFromHeap
  79              	.LVL1:
  80              		.loc 1 92 0
  81 0026 304B     		ldr	r3, .L13+20
  82              		.loc 1 89 0
  83 0028 2060     		str	r0, [r4]
  84              		.loc 1 92 0
  85 002a AA1E     		subs	r2, r5, #2
  86 002c 0093     		str	r3, [sp]
  87 002e 4FF4A871 		mov	r1, #336
  88 0032 2C4B     		ldr	r3, .L13+16
  89 0034 2848     		ldr	r0, .L13+4
  90 0036 FFF7FEFF 		bl	chThdCreateFromHeap
  91              	.LVL2:
  92              		.loc 1 96 0
  93 003a 02A9     		add	r1, sp, #8
  94              		.loc 1 92 0
  95 003c 6060     		str	r0, [r4, #4]
  96              		.loc 1 96 0
  97 003e 2648     		ldr	r0, .L13+4
  98 0040 FFF7FEFF 		bl	chHeapStatus
  99              	.LVL3:
 100              		.loc 1 97 0
 101 0044 0299     		ldr	r1, [sp, #8]
 102 0046 2448     		ldr	r0, .L13+4
 103 0048 FFF7FEFF 		bl	chHeapAlloc
 104              	.LVL4:
 105              		.loc 1 98 0
 106 004c 274B     		ldr	r3, .L13+24
 107 004e 0093     		str	r3, [sp]
 108 0050 4FF4A871 		mov	r1, #336
 109              		.loc 1 97 0
 110 0054 0646     		mov	r6, r0
 111              	.LVL5:
 112              		.loc 1 98 0
 113 0056 EA1E     		subs	r2, r5, #3
 114 0058 224B     		ldr	r3, .L13+16
ARM GAS  C:\Users\jo\AppData\Local\Temp\cceRVRht.s 			page 3


 115 005a 1F48     		ldr	r0, .L13+4
 116              	.LVL6:
 117 005c FFF7FEFF 		bl	chThdCreateFromHeap
 118              	.LVL7:
 119 0060 A060     		str	r0, [r4, #8]
 120              		.loc 1 101 0
 121 0062 3046     		mov	r0, r6
 122 0064 FFF7FEFF 		bl	chHeapFree
 123              	.LVL8:
 124              		.loc 1 103 0
 125 0068 2168     		ldr	r1, [r4]
 126 006a 21B1     		cbz	r1, .L2
 127              		.loc 1 103 0 is_stmt 0 discriminator 1
 128 006c 6168     		ldr	r1, [r4, #4]
 129 006e 11B1     		cbz	r1, .L2
 130              		.loc 1 103 0 discriminator 3
 131 0070 A168     		ldr	r1, [r4, #8]
 132 0072 31B3     		cbz	r1, .L11
 133 0074 0021     		movs	r1, #0
 134              	.L2:
 135              		.loc 1 103 0 discriminator 12
 136 0076 0120     		movs	r0, #1
 137 0078 FFF7FEFF 		bl	_test_assert
 138              	.LVL9:
 139 007c 08B1     		cbz	r0, .L12
 140              	.L1:
 141              		.loc 1 117 0 is_stmt 1
 142 007e 04B0     		add	sp, sp, #16
 143              		.cfi_remember_state
 144              		.cfi_def_cfa_offset 16
 145              		@ sp needed
 146 0080 70BD     		pop	{r4, r5, r6, pc}
 147              	.LVL10:
 148              	.L12:
 149              		.cfi_restore_state
 150              		.loc 1 111 0
 151 0082 FFF7FEFF 		bl	test_wait_threads
 152              	.LVL11:
 153              		.loc 1 112 0
 154 0086 0220     		movs	r0, #2
 155 0088 1949     		ldr	r1, .L13+28
 156 008a FFF7FEFF 		bl	_test_assert_sequence
 157              	.LVL12:
 158 008e 0028     		cmp	r0, #0
 159 0090 F5D1     		bne	.L1
 160              		.loc 1 115 0
 161 0092 02A9     		add	r1, sp, #8
 162 0094 1048     		ldr	r0, .L13+4
 163 0096 FFF7FEFF 		bl	chHeapStatus
 164              	.LVL13:
 165 009a A0F10101 		sub	r1, r0, #1
 166 009e 0320     		movs	r0, #3
 167 00a0 B1FA81F1 		clz	r1, r1
 168 00a4 4909     		lsrs	r1, r1, #5
 169 00a6 FFF7FEFF 		bl	_test_assert
 170              	.LVL14:
 171 00aa 0028     		cmp	r0, #0
ARM GAS  C:\Users\jo\AppData\Local\Temp\cceRVRht.s 			page 4


 172 00ac E7D1     		bne	.L1
 173              		.loc 1 116 0
 174 00ae 0299     		ldr	r1, [sp, #8]
 175 00b0 039B     		ldr	r3, [sp, #12]
 176 00b2 0420     		movs	r0, #4
 177 00b4 C91A     		subs	r1, r1, r3
 178 00b6 B1FA81F1 		clz	r1, r1
 179 00ba 4909     		lsrs	r1, r1, #5
 180 00bc FFF7FEFF 		bl	_test_assert
 181              	.LVL15:
 182 00c0 DDE7     		b	.L1
 183              	.L11:
 184              		.loc 1 103 0 discriminator 5
 185 00c2 E368     		ldr	r3, [r4, #12]
 186 00c4 002B     		cmp	r3, #0
 187 00c6 D6D1     		bne	.L2
 188              		.loc 1 103 0 is_stmt 0 discriminator 7
 189 00c8 2169     		ldr	r1, [r4, #16]
 190 00ca B1FA81F1 		clz	r1, r1
 191 00ce 4909     		lsrs	r1, r1, #5
 192 00d0 D1E7     		b	.L2
 193              	.L14:
 194 00d2 00BF     		.align	2
 195              	.L13:
 196 00d4 00000000 		.word	ch
 197 00d8 00000000 		.word	.LANCHOR0
 198 00dc 00000000 		.word	threads
 199 00e0 00000000 		.word	.LC0
 200 00e4 00000000 		.word	thread
 201 00e8 04000000 		.word	.LC1
 202 00ec 08000000 		.word	.LC2
 203 00f0 0C000000 		.word	.LC3
 204              		.cfi_endproc
 205              	.LFE230:
 206              		.size	dyn1_execute, .-dyn1_execute
 207 00f4 AFF30080 		.section	.text.thread,"ax",%progbits
 207      AFF30080 
 207      AFF30080 
 208              		.align	2
 209              		.p2align 4,,15
 210              		.thumb
 211              		.thumb_func
 212              		.type	thread, %function
 213              	thread:
 214              	.LFB228:
 215              		.loc 1 71 0 is_stmt 1
 216              		.cfi_startproc
 217              		@ args = 0, pretend = 0, frame = 0
 218              		@ frame_needed = 0, uses_anonymous_args = 0
 219              		@ link register save eliminated.
 220              	.LVL16:
 221              		.loc 1 73 0
 222 0000 0078     		ldrb	r0, [r0]	@ zero_extendqisi2
 223              	.LVL17:
 224 0002 FFF7FEBF 		b	test_emit_token
 225              	.LVL18:
 226              		.cfi_endproc
ARM GAS  C:\Users\jo\AppData\Local\Temp\cceRVRht.s 			page 5


 227              	.LFE228:
 228              		.size	thread, .-thread
 229 0006 00BFAFF3 		.section	.text.dyn1_setup,"ax",%progbits
 229      0080AFF3 
 229      0080
 230              		.align	2
 231              		.p2align 4,,15
 232              		.thumb
 233              		.thumb_func
 234              		.type	dyn1_setup, %function
 235              	dyn1_setup:
 236              	.LFB229:
 237              		.loc 1 77 0
 238              		.cfi_startproc
 239              		@ args = 0, pretend = 0, frame = 0
 240              		@ frame_needed = 0, uses_anonymous_args = 0
 241              		@ link register save eliminated.
 242              		.loc 1 79 0
 243 0000 0248     		ldr	r0, .L17
 244 0002 0349     		ldr	r1, .L17+4
 245 0004 4FF4D262 		mov	r2, #1680
 246 0008 FFF7FEBF 		b	chHeapObjectInit
 247              	.LVL19:
 248              	.L18:
 249              		.align	2
 250              	.L17:
 251 000c 00000000 		.word	.LANCHOR0
 252 0010 00000000 		.word	test
 253              		.cfi_endproc
 254              	.LFE229:
 255              		.size	dyn1_setup, .-dyn1_setup
 256 0014 AFF30080 		.section	.text.dyn3_setup,"ax",%progbits
 256      AFF30080 
 256      AFF30080 
 257              		.align	2
 258              		.p2align 4,,15
 259              		.thumb
 260              		.thumb_func
 261              		.type	dyn3_setup, %function
 262              	dyn3_setup:
 263              	.LFB234:
 264              		.loc 1 204 0
 265              		.cfi_startproc
 266              		@ args = 0, pretend = 0, frame = 0
 267              		@ frame_needed = 0, uses_anonymous_args = 0
 268              		@ link register save eliminated.
 269              		.loc 1 206 0
 270 0000 0248     		ldr	r0, .L20
 271 0002 0349     		ldr	r1, .L20+4
 272 0004 4FF4D262 		mov	r2, #1680
 273 0008 FFF7FEBF 		b	chHeapObjectInit
 274              	.LVL20:
 275              	.L21:
 276              		.align	2
 277              	.L20:
 278 000c 00000000 		.word	.LANCHOR0
 279 0010 00000000 		.word	test
ARM GAS  C:\Users\jo\AppData\Local\Temp\cceRVRht.s 			page 6


 280              		.cfi_endproc
 281              	.LFE234:
 282              		.size	dyn3_setup, .-dyn3_setup
 283 0014 AFF30080 		.section	.text.dyn2_execute,"ax",%progbits
 283      AFF30080 
 283      AFF30080 
 284              		.align	2
 285              		.p2align 4,,15
 286              		.thumb
 287              		.thumb_func
 288              		.type	dyn2_execute, %function
 289              	dyn2_execute:
 290              	.LFB232:
 291              		.loc 1 143 0
 292              		.cfi_startproc
 293              		@ args = 0, pretend = 0, frame = 0
 294              		@ frame_needed = 0, uses_anonymous_args = 0
 295              	.LBB24:
 296              	.LBB25:
 297              	.LBB26:
 298              	.LBB27:
 299              		.loc 2 176 0
 300 0000 314B     		ldr	r3, .L37
 301              	.LBE27:
 302              	.LBE26:
 303              		.loc 2 189 0
 304 0002 9B69     		ldr	r3, [r3, #24]
 305              	.LBE25:
 306              	.LBE24:
 307              		.loc 1 143 0
 308 0004 70B5     		push	{r4, r5, r6, lr}
 309              		.cfi_def_cfa_offset 16
 310              		.cfi_offset 4, -16
 311              		.cfi_offset 5, -12
 312              		.cfi_offset 6, -8
 313              		.cfi_offset 14, -4
 314 0006 314C     		ldr	r4, .L37+4
 315              	.LBB29:
 316              	.LBB28:
 317              		.loc 2 189 0
 318 0008 9D68     		ldr	r5, [r3, #8]
 319              	.LVL21:
 320 000a 04F11006 		add	r6, r4, #16
 321              	.LVL22:
 322              	.L23:
 323              	.LBE28:
 324              	.LBE29:
 325              		.loc 1 149 0 discriminator 3
 326 000e 54F8041B 		ldr	r1, [r4], #4
 327 0012 2F48     		ldr	r0, .L37+8
 328 0014 FFF7FEFF 		bl	chPoolFree
 329              	.LVL23:
 330              		.loc 1 148 0 discriminator 3
 331 0018 B442     		cmp	r4, r6
 332 001a F8D1     		bne	.L23
 333              		.loc 1 152 0
 334 001c 2D4A     		ldr	r2, .L37+12
ARM GAS  C:\Users\jo\AppData\Local\Temp\cceRVRht.s 			page 7


 335 001e 2E4B     		ldr	r3, .L37+16
 336 0020 2B48     		ldr	r0, .L37+8
 337 0022 2E4C     		ldr	r4, .L37+20
 338 0024 691E     		subs	r1, r5, #1
 339 0026 FFF7FEFF 		bl	chThdCreateFromMemoryPool
 340              	.LVL24:
 341              		.loc 1 153 0
 342 002a A91E     		subs	r1, r5, #2
 343              		.loc 1 152 0
 344 002c 2060     		str	r0, [r4]
 345              		.loc 1 153 0
 346 002e 294A     		ldr	r2, .L37+12
 347 0030 2B4B     		ldr	r3, .L37+24
 348 0032 2748     		ldr	r0, .L37+8
 349 0034 FFF7FEFF 		bl	chThdCreateFromMemoryPool
 350              	.LVL25:
 351              		.loc 1 154 0
 352 0038 E91E     		subs	r1, r5, #3
 353              		.loc 1 153 0
 354 003a 6060     		str	r0, [r4, #4]
 355              		.loc 1 154 0
 356 003c 254A     		ldr	r2, .L37+12
 357 003e 294B     		ldr	r3, .L37+28
 358 0040 2348     		ldr	r0, .L37+8
 359 0042 FFF7FEFF 		bl	chThdCreateFromMemoryPool
 360              	.LVL26:
 361              		.loc 1 155 0
 362 0046 291F     		subs	r1, r5, #4
 363              		.loc 1 154 0
 364 0048 A060     		str	r0, [r4, #8]
 365              		.loc 1 155 0
 366 004a 224A     		ldr	r2, .L37+12
 367 004c 264B     		ldr	r3, .L37+32
 368 004e 2048     		ldr	r0, .L37+8
 369 0050 FFF7FEFF 		bl	chThdCreateFromMemoryPool
 370              	.LVL27:
 371              		.loc 1 156 0
 372 0054 691F     		subs	r1, r5, #5
 373              		.loc 1 155 0
 374 0056 E060     		str	r0, [r4, #12]
 375              		.loc 1 156 0
 376 0058 1E4A     		ldr	r2, .L37+12
 377 005a 1D48     		ldr	r0, .L37+8
 378 005c 234B     		ldr	r3, .L37+36
 379 005e FFF7FEFF 		bl	chThdCreateFromMemoryPool
 380              	.LVL28:
 381              		.loc 1 158 0
 382 0062 2168     		ldr	r1, [r4]
 383              		.loc 1 156 0
 384 0064 2061     		str	r0, [r4, #16]
 385              		.loc 1 158 0
 386 0066 41B1     		cbz	r1, .L24
 387              		.loc 1 158 0 is_stmt 0 discriminator 1
 388 0068 6168     		ldr	r1, [r4, #4]
 389 006a 31B1     		cbz	r1, .L24
 390              		.loc 1 158 0 discriminator 3
 391 006c A168     		ldr	r1, [r4, #8]
ARM GAS  C:\Users\jo\AppData\Local\Temp\cceRVRht.s 			page 8


 392 006e 21B1     		cbz	r1, .L24
 393              		.loc 1 158 0 discriminator 5
 394 0070 E168     		ldr	r1, [r4, #12]
 395 0072 11B1     		cbz	r1, .L24
 396              		.loc 1 158 0 discriminator 7
 397 0074 B0FA80F1 		clz	r1, r0
 398 0078 4909     		lsrs	r1, r1, #5
 399              	.L24:
 400              		.loc 1 158 0 discriminator 12
 401 007a 0120     		movs	r0, #1
 402 007c FFF7FEFF 		bl	_test_assert
 403              	.LVL29:
 404 0080 00B1     		cbz	r0, .L36
 405              	.L22:
 406 0082 70BD     		pop	{r4, r5, r6, pc}
 407              	.L36:
 408              		.loc 1 166 0 is_stmt 1
 409 0084 FFF7FEFF 		bl	test_wait_threads
 410              	.LVL30:
 411              		.loc 1 167 0
 412 0088 0220     		movs	r0, #2
 413 008a 1949     		ldr	r1, .L37+40
 414 008c FFF7FEFF 		bl	_test_assert_sequence
 415              	.LVL31:
 416 0090 0028     		cmp	r0, #0
 417 0092 F6D1     		bne	.L22
 418 0094 0424     		movs	r4, #4
 419              	.L28:
 420              	.LVL32:
 421              		.loc 1 171 0
 422 0096 0E48     		ldr	r0, .L37+8
 423 0098 FFF7FEFF 		bl	chPoolAlloc
 424              	.LVL33:
 425 009c 011C     		adds	r1, r0, #0
 426 009e 18BF     		it	ne
 427 00a0 0121     		movne	r1, #1
 428 00a2 0320     		movs	r0, #3
 429 00a4 FFF7FEFF 		bl	_test_assert
 430              	.LVL34:
 431 00a8 0028     		cmp	r0, #0
 432 00aa EAD1     		bne	.L22
 433              		.loc 1 170 0 discriminator 2
 434 00ac 013C     		subs	r4, r4, #1
 435              	.LVL35:
 436 00ae F2D1     		bne	.L28
 437              		.loc 1 172 0
 438 00b0 0748     		ldr	r0, .L37+8
 439 00b2 FFF7FEFF 		bl	chPoolAlloc
 440              	.LVL36:
 441              		.loc 1 173 0
 442 00b6 BDE87040 		pop	{r4, r5, r6, lr}
 443              		.cfi_restore 14
 444              		.cfi_restore 6
 445              		.cfi_restore 5
 446              		.cfi_restore 4
 447              		.cfi_def_cfa_offset 0
 448              	.LVL37:
ARM GAS  C:\Users\jo\AppData\Local\Temp\cceRVRht.s 			page 9


 449              		.loc 1 172 0
 450 00ba B0FA80F1 		clz	r1, r0
 451 00be 0420     		movs	r0, #4
 452 00c0 4909     		lsrs	r1, r1, #5
 453 00c2 FFF7FEBF 		b	_test_assert
 454              	.LVL38:
 455              	.L38:
 456 00c6 00BF     		.align	2
 457              	.L37:
 458 00c8 00000000 		.word	ch
 459 00cc 00000000 		.word	wa
 460 00d0 00000000 		.word	.LANCHOR1
 461 00d4 00000000 		.word	thread
 462 00d8 00000000 		.word	.LC0
 463 00dc 00000000 		.word	threads
 464 00e0 04000000 		.word	.LC1
 465 00e4 08000000 		.word	.LC2
 466 00e8 10000000 		.word	.LC4
 467 00ec 14000000 		.word	.LC5
 468 00f0 18000000 		.word	.LC6
 469              		.cfi_endproc
 470              	.LFE232:
 471              		.size	dyn2_execute, .-dyn2_execute
 472 00f4 AFF30080 		.section	.text.dyn2_setup,"ax",%progbits
 472      AFF30080 
 472      AFF30080 
 473              		.align	2
 474              		.p2align 4,,15
 475              		.thumb
 476              		.thumb_func
 477              		.type	dyn2_setup, %function
 478              	dyn2_setup:
 479              	.LFB231:
 480              		.loc 1 138 0
 481              		.cfi_startproc
 482              		@ args = 0, pretend = 0, frame = 0
 483              		@ frame_needed = 0, uses_anonymous_args = 0
 484              		@ link register save eliminated.
 485              		.loc 1 140 0
 486 0000 0248     		ldr	r0, .L40
 487 0002 4FF4A871 		mov	r1, #336
 488 0006 0022     		movs	r2, #0
 489 0008 FFF7FEBF 		b	chPoolObjectInit
 490              	.LVL39:
 491              	.L41:
 492              		.align	2
 493              	.L40:
 494 000c 00000000 		.word	.LANCHOR1
 495              		.cfi_endproc
 496              	.LFE231:
 497              		.size	dyn2_setup, .-dyn2_setup
 498              		.section	.text.regfind,"ax",%progbits
 499              		.align	2
 500              		.p2align 4,,15
 501              		.thumb
 502              		.thumb_func
 503              		.type	regfind, %function
ARM GAS  C:\Users\jo\AppData\Local\Temp\cceRVRht.s 			page 10


 504              	regfind:
 505              	.LFB233:
 506              		.loc 1 192 0
 507              		.cfi_startproc
 508              		@ args = 0, pretend = 0, frame = 0
 509              		@ frame_needed = 0, uses_anonymous_args = 0
 510              	.LVL40:
 511 0000 38B5     		push	{r3, r4, r5, lr}
 512              		.cfi_def_cfa_offset 16
 513              		.cfi_offset 3, -16
 514              		.cfi_offset 4, -12
 515              		.cfi_offset 5, -8
 516              		.cfi_offset 14, -4
 517              		.loc 1 192 0
 518 0002 0546     		mov	r5, r0
 519              		.loc 1 196 0
 520 0004 FFF7FEFF 		bl	chRegFirstThread
 521              	.LVL41:
 522              		.loc 1 194 0
 523 0008 0024     		movs	r4, #0
 524              		.loc 1 196 0
 525 000a 0346     		mov	r3, r0
 526              	.LVL42:
 527              	.L43:
 528              		.loc 1 199 0 discriminator 1
 529 000c 1846     		mov	r0, r3
 530              		.loc 1 198 0 discriminator 1
 531 000e AB42     		cmp	r3, r5
 532 0010 08BF     		it	eq
 533 0012 44F00104 		orreq	r4, r4, #1
 534              	.LVL43:
 535              		.loc 1 199 0 discriminator 1
 536 0016 FFF7FEFF 		bl	chRegNextThread
 537              	.LVL44:
 538              		.loc 1 200 0 discriminator 1
 539 001a 0346     		mov	r3, r0
 540 001c 0028     		cmp	r0, #0
 541 001e F5D1     		bne	.L43
 542              		.loc 1 202 0
 543 0020 2046     		mov	r0, r4
 544              	.LVL45:
 545 0022 38BD     		pop	{r3, r4, r5, pc}
 546              		.cfi_endproc
 547              	.LFE233:
 548              		.size	regfind, .-regfind
 549 0024 AFF30080 		.section	.text.dyn3_execute,"ax",%progbits
 549      AFF30080 
 549      AFF30080 
 550              		.align	2
 551              		.p2align 4,,15
 552              		.thumb
 553              		.thumb_func
 554              		.type	dyn3_execute, %function
 555              	dyn3_execute:
 556              	.LFB235:
 557              		.loc 1 209 0
 558              		.cfi_startproc
ARM GAS  C:\Users\jo\AppData\Local\Temp\cceRVRht.s 			page 11


 559              		@ args = 0, pretend = 0, frame = 0
 560              		@ frame_needed = 0, uses_anonymous_args = 0
 561 0000 10B5     		push	{r4, lr}
 562              		.cfi_def_cfa_offset 8
 563              		.cfi_offset 4, -8
 564              		.cfi_offset 14, -4
 565              	.LBB30:
 566              	.LBB31:
 567              	.LBB32:
 568              	.LBB33:
 569              		.loc 2 176 0
 570 0002 4B4B     		ldr	r3, .L52
 571              	.LBE33:
 572              	.LBE32:
 573              	.LBE31:
 574              	.LBE30:
 575              		.loc 1 214 0
 576 0004 4B49     		ldr	r1, .L52+4
 577              	.LBB35:
 578              	.LBB34:
 579              		.loc 2 189 0
 580 0006 9B69     		ldr	r3, [r3, #24]
 581              	.LBE34:
 582              	.LBE35:
 583              		.loc 1 214 0
 584 0008 4B48     		ldr	r0, .L52+8
 585 000a 9A68     		ldr	r2, [r3, #8]
 586 000c 4B4B     		ldr	r3, .L52+12
 587              		.loc 1 209 0
 588 000e 82B0     		sub	sp, sp, #8
 589              		.cfi_def_cfa_offset 16
 590              		.loc 1 214 0
 591 0010 013A     		subs	r2, r2, #1
 592 0012 0091     		str	r1, [sp]
 593 0014 4FF4A871 		mov	r1, #336
 594 0018 FFF7FEFF 		bl	chThdCreateFromHeap
 595              	.LVL46:
 596 001c 0446     		mov	r4, r0
 597              	.LVL47:
 598              		.loc 1 215 0
 599 001e 0120     		movs	r0, #1
 600              	.LVL48:
 601 0020 94F82210 		ldrb	r1, [r4, #34]	@ zero_extendqisi2
 602 0024 091A     		subs	r1, r1, r0
 603 0026 B1FA81F1 		clz	r1, r1
 604 002a 4909     		lsrs	r1, r1, #5
 605 002c FFF7FEFF 		bl	_test_assert
 606              	.LVL49:
 607 0030 08B1     		cbz	r0, .L51
 608              	.L46:
 609              		.loc 1 237 0
 610 0032 02B0     		add	sp, sp, #8
 611              		.cfi_remember_state
 612              		.cfi_def_cfa_offset 8
 613              		@ sp needed
 614 0034 10BD     		pop	{r4, pc}
 615              	.LVL50:
ARM GAS  C:\Users\jo\AppData\Local\Temp\cceRVRht.s 			page 12


 616              	.L51:
 617              		.cfi_restore_state
 618              		.loc 1 216 0
 619 0036 2046     		mov	r0, r4
 620 0038 FFF7FEFF 		bl	chThdAddRef
 621              	.LVL51:
 622              		.loc 1 217 0
 623 003c 94F82210 		ldrb	r1, [r4, #34]	@ zero_extendqisi2
 624 0040 0220     		movs	r0, #2
 625 0042 091A     		subs	r1, r1, r0
 626 0044 B1FA81F1 		clz	r1, r1
 627 0048 4909     		lsrs	r1, r1, #5
 628 004a FFF7FEFF 		bl	_test_assert
 629              	.LVL52:
 630 004e 0028     		cmp	r0, #0
 631 0050 EFD1     		bne	.L46
 632              		.loc 1 218 0
 633 0052 2046     		mov	r0, r4
 634 0054 FFF7FEFF 		bl	chThdRelease
 635              	.LVL53:
 636              		.loc 1 219 0
 637 0058 94F82210 		ldrb	r1, [r4, #34]	@ zero_extendqisi2
 638 005c 0320     		movs	r0, #3
 639 005e A1F10101 		sub	r1, #1
 640 0062 B1FA81F1 		clz	r1, r1
 641 0066 4909     		lsrs	r1, r1, #5
 642 0068 FFF7FEFF 		bl	_test_assert
 643              	.LVL54:
 644 006c 0028     		cmp	r0, #0
 645 006e E0D1     		bne	.L46
 646              		.loc 1 222 0
 647 0070 2046     		mov	r0, r4
 648 0072 FFF7FEFF 		bl	regfind
 649              	.LVL55:
 650 0076 0146     		mov	r1, r0
 651 0078 0420     		movs	r0, #4
 652 007a FFF7FEFF 		bl	_test_assert
 653              	.LVL56:
 654 007e 0028     		cmp	r0, #0
 655 0080 D7D1     		bne	.L46
 656              		.loc 1 223 0
 657 0082 2046     		mov	r0, r4
 658 0084 FFF7FEFF 		bl	regfind
 659              	.LVL57:
 660 0088 0146     		mov	r1, r0
 661 008a 0520     		movs	r0, #5
 662 008c FFF7FEFF 		bl	_test_assert
 663              	.LVL58:
 664 0090 0028     		cmp	r0, #0
 665 0092 CED1     		bne	.L46
 666              		.loc 1 226 0
 667 0094 2046     		mov	r0, r4
 668 0096 FFF7FEFF 		bl	chThdRelease
 669              	.LVL59:
 670              		.loc 1 227 0
 671 009a 94F82210 		ldrb	r1, [r4, #34]	@ zero_extendqisi2
 672 009e B1FA81F1 		clz	r1, r1
ARM GAS  C:\Users\jo\AppData\Local\Temp\cceRVRht.s 			page 13


 673 00a2 0620     		movs	r0, #6
 674 00a4 4909     		lsrs	r1, r1, #5
 675 00a6 FFF7FEFF 		bl	_test_assert
 676              	.LVL60:
 677 00aa 0028     		cmp	r0, #0
 678 00ac C1D1     		bne	.L46
 679              		.loc 1 228 0
 680 00ae 94F82010 		ldrb	r1, [r4, #32]	@ zero_extendqisi2
 681 00b2 B1FA81F1 		clz	r1, r1
 682 00b6 0720     		movs	r0, #7
 683 00b8 4909     		lsrs	r1, r1, #5
 684 00ba FFF7FEFF 		bl	_test_assert
 685              	.LVL61:
 686 00be 0028     		cmp	r0, #0
 687 00c0 B7D1     		bne	.L46
 688              		.loc 1 229 0
 689 00c2 2046     		mov	r0, r4
 690 00c4 FFF7FEFF 		bl	regfind
 691              	.LVL62:
 692 00c8 0146     		mov	r1, r0
 693 00ca 0820     		movs	r0, #8
 694 00cc FFF7FEFF 		bl	_test_assert
 695              	.LVL63:
 696 00d0 0028     		cmp	r0, #0
 697 00d2 AED1     		bne	.L46
 698              		.loc 1 230 0
 699 00d4 2046     		mov	r0, r4
 700 00d6 FFF7FEFF 		bl	regfind
 701              	.LVL64:
 702 00da 0146     		mov	r1, r0
 703 00dc 0920     		movs	r0, #9
 704 00de FFF7FEFF 		bl	_test_assert
 705              	.LVL65:
 706 00e2 0028     		cmp	r0, #0
 707 00e4 A5D1     		bne	.L46
 708              		.loc 1 231 0
 709 00e6 40F6C410 		movw	r0, #2500
 710 00ea FFF7FEFF 		bl	chThdSleep
 711              	.LVL66:
 712              		.loc 1 232 0
 713 00ee 94F82010 		ldrb	r1, [r4, #32]	@ zero_extendqisi2
 714 00f2 A1F10F03 		sub	r3, r1, #15
 715 00f6 5942     		rsbs	r1, r3, #0
 716 00f8 5941     		adcs	r1, r1, r3
 717 00fa 0A20     		movs	r0, #10
 718 00fc FFF7FEFF 		bl	_test_assert
 719              	.LVL67:
 720 0100 0028     		cmp	r0, #0
 721 0102 96D1     		bne	.L46
 722              		.loc 1 235 0
 723 0104 2046     		mov	r0, r4
 724 0106 FFF7FEFF 		bl	regfind
 725              	.LVL68:
 726 010a 0146     		mov	r1, r0
 727 010c 0B20     		movs	r0, #11
 728 010e FFF7FEFF 		bl	_test_assert
 729              	.LVL69:
ARM GAS  C:\Users\jo\AppData\Local\Temp\cceRVRht.s 			page 14


 730 0112 0028     		cmp	r0, #0
 731 0114 8DD1     		bne	.L46
 732              		.loc 1 236 0
 733 0116 2046     		mov	r0, r4
 734 0118 FFF7FEFF 		bl	regfind
 735              	.LVL70:
 736 011c 80F00101 		eor	r1, r0, #1
 737 0120 C9B2     		uxtb	r1, r1
 738 0122 0C20     		movs	r0, #12
 739              		.loc 1 237 0
 740 0124 02B0     		add	sp, sp, #8
 741              		.cfi_def_cfa_offset 8
 742              		@ sp needed
 743 0126 BDE81040 		pop	{r4, lr}
 744              		.cfi_restore 14
 745              		.cfi_restore 4
 746              		.cfi_def_cfa_offset 0
 747              	.LVL71:
 748              		.loc 1 236 0
 749 012a FFF7FEBF 		b	_test_assert
 750              	.LVL72:
 751              	.L53:
 752 012e 00BF     		.align	2
 753              	.L52:
 754 0130 00000000 		.word	ch
 755 0134 00000000 		.word	.LC0
 756 0138 00000000 		.word	.LANCHOR0
 757 013c 00000000 		.word	thread
 758              		.cfi_endproc
 759              	.LFE235:
 760              		.size	dyn3_execute, .-dyn3_execute
 761              		.global	patterndyn
 762              		.global	testdyn3
 763              		.global	testdyn2
 764              		.global	testdyn1
 765              		.section	.rodata.testdyn1,"a",%progbits
 766              		.align	2
 767              		.type	testdyn1, %object
 768              		.size	testdyn1, 16
 769              	testdyn1:
 770 0000 78000000 		.word	.LC9
 771 0004 00000000 		.word	dyn1_setup
 772 0008 00000000 		.word	0
 773 000c 00000000 		.word	dyn1_execute
 774              		.section	.rodata.testdyn2,"a",%progbits
 775              		.align	2
 776              		.type	testdyn2, %object
 777              		.size	testdyn2, 16
 778              	testdyn2:
 779 0000 48000000 		.word	.LC8
 780 0004 00000000 		.word	dyn2_setup
 781 0008 00000000 		.word	0
 782 000c 00000000 		.word	dyn2_execute
 783              		.section	.rodata.testdyn3,"a",%progbits
 784              		.align	2
 785              		.type	testdyn3, %object
 786              		.size	testdyn3, 16
ARM GAS  C:\Users\jo\AppData\Local\Temp\cceRVRht.s 			page 15


 787              	testdyn3:
 788 0000 20000000 		.word	.LC7
 789 0004 00000000 		.word	dyn3_setup
 790 0008 00000000 		.word	0
 791 000c 00000000 		.word	dyn3_execute
 792              		.section	.bss.mp1,"aw",%nobits
 793              		.align	2
 794              		.set	.LANCHOR1,. + 0
 795              		.type	mp1, %object
 796              		.size	mp1, 12
 797              	mp1:
 798 0000 00000000 		.space	12
 798      00000000 
 798      00000000 
 799              		.section	.rodata.str1.4,"aMS",%progbits,1
 800              		.align	2
 801              	.LC0:
 802 0000 4100     		.ascii	"A\000"
 803 0002 0000     		.space	2
 804              	.LC1:
 805 0004 4200     		.ascii	"B\000"
 806 0006 0000     		.space	2
 807              	.LC2:
 808 0008 4300     		.ascii	"C\000"
 809 000a 0000     		.space	2
 810              	.LC3:
 811 000c 414200   		.ascii	"AB\000"
 812 000f 00       		.space	1
 813              	.LC4:
 814 0010 4400     		.ascii	"D\000"
 815 0012 0000     		.space	2
 816              	.LC5:
 817 0014 4500     		.ascii	"E\000"
 818 0016 0000     		.space	2
 819              	.LC6:
 820 0018 41424344 		.ascii	"ABCD\000"
 820      00
 821 001d 000000   		.space	3
 822              	.LC7:
 823 0020 44796E61 		.ascii	"Dynamic APIs, registry and references\000"
 823      6D696320 
 823      41504973 
 823      2C207265 
 823      67697374 
 824 0046 0000     		.space	2
 825              	.LC8:
 826 0048 44796E61 		.ascii	"Dynamic APIs, threads creation from memory pool\000"
 826      6D696320 
 826      41504973 
 826      2C207468 
 826      72656164 
 827              	.LC9:
 828 0078 44796E61 		.ascii	"Dynamic APIs, threads creation from heap\000"
 828      6D696320 
 828      41504973 
 828      2C207468 
 828      72656164 
ARM GAS  C:\Users\jo\AppData\Local\Temp\cceRVRht.s 			page 16


 829 00a1 000000   		.section	.rodata.patterndyn,"a",%progbits
 830              		.align	2
 831              		.type	patterndyn, %object
 832              		.size	patterndyn, 16
 833              	patterndyn:
 834 0000 00000000 		.word	testdyn1
 835 0004 00000000 		.word	testdyn2
 836 0008 00000000 		.word	testdyn3
 837 000c 00000000 		.word	0
 838              		.section	.bss.heap1,"aw",%nobits
 839              		.align	3
 840              		.set	.LANCHOR0,. + 0
 841              		.type	heap1, %object
 842              		.size	heap1, 32
 843              	heap1:
 844 0000 00000000 		.space	32
 844      00000000 
 844      00000000 
 844      00000000 
 844      00000000 
 845              		.text
 846              	.Letext0:
 847              		.file 3 "c:\\program files\\gnu tools arm embedded\\4.9 2014q4\\lib\\gcc\\arm-none-eabi\\4.9.3\\in
 848              		.file 4 "c:\\program files\\gnu tools arm embedded\\4.9 2014q4\\arm-none-eabi\\include\\machine\\_
 849              		.file 5 "c:\\program files\\gnu tools arm embedded\\4.9 2014q4\\arm-none-eabi\\include\\stdint.h"
 850              		.file 6 "../../../os/rt/ports/ARMCMx/compilers/GCC/chtypes.h"
 851              		.file 7 "../../../os/rt/include/chsystypes.h"
 852              		.file 8 "../../../os/rt/include/chschd.h"
 853              		.file 9 "../../../os/rt/ports/ARMCMx/chcore.h"
 854              		.file 10 "../../../os/rt/ports/ARMCMx/chcore_v7m.h"
 855              		.file 11 "../../../os/rt/include/chdebug.h"
 856              		.file 12 "../../../os/rt/include/chtm.h"
 857              		.file 13 "../../../os/rt/include/chsem.h"
 858              		.file 14 "../../../os/rt/include/chmtx.h"
 859              		.file 15 "../../../os/rt/include/chmemcore.h"
 860              		.file 16 "../../../os/rt/include/chheap.h"
 861              		.file 17 "../../../os/rt/include/chmempools.h"
 862              		.file 18 "../../../test/rt/test.h"
 863              		.file 19 "../../../os/ext/CMSIS/include/core_cm4.h"
 864              		.file 20 "../../../os/rt/include/chdynamic.h"
 865              		.file 21 "../../../os/rt/include/chregistry.h"