ARM GAS  C:\Users\jo\AppData\Local\Temp\cch28mea.s 			page 1


   1              		.syntax unified
   2              		.cpu cortex-m4
   3              		.fpu softvfp
   4              		.eabi_attribute 20, 1
   5              		.eabi_attribute 21, 1
   6              		.eabi_attribute 23, 3
   7              		.eabi_attribute 24, 1
   8              		.eabi_attribute 25, 1
   9              		.eabi_attribute 26, 1
  10              		.eabi_attribute 30, 2
  11              		.eabi_attribute 34, 1
  12              		.eabi_attribute 18, 4
  13              		.thumb
  14              		.file	"testsem.c"
  15              		.text
  16              	.Ltext0:
  17              		.cfi_sections	.debug_frame
  18              		.section	.text.thread3,"ax",%progbits
  19              		.align	2
  20              		.p2align 4,,15
  21              		.thumb
  22              		.thumb_func
  23              		.type	thread3, %function
  24              	thread3:
  25              	.LFB235:
  26              		.file 1 "../../../test/rt/testsem.c"
  27              		.loc 1 207 0
  28              		.cfi_startproc
  29              		@ args = 0, pretend = 0, frame = 0
  30              		@ frame_needed = 0, uses_anonymous_args = 0
  31              	.LVL0:
  32 0000 10B5     		push	{r4, lr}
  33              		.cfi_def_cfa_offset 8
  34              		.cfi_offset 4, -8
  35              		.cfi_offset 14, -4
  36              		.loc 1 210 0
  37 0002 044C     		ldr	r4, .L3
  38 0004 2046     		mov	r0, r4
  39              	.LVL1:
  40 0006 FFF7FEFF 		bl	chSemWait
  41              	.LVL2:
  42              		.loc 1 211 0
  43 000a 2046     		mov	r0, r4
  44              		.loc 1 212 0
  45 000c BDE81040 		pop	{r4, lr}
  46              		.cfi_restore 14
  47              		.cfi_restore 4
  48              		.cfi_def_cfa_offset 0
  49              		.loc 1 211 0
  50 0010 FFF7FEBF 		b	chSemSignal
  51              	.LVL3:
  52              	.L4:
  53              		.align	2
  54              	.L3:
  55 0014 00000000 		.word	.LANCHOR0
  56              		.cfi_endproc
  57              	.LFE235:
ARM GAS  C:\Users\jo\AppData\Local\Temp\cch28mea.s 			page 2


  58              		.size	thread3, .-thread3
  59 0018 AFF30080 		.section	.text.thread1,"ax",%progbits
  59      AFF30080 
  60              		.align	2
  61              		.p2align 4,,15
  62              		.thumb
  63              		.thumb_func
  64              		.type	thread1, %function
  65              	thread1:
  66              	.LFB229:
  67              		.loc 1 77 0
  68              		.cfi_startproc
  69              		@ args = 0, pretend = 0, frame = 0
  70              		@ frame_needed = 0, uses_anonymous_args = 0
  71              	.LVL4:
  72 0000 10B5     		push	{r4, lr}
  73              		.cfi_def_cfa_offset 8
  74              		.cfi_offset 4, -8
  75              		.cfi_offset 14, -4
  76              		.loc 1 77 0
  77 0002 0446     		mov	r4, r0
  78              		.loc 1 79 0
  79 0004 0348     		ldr	r0, .L7
  80              	.LVL5:
  81 0006 FFF7FEFF 		bl	chSemWait
  82              	.LVL6:
  83              		.loc 1 80 0
  84 000a 2078     		ldrb	r0, [r4]	@ zero_extendqisi2
  85              		.loc 1 81 0
  86 000c BDE81040 		pop	{r4, lr}
  87              		.cfi_restore 14
  88              		.cfi_restore 4
  89              		.cfi_def_cfa_offset 0
  90              	.LVL7:
  91              		.loc 1 80 0
  92 0010 FFF7FEBF 		b	test_emit_token
  93              	.LVL8:
  94              	.L8:
  95              		.align	2
  96              	.L7:
  97 0014 00000000 		.word	.LANCHOR0
  98              		.cfi_endproc
  99              	.LFE229:
 100              		.size	thread1, .-thread1
 101 0018 AFF30080 		.section	.text.sem1_setup,"ax",%progbits
 101      AFF30080 
 102              		.align	2
 103              		.p2align 4,,15
 104              		.thumb
 105              		.thumb_func
 106              		.type	sem1_setup, %function
 107              	sem1_setup:
 108              	.LFB228:
 109              		.loc 1 72 0
 110              		.cfi_startproc
 111              		@ args = 0, pretend = 0, frame = 0
 112              		@ frame_needed = 0, uses_anonymous_args = 0
ARM GAS  C:\Users\jo\AppData\Local\Temp\cch28mea.s 			page 3


 113              		@ link register save eliminated.
 114              		.loc 1 74 0
 115 0000 0148     		ldr	r0, .L10
 116 0002 0021     		movs	r1, #0
 117 0004 FFF7FEBF 		b	chSemObjectInit
 118              	.LVL9:
 119              	.L11:
 120              		.align	2
 121              	.L10:
 122 0008 00000000 		.word	.LANCHOR0
 123              		.cfi_endproc
 124              	.LFE228:
 125              		.size	sem1_setup, .-sem1_setup
 126 000c AFF30080 		.section	.text.sem2_setup,"ax",%progbits
 127              		.align	2
 128              		.p2align 4,,15
 129              		.thumb
 130              		.thumb_func
 131              		.type	sem2_setup, %function
 132              	sem2_setup:
 133              	.LFB231:
 134              		.loc 1 128 0
 135              		.cfi_startproc
 136              		@ args = 0, pretend = 0, frame = 0
 137              		@ frame_needed = 0, uses_anonymous_args = 0
 138              		@ link register save eliminated.
 139              		.loc 1 130 0
 140 0000 0148     		ldr	r0, .L13
 141 0002 0021     		movs	r1, #0
 142 0004 FFF7FEBF 		b	chSemObjectInit
 143              	.LVL10:
 144              	.L14:
 145              		.align	2
 146              	.L13:
 147 0008 00000000 		.word	.LANCHOR0
 148              		.cfi_endproc
 149              	.LFE231:
 150              		.size	sem2_setup, .-sem2_setup
 151 000c AFF30080 		.section	.text.sem3_setup,"ax",%progbits
 152              		.align	2
 153              		.p2align 4,,15
 154              		.thumb
 155              		.thumb_func
 156              		.type	sem3_setup, %function
 157              	sem3_setup:
 158              	.LFB234:
 159              		.loc 1 202 0
 160              		.cfi_startproc
 161              		@ args = 0, pretend = 0, frame = 0
 162              		@ frame_needed = 0, uses_anonymous_args = 0
 163              		@ link register save eliminated.
 164              		.loc 1 204 0
 165 0000 0148     		ldr	r0, .L16
 166 0002 0021     		movs	r1, #0
 167 0004 FFF7FEBF 		b	chSemObjectInit
 168              	.LVL11:
 169              	.L17:
ARM GAS  C:\Users\jo\AppData\Local\Temp\cch28mea.s 			page 4


 170              		.align	2
 171              	.L16:
 172 0008 00000000 		.word	.LANCHOR0
 173              		.cfi_endproc
 174              	.LFE234:
 175              		.size	sem3_setup, .-sem3_setup
 176 000c AFF30080 		.section	.text.sem2_execute,"ax",%progbits
 177              		.align	2
 178              		.p2align 4,,15
 179              		.thumb
 180              		.thumb_func
 181              		.type	sem2_execute, %function
 182              	sem2_execute:
 183              	.LFB233:
 184              		.loc 1 143 0
 185              		.cfi_startproc
 186              		@ args = 0, pretend = 0, frame = 0
 187              		@ frame_needed = 0, uses_anonymous_args = 0
 188 0000 70B5     		push	{r4, r5, r6, lr}
 189              		.cfi_def_cfa_offset 16
 190              		.cfi_offset 4, -16
 191              		.cfi_offset 5, -12
 192              		.cfi_offset 6, -8
 193              		.cfi_offset 14, -4
 194              		.loc 1 151 0
 195 0002 574C     		ldr	r4, .L28
 196              		.loc 1 143 0
 197 0004 82B0     		sub	sp, sp, #8
 198              		.cfi_def_cfa_offset 24
 199              		.loc 1 151 0
 200 0006 0021     		movs	r1, #0
 201 0008 2046     		mov	r0, r4
 202 000a FFF7FEFF 		bl	chSemWaitTimeout
 203              	.LVL12:
 204              		.loc 1 152 0
 205 000e A0F1FF31 		sub	r1, r0, #-1
 206 0012 0120     		movs	r0, #1
 207              	.LVL13:
 208 0014 B1FA81F1 		clz	r1, r1
 209              	.LVL14:
 210 0018 4909     		lsrs	r1, r1, #5
 211 001a FFF7FEFF 		bl	_test_assert
 212              	.LVL15:
 213 001e 08B1     		cbz	r0, .L27
 214              	.L18:
 215              		.loc 1 181 0
 216 0020 02B0     		add	sp, sp, #8
 217              		.cfi_remember_state
 218              		.cfi_def_cfa_offset 16
 219              		@ sp needed
 220 0022 70BD     		pop	{r4, r5, r6, pc}
 221              	.L27:
 222              		.cfi_restore_state
 223              	.LVL16:
 224              	.LBB218:
 225              	.LBB219:
 226              		.file 2 "../../../os/rt/include/chschd.h"
ARM GAS  C:\Users\jo\AppData\Local\Temp\cch28mea.s 			page 5


 227              		.loc 2 618 0
 228 0024 2168     		ldr	r1, [r4]
 229              	.LBE219:
 230              	.LBE218:
 231              		.loc 1 153 0
 232 0026 0220     		movs	r0, #2
 233 0028 091B     		subs	r1, r1, r4
 234 002a B1FA81F1 		clz	r1, r1
 235 002e 4909     		lsrs	r1, r1, #5
 236 0030 FFF7FEFF 		bl	_test_assert
 237              	.LVL17:
 238 0034 0028     		cmp	r0, #0
 239 0036 F3D1     		bne	.L18
 240              		.loc 1 154 0
 241 0038 A168     		ldr	r1, [r4, #8]
 242 003a B1FA81F1 		clz	r1, r1
 243 003e 0320     		movs	r0, #3
 244 0040 4909     		lsrs	r1, r1, #5
 245 0042 FFF7FEFF 		bl	_test_assert
 246              	.LVL18:
 247 0046 0028     		cmp	r0, #0
 248 0048 EAD1     		bne	.L18
 249              	.LBB220:
 250              	.LBB221:
 251              	.LBB222:
 252              	.LBB223:
 253              	.LBB224:
 254              	.LBB225:
 255              		.file 3 "../../../os/rt/include/chthreads.h"
 256              		.loc 3 176 0
 257 004a 464D     		ldr	r5, .L28+4
 258              	.LBE225:
 259              	.LBE224:
 260              	.LBE223:
 261              	.LBE222:
 262              		.loc 1 159 0
 263 004c 464A     		ldr	r2, .L28+8
 264              	.LBB227:
 265              	.LBB226:
 266              		.loc 3 189 0
 267 004e AB69     		ldr	r3, [r5, #24]
 268              	.LBE226:
 269              	.LBE227:
 270              		.loc 1 159 0
 271 0050 1168     		ldr	r1, [r2]
 272 0052 9A68     		ldr	r2, [r3, #8]
 273 0054 454B     		ldr	r3, .L28+12
 274 0056 0090     		str	r0, [sp]
 275 0058 013A     		subs	r2, r2, #1
 276 005a 0846     		mov	r0, r1
 277 005c 4FF4A871 		mov	r1, #336
 278 0060 FFF7FEFF 		bl	chThdCreateStatic
 279              	.LVL19:
 280 0064 424B     		ldr	r3, .L28+16
 281              		.loc 1 161 0
 282 0066 46F2A811 		movw	r1, #25000
 283              		.loc 1 159 0
ARM GAS  C:\Users\jo\AppData\Local\Temp\cch28mea.s 			page 6


 284 006a 1860     		str	r0, [r3]
 285              		.loc 1 161 0
 286 006c 2046     		mov	r0, r4
 287 006e FFF7FEFF 		bl	chSemWaitTimeout
 288              	.LVL20:
 289 0072 0646     		mov	r6, r0
 290              	.LVL21:
 291              		.loc 1 162 0
 292 0074 FFF7FEFF 		bl	test_wait_threads
 293              	.LVL22:
 294              		.loc 1 163 0
 295 0078 B6FA86F1 		clz	r1, r6
 296 007c 0420     		movs	r0, #4
 297 007e 4909     		lsrs	r1, r1, #5
 298 0080 FFF7FEFF 		bl	_test_assert
 299              	.LVL23:
 300 0084 0028     		cmp	r0, #0
 301 0086 CBD1     		bne	.L18
 302              	.LVL24:
 303              	.LBB228:
 304              	.LBB229:
 305              		.loc 2 618 0
 306 0088 2168     		ldr	r1, [r4]
 307              	.LBE229:
 308              	.LBE228:
 309              		.loc 1 164 0
 310 008a 0520     		movs	r0, #5
 311 008c 091B     		subs	r1, r1, r4
 312 008e B1FA81F1 		clz	r1, r1
 313 0092 4909     		lsrs	r1, r1, #5
 314 0094 FFF7FEFF 		bl	_test_assert
 315              	.LVL25:
 316 0098 0028     		cmp	r0, #0
 317 009a C1D1     		bne	.L18
 318              		.loc 1 165 0
 319 009c A168     		ldr	r1, [r4, #8]
 320 009e B1FA81F1 		clz	r1, r1
 321 00a2 0620     		movs	r0, #6
 322 00a4 4909     		lsrs	r1, r1, #5
 323 00a6 FFF7FEFF 		bl	_test_assert
 324              	.LVL26:
 325 00aa 0028     		cmp	r0, #0
 326 00ac B8D1     		bne	.L18
 327              		.loc 1 170 0
 328 00ae FFF7FEFF 		bl	test_wait_tick
 329              	.LVL27:
 330              	.LBB230:
 331              	.LBB231:
 332              	.LBB232:
 333              	.LBB233:
 334              	.LBB234:
 335              	.LBB235:
 336              	.LBB236:
 337              		.file 4 "../../../os/ext/CMSIS/include/core_cmFunc.h"
 338              		.loc 4 546 0
 339 00b2 2023     		movs	r3, #32
 340              	@ 546 "../../../os/ext/CMSIS/include/core_cmFunc.h" 1
ARM GAS  C:\Users\jo\AppData\Local\Temp\cch28mea.s 			page 7


 341 00b4 83F31188 		MSR basepri, r3
 342              	@ 0 "" 2
 343              		.thumb
 344              	.LBE236:
 345              	.LBE235:
 346              	.LBE234:
 347              		.file 5 "../../../os/rt/include/chsys.h"
 348              		.loc 5 350 0
 349 00b8 FFF7FEFF 		bl	_dbg_check_lock
 350              	.LVL28:
 351              	.LBE233:
 352              	.LBE232:
 353              	.LBB237:
 354              	.LBB238:
 355              	.LBB239:
 356              	.LBB240:
 357              		.file 6 "../../../os/hal/ports/STM32/LLD/TIMv1/st_lld.h"
 358              		.loc 6 129 0
 359 00bc 4FF08043 		mov	r3, #1073741824
 360 00c0 5E6A     		ldr	r6, [r3, #36]
 361              	.LVL29:
 362              	.LBE240:
 363              	.LBE239:
 364              	.LBE238:
 365              	.LBE237:
 366              	.LBB241:
 367              	.LBB242:
 368              		.loc 5 360 0
 369 00c2 FFF7FEFF 		bl	_dbg_check_unlock
 370              	.LVL30:
 371              		.loc 5 367 0
 372 00c6 2B68     		ldr	r3, [r5]
 373 00c8 AB42     		cmp	r3, r5
 374 00ca 07D0     		beq	.L22
 375 00cc AA69     		ldr	r2, [r5, #24]
 376 00ce 9B68     		ldr	r3, [r3, #8]
 377 00d0 9268     		ldr	r2, [r2, #8]
 378 00d2 9A42     		cmp	r2, r3
 379 00d4 02D2     		bcs	.L22
 380 00d6 2748     		ldr	r0, .L28+20
 381 00d8 FFF7FEFF 		bl	chSysHalt
 382              	.LVL31:
 383              	.L22:
 384              	.LBB243:
 385              	.LBB244:
 386              	.LBB245:
 387              		.loc 4 546 0
 388 00dc 0023     		movs	r3, #0
 389              	@ 546 "../../../os/ext/CMSIS/include/core_cmFunc.h" 1
 390 00de 83F31188 		MSR basepri, r3
 391              	@ 0 "" 2
 392              	.LVL32:
 393              		.thumb
 394              	.LBE245:
 395              	.LBE244:
 396              	.LBE243:
 397              	.LBE242:
ARM GAS  C:\Users\jo\AppData\Local\Temp\cch28mea.s 			page 8


 398              	.LBE241:
 399              	.LBE231:
 400              	.LBE230:
 401              		.loc 1 174 0
 402 00e2 1F4D     		ldr	r5, .L28
 403              	.LBB252:
 404              	.LBB251:
 405              	.LBB250:
 406              	.LBB249:
 407              	.LBB248:
 408              	.LBB247:
 409              	.LBB246:
 410              		.loc 4 546 0
 411 00e4 4124     		movs	r4, #65
 412              	.LVL33:
 413              	.L23:
 414              	.LBE246:
 415              	.LBE247:
 416              	.LBE248:
 417              	.LBE249:
 418              	.LBE250:
 419              	.LBE251:
 420              	.LBE252:
 421              		.loc 1 173 0
 422 00e6 2046     		mov	r0, r4
 423 00e8 FFF7FEFF 		bl	test_emit_token
 424              	.LVL34:
 425              		.loc 1 174 0
 426 00ec 40F6C411 		movw	r1, #2500
 427 00f0 1B48     		ldr	r0, .L28
 428 00f2 FFF7FEFF 		bl	chSemWaitTimeout
 429              	.LVL35:
 430              		.loc 1 175 0
 431 00f6 A0F1FF31 		sub	r1, r0, #-1
 432 00fa 0720     		movs	r0, #7
 433              	.LVL36:
 434 00fc B1FA81F1 		clz	r1, r1
 435              	.LVL37:
 436 0100 4909     		lsrs	r1, r1, #5
 437 0102 FFF7FEFF 		bl	_test_assert
 438              	.LVL38:
 439 0106 0028     		cmp	r0, #0
 440 0108 8AD1     		bne	.L18
 441              	.LBB253:
 442              	.LBB254:
 443              		.loc 2 618 0
 444 010a 2968     		ldr	r1, [r5]
 445              	.LBE254:
 446              	.LBE253:
 447              		.loc 1 176 0
 448 010c 0820     		movs	r0, #8
 449 010e 491B     		subs	r1, r1, r5
 450 0110 B1FA81F1 		clz	r1, r1
 451 0114 4909     		lsrs	r1, r1, #5
 452 0116 FFF7FEFF 		bl	_test_assert
 453              	.LVL39:
 454 011a 0028     		cmp	r0, #0
ARM GAS  C:\Users\jo\AppData\Local\Temp\cch28mea.s 			page 9


 455 011c 80D1     		bne	.L18
 456              		.loc 1 177 0
 457 011e A968     		ldr	r1, [r5, #8]
 458 0120 B1FA81F1 		clz	r1, r1
 459 0124 0920     		movs	r0, #9
 460 0126 4909     		lsrs	r1, r1, #5
 461 0128 FFF7FEFF 		bl	_test_assert
 462              	.LVL40:
 463 012c 0134     		adds	r4, r4, #1
 464 012e E4B2     		uxtb	r4, r4
 465 0130 0028     		cmp	r0, #0
 466 0132 7FF475AF 		bne	.L18
 467              		.loc 1 172 0
 468 0136 462C     		cmp	r4, #70
 469 0138 D5D1     		bne	.L23
 470              		.loc 1 179 0
 471 013a 0A20     		movs	r0, #10
 472 013c 0E49     		ldr	r1, .L28+24
 473 013e FFF7FEFF 		bl	_test_assert_sequence
 474              	.LVL41:
 475 0142 0028     		cmp	r0, #0
 476 0144 7FF46CAF 		bne	.L18
 477              		.loc 1 180 0
 478 0148 06F54351 		add	r1, r6, #12480
 479 014c 06F54452 		add	r2, r6, #12544
 480 0150 1431     		adds	r1, r1, #20
 481 0152 3832     		adds	r2, r2, #56
 482 0154 0B20     		movs	r0, #11
 483              	.LBE221:
 484              	.LBE220:
 485              		.loc 1 181 0
 486 0156 02B0     		add	sp, sp, #8
 487              		.cfi_def_cfa_offset 16
 488              		@ sp needed
 489 0158 BDE87040 		pop	{r4, r5, r6, lr}
 490              		.cfi_restore 14
 491              		.cfi_restore 6
 492              		.cfi_restore 5
 493              		.cfi_restore 4
 494              		.cfi_def_cfa_offset 0
 495              	.LVL42:
 496              	.LBB256:
 497              	.LBB255:
 498              		.loc 1 180 0
 499 015c FFF7FEBF 		b	_test_assert_time_window
 500              	.LVL43:
 501              	.L29:
 502              		.align	2
 503              	.L28:
 504 0160 00000000 		.word	.LANCHOR0
 505 0164 00000000 		.word	ch
 506 0168 00000000 		.word	wa
 507 016c 00000000 		.word	thread2
 508 0170 00000000 		.word	threads
 509 0174 00000000 		.word	.LANCHOR1
 510 0178 00000000 		.word	.LC0
 511              	.LBE255:
ARM GAS  C:\Users\jo\AppData\Local\Temp\cch28mea.s 			page 10


 512              	.LBE256:
 513              		.cfi_endproc
 514              	.LFE233:
 515              		.size	sem2_execute, .-sem2_execute
 516 017c AFF30080 		.section	.text.sem3_execute,"ax",%progbits
 517              		.align	2
 518              		.p2align 4,,15
 519              		.thumb
 520              		.thumb_func
 521              		.type	sem3_execute, %function
 522              	sem3_execute:
 523              	.LFB236:
 524              		.loc 1 214 0
 525              		.cfi_startproc
 526              		@ args = 0, pretend = 0, frame = 0
 527              		@ frame_needed = 0, uses_anonymous_args = 0
 528 0000 10B5     		push	{r4, lr}
 529              		.cfi_def_cfa_offset 8
 530              		.cfi_offset 4, -8
 531              		.cfi_offset 14, -4
 532              	.LBB273:
 533              	.LBB274:
 534              	.LBB275:
 535              	.LBB276:
 536              		.loc 3 176 0
 537 0002 204B     		ldr	r3, .L36
 538              	.LBE276:
 539              	.LBE275:
 540              	.LBE274:
 541              	.LBE273:
 542              		.loc 1 216 0
 543 0004 204A     		ldr	r2, .L36+4
 544              	.LBB278:
 545              	.LBB277:
 546              		.loc 3 189 0
 547 0006 9B69     		ldr	r3, [r3, #24]
 548              	.LBE277:
 549              	.LBE278:
 550              		.loc 1 216 0
 551 0008 1068     		ldr	r0, [r2]
 552 000a 9A68     		ldr	r2, [r3, #8]
 553 000c 1F4B     		ldr	r3, .L36+8
 554              		.loc 1 217 0
 555 000e 204C     		ldr	r4, .L36+12
 556              		.loc 1 214 0
 557 0010 82B0     		sub	sp, sp, #8
 558              		.cfi_def_cfa_offset 16
 559              		.loc 1 216 0
 560 0012 0021     		movs	r1, #0
 561 0014 0132     		adds	r2, r2, #1
 562 0016 0091     		str	r1, [sp]
 563 0018 4FF4A871 		mov	r1, #336
 564 001c FFF7FEFF 		bl	chThdCreateStatic
 565              	.LVL44:
 566 0020 1C4B     		ldr	r3, .L36+16
 567              		.loc 1 217 0
 568 0022 2146     		mov	r1, r4
ARM GAS  C:\Users\jo\AppData\Local\Temp\cch28mea.s 			page 11


 569              		.loc 1 216 0
 570 0024 1860     		str	r0, [r3]
 571              		.loc 1 217 0
 572 0026 2046     		mov	r0, r4
 573 0028 FFF7FEFF 		bl	chSemSignalWait
 574              	.LVL45:
 575              	.LBB279:
 576              	.LBB280:
 577              		.loc 2 618 0
 578 002c 2168     		ldr	r1, [r4]
 579              	.LBE280:
 580              	.LBE279:
 581              		.loc 1 218 0
 582 002e 0120     		movs	r0, #1
 583 0030 091B     		subs	r1, r1, r4
 584 0032 B1FA81F1 		clz	r1, r1
 585 0036 4909     		lsrs	r1, r1, #5
 586 0038 FFF7FEFF 		bl	_test_assert
 587              	.LVL46:
 588 003c 08B1     		cbz	r0, .L35
 589              	.L30:
 590              		.loc 1 224 0
 591 003e 02B0     		add	sp, sp, #8
 592              		.cfi_remember_state
 593              		.cfi_def_cfa_offset 8
 594              		@ sp needed
 595 0040 10BD     		pop	{r4, pc}
 596              	.L35:
 597              		.cfi_restore_state
 598              		.loc 1 219 0
 599 0042 A168     		ldr	r1, [r4, #8]
 600 0044 B1FA81F1 		clz	r1, r1
 601 0048 0220     		movs	r0, #2
 602 004a 4909     		lsrs	r1, r1, #5
 603 004c FFF7FEFF 		bl	_test_assert
 604              	.LVL47:
 605 0050 0028     		cmp	r0, #0
 606 0052 F4D1     		bne	.L30
 607              	.LBB281:
 608              	.LBB282:
 609              		.loc 1 221 0
 610 0054 2146     		mov	r1, r4
 611 0056 2046     		mov	r0, r4
 612 0058 FFF7FEFF 		bl	chSemSignalWait
 613              	.LVL48:
 614              	.LBB283:
 615              	.LBB284:
 616              		.loc 2 618 0
 617 005c 2168     		ldr	r1, [r4]
 618              	.LBE284:
 619              	.LBE283:
 620              		.loc 1 222 0
 621 005e 0320     		movs	r0, #3
 622 0060 091B     		subs	r1, r1, r4
 623 0062 B1FA81F1 		clz	r1, r1
 624 0066 4909     		lsrs	r1, r1, #5
 625 0068 FFF7FEFF 		bl	_test_assert
ARM GAS  C:\Users\jo\AppData\Local\Temp\cch28mea.s 			page 12


 626              	.LVL49:
 627 006c 0028     		cmp	r0, #0
 628 006e E6D1     		bne	.L30
 629              		.loc 1 223 0
 630 0070 A168     		ldr	r1, [r4, #8]
 631 0072 B1FA81F1 		clz	r1, r1
 632 0076 0420     		movs	r0, #4
 633 0078 4909     		lsrs	r1, r1, #5
 634              	.LBE282:
 635              	.LBE281:
 636              		.loc 1 224 0
 637 007a 02B0     		add	sp, sp, #8
 638              		.cfi_def_cfa_offset 8
 639              		@ sp needed
 640 007c BDE81040 		pop	{r4, lr}
 641              		.cfi_restore 14
 642              		.cfi_restore 4
 643              		.cfi_def_cfa_offset 0
 644              	.LBB286:
 645              	.LBB285:
 646              		.loc 1 223 0
 647 0080 FFF7FEBF 		b	_test_assert
 648              	.LVL50:
 649              	.L37:
 650              		.align	2
 651              	.L36:
 652 0084 00000000 		.word	ch
 653 0088 00000000 		.word	wa
 654 008c 00000000 		.word	thread3
 655 0090 00000000 		.word	.LANCHOR0
 656 0094 00000000 		.word	threads
 657              	.LBE285:
 658              	.LBE286:
 659              		.cfi_endproc
 660              	.LFE236:
 661              		.size	sem3_execute, .-sem3_execute
 662 0098 AFF30080 		.section	.text.thread4,"ax",%progbits
 662      AFF30080 
 663              		.align	2
 664              		.p2align 4,,15
 665              		.thumb
 666              		.thumb_func
 667              		.type	thread4, %function
 668              	thread4:
 669              	.LFB237:
 670              		.loc 1 241 0
 671              		.cfi_startproc
 672              		@ args = 0, pretend = 0, frame = 0
 673              		@ frame_needed = 0, uses_anonymous_args = 0
 674              	.LVL51:
 675 0000 10B5     		push	{r4, lr}
 676              		.cfi_def_cfa_offset 8
 677              		.cfi_offset 4, -8
 678              		.cfi_offset 14, -4
 679              	.LBB301:
 680              	.LBB302:
 681              	.LBB303:
ARM GAS  C:\Users\jo\AppData\Local\Temp\cch28mea.s 			page 13


 682              	.LBB304:
 683              	.LBB305:
 684              	.LBB306:
 685              	.LBB307:
 686              		.loc 4 546 0
 687 0002 2023     		movs	r3, #32
 688              	.LBE307:
 689              	.LBE306:
 690              	.LBE305:
 691              	.LBE304:
 692              	.LBE303:
 693              	.LBE302:
 694              	.LBE301:
 695              		.loc 1 241 0
 696 0004 0446     		mov	r4, r0
 697              	.LVL52:
 698              	.LBB323:
 699              	.LBB322:
 700              	.LBB312:
 701              	.LBB311:
 702              	.LBB310:
 703              	.LBB309:
 704              	.LBB308:
 705              		.loc 4 546 0
 706              	@ 546 "../../../os/ext/CMSIS/include/core_cmFunc.h" 1
 707 0006 83F31188 		MSR basepri, r3
 708              	@ 0 "" 2
 709              		.thumb
 710              	.LBE308:
 711              	.LBE309:
 712              	.LBE310:
 713              		.loc 5 350 0
 714 000a FFF7FEFF 		bl	_dbg_check_lock
 715              	.LVL53:
 716              	.LBE311:
 717              	.LBE312:
 718              	.LBB313:
 719              	.LBB314:
 720              		.file 7 "../../../os/rt/include/chbsem.h"
 721              		.loc 7 268 0
 722 000e FFF7FEFF 		bl	chDbgCheckClassI
 723              	.LVL54:
 724              		.loc 7 270 0
 725 0012 A368     		ldr	r3, [r4, #8]
 726 0014 002B     		cmp	r3, #0
 727 0016 13DD     		ble	.L42
 728              	.L39:
 729              	.LBE314:
 730              	.LBE313:
 731              		.loc 7 286 0
 732 0018 FFF7FEFF 		bl	chSchRescheduleS
 733              	.LVL55:
 734              	.LBB316:
 735              	.LBB317:
 736              		.loc 5 360 0
 737 001c FFF7FEFF 		bl	_dbg_check_unlock
 738              	.LVL56:
ARM GAS  C:\Users\jo\AppData\Local\Temp\cch28mea.s 			page 14


 739              		.loc 5 367 0
 740 0020 094B     		ldr	r3, .L43
 741 0022 1A68     		ldr	r2, [r3]
 742 0024 9A42     		cmp	r2, r3
 743 0026 07D0     		beq	.L40
 744 0028 9969     		ldr	r1, [r3, #24]
 745 002a 9368     		ldr	r3, [r2, #8]
 746 002c 8A68     		ldr	r2, [r1, #8]
 747 002e 9A42     		cmp	r2, r3
 748 0030 02D2     		bcs	.L40
 749 0032 0648     		ldr	r0, .L43+4
 750 0034 FFF7FEFF 		bl	chSysHalt
 751              	.LVL57:
 752              	.L40:
 753              	.LBB318:
 754              	.LBB319:
 755              	.LBB320:
 756              		.loc 4 546 0
 757 0038 0023     		movs	r3, #0
 758              	@ 546 "../../../os/ext/CMSIS/include/core_cmFunc.h" 1
 759 003a 83F31188 		MSR basepri, r3
 760              	@ 0 "" 2
 761              		.thumb
 762 003e 10BD     		pop	{r4, pc}
 763              	.LVL58:
 764              	.L42:
 765              	.LBE320:
 766              	.LBE319:
 767              	.LBE318:
 768              	.LBE317:
 769              	.LBE316:
 770              	.LBB321:
 771              	.LBB315:
 772              		.loc 7 271 0
 773 0040 2046     		mov	r0, r4
 774 0042 FFF7FEFF 		bl	chSemSignalI
 775              	.LVL59:
 776 0046 E7E7     		b	.L39
 777              	.L44:
 778              		.align	2
 779              	.L43:
 780 0048 00000000 		.word	ch
 781 004c 00000000 		.word	.LANCHOR1
 782              	.LBE315:
 783              	.LBE321:
 784              	.LBE322:
 785              	.LBE323:
 786              		.cfi_endproc
 787              	.LFE237:
 788              		.size	thread4, .-thread4
 789              		.section	.text.thread2,"ax",%progbits
 790              		.align	2
 791              		.p2align 4,,15
 792              		.thumb
 793              		.thumb_func
 794              		.type	thread2, %function
 795              	thread2:
ARM GAS  C:\Users\jo\AppData\Local\Temp\cch28mea.s 			page 15


 796              	.LFB232:
 797              		.loc 1 133 0
 798              		.cfi_startproc
 799              		@ args = 0, pretend = 0, frame = 0
 800              		@ frame_needed = 0, uses_anonymous_args = 0
 801              	.LVL60:
 802 0000 08B5     		push	{r3, lr}
 803              		.cfi_def_cfa_offset 8
 804              		.cfi_offset 3, -8
 805              		.cfi_offset 14, -4
 806              		.loc 1 136 0
 807 0002 40F6C410 		movw	r0, #2500
 808              	.LVL61:
 809 0006 FFF7FEFF 		bl	chThdSleep
 810              	.LVL62:
 811              	.LBB334:
 812              	.LBB335:
 813              	.LBB336:
 814              	.LBB337:
 815              	.LBB338:
 816              		.loc 4 546 0
 817 000a 2023     		movs	r3, #32
 818              	@ 546 "../../../os/ext/CMSIS/include/core_cmFunc.h" 1
 819 000c 83F31188 		MSR basepri, r3
 820              	@ 0 "" 2
 821              		.thumb
 822              	.LBE338:
 823              	.LBE337:
 824              	.LBE336:
 825              		.loc 5 350 0
 826 0010 FFF7FEFF 		bl	_dbg_check_lock
 827              	.LVL63:
 828              	.LBE335:
 829              	.LBE334:
 830              		.loc 1 138 0
 831 0014 0B48     		ldr	r0, .L48
 832 0016 FFF7FEFF 		bl	chSemSignalI
 833              	.LVL64:
 834              		.loc 1 139 0
 835 001a FFF7FEFF 		bl	chSchRescheduleS
 836              	.LVL65:
 837              	.LBB339:
 838              	.LBB340:
 839              		.loc 5 360 0
 840 001e FFF7FEFF 		bl	_dbg_check_unlock
 841              	.LVL66:
 842              		.loc 5 367 0
 843 0022 094B     		ldr	r3, .L48+4
 844 0024 1A68     		ldr	r2, [r3]
 845 0026 9A42     		cmp	r2, r3
 846 0028 07D0     		beq	.L46
 847 002a 9969     		ldr	r1, [r3, #24]
 848 002c 9368     		ldr	r3, [r2, #8]
 849 002e 8A68     		ldr	r2, [r1, #8]
 850 0030 9A42     		cmp	r2, r3
 851 0032 02D2     		bcs	.L46
 852 0034 0548     		ldr	r0, .L48+8
ARM GAS  C:\Users\jo\AppData\Local\Temp\cch28mea.s 			page 16


 853 0036 FFF7FEFF 		bl	chSysHalt
 854              	.LVL67:
 855              	.L46:
 856              	.LBB341:
 857              	.LBB342:
 858              	.LBB343:
 859              		.loc 4 546 0
 860 003a 0023     		movs	r3, #0
 861              	@ 546 "../../../os/ext/CMSIS/include/core_cmFunc.h" 1
 862 003c 83F31188 		MSR basepri, r3
 863              	@ 0 "" 2
 864              		.thumb
 865 0040 08BD     		pop	{r3, pc}
 866              	.L49:
 867 0042 00BF     		.align	2
 868              	.L48:
 869 0044 00000000 		.word	.LANCHOR0
 870 0048 00000000 		.word	ch
 871 004c 00000000 		.word	.LANCHOR1
 872              	.LBE343:
 873              	.LBE342:
 874              	.LBE341:
 875              	.LBE340:
 876              	.LBE339:
 877              		.cfi_endproc
 878              	.LFE232:
 879              		.size	thread2, .-thread2
 880              		.section	.text.sem1_execute,"ax",%progbits
 881              		.align	2
 882              		.p2align 4,,15
 883              		.thumb
 884              		.thumb_func
 885              		.type	sem1_execute, %function
 886              	sem1_execute:
 887              	.LFB230:
 888              		.loc 1 83 0
 889              		.cfi_startproc
 890              		@ args = 0, pretend = 0, frame = 0
 891              		@ frame_needed = 0, uses_anonymous_args = 0
 892 0000 2DE9F043 		push	{r4, r5, r6, r7, r8, r9, lr}
 893              		.cfi_def_cfa_offset 28
 894              		.cfi_offset 4, -28
 895              		.cfi_offset 5, -24
 896              		.cfi_offset 6, -20
 897              		.cfi_offset 7, -16
 898              		.cfi_offset 8, -12
 899              		.cfi_offset 9, -8
 900              		.cfi_offset 14, -4
 901              	.LBB395:
 902              	.LBB396:
 903              	.LBB397:
 904              	.LBB398:
 905              		.loc 3 176 0
 906 0004 574C     		ldr	r4, .L62
 907              	.LBE398:
 908              	.LBE397:
 909              	.LBE396:
ARM GAS  C:\Users\jo\AppData\Local\Temp\cch28mea.s 			page 17


 910              	.LBE395:
 911              		.loc 1 85 0
 912 0006 584F     		ldr	r7, .L62+4
 913              	.LBB400:
 914              	.LBB399:
 915              		.loc 3 189 0
 916 0008 A369     		ldr	r3, [r4, #24]
 917              	.LBE399:
 918              	.LBE400:
 919              		.loc 1 85 0
 920 000a D7F80080 		ldr	r8, [r7]
 921 000e 9A68     		ldr	r2, [r3, #8]
 922 0010 DFF87C91 		ldr	r9, .L62+44
 923 0014 554B     		ldr	r3, .L62+8
 924 0016 564E     		ldr	r6, .L62+12
 925              		.loc 1 90 0
 926 0018 564D     		ldr	r5, .L62+16
 927              		.loc 1 83 0
 928 001a 83B0     		sub	sp, sp, #12
 929              		.cfi_def_cfa_offset 40
 930              		.loc 1 85 0
 931 001c 0532     		adds	r2, r2, #5
 932 001e 4FF4A871 		mov	r1, #336
 933 0022 CDF80090 		str	r9, [sp]
 934 0026 4046     		mov	r0, r8
 935 0028 FFF7FEFF 		bl	chThdCreateStatic
 936              	.LVL68:
 937              	.LBB401:
 938              	.LBB402:
 939              		.loc 3 189 0
 940 002c A369     		ldr	r3, [r4, #24]
 941              	.LBE402:
 942              	.LBE401:
 943              		.loc 1 86 0
 944 002e 7968     		ldr	r1, [r7, #4]
 945 0030 9A68     		ldr	r2, [r3, #8]
 946 0032 514B     		ldr	r3, .L62+20
 947              		.loc 1 85 0
 948 0034 3060     		str	r0, [r6]
 949              		.loc 1 86 0
 950 0036 0132     		adds	r2, r2, #1
 951 0038 0846     		mov	r0, r1
 952 003a 0093     		str	r3, [sp]
 953 003c 4FF4A871 		mov	r1, #336
 954 0040 4A4B     		ldr	r3, .L62+8
 955 0042 FFF7FEFF 		bl	chThdCreateStatic
 956              	.LVL69:
 957              	.LBB403:
 958              	.LBB404:
 959              		.loc 3 189 0
 960 0046 A369     		ldr	r3, [r4, #24]
 961              	.LBE404:
 962              	.LBE403:
 963              		.loc 1 87 0
 964 0048 B968     		ldr	r1, [r7, #8]
 965 004a 9A68     		ldr	r2, [r3, #8]
 966 004c 4B4B     		ldr	r3, .L62+24
ARM GAS  C:\Users\jo\AppData\Local\Temp\cch28mea.s 			page 18


 967              		.loc 1 86 0
 968 004e 7060     		str	r0, [r6, #4]
 969              		.loc 1 87 0
 970 0050 0332     		adds	r2, r2, #3
 971 0052 0846     		mov	r0, r1
 972 0054 0093     		str	r3, [sp]
 973 0056 4FF4A871 		mov	r1, #336
 974 005a 444B     		ldr	r3, .L62+8
 975 005c FFF7FEFF 		bl	chThdCreateStatic
 976              	.LVL70:
 977              	.LBB405:
 978              	.LBB406:
 979              		.loc 3 189 0
 980 0060 A369     		ldr	r3, [r4, #24]
 981              	.LBE406:
 982              	.LBE405:
 983              		.loc 1 88 0
 984 0062 F968     		ldr	r1, [r7, #12]
 985 0064 9A68     		ldr	r2, [r3, #8]
 986 0066 464B     		ldr	r3, .L62+28
 987              		.loc 1 87 0
 988 0068 B060     		str	r0, [r6, #8]
 989              		.loc 1 88 0
 990 006a 0432     		adds	r2, r2, #4
 991 006c 0846     		mov	r0, r1
 992 006e 0093     		str	r3, [sp]
 993 0070 4FF4A871 		mov	r1, #336
 994 0074 3D4B     		ldr	r3, .L62+8
 995 0076 FFF7FEFF 		bl	chThdCreateStatic
 996              	.LVL71:
 997              	.LBB407:
 998              	.LBB408:
 999              		.loc 3 189 0
 1000 007a A369     		ldr	r3, [r4, #24]
 1001              	.LBE408:
 1002              	.LBE407:
 1003              		.loc 1 89 0
 1004 007c 3969     		ldr	r1, [r7, #16]
 1005 007e 9A68     		ldr	r2, [r3, #8]
 1006 0080 404B     		ldr	r3, .L62+32
 1007              		.loc 1 88 0
 1008 0082 F060     		str	r0, [r6, #12]
 1009              		.loc 1 89 0
 1010 0084 0232     		adds	r2, r2, #2
 1011 0086 0846     		mov	r0, r1
 1012 0088 0093     		str	r3, [sp]
 1013 008a 4FF4A871 		mov	r1, #336
 1014 008e 374B     		ldr	r3, .L62+8
 1015 0090 FFF7FEFF 		bl	chThdCreateStatic
 1016              	.LVL72:
 1017 0094 3061     		str	r0, [r6, #16]
 1018              		.loc 1 90 0
 1019 0096 2846     		mov	r0, r5
 1020 0098 FFF7FEFF 		bl	chSemSignal
 1021              	.LVL73:
 1022              		.loc 1 91 0
 1023 009c 2846     		mov	r0, r5
ARM GAS  C:\Users\jo\AppData\Local\Temp\cch28mea.s 			page 19


 1024 009e FFF7FEFF 		bl	chSemSignal
 1025              	.LVL74:
 1026              		.loc 1 92 0
 1027 00a2 2846     		mov	r0, r5
 1028 00a4 FFF7FEFF 		bl	chSemSignal
 1029              	.LVL75:
 1030              		.loc 1 93 0
 1031 00a8 2846     		mov	r0, r5
 1032 00aa FFF7FEFF 		bl	chSemSignal
 1033              	.LVL76:
 1034              		.loc 1 94 0
 1035 00ae 2846     		mov	r0, r5
 1036 00b0 FFF7FEFF 		bl	chSemSignal
 1037              	.LVL77:
 1038              		.loc 1 95 0
 1039 00b4 FFF7FEFF 		bl	test_wait_threads
 1040              	.LVL78:
 1041              		.loc 1 99 0
 1042 00b8 0120     		movs	r0, #1
 1043 00ba 3349     		ldr	r1, .L62+36
 1044 00bc FFF7FEFF 		bl	_test_assert_sequence
 1045              	.LVL79:
 1046 00c0 10B1     		cbz	r0, .L61
 1047              		.loc 1 108 0
 1048 00c2 03B0     		add	sp, sp, #12
 1049              		.cfi_remember_state
 1050              		.cfi_def_cfa_offset 28
 1051              		@ sp needed
 1052 00c4 BDE8F083 		pop	{r4, r5, r6, r7, r8, r9, pc}
 1053              	.L61:
 1054              		.cfi_restore_state
 1055              	.LBB409:
 1056              	.LBB410:
 1057              		.loc 3 189 0
 1058 00c8 A269     		ldr	r2, [r4, #24]
 1059              	.LBE410:
 1060              	.LBE409:
 1061              		.loc 1 101 0
 1062 00ca 284B     		ldr	r3, .L62+8
 1063 00cc 9268     		ldr	r2, [r2, #8]
 1064 00ce CDF80090 		str	r9, [sp]
 1065 00d2 4046     		mov	r0, r8
 1066 00d4 0532     		adds	r2, r2, #5
 1067 00d6 4FF4A871 		mov	r1, #336
 1068 00da FFF7FEFF 		bl	chThdCreateStatic
 1069              	.LVL80:
 1070              	.LBB411:
 1071              	.LBB412:
 1072              	.LBB413:
 1073              	.LBB414:
 1074              	.LBB415:
 1075              		.loc 4 546 0
 1076 00de 2023     		movs	r3, #32
 1077              	.LBE415:
 1078              	.LBE414:
 1079              	.LBE413:
 1080              	.LBE412:
ARM GAS  C:\Users\jo\AppData\Local\Temp\cch28mea.s 			page 20


 1081              	.LBE411:
 1082              		.loc 1 101 0
 1083 00e0 3060     		str	r0, [r6]
 1084              	.LVL81:
 1085              	.LBB420:
 1086              	.LBB419:
 1087              	.LBB418:
 1088              	.LBB417:
 1089              	.LBB416:
 1090              		.loc 4 546 0
 1091              	@ 546 "../../../os/ext/CMSIS/include/core_cmFunc.h" 1
 1092 00e2 83F31188 		MSR basepri, r3
 1093              	@ 0 "" 2
 1094              		.thumb
 1095              	.LBE416:
 1096              	.LBE417:
 1097              	.LBE418:
 1098              		.loc 5 350 0
 1099 00e6 FFF7FEFF 		bl	_dbg_check_lock
 1100              	.LVL82:
 1101              	.LBE419:
 1102              	.LBE420:
 1103              		.loc 1 103 0
 1104 00ea 2846     		mov	r0, r5
 1105 00ec 0221     		movs	r1, #2
 1106 00ee FFF7FEFF 		bl	chSemAddCounterI
 1107              	.LVL83:
 1108              		.loc 1 104 0
 1109 00f2 FFF7FEFF 		bl	chSchRescheduleS
 1110              	.LVL84:
 1111              	.LBB421:
 1112              	.LBB422:
 1113              		.loc 5 360 0
 1114 00f6 FFF7FEFF 		bl	_dbg_check_unlock
 1115              	.LVL85:
 1116              		.loc 5 367 0
 1117 00fa 2368     		ldr	r3, [r4]
 1118 00fc A342     		cmp	r3, r4
 1119 00fe 07D0     		beq	.L52
 1120 0100 A269     		ldr	r2, [r4, #24]
 1121 0102 9B68     		ldr	r3, [r3, #8]
 1122 0104 9268     		ldr	r2, [r2, #8]
 1123 0106 9A42     		cmp	r2, r3
 1124 0108 02D2     		bcs	.L52
 1125 010a 2048     		ldr	r0, .L62+40
 1126 010c FFF7FEFF 		bl	chSysHalt
 1127              	.LVL86:
 1128              	.L52:
 1129              	.LBB423:
 1130              	.LBB424:
 1131              	.LBB425:
 1132              		.loc 4 546 0
 1133 0110 0023     		movs	r3, #0
 1134              	@ 546 "../../../os/ext/CMSIS/include/core_cmFunc.h" 1
 1135 0112 83F31188 		MSR basepri, r3
 1136              	@ 0 "" 2
 1137              		.thumb
ARM GAS  C:\Users\jo\AppData\Local\Temp\cch28mea.s 			page 21


 1138              	.LBE425:
 1139              	.LBE424:
 1140              	.LBE423:
 1141              	.LBE422:
 1142              	.LBE421:
 1143              		.loc 1 106 0
 1144 0116 FFF7FEFF 		bl	test_wait_threads
 1145              	.LVL87:
 1146              	.LBB426:
 1147              	.LBB427:
 1148              	.LBB428:
 1149              	.LBB429:
 1150              	.LBB430:
 1151              		.loc 4 546 0
 1152 011a 2023     		movs	r3, #32
 1153              	@ 546 "../../../os/ext/CMSIS/include/core_cmFunc.h" 1
 1154 011c 83F31188 		MSR basepri, r3
 1155              	@ 0 "" 2
 1156              		.thumb
 1157              	.LBE430:
 1158              	.LBE429:
 1159              	.LBE428:
 1160              		.loc 5 350 0
 1161 0120 FFF7FEFF 		bl	_dbg_check_lock
 1162              	.LVL88:
 1163              	.LBE427:
 1164              	.LBE426:
 1165              	.LBB431:
 1166              	.LBB432:
 1167              		.file 8 "../../../os/rt/include/chsem.h"
 1168              		.loc 8 151 0
 1169 0124 FFF7FEFF 		bl	chDbgCheckClassI
 1170              	.LVL89:
 1171              	.LBE432:
 1172              	.LBE431:
 1173              		.loc 1 107 0
 1174 0128 A968     		ldr	r1, [r5, #8]
 1175 012a 0220     		movs	r0, #2
 1176 012c A1F10101 		sub	r1, #1
 1177 0130 B1FA81F1 		clz	r1, r1
 1178 0134 4909     		lsrs	r1, r1, #5
 1179 0136 FFF7FEFF 		bl	_test_assert
 1180              	.LVL90:
 1181              	.LBB433:
 1182              	.LBB434:
 1183              		.loc 5 360 0
 1184 013a FFF7FEFF 		bl	_dbg_check_unlock
 1185              	.LVL91:
 1186              		.loc 5 367 0
 1187 013e 2368     		ldr	r3, [r4]
 1188 0140 084A     		ldr	r2, .L62
 1189 0142 A342     		cmp	r3, r4
 1190 0144 07D0     		beq	.L55
 1191 0146 9269     		ldr	r2, [r2, #24]
 1192 0148 9B68     		ldr	r3, [r3, #8]
 1193 014a 9268     		ldr	r2, [r2, #8]
 1194 014c 9A42     		cmp	r2, r3
ARM GAS  C:\Users\jo\AppData\Local\Temp\cch28mea.s 			page 22


 1195 014e 02D2     		bcs	.L55
 1196 0150 0E48     		ldr	r0, .L62+40
 1197 0152 FFF7FEFF 		bl	chSysHalt
 1198              	.LVL92:
 1199              	.L55:
 1200              	.LBB435:
 1201              	.LBB436:
 1202              	.LBB437:
 1203              		.loc 4 546 0
 1204 0156 0023     		movs	r3, #0
 1205              	@ 546 "../../../os/ext/CMSIS/include/core_cmFunc.h" 1
 1206 0158 83F31188 		MSR basepri, r3
 1207              	@ 0 "" 2
 1208              		.thumb
 1209              	.LBE437:
 1210              	.LBE436:
 1211              	.LBE435:
 1212              	.LBE434:
 1213              	.LBE433:
 1214              		.loc 1 108 0
 1215 015c 03B0     		add	sp, sp, #12
 1216              		.cfi_def_cfa_offset 28
 1217              		@ sp needed
 1218 015e BDE8F083 		pop	{r4, r5, r6, r7, r8, r9, pc}
 1219              	.L63:
 1220 0162 00BF     		.align	2
 1221              	.L62:
 1222 0164 00000000 		.word	ch
 1223 0168 00000000 		.word	wa
 1224 016c 00000000 		.word	thread1
 1225 0170 00000000 		.word	threads
 1226 0174 00000000 		.word	.LANCHOR0
 1227 0178 0C000000 		.word	.LC2
 1228 017c 10000000 		.word	.LC3
 1229 0180 14000000 		.word	.LC4
 1230 0184 18000000 		.word	.LC5
 1231 0188 00000000 		.word	.LC0
 1232 018c 00000000 		.word	.LANCHOR1
 1233 0190 08000000 		.word	.LC1
 1234              		.cfi_endproc
 1235              	.LFE230:
 1236              		.size	sem1_execute, .-sem1_execute
 1237 0194 AFF30080 		.section	.text.sem4_execute,"ax",%progbits
 1237      AFF30080 
 1237      AFF30080 
 1238              		.align	2
 1239              		.p2align 4,,15
 1240              		.thumb
 1241              		.thumb_func
 1242              		.type	sem4_execute, %function
 1243              	sem4_execute:
 1244              	.LFB238:
 1245              		.loc 1 246 0
 1246              		.cfi_startproc
 1247              		@ args = 0, pretend = 0, frame = 16
 1248              		@ frame_needed = 0, uses_anonymous_args = 0
 1249 0000 30B5     		push	{r4, r5, lr}
ARM GAS  C:\Users\jo\AppData\Local\Temp\cch28mea.s 			page 23


 1250              		.cfi_def_cfa_offset 12
 1251              		.cfi_offset 4, -12
 1252              		.cfi_offset 5, -8
 1253              		.cfi_offset 14, -4
 1254 0002 87B0     		sub	sp, sp, #28
 1255              		.cfi_def_cfa_offset 40
 1256              	.LVL93:
 1257              	.LBB578:
 1258              	.LBB579:
 1259              		.loc 7 126 0
 1260 0004 03A8     		add	r0, sp, #12
 1261              	.LVL94:
 1262 0006 0021     		movs	r1, #0
 1263 0008 FFF7FEFF 		bl	chSemObjectInit
 1264              	.LVL95:
 1265              	.LBE579:
 1266              	.LBE578:
 1267              	.LBB580:
 1268              	.LBB581:
 1269              		.loc 7 255 0
 1270 000c 03A8     		add	r0, sp, #12
 1271              	.LVL96:
 1272 000e 0021     		movs	r1, #0
 1273 0010 FFF7FEFF 		bl	chSemReset
 1274              	.LVL97:
 1275              	.LBE581:
 1276              	.LBE580:
 1277              	.LBB582:
 1278              	.LBB583:
 1279              	.LBB584:
 1280              	.LBB585:
 1281              	.LBB586:
 1282              		.loc 4 546 0
 1283 0014 2023     		movs	r3, #32
 1284              	@ 546 "../../../os/ext/CMSIS/include/core_cmFunc.h" 1
 1285 0016 83F31188 		MSR basepri, r3
 1286              	@ 0 "" 2
 1287              		.thumb
 1288              	.LBE586:
 1289              	.LBE585:
 1290              	.LBE584:
 1291              		.loc 5 350 0
 1292 001a FFF7FEFF 		bl	_dbg_check_lock
 1293              	.LVL98:
 1294              	.LBE583:
 1295              	.LBE582:
 1296              	.LBB587:
 1297              	.LBB588:
 1298              		.loc 7 302 0
 1299 001e FFF7FEFF 		bl	chDbgCheckClassI
 1300              	.LVL99:
 1301              		.loc 7 304 0
 1302 0022 0599     		ldr	r1, [sp, #20]
 1303              	.LBE588:
 1304              	.LBE587:
 1305              		.loc 1 252 0
 1306 0024 0029     		cmp	r1, #0
ARM GAS  C:\Users\jo\AppData\Local\Temp\cch28mea.s 			page 24


 1307 0026 CCBF     		ite	gt
 1308 0028 0021     		movgt	r1, #0
 1309 002a 0121     		movle	r1, #1
 1310 002c 0120     		movs	r0, #1
 1311 002e FFF7FEFF 		bl	_test_assert
 1312              	.LVL100:
 1313 0032 78B1     		cbz	r0, .L65
 1314              	.LBB589:
 1315              	.LBB590:
 1316              		.loc 5 360 0
 1317 0034 FFF7FEFF 		bl	_dbg_check_unlock
 1318              	.LVL101:
 1319              		.loc 5 367 0
 1320 0038 9A4B     		ldr	r3, .L108
 1321 003a 1A68     		ldr	r2, [r3]
 1322 003c 9A42     		cmp	r2, r3
 1323 003e 04D0     		beq	.L87
 1324 0040 9969     		ldr	r1, [r3, #24]
 1325 0042 9368     		ldr	r3, [r2, #8]
 1326 0044 8A68     		ldr	r2, [r1, #8]
 1327 0046 9A42     		cmp	r2, r3
 1328 0048 3FD3     		bcc	.L90
 1329              	.L87:
 1330              	.LVL102:
 1331              	.LBE590:
 1332              	.LBE589:
 1333              	.LBB591:
 1334              	.LBB592:
 1335              	.LBB593:
 1336              	.LBB594:
 1337              	.LBB595:
 1338              		.loc 4 546 0
 1339 004a 0023     		movs	r3, #0
 1340              	@ 546 "../../../os/ext/CMSIS/include/core_cmFunc.h" 1
 1341 004c 83F31188 		MSR basepri, r3
 1342              	@ 0 "" 2
 1343              		.thumb
 1344              	.LBE595:
 1345              	.LBE594:
 1346              	.LBE593:
 1347              	.LBE592:
 1348              	.LBE591:
 1349              		.loc 1 274 0
 1350 0050 07B0     		add	sp, sp, #28
 1351              		.cfi_remember_state
 1352              		.cfi_def_cfa_offset 12
 1353              		@ sp needed
 1354 0052 30BD     		pop	{r4, r5, pc}
 1355              	.LVL103:
 1356              	.L65:
 1357              		.cfi_restore_state
 1358              	.LBB604:
 1359              	.LBB605:
 1360              		.loc 5 367 0
 1361 0054 934C     		ldr	r4, .L108
 1362              		.loc 5 360 0
 1363 0056 FFF7FEFF 		bl	_dbg_check_unlock
ARM GAS  C:\Users\jo\AppData\Local\Temp\cch28mea.s 			page 25


 1364              	.LVL104:
 1365              		.loc 5 367 0
 1366 005a 2368     		ldr	r3, [r4]
 1367 005c A342     		cmp	r3, r4
 1368 005e 05D0     		beq	.L68
 1369 0060 A269     		ldr	r2, [r4, #24]
 1370 0062 9B68     		ldr	r3, [r3, #8]
 1371 0064 9268     		ldr	r2, [r2, #8]
 1372 0066 9A42     		cmp	r2, r3
 1373 0068 C0F00081 		bcc	.L101
 1374              	.L68:
 1375              	.LVL105:
 1376              	.LBB606:
 1377              	.LBB607:
 1378              	.LBB608:
 1379              		.loc 4 546 0
 1380 006c 0023     		movs	r3, #0
 1381              	@ 546 "../../../os/ext/CMSIS/include/core_cmFunc.h" 1
 1382 006e 83F31188 		MSR basepri, r3
 1383              	@ 0 "" 2
 1384              		.thumb
 1385              	.LBE608:
 1386              	.LBE607:
 1387              	.LBE606:
 1388              	.LBE605:
 1389              	.LBE604:
 1390              		.loc 1 255 0
 1391 0072 8D4A     		ldr	r2, .L108+4
 1392              	.LBB610:
 1393              	.LBB611:
 1394              		.loc 3 189 0
 1395 0074 A369     		ldr	r3, [r4, #24]
 1396              	.LBE611:
 1397              	.LBE610:
 1398              		.loc 1 255 0
 1399 0076 1068     		ldr	r0, [r2]
 1400 0078 9A68     		ldr	r2, [r3, #8]
 1401 007a 8C4B     		ldr	r3, .L108+8
 1402              	.LBB615:
 1403              	.LBB614:
 1404              	.LBB612:
 1405              	.LBB613:
 1406              		.loc 3 176 0
 1407 007c 894D     		ldr	r5, .L108
 1408              	.LBE613:
 1409              	.LBE612:
 1410              	.LBE614:
 1411              	.LBE615:
 1412              		.loc 1 255 0
 1413 007e 03A9     		add	r1, sp, #12
 1414              	.LVL106:
 1415 0080 0091     		str	r1, [sp]
 1416 0082 013A     		subs	r2, r2, #1
 1417 0084 4FF4A871 		mov	r1, #336
 1418              	.LVL107:
 1419 0088 FFF7FEFF 		bl	chThdCreateStatic
 1420              	.LVL108:
ARM GAS  C:\Users\jo\AppData\Local\Temp\cch28mea.s 			page 26


 1421 008c 884B     		ldr	r3, .L108+12
 1422 008e 1860     		str	r0, [r3]
 1423              	.LVL109:
 1424              	.LBB616:
 1425              	.LBB617:
 1426              		.loc 7 143 0
 1427 0090 03A8     		add	r0, sp, #12
 1428              	.LVL110:
 1429 0092 FFF7FEFF 		bl	chSemWait
 1430              	.LVL111:
 1431              	.LBE617:
 1432              	.LBE616:
 1433              	.LBB618:
 1434              	.LBB619:
 1435              	.LBB620:
 1436              	.LBB621:
 1437              	.LBB622:
 1438              		.loc 4 546 0
 1439 0096 2023     		movs	r3, #32
 1440              	@ 546 "../../../os/ext/CMSIS/include/core_cmFunc.h" 1
 1441 0098 83F31188 		MSR basepri, r3
 1442              	@ 0 "" 2
 1443              		.thumb
 1444              	.LBE622:
 1445              	.LBE621:
 1446              	.LBE620:
 1447              		.loc 5 350 0
 1448 009c FFF7FEFF 		bl	_dbg_check_lock
 1449              	.LVL112:
 1450              	.LBE619:
 1451              	.LBE618:
 1452              	.LBB623:
 1453              	.LBB624:
 1454              		.loc 7 302 0
 1455 00a0 FFF7FEFF 		bl	chDbgCheckClassI
 1456              	.LVL113:
 1457              		.loc 7 304 0
 1458 00a4 0599     		ldr	r1, [sp, #20]
 1459              	.LBE624:
 1460              	.LBE623:
 1461              		.loc 1 262 0
 1462 00a6 0029     		cmp	r1, #0
 1463 00a8 CCBF     		ite	gt
 1464 00aa 0021     		movgt	r1, #0
 1465 00ac 0121     		movle	r1, #1
 1466 00ae 0220     		movs	r0, #2
 1467 00b0 FFF7FEFF 		bl	_test_assert
 1468              	.LVL114:
 1469 00b4 88B1     		cbz	r0, .L69
 1470              	.LBB625:
 1471              	.LBB626:
 1472              		.loc 5 360 0
 1473 00b6 FFF7FEFF 		bl	_dbg_check_unlock
 1474              	.LVL115:
 1475              		.loc 5 367 0
 1476 00ba 2B68     		ldr	r3, [r5]
 1477 00bc AB42     		cmp	r3, r5
ARM GAS  C:\Users\jo\AppData\Local\Temp\cch28mea.s 			page 27


 1478 00be C4D0     		beq	.L87
 1479 00c0 AA69     		ldr	r2, [r5, #24]
 1480 00c2 9B68     		ldr	r3, [r3, #8]
 1481 00c4 9268     		ldr	r2, [r2, #8]
 1482 00c6 9A42     		cmp	r2, r3
 1483 00c8 BFD2     		bcs	.L87
 1484              	.LVL116:
 1485              	.L90:
 1486              	.LBE626:
 1487              	.LBE625:
 1488              	.LBB627:
 1489              	.LBB602:
 1490 00ca 7A48     		ldr	r0, .L108+16
 1491 00cc FFF7FEFF 		bl	chSysHalt
 1492              	.LVL117:
 1493              	.LBB600:
 1494              	.LBB598:
 1495              	.LBB596:
 1496              		.loc 4 546 0
 1497 00d0 0023     		movs	r3, #0
 1498              	@ 546 "../../../os/ext/CMSIS/include/core_cmFunc.h" 1
 1499 00d2 83F31188 		MSR basepri, r3
 1500              	@ 0 "" 2
 1501              		.thumb
 1502              	.LBE596:
 1503              	.LBE598:
 1504              	.LBE600:
 1505              	.LBE602:
 1506              	.LBE627:
 1507              		.loc 1 274 0
 1508 00d6 07B0     		add	sp, sp, #28
 1509              		.cfi_remember_state
 1510              		.cfi_def_cfa_offset 12
 1511              		@ sp needed
 1512 00d8 30BD     		pop	{r4, r5, pc}
 1513              	.LVL118:
 1514              	.L69:
 1515              		.cfi_restore_state
 1516              	.LBB628:
 1517              	.LBB629:
 1518              		.loc 5 360 0
 1519 00da FFF7FEFF 		bl	_dbg_check_unlock
 1520              	.LVL119:
 1521              		.loc 5 367 0
 1522 00de 2B68     		ldr	r3, [r5]
 1523 00e0 AB42     		cmp	r3, r5
 1524 00e2 05D0     		beq	.L71
 1525 00e4 AA69     		ldr	r2, [r5, #24]
 1526 00e6 9B68     		ldr	r3, [r3, #8]
 1527 00e8 9268     		ldr	r2, [r2, #8]
 1528 00ea 9A42     		cmp	r2, r3
 1529 00ec C0F0C680 		bcc	.L102
 1530              	.L71:
 1531              	.LVL120:
 1532              	.LBB630:
 1533              	.LBB631:
 1534              	.LBB632:
ARM GAS  C:\Users\jo\AppData\Local\Temp\cch28mea.s 			page 28


 1535              		.loc 4 546 0
 1536 00f0 0023     		movs	r3, #0
 1537              	@ 546 "../../../os/ext/CMSIS/include/core_cmFunc.h" 1
 1538 00f2 83F31188 		MSR basepri, r3
 1539              	@ 0 "" 2
 1540              	.LVL121:
 1541              		.thumb
 1542              	.LBE632:
 1543              	.LBE631:
 1544              	.LBE630:
 1545              	.LBE629:
 1546              	.LBE628:
 1547              	.LBB634:
 1548              	.LBB635:
 1549              	.LBB636:
 1550              	.LBB637:
 1551              	.LBB638:
 1552              	.LBB639:
 1553              	.LBB640:
 1554 00f6 2023     		movs	r3, #32
 1555              	@ 546 "../../../os/ext/CMSIS/include/core_cmFunc.h" 1
 1556 00f8 83F31188 		MSR basepri, r3
 1557              	@ 0 "" 2
 1558              		.thumb
 1559              	.LBE640:
 1560              	.LBE639:
 1561              	.LBE638:
 1562              		.loc 5 350 0
 1563 00fc FFF7FEFF 		bl	_dbg_check_lock
 1564              	.LVL122:
 1565              	.LBE637:
 1566              	.LBE636:
 1567              	.LBB641:
 1568              	.LBB642:
 1569              		.loc 7 268 0
 1570 0100 FFF7FEFF 		bl	chDbgCheckClassI
 1571              	.LVL123:
 1572              		.loc 7 270 0
 1573 0104 059B     		ldr	r3, [sp, #20]
 1574 0106 002B     		cmp	r3, #0
 1575 0108 40F3C480 		ble	.L103
 1576              	.L72:
 1577              	.LBE642:
 1578              	.LBE641:
 1579              		.loc 7 286 0
 1580 010c FFF7FEFF 		bl	chSchRescheduleS
 1581              	.LVL124:
 1582              	.LBB644:
 1583              	.LBB645:
 1584              		.loc 5 360 0
 1585 0110 FFF7FEFF 		bl	_dbg_check_unlock
 1586              	.LVL125:
 1587              		.loc 5 367 0
 1588 0114 2368     		ldr	r3, [r4]
 1589 0116 634A     		ldr	r2, .L108
 1590 0118 A342     		cmp	r3, r4
 1591 011a 05D0     		beq	.L73
ARM GAS  C:\Users\jo\AppData\Local\Temp\cch28mea.s 			page 29


 1592 011c 9269     		ldr	r2, [r2, #24]
 1593 011e 9B68     		ldr	r3, [r3, #8]
 1594 0120 9268     		ldr	r2, [r2, #8]
 1595 0122 9A42     		cmp	r2, r3
 1596 0124 C0F0A680 		bcc	.L104
 1597              	.L73:
 1598              	.LVL126:
 1599              	.LBB646:
 1600              	.LBB647:
 1601              	.LBB648:
 1602              		.loc 4 546 0
 1603 0128 0023     		movs	r3, #0
 1604              	@ 546 "../../../os/ext/CMSIS/include/core_cmFunc.h" 1
 1605 012a 83F31188 		MSR basepri, r3
 1606              	@ 0 "" 2
 1607              	.LVL127:
 1608              		.thumb
 1609              	.LBE648:
 1610              	.LBE647:
 1611              	.LBE646:
 1612              	.LBE645:
 1613              	.LBE644:
 1614              	.LBE635:
 1615              	.LBE634:
 1616              	.LBB654:
 1617              	.LBB655:
 1618              	.LBB656:
 1619              	.LBB657:
 1620              	.LBB658:
 1621 012e 2023     		movs	r3, #32
 1622              	@ 546 "../../../os/ext/CMSIS/include/core_cmFunc.h" 1
 1623 0130 83F31188 		MSR basepri, r3
 1624              	@ 0 "" 2
 1625              		.thumb
 1626              	.LBE658:
 1627              	.LBE657:
 1628              	.LBE656:
 1629              		.loc 5 350 0
 1630 0134 FFF7FEFF 		bl	_dbg_check_lock
 1631              	.LVL128:
 1632              	.LBE655:
 1633              	.LBE654:
 1634              	.LBB659:
 1635              	.LBB660:
 1636              		.loc 7 302 0
 1637 0138 FFF7FEFF 		bl	chDbgCheckClassI
 1638              	.LVL129:
 1639              	.LBE660:
 1640              	.LBE659:
 1641              		.loc 1 267 0
 1642 013c 0599     		ldr	r1, [sp, #20]
 1643 013e 0029     		cmp	r1, #0
 1644 0140 D4BF     		ite	le
 1645 0142 0021     		movle	r1, #0
 1646 0144 0121     		movgt	r1, #1
 1647 0146 0320     		movs	r0, #3
 1648 0148 FFF7FEFF 		bl	_test_assert
ARM GAS  C:\Users\jo\AppData\Local\Temp\cch28mea.s 			page 30


 1649              	.LVL130:
 1650 014c 0028     		cmp	r0, #0
 1651 014e 7BD1     		bne	.L85
 1652              	.LBB661:
 1653              	.LBB662:
 1654              		.loc 5 360 0
 1655 0150 FFF7FEFF 		bl	_dbg_check_unlock
 1656              	.LVL131:
 1657              		.loc 5 367 0
 1658 0154 2368     		ldr	r3, [r4]
 1659 0156 534A     		ldr	r2, .L108
 1660 0158 A342     		cmp	r3, r4
 1661 015a 07D0     		beq	.L76
 1662 015c 9269     		ldr	r2, [r2, #24]
 1663 015e 9B68     		ldr	r3, [r3, #8]
 1664 0160 9268     		ldr	r2, [r2, #8]
 1665 0162 9A42     		cmp	r2, r3
 1666 0164 02D2     		bcs	.L76
 1667 0166 5348     		ldr	r0, .L108+16
 1668 0168 FFF7FEFF 		bl	chSysHalt
 1669              	.LVL132:
 1670              	.L76:
 1671              	.LBB663:
 1672              	.LBB664:
 1673              	.LBB665:
 1674              		.loc 4 546 0
 1675 016c 0023     		movs	r3, #0
 1676              	@ 546 "../../../os/ext/CMSIS/include/core_cmFunc.h" 1
 1677 016e 83F31188 		MSR basepri, r3
 1678              	@ 0 "" 2
 1679              	.LVL133:
 1680              		.thumb
 1681              	.LBE665:
 1682              	.LBE664:
 1683              	.LBE663:
 1684              	.LBE662:
 1685              	.LBE661:
 1686              	.LBB666:
 1687              	.LBB667:
 1688              	.LBB668:
 1689              	.LBB669:
 1690              	.LBB670:
 1691 0172 2023     		movs	r3, #32
 1692              	@ 546 "../../../os/ext/CMSIS/include/core_cmFunc.h" 1
 1693 0174 83F31188 		MSR basepri, r3
 1694              	@ 0 "" 2
 1695              		.thumb
 1696              	.LBE670:
 1697              	.LBE669:
 1698              	.LBE668:
 1699              		.loc 5 350 0
 1700 0178 FFF7FEFF 		bl	_dbg_check_lock
 1701              	.LVL134:
 1702              	.LBE667:
 1703              	.LBE666:
 1704              	.LBB671:
 1705              	.LBB672:
ARM GAS  C:\Users\jo\AppData\Local\Temp\cch28mea.s 			page 31


 1706              		.loc 8 151 0
 1707 017c FFF7FEFF 		bl	chDbgCheckClassI
 1708              	.LVL135:
 1709              	.LBE672:
 1710              	.LBE671:
 1711              		.loc 1 268 0
 1712 0180 0599     		ldr	r1, [sp, #20]
 1713 0182 0420     		movs	r0, #4
 1714 0184 A1F10101 		sub	r1, #1
 1715 0188 B1FA81F1 		clz	r1, r1
 1716 018c 4909     		lsrs	r1, r1, #5
 1717 018e FFF7FEFF 		bl	_test_assert
 1718              	.LVL136:
 1719 0192 0028     		cmp	r0, #0
 1720 0194 58D1     		bne	.L85
 1721              	.LBB673:
 1722              	.LBB674:
 1723              		.loc 5 360 0
 1724 0196 FFF7FEFF 		bl	_dbg_check_unlock
 1725              	.LVL137:
 1726              		.loc 5 367 0
 1727 019a 2368     		ldr	r3, [r4]
 1728 019c 414A     		ldr	r2, .L108
 1729 019e A342     		cmp	r3, r4
 1730 01a0 04D0     		beq	.L79
 1731 01a2 9269     		ldr	r2, [r2, #24]
 1732 01a4 9B68     		ldr	r3, [r3, #8]
 1733 01a6 9268     		ldr	r2, [r2, #8]
 1734 01a8 9A42     		cmp	r2, r3
 1735 01aa 6FD3     		bcc	.L105
 1736              	.L79:
 1737              	.LVL138:
 1738              	.LBB675:
 1739              	.LBB676:
 1740              	.LBB677:
 1741              		.loc 4 546 0
 1742 01ac 0023     		movs	r3, #0
 1743              	@ 546 "../../../os/ext/CMSIS/include/core_cmFunc.h" 1
 1744 01ae 83F31188 		MSR basepri, r3
 1745              	@ 0 "" 2
 1746              	.LVL139:
 1747              		.thumb
 1748              	.LBE677:
 1749              	.LBE676:
 1750              	.LBE675:
 1751              	.LBE674:
 1752              	.LBE673:
 1753              	.LBB679:
 1754              	.LBB680:
 1755              	.LBB681:
 1756              	.LBB682:
 1757              	.LBB683:
 1758              	.LBB684:
 1759              	.LBB685:
 1760 01b2 2023     		movs	r3, #32
 1761              	@ 546 "../../../os/ext/CMSIS/include/core_cmFunc.h" 1
 1762 01b4 83F31188 		MSR basepri, r3
ARM GAS  C:\Users\jo\AppData\Local\Temp\cch28mea.s 			page 32


 1763              	@ 0 "" 2
 1764              		.thumb
 1765              	.LBE685:
 1766              	.LBE684:
 1767              	.LBE683:
 1768              		.loc 5 350 0
 1769 01b8 FFF7FEFF 		bl	_dbg_check_lock
 1770              	.LVL140:
 1771              	.LBE682:
 1772              	.LBE681:
 1773              	.LBB686:
 1774              	.LBB687:
 1775              		.loc 7 268 0
 1776 01bc FFF7FEFF 		bl	chDbgCheckClassI
 1777              	.LVL141:
 1778              		.loc 7 270 0
 1779 01c0 059B     		ldr	r3, [sp, #20]
 1780 01c2 002B     		cmp	r3, #0
 1781 01c4 6ADD     		ble	.L106
 1782              	.L80:
 1783              	.LBE687:
 1784              	.LBE686:
 1785              		.loc 7 286 0
 1786 01c6 FFF7FEFF 		bl	chSchRescheduleS
 1787              	.LVL142:
 1788              	.LBB689:
 1789              	.LBB690:
 1790              		.loc 5 360 0
 1791 01ca FFF7FEFF 		bl	_dbg_check_unlock
 1792              	.LVL143:
 1793              		.loc 5 367 0
 1794 01ce 2368     		ldr	r3, [r4]
 1795 01d0 344A     		ldr	r2, .L108
 1796 01d2 A342     		cmp	r3, r4
 1797 01d4 04D0     		beq	.L81
 1798 01d6 9269     		ldr	r2, [r2, #24]
 1799 01d8 9B68     		ldr	r3, [r3, #8]
 1800 01da 9268     		ldr	r2, [r2, #8]
 1801 01dc 9A42     		cmp	r2, r3
 1802 01de 51D3     		bcc	.L107
 1803              	.L81:
 1804              	.LVL144:
 1805              	.LBB691:
 1806              	.LBB692:
 1807              	.LBB693:
 1808              		.loc 4 546 0
 1809 01e0 0023     		movs	r3, #0
 1810              	@ 546 "../../../os/ext/CMSIS/include/core_cmFunc.h" 1
 1811 01e2 83F31188 		MSR basepri, r3
 1812              	@ 0 "" 2
 1813              	.LVL145:
 1814              		.thumb
 1815              	.LBE693:
 1816              	.LBE692:
 1817              	.LBE691:
 1818              	.LBE690:
 1819              	.LBE689:
ARM GAS  C:\Users\jo\AppData\Local\Temp\cch28mea.s 			page 33


 1820              	.LBE680:
 1821              	.LBE679:
 1822              	.LBB699:
 1823              	.LBB700:
 1824              	.LBB701:
 1825              	.LBB702:
 1826              	.LBB703:
 1827 01e6 2023     		movs	r3, #32
 1828              	@ 546 "../../../os/ext/CMSIS/include/core_cmFunc.h" 1
 1829 01e8 83F31188 		MSR basepri, r3
 1830              	@ 0 "" 2
 1831              		.thumb
 1832              	.LBE703:
 1833              	.LBE702:
 1834              	.LBE701:
 1835              		.loc 5 350 0
 1836 01ec FFF7FEFF 		bl	_dbg_check_lock
 1837              	.LVL146:
 1838              	.LBE700:
 1839              	.LBE699:
 1840              	.LBB704:
 1841              	.LBB705:
 1842              		.loc 7 302 0
 1843 01f0 FFF7FEFF 		bl	chDbgCheckClassI
 1844              	.LVL147:
 1845              	.LBE705:
 1846              	.LBE704:
 1847              		.loc 1 272 0
 1848 01f4 0599     		ldr	r1, [sp, #20]
 1849 01f6 0029     		cmp	r1, #0
 1850 01f8 D4BF     		ite	le
 1851 01fa 0021     		movle	r1, #0
 1852 01fc 0121     		movgt	r1, #1
 1853 01fe 0320     		movs	r0, #3
 1854 0200 FFF7FEFF 		bl	_test_assert
 1855              	.LVL148:
 1856 0204 00BB     		cbnz	r0, .L85
 1857              	.LBB706:
 1858              	.LBB707:
 1859              		.loc 5 360 0
 1860 0206 FFF7FEFF 		bl	_dbg_check_unlock
 1861              	.LVL149:
 1862              		.loc 5 367 0
 1863 020a 2368     		ldr	r3, [r4]
 1864 020c 254A     		ldr	r2, .L108
 1865 020e A342     		cmp	r3, r4
 1866 0210 07D0     		beq	.L84
 1867 0212 9269     		ldr	r2, [r2, #24]
 1868 0214 9B68     		ldr	r3, [r3, #8]
 1869 0216 9268     		ldr	r2, [r2, #8]
 1870 0218 9A42     		cmp	r2, r3
 1871 021a 02D2     		bcs	.L84
 1872 021c 2548     		ldr	r0, .L108+16
 1873 021e FFF7FEFF 		bl	chSysHalt
 1874              	.LVL150:
 1875              	.L84:
 1876              	.LBB708:
ARM GAS  C:\Users\jo\AppData\Local\Temp\cch28mea.s 			page 34


 1877              	.LBB709:
 1878              	.LBB710:
 1879              		.loc 4 546 0
 1880 0222 0023     		movs	r3, #0
 1881              	@ 546 "../../../os/ext/CMSIS/include/core_cmFunc.h" 1
 1882 0224 83F31188 		MSR basepri, r3
 1883              	@ 0 "" 2
 1884              	.LVL151:
 1885              		.thumb
 1886              	.LBE710:
 1887              	.LBE709:
 1888              	.LBE708:
 1889              	.LBE707:
 1890              	.LBE706:
 1891              	.LBB711:
 1892              	.LBB712:
 1893              	.LBB713:
 1894              	.LBB714:
 1895              	.LBB715:
 1896 0228 2023     		movs	r3, #32
 1897              	@ 546 "../../../os/ext/CMSIS/include/core_cmFunc.h" 1
 1898 022a 83F31188 		MSR basepri, r3
 1899              	@ 0 "" 2
 1900              		.thumb
 1901              	.LBE715:
 1902              	.LBE714:
 1903              	.LBE713:
 1904              		.loc 5 350 0
 1905 022e FFF7FEFF 		bl	_dbg_check_lock
 1906              	.LVL152:
 1907              	.LBE712:
 1908              	.LBE711:
 1909              	.LBB716:
 1910              	.LBB717:
 1911              		.loc 8 151 0
 1912 0232 FFF7FEFF 		bl	chDbgCheckClassI
 1913              	.LVL153:
 1914              	.LBE717:
 1915              	.LBE716:
 1916              		.loc 1 273 0
 1917 0236 0599     		ldr	r1, [sp, #20]
 1918 0238 0520     		movs	r0, #5
 1919 023a A1F10101 		sub	r1, #1
 1920 023e B1FA81F1 		clz	r1, r1
 1921 0242 4909     		lsrs	r1, r1, #5
 1922 0244 FFF7FEFF 		bl	_test_assert
 1923              	.LVL154:
 1924              	.L85:
 1925              	.LBB718:
 1926              	.LBB603:
 1927              		.loc 5 360 0
 1928 0248 FFF7FEFF 		bl	_dbg_check_unlock
 1929              	.LVL155:
 1930              		.loc 5 367 0
 1931 024c 2368     		ldr	r3, [r4]
 1932 024e 154A     		ldr	r2, .L108
 1933 0250 A342     		cmp	r3, r4
ARM GAS  C:\Users\jo\AppData\Local\Temp\cch28mea.s 			page 35


 1934 0252 3FF4FAAE 		beq	.L87
 1935 0256 9269     		ldr	r2, [r2, #24]
 1936 0258 9B68     		ldr	r3, [r3, #8]
 1937 025a 9268     		ldr	r2, [r2, #8]
 1938 025c 9A42     		cmp	r2, r3
 1939 025e FFF434AF 		bcc	.L90
 1940              	.LVL156:
 1941              	.LBB601:
 1942              	.LBB599:
 1943              	.LBB597:
 1944              		.loc 4 546 0
 1945 0262 0023     		movs	r3, #0
 1946              	@ 546 "../../../os/ext/CMSIS/include/core_cmFunc.h" 1
 1947 0264 83F31188 		MSR basepri, r3
 1948              	@ 0 "" 2
 1949              		.thumb
 1950              	.LBE597:
 1951              	.LBE599:
 1952              	.LBE601:
 1953              	.LBE603:
 1954              	.LBE718:
 1955              		.loc 1 274 0
 1956 0268 07B0     		add	sp, sp, #28
 1957              		.cfi_remember_state
 1958              		.cfi_def_cfa_offset 12
 1959              		@ sp needed
 1960 026a 30BD     		pop	{r4, r5, pc}
 1961              	.LVL157:
 1962              	.L101:
 1963              		.cfi_restore_state
 1964              	.LBB719:
 1965              	.LBB609:
 1966              		.loc 5 367 0
 1967 026c 1148     		ldr	r0, .L108+16
 1968 026e FFF7FEFF 		bl	chSysHalt
 1969              	.LVL158:
 1970 0272 FBE6     		b	.L68
 1971              	.LVL159:
 1972              	.L104:
 1973              	.LBE609:
 1974              	.LBE719:
 1975              	.LBB720:
 1976              	.LBB652:
 1977              	.LBB650:
 1978              	.LBB649:
 1979 0274 0F48     		ldr	r0, .L108+16
 1980 0276 FFF7FEFF 		bl	chSysHalt
 1981              	.LVL160:
 1982 027a 55E7     		b	.L73
 1983              	.LVL161:
 1984              	.L102:
 1985              	.LBE649:
 1986              	.LBE650:
 1987              	.LBE652:
 1988              	.LBE720:
 1989              	.LBB721:
 1990              	.LBB633:
ARM GAS  C:\Users\jo\AppData\Local\Temp\cch28mea.s 			page 36


 1991 027c 0D48     		ldr	r0, .L108+16
 1992 027e FFF7FEFF 		bl	chSysHalt
 1993              	.LVL162:
 1994 0282 35E7     		b	.L71
 1995              	.LVL163:
 1996              	.L107:
 1997              	.LBE633:
 1998              	.LBE721:
 1999              	.LBB722:
 2000              	.LBB697:
 2001              	.LBB695:
 2002              	.LBB694:
 2003 0284 0B48     		ldr	r0, .L108+16
 2004 0286 FFF7FEFF 		bl	chSysHalt
 2005              	.LVL164:
 2006 028a A9E7     		b	.L81
 2007              	.LVL165:
 2008              	.L105:
 2009              	.LBE694:
 2010              	.LBE695:
 2011              	.LBE697:
 2012              	.LBE722:
 2013              	.LBB723:
 2014              	.LBB678:
 2015 028c 0948     		ldr	r0, .L108+16
 2016 028e FFF7FEFF 		bl	chSysHalt
 2017              	.LVL166:
 2018 0292 8BE7     		b	.L79
 2019              	.LVL167:
 2020              	.L103:
 2021              	.LBE678:
 2022              	.LBE723:
 2023              	.LBB724:
 2024              	.LBB653:
 2025              	.LBB651:
 2026              	.LBB643:
 2027              		.loc 7 271 0
 2028 0294 03A8     		add	r0, sp, #12
 2029              	.LVL168:
 2030 0296 FFF7FEFF 		bl	chSemSignalI
 2031              	.LVL169:
 2032 029a 37E7     		b	.L72
 2033              	.LVL170:
 2034              	.L106:
 2035              	.LBE643:
 2036              	.LBE651:
 2037              	.LBE653:
 2038              	.LBE724:
 2039              	.LBB725:
 2040              	.LBB698:
 2041              	.LBB696:
 2042              	.LBB688:
 2043 029c 03A8     		add	r0, sp, #12
 2044              	.LVL171:
 2045 029e FFF7FEFF 		bl	chSemSignalI
 2046              	.LVL172:
 2047 02a2 90E7     		b	.L80
ARM GAS  C:\Users\jo\AppData\Local\Temp\cch28mea.s 			page 37


 2048              	.L109:
 2049              		.align	2
 2050              	.L108:
 2051 02a4 00000000 		.word	ch
 2052 02a8 00000000 		.word	wa
 2053 02ac 00000000 		.word	thread4
 2054 02b0 00000000 		.word	threads
 2055 02b4 00000000 		.word	.LANCHOR1
 2056              	.LBE688:
 2057              	.LBE696:
 2058              	.LBE698:
 2059              	.LBE725:
 2060              		.cfi_endproc
 2061              	.LFE238:
 2062              		.size	sem4_execute, .-sem4_execute
 2063              		.global	patternsem
 2064              		.global	testsem4
 2065              		.global	testsem3
 2066              		.global	testsem2
 2067              		.global	testsem1
 2068 02b8 AFF30080 		.section	.rodata.testsem1,"a",%progbits
 2068      AFF30080 
 2069              		.align	2
 2070              		.type	testsem1, %object
 2071              		.size	testsem1, 16
 2072              	testsem1:
 2073 0000 74000000 		.word	.LC9
 2074 0004 00000000 		.word	sem1_setup
 2075 0008 00000000 		.word	0
 2076 000c 00000000 		.word	sem1_execute
 2077              		.section	.rodata.testsem2,"a",%progbits
 2078              		.align	2
 2079              		.type	testsem2, %object
 2080              		.size	testsem2, 16
 2081              	testsem2:
 2082 0000 60000000 		.word	.LC8
 2083 0004 00000000 		.word	sem2_setup
 2084 0008 00000000 		.word	0
 2085 000c 00000000 		.word	sem2_execute
 2086              		.section	.rodata.testsem3,"a",%progbits
 2087              		.align	2
 2088              		.type	testsem3, %object
 2089              		.size	testsem3, 16
 2090              	testsem3:
 2091 0000 40000000 		.word	.LC7
 2092 0004 00000000 		.word	sem3_setup
 2093 0008 00000000 		.word	0
 2094 000c 00000000 		.word	sem3_execute
 2095              		.section	.rodata.testsem4,"a",%progbits
 2096              		.align	2
 2097              		.type	testsem4, %object
 2098              		.size	testsem4, 16
 2099              	testsem4:
 2100 0000 1C000000 		.word	.LC6
 2101 0004 00000000 		.word	0
 2102 0008 00000000 		.word	0
 2103 000c 00000000 		.word	sem4_execute
ARM GAS  C:\Users\jo\AppData\Local\Temp\cch28mea.s 			page 38


 2104              		.section	.data.sem1,"aw",%progbits
 2105              		.align	2
 2106              		.set	.LANCHOR0,. + 0
 2107              		.type	sem1, %object
 2108              		.size	sem1, 12
 2109              	sem1:
 2110 0000 00000000 		.word	sem1
 2111 0004 00000000 		.word	sem1
 2112 0008 00000000 		.word	0
 2113              		.section	.rodata.patternsem,"a",%progbits
 2114              		.align	2
 2115              		.type	patternsem, %object
 2116              		.size	patternsem, 20
 2117              	patternsem:
 2118 0000 00000000 		.word	testsem1
 2119 0004 00000000 		.word	testsem2
 2120 0008 00000000 		.word	testsem3
 2121 000c 00000000 		.word	testsem4
 2122 0010 00000000 		.word	0
 2123              		.section	.rodata.str1.4,"aMS",%progbits,1
 2124              		.align	2
 2125              	.LC0:
 2126 0000 41424344 		.ascii	"ABCDE\000"
 2126      4500
 2127 0006 0000     		.space	2
 2128              	.LC1:
 2129 0008 4100     		.ascii	"A\000"
 2130 000a 0000     		.space	2
 2131              	.LC2:
 2132 000c 4200     		.ascii	"B\000"
 2133 000e 0000     		.space	2
 2134              	.LC3:
 2135 0010 4300     		.ascii	"C\000"
 2136 0012 0000     		.space	2
 2137              	.LC4:
 2138 0014 4400     		.ascii	"D\000"
 2139 0016 0000     		.space	2
 2140              	.LC5:
 2141 0018 4500     		.ascii	"E\000"
 2142 001a 0000     		.space	2
 2143              	.LC6:
 2144 001c 42696E61 		.ascii	"Binary Semaphores, functionality\000"
 2144      72792053 
 2144      656D6170 
 2144      686F7265 
 2144      732C2066 
 2145 003d 000000   		.space	3
 2146              	.LC7:
 2147 0040 53656D61 		.ascii	"Semaphores, atomic signal-wait\000"
 2147      70686F72 
 2147      65732C20 
 2147      61746F6D 
 2147      69632073 
 2148 005f 00       		.space	1
 2149              	.LC8:
 2150 0060 53656D61 		.ascii	"Semaphores, timeout\000"
 2150      70686F72 
ARM GAS  C:\Users\jo\AppData\Local\Temp\cch28mea.s 			page 39


 2150      65732C20 
 2150      74696D65 
 2150      6F757400 
 2151              	.LC9:
 2152 0074 53656D61 		.ascii	"Semaphores, enqueuing\000"
 2152      70686F72 
 2152      65732C20 
 2152      656E7175 
 2152      6575696E 
 2153 008a 0000     		.section	.rodata.__func__.5854,"a",%progbits
 2154              		.align	2
 2155              		.set	.LANCHOR1,. + 0
 2156              		.type	__func__.5854, %object
 2157              		.size	__func__.5854, 12
 2158              	__func__.5854:
 2159 0000 63685379 		.ascii	"chSysUnlock\000"
 2159      73556E6C 
 2159      6F636B00 
 2160              		.text
 2161              	.Letext0:
 2162              		.file 9 "c:\\program files\\gnu tools arm embedded\\4.9 2014q4\\lib\\gcc\\arm-none-eabi\\4.9.3\\in
 2163              		.file 10 "c:\\program files\\gnu tools arm embedded\\4.9 2014q4\\arm-none-eabi\\include\\machine\\
 2164              		.file 11 "c:\\program files\\gnu tools arm embedded\\4.9 2014q4\\arm-none-eabi\\include\\stdint.h"
 2165              		.file 12 "../../../os/rt/ports/ARMCMx/compilers/GCC/chtypes.h"
 2166              		.file 13 "../../../os/rt/include/chsystypes.h"
 2167              		.file 14 "../../../os/rt/ports/ARMCMx/chcore.h"
 2168              		.file 15 "../../../os/rt/ports/ARMCMx/chcore_v7m.h"
 2169              		.file 16 "../../../os/hal/ports/STM32/LLD/TIMv1/stm32_tim.h"
 2170              		.file 17 "../../../os/rt/include/chdebug.h"
 2171              		.file 18 "../../../os/rt/include/chtm.h"
 2172              		.file 19 "../../../os/rt/include/chmtx.h"
 2173              		.file 20 "../../../test/rt/test.h"
 2174              		.file 21 "../../../os/rt/ports/ARMCMx/chcore_timer.h"
 2175              		.file 22 "../../../os/rt/include/chvt.h"
 2176              		.file 23 "../../../os/ext/CMSIS/include/core_cm4.h"