ARM GAS  C:\Users\jo\AppData\Local\Temp\cchQqUPf.s 			page 1


   1              		.syntax unified
   2              		.cpu cortex-m4
   3              		.fpu softvfp
   4              		.eabi_attribute 20, 1
   5              		.eabi_attribute 21, 1
   6              		.eabi_attribute 23, 3
   7              		.eabi_attribute 24, 1
   8              		.eabi_attribute 25, 1
   9              		.eabi_attribute 26, 1
  10              		.eabi_attribute 30, 2
  11              		.eabi_attribute 34, 1
  12              		.eabi_attribute 18, 4
  13              		.thumb
  14              		.file	"testsys.c"
  15              		.text
  16              	.Ltext0:
  17              		.cfi_sections	.debug_frame
  18              		.section	.text.vtcb,"ax",%progbits
  19              		.align	2
  20              		.p2align 4,,15
  21              		.thumb
  22              		.thumb_func
  23              		.type	vtcb, %function
  24              	vtcb:
  25              	.LFB228:
  26              		.file 1 "../../../test/rt/testsys.c"
  27              		.loc 1 52 0
  28              		.cfi_startproc
  29              		@ args = 0, pretend = 0, frame = 0
  30              		@ frame_needed = 0, uses_anonymous_args = 0
  31              	.LVL0:
  32 0000 38B5     		push	{r3, r4, r5, lr}
  33              		.cfi_def_cfa_offset 16
  34              		.cfi_offset 3, -16
  35              		.cfi_offset 4, -12
  36              		.cfi_offset 5, -8
  37              		.cfi_offset 14, -4
  38              	.LBB236:
  39              	.LBB237:
  40              	.LBB238:
  41              	.LBB239:
  42              	.LBB240:
  43              	.LBB241:
  44              		.file 2 "../../../os/ext/CMSIS/include/core_cmFunc.h"
  45              		.loc 2 546 0
  46 0002 2025     		movs	r5, #32
  47              	@ 546 "../../../os/ext/CMSIS/include/core_cmFunc.h" 1
  48 0004 85F31188 		MSR basepri, r5
  49              	@ 0 "" 2
  50              		.thumb
  51              	.LBE241:
  52              	.LBE240:
  53              	.LBE239:
  54              	.LBE238:
  55              		.file 3 "../../../os/rt/include/chsys.h"
  56              		.loc 3 390 0
  57 0008 FFF7FEFF 		bl	_dbg_check_lock_from_isr
ARM GAS  C:\Users\jo\AppData\Local\Temp\cchQqUPf.s 			page 2


  58              	.LVL1:
  59              	.LBE237:
  60              	.LBE236:
  61              	.LBB242:
  62              	.LBB243:
  63              	.LBB244:
  64              	.LBB245:
  65              	.LBB246:
  66              	.LBB247:
  67              		.loc 2 546 0
  68 000c 0024     		movs	r4, #0
  69              	.LBE247:
  70              	.LBE246:
  71              	.LBE245:
  72              	.LBE244:
  73              		.loc 3 408 0
  74 000e FFF7FEFF 		bl	_dbg_check_unlock_from_isr
  75              	.LVL2:
  76              	.LBB251:
  77              	.LBB250:
  78              	.LBB249:
  79              	.LBB248:
  80              		.loc 2 546 0
  81              	@ 546 "../../../os/ext/CMSIS/include/core_cmFunc.h" 1
  82 0012 84F31188 		MSR basepri, r4
  83              	@ 0 "" 2
  84              	.LVL3:
  85              		.thumb
  86              	.LBE248:
  87              	.LBE249:
  88              	.LBE250:
  89              	.LBE251:
  90              	.LBE243:
  91              	.LBE242:
  92              	.LBB252:
  93              	.LBB253:
  94              	.LBB254:
  95              	.LBB255:
  96              	.LBB256:
  97              	.LBB257:
  98              	@ 546 "../../../os/ext/CMSIS/include/core_cmFunc.h" 1
  99 0016 85F31188 		MSR basepri, r5
 100              	@ 0 "" 2
 101              		.thumb
 102              	.LBE257:
 103              	.LBE256:
 104              	.LBE255:
 105              	.LBE254:
 106              		.loc 3 390 0
 107 001a FFF7FEFF 		bl	_dbg_check_lock_from_isr
 108              	.LVL4:
 109              	.LBE253:
 110              	.LBE252:
 111              		.loc 1 63 0
 112 001e FFF7FEFF 		bl	chSysGetStatusAndLockX
 113              	.LVL5:
 114              		.loc 1 64 0
ARM GAS  C:\Users\jo\AppData\Local\Temp\cchQqUPf.s 			page 3


 115 0022 FFF7FEFF 		bl	chSysRestoreStatusX
 116              	.LVL6:
 117              	.LBB258:
 118              	.LBB259:
 119              		.loc 3 408 0
 120 0026 FFF7FEFF 		bl	_dbg_check_unlock_from_isr
 121              	.LVL7:
 122              	.LBB260:
 123              	.LBB261:
 124              	.LBB262:
 125              	.LBB263:
 126              		.loc 2 546 0
 127              	@ 546 "../../../os/ext/CMSIS/include/core_cmFunc.h" 1
 128 002a 84F31188 		MSR basepri, r4
 129              	@ 0 "" 2
 130              		.thumb
 131 002e 38BD     		pop	{r3, r4, r5, pc}
 132              	.LBE263:
 133              	.LBE262:
 134              	.LBE261:
 135              	.LBE260:
 136              	.LBE259:
 137              	.LBE258:
 138              		.cfi_endproc
 139              	.LFE228:
 140              		.size	vtcb, .-vtcb
 141              		.section	.text.sys2_execute,"ax",%progbits
 142              		.align	2
 143              		.p2align 4,,15
 144              		.thumb
 145              		.thumb_func
 146              		.type	sys2_execute, %function
 147              	sys2_execute:
 148              	.LFB230:
 149              		.loc 1 114 0
 150              		.cfi_startproc
 151              		@ args = 0, pretend = 0, frame = 0
 152              		@ frame_needed = 0, uses_anonymous_args = 0
 153              	.LVL8:
 154 0000 10B5     		push	{r4, lr}
 155              		.cfi_def_cfa_offset 8
 156              		.cfi_offset 4, -8
 157              		.cfi_offset 14, -4
 158              	.LBB264:
 159              	.LBB265:
 160              	.LBB266:
 161              	.LBB267:
 162              	.LBB268:
 163              		.loc 2 546 0
 164 0002 2024     		movs	r4, #32
 165              	@ 546 "../../../os/ext/CMSIS/include/core_cmFunc.h" 1
 166 0004 84F31188 		MSR basepri, r4
 167              	@ 0 "" 2
 168              		.thumb
 169              	.LBE268:
 170              	.LBE267:
 171              	.LBB269:
ARM GAS  C:\Users\jo\AppData\Local\Temp\cchQqUPf.s 			page 4


 172              	.LBB270:
 173              		.loc 2 331 0
 174              	@ 331 "../../../os/ext/CMSIS/include/core_cmFunc.h" 1
 175 0008 62B6     		cpsie i
 176              	@ 0 "" 2
 177              		.thumb
 178              	.LBE270:
 179              	.LBE269:
 180              	.LBE266:
 181              		.loc 3 323 0
 182 000a FFF7FEFF 		bl	_dbg_check_suspend
 183              	.LVL9:
 184              	.LBE265:
 185              	.LBE264:
 186              	.LBB271:
 187              	.LBB272:
 188              	.LBB273:
 189              	.LBB274:
 190              	.LBB275:
 191              		.loc 2 342 0
 192              	@ 342 "../../../os/ext/CMSIS/include/core_cmFunc.h" 1
 193 000e 72B6     		cpsid i
 194              	@ 0 "" 2
 195              		.thumb
 196              	.LBE275:
 197              	.LBE274:
 198              	.LBE273:
 199              		.loc 3 306 0
 200 0010 FFF7FEFF 		bl	_dbg_check_disable
 201              	.LVL10:
 202              	.LBE272:
 203              	.LBE271:
 204              	.LBB276:
 205              	.LBB277:
 206              	.LBB278:
 207              	.LBB279:
 208              	.LBB280:
 209              		.loc 2 546 0
 210              	@ 546 "../../../os/ext/CMSIS/include/core_cmFunc.h" 1
 211 0014 84F31188 		MSR basepri, r4
 212              	@ 0 "" 2
 213              		.thumb
 214              	.LBE280:
 215              	.LBE279:
 216              	.LBB281:
 217              	.LBB282:
 218              		.loc 2 331 0
 219              	@ 331 "../../../os/ext/CMSIS/include/core_cmFunc.h" 1
 220 0018 62B6     		cpsie i
 221              	@ 0 "" 2
 222              		.thumb
 223              	.LBE282:
 224              	.LBE281:
 225              	.LBE278:
 226              		.loc 3 323 0
 227 001a FFF7FEFF 		bl	_dbg_check_suspend
 228              	.LVL11:
ARM GAS  C:\Users\jo\AppData\Local\Temp\cchQqUPf.s 			page 5


 229              	.LBE277:
 230              	.LBE276:
 231              	.LBB283:
 232              	.LBB284:
 233              		.loc 3 337 0
 234 001e FFF7FEFF 		bl	_dbg_check_enable
 235              	.LVL12:
 236              	.LBB285:
 237              	.LBB286:
 238              	.LBB287:
 239              		.loc 2 546 0
 240 0022 0023     		movs	r3, #0
 241              	@ 546 "../../../os/ext/CMSIS/include/core_cmFunc.h" 1
 242 0024 83F31188 		MSR basepri, r3
 243              	@ 0 "" 2
 244              		.thumb
 245              	.LBE287:
 246              	.LBE286:
 247              	.LBB288:
 248              	.LBB289:
 249              		.loc 2 331 0
 250              	@ 331 "../../../os/ext/CMSIS/include/core_cmFunc.h" 1
 251 0028 62B6     		cpsie i
 252              	@ 0 "" 2
 253              		.thumb
 254 002a 10BD     		pop	{r4, pc}
 255              	.LBE289:
 256              	.LBE288:
 257              	.LBE285:
 258              	.LBE284:
 259              	.LBE283:
 260              		.cfi_endproc
 261              	.LFE230:
 262              		.size	sys2_execute, .-sys2_execute
 263 002c AFF30080 		.section	.text.sys3_execute,"ax",%progbits
 264              		.align	2
 265              		.p2align 4,,15
 266              		.thumb
 267              		.thumb_func
 268              		.type	sys3_execute, %function
 269              	sys3_execute:
 270              	.LFB231:
 271              		.loc 1 137 0
 272              		.cfi_startproc
 273              		@ args = 0, pretend = 0, frame = 0
 274              		@ frame_needed = 0, uses_anonymous_args = 0
 275              	.LVL13:
 276 0000 38B5     		push	{r3, r4, r5, lr}
 277              		.cfi_def_cfa_offset 16
 278              		.cfi_offset 3, -16
 279              		.cfi_offset 4, -12
 280              		.cfi_offset 5, -8
 281              		.cfi_offset 14, -4
 282              	.LBB342:
 283              	.LBB343:
 284              	.LBB344:
 285              	.LBB345:
ARM GAS  C:\Users\jo\AppData\Local\Temp\cchQqUPf.s 			page 6


 286              	.LBB346:
 287              		.loc 2 546 0
 288 0002 2023     		movs	r3, #32
 289              	@ 546 "../../../os/ext/CMSIS/include/core_cmFunc.h" 1
 290 0004 83F31188 		MSR basepri, r3
 291              	@ 0 "" 2
 292              		.thumb
 293              	.LBE346:
 294              	.LBE345:
 295              	.LBE344:
 296              		.loc 3 350 0
 297 0008 FFF7FEFF 		bl	_dbg_check_lock
 298              	.LVL14:
 299              	.LBE343:
 300              	.LBE342:
 301              		.loc 1 141 0
 302 000c 0120     		movs	r0, #1
 303 000e FFF7FEFF 		bl	chSysIntegrityCheckI
 304              	.LVL15:
 305              	.LBB347:
 306              	.LBB348:
 307              		.loc 3 367 0
 308 0012 404C     		ldr	r4, .L17
 309              	.LBE348:
 310              	.LBE347:
 311              		.loc 1 141 0
 312 0014 0546     		mov	r5, r0
 313              	.LVL16:
 314              	.LBB353:
 315              	.LBB352:
 316              		.loc 3 360 0
 317 0016 FFF7FEFF 		bl	_dbg_check_unlock
 318              	.LVL17:
 319              		.loc 3 367 0
 320 001a 2368     		ldr	r3, [r4]
 321 001c A342     		cmp	r3, r4
 322 001e 07D0     		beq	.L6
 323 0020 A269     		ldr	r2, [r4, #24]
 324 0022 9B68     		ldr	r3, [r3, #8]
 325 0024 9268     		ldr	r2, [r2, #8]
 326 0026 9A42     		cmp	r2, r3
 327 0028 02D2     		bcs	.L6
 328 002a 3B48     		ldr	r0, .L17+4
 329 002c FFF7FEFF 		bl	chSysHalt
 330              	.LVL18:
 331              	.L6:
 332              	.LBB349:
 333              	.LBB350:
 334              	.LBB351:
 335              		.loc 2 546 0
 336 0030 0023     		movs	r3, #0
 337              	@ 546 "../../../os/ext/CMSIS/include/core_cmFunc.h" 1
 338 0032 83F31188 		MSR basepri, r3
 339              	@ 0 "" 2
 340              		.thumb
 341              	.LBE351:
 342              	.LBE350:
ARM GAS  C:\Users\jo\AppData\Local\Temp\cchQqUPf.s 			page 7


 343              	.LBE349:
 344              	.LBE352:
 345              	.LBE353:
 346              		.loc 1 143 0
 347 0036 85F00101 		eor	r1, r5, #1
 348 003a C9B2     		uxtb	r1, r1
 349 003c 0120     		movs	r0, #1
 350 003e FFF7FEFF 		bl	_test_assert
 351              	.LVL19:
 352 0042 00B1     		cbz	r0, .L15
 353              	.LVL20:
 354              	.L5:
 355 0044 38BD     		pop	{r3, r4, r5, pc}
 356              	.LVL21:
 357              	.L15:
 358              	.LBB354:
 359              	.LBB355:
 360              	.LBB356:
 361              	.LBB357:
 362              	.LBB358:
 363              		.loc 2 546 0
 364 0046 2023     		movs	r3, #32
 365              	@ 546 "../../../os/ext/CMSIS/include/core_cmFunc.h" 1
 366 0048 83F31188 		MSR basepri, r3
 367              	@ 0 "" 2
 368              		.thumb
 369              	.LBE358:
 370              	.LBE357:
 371              	.LBE356:
 372              		.loc 3 350 0
 373 004c FFF7FEFF 		bl	_dbg_check_lock
 374              	.LVL22:
 375              	.LBE355:
 376              	.LBE354:
 377              		.loc 1 146 0
 378 0050 0220     		movs	r0, #2
 379 0052 FFF7FEFF 		bl	chSysIntegrityCheckI
 380              	.LVL23:
 381 0056 0546     		mov	r5, r0
 382              	.LVL24:
 383              	.LBB359:
 384              	.LBB360:
 385              		.loc 3 360 0
 386 0058 FFF7FEFF 		bl	_dbg_check_unlock
 387              	.LVL25:
 388              		.loc 3 367 0
 389 005c 2368     		ldr	r3, [r4]
 390 005e 2D4A     		ldr	r2, .L17
 391 0060 A342     		cmp	r3, r4
 392 0062 07D0     		beq	.L9
 393 0064 9269     		ldr	r2, [r2, #24]
 394 0066 9B68     		ldr	r3, [r3, #8]
 395 0068 9268     		ldr	r2, [r2, #8]
 396 006a 9A42     		cmp	r2, r3
 397 006c 02D2     		bcs	.L9
 398 006e 2A48     		ldr	r0, .L17+4
 399 0070 FFF7FEFF 		bl	chSysHalt
ARM GAS  C:\Users\jo\AppData\Local\Temp\cchQqUPf.s 			page 8


 400              	.LVL26:
 401              	.L9:
 402              	.LBB361:
 403              	.LBB362:
 404              	.LBB363:
 405              		.loc 2 546 0
 406 0074 0023     		movs	r3, #0
 407              	@ 546 "../../../os/ext/CMSIS/include/core_cmFunc.h" 1
 408 0076 83F31188 		MSR basepri, r3
 409              	@ 0 "" 2
 410              		.thumb
 411              	.LBE363:
 412              	.LBE362:
 413              	.LBE361:
 414              	.LBE360:
 415              	.LBE359:
 416              		.loc 1 148 0
 417 007a 85F00101 		eor	r1, r5, #1
 418 007e C9B2     		uxtb	r1, r1
 419 0080 0220     		movs	r0, #2
 420 0082 FFF7FEFF 		bl	_test_assert
 421              	.LVL27:
 422 0086 0028     		cmp	r0, #0
 423 0088 DCD1     		bne	.L5
 424              	.LVL28:
 425              	.LBB364:
 426              	.LBB365:
 427              	.LBB366:
 428              	.LBB367:
 429              	.LBB368:
 430              	.LBB369:
 431              	.LBB370:
 432              		.loc 2 546 0
 433 008a 2023     		movs	r3, #32
 434              	@ 546 "../../../os/ext/CMSIS/include/core_cmFunc.h" 1
 435 008c 83F31188 		MSR basepri, r3
 436              	@ 0 "" 2
 437              		.thumb
 438              	.LBE370:
 439              	.LBE369:
 440              	.LBE368:
 441              		.loc 3 350 0
 442 0090 FFF7FEFF 		bl	_dbg_check_lock
 443              	.LVL29:
 444              	.LBE367:
 445              	.LBE366:
 446              		.loc 1 151 0
 447 0094 0420     		movs	r0, #4
 448 0096 FFF7FEFF 		bl	chSysIntegrityCheckI
 449              	.LVL30:
 450 009a 0546     		mov	r5, r0
 451              	.LVL31:
 452              	.LBB371:
 453              	.LBB372:
 454              		.loc 3 360 0
 455 009c FFF7FEFF 		bl	_dbg_check_unlock
 456              	.LVL32:
ARM GAS  C:\Users\jo\AppData\Local\Temp\cchQqUPf.s 			page 9


 457              		.loc 3 367 0
 458 00a0 2368     		ldr	r3, [r4]
 459 00a2 1C4A     		ldr	r2, .L17
 460 00a4 A342     		cmp	r3, r4
 461 00a6 07D0     		beq	.L11
 462 00a8 9269     		ldr	r2, [r2, #24]
 463 00aa 9B68     		ldr	r3, [r3, #8]
 464 00ac 9268     		ldr	r2, [r2, #8]
 465 00ae 9A42     		cmp	r2, r3
 466 00b0 02D2     		bcs	.L11
 467 00b2 1948     		ldr	r0, .L17+4
 468 00b4 FFF7FEFF 		bl	chSysHalt
 469              	.LVL33:
 470              	.L11:
 471              	.LBB373:
 472              	.LBB374:
 473              	.LBB375:
 474              		.loc 2 546 0
 475 00b8 0023     		movs	r3, #0
 476              	@ 546 "../../../os/ext/CMSIS/include/core_cmFunc.h" 1
 477 00ba 83F31188 		MSR basepri, r3
 478              	@ 0 "" 2
 479              		.thumb
 480              	.LBE375:
 481              	.LBE374:
 482              	.LBE373:
 483              	.LBE372:
 484              	.LBE371:
 485              		.loc 1 153 0
 486 00be 85F00101 		eor	r1, r5, #1
 487 00c2 C9B2     		uxtb	r1, r1
 488 00c4 0320     		movs	r0, #3
 489 00c6 FFF7FEFF 		bl	_test_assert
 490              	.LVL34:
 491 00ca 0028     		cmp	r0, #0
 492 00cc BAD1     		bne	.L5
 493              	.LVL35:
 494              	.LBB376:
 495              	.LBB377:
 496              	.LBB378:
 497              	.LBB379:
 498              	.LBB380:
 499              		.loc 2 546 0
 500 00ce 2023     		movs	r3, #32
 501              	@ 546 "../../../os/ext/CMSIS/include/core_cmFunc.h" 1
 502 00d0 83F31188 		MSR basepri, r3
 503              	@ 0 "" 2
 504              		.thumb
 505              	.LBE380:
 506              	.LBE379:
 507              	.LBE378:
 508              		.loc 3 350 0
 509 00d4 FFF7FEFF 		bl	_dbg_check_lock
 510              	.LVL36:
 511              	.LBE377:
 512              	.LBE376:
 513              		.loc 1 156 0
ARM GAS  C:\Users\jo\AppData\Local\Temp\cchQqUPf.s 			page 10


 514 00d8 0820     		movs	r0, #8
 515 00da FFF7FEFF 		bl	chSysIntegrityCheckI
 516              	.LVL37:
 517 00de 0546     		mov	r5, r0
 518              	.LVL38:
 519              	.LBB381:
 520              	.LBB382:
 521              		.loc 3 360 0
 522 00e0 FFF7FEFF 		bl	_dbg_check_unlock
 523              	.LVL39:
 524              		.loc 3 367 0
 525 00e4 2368     		ldr	r3, [r4]
 526 00e6 0B4A     		ldr	r2, .L17
 527 00e8 A342     		cmp	r3, r4
 528 00ea 04D0     		beq	.L12
 529 00ec 9269     		ldr	r2, [r2, #24]
 530 00ee 9B68     		ldr	r3, [r3, #8]
 531 00f0 9268     		ldr	r2, [r2, #8]
 532 00f2 9A42     		cmp	r2, r3
 533 00f4 0AD3     		bcc	.L16
 534              	.L12:
 535              	.LVL40:
 536              	.LBB383:
 537              	.LBB384:
 538              	.LBB385:
 539              		.loc 2 546 0
 540 00f6 0023     		movs	r3, #0
 541              	@ 546 "../../../os/ext/CMSIS/include/core_cmFunc.h" 1
 542 00f8 83F31188 		MSR basepri, r3
 543              	@ 0 "" 2
 544              		.thumb
 545              	.LBE385:
 546              	.LBE384:
 547              	.LBE383:
 548              	.LBE382:
 549              	.LBE381:
 550              		.loc 1 158 0
 551 00fc 85F00101 		eor	r1, r5, #1
 552 0100 C9B2     		uxtb	r1, r1
 553 0102 0420     		movs	r0, #4
 554              	.LBE365:
 555              	.LBE364:
 556              		.loc 1 159 0
 557 0104 BDE83840 		pop	{r3, r4, r5, lr}
 558              		.cfi_remember_state
 559              		.cfi_restore 14
 560              		.cfi_restore 5
 561              		.cfi_restore 4
 562              		.cfi_restore 3
 563              		.cfi_def_cfa_offset 0
 564              	.LVL41:
 565              	.LBB389:
 566              	.LBB388:
 567              		.loc 1 158 0
 568 0108 FFF7FEBF 		b	_test_assert
 569              	.LVL42:
 570              	.L16:
ARM GAS  C:\Users\jo\AppData\Local\Temp\cchQqUPf.s 			page 11


 571              		.cfi_restore_state
 572              	.LBB387:
 573              	.LBB386:
 574              		.loc 3 367 0
 575 010c 0248     		ldr	r0, .L17+4
 576 010e FFF7FEFF 		bl	chSysHalt
 577              	.LVL43:
 578 0112 F0E7     		b	.L12
 579              	.L18:
 580              		.align	2
 581              	.L17:
 582 0114 00000000 		.word	ch
 583 0118 00000000 		.word	.LANCHOR0
 584              	.LBE386:
 585              	.LBE387:
 586              	.LBE388:
 587              	.LBE389:
 588              		.cfi_endproc
 589              	.LFE231:
 590              		.size	sys3_execute, .-sys3_execute
 591 011c AFF30080 		.section	.text.sys1_execute,"ax",%progbits
 592              		.align	2
 593              		.p2align 4,,15
 594              		.thumb
 595              		.thumb_func
 596              		.type	sys1_execute, %function
 597              	sys1_execute:
 598              	.LFB229:
 599              		.loc 1 68 0
 600              		.cfi_startproc
 601              		@ args = 0, pretend = 0, frame = 24
 602              		@ frame_needed = 0, uses_anonymous_args = 0
 603 0000 30B5     		push	{r4, r5, lr}
 604              		.cfi_def_cfa_offset 12
 605              		.cfi_offset 4, -12
 606              		.cfi_offset 5, -8
 607              		.cfi_offset 14, -4
 608 0002 87B0     		sub	sp, sp, #28
 609              		.cfi_def_cfa_offset 40
 610              		.loc 1 73 0
 611 0004 FFF7FEFF 		bl	chSysGetStatusAndLockX
 612              	.LVL44:
 613              		.loc 1 74 0
 614 0008 FFF7FEFF 		bl	chSysRestoreStatusX
 615              	.LVL45:
 616              	.LBB488:
 617              	.LBB489:
 618              	.LBB490:
 619              	.LBB491:
 620              	.LBB492:
 621              		.loc 2 546 0
 622 000c 2023     		movs	r3, #32
 623              	@ 546 "../../../os/ext/CMSIS/include/core_cmFunc.h" 1
 624 000e 83F31188 		MSR basepri, r3
 625              	@ 0 "" 2
 626              		.thumb
 627              	.LBE492:
ARM GAS  C:\Users\jo\AppData\Local\Temp\cchQqUPf.s 			page 12


 628              	.LBE491:
 629              	.LBE490:
 630              	.LBE489:
 631              	.LBE488:
 632              	.LBB494:
 633              	.LBB495:
 634              		.loc 3 367 0
 635 0012 604C     		ldr	r4, .L49
 636              	.LBE495:
 637              	.LBE494:
 638              	.LBB500:
 639              	.LBB493:
 640              		.loc 3 350 0
 641 0014 FFF7FEFF 		bl	_dbg_check_lock
 642              	.LVL46:
 643              	.LBE493:
 644              	.LBE500:
 645              		.loc 1 78 0
 646 0018 FFF7FEFF 		bl	chSysGetStatusAndLockX
 647              	.LVL47:
 648              		.loc 1 79 0
 649 001c FFF7FEFF 		bl	chSysRestoreStatusX
 650              	.LVL48:
 651              	.LBB501:
 652              	.LBB499:
 653              		.loc 3 360 0
 654 0020 FFF7FEFF 		bl	_dbg_check_unlock
 655              	.LVL49:
 656              		.loc 3 367 0
 657 0024 2368     		ldr	r3, [r4]
 658 0026 A342     		cmp	r3, r4
 659 0028 07D0     		beq	.L20
 660 002a A269     		ldr	r2, [r4, #24]
 661 002c 9B68     		ldr	r3, [r3, #8]
 662 002e 9268     		ldr	r2, [r2, #8]
 663 0030 9A42     		cmp	r2, r3
 664 0032 02D2     		bcs	.L20
 665 0034 5848     		ldr	r0, .L49+4
 666 0036 FFF7FEFF 		bl	chSysHalt
 667              	.LVL50:
 668              	.L20:
 669              	.LBB496:
 670              	.LBB497:
 671              	.LBB498:
 672              		.loc 2 546 0
 673 003a 0023     		movs	r3, #0
 674              	@ 546 "../../../os/ext/CMSIS/include/core_cmFunc.h" 1
 675 003c 83F31188 		MSR basepri, r3
 676              	@ 0 "" 2
 677              		.thumb
 678              	.LBE498:
 679              	.LBE497:
 680              	.LBE496:
 681              	.LBE499:
 682              	.LBE501:
 683              	.LBB502:
 684              	.LBB503:
ARM GAS  C:\Users\jo\AppData\Local\Temp\cchQqUPf.s 			page 13


 685              	.LBB504:
 686              	.LBB505:
 687              	.LBB506:
 688              	.LBB507:
 689              		.loc 2 533 0
 690              	@ 533 "../../../os/ext/CMSIS/include/core_cmFunc.h" 1
 691 0040 EFF31283 		MRS r3, basepri_max
 692              	@ 0 "" 2
 693              	.LVL51:
 694              		.thumb
 695              	.LBE507:
 696              	.LBE506:
 697              	.LBE505:
 698              	.LBE504:
 699              		.loc 3 422 0
 700 0044 002B     		cmp	r3, #0
 701 0046 00F09180 		beq	.L43
 702              	.LVL52:
 703              	.L21:
 704              	.LBE503:
 705              	.LBE502:
 706              	.LBB514:
 707              	.LBB515:
 708              	.LBB516:
 709              	.LBB517:
 710              	.LBB518:
 711              	.LBB519:
 712              		.loc 2 533 0
 713              	@ 533 "../../../os/ext/CMSIS/include/core_cmFunc.h" 1
 714 004a EFF31283 		MRS r3, basepri_max
 715              	@ 0 "" 2
 716              	.LVL53:
 717              		.thumb
 718              	.LBE519:
 719              	.LBE518:
 720              	.LBE517:
 721              	.LBE516:
 722              		.loc 3 422 0
 723 004e 002B     		cmp	r3, #0
 724 0050 00F08680 		beq	.L44
 725              	.LVL54:
 726              	.L22:
 727              	.LBE515:
 728              	.LBE514:
 729              	.LBB526:
 730              	.LBB527:
 731              		.loc 3 360 0
 732 0054 FFF7FEFF 		bl	_dbg_check_unlock
 733              	.LVL55:
 734              		.loc 3 367 0
 735 0058 2368     		ldr	r3, [r4]
 736 005a 4E4A     		ldr	r2, .L49
 737 005c A342     		cmp	r3, r4
 738 005e 07D0     		beq	.L23
 739 0060 9269     		ldr	r2, [r2, #24]
 740 0062 9B68     		ldr	r3, [r3, #8]
 741 0064 9268     		ldr	r2, [r2, #8]
ARM GAS  C:\Users\jo\AppData\Local\Temp\cchQqUPf.s 			page 14


 742 0066 9A42     		cmp	r2, r3
 743 0068 02D2     		bcs	.L23
 744 006a 4B48     		ldr	r0, .L49+4
 745 006c FFF7FEFF 		bl	chSysHalt
 746              	.LVL56:
 747              	.L23:
 748              	.LBB528:
 749              	.LBB529:
 750              	.LBB530:
 751              		.loc 2 546 0
 752 0070 0023     		movs	r3, #0
 753              	@ 546 "../../../os/ext/CMSIS/include/core_cmFunc.h" 1
 754 0072 83F31188 		MSR basepri, r3
 755              	@ 0 "" 2
 756              	.LVL57:
 757              		.thumb
 758              	.LBE530:
 759              	.LBE529:
 760              	.LBE528:
 761              	.LBE527:
 762              	.LBE526:
 763              	.LBB531:
 764              	.LBB532:
 765              	.LBB533:
 766              	.LBB534:
 767              	.LBB535:
 768 0076 2023     		movs	r3, #32
 769              	@ 546 "../../../os/ext/CMSIS/include/core_cmFunc.h" 1
 770 0078 83F31188 		MSR basepri, r3
 771              	@ 0 "" 2
 772              		.thumb
 773              	.LBE535:
 774              	.LBE534:
 775              	.LBE533:
 776              		.loc 3 350 0
 777 007c FFF7FEFF 		bl	_dbg_check_lock
 778              	.LVL58:
 779              	.LBE532:
 780              	.LBE531:
 781              	.LBB536:
 782              	.LBB537:
 783              	.LBB538:
 784              	.LBB539:
 785              	.LBB540:
 786              	.LBB541:
 787              		.loc 2 533 0
 788              	@ 533 "../../../os/ext/CMSIS/include/core_cmFunc.h" 1
 789 0080 EFF31283 		MRS r3, basepri_max
 790              	@ 0 "" 2
 791              	.LVL59:
 792              		.thumb
 793              	.LBE541:
 794              	.LBE540:
 795              	.LBE539:
 796              	.LBE538:
 797              		.loc 3 436 0
 798 0084 002B     		cmp	r3, #0
ARM GAS  C:\Users\jo\AppData\Local\Temp\cchQqUPf.s 			page 15


 799 0086 5CD1     		bne	.L45
 800              	.LVL60:
 801              	.L24:
 802              	.LBE537:
 803              	.LBE536:
 804              	.LBB554:
 805              	.LBB555:
 806              	.LBB556:
 807              	.LBB557:
 808              	.LBB558:
 809              	.LBB559:
 810              		.loc 2 533 0
 811              	@ 533 "../../../os/ext/CMSIS/include/core_cmFunc.h" 1
 812 0088 EFF31283 		MRS r3, basepri_max
 813              	@ 0 "" 2
 814              	.LVL61:
 815              		.thumb
 816              	.LBE559:
 817              	.LBE558:
 818              	.LBE557:
 819              	.LBE556:
 820              		.loc 3 436 0
 821 008c 002B     		cmp	r3, #0
 822 008e 49D1     		bne	.L46
 823              	.LVL62:
 824              	.L26:
 825              	.LBE555:
 826              	.LBE554:
 827              	.LBB572:
 828              	.LBB573:
 829              		.file 4 "../../../os/rt/include/chvt.h"
 830              		.loc 4 212 0
 831 0090 0023     		movs	r3, #0
 832 0092 0493     		str	r3, [sp, #16]
 833              	.LVL63:
 834              	.LBE573:
 835              	.LBE572:
 836              	.LBB574:
 837              	.LBB575:
 838              	.LBB576:
 839              	.LBB577:
 840              	.LBB578:
 841              	.LBB579:
 842              		.loc 2 546 0
 843 0094 2023     		movs	r3, #32
 844              	@ 546 "../../../os/ext/CMSIS/include/core_cmFunc.h" 1
 845 0096 83F31188 		MSR basepri, r3
 846              	@ 0 "" 2
 847              		.thumb
 848              	.LBE579:
 849              	.LBE578:
 850              	.LBE577:
 851              		.loc 3 350 0
 852 009a FFF7FEFF 		bl	_dbg_check_lock
 853              	.LVL64:
 854              	.LBE576:
 855              	.LBE575:
ARM GAS  C:\Users\jo\AppData\Local\Temp\cchQqUPf.s 			page 16


 856              	.LBB580:
 857              	.LBB581:
 858              	.LBB582:
 859              	.LBB583:
 860              	.LBB584:
 861              	.LBB585:
 862              		.loc 4 339 0
 863 009e FFF7FEFF 		bl	chDbgCheckClassI
 864              	.LVL65:
 865              	.LBE585:
 866              	.LBE584:
 867              		.loc 4 376 0
 868 00a2 049B     		ldr	r3, [sp, #16]
 869              		.loc 4 377 0
 870 00a4 01AD     		add	r5, sp, #4
 871              	.LVL66:
 872              		.loc 4 376 0
 873 00a6 13B1     		cbz	r3, .L28
 874              		.loc 4 377 0
 875 00a8 2846     		mov	r0, r5
 876 00aa FFF7FEFF 		bl	chVTDoResetI
 877              	.LVL67:
 878              	.L28:
 879              	.LBE583:
 880              	.LBE582:
 881              		.loc 4 424 0
 882 00ae 3B4A     		ldr	r2, .L49+8
 883 00b0 0023     		movs	r3, #0
 884 00b2 2846     		mov	r0, r5
 885 00b4 0121     		movs	r1, #1
 886 00b6 FFF7FEFF 		bl	chVTDoSetI
 887              	.LVL68:
 888              	.LBE581:
 889              	.LBE580:
 890              	.LBB586:
 891              	.LBB587:
 892              		.loc 3 360 0
 893 00ba FFF7FEFF 		bl	_dbg_check_unlock
 894              	.LVL69:
 895              		.loc 3 367 0
 896 00be 2368     		ldr	r3, [r4]
 897 00c0 344A     		ldr	r2, .L49
 898 00c2 A342     		cmp	r3, r4
 899 00c4 07D0     		beq	.L29
 900 00c6 9269     		ldr	r2, [r2, #24]
 901 00c8 9B68     		ldr	r3, [r3, #8]
 902 00ca 9268     		ldr	r2, [r2, #8]
 903 00cc 9A42     		cmp	r2, r3
 904 00ce 02D2     		bcs	.L29
 905 00d0 3148     		ldr	r0, .L49+4
 906 00d2 FFF7FEFF 		bl	chSysHalt
 907              	.LVL70:
 908              	.L29:
 909              	.LBB588:
 910              	.LBB589:
 911              	.LBB590:
 912              		.loc 2 546 0
ARM GAS  C:\Users\jo\AppData\Local\Temp\cchQqUPf.s 			page 17


 913 00d6 0023     		movs	r3, #0
 914              	@ 546 "../../../os/ext/CMSIS/include/core_cmFunc.h" 1
 915 00d8 83F31188 		MSR basepri, r3
 916              	@ 0 "" 2
 917              		.thumb
 918              	.LBE590:
 919              	.LBE589:
 920              	.LBE588:
 921              	.LBE587:
 922              	.LBE586:
 923              	.LBE574:
 924              		.loc 1 95 0
 925 00dc 0A20     		movs	r0, #10
 926 00de FFF7FEFF 		bl	chThdSleep
 927              	.LVL71:
 928              	.LBB591:
 929              	.LBB592:
 930              	.LBB593:
 931              	.LBB594:
 932              	.LBB595:
 933              	.LBB596:
 934              	.LBB597:
 935              		.loc 2 546 0
 936 00e2 2023     		movs	r3, #32
 937              	@ 546 "../../../os/ext/CMSIS/include/core_cmFunc.h" 1
 938 00e4 83F31188 		MSR basepri, r3
 939              	@ 0 "" 2
 940              		.thumb
 941              	.LBE597:
 942              	.LBE596:
 943              	.LBE595:
 944              		.loc 3 350 0
 945 00e8 FFF7FEFF 		bl	_dbg_check_lock
 946              	.LVL72:
 947              	.LBE594:
 948              	.LBE593:
 949              	.LBB598:
 950              	.LBB599:
 951              		.loc 4 339 0
 952 00ec FFF7FEFF 		bl	chDbgCheckClassI
 953              	.LVL73:
 954              		.loc 4 341 0
 955 00f0 049D     		ldr	r5, [sp, #16]
 956              	.LVL74:
 957              	.LBE599:
 958              	.LBE598:
 959              	.LBB600:
 960              	.LBB601:
 961              		.loc 3 360 0
 962 00f2 FFF7FEFF 		bl	_dbg_check_unlock
 963              	.LVL75:
 964              		.loc 3 367 0
 965 00f6 2368     		ldr	r3, [r4]
 966 00f8 264A     		ldr	r2, .L49
 967 00fa A342     		cmp	r3, r4
 968 00fc 07D0     		beq	.L30
 969 00fe 9269     		ldr	r2, [r2, #24]
ARM GAS  C:\Users\jo\AppData\Local\Temp\cchQqUPf.s 			page 18


 970 0100 9B68     		ldr	r3, [r3, #8]
 971 0102 9268     		ldr	r2, [r2, #8]
 972 0104 9A42     		cmp	r2, r3
 973 0106 02D2     		bcs	.L30
 974 0108 2348     		ldr	r0, .L49+4
 975 010a FFF7FEFF 		bl	chSysHalt
 976              	.LVL76:
 977              	.L30:
 978              	.LBB602:
 979              	.LBB603:
 980              	.LBB604:
 981              		.loc 2 546 0
 982 010e 0023     		movs	r3, #0
 983              	@ 546 "../../../os/ext/CMSIS/include/core_cmFunc.h" 1
 984 0110 83F31188 		MSR basepri, r3
 985              	@ 0 "" 2
 986              		.thumb
 987              	.LBE604:
 988              	.LBE603:
 989              	.LBE602:
 990              	.LBE601:
 991              	.LBE600:
 992              	.LBE592:
 993              	.LBE591:
 994              		.loc 1 97 0
 995 0114 0120     		movs	r0, #1
 996 0116 B5FA85F1 		clz	r1, r5
 997 011a 4909     		lsrs	r1, r1, #5
 998 011c FFF7FEFF 		bl	_test_assert
 999              	.LVL77:
 1000              		.loc 1 98 0
 1001 0120 07B0     		add	sp, sp, #28
 1002              		.cfi_remember_state
 1003              		.cfi_def_cfa_offset 12
 1004              		@ sp needed
 1005 0122 30BD     		pop	{r4, r5, pc}
 1006              	.LVL78:
 1007              	.L46:
 1008              		.cfi_restore_state
 1009              	.LBB605:
 1010              	.LBB570:
 1011              	.LBB560:
 1012              	.LBB561:
 1013              		.loc 3 360 0
 1014 0124 FFF7FEFF 		bl	_dbg_check_unlock
 1015              	.LVL79:
 1016              		.loc 3 367 0
 1017 0128 2368     		ldr	r3, [r4]
 1018 012a 1A4A     		ldr	r2, .L49
 1019 012c A342     		cmp	r3, r4
 1020 012e 04D0     		beq	.L27
 1021 0130 9269     		ldr	r2, [r2, #24]
 1022 0132 9B68     		ldr	r3, [r3, #8]
 1023 0134 9268     		ldr	r2, [r2, #8]
 1024 0136 9A42     		cmp	r2, r3
 1025 0138 25D3     		bcc	.L47
 1026              	.L27:
ARM GAS  C:\Users\jo\AppData\Local\Temp\cchQqUPf.s 			page 19


 1027              	.LVL80:
 1028              	.LBB562:
 1029              	.LBB563:
 1030              	.LBB564:
 1031              		.loc 2 546 0
 1032 013a 0023     		movs	r3, #0
 1033              	@ 546 "../../../os/ext/CMSIS/include/core_cmFunc.h" 1
 1034 013c 83F31188 		MSR basepri, r3
 1035              	@ 0 "" 2
 1036              		.thumb
 1037 0140 A6E7     		b	.L26
 1038              	.LVL81:
 1039              	.L45:
 1040              	.LBE564:
 1041              	.LBE563:
 1042              	.LBE562:
 1043              	.LBE561:
 1044              	.LBE560:
 1045              	.LBE570:
 1046              	.LBE605:
 1047              	.LBB606:
 1048              	.LBB552:
 1049              	.LBB542:
 1050              	.LBB543:
 1051              		.loc 3 360 0
 1052 0142 FFF7FEFF 		bl	_dbg_check_unlock
 1053              	.LVL82:
 1054              		.loc 3 367 0
 1055 0146 2368     		ldr	r3, [r4]
 1056 0148 124A     		ldr	r2, .L49
 1057 014a A342     		cmp	r3, r4
 1058 014c 04D0     		beq	.L25
 1059 014e 9269     		ldr	r2, [r2, #24]
 1060 0150 9B68     		ldr	r3, [r3, #8]
 1061 0152 9268     		ldr	r2, [r2, #8]
 1062 0154 9A42     		cmp	r2, r3
 1063 0156 0FD3     		bcc	.L48
 1064              	.L25:
 1065              	.LVL83:
 1066              	.LBB544:
 1067              	.LBB545:
 1068              	.LBB546:
 1069              		.loc 2 546 0
 1070 0158 0023     		movs	r3, #0
 1071              	@ 546 "../../../os/ext/CMSIS/include/core_cmFunc.h" 1
 1072 015a 83F31188 		MSR basepri, r3
 1073              	@ 0 "" 2
 1074              		.thumb
 1075 015e 93E7     		b	.L24
 1076              	.LVL84:
 1077              	.L44:
 1078              	.LBE546:
 1079              	.LBE545:
 1080              	.LBE544:
 1081              	.LBE543:
 1082              	.LBE542:
 1083              	.LBE552:
ARM GAS  C:\Users\jo\AppData\Local\Temp\cchQqUPf.s 			page 20


 1084              	.LBE606:
 1085              	.LBB607:
 1086              	.LBB525:
 1087              	.LBB520:
 1088              	.LBB521:
 1089              	.LBB522:
 1090              	.LBB523:
 1091              	.LBB524:
 1092 0160 2023     		movs	r3, #32
 1093              	.LVL85:
 1094              	@ 546 "../../../os/ext/CMSIS/include/core_cmFunc.h" 1
 1095 0162 83F31188 		MSR basepri, r3
 1096              	@ 0 "" 2
 1097              		.thumb
 1098              	.LBE524:
 1099              	.LBE523:
 1100              	.LBE522:
 1101              		.loc 3 350 0
 1102 0166 FFF7FEFF 		bl	_dbg_check_lock
 1103              	.LVL86:
 1104 016a 73E7     		b	.L22
 1105              	.LVL87:
 1106              	.L43:
 1107              	.LBE521:
 1108              	.LBE520:
 1109              	.LBE525:
 1110              	.LBE607:
 1111              	.LBB608:
 1112              	.LBB513:
 1113              	.LBB508:
 1114              	.LBB509:
 1115              	.LBB510:
 1116              	.LBB511:
 1117              	.LBB512:
 1118              		.loc 2 546 0
 1119 016c 2023     		movs	r3, #32
 1120              	.LVL88:
 1121              	@ 546 "../../../os/ext/CMSIS/include/core_cmFunc.h" 1
 1122 016e 83F31188 		MSR basepri, r3
 1123              	@ 0 "" 2
 1124              		.thumb
 1125              	.LBE512:
 1126              	.LBE511:
 1127              	.LBE510:
 1128              		.loc 3 350 0
 1129 0172 FFF7FEFF 		bl	_dbg_check_lock
 1130              	.LVL89:
 1131 0176 68E7     		b	.L21
 1132              	.LVL90:
 1133              	.L48:
 1134              	.LBE509:
 1135              	.LBE508:
 1136              	.LBE513:
 1137              	.LBE608:
 1138              	.LBB609:
 1139              	.LBB553:
 1140              	.LBB551:
ARM GAS  C:\Users\jo\AppData\Local\Temp\cchQqUPf.s 			page 21


 1141              	.LBB550:
 1142              		.loc 3 367 0
 1143 0178 0748     		ldr	r0, .L49+4
 1144 017a FFF7FEFF 		bl	chSysHalt
 1145              	.LVL91:
 1146              	.LBB549:
 1147              	.LBB548:
 1148              	.LBB547:
 1149              		.loc 2 546 0
 1150 017e 0023     		movs	r3, #0
 1151              	@ 546 "../../../os/ext/CMSIS/include/core_cmFunc.h" 1
 1152 0180 83F31188 		MSR basepri, r3
 1153              	@ 0 "" 2
 1154              		.thumb
 1155 0184 80E7     		b	.L24
 1156              	.LVL92:
 1157              	.L47:
 1158              	.LBE547:
 1159              	.LBE548:
 1160              	.LBE549:
 1161              	.LBE550:
 1162              	.LBE551:
 1163              	.LBE553:
 1164              	.LBE609:
 1165              	.LBB610:
 1166              	.LBB571:
 1167              	.LBB569:
 1168              	.LBB568:
 1169              		.loc 3 367 0
 1170 0186 0448     		ldr	r0, .L49+4
 1171 0188 FFF7FEFF 		bl	chSysHalt
 1172              	.LVL93:
 1173              	.LBB567:
 1174              	.LBB566:
 1175              	.LBB565:
 1176              		.loc 2 546 0
 1177 018c 0023     		movs	r3, #0
 1178              	@ 546 "../../../os/ext/CMSIS/include/core_cmFunc.h" 1
 1179 018e 83F31188 		MSR basepri, r3
 1180              	@ 0 "" 2
 1181              		.thumb
 1182 0192 7DE7     		b	.L26
 1183              	.L50:
 1184              		.align	2
 1185              	.L49:
 1186 0194 00000000 		.word	ch
 1187 0198 00000000 		.word	.LANCHOR0
 1188 019c 00000000 		.word	vtcb
 1189              	.LBE565:
 1190              	.LBE566:
 1191              	.LBE567:
 1192              	.LBE568:
 1193              	.LBE569:
 1194              	.LBE571:
 1195              	.LBE610:
 1196              		.cfi_endproc
 1197              	.LFE229:
ARM GAS  C:\Users\jo\AppData\Local\Temp\cchQqUPf.s 			page 22


 1198              		.size	sys1_execute, .-sys1_execute
 1199              		.global	patternsys
 1200              		.global	testsys3
 1201              		.global	testsys2
 1202              		.global	testsys1
 1203              		.section	.rodata.testsys1,"a",%progbits
 1204              		.align	2
 1205              		.type	testsys1, %object
 1206              		.size	testsys1, 16
 1207              	testsys1:
 1208 0000 30000000 		.word	.LC2
 1209 0004 00000000 		.word	0
 1210 0008 00000000 		.word	0
 1211 000c 00000000 		.word	sys1_execute
 1212              		.section	.rodata.testsys2,"a",%progbits
 1213              		.align	2
 1214              		.type	testsys2, %object
 1215              		.size	testsys2, 16
 1216              	testsys2:
 1217 0000 14000000 		.word	.LC1
 1218 0004 00000000 		.word	0
 1219 0008 00000000 		.word	0
 1220 000c 00000000 		.word	sys2_execute
 1221              		.section	.rodata.testsys3,"a",%progbits
 1222              		.align	2
 1223              		.type	testsys3, %object
 1224              		.size	testsys3, 16
 1225              	testsys3:
 1226 0000 00000000 		.word	.LC0
 1227 0004 00000000 		.word	0
 1228 0008 00000000 		.word	0
 1229 000c 00000000 		.word	sys3_execute
 1230              		.section	.rodata.str1.4,"aMS",%progbits,1
 1231              		.align	2
 1232              	.LC0:
 1233 0000 53797374 		.ascii	"System, integrity\000"
 1233      656D2C20 
 1233      696E7465 
 1233      67726974 
 1233      7900
 1234 0012 0000     		.space	2
 1235              	.LC1:
 1236 0014 53797374 		.ascii	"System, interrupts handling\000"
 1236      656D2C20 
 1236      696E7465 
 1236      72727570 
 1236      74732068 
 1237              	.LC2:
 1238 0030 53797374 		.ascii	"System, critical zones\000"
 1238      656D2C20 
 1238      63726974 
 1238      6963616C 
 1238      207A6F6E 
 1239 0047 00       		.section	.rodata.__func__.5854,"a",%progbits
 1240              		.align	2
 1241              		.set	.LANCHOR0,. + 0
 1242              		.type	__func__.5854, %object
ARM GAS  C:\Users\jo\AppData\Local\Temp\cchQqUPf.s 			page 23


 1243              		.size	__func__.5854, 12
 1244              	__func__.5854:
 1245 0000 63685379 		.ascii	"chSysUnlock\000"
 1245      73556E6C 
 1245      6F636B00 
 1246              		.section	.rodata.patternsys,"a",%progbits
 1247              		.align	2
 1248              		.type	patternsys, %object
 1249              		.size	patternsys, 16
 1250              	patternsys:
 1251 0000 00000000 		.word	testsys1
 1252 0004 00000000 		.word	testsys2
 1253 0008 00000000 		.word	testsys3
 1254 000c 00000000 		.word	0
 1255              		.text
 1256              	.Letext0:
 1257              		.file 5 "c:\\program files\\gnu tools arm embedded\\4.9 2014q4\\lib\\gcc\\arm-none-eabi\\4.9.3\\in
 1258              		.file 6 "c:\\program files\\gnu tools arm embedded\\4.9 2014q4\\arm-none-eabi\\include\\machine\\_
 1259              		.file 7 "c:\\program files\\gnu tools arm embedded\\4.9 2014q4\\arm-none-eabi\\include\\stdint.h"
 1260              		.file 8 "../../../os/rt/ports/ARMCMx/compilers/GCC/chtypes.h"
 1261              		.file 9 "../../../os/rt/include/chsystypes.h"
 1262              		.file 10 "../../../os/rt/include/chschd.h"
 1263              		.file 11 "../../../os/rt/ports/ARMCMx/chcore.h"
 1264              		.file 12 "../../../os/rt/ports/ARMCMx/chcore_v7m.h"
 1265              		.file 13 "../../../os/rt/include/chdebug.h"
 1266              		.file 14 "../../../os/rt/include/chtm.h"
 1267              		.file 15 "../../../os/rt/include/chsem.h"
 1268              		.file 16 "../../../os/rt/include/chmtx.h"
 1269              		.file 17 "../../../test/rt/test.h"
 1270              		.file 18 "../../../os/ext/CMSIS/include/core_cm4.h"
 1271              		.file 19 "../../../os/rt/include/chthreads.h"