ARM GAS  C:\Users\jo\AppData\Local\Temp\cclg3ATN.s 			page 1


   1              		.syntax unified
   2              		.cpu cortex-m4
   3              		.fpu softvfp
   4              		.eabi_attribute 20, 1
   5              		.eabi_attribute 21, 1
   6              		.eabi_attribute 23, 3
   7              		.eabi_attribute 24, 1
   8              		.eabi_attribute 25, 1
   9              		.eabi_attribute 26, 1
  10              		.eabi_attribute 30, 2
  11              		.eabi_attribute 34, 1
  12              		.eabi_attribute 18, 4
  13              		.thumb
  14              		.file	"testthd.c"
  15              		.text
  16              	.Ltext0:
  17              		.cfi_sections	.debug_frame
  18              		.section	.text.thd1_execute,"ax",%progbits
  19              		.align	2
  20              		.p2align 4,,15
  21              		.thumb
  22              		.thumb_func
  23              		.type	thd1_execute, %function
  24              	thd1_execute:
  25              	.LFB229:
  26              		.file 1 "../../../test/rt/testthd.c"
  27              		.loc 1 65 0
  28              		.cfi_startproc
  29              		@ args = 0, pretend = 0, frame = 0
  30              		@ frame_needed = 0, uses_anonymous_args = 0
  31 0000 F0B5     		push	{r4, r5, r6, r7, lr}
  32              		.cfi_def_cfa_offset 20
  33              		.cfi_offset 4, -20
  34              		.cfi_offset 5, -16
  35              		.cfi_offset 6, -12
  36              		.cfi_offset 7, -8
  37              		.cfi_offset 14, -4
  38              	.LBB205:
  39              	.LBB206:
  40              	.LBB207:
  41              	.LBB208:
  42              		.file 2 "../../../os/rt/include/chthreads.h"
  43              		.loc 2 176 0
  44 0002 274F     		ldr	r7, .L3
  45              	.LBE208:
  46              	.LBE207:
  47              	.LBE206:
  48              	.LBE205:
  49              		.loc 1 67 0
  50 0004 274E     		ldr	r6, .L3+4
  51              	.LBB210:
  52              	.LBB209:
  53              		.loc 2 189 0
  54 0006 BB69     		ldr	r3, [r7, #24]
  55              	.LBE209:
  56              	.LBE210:
  57              		.loc 1 67 0
ARM GAS  C:\Users\jo\AppData\Local\Temp\cclg3ATN.s 			page 2


  58 0008 274D     		ldr	r5, .L3+8
  59 000a 9A68     		ldr	r2, [r3, #8]
  60 000c 274B     		ldr	r3, .L3+12
  61 000e 3068     		ldr	r0, [r6]
  62 0010 274C     		ldr	r4, .L3+16
  63              		.loc 1 65 0
  64 0012 83B0     		sub	sp, sp, #12
  65              		.cfi_def_cfa_offset 32
  66              		.loc 1 67 0
  67 0014 053A     		subs	r2, r2, #5
  68 0016 0093     		str	r3, [sp]
  69 0018 4FF4A871 		mov	r1, #336
  70 001c 2B46     		mov	r3, r5
  71 001e FFF7FEFF 		bl	chThdCreateStatic
  72              	.LVL0:
  73              	.LBB211:
  74              	.LBB212:
  75              		.loc 2 189 0
  76 0022 BB69     		ldr	r3, [r7, #24]
  77              	.LBE212:
  78              	.LBE211:
  79              		.loc 1 68 0
  80 0024 2349     		ldr	r1, .L3+20
  81 0026 9A68     		ldr	r2, [r3, #8]
  82 0028 7368     		ldr	r3, [r6, #4]
  83              		.loc 1 67 0
  84 002a 2060     		str	r0, [r4]
  85              		.loc 1 68 0
  86 002c 0091     		str	r1, [sp]
  87 002e 043A     		subs	r2, r2, #4
  88 0030 1846     		mov	r0, r3
  89 0032 4FF4A871 		mov	r1, #336
  90 0036 2B46     		mov	r3, r5
  91 0038 FFF7FEFF 		bl	chThdCreateStatic
  92              	.LVL1:
  93              	.LBB213:
  94              	.LBB214:
  95              		.loc 2 189 0
  96 003c BA69     		ldr	r2, [r7, #24]
  97              	.LBE214:
  98              	.LBE213:
  99              		.loc 1 69 0
 100 003e B368     		ldr	r3, [r6, #8]
 101 0040 9268     		ldr	r2, [r2, #8]
 102 0042 1D49     		ldr	r1, .L3+24
 103              		.loc 1 68 0
 104 0044 6060     		str	r0, [r4, #4]
 105              		.loc 1 69 0
 106 0046 0091     		str	r1, [sp]
 107 0048 033A     		subs	r2, r2, #3
 108 004a 1846     		mov	r0, r3
 109 004c 4FF4A871 		mov	r1, #336
 110 0050 2B46     		mov	r3, r5
 111 0052 FFF7FEFF 		bl	chThdCreateStatic
 112              	.LVL2:
 113              	.LBB215:
 114              	.LBB216:
ARM GAS  C:\Users\jo\AppData\Local\Temp\cclg3ATN.s 			page 3


 115              		.loc 2 189 0
 116 0056 BA69     		ldr	r2, [r7, #24]
 117              	.LBE216:
 118              	.LBE215:
 119              		.loc 1 70 0
 120 0058 F368     		ldr	r3, [r6, #12]
 121 005a 9268     		ldr	r2, [r2, #8]
 122 005c 1749     		ldr	r1, .L3+28
 123              		.loc 1 69 0
 124 005e A060     		str	r0, [r4, #8]
 125              		.loc 1 70 0
 126 0060 0091     		str	r1, [sp]
 127 0062 023A     		subs	r2, r2, #2
 128 0064 1846     		mov	r0, r3
 129 0066 4FF4A871 		mov	r1, #336
 130 006a 2B46     		mov	r3, r5
 131 006c FFF7FEFF 		bl	chThdCreateStatic
 132              	.LVL3:
 133              	.LBB217:
 134              	.LBB218:
 135              		.loc 2 189 0
 136 0070 BA69     		ldr	r2, [r7, #24]
 137              	.LBE218:
 138              	.LBE217:
 139              		.loc 1 71 0
 140 0072 3369     		ldr	r3, [r6, #16]
 141 0074 9268     		ldr	r2, [r2, #8]
 142 0076 1249     		ldr	r1, .L3+32
 143              		.loc 1 70 0
 144 0078 E060     		str	r0, [r4, #12]
 145              		.loc 1 71 0
 146 007a 013A     		subs	r2, r2, #1
 147 007c 0091     		str	r1, [sp]
 148 007e 1846     		mov	r0, r3
 149 0080 4FF4A871 		mov	r1, #336
 150 0084 2B46     		mov	r3, r5
 151 0086 FFF7FEFF 		bl	chThdCreateStatic
 152              	.LVL4:
 153 008a 2061     		str	r0, [r4, #16]
 154              		.loc 1 72 0
 155 008c FFF7FEFF 		bl	test_wait_threads
 156              	.LVL5:
 157              		.loc 1 73 0
 158 0090 0C49     		ldr	r1, .L3+36
 159 0092 0120     		movs	r0, #1
 160              		.loc 1 74 0
 161 0094 03B0     		add	sp, sp, #12
 162              		.cfi_def_cfa_offset 20
 163              		@ sp needed
 164 0096 BDE8F040 		pop	{r4, r5, r6, r7, lr}
 165              		.cfi_restore 14
 166              		.cfi_restore 7
 167              		.cfi_restore 6
 168              		.cfi_restore 5
 169              		.cfi_restore 4
 170              		.cfi_def_cfa_offset 0
 171              		.loc 1 73 0
ARM GAS  C:\Users\jo\AppData\Local\Temp\cclg3ATN.s 			page 4


 172 009a FFF7FEBF 		b	_test_assert_sequence
 173              	.LVL6:
 174              	.L4:
 175 009e 00BF     		.align	2
 176              	.L3:
 177 00a0 00000000 		.word	ch
 178 00a4 00000000 		.word	wa
 179 00a8 00000000 		.word	thread
 180 00ac 00000000 		.word	.LC0
 181 00b0 00000000 		.word	threads
 182 00b4 04000000 		.word	.LC1
 183 00b8 08000000 		.word	.LC2
 184 00bc 0C000000 		.word	.LC3
 185 00c0 10000000 		.word	.LC4
 186 00c4 14000000 		.word	.LC5
 187              		.cfi_endproc
 188              	.LFE229:
 189              		.size	thd1_execute, .-thd1_execute
 190 00c8 AFF30080 		.section	.text.thread,"ax",%progbits
 190      AFF30080 
 191              		.align	2
 192              		.p2align 4,,15
 193              		.thumb
 194              		.thumb_func
 195              		.type	thread, %function
 196              	thread:
 197              	.LFB228:
 198              		.loc 1 60 0
 199              		.cfi_startproc
 200              		@ args = 0, pretend = 0, frame = 0
 201              		@ frame_needed = 0, uses_anonymous_args = 0
 202              		@ link register save eliminated.
 203              	.LVL7:
 204              		.loc 1 62 0
 205 0000 0078     		ldrb	r0, [r0]	@ zero_extendqisi2
 206              	.LVL8:
 207 0002 FFF7FEBF 		b	test_emit_token
 208              	.LVL9:
 209              		.cfi_endproc
 210              	.LFE228:
 211              		.size	thread, .-thread
 212 0006 00BFAFF3 		.section	.text.thd2_execute,"ax",%progbits
 212      0080AFF3 
 212      0080
 213              		.align	2
 214              		.p2align 4,,15
 215              		.thumb
 216              		.thumb_func
 217              		.type	thd2_execute, %function
 218              	thd2_execute:
 219              	.LFB230:
 220              		.loc 1 93 0
 221              		.cfi_startproc
 222              		@ args = 0, pretend = 0, frame = 0
 223              		@ frame_needed = 0, uses_anonymous_args = 0
 224 0000 70B5     		push	{r4, r5, r6, lr}
 225              		.cfi_def_cfa_offset 16
ARM GAS  C:\Users\jo\AppData\Local\Temp\cclg3ATN.s 			page 5


 226              		.cfi_offset 4, -16
 227              		.cfi_offset 5, -12
 228              		.cfi_offset 6, -8
 229              		.cfi_offset 14, -4
 230              	.LBB249:
 231              	.LBB250:
 232              	.LBB251:
 233              	.LBB252:
 234              		.loc 2 176 0
 235 0002 324C     		ldr	r4, .L10
 236              	.LBE252:
 237              	.LBE251:
 238              	.LBE250:
 239              	.LBE249:
 240              		.loc 1 95 0
 241 0004 324E     		ldr	r6, .L10+4
 242              	.LBB254:
 243              	.LBB253:
 244              		.loc 2 189 0
 245 0006 A369     		ldr	r3, [r4, #24]
 246              	.LBE253:
 247              	.LBE254:
 248              		.loc 1 95 0
 249 0008 7068     		ldr	r0, [r6, #4]
 250 000a 9A68     		ldr	r2, [r3, #8]
 251 000c 314B     		ldr	r3, .L10+8
 252 000e 324D     		ldr	r5, .L10+12
 253              		.loc 1 93 0
 254 0010 82B0     		sub	sp, sp, #8
 255              		.cfi_def_cfa_offset 24
 256              		.loc 1 95 0
 257 0012 043A     		subs	r2, r2, #4
 258 0014 0093     		str	r3, [sp]
 259 0016 4FF4A871 		mov	r1, #336
 260 001a 304B     		ldr	r3, .L10+16
 261 001c FFF7FEFF 		bl	chThdCreateStatic
 262              	.LVL10:
 263              	.LBB255:
 264              	.LBB256:
 265              		.loc 2 189 0
 266 0020 A369     		ldr	r3, [r4, #24]
 267              	.LBE256:
 268              	.LBE255:
 269              		.loc 1 96 0
 270 0022 3168     		ldr	r1, [r6]
 271 0024 9A68     		ldr	r2, [r3, #8]
 272 0026 2E4B     		ldr	r3, .L10+20
 273              		.loc 1 95 0
 274 0028 6860     		str	r0, [r5, #4]
 275              		.loc 1 96 0
 276 002a 0093     		str	r3, [sp]
 277 002c 053A     		subs	r2, r2, #5
 278 002e 0846     		mov	r0, r1
 279 0030 2A4B     		ldr	r3, .L10+16
 280 0032 4FF4A871 		mov	r1, #336
 281 0036 FFF7FEFF 		bl	chThdCreateStatic
 282              	.LVL11:
ARM GAS  C:\Users\jo\AppData\Local\Temp\cclg3ATN.s 			page 6


 283              	.LBB257:
 284              	.LBB258:
 285              		.loc 2 189 0
 286 003a A369     		ldr	r3, [r4, #24]
 287              	.LBE258:
 288              	.LBE257:
 289              		.loc 1 97 0
 290 003c 3169     		ldr	r1, [r6, #16]
 291 003e 9A68     		ldr	r2, [r3, #8]
 292 0040 284B     		ldr	r3, .L10+24
 293              		.loc 1 96 0
 294 0042 2860     		str	r0, [r5]
 295              		.loc 1 97 0
 296 0044 0093     		str	r3, [sp]
 297 0046 013A     		subs	r2, r2, #1
 298 0048 0846     		mov	r0, r1
 299 004a 244B     		ldr	r3, .L10+16
 300 004c 4FF4A871 		mov	r1, #336
 301 0050 FFF7FEFF 		bl	chThdCreateStatic
 302              	.LVL12:
 303              	.LBB259:
 304              	.LBB260:
 305              		.loc 2 189 0
 306 0054 A369     		ldr	r3, [r4, #24]
 307              	.LBE260:
 308              	.LBE259:
 309              		.loc 1 98 0
 310 0056 F168     		ldr	r1, [r6, #12]
 311 0058 9A68     		ldr	r2, [r3, #8]
 312 005a 234B     		ldr	r3, .L10+28
 313              		.loc 1 97 0
 314 005c 2861     		str	r0, [r5, #16]
 315              		.loc 1 98 0
 316 005e 0093     		str	r3, [sp]
 317 0060 023A     		subs	r2, r2, #2
 318 0062 0846     		mov	r0, r1
 319 0064 1D4B     		ldr	r3, .L10+16
 320 0066 4FF4A871 		mov	r1, #336
 321 006a FFF7FEFF 		bl	chThdCreateStatic
 322              	.LVL13:
 323              	.LBB261:
 324              	.LBB262:
 325              	.LBB263:
 326              	.LBB264:
 327              	.LBB265:
 328              		.file 3 "../../../os/ext/CMSIS/include/core_cmFunc.h"
 329              		.loc 3 546 0
 330 006e 2023     		movs	r3, #32
 331              	.LBE265:
 332              	.LBE264:
 333              	.LBE263:
 334              	.LBE262:
 335              	.LBE261:
 336              		.loc 1 98 0
 337 0070 E860     		str	r0, [r5, #12]
 338              	.LVL14:
 339              	.LBB270:
ARM GAS  C:\Users\jo\AppData\Local\Temp\cclg3ATN.s 			page 7


 340              	.LBB269:
 341              	.LBB268:
 342              	.LBB267:
 343              	.LBB266:
 344              		.loc 3 546 0
 345              	@ 546 "../../../os/ext/CMSIS/include/core_cmFunc.h" 1
 346 0072 83F31188 		MSR basepri, r3
 347              	@ 0 "" 2
 348              		.thumb
 349              	.LBE266:
 350              	.LBE267:
 351              	.LBE268:
 352              		.file 4 "../../../os/rt/include/chsys.h"
 353              		.loc 4 350 0
 354 0076 FFF7FEFF 		bl	_dbg_check_lock
 355              	.LVL15:
 356              	.LBE269:
 357              	.LBE270:
 358              	.LBB271:
 359              	.LBB272:
 360              		.loc 2 189 0
 361 007a A369     		ldr	r3, [r4, #24]
 362              	.LBE272:
 363              	.LBE271:
 364              		.loc 1 101 0
 365 007c B068     		ldr	r0, [r6, #8]
 366 007e 9A68     		ldr	r2, [r3, #8]
 367 0080 1A4B     		ldr	r3, .L10+32
 368 0082 0093     		str	r3, [sp]
 369 0084 033A     		subs	r2, r2, #3
 370 0086 154B     		ldr	r3, .L10+16
 371 0088 4FF4A871 		mov	r1, #336
 372 008c FFF7FEFF 		bl	chThdCreateI
 373              	.LVL16:
 374 0090 A860     		str	r0, [r5, #8]
 375              	.LBB273:
 376              	.LBB274:
 377              		.loc 4 360 0
 378 0092 FFF7FEFF 		bl	_dbg_check_unlock
 379              	.LVL17:
 380              		.loc 4 367 0
 381 0096 2368     		ldr	r3, [r4]
 382 0098 A342     		cmp	r3, r4
 383 009a 07D0     		beq	.L7
 384 009c A269     		ldr	r2, [r4, #24]
 385 009e 9B68     		ldr	r3, [r3, #8]
 386 00a0 9268     		ldr	r2, [r2, #8]
 387 00a2 9A42     		cmp	r2, r3
 388 00a4 02D2     		bcs	.L7
 389 00a6 1248     		ldr	r0, .L10+36
 390 00a8 FFF7FEFF 		bl	chSysHalt
 391              	.LVL18:
 392              	.L7:
 393              	.LBB275:
 394              	.LBB276:
 395              	.LBB277:
 396              		.loc 3 546 0
ARM GAS  C:\Users\jo\AppData\Local\Temp\cclg3ATN.s 			page 8


 397 00ac 0023     		movs	r3, #0
 398              	@ 546 "../../../os/ext/CMSIS/include/core_cmFunc.h" 1
 399 00ae 83F31188 		MSR basepri, r3
 400              	@ 0 "" 2
 401              		.thumb
 402              	.LBE277:
 403              	.LBE276:
 404              	.LBE275:
 405              	.LBE274:
 406              	.LBE273:
 407              		.loc 1 103 0
 408 00b2 A868     		ldr	r0, [r5, #8]
 409 00b4 FFF7FEFF 		bl	chThdStart
 410              	.LVL19:
 411              		.loc 1 104 0
 412 00b8 FFF7FEFF 		bl	test_wait_threads
 413              	.LVL20:
 414              		.loc 1 105 0
 415 00bc 0D49     		ldr	r1, .L10+40
 416 00be 0120     		movs	r0, #1
 417              		.loc 1 106 0
 418 00c0 02B0     		add	sp, sp, #8
 419              		.cfi_def_cfa_offset 16
 420              		@ sp needed
 421 00c2 BDE87040 		pop	{r4, r5, r6, lr}
 422              		.cfi_restore 14
 423              		.cfi_restore 6
 424              		.cfi_restore 5
 425              		.cfi_restore 4
 426              		.cfi_def_cfa_offset 0
 427              		.loc 1 105 0
 428 00c6 FFF7FEBF 		b	_test_assert_sequence
 429              	.LVL21:
 430              	.L11:
 431 00ca 00BF     		.align	2
 432              	.L10:
 433 00cc 00000000 		.word	ch
 434 00d0 00000000 		.word	wa
 435 00d4 04000000 		.word	.LC1
 436 00d8 00000000 		.word	threads
 437 00dc 00000000 		.word	thread
 438 00e0 00000000 		.word	.LC0
 439 00e4 10000000 		.word	.LC4
 440 00e8 0C000000 		.word	.LC3
 441 00ec 08000000 		.word	.LC2
 442 00f0 00000000 		.word	.LANCHOR0
 443 00f4 14000000 		.word	.LC5
 444              		.cfi_endproc
 445              	.LFE230:
 446              		.size	thd2_execute, .-thd2_execute
 447 00f8 AFF30080 		.section	.text.thd3_execute,"ax",%progbits
 447      AFF30080 
 448              		.align	2
 449              		.p2align 4,,15
 450              		.thumb
 451              		.thumb_func
 452              		.type	thd3_execute, %function
ARM GAS  C:\Users\jo\AppData\Local\Temp\cclg3ATN.s 			page 9


 453              	thd3_execute:
 454              	.LFB231:
 455              		.loc 1 125 0
 456              		.cfi_startproc
 457              		@ args = 0, pretend = 0, frame = 0
 458              		@ frame_needed = 0, uses_anonymous_args = 0
 459 0000 F8B5     		push	{r3, r4, r5, r6, r7, lr}
 460              		.cfi_def_cfa_offset 24
 461              		.cfi_offset 3, -24
 462              		.cfi_offset 4, -20
 463              		.cfi_offset 5, -16
 464              		.cfi_offset 6, -12
 465              		.cfi_offset 7, -8
 466              		.cfi_offset 14, -4
 467              	.LBB326:
 468              	.LBB327:
 469              	.LBB328:
 470              	.LBB329:
 471              		.loc 2 176 0
 472 0002 5B4D     		ldr	r5, .L20
 473              	.LBE329:
 474              	.LBE328:
 475              		.loc 2 189 0
 476 0004 AB69     		ldr	r3, [r5, #24]
 477 0006 9C68     		ldr	r4, [r3, #8]
 478              	.LBE327:
 479              	.LBE326:
 480              		.loc 1 129 0
 481 0008 661C     		adds	r6, r4, #1
 482 000a 3046     		mov	r0, r6
 483 000c FFF7FEFF 		bl	chThdSetPriority
 484              	.LVL22:
 485              		.loc 1 130 0
 486 0010 011B     		subs	r1, r0, r4
 487              		.loc 1 129 0
 488 0012 0746     		mov	r7, r0
 489              	.LVL23:
 490              		.loc 1 130 0
 491 0014 B1FA81F1 		clz	r1, r1
 492 0018 0120     		movs	r0, #1
 493              	.LVL24:
 494 001a 4909     		lsrs	r1, r1, #5
 495 001c FFF7FEFF 		bl	_test_assert
 496              	.LVL25:
 497 0020 00B1     		cbz	r0, .L19
 498              	.LVL26:
 499              	.L12:
 500 0022 F8BD     		pop	{r3, r4, r5, r6, r7, pc}
 501              	.LVL27:
 502              	.L19:
 503              	.LBB330:
 504              	.LBB331:
 505              		.loc 2 189 0
 506 0024 AB69     		ldr	r3, [r5, #24]
 507              	.LBE331:
 508              	.LBE330:
 509              		.loc 1 132 0
ARM GAS  C:\Users\jo\AppData\Local\Temp\cclg3ATN.s 			page 10


 510 0026 9968     		ldr	r1, [r3, #8]
 511 0028 0220     		movs	r0, #2
 512 002a 711A     		subs	r1, r6, r1
 513 002c B1FA81F1 		clz	r1, r1
 514 0030 4909     		lsrs	r1, r1, #5
 515 0032 FFF7FEFF 		bl	_test_assert
 516              	.LVL28:
 517 0036 0028     		cmp	r0, #0
 518 0038 F3D1     		bne	.L12
 519              		.loc 1 134 0
 520 003a 3846     		mov	r0, r7
 521 003c FFF7FEFF 		bl	chThdSetPriority
 522              	.LVL29:
 523              		.loc 1 135 0
 524 0040 311A     		subs	r1, r6, r0
 525 0042 0320     		movs	r0, #3
 526              	.LVL30:
 527 0044 B1FA81F1 		clz	r1, r1
 528 0048 4909     		lsrs	r1, r1, #5
 529 004a FFF7FEFF 		bl	_test_assert
 530              	.LVL31:
 531 004e 0028     		cmp	r0, #0
 532 0050 E7D1     		bne	.L12
 533              	.LBB332:
 534              	.LBB333:
 535              		.loc 2 189 0
 536 0052 AB69     		ldr	r3, [r5, #24]
 537              	.LBE333:
 538              	.LBE332:
 539              		.loc 1 137 0
 540 0054 9968     		ldr	r1, [r3, #8]
 541 0056 0420     		movs	r0, #4
 542 0058 611A     		subs	r1, r4, r1
 543 005a B1FA81F1 		clz	r1, r1
 544 005e 4909     		lsrs	r1, r1, #5
 545 0060 FFF7FEFF 		bl	_test_assert
 546              	.LVL32:
 547 0064 0028     		cmp	r0, #0
 548 0066 DCD1     		bne	.L12
 549              	.LVL33:
 550              	.LBB334:
 551              	.LBB335:
 552              	.LBB336:
 553              	.LBB337:
 554              	.LBB338:
 555              		.loc 3 546 0
 556 0068 2023     		movs	r3, #32
 557              	@ 546 "../../../os/ext/CMSIS/include/core_cmFunc.h" 1
 558 006a 83F31188 		MSR basepri, r3
 559              	@ 0 "" 2
 560              		.thumb
 561              	.LBE338:
 562              	.LBE337:
 563              	.LBE336:
 564              		.loc 4 350 0
 565 006e FFF7FEFF 		bl	_dbg_check_lock
 566              	.LVL34:
ARM GAS  C:\Users\jo\AppData\Local\Temp\cclg3ATN.s 			page 11


 567              	.LBE335:
 568              	.LBE334:
 569              	.LBB339:
 570              	.LBB340:
 571              		.loc 2 176 0
 572 0072 AA69     		ldr	r2, [r5, #24]
 573              	.LBE340:
 574              	.LBE339:
 575              		.loc 1 143 0
 576 0074 9368     		ldr	r3, [r2, #8]
 577 0076 0233     		adds	r3, r3, #2
 578 0078 9360     		str	r3, [r2, #8]
 579              	.LBB341:
 580              	.LBB342:
 581              		.loc 4 360 0
 582 007a FFF7FEFF 		bl	_dbg_check_unlock
 583              	.LVL35:
 584              		.loc 4 367 0
 585 007e 2B68     		ldr	r3, [r5]
 586 0080 AB42     		cmp	r3, r5
 587 0082 07D0     		beq	.L16
 588 0084 AA69     		ldr	r2, [r5, #24]
 589 0086 9B68     		ldr	r3, [r3, #8]
 590 0088 9268     		ldr	r2, [r2, #8]
 591 008a 9A42     		cmp	r2, r3
 592 008c 02D2     		bcs	.L16
 593 008e 3948     		ldr	r0, .L20+4
 594 0090 FFF7FEFF 		bl	chSysHalt
 595              	.LVL36:
 596              	.L16:
 597              	.LBB343:
 598              	.LBB344:
 599              	.LBB345:
 600              		.loc 3 546 0
 601 0094 0023     		movs	r3, #0
 602              	@ 546 "../../../os/ext/CMSIS/include/core_cmFunc.h" 1
 603 0096 83F31188 		MSR basepri, r3
 604              	@ 0 "" 2
 605              		.thumb
 606              	.LBE345:
 607              	.LBE344:
 608              	.LBE343:
 609              	.LBE342:
 610              	.LBE341:
 611              	.LBB346:
 612              	.LBB347:
 613              		.loc 2 189 0
 614 009a AB69     		ldr	r3, [r5, #24]
 615              	.LBB348:
 616              	.LBB349:
 617              		.loc 2 176 0
 618 009c 344F     		ldr	r7, .L20
 619              	.LBE349:
 620              	.LBE348:
 621              	.LBE347:
 622              	.LBE346:
 623              		.loc 1 145 0
ARM GAS  C:\Users\jo\AppData\Local\Temp\cclg3ATN.s 			page 12


 624 009e 9968     		ldr	r1, [r3, #8]
 625 00a0 A51C     		adds	r5, r4, #2
 626 00a2 691A     		subs	r1, r5, r1
 627 00a4 0520     		movs	r0, #5
 628 00a6 B1FA81F1 		clz	r1, r1
 629 00aa 4909     		lsrs	r1, r1, #5
 630 00ac FFF7FEFF 		bl	_test_assert
 631              	.LVL37:
 632 00b0 0028     		cmp	r0, #0
 633 00b2 B6D1     		bne	.L12
 634              		.loc 1 149 0
 635 00b4 3046     		mov	r0, r6
 636 00b6 FFF7FEFF 		bl	chThdSetPriority
 637              	.LVL38:
 638              		.loc 1 150 0
 639 00ba 011B     		subs	r1, r0, r4
 640 00bc 0620     		movs	r0, #6
 641              	.LVL39:
 642 00be B1FA81F1 		clz	r1, r1
 643 00c2 4909     		lsrs	r1, r1, #5
 644 00c4 FFF7FEFF 		bl	_test_assert
 645              	.LVL40:
 646 00c8 0028     		cmp	r0, #0
 647 00ca AAD1     		bne	.L12
 648              		.loc 1 152 0
 649 00cc BB69     		ldr	r3, [r7, #24]
 650 00ce 9968     		ldr	r1, [r3, #8]
 651 00d0 0720     		movs	r0, #7
 652 00d2 691A     		subs	r1, r5, r1
 653 00d4 B1FA81F1 		clz	r1, r1
 654 00d8 4909     		lsrs	r1, r1, #5
 655 00da FFF7FEFF 		bl	_test_assert
 656              	.LVL41:
 657 00de 0028     		cmp	r0, #0
 658 00e0 9FD1     		bne	.L12
 659              		.loc 1 154 0
 660 00e2 BB69     		ldr	r3, [r7, #24]
 661 00e4 196C     		ldr	r1, [r3, #64]
 662 00e6 0820     		movs	r0, #8
 663 00e8 711A     		subs	r1, r6, r1
 664 00ea B1FA81F1 		clz	r1, r1
 665 00ee 4909     		lsrs	r1, r1, #5
 666 00f0 FFF7FEFF 		bl	_test_assert
 667              	.LVL42:
 668 00f4 0028     		cmp	r0, #0
 669 00f6 94D1     		bne	.L12
 670              		.loc 1 158 0
 671 00f8 E51C     		adds	r5, r4, #3
 672 00fa 2846     		mov	r0, r5
 673 00fc FFF7FEFF 		bl	chThdSetPriority
 674              	.LVL43:
 675              		.loc 1 159 0
 676 0100 301A     		subs	r0, r6, r0
 677              	.LVL44:
 678 0102 4142     		rsbs	r1, r0, #0
 679 0104 4141     		adcs	r1, r1, r0
 680 0106 0920     		movs	r0, #9
ARM GAS  C:\Users\jo\AppData\Local\Temp\cclg3ATN.s 			page 13


 681 0108 FFF7FEFF 		bl	_test_assert
 682              	.LVL45:
 683 010c 0028     		cmp	r0, #0
 684 010e 88D1     		bne	.L12
 685              		.loc 1 161 0
 686 0110 BB69     		ldr	r3, [r7, #24]
 687 0112 9968     		ldr	r1, [r3, #8]
 688 0114 6A1A     		subs	r2, r5, r1
 689 0116 5142     		rsbs	r1, r2, #0
 690 0118 5141     		adcs	r1, r1, r2
 691 011a 0A20     		movs	r0, #10
 692 011c FFF7FEFF 		bl	_test_assert
 693              	.LVL46:
 694 0120 0028     		cmp	r0, #0
 695 0122 7FF47EAF 		bne	.L12
 696              		.loc 1 163 0
 697 0126 BB69     		ldr	r3, [r7, #24]
 698 0128 196C     		ldr	r1, [r3, #64]
 699 012a 6B1A     		subs	r3, r5, r1
 700 012c 5942     		rsbs	r1, r3, #0
 701 012e 5941     		adcs	r1, r1, r3
 702 0130 0B20     		movs	r0, #11
 703 0132 FFF7FEFF 		bl	_test_assert
 704              	.LVL47:
 705 0136 0028     		cmp	r0, #0
 706 0138 7FF473AF 		bne	.L12
 707              	.LVL48:
 708              	.LBB350:
 709              	.LBB351:
 710              	.LBB352:
 711              	.LBB353:
 712              	.LBB354:
 713              		.loc 3 546 0
 714 013c 2023     		movs	r3, #32
 715              	@ 546 "../../../os/ext/CMSIS/include/core_cmFunc.h" 1
 716 013e 83F31188 		MSR basepri, r3
 717              	@ 0 "" 2
 718              		.thumb
 719              	.LBE354:
 720              	.LBE353:
 721              	.LBE352:
 722              		.loc 4 350 0
 723 0142 FFF7FEFF 		bl	_dbg_check_lock
 724              	.LVL49:
 725              	.LBE351:
 726              	.LBE350:
 727              	.LBB355:
 728              	.LBB356:
 729              		.loc 2 176 0
 730 0146 BB69     		ldr	r3, [r7, #24]
 731              	.LBE356:
 732              	.LBE355:
 733              		.loc 1 167 0
 734 0148 9C60     		str	r4, [r3, #8]
 735              		.loc 1 168 0
 736 014a 1C64     		str	r4, [r3, #64]
 737              	.LBB357:
ARM GAS  C:\Users\jo\AppData\Local\Temp\cclg3ATN.s 			page 14


 738              	.LBB358:
 739              		.loc 4 360 0
 740 014c FFF7FEFF 		bl	_dbg_check_unlock
 741              	.LVL50:
 742              		.loc 4 367 0
 743 0150 3B68     		ldr	r3, [r7]
 744 0152 BB42     		cmp	r3, r7
 745 0154 07D0     		beq	.L17
 746 0156 BA69     		ldr	r2, [r7, #24]
 747 0158 9B68     		ldr	r3, [r3, #8]
 748 015a 9268     		ldr	r2, [r2, #8]
 749 015c 9A42     		cmp	r2, r3
 750 015e 02D2     		bcs	.L17
 751 0160 0448     		ldr	r0, .L20+4
 752 0162 FFF7FEFF 		bl	chSysHalt
 753              	.LVL51:
 754              	.L17:
 755              	.LBB359:
 756              	.LBB360:
 757              	.LBB361:
 758              		.loc 3 546 0
 759 0166 0023     		movs	r3, #0
 760              	@ 546 "../../../os/ext/CMSIS/include/core_cmFunc.h" 1
 761 0168 83F31188 		MSR basepri, r3
 762              	@ 0 "" 2
 763              		.thumb
 764 016c 59E7     		b	.L12
 765              	.L21:
 766 016e 00BF     		.align	2
 767              	.L20:
 768 0170 00000000 		.word	ch
 769 0174 00000000 		.word	.LANCHOR0
 770              	.LBE361:
 771              	.LBE360:
 772              	.LBE359:
 773              	.LBE358:
 774              	.LBE357:
 775              		.cfi_endproc
 776              	.LFE231:
 777              		.size	thd3_execute, .-thd3_execute
 778 0178 AFF30080 		.section	.text.thd4_execute,"ax",%progbits
 778      AFF30080 
 779              		.align	2
 780              		.p2align 4,,15
 781              		.thumb
 782              		.thumb_func
 783              		.type	thd4_execute, %function
 784              	thd4_execute:
 785              	.LFB232:
 786              		.loc 1 188 0
 787              		.cfi_startproc
 788              		@ args = 0, pretend = 0, frame = 0
 789              		@ frame_needed = 0, uses_anonymous_args = 0
 790 0000 38B5     		push	{r3, r4, r5, lr}
 791              		.cfi_def_cfa_offset 16
 792              		.cfi_offset 3, -16
 793              		.cfi_offset 4, -12
ARM GAS  C:\Users\jo\AppData\Local\Temp\cclg3ATN.s 			page 15


 794              		.cfi_offset 5, -8
 795              		.cfi_offset 14, -4
 796              		.loc 1 191 0
 797 0002 FFF7FEFF 		bl	test_wait_tick
 798              	.LVL52:
 799              	.LBB450:
 800              	.LBB451:
 801              	.LBB452:
 802              	.LBB453:
 803              	.LBB454:
 804              	.LBB455:
 805              	.LBB456:
 806              		.loc 3 546 0
 807 0006 2023     		movs	r3, #32
 808              	@ 546 "../../../os/ext/CMSIS/include/core_cmFunc.h" 1
 809 0008 83F31188 		MSR basepri, r3
 810              	@ 0 "" 2
 811              		.thumb
 812              	.LBE456:
 813              	.LBE455:
 814              	.LBE454:
 815              		.loc 4 350 0
 816 000c FFF7FEFF 		bl	_dbg_check_lock
 817              	.LVL53:
 818              	.LBE453:
 819              	.LBE452:
 820              	.LBB457:
 821              	.LBB458:
 822              		.loc 4 367 0
 823 0010 4B4C     		ldr	r4, .L33
 824              	.LBE458:
 825              	.LBE457:
 826              	.LBB463:
 827              	.LBB464:
 828              	.LBB465:
 829              	.LBB466:
 830              		.file 5 "../../../os/hal/ports/STM32/LLD/TIMv1/st_lld.h"
 831              		.loc 5 129 0
 832 0012 4FF08043 		mov	r3, #1073741824
 833 0016 5D6A     		ldr	r5, [r3, #36]
 834              	.LBE466:
 835              	.LBE465:
 836              	.LBE464:
 837              	.LBE463:
 838              	.LBB467:
 839              	.LBB462:
 840              		.loc 4 360 0
 841 0018 FFF7FEFF 		bl	_dbg_check_unlock
 842              	.LVL54:
 843              		.loc 4 367 0
 844 001c 2368     		ldr	r3, [r4]
 845 001e A342     		cmp	r3, r4
 846 0020 07D0     		beq	.L23
 847 0022 A269     		ldr	r2, [r4, #24]
 848 0024 9B68     		ldr	r3, [r3, #8]
 849 0026 9268     		ldr	r2, [r2, #8]
 850 0028 9A42     		cmp	r2, r3
ARM GAS  C:\Users\jo\AppData\Local\Temp\cclg3ATN.s 			page 16


 851 002a 02D2     		bcs	.L23
 852 002c 4548     		ldr	r0, .L33+4
 853 002e FFF7FEFF 		bl	chSysHalt
 854              	.LVL55:
 855              	.L23:
 856              	.LBB459:
 857              	.LBB460:
 858              	.LBB461:
 859              		.loc 3 546 0
 860 0032 0023     		movs	r3, #0
 861              	@ 546 "../../../os/ext/CMSIS/include/core_cmFunc.h" 1
 862 0034 83F31188 		MSR basepri, r3
 863              	@ 0 "" 2
 864              		.thumb
 865              	.LBE461:
 866              	.LBE460:
 867              	.LBE459:
 868              	.LBE462:
 869              	.LBE467:
 870              	.LBE451:
 871              	.LBE450:
 872              		.loc 1 195 0
 873 0038 40F2C220 		movw	r0, #706
 874 003c FFF7FEFF 		bl	chThdSleep
 875              	.LVL56:
 876              		.loc 1 196 0
 877 0040 05F2C221 		addw	r1, r5, #706
 878 0044 05F2C522 		addw	r2, r5, #709
 879 0048 0120     		movs	r0, #1
 880 004a FFF7FEFF 		bl	_test_assert_time_window
 881              	.LVL57:
 882 004e 00B1     		cbz	r0, .L31
 883              	.L22:
 884 0050 38BD     		pop	{r3, r4, r5, pc}
 885              	.L31:
 886              	.LVL58:
 887              	.LBB468:
 888              	.LBB469:
 889              	.LBB470:
 890              	.LBB471:
 891              	.LBB472:
 892              	.LBB473:
 893              	.LBB474:
 894              		.loc 3 546 0
 895 0052 2023     		movs	r3, #32
 896              	@ 546 "../../../os/ext/CMSIS/include/core_cmFunc.h" 1
 897 0054 83F31188 		MSR basepri, r3
 898              	@ 0 "" 2
 899              		.thumb
 900              	.LBE474:
 901              	.LBE473:
 902              	.LBE472:
 903              		.loc 4 350 0
 904 0058 FFF7FEFF 		bl	_dbg_check_lock
 905              	.LVL59:
 906              	.LBE471:
 907              	.LBE470:
ARM GAS  C:\Users\jo\AppData\Local\Temp\cclg3ATN.s 			page 17


 908              	.LBB475:
 909              	.LBB476:
 910              	.LBB477:
 911              	.LBB478:
 912              		.loc 5 129 0
 913 005c 4FF08043 		mov	r3, #1073741824
 914 0060 5D6A     		ldr	r5, [r3, #36]
 915              	.LBE478:
 916              	.LBE477:
 917              	.LBE476:
 918              	.LBE475:
 919              	.LBB479:
 920              	.LBB480:
 921              		.loc 4 360 0
 922 0062 FFF7FEFF 		bl	_dbg_check_unlock
 923              	.LVL60:
 924              		.loc 4 367 0
 925 0066 2368     		ldr	r3, [r4]
 926 0068 354A     		ldr	r2, .L33
 927 006a A342     		cmp	r3, r4
 928 006c 07D0     		beq	.L26
 929 006e 9269     		ldr	r2, [r2, #24]
 930 0070 9B68     		ldr	r3, [r3, #8]
 931 0072 9268     		ldr	r2, [r2, #8]
 932 0074 9A42     		cmp	r2, r3
 933 0076 02D2     		bcs	.L26
 934 0078 3248     		ldr	r0, .L33+4
 935 007a FFF7FEFF 		bl	chSysHalt
 936              	.LVL61:
 937              	.L26:
 938              	.LBB481:
 939              	.LBB482:
 940              	.LBB483:
 941              		.loc 3 546 0
 942 007e 0023     		movs	r3, #0
 943              	@ 546 "../../../os/ext/CMSIS/include/core_cmFunc.h" 1
 944 0080 83F31188 		MSR basepri, r3
 945              	@ 0 "" 2
 946              		.thumb
 947              	.LBE483:
 948              	.LBE482:
 949              	.LBE481:
 950              	.LBE480:
 951              	.LBE479:
 952              	.LBE469:
 953              	.LBE468:
 954              		.loc 1 202 0
 955 0084 41F28830 		movw	r0, #5000
 956 0088 FFF7FEFF 		bl	chThdSleep
 957              	.LVL62:
 958              		.loc 1 203 0
 959 008c 05F59C51 		add	r1, r5, #4992
 960 0090 0A46     		mov	r2, r1
 961 0092 0B32     		adds	r2, r2, #11
 962 0094 0831     		adds	r1, r1, #8
 963 0096 0220     		movs	r0, #2
 964 0098 FFF7FEFF 		bl	_test_assert_time_window
ARM GAS  C:\Users\jo\AppData\Local\Temp\cclg3ATN.s 			page 18


 965              	.LVL63:
 966 009c 0028     		cmp	r0, #0
 967 009e D7D1     		bne	.L22
 968              	.LVL64:
 969              	.LBB484:
 970              	.LBB485:
 971              	.LBB486:
 972              	.LBB487:
 973              	.LBB488:
 974              	.LBB489:
 975              	.LBB490:
 976              	.LBB491:
 977              	.LBB492:
 978              		.loc 3 546 0
 979 00a0 2023     		movs	r3, #32
 980              	@ 546 "../../../os/ext/CMSIS/include/core_cmFunc.h" 1
 981 00a2 83F31188 		MSR basepri, r3
 982              	@ 0 "" 2
 983              		.thumb
 984              	.LBE492:
 985              	.LBE491:
 986              	.LBE490:
 987              		.loc 4 350 0
 988 00a6 FFF7FEFF 		bl	_dbg_check_lock
 989              	.LVL65:
 990              	.LBE489:
 991              	.LBE488:
 992              	.LBB493:
 993              	.LBB494:
 994              	.LBB495:
 995              	.LBB496:
 996              		.loc 5 129 0
 997 00aa 4FF08043 		mov	r3, #1073741824
 998 00ae 5D6A     		ldr	r5, [r3, #36]
 999              	.LBE496:
 1000              	.LBE495:
 1001              	.LBE494:
 1002              	.LBE493:
 1003              	.LBB497:
 1004              	.LBB498:
 1005              		.loc 4 360 0
 1006 00b0 FFF7FEFF 		bl	_dbg_check_unlock
 1007              	.LVL66:
 1008              		.loc 4 367 0
 1009 00b4 2368     		ldr	r3, [r4]
 1010 00b6 224A     		ldr	r2, .L33
 1011 00b8 A342     		cmp	r3, r4
 1012 00ba 07D0     		beq	.L28
 1013 00bc 9269     		ldr	r2, [r2, #24]
 1014 00be 9B68     		ldr	r3, [r3, #8]
 1015 00c0 9268     		ldr	r2, [r2, #8]
 1016 00c2 9A42     		cmp	r2, r3
 1017 00c4 02D2     		bcs	.L28
 1018 00c6 1F48     		ldr	r0, .L33+4
 1019 00c8 FFF7FEFF 		bl	chSysHalt
 1020              	.LVL67:
 1021              	.L28:
ARM GAS  C:\Users\jo\AppData\Local\Temp\cclg3ATN.s 			page 19


 1022              	.LBB499:
 1023              	.LBB500:
 1024              	.LBB501:
 1025              		.loc 3 546 0
 1026 00cc 0023     		movs	r3, #0
 1027              	@ 546 "../../../os/ext/CMSIS/include/core_cmFunc.h" 1
 1028 00ce 83F31188 		MSR basepri, r3
 1029              	@ 0 "" 2
 1030              		.thumb
 1031              	.LBE501:
 1032              	.LBE500:
 1033              	.LBE499:
 1034              	.LBE498:
 1035              	.LBE497:
 1036              	.LBE487:
 1037              	.LBE486:
 1038              		.loc 1 209 0
 1039 00d2 4CF25030 		movw	r0, #50000
 1040 00d6 FFF7FEFF 		bl	chThdSleep
 1041              	.LVL68:
 1042              		.loc 1 210 0
 1043 00da 05F54341 		add	r1, r5, #49920
 1044 00de 0A46     		mov	r2, r1
 1045 00e0 5332     		adds	r2, r2, #83
 1046 00e2 5031     		adds	r1, r1, #80
 1047 00e4 0320     		movs	r0, #3
 1048 00e6 FFF7FEFF 		bl	_test_assert_time_window
 1049              	.LVL69:
 1050 00ea 0028     		cmp	r0, #0
 1051 00ec B0D1     		bne	.L22
 1052              	.LVL70:
 1053              	.LBB502:
 1054              	.LBB503:
 1055              	.LBB504:
 1056              	.LBB505:
 1057              	.LBB506:
 1058              	.LBB507:
 1059              	.LBB508:
 1060              		.loc 3 546 0
 1061 00ee 2023     		movs	r3, #32
 1062              	@ 546 "../../../os/ext/CMSIS/include/core_cmFunc.h" 1
 1063 00f0 83F31188 		MSR basepri, r3
 1064              	@ 0 "" 2
 1065              		.thumb
 1066              	.LBE508:
 1067              	.LBE507:
 1068              	.LBE506:
 1069              		.loc 4 350 0
 1070 00f4 FFF7FEFF 		bl	_dbg_check_lock
 1071              	.LVL71:
 1072              	.LBE505:
 1073              	.LBE504:
 1074              	.LBB509:
 1075              	.LBB510:
 1076              	.LBB511:
 1077              	.LBB512:
 1078              		.loc 5 129 0
ARM GAS  C:\Users\jo\AppData\Local\Temp\cclg3ATN.s 			page 20


 1079 00f8 4FF08043 		mov	r3, #1073741824
 1080 00fc 5D6A     		ldr	r5, [r3, #36]
 1081              	.LBE512:
 1082              	.LBE511:
 1083              	.LBE510:
 1084              	.LBE509:
 1085              	.LBB513:
 1086              	.LBB514:
 1087              		.loc 4 360 0
 1088 00fe FFF7FEFF 		bl	_dbg_check_unlock
 1089              	.LVL72:
 1090              		.loc 4 367 0
 1091 0102 2368     		ldr	r3, [r4]
 1092 0104 0E4A     		ldr	r2, .L33
 1093 0106 A342     		cmp	r3, r4
 1094 0108 04D0     		beq	.L29
 1095 010a 9269     		ldr	r2, [r2, #24]
 1096 010c 9B68     		ldr	r3, [r3, #8]
 1097 010e 9268     		ldr	r2, [r2, #8]
 1098 0110 9A42     		cmp	r2, r3
 1099 0112 11D3     		bcc	.L32
 1100              	.L29:
 1101              	.LVL73:
 1102              	.LBB515:
 1103              	.LBB516:
 1104              	.LBB517:
 1105              		.loc 3 546 0
 1106 0114 0023     		movs	r3, #0
 1107              	@ 546 "../../../os/ext/CMSIS/include/core_cmFunc.h" 1
 1108 0116 83F31188 		MSR basepri, r3
 1109              	@ 0 "" 2
 1110              		.thumb
 1111              	.LBE517:
 1112              	.LBE516:
 1113              	.LBE515:
 1114              	.LBE514:
 1115              	.LBE513:
 1116              	.LBE503:
 1117              	.LBE502:
 1118              		.loc 1 215 0
 1119 011a 05F59C54 		add	r4, r5, #4992
 1120 011e 0834     		adds	r4, r4, #8
 1121              	.LVL74:
 1122              		.loc 1 216 0
 1123 0120 2046     		mov	r0, r4
 1124 0122 FFF7FEFF 		bl	chThdSleepUntil
 1125              	.LVL75:
 1126              		.loc 1 217 0
 1127 0126 05F59C52 		add	r2, r5, #4992
 1128 012a 2146     		mov	r1, r4
 1129 012c 0B32     		adds	r2, r2, #11
 1130 012e 0420     		movs	r0, #4
 1131              	.LBE485:
 1132              	.LBE484:
 1133              		.loc 1 220 0
 1134 0130 BDE83840 		pop	{r3, r4, r5, lr}
 1135              		.cfi_remember_state
ARM GAS  C:\Users\jo\AppData\Local\Temp\cclg3ATN.s 			page 21


 1136              		.cfi_restore 14
 1137              		.cfi_restore 5
 1138              		.cfi_restore 4
 1139              		.cfi_restore 3
 1140              		.cfi_def_cfa_offset 0
 1141              	.LVL76:
 1142              	.LBB523:
 1143              	.LBB522:
 1144              		.loc 1 217 0
 1145 0134 FFF7FEBF 		b	_test_assert_time_window
 1146              	.LVL77:
 1147              	.L32:
 1148              		.cfi_restore_state
 1149              	.LBB521:
 1150              	.LBB520:
 1151              	.LBB519:
 1152              	.LBB518:
 1153              		.loc 4 367 0
 1154 0138 0248     		ldr	r0, .L33+4
 1155 013a FFF7FEFF 		bl	chSysHalt
 1156              	.LVL78:
 1157 013e E9E7     		b	.L29
 1158              	.L34:
 1159              		.align	2
 1160              	.L33:
 1161 0140 00000000 		.word	ch
 1162 0144 00000000 		.word	.LANCHOR0
 1163              	.LBE518:
 1164              	.LBE519:
 1165              	.LBE520:
 1166              	.LBE521:
 1167              	.LBE522:
 1168              	.LBE523:
 1169              		.cfi_endproc
 1170              	.LFE232:
 1171              		.size	thd4_execute, .-thd4_execute
 1172              		.global	patternthd
 1173              		.global	testthd4
 1174              		.global	testthd3
 1175              		.global	testthd2
 1176              		.global	testthd1
 1177 0148 AFF30080 		.section	.rodata.testthd1,"a",%progbits
 1177      AFF30080 
 1178              		.align	2
 1179              		.type	testthd1, %object
 1180              		.size	testthd1, 16
 1181              	testthd1:
 1182 0000 64000000 		.word	.LC9
 1183 0004 00000000 		.word	0
 1184 0008 00000000 		.word	0
 1185 000c 00000000 		.word	thd1_execute
 1186              		.section	.rodata.testthd2,"a",%progbits
 1187              		.align	2
 1188              		.type	testthd2, %object
 1189              		.size	testthd2, 16
 1190              	testthd2:
 1191 0000 48000000 		.word	.LC8
ARM GAS  C:\Users\jo\AppData\Local\Temp\cclg3ATN.s 			page 22


 1192 0004 00000000 		.word	0
 1193 0008 00000000 		.word	0
 1194 000c 00000000 		.word	thd2_execute
 1195              		.section	.rodata.testthd3,"a",%progbits
 1196              		.align	2
 1197              		.type	testthd3, %object
 1198              		.size	testthd3, 16
 1199              	testthd3:
 1200 0000 2C000000 		.word	.LC7
 1201 0004 00000000 		.word	0
 1202 0008 00000000 		.word	0
 1203 000c 00000000 		.word	thd3_execute
 1204              		.section	.rodata.testthd4,"a",%progbits
 1205              		.align	2
 1206              		.type	testthd4, %object
 1207              		.size	testthd4, 16
 1208              	testthd4:
 1209 0000 1C000000 		.word	.LC6
 1210 0004 00000000 		.word	0
 1211 0008 00000000 		.word	0
 1212 000c 00000000 		.word	thd4_execute
 1213              		.section	.rodata.patternthd,"a",%progbits
 1214              		.align	2
 1215              		.type	patternthd, %object
 1216              		.size	patternthd, 20
 1217              	patternthd:
 1218 0000 00000000 		.word	testthd1
 1219 0004 00000000 		.word	testthd2
 1220 0008 00000000 		.word	testthd3
 1221 000c 00000000 		.word	testthd4
 1222 0010 00000000 		.word	0
 1223              		.section	.rodata.str1.4,"aMS",%progbits,1
 1224              		.align	2
 1225              	.LC0:
 1226 0000 4500     		.ascii	"E\000"
 1227 0002 0000     		.space	2
 1228              	.LC1:
 1229 0004 4400     		.ascii	"D\000"
 1230 0006 0000     		.space	2
 1231              	.LC2:
 1232 0008 4300     		.ascii	"C\000"
 1233 000a 0000     		.space	2
 1234              	.LC3:
 1235 000c 4200     		.ascii	"B\000"
 1236 000e 0000     		.space	2
 1237              	.LC4:
 1238 0010 4100     		.ascii	"A\000"
 1239 0012 0000     		.space	2
 1240              	.LC5:
 1241 0014 41424344 		.ascii	"ABCDE\000"
 1241      4500
 1242 001a 0000     		.space	2
 1243              	.LC6:
 1244 001c 54687265 		.ascii	"Threads, delays\000"
 1244      6164732C 
 1244      2064656C 
 1244      61797300 
ARM GAS  C:\Users\jo\AppData\Local\Temp\cclg3ATN.s 			page 23


 1245              	.LC7:
 1246 002c 54687265 		.ascii	"Threads, priority change\000"
 1246      6164732C 
 1246      20707269 
 1246      6F726974 
 1246      79206368 
 1247 0045 000000   		.space	3
 1248              	.LC8:
 1249 0048 54687265 		.ascii	"Threads, enqueuing test #2\000"
 1249      6164732C 
 1249      20656E71 
 1249      75657569 
 1249      6E672074 
 1250 0063 00       		.space	1
 1251              	.LC9:
 1252 0064 54687265 		.ascii	"Threads, enqueuing test #1\000"
 1252      6164732C 
 1252      20656E71 
 1252      75657569 
 1252      6E672074 
 1253 007f 00       		.section	.rodata.__func__.5854,"a",%progbits
 1254              		.align	2
 1255              		.set	.LANCHOR0,. + 0
 1256              		.type	__func__.5854, %object
 1257              		.size	__func__.5854, 12
 1258              	__func__.5854:
 1259 0000 63685379 		.ascii	"chSysUnlock\000"
 1259      73556E6C 
 1259      6F636B00 
 1260              		.text
 1261              	.Letext0:
 1262              		.file 6 "c:\\program files\\gnu tools arm embedded\\4.9 2014q4\\lib\\gcc\\arm-none-eabi\\4.9.3\\in
 1263              		.file 7 "c:\\program files\\gnu tools arm embedded\\4.9 2014q4\\arm-none-eabi\\include\\machine\\_
 1264              		.file 8 "c:\\program files\\gnu tools arm embedded\\4.9 2014q4\\arm-none-eabi\\include\\stdint.h"
 1265              		.file 9 "../../../os/rt/ports/ARMCMx/compilers/GCC/chtypes.h"
 1266              		.file 10 "../../../os/rt/include/chsystypes.h"
 1267              		.file 11 "../../../os/rt/include/chschd.h"
 1268              		.file 12 "../../../os/rt/ports/ARMCMx/chcore.h"
 1269              		.file 13 "../../../os/rt/ports/ARMCMx/chcore_v7m.h"
 1270              		.file 14 "../../../os/hal/ports/STM32/LLD/TIMv1/stm32_tim.h"
 1271              		.file 15 "../../../os/rt/include/chdebug.h"
 1272              		.file 16 "../../../os/rt/include/chtm.h"
 1273              		.file 17 "../../../os/rt/include/chsem.h"
 1274              		.file 18 "../../../os/rt/include/chmtx.h"
 1275              		.file 19 "../../../test/rt/test.h"
 1276              		.file 20 "../../../os/rt/ports/ARMCMx/chcore_timer.h"
 1277              		.file 21 "../../../os/rt/include/chvt.h"
 1278              		.file 22 "../../../os/ext/CMSIS/include/core_cm4.h"