ARM GAS  C:\Users\jo\AppData\Local\Temp\ccoB6Q6j.s 			page 1


   1              		.syntax unified
   2              		.cpu cortex-m4
   3              		.fpu softvfp
   4              		.eabi_attribute 20, 1
   5              		.eabi_attribute 21, 1
   6              		.eabi_attribute 23, 3
   7              		.eabi_attribute 24, 1
   8              		.eabi_attribute 25, 1
   9              		.eabi_attribute 26, 1
  10              		.eabi_attribute 30, 2
  11              		.eabi_attribute 34, 1
  12              		.eabi_attribute 18, 4
  13              		.thumb
  14              		.file	"testmbox.c"
  15              		.text
  16              	.Ltext0:
  17              		.cfi_sections	.debug_frame
  18              		.section	.text.chSysUnlock,"ax",%progbits
  19              		.align	2
  20              		.p2align 4,,15
  21              		.thumb
  22              		.thumb_func
  23              		.type	chSysUnlock, %function
  24              	chSysUnlock:
  25              	.LFB157:
  26              		.file 1 "../../../os/rt/include/chsys.h"
  27              		.loc 1 358 0
  28              		.cfi_startproc
  29              		@ args = 0, pretend = 0, frame = 0
  30              		@ frame_needed = 0, uses_anonymous_args = 0
  31 0000 08B5     		push	{r3, lr}
  32              		.cfi_def_cfa_offset 8
  33              		.cfi_offset 3, -8
  34              		.cfi_offset 14, -4
  35              		.loc 1 360 0
  36 0002 FFF7FEFF 		bl	_dbg_check_unlock
  37              	.LVL0:
  38              		.loc 1 367 0
  39 0006 084B     		ldr	r3, .L5
  40 0008 1A68     		ldr	r2, [r3]
  41 000a 9A42     		cmp	r2, r3
  42 000c 07D0     		beq	.L2
  43              		.loc 1 367 0 is_stmt 0 discriminator 2
  44 000e 9969     		ldr	r1, [r3, #24]
  45 0010 9368     		ldr	r3, [r2, #8]
  46 0012 8A68     		ldr	r2, [r1, #8]
  47 0014 9A42     		cmp	r2, r3
  48 0016 02D2     		bcs	.L2
  49              		.loc 1 367 0 discriminator 3
  50 0018 0448     		ldr	r0, .L5+4
  51 001a FFF7FEFF 		bl	chSysHalt
  52              	.LVL1:
  53              	.L2:
  54              	.LBB175:
  55              	.LBB176:
  56              	.LBB177:
  57              		.file 2 "../../../os/ext/CMSIS/include/core_cmFunc.h"
ARM GAS  C:\Users\jo\AppData\Local\Temp\ccoB6Q6j.s 			page 2


  58              		.loc 2 546 0 is_stmt 1
  59 001e 0023     		movs	r3, #0
  60              	@ 546 "../../../os/ext/CMSIS/include/core_cmFunc.h" 1
  61 0020 83F31188 		MSR basepri, r3
  62              	@ 0 "" 2
  63              		.thumb
  64 0024 08BD     		pop	{r3, pc}
  65              	.L6:
  66 0026 00BF     		.align	2
  67              	.L5:
  68 0028 00000000 		.word	ch
  69 002c 00000000 		.word	.LANCHOR0
  70              	.LBE177:
  71              	.LBE176:
  72              	.LBE175:
  73              		.cfi_endproc
  74              	.LFE157:
  75              		.size	chSysUnlock, .-chSysUnlock
  76              		.section	.text.mbox1_setup,"ax",%progbits
  77              		.align	2
  78              		.p2align 4,,15
  79              		.thumb
  80              		.thumb_func
  81              		.type	mbox1_setup, %function
  82              	mbox1_setup:
  83              	.LFB228:
  84              		.file 3 "../../../test/rt/testmbox.c"
  85              		.loc 3 71 0
  86              		.cfi_startproc
  87              		@ args = 0, pretend = 0, frame = 0
  88              		@ frame_needed = 0, uses_anonymous_args = 0
  89              		@ link register save eliminated.
  90              		.loc 3 73 0
  91 0000 0248     		ldr	r0, .L8
  92 0002 0349     		ldr	r1, .L8+4
  93 0004 0522     		movs	r2, #5
  94 0006 FFF7FEBF 		b	chMBObjectInit
  95              	.LVL2:
  96              	.L9:
  97 000a 00BF     		.align	2
  98              	.L8:
  99 000c 00000000 		.word	.LANCHOR1
 100 0010 00000000 		.word	test
 101              		.cfi_endproc
 102              	.LFE228:
 103              		.size	mbox1_setup, .-mbox1_setup
 104 0014 AFF30080 		.section	.text.mbox1_execute,"ax",%progbits
 104      AFF30080 
 104      AFF30080 
 105              		.align	2
 106              		.p2align 4,,15
 107              		.thumb
 108              		.thumb_func
 109              		.type	mbox1_execute, %function
 110              	mbox1_execute:
 111              	.LFB229:
 112              		.loc 3 76 0
ARM GAS  C:\Users\jo\AppData\Local\Temp\ccoB6Q6j.s 			page 3


 113              		.cfi_startproc
 114              		@ args = 0, pretend = 0, frame = 8
 115              		@ frame_needed = 0, uses_anonymous_args = 0
 116              	.LVL3:
 117 0000 2DE9F041 		push	{r4, r5, r6, r7, r8, lr}
 118              		.cfi_def_cfa_offset 24
 119              		.cfi_offset 4, -24
 120              		.cfi_offset 5, -20
 121              		.cfi_offset 6, -16
 122              		.cfi_offset 7, -12
 123              		.cfi_offset 8, -8
 124              		.cfi_offset 14, -4
 125              	.LBB352:
 126              	.LBB353:
 127              	.LBB354:
 128              	.LBB355:
 129              	.LBB356:
 130              		.loc 2 546 0
 131 0004 2023     		movs	r3, #32
 132              	.LBE356:
 133              	.LBE355:
 134              	.LBE354:
 135              	.LBE353:
 136              	.LBE352:
 137              		.loc 3 76 0
 138 0006 82B0     		sub	sp, sp, #8
 139              		.cfi_def_cfa_offset 32
 140              	.LBB362:
 141              	.LBB360:
 142              	.LBB359:
 143              	.LBB358:
 144              	.LBB357:
 145              		.loc 2 546 0
 146              	@ 546 "../../../os/ext/CMSIS/include/core_cmFunc.h" 1
 147 0008 83F31188 		MSR basepri, r3
 148              	@ 0 "" 2
 149              		.thumb
 150              	.LBE357:
 151              	.LBE358:
 152              	.LBE359:
 153              	.LBE360:
 154              	.LBE362:
 155              	.LBB363:
 156              	.LBB364:
 157              	.LBB365:
 158              	.LBB366:
 159              		.file 4 "../../../os/rt/include/chsem.h"
 160              		.loc 4 153 0
 161 000c 114E     		ldr	r6, .L33
 162              	.LBE366:
 163              	.LBE365:
 164              	.LBE364:
 165              	.LBE363:
 166              	.LBB370:
 167              	.LBB361:
 168              		.loc 1 350 0
 169 000e FFF7FEFF 		bl	_dbg_check_lock
ARM GAS  C:\Users\jo\AppData\Local\Temp\ccoB6Q6j.s 			page 4


 170              	.LVL4:
 171              	.LBE361:
 172              	.LBE370:
 173              	.LBB371:
 174              	.LBB369:
 175              		.file 5 "../../../os/rt/include/chmboxes.h"
 176              		.loc 5 160 0
 177 0012 FFF7FEFF 		bl	chDbgCheckClassI
 178              	.LVL5:
 179              	.LBB368:
 180              	.LBB367:
 181              		.loc 4 151 0
 182 0016 FFF7FEFF 		bl	chDbgCheckClassI
 183              	.LVL6:
 184              	.LBE367:
 185              	.LBE368:
 186              	.LBE369:
 187              	.LBE371:
 188              		.loc 3 83 0
 189 001a 716A     		ldr	r1, [r6, #36]
 190 001c 0120     		movs	r0, #1
 191 001e A1F10501 		sub	r1, #5
 192 0022 B1FA81F1 		clz	r1, r1
 193 0026 4909     		lsrs	r1, r1, #5
 194 0028 FFF7FEFF 		bl	_test_assert
 195              	.LVL7:
 196 002c B0B1     		cbz	r0, .L11
 197              	.LBB372:
 198              	.LBB373:
 199              		.loc 1 360 0
 200 002e FFF7FEFF 		bl	_dbg_check_unlock
 201              	.LVL8:
 202              		.loc 1 367 0
 203 0032 094B     		ldr	r3, .L33+4
 204 0034 1A68     		ldr	r2, [r3]
 205 0036 9A42     		cmp	r2, r3
 206 0038 05D0     		beq	.L12
 207 003a 9969     		ldr	r1, [r3, #24]
 208 003c 9368     		ldr	r3, [r2, #8]
 209 003e 8A68     		ldr	r2, [r1, #8]
 210 0040 9A42     		cmp	r2, r3
 211 0042 C0F04083 		bcc	.L31
 212              	.L12:
 213              	.LVL9:
 214              	.LBB374:
 215              	.LBB375:
 216              	.LBB376:
 217              		.loc 2 546 0
 218 0046 0023     		movs	r3, #0
 219              	@ 546 "../../../os/ext/CMSIS/include/core_cmFunc.h" 1
 220 0048 83F31188 		MSR basepri, r3
 221              	@ 0 "" 2
 222              	.LVL10:
 223              		.thumb
 224              	.L10:
 225              	.LBE376:
 226              	.LBE375:
ARM GAS  C:\Users\jo\AppData\Local\Temp\ccoB6Q6j.s 			page 5


 227              	.LBE374:
 228              	.LBE373:
 229              	.LBE372:
 230              		.loc 3 220 0
 231 004c 02B0     		add	sp, sp, #8
 232              		.cfi_remember_state
 233              		.cfi_def_cfa_offset 24
 234              		@ sp needed
 235 004e BDE8F081 		pop	{r4, r5, r6, r7, r8, pc}
 236              	.L34:
 237 0052 00BF     		.align	2
 238              	.L33:
 239 0054 00000000 		.word	.LANCHOR1
 240 0058 00000000 		.word	ch
 241              	.LVL11:
 242              	.L11:
 243              		.cfi_restore_state
 244              	.LBB378:
 245              	.LBB379:
 246              		.loc 1 367 0
 247 005c CD4D     		ldr	r5, .L35
 248              		.loc 1 360 0
 249 005e FFF7FEFF 		bl	_dbg_check_unlock
 250              	.LVL12:
 251              		.loc 1 367 0
 252 0062 2B68     		ldr	r3, [r5]
 253 0064 AB42     		cmp	r3, r5
 254 0066 05D0     		beq	.L14
 255 0068 AA69     		ldr	r2, [r5, #24]
 256 006a 9B68     		ldr	r3, [r3, #8]
 257 006c 9268     		ldr	r2, [r2, #8]
 258 006e 9A42     		cmp	r2, r3
 259 0070 C0F02D83 		bcc	.L32
 260              	.L14:
 261              	.LVL13:
 262              	.LBB380:
 263              	.LBB381:
 264              	.LBB382:
 265              		.loc 2 546 0
 266 0074 0023     		movs	r3, #0
 267              	@ 546 "../../../os/ext/CMSIS/include/core_cmFunc.h" 1
 268 0076 83F31188 		MSR basepri, r3
 269              	@ 0 "" 2
 270              	.LVL14:
 271              		.thumb
 272 007a 4224     		movs	r4, #66
 273              	.LVL15:
 274              	.L16:
 275              	.LBE382:
 276              	.LBE381:
 277              	.LBE380:
 278              	.LBE379:
 279              	.LBE378:
 280              		.loc 3 89 0
 281 007c 2146     		mov	r1, r4
 282 007e 4FF0FF32 		mov	r2, #-1
 283 0082 C548     		ldr	r0, .L35+4
ARM GAS  C:\Users\jo\AppData\Local\Temp\ccoB6Q6j.s 			page 6


 284 0084 FFF7FEFF 		bl	chMBPost
 285              	.LVL16:
 286              		.loc 3 90 0
 287 0088 B0FA80F1 		clz	r1, r0
 288 008c 0220     		movs	r0, #2
 289              	.LVL17:
 290 008e 4909     		lsrs	r1, r1, #5
 291 0090 FFF7FEFF 		bl	_test_assert
 292              	.LVL18:
 293 0094 0134     		adds	r4, r4, #1
 294              	.LVL19:
 295 0096 0028     		cmp	r0, #0
 296 0098 D8D1     		bne	.L10
 297              		.loc 3 88 0 discriminator 2
 298 009a 462C     		cmp	r4, #70
 299 009c EED1     		bne	.L16
 300              		.loc 3 92 0
 301 009e 4121     		movs	r1, #65
 302 00a0 BD48     		ldr	r0, .L35+4
 303 00a2 4FF0FF32 		mov	r2, #-1
 304 00a6 FFF7FEFF 		bl	chMBPostAhead
 305              	.LVL20:
 306              		.loc 3 93 0
 307 00aa B0FA80F1 		clz	r1, r0
 308 00ae 0320     		movs	r0, #3
 309              	.LVL21:
 310 00b0 4909     		lsrs	r1, r1, #5
 311 00b2 FFF7FEFF 		bl	_test_assert
 312              	.LVL22:
 313 00b6 0028     		cmp	r0, #0
 314 00b8 C8D1     		bne	.L10
 315              		.loc 3 98 0
 316 00ba 5821     		movs	r1, #88
 317 00bc B648     		ldr	r0, .L35+4
 318 00be 0122     		movs	r2, #1
 319 00c0 FFF7FEFF 		bl	chMBPost
 320              	.LVL23:
 321              		.loc 3 99 0
 322 00c4 A0F1FF31 		sub	r1, r0, #-1
 323 00c8 0420     		movs	r0, #4
 324              	.LVL24:
 325 00ca B1FA81F1 		clz	r1, r1
 326              	.LVL25:
 327 00ce 4909     		lsrs	r1, r1, #5
 328 00d0 FFF7FEFF 		bl	_test_assert
 329              	.LVL26:
 330 00d4 0028     		cmp	r0, #0
 331 00d6 B9D1     		bne	.L10
 332              	.LVL27:
 333              	.LBB384:
 334              	.LBB385:
 335              	.LBB386:
 336              	.LBB387:
 337              	.LBB388:
 338              		.loc 2 546 0
 339 00d8 2023     		movs	r3, #32
 340              	@ 546 "../../../os/ext/CMSIS/include/core_cmFunc.h" 1
ARM GAS  C:\Users\jo\AppData\Local\Temp\ccoB6Q6j.s 			page 7


 341 00da 83F31188 		MSR basepri, r3
 342              	@ 0 "" 2
 343              		.thumb
 344              	.LBE388:
 345              	.LBE387:
 346              	.LBE386:
 347              		.loc 1 350 0
 348 00de FFF7FEFF 		bl	_dbg_check_lock
 349              	.LVL28:
 350              	.LBE385:
 351              	.LBE384:
 352              		.loc 3 101 0
 353 00e2 5821     		movs	r1, #88
 354 00e4 AC48     		ldr	r0, .L35+4
 355 00e6 FFF7FEFF 		bl	chMBPostI
 356              	.LVL29:
 357 00ea 0446     		mov	r4, r0
 358              	.LVL30:
 359              	.LBB389:
 360              	.LBB390:
 361              		.loc 1 360 0
 362 00ec FFF7FEFF 		bl	_dbg_check_unlock
 363              	.LVL31:
 364              		.loc 1 367 0
 365 00f0 2B68     		ldr	r3, [r5]
 366 00f2 A84A     		ldr	r2, .L35
 367 00f4 AB42     		cmp	r3, r5
 368 00f6 07D0     		beq	.L17
 369 00f8 9269     		ldr	r2, [r2, #24]
 370 00fa 9B68     		ldr	r3, [r3, #8]
 371 00fc 9268     		ldr	r2, [r2, #8]
 372 00fe 9A42     		cmp	r2, r3
 373 0100 02D2     		bcs	.L17
 374 0102 A648     		ldr	r0, .L35+8
 375 0104 FFF7FEFF 		bl	chSysHalt
 376              	.LVL32:
 377              	.L17:
 378              	.LBB391:
 379              	.LBB392:
 380              	.LBB393:
 381              		.loc 2 546 0
 382 0108 0023     		movs	r3, #0
 383              	@ 546 "../../../os/ext/CMSIS/include/core_cmFunc.h" 1
 384 010a 83F31188 		MSR basepri, r3
 385              	@ 0 "" 2
 386              		.thumb
 387              	.LBE393:
 388              	.LBE392:
 389              	.LBE391:
 390              	.LBE390:
 391              	.LBE389:
 392              		.loc 3 103 0
 393 010e 0520     		movs	r0, #5
 394 0110 A4F1FF31 		sub	r1, r4, #-1
 395 0114 B1FA81F1 		clz	r1, r1
 396 0118 4909     		lsrs	r1, r1, #5
 397 011a FFF7FEFF 		bl	_test_assert
ARM GAS  C:\Users\jo\AppData\Local\Temp\ccoB6Q6j.s 			page 8


 398              	.LVL33:
 399 011e 0028     		cmp	r0, #0
 400 0120 94D1     		bne	.L10
 401              		.loc 3 104 0
 402 0122 5821     		movs	r1, #88
 403 0124 9C48     		ldr	r0, .L35+4
 404 0126 0122     		movs	r2, #1
 405 0128 FFF7FEFF 		bl	chMBPostAhead
 406              	.LVL34:
 407              		.loc 3 105 0
 408 012c A0F1FF31 		sub	r1, r0, #-1
 409 0130 0620     		movs	r0, #6
 410              	.LVL35:
 411 0132 B1FA81F1 		clz	r1, r1
 412              	.LVL36:
 413 0136 4909     		lsrs	r1, r1, #5
 414 0138 FFF7FEFF 		bl	_test_assert
 415              	.LVL37:
 416 013c 0028     		cmp	r0, #0
 417 013e 85D1     		bne	.L10
 418              	.LVL38:
 419              	.LBB394:
 420              	.LBB395:
 421              	.LBB396:
 422              	.LBB397:
 423              	.LBB398:
 424              		.loc 2 546 0
 425 0140 2023     		movs	r3, #32
 426              	@ 546 "../../../os/ext/CMSIS/include/core_cmFunc.h" 1
 427 0142 83F31188 		MSR basepri, r3
 428              	@ 0 "" 2
 429              		.thumb
 430              	.LBE398:
 431              	.LBE397:
 432              	.LBE396:
 433              		.loc 1 350 0
 434 0146 FFF7FEFF 		bl	_dbg_check_lock
 435              	.LVL39:
 436              	.LBE395:
 437              	.LBE394:
 438              		.loc 3 107 0
 439 014a 5821     		movs	r1, #88
 440 014c 9248     		ldr	r0, .L35+4
 441 014e FFF7FEFF 		bl	chMBPostAheadI
 442              	.LVL40:
 443 0152 0446     		mov	r4, r0
 444              	.LVL41:
 445              	.LBB399:
 446              	.LBB400:
 447              		.loc 1 360 0
 448 0154 FFF7FEFF 		bl	_dbg_check_unlock
 449              	.LVL42:
 450              		.loc 1 367 0
 451 0158 2B68     		ldr	r3, [r5]
 452 015a 8E4A     		ldr	r2, .L35
 453 015c AB42     		cmp	r3, r5
 454 015e 07D0     		beq	.L18
ARM GAS  C:\Users\jo\AppData\Local\Temp\ccoB6Q6j.s 			page 9


 455 0160 9269     		ldr	r2, [r2, #24]
 456 0162 9B68     		ldr	r3, [r3, #8]
 457 0164 9268     		ldr	r2, [r2, #8]
 458 0166 9A42     		cmp	r2, r3
 459 0168 02D2     		bcs	.L18
 460 016a 8C48     		ldr	r0, .L35+8
 461 016c FFF7FEFF 		bl	chSysHalt
 462              	.LVL43:
 463              	.L18:
 464              	.LBB401:
 465              	.LBB402:
 466              	.LBB403:
 467              		.loc 2 546 0
 468 0170 0023     		movs	r3, #0
 469              	@ 546 "../../../os/ext/CMSIS/include/core_cmFunc.h" 1
 470 0172 83F31188 		MSR basepri, r3
 471              	@ 0 "" 2
 472              		.thumb
 473              	.LBE403:
 474              	.LBE402:
 475              	.LBE401:
 476              	.LBE400:
 477              	.LBE399:
 478              		.loc 3 109 0
 479 0176 0720     		movs	r0, #7
 480 0178 A4F1FF31 		sub	r1, r4, #-1
 481 017c B1FA81F1 		clz	r1, r1
 482 0180 4909     		lsrs	r1, r1, #5
 483 0182 FFF7FEFF 		bl	_test_assert
 484              	.LVL44:
 485 0186 0028     		cmp	r0, #0
 486 0188 7FF460AF 		bne	.L10
 487              	.LVL45:
 488              	.LBB404:
 489              	.LBB405:
 490              	.LBB406:
 491              	.LBB407:
 492              	.LBB408:
 493              		.loc 2 546 0
 494 018c 2025     		movs	r5, #32
 495              	@ 546 "../../../os/ext/CMSIS/include/core_cmFunc.h" 1
 496 018e 85F31188 		MSR basepri, r5
 497              	@ 0 "" 2
 498              		.thumb
 499              	.LBE408:
 500              	.LBE407:
 501              	.LBE406:
 502              		.loc 1 350 0
 503 0192 FFF7FEFF 		bl	_dbg_check_lock
 504              	.LVL46:
 505              	.LBE405:
 506              	.LBE404:
 507              	.LBB409:
 508              	.LBB410:
 509              		.loc 5 160 0
 510 0196 FFF7FEFF 		bl	chDbgCheckClassI
 511              	.LVL47:
ARM GAS  C:\Users\jo\AppData\Local\Temp\ccoB6Q6j.s 			page 10


 512              	.LBB411:
 513              	.LBB412:
 514              		.loc 4 151 0
 515 019a FFF7FEFF 		bl	chDbgCheckClassI
 516              	.LVL48:
 517              	.LBE412:
 518              	.LBE411:
 519              	.LBE410:
 520              	.LBE409:
 521              		.loc 3 114 0
 522 019e 716A     		ldr	r1, [r6, #36]
 523 01a0 B1FA81F1 		clz	r1, r1
 524 01a4 0820     		movs	r0, #8
 525 01a6 4909     		lsrs	r1, r1, #5
 526              	.LBB416:
 527              	.LBB415:
 528              	.LBB414:
 529              	.LBB413:
 530              		.loc 4 153 0
 531 01a8 7B4C     		ldr	r4, .L35+4
 532              	.LVL49:
 533              	.LBE413:
 534              	.LBE414:
 535              	.LBE415:
 536              	.LBE416:
 537              		.loc 3 114 0
 538 01aa FFF7FEFF 		bl	_test_assert
 539              	.LVL50:
 540 01ae 0028     		cmp	r0, #0
 541 01b0 40F08682 		bne	.L30
 542              		.loc 3 114 0 is_stmt 0 discriminator 2
 543 01b4 FFF7FEFF 		bl	chSysUnlock
 544              	.LVL51:
 545              	.LBB417:
 546              	.LBB418:
 547              	.LBB419:
 548              	.LBB420:
 549              	.LBB421:
 550              		.loc 2 546 0 is_stmt 1 discriminator 2
 551              	@ 546 "../../../os/ext/CMSIS/include/core_cmFunc.h" 1
 552 01b8 85F31188 		MSR basepri, r5
 553              	@ 0 "" 2
 554              		.thumb
 555              	.LBE421:
 556              	.LBE420:
 557              	.LBE419:
 558              		.loc 1 350 0 discriminator 2
 559 01bc FFF7FEFF 		bl	_dbg_check_lock
 560              	.LVL52:
 561              	.LBE418:
 562              	.LBE417:
 563              	.LBB422:
 564              	.LBB423:
 565              		.loc 5 179 0 discriminator 2
 566 01c0 FFF7FEFF 		bl	chDbgCheckClassI
 567              	.LVL53:
 568              	.LBB424:
ARM GAS  C:\Users\jo\AppData\Local\Temp\ccoB6Q6j.s 			page 11


 569              	.LBB425:
 570              		.loc 4 151 0 discriminator 2
 571 01c4 FFF7FEFF 		bl	chDbgCheckClassI
 572              	.LVL54:
 573              	.LBE425:
 574              	.LBE424:
 575              	.LBE423:
 576              	.LBE422:
 577              		.loc 3 115 0 discriminator 2
 578 01c8 A169     		ldr	r1, [r4, #24]
 579 01ca 4F1F     		subs	r7, r1, #5
 580 01cc 7942     		rsbs	r1, r7, #0
 581 01ce 7941     		adcs	r1, r1, r7
 582 01d0 0920     		movs	r0, #9
 583 01d2 FFF7FEFF 		bl	_test_assert
 584              	.LVL55:
 585 01d6 0028     		cmp	r0, #0
 586 01d8 40F07282 		bne	.L30
 587 01dc FFF7FEFF 		bl	chSysUnlock
 588              	.LVL56:
 589              	.LBB426:
 590              	.LBB427:
 591              	.LBB428:
 592              	.LBB429:
 593              	.LBB430:
 594              		.loc 2 546 0 discriminator 2
 595              	@ 546 "../../../os/ext/CMSIS/include/core_cmFunc.h" 1
 596 01e0 85F31188 		MSR basepri, r5
 597              	@ 0 "" 2
 598              		.thumb
 599              	.LBE430:
 600              	.LBE429:
 601              	.LBE428:
 602              		.loc 1 350 0 discriminator 2
 603 01e4 FFF7FEFF 		bl	_dbg_check_lock
 604              	.LVL57:
 605              	.LBE427:
 606              	.LBE426:
 607              		.loc 3 116 0 discriminator 2
 608 01e8 E168     		ldr	r1, [r4, #12]
 609 01ea A368     		ldr	r3, [r4, #8]
 610 01ec CA1A     		subs	r2, r1, r3
 611 01ee 5142     		rsbs	r1, r2, #0
 612 01f0 5141     		adcs	r1, r1, r2
 613 01f2 0A20     		movs	r0, #10
 614 01f4 FFF7FEFF 		bl	_test_assert
 615              	.LVL58:
 616 01f8 0028     		cmp	r0, #0
 617 01fa 40F06182 		bne	.L30
 618 01fe FFF7FEFF 		bl	chSysUnlock
 619              	.LVL59:
 620 0202 0525     		movs	r5, #5
 621              	.LVL60:
 622              	.L21:
 623              		.loc 3 122 0
 624 0204 644C     		ldr	r4, .L35+4
 625 0206 01A9     		add	r1, sp, #4
ARM GAS  C:\Users\jo\AppData\Local\Temp\ccoB6Q6j.s 			page 12


 626 0208 2046     		mov	r0, r4
 627 020a 4FF0FF32 		mov	r2, #-1
 628 020e FFF7FEFF 		bl	chMBFetch
 629              	.LVL61:
 630              		.loc 3 123 0
 631 0212 B0FA80F1 		clz	r1, r0
 632 0216 0B20     		movs	r0, #11
 633              	.LVL62:
 634 0218 4909     		lsrs	r1, r1, #5
 635 021a FFF7FEFF 		bl	_test_assert
 636              	.LVL63:
 637 021e 0028     		cmp	r0, #0
 638 0220 7FF414AF 		bne	.L10
 639              		.loc 3 124 0 discriminator 2
 640 0224 9DF80400 		ldrb	r0, [sp, #4]	@ zero_extendqisi2
 641 0228 FFF7FEFF 		bl	test_emit_token
 642              	.LVL64:
 643              		.loc 3 121 0 discriminator 2
 644 022c 013D     		subs	r5, r5, #1
 645              	.LVL65:
 646 022e E9D1     		bne	.L21
 647              		.loc 3 126 0
 648 0230 0C20     		movs	r0, #12
 649 0232 5B49     		ldr	r1, .L35+12
 650 0234 FFF7FEFF 		bl	_test_assert_sequence
 651              	.LVL66:
 652 0238 0028     		cmp	r0, #0
 653 023a 7FF407AF 		bne	.L10
 654              		.loc 3 131 0
 655 023e 4721     		movs	r1, #71
 656 0240 2046     		mov	r0, r4
 657 0242 4FF0FF32 		mov	r2, #-1
 658 0246 FFF7FEFF 		bl	chMBPost
 659              	.LVL67:
 660              		.loc 3 132 0
 661 024a B0FA80F1 		clz	r1, r0
 662 024e 0D20     		movs	r0, #13
 663              	.LVL68:
 664 0250 4909     		lsrs	r1, r1, #5
 665 0252 FFF7FEFF 		bl	_test_assert
 666              	.LVL69:
 667 0256 0028     		cmp	r0, #0
 668 0258 7FF4F8AE 		bne	.L10
 669              		.loc 3 133 0
 670 025c 01A9     		add	r1, sp, #4
 671 025e 2046     		mov	r0, r4
 672 0260 4FF0FF32 		mov	r2, #-1
 673 0264 FFF7FEFF 		bl	chMBFetch
 674              	.LVL70:
 675              		.loc 3 134 0
 676 0268 B0FA80F1 		clz	r1, r0
 677 026c 0E20     		movs	r0, #14
 678              	.LVL71:
 679 026e 4909     		lsrs	r1, r1, #5
 680 0270 FFF7FEFF 		bl	_test_assert
 681              	.LVL72:
 682 0274 0028     		cmp	r0, #0
ARM GAS  C:\Users\jo\AppData\Local\Temp\ccoB6Q6j.s 			page 13


 683 0276 7FF4E9AE 		bne	.L10
 684              		.loc 3 135 0
 685 027a 2168     		ldr	r1, [r4]
 686 027c A368     		ldr	r3, [r4, #8]
 687 027e CB1A     		subs	r3, r1, r3
 688 0280 5942     		rsbs	r1, r3, #0
 689 0282 5941     		adcs	r1, r1, r3
 690 0284 0F20     		movs	r0, #15
 691 0286 FFF7FEFF 		bl	_test_assert
 692              	.LVL73:
 693 028a 0028     		cmp	r0, #0
 694 028c 7FF4DEAE 		bne	.L10
 695              		.loc 3 136 0
 696 0290 2168     		ldr	r1, [r4]
 697 0292 E368     		ldr	r3, [r4, #12]
 698 0294 C3EB0108 		rsb	r8, r3, r1
 699 0298 D8F10001 		rsbs	r1, r8, #0
 700 029c 41EB0801 		adc	r1, r1, r8
 701 02a0 1020     		movs	r0, #16
 702 02a2 FFF7FEFF 		bl	_test_assert
 703              	.LVL74:
 704 02a6 0028     		cmp	r0, #0
 705 02a8 7FF4D0AE 		bne	.L10
 706              		.loc 3 141 0
 707 02ac 01A9     		add	r1, sp, #4
 708 02ae 2046     		mov	r0, r4
 709 02b0 0122     		movs	r2, #1
 710 02b2 FFF7FEFF 		bl	chMBFetch
 711              	.LVL75:
 712              		.loc 3 142 0
 713 02b6 00F1010C 		add	ip, r0, #1
 714 02ba DCF10001 		rsbs	r1, ip, #0
 715 02be 41EB0C01 		adc	r1, r1, ip
 716 02c2 1120     		movs	r0, #17
 717              	.LVL76:
 718 02c4 FFF7FEFF 		bl	_test_assert
 719              	.LVL77:
 720 02c8 0028     		cmp	r0, #0
 721 02ca 7FF4BFAE 		bne	.L10
 722              	.LVL78:
 723              	.LBB431:
 724              	.LBB432:
 725              	.LBB433:
 726              	.LBB434:
 727              	.LBB435:
 728              		.loc 2 546 0
 729 02ce 2025     		movs	r5, #32
 730              	.LVL79:
 731              	@ 546 "../../../os/ext/CMSIS/include/core_cmFunc.h" 1
 732 02d0 85F31188 		MSR basepri, r5
 733              	@ 0 "" 2
 734              		.thumb
 735              	.LBE435:
 736              	.LBE434:
 737              	.LBE433:
 738              		.loc 1 350 0
 739 02d4 FFF7FEFF 		bl	_dbg_check_lock
ARM GAS  C:\Users\jo\AppData\Local\Temp\ccoB6Q6j.s 			page 14


 740              	.LVL80:
 741              	.LBE432:
 742              	.LBE431:
 743              		.loc 3 144 0
 744 02d8 01A9     		add	r1, sp, #4
 745 02da 2046     		mov	r0, r4
 746 02dc FFF7FEFF 		bl	chMBFetchI
 747              	.LVL81:
 748 02e0 0746     		mov	r7, r0
 749              	.LVL82:
 750              		.loc 3 145 0
 751 02e2 FFF7FEFF 		bl	chSysUnlock
 752              	.LVL83:
 753              		.loc 3 146 0
 754 02e6 07F1010E 		add	lr, r7, #1
 755 02ea DEF10001 		rsbs	r1, lr, #0
 756 02ee 41EB0E01 		adc	r1, r1, lr
 757 02f2 1220     		movs	r0, #18
 758 02f4 FFF7FEFF 		bl	_test_assert
 759              	.LVL84:
 760 02f8 0028     		cmp	r0, #0
 761 02fa 7FF4A7AE 		bne	.L10
 762              	.LVL85:
 763              	.LBB436:
 764              	.LBB437:
 765              	.LBB438:
 766              	.LBB439:
 767              	.LBB440:
 768              		.loc 2 546 0
 769              	@ 546 "../../../os/ext/CMSIS/include/core_cmFunc.h" 1
 770 02fe 85F31188 		MSR basepri, r5
 771              	@ 0 "" 2
 772              		.thumb
 773              	.LBE440:
 774              	.LBE439:
 775              	.LBE438:
 776              		.loc 1 350 0
 777 0302 FFF7FEFF 		bl	_dbg_check_lock
 778              	.LVL86:
 779              	.LBE437:
 780              	.LBE436:
 781              	.LBB441:
 782              	.LBB442:
 783              		.loc 5 160 0
 784 0306 FFF7FEFF 		bl	chDbgCheckClassI
 785              	.LVL87:
 786              	.LBB443:
 787              	.LBB444:
 788              		.loc 4 151 0
 789 030a FFF7FEFF 		bl	chDbgCheckClassI
 790              	.LVL88:
 791              	.LBE444:
 792              	.LBE443:
 793              	.LBE442:
 794              	.LBE441:
 795              		.loc 3 151 0
 796 030e 616A     		ldr	r1, [r4, #36]
ARM GAS  C:\Users\jo\AppData\Local\Temp\ccoB6Q6j.s 			page 15


 797 0310 4F1F     		subs	r7, r1, #5
 798              	.LVL89:
 799 0312 7942     		rsbs	r1, r7, #0
 800 0314 7941     		adcs	r1, r1, r7
 801 0316 1320     		movs	r0, #19
 802 0318 FFF7FEFF 		bl	_test_assert
 803              	.LVL90:
 804 031c 0028     		cmp	r0, #0
 805 031e 40F0CF81 		bne	.L30
 806              		.loc 3 151 0 is_stmt 0 discriminator 2
 807 0322 FFF7FEFF 		bl	chSysUnlock
 808              	.LVL91:
 809              	.LBB445:
 810              	.LBB446:
 811              	.LBB447:
 812              	.LBB448:
 813              	.LBB449:
 814              		.loc 2 546 0 is_stmt 1 discriminator 2
 815              	@ 546 "../../../os/ext/CMSIS/include/core_cmFunc.h" 1
 816 0326 85F31188 		MSR basepri, r5
 817              	@ 0 "" 2
 818              		.thumb
 819              	.LBE449:
 820              	.LBE448:
 821              	.LBE447:
 822              		.loc 1 350 0 discriminator 2
 823 032a FFF7FEFF 		bl	_dbg_check_lock
 824              	.LVL92:
 825              	.LBE446:
 826              	.LBE445:
 827              	.LBB450:
 828              	.LBB451:
 829              		.loc 5 179 0 discriminator 2
 830 032e FFF7FEFF 		bl	chDbgCheckClassI
 831              	.LVL93:
 832              	.LBB452:
 833              	.LBB453:
 834              		.loc 4 151 0 discriminator 2
 835 0332 FFF7FEFF 		bl	chDbgCheckClassI
 836              	.LVL94:
 837              	.LBE453:
 838              	.LBE452:
 839              	.LBE451:
 840              	.LBE450:
 841              		.loc 3 152 0 discriminator 2
 842 0336 B169     		ldr	r1, [r6, #24]
 843 0338 B1FA81F1 		clz	r1, r1
 844 033c 1420     		movs	r0, #20
 845 033e 4909     		lsrs	r1, r1, #5
 846 0340 FFF7FEFF 		bl	_test_assert
 847              	.LVL95:
 848 0344 0028     		cmp	r0, #0
 849 0346 40F0BB81 		bne	.L30
 850 034a FFF7FEFF 		bl	chSysUnlock
 851              	.LVL96:
 852              	.LBB454:
 853              	.LBB455:
ARM GAS  C:\Users\jo\AppData\Local\Temp\ccoB6Q6j.s 			page 16


 854              	.LBB456:
 855              	.LBB457:
 856              	.LBB458:
 857              		.loc 2 546 0 discriminator 2
 858              	@ 546 "../../../os/ext/CMSIS/include/core_cmFunc.h" 1
 859 034e 85F31188 		MSR basepri, r5
 860              	@ 0 "" 2
 861              		.thumb
 862              	.LBE458:
 863              	.LBE457:
 864              	.LBE456:
 865              		.loc 1 350 0 discriminator 2
 866 0352 FFF7FEFF 		bl	_dbg_check_lock
 867              	.LVL97:
 868              	.LBE455:
 869              	.LBE454:
 870              		.loc 3 153 0 discriminator 2
 871 0356 E168     		ldr	r1, [r4, #12]
 872 0358 A368     		ldr	r3, [r4, #8]
 873 035a CE1A     		subs	r6, r1, r3
 874 035c 7142     		rsbs	r1, r6, #0
 875 035e 7141     		adcs	r1, r1, r6
 876 0360 1520     		movs	r0, #21
 877 0362 FFF7FEFF 		bl	_test_assert
 878              	.LVL98:
 879 0366 0028     		cmp	r0, #0
 880 0368 40F0AA81 		bne	.L30
 881 036c FFF7FEFF 		bl	chSysUnlock
 882              	.LVL99:
 883              	.LBB459:
 884              	.LBB460:
 885              	.LBB461:
 886              	.LBB462:
 887              	.LBB463:
 888              		.loc 2 546 0 discriminator 2
 889              	@ 546 "../../../os/ext/CMSIS/include/core_cmFunc.h" 1
 890 0370 85F31188 		MSR basepri, r5
 891              	@ 0 "" 2
 892              		.thumb
 893              	.LBE463:
 894              	.LBE462:
 895              	.LBE461:
 896              		.loc 1 350 0 discriminator 2
 897 0374 FFF7FEFF 		bl	_dbg_check_lock
 898              	.LVL100:
 899              	.LBE460:
 900              	.LBE459:
 901              		.loc 3 159 0 discriminator 2
 902 0378 4121     		movs	r1, #65
 903 037a 2046     		mov	r0, r4
 904 037c FFF7FEFF 		bl	chMBPostI
 905              	.LVL101:
 906              		.loc 3 160 0 discriminator 2
 907 0380 B0FA80F1 		clz	r1, r0
 908 0384 1620     		movs	r0, #22
 909              	.LVL102:
 910 0386 4909     		lsrs	r1, r1, #5
ARM GAS  C:\Users\jo\AppData\Local\Temp\ccoB6Q6j.s 			page 17


 911 0388 FFF7FEFF 		bl	_test_assert
 912              	.LVL103:
 913 038c 0028     		cmp	r0, #0
 914 038e 7FF45DAE 		bne	.L10
 915 0392 07E0     		b	.L36
 916              	.L37:
 917              		.align	2
 918              	.L35:
 919 0394 00000000 		.word	ch
 920 0398 00000000 		.word	.LANCHOR1
 921 039c 00000000 		.word	.LANCHOR0
 922 03a0 00000000 		.word	.LC0
 923              	.L36:
 924              		.loc 3 161 0
 925 03a4 4221     		movs	r1, #66
 926 03a6 2046     		mov	r0, r4
 927 03a8 FFF7FEFF 		bl	chMBPostI
 928              	.LVL104:
 929              		.loc 3 162 0
 930 03ac B0FA80F1 		clz	r1, r0
 931 03b0 1720     		movs	r0, #23
 932              	.LVL105:
 933 03b2 4909     		lsrs	r1, r1, #5
 934 03b4 FFF7FEFF 		bl	_test_assert
 935              	.LVL106:
 936 03b8 0028     		cmp	r0, #0
 937 03ba 7FF447AE 		bne	.L10
 938              		.loc 3 163 0
 939 03be 4321     		movs	r1, #67
 940 03c0 2046     		mov	r0, r4
 941 03c2 FFF7FEFF 		bl	chMBPostI
 942              	.LVL107:
 943              		.loc 3 164 0
 944 03c6 B0FA80F1 		clz	r1, r0
 945 03ca 1820     		movs	r0, #24
 946              	.LVL108:
 947 03cc 4909     		lsrs	r1, r1, #5
 948 03ce FFF7FEFF 		bl	_test_assert
 949              	.LVL109:
 950 03d2 0028     		cmp	r0, #0
 951 03d4 7FF43AAE 		bne	.L10
 952              		.loc 3 165 0
 953 03d8 4421     		movs	r1, #68
 954 03da 2046     		mov	r0, r4
 955 03dc FFF7FEFF 		bl	chMBPostI
 956              	.LVL110:
 957              		.loc 3 166 0
 958 03e0 B0FA80F1 		clz	r1, r0
 959 03e4 1920     		movs	r0, #25
 960              	.LVL111:
 961 03e6 4909     		lsrs	r1, r1, #5
 962 03e8 FFF7FEFF 		bl	_test_assert
 963              	.LVL112:
 964 03ec 0028     		cmp	r0, #0
 965 03ee 7FF42DAE 		bne	.L10
 966              		.loc 3 167 0
 967 03f2 4521     		movs	r1, #69
ARM GAS  C:\Users\jo\AppData\Local\Temp\ccoB6Q6j.s 			page 18


 968 03f4 2046     		mov	r0, r4
 969 03f6 FFF7FEFF 		bl	chMBPostI
 970              	.LVL113:
 971 03fa 0646     		mov	r6, r0
 972              	.LVL114:
 973              		.loc 3 168 0
 974 03fc FFF7FEFF 		bl	chSysUnlock
 975              	.LVL115:
 976              		.loc 3 169 0
 977 0400 B6FA86F1 		clz	r1, r6
 978 0404 1A20     		movs	r0, #26
 979 0406 4909     		lsrs	r1, r1, #5
 980 0408 FFF7FEFF 		bl	_test_assert
 981              	.LVL116:
 982 040c 0028     		cmp	r0, #0
 983 040e 7FF41DAE 		bne	.L10
 984              		.loc 3 170 0
 985 0412 E168     		ldr	r1, [r4, #12]
 986 0414 A368     		ldr	r3, [r4, #8]
 987 0416 CA1A     		subs	r2, r1, r3
 988 0418 5142     		rsbs	r1, r2, #0
 989 041a 5141     		adcs	r1, r1, r2
 990 041c 1B20     		movs	r0, #27
 991 041e FFF7FEFF 		bl	_test_assert
 992              	.LVL117:
 993 0422 0028     		cmp	r0, #0
 994 0424 7FF412AE 		bne	.L10
 995 0428 0527     		movs	r7, #5
 996              	.LVL118:
 997              	.L22:
 998              	.LBB464:
 999              	.LBB465:
 1000              	.LBB466:
 1001              	.LBB467:
 1002              	.LBB468:
 1003              		.loc 2 546 0
 1004 042a 2026     		movs	r6, #32
 1005              	@ 546 "../../../os/ext/CMSIS/include/core_cmFunc.h" 1
 1006 042c 85F31188 		MSR basepri, r5
 1007              	@ 0 "" 2
 1008              		.thumb
 1009              	.LBE468:
 1010              	.LBE467:
 1011              	.LBE466:
 1012              	.LBE465:
 1013              	.LBE464:
 1014              		.loc 3 173 0
 1015 0430 A94C     		ldr	r4, .L38
 1016              	.LBB470:
 1017              	.LBB469:
 1018              		.loc 1 350 0
 1019 0432 FFF7FEFF 		bl	_dbg_check_lock
 1020              	.LVL119:
 1021              	.LBE469:
 1022              	.LBE470:
 1023              		.loc 3 173 0
 1024 0436 01A9     		add	r1, sp, #4
ARM GAS  C:\Users\jo\AppData\Local\Temp\ccoB6Q6j.s 			page 19


 1025 0438 2046     		mov	r0, r4
 1026 043a FFF7FEFF 		bl	chMBFetchI
 1027              	.LVL120:
 1028 043e 8046     		mov	r8, r0
 1029              	.LVL121:
 1030              		.loc 3 174 0
 1031 0440 FFF7FEFF 		bl	chSysUnlock
 1032              	.LVL122:
 1033              		.loc 3 175 0
 1034 0444 B8FA88F1 		clz	r1, r8
 1035 0448 1C20     		movs	r0, #28
 1036 044a 4909     		lsrs	r1, r1, #5
 1037 044c FFF7FEFF 		bl	_test_assert
 1038              	.LVL123:
 1039 0450 0028     		cmp	r0, #0
 1040 0452 7FF4FBAD 		bne	.L10
 1041              		.loc 3 176 0 discriminator 2
 1042 0456 9DF80400 		ldrb	r0, [sp, #4]	@ zero_extendqisi2
 1043 045a FFF7FEFF 		bl	test_emit_token
 1044              	.LVL124:
 1045              		.loc 3 171 0 discriminator 2
 1046 045e 013F     		subs	r7, r7, #1
 1047              	.LVL125:
 1048 0460 E3D1     		bne	.L22
 1049              		.loc 3 178 0
 1050 0462 1D20     		movs	r0, #29
 1051 0464 9D49     		ldr	r1, .L38+4
 1052 0466 FFF7FEFF 		bl	_test_assert_sequence
 1053              	.LVL126:
 1054 046a 0028     		cmp	r0, #0
 1055 046c 7FF4EEAD 		bne	.L10
 1056              	.LVL127:
 1057              	.LBB471:
 1058              	.LBB472:
 1059              	.LBB473:
 1060              	.LBB474:
 1061              	.LBB475:
 1062              		.loc 2 546 0
 1063              	@ 546 "../../../os/ext/CMSIS/include/core_cmFunc.h" 1
 1064 0470 86F31188 		MSR basepri, r6
 1065              	@ 0 "" 2
 1066              		.thumb
 1067              	.LBE475:
 1068              	.LBE474:
 1069              	.LBE473:
 1070              		.loc 1 350 0
 1071 0474 FFF7FEFF 		bl	_dbg_check_lock
 1072              	.LVL128:
 1073              	.LBE472:
 1074              	.LBE471:
 1075              	.LBB476:
 1076              	.LBB477:
 1077              		.loc 5 160 0
 1078 0478 FFF7FEFF 		bl	chDbgCheckClassI
 1079              	.LVL129:
 1080              	.LBB478:
 1081              	.LBB479:
ARM GAS  C:\Users\jo\AppData\Local\Temp\ccoB6Q6j.s 			page 20


 1082              		.loc 4 151 0
 1083 047c FFF7FEFF 		bl	chDbgCheckClassI
 1084              	.LVL130:
 1085              	.LBE479:
 1086              	.LBE478:
 1087              	.LBE477:
 1088              	.LBE476:
 1089              		.loc 3 179 0
 1090 0480 616A     		ldr	r1, [r4, #36]
 1091 0482 4B1F     		subs	r3, r1, #5
 1092 0484 5942     		rsbs	r1, r3, #0
 1093 0486 5941     		adcs	r1, r1, r3
 1094 0488 1E20     		movs	r0, #30
 1095 048a FFF7FEFF 		bl	_test_assert
 1096              	.LVL131:
 1097 048e 0028     		cmp	r0, #0
 1098 0490 40F01681 		bne	.L30
 1099              		.loc 3 179 0 is_stmt 0 discriminator 2
 1100 0494 FFF7FEFF 		bl	chSysUnlock
 1101              	.LVL132:
 1102              	.LBB480:
 1103              	.LBB481:
 1104              	.LBB482:
 1105              	.LBB483:
 1106              	.LBB484:
 1107              		.loc 2 546 0 is_stmt 1 discriminator 2
 1108              	@ 546 "../../../os/ext/CMSIS/include/core_cmFunc.h" 1
 1109 0498 86F31188 		MSR basepri, r6
 1110              	@ 0 "" 2
 1111              		.thumb
 1112              	.LBE484:
 1113              	.LBE483:
 1114              	.LBE482:
 1115              		.loc 1 350 0 discriminator 2
 1116 049c FFF7FEFF 		bl	_dbg_check_lock
 1117              	.LVL133:
 1118              	.LBE481:
 1119              	.LBE480:
 1120              	.LBB485:
 1121              	.LBB486:
 1122              		.loc 5 179 0 discriminator 2
 1123 04a0 FFF7FEFF 		bl	chDbgCheckClassI
 1124              	.LVL134:
 1125              	.LBB487:
 1126              	.LBB488:
 1127              		.loc 4 151 0 discriminator 2
 1128 04a4 FFF7FEFF 		bl	chDbgCheckClassI
 1129              	.LVL135:
 1130              	.LBE488:
 1131              	.LBE487:
 1132              	.LBE486:
 1133              	.LBE485:
 1134              		.loc 3 180 0 discriminator 2
 1135 04a8 A169     		ldr	r1, [r4, #24]
 1136 04aa B1FA81F1 		clz	r1, r1
 1137 04ae 1F20     		movs	r0, #31
 1138 04b0 4909     		lsrs	r1, r1, #5
ARM GAS  C:\Users\jo\AppData\Local\Temp\ccoB6Q6j.s 			page 21


 1139 04b2 FFF7FEFF 		bl	_test_assert
 1140              	.LVL136:
 1141 04b6 0028     		cmp	r0, #0
 1142 04b8 40F00281 		bne	.L30
 1143 04bc FFF7FEFF 		bl	chSysUnlock
 1144              	.LVL137:
 1145              		.loc 3 181 0 discriminator 2
 1146 04c0 E168     		ldr	r1, [r4, #12]
 1147 04c2 A368     		ldr	r3, [r4, #8]
 1148 04c4 C3EB0108 		rsb	r8, r3, r1
 1149              	.LVL138:
 1150 04c8 D8F10001 		rsbs	r1, r8, #0
 1151 04cc 41EB0801 		adc	r1, r1, r8
 1152 04d0 3046     		mov	r0, r6
 1153 04d2 FFF7FEFF 		bl	_test_assert
 1154              	.LVL139:
 1155 04d6 0028     		cmp	r0, #0
 1156 04d8 7FF4B8AD 		bne	.L10
 1157              	.LVL140:
 1158              	.LBB489:
 1159              	.LBB490:
 1160              	.LBB491:
 1161              	.LBB492:
 1162              	.LBB493:
 1163              		.loc 2 546 0
 1164              	@ 546 "../../../os/ext/CMSIS/include/core_cmFunc.h" 1
 1165 04dc 86F31188 		MSR basepri, r6
 1166              	@ 0 "" 2
 1167              		.thumb
 1168              	.LBE493:
 1169              	.LBE492:
 1170              	.LBE491:
 1171              		.loc 1 350 0
 1172 04e0 FFF7FEFF 		bl	_dbg_check_lock
 1173              	.LVL141:
 1174              	.LBE490:
 1175              	.LBE489:
 1176              		.loc 3 184 0
 1177 04e4 4521     		movs	r1, #69
 1178 04e6 2046     		mov	r0, r4
 1179 04e8 FFF7FEFF 		bl	chMBPostAheadI
 1180              	.LVL142:
 1181              		.loc 3 185 0
 1182 04ec B0FA80F1 		clz	r1, r0
 1183 04f0 2120     		movs	r0, #33
 1184              	.LVL143:
 1185 04f2 4909     		lsrs	r1, r1, #5
 1186 04f4 FFF7FEFF 		bl	_test_assert
 1187              	.LVL144:
 1188 04f8 0028     		cmp	r0, #0
 1189 04fa 7FF4A7AD 		bne	.L10
 1190              		.loc 3 186 0
 1191 04fe 4421     		movs	r1, #68
 1192 0500 2046     		mov	r0, r4
 1193 0502 FFF7FEFF 		bl	chMBPostAheadI
 1194              	.LVL145:
 1195              		.loc 3 187 0
ARM GAS  C:\Users\jo\AppData\Local\Temp\ccoB6Q6j.s 			page 22


 1196 0506 B0FA80F1 		clz	r1, r0
 1197 050a 2220     		movs	r0, #34
 1198              	.LVL146:
 1199 050c 4909     		lsrs	r1, r1, #5
 1200 050e FFF7FEFF 		bl	_test_assert
 1201              	.LVL147:
 1202 0512 0028     		cmp	r0, #0
 1203 0514 7FF49AAD 		bne	.L10
 1204              		.loc 3 188 0
 1205 0518 4321     		movs	r1, #67
 1206 051a 2046     		mov	r0, r4
 1207 051c FFF7FEFF 		bl	chMBPostAheadI
 1208              	.LVL148:
 1209              		.loc 3 189 0
 1210 0520 B0FA80F1 		clz	r1, r0
 1211 0524 2320     		movs	r0, #35
 1212              	.LVL149:
 1213 0526 4909     		lsrs	r1, r1, #5
 1214 0528 FFF7FEFF 		bl	_test_assert
 1215              	.LVL150:
 1216 052c 0028     		cmp	r0, #0
 1217 052e 7FF48DAD 		bne	.L10
 1218              		.loc 3 190 0
 1219 0532 4221     		movs	r1, #66
 1220 0534 2046     		mov	r0, r4
 1221 0536 FFF7FEFF 		bl	chMBPostAheadI
 1222              	.LVL151:
 1223              		.loc 3 191 0
 1224 053a B0FA80F1 		clz	r1, r0
 1225 053e 2420     		movs	r0, #36
 1226              	.LVL152:
 1227 0540 4909     		lsrs	r1, r1, #5
 1228 0542 FFF7FEFF 		bl	_test_assert
 1229              	.LVL153:
 1230 0546 0028     		cmp	r0, #0
 1231 0548 7FF480AD 		bne	.L10
 1232              		.loc 3 192 0
 1233 054c 4121     		movs	r1, #65
 1234 054e 2046     		mov	r0, r4
 1235 0550 FFF7FEFF 		bl	chMBPostAheadI
 1236              	.LVL154:
 1237 0554 0546     		mov	r5, r0
 1238              	.LVL155:
 1239              		.loc 3 193 0
 1240 0556 FFF7FEFF 		bl	chSysUnlock
 1241              	.LVL156:
 1242              		.loc 3 194 0
 1243 055a B5FA85F1 		clz	r1, r5
 1244 055e 2520     		movs	r0, #37
 1245 0560 4909     		lsrs	r1, r1, #5
 1246 0562 FFF7FEFF 		bl	_test_assert
 1247              	.LVL157:
 1248 0566 0028     		cmp	r0, #0
 1249 0568 7FF470AD 		bne	.L10
 1250              		.loc 3 195 0
 1251 056c E168     		ldr	r1, [r4, #12]
 1252 056e A368     		ldr	r3, [r4, #8]
ARM GAS  C:\Users\jo\AppData\Local\Temp\ccoB6Q6j.s 			page 23


 1253 0570 C3EB010C 		rsb	ip, r3, r1
 1254 0574 DCF10001 		rsbs	r1, ip, #0
 1255 0578 41EB0C01 		adc	r1, r1, ip
 1256 057c 2620     		movs	r0, #38
 1257 057e FFF7FEFF 		bl	_test_assert
 1258              	.LVL158:
 1259 0582 0028     		cmp	r0, #0
 1260 0584 7FF462AD 		bne	.L10
 1261 0588 0526     		movs	r6, #5
 1262              	.LBB494:
 1263              	.LBB495:
 1264              	.LBB496:
 1265              	.LBB497:
 1266              	.LBB498:
 1267              		.loc 2 546 0
 1268 058a 2027     		movs	r7, #32
 1269              	.LVL159:
 1270              	.L23:
 1271 058c 2025     		movs	r5, #32
 1272              	@ 546 "../../../os/ext/CMSIS/include/core_cmFunc.h" 1
 1273 058e 87F31188 		MSR basepri, r7
 1274              	@ 0 "" 2
 1275              		.thumb
 1276              	.LBE498:
 1277              	.LBE497:
 1278              	.LBE496:
 1279              	.LBE495:
 1280              	.LBE494:
 1281              		.loc 3 198 0
 1282 0592 514C     		ldr	r4, .L38
 1283              	.LBB500:
 1284              	.LBB499:
 1285              		.loc 1 350 0
 1286 0594 FFF7FEFF 		bl	_dbg_check_lock
 1287              	.LVL160:
 1288              	.LBE499:
 1289              	.LBE500:
 1290              		.loc 3 198 0
 1291 0598 01A9     		add	r1, sp, #4
 1292 059a 2046     		mov	r0, r4
 1293 059c FFF7FEFF 		bl	chMBFetchI
 1294              	.LVL161:
 1295 05a0 8046     		mov	r8, r0
 1296              	.LVL162:
 1297              		.loc 3 199 0
 1298 05a2 FFF7FEFF 		bl	chSysUnlock
 1299              	.LVL163:
 1300              		.loc 3 200 0
 1301 05a6 B8FA88F1 		clz	r1, r8
 1302 05aa 2720     		movs	r0, #39
 1303 05ac 4909     		lsrs	r1, r1, #5
 1304 05ae FFF7FEFF 		bl	_test_assert
 1305              	.LVL164:
 1306 05b2 0028     		cmp	r0, #0
 1307 05b4 7FF44AAD 		bne	.L10
 1308              		.loc 3 201 0 discriminator 2
 1309 05b8 9DF80400 		ldrb	r0, [sp, #4]	@ zero_extendqisi2
ARM GAS  C:\Users\jo\AppData\Local\Temp\ccoB6Q6j.s 			page 24


 1310 05bc FFF7FEFF 		bl	test_emit_token
 1311              	.LVL165:
 1312              		.loc 3 196 0 discriminator 2
 1313 05c0 013E     		subs	r6, r6, #1
 1314              	.LVL166:
 1315 05c2 E3D1     		bne	.L23
 1316              		.loc 3 203 0
 1317 05c4 2820     		movs	r0, #40
 1318 05c6 4549     		ldr	r1, .L38+4
 1319 05c8 FFF7FEFF 		bl	_test_assert_sequence
 1320              	.LVL167:
 1321 05cc 0028     		cmp	r0, #0
 1322 05ce 7FF43DAD 		bne	.L10
 1323              	.LVL168:
 1324              	.LBB501:
 1325              	.LBB502:
 1326              	.LBB503:
 1327              	.LBB504:
 1328              	.LBB505:
 1329              		.loc 2 546 0
 1330              	@ 546 "../../../os/ext/CMSIS/include/core_cmFunc.h" 1
 1331 05d2 85F31188 		MSR basepri, r5
 1332              	@ 0 "" 2
 1333              		.thumb
 1334              	.LBE505:
 1335              	.LBE504:
 1336              	.LBE503:
 1337              		.loc 1 350 0
 1338 05d6 FFF7FEFF 		bl	_dbg_check_lock
 1339              	.LVL169:
 1340              	.LBE502:
 1341              	.LBE501:
 1342              	.LBB506:
 1343              	.LBB507:
 1344              		.loc 5 160 0
 1345 05da FFF7FEFF 		bl	chDbgCheckClassI
 1346              	.LVL170:
 1347              	.LBB508:
 1348              	.LBB509:
 1349              		.loc 4 151 0
 1350 05de FFF7FEFF 		bl	chDbgCheckClassI
 1351              	.LVL171:
 1352              	.LBE509:
 1353              	.LBE508:
 1354              	.LBE507:
 1355              	.LBE506:
 1356              		.loc 3 204 0
 1357 05e2 616A     		ldr	r1, [r4, #36]
 1358 05e4 A1F1050E 		sub	lr, r1, #5
 1359 05e8 DEF10001 		rsbs	r1, lr, #0
 1360 05ec 41EB0E01 		adc	r1, r1, lr
 1361 05f0 2920     		movs	r0, #41
 1362 05f2 FFF7FEFF 		bl	_test_assert
 1363              	.LVL172:
 1364 05f6 0028     		cmp	r0, #0
 1365 05f8 62D1     		bne	.L30
 1366              		.loc 3 204 0 is_stmt 0 discriminator 2
ARM GAS  C:\Users\jo\AppData\Local\Temp\ccoB6Q6j.s 			page 25


 1367 05fa FFF7FEFF 		bl	chSysUnlock
 1368              	.LVL173:
 1369              	.LBB510:
 1370              	.LBB511:
 1371              	.LBB512:
 1372              	.LBB513:
 1373              	.LBB514:
 1374              		.loc 2 546 0 is_stmt 1 discriminator 2
 1375              	@ 546 "../../../os/ext/CMSIS/include/core_cmFunc.h" 1
 1376 05fe 85F31188 		MSR basepri, r5
 1377              	@ 0 "" 2
 1378              		.thumb
 1379              	.LBE514:
 1380              	.LBE513:
 1381              	.LBE512:
 1382              		.loc 1 350 0 discriminator 2
 1383 0602 FFF7FEFF 		bl	_dbg_check_lock
 1384              	.LVL174:
 1385              	.LBE511:
 1386              	.LBE510:
 1387              	.LBB515:
 1388              	.LBB516:
 1389              		.loc 5 179 0 discriminator 2
 1390 0606 FFF7FEFF 		bl	chDbgCheckClassI
 1391              	.LVL175:
 1392              	.LBB517:
 1393              	.LBB518:
 1394              		.loc 4 151 0 discriminator 2
 1395 060a FFF7FEFF 		bl	chDbgCheckClassI
 1396              	.LVL176:
 1397              	.LBE518:
 1398              	.LBE517:
 1399              	.LBE516:
 1400              	.LBE515:
 1401              		.loc 3 205 0 discriminator 2
 1402 060e A169     		ldr	r1, [r4, #24]
 1403 0610 B1FA81F1 		clz	r1, r1
 1404 0614 2A20     		movs	r0, #42
 1405 0616 4909     		lsrs	r1, r1, #5
 1406 0618 FFF7FEFF 		bl	_test_assert
 1407              	.LVL177:
 1408 061c 0028     		cmp	r0, #0
 1409 061e 4FD1     		bne	.L30
 1410 0620 FFF7FEFF 		bl	chSysUnlock
 1411              	.LVL178:
 1412              		.loc 3 206 0 discriminator 2
 1413 0624 E168     		ldr	r1, [r4, #12]
 1414 0626 A368     		ldr	r3, [r4, #8]
 1415 0628 CF1A     		subs	r7, r1, r3
 1416 062a 7942     		rsbs	r1, r7, #0
 1417 062c 7941     		adcs	r1, r1, r7
 1418 062e 2B20     		movs	r0, #43
 1419 0630 FFF7FEFF 		bl	_test_assert
 1420              	.LVL179:
 1421 0634 0028     		cmp	r0, #0
 1422 0636 7FF409AD 		bne	.L10
 1423              		.loc 3 211 0
ARM GAS  C:\Users\jo\AppData\Local\Temp\ccoB6Q6j.s 			page 26


 1424 063a 2046     		mov	r0, r4
 1425 063c FFF7FEFF 		bl	chMBReset
 1426              	.LVL180:
 1427              	.LBB519:
 1428              	.LBB520:
 1429              	.LBB521:
 1430              	.LBB522:
 1431              	.LBB523:
 1432              		.loc 2 546 0
 1433              	@ 546 "../../../os/ext/CMSIS/include/core_cmFunc.h" 1
 1434 0640 85F31188 		MSR basepri, r5
 1435              	@ 0 "" 2
 1436              		.thumb
 1437              	.LBE523:
 1438              	.LBE522:
 1439              	.LBE521:
 1440              		.loc 1 350 0
 1441 0644 FFF7FEFF 		bl	_dbg_check_lock
 1442              	.LVL181:
 1443              	.LBE520:
 1444              	.LBE519:
 1445              	.LBB524:
 1446              	.LBB525:
 1447              		.loc 5 160 0
 1448 0648 FFF7FEFF 		bl	chDbgCheckClassI
 1449              	.LVL182:
 1450              	.LBB526:
 1451              	.LBB527:
 1452              		.loc 4 151 0
 1453 064c FFF7FEFF 		bl	chDbgCheckClassI
 1454              	.LVL183:
 1455              	.LBE527:
 1456              	.LBE526:
 1457              	.LBE525:
 1458              	.LBE524:
 1459              		.loc 3 216 0
 1460 0650 616A     		ldr	r1, [r4, #36]
 1461 0652 4E1F     		subs	r6, r1, #5
 1462              	.LVL184:
 1463 0654 7142     		rsbs	r1, r6, #0
 1464 0656 7141     		adcs	r1, r1, r6
 1465 0658 2C20     		movs	r0, #44
 1466 065a FFF7FEFF 		bl	_test_assert
 1467              	.LVL185:
 1468 065e 78BB     		cbnz	r0, .L30
 1469              		.loc 3 216 0 is_stmt 0 discriminator 2
 1470 0660 FFF7FEFF 		bl	chSysUnlock
 1471              	.LVL186:
 1472              	.LBB528:
 1473              	.LBB529:
 1474              	.LBB530:
 1475              	.LBB531:
 1476              	.LBB532:
 1477              		.loc 2 546 0 is_stmt 1 discriminator 2
 1478              	@ 546 "../../../os/ext/CMSIS/include/core_cmFunc.h" 1
 1479 0664 85F31188 		MSR basepri, r5
 1480              	@ 0 "" 2
ARM GAS  C:\Users\jo\AppData\Local\Temp\ccoB6Q6j.s 			page 27


 1481              		.thumb
 1482              	.LBE532:
 1483              	.LBE531:
 1484              	.LBE530:
 1485              		.loc 1 350 0 discriminator 2
 1486 0668 FFF7FEFF 		bl	_dbg_check_lock
 1487              	.LVL187:
 1488              	.LBE529:
 1489              	.LBE528:
 1490              	.LBB533:
 1491              	.LBB534:
 1492              		.loc 5 179 0 discriminator 2
 1493 066c FFF7FEFF 		bl	chDbgCheckClassI
 1494              	.LVL188:
 1495              	.LBB535:
 1496              	.LBB536:
 1497              		.loc 4 151 0 discriminator 2
 1498 0670 FFF7FEFF 		bl	chDbgCheckClassI
 1499              	.LVL189:
 1500              	.LBE536:
 1501              	.LBE535:
 1502              	.LBE534:
 1503              	.LBE533:
 1504              		.loc 3 217 0 discriminator 2
 1505 0674 A169     		ldr	r1, [r4, #24]
 1506 0676 B1FA81F1 		clz	r1, r1
 1507 067a 2D20     		movs	r0, #45
 1508 067c 4909     		lsrs	r1, r1, #5
 1509 067e FFF7FEFF 		bl	_test_assert
 1510              	.LVL190:
 1511 0682 E8B9     		cbnz	r0, .L30
 1512 0684 FFF7FEFF 		bl	chSysUnlock
 1513              	.LVL191:
 1514              	.LBB537:
 1515              	.LBB538:
 1516              	.LBB539:
 1517              	.LBB540:
 1518              	.LBB541:
 1519              		.loc 2 546 0 discriminator 2
 1520              	@ 546 "../../../os/ext/CMSIS/include/core_cmFunc.h" 1
 1521 0688 85F31188 		MSR basepri, r5
 1522              	@ 0 "" 2
 1523              		.thumb
 1524              	.LBE541:
 1525              	.LBE540:
 1526              	.LBE539:
 1527              		.loc 1 350 0 discriminator 2
 1528 068c FFF7FEFF 		bl	_dbg_check_lock
 1529              	.LVL192:
 1530              	.LBE538:
 1531              	.LBE537:
 1532              		.loc 3 218 0 discriminator 2
 1533 0690 2168     		ldr	r1, [r4]
 1534 0692 A368     		ldr	r3, [r4, #8]
 1535 0694 CA1A     		subs	r2, r1, r3
 1536 0696 5142     		rsbs	r1, r2, #0
 1537 0698 5141     		adcs	r1, r1, r2
ARM GAS  C:\Users\jo\AppData\Local\Temp\ccoB6Q6j.s 			page 28


 1538 069a 2E20     		movs	r0, #46
 1539 069c FFF7FEFF 		bl	_test_assert
 1540              	.LVL193:
 1541 06a0 70B9     		cbnz	r0, .L30
 1542 06a2 FFF7FEFF 		bl	chSysUnlock
 1543              	.LVL194:
 1544              	.LBB542:
 1545              	.LBB543:
 1546              	.LBB544:
 1547              	.LBB545:
 1548              	.LBB546:
 1549              		.loc 2 546 0 discriminator 2
 1550              	@ 546 "../../../os/ext/CMSIS/include/core_cmFunc.h" 1
 1551 06a6 85F31188 		MSR basepri, r5
 1552              	@ 0 "" 2
 1553              		.thumb
 1554              	.LBE546:
 1555              	.LBE545:
 1556              	.LBE544:
 1557              		.loc 1 350 0 discriminator 2
 1558 06aa FFF7FEFF 		bl	_dbg_check_lock
 1559              	.LVL195:
 1560              	.LBE543:
 1561              	.LBE542:
 1562              		.loc 3 219 0 discriminator 2
 1563 06ae 2168     		ldr	r1, [r4]
 1564 06b0 E368     		ldr	r3, [r4, #12]
 1565 06b2 CB1A     		subs	r3, r1, r3
 1566 06b4 5942     		rsbs	r1, r3, #0
 1567 06b6 4FF02F00 		mov	r0, #47
 1568 06ba 5941     		adcs	r1, r1, r3
 1569 06bc FFF7FEFF 		bl	_test_assert
 1570              	.LVL196:
 1571              	.L30:
 1572 06c0 FFF7FEFF 		bl	chSysUnlock
 1573              	.LVL197:
 1574 06c4 C2E4     		b	.L10
 1575              	.LVL198:
 1576              	.L31:
 1577              	.LBB547:
 1578              	.LBB377:
 1579              		.loc 1 367 0
 1580 06c6 0648     		ldr	r0, .L38+8
 1581 06c8 FFF7FEFF 		bl	chSysHalt
 1582              	.LVL199:
 1583 06cc BBE4     		b	.L12
 1584              	.L32:
 1585              	.LBE377:
 1586              	.LBE547:
 1587              	.LBB548:
 1588              	.LBB383:
 1589 06ce 0448     		ldr	r0, .L38+8
 1590 06d0 FFF7FEFF 		bl	chSysHalt
 1591              	.LVL200:
 1592 06d4 CEE4     		b	.L14
 1593              	.L39:
 1594 06d6 00BF     		.align	2
ARM GAS  C:\Users\jo\AppData\Local\Temp\ccoB6Q6j.s 			page 29


 1595              	.L38:
 1596 06d8 00000000 		.word	.LANCHOR1
 1597 06dc 00000000 		.word	.LC0
 1598 06e0 00000000 		.word	.LANCHOR0
 1599              	.LBE383:
 1600              	.LBE548:
 1601              		.cfi_endproc
 1602              	.LFE229:
 1603              		.size	mbox1_execute, .-mbox1_execute
 1604              		.global	patternmbox
 1605              		.global	testmbox1
 1606 06e4 AFF30080 		.section	.data.mb1,"aw",%progbits
 1606      AFF30080 
 1606      AFF30080 
 1607              		.align	2
 1608              		.set	.LANCHOR1,. + 0
 1609              		.type	mb1, %object
 1610              		.size	mb1, 40
 1611              	mb1:
 1612 0000 00000000 		.word	test
 1613 0004 14000000 		.word	test+20
 1614 0008 00000000 		.word	test
 1615 000c 00000000 		.word	test
 1616 0010 10000000 		.word	mb1+16
 1617 0014 10000000 		.word	mb1+16
 1618 0018 00000000 		.word	0
 1619 001c 1C000000 		.word	mb1+28
 1620 0020 1C000000 		.word	mb1+28
 1621 0024 05000000 		.word	5
 1622              		.section	.rodata.__func__.5854,"a",%progbits
 1623              		.align	2
 1624              		.set	.LANCHOR0,. + 0
 1625              		.type	__func__.5854, %object
 1626              		.size	__func__.5854, 12
 1627              	__func__.5854:
 1628 0000 63685379 		.ascii	"chSysUnlock\000"
 1628      73556E6C 
 1628      6F636B00 
 1629              		.section	.rodata.str1.4,"aMS",%progbits,1
 1630              		.align	2
 1631              	.LC0:
 1632 0000 41424344 		.ascii	"ABCDE\000"
 1632      4500
 1633 0006 0000     		.space	2
 1634              	.LC1:
 1635 0008 4D61696C 		.ascii	"Mailboxes, queuing and timeouts\000"
 1635      626F7865 
 1635      732C2071 
 1635      75657569 
 1635      6E672061 
 1636              		.section	.rodata.patternmbox,"a",%progbits
 1637              		.align	2
 1638              		.type	patternmbox, %object
 1639              		.size	patternmbox, 8
 1640              	patternmbox:
 1641 0000 00000000 		.word	testmbox1
 1642 0004 00000000 		.word	0
ARM GAS  C:\Users\jo\AppData\Local\Temp\ccoB6Q6j.s 			page 30


 1643              		.section	.rodata.testmbox1,"a",%progbits
 1644              		.align	2
 1645              		.type	testmbox1, %object
 1646              		.size	testmbox1, 16
 1647              	testmbox1:
 1648 0000 08000000 		.word	.LC1
 1649 0004 00000000 		.word	mbox1_setup
 1650 0008 00000000 		.word	0
 1651 000c 00000000 		.word	mbox1_execute
 1652              		.text
 1653              	.Letext0:
 1654              		.file 6 "c:\\program files\\gnu tools arm embedded\\4.9 2014q4\\lib\\gcc\\arm-none-eabi\\4.9.3\\in
 1655              		.file 7 "c:\\program files\\gnu tools arm embedded\\4.9 2014q4\\arm-none-eabi\\include\\machine\\_
 1656              		.file 8 "c:\\program files\\gnu tools arm embedded\\4.9 2014q4\\arm-none-eabi\\include\\stdint.h"
 1657              		.file 9 "../../../os/rt/ports/ARMCMx/compilers/GCC/chtypes.h"
 1658              		.file 10 "../../../os/rt/include/chsystypes.h"
 1659              		.file 11 "../../../os/rt/include/chschd.h"
 1660              		.file 12 "../../../os/rt/ports/ARMCMx/chcore.h"
 1661              		.file 13 "../../../os/rt/ports/ARMCMx/chcore_v7m.h"
 1662              		.file 14 "../../../os/rt/include/chdebug.h"
 1663              		.file 15 "../../../os/rt/include/chtm.h"
 1664              		.file 16 "../../../os/rt/include/chmtx.h"
 1665              		.file 17 "../../../test/rt/test.h"
 1666              		.file 18 "../../../os/ext/CMSIS/include/core_cm4.h"