ARM GAS  C:\Users\jo\AppData\Local\Temp\cc2fkiA0.s 			page 1


   1              		.syntax unified
   2              		.cpu cortex-m4
   3              		.fpu softvfp
   4              		.eabi_attribute 20, 1
   5              		.eabi_attribute 21, 1
   6              		.eabi_attribute 23, 3
   7              		.eabi_attribute 24, 1
   8              		.eabi_attribute 25, 1
   9              		.eabi_attribute 26, 1
  10              		.eabi_attribute 30, 2
  11              		.eabi_attribute 34, 1
  12              		.eabi_attribute 18, 4
  13              		.thumb
  14              		.file	"testmsg.c"
  15              		.text
  16              	.Ltext0:
  17              		.cfi_sections	.debug_frame
  18              		.section	.text.msg1_execute,"ax",%progbits
  19              		.align	2
  20              		.p2align 4,,15
  21              		.thumb
  22              		.thumb_func
  23              		.type	msg1_execute, %function
  24              	msg1_execute:
  25              	.LFB229:
  26              		.file 1 "../../../test/rt/testmsg.c"
  27              		.loc 1 66 0
  28              		.cfi_startproc
  29              		@ args = 0, pretend = 0, frame = 0
  30              		@ frame_needed = 0, uses_anonymous_args = 0
  31 0000 10B5     		push	{r4, lr}
  32              		.cfi_def_cfa_offset 8
  33              		.cfi_offset 4, -8
  34              		.cfi_offset 14, -4
  35              	.LBB16:
  36              	.LBB17:
  37              	.LBB18:
  38              	.LBB19:
  39              		.file 2 "../../../os/rt/include/chthreads.h"
  40              		.loc 2 176 0
  41 0002 184A     		ldr	r2, .L3
  42              	.LBE19:
  43              	.LBE18:
  44              	.LBE17:
  45              	.LBE16:
  46              		.loc 1 73 0
  47 0004 184B     		ldr	r3, .L3+4
  48              	.LBB23:
  49              	.LBB22:
  50              	.LBB21:
  51              	.LBB20:
  52              		.loc 2 176 0
  53 0006 9169     		ldr	r1, [r2, #24]
  54              	.LBE20:
  55              	.LBE21:
  56              	.LBE22:
  57              	.LBE23:
ARM GAS  C:\Users\jo\AppData\Local\Temp\cc2fkiA0.s 			page 2


  58              		.loc 1 73 0
  59 0008 1868     		ldr	r0, [r3]
  60 000a 8A68     		ldr	r2, [r1, #8]
  61 000c 174B     		ldr	r3, .L3+8
  62              		.loc 1 66 0
  63 000e 82B0     		sub	sp, sp, #8
  64              		.cfi_def_cfa_offset 16
  65              		.loc 1 73 0
  66 0010 0132     		adds	r2, r2, #1
  67 0012 0091     		str	r1, [sp]
  68 0014 4FF4A871 		mov	r1, #336
  69 0018 FFF7FEFF 		bl	chThdCreateStatic
  70              	.LVL0:
  71 001c 144B     		ldr	r3, .L3+12
  72 001e 1860     		str	r0, [r3]
  73              		.loc 1 75 0
  74 0020 FFF7FEFF 		bl	chMsgWait
  75              	.LVL1:
  76 0024 446B     		ldr	r4, [r0, #52]
  77              	.LVL2:
  78              		.loc 1 77 0
  79 0026 2146     		mov	r1, r4
  80 0028 FFF7FEFF 		bl	chMsgRelease
  81              	.LVL3:
  82              		.loc 1 78 0
  83 002c E0B2     		uxtb	r0, r4
  84 002e FFF7FEFF 		bl	test_emit_token
  85              	.LVL4:
  86              		.loc 1 79 0
  87 0032 FFF7FEFF 		bl	chMsgWait
  88              	.LVL5:
  89 0036 446B     		ldr	r4, [r0, #52]
  90              	.LVL6:
  91              		.loc 1 81 0
  92 0038 2146     		mov	r1, r4
  93 003a FFF7FEFF 		bl	chMsgRelease
  94              	.LVL7:
  95              		.loc 1 82 0
  96 003e E0B2     		uxtb	r0, r4
  97 0040 FFF7FEFF 		bl	test_emit_token
  98              	.LVL8:
  99              		.loc 1 83 0
 100 0044 FFF7FEFF 		bl	chMsgWait
 101              	.LVL9:
 102 0048 446B     		ldr	r4, [r0, #52]
 103              	.LVL10:
 104              		.loc 1 85 0
 105 004a 2146     		mov	r1, r4
 106 004c FFF7FEFF 		bl	chMsgRelease
 107              	.LVL11:
 108              		.loc 1 86 0
 109 0050 E0B2     		uxtb	r0, r4
 110 0052 FFF7FEFF 		bl	test_emit_token
 111              	.LVL12:
 112              		.loc 1 87 0
 113 0056 0749     		ldr	r1, .L3+16
 114 0058 0120     		movs	r0, #1
ARM GAS  C:\Users\jo\AppData\Local\Temp\cc2fkiA0.s 			page 3


 115              		.loc 1 88 0
 116 005a 02B0     		add	sp, sp, #8
 117              		.cfi_def_cfa_offset 8
 118              		@ sp needed
 119 005c BDE81040 		pop	{r4, lr}
 120              		.cfi_restore 14
 121              		.cfi_restore 4
 122              		.cfi_def_cfa_offset 0
 123              		.loc 1 87 0
 124 0060 FFF7FEBF 		b	_test_assert_sequence
 125              	.LVL13:
 126              	.L4:
 127              		.align	2
 128              	.L3:
 129 0064 00000000 		.word	ch
 130 0068 00000000 		.word	wa
 131 006c 00000000 		.word	thread
 132 0070 00000000 		.word	threads
 133 0074 00000000 		.word	.LC0
 134              		.cfi_endproc
 135              	.LFE229:
 136              		.size	msg1_execute, .-msg1_execute
 137 0078 AFF30080 		.section	.text.thread,"ax",%progbits
 137      AFF30080 
 138              		.align	2
 139              		.p2align 4,,15
 140              		.thumb
 141              		.thumb_func
 142              		.type	thread, %function
 143              	thread:
 144              	.LFB228:
 145              		.loc 1 59 0
 146              		.cfi_startproc
 147              		@ args = 0, pretend = 0, frame = 0
 148              		@ frame_needed = 0, uses_anonymous_args = 0
 149              	.LVL14:
 150 0000 10B5     		push	{r4, lr}
 151              		.cfi_def_cfa_offset 8
 152              		.cfi_offset 4, -8
 153              		.cfi_offset 14, -4
 154              		.loc 1 61 0
 155 0002 4121     		movs	r1, #65
 156              		.loc 1 59 0
 157 0004 0446     		mov	r4, r0
 158              		.loc 1 61 0
 159 0006 FFF7FEFF 		bl	chMsgSend
 160              	.LVL15:
 161              		.loc 1 62 0
 162 000a 2046     		mov	r0, r4
 163 000c 4221     		movs	r1, #66
 164 000e FFF7FEFF 		bl	chMsgSend
 165              	.LVL16:
 166              		.loc 1 63 0
 167 0012 2046     		mov	r0, r4
 168 0014 4321     		movs	r1, #67
 169              		.loc 1 64 0
 170 0016 BDE81040 		pop	{r4, lr}
ARM GAS  C:\Users\jo\AppData\Local\Temp\cc2fkiA0.s 			page 4


 171              		.cfi_restore 14
 172              		.cfi_restore 4
 173              		.cfi_def_cfa_offset 0
 174              	.LVL17:
 175              		.loc 1 63 0
 176 001a FFF7FEBF 		b	chMsgSend
 177              	.LVL18:
 178              		.cfi_endproc
 179              	.LFE228:
 180              		.size	thread, .-thread
 181              		.global	patternmsg
 182              		.global	testmsg1
 183 001e 00BF     		.section	.rodata.testmsg1,"a",%progbits
 184              		.align	2
 185              		.type	testmsg1, %object
 186              		.size	testmsg1, 16
 187              	testmsg1:
 188 0000 04000000 		.word	.LC1
 189 0004 00000000 		.word	0
 190 0008 00000000 		.word	0
 191 000c 00000000 		.word	msg1_execute
 192              		.section	.rodata.str1.4,"aMS",%progbits,1
 193              		.align	2
 194              	.LC0:
 195 0000 41424300 		.ascii	"ABC\000"
 196              	.LC1:
 197 0004 4D657373 		.ascii	"Messages, loop\000"
 197      61676573 
 197      2C206C6F 
 197      6F7000
 198 0013 00       		.section	.rodata.patternmsg,"a",%progbits
 199              		.align	2
 200              		.type	patternmsg, %object
 201              		.size	patternmsg, 8
 202              	patternmsg:
 203 0000 00000000 		.word	testmsg1
 204 0004 00000000 		.word	0
 205              		.text
 206              	.Letext0:
 207              		.file 3 "c:\\program files\\gnu tools arm embedded\\4.9 2014q4\\lib\\gcc\\arm-none-eabi\\4.9.3\\in
 208              		.file 4 "c:\\program files\\gnu tools arm embedded\\4.9 2014q4\\arm-none-eabi\\include\\machine\\_
 209              		.file 5 "c:\\program files\\gnu tools arm embedded\\4.9 2014q4\\arm-none-eabi\\include\\stdint.h"
 210              		.file 6 "../../../os/rt/ports/ARMCMx/compilers/GCC/chtypes.h"
 211              		.file 7 "../../../os/rt/include/chsystypes.h"
 212              		.file 8 "../../../os/rt/include/chschd.h"
 213              		.file 9 "../../../os/rt/ports/ARMCMx/chcore.h"
 214              		.file 10 "../../../os/rt/ports/ARMCMx/chcore_v7m.h"
 215              		.file 11 "../../../os/rt/include/chdebug.h"
 216              		.file 12 "../../../os/rt/include/chtm.h"
 217              		.file 13 "../../../os/rt/include/chsem.h"
 218              		.file 14 "../../../os/rt/include/chmtx.h"
 219              		.file 15 "../../../test/rt/test.h"
 220              		.file 16 "../../../os/ext/CMSIS/include/core_cm4.h"
 221              		.file 17 "../../../os/rt/include/chmsg.h"