ARM GAS  C:\Users\jo\AppData\Local\Temp\ccsPgMdz.s 			page 1


   1              		.syntax unified
   2              		.cpu cortex-m4
   3              		.fpu softvfp
   4              		.eabi_attribute 20, 1
   5              		.eabi_attribute 21, 1
   6              		.eabi_attribute 23, 3
   7              		.eabi_attribute 24, 1
   8              		.eabi_attribute 25, 1
   9              		.eabi_attribute 26, 1
  10              		.eabi_attribute 30, 2
  11              		.eabi_attribute 34, 1
  12              		.eabi_attribute 18, 4
  13              		.thumb
  14              		.file	"testmtx.c"
  15              		.text
  16              	.Ltext0:
  17              		.cfi_sections	.debug_frame
  18              		.section	.text.mtx1_execute,"ax",%progbits
  19              		.align	2
  20              		.p2align 4,,15
  21              		.thumb
  22              		.thumb_func
  23              		.type	mtx1_execute, %function
  24              	mtx1_execute:
  25              	.LFB230:
  26              		.file 1 "../../../test/rt/testmtx.c"
  27              		.loc 1 96 0
  28              		.cfi_startproc
  29              		@ args = 0, pretend = 0, frame = 0
  30              		@ frame_needed = 0, uses_anonymous_args = 0
  31 0000 F0B5     		push	{r4, r5, r6, r7, lr}
  32              		.cfi_def_cfa_offset 20
  33              		.cfi_offset 4, -20
  34              		.cfi_offset 5, -16
  35              		.cfi_offset 6, -12
  36              		.cfi_offset 7, -8
  37              		.cfi_offset 14, -4
  38              	.LBB123:
  39              	.LBB124:
  40              	.LBB125:
  41              	.LBB126:
  42              		.file 2 "../../../os/rt/include/chthreads.h"
  43              		.loc 2 176 0
  44 0002 2B4F     		ldr	r7, .L6
  45              	.LBE126:
  46              	.LBE125:
  47              	.LBE124:
  48              	.LBE123:
  49              		.loc 1 100 0
  50 0004 2B4E     		ldr	r6, .L6+4
  51              	.LBB129:
  52              	.LBB127:
  53              		.loc 2 189 0
  54 0006 BB69     		ldr	r3, [r7, #24]
  55              	.LBE127:
  56              	.LBE129:
  57              		.loc 1 99 0
ARM GAS  C:\Users\jo\AppData\Local\Temp\ccsPgMdz.s 			page 2


  58 0008 2B48     		ldr	r0, .L6+8
  59              	.LBB130:
  60              	.LBB128:
  61              		.loc 2 189 0
  62 000a 9C68     		ldr	r4, [r3, #8]
  63              	.LBE128:
  64              	.LBE130:
  65              		.loc 1 100 0
  66 000c 2B4D     		ldr	r5, .L6+12
  67              		.loc 1 96 0
  68 000e 83B0     		sub	sp, sp, #12
  69              		.cfi_def_cfa_offset 32
  70              		.loc 1 99 0
  71 0010 FFF7FEFF 		bl	chMtxLock
  72              	.LVL0:
  73              		.loc 1 100 0
  74 0014 2A4B     		ldr	r3, .L6+16
  75 0016 0093     		str	r3, [sp]
  76 0018 621C     		adds	r2, r4, #1
  77 001a 4FF4A871 		mov	r1, #336
  78 001e 294B     		ldr	r3, .L6+20
  79 0020 3068     		ldr	r0, [r6]
  80 0022 FFF7FEFF 		bl	chThdCreateStatic
  81              	.LVL1:
  82              		.loc 1 101 0
  83 0026 7168     		ldr	r1, [r6, #4]
  84 0028 274B     		ldr	r3, .L6+24
  85              		.loc 1 100 0
  86 002a 2860     		str	r0, [r5]
  87              		.loc 1 101 0
  88 002c A21C     		adds	r2, r4, #2
  89 002e 0846     		mov	r0, r1
  90 0030 0093     		str	r3, [sp]
  91 0032 4FF4A871 		mov	r1, #336
  92 0036 234B     		ldr	r3, .L6+20
  93 0038 FFF7FEFF 		bl	chThdCreateStatic
  94              	.LVL2:
  95              		.loc 1 102 0
  96 003c B168     		ldr	r1, [r6, #8]
  97 003e 234B     		ldr	r3, .L6+28
  98              		.loc 1 101 0
  99 0040 6860     		str	r0, [r5, #4]
 100              		.loc 1 102 0
 101 0042 E21C     		adds	r2, r4, #3
 102 0044 0846     		mov	r0, r1
 103 0046 0093     		str	r3, [sp]
 104 0048 4FF4A871 		mov	r1, #336
 105 004c 1D4B     		ldr	r3, .L6+20
 106 004e FFF7FEFF 		bl	chThdCreateStatic
 107              	.LVL3:
 108              		.loc 1 103 0
 109 0052 F168     		ldr	r1, [r6, #12]
 110 0054 1E4B     		ldr	r3, .L6+32
 111              		.loc 1 102 0
 112 0056 A860     		str	r0, [r5, #8]
 113              		.loc 1 103 0
 114 0058 221D     		adds	r2, r4, #4
ARM GAS  C:\Users\jo\AppData\Local\Temp\ccsPgMdz.s 			page 3


 115 005a 0846     		mov	r0, r1
 116 005c 0093     		str	r3, [sp]
 117 005e 4FF4A871 		mov	r1, #336
 118 0062 184B     		ldr	r3, .L6+20
 119 0064 FFF7FEFF 		bl	chThdCreateStatic
 120              	.LVL4:
 121              		.loc 1 104 0
 122 0068 3169     		ldr	r1, [r6, #16]
 123 006a 1A4B     		ldr	r3, .L6+36
 124              		.loc 1 103 0
 125 006c E860     		str	r0, [r5, #12]
 126              		.loc 1 104 0
 127 006e 621D     		adds	r2, r4, #5
 128 0070 0846     		mov	r0, r1
 129 0072 0093     		str	r3, [sp]
 130 0074 4FF4A871 		mov	r1, #336
 131 0078 124B     		ldr	r3, .L6+20
 132 007a FFF7FEFF 		bl	chThdCreateStatic
 133              	.LVL5:
 134 007e 2861     		str	r0, [r5, #16]
 135              		.loc 1 105 0
 136 0080 0D48     		ldr	r0, .L6+8
 137 0082 FFF7FEFF 		bl	chMtxUnlock
 138              	.LVL6:
 139              		.loc 1 106 0
 140 0086 FFF7FEFF 		bl	test_wait_threads
 141              	.LVL7:
 142              	.LBB131:
 143              	.LBB132:
 144              		.loc 2 189 0
 145 008a BB69     		ldr	r3, [r7, #24]
 146              	.LBE132:
 147              	.LBE131:
 148              		.loc 1 107 0
 149 008c 9968     		ldr	r1, [r3, #8]
 150 008e 0120     		movs	r0, #1
 151 0090 611A     		subs	r1, r4, r1
 152 0092 B1FA81F1 		clz	r1, r1
 153 0096 4909     		lsrs	r1, r1, #5
 154 0098 FFF7FEFF 		bl	_test_assert
 155              	.LVL8:
 156 009c 08B1     		cbz	r0, .L5
 157              		.loc 1 109 0
 158 009e 03B0     		add	sp, sp, #12
 159              		.cfi_remember_state
 160              		.cfi_def_cfa_offset 20
 161              		@ sp needed
 162 00a0 F0BD     		pop	{r4, r5, r6, r7, pc}
 163              	.L5:
 164              		.cfi_restore_state
 165              		.loc 1 108 0
 166 00a2 0D49     		ldr	r1, .L6+40
 167 00a4 0220     		movs	r0, #2
 168              		.loc 1 109 0
 169 00a6 03B0     		add	sp, sp, #12
 170              		.cfi_def_cfa_offset 20
 171              		@ sp needed
ARM GAS  C:\Users\jo\AppData\Local\Temp\ccsPgMdz.s 			page 4


 172 00a8 BDE8F040 		pop	{r4, r5, r6, r7, lr}
 173              		.cfi_restore 14
 174              		.cfi_restore 7
 175              		.cfi_restore 6
 176              		.cfi_restore 5
 177              		.cfi_restore 4
 178              		.cfi_def_cfa_offset 0
 179              		.loc 1 108 0
 180 00ac FFF7FEBF 		b	_test_assert_sequence
 181              	.LVL9:
 182              	.L7:
 183              		.align	2
 184              	.L6:
 185 00b0 00000000 		.word	ch
 186 00b4 00000000 		.word	wa
 187 00b8 00000000 		.word	.LANCHOR0
 188 00bc 00000000 		.word	threads
 189 00c0 00000000 		.word	.LC0
 190 00c4 00000000 		.word	thread1
 191 00c8 04000000 		.word	.LC1
 192 00cc 08000000 		.word	.LC2
 193 00d0 0C000000 		.word	.LC3
 194 00d4 10000000 		.word	.LC4
 195 00d8 14000000 		.word	.LC5
 196              		.cfi_endproc
 197              	.LFE230:
 198              		.size	mtx1_execute, .-mtx1_execute
 199 00dc AFF30080 		.section	.text.thread1,"ax",%progbits
 200              		.align	2
 201              		.p2align 4,,15
 202              		.thumb
 203              		.thumb_func
 204              		.type	thread1, %function
 205              	thread1:
 206              	.LFB229:
 207              		.loc 1 89 0
 208              		.cfi_startproc
 209              		@ args = 0, pretend = 0, frame = 0
 210              		@ frame_needed = 0, uses_anonymous_args = 0
 211              	.LVL10:
 212 0000 38B5     		push	{r3, r4, r5, lr}
 213              		.cfi_def_cfa_offset 16
 214              		.cfi_offset 3, -16
 215              		.cfi_offset 4, -12
 216              		.cfi_offset 5, -8
 217              		.cfi_offset 14, -4
 218              		.loc 1 91 0
 219 0002 064C     		ldr	r4, .L10
 220              		.loc 1 89 0
 221 0004 0546     		mov	r5, r0
 222              		.loc 1 91 0
 223 0006 2046     		mov	r0, r4
 224              	.LVL11:
 225 0008 FFF7FEFF 		bl	chMtxLock
 226              	.LVL12:
 227              		.loc 1 92 0
 228 000c 2878     		ldrb	r0, [r5]	@ zero_extendqisi2
ARM GAS  C:\Users\jo\AppData\Local\Temp\ccsPgMdz.s 			page 5


 229 000e FFF7FEFF 		bl	test_emit_token
 230              	.LVL13:
 231              		.loc 1 93 0
 232 0012 2046     		mov	r0, r4
 233              		.loc 1 94 0
 234 0014 BDE83840 		pop	{r3, r4, r5, lr}
 235              		.cfi_restore 14
 236              		.cfi_restore 5
 237              		.cfi_restore 4
 238              		.cfi_restore 3
 239              		.cfi_def_cfa_offset 0
 240              	.LVL14:
 241              		.loc 1 93 0
 242 0018 FFF7FEBF 		b	chMtxUnlock
 243              	.LVL15:
 244              	.L11:
 245              		.align	2
 246              	.L10:
 247 001c 00000000 		.word	.LANCHOR0
 248              		.cfi_endproc
 249              	.LFE229:
 250              		.size	thread1, .-thread1
 251              		.section	.text.thread12,"ax",%progbits
 252              		.align	2
 253              		.p2align 4,,15
 254              		.thumb
 255              		.thumb_func
 256              		.type	thread12, %function
 257              	thread12:
 258              	.LFB244:
 259              		.loc 1 576 0
 260              		.cfi_startproc
 261              		@ args = 0, pretend = 0, frame = 0
 262              		@ frame_needed = 0, uses_anonymous_args = 0
 263              	.LVL16:
 264 0000 38B5     		push	{r3, r4, r5, lr}
 265              		.cfi_def_cfa_offset 16
 266              		.cfi_offset 3, -16
 267              		.cfi_offset 4, -12
 268              		.cfi_offset 5, -8
 269              		.cfi_offset 14, -4
 270              		.loc 1 578 0
 271 0002 064C     		ldr	r4, .L14
 272              		.loc 1 576 0
 273 0004 0546     		mov	r5, r0
 274              		.loc 1 578 0
 275 0006 2046     		mov	r0, r4
 276              	.LVL17:
 277 0008 FFF7FEFF 		bl	chMtxLock
 278              	.LVL18:
 279              		.loc 1 579 0
 280 000c 2878     		ldrb	r0, [r5]	@ zero_extendqisi2
 281 000e FFF7FEFF 		bl	test_emit_token
 282              	.LVL19:
 283              		.loc 1 580 0
 284 0012 2046     		mov	r0, r4
 285              		.loc 1 581 0
ARM GAS  C:\Users\jo\AppData\Local\Temp\ccsPgMdz.s 			page 6


 286 0014 BDE83840 		pop	{r3, r4, r5, lr}
 287              		.cfi_restore 14
 288              		.cfi_restore 5
 289              		.cfi_restore 4
 290              		.cfi_restore 3
 291              		.cfi_def_cfa_offset 0
 292              	.LVL20:
 293              		.loc 1 580 0
 294 0018 FFF7FEBF 		b	chMtxUnlock
 295              	.LVL21:
 296              	.L15:
 297              		.align	2
 298              	.L14:
 299 001c 00000000 		.word	.LANCHOR1
 300              		.cfi_endproc
 301              	.LFE244:
 302              		.size	thread12, .-thread12
 303              		.section	.text.mtx1_setup,"ax",%progbits
 304              		.align	2
 305              		.p2align 4,,15
 306              		.thumb
 307              		.thumb_func
 308              		.type	mtx1_setup, %function
 309              	mtx1_setup:
 310              	.LFB228:
 311              		.loc 1 84 0
 312              		.cfi_startproc
 313              		@ args = 0, pretend = 0, frame = 0
 314              		@ frame_needed = 0, uses_anonymous_args = 0
 315              		@ link register save eliminated.
 316              		.loc 1 86 0
 317 0000 0148     		ldr	r0, .L17
 318 0002 FFF7FEBF 		b	chMtxObjectInit
 319              	.LVL22:
 320              	.L18:
 321 0006 00BF     		.align	2
 322              	.L17:
 323 0008 00000000 		.word	.LANCHOR0
 324              		.cfi_endproc
 325              	.LFE228:
 326              		.size	mtx1_setup, .-mtx1_setup
 327 000c AFF30080 		.section	.text.mtx4_setup,"ax",%progbits
 328              		.align	2
 329              		.p2align 4,,15
 330              		.thumb
 331              		.thumb_func
 332              		.type	mtx4_setup, %function
 333              	mtx4_setup:
 334              	.LFB231:
 335              		.loc 1 332 0
 336              		.cfi_startproc
 337              		@ args = 0, pretend = 0, frame = 0
 338              		@ frame_needed = 0, uses_anonymous_args = 0
 339 0000 08B5     		push	{r3, lr}
 340              		.cfi_def_cfa_offset 8
 341              		.cfi_offset 3, -8
 342              		.cfi_offset 14, -4
ARM GAS  C:\Users\jo\AppData\Local\Temp\ccsPgMdz.s 			page 7


 343              		.loc 1 334 0
 344 0002 0448     		ldr	r0, .L21
 345 0004 FFF7FEFF 		bl	chMtxObjectInit
 346              	.LVL23:
 347              		.loc 1 335 0
 348 0008 0348     		ldr	r0, .L21+4
 349              		.loc 1 336 0
 350 000a BDE80840 		pop	{r3, lr}
 351              		.cfi_restore 14
 352              		.cfi_restore 3
 353              		.cfi_def_cfa_offset 0
 354              		.loc 1 335 0
 355 000e FFF7FEBF 		b	chMtxObjectInit
 356              	.LVL24:
 357              	.L22:
 358 0012 00BF     		.align	2
 359              	.L21:
 360 0014 00000000 		.word	.LANCHOR0
 361 0018 00000000 		.word	.LANCHOR1
 362              		.cfi_endproc
 363              	.LFE231:
 364              		.size	mtx4_setup, .-mtx4_setup
 365 001c AFF30080 		.section	.text.mtx5_setup,"ax",%progbits
 366              		.align	2
 367              		.p2align 4,,15
 368              		.thumb
 369              		.thumb_func
 370              		.type	mtx5_setup, %function
 371              	mtx5_setup:
 372              	.LFB235:
 373              		.loc 1 418 0
 374              		.cfi_startproc
 375              		@ args = 0, pretend = 0, frame = 0
 376              		@ frame_needed = 0, uses_anonymous_args = 0
 377              		@ link register save eliminated.
 378              		.loc 1 420 0
 379 0000 0148     		ldr	r0, .L24
 380 0002 FFF7FEBF 		b	chMtxObjectInit
 381              	.LVL25:
 382              	.L25:
 383 0006 00BF     		.align	2
 384              	.L24:
 385 0008 00000000 		.word	.LANCHOR0
 386              		.cfi_endproc
 387              	.LFE235:
 388              		.size	mtx5_setup, .-mtx5_setup
 389 000c AFF30080 		.section	.text.thread4b,"ax",%progbits
 390              		.align	2
 391              		.p2align 4,,15
 392              		.thumb
 393              		.thumb_func
 394              		.type	thread4b, %function
 395              	thread4b:
 396              	.LFB233:
 397              		.loc 1 346 0
 398              		.cfi_startproc
 399              		@ args = 0, pretend = 0, frame = 0
ARM GAS  C:\Users\jo\AppData\Local\Temp\ccsPgMdz.s 			page 8


 400              		@ frame_needed = 0, uses_anonymous_args = 0
 401              	.LVL26:
 402 0000 10B5     		push	{r4, lr}
 403              		.cfi_def_cfa_offset 8
 404              		.cfi_offset 4, -8
 405              		.cfi_offset 14, -4
 406              		.loc 1 350 0
 407 0002 064C     		ldr	r4, .L28
 408              		.loc 1 349 0
 409 0004 41F64C50 		movw	r0, #7500
 410              	.LVL27:
 411 0008 FFF7FEFF 		bl	chThdSleep
 412              	.LVL28:
 413              		.loc 1 350 0
 414 000c 2046     		mov	r0, r4
 415 000e FFF7FEFF 		bl	chMtxLock
 416              	.LVL29:
 417              		.loc 1 351 0
 418 0012 2046     		mov	r0, r4
 419              		.loc 1 352 0
 420 0014 BDE81040 		pop	{r4, lr}
 421              		.cfi_restore 14
 422              		.cfi_restore 4
 423              		.cfi_def_cfa_offset 0
 424              		.loc 1 351 0
 425 0018 FFF7FEBF 		b	chMtxUnlock
 426              	.LVL30:
 427              	.L29:
 428              		.align	2
 429              	.L28:
 430 001c 00000000 		.word	.LANCHOR0
 431              		.cfi_endproc
 432              	.LFE233:
 433              		.size	thread4b, .-thread4b
 434              		.section	.text.thread4a,"ax",%progbits
 435              		.align	2
 436              		.p2align 4,,15
 437              		.thumb
 438              		.thumb_func
 439              		.type	thread4a, %function
 440              	thread4a:
 441              	.LFB232:
 442              		.loc 1 338 0
 443              		.cfi_startproc
 444              		@ args = 0, pretend = 0, frame = 0
 445              		@ frame_needed = 0, uses_anonymous_args = 0
 446              	.LVL31:
 447 0000 10B5     		push	{r4, lr}
 448              		.cfi_def_cfa_offset 8
 449              		.cfi_offset 4, -8
 450              		.cfi_offset 14, -4
 451              		.loc 1 342 0
 452 0002 064C     		ldr	r4, .L32
 453              		.loc 1 341 0
 454 0004 40F6C410 		movw	r0, #2500
 455              	.LVL32:
 456 0008 FFF7FEFF 		bl	chThdSleep
ARM GAS  C:\Users\jo\AppData\Local\Temp\ccsPgMdz.s 			page 9


 457              	.LVL33:
 458              		.loc 1 342 0
 459 000c 2046     		mov	r0, r4
 460 000e FFF7FEFF 		bl	chMtxLock
 461              	.LVL34:
 462              		.loc 1 343 0
 463 0012 2046     		mov	r0, r4
 464              		.loc 1 344 0
 465 0014 BDE81040 		pop	{r4, lr}
 466              		.cfi_restore 14
 467              		.cfi_restore 4
 468              		.cfi_def_cfa_offset 0
 469              		.loc 1 343 0
 470 0018 FFF7FEBF 		b	chMtxUnlock
 471              	.LVL35:
 472              	.L33:
 473              		.align	2
 474              	.L32:
 475 001c 00000000 		.word	.LANCHOR1
 476              		.cfi_endproc
 477              	.LFE232:
 478              		.size	thread4a, .-thread4a
 479              		.section	.text.mtx4_execute,"ax",%progbits
 480              		.align	2
 481              		.p2align 4,,15
 482              		.thumb
 483              		.thumb_func
 484              		.type	mtx4_execute, %function
 485              	mtx4_execute:
 486              	.LFB234:
 487              		.loc 1 354 0
 488              		.cfi_startproc
 489              		@ args = 0, pretend = 0, frame = 8
 490              		@ frame_needed = 0, uses_anonymous_args = 0
 491 0000 2DE9F046 		push	{r4, r5, r6, r7, r9, r10, lr}
 492              		.cfi_def_cfa_offset 28
 493              		.cfi_offset 4, -28
 494              		.cfi_offset 5, -24
 495              		.cfi_offset 6, -20
 496              		.cfi_offset 7, -16
 497              		.cfi_offset 9, -12
 498              		.cfi_offset 10, -8
 499              		.cfi_offset 14, -4
 500              	.LBB203:
 501              	.LBB204:
 502              	.LBB205:
 503              	.LBB206:
 504              		.loc 2 176 0
 505 0004 964D     		ldr	r5, .L41
 506              	.LBE206:
 507              	.LBE205:
 508              	.LBE204:
 509              	.LBE203:
 510              		.loc 1 360 0
 511 0006 974E     		ldr	r6, .L41+4
 512              	.LBB209:
 513              	.LBB207:
ARM GAS  C:\Users\jo\AppData\Local\Temp\ccsPgMdz.s 			page 10


 514              		.loc 2 189 0
 515 0008 AB69     		ldr	r3, [r5, #24]
 516              	.LBE207:
 517              	.LBE209:
 518              		.loc 1 360 0
 519 000a 3268     		ldr	r2, [r6]
 520              	.LBB210:
 521              	.LBB208:
 522              		.loc 2 189 0
 523 000c 9C68     		ldr	r4, [r3, #8]
 524              	.LBE208:
 525              	.LBE210:
 526              		.loc 1 360 0
 527 000e 964B     		ldr	r3, .L41+8
 528 0010 964F     		ldr	r7, .L41+12
 529              		.loc 1 354 0
 530 0012 85B0     		sub	sp, sp, #20
 531              		.cfi_def_cfa_offset 48
 532              		.loc 1 358 0
 533 0014 04F10109 		add	r9, r4, #1
 534              	.LVL36:
 535              		.loc 1 360 0
 536 0018 1046     		mov	r0, r2
 537 001a 0392     		str	r2, [sp, #12]
 538 001c 0093     		str	r3, [sp]
 539 001e 4A46     		mov	r2, r9
 540 0020 4FF4A871 		mov	r1, #336
 541 0024 924B     		ldr	r3, .L41+16
 542 0026 FFF7FEFF 		bl	chThdCreateStatic
 543              	.LVL37:
 544              		.loc 1 361 0
 545 002a 7668     		ldr	r6, [r6, #4]
 546 002c 914B     		ldr	r3, .L41+20
 547              		.loc 1 360 0
 548 002e 3860     		str	r0, [r7]
 549              		.loc 1 359 0
 550 0030 04F1020A 		add	r10, r4, #2
 551              	.LVL38:
 552              		.loc 1 361 0
 553 0034 4FF4A871 		mov	r1, #336
 554 0038 5246     		mov	r2, r10
 555 003a 0093     		str	r3, [sp]
 556 003c 3046     		mov	r0, r6
 557 003e 8E4B     		ldr	r3, .L41+24
 558 0040 FFF7FEFF 		bl	chThdCreateStatic
 559              	.LVL39:
 560 0044 7860     		str	r0, [r7, #4]
 561              		.loc 1 362 0
 562 0046 8D48     		ldr	r0, .L41+28
 563 0048 FFF7FEFF 		bl	chMtxLock
 564              	.LVL40:
 565              	.LBB211:
 566              	.LBB212:
 567              		.loc 2 189 0
 568 004c AB69     		ldr	r3, [r5, #24]
 569              	.LBE212:
 570              	.LBE211:
ARM GAS  C:\Users\jo\AppData\Local\Temp\ccsPgMdz.s 			page 11


 571              		.loc 1 363 0
 572 004e 9968     		ldr	r1, [r3, #8]
 573 0050 0120     		movs	r0, #1
 574 0052 611A     		subs	r1, r4, r1
 575 0054 B1FA81F1 		clz	r1, r1
 576 0058 4909     		lsrs	r1, r1, #5
 577 005a FFF7FEFF 		bl	_test_assert
 578              	.LVL41:
 579 005e 10B1     		cbz	r0, .L40
 580              	.L34:
 581              		.loc 1 399 0
 582 0060 05B0     		add	sp, sp, #20
 583              		.cfi_remember_state
 584              		.cfi_def_cfa_offset 28
 585              		@ sp needed
 586 0062 BDE8F086 		pop	{r4, r5, r6, r7, r9, r10, pc}
 587              	.LVL42:
 588              	.L40:
 589              		.cfi_restore_state
 590              		.loc 1 364 0
 591 0066 41F28830 		movw	r0, #5000
 592 006a FFF7FEFF 		bl	chThdSleep
 593              	.LVL43:
 594              	.LBB213:
 595              	.LBB214:
 596              		.loc 2 189 0
 597 006e AB69     		ldr	r3, [r5, #24]
 598              	.LBE214:
 599              	.LBE213:
 600              		.loc 1 365 0
 601 0070 9968     		ldr	r1, [r3, #8]
 602 0072 0220     		movs	r0, #2
 603 0074 C1EB0901 		rsb	r1, r1, r9
 604 0078 B1FA81F1 		clz	r1, r1
 605 007c 4909     		lsrs	r1, r1, #5
 606 007e FFF7FEFF 		bl	_test_assert
 607              	.LVL44:
 608 0082 0028     		cmp	r0, #0
 609 0084 ECD1     		bne	.L34
 610              		.loc 1 366 0
 611 0086 7E48     		ldr	r0, .L41+32
 612 0088 FFF7FEFF 		bl	chMtxLock
 613              	.LVL45:
 614              	.LBB215:
 615              	.LBB216:
 616              		.loc 2 189 0
 617 008c AB69     		ldr	r3, [r5, #24]
 618              	.LBE216:
 619              	.LBE215:
 620              		.loc 1 367 0
 621 008e 9968     		ldr	r1, [r3, #8]
 622 0090 0320     		movs	r0, #3
 623 0092 C1EB0901 		rsb	r1, r1, r9
 624 0096 B1FA81F1 		clz	r1, r1
 625 009a 4909     		lsrs	r1, r1, #5
 626 009c FFF7FEFF 		bl	_test_assert
 627              	.LVL46:
ARM GAS  C:\Users\jo\AppData\Local\Temp\ccsPgMdz.s 			page 12


 628 00a0 0028     		cmp	r0, #0
 629 00a2 DDD1     		bne	.L34
 630              		.loc 1 368 0
 631 00a4 41F28830 		movw	r0, #5000
 632 00a8 FFF7FEFF 		bl	chThdSleep
 633              	.LVL47:
 634              	.LBB217:
 635              	.LBB218:
 636              		.loc 2 189 0
 637 00ac AB69     		ldr	r3, [r5, #24]
 638              	.LBE218:
 639              	.LBE217:
 640              		.loc 1 369 0
 641 00ae 9968     		ldr	r1, [r3, #8]
 642 00b0 0420     		movs	r0, #4
 643 00b2 C1EB0A01 		rsb	r1, r1, r10
 644 00b6 B1FA81F1 		clz	r1, r1
 645 00ba 4909     		lsrs	r1, r1, #5
 646 00bc FFF7FEFF 		bl	_test_assert
 647              	.LVL48:
 648 00c0 0028     		cmp	r0, #0
 649 00c2 CDD1     		bne	.L34
 650              		.loc 1 370 0
 651 00c4 6E48     		ldr	r0, .L41+32
 652 00c6 FFF7FEFF 		bl	chMtxUnlock
 653              	.LVL49:
 654              	.LBB219:
 655              	.LBB220:
 656              		.loc 2 189 0
 657 00ca AB69     		ldr	r3, [r5, #24]
 658              	.LBE220:
 659              	.LBE219:
 660              		.loc 1 371 0
 661 00cc 9968     		ldr	r1, [r3, #8]
 662 00ce 0520     		movs	r0, #5
 663 00d0 C1EB0901 		rsb	r1, r1, r9
 664 00d4 B1FA81F1 		clz	r1, r1
 665 00d8 4909     		lsrs	r1, r1, #5
 666 00da FFF7FEFF 		bl	_test_assert
 667              	.LVL50:
 668 00de 0028     		cmp	r0, #0
 669 00e0 BED1     		bne	.L34
 670              		.loc 1 372 0
 671 00e2 41F28830 		movw	r0, #5000
 672 00e6 FFF7FEFF 		bl	chThdSleep
 673              	.LVL51:
 674              	.LBB221:
 675              	.LBB222:
 676              		.loc 2 189 0
 677 00ea AB69     		ldr	r3, [r5, #24]
 678              	.LBE222:
 679              	.LBE221:
 680              		.loc 1 373 0
 681 00ec 9968     		ldr	r1, [r3, #8]
 682 00ee 0620     		movs	r0, #6
 683 00f0 C1EB0901 		rsb	r1, r1, r9
 684 00f4 B1FA81F1 		clz	r1, r1
ARM GAS  C:\Users\jo\AppData\Local\Temp\ccsPgMdz.s 			page 13


 685 00f8 4909     		lsrs	r1, r1, #5
 686 00fa FFF7FEFF 		bl	_test_assert
 687              	.LVL52:
 688 00fe 0028     		cmp	r0, #0
 689 0100 AED1     		bne	.L34
 690              		.loc 1 374 0
 691 0102 FFF7FEFF 		bl	chMtxUnlockAll
 692              	.LVL53:
 693              	.LBB223:
 694              	.LBB224:
 695              		.loc 2 189 0
 696 0106 AB69     		ldr	r3, [r5, #24]
 697              	.LBE224:
 698              	.LBE223:
 699              		.loc 1 375 0
 700 0108 9968     		ldr	r1, [r3, #8]
 701 010a 0720     		movs	r0, #7
 702 010c 611A     		subs	r1, r4, r1
 703 010e B1FA81F1 		clz	r1, r1
 704 0112 4909     		lsrs	r1, r1, #5
 705 0114 FFF7FEFF 		bl	_test_assert
 706              	.LVL54:
 707 0118 0028     		cmp	r0, #0
 708 011a A1D1     		bne	.L34
 709              		.loc 1 376 0
 710 011c FFF7FEFF 		bl	test_wait_threads
 711              	.LVL55:
 712              		.loc 1 379 0
 713 0120 584B     		ldr	r3, .L41+36
 714 0122 0093     		str	r3, [sp]
 715 0124 4FF4A871 		mov	r1, #336
 716 0128 4A46     		mov	r2, r9
 717 012a 514B     		ldr	r3, .L41+16
 718 012c 0398     		ldr	r0, [sp, #12]
 719 012e FFF7FEFF 		bl	chThdCreateStatic
 720              	.LVL56:
 721              		.loc 1 380 0
 722 0132 554B     		ldr	r3, .L41+40
 723              		.loc 1 379 0
 724 0134 3860     		str	r0, [r7]
 725              		.loc 1 380 0
 726 0136 4FF4A871 		mov	r1, #336
 727 013a 0093     		str	r3, [sp]
 728 013c 5246     		mov	r2, r10
 729 013e 4E4B     		ldr	r3, .L41+24
 730 0140 3046     		mov	r0, r6
 731 0142 FFF7FEFF 		bl	chThdCreateStatic
 732              	.LVL57:
 733 0146 7860     		str	r0, [r7, #4]
 734              		.loc 1 381 0
 735 0148 4C48     		ldr	r0, .L41+28
 736 014a FFF7FEFF 		bl	chMtxLock
 737              	.LVL58:
 738              	.LBB225:
 739              	.LBB226:
 740              		.loc 2 189 0
 741 014e AB69     		ldr	r3, [r5, #24]
ARM GAS  C:\Users\jo\AppData\Local\Temp\ccsPgMdz.s 			page 14


 742              	.LBE226:
 743              	.LBE225:
 744              		.loc 1 382 0
 745 0150 9968     		ldr	r1, [r3, #8]
 746 0152 0820     		movs	r0, #8
 747 0154 611A     		subs	r1, r4, r1
 748 0156 B1FA81F1 		clz	r1, r1
 749 015a 4909     		lsrs	r1, r1, #5
 750 015c FFF7FEFF 		bl	_test_assert
 751              	.LVL59:
 752 0160 0028     		cmp	r0, #0
 753 0162 7FF47DAF 		bne	.L34
 754              		.loc 1 383 0
 755 0166 41F28830 		movw	r0, #5000
 756 016a FFF7FEFF 		bl	chThdSleep
 757              	.LVL60:
 758              	.LBB227:
 759              	.LBB228:
 760              		.loc 2 189 0
 761 016e AB69     		ldr	r3, [r5, #24]
 762              	.LBE228:
 763              	.LBE227:
 764              		.loc 1 384 0
 765 0170 9968     		ldr	r1, [r3, #8]
 766 0172 C1EB090C 		rsb	ip, r1, r9
 767 0176 DCF10001 		rsbs	r1, ip, #0
 768 017a 41EB0C01 		adc	r1, r1, ip
 769 017e 0920     		movs	r0, #9
 770 0180 FFF7FEFF 		bl	_test_assert
 771              	.LVL61:
 772 0184 0028     		cmp	r0, #0
 773 0186 7FF46BAF 		bne	.L34
 774              		.loc 1 385 0
 775 018a 3D48     		ldr	r0, .L41+32
 776 018c FFF7FEFF 		bl	chMtxLock
 777              	.LVL62:
 778              	.LBB229:
 779              	.LBB230:
 780              		.loc 2 189 0
 781 0190 AB69     		ldr	r3, [r5, #24]
 782              	.LBE230:
 783              	.LBE229:
 784              		.loc 1 386 0
 785 0192 9968     		ldr	r1, [r3, #8]
 786 0194 C1EB090E 		rsb	lr, r1, r9
 787 0198 DEF10001 		rsbs	r1, lr, #0
 788 019c 41EB0E01 		adc	r1, r1, lr
 789 01a0 0A20     		movs	r0, #10
 790 01a2 FFF7FEFF 		bl	_test_assert
 791              	.LVL63:
 792 01a6 0028     		cmp	r0, #0
 793 01a8 7FF45AAF 		bne	.L34
 794              		.loc 1 387 0
 795 01ac 41F28830 		movw	r0, #5000
 796 01b0 FFF7FEFF 		bl	chThdSleep
 797              	.LVL64:
 798              	.LBB231:
ARM GAS  C:\Users\jo\AppData\Local\Temp\ccsPgMdz.s 			page 15


 799              	.LBB232:
 800              		.loc 2 189 0
 801 01b4 AB69     		ldr	r3, [r5, #24]
 802              	.LBE232:
 803              	.LBE231:
 804              		.loc 1 388 0
 805 01b6 9968     		ldr	r1, [r3, #8]
 806 01b8 C1EB0A07 		rsb	r7, r1, r10
 807 01bc 7942     		rsbs	r1, r7, #0
 808 01be 7941     		adcs	r1, r1, r7
 809 01c0 0B20     		movs	r0, #11
 810 01c2 FFF7FEFF 		bl	_test_assert
 811              	.LVL65:
 812 01c6 0028     		cmp	r0, #0
 813 01c8 7FF44AAF 		bne	.L34
 814              	.LVL66:
 815              	.LBB233:
 816              	.LBB234:
 817              	.LBB235:
 818              	.LBB236:
 819              	.LBB237:
 820              		.file 3 "../../../os/ext/CMSIS/include/core_cmFunc.h"
 821              		.loc 3 546 0
 822 01cc 2023     		movs	r3, #32
 823              	@ 546 "../../../os/ext/CMSIS/include/core_cmFunc.h" 1
 824 01ce 83F31188 		MSR basepri, r3
 825              	@ 0 "" 2
 826              		.thumb
 827              	.LBE237:
 828              	.LBE236:
 829              	.LBE235:
 830              		.file 4 "../../../os/rt/include/chsys.h"
 831              		.loc 4 350 0
 832 01d2 FFF7FEFF 		bl	_dbg_check_lock
 833              	.LVL67:
 834              	.LBE234:
 835              	.LBE233:
 836              		.loc 1 390 0
 837 01d6 2A48     		ldr	r0, .L41+32
 838 01d8 FFF7FEFF 		bl	chMtxUnlockS
 839              	.LVL68:
 840              		.loc 1 391 0
 841 01dc FFF7FEFF 		bl	chSchRescheduleS
 842              	.LVL69:
 843              	.LBB238:
 844              	.LBB239:
 845              		.loc 4 360 0
 846 01e0 FFF7FEFF 		bl	_dbg_check_unlock
 847              	.LVL70:
 848              		.loc 4 367 0
 849 01e4 2B68     		ldr	r3, [r5]
 850 01e6 AB42     		cmp	r3, r5
 851 01e8 07D0     		beq	.L38
 852 01ea AA69     		ldr	r2, [r5, #24]
 853 01ec 9B68     		ldr	r3, [r3, #8]
 854 01ee 9268     		ldr	r2, [r2, #8]
 855 01f0 9A42     		cmp	r2, r3
ARM GAS  C:\Users\jo\AppData\Local\Temp\ccsPgMdz.s 			page 16


 856 01f2 02D2     		bcs	.L38
 857 01f4 2548     		ldr	r0, .L41+44
 858 01f6 FFF7FEFF 		bl	chSysHalt
 859              	.LVL71:
 860              	.L38:
 861              	.LBB240:
 862              	.LBB241:
 863              	.LBB242:
 864              		.loc 3 546 0
 865 01fa 0023     		movs	r3, #0
 866              	@ 546 "../../../os/ext/CMSIS/include/core_cmFunc.h" 1
 867 01fc 83F31188 		MSR basepri, r3
 868              	@ 0 "" 2
 869              		.thumb
 870              	.LBE242:
 871              	.LBE241:
 872              	.LBE240:
 873              	.LBE239:
 874              	.LBE238:
 875              	.LBB243:
 876              	.LBB244:
 877              		.loc 2 189 0
 878 0200 AB69     		ldr	r3, [r5, #24]
 879              	.LBB245:
 880              	.LBB246:
 881              		.loc 2 176 0
 882 0202 174D     		ldr	r5, .L41
 883              	.LBE246:
 884              	.LBE245:
 885              	.LBE244:
 886              	.LBE243:
 887              		.loc 1 393 0
 888 0204 9968     		ldr	r1, [r3, #8]
 889 0206 C1EB0906 		rsb	r6, r1, r9
 890 020a 7142     		rsbs	r1, r6, #0
 891 020c 7141     		adcs	r1, r1, r6
 892 020e 0C20     		movs	r0, #12
 893 0210 FFF7FEFF 		bl	_test_assert
 894              	.LVL72:
 895 0214 0028     		cmp	r0, #0
 896 0216 7FF423AF 		bne	.L34
 897              		.loc 1 394 0
 898 021a 41F28830 		movw	r0, #5000
 899 021e FFF7FEFF 		bl	chThdSleep
 900              	.LVL73:
 901              	.LBB247:
 902              	.LBB248:
 903              		.loc 2 189 0
 904 0222 AB69     		ldr	r3, [r5, #24]
 905              	.LBE248:
 906              	.LBE247:
 907              		.loc 1 395 0
 908 0224 9968     		ldr	r1, [r3, #8]
 909 0226 C1EB0902 		rsb	r2, r1, r9
 910 022a 5142     		rsbs	r1, r2, #0
 911 022c 5141     		adcs	r1, r1, r2
 912 022e 0D20     		movs	r0, #13
ARM GAS  C:\Users\jo\AppData\Local\Temp\ccsPgMdz.s 			page 17


 913 0230 FFF7FEFF 		bl	_test_assert
 914              	.LVL74:
 915 0234 0028     		cmp	r0, #0
 916 0236 7FF413AF 		bne	.L34
 917              		.loc 1 396 0
 918 023a FFF7FEFF 		bl	chMtxUnlockAll
 919              	.LVL75:
 920              	.LBB249:
 921              	.LBB250:
 922              		.loc 2 189 0
 923 023e AB69     		ldr	r3, [r5, #24]
 924              	.LBE250:
 925              	.LBE249:
 926              		.loc 1 397 0
 927 0240 9968     		ldr	r1, [r3, #8]
 928 0242 631A     		subs	r3, r4, r1
 929 0244 5942     		rsbs	r1, r3, #0
 930 0246 5941     		adcs	r1, r1, r3
 931 0248 0E20     		movs	r0, #14
 932 024a FFF7FEFF 		bl	_test_assert
 933              	.LVL76:
 934 024e 0028     		cmp	r0, #0
 935 0250 7FF406AF 		bne	.L34
 936              		.loc 1 399 0
 937 0254 05B0     		add	sp, sp, #20
 938              		.cfi_def_cfa_offset 28
 939              		@ sp needed
 940 0256 BDE8F046 		pop	{r4, r5, r6, r7, r9, r10, lr}
 941              		.cfi_restore 14
 942              		.cfi_restore 10
 943              		.cfi_restore 9
 944              		.cfi_restore 7
 945              		.cfi_restore 6
 946              		.cfi_restore 5
 947              		.cfi_restore 4
 948              		.cfi_def_cfa_offset 0
 949              	.LVL77:
 950              		.loc 1 398 0
 951 025a FFF7FEBF 		b	test_wait_threads
 952              	.LVL78:
 953              	.L42:
 954 025e 00BF     		.align	2
 955              	.L41:
 956 0260 00000000 		.word	ch
 957 0264 00000000 		.word	wa
 958 0268 0C000000 		.word	.LC3
 959 026c 00000000 		.word	threads
 960 0270 00000000 		.word	thread4a
 961 0274 10000000 		.word	.LC4
 962 0278 00000000 		.word	thread4b
 963 027c 00000000 		.word	.LANCHOR1
 964 0280 00000000 		.word	.LANCHOR0
 965 0284 04000000 		.word	.LC1
 966 0288 08000000 		.word	.LC2
 967 028c 00000000 		.word	.LANCHOR2
 968              		.cfi_endproc
 969              	.LFE234:
ARM GAS  C:\Users\jo\AppData\Local\Temp\ccsPgMdz.s 			page 18


 970              		.size	mtx4_execute, .-mtx4_execute
 971              		.section	.text.thread10,"ax",%progbits
 972              		.align	2
 973              		.p2align 4,,15
 974              		.thumb
 975              		.thumb_func
 976              		.type	thread10, %function
 977              	thread10:
 978              	.LFB238:
 979              		.loc 1 475 0
 980              		.cfi_startproc
 981              		@ args = 0, pretend = 0, frame = 0
 982              		@ frame_needed = 0, uses_anonymous_args = 0
 983              	.LVL79:
 984 0000 38B5     		push	{r3, r4, r5, lr}
 985              		.cfi_def_cfa_offset 16
 986              		.cfi_offset 3, -16
 987              		.cfi_offset 4, -12
 988              		.cfi_offset 5, -8
 989              		.cfi_offset 14, -4
 990              		.loc 1 477 0
 991 0002 084C     		ldr	r4, .L45
 992              		.loc 1 475 0
 993 0004 0546     		mov	r5, r0
 994              		.loc 1 477 0
 995 0006 2046     		mov	r0, r4
 996              	.LVL80:
 997 0008 FFF7FEFF 		bl	chMtxLock
 998              	.LVL81:
 999              		.loc 1 478 0
 1000 000c 0648     		ldr	r0, .L45+4
 1001 000e FFF7FEFF 		bl	chCondWait
 1002              	.LVL82:
 1003              		.loc 1 479 0
 1004 0012 2878     		ldrb	r0, [r5]	@ zero_extendqisi2
 1005 0014 FFF7FEFF 		bl	test_emit_token
 1006              	.LVL83:
 1007              		.loc 1 480 0
 1008 0018 2046     		mov	r0, r4
 1009              		.loc 1 481 0
 1010 001a BDE83840 		pop	{r3, r4, r5, lr}
 1011              		.cfi_restore 14
 1012              		.cfi_restore 5
 1013              		.cfi_restore 4
 1014              		.cfi_restore 3
 1015              		.cfi_def_cfa_offset 0
 1016              	.LVL84:
 1017              		.loc 1 480 0
 1018 001e FFF7FEBF 		b	chMtxUnlock
 1019              	.LVL85:
 1020              	.L46:
 1021 0022 00BF     		.align	2
 1022              	.L45:
 1023 0024 00000000 		.word	.LANCHOR0
 1024 0028 00000000 		.word	.LANCHOR3
 1025              		.cfi_endproc
 1026              	.LFE238:
ARM GAS  C:\Users\jo\AppData\Local\Temp\ccsPgMdz.s 			page 19


 1027              		.size	thread10, .-thread10
 1028 002c AFF30080 		.section	.text.mtx6_setup,"ax",%progbits
 1029              		.align	2
 1030              		.p2align 4,,15
 1031              		.thumb
 1032              		.thumb_func
 1033              		.type	mtx6_setup, %function
 1034              	mtx6_setup:
 1035              	.LFB237:
 1036              		.loc 1 469 0
 1037              		.cfi_startproc
 1038              		@ args = 0, pretend = 0, frame = 0
 1039              		@ frame_needed = 0, uses_anonymous_args = 0
 1040 0000 08B5     		push	{r3, lr}
 1041              		.cfi_def_cfa_offset 8
 1042              		.cfi_offset 3, -8
 1043              		.cfi_offset 14, -4
 1044              		.loc 1 471 0
 1045 0002 0448     		ldr	r0, .L49
 1046 0004 FFF7FEFF 		bl	chCondObjectInit
 1047              	.LVL86:
 1048              		.loc 1 472 0
 1049 0008 0348     		ldr	r0, .L49+4
 1050              		.loc 1 473 0
 1051 000a BDE80840 		pop	{r3, lr}
 1052              		.cfi_restore 14
 1053              		.cfi_restore 3
 1054              		.cfi_def_cfa_offset 0
 1055              		.loc 1 472 0
 1056 000e FFF7FEBF 		b	chMtxObjectInit
 1057              	.LVL87:
 1058              	.L50:
 1059 0012 00BF     		.align	2
 1060              	.L49:
 1061 0014 00000000 		.word	.LANCHOR3
 1062 0018 00000000 		.word	.LANCHOR0
 1063              		.cfi_endproc
 1064              	.LFE237:
 1065              		.size	mtx6_setup, .-mtx6_setup
 1066 001c AFF30080 		.section	.text.mtx7_setup,"ax",%progbits
 1067              		.align	2
 1068              		.p2align 4,,15
 1069              		.thumb
 1070              		.thumb_func
 1071              		.type	mtx7_setup, %function
 1072              	mtx7_setup:
 1073              	.LFB240:
 1074              		.loc 1 520 0
 1075              		.cfi_startproc
 1076              		@ args = 0, pretend = 0, frame = 0
 1077              		@ frame_needed = 0, uses_anonymous_args = 0
 1078 0000 08B5     		push	{r3, lr}
 1079              		.cfi_def_cfa_offset 8
 1080              		.cfi_offset 3, -8
 1081              		.cfi_offset 14, -4
 1082              		.loc 1 522 0
 1083 0002 0448     		ldr	r0, .L53
ARM GAS  C:\Users\jo\AppData\Local\Temp\ccsPgMdz.s 			page 20


 1084 0004 FFF7FEFF 		bl	chCondObjectInit
 1085              	.LVL88:
 1086              		.loc 1 523 0
 1087 0008 0348     		ldr	r0, .L53+4
 1088              		.loc 1 524 0
 1089 000a BDE80840 		pop	{r3, lr}
 1090              		.cfi_restore 14
 1091              		.cfi_restore 3
 1092              		.cfi_def_cfa_offset 0
 1093              		.loc 1 523 0
 1094 000e FFF7FEBF 		b	chMtxObjectInit
 1095              	.LVL89:
 1096              	.L54:
 1097 0012 00BF     		.align	2
 1098              	.L53:
 1099 0014 00000000 		.word	.LANCHOR3
 1100 0018 00000000 		.word	.LANCHOR0
 1101              		.cfi_endproc
 1102              	.LFE240:
 1103              		.size	mtx7_setup, .-mtx7_setup
 1104 001c AFF30080 		.section	.text.mtx8_setup,"ax",%progbits
 1105              		.align	2
 1106              		.p2align 4,,15
 1107              		.thumb
 1108              		.thumb_func
 1109              		.type	mtx8_setup, %function
 1110              	mtx8_setup:
 1111              	.LFB242:
 1112              		.loc 1 555 0
 1113              		.cfi_startproc
 1114              		@ args = 0, pretend = 0, frame = 0
 1115              		@ frame_needed = 0, uses_anonymous_args = 0
 1116 0000 08B5     		push	{r3, lr}
 1117              		.cfi_def_cfa_offset 8
 1118              		.cfi_offset 3, -8
 1119              		.cfi_offset 14, -4
 1120              		.loc 1 557 0
 1121 0002 0548     		ldr	r0, .L57
 1122 0004 FFF7FEFF 		bl	chCondObjectInit
 1123              	.LVL90:
 1124              		.loc 1 558 0
 1125 0008 0448     		ldr	r0, .L57+4
 1126 000a FFF7FEFF 		bl	chMtxObjectInit
 1127              	.LVL91:
 1128              		.loc 1 559 0
 1129 000e 0448     		ldr	r0, .L57+8
 1130              		.loc 1 560 0
 1131 0010 BDE80840 		pop	{r3, lr}
 1132              		.cfi_restore 14
 1133              		.cfi_restore 3
 1134              		.cfi_def_cfa_offset 0
 1135              		.loc 1 559 0
 1136 0014 FFF7FEBF 		b	chMtxObjectInit
 1137              	.LVL92:
 1138              	.L58:
 1139              		.align	2
 1140              	.L57:
ARM GAS  C:\Users\jo\AppData\Local\Temp\ccsPgMdz.s 			page 21


 1141 0018 00000000 		.word	.LANCHOR3
 1142 001c 00000000 		.word	.LANCHOR0
 1143 0020 00000000 		.word	.LANCHOR1
 1144              		.cfi_endproc
 1145              	.LFE242:
 1146              		.size	mtx8_setup, .-mtx8_setup
 1147 0024 AFF30080 		.section	.text.mtx7_execute,"ax",%progbits
 1147      AFF30080 
 1147      AFF30080 
 1148              		.align	2
 1149              		.p2align 4,,15
 1150              		.thumb
 1151              		.thumb_func
 1152              		.type	mtx7_execute, %function
 1153              	mtx7_execute:
 1154              	.LFB241:
 1155              		.loc 1 526 0
 1156              		.cfi_startproc
 1157              		@ args = 0, pretend = 0, frame = 0
 1158              		@ frame_needed = 0, uses_anonymous_args = 0
 1159 0000 F0B5     		push	{r4, r5, r6, r7, lr}
 1160              		.cfi_def_cfa_offset 20
 1161              		.cfi_offset 4, -20
 1162              		.cfi_offset 5, -16
 1163              		.cfi_offset 6, -12
 1164              		.cfi_offset 7, -8
 1165              		.cfi_offset 14, -4
 1166              	.LBB251:
 1167              	.LBB252:
 1168              	.LBB253:
 1169              	.LBB254:
 1170              		.loc 2 176 0
 1171 0002 244B     		ldr	r3, .L61
 1172              	.LBE254:
 1173              	.LBE253:
 1174              	.LBE252:
 1175              	.LBE251:
 1176              		.loc 1 529 0
 1177 0004 244F     		ldr	r7, .L61+4
 1178              	.LBB257:
 1179              	.LBB255:
 1180              		.loc 2 189 0
 1181 0006 9B69     		ldr	r3, [r3, #24]
 1182              	.LBE255:
 1183              	.LBE257:
 1184              		.loc 1 529 0
 1185 0008 244D     		ldr	r5, .L61+8
 1186              	.LBB258:
 1187              	.LBB256:
 1188              		.loc 2 189 0
 1189 000a 9E68     		ldr	r6, [r3, #8]
 1190              	.LBE256:
 1191              	.LBE258:
 1192              		.loc 1 529 0
 1193 000c 244B     		ldr	r3, .L61+12
 1194 000e 3868     		ldr	r0, [r7]
 1195 0010 244C     		ldr	r4, .L61+16
ARM GAS  C:\Users\jo\AppData\Local\Temp\ccsPgMdz.s 			page 22


 1196              		.loc 1 526 0
 1197 0012 83B0     		sub	sp, sp, #12
 1198              		.cfi_def_cfa_offset 32
 1199              		.loc 1 529 0
 1200 0014 721C     		adds	r2, r6, #1
 1201 0016 0093     		str	r3, [sp]
 1202 0018 4FF4A871 		mov	r1, #336
 1203 001c 2B46     		mov	r3, r5
 1204 001e FFF7FEFF 		bl	chThdCreateStatic
 1205              	.LVL93:
 1206              		.loc 1 530 0
 1207 0022 7B68     		ldr	r3, [r7, #4]
 1208 0024 2049     		ldr	r1, .L61+20
 1209              		.loc 1 529 0
 1210 0026 2060     		str	r0, [r4]
 1211              		.loc 1 530 0
 1212 0028 B21C     		adds	r2, r6, #2
 1213 002a 0091     		str	r1, [sp]
 1214 002c 1846     		mov	r0, r3
 1215 002e 4FF4A871 		mov	r1, #336
 1216 0032 2B46     		mov	r3, r5
 1217 0034 FFF7FEFF 		bl	chThdCreateStatic
 1218              	.LVL94:
 1219              		.loc 1 531 0
 1220 0038 BB68     		ldr	r3, [r7, #8]
 1221 003a 1C49     		ldr	r1, .L61+24
 1222              		.loc 1 530 0
 1223 003c 6060     		str	r0, [r4, #4]
 1224              		.loc 1 531 0
 1225 003e F21C     		adds	r2, r6, #3
 1226 0040 0091     		str	r1, [sp]
 1227 0042 1846     		mov	r0, r3
 1228 0044 4FF4A871 		mov	r1, #336
 1229 0048 2B46     		mov	r3, r5
 1230 004a FFF7FEFF 		bl	chThdCreateStatic
 1231              	.LVL95:
 1232              		.loc 1 532 0
 1233 004e FB68     		ldr	r3, [r7, #12]
 1234 0050 1749     		ldr	r1, .L61+28
 1235              		.loc 1 531 0
 1236 0052 A060     		str	r0, [r4, #8]
 1237              		.loc 1 532 0
 1238 0054 321D     		adds	r2, r6, #4
 1239 0056 0091     		str	r1, [sp]
 1240 0058 1846     		mov	r0, r3
 1241 005a 4FF4A871 		mov	r1, #336
 1242 005e 2B46     		mov	r3, r5
 1243 0060 FFF7FEFF 		bl	chThdCreateStatic
 1244              	.LVL96:
 1245              		.loc 1 533 0
 1246 0064 3B69     		ldr	r3, [r7, #16]
 1247 0066 1349     		ldr	r1, .L61+32
 1248              		.loc 1 532 0
 1249 0068 E060     		str	r0, [r4, #12]
 1250              		.loc 1 533 0
 1251 006a 721D     		adds	r2, r6, #5
 1252 006c 0091     		str	r1, [sp]
ARM GAS  C:\Users\jo\AppData\Local\Temp\ccsPgMdz.s 			page 23


 1253 006e 1846     		mov	r0, r3
 1254 0070 4FF4A871 		mov	r1, #336
 1255 0074 2B46     		mov	r3, r5
 1256 0076 FFF7FEFF 		bl	chThdCreateStatic
 1257              	.LVL97:
 1258 007a 2061     		str	r0, [r4, #16]
 1259              		.loc 1 534 0
 1260 007c 0E48     		ldr	r0, .L61+36
 1261 007e FFF7FEFF 		bl	chCondBroadcast
 1262              	.LVL98:
 1263              		.loc 1 535 0
 1264 0082 FFF7FEFF 		bl	test_wait_threads
 1265              	.LVL99:
 1266              		.loc 1 536 0
 1267 0086 0D49     		ldr	r1, .L61+40
 1268 0088 0120     		movs	r0, #1
 1269              		.loc 1 537 0
 1270 008a 03B0     		add	sp, sp, #12
 1271              		.cfi_def_cfa_offset 20
 1272              		@ sp needed
 1273 008c BDE8F040 		pop	{r4, r5, r6, r7, lr}
 1274              		.cfi_restore 14
 1275              		.cfi_restore 7
 1276              		.cfi_restore 6
 1277              		.cfi_restore 5
 1278              		.cfi_restore 4
 1279              		.cfi_def_cfa_offset 0
 1280              		.loc 1 536 0
 1281 0090 FFF7FEBF 		b	_test_assert_sequence
 1282              	.LVL100:
 1283              	.L62:
 1284              		.align	2
 1285              	.L61:
 1286 0094 00000000 		.word	ch
 1287 0098 00000000 		.word	wa
 1288 009c 00000000 		.word	thread10
 1289 00a0 00000000 		.word	.LC0
 1290 00a4 00000000 		.word	threads
 1291 00a8 04000000 		.word	.LC1
 1292 00ac 08000000 		.word	.LC2
 1293 00b0 0C000000 		.word	.LC3
 1294 00b4 10000000 		.word	.LC4
 1295 00b8 00000000 		.word	.LANCHOR3
 1296 00bc 14000000 		.word	.LC5
 1297              		.cfi_endproc
 1298              	.LFE241:
 1299              		.size	mtx7_execute, .-mtx7_execute
 1300              		.section	.text.mtx8_execute,"ax",%progbits
 1301              		.align	2
 1302              		.p2align 4,,15
 1303              		.thumb
 1304              		.thumb_func
 1305              		.type	mtx8_execute, %function
 1306              	mtx8_execute:
 1307              	.LFB245:
 1308              		.loc 1 583 0
 1309              		.cfi_startproc
ARM GAS  C:\Users\jo\AppData\Local\Temp\ccsPgMdz.s 			page 24


 1310              		@ args = 0, pretend = 0, frame = 0
 1311              		@ frame_needed = 0, uses_anonymous_args = 0
 1312 0000 F0B5     		push	{r4, r5, r6, r7, lr}
 1313              		.cfi_def_cfa_offset 20
 1314              		.cfi_offset 4, -20
 1315              		.cfi_offset 5, -16
 1316              		.cfi_offset 6, -12
 1317              		.cfi_offset 7, -8
 1318              		.cfi_offset 14, -4
 1319              	.LBB259:
 1320              	.LBB260:
 1321              	.LBB261:
 1322              	.LBB262:
 1323              		.loc 2 176 0
 1324 0002 1B4B     		ldr	r3, .L65
 1325              	.LBE262:
 1326              	.LBE261:
 1327              	.LBE260:
 1328              	.LBE259:
 1329              		.loc 1 586 0
 1330 0004 1B4E     		ldr	r6, .L65+4
 1331              	.LBB265:
 1332              	.LBB263:
 1333              		.loc 2 189 0
 1334 0006 9B69     		ldr	r3, [r3, #24]
 1335              	.LBE263:
 1336              	.LBE265:
 1337              		.loc 1 586 0
 1338 0008 3068     		ldr	r0, [r6]
 1339              	.LBB266:
 1340              	.LBB264:
 1341              		.loc 2 189 0
 1342 000a 9D68     		ldr	r5, [r3, #8]
 1343              	.LBE264:
 1344              	.LBE266:
 1345              		.loc 1 586 0
 1346 000c 1A4B     		ldr	r3, .L65+8
 1347 000e 1B4C     		ldr	r4, .L65+12
 1348              		.loc 1 589 0
 1349 0010 1B4F     		ldr	r7, .L65+16
 1350              		.loc 1 583 0
 1351 0012 83B0     		sub	sp, sp, #12
 1352              		.cfi_def_cfa_offset 32
 1353              		.loc 1 586 0
 1354 0014 6A1C     		adds	r2, r5, #1
 1355 0016 0093     		str	r3, [sp]
 1356 0018 4FF4A871 		mov	r1, #336
 1357 001c 194B     		ldr	r3, .L65+20
 1358 001e FFF7FEFF 		bl	chThdCreateStatic
 1359              	.LVL101:
 1360              		.loc 1 587 0
 1361 0022 7168     		ldr	r1, [r6, #4]
 1362 0024 184B     		ldr	r3, .L65+24
 1363              		.loc 1 586 0
 1364 0026 2060     		str	r0, [r4]
 1365              		.loc 1 587 0
 1366 0028 AA1C     		adds	r2, r5, #2
ARM GAS  C:\Users\jo\AppData\Local\Temp\ccsPgMdz.s 			page 25


 1367 002a 0093     		str	r3, [sp]
 1368 002c 0846     		mov	r0, r1
 1369 002e 174B     		ldr	r3, .L65+28
 1370 0030 4FF4A871 		mov	r1, #336
 1371 0034 FFF7FEFF 		bl	chThdCreateStatic
 1372              	.LVL102:
 1373              		.loc 1 588 0
 1374 0038 B168     		ldr	r1, [r6, #8]
 1375 003a 154B     		ldr	r3, .L65+32
 1376              		.loc 1 587 0
 1377 003c 6060     		str	r0, [r4, #4]
 1378              		.loc 1 588 0
 1379 003e EA1C     		adds	r2, r5, #3
 1380 0040 0093     		str	r3, [sp]
 1381 0042 0846     		mov	r0, r1
 1382 0044 134B     		ldr	r3, .L65+36
 1383 0046 4FF4A871 		mov	r1, #336
 1384 004a FFF7FEFF 		bl	chThdCreateStatic
 1385              	.LVL103:
 1386 004e A060     		str	r0, [r4, #8]
 1387              		.loc 1 589 0
 1388 0050 3846     		mov	r0, r7
 1389 0052 FFF7FEFF 		bl	chCondSignal
 1390              	.LVL104:
 1391              		.loc 1 590 0
 1392 0056 3846     		mov	r0, r7
 1393 0058 FFF7FEFF 		bl	chCondSignal
 1394              	.LVL105:
 1395              		.loc 1 591 0
 1396 005c FFF7FEFF 		bl	test_wait_threads
 1397              	.LVL106:
 1398              		.loc 1 592 0
 1399 0060 0D49     		ldr	r1, .L65+40
 1400 0062 0120     		movs	r0, #1
 1401              		.loc 1 593 0
 1402 0064 03B0     		add	sp, sp, #12
 1403              		.cfi_def_cfa_offset 20
 1404              		@ sp needed
 1405 0066 BDE8F040 		pop	{r4, r5, r6, r7, lr}
 1406              		.cfi_restore 14
 1407              		.cfi_restore 7
 1408              		.cfi_restore 6
 1409              		.cfi_restore 5
 1410              		.cfi_restore 4
 1411              		.cfi_def_cfa_offset 0
 1412              		.loc 1 592 0
 1413 006a FFF7FEBF 		b	_test_assert_sequence
 1414              	.LVL107:
 1415              	.L66:
 1416 006e 00BF     		.align	2
 1417              	.L65:
 1418 0070 00000000 		.word	ch
 1419 0074 00000000 		.word	wa
 1420 0078 10000000 		.word	.LC4
 1421 007c 00000000 		.word	threads
 1422 0080 00000000 		.word	.LANCHOR3
 1423 0084 00000000 		.word	thread11
ARM GAS  C:\Users\jo\AppData\Local\Temp\ccsPgMdz.s 			page 26


 1424 0088 08000000 		.word	.LC2
 1425 008c 00000000 		.word	thread10
 1426 0090 0C000000 		.word	.LC3
 1427 0094 00000000 		.word	thread12
 1428 0098 1C000000 		.word	.LC6
 1429              		.cfi_endproc
 1430              	.LFE245:
 1431              		.size	mtx8_execute, .-mtx8_execute
 1432 009c AFF30080 		.section	.text.thread11,"ax",%progbits
 1433              		.align	2
 1434              		.p2align 4,,15
 1435              		.thumb
 1436              		.thumb_func
 1437              		.type	thread11, %function
 1438              	thread11:
 1439              	.LFB243:
 1440              		.loc 1 562 0
 1441              		.cfi_startproc
 1442              		@ args = 0, pretend = 0, frame = 0
 1443              		@ frame_needed = 0, uses_anonymous_args = 0
 1444              	.LVL108:
 1445 0000 70B5     		push	{r4, r5, r6, lr}
 1446              		.cfi_def_cfa_offset 16
 1447              		.cfi_offset 4, -16
 1448              		.cfi_offset 5, -12
 1449              		.cfi_offset 6, -8
 1450              		.cfi_offset 14, -4
 1451              		.loc 1 564 0
 1452 0002 0C4C     		ldr	r4, .L69
 1453              		.loc 1 565 0
 1454 0004 0C4D     		ldr	r5, .L69+4
 1455              		.loc 1 562 0
 1456 0006 0646     		mov	r6, r0
 1457              		.loc 1 564 0
 1458 0008 2046     		mov	r0, r4
 1459              	.LVL109:
 1460 000a FFF7FEFF 		bl	chMtxLock
 1461              	.LVL110:
 1462              		.loc 1 565 0
 1463 000e 2846     		mov	r0, r5
 1464 0010 FFF7FEFF 		bl	chMtxLock
 1465              	.LVL111:
 1466              		.loc 1 567 0
 1467 0014 4FF0FF31 		mov	r1, #-1
 1468 0018 0848     		ldr	r0, .L69+8
 1469 001a FFF7FEFF 		bl	chCondWaitTimeout
 1470              	.LVL112:
 1471              		.loc 1 571 0
 1472 001e 3078     		ldrb	r0, [r6]	@ zero_extendqisi2
 1473 0020 FFF7FEFF 		bl	test_emit_token
 1474              	.LVL113:
 1475              		.loc 1 572 0
 1476 0024 2846     		mov	r0, r5
 1477 0026 FFF7FEFF 		bl	chMtxUnlock
 1478              	.LVL114:
 1479              		.loc 1 573 0
 1480 002a 2046     		mov	r0, r4
ARM GAS  C:\Users\jo\AppData\Local\Temp\ccsPgMdz.s 			page 27


 1481              		.loc 1 574 0
 1482 002c BDE87040 		pop	{r4, r5, r6, lr}
 1483              		.cfi_restore 14
 1484              		.cfi_restore 6
 1485              		.cfi_restore 5
 1486              		.cfi_restore 4
 1487              		.cfi_def_cfa_offset 0
 1488              	.LVL115:
 1489              		.loc 1 573 0
 1490 0030 FFF7FEBF 		b	chMtxUnlock
 1491              	.LVL116:
 1492              	.L70:
 1493              		.align	2
 1494              	.L69:
 1495 0034 00000000 		.word	.LANCHOR1
 1496 0038 00000000 		.word	.LANCHOR0
 1497 003c 00000000 		.word	.LANCHOR3
 1498              		.cfi_endproc
 1499              	.LFE243:
 1500              		.size	thread11, .-thread11
 1501              		.section	.text.mtx6_execute,"ax",%progbits
 1502              		.align	2
 1503              		.p2align 4,,15
 1504              		.thumb
 1505              		.thumb_func
 1506              		.type	mtx6_execute, %function
 1507              	mtx6_execute:
 1508              	.LFB239:
 1509              		.loc 1 483 0
 1510              		.cfi_startproc
 1511              		@ args = 0, pretend = 0, frame = 0
 1512              		@ frame_needed = 0, uses_anonymous_args = 0
 1513 0000 F0B5     		push	{r4, r5, r6, r7, lr}
 1514              		.cfi_def_cfa_offset 20
 1515              		.cfi_offset 4, -20
 1516              		.cfi_offset 5, -16
 1517              		.cfi_offset 6, -12
 1518              		.cfi_offset 7, -8
 1519              		.cfi_offset 14, -4
 1520              	.LBB281:
 1521              	.LBB282:
 1522              	.LBB283:
 1523              	.LBB284:
 1524              		.loc 2 176 0
 1525 0002 354F     		ldr	r7, .L74
 1526              	.LBE284:
 1527              	.LBE283:
 1528              	.LBE282:
 1529              	.LBE281:
 1530              		.loc 1 486 0
 1531 0004 354E     		ldr	r6, .L74+4
 1532              	.LBB287:
 1533              	.LBB285:
 1534              		.loc 2 189 0
 1535 0006 BB69     		ldr	r3, [r7, #24]
 1536              	.LBE285:
 1537              	.LBE287:
ARM GAS  C:\Users\jo\AppData\Local\Temp\ccsPgMdz.s 			page 28


 1538              		.loc 1 486 0
 1539 0008 3068     		ldr	r0, [r6]
 1540              	.LBB288:
 1541              	.LBB286:
 1542              		.loc 2 189 0
 1543 000a 9D68     		ldr	r5, [r3, #8]
 1544              	.LBE286:
 1545              	.LBE288:
 1546              		.loc 1 486 0
 1547 000c 344B     		ldr	r3, .L74+8
 1548 000e 354C     		ldr	r4, .L74+12
 1549              		.loc 1 483 0
 1550 0010 83B0     		sub	sp, sp, #12
 1551              		.cfi_def_cfa_offset 32
 1552              		.loc 1 486 0
 1553 0012 6A1C     		adds	r2, r5, #1
 1554 0014 0093     		str	r3, [sp]
 1555 0016 4FF4A871 		mov	r1, #336
 1556 001a 334B     		ldr	r3, .L74+16
 1557 001c FFF7FEFF 		bl	chThdCreateStatic
 1558              	.LVL117:
 1559              		.loc 1 487 0
 1560 0020 7168     		ldr	r1, [r6, #4]
 1561 0022 324B     		ldr	r3, .L74+20
 1562              		.loc 1 486 0
 1563 0024 2060     		str	r0, [r4]
 1564              		.loc 1 487 0
 1565 0026 AA1C     		adds	r2, r5, #2
 1566 0028 0093     		str	r3, [sp]
 1567 002a 0846     		mov	r0, r1
 1568 002c 2E4B     		ldr	r3, .L74+16
 1569 002e 4FF4A871 		mov	r1, #336
 1570 0032 FFF7FEFF 		bl	chThdCreateStatic
 1571              	.LVL118:
 1572              		.loc 1 488 0
 1573 0036 B168     		ldr	r1, [r6, #8]
 1574 0038 2D4B     		ldr	r3, .L74+24
 1575              		.loc 1 487 0
 1576 003a 6060     		str	r0, [r4, #4]
 1577              		.loc 1 488 0
 1578 003c EA1C     		adds	r2, r5, #3
 1579 003e 0093     		str	r3, [sp]
 1580 0040 0846     		mov	r0, r1
 1581 0042 294B     		ldr	r3, .L74+16
 1582 0044 4FF4A871 		mov	r1, #336
 1583 0048 FFF7FEFF 		bl	chThdCreateStatic
 1584              	.LVL119:
 1585              		.loc 1 489 0
 1586 004c F168     		ldr	r1, [r6, #12]
 1587 004e 294B     		ldr	r3, .L74+28
 1588              		.loc 1 488 0
 1589 0050 A060     		str	r0, [r4, #8]
 1590              		.loc 1 489 0
 1591 0052 2A1D     		adds	r2, r5, #4
 1592 0054 0093     		str	r3, [sp]
 1593 0056 0846     		mov	r0, r1
 1594 0058 234B     		ldr	r3, .L74+16
ARM GAS  C:\Users\jo\AppData\Local\Temp\ccsPgMdz.s 			page 29


 1595 005a 4FF4A871 		mov	r1, #336
 1596 005e FFF7FEFF 		bl	chThdCreateStatic
 1597              	.LVL120:
 1598              		.loc 1 490 0
 1599 0062 3169     		ldr	r1, [r6, #16]
 1600 0064 244B     		ldr	r3, .L74+32
 1601              		.loc 1 489 0
 1602 0066 E060     		str	r0, [r4, #12]
 1603              		.loc 1 490 0
 1604 0068 0093     		str	r3, [sp]
 1605 006a 6A1D     		adds	r2, r5, #5
 1606 006c 0846     		mov	r0, r1
 1607 006e 1E4B     		ldr	r3, .L74+16
 1608 0070 4FF4A871 		mov	r1, #336
 1609 0074 FFF7FEFF 		bl	chThdCreateStatic
 1610              	.LVL121:
 1611              	.LBB289:
 1612              	.LBB290:
 1613              	.LBB291:
 1614              	.LBB292:
 1615              	.LBB293:
 1616              		.loc 3 546 0
 1617 0078 2023     		movs	r3, #32
 1618              	.LBE293:
 1619              	.LBE292:
 1620              	.LBE291:
 1621              	.LBE290:
 1622              	.LBE289:
 1623              		.loc 1 490 0
 1624 007a 2061     		str	r0, [r4, #16]
 1625              	.LVL122:
 1626              	.LBB298:
 1627              	.LBB297:
 1628              	.LBB296:
 1629              	.LBB295:
 1630              	.LBB294:
 1631              		.loc 3 546 0
 1632              	@ 546 "../../../os/ext/CMSIS/include/core_cmFunc.h" 1
 1633 007c 83F31188 		MSR basepri, r3
 1634              	@ 0 "" 2
 1635              		.thumb
 1636              	.LBE294:
 1637              	.LBE295:
 1638              	.LBE296:
 1639              		.loc 4 350 0
 1640 0080 FFF7FEFF 		bl	_dbg_check_lock
 1641              	.LVL123:
 1642              	.LBE297:
 1643              	.LBE298:
 1644              		.loc 1 492 0
 1645 0084 1D48     		ldr	r0, .L74+36
 1646 0086 FFF7FEFF 		bl	chCondSignalI
 1647              	.LVL124:
 1648              		.loc 1 493 0
 1649 008a 1C48     		ldr	r0, .L74+36
 1650 008c FFF7FEFF 		bl	chCondSignalI
 1651              	.LVL125:
ARM GAS  C:\Users\jo\AppData\Local\Temp\ccsPgMdz.s 			page 30


 1652              		.loc 1 494 0
 1653 0090 1A48     		ldr	r0, .L74+36
 1654 0092 FFF7FEFF 		bl	chCondSignalI
 1655              	.LVL126:
 1656              		.loc 1 495 0
 1657 0096 1948     		ldr	r0, .L74+36
 1658 0098 FFF7FEFF 		bl	chCondSignalI
 1659              	.LVL127:
 1660              		.loc 1 496 0
 1661 009c 1748     		ldr	r0, .L74+36
 1662 009e FFF7FEFF 		bl	chCondSignalI
 1663              	.LVL128:
 1664              		.loc 1 497 0
 1665 00a2 FFF7FEFF 		bl	chSchRescheduleS
 1666              	.LVL129:
 1667              	.LBB299:
 1668              	.LBB300:
 1669              		.loc 4 360 0
 1670 00a6 FFF7FEFF 		bl	_dbg_check_unlock
 1671              	.LVL130:
 1672              		.loc 4 367 0
 1673 00aa 3B68     		ldr	r3, [r7]
 1674 00ac BB42     		cmp	r3, r7
 1675 00ae 07D0     		beq	.L72
 1676 00b0 BA69     		ldr	r2, [r7, #24]
 1677 00b2 9B68     		ldr	r3, [r3, #8]
 1678 00b4 9268     		ldr	r2, [r2, #8]
 1679 00b6 9A42     		cmp	r2, r3
 1680 00b8 02D2     		bcs	.L72
 1681 00ba 1148     		ldr	r0, .L74+40
 1682 00bc FFF7FEFF 		bl	chSysHalt
 1683              	.LVL131:
 1684              	.L72:
 1685              	.LBB301:
 1686              	.LBB302:
 1687              	.LBB303:
 1688              		.loc 3 546 0
 1689 00c0 0023     		movs	r3, #0
 1690              	@ 546 "../../../os/ext/CMSIS/include/core_cmFunc.h" 1
 1691 00c2 83F31188 		MSR basepri, r3
 1692              	@ 0 "" 2
 1693              		.thumb
 1694              	.LBE303:
 1695              	.LBE302:
 1696              	.LBE301:
 1697              	.LBE300:
 1698              	.LBE299:
 1699              		.loc 1 499 0
 1700 00c6 FFF7FEFF 		bl	test_wait_threads
 1701              	.LVL132:
 1702              		.loc 1 500 0
 1703 00ca 0E49     		ldr	r1, .L74+44
 1704 00cc 0120     		movs	r0, #1
 1705              		.loc 1 501 0
 1706 00ce 03B0     		add	sp, sp, #12
 1707              		.cfi_def_cfa_offset 20
 1708              		@ sp needed
ARM GAS  C:\Users\jo\AppData\Local\Temp\ccsPgMdz.s 			page 31


 1709 00d0 BDE8F040 		pop	{r4, r5, r6, r7, lr}
 1710              		.cfi_restore 14
 1711              		.cfi_restore 7
 1712              		.cfi_restore 6
 1713              		.cfi_restore 5
 1714              		.cfi_restore 4
 1715              		.cfi_def_cfa_offset 0
 1716              		.loc 1 500 0
 1717 00d4 FFF7FEBF 		b	_test_assert_sequence
 1718              	.LVL133:
 1719              	.L75:
 1720              		.align	2
 1721              	.L74:
 1722 00d8 00000000 		.word	ch
 1723 00dc 00000000 		.word	wa
 1724 00e0 00000000 		.word	.LC0
 1725 00e4 00000000 		.word	threads
 1726 00e8 00000000 		.word	thread10
 1727 00ec 04000000 		.word	.LC1
 1728 00f0 08000000 		.word	.LC2
 1729 00f4 0C000000 		.word	.LC3
 1730 00f8 10000000 		.word	.LC4
 1731 00fc 00000000 		.word	.LANCHOR3
 1732 0100 00000000 		.word	.LANCHOR2
 1733 0104 14000000 		.word	.LC5
 1734              		.cfi_endproc
 1735              	.LFE239:
 1736              		.size	mtx6_execute, .-mtx6_execute
 1737 0108 AFF30080 		.section	.text.mtx5_execute,"ax",%progbits
 1737      AFF30080 
 1738              		.align	2
 1739              		.p2align 4,,15
 1740              		.thumb
 1741              		.thumb_func
 1742              		.type	mtx5_execute, %function
 1743              	mtx5_execute:
 1744              	.LFB236:
 1745              		.loc 1 423 0
 1746              		.cfi_startproc
 1747              		@ args = 0, pretend = 0, frame = 0
 1748              		@ frame_needed = 0, uses_anonymous_args = 0
 1749 0000 F8B5     		push	{r3, r4, r5, r6, r7, lr}
 1750              		.cfi_def_cfa_offset 24
 1751              		.cfi_offset 3, -24
 1752              		.cfi_offset 4, -20
 1753              		.cfi_offset 5, -16
 1754              		.cfi_offset 6, -12
 1755              		.cfi_offset 7, -8
 1756              		.cfi_offset 14, -4
 1757              	.LBB326:
 1758              	.LBB327:
 1759              	.LBB328:
 1760              	.LBB329:
 1761              		.loc 2 176 0
 1762 0002 334D     		ldr	r5, .L83
 1763              	.LBE329:
 1764              	.LBE328:
ARM GAS  C:\Users\jo\AppData\Local\Temp\ccsPgMdz.s 			page 32


 1765              	.LBE327:
 1766              	.LBE326:
 1767              		.loc 1 429 0
 1768 0004 334C     		ldr	r4, .L83+4
 1769              	.LBB332:
 1770              	.LBB330:
 1771              		.loc 2 189 0
 1772 0006 AB69     		ldr	r3, [r5, #24]
 1773              	.LBE330:
 1774              	.LBE332:
 1775              		.loc 1 429 0
 1776 0008 2046     		mov	r0, r4
 1777              	.LBB333:
 1778              	.LBB331:
 1779              		.loc 2 189 0
 1780 000a 9E68     		ldr	r6, [r3, #8]
 1781              	.LBE331:
 1782              	.LBE333:
 1783              		.loc 1 429 0
 1784 000c FFF7FEFF 		bl	chMtxTryLock
 1785              	.LVL134:
 1786 0010 0146     		mov	r1, r0
 1787              	.LVL135:
 1788              		.loc 1 430 0
 1789 0012 0120     		movs	r0, #1
 1790 0014 FFF7FEFF 		bl	_test_assert
 1791              	.LVL136:
 1792 0018 00B1     		cbz	r0, .L82
 1793              	.L76:
 1794 001a F8BD     		pop	{r3, r4, r5, r6, r7, pc}
 1795              	.L82:
 1796              		.loc 1 432 0
 1797 001c 2046     		mov	r0, r4
 1798 001e FFF7FEFF 		bl	chMtxTryLock
 1799              	.LVL137:
 1800              		.loc 1 433 0
 1801 0022 80F00101 		eor	r1, r0, #1
 1802 0026 C9B2     		uxtb	r1, r1
 1803 0028 0220     		movs	r0, #2
 1804              	.LVL138:
 1805 002a FFF7FEFF 		bl	_test_assert
 1806              	.LVL139:
 1807 002e 0028     		cmp	r0, #0
 1808 0030 F3D1     		bne	.L76
 1809              	.LVL140:
 1810              	.LBB334:
 1811              	.LBB335:
 1812              	.LBB336:
 1813              	.LBB337:
 1814              	.LBB338:
 1815              		.loc 3 546 0
 1816 0032 2023     		movs	r3, #32
 1817              	@ 546 "../../../os/ext/CMSIS/include/core_cmFunc.h" 1
 1818 0034 83F31188 		MSR basepri, r3
 1819              	@ 0 "" 2
 1820              		.thumb
 1821              	.LBE338:
ARM GAS  C:\Users\jo\AppData\Local\Temp\ccsPgMdz.s 			page 33


 1822              	.LBE337:
 1823              	.LBE336:
 1824              		.loc 4 350 0
 1825 0038 FFF7FEFF 		bl	_dbg_check_lock
 1826              	.LVL141:
 1827              	.LBE335:
 1828              	.LBE334:
 1829              		.loc 1 436 0
 1830 003c 2046     		mov	r0, r4
 1831 003e FFF7FEFF 		bl	chMtxUnlockS
 1832              	.LVL142:
 1833              	.LBB339:
 1834              	.LBB340:
 1835              		.loc 4 360 0
 1836 0042 FFF7FEFF 		bl	_dbg_check_unlock
 1837              	.LVL143:
 1838              		.loc 4 367 0
 1839 0046 2B68     		ldr	r3, [r5]
 1840 0048 AB42     		cmp	r3, r5
 1841 004a 07D0     		beq	.L80
 1842 004c AA69     		ldr	r2, [r5, #24]
 1843 004e 9B68     		ldr	r3, [r3, #8]
 1844 0050 9268     		ldr	r2, [r2, #8]
 1845 0052 9A42     		cmp	r2, r3
 1846 0054 02D2     		bcs	.L80
 1847 0056 2048     		ldr	r0, .L83+8
 1848 0058 FFF7FEFF 		bl	chSysHalt
 1849              	.LVL144:
 1850              	.L80:
 1851              	.LBB341:
 1852              	.LBB342:
 1853              	.LBB343:
 1854              		.loc 3 546 0
 1855 005c 0023     		movs	r3, #0
 1856              	@ 546 "../../../os/ext/CMSIS/include/core_cmFunc.h" 1
 1857 005e 83F31188 		MSR basepri, r3
 1858              	@ 0 "" 2
 1859              	.LVL145:
 1860              		.thumb
 1861              	.LBE343:
 1862              	.LBE342:
 1863              	.LBE341:
 1864              	.LBE340:
 1865              	.LBE339:
 1866              	.LBB344:
 1867              	.LBB345:
 1868              		.file 5 "../../../os/rt/include/chschd.h"
 1869              		.loc 5 618 0
 1870 0062 2168     		ldr	r1, [r4]
 1871 0064 1B4F     		ldr	r7, .L83+4
 1872              	.LBE345:
 1873              	.LBE344:
 1874              		.loc 1 439 0
 1875 0066 091B     		subs	r1, r1, r4
 1876 0068 0320     		movs	r0, #3
 1877 006a B1FA81F1 		clz	r1, r1
 1878 006e 4909     		lsrs	r1, r1, #5
ARM GAS  C:\Users\jo\AppData\Local\Temp\ccsPgMdz.s 			page 34


 1879 0070 FFF7FEFF 		bl	_test_assert
 1880              	.LVL146:
 1881 0074 0028     		cmp	r0, #0
 1882 0076 D0D1     		bne	.L76
 1883              		.loc 1 440 0
 1884 0078 B968     		ldr	r1, [r7, #8]
 1885 007a B1FA81F1 		clz	r1, r1
 1886 007e 0420     		movs	r0, #4
 1887 0080 4909     		lsrs	r1, r1, #5
 1888 0082 FFF7FEFF 		bl	_test_assert
 1889              	.LVL147:
 1890 0086 0028     		cmp	r0, #0
 1891 0088 C7D1     		bne	.L76
 1892              	.LBB346:
 1893              	.LBB347:
 1894              		.loc 2 189 0
 1895 008a AB69     		ldr	r3, [r5, #24]
 1896              	.LBE347:
 1897              	.LBE346:
 1898              		.loc 1 441 0
 1899 008c 9968     		ldr	r1, [r3, #8]
 1900 008e 0520     		movs	r0, #5
 1901 0090 711A     		subs	r1, r6, r1
 1902 0092 B1FA81F1 		clz	r1, r1
 1903 0096 4909     		lsrs	r1, r1, #5
 1904 0098 FFF7FEFF 		bl	_test_assert
 1905              	.LVL148:
 1906 009c 0028     		cmp	r0, #0
 1907 009e BCD1     		bne	.L76
 1908              		.loc 1 444 0
 1909 00a0 3846     		mov	r0, r7
 1910 00a2 FFF7FEFF 		bl	chMtxLock
 1911              	.LVL149:
 1912              		.loc 1 445 0
 1913 00a6 FFF7FEFF 		bl	chMtxUnlockAll
 1914              	.LVL150:
 1915              	.LBB348:
 1916              	.LBB349:
 1917              		.loc 5 618 0
 1918 00aa 3968     		ldr	r1, [r7]
 1919              	.LBE349:
 1920              	.LBE348:
 1921              		.loc 1 446 0
 1922 00ac 0620     		movs	r0, #6
 1923 00ae C91B     		subs	r1, r1, r7
 1924 00b0 B1FA81F1 		clz	r1, r1
 1925 00b4 4909     		lsrs	r1, r1, #5
 1926 00b6 FFF7FEFF 		bl	_test_assert
 1927              	.LVL151:
 1928 00ba 0028     		cmp	r0, #0
 1929 00bc ADD1     		bne	.L76
 1930              		.loc 1 447 0
 1931 00be B968     		ldr	r1, [r7, #8]
 1932 00c0 B1FA81F1 		clz	r1, r1
 1933 00c4 0720     		movs	r0, #7
 1934 00c6 4909     		lsrs	r1, r1, #5
 1935              		.loc 1 448 0
ARM GAS  C:\Users\jo\AppData\Local\Temp\ccsPgMdz.s 			page 35


 1936 00c8 BDE8F840 		pop	{r3, r4, r5, r6, r7, lr}
 1937              		.cfi_restore 14
 1938              		.cfi_restore 7
 1939              		.cfi_restore 6
 1940              		.cfi_restore 5
 1941              		.cfi_restore 4
 1942              		.cfi_restore 3
 1943              		.cfi_def_cfa_offset 0
 1944              		.loc 1 447 0
 1945 00cc FFF7FEBF 		b	_test_assert
 1946              	.LVL152:
 1947              	.L84:
 1948              		.align	2
 1949              	.L83:
 1950 00d0 00000000 		.word	ch
 1951 00d4 00000000 		.word	.LANCHOR0
 1952 00d8 00000000 		.word	.LANCHOR2
 1953              		.cfi_endproc
 1954              	.LFE236:
 1955              		.size	mtx5_execute, .-mtx5_execute
 1956              		.global	patternmtx
 1957              		.global	testmtx8
 1958              		.global	testmtx7
 1959              		.global	testmtx6
 1960              		.global	testmtx5
 1961              		.global	testmtx4
 1962              		.global	testmtx1
 1963 00dc AFF30080 		.section	.rodata.testmtx5,"a",%progbits
 1964              		.align	2
 1965              		.type	testmtx5, %object
 1966              		.size	testmtx5, 16
 1967              	testmtx5:
 1968 0000 64000000 		.word	.LC10
 1969 0004 00000000 		.word	mtx5_setup
 1970 0008 00000000 		.word	0
 1971 000c 00000000 		.word	mtx5_execute
 1972              		.section	.rodata.testmtx6,"a",%progbits
 1973              		.align	2
 1974              		.type	testmtx6, %object
 1975              		.size	testmtx6, 16
 1976              	testmtx6:
 1977 0000 4C000000 		.word	.LC9
 1978 0004 00000000 		.word	mtx6_setup
 1979 0008 00000000 		.word	0
 1980 000c 00000000 		.word	mtx6_execute
 1981              		.section	.rodata.testmtx7,"a",%progbits
 1982              		.align	2
 1983              		.type	testmtx7, %object
 1984              		.size	testmtx7, 16
 1985              	testmtx7:
 1986 0000 34000000 		.word	.LC8
 1987 0004 00000000 		.word	mtx7_setup
 1988 0008 00000000 		.word	0
 1989 000c 00000000 		.word	mtx7_execute
 1990              		.section	.rodata.testmtx8,"a",%progbits
 1991              		.align	2
 1992              		.type	testmtx8, %object
ARM GAS  C:\Users\jo\AppData\Local\Temp\ccsPgMdz.s 			page 36


 1993              		.size	testmtx8, 16
 1994              	testmtx8:
 1995 0000 20000000 		.word	.LC7
 1996 0004 00000000 		.word	mtx8_setup
 1997 0008 00000000 		.word	0
 1998 000c 00000000 		.word	mtx8_execute
 1999              		.section	.data.m1,"aw",%progbits
 2000              		.align	2
 2001              		.set	.LANCHOR0,. + 0
 2002              		.type	m1, %object
 2003              		.size	m1, 16
 2004              	m1:
 2005 0000 00000000 		.word	m1
 2006 0004 00000000 		.word	m1
 2007 0008 00000000 		.word	0
 2008 000c 00000000 		.word	0
 2009              		.section	.data.m2,"aw",%progbits
 2010              		.align	2
 2011              		.set	.LANCHOR1,. + 0
 2012              		.type	m2, %object
 2013              		.size	m2, 16
 2014              	m2:
 2015 0000 00000000 		.word	m2
 2016 0004 00000000 		.word	m2
 2017 0008 00000000 		.word	0
 2018 000c 00000000 		.word	0
 2019              		.section	.rodata.str1.4,"aMS",%progbits,1
 2020              		.align	2
 2021              	.LC0:
 2022 0000 4500     		.ascii	"E\000"
 2023 0002 0000     		.space	2
 2024              	.LC1:
 2025 0004 4400     		.ascii	"D\000"
 2026 0006 0000     		.space	2
 2027              	.LC2:
 2028 0008 4300     		.ascii	"C\000"
 2029 000a 0000     		.space	2
 2030              	.LC3:
 2031 000c 4200     		.ascii	"B\000"
 2032 000e 0000     		.space	2
 2033              	.LC4:
 2034 0010 4100     		.ascii	"A\000"
 2035 0012 0000     		.space	2
 2036              	.LC5:
 2037 0014 41424344 		.ascii	"ABCDE\000"
 2037      4500
 2038 001a 0000     		.space	2
 2039              	.LC6:
 2040 001c 41424300 		.ascii	"ABC\000"
 2041              	.LC7:
 2042 0020 436F6E64 		.ascii	"CondVar, boost test\000"
 2042      5661722C 
 2042      20626F6F 
 2042      73742074 
 2042      65737400 
 2043              	.LC8:
 2044 0034 436F6E64 		.ascii	"CondVar, broadcast test\000"
ARM GAS  C:\Users\jo\AppData\Local\Temp\ccsPgMdz.s 			page 37


 2044      5661722C 
 2044      2062726F 
 2044      61646361 
 2044      73742074 
 2045              	.LC9:
 2046 004c 436F6E64 		.ascii	"CondVar, signal test\000"
 2046      5661722C 
 2046      20736967 
 2046      6E616C20 
 2046      74657374 
 2047 0061 000000   		.space	3
 2048              	.LC10:
 2049 0064 4D757465 		.ascii	"Mutexes, status\000"
 2049      7865732C 
 2049      20737461 
 2049      74757300 
 2050              	.LC11:
 2051 0074 4D757465 		.ascii	"Mutexes, priority return\000"
 2051      7865732C 
 2051      20707269 
 2051      6F726974 
 2051      79207265 
 2052 008d 000000   		.space	3
 2053              	.LC12:
 2054 0090 4D757465 		.ascii	"Mutexes, priority enqueuing test\000"
 2054      7865732C 
 2054      20707269 
 2054      6F726974 
 2054      7920656E 
 2055 00b1 000000   		.section	.rodata.__func__.5854,"a",%progbits
 2056              		.align	2
 2057              		.set	.LANCHOR2,. + 0
 2058              		.type	__func__.5854, %object
 2059              		.size	__func__.5854, 12
 2060              	__func__.5854:
 2061 0000 63685379 		.ascii	"chSysUnlock\000"
 2061      73556E6C 
 2061      6F636B00 
 2062              		.section	.rodata.patternmtx,"a",%progbits
 2063              		.align	2
 2064              		.type	patternmtx, %object
 2065              		.size	patternmtx, 28
 2066              	patternmtx:
 2067 0000 00000000 		.word	testmtx1
 2068 0004 00000000 		.word	testmtx4
 2069 0008 00000000 		.word	testmtx5
 2070 000c 00000000 		.word	testmtx6
 2071 0010 00000000 		.word	testmtx7
 2072 0014 00000000 		.word	testmtx8
 2073 0018 00000000 		.word	0
 2074              		.section	.data.c1,"aw",%progbits
 2075              		.align	2
 2076              		.set	.LANCHOR3,. + 0
 2077              		.type	c1, %object
 2078              		.size	c1, 8
 2079              	c1:
 2080 0000 00000000 		.word	c1
ARM GAS  C:\Users\jo\AppData\Local\Temp\ccsPgMdz.s 			page 38


 2081 0004 00000000 		.word	c1
 2082              		.section	.rodata.testmtx1,"a",%progbits
 2083              		.align	2
 2084              		.type	testmtx1, %object
 2085              		.size	testmtx1, 16
 2086              	testmtx1:
 2087 0000 90000000 		.word	.LC12
 2088 0004 00000000 		.word	mtx1_setup
 2089 0008 00000000 		.word	0
 2090 000c 00000000 		.word	mtx1_execute
 2091              		.section	.rodata.testmtx4,"a",%progbits
 2092              		.align	2
 2093              		.type	testmtx4, %object
 2094              		.size	testmtx4, 16
 2095              	testmtx4:
 2096 0000 74000000 		.word	.LC11
 2097 0004 00000000 		.word	mtx4_setup
 2098 0008 00000000 		.word	0
 2099 000c 00000000 		.word	mtx4_execute
 2100              		.text
 2101              	.Letext0:
 2102              		.file 6 "c:\\program files\\gnu tools arm embedded\\4.9 2014q4\\lib\\gcc\\arm-none-eabi\\4.9.3\\in
 2103              		.file 7 "c:\\program files\\gnu tools arm embedded\\4.9 2014q4\\arm-none-eabi\\include\\machine\\_
 2104              		.file 8 "c:\\program files\\gnu tools arm embedded\\4.9 2014q4\\arm-none-eabi\\include\\stdint.h"
 2105              		.file 9 "../../../os/rt/ports/ARMCMx/compilers/GCC/chtypes.h"
 2106              		.file 10 "../../../os/rt/include/chsystypes.h"
 2107              		.file 11 "../../../os/rt/ports/ARMCMx/chcore.h"
 2108              		.file 12 "../../../os/rt/ports/ARMCMx/chcore_v7m.h"
 2109              		.file 13 "../../../os/rt/include/chdebug.h"
 2110              		.file 14 "../../../os/rt/include/chtm.h"
 2111              		.file 15 "../../../os/rt/include/chsem.h"
 2112              		.file 16 "../../../os/rt/include/chmtx.h"
 2113              		.file 17 "../../../os/rt/include/chcond.h"
 2114              		.file 18 "../../../test/rt/test.h"
 2115              		.file 19 "../../../os/ext/CMSIS/include/core_cm4.h"