ARM GAS  C:\Users\jo\AppData\Local\Temp\cchY7Vws.s 			page 1


   1              		.syntax unified
   2              		.cpu cortex-m4
   3              		.fpu softvfp
   4              		.eabi_attribute 20, 1
   5              		.eabi_attribute 21, 1
   6              		.eabi_attribute 23, 3
   7              		.eabi_attribute 24, 1
   8              		.eabi_attribute 25, 1
   9              		.eabi_attribute 26, 1
  10              		.eabi_attribute 30, 2
  11              		.eabi_attribute 34, 1
  12              		.eabi_attribute 18, 4
  13              		.thumb
  14              		.file	"timers.c"
  15              		.text
  16              	.Ltext0:
  17              		.cfi_sections	.debug_frame
  18              		.section	.text.chprintf.constprop.0,"ax",%progbits
  19              		.align	2
  20              		.p2align 4,,15
  21              		.thumb
  22              		.thumb_func
  23              		.type	chprintf.constprop.0, %function
  24              	chprintf.constprop.0:
  25              	.LFB268:
  26              		.file 1 "../../../os/hal/lib/streams/chprintf.h"
  27              		.loc 1 69 0
  28              		.cfi_startproc
  29              		@ args = 4, pretend = 12, frame = 8
  30              		@ frame_needed = 0, uses_anonymous_args = 1
  31              	.LVL0:
  32 0000 0EB4     		push	{r1, r2, r3}
  33              		.cfi_def_cfa_offset 12
  34              		.cfi_offset 1, -12
  35              		.cfi_offset 2, -8
  36              		.cfi_offset 3, -4
  37 0002 00B5     		push	{lr}
  38              		.cfi_def_cfa_offset 16
  39              		.cfi_offset 14, -16
  40 0004 82B0     		sub	sp, sp, #8
  41              		.cfi_def_cfa_offset 24
  42              		.loc 1 73 0
  43 0006 04AB     		add	r3, sp, #16
  44              		.loc 1 74 0
  45 0008 1A46     		mov	r2, r3
  46 000a 0549     		ldr	r1, .L3
  47 000c 0548     		ldr	r0, .L3+4
  48              	.LVL1:
  49              		.loc 1 73 0
  50 000e 0193     		str	r3, [sp, #4]
  51              		.loc 1 74 0
  52 0010 FFF7FEFF 		bl	chvprintf
  53              	.LVL2:
  54              		.loc 1 78 0
  55 0014 02B0     		add	sp, sp, #8
  56              		.cfi_def_cfa_offset 16
  57              		@ sp needed
ARM GAS  C:\Users\jo\AppData\Local\Temp\cchY7Vws.s 			page 2


  58 0016 5DF804EB 		ldr	lr, [sp], #4
  59              		.cfi_restore 14
  60              		.cfi_def_cfa_offset 12
  61 001a 03B0     		add	sp, sp, #12
  62              		.cfi_restore 3
  63              		.cfi_restore 2
  64              		.cfi_restore 1
  65              		.cfi_def_cfa_offset 0
  66 001c 7047     		bx	lr
  67              	.L4:
  68 001e 00BF     		.align	2
  69              	.L3:
  70 0020 00000000 		.word	.LC0
  71 0024 00000000 		.word	itm_port
  72              		.cfi_endproc
  73              	.LFE268:
  74              		.size	chprintf.constprop.0, .-chprintf.constprop.0
  75 0028 AFF30080 		.section	.text.sys_timeout,"ax",%progbits
  75      AFF30080 
  76              		.align	2
  77              		.p2align 4,,15
  78              		.global	sys_timeout
  79              		.thumb
  80              		.thumb_func
  81              		.type	sys_timeout, %function
  82              	sys_timeout:
  83              	.LFB265:
  84              		.file 2 "../../../ext/lwip/src/core/timers.c"
  85              		.loc 2 268 0
  86              		.cfi_startproc
  87              		@ args = 0, pretend = 0, frame = 0
  88              		@ frame_needed = 0, uses_anonymous_args = 0
  89              	.LVL3:
  90 0000 F0B5     		push	{r4, r5, r6, r7, lr}
  91              		.cfi_def_cfa_offset 20
  92              		.cfi_offset 4, -20
  93              		.cfi_offset 5, -16
  94              		.cfi_offset 6, -12
  95              		.cfi_offset 7, -8
  96              		.cfi_offset 14, -4
  97              		.loc 2 271 0
  98 0002 1F4B     		ldr	r3, .L24
  99              		.loc 2 268 0
 100 0004 83B0     		sub	sp, sp, #12
 101              		.cfi_def_cfa_offset 32
 102              		.loc 2 268 0
 103 0006 0446     		mov	r4, r0
 104              		.loc 2 271 0
 105 0008 988A     		ldrh	r0, [r3, #20]
 106              	.LVL4:
 107              		.loc 2 268 0
 108 000a 0D46     		mov	r5, r1
 109 000c 1746     		mov	r7, r2
 110              		.loc 2 271 0
 111 000e FFF7FEFF 		bl	malloc
 112              	.LVL5:
 113              		.loc 2 272 0
ARM GAS  C:\Users\jo\AppData\Local\Temp\cchY7Vws.s 			page 3


 114 0012 30B3     		cbz	r0, .L20
 115              		.loc 2 286 0
 116 0014 1B4E     		ldr	r6, .L24+4
 117              		.loc 2 277 0
 118 0016 8560     		str	r5, [r0, #8]
 119              		.loc 2 286 0
 120 0018 3568     		ldr	r5, [r6]
 121              	.LVL6:
 122              		.loc 2 278 0
 123 001a C760     		str	r7, [r0, #12]
 124              		.loc 2 276 0
 125 001c 0023     		movs	r3, #0
 126 001e 80E81800 		stmia	r0, {r3, r4}
 127              		.loc 2 286 0
 128 0022 E5B1     		cbz	r5, .L21
 129              		.loc 2 291 0
 130 0024 6968     		ldr	r1, [r5, #4]
 131 0026 8C42     		cmp	r4, r1
 132 0028 0ED3     		bcc	.L22
 133              		.loc 2 291 0 is_stmt 0 discriminator 1
 134 002a 2346     		mov	r3, r4
 135 002c 03E0     		b	.L11
 136              	.LVL7:
 137              	.L17:
 138              		.loc 2 298 0 is_stmt 1 discriminator 1
 139 002e 5168     		ldr	r1, [r2, #4]
 140 0030 8B42     		cmp	r3, r1
 141 0032 0FD3     		bcc	.L10
 142 0034 1546     		mov	r5, r2
 143              	.LVL8:
 144              	.L11:
 145 0036 2A68     		ldr	r2, [r5]
 146              		.loc 2 297 0 discriminator 1
 147 0038 5B1A     		subs	r3, r3, r1
 148 003a 4360     		str	r3, [r0, #4]
 149              		.loc 2 298 0 discriminator 1
 150 003c 002A     		cmp	r2, #0
 151 003e F6D1     		bne	.L17
 152              		.loc 2 302 0
 153 0040 0260     		str	r2, [r0]
 154              		.loc 2 303 0
 155 0042 2860     		str	r0, [r5]
 156              	.L23:
 157              		.loc 2 308 0
 158 0044 03B0     		add	sp, sp, #12
 159              		.cfi_remember_state
 160              		.cfi_def_cfa_offset 20
 161              		@ sp needed
 162 0046 F0BD     		pop	{r4, r5, r6, r7, pc}
 163              	.LVL9:
 164              	.L22:
 165              		.cfi_restore_state
 166              		.loc 2 292 0
 167 0048 0B1B     		subs	r3, r1, r4
 168 004a 6B60     		str	r3, [r5, #4]
 169              		.loc 2 294 0
 170 004c 3060     		str	r0, [r6]
ARM GAS  C:\Users\jo\AppData\Local\Temp\cchY7Vws.s 			page 4


 171              		.loc 2 293 0
 172 004e 0560     		str	r5, [r0]
 173              	.L5:
 174              		.loc 2 308 0
 175 0050 03B0     		add	sp, sp, #12
 176              		.cfi_remember_state
 177              		.cfi_def_cfa_offset 20
 178              		@ sp needed
 179 0052 F0BD     		pop	{r4, r5, r6, r7, pc}
 180              	.LVL10:
 181              	.L10:
 182              		.cfi_restore_state
 183              		.loc 2 300 0
 184 0054 CB1A     		subs	r3, r1, r3
 185 0056 5360     		str	r3, [r2, #4]
 186              		.loc 2 302 0
 187 0058 0260     		str	r2, [r0]
 188              		.loc 2 303 0
 189 005a 2860     		str	r0, [r5]
 190 005c F2E7     		b	.L23
 191              	.LVL11:
 192              	.L21:
 193              		.loc 2 287 0
 194 005e 3060     		str	r0, [r6]
 195              		.loc 2 288 0
 196 0060 F6E7     		b	.L5
 197              	.LVL12:
 198              	.L20:
 199              		.loc 2 273 0 discriminator 1
 200 0062 094B     		ldr	r3, .L24+8
 201 0064 0093     		str	r3, [sp]
 202 0066 0949     		ldr	r1, .L24+12
 203 0068 094A     		ldr	r2, .L24+16
 204 006a 0A48     		ldr	r0, .L24+20
 205              	.LVL13:
 206 006c 40F21113 		movw	r3, #273
 207 0070 FFF7FEFF 		bl	chprintf.constprop.0
 208              	.LVL14:
 209              	.LBB4:
 210              	.LBB5:
 211              		.file 3 "../../../os/hal/osal/rt/osal.h"
 212              		.loc 3 416 0 discriminator 1
 213 0074 0648     		ldr	r0, .L24+16
 214              	.LBE5:
 215              	.LBE4:
 216              		.loc 2 308 0 discriminator 1
 217 0076 03B0     		add	sp, sp, #12
 218              		.cfi_def_cfa_offset 20
 219              		@ sp needed
 220 0078 BDE8F040 		pop	{r4, r5, r6, r7, lr}
 221              		.cfi_restore 14
 222              		.cfi_restore 7
 223              		.cfi_restore 6
 224              		.cfi_restore 5
 225              		.cfi_restore 4
 226              		.cfi_def_cfa_offset 0
 227              	.LVL15:
ARM GAS  C:\Users\jo\AppData\Local\Temp\cchY7Vws.s 			page 5


 228              	.LBB7:
 229              	.LBB6:
 230              		.loc 3 416 0 discriminator 1
 231 007c FFF7FEBF 		b	chSysHalt
 232              	.LVL16:
 233              	.L25:
 234              		.align	2
 235              	.L24:
 236 0080 00000000 		.word	memp_sizes
 237 0084 00000000 		.word	.LANCHOR0
 238 0088 68000000 		.word	.LC2
 239 008c 00000000 		.word	.LC0
 240 0090 28000000 		.word	.LC1
 241 0094 00000000 		.word	itm_port
 242              	.LBE6:
 243              	.LBE7:
 244              		.cfi_endproc
 245              	.LFE265:
 246              		.size	sys_timeout, .-sys_timeout
 247 0098 AFF30080 		.section	.text.tcp_timer_needed,"ax",%progbits
 247      AFF30080 
 248              		.align	2
 249              		.p2align 4,,15
 250              		.global	tcp_timer_needed
 251              		.thumb
 252              		.thumb_func
 253              		.type	tcp_timer_needed, %function
 254              	tcp_timer_needed:
 255              	.LFB261:
 256              		.loc 2 102 0
 257              		.cfi_startproc
 258              		@ args = 0, pretend = 0, frame = 0
 259              		@ frame_needed = 0, uses_anonymous_args = 0
 260              		@ link register save eliminated.
 261              		.loc 2 104 0
 262 0000 084B     		ldr	r3, .L33
 263 0002 1A68     		ldr	r2, [r3]
 264 0004 6AB9     		cbnz	r2, .L26
 265              		.loc 2 104 0 is_stmt 0 discriminator 1
 266 0006 084A     		ldr	r2, .L33+4
 267 0008 1268     		ldr	r2, [r2]
 268 000a 32B1     		cbz	r2, .L32
 269              	.L28:
 270              		.loc 2 106 0 is_stmt 1
 271 000c 0122     		movs	r2, #1
 272 000e 1A60     		str	r2, [r3]
 273              		.loc 2 107 0
 274 0010 FA20     		movs	r0, #250
 275 0012 0649     		ldr	r1, .L33+8
 276 0014 0022     		movs	r2, #0
 277 0016 FFF7FEBF 		b	sys_timeout
 278              	.LVL17:
 279              	.L32:
 280              		.loc 2 104 0 discriminator 2
 281 001a 054A     		ldr	r2, .L33+12
 282 001c 1268     		ldr	r2, [r2]
 283 001e 002A     		cmp	r2, #0
ARM GAS  C:\Users\jo\AppData\Local\Temp\cchY7Vws.s 			page 6


 284 0020 F4D1     		bne	.L28
 285              	.L26:
 286 0022 7047     		bx	lr
 287              	.L34:
 288              		.align	2
 289              	.L33:
 290 0024 00000000 		.word	.LANCHOR1
 291 0028 00000000 		.word	tcp_active_pcbs
 292 002c 00000000 		.word	tcpip_tcp_timer
 293 0030 00000000 		.word	tcp_tw_pcbs
 294              		.cfi_endproc
 295              	.LFE261:
 296              		.size	tcp_timer_needed, .-tcp_timer_needed
 297 0034 AFF30080 		.section	.text.tcpip_tcp_timer,"ax",%progbits
 297      AFF30080 
 297      AFF30080 
 298              		.align	2
 299              		.p2align 4,,15
 300              		.thumb
 301              		.thumb_func
 302              		.type	tcpip_tcp_timer, %function
 303              	tcpip_tcp_timer:
 304              	.LFB260:
 305              		.loc 2 80 0
 306              		.cfi_startproc
 307              		@ args = 0, pretend = 0, frame = 0
 308              		@ frame_needed = 0, uses_anonymous_args = 0
 309              	.LVL18:
 310 0000 08B5     		push	{r3, lr}
 311              		.cfi_def_cfa_offset 8
 312              		.cfi_offset 3, -8
 313              		.cfi_offset 14, -4
 314              		.loc 2 84 0
 315 0002 FFF7FEFF 		bl	tcp_tmr
 316              	.LVL19:
 317              		.loc 2 86 0
 318 0006 084B     		ldr	r3, .L40
 319 0008 1B68     		ldr	r3, [r3]
 320 000a 33B1     		cbz	r3, .L39
 321              	.L36:
 322              		.loc 2 88 0
 323 000c FA20     		movs	r0, #250
 324 000e 0749     		ldr	r1, .L40+4
 325 0010 0022     		movs	r2, #0
 326              		.loc 2 93 0
 327 0012 BDE80840 		pop	{r3, lr}
 328              		.cfi_remember_state
 329              		.cfi_restore 14
 330              		.cfi_restore 3
 331              		.cfi_def_cfa_offset 0
 332              		.loc 2 88 0
 333 0016 FFF7FEBF 		b	sys_timeout
 334              	.LVL20:
 335              	.L39:
 336              		.cfi_restore_state
 337              		.loc 2 86 0 discriminator 1
 338 001a 054B     		ldr	r3, .L40+8
ARM GAS  C:\Users\jo\AppData\Local\Temp\cchY7Vws.s 			page 7


 339 001c 1B68     		ldr	r3, [r3]
 340 001e 002B     		cmp	r3, #0
 341 0020 F4D1     		bne	.L36
 342              		.loc 2 91 0
 343 0022 044A     		ldr	r2, .L40+12
 344 0024 1360     		str	r3, [r2]
 345 0026 08BD     		pop	{r3, pc}
 346              	.L41:
 347              		.align	2
 348              	.L40:
 349 0028 00000000 		.word	tcp_active_pcbs
 350 002c 00000000 		.word	tcpip_tcp_timer
 351 0030 00000000 		.word	tcp_tw_pcbs
 352 0034 00000000 		.word	.LANCHOR1
 353              		.cfi_endproc
 354              	.LFE260:
 355              		.size	tcpip_tcp_timer, .-tcpip_tcp_timer
 356 0038 AFF30080 		.section	.text.sys_timeouts_init,"ax",%progbits
 356      AFF30080 
 357              		.align	2
 358              		.p2align 4,,15
 359              		.global	sys_timeouts_init
 360              		.thumb
 361              		.thumb_func
 362              		.type	sys_timeouts_init, %function
 363              	sys_timeouts_init:
 364              	.LFB264:
 365              		.loc 2 224 0
 366              		.cfi_startproc
 367              		@ args = 0, pretend = 0, frame = 0
 368              		@ frame_needed = 0, uses_anonymous_args = 0
 369 0000 08B5     		push	{r3, lr}
 370              		.cfi_def_cfa_offset 8
 371              		.cfi_offset 3, -8
 372              		.cfi_offset 14, -4
 373              		.loc 2 226 0
 374 0002 4FF47A70 		mov	r0, #1000
 375 0006 0649     		ldr	r1, .L44
 376 0008 0022     		movs	r2, #0
 377 000a FFF7FEFF 		bl	sys_timeout
 378              	.LVL21:
 379              		.loc 2 229 0
 380 000e 41F28830 		movw	r0, #5000
 381 0012 0449     		ldr	r1, .L44+4
 382 0014 0022     		movs	r2, #0
 383              		.loc 2 249 0
 384 0016 BDE80840 		pop	{r3, lr}
 385              		.cfi_restore 14
 386              		.cfi_restore 3
 387              		.cfi_def_cfa_offset 0
 388              		.loc 2 229 0
 389 001a FFF7FEBF 		b	sys_timeout
 390              	.LVL22:
 391              	.L45:
 392 001e 00BF     		.align	2
 393              	.L44:
 394 0020 00000000 		.word	ip_reass_timer
ARM GAS  C:\Users\jo\AppData\Local\Temp\cchY7Vws.s 			page 8


 395 0024 00000000 		.word	arp_timer
 396              		.cfi_endproc
 397              	.LFE264:
 398              		.size	sys_timeouts_init, .-sys_timeouts_init
 399 0028 AFF30080 		.section	.text.arp_timer,"ax",%progbits
 399      AFF30080 
 400              		.align	2
 401              		.p2align 4,,15
 402              		.thumb
 403              		.thumb_func
 404              		.type	arp_timer, %function
 405              	arp_timer:
 406              	.LFB263:
 407              		.loc 2 136 0
 408              		.cfi_startproc
 409              		@ args = 0, pretend = 0, frame = 0
 410              		@ frame_needed = 0, uses_anonymous_args = 0
 411              	.LVL23:
 412 0000 08B5     		push	{r3, lr}
 413              		.cfi_def_cfa_offset 8
 414              		.cfi_offset 3, -8
 415              		.cfi_offset 14, -4
 416              		.loc 2 139 0
 417 0002 FFF7FEFF 		bl	etharp_tmr
 418              	.LVL24:
 419              		.loc 2 140 0
 420 0006 41F28830 		movw	r0, #5000
 421 000a 0349     		ldr	r1, .L48
 422 000c 0022     		movs	r2, #0
 423              		.loc 2 141 0
 424 000e BDE80840 		pop	{r3, lr}
 425              		.cfi_restore 14
 426              		.cfi_restore 3
 427              		.cfi_def_cfa_offset 0
 428              		.loc 2 140 0
 429 0012 FFF7FEBF 		b	sys_timeout
 430              	.LVL25:
 431              	.L49:
 432 0016 00BF     		.align	2
 433              	.L48:
 434 0018 00000000 		.word	arp_timer
 435              		.cfi_endproc
 436              	.LFE263:
 437              		.size	arp_timer, .-arp_timer
 438 001c AFF30080 		.section	.text.ip_reass_timer,"ax",%progbits
 439              		.align	2
 440              		.p2align 4,,15
 441              		.thumb
 442              		.thumb_func
 443              		.type	ip_reass_timer, %function
 444              	ip_reass_timer:
 445              	.LFB262:
 446              		.loc 2 120 0
 447              		.cfi_startproc
 448              		@ args = 0, pretend = 0, frame = 0
 449              		@ frame_needed = 0, uses_anonymous_args = 0
 450              	.LVL26:
ARM GAS  C:\Users\jo\AppData\Local\Temp\cchY7Vws.s 			page 9


 451 0000 08B5     		push	{r3, lr}
 452              		.cfi_def_cfa_offset 8
 453              		.cfi_offset 3, -8
 454              		.cfi_offset 14, -4
 455              		.loc 2 123 0
 456 0002 FFF7FEFF 		bl	ip_reass_tmr
 457              	.LVL27:
 458              		.loc 2 124 0
 459 0006 4FF47A70 		mov	r0, #1000
 460 000a 0349     		ldr	r1, .L52
 461 000c 0022     		movs	r2, #0
 462              		.loc 2 125 0
 463 000e BDE80840 		pop	{r3, lr}
 464              		.cfi_restore 14
 465              		.cfi_restore 3
 466              		.cfi_def_cfa_offset 0
 467              		.loc 2 124 0
 468 0012 FFF7FEBF 		b	sys_timeout
 469              	.LVL28:
 470              	.L53:
 471 0016 00BF     		.align	2
 472              	.L52:
 473 0018 00000000 		.word	ip_reass_timer
 474              		.cfi_endproc
 475              	.LFE262:
 476              		.size	ip_reass_timer, .-ip_reass_timer
 477 001c AFF30080 		.section	.text.sys_untimeout,"ax",%progbits
 478              		.align	2
 479              		.p2align 4,,15
 480              		.global	sys_untimeout
 481              		.thumb
 482              		.thumb_func
 483              		.type	sys_untimeout, %function
 484              	sys_untimeout:
 485              	.LFB266:
 486              		.loc 2 322 0
 487              		.cfi_startproc
 488              		@ args = 0, pretend = 0, frame = 0
 489              		@ frame_needed = 0, uses_anonymous_args = 0
 490              		@ link register save eliminated.
 491              	.LVL29:
 492 0000 30B4     		push	{r4, r5}
 493              		.cfi_def_cfa_offset 8
 494              		.cfi_offset 4, -8
 495              		.cfi_offset 5, -4
 496              		.loc 2 325 0
 497 0002 104D     		ldr	r5, .L70
 498 0004 2B68     		ldr	r3, [r5]
 499 0006 C3B1     		cbz	r3, .L54
 500 0008 0024     		movs	r4, #0
 501 000a 03E0     		b	.L60
 502              	.LVL30:
 503              	.L56:
 504              		.loc 2 329 0 discriminator 2
 505 000c 1A68     		ldr	r2, [r3]
 506              	.LVL31:
 507 000e 1C46     		mov	r4, r3
ARM GAS  C:\Users\jo\AppData\Local\Temp\cchY7Vws.s 			page 10


 508 0010 9AB1     		cbz	r2, .L54
 509 0012 1346     		mov	r3, r2
 510              	.LVL32:
 511              	.L60:
 512              		.loc 2 330 0
 513 0014 9A68     		ldr	r2, [r3, #8]
 514 0016 8242     		cmp	r2, r0
 515 0018 F8D1     		bne	.L56
 516              		.loc 2 330 0 is_stmt 0 discriminator 1
 517 001a DA68     		ldr	r2, [r3, #12]
 518 001c 8A42     		cmp	r2, r1
 519 001e F5D1     		bne	.L56
 520              		.loc 2 334 0 is_stmt 1
 521 0020 1A68     		ldr	r2, [r3]
 522              		.loc 2 333 0
 523 0022 64B1     		cbz	r4, .L69
 524              		.loc 2 336 0
 525 0024 2260     		str	r2, [r4]
 526 0026 1A68     		ldr	r2, [r3]
 527              	.L58:
 528              		.loc 2 339 0
 529 0028 1AB1     		cbz	r2, .L59
 530              		.loc 2 340 0
 531 002a 5068     		ldr	r0, [r2, #4]
 532              	.LVL33:
 533 002c 5968     		ldr	r1, [r3, #4]
 534              	.LVL34:
 535 002e 0144     		add	r1, r1, r0
 536 0030 5160     		str	r1, [r2, #4]
 537              	.L59:
 538              		.loc 2 342 0
 539 0032 1846     		mov	r0, r3
 540              		.loc 2 347 0
 541 0034 30BC     		pop	{r4, r5}
 542              		.cfi_remember_state
 543              		.cfi_restore 5
 544              		.cfi_restore 4
 545              		.cfi_def_cfa_offset 0
 546              		.loc 2 342 0
 547 0036 FFF7FEBF 		b	free
 548              	.LVL35:
 549              	.L54:
 550              		.cfi_restore_state
 551              		.loc 2 347 0
 552 003a 30BC     		pop	{r4, r5}
 553              		.cfi_remember_state
 554              		.cfi_restore 5
 555              		.cfi_restore 4
 556              		.cfi_def_cfa_offset 0
 557 003c 7047     		bx	lr
 558              	.LVL36:
 559              	.L69:
 560              		.cfi_restore_state
 561              		.loc 2 334 0
 562 003e 2A60     		str	r2, [r5]
 563 0040 F2E7     		b	.L58
 564              	.L71:
ARM GAS  C:\Users\jo\AppData\Local\Temp\cchY7Vws.s 			page 11


 565 0042 00BF     		.align	2
 566              	.L70:
 567 0044 00000000 		.word	.LANCHOR0
 568              		.cfi_endproc
 569              	.LFE266:
 570              		.size	sys_untimeout, .-sys_untimeout
 571 0048 AFF30080 		.section	.text.sys_timeouts_mbox_fetch,"ax",%progbits
 571      AFF30080 
 572              		.align	2
 573              		.p2align 4,,15
 574              		.global	sys_timeouts_mbox_fetch
 575              		.thumb
 576              		.thumb_func
 577              		.type	sys_timeouts_mbox_fetch, %function
 578              	sys_timeouts_mbox_fetch:
 579              	.LFB267:
 580              		.loc 2 424 0
 581              		.cfi_startproc
 582              		@ args = 0, pretend = 0, frame = 0
 583              		@ frame_needed = 0, uses_anonymous_args = 0
 584              	.LVL37:
 585 0000 2DE9F843 		push	{r3, r4, r5, r6, r7, r8, r9, lr}
 586              		.cfi_def_cfa_offset 32
 587              		.cfi_offset 3, -32
 588              		.cfi_offset 4, -28
 589              		.cfi_offset 5, -24
 590              		.cfi_offset 6, -20
 591              		.cfi_offset 7, -16
 592              		.cfi_offset 8, -12
 593              		.cfi_offset 9, -8
 594              		.cfi_offset 14, -4
 595 0004 154E     		ldr	r6, .L86
 596              		.loc 2 424 0
 597 0006 8146     		mov	r9, r0
 598 0008 8846     		mov	r8, r1
 599              	.LVL38:
 600              	.L73:
 601 000a 3468     		ldr	r4, [r6]
 602              	.L77:
 603              		.loc 2 431 0
 604 000c B4B1     		cbz	r4, .L84
 605              		.loc 2 434 0
 606 000e 6268     		ldr	r2, [r4, #4]
 607 0010 62B9     		cbnz	r2, .L85
 608 0012 2346     		mov	r3, r4
 609              	.L75:
 610              	.LVL39:
 611              		.loc 2 446 0
 612 0014 9D68     		ldr	r5, [r3, #8]
 613              	.LVL40:
 614              		.loc 2 445 0
 615 0016 1C68     		ldr	r4, [r3]
 616 0018 3460     		str	r4, [r6]
 617              		.loc 2 454 0
 618 001a 1846     		mov	r0, r3
 619              		.loc 2 447 0
 620 001c DF68     		ldr	r7, [r3, #12]
ARM GAS  C:\Users\jo\AppData\Local\Temp\cchY7Vws.s 			page 12


 621              	.LVL41:
 622              		.loc 2 454 0
 623 001e FFF7FEFF 		bl	free
 624              	.LVL42:
 625              		.loc 2 455 0
 626 0022 002D     		cmp	r5, #0
 627 0024 F2D0     		beq	.L77
 628              		.loc 2 459 0
 629 0026 3846     		mov	r0, r7
 630 0028 A847     		blx	r5
 631              	.LVL43:
 632 002a EEE7     		b	.L73
 633              	.LVL44:
 634              	.L85:
 635              		.loc 2 435 0
 636 002c 4846     		mov	r0, r9
 637 002e 4146     		mov	r1, r8
 638 0030 FFF7FEFF 		bl	sys_arch_mbox_fetch
 639              	.LVL45:
 640              		.loc 2 440 0
 641 0034 431C     		adds	r3, r0, #1
 642 0036 08D1     		bne	.L76
 643 0038 3368     		ldr	r3, [r6]
 644 003a EBE7     		b	.L75
 645              	.LVL46:
 646              	.L84:
 647              		.loc 2 432 0
 648 003c 4846     		mov	r0, r9
 649 003e 4146     		mov	r1, r8
 650 0040 2246     		mov	r2, r4
 651              		.loc 2 477 0
 652 0042 BDE8F843 		pop	{r3, r4, r5, r6, r7, r8, r9, lr}
 653              		.cfi_remember_state
 654              		.cfi_restore 14
 655              		.cfi_restore 9
 656              		.cfi_restore 8
 657              		.cfi_restore 7
 658              		.cfi_restore 6
 659              		.cfi_restore 5
 660              		.cfi_restore 4
 661              		.cfi_restore 3
 662              		.cfi_def_cfa_offset 0
 663              	.LVL47:
 664              		.loc 2 432 0
 665 0046 FFF7FEBF 		b	sys_arch_mbox_fetch
 666              	.LVL48:
 667              	.L76:
 668              		.cfi_restore_state
 669              		.loc 2 470 0
 670 004a 3268     		ldr	r2, [r6]
 671 004c 5368     		ldr	r3, [r2, #4]
 672 004e 8342     		cmp	r3, r0
 673              		.loc 2 471 0
 674 0050 8CBF     		ite	hi
 675 0052 1B1A     		subhi	r3, r3, r0
 676              		.loc 2 473 0
 677 0054 0023     		movls	r3, #0
ARM GAS  C:\Users\jo\AppData\Local\Temp\cchY7Vws.s 			page 13


 678 0056 5360     		str	r3, [r2, #4]
 679 0058 BDE8F883 		pop	{r3, r4, r5, r6, r7, r8, r9, pc}
 680              	.LVL49:
 681              	.L87:
 682              		.align	2
 683              	.L86:
 684 005c 00000000 		.word	.LANCHOR0
 685              		.cfi_endproc
 686              	.LFE267:
 687              		.size	sys_timeouts_mbox_fetch, .-sys_timeouts_mbox_fetch
 688              		.section	.bss.tcpip_tcp_timer_active,"aw",%nobits
 689              		.align	2
 690              		.set	.LANCHOR1,. + 0
 691              		.type	tcpip_tcp_timer_active, %object
 692              		.size	tcpip_tcp_timer_active, 4
 693              	tcpip_tcp_timer_active:
 694 0000 00000000 		.space	4
 695              		.section	.bss.next_timeout,"aw",%nobits
 696              		.align	2
 697              		.set	.LANCHOR0,. + 0
 698              		.type	next_timeout, %object
 699              		.size	next_timeout, 4
 700              	next_timeout:
 701 0000 00000000 		.space	4
 702              		.section	.rodata.str1.4,"aMS",%progbits,1
 703              		.align	2
 704              	.LC0:
 705 0000 41737365 		.ascii	"Assertion \"%s\" failed at line %d in %s\012\000"
 705      7274696F 
 705      6E202225 
 705      73222066 
 705      61696C65 
 706              	.LC1:
 707 0028 7379735F 		.ascii	"sys_timeout: timeout != NULL, pool MEMP_SYS_TIMEOUT"
 707      74696D65 
 707      6F75743A 
 707      2074696D 
 707      656F7574 
 708 005b 20697320 		.ascii	" is empty\000"
 708      656D7074 
 708      7900
 709 0065 000000   		.space	3
 710              	.LC2:
 711 0068 2E2E2F2E 		.ascii	"../../../ext/lwip/src/core/timers.c\000"
 711      2E2F2E2E 
 711      2F657874 
 711      2F6C7769 
 711      702F7372 
 712              		.text
 713              	.Letext0:
 714              		.file 4 "c:\\program files\\gnu tools arm embedded\\4.9 2014q4\\lib\\gcc\\arm-none-eabi\\4.9.3\\in
 715              		.file 5 "c:\\program files\\gnu tools arm embedded\\4.9 2014q4\\arm-none-eabi\\include\\machine\\_
 716              		.file 6 "c:\\program files\\gnu tools arm embedded\\4.9 2014q4\\arm-none-eabi\\include\\stdint.h"
 717              		.file 7 "../../../os/rt/ports/ARMCMx/compilers/GCC/chtypes.h"
 718              		.file 8 "../../../os/rt/include/chsystypes.h"
 719              		.file 9 "../../../os/rt/include/chschd.h"
 720              		.file 10 "../../../os/rt/ports/ARMCMx/chcore.h"
ARM GAS  C:\Users\jo\AppData\Local\Temp\cchY7Vws.s 			page 14


 721              		.file 11 "../../../os/rt/ports/ARMCMx/chcore_v7m.h"
 722              		.file 12 "../../../os/rt/include/chdebug.h"
 723              		.file 13 "../../../os/rt/include/chtm.h"
 724              		.file 14 "../../../os/rt/include/chsem.h"
 725              		.file 15 "../../../os/rt/include/chmtx.h"
 726              		.file 16 "../../../os/rt/include/chmboxes.h"
 727              		.file 17 "../../../os/rt/include/chstreams.h"
 728              		.file 18 "./ITM_trace.h"
 729              		.file 19 "c:\\program files\\gnu tools arm embedded\\4.9 2014q4\\lib\\gcc\\arm-none-eabi\\4.9.3\\i
 730              		.file 20 "<built-in>"
 731              		.file 21 "../../../os/various/lwip_bindings/arch/cc.h"
 732              		.file 22 "../../../ext/lwip/src/include/lwip/err.h"
 733              		.file 23 "../../../os/various/lwip_bindings/arch/sys_arch.h"
 734              		.file 24 "../../../ext/lwip/src/include/lwip/timers.h"
 735              		.file 25 "../../../ext/lwip/src/include/lwip/pbuf.h"
 736              		.file 26 "../../../ext/lwip/src/include/ipv4/lwip/ip_addr.h"
 737              		.file 27 "../../../ext/lwip/src/include/lwip/tcp.h"
 738              		.file 28 "../../../ext/lwip/src/include/lwip/tcp_impl.h"
 739              		.file 29 "../../../os/ext/CMSIS/include/core_cm4.h"
 740              		.file 30 "../../../ext/lwip/src/include/lwip/memp.h"
 741              		.file 31 "c:\\program files\\gnu tools arm embedded\\4.9 2014q4\\arm-none-eabi\\include\\stdlib.h"
 742              		.file 32 "../../../ext/lwip/src/include/netif/etharp.h"
 743              		.file 33 "../../../ext/lwip/src/include/ipv4/lwip/ip_frag.h"
 744              		.file 34 "../../../os/rt/include/chsys.h"
 745              		.file 35 "../../../ext/lwip/src/include/lwip/sys.h"