ARM GAS  C:\Users\jo\AppData\Local\Temp\cciF2oBe.s 			page 1


   1              		.syntax unified
   2              		.cpu cortex-m4
   3              		.fpu softvfp
   4              		.eabi_attribute 20, 1
   5              		.eabi_attribute 21, 1
   6              		.eabi_attribute 23, 3
   7              		.eabi_attribute 24, 1
   8              		.eabi_attribute 25, 1
   9              		.eabi_attribute 26, 1
  10              		.eabi_attribute 30, 2
  11              		.eabi_attribute 34, 1
  12              		.eabi_attribute 18, 4
  13              		.thumb
  14              		.file	"timing.c"
  15              		.text
  16              	.Ltext0:
  17              		.cfi_sections	.debug_frame
  18              		.section	.text.sighandler,"ax",%progbits
  19              		.align	2
  20              		.p2align 4,,15
  21              		.thumb
  22              		.thumb_func
  23              		.type	sighandler, %function
  24              	sighandler:
  25              	.LFB2:
  26              		.file 1 "../../../ext/mbedtls-1.3.11/library/timing.c"
  27              		.loc 1 311 0
  28              		.cfi_startproc
  29              		@ args = 0, pretend = 0, frame = 0
  30              		@ frame_needed = 0, uses_anonymous_args = 0
  31              		@ link register save eliminated.
  32              	.LVL0:
  33              		.loc 1 312 0
  34 0000 024B     		ldr	r3, .L2
  35              		.loc 1 313 0
  36 0002 0349     		ldr	r1, .L2+4
  37              		.loc 1 312 0
  38 0004 0122     		movs	r2, #1
  39 0006 1A60     		str	r2, [r3]
  40              		.loc 1 313 0
  41 0008 FFF7FEBF 		b	signal
  42              	.LVL1:
  43              	.L3:
  44              		.align	2
  45              	.L2:
  46 000c 00000000 		.word	.LANCHOR0
  47 0010 00000000 		.word	sighandler
  48              		.cfi_endproc
  49              	.LFE2:
  50              		.size	sighandler, .-sighandler
  51 0014 AFF30080 		.section	.text.hardclock,"ax",%progbits
  51      AFF30080 
  51      AFF30080 
  52              		.align	2
  53              		.p2align 4,,15
  54              		.global	hardclock
  55              		.thumb
ARM GAS  C:\Users\jo\AppData\Local\Temp\cciF2oBe.s 			page 2


  56              		.thumb_func
  57              		.type	hardclock, %function
  58              	hardclock:
  59              	.LFB0:
  60              		.loc 1 216 0
  61              		.cfi_startproc
  62              		@ args = 0, pretend = 0, frame = 8
  63              		@ frame_needed = 0, uses_anonymous_args = 0
  64 0000 10B5     		push	{r4, lr}
  65              		.cfi_def_cfa_offset 8
  66              		.cfi_offset 4, -8
  67              		.cfi_offset 14, -4
  68              		.loc 1 219 0
  69 0002 0C4C     		ldr	r4, .L8
  70 0004 2168     		ldr	r1, [r4]
  71              		.loc 1 216 0
  72 0006 82B0     		sub	sp, sp, #8
  73              		.cfi_def_cfa_offset 16
  74              		.loc 1 219 0
  75 0008 21B9     		cbnz	r1, .L5
  76              		.loc 1 221 0
  77 000a 0B48     		ldr	r0, .L8+4
  78 000c FFF7FEFF 		bl	gettimeofday
  79              	.LVL2:
  80              		.loc 1 222 0
  81 0010 0123     		movs	r3, #1
  82 0012 2360     		str	r3, [r4]
  83              	.L5:
  84              		.loc 1 225 0
  85 0014 6846     		mov	r0, sp
  86 0016 0021     		movs	r1, #0
  87 0018 FFF7FEFF 		bl	gettimeofday
  88              	.LVL3:
  89              		.loc 1 226 0
  90 001c 064B     		ldr	r3, .L8+4
  91 001e 009A     		ldr	r2, [sp]
  92 0020 1C68     		ldr	r4, [r3]
  93              		.loc 1 227 0
  94 0022 5968     		ldr	r1, [r3, #4]
  95 0024 019B     		ldr	r3, [sp, #4]
  96              		.loc 1 226 0
  97 0026 0548     		ldr	r0, .L8+8
  98 0028 121B     		subs	r2, r2, r4
  99              		.loc 1 227 0
 100 002a 5B1A     		subs	r3, r3, r1
 101              		.loc 1 228 0
 102 002c 00FB0230 		mla	r0, r0, r2, r3
 103 0030 02B0     		add	sp, sp, #8
 104              		.cfi_def_cfa_offset 8
 105              		@ sp needed
 106 0032 10BD     		pop	{r4, pc}
 107              	.L9:
 108              		.align	2
 109              	.L8:
 110 0034 00000000 		.word	.LANCHOR1
 111 0038 00000000 		.word	.LANCHOR2
 112 003c 40420F00 		.word	1000000
ARM GAS  C:\Users\jo\AppData\Local\Temp\cciF2oBe.s 			page 3


 113              		.cfi_endproc
 114              	.LFE0:
 115              		.size	hardclock, .-hardclock
 116              		.section	.text.get_timer,"ax",%progbits
 117              		.align	2
 118              		.p2align 4,,15
 119              		.global	get_timer
 120              		.thumb
 121              		.thumb_func
 122              		.type	get_timer, %function
 123              	get_timer:
 124              	.LFB1:
 125              		.loc 1 282 0
 126              		.cfi_startproc
 127              		@ args = 0, pretend = 0, frame = 8
 128              		@ frame_needed = 0, uses_anonymous_args = 0
 129              	.LVL4:
 130 0000 30B5     		push	{r4, r5, lr}
 131              		.cfi_def_cfa_offset 12
 132              		.cfi_offset 4, -12
 133              		.cfi_offset 5, -8
 134              		.cfi_offset 14, -4
 135 0002 83B0     		sub	sp, sp, #12
 136              		.cfi_def_cfa_offset 24
 137              		.loc 1 282 0
 138 0004 0D46     		mov	r5, r1
 139 0006 0446     		mov	r4, r0
 140              	.LVL5:
 141              		.loc 1 287 0
 142 0008 0021     		movs	r1, #0
 143              	.LVL6:
 144 000a 6846     		mov	r0, sp
 145              	.LVL7:
 146 000c FFF7FEFF 		bl	gettimeofday
 147              	.LVL8:
 148              		.loc 1 289 0
 149 0010 8DB9     		cbnz	r5, .L14
 150              		.loc 1 297 0
 151 0012 019A     		ldr	r2, [sp, #4]
 152 0014 6368     		ldr	r3, [r4, #4]
 153 0016 0B4D     		ldr	r5, .L15
 154              	.LVL9:
 155              		.loc 1 296 0
 156 0018 2068     		ldr	r0, [r4]
 157 001a 0099     		ldr	r1, [sp]
 158              		.loc 1 297 0
 159 001c D31A     		subs	r3, r2, r3
 160 001e 85FB0342 		smull	r4, r2, r5, r3
 161              	.LVL10:
 162 0022 DB17     		asrs	r3, r3, #31
 163              		.loc 1 296 0
 164 0024 091A     		subs	r1, r1, r0
 165              		.loc 1 297 0
 166 0026 C3EBA213 		rsb	r3, r3, r2, asr #6
 167              		.loc 1 296 0
 168 002a 4FF47A70 		mov	r0, #1000
 169              		.loc 1 297 0
ARM GAS  C:\Users\jo\AppData\Local\Temp\cciF2oBe.s 			page 4


 170 002e 00FB0130 		mla	r0, r0, r1, r3
 171              		.loc 1 300 0
 172 0032 03B0     		add	sp, sp, #12
 173              		.cfi_remember_state
 174              		.cfi_def_cfa_offset 12
 175              		@ sp needed
 176 0034 30BD     		pop	{r4, r5, pc}
 177              	.LVL11:
 178              	.L14:
 179              		.cfi_restore_state
 180              		.loc 1 292 0
 181 0036 9DE80C00 		ldmia	sp, {r2, r3}
 182              		.loc 1 293 0
 183 003a 0020     		movs	r0, #0
 184              		.loc 1 292 0
 185 003c 84E80C00 		stmia	r4, {r2, r3}
 186              		.loc 1 300 0
 187 0040 03B0     		add	sp, sp, #12
 188              		.cfi_def_cfa_offset 12
 189              		@ sp needed
 190 0042 30BD     		pop	{r4, r5, pc}
 191              	.LVL12:
 192              	.L16:
 193              		.align	2
 194              	.L15:
 195 0044 D34D6210 		.word	274877907
 196              		.cfi_endproc
 197              	.LFE1:
 198              		.size	get_timer, .-get_timer
 199 0048 AFF30080 		.section	.text.busy_msleep,"ax",%progbits
 199      AFF30080 
 200              		.align	2
 201              		.p2align 4,,15
 202              		.thumb
 203              		.thumb_func
 204              		.type	busy_msleep, %function
 205              	busy_msleep:
 206              	.LFB5:
 207              		.loc 1 348 0
 208              		.cfi_startproc
 209              		@ args = 0, pretend = 0, frame = 40
 210              		@ frame_needed = 0, uses_anonymous_args = 0
 211              	.LVL13:
 212 0000 30B5     		push	{r4, r5, lr}
 213              		.cfi_def_cfa_offset 12
 214              		.cfi_offset 4, -12
 215              		.cfi_offset 5, -8
 216              		.cfi_offset 14, -4
 217 0002 8BB0     		sub	sp, sp, #44
 218              		.cfi_def_cfa_offset 56
 219              		.loc 1 348 0
 220 0004 0546     		mov	r5, r0
 221              		.loc 1 353 0
 222 0006 0121     		movs	r1, #1
 223 0008 02A8     		add	r0, sp, #8
 224              	.LVL14:
 225 000a FFF7FEFF 		bl	get_timer
ARM GAS  C:\Users\jo\AppData\Local\Temp\cciF2oBe.s 			page 5


 226              	.LVL15:
 227              		.loc 1 350 0
 228 000e 0024     		movs	r4, #0
 229              		.loc 1 355 0
 230 0010 00E0     		b	.L18
 231              	.LVL16:
 232              	.L19:
 233              		.loc 1 356 0
 234 0012 0134     		adds	r4, r4, #1
 235              	.LVL17:
 236              	.L18:
 237              		.loc 1 355 0
 238 0014 02A8     		add	r0, sp, #8
 239 0016 0021     		movs	r1, #0
 240 0018 FFF7FEFF 		bl	get_timer
 241              	.LVL18:
 242 001c A842     		cmp	r0, r5
 243 001e F8D3     		bcc	.L19
 244              		.loc 1 358 0
 245 0020 0194     		str	r4, [sp, #4]
 246              		.loc 1 359 0
 247 0022 019B     		ldr	r3, [sp, #4]
 248              		.loc 1 360 0
 249 0024 0BB0     		add	sp, sp, #44
 250              		.cfi_def_cfa_offset 12
 251              		@ sp needed
 252 0026 30BD     		pop	{r4, r5, pc}
 253              		.cfi_endproc
 254              	.LFE5:
 255              		.size	busy_msleep, .-busy_msleep
 256 0028 AFF30080 		.section	.text.set_alarm,"ax",%progbits
 256      AFF30080 
 257              		.align	2
 258              		.p2align 4,,15
 259              		.global	set_alarm
 260              		.thumb
 261              		.thumb_func
 262              		.type	set_alarm, %function
 263              	set_alarm:
 264              	.LFB3:
 265              		.loc 1 317 0
 266              		.cfi_startproc
 267              		@ args = 0, pretend = 0, frame = 0
 268              		@ frame_needed = 0, uses_anonymous_args = 0
 269              	.LVL19:
 270 0000 10B5     		push	{r4, lr}
 271              		.cfi_def_cfa_offset 8
 272              		.cfi_offset 4, -8
 273              		.cfi_offset 14, -4
 274              		.loc 1 318 0
 275 0002 064B     		ldr	r3, .L23
 276              		.loc 1 319 0
 277 0004 0649     		ldr	r1, .L23+4
 278              		.loc 1 317 0
 279 0006 0446     		mov	r4, r0
 280              		.loc 1 318 0
 281 0008 0022     		movs	r2, #0
ARM GAS  C:\Users\jo\AppData\Local\Temp\cciF2oBe.s 			page 6


 282              		.loc 1 319 0
 283 000a 0E20     		movs	r0, #14
 284              	.LVL20:
 285              		.loc 1 318 0
 286 000c 1A60     		str	r2, [r3]
 287              		.loc 1 319 0
 288 000e FFF7FEFF 		bl	signal
 289              	.LVL21:
 290              		.loc 1 320 0
 291 0012 2046     		mov	r0, r4
 292              		.loc 1 321 0
 293 0014 BDE81040 		pop	{r4, lr}
 294              		.cfi_restore 14
 295              		.cfi_restore 4
 296              		.cfi_def_cfa_offset 0
 297              	.LVL22:
 298              		.loc 1 320 0
 299 0018 FFF7FEBF 		b	alarm
 300              	.LVL23:
 301              	.L24:
 302              		.align	2
 303              	.L23:
 304 001c 00000000 		.word	.LANCHOR0
 305 0020 00000000 		.word	sighandler
 306              		.cfi_endproc
 307              	.LFE3:
 308              		.size	set_alarm, .-set_alarm
 309 0024 AFF30080 		.section	.text.m_sleep,"ax",%progbits
 309      AFF30080 
 309      AFF30080 
 310              		.align	2
 311              		.p2align 4,,15
 312              		.global	m_sleep
 313              		.thumb
 314              		.thumb_func
 315              		.type	m_sleep, %function
 316              	m_sleep:
 317              	.LFB4:
 318              		.loc 1 324 0
 319              		.cfi_startproc
 320              		@ args = 0, pretend = 0, frame = 8
 321              		@ frame_needed = 0, uses_anonymous_args = 0
 322              	.LVL24:
 323 0000 30B5     		push	{r4, r5, lr}
 324              		.cfi_def_cfa_offset 12
 325              		.cfi_offset 4, -12
 326              		.cfi_offset 5, -8
 327              		.cfi_offset 14, -4
 328              		.loc 1 327 0
 329 0002 0C4D     		ldr	r5, .L27
 330 0004 85FB0035 		smull	r3, r5, r5, r0
 331 0008 C317     		asrs	r3, r0, #31
 332              		.loc 1 324 0
 333 000a 85B0     		sub	sp, sp, #20
 334              		.cfi_def_cfa_offset 32
 335              		.loc 1 327 0
 336 000c C3EBA515 		rsb	r5, r3, r5, asr #6
ARM GAS  C:\Users\jo\AppData\Local\Temp\cciF2oBe.s 			page 7


 337              		.loc 1 328 0
 338 0010 4FF47A72 		mov	r2, #1000
 339 0014 02FB1503 		mls	r3, r2, r5, r0
 340              		.loc 1 330 0
 341 0018 02A9     		add	r1, sp, #8
 342 001a 0020     		movs	r0, #0
 343              	.LVL25:
 344              		.loc 1 328 0
 345 001c 02FB03F4 		mul	r4, r2, r3
 346              		.loc 1 330 0
 347 0020 0091     		str	r1, [sp]
 348 0022 0246     		mov	r2, r0
 349 0024 0146     		mov	r1, r0
 350 0026 0346     		mov	r3, r0
 351              		.loc 1 327 0
 352 0028 0295     		str	r5, [sp, #8]
 353              		.loc 1 328 0
 354 002a 0394     		str	r4, [sp, #12]
 355              		.loc 1 330 0
 356 002c FFF7FEFF 		bl	select
 357              	.LVL26:
 358              		.loc 1 331 0
 359 0030 05B0     		add	sp, sp, #20
 360              		.cfi_def_cfa_offset 12
 361              		@ sp needed
 362 0032 30BD     		pop	{r4, r5, pc}
 363              	.L28:
 364              		.align	2
 365              	.L27:
 366 0034 D34D6210 		.word	274877907
 367              		.cfi_endproc
 368              	.LFE4:
 369              		.size	m_sleep, .-m_sleep
 370 0038 AFF30080 		.section	.text.timing_self_test,"ax",%progbits
 370      AFF30080 
 371              		.align	2
 372              		.p2align 4,,15
 373              		.global	timing_self_test
 374              		.thumb
 375              		.thumb_func
 376              		.type	timing_self_test, %function
 377              	timing_self_test:
 378              	.LFB6:
 379              		.loc 1 369 0
 380              		.cfi_startproc
 381              		@ args = 0, pretend = 0, frame = 32
 382              		@ frame_needed = 0, uses_anonymous_args = 0
 383              	.LVL27:
 384 0000 2DE9F047 		push	{r4, r5, r6, r7, r8, r9, r10, lr}
 385              		.cfi_def_cfa_offset 32
 386              		.cfi_offset 4, -32
 387              		.cfi_offset 5, -28
 388              		.cfi_offset 6, -24
 389              		.cfi_offset 7, -20
 390              		.cfi_offset 8, -16
 391              		.cfi_offset 9, -12
 392              		.cfi_offset 10, -8
ARM GAS  C:\Users\jo\AppData\Local\Temp\cciF2oBe.s 			page 8


 393              		.cfi_offset 14, -4
 394              		.loc 1 375 0
 395 0004 0646     		mov	r6, r0
 396              		.loc 1 369 0
 397 0006 88B0     		sub	sp, sp, #32
 398              		.cfi_def_cfa_offset 64
 399              		.loc 1 375 0
 400 0008 0028     		cmp	r0, #0
 401 000a 40F09880 		bne	.L69
 402              	.LVL28:
 403              	.L30:
 404              		.loc 1 369 0 discriminator 1
 405 000e 40F22627 		movw	r7, #550
 406 0012 4FF4E175 		mov	r5, #450
 407 0016 4FF4FA74 		mov	r4, #500
 408              	.LVL29:
 409              	.L34:
 410              		.loc 1 383 0
 411 001a 0121     		movs	r1, #1
 412 001c 6846     		mov	r0, sp
 413 001e FFF7FEFF 		bl	get_timer
 414              	.LVL30:
 415              		.loc 1 385 0
 416 0022 2046     		mov	r0, r4
 417 0024 FFF7FEFF 		bl	m_sleep
 418              	.LVL31:
 419              		.loc 1 387 0
 420 0028 6846     		mov	r0, sp
 421 002a 0021     		movs	r1, #0
 422 002c FFF7FEFF 		bl	get_timer
 423              	.LVL32:
 424              		.loc 1 389 0
 425 0030 A842     		cmp	r0, r5
 426 0032 04F5FA74 		add	r4, r4, #500
 427 0036 05F5E175 		add	r5, r5, #450
 428 003a 7BD3     		bcc	.L31
 429              		.loc 1 389 0 is_stmt 0 discriminator 1
 430 003c B842     		cmp	r0, r7
 431 003e 07F22627 		addw	r7, r7, #550
 432 0042 77D8     		bhi	.L31
 433              		.loc 1 381 0 is_stmt 1 discriminator 2
 434 0044 B4F5FA6F 		cmp	r4, #2000
 435 0048 E7D1     		bne	.L34
 436              		.loc 1 398 0
 437 004a 002E     		cmp	r6, #0
 438 004c 7ED1     		bne	.L70
 439              	.LVL33:
 440              	.L35:
 441 004e 544C     		ldr	r4, .L76
 442              		.loc 1 369 0 discriminator 1
 443 0050 4FF46177 		mov	r7, #900
 444 0054 40F24C48 		movw	r8, #1100
 445 0058 0125     		movs	r5, #1
 446              	.LVL34:
 447              	.L37:
 448              		.loc 1 406 0
 449 005a 6846     		mov	r0, sp
ARM GAS  C:\Users\jo\AppData\Local\Temp\cciF2oBe.s 			page 9


 450 005c 0121     		movs	r1, #1
 451 005e FFF7FEFF 		bl	get_timer
 452              	.LVL35:
 453              		.loc 1 408 0
 454 0062 2846     		mov	r0, r5
 455 0064 FFF7FEFF 		bl	set_alarm
 456              	.LVL36:
 457              	.L36:
 458              		.loc 1 409 0 discriminator 1
 459 0068 2368     		ldr	r3, [r4]
 460 006a 002B     		cmp	r3, #0
 461 006c FCD0     		beq	.L36
 462              		.loc 1 412 0
 463 006e 6846     		mov	r0, sp
 464 0070 0021     		movs	r1, #0
 465 0072 FFF7FEFF 		bl	get_timer
 466              	.LVL37:
 467              		.loc 1 414 0
 468 0076 B842     		cmp	r0, r7
 469 0078 5CD3     		bcc	.L31
 470              		.loc 1 414 0 is_stmt 0 discriminator 1
 471 007a 4045     		cmp	r0, r8
 472 007c 5AD8     		bhi	.L31
 473              		.loc 1 404 0 is_stmt 1 discriminator 2
 474 007e 0135     		adds	r5, r5, #1
 475              	.LVL38:
 476 0080 042D     		cmp	r5, #4
 477 0082 08F24C48 		addw	r8, r8, #1100
 478 0086 07F56177 		add	r7, r7, #900
 479 008a E6D1     		bne	.L37
 480              		.loc 1 423 0
 481 008c 002E     		cmp	r6, #0
 482 008e 64D1     		bne	.L71
 483              	.LVL39:
 484              	.L38:
 485 0090 DFF83081 		ldr	r8, .L76+36
 486 0094 4FF00209 		mov	r9, #2
 487              	.LVL40:
 488              	.L41:
 489              		.loc 1 447 0
 490 0098 FFF7FEFF 		bl	hardclock
 491              	.LVL41:
 492 009c 0546     		mov	r5, r0
 493              	.LVL42:
 494              		.loc 1 448 0
 495 009e 0120     		movs	r0, #1
 496              	.LVL43:
 497 00a0 FFF7FEFF 		bl	busy_msleep
 498              	.LVL44:
 499              		.loc 1 449 0
 500 00a4 FFF7FEFF 		bl	hardclock
 501              	.LVL45:
 502 00a8 401B     		subs	r0, r0, r5
 503              	.LVL46:
 504 00aa A8FB0035 		umull	r3, r5, r8, r0
 505 00ae AD08     		lsrs	r5, r5, #2
 506 00b0 471B     		subs	r7, r0, r5
ARM GAS  C:\Users\jo\AppData\Local\Temp\cciF2oBe.s 			page 10


 507              		.loc 1 453 0
 508 00b2 4FF0020A 		mov	r10, #2
 509              		.loc 1 461 0
 510 00b6 0544     		add	r5, r5, r0
 511              	.LVL47:
 512              	.L42:
 513              		.loc 1 455 0
 514 00b8 FFF7FEFF 		bl	hardclock
 515              	.LVL48:
 516 00bc 0446     		mov	r4, r0
 517              	.LVL49:
 518              		.loc 1 456 0
 519 00be 5046     		mov	r0, r10
 520              	.LVL50:
 521 00c0 FFF7FEFF 		bl	busy_msleep
 522              	.LVL51:
 523              		.loc 1 457 0
 524 00c4 FFF7FEFF 		bl	hardclock
 525              	.LVL52:
 526 00c8 001B     		subs	r0, r0, r4
 527              	.LVL53:
 528              		.loc 1 460 0
 529 00ca B0FBFAF3 		udiv	r3, r0, r10
 530 00ce BB42     		cmp	r3, r7
 531              		.loc 1 453 0
 532 00d0 0AF1010A 		add	r10, r10, #1
 533              	.LVL54:
 534              		.loc 1 460 0
 535 00d4 2BD3     		bcc	.L39
 536              		.loc 1 460 0 is_stmt 0 discriminator 1
 537 00d6 AB42     		cmp	r3, r5
 538 00d8 29D8     		bhi	.L39
 539              		.loc 1 453 0 is_stmt 1 discriminator 2
 540 00da BAF1050F 		cmp	r10, #5
 541 00de EBD1     		bne	.L42
 542              		.loc 1 468 0
 543 00e0 002E     		cmp	r6, #0
 544 00e2 48D1     		bne	.L72
 545              	.LVL55:
 546              	.L43:
 547              		.loc 1 453 0 discriminator 1
 548 00e4 2F4C     		ldr	r4, .L76+4
 549              		.loc 1 475 0 discriminator 1
 550 00e6 DFF8E080 		ldr	r8, .L76+40
 551              		.loc 1 453 0 discriminator 1
 552 00ea 40F22627 		movw	r7, #550
 553 00ee 4FF4E175 		mov	r5, #450
 554              	.LVL56:
 555              	.L44:
 556              		.loc 1 477 0
 557 00f2 0121     		movs	r1, #1
 558 00f4 6846     		mov	r0, sp
 559 00f6 FFF7FEFF 		bl	get_timer
 560              	.LVL57:
 561              		.loc 1 479 0
 562 00fa 2046     		mov	r0, r4
 563 00fc FFF7FEFF 		bl	net_usleep
ARM GAS  C:\Users\jo\AppData\Local\Temp\cciF2oBe.s 			page 11


 564              	.LVL58:
 565              		.loc 1 481 0
 566 0100 6846     		mov	r0, sp
 567 0102 0021     		movs	r1, #0
 568 0104 FFF7FEFF 		bl	get_timer
 569              	.LVL59:
 570 0108 04F5F424 		add	r4, r4, #499712
 571              		.loc 1 483 0
 572 010c A842     		cmp	r0, r5
 573 010e 04F59074 		add	r4, r4, #288
 574 0112 05F5E175 		add	r5, r5, #450
 575 0116 0DD3     		bcc	.L31
 576              		.loc 1 483 0 is_stmt 0 discriminator 1
 577 0118 B842     		cmp	r0, r7
 578 011a 07F22627 		addw	r7, r7, #550
 579 011e 09D8     		bhi	.L31
 580              		.loc 1 475 0 is_stmt 1 discriminator 2
 581 0120 4445     		cmp	r4, r8
 582 0122 E6D1     		bne	.L44
 583              		.loc 1 492 0
 584 0124 76BB     		cbnz	r6, .L73
 585              		.loc 1 499 0
 586 0126 3046     		mov	r0, r6
 587              	.LVL60:
 588              		.loc 1 500 0
 589 0128 08B0     		add	sp, sp, #32
 590              		.cfi_remember_state
 591              		.cfi_def_cfa_offset 32
 592              		@ sp needed
 593 012a BDE8F087 		pop	{r4, r5, r6, r7, r8, r9, r10, pc}
 594              	.LVL61:
 595              	.L39:
 596              		.cfi_restore_state
 597              		.loc 1 437 0
 598 012e B9F1010F 		cmp	r9, #1
 599 0132 31D1     		bne	.L74
 600              	.LVL62:
 601              	.L31:
 602              		.loc 1 394 0
 603 0134 0120     		movs	r0, #1
 604              		.loc 1 391 0
 605 0136 BEB9     		cbnz	r6, .L75
 606              		.loc 1 500 0
 607 0138 08B0     		add	sp, sp, #32
 608              		.cfi_remember_state
 609              		.cfi_def_cfa_offset 32
 610              		@ sp needed
 611 013a BDE8F087 		pop	{r4, r5, r6, r7, r8, r9, r10, pc}
 612              	.LVL63:
 613              	.L69:
 614              		.cfi_restore_state
 615              		.loc 1 376 0
 616 013e 1A48     		ldr	r0, .L76+8
 617              	.LVL64:
 618 0140 FFF7FEFF 		bl	puts
 619              	.LVL65:
 620              		.loc 1 379 0
ARM GAS  C:\Users\jo\AppData\Local\Temp\cciF2oBe.s 			page 12


 621 0144 1948     		ldr	r0, .L76+12
 622 0146 FFF7FEFF 		bl	printf
 623              	.LVL66:
 624 014a 60E7     		b	.L30
 625              	.LVL67:
 626              	.L70:
 627              		.loc 1 399 0
 628 014c 1848     		ldr	r0, .L76+16
 629              	.LVL68:
 630 014e FFF7FEFF 		bl	puts
 631              	.LVL69:
 632              		.loc 1 402 0
 633 0152 1848     		ldr	r0, .L76+20
 634 0154 FFF7FEFF 		bl	printf
 635              	.LVL70:
 636 0158 79E7     		b	.L35
 637              	.LVL71:
 638              	.L71:
 639              		.loc 1 424 0
 640 015a 1548     		ldr	r0, .L76+16
 641              	.LVL72:
 642 015c FFF7FEFF 		bl	puts
 643              	.LVL73:
 644              		.loc 1 427 0
 645 0160 1548     		ldr	r0, .L76+24
 646 0162 FFF7FEFF 		bl	printf
 647              	.LVL74:
 648 0166 93E7     		b	.L38
 649              	.LVL75:
 650              	.L75:
 651              		.loc 1 392 0
 652 0168 1448     		ldr	r0, .L76+28
 653 016a FFF7FEFF 		bl	puts
 654              	.LVL76:
 655              		.loc 1 394 0
 656 016e 0120     		movs	r0, #1
 657              		.loc 1 500 0
 658 0170 08B0     		add	sp, sp, #32
 659              		.cfi_remember_state
 660              		.cfi_def_cfa_offset 32
 661              		@ sp needed
 662 0172 BDE8F087 		pop	{r4, r5, r6, r7, r8, r9, r10, pc}
 663              	.LVL77:
 664              	.L72:
 665              		.cfi_restore_state
 666              		.loc 1 469 0
 667 0176 0E48     		ldr	r0, .L76+16
 668              	.LVL78:
 669 0178 FFF7FEFF 		bl	puts
 670              	.LVL79:
 671              		.loc 1 473 0
 672 017c 1048     		ldr	r0, .L76+32
 673 017e FFF7FEFF 		bl	printf
 674              	.LVL80:
 675 0182 AFE7     		b	.L43
 676              	.LVL81:
 677              	.L73:
ARM GAS  C:\Users\jo\AppData\Local\Temp\cciF2oBe.s 			page 13


 678              		.loc 1 493 0
 679 0184 0A48     		ldr	r0, .L76+16
 680              	.LVL82:
 681 0186 FFF7FEFF 		bl	puts
 682              	.LVL83:
 683              		.loc 1 497 0
 684 018a 0A20     		movs	r0, #10
 685 018c FFF7FEFF 		bl	putchar
 686              	.LVL84:
 687              		.loc 1 499 0
 688 0190 0020     		movs	r0, #0
 689              		.loc 1 500 0
 690 0192 08B0     		add	sp, sp, #32
 691              		.cfi_remember_state
 692              		.cfi_def_cfa_offset 32
 693              		@ sp needed
 694 0194 BDE8F087 		pop	{r4, r5, r6, r7, r8, r9, r10, pc}
 695              	.LVL85:
 696              	.L74:
 697              		.cfi_restore_state
 698 0198 4FF00109 		mov	r9, #1
 699              	.LVL86:
 700 019c 7CE7     		b	.L41
 701              	.L77:
 702 019e 00BF     		.align	2
 703              	.L76:
 704 01a0 00000000 		.word	.LANCHOR0
 705 01a4 20A10700 		.word	500000
 706 01a8 00000000 		.word	.LC0
 707 01ac 2C000000 		.word	.LC1
 708 01b0 60000000 		.word	.LC3
 709 01b4 68000000 		.word	.LC4
 710 01b8 94000000 		.word	.LC5
 711 01bc 58000000 		.word	.LC2
 712 01c0 C0000000 		.word	.LC6
 713 01c4 CDCCCCCC 		.word	-858993459
 714 01c8 80841E00 		.word	2000000
 715              		.cfi_endproc
 716              	.LFE6:
 717              		.size	timing_self_test, .-timing_self_test
 718              		.global	alarmed
 719 01cc AFF30080 		.section	.bss.hardclock_init,"aw",%nobits
 720              		.align	2
 721              		.set	.LANCHOR1,. + 0
 722              		.type	hardclock_init, %object
 723              		.size	hardclock_init, 4
 724              	hardclock_init:
 725 0000 00000000 		.space	4
 726              		.section	.rodata.str1.4,"aMS",%progbits,1
 727              		.align	2
 728              	.LC0:
 729 0000 20205449 		.ascii	"  TIMING tests note: will take some time!\000"
 729      4D494E47 
 729      20746573 
 729      7473206E 
 729      6F74653A 
 730 002a 0000     		.space	2
ARM GAS  C:\Users\jo\AppData\Local\Temp\cciF2oBe.s 			page 14


 731              	.LC1:
 732 002c 20205449 		.ascii	"  TIMING test #1 (m_sleep   / get_timer): \000"
 732      4D494E47 
 732      20746573 
 732      74202331 
 732      20286D5F 
 733 0057 00       		.space	1
 734              	.LC2:
 735 0058 6661696C 		.ascii	"failed\000"
 735      656400
 736 005f 00       		.space	1
 737              	.LC3:
 738 0060 70617373 		.ascii	"passed\000"
 738      656400
 739 0067 00       		.space	1
 740              	.LC4:
 741 0068 20205449 		.ascii	"  TIMING test #2 (set_alarm / get_timer): \000"
 741      4D494E47 
 741      20746573 
 741      74202332 
 741      20287365 
 742 0093 00       		.space	1
 743              	.LC5:
 744 0094 20205449 		.ascii	"  TIMING test #3 (hardclock / get_timer): \000"
 744      4D494E47 
 744      20746573 
 744      74202333 
 744      20286861 
 745 00bf 00       		.space	1
 746              	.LC6:
 747 00c0 20205449 		.ascii	"  TIMING test #4 (net_usleep/ get_timer): \000"
 747      4D494E47 
 747      20746573 
 747      74202334 
 747      20286E65 
 748 00eb 00       		.section	.bss.alarmed,"aw",%nobits
 749              		.align	2
 750              		.set	.LANCHOR0,. + 0
 751              		.type	alarmed, %object
 752              		.size	alarmed, 4
 753              	alarmed:
 754 0000 00000000 		.space	4
 755              		.section	.bss.tv_init,"aw",%nobits
 756              		.align	2
 757              		.set	.LANCHOR2,. + 0
 758              		.type	tv_init, %object
 759              		.size	tv_init, 8
 760              	tv_init:
 761 0000 00000000 		.space	8
 761      00000000 
 762              		.text
 763              	.Letext0:
 764              		.file 2 "c:\\program files\\gnu tools arm embedded\\4.9 2014q4\\arm-none-eabi\\include\\sys\\types
 765              		.file 3 "../../../ext/mbedtls-1.3.11/library/../include/polarssl/timing.h"
 766              		.file 4 "c:\\program files\\gnu tools arm embedded\\4.9 2014q4\\arm-none-eabi\\include\\sys\\time.
 767              		.file 5 "c:\\program files\\gnu tools arm embedded\\4.9 2014q4\\arm-none-eabi\\include\\sys\\signa
 768              		.file 6 "c:\\program files\\gnu tools arm embedded\\4.9 2014q4\\arm-none-eabi\\include\\signal.h"
ARM GAS  C:\Users\jo\AppData\Local\Temp\cciF2oBe.s 			page 15


 769              		.file 7 "c:\\program files\\gnu tools arm embedded\\4.9 2014q4\\arm-none-eabi\\include\\sys\\unist
 770              		.file 8 "../../../ext/mbedtls-1.3.11/library/../include/polarssl/net.h"
 771              		.file 9 "c:\\program files\\gnu tools arm embedded\\4.9 2014q4\\arm-none-eabi\\include\\stdio.h"
 772              		.file 10 "<built-in>"