ARM GAS  C:\Users\jo\AppData\Local\Temp\ccetFvQA.s 			page 1


   1              		.syntax unified
   2              		.cpu cortex-m4
   3              		.fpu softvfp
   4              		.eabi_attribute 20, 1
   5              		.eabi_attribute 21, 1
   6              		.eabi_attribute 23, 3
   7              		.eabi_attribute 24, 1
   8              		.eabi_attribute 25, 1
   9              		.eabi_attribute 26, 1
  10              		.eabi_attribute 30, 2
  11              		.eabi_attribute 34, 1
  12              		.eabi_attribute 18, 4
  13              		.thumb
  14              		.file	"uart_lld.c"
  15              		.text
  16              	.Ltext0:
  17              		.cfi_sections	.debug_frame
  18              		.section	.text.usart_stop,"ax",%progbits
  19              		.align	2
  20              		.p2align 4,,15
  21              		.thumb
  22              		.thumb_func
  23              		.type	usart_stop, %function
  24              	usart_stop:
  25              	.LFB261:
  26              		.file 1 "../../../os/hal/ports/STM32/LLD/USARTv1/uart_lld.c"
  27              		.loc 1 180 0
  28              		.cfi_startproc
  29              		@ args = 0, pretend = 0, frame = 0
  30              		@ frame_needed = 0, uses_anonymous_args = 0
  31              		@ link register save eliminated.
  32              	.LVL0:
  33 0000 30B4     		push	{r4, r5}
  34              		.cfi_def_cfa_offset 8
  35              		.cfi_offset 4, -8
  36              		.cfi_offset 5, -4
  37              		.loc 1 183 0
  38 0002 0469     		ldr	r4, [r0, #16]
  39 0004 2268     		ldr	r2, [r4]
  40 0006 1368     		ldr	r3, [r2]
  41 0008 23F01F03 		bic	r3, r3, #31
  42 000c 1360     		str	r3, [r2]
  43              	.L2:
  44              		.loc 1 183 0 is_stmt 0 discriminator 2
  45 000e 1368     		ldr	r3, [r2]
  46 0010 DB07     		lsls	r3, r3, #31
  47 0012 FCD4     		bmi	.L2
  48              		.loc 1 183 0 discriminator 3
  49 0014 257A     		ldrb	r5, [r4, #8]	@ zero_extendqisi2
  50              		.loc 1 184 0 is_stmt 1 discriminator 3
  51 0016 4169     		ldr	r1, [r0, #20]
  52              		.loc 1 183 0 discriminator 3
  53 0018 6468     		ldr	r4, [r4, #4]
  54              		.loc 1 184 0 discriminator 3
  55 001a 0A68     		ldr	r2, [r1]
  56              		.loc 1 183 0 discriminator 3
  57 001c 3D23     		movs	r3, #61
ARM GAS  C:\Users\jo\AppData\Local\Temp\ccetFvQA.s 			page 2


  58 001e AB40     		lsls	r3, r3, r5
  59 0020 2360     		str	r3, [r4]
  60              		.loc 1 184 0 discriminator 3
  61 0022 1368     		ldr	r3, [r2]
  62 0024 23F01F03 		bic	r3, r3, #31
  63 0028 1360     		str	r3, [r2]
  64              	.L3:
  65              		.loc 1 184 0 is_stmt 0 discriminator 2
  66 002a 1368     		ldr	r3, [r2]
  67 002c 13F00103 		ands	r3, r3, #1
  68 0030 FBD1     		bne	.L3
  69              		.loc 1 184 0 discriminator 3
  70 0032 0C7A     		ldrb	r4, [r1, #8]	@ zero_extendqisi2
  71              		.loc 1 187 0 is_stmt 1 discriminator 3
  72 0034 8268     		ldr	r2, [r0, #8]
  73              		.loc 1 184 0 discriminator 3
  74 0036 4868     		ldr	r0, [r1, #4]
  75              	.LVL1:
  76 0038 3D21     		movs	r1, #61
  77 003a A140     		lsls	r1, r1, r4
  78 003c 0160     		str	r1, [r0]
  79              		.loc 1 190 0 discriminator 3
  80 003e 30BC     		pop	{r4, r5}
  81              		.cfi_restore 5
  82              		.cfi_restore 4
  83              		.cfi_def_cfa_offset 0
  84              		.loc 1 187 0 discriminator 3
  85 0040 D360     		str	r3, [r2, #12]
  86              		.loc 1 188 0 discriminator 3
  87 0042 1361     		str	r3, [r2, #16]
  88              		.loc 1 189 0 discriminator 3
  89 0044 5361     		str	r3, [r2, #20]
  90              		.loc 1 190 0 discriminator 3
  91 0046 7047     		bx	lr
  92              		.cfi_endproc
  93              	.LFE261:
  94              		.size	usart_stop, .-usart_stop
  95 0048 AFF30080 		.section	.text.uart_lld_serve_tx_end_irq,"ax",%progbits
  95      AFF30080 
  96              		.align	2
  97              		.p2align 4,,15
  98              		.thumb
  99              		.thumb_func
 100              		.type	uart_lld_serve_tx_end_irq, %function
 101              	uart_lld_serve_tx_end_irq:
 102              	.LFB264:
 103              		.loc 1 281 0
 104              		.cfi_startproc
 105              		@ args = 0, pretend = 0, frame = 0
 106              		@ frame_needed = 0, uses_anonymous_args = 0
 107              	.LVL2:
 108              		.loc 1 285 0
 109 0000 11F00C0F 		tst	r1, #12
 110              		.loc 1 281 0
 111 0004 38B5     		push	{r3, r4, r5, lr}
 112              		.cfi_def_cfa_offset 16
 113              		.cfi_offset 3, -16
ARM GAS  C:\Users\jo\AppData\Local\Temp\ccetFvQA.s 			page 3


 114              		.cfi_offset 4, -12
 115              		.cfi_offset 5, -8
 116              		.cfi_offset 14, -4
 117              		.loc 1 281 0
 118 0006 0446     		mov	r4, r0
 119              		.loc 1 285 0
 120 0008 1BD1     		bne	.L22
 121              	.LVL3:
 122              	.L9:
 123              		.loc 1 292 0
 124 000a 6169     		ldr	r1, [r4, #20]
 125 000c 0A68     		ldr	r2, [r1]
 126 000e 1368     		ldr	r3, [r2]
 127 0010 23F01F03 		bic	r3, r3, #31
 128 0014 1360     		str	r3, [r2]
 129              	.L10:
 130              		.loc 1 292 0 is_stmt 0 discriminator 2
 131 0016 1368     		ldr	r3, [r2]
 132 0018 DB07     		lsls	r3, r3, #31
 133 001a FCD4     		bmi	.L10
 134              		.loc 1 296 0 is_stmt 1 discriminator 3
 135 001c 6368     		ldr	r3, [r4, #4]
 136              		.loc 1 292 0 discriminator 3
 137 001e 0D7A     		ldrb	r5, [r1, #8]	@ zero_extendqisi2
 138 0020 4868     		ldr	r0, [r1, #4]
 139              		.loc 1 296 0 discriminator 3
 140 0022 1A68     		ldr	r2, [r3]
 141              		.loc 1 292 0 discriminator 3
 142 0024 3D23     		movs	r3, #61
 143 0026 AB40     		lsls	r3, r3, r5
 144              		.loc 1 295 0 discriminator 3
 145 0028 0221     		movs	r1, #2
 146              		.loc 1 292 0 discriminator 3
 147 002a 0360     		str	r3, [r0]
 148              		.loc 1 295 0 discriminator 3
 149 002c 6170     		strb	r1, [r4, #1]
 150              		.loc 1 296 0 discriminator 3
 151 002e 2AB1     		cbz	r2, .L13
 152              		.loc 1 297 0
 153 0030 2046     		mov	r0, r4
 154 0032 9047     		blx	r2
 155              	.LVL4:
 156              		.loc 1 301 0
 157 0034 6378     		ldrb	r3, [r4, #1]	@ zero_extendqisi2
 158 0036 022B     		cmp	r3, #2
 159 0038 00D0     		beq	.L13
 160 003a 38BD     		pop	{r3, r4, r5, pc}
 161              	.LVL5:
 162              	.L13:
 163              		.loc 1 302 0
 164 003c 0023     		movs	r3, #0
 165 003e 6370     		strb	r3, [r4, #1]
 166 0040 38BD     		pop	{r3, r4, r5, pc}
 167              	.LVL6:
 168              	.L22:
 169              	.LBB16:
 170              	.LBB17:
ARM GAS  C:\Users\jo\AppData\Local\Temp\ccetFvQA.s 			page 4


 171              		.file 2 "../../../os/hal/osal/rt/osal.h"
 172              		.loc 2 416 0
 173 0042 0248     		ldr	r0, .L23
 174              	.LVL7:
 175 0044 FFF7FEFF 		bl	chSysHalt
 176              	.LVL8:
 177 0048 DFE7     		b	.L9
 178              	.L24:
 179 004a 00BF     		.align	2
 180              	.L23:
 181 004c 00000000 		.word	.LC0
 182              	.LBE17:
 183              	.LBE16:
 184              		.cfi_endproc
 185              	.LFE264:
 186              		.size	uart_lld_serve_tx_end_irq, .-uart_lld_serve_tx_end_irq
 187              		.section	.text.uart_lld_serve_rx_end_irq,"ax",%progbits
 188              		.align	2
 189              		.p2align 4,,15
 190              		.thumb
 191              		.thumb_func
 192              		.type	uart_lld_serve_rx_end_irq, %function
 193              	uart_lld_serve_rx_end_irq:
 194              	.LFB263:
 195              		.loc 1 241 0
 196              		.cfi_startproc
 197              		@ args = 0, pretend = 0, frame = 0
 198              		@ frame_needed = 0, uses_anonymous_args = 0
 199              	.LVL9:
 200              		.loc 1 245 0
 201 0000 11F00C0F 		tst	r1, #12
 202              		.loc 1 241 0
 203 0004 70B5     		push	{r4, r5, r6, lr}
 204              		.cfi_def_cfa_offset 16
 205              		.cfi_offset 4, -16
 206              		.cfi_offset 5, -12
 207              		.cfi_offset 6, -8
 208              		.cfi_offset 14, -4
 209              		.loc 1 241 0
 210 0006 0446     		mov	r4, r0
 211              		.loc 1 245 0
 212 0008 3BD1     		bne	.L41
 213              	.LVL10:
 214              	.L26:
 215              		.loc 1 252 0
 216 000a A378     		ldrb	r3, [r4, #2]	@ zero_extendqisi2
 217 000c 4BB9     		cbnz	r3, .L27
 218              		.loc 1 255 0
 219 000e 6368     		ldr	r3, [r4, #4]
 220 0010 DB68     		ldr	r3, [r3, #12]
 221 0012 002B     		cmp	r3, #0
 222 0014 34D0     		beq	.L25
 223              		.loc 1 256 0
 224 0016 218B     		ldrh	r1, [r4, #24]
 225 0018 2046     		mov	r0, r4
 226 001a 89B2     		uxth	r1, r1
 227              		.loc 1 273 0
ARM GAS  C:\Users\jo\AppData\Local\Temp\ccetFvQA.s 			page 5


 228 001c BDE87040 		pop	{r4, r5, r6, lr}
 229              		.cfi_remember_state
 230              		.cfi_restore 14
 231              		.cfi_restore 6
 232              		.cfi_restore 5
 233              		.cfi_restore 4
 234              		.cfi_def_cfa_offset 0
 235              	.LVL11:
 236              		.loc 1 256 0
 237 0020 1847     		bx	r3	@ indirect register sibling call
 238              	.LVL12:
 239              	.L27:
 240              		.cfi_restore_state
 241              	.LBB26:
 242              	.LBB27:
 243              		.loc 1 261 0
 244 0022 2169     		ldr	r1, [r4, #16]
 245 0024 0A68     		ldr	r2, [r1]
 246 0026 1368     		ldr	r3, [r2]
 247 0028 23F01F03 		bic	r3, r3, #31
 248 002c 1360     		str	r3, [r2]
 249              	.L30:
 250 002e 1368     		ldr	r3, [r2]
 251 0030 DB07     		lsls	r3, r3, #31
 252 0032 FCD4     		bmi	.L30
 253              		.loc 1 263 0
 254 0034 6068     		ldr	r0, [r4, #4]
 255              		.loc 1 261 0
 256 0036 0D7A     		ldrb	r5, [r1, #8]	@ zero_extendqisi2
 257 0038 4E68     		ldr	r6, [r1, #4]
 258              		.loc 1 263 0
 259 003a 8168     		ldr	r1, [r0, #8]
 260              		.loc 1 261 0
 261 003c 3D23     		movs	r3, #61
 262 003e AB40     		lsls	r3, r3, r5
 263              		.loc 1 262 0
 264 0040 0225     		movs	r5, #2
 265              		.loc 1 261 0
 266 0042 3360     		str	r3, [r6]
 267              		.loc 1 262 0
 268 0044 A570     		strb	r5, [r4, #2]
 269              		.loc 1 263 0
 270 0046 39B1     		cbz	r1, .L31
 271              		.loc 1 264 0
 272 0048 2046     		mov	r0, r4
 273 004a 8847     		blx	r1
 274              	.LVL13:
 275              		.loc 1 268 0
 276 004c A378     		ldrb	r3, [r4, #2]	@ zero_extendqisi2
 277 004e AB42     		cmp	r3, r5
 278 0050 16D1     		bne	.L25
 279 0052 2369     		ldr	r3, [r4, #16]
 280 0054 6068     		ldr	r0, [r4, #4]
 281 0056 1A68     		ldr	r2, [r3]
 282              	.L31:
 283              	.LBB28:
 284              	.LBB29:
ARM GAS  C:\Users\jo\AppData\Local\Temp\ccetFvQA.s 			page 6


 285              		.loc 1 164 0
 286 0058 C168     		ldr	r1, [r0, #12]
 287              		.loc 1 170 0
 288 005a E368     		ldr	r3, [r4, #12]
 289              		.loc 1 167 0
 290 005c 0029     		cmp	r1, #0
 291 005e 0CBF     		ite	eq
 292 0060 4FF48071 		moveq	r1, #256
 293 0064 4FF48871 		movne	r1, #272
 294              		.loc 1 170 0
 295 0068 0B43     		orrs	r3, r3, r1
 296              	.LBE29:
 297              	.LBE28:
 298              		.loc 1 269 0
 299 006a 0025     		movs	r5, #0
 300              	.LBB32:
 301              	.LBB30:
 302              		.loc 1 169 0
 303 006c 0121     		movs	r1, #1
 304              		.loc 1 168 0
 305 006e 04F11800 		add	r0, r4, #24
 306              	.LBE30:
 307              	.LBE32:
 308              		.loc 1 269 0
 309 0072 A570     		strb	r5, [r4, #2]
 310              	.LVL14:
 311              	.LBB33:
 312              	.LBB31:
 313              		.loc 1 168 0
 314 0074 D060     		str	r0, [r2, #12]
 315              		.loc 1 169 0
 316 0076 5160     		str	r1, [r2, #4]
 317              		.loc 1 170 0
 318 0078 1360     		str	r3, [r2]
 319              		.loc 1 171 0
 320 007a 1368     		ldr	r3, [r2]
 321 007c 0B43     		orrs	r3, r3, r1
 322 007e 1360     		str	r3, [r2]
 323              	.LVL15:
 324              	.L25:
 325 0080 70BD     		pop	{r4, r5, r6, pc}
 326              	.LVL16:
 327              	.L41:
 328              	.LBE31:
 329              	.LBE33:
 330              	.LBE27:
 331              	.LBE26:
 332              	.LBB34:
 333              	.LBB35:
 334              		.loc 2 416 0
 335 0082 0248     		ldr	r0, .L42
 336              	.LVL17:
 337 0084 FFF7FEFF 		bl	chSysHalt
 338              	.LVL18:
 339 0088 BFE7     		b	.L26
 340              	.L43:
 341 008a 00BF     		.align	2
ARM GAS  C:\Users\jo\AppData\Local\Temp\ccetFvQA.s 			page 7


 342              	.L42:
 343 008c 00000000 		.word	.LC0
 344              	.LBE35:
 345              	.LBE34:
 346              		.cfi_endproc
 347              	.LFE263:
 348              		.size	uart_lld_serve_rx_end_irq, .-uart_lld_serve_rx_end_irq
 349              		.section	.text.VectorDC,"ax",%progbits
 350              		.align	2
 351              		.p2align 4,,15
 352              		.global	VectorDC
 353              		.thumb
 354              		.thumb_func
 355              		.type	VectorDC, %function
 356              	VectorDC:
 357              	.LFB266:
 358              		.loc 1 387 0
 359              		.cfi_startproc
 360              		@ args = 0, pretend = 0, frame = 0
 361              		@ frame_needed = 0, uses_anonymous_args = 0
 362 0000 F8B5     		push	{r3, r4, r5, r6, r7, lr}
 363              		.cfi_def_cfa_offset 24
 364              		.cfi_offset 3, -24
 365              		.cfi_offset 4, -20
 366              		.cfi_offset 5, -16
 367              		.cfi_offset 6, -12
 368              		.cfi_offset 7, -8
 369              		.cfi_offset 14, -4
 370              	.LBB40:
 371              	.LBB41:
 372              		.loc 1 312 0
 373 0002 1F4E     		ldr	r6, .L79
 374              	.LBE41:
 375              	.LBE40:
 376              		.loc 1 389 0
 377 0004 FFF7FEFF 		bl	_dbg_check_enter_isr
 378              	.LVL19:
 379              	.LBB45:
 380              	.LBB44:
 381              		.loc 1 312 0
 382 0008 B468     		ldr	r4, [r6, #8]
 383              	.LVL20:
 384              		.loc 1 313 0
 385 000a E768     		ldr	r7, [r4, #12]
 386              	.LVL21:
 387              		.loc 1 315 0
 388 000c 2568     		ldr	r5, [r4]
 389              	.LVL22:
 390              		.loc 1 316 0
 391 000e 6368     		ldr	r3, [r4, #4]
 392              		.loc 1 318 0
 393 0010 40F20F13 		movw	r3, #271
 394 0014 2B40     		ands	r3, r3, r5
 395 0016 EBB1     		cbz	r3, .L46
 396              		.loc 1 321 0
 397 0018 7368     		ldr	r3, [r6, #4]
 398 001a 1A69     		ldr	r2, [r3, #16]
ARM GAS  C:\Users\jo\AppData\Local\Temp\ccetFvQA.s 			page 8


 399              		.loc 1 320 0
 400 001c 6FF48073 		mvn	r3, #256
 401 0020 2360     		str	r3, [r4]
 402              		.loc 1 321 0
 403 0022 BAB1     		cbz	r2, .L46
 404              		.loc 1 315 0
 405 0024 ABB2     		uxth	r3, r5
 406              	.LVL23:
 407              	.LBB42:
 408              	.LBB43:
 409              		.loc 1 142 0
 410 0026 13F0080F 		tst	r3, #8
 411 002a 0CBF     		ite	eq
 412 002c 0021     		moveq	r1, #0
 413 002e 1021     		movne	r1, #16
 414              	.LVL24:
 415              		.loc 1 143 0
 416 0030 D807     		lsls	r0, r3, #31
 417              		.loc 1 144 0
 418 0032 48BF     		it	mi
 419 0034 41F00401 		orrmi	r1, r1, #4
 420              	.LVL25:
 421              		.loc 1 145 0
 422 0038 9807     		lsls	r0, r3, #30
 423              		.loc 1 146 0
 424 003a 48BF     		it	mi
 425 003c 41F00801 		orrmi	r1, r1, #8
 426              	.LVL26:
 427              		.loc 1 147 0
 428 0040 5807     		lsls	r0, r3, #29
 429              		.loc 1 148 0
 430 0042 48BF     		it	mi
 431 0044 41F02001 		orrmi	r1, r1, #32
 432              	.LVL27:
 433              		.loc 1 149 0
 434 0048 D805     		lsls	r0, r3, #23
 435              		.loc 1 150 0
 436 004a 48BF     		it	mi
 437 004c 41F04001 		orrmi	r1, r1, #64
 438              	.LVL28:
 439              	.LBE43:
 440              	.LBE42:
 441              		.loc 1 322 0
 442 0050 0B48     		ldr	r0, .L79
 443 0052 9047     		blx	r2
 444              	.LVL29:
 445              	.L46:
 446              		.loc 1 325 0
 447 0054 6A06     		lsls	r2, r5, #25
 448 0056 0CD5     		bpl	.L54
 449 0058 7B06     		lsls	r3, r7, #25
 450 005a 0AD5     		bpl	.L54
 451              		.loc 1 331 0
 452 005c 7368     		ldr	r3, [r6, #4]
 453 005e 5B68     		ldr	r3, [r3, #4]
 454              		.loc 1 328 0
 455 0060 27F04007 		bic	r7, r7, #64
ARM GAS  C:\Users\jo\AppData\Local\Temp\ccetFvQA.s 			page 9


 456              	.LVL30:
 457              		.loc 1 327 0
 458 0064 6FF04002 		mvn	r2, #64
 459 0068 2260     		str	r2, [r4]
 460              		.loc 1 328 0
 461 006a E760     		str	r7, [r4, #12]
 462              		.loc 1 331 0
 463 006c 0BB1     		cbz	r3, .L54
 464              		.loc 1 332 0
 465 006e 0448     		ldr	r0, .L79
 466 0070 9847     		blx	r3
 467              	.LVL31:
 468              	.L54:
 469              	.LBE44:
 470              	.LBE45:
 471              		.loc 1 393 0
 472 0072 FFF7FEFF 		bl	_dbg_check_leave_isr
 473              	.LVL32:
 474              		.loc 1 394 0
 475 0076 BDE8F840 		pop	{r3, r4, r5, r6, r7, lr}
 476              		.cfi_restore 14
 477              		.cfi_restore 7
 478              		.cfi_restore 6
 479              		.cfi_restore 5
 480              		.cfi_restore 4
 481              		.cfi_restore 3
 482              		.cfi_def_cfa_offset 0
 483              	.LVL33:
 484              		.loc 1 393 0
 485 007a FFF7FEBF 		b	_port_irq_epilogue
 486              	.LVL34:
 487              	.L80:
 488 007e 00BF     		.align	2
 489              	.L79:
 490 0080 00000000 		.word	.LANCHOR0
 491              		.cfi_endproc
 492              	.LFE266:
 493              		.size	VectorDC, .-VectorDC
 494 0084 AFF30080 		.section	.text.uart_lld_init,"ax",%progbits
 494      AFF30080 
 494      AFF30080 
 495              		.align	2
 496              		.p2align 4,,15
 497              		.global	uart_lld_init
 498              		.thumb
 499              		.thumb_func
 500              		.type	uart_lld_init, %function
 501              	uart_lld_init:
 502              	.LFB267:
 503              		.loc 1 463 0
 504              		.cfi_startproc
 505              		@ args = 0, pretend = 0, frame = 0
 506              		@ frame_needed = 0, uses_anonymous_args = 0
 507 0000 10B5     		push	{r4, lr}
 508              		.cfi_def_cfa_offset 8
 509              		.cfi_offset 4, -8
 510              		.cfi_offset 14, -4
ARM GAS  C:\Users\jo\AppData\Local\Temp\ccetFvQA.s 			page 10


 511              		.loc 1 482 0
 512 0002 074C     		ldr	r4, .L83
 513 0004 2046     		mov	r0, r4
 514 0006 FFF7FEFF 		bl	uartObjectInit
 515              	.LVL35:
 516              		.loc 1 485 0
 517 000a 064B     		ldr	r3, .L83+4
 518              		.loc 1 483 0
 519 000c 064A     		ldr	r2, .L83+8
 520 000e A260     		str	r2, [r4, #8]
 521              		.loc 1 484 0
 522 0010 0621     		movs	r1, #6
 523              		.loc 1 486 0
 524 0012 03F11802 		add	r2, r3, #24
 525              		.loc 1 484 0
 526 0016 E160     		str	r1, [r4, #12]
 527              		.loc 1 485 0
 528 0018 2361     		str	r3, [r4, #16]
 529              		.loc 1 486 0
 530 001a 6261     		str	r2, [r4, #20]
 531 001c 10BD     		pop	{r4, pc}
 532              	.L84:
 533 001e 00BF     		.align	2
 534              	.L83:
 535 0020 00000000 		.word	.LANCHOR0
 536 0024 0C000000 		.word	_stm32_dma_streams+12
 537 0028 00480040 		.word	1073760256
 538              		.cfi_endproc
 539              	.LFE267:
 540              		.size	uart_lld_init, .-uart_lld_init
 541 002c AFF30080 		.section	.text.uart_lld_start,"ax",%progbits
 542              		.align	2
 543              		.p2align 4,,15
 544              		.global	uart_lld_start
 545              		.thumb
 546              		.thumb_func
 547              		.type	uart_lld_start, %function
 548              	uart_lld_start:
 549              	.LFB268:
 550              		.loc 1 520 0
 551              		.cfi_startproc
 552              		@ args = 0, pretend = 0, frame = 0
 553              		@ frame_needed = 0, uses_anonymous_args = 0
 554              	.LVL36:
 555 0000 F8B5     		push	{r3, r4, r5, r6, r7, lr}
 556              		.cfi_def_cfa_offset 24
 557              		.cfi_offset 3, -24
 558              		.cfi_offset 4, -20
 559              		.cfi_offset 5, -16
 560              		.cfi_offset 6, -12
 561              		.cfi_offset 7, -8
 562              		.cfi_offset 14, -4
 563              		.loc 1 522 0
 564 0002 0378     		ldrb	r3, [r0]	@ zero_extendqisi2
 565 0004 012B     		cmp	r3, #1
 566              		.loc 1 520 0
 567 0006 0446     		mov	r4, r0
ARM GAS  C:\Users\jo\AppData\Local\Temp\ccetFvQA.s 			page 11


 568              		.loc 1 522 0
 569 0008 3FD0     		beq	.L86
 570 000a 8568     		ldr	r5, [r0, #8]
 571              	.LVL37:
 572              	.L87:
 573              		.loc 1 664 0
 574 000c 0023     		movs	r3, #0
 575 000e A370     		strb	r3, [r4, #2]
 576              		.loc 1 665 0
 577 0010 6370     		strb	r3, [r4, #1]
 578              	.LVL38:
 579              	.LBB51:
 580              	.LBB52:
 581              		.loc 1 203 0
 582 0012 2046     		mov	r0, r4
 583 0014 FFF7FEFF 		bl	usart_stop
 584              	.LVL39:
 585              		.loc 1 207 0
 586 0018 A368     		ldr	r3, [r4, #8]
 587 001a 3E4A     		ldr	r2, .L108
 588 001c 9342     		cmp	r3, r2
 589 001e 49D0     		beq	.L92
 590 0020 02F58062 		add	r2, r2, #1024
 591 0024 9342     		cmp	r3, r2
 592 0026 45D0     		beq	.L92
 593              		.loc 1 213 0
 594 0028 6268     		ldr	r2, [r4, #4]
 595 002a 3B4B     		ldr	r3, .L108+4
 596 002c 5169     		ldr	r1, [r2, #20]
 597 002e B3FBF1F3 		udiv	r3, r3, r1
 598 0032 AB60     		str	r3, [r5, #8]
 599              	.L94:
 600              	.LBB53:
 601              	.LBB54:
 602              		.loc 1 164 0
 603 0034 D768     		ldr	r7, [r2, #12]
 604              	.LBE54:
 605              	.LBE53:
 606              		.loc 1 229 0
 607 0036 138B     		ldrh	r3, [r2, #24]
 608              		.loc 1 222 0
 609 0038 568B     		ldrh	r6, [r2, #26]
 610              		.loc 1 223 0
 611 003a 918B     		ldrh	r1, [r2, #28]
 612              	.LBB62:
 613              	.LBB55:
 614              		.loc 1 168 0
 615 003c 2269     		ldr	r2, [r4, #16]
 616              	.LBE55:
 617              	.LBE62:
 618              		.loc 1 216 0
 619 003e 2868     		ldr	r0, [r5]
 620              		.loc 1 217 0
 621 0040 6868     		ldr	r0, [r5, #4]
 622              	.LBB63:
 623              	.LBB56:
 624              		.loc 1 170 0
ARM GAS  C:\Users\jo\AppData\Local\Temp\ccetFvQA.s 			page 12


 625 0042 E068     		ldr	r0, [r4, #12]
 626              		.loc 1 168 0
 627 0044 1268     		ldr	r2, [r2]
 628              		.loc 1 167 0
 629 0046 002F     		cmp	r7, #0
 630              	.LBE56:
 631              	.LBE63:
 632              		.loc 1 229 0
 633 0048 43F40453 		orr	r3, r3, #8448
 634              	.LBB64:
 635              	.LBB57:
 636              		.loc 1 167 0
 637 004c 0CBF     		ite	eq
 638 004e 4FF48077 		moveq	r7, #256
 639 0052 4FF48877 		movne	r7, #272
 640              	.LBE57:
 641              	.LBE64:
 642              		.loc 1 222 0
 643 0056 46F04006 		orr	r6, r6, #64
 644              		.loc 1 229 0
 645 005a 43F00C03 		orr	r3, r3, #12
 646              		.loc 1 223 0
 647 005e 41F0C101 		orr	r1, r1, #193
 648              		.loc 1 229 0
 649 0062 9BB2     		uxth	r3, r3
 650              	.LBB65:
 651              	.LBB58:
 652              		.loc 1 170 0
 653 0064 3843     		orrs	r0, r0, r7
 654              	.LBE58:
 655              	.LBE65:
 656              		.loc 1 222 0
 657 0066 B6B2     		uxth	r6, r6
 658              	.LBB66:
 659              	.LBB59:
 660              		.loc 1 169 0
 661 0068 0127     		movs	r7, #1
 662              	.LBE59:
 663              	.LBE66:
 664              		.loc 1 218 0
 665 006a 4FF0000E 		mov	lr, #0
 666              		.loc 1 223 0
 667 006e 89B2     		uxth	r1, r1
 668              	.LBB67:
 669              	.LBB60:
 670              		.loc 1 168 0
 671 0070 1834     		adds	r4, r4, #24
 672              	.LVL40:
 673              	.LBE60:
 674              	.LBE67:
 675              		.loc 1 218 0
 676 0072 C5F800E0 		str	lr, [r5]
 677              		.loc 1 222 0
 678 0076 2E61     		str	r6, [r5, #16]
 679              		.loc 1 223 0
 680 0078 6961     		str	r1, [r5, #20]
 681              	.LVL41:
ARM GAS  C:\Users\jo\AppData\Local\Temp\ccetFvQA.s 			page 13


 682              		.loc 1 229 0
 683 007a EB60     		str	r3, [r5, #12]
 684              	.LVL42:
 685              	.LBB68:
 686              	.LBB61:
 687              		.loc 1 168 0
 688 007c D460     		str	r4, [r2, #12]
 689              		.loc 1 169 0
 690 007e 5760     		str	r7, [r2, #4]
 691              		.loc 1 170 0
 692 0080 1060     		str	r0, [r2]
 693              		.loc 1 171 0
 694 0082 1368     		ldr	r3, [r2]
 695 0084 3B43     		orrs	r3, r3, r7
 696 0086 1360     		str	r3, [r2]
 697 0088 F8BD     		pop	{r3, r4, r5, r6, r7, pc}
 698              	.LVL43:
 699              	.L86:
 700              	.LBE61:
 701              	.LBE68:
 702              	.LBE52:
 703              	.LBE51:
 704              		.loc 1 564 0
 705 008a 244D     		ldr	r5, .L108+8
 706 008c A842     		cmp	r0, r5
 707 008e 1DD0     		beq	.L104
 708              	.LVL44:
 709              	.L88:
 710              		.loc 1 657 0
 711 0090 6368     		ldr	r3, [r4, #4]
 712 0092 1B8B     		ldrh	r3, [r3, #24]
 713 0094 03F4A053 		and	r3, r3, #5120
 714 0098 B3F5805F 		cmp	r3, #4096
 715 009c 11D0     		beq	.L105
 716              	.L91:
 717              		.loc 1 659 0
 718 009e 2269     		ldr	r2, [r4, #16]
 719              		.loc 1 660 0
 720 00a0 6369     		ldr	r3, [r4, #20]
 721              		.loc 1 659 0
 722 00a2 A568     		ldr	r5, [r4, #8]
 723 00a4 1068     		ldr	r0, [r2]
 724              		.loc 1 660 0
 725 00a6 1968     		ldr	r1, [r3]
 726              		.loc 1 661 0
 727 00a8 0022     		movs	r2, #0
 728              		.loc 1 659 0
 729 00aa 2B1D     		adds	r3, r5, #4
 730 00ac 8360     		str	r3, [r0, #8]
 731              		.loc 1 660 0
 732 00ae 8B60     		str	r3, [r1, #8]
 733              		.loc 1 661 0
 734 00b0 2283     		strh	r2, [r4, #24]	@ movhi
 735 00b2 ABE7     		b	.L87
 736              	.LVL45:
 737              	.L92:
 738              	.LBB70:
ARM GAS  C:\Users\jo\AppData\Local\Temp\ccetFvQA.s 			page 14


 739              	.LBB69:
 740              		.loc 1 211 0
 741 00b4 6268     		ldr	r2, [r4, #4]
 742 00b6 1A4B     		ldr	r3, .L108+12
 743 00b8 5169     		ldr	r1, [r2, #20]
 744 00ba B3FBF1F3 		udiv	r3, r3, r1
 745 00be AB60     		str	r3, [r5, #8]
 746 00c0 B8E7     		b	.L94
 747              	.LVL46:
 748              	.L105:
 749              	.LBE69:
 750              	.LBE70:
 751              		.loc 1 658 0
 752 00c2 E368     		ldr	r3, [r4, #12]
 753 00c4 43F42053 		orr	r3, r3, #10240
 754 00c8 E360     		str	r3, [r4, #12]
 755 00ca E8E7     		b	.L91
 756              	.LVL47:
 757              	.L104:
 758              	.LBB71:
 759              		.loc 1 566 0
 760 00cc 0069     		ldr	r0, [r0, #16]
 761              	.LVL48:
 762 00ce 154A     		ldr	r2, .L108+16
 763 00d0 0C21     		movs	r1, #12
 764 00d2 2346     		mov	r3, r4
 765 00d4 FFF7FEFF 		bl	dmaStreamAllocate
 766              	.LVL49:
 767              		.loc 1 570 0
 768 00d8 A0B9     		cbnz	r0, .L106
 769              	.LVL50:
 770              	.L89:
 771              		.loc 1 571 0
 772 00da 6869     		ldr	r0, [r5, #20]
 773 00dc 124A     		ldr	r2, .L108+20
 774 00de 0F4B     		ldr	r3, .L108+8
 775 00e0 0C21     		movs	r1, #12
 776 00e2 FFF7FEFF 		bl	dmaStreamAllocate
 777              	.LVL51:
 778              		.loc 1 575 0
 779 00e6 88B9     		cbnz	r0, .L107
 780              	.LVL52:
 781              	.L90:
 782              		.loc 1 576 0
 783 00e8 104A     		ldr	r2, .L108+24
 784 00ea 136C     		ldr	r3, [r2, #64]
 785 00ec 43F48023 		orr	r3, r3, #262144
 786 00f0 1364     		str	r3, [r2, #64]
 787              		.loc 1 577 0
 788 00f2 2720     		movs	r0, #39
 789 00f4 0C21     		movs	r1, #12
 790 00f6 FFF7FEFF 		bl	nvicEnableVector
 791              	.LVL53:
 792              		.loc 1 578 0
 793 00fa EB68     		ldr	r3, [r5, #12]
 794 00fc 43F00063 		orr	r3, r3, #134217728
 795 0100 EB60     		str	r3, [r5, #12]
ARM GAS  C:\Users\jo\AppData\Local\Temp\ccetFvQA.s 			page 15


 796 0102 C5E7     		b	.L88
 797              	.LVL54:
 798              	.L106:
 799              		.loc 1 570 0 discriminator 2
 800 0104 0A48     		ldr	r0, .L108+28
 801              	.LVL55:
 802 0106 FFF7FEFF 		bl	chSysHalt
 803              	.LVL56:
 804 010a E6E7     		b	.L89
 805              	.LVL57:
 806              	.L107:
 807              		.loc 1 575 0 discriminator 2
 808 010c 0848     		ldr	r0, .L108+28
 809              	.LVL58:
 810 010e FFF7FEFF 		bl	chSysHalt
 811              	.LVL59:
 812 0112 E9E7     		b	.L90
 813              	.L109:
 814              		.align	2
 815              	.L108:
 816 0114 00100140 		.word	1073811456
 817 0118 60343C02 		.word	37500000
 818 011c 00000000 		.word	.LANCHOR0
 819 0120 C0687804 		.word	75000000
 820 0124 00000000 		.word	uart_lld_serve_rx_end_irq
 821 0128 00000000 		.word	uart_lld_serve_tx_end_irq
 822 012c 00380240 		.word	1073887232
 823 0130 00000000 		.word	.LANCHOR1
 824              	.LBE71:
 825              		.cfi_endproc
 826              	.LFE268:
 827              		.size	uart_lld_start, .-uart_lld_start
 828 0134 AFF30080 		.section	.text.uart_lld_stop,"ax",%progbits
 828      AFF30080 
 828      AFF30080 
 829              		.align	2
 830              		.p2align 4,,15
 831              		.global	uart_lld_stop
 832              		.thumb
 833              		.thumb_func
 834              		.type	uart_lld_stop, %function
 835              	uart_lld_stop:
 836              	.LFB269:
 837              		.loc 1 676 0
 838              		.cfi_startproc
 839              		@ args = 0, pretend = 0, frame = 0
 840              		@ frame_needed = 0, uses_anonymous_args = 0
 841              	.LVL60:
 842              		.loc 1 678 0
 843 0000 0278     		ldrb	r2, [r0]	@ zero_extendqisi2
 844 0002 022A     		cmp	r2, #2
 845 0004 00D0     		beq	.L116
 846 0006 7047     		bx	lr
 847              	.L116:
 848              		.loc 1 676 0
 849 0008 10B5     		push	{r4, lr}
 850              		.cfi_def_cfa_offset 8
ARM GAS  C:\Users\jo\AppData\Local\Temp\ccetFvQA.s 			page 16


 851              		.cfi_offset 4, -8
 852              		.cfi_offset 14, -4
 853 000a 0446     		mov	r4, r0
 854              		.loc 1 679 0
 855 000c FFF7FEFF 		bl	usart_stop
 856              	.LVL61:
 857              		.loc 1 680 0
 858 0010 2069     		ldr	r0, [r4, #16]
 859 0012 FFF7FEFF 		bl	dmaStreamRelease
 860              	.LVL62:
 861              		.loc 1 681 0
 862 0016 6069     		ldr	r0, [r4, #20]
 863 0018 FFF7FEFF 		bl	dmaStreamRelease
 864              	.LVL63:
 865              		.loc 1 700 0
 866 001c 064B     		ldr	r3, .L118
 867 001e 9C42     		cmp	r4, r3
 868 0020 00D0     		beq	.L117
 869              	.L110:
 870 0022 10BD     		pop	{r4, pc}
 871              	.LVL64:
 872              	.L117:
 873              		.loc 1 701 0
 874 0024 2720     		movs	r0, #39
 875 0026 FFF7FEFF 		bl	nvicDisableVector
 876              	.LVL65:
 877              		.loc 1 702 0
 878 002a 044A     		ldr	r2, .L118+4
 879 002c 136C     		ldr	r3, [r2, #64]
 880 002e 23F48023 		bic	r3, r3, #262144
 881 0032 1364     		str	r3, [r2, #64]
 882              		.loc 1 703 0
 883 0034 F5E7     		b	.L110
 884              	.L119:
 885 0036 00BF     		.align	2
 886              	.L118:
 887 0038 00000000 		.word	.LANCHOR0
 888 003c 00380240 		.word	1073887232
 889              		.cfi_endproc
 890              	.LFE269:
 891              		.size	uart_lld_stop, .-uart_lld_stop
 892              		.section	.text.uart_lld_start_send,"ax",%progbits
 893              		.align	2
 894              		.p2align 4,,15
 895              		.global	uart_lld_start_send
 896              		.thumb
 897              		.thumb_func
 898              		.type	uart_lld_start_send, %function
 899              	uart_lld_start_send:
 900              	.LFB270:
 901              		.loc 1 744 0
 902              		.cfi_startproc
 903              		@ args = 0, pretend = 0, frame = 0
 904              		@ frame_needed = 0, uses_anonymous_args = 0
 905              		@ link register save eliminated.
 906              	.LVL66:
 907 0000 30B4     		push	{r4, r5}
ARM GAS  C:\Users\jo\AppData\Local\Temp\ccetFvQA.s 			page 17


 908              		.cfi_def_cfa_offset 8
 909              		.cfi_offset 4, -8
 910              		.cfi_offset 5, -4
 911              		.loc 1 747 0
 912 0002 4369     		ldr	r3, [r0, #20]
 913              		.loc 1 754 0
 914 0004 4568     		ldr	r5, [r0, #4]
 915              		.loc 1 749 0
 916 0006 C468     		ldr	r4, [r0, #12]
 917              		.loc 1 747 0
 918 0008 1B68     		ldr	r3, [r3]
 919              		.loc 1 754 0
 920 000a 6D68     		ldr	r5, [r5, #4]
 921              		.loc 1 747 0
 922 000c DA60     		str	r2, [r3, #12]
 923              		.loc 1 749 0
 924 000e 44F48A64 		orr	r4, r4, #1104
 925              		.loc 1 748 0
 926 0012 5960     		str	r1, [r3, #4]
 927              		.loc 1 749 0
 928 0014 1C60     		str	r4, [r3]
 929              		.loc 1 754 0
 930 0016 3DB1     		cbz	r5, .L121
 931              		.loc 1 755 0
 932 0018 8268     		ldr	r2, [r0, #8]
 933              	.LVL67:
 934 001a 6FF04001 		mvn	r1, #64
 935              	.LVL68:
 936 001e 1160     		str	r1, [r2]
 937              		.loc 1 756 0
 938 0020 D168     		ldr	r1, [r2, #12]
 939 0022 41F04001 		orr	r1, r1, #64
 940 0026 D160     		str	r1, [r2, #12]
 941              	.L121:
 942              		.loc 1 760 0
 943 0028 1A68     		ldr	r2, [r3]
 944 002a 42F00102 		orr	r2, r2, #1
 945 002e 1A60     		str	r2, [r3]
 946              		.loc 1 761 0
 947 0030 30BC     		pop	{r4, r5}
 948              		.cfi_restore 5
 949              		.cfi_restore 4
 950              		.cfi_def_cfa_offset 0
 951 0032 7047     		bx	lr
 952              		.cfi_endproc
 953              	.LFE270:
 954              		.size	uart_lld_start_send, .-uart_lld_start_send
 955 0034 AFF30080 		.section	.text.uart_lld_stop_send,"ax",%progbits
 955      AFF30080 
 955      AFF30080 
 956              		.align	2
 957              		.p2align 4,,15
 958              		.global	uart_lld_stop_send
 959              		.thumb
 960              		.thumb_func
 961              		.type	uart_lld_stop_send, %function
 962              	uart_lld_stop_send:
ARM GAS  C:\Users\jo\AppData\Local\Temp\ccetFvQA.s 			page 18


 963              	.LFB271:
 964              		.loc 1 774 0
 965              		.cfi_startproc
 966              		@ args = 0, pretend = 0, frame = 0
 967              		@ frame_needed = 0, uses_anonymous_args = 0
 968              		@ link register save eliminated.
 969              	.LVL69:
 970              		.loc 1 776 0
 971 0000 4169     		ldr	r1, [r0, #20]
 972 0002 0A68     		ldr	r2, [r1]
 973 0004 1368     		ldr	r3, [r2]
 974 0006 23F01F03 		bic	r3, r3, #31
 975 000a 1360     		str	r3, [r2]
 976              	.L127:
 977              		.loc 1 776 0 is_stmt 0 discriminator 2
 978 000c 1368     		ldr	r3, [r2]
 979 000e DB07     		lsls	r3, r3, #31
 980 0010 FCD4     		bmi	.L127
 981              		.loc 1 776 0 discriminator 3
 982 0012 087A     		ldrb	r0, [r1, #8]	@ zero_extendqisi2
 983              	.LVL70:
 984 0014 4968     		ldr	r1, [r1, #4]
 985 0016 3D23     		movs	r3, #61
 986 0018 8340     		lsls	r3, r3, r0
 987 001a 0B60     		str	r3, [r1]
 988              		.loc 1 778 0 is_stmt 1 discriminator 3
 989 001c 5068     		ldr	r0, [r2, #4]
 990              		.loc 1 779 0 discriminator 3
 991 001e 7047     		bx	lr
 992              		.cfi_endproc
 993              	.LFE271:
 994              		.size	uart_lld_stop_send, .-uart_lld_stop_send
 995              		.section	.text.uart_lld_start_receive,"ax",%progbits
 996              		.align	2
 997              		.p2align 4,,15
 998              		.global	uart_lld_start_receive
 999              		.thumb
 1000              		.thumb_func
 1001              		.type	uart_lld_start_receive, %function
 1002              	uart_lld_start_receive:
 1003              	.LFB272:
 1004              		.loc 1 792 0
 1005              		.cfi_startproc
 1006              		@ args = 0, pretend = 0, frame = 0
 1007              		@ frame_needed = 0, uses_anonymous_args = 0
 1008              		@ link register save eliminated.
 1009              	.LVL71:
 1010 0000 70B4     		push	{r4, r5, r6}
 1011              		.cfi_def_cfa_offset 12
 1012              		.cfi_offset 4, -12
 1013              		.cfi_offset 5, -8
 1014              		.cfi_offset 6, -4
 1015              		.loc 1 795 0
 1016 0002 0569     		ldr	r5, [r0, #16]
 1017 0004 2C68     		ldr	r4, [r5]
 1018 0006 2368     		ldr	r3, [r4]
 1019 0008 23F01F03 		bic	r3, r3, #31
ARM GAS  C:\Users\jo\AppData\Local\Temp\ccetFvQA.s 			page 19


 1020 000c 2360     		str	r3, [r4]
 1021              	.L130:
 1022              		.loc 1 795 0 is_stmt 0 discriminator 2
 1023 000e 2368     		ldr	r3, [r4]
 1024 0010 DB07     		lsls	r3, r3, #31
 1025 0012 FCD4     		bmi	.L130
 1026              		.loc 1 795 0 discriminator 3
 1027 0014 2E7A     		ldrb	r6, [r5, #8]	@ zero_extendqisi2
 1028 0016 6D68     		ldr	r5, [r5, #4]
 1029 0018 3D23     		movs	r3, #61
 1030 001a B340     		lsls	r3, r3, r6
 1031 001c 2B60     		str	r3, [r5]
 1032              		.loc 1 800 0 is_stmt 1 discriminator 3
 1033 001e C368     		ldr	r3, [r0, #12]
 1034              		.loc 1 798 0 discriminator 3
 1035 0020 E260     		str	r2, [r4, #12]
 1036              		.loc 1 800 0 discriminator 3
 1037 0022 43F48263 		orr	r3, r3, #1040
 1038              		.loc 1 799 0 discriminator 3
 1039 0026 6160     		str	r1, [r4, #4]
 1040              		.loc 1 800 0 discriminator 3
 1041 0028 2360     		str	r3, [r4]
 1042              		.loc 1 804 0 discriminator 3
 1043 002a 2368     		ldr	r3, [r4]
 1044 002c 43F00103 		orr	r3, r3, #1
 1045 0030 2360     		str	r3, [r4]
 1046              		.loc 1 805 0 discriminator 3
 1047 0032 70BC     		pop	{r4, r5, r6}
 1048              		.cfi_restore 6
 1049              		.cfi_restore 5
 1050              		.cfi_restore 4
 1051              		.cfi_def_cfa_offset 0
 1052 0034 7047     		bx	lr
 1053              		.cfi_endproc
 1054              	.LFE272:
 1055              		.size	uart_lld_start_receive, .-uart_lld_start_receive
 1056 0036 00BFAFF3 		.section	.text.uart_lld_stop_receive,"ax",%progbits
 1056      0080AFF3 
 1056      0080
 1057              		.align	2
 1058              		.p2align 4,,15
 1059              		.global	uart_lld_stop_receive
 1060              		.thumb
 1061              		.thumb_func
 1062              		.type	uart_lld_stop_receive, %function
 1063              	uart_lld_stop_receive:
 1064              	.LFB273:
 1065              		.loc 1 818 0
 1066              		.cfi_startproc
 1067              		@ args = 0, pretend = 0, frame = 0
 1068              		@ frame_needed = 0, uses_anonymous_args = 0
 1069              		@ link register save eliminated.
 1070              	.LVL72:
 1071 0000 0146     		mov	r1, r0
 1072              		.loc 1 821 0
 1073 0002 0069     		ldr	r0, [r0, #16]
 1074              	.LVL73:
ARM GAS  C:\Users\jo\AppData\Local\Temp\ccetFvQA.s 			page 20


 1075 0004 0268     		ldr	r2, [r0]
 1076 0006 1368     		ldr	r3, [r2]
 1077 0008 23F01F03 		bic	r3, r3, #31
 1078 000c 1360     		str	r3, [r2]
 1079              	.L134:
 1080              		.loc 1 821 0 is_stmt 0 discriminator 2
 1081 000e 1368     		ldr	r3, [r2]
 1082 0010 DB07     		lsls	r3, r3, #31
 1083 0012 FCD4     		bmi	.L134
 1084              		.loc 1 818 0 is_stmt 1 discriminator 3
 1085 0014 30B4     		push	{r4, r5}
 1086              		.cfi_def_cfa_offset 8
 1087              		.cfi_offset 4, -8
 1088              		.cfi_offset 5, -4
 1089              	.LBB72:
 1090              	.LBB73:
 1091              		.loc 1 164 0 discriminator 3
 1092 0016 4B68     		ldr	r3, [r1, #4]
 1093              	.LBE73:
 1094              	.LBE72:
 1095              		.loc 1 821 0 discriminator 3
 1096 0018 057A     		ldrb	r5, [r0, #8]	@ zero_extendqisi2
 1097              	.LBB77:
 1098              	.LBB74:
 1099              		.loc 1 164 0 discriminator 3
 1100 001a DC68     		ldr	r4, [r3, #12]
 1101              	.LBE74:
 1102              	.LBE77:
 1103              		.loc 1 821 0 discriminator 3
 1104 001c 4068     		ldr	r0, [r0, #4]
 1105 001e 3D23     		movs	r3, #61
 1106 0020 AB40     		lsls	r3, r3, r5
 1107 0022 0360     		str	r3, [r0]
 1108              	.LBB78:
 1109              	.LBB75:
 1110              		.loc 1 170 0 discriminator 3
 1111 0024 CB68     		ldr	r3, [r1, #12]
 1112              	.LBE75:
 1113              	.LBE78:
 1114              		.loc 1 822 0 discriminator 3
 1115 0026 5068     		ldr	r0, [r2, #4]
 1116              	.LVL74:
 1117              	.LBB79:
 1118              	.LBB76:
 1119              		.loc 1 167 0 discriminator 3
 1120 0028 002C     		cmp	r4, #0
 1121 002a 0CBF     		ite	eq
 1122 002c 4FF48074 		moveq	r4, #256
 1123 0030 4FF48874 		movne	r4, #272
 1124              	.LVL75:
 1125              		.loc 1 170 0 discriminator 3
 1126 0034 2343     		orrs	r3, r3, r4
 1127              		.loc 1 168 0 discriminator 3
 1128 0036 1831     		adds	r1, r1, #24
 1129              	.LVL76:
 1130              		.loc 1 169 0 discriminator 3
 1131 0038 0124     		movs	r4, #1
ARM GAS  C:\Users\jo\AppData\Local\Temp\ccetFvQA.s 			page 21


 1132              	.LVL77:
 1133              		.loc 1 168 0 discriminator 3
 1134 003a D160     		str	r1, [r2, #12]
 1135              		.loc 1 169 0 discriminator 3
 1136 003c 5460     		str	r4, [r2, #4]
 1137              		.loc 1 170 0 discriminator 3
 1138 003e 1360     		str	r3, [r2]
 1139              		.loc 1 171 0 discriminator 3
 1140 0040 1368     		ldr	r3, [r2]
 1141 0042 2343     		orrs	r3, r3, r4
 1142 0044 1360     		str	r3, [r2]
 1143              	.LBE76:
 1144              	.LBE79:
 1145              		.loc 1 826 0 discriminator 3
 1146 0046 30BC     		pop	{r4, r5}
 1147              		.cfi_restore 5
 1148              		.cfi_restore 4
 1149              		.cfi_def_cfa_offset 0
 1150 0048 7047     		bx	lr
 1151              		.cfi_endproc
 1152              	.LFE273:
 1153              		.size	uart_lld_stop_receive, .-uart_lld_stop_receive
 1154              		.global	UARTD3
 1155 004a 00BFAFF3 		.section	.rodata.__func__.7554,"a",%progbits
 1155      0080
 1156              		.align	2
 1157              		.set	.LANCHOR1,. + 0
 1158              		.type	__func__.7554, %object
 1159              		.size	__func__.7554, 15
 1160              	__func__.7554:
 1161 0000 75617274 		.ascii	"uart_lld_start\000"
 1161      5F6C6C64 
 1161      5F737461 
 1161      727400
 1162 000f 00       		.section	.rodata.str1.4,"aMS",%progbits,1
 1163              		.align	2
 1164              	.LC0:
 1165 0000 444D4120 		.ascii	"DMA failure\000"
 1165      6661696C 
 1165      75726500 
 1166              		.section	.bss.UARTD3,"aw",%nobits
 1167              		.align	2
 1168              		.set	.LANCHOR0,. + 0
 1169              		.type	UARTD3, %object
 1170              		.size	UARTD3, 28
 1171              	UARTD3:
 1172 0000 00000000 		.space	28
 1172      00000000 
 1172      00000000 
 1172      00000000 
 1172      00000000 
 1173              		.text
 1174              	.Letext0:
 1175              		.file 3 "c:\\program files\\gnu tools arm embedded\\4.9 2014q4\\lib\\gcc\\arm-none-eabi\\4.9.3\\in
 1176              		.file 4 "c:\\program files\\gnu tools arm embedded\\4.9 2014q4\\arm-none-eabi\\include\\machine\\_
 1177              		.file 5 "c:\\program files\\gnu tools arm embedded\\4.9 2014q4\\arm-none-eabi\\include\\stdint.h"
 1178              		.file 6 "../../../os/rt/ports/ARMCMx/compilers/GCC/chtypes.h"
ARM GAS  C:\Users\jo\AppData\Local\Temp\ccetFvQA.s 			page 22


 1179              		.file 7 "../../../os/rt/include/chsystypes.h"
 1180              		.file 8 "../../../os/rt/include/chschd.h"
 1181              		.file 9 "../../../os/ext/CMSIS/ST/stm32f407xx.h"
 1182              		.file 10 "../../../os/rt/ports/ARMCMx/chcore.h"
 1183              		.file 11 "../../../os/rt/ports/ARMCMx/chcore_v7m.h"
 1184              		.file 12 "../../../os/rt/include/chdebug.h"
 1185              		.file 13 "../../../os/rt/include/chtm.h"
 1186              		.file 14 "../../../os/rt/include/chsem.h"
 1187              		.file 15 "../../../os/rt/include/chmtx.h"
 1188              		.file 16 "../../../os/hal/ports/STM32/STM32F4xx/stm32_dma.h"
 1189              		.file 17 "../../../os/hal/include/uart.h"
 1190              		.file 18 "../../../os/hal/ports/STM32/LLD/USARTv1/uart_lld.h"
 1191              		.file 19 "../../../os/ext/CMSIS/include/core_cm4.h"
 1192              		.file 20 "../../../os/rt/include/chsys.h"
 1193              		.file 21 "../../../os/hal/ports/common/ARMCMx/nvic.h"