ARM GAS  C:\Users\jo\AppData\Local\Temp\ccRUdN6v.s 			page 1


   1              		.syntax unified
   2              		.cpu cortex-m4
   3              		.fpu softvfp
   4              		.eabi_attribute 20, 1
   5              		.eabi_attribute 21, 1
   6              		.eabi_attribute 23, 3
   7              		.eabi_attribute 24, 1
   8              		.eabi_attribute 25, 1
   9              		.eabi_attribute 26, 1
  10              		.eabi_attribute 30, 2
  11              		.eabi_attribute 34, 1
  12              		.eabi_attribute 18, 4
  13              		.thumb
  14              		.file	"uart.c"
  15              		.text
  16              	.Ltext0:
  17              		.cfi_sections	.debug_frame
  18              		.section	.text.uartInit,"ax",%progbits
  19              		.align	2
  20              		.p2align 4,,15
  21              		.global	uartInit
  22              		.thumb
  23              		.thumb_func
  24              		.type	uartInit, %function
  25              	uartInit:
  26              	.LFB259:
  27              		.file 1 "../../../os/hal/src/uart.c"
  28              		.loc 1 56 0
  29              		.cfi_startproc
  30              		@ args = 0, pretend = 0, frame = 0
  31              		@ frame_needed = 0, uses_anonymous_args = 0
  32              		@ link register save eliminated.
  33              		.loc 1 58 0
  34 0000 FFF7FEBF 		b	uart_lld_init
  35              	.LVL0:
  36              		.cfi_endproc
  37              	.LFE259:
  38              		.size	uartInit, .-uartInit
  39 0004 AFF30080 		.section	.text.uartObjectInit,"ax",%progbits
  39      AFF30080 
  39      AFF30080 
  40              		.align	2
  41              		.p2align 4,,15
  42              		.global	uartObjectInit
  43              		.thumb
  44              		.thumb_func
  45              		.type	uartObjectInit, %function
  46              	uartObjectInit:
  47              	.LFB260:
  48              		.loc 1 68 0
  49              		.cfi_startproc
  50              		@ args = 0, pretend = 0, frame = 0
  51              		@ frame_needed = 0, uses_anonymous_args = 0
  52              		@ link register save eliminated.
  53              	.LVL1:
  54              		.loc 1 71 0
  55 0000 0023     		movs	r3, #0
ARM GAS  C:\Users\jo\AppData\Local\Temp\ccRUdN6v.s 			page 2


  56              		.loc 1 70 0
  57 0002 0122     		movs	r2, #1
  58 0004 0270     		strb	r2, [r0]
  59              		.loc 1 71 0
  60 0006 4370     		strb	r3, [r0, #1]
  61              		.loc 1 72 0
  62 0008 8370     		strb	r3, [r0, #2]
  63              		.loc 1 73 0
  64 000a 4360     		str	r3, [r0, #4]
  65 000c 7047     		bx	lr
  66              		.cfi_endproc
  67              	.LFE260:
  68              		.size	uartObjectInit, .-uartObjectInit
  69 000e 00BF     		.section	.text.uartStart,"ax",%progbits
  70              		.align	2
  71              		.p2align 4,,15
  72              		.global	uartStart
  73              		.thumb
  74              		.thumb_func
  75              		.type	uartStart, %function
  76              	uartStart:
  77              	.LFB261:
  78              		.loc 1 88 0
  79              		.cfi_startproc
  80              		@ args = 0, pretend = 0, frame = 0
  81              		@ frame_needed = 0, uses_anonymous_args = 0
  82              	.LVL2:
  83 0000 38B5     		push	{r3, r4, r5, lr}
  84              		.cfi_def_cfa_offset 16
  85              		.cfi_offset 3, -16
  86              		.cfi_offset 4, -12
  87              		.cfi_offset 5, -8
  88              		.cfi_offset 14, -4
  89              		.loc 1 88 0
  90 0002 0D46     		mov	r5, r1
  91              		.loc 1 90 0
  92 0004 0446     		mov	r4, r0
  93 0006 20B3     		cbz	r0, .L4
  94              		.loc 1 90 0 is_stmt 0 discriminator 3
  95 0008 19B3     		cbz	r1, .L4
  96              	.LVL3:
  97              	.L5:
  98              	.LBB86:
  99              	.LBB87:
 100              	.LBB88:
 101              	.LBB89:
 102              	.LBB90:
 103              	.LBB91:
 104              		.file 2 "../../../os/ext/CMSIS/include/core_cmFunc.h"
 105              		.loc 2 546 0 is_stmt 1
 106 000a 2023     		movs	r3, #32
 107              	@ 546 "../../../os/ext/CMSIS/include/core_cmFunc.h" 1
 108 000c 83F31188 		MSR basepri, r3
 109              	@ 0 "" 2
 110              		.thumb
 111              	.LBE91:
 112              	.LBE90:
ARM GAS  C:\Users\jo\AppData\Local\Temp\ccRUdN6v.s 			page 3


 113              	.LBE89:
 114              		.file 3 "../../../os/rt/include/chsys.h"
 115              		.loc 3 350 0
 116 0010 FFF7FEFF 		bl	_dbg_check_lock
 117              	.LVL4:
 118              	.LBE88:
 119              	.LBE87:
 120              	.LBE86:
 121              		.loc 1 93 0
 122 0014 2378     		ldrb	r3, [r4]	@ zero_extendqisi2
 123 0016 013B     		subs	r3, r3, #1
 124 0018 012B     		cmp	r3, #1
 125 001a 02D9     		bls	.L6
 126              		.loc 1 93 0 is_stmt 0 discriminator 2
 127 001c 0F48     		ldr	r0, .L13
 128 001e FFF7FEFF 		bl	chSysHalt
 129              	.LVL5:
 130              	.L6:
 131              		.loc 1 97 0 is_stmt 1
 132 0022 2046     		mov	r0, r4
 133              		.loc 1 96 0
 134 0024 6560     		str	r5, [r4, #4]
 135              		.loc 1 97 0
 136 0026 FFF7FEFF 		bl	uart_lld_start
 137              	.LVL6:
 138              		.loc 1 98 0
 139 002a 0223     		movs	r3, #2
 140 002c 2370     		strb	r3, [r4]
 141              	.LBB92:
 142              	.LBB93:
 143              	.LBB94:
 144              		.loc 3 360 0
 145 002e FFF7FEFF 		bl	_dbg_check_unlock
 146              	.LVL7:
 147              		.loc 3 367 0
 148 0032 0B4B     		ldr	r3, .L13+4
 149 0034 1A68     		ldr	r2, [r3]
 150 0036 9A42     		cmp	r2, r3
 151 0038 07D0     		beq	.L7
 152 003a 9969     		ldr	r1, [r3, #24]
 153 003c 9368     		ldr	r3, [r2, #8]
 154 003e 8A68     		ldr	r2, [r1, #8]
 155 0040 9A42     		cmp	r2, r3
 156 0042 02D2     		bcs	.L7
 157 0044 0748     		ldr	r0, .L13+8
 158 0046 FFF7FEFF 		bl	chSysHalt
 159              	.LVL8:
 160              	.L7:
 161              	.LBB95:
 162              	.LBB96:
 163              	.LBB97:
 164              		.loc 2 546 0
 165 004a 0023     		movs	r3, #0
 166              	@ 546 "../../../os/ext/CMSIS/include/core_cmFunc.h" 1
 167 004c 83F31188 		MSR basepri, r3
 168              	@ 0 "" 2
 169              		.thumb
ARM GAS  C:\Users\jo\AppData\Local\Temp\ccRUdN6v.s 			page 4


 170 0050 38BD     		pop	{r3, r4, r5, pc}
 171              	.LVL9:
 172              	.L4:
 173              	.LBE97:
 174              	.LBE96:
 175              	.LBE95:
 176              	.LBE94:
 177              	.LBE93:
 178              	.LBE92:
 179              		.loc 1 90 0 discriminator 4
 180 0052 0248     		ldr	r0, .L13
 181              	.LVL10:
 182 0054 FFF7FEFF 		bl	chSysHalt
 183              	.LVL11:
 184 0058 D7E7     		b	.L5
 185              	.L14:
 186 005a 00BF     		.align	2
 187              	.L13:
 188 005c 00000000 		.word	.LANCHOR0
 189 0060 00000000 		.word	ch
 190 0064 00000000 		.word	.LANCHOR1
 191              		.cfi_endproc
 192              	.LFE261:
 193              		.size	uartStart, .-uartStart
 194 0068 AFF30080 		.section	.text.uartStop,"ax",%progbits
 194      AFF30080 
 195              		.align	2
 196              		.p2align 4,,15
 197              		.global	uartStop
 198              		.thumb
 199              		.thumb_func
 200              		.type	uartStop, %function
 201              	uartStop:
 202              	.LFB262:
 203              		.loc 1 109 0
 204              		.cfi_startproc
 205              		@ args = 0, pretend = 0, frame = 0
 206              		@ frame_needed = 0, uses_anonymous_args = 0
 207              	.LVL12:
 208 0000 10B5     		push	{r4, lr}
 209              		.cfi_def_cfa_offset 8
 210              		.cfi_offset 4, -8
 211              		.cfi_offset 14, -4
 212              		.loc 1 111 0
 213 0002 0446     		mov	r4, r0
 214 0004 28B3     		cbz	r0, .L20
 215              	.LVL13:
 216              	.L16:
 217              	.LBB111:
 218              	.LBB112:
 219              	.LBB113:
 220              	.LBB114:
 221              	.LBB115:
 222              	.LBB116:
 223              		.loc 2 546 0
 224 0006 2023     		movs	r3, #32
 225              	@ 546 "../../../os/ext/CMSIS/include/core_cmFunc.h" 1
ARM GAS  C:\Users\jo\AppData\Local\Temp\ccRUdN6v.s 			page 5


 226 0008 83F31188 		MSR basepri, r3
 227              	@ 0 "" 2
 228              		.thumb
 229              	.LBE116:
 230              	.LBE115:
 231              	.LBE114:
 232              		.loc 3 350 0
 233 000c FFF7FEFF 		bl	_dbg_check_lock
 234              	.LVL14:
 235              	.LBE113:
 236              	.LBE112:
 237              	.LBE111:
 238              		.loc 1 114 0
 239 0010 2378     		ldrb	r3, [r4]	@ zero_extendqisi2
 240 0012 013B     		subs	r3, r3, #1
 241 0014 012B     		cmp	r3, #1
 242 0016 02D9     		bls	.L17
 243              		.loc 1 114 0 is_stmt 0 discriminator 2
 244 0018 1048     		ldr	r0, .L21
 245 001a FFF7FEFF 		bl	chSysHalt
 246              	.LVL15:
 247              	.L17:
 248              		.loc 1 117 0 is_stmt 1
 249 001e 2046     		mov	r0, r4
 250 0020 FFF7FEFF 		bl	uart_lld_stop
 251              	.LVL16:
 252              		.loc 1 119 0
 253 0024 0023     		movs	r3, #0
 254              		.loc 1 118 0
 255 0026 0122     		movs	r2, #1
 256 0028 2270     		strb	r2, [r4]
 257              		.loc 1 119 0
 258 002a 6370     		strb	r3, [r4, #1]
 259              		.loc 1 120 0
 260 002c A370     		strb	r3, [r4, #2]
 261              	.LBB117:
 262              	.LBB118:
 263              	.LBB119:
 264              		.loc 3 360 0
 265 002e FFF7FEFF 		bl	_dbg_check_unlock
 266              	.LVL17:
 267              		.loc 3 367 0
 268 0032 0B4B     		ldr	r3, .L21+4
 269 0034 1A68     		ldr	r2, [r3]
 270 0036 9A42     		cmp	r2, r3
 271 0038 07D0     		beq	.L18
 272 003a 9969     		ldr	r1, [r3, #24]
 273 003c 9368     		ldr	r3, [r2, #8]
 274 003e 8A68     		ldr	r2, [r1, #8]
 275 0040 9A42     		cmp	r2, r3
 276 0042 02D2     		bcs	.L18
 277 0044 0748     		ldr	r0, .L21+8
 278 0046 FFF7FEFF 		bl	chSysHalt
 279              	.LVL18:
 280              	.L18:
 281              	.LBB120:
 282              	.LBB121:
ARM GAS  C:\Users\jo\AppData\Local\Temp\ccRUdN6v.s 			page 6


 283              	.LBB122:
 284              		.loc 2 546 0
 285 004a 0023     		movs	r3, #0
 286              	@ 546 "../../../os/ext/CMSIS/include/core_cmFunc.h" 1
 287 004c 83F31188 		MSR basepri, r3
 288              	@ 0 "" 2
 289              		.thumb
 290 0050 10BD     		pop	{r4, pc}
 291              	.LVL19:
 292              	.L20:
 293              	.LBE122:
 294              	.LBE121:
 295              	.LBE120:
 296              	.LBE119:
 297              	.LBE118:
 298              	.LBE117:
 299              		.loc 1 111 0 discriminator 2
 300 0052 0248     		ldr	r0, .L21
 301              	.LVL20:
 302 0054 FFF7FEFF 		bl	chSysHalt
 303              	.LVL21:
 304 0058 D5E7     		b	.L16
 305              	.L22:
 306 005a 00BF     		.align	2
 307              	.L21:
 308 005c 00000000 		.word	.LANCHOR2
 309 0060 00000000 		.word	ch
 310 0064 00000000 		.word	.LANCHOR1
 311              		.cfi_endproc
 312              	.LFE262:
 313              		.size	uartStop, .-uartStop
 314 0068 AFF30080 		.section	.text.uartStartSend,"ax",%progbits
 314      AFF30080 
 315              		.align	2
 316              		.p2align 4,,15
 317              		.global	uartStartSend
 318              		.thumb
 319              		.thumb_func
 320              		.type	uartStartSend, %function
 321              	uartStartSend:
 322              	.LFB263:
 323              		.loc 1 135 0
 324              		.cfi_startproc
 325              		@ args = 0, pretend = 0, frame = 0
 326              		@ frame_needed = 0, uses_anonymous_args = 0
 327              	.LVL22:
 328 0000 70B5     		push	{r4, r5, r6, lr}
 329              		.cfi_def_cfa_offset 16
 330              		.cfi_offset 4, -16
 331              		.cfi_offset 5, -12
 332              		.cfi_offset 6, -8
 333              		.cfi_offset 14, -4
 334              		.loc 1 135 0
 335 0002 0D46     		mov	r5, r1
 336 0004 1646     		mov	r6, r2
 337              		.loc 1 137 0
 338 0006 0446     		mov	r4, r0
ARM GAS  C:\Users\jo\AppData\Local\Temp\ccRUdN6v.s 			page 7


 339 0008 00B1     		cbz	r0, .L24
 340              		.loc 1 137 0 is_stmt 0 discriminator 3
 341 000a 49BB     		cbnz	r1, .L39
 342              	.L24:
 343              		.loc 1 137 0 discriminator 6
 344 000c 1848     		ldr	r0, .L41
 345              	.LVL23:
 346 000e FFF7FEFF 		bl	chSysHalt
 347              	.LVL24:
 348              	.L25:
 349              	.LBB136:
 350              	.LBB137:
 351              	.LBB138:
 352              	.LBB139:
 353              	.LBB140:
 354              	.LBB141:
 355              		.loc 2 546 0 is_stmt 1
 356 0012 2023     		movs	r3, #32
 357              	@ 546 "../../../os/ext/CMSIS/include/core_cmFunc.h" 1
 358 0014 83F31188 		MSR basepri, r3
 359              	@ 0 "" 2
 360              		.thumb
 361              	.LBE141:
 362              	.LBE140:
 363              	.LBE139:
 364              		.loc 3 350 0
 365 0018 FFF7FEFF 		bl	_dbg_check_lock
 366              	.LVL25:
 367              	.LBE138:
 368              	.LBE137:
 369              	.LBE136:
 370              		.loc 1 140 0
 371 001c 2378     		ldrb	r3, [r4]	@ zero_extendqisi2
 372 001e 022B     		cmp	r3, #2
 373 0020 02D0     		beq	.L26
 374              		.loc 1 140 0 is_stmt 0 discriminator 2
 375 0022 1348     		ldr	r0, .L41
 376 0024 FFF7FEFF 		bl	chSysHalt
 377              	.LVL26:
 378              	.L26:
 379              		.loc 1 141 0 is_stmt 1 discriminator 1
 380 0028 6378     		ldrb	r3, [r4, #1]	@ zero_extendqisi2
 381 002a 012B     		cmp	r3, #1
 382 002c 1BD0     		beq	.L40
 383              	.L27:
 384              		.loc 1 143 0
 385 002e 3246     		mov	r2, r6
 386 0030 2946     		mov	r1, r5
 387 0032 2046     		mov	r0, r4
 388 0034 FFF7FEFF 		bl	uart_lld_start_send
 389              	.LVL27:
 390              		.loc 1 144 0
 391 0038 0123     		movs	r3, #1
 392 003a 6370     		strb	r3, [r4, #1]
 393              	.LBB142:
 394              	.LBB143:
 395              	.LBB144:
ARM GAS  C:\Users\jo\AppData\Local\Temp\ccRUdN6v.s 			page 8


 396              		.loc 3 360 0
 397 003c FFF7FEFF 		bl	_dbg_check_unlock
 398              	.LVL28:
 399              		.loc 3 367 0
 400 0040 0C4B     		ldr	r3, .L41+4
 401 0042 1A68     		ldr	r2, [r3]
 402 0044 9A42     		cmp	r2, r3
 403 0046 07D0     		beq	.L28
 404 0048 9969     		ldr	r1, [r3, #24]
 405 004a 9368     		ldr	r3, [r2, #8]
 406 004c 8A68     		ldr	r2, [r1, #8]
 407 004e 9A42     		cmp	r2, r3
 408 0050 02D2     		bcs	.L28
 409 0052 0948     		ldr	r0, .L41+8
 410 0054 FFF7FEFF 		bl	chSysHalt
 411              	.LVL29:
 412              	.L28:
 413              	.LBB145:
 414              	.LBB146:
 415              	.LBB147:
 416              		.loc 2 546 0
 417 0058 0023     		movs	r3, #0
 418              	@ 546 "../../../os/ext/CMSIS/include/core_cmFunc.h" 1
 419 005a 83F31188 		MSR basepri, r3
 420              	@ 0 "" 2
 421              		.thumb
 422 005e 70BD     		pop	{r4, r5, r6, pc}
 423              	.LVL30:
 424              	.L39:
 425              	.LBE147:
 426              	.LBE146:
 427              	.LBE145:
 428              	.LBE144:
 429              	.LBE143:
 430              	.LBE142:
 431              		.loc 1 137 0 discriminator 5
 432 0060 002A     		cmp	r2, #0
 433 0062 D6D1     		bne	.L25
 434 0064 D2E7     		b	.L24
 435              	.LVL31:
 436              	.L40:
 437              		.loc 1 141 0 discriminator 2
 438 0066 0248     		ldr	r0, .L41
 439 0068 FFF7FEFF 		bl	chSysHalt
 440              	.LVL32:
 441 006c DFE7     		b	.L27
 442              	.L42:
 443 006e 00BF     		.align	2
 444              	.L41:
 445 0070 00000000 		.word	.LANCHOR3
 446 0074 00000000 		.word	ch
 447 0078 00000000 		.word	.LANCHOR1
 448              		.cfi_endproc
 449              	.LFE263:
 450              		.size	uartStartSend, .-uartStartSend
 451 007c AFF30080 		.section	.text.uartStartSendI,"ax",%progbits
 452              		.align	2
ARM GAS  C:\Users\jo\AppData\Local\Temp\ccRUdN6v.s 			page 9


 453              		.p2align 4,,15
 454              		.global	uartStartSendI
 455              		.thumb
 456              		.thumb_func
 457              		.type	uartStartSendI, %function
 458              	uartStartSendI:
 459              	.LFB264:
 460              		.loc 1 160 0
 461              		.cfi_startproc
 462              		@ args = 0, pretend = 0, frame = 0
 463              		@ frame_needed = 0, uses_anonymous_args = 0
 464              	.LVL33:
 465 0000 70B5     		push	{r4, r5, r6, lr}
 466              		.cfi_def_cfa_offset 16
 467              		.cfi_offset 4, -16
 468              		.cfi_offset 5, -12
 469              		.cfi_offset 6, -8
 470              		.cfi_offset 14, -4
 471              		.loc 1 160 0
 472 0002 0446     		mov	r4, r0
 473 0004 0D46     		mov	r5, r1
 474 0006 1646     		mov	r6, r2
 475              		.loc 1 162 0
 476 0008 FFF7FEFF 		bl	chDbgCheckClassI
 477              	.LVL34:
 478              		.loc 1 163 0
 479 000c 04B1     		cbz	r4, .L44
 480              		.loc 1 163 0 is_stmt 0 discriminator 3
 481 000e 9DB9     		cbnz	r5, .L58
 482              	.L44:
 483              		.loc 1 163 0 discriminator 6
 484 0010 0D48     		ldr	r0, .L60
 485 0012 FFF7FEFF 		bl	chSysHalt
 486              	.LVL35:
 487              	.L45:
 488              		.loc 1 164 0 is_stmt 1 discriminator 1
 489 0016 2378     		ldrb	r3, [r4]	@ zero_extendqisi2
 490 0018 022B     		cmp	r3, #2
 491 001a 02D0     		beq	.L46
 492              		.loc 1 164 0 is_stmt 0 discriminator 2
 493 001c 0A48     		ldr	r0, .L60
 494 001e FFF7FEFF 		bl	chSysHalt
 495              	.LVL36:
 496              	.L46:
 497              		.loc 1 165 0 is_stmt 1 discriminator 1
 498 0022 6378     		ldrb	r3, [r4, #1]	@ zero_extendqisi2
 499 0024 012B     		cmp	r3, #1
 500 0026 0AD0     		beq	.L59
 501              	.L47:
 502              		.loc 1 167 0
 503 0028 2946     		mov	r1, r5
 504 002a 3246     		mov	r2, r6
 505 002c 2046     		mov	r0, r4
 506 002e FFF7FEFF 		bl	uart_lld_start_send
 507              	.LVL37:
 508              		.loc 1 168 0
 509 0032 0123     		movs	r3, #1
ARM GAS  C:\Users\jo\AppData\Local\Temp\ccRUdN6v.s 			page 10


 510 0034 6370     		strb	r3, [r4, #1]
 511 0036 70BD     		pop	{r4, r5, r6, pc}
 512              	.LVL38:
 513              	.L58:
 514              		.loc 1 163 0 discriminator 5
 515 0038 002E     		cmp	r6, #0
 516 003a ECD1     		bne	.L45
 517 003c E8E7     		b	.L44
 518              	.L59:
 519              		.loc 1 165 0 discriminator 2
 520 003e 0248     		ldr	r0, .L60
 521 0040 FFF7FEFF 		bl	chSysHalt
 522              	.LVL39:
 523 0044 F0E7     		b	.L47
 524              	.L61:
 525 0046 00BF     		.align	2
 526              	.L60:
 527 0048 00000000 		.word	.LANCHOR4
 528              		.cfi_endproc
 529              	.LFE264:
 530              		.size	uartStartSendI, .-uartStartSendI
 531 004c AFF30080 		.section	.text.uartStopSend,"ax",%progbits
 532              		.align	2
 533              		.p2align 4,,15
 534              		.global	uartStopSend
 535              		.thumb
 536              		.thumb_func
 537              		.type	uartStopSend, %function
 538              	uartStopSend:
 539              	.LFB265:
 540              		.loc 1 183 0
 541              		.cfi_startproc
 542              		@ args = 0, pretend = 0, frame = 0
 543              		@ frame_needed = 0, uses_anonymous_args = 0
 544              	.LVL40:
 545 0000 38B5     		push	{r3, r4, r5, lr}
 546              		.cfi_def_cfa_offset 16
 547              		.cfi_offset 3, -16
 548              		.cfi_offset 4, -12
 549              		.cfi_offset 5, -8
 550              		.cfi_offset 14, -4
 551              		.loc 1 186 0
 552 0002 0446     		mov	r4, r0
 553 0004 40B3     		cbz	r0, .L72
 554              	.LVL41:
 555              	.L63:
 556              	.LBB161:
 557              	.LBB162:
 558              	.LBB163:
 559              	.LBB164:
 560              	.LBB165:
 561              	.LBB166:
 562              		.loc 2 546 0
 563 0006 2023     		movs	r3, #32
 564              	@ 546 "../../../os/ext/CMSIS/include/core_cmFunc.h" 1
 565 0008 83F31188 		MSR basepri, r3
 566              	@ 0 "" 2
ARM GAS  C:\Users\jo\AppData\Local\Temp\ccRUdN6v.s 			page 11


 567              		.thumb
 568              	.LBE166:
 569              	.LBE165:
 570              	.LBE164:
 571              		.loc 3 350 0
 572 000c FFF7FEFF 		bl	_dbg_check_lock
 573              	.LVL42:
 574              	.LBE163:
 575              	.LBE162:
 576              	.LBE161:
 577              		.loc 1 189 0
 578 0010 2378     		ldrb	r3, [r4]	@ zero_extendqisi2
 579 0012 022B     		cmp	r3, #2
 580 0014 02D0     		beq	.L64
 581              		.loc 1 189 0 is_stmt 0 discriminator 2
 582 0016 1248     		ldr	r0, .L74
 583 0018 FFF7FEFF 		bl	chSysHalt
 584              	.LVL43:
 585              	.L64:
 586              		.loc 1 191 0 is_stmt 1
 587 001c 6378     		ldrb	r3, [r4, #1]	@ zero_extendqisi2
 588 001e 012B     		cmp	r3, #1
 589 0020 13D0     		beq	.L73
 590              		.loc 1 196 0
 591 0022 0025     		movs	r5, #0
 592              	.L65:
 593              	.LVL44:
 594              	.LBB167:
 595              	.LBB168:
 596              	.LBB169:
 597              		.loc 3 360 0
 598 0024 FFF7FEFF 		bl	_dbg_check_unlock
 599              	.LVL45:
 600              		.loc 3 367 0
 601 0028 0E4B     		ldr	r3, .L74+4
 602 002a 1A68     		ldr	r2, [r3]
 603 002c 9A42     		cmp	r2, r3
 604 002e 07D0     		beq	.L66
 605 0030 9969     		ldr	r1, [r3, #24]
 606 0032 9368     		ldr	r3, [r2, #8]
 607 0034 8A68     		ldr	r2, [r1, #8]
 608 0036 9A42     		cmp	r2, r3
 609 0038 02D2     		bcs	.L66
 610 003a 0B48     		ldr	r0, .L74+8
 611 003c FFF7FEFF 		bl	chSysHalt
 612              	.LVL46:
 613              	.L66:
 614              	.LBB170:
 615              	.LBB171:
 616              	.LBB172:
 617              		.loc 2 546 0
 618 0040 0023     		movs	r3, #0
 619              	@ 546 "../../../os/ext/CMSIS/include/core_cmFunc.h" 1
 620 0042 83F31188 		MSR basepri, r3
 621              	@ 0 "" 2
 622              		.thumb
 623              	.LBE172:
ARM GAS  C:\Users\jo\AppData\Local\Temp\ccRUdN6v.s 			page 12


 624              	.LBE171:
 625              	.LBE170:
 626              	.LBE169:
 627              	.LBE168:
 628              	.LBE167:
 629              		.loc 1 201 0
 630 0046 2846     		mov	r0, r5
 631 0048 38BD     		pop	{r3, r4, r5, pc}
 632              	.LVL47:
 633              	.L73:
 634              		.loc 1 192 0
 635 004a 2046     		mov	r0, r4
 636 004c FFF7FEFF 		bl	uart_lld_stop_send
 637              	.LVL48:
 638              		.loc 1 193 0
 639 0050 0023     		movs	r3, #0
 640              		.loc 1 192 0
 641 0052 0546     		mov	r5, r0
 642              	.LVL49:
 643              		.loc 1 193 0
 644 0054 6370     		strb	r3, [r4, #1]
 645 0056 E5E7     		b	.L65
 646              	.LVL50:
 647              	.L72:
 648              		.loc 1 186 0 discriminator 2
 649 0058 0148     		ldr	r0, .L74
 650              	.LVL51:
 651 005a FFF7FEFF 		bl	chSysHalt
 652              	.LVL52:
 653 005e D2E7     		b	.L63
 654              	.L75:
 655              		.align	2
 656              	.L74:
 657 0060 00000000 		.word	.LANCHOR5
 658 0064 00000000 		.word	ch
 659 0068 00000000 		.word	.LANCHOR1
 660              		.cfi_endproc
 661              	.LFE265:
 662              		.size	uartStopSend, .-uartStopSend
 663 006c AFF30080 		.section	.text.uartStopSendI,"ax",%progbits
 664              		.align	2
 665              		.p2align 4,,15
 666              		.global	uartStopSendI
 667              		.thumb
 668              		.thumb_func
 669              		.type	uartStopSendI, %function
 670              	uartStopSendI:
 671              	.LFB266:
 672              		.loc 1 216 0
 673              		.cfi_startproc
 674              		@ args = 0, pretend = 0, frame = 0
 675              		@ frame_needed = 0, uses_anonymous_args = 0
 676              	.LVL53:
 677 0000 10B5     		push	{r4, lr}
 678              		.cfi_def_cfa_offset 8
 679              		.cfi_offset 4, -8
 680              		.cfi_offset 14, -4
ARM GAS  C:\Users\jo\AppData\Local\Temp\ccRUdN6v.s 			page 13


 681              		.loc 1 216 0
 682 0002 0446     		mov	r4, r0
 683              		.loc 1 218 0
 684 0004 FFF7FEFF 		bl	chDbgCheckClassI
 685              	.LVL54:
 686              		.loc 1 219 0
 687 0008 84B1     		cbz	r4, .L85
 688              	.L77:
 689              		.loc 1 220 0 discriminator 1
 690 000a 2378     		ldrb	r3, [r4]	@ zero_extendqisi2
 691 000c 022B     		cmp	r3, #2
 692 000e 02D0     		beq	.L78
 693              		.loc 1 220 0 is_stmt 0 discriminator 2
 694 0010 0848     		ldr	r0, .L87
 695 0012 FFF7FEFF 		bl	chSysHalt
 696              	.LVL55:
 697              	.L78:
 698              		.loc 1 222 0 is_stmt 1
 699 0016 6378     		ldrb	r3, [r4, #1]	@ zero_extendqisi2
 700 0018 012B     		cmp	r3, #1
 701 001a 01D0     		beq	.L86
 702              		.loc 1 227 0
 703 001c 0020     		movs	r0, #0
 704              		.loc 1 228 0
 705 001e 10BD     		pop	{r4, pc}
 706              	.LVL56:
 707              	.L86:
 708              	.LBB173:
 709              		.loc 1 223 0
 710 0020 2046     		mov	r0, r4
 711 0022 FFF7FEFF 		bl	uart_lld_stop_send
 712              	.LVL57:
 713              		.loc 1 224 0
 714 0026 0023     		movs	r3, #0
 715 0028 6370     		strb	r3, [r4, #1]
 716              		.loc 1 225 0
 717 002a 10BD     		pop	{r4, pc}
 718              	.LVL58:
 719              	.L85:
 720              	.LBE173:
 721              		.loc 1 219 0 discriminator 2
 722 002c 0148     		ldr	r0, .L87
 723 002e FFF7FEFF 		bl	chSysHalt
 724              	.LVL59:
 725 0032 EAE7     		b	.L77
 726              	.L88:
 727              		.align	2
 728              	.L87:
 729 0034 00000000 		.word	.LANCHOR6
 730              		.cfi_endproc
 731              	.LFE266:
 732              		.size	uartStopSendI, .-uartStopSendI
 733 0038 AFF30080 		.section	.text.uartStartReceive,"ax",%progbits
 733      AFF30080 
 734              		.align	2
 735              		.p2align 4,,15
 736              		.global	uartStartReceive
ARM GAS  C:\Users\jo\AppData\Local\Temp\ccRUdN6v.s 			page 14


 737              		.thumb
 738              		.thumb_func
 739              		.type	uartStartReceive, %function
 740              	uartStartReceive:
 741              	.LFB267:
 742              		.loc 1 241 0
 743              		.cfi_startproc
 744              		@ args = 0, pretend = 0, frame = 0
 745              		@ frame_needed = 0, uses_anonymous_args = 0
 746              	.LVL60:
 747 0000 70B5     		push	{r4, r5, r6, lr}
 748              		.cfi_def_cfa_offset 16
 749              		.cfi_offset 4, -16
 750              		.cfi_offset 5, -12
 751              		.cfi_offset 6, -8
 752              		.cfi_offset 14, -4
 753              		.loc 1 241 0
 754 0002 0D46     		mov	r5, r1
 755 0004 1646     		mov	r6, r2
 756              		.loc 1 243 0
 757 0006 0446     		mov	r4, r0
 758 0008 00B1     		cbz	r0, .L90
 759              		.loc 1 243 0 is_stmt 0 discriminator 3
 760 000a 49BB     		cbnz	r1, .L105
 761              	.L90:
 762              		.loc 1 243 0 discriminator 6
 763 000c 1848     		ldr	r0, .L107
 764              	.LVL61:
 765 000e FFF7FEFF 		bl	chSysHalt
 766              	.LVL62:
 767              	.L91:
 768              	.LBB187:
 769              	.LBB188:
 770              	.LBB189:
 771              	.LBB190:
 772              	.LBB191:
 773              	.LBB192:
 774              		.loc 2 546 0 is_stmt 1
 775 0012 2023     		movs	r3, #32
 776              	@ 546 "../../../os/ext/CMSIS/include/core_cmFunc.h" 1
 777 0014 83F31188 		MSR basepri, r3
 778              	@ 0 "" 2
 779              		.thumb
 780              	.LBE192:
 781              	.LBE191:
 782              	.LBE190:
 783              		.loc 3 350 0
 784 0018 FFF7FEFF 		bl	_dbg_check_lock
 785              	.LVL63:
 786              	.LBE189:
 787              	.LBE188:
 788              	.LBE187:
 789              		.loc 1 246 0
 790 001c 2378     		ldrb	r3, [r4]	@ zero_extendqisi2
 791 001e 022B     		cmp	r3, #2
 792 0020 02D0     		beq	.L92
 793              		.loc 1 246 0 is_stmt 0 discriminator 2
ARM GAS  C:\Users\jo\AppData\Local\Temp\ccRUdN6v.s 			page 15


 794 0022 1348     		ldr	r0, .L107
 795 0024 FFF7FEFF 		bl	chSysHalt
 796              	.LVL64:
 797              	.L92:
 798              		.loc 1 247 0 is_stmt 1 discriminator 1
 799 0028 A378     		ldrb	r3, [r4, #2]	@ zero_extendqisi2
 800 002a 012B     		cmp	r3, #1
 801 002c 1BD0     		beq	.L106
 802              	.L93:
 803              		.loc 1 249 0
 804 002e 3246     		mov	r2, r6
 805 0030 2946     		mov	r1, r5
 806 0032 2046     		mov	r0, r4
 807 0034 FFF7FEFF 		bl	uart_lld_start_receive
 808              	.LVL65:
 809              		.loc 1 250 0
 810 0038 0123     		movs	r3, #1
 811 003a A370     		strb	r3, [r4, #2]
 812              	.LBB193:
 813              	.LBB194:
 814              	.LBB195:
 815              		.loc 3 360 0
 816 003c FFF7FEFF 		bl	_dbg_check_unlock
 817              	.LVL66:
 818              		.loc 3 367 0
 819 0040 0C4B     		ldr	r3, .L107+4
 820 0042 1A68     		ldr	r2, [r3]
 821 0044 9A42     		cmp	r2, r3
 822 0046 07D0     		beq	.L94
 823 0048 9969     		ldr	r1, [r3, #24]
 824 004a 9368     		ldr	r3, [r2, #8]
 825 004c 8A68     		ldr	r2, [r1, #8]
 826 004e 9A42     		cmp	r2, r3
 827 0050 02D2     		bcs	.L94
 828 0052 0948     		ldr	r0, .L107+8
 829 0054 FFF7FEFF 		bl	chSysHalt
 830              	.LVL67:
 831              	.L94:
 832              	.LBB196:
 833              	.LBB197:
 834              	.LBB198:
 835              		.loc 2 546 0
 836 0058 0023     		movs	r3, #0
 837              	@ 546 "../../../os/ext/CMSIS/include/core_cmFunc.h" 1
 838 005a 83F31188 		MSR basepri, r3
 839              	@ 0 "" 2
 840              		.thumb
 841 005e 70BD     		pop	{r4, r5, r6, pc}
 842              	.LVL68:
 843              	.L105:
 844              	.LBE198:
 845              	.LBE197:
 846              	.LBE196:
 847              	.LBE195:
 848              	.LBE194:
 849              	.LBE193:
 850              		.loc 1 243 0 discriminator 5
ARM GAS  C:\Users\jo\AppData\Local\Temp\ccRUdN6v.s 			page 16


 851 0060 002A     		cmp	r2, #0
 852 0062 D6D1     		bne	.L91
 853 0064 D2E7     		b	.L90
 854              	.LVL69:
 855              	.L106:
 856              		.loc 1 247 0 discriminator 2
 857 0066 0248     		ldr	r0, .L107
 858 0068 FFF7FEFF 		bl	chSysHalt
 859              	.LVL70:
 860 006c DFE7     		b	.L93
 861              	.L108:
 862 006e 00BF     		.align	2
 863              	.L107:
 864 0070 00000000 		.word	.LANCHOR7
 865 0074 00000000 		.word	ch
 866 0078 00000000 		.word	.LANCHOR1
 867              		.cfi_endproc
 868              	.LFE267:
 869              		.size	uartStartReceive, .-uartStartReceive
 870 007c AFF30080 		.section	.text.uartStartReceiveI,"ax",%progbits
 871              		.align	2
 872              		.p2align 4,,15
 873              		.global	uartStartReceiveI
 874              		.thumb
 875              		.thumb_func
 876              		.type	uartStartReceiveI, %function
 877              	uartStartReceiveI:
 878              	.LFB268:
 879              		.loc 1 266 0
 880              		.cfi_startproc
 881              		@ args = 0, pretend = 0, frame = 0
 882              		@ frame_needed = 0, uses_anonymous_args = 0
 883              	.LVL71:
 884 0000 70B5     		push	{r4, r5, r6, lr}
 885              		.cfi_def_cfa_offset 16
 886              		.cfi_offset 4, -16
 887              		.cfi_offset 5, -12
 888              		.cfi_offset 6, -8
 889              		.cfi_offset 14, -4
 890              		.loc 1 266 0
 891 0002 0446     		mov	r4, r0
 892 0004 0D46     		mov	r5, r1
 893 0006 1646     		mov	r6, r2
 894              		.loc 1 268 0
 895 0008 FFF7FEFF 		bl	chDbgCheckClassI
 896              	.LVL72:
 897              		.loc 1 269 0
 898 000c 04B1     		cbz	r4, .L110
 899              		.loc 1 269 0 is_stmt 0 discriminator 3
 900 000e 9DB9     		cbnz	r5, .L124
 901              	.L110:
 902              		.loc 1 269 0 discriminator 6
 903 0010 0D48     		ldr	r0, .L126
 904 0012 FFF7FEFF 		bl	chSysHalt
 905              	.LVL73:
 906              	.L111:
 907              		.loc 1 270 0 is_stmt 1 discriminator 1
ARM GAS  C:\Users\jo\AppData\Local\Temp\ccRUdN6v.s 			page 17


 908 0016 2378     		ldrb	r3, [r4]	@ zero_extendqisi2
 909 0018 022B     		cmp	r3, #2
 910 001a 02D0     		beq	.L112
 911              		.loc 1 270 0 is_stmt 0 discriminator 2
 912 001c 0A48     		ldr	r0, .L126
 913 001e FFF7FEFF 		bl	chSysHalt
 914              	.LVL74:
 915              	.L112:
 916              		.loc 1 271 0 is_stmt 1 discriminator 1
 917 0022 A378     		ldrb	r3, [r4, #2]	@ zero_extendqisi2
 918 0024 012B     		cmp	r3, #1
 919 0026 0AD0     		beq	.L125
 920              	.L113:
 921              		.loc 1 273 0
 922 0028 2946     		mov	r1, r5
 923 002a 3246     		mov	r2, r6
 924 002c 2046     		mov	r0, r4
 925 002e FFF7FEFF 		bl	uart_lld_start_receive
 926              	.LVL75:
 927              		.loc 1 274 0
 928 0032 0123     		movs	r3, #1
 929 0034 A370     		strb	r3, [r4, #2]
 930 0036 70BD     		pop	{r4, r5, r6, pc}
 931              	.LVL76:
 932              	.L124:
 933              		.loc 1 269 0 discriminator 5
 934 0038 002E     		cmp	r6, #0
 935 003a ECD1     		bne	.L111
 936 003c E8E7     		b	.L110
 937              	.L125:
 938              		.loc 1 271 0 discriminator 2
 939 003e 0248     		ldr	r0, .L126
 940 0040 FFF7FEFF 		bl	chSysHalt
 941              	.LVL77:
 942 0044 F0E7     		b	.L113
 943              	.L127:
 944 0046 00BF     		.align	2
 945              	.L126:
 946 0048 00000000 		.word	.LANCHOR8
 947              		.cfi_endproc
 948              	.LFE268:
 949              		.size	uartStartReceiveI, .-uartStartReceiveI
 950 004c AFF30080 		.section	.text.uartStopReceive,"ax",%progbits
 951              		.align	2
 952              		.p2align 4,,15
 953              		.global	uartStopReceive
 954              		.thumb
 955              		.thumb_func
 956              		.type	uartStopReceive, %function
 957              	uartStopReceive:
 958              	.LFB269:
 959              		.loc 1 289 0
 960              		.cfi_startproc
 961              		@ args = 0, pretend = 0, frame = 0
 962              		@ frame_needed = 0, uses_anonymous_args = 0
 963              	.LVL78:
 964 0000 38B5     		push	{r3, r4, r5, lr}
ARM GAS  C:\Users\jo\AppData\Local\Temp\ccRUdN6v.s 			page 18


 965              		.cfi_def_cfa_offset 16
 966              		.cfi_offset 3, -16
 967              		.cfi_offset 4, -12
 968              		.cfi_offset 5, -8
 969              		.cfi_offset 14, -4
 970              		.loc 1 292 0
 971 0002 0446     		mov	r4, r0
 972 0004 40B3     		cbz	r0, .L138
 973              	.LVL79:
 974              	.L129:
 975              	.LBB212:
 976              	.LBB213:
 977              	.LBB214:
 978              	.LBB215:
 979              	.LBB216:
 980              	.LBB217:
 981              		.loc 2 546 0
 982 0006 2023     		movs	r3, #32
 983              	@ 546 "../../../os/ext/CMSIS/include/core_cmFunc.h" 1
 984 0008 83F31188 		MSR basepri, r3
 985              	@ 0 "" 2
 986              		.thumb
 987              	.LBE217:
 988              	.LBE216:
 989              	.LBE215:
 990              		.loc 3 350 0
 991 000c FFF7FEFF 		bl	_dbg_check_lock
 992              	.LVL80:
 993              	.LBE214:
 994              	.LBE213:
 995              	.LBE212:
 996              		.loc 1 295 0
 997 0010 2378     		ldrb	r3, [r4]	@ zero_extendqisi2
 998 0012 022B     		cmp	r3, #2
 999 0014 02D0     		beq	.L130
 1000              		.loc 1 295 0 is_stmt 0 discriminator 2
 1001 0016 1248     		ldr	r0, .L140
 1002 0018 FFF7FEFF 		bl	chSysHalt
 1003              	.LVL81:
 1004              	.L130:
 1005              		.loc 1 297 0 is_stmt 1
 1006 001c A378     		ldrb	r3, [r4, #2]	@ zero_extendqisi2
 1007 001e 012B     		cmp	r3, #1
 1008 0020 13D0     		beq	.L139
 1009              		.loc 1 302 0
 1010 0022 0025     		movs	r5, #0
 1011              	.L131:
 1012              	.LVL82:
 1013              	.LBB218:
 1014              	.LBB219:
 1015              	.LBB220:
 1016              		.loc 3 360 0
 1017 0024 FFF7FEFF 		bl	_dbg_check_unlock
 1018              	.LVL83:
 1019              		.loc 3 367 0
 1020 0028 0E4B     		ldr	r3, .L140+4
 1021 002a 1A68     		ldr	r2, [r3]
ARM GAS  C:\Users\jo\AppData\Local\Temp\ccRUdN6v.s 			page 19


 1022 002c 9A42     		cmp	r2, r3
 1023 002e 07D0     		beq	.L132
 1024 0030 9969     		ldr	r1, [r3, #24]
 1025 0032 9368     		ldr	r3, [r2, #8]
 1026 0034 8A68     		ldr	r2, [r1, #8]
 1027 0036 9A42     		cmp	r2, r3
 1028 0038 02D2     		bcs	.L132
 1029 003a 0B48     		ldr	r0, .L140+8
 1030 003c FFF7FEFF 		bl	chSysHalt
 1031              	.LVL84:
 1032              	.L132:
 1033              	.LBB221:
 1034              	.LBB222:
 1035              	.LBB223:
 1036              		.loc 2 546 0
 1037 0040 0023     		movs	r3, #0
 1038              	@ 546 "../../../os/ext/CMSIS/include/core_cmFunc.h" 1
 1039 0042 83F31188 		MSR basepri, r3
 1040              	@ 0 "" 2
 1041              		.thumb
 1042              	.LBE223:
 1043              	.LBE222:
 1044              	.LBE221:
 1045              	.LBE220:
 1046              	.LBE219:
 1047              	.LBE218:
 1048              		.loc 1 307 0
 1049 0046 2846     		mov	r0, r5
 1050 0048 38BD     		pop	{r3, r4, r5, pc}
 1051              	.LVL85:
 1052              	.L139:
 1053              		.loc 1 298 0
 1054 004a 2046     		mov	r0, r4
 1055 004c FFF7FEFF 		bl	uart_lld_stop_receive
 1056              	.LVL86:
 1057              		.loc 1 299 0
 1058 0050 0023     		movs	r3, #0
 1059              		.loc 1 298 0
 1060 0052 0546     		mov	r5, r0
 1061              	.LVL87:
 1062              		.loc 1 299 0
 1063 0054 A370     		strb	r3, [r4, #2]
 1064 0056 E5E7     		b	.L131
 1065              	.LVL88:
 1066              	.L138:
 1067              		.loc 1 292 0 discriminator 2
 1068 0058 0148     		ldr	r0, .L140
 1069              	.LVL89:
 1070 005a FFF7FEFF 		bl	chSysHalt
 1071              	.LVL90:
 1072 005e D2E7     		b	.L129
 1073              	.L141:
 1074              		.align	2
 1075              	.L140:
 1076 0060 00000000 		.word	.LANCHOR9
 1077 0064 00000000 		.word	ch
 1078 0068 00000000 		.word	.LANCHOR1
ARM GAS  C:\Users\jo\AppData\Local\Temp\ccRUdN6v.s 			page 20


 1079              		.cfi_endproc
 1080              	.LFE269:
 1081              		.size	uartStopReceive, .-uartStopReceive
 1082 006c AFF30080 		.section	.text.uartStopReceiveI,"ax",%progbits
 1083              		.align	2
 1084              		.p2align 4,,15
 1085              		.global	uartStopReceiveI
 1086              		.thumb
 1087              		.thumb_func
 1088              		.type	uartStopReceiveI, %function
 1089              	uartStopReceiveI:
 1090              	.LFB270:
 1091              		.loc 1 322 0
 1092              		.cfi_startproc
 1093              		@ args = 0, pretend = 0, frame = 0
 1094              		@ frame_needed = 0, uses_anonymous_args = 0
 1095              	.LVL91:
 1096 0000 10B5     		push	{r4, lr}
 1097              		.cfi_def_cfa_offset 8
 1098              		.cfi_offset 4, -8
 1099              		.cfi_offset 14, -4
 1100              		.loc 1 322 0
 1101 0002 0446     		mov	r4, r0
 1102              		.loc 1 324 0
 1103 0004 FFF7FEFF 		bl	chDbgCheckClassI
 1104              	.LVL92:
 1105              		.loc 1 325 0
 1106 0008 84B1     		cbz	r4, .L151
 1107              	.L143:
 1108              		.loc 1 326 0 discriminator 1
 1109 000a 2378     		ldrb	r3, [r4]	@ zero_extendqisi2
 1110 000c 022B     		cmp	r3, #2
 1111 000e 02D0     		beq	.L144
 1112              		.loc 1 326 0 is_stmt 0 discriminator 2
 1113 0010 0848     		ldr	r0, .L153
 1114 0012 FFF7FEFF 		bl	chSysHalt
 1115              	.LVL93:
 1116              	.L144:
 1117              		.loc 1 328 0 is_stmt 1
 1118 0016 A378     		ldrb	r3, [r4, #2]	@ zero_extendqisi2
 1119 0018 012B     		cmp	r3, #1
 1120 001a 01D0     		beq	.L152
 1121              		.loc 1 333 0
 1122 001c 0020     		movs	r0, #0
 1123              		.loc 1 334 0
 1124 001e 10BD     		pop	{r4, pc}
 1125              	.LVL94:
 1126              	.L152:
 1127              	.LBB224:
 1128              		.loc 1 329 0
 1129 0020 2046     		mov	r0, r4
 1130 0022 FFF7FEFF 		bl	uart_lld_stop_receive
 1131              	.LVL95:
 1132              		.loc 1 330 0
 1133 0026 0023     		movs	r3, #0
 1134 0028 A370     		strb	r3, [r4, #2]
 1135              		.loc 1 331 0
ARM GAS  C:\Users\jo\AppData\Local\Temp\ccRUdN6v.s 			page 21


 1136 002a 10BD     		pop	{r4, pc}
 1137              	.LVL96:
 1138              	.L151:
 1139              	.LBE224:
 1140              		.loc 1 325 0 discriminator 2
 1141 002c 0148     		ldr	r0, .L153
 1142 002e FFF7FEFF 		bl	chSysHalt
 1143              	.LVL97:
 1144 0032 EAE7     		b	.L143
 1145              	.L154:
 1146              		.align	2
 1147              	.L153:
 1148 0034 00000000 		.word	.LANCHOR10
 1149              		.cfi_endproc
 1150              	.LFE270:
 1151              		.size	uartStopReceiveI, .-uartStopReceiveI
 1152 0038 AFF30080 		.section	.rodata.__func__.7536,"a",%progbits
 1152      AFF30080 
 1153              		.align	2
 1154              		.set	.LANCHOR6,. + 0
 1155              		.type	__func__.7536, %object
 1156              		.size	__func__.7536, 14
 1157              	__func__.7536:
 1158 0000 75617274 		.ascii	"uartStopSendI\000"
 1158      53746F70 
 1158      53656E64 
 1158      4900
 1159 000e 0000     		.section	.rodata.__func__.7532,"a",%progbits
 1160              		.align	2
 1161              		.set	.LANCHOR5,. + 0
 1162              		.type	__func__.7532, %object
 1163              		.size	__func__.7532, 13
 1164              	__func__.7532:
 1165 0000 75617274 		.ascii	"uartStopSend\000"
 1165      53746F70 
 1165      53656E64 
 1165      00
 1166 000d 000000   		.section	.rodata.__func__.7554,"a",%progbits
 1167              		.align	2
 1168              		.set	.LANCHOR9,. + 0
 1169              		.type	__func__.7554, %object
 1170              		.size	__func__.7554, 16
 1171              	__func__.7554:
 1172 0000 75617274 		.ascii	"uartStopReceive\000"
 1172      53746F70 
 1172      52656365 
 1172      69766500 
 1173              		.section	.rodata.__func__.7549,"a",%progbits
 1174              		.align	2
 1175              		.set	.LANCHOR8,. + 0
 1176              		.type	__func__.7549, %object
 1177              		.size	__func__.7549, 18
 1178              	__func__.7549:
 1179 0000 75617274 		.ascii	"uartStartReceiveI\000"
 1179      53746172 
 1179      74526563 
 1179      65697665 
ARM GAS  C:\Users\jo\AppData\Local\Temp\ccRUdN6v.s 			page 22


 1179      4900
 1180 0012 0000     		.section	.rodata.__func__.7558,"a",%progbits
 1181              		.align	2
 1182              		.set	.LANCHOR10,. + 0
 1183              		.type	__func__.7558, %object
 1184              		.size	__func__.7558, 17
 1185              	__func__.7558:
 1186 0000 75617274 		.ascii	"uartStopReceiveI\000"
 1186      53746F70 
 1186      52656365 
 1186      69766549 
 1186      00
 1187 0011 000000   		.section	.rodata.__func__.7511,"a",%progbits
 1188              		.align	2
 1189              		.set	.LANCHOR0,. + 0
 1190              		.type	__func__.7511, %object
 1191              		.size	__func__.7511, 10
 1192              	__func__.7511:
 1193 0000 75617274 		.ascii	"uartStart\000"
 1193      53746172 
 1193      7400
 1194 000a 0000     		.section	.rodata.__func__.7543,"a",%progbits
 1195              		.align	2
 1196              		.set	.LANCHOR7,. + 0
 1197              		.type	__func__.7543, %object
 1198              		.size	__func__.7543, 17
 1199              	__func__.7543:
 1200 0000 75617274 		.ascii	"uartStartReceive\000"
 1200      53746172 
 1200      74526563 
 1200      65697665 
 1200      00
 1201 0011 000000   		.section	.rodata.__func__.5854,"a",%progbits
 1202              		.align	2
 1203              		.set	.LANCHOR1,. + 0
 1204              		.type	__func__.5854, %object
 1205              		.size	__func__.5854, 12
 1206              	__func__.5854:
 1207 0000 63685379 		.ascii	"chSysUnlock\000"
 1207      73556E6C 
 1207      6F636B00 
 1208              		.section	.rodata.__func__.7515,"a",%progbits
 1209              		.align	2
 1210              		.set	.LANCHOR2,. + 0
 1211              		.type	__func__.7515, %object
 1212              		.size	__func__.7515, 9
 1213              	__func__.7515:
 1214 0000 75617274 		.ascii	"uartStop\000"
 1214      53746F70 
 1214      00
 1215 0009 000000   		.section	.rodata.__func__.7521,"a",%progbits
 1216              		.align	2
 1217              		.set	.LANCHOR3,. + 0
 1218              		.type	__func__.7521, %object
 1219              		.size	__func__.7521, 14
 1220              	__func__.7521:
 1221 0000 75617274 		.ascii	"uartStartSend\000"
ARM GAS  C:\Users\jo\AppData\Local\Temp\ccRUdN6v.s 			page 23


 1221      53746172 
 1221      7453656E 
 1221      6400
 1222 000e 0000     		.section	.rodata.__func__.7527,"a",%progbits
 1223              		.align	2
 1224              		.set	.LANCHOR4,. + 0
 1225              		.type	__func__.7527, %object
 1226              		.size	__func__.7527, 15
 1227              	__func__.7527:
 1228 0000 75617274 		.ascii	"uartStartSendI\000"
 1228      53746172 
 1228      7453656E 
 1228      644900
 1229 000f 00       		.text
 1230              	.Letext0:
 1231              		.file 4 "c:\\program files\\gnu tools arm embedded\\4.9 2014q4\\lib\\gcc\\arm-none-eabi\\4.9.3\\in
 1232              		.file 5 "c:\\program files\\gnu tools arm embedded\\4.9 2014q4\\arm-none-eabi\\include\\machine\\_
 1233              		.file 6 "c:\\program files\\gnu tools arm embedded\\4.9 2014q4\\arm-none-eabi\\include\\stdint.h"
 1234              		.file 7 "../../../os/rt/ports/ARMCMx/compilers/GCC/chtypes.h"
 1235              		.file 8 "../../../os/rt/include/chsystypes.h"
 1236              		.file 9 "../../../os/rt/include/chschd.h"
 1237              		.file 10 "../../../os/ext/CMSIS/ST/stm32f407xx.h"
 1238              		.file 11 "../../../os/rt/ports/ARMCMx/chcore.h"
 1239              		.file 12 "../../../os/rt/ports/ARMCMx/chcore_v7m.h"
 1240              		.file 13 "../../../os/rt/include/chdebug.h"
 1241              		.file 14 "../../../os/rt/include/chtm.h"
 1242              		.file 15 "../../../os/rt/include/chsem.h"
 1243              		.file 16 "../../../os/rt/include/chmtx.h"
 1244              		.file 17 "../../../os/hal/ports/STM32/STM32F4xx/stm32_dma.h"
 1245              		.file 18 "../../../os/hal/include/uart.h"
 1246              		.file 19 "../../../os/hal/ports/STM32/LLD/USARTv1/uart_lld.h"
 1247              		.file 20 "../../../os/hal/osal/rt/osal.h"
 1248              		.file 21 "../../../os/ext/CMSIS/include/core_cm4.h"