ARM GAS  C:\Users\jo\AppData\Local\Temp\ccBtYjN3.s 			page 1


   1              		.syntax unified
   2              		.cpu cortex-m4
   3              		.fpu softvfp
   4              		.eabi_attribute 20, 1
   5              		.eabi_attribute 21, 1
   6              		.eabi_attribute 23, 3
   7              		.eabi_attribute 24, 1
   8              		.eabi_attribute 25, 1
   9              		.eabi_attribute 26, 1
  10              		.eabi_attribute 30, 2
  11              		.eabi_attribute 34, 1
  12              		.eabi_attribute 18, 4
  13              		.thumb
  14              		.file	"uhttpd.c"
  15              		.text
  16              	.Ltext0:
  17              		.cfi_sections	.debug_frame
  18              		.section	.text.HttpAuthValidateAll,"ax",%progbits
  19              		.align	2
  20              		.p2align 4,,15
  21              		.thumb
  22              		.thumb_func
  23              		.type	HttpAuthValidateAll, %function
  24              	HttpAuthValidateAll:
  25              	.LFB264:
  26              		.file 1 "../../../demos/STM32/RT-STM32F407-DISCOVERY-uHttp/uhttp-1.1/uhttpd.c"
  27              		.loc 1 228 0
  28              		.cfi_startproc
  29              		@ args = 0, pretend = 0, frame = 0
  30              		@ frame_needed = 0, uses_anonymous_args = 0
  31              		@ link register save eliminated.
  32              	.LVL0:
  33              		.loc 1 230 0
  34 0000 0020     		movs	r0, #0
  35              	.LVL1:
  36 0002 7047     		bx	lr
  37              		.cfi_endproc
  38              	.LFE264:
  39              		.size	HttpAuthValidateAll, .-HttpAuthValidateAll
  40 0004 AFF30080 		.section	.text.HttpLocationRedirNone,"ax",%progbits
  40      AFF30080 
  40      AFF30080 
  41              		.align	2
  42              		.p2align 4,,15
  43              		.thumb
  44              		.thumb_func
  45              		.type	HttpLocationRedirNone, %function
  46              	HttpLocationRedirNone:
  47              	.LFB265:
  48              		.loc 1 233 0
  49              		.cfi_startproc
  50              		@ args = 0, pretend = 0, frame = 0
  51              		@ frame_needed = 0, uses_anonymous_args = 0
  52              		@ link register save eliminated.
  53              	.LVL2:
  54              		.loc 1 235 0
  55 0000 4FF0FF30 		mov	r0, #-1
ARM GAS  C:\Users\jo\AppData\Local\Temp\ccBtYjN3.s 			page 2


  56              	.LVL3:
  57 0004 7047     		bx	lr
  58              		.cfi_endproc
  59              	.LFE265:
  60              		.size	HttpLocationRedirNone, .-HttpLocationRedirNone
  61 0006 00BFAFF3 		.section	.text.HttpArgParseNext,"ax",%progbits
  61      0080AFF3 
  61      0080
  62              		.align	2
  63              		.p2align 4,,15
  64              		.global	HttpArgParseNext
  65              		.thumb
  66              		.thumb_func
  67              		.type	HttpArgParseNext, %function
  68              	HttpArgParseNext:
  69              	.LFB267:
  70              		.loc 1 245 0
  71              		.cfi_startproc
  72              		@ args = 0, pretend = 0, frame = 0
  73              		@ frame_needed = 0, uses_anonymous_args = 0
  74              	.LVL4:
  75 0000 2DE9F041 		push	{r4, r5, r6, r7, r8, lr}
  76              		.cfi_def_cfa_offset 24
  77              		.cfi_offset 4, -24
  78              		.cfi_offset 5, -20
  79              		.cfi_offset 6, -16
  80              		.cfi_offset 7, -12
  81              		.cfi_offset 8, -8
  82              		.cfi_offset 14, -4
  83              		.loc 1 250 0
  84 0004 0769     		ldr	r7, [r0, #16]
  85 0006 002F     		cmp	r7, #0
  86 0008 3AD0     		beq	.L10
  87 000a 0446     		mov	r4, r0
  88              		.loc 1 251 0
  89 000c 2621     		movs	r1, #38
  90 000e 3846     		mov	r0, r7
  91              	.LVL5:
  92 0010 FFF7FEFF 		bl	strchr
  93              	.LVL6:
  94              		.loc 1 252 0
  95 0014 0646     		mov	r6, r0
  96 0016 58B3     		cbz	r0, .L5
  97              		.loc 1 253 0
  98 0018 C7EB0008 		rsb	r8, r7, r0
  99              	.LVL7:
 100              		.loc 1 255 0
 101 001c 08F10100 		add	r0, r8, #1
 102              	.LVL8:
 103 0020 FFF7FEFF 		bl	malloc
 104              	.LVL9:
 105              		.loc 1 254 0
 106 0024 0136     		adds	r6, r6, #1
 107              	.LVL10:
 108              		.loc 1 256 0
 109 0026 0546     		mov	r5, r0
 110 0028 F0B1     		cbz	r0, .L6
ARM GAS  C:\Users\jo\AppData\Local\Temp\ccBtYjN3.s 			page 3


 111              		.loc 1 257 0
 112 002a 3946     		mov	r1, r7
 113 002c 4246     		mov	r2, r8
 114 002e FFF7FEFF 		bl	memcpy
 115              	.LVL11:
 116              		.loc 1 258 0
 117 0032 0023     		movs	r3, #0
 118 0034 05F80830 		strb	r3, [r5, r8]
 119              		.loc 1 263 0
 120 0038 2661     		str	r6, [r4, #16]
 121              	.LVL12:
 122              	.L7:
 123              		.loc 1 265 0
 124 003a 2846     		mov	r0, r5
 125 003c 3D21     		movs	r1, #61
 126 003e FFF7FEFF 		bl	strchr
 127              	.LVL13:
 128              		.loc 1 266 0
 129 0042 0346     		mov	r3, r0
 130 0044 90B1     		cbz	r0, .L11
 131              		.loc 1 267 0
 132 0046 461C     		adds	r6, r0, #1
 133              	.LVL14:
 134 0048 0022     		movs	r2, #0
 135              		.loc 1 268 0
 136 004a 3046     		mov	r0, r6
 137              		.loc 1 267 0
 138 004c 1A70     		strb	r2, [r3]
 139              		.loc 1 268 0
 140 004e FFF7FEFF 		bl	HttpUrlUnescape
 141              	.LVL15:
 142              	.L9:
 143              		.loc 1 270 0
 144 0052 A661     		str	r6, [r4, #24]
 145              	.LVL16:
 146              	.L8:
 147              		.loc 1 272 0
 148 0054 6069     		ldr	r0, [r4, #20]
 149 0056 FFF7FEFF 		bl	free
 150              	.LVL17:
 151              		.loc 1 273 0
 152 005a 6561     		str	r5, [r4, #20]
 153              		.loc 1 274 0
 154 005c 2846     		mov	r0, r5
 155 005e FFF7FEFF 		bl	HttpUrlUnescape
 156              	.LVL18:
 157              	.L15:
 158              		.loc 1 277 0
 159 0062 2846     		mov	r0, r5
 160 0064 BDE8F081 		pop	{r4, r5, r6, r7, r8, pc}
 161              	.LVL19:
 162              	.L6:
 163              		.loc 1 263 0
 164 0068 2661     		str	r6, [r4, #16]
 165 006a F3E7     		b	.L8
 166              	.LVL20:
 167              	.L11:
ARM GAS  C:\Users\jo\AppData\Local\Temp\ccBtYjN3.s 			page 4


 168 006c 0646     		mov	r6, r0
 169 006e F0E7     		b	.L9
 170              	.LVL21:
 171              	.L5:
 172              		.loc 1 261 0
 173 0070 3846     		mov	r0, r7
 174              	.LVL22:
 175 0072 FFF7FEFF 		bl	strdup
 176              	.LVL23:
 177              		.loc 1 263 0
 178 0076 2661     		str	r6, [r4, #16]
 179              		.loc 1 264 0
 180 0078 0546     		mov	r5, r0
 181 007a 0028     		cmp	r0, #0
 182 007c DDD1     		bne	.L7
 183 007e E9E7     		b	.L8
 184              	.LVL24:
 185              	.L10:
 186              		.loc 1 246 0
 187 0080 3D46     		mov	r5, r7
 188              	.LVL25:
 189 0082 EEE7     		b	.L15
 190              		.cfi_endproc
 191              	.LFE267:
 192              		.size	HttpArgParseNext, .-HttpArgParseNext
 193 0084 AFF30080 		.section	.text.HttpArgParseFirst,"ax",%progbits
 193      AFF30080 
 193      AFF30080 
 194              		.align	2
 195              		.p2align 4,,15
 196              		.global	HttpArgParseFirst
 197              		.thumb
 198              		.thumb_func
 199              		.type	HttpArgParseFirst, %function
 200              	HttpArgParseFirst:
 201              	.LFB266:
 202              		.loc 1 238 0
 203              		.cfi_startproc
 204              		@ args = 0, pretend = 0, frame = 0
 205              		@ frame_needed = 0, uses_anonymous_args = 0
 206              		@ link register save eliminated.
 207              	.LVL26:
 208              		.loc 1 239 0
 209 0000 C268     		ldr	r2, [r0, #12]
 210 0002 0261     		str	r2, [r0, #16]
 211              		.loc 1 241 0
 212 0004 FFF7FEBF 		b	HttpArgParseNext
 213              	.LVL27:
 214              		.cfi_endproc
 215              	.LFE266:
 216              		.size	HttpArgParseFirst, .-HttpArgParseFirst
 217 0008 AFF30080 		.section	.text.HttpArgReadNext,"ax",%progbits
 217      AFF30080 
 218              		.align	2
 219              		.p2align 4,,15
 220              		.global	HttpArgReadNext
 221              		.thumb
ARM GAS  C:\Users\jo\AppData\Local\Temp\ccBtYjN3.s 			page 5


 222              		.thumb_func
 223              		.type	HttpArgReadNext, %function
 224              	HttpArgReadNext:
 225              	.LFB268:
 226              		.loc 1 280 0
 227              		.cfi_startproc
 228              		@ args = 0, pretend = 0, frame = 0
 229              		@ frame_needed = 0, uses_anonymous_args = 0
 230              	.LVL28:
 231 0000 F0B5     		push	{r4, r5, r6, r7, lr}
 232              		.cfi_def_cfa_offset 20
 233              		.cfi_offset 4, -20
 234              		.cfi_offset 5, -16
 235              		.cfi_offset 6, -12
 236              		.cfi_offset 7, -8
 237              		.cfi_offset 14, -4
 238              		.loc 1 287 0
 239 0002 0B68     		ldr	r3, [r1]
 240              		.loc 1 280 0
 241 0004 83B0     		sub	sp, sp, #12
 242              		.cfi_def_cfa_offset 32
 243              		.loc 1 287 0
 244 0006 002B     		cmp	r3, #0
 245 0008 36D0     		beq	.L22
 246              		.loc 1 288 0
 247 000a 802B     		cmp	r3, #128
 248 000c A8BF     		it	ge
 249 000e 8023     		movge	r3, #128
 250 0010 0546     		mov	r5, r0
 251              		.loc 1 289 0
 252 0012 581C     		adds	r0, r3, #1
 253              	.LVL29:
 254 0014 0E46     		mov	r6, r1
 255              		.loc 1 288 0
 256 0016 1C46     		mov	r4, r3
 257              	.LVL30:
 258              		.loc 1 289 0
 259 0018 FFF7FEFF 		bl	malloc
 260              	.LVL31:
 261              		.loc 1 290 0
 262 001c 0746     		mov	r7, r0
 263 001e 58B3     		cbz	r0, .L22
 264              		.loc 1 291 0
 265 0020 2868     		ldr	r0, [r5]
 266              	.LVL32:
 267 0022 1749     		ldr	r1, .L33
 268 0024 0094     		str	r4, [sp]
 269 0026 0022     		movs	r2, #0
 270 0028 3B46     		mov	r3, r7
 271 002a FFF7FEFF 		bl	StreamReadUntilChars
 272              	.LVL33:
 273              		.loc 1 292 0
 274 002e 0028     		cmp	r0, #0
 275 0030 20DD     		ble	.L25
 276              		.loc 1 293 0
 277 0032 3368     		ldr	r3, [r6]
 278 0034 1B1A     		subs	r3, r3, r0
ARM GAS  C:\Users\jo\AppData\Local\Temp\ccBtYjN3.s 			page 6


 279 0036 3360     		str	r3, [r6]
 280              		.loc 1 294 0
 281 0038 3846     		mov	r0, r7
 282              	.LVL34:
 283 003a FFF7FEFF 		bl	strdup
 284              	.LVL35:
 285 003e 0446     		mov	r4, r0
 286              	.LVL36:
 287              		.loc 1 295 0
 288 0040 A869     		ldr	r0, [r5, #24]
 289              	.LVL37:
 290 0042 FFF7FEFF 		bl	free
 291              	.LVL38:
 292              		.loc 1 296 0
 293 0046 AC61     		str	r4, [r5, #24]
 294              		.loc 1 297 0
 295 0048 2046     		mov	r0, r4
 296 004a 3D21     		movs	r1, #61
 297 004c FFF7FEFF 		bl	strchr
 298              	.LVL39:
 299              		.loc 1 298 0
 300 0050 0346     		mov	r3, r0
 301 0052 30B1     		cbz	r0, .L24
 302              		.loc 1 299 0
 303 0054 461C     		adds	r6, r0, #1
 304              	.LVL40:
 305 0056 0022     		movs	r2, #0
 306              		.loc 1 300 0
 307 0058 3046     		mov	r0, r6
 308              		.loc 1 299 0
 309 005a 1A70     		strb	r2, [r3]
 310              		.loc 1 300 0
 311 005c FFF7FEFF 		bl	HttpUrlUnescape
 312              	.LVL41:
 313              		.loc 1 301 0
 314 0060 EE61     		str	r6, [r5, #28]
 315              	.LVL42:
 316              	.L24:
 317              		.loc 1 303 0
 318 0062 2046     		mov	r0, r4
 319 0064 FFF7FEFF 		bl	HttpUrlUnescape
 320              	.LVL43:
 321              	.L23:
 322              		.loc 1 305 0
 323 0068 3846     		mov	r0, r7
 324 006a FFF7FEFF 		bl	free
 325              	.LVL44:
 326              		.loc 1 309 0
 327 006e 2046     		mov	r0, r4
 328 0070 03B0     		add	sp, sp, #12
 329              		.cfi_remember_state
 330              		.cfi_def_cfa_offset 20
 331              		@ sp needed
 332 0072 F0BD     		pop	{r4, r5, r6, r7, pc}
 333              	.LVL45:
 334              	.L25:
 335              		.cfi_restore_state
ARM GAS  C:\Users\jo\AppData\Local\Temp\ccBtYjN3.s 			page 7


 336              		.loc 1 284 0
 337 0074 0024     		movs	r4, #0
 338              	.LVL46:
 339 0076 F7E7     		b	.L23
 340              	.LVL47:
 341              	.L22:
 342 0078 0024     		movs	r4, #0
 343              	.LVL48:
 344              		.loc 1 309 0
 345 007a 2046     		mov	r0, r4
 346 007c 03B0     		add	sp, sp, #12
 347              		.cfi_def_cfa_offset 20
 348              		@ sp needed
 349 007e F0BD     		pop	{r4, r5, r6, r7, pc}
 350              	.LVL49:
 351              	.L34:
 352              		.align	2
 353              	.L33:
 354 0080 00000000 		.word	.LC0
 355              		.cfi_endproc
 356              	.LFE268:
 357              		.size	HttpArgReadNext, .-HttpArgReadNext
 358 0084 AFF30080 		.section	.text.HttpArgValue,"ax",%progbits
 358      AFF30080 
 358      AFF30080 
 359              		.align	2
 360              		.p2align 4,,15
 361              		.global	HttpArgValue
 362              		.thumb
 363              		.thumb_func
 364              		.type	HttpArgValue, %function
 365              	HttpArgValue:
 366              	.LFB269:
 367              		.loc 1 312 0
 368              		.cfi_startproc
 369              		@ args = 0, pretend = 0, frame = 0
 370              		@ frame_needed = 0, uses_anonymous_args = 0
 371              		@ link register save eliminated.
 372              	.LVL50:
 373              		.loc 1 314 0
 374 0000 8069     		ldr	r0, [r0, #24]
 375              	.LVL51:
 376 0002 7047     		bx	lr
 377              		.cfi_endproc
 378              	.LFE269:
 379              		.size	HttpArgValue, .-HttpArgValue
 380 0004 AFF30080 		.section	.text.HttpArgValueSub,"ax",%progbits
 380      AFF30080 
 380      AFF30080 
 381              		.align	2
 382              		.p2align 4,,15
 383              		.global	HttpArgValueSub
 384              		.thumb
 385              		.thumb_func
 386              		.type	HttpArgValueSub, %function
 387              	HttpArgValueSub:
 388              	.LFB270:
ARM GAS  C:\Users\jo\AppData\Local\Temp\ccBtYjN3.s 			page 8


 389              		.loc 1 317 0
 390              		.cfi_startproc
 391              		@ args = 0, pretend = 0, frame = 0
 392              		@ frame_needed = 0, uses_anonymous_args = 0
 393              	.LVL52:
 394 0000 2DE9F041 		push	{r4, r5, r6, r7, r8, lr}
 395              		.cfi_def_cfa_offset 24
 396              		.cfi_offset 4, -24
 397              		.cfi_offset 5, -20
 398              		.cfi_offset 6, -16
 399              		.cfi_offset 7, -12
 400              		.cfi_offset 8, -8
 401              		.cfi_offset 14, -4
 402              		.loc 1 317 0
 403 0004 0446     		mov	r4, r0
 404              	.LVL53:
 405              		.loc 1 319 0
 406 0006 0846     		mov	r0, r1
 407              	.LVL54:
 408              		.loc 1 317 0
 409 0008 9046     		mov	r8, r2
 410 000a 0F46     		mov	r7, r1
 411              		.loc 1 319 0
 412 000c FFF7FEFF 		bl	strlen
 413              	.LVL55:
 414              		.loc 1 321 0
 415 0010 0023     		movs	r3, #0
 416              		.loc 1 319 0
 417 0012 0646     		mov	r6, r0
 418              	.LVL56:
 419              		.loc 1 321 0
 420 0014 C8F80030 		str	r3, [r8]
 421              	.LVL57:
 422              	.L40:
 423              		.loc 1 324 0
 424 0018 2046     		mov	r0, r4
 425 001a 3B21     		movs	r1, #59
 426 001c FFF7FEFF 		bl	strchr
 427              	.LVL58:
 428              		.loc 1 325 0
 429 0020 0446     		mov	r4, r0
 430 0022 0028     		cmp	r0, #0
 431 0024 31D0     		beq	.L38
 432              	.LVL59:
 433              	.L39:
 434              		.loc 1 329 0 discriminator 1
 435 0026 14F8013F 		ldrb	r3, [r4, #1]!	@ zero_extendqisi2
 436              	.LVL60:
 437 002a 202B     		cmp	r3, #32
 438 002c FBD0     		beq	.L39
 439              		.loc 1 331 0
 440 002e 2046     		mov	r0, r4
 441 0030 3946     		mov	r1, r7
 442 0032 3246     		mov	r2, r6
 443 0034 FFF7FEFF 		bl	strncasecmp
 444              	.LVL61:
 445 0038 0028     		cmp	r0, #0
ARM GAS  C:\Users\jo\AppData\Local\Temp\ccBtYjN3.s 			page 9


 446 003a EDD1     		bne	.L40
 447              		.loc 1 332 0
 448 003c 3444     		add	r4, r4, r6
 449              	.LVL62:
 450              		.loc 1 334 0
 451 003e 2578     		ldrb	r5, [r4]	@ zero_extendqisi2
 452 0040 25B9     		cbnz	r5, .L43
 453 0042 E9E7     		b	.L40
 454              	.L44:
 455 0044 14F8015F 		ldrb	r5, [r4, #1]!	@ zero_extendqisi2
 456              	.LVL63:
 457 0048 002D     		cmp	r5, #0
 458 004a E5D0     		beq	.L40
 459              	.LVL64:
 460              	.L43:
 461              		.loc 1 334 0 is_stmt 0 discriminator 1
 462 004c 1048     		ldr	r0, .L61
 463 004e 2946     		mov	r1, r5
 464 0050 FFF7FEFF 		bl	strchr
 465              	.LVL65:
 466 0054 0028     		cmp	r0, #0
 467 0056 F5D0     		beq	.L44
 468              		.loc 1 338 0 is_stmt 1
 469 0058 3D2D     		cmp	r5, #61
 470 005a DDD1     		bne	.L40
 471              	.LVL66:
 472              	.L46:
 473              		.loc 1 340 0 discriminator 1
 474 005c 14F8013F 		ldrb	r3, [r4, #1]!	@ zero_extendqisi2
 475              	.LVL67:
 476 0060 202B     		cmp	r3, #32
 477 0062 FBD0     		beq	.L46
 478              		.loc 1 342 0
 479 0064 222B     		cmp	r3, #34
 480 0066 08BF     		it	eq
 481 0068 0134     		addeq	r4, r4, #1
 482              	.LVL68:
 483              		.loc 1 344 0
 484 006a 0125     		movs	r5, #1
 485 006c 2178     		ldrb	r1, [r4]	@ zero_extendqisi2
 486 006e 39B9     		cbnz	r1, .L48
 487 0070 0BE0     		b	.L38
 488              	.L49:
 489              		.loc 1 345 0
 490 0072 C8F80050 		str	r5, [r8]
 491 0076 0135     		adds	r5, r5, #1
 492 0078 6319     		adds	r3, r4, r5
 493              		.loc 1 344 0
 494 007a 13F8011C 		ldrb	r1, [r3, #-1]	@ zero_extendqisi2
 495 007e 21B1     		cbz	r1, .L38
 496              	.L48:
 497              		.loc 1 344 0 is_stmt 0 discriminator 1
 498 0080 0448     		ldr	r0, .L61+4
 499 0082 FFF7FEFF 		bl	strchr
 500              	.LVL69:
 501 0086 0028     		cmp	r0, #0
 502 0088 F3D0     		beq	.L49
ARM GAS  C:\Users\jo\AppData\Local\Temp\ccBtYjN3.s 			page 10


 503              	.L38:
 504              		.loc 1 352 0 is_stmt 1
 505 008a 2046     		mov	r0, r4
 506 008c BDE8F081 		pop	{r4, r5, r6, r7, r8, pc}
 507              	.LVL70:
 508              	.L62:
 509              		.align	2
 510              	.L61:
 511 0090 04000000 		.word	.LC1
 512 0094 08000000 		.word	.LC2
 513              		.cfi_endproc
 514              	.LFE270:
 515              		.size	HttpArgValueSub, .-HttpArgValueSub
 516              		.section	.text.HttpParseMultipartHeader,"ax",%progbits
 517              		.align	2
 518              		.p2align 4,,15
 519              		.global	HttpParseMultipartHeader
 520              		.thumb
 521              		.thumb_func
 522              		.type	HttpParseMultipartHeader, %function
 523              	HttpParseMultipartHeader:
 524              	.LFB271:
 525              		.loc 1 356 0
 526              		.cfi_startproc
 527              		@ args = 0, pretend = 0, frame = 0
 528              		@ frame_needed = 0, uses_anonymous_args = 0
 529              	.LVL71:
 530 0000 2DE9F047 		push	{r4, r5, r6, r7, r8, r9, r10, lr}
 531              		.cfi_def_cfa_offset 32
 532              		.cfi_offset 4, -32
 533              		.cfi_offset 5, -28
 534              		.cfi_offset 6, -24
 535              		.cfi_offset 7, -20
 536              		.cfi_offset 8, -16
 537              		.cfi_offset 9, -12
 538              		.cfi_offset 10, -8
 539              		.cfi_offset 14, -4
 540 0004 0746     		mov	r7, r0
 541 0006 82B0     		sub	sp, sp, #8
 542              		.cfi_def_cfa_offset 40
 543              		.loc 1 361 0
 544 0008 0846     		mov	r0, r1
 545              	.LVL72:
 546              		.loc 1 356 0
 547 000a 1646     		mov	r6, r2
 548 000c 8A46     		mov	r10, r1
 549              		.loc 1 361 0
 550 000e FFF7FEFF 		bl	strlen
 551              	.LVL73:
 552 0012 8146     		mov	r9, r0
 553              	.LVL74:
 554              		.loc 1 363 0
 555 0014 3068     		ldr	r0, [r6]
 556              	.LVL75:
 557 0016 B0F5807F 		cmp	r0, #256
 558 001a A8BF     		it	ge
 559 001c 4FF48070 		movge	r0, #256
ARM GAS  C:\Users\jo\AppData\Local\Temp\ccBtYjN3.s 			page 11


 560 0020 0130     		adds	r0, r0, #1
 561 0022 FFF7FEFF 		bl	malloc
 562              	.LVL76:
 563              		.loc 1 364 0
 564 0026 0446     		mov	r4, r0
 565 0028 0028     		cmp	r0, #0
 566 002a 00F08D80 		beq	.L78
 567              		.loc 1 368 0
 568 002e 0025     		movs	r5, #0
 569              		.loc 1 367 0
 570 0030 F86C     		ldr	r0, [r7, #76]
 571              	.LVL77:
 572 0032 FFF7FEFF 		bl	free
 573              	.LVL78:
 574              		.loc 1 368 0
 575 0036 FD64     		str	r5, [r7, #76]
 576              		.loc 1 369 0
 577 0038 B86C     		ldr	r0, [r7, #72]
 578 003a FFF7FEFF 		bl	free
 579              	.LVL79:
 580              		.loc 1 358 0
 581 003e A846     		mov	r8, r5
 582              		.loc 1 370 0
 583 0040 BD64     		str	r5, [r7, #72]
 584 0042 3568     		ldr	r5, [r6]
 585              	.LVL80:
 586              	.L65:
 587              		.loc 1 374 0
 588 0044 4249     		ldr	r1, .L89
 589 0046 434A     		ldr	r2, .L89+4
 590 0048 B5F5807F 		cmp	r5, #256
 591 004c AE46     		mov	lr, r5
 592 004e 2346     		mov	r3, r4
 593 0050 A8BF     		it	ge
 594 0052 4FF4807E 		movge	lr, #256
 595              		.loc 1 372 0
 596 0056 A5B1     		cbz	r5, .L66
 597              	.LVL81:
 598              		.loc 1 374 0
 599 0058 3868     		ldr	r0, [r7]
 600 005a CDF800E0 		str	lr, [sp]
 601 005e FFF7FEFF 		bl	StreamReadUntilChars
 602              	.LVL82:
 603              		.loc 1 375 0
 604 0062 B0F10008 		subs	r8, r0, #0
 605              		.loc 1 380 0
 606 0066 5146     		mov	r1, r10
 607 0068 4A46     		mov	r2, r9
 608 006a 2046     		mov	r0, r4
 609              	.LVL83:
 610              		.loc 1 375 0
 611 006c 09DD     		ble	.L66
 612              	.LVL84:
 613              		.loc 1 379 0
 614 006e 3568     		ldr	r5, [r6]
 615              		.loc 1 380 0
 616 0070 C145     		cmp	r9, r8
ARM GAS  C:\Users\jo\AppData\Local\Temp\ccBtYjN3.s 			page 12


 617              		.loc 1 379 0
 618 0072 C8EB0505 		rsb	r5, r8, r5
 619 0076 3560     		str	r5, [r6]
 620              		.loc 1 380 0
 621 0078 E4DA     		bge	.L65
 622              		.loc 1 380 0 is_stmt 0 discriminator 1
 623 007a FFF7FEFF 		bl	strncmp
 624              	.LVL85:
 625 007e 0028     		cmp	r0, #0
 626 0080 E0D1     		bne	.L65
 627              	.LVL86:
 628              	.L66:
 629              		.loc 1 386 0 is_stmt 1
 630 0082 09F10103 		add	r3, r9, #1
 631 0086 9845     		cmp	r8, r3
 632 0088 53DC     		bgt	.L88
 633              	.LVL87:
 634              	.L84:
 635              		.loc 1 387 0
 636 008a 3368     		ldr	r3, [r6]
 637 008c 002B     		cmp	r3, #0
 638 008e 47D0     		beq	.L71
 639              	.L75:
 640              		.loc 1 389 0
 641 0090 B3F5807F 		cmp	r3, #256
 642 0094 A8BF     		it	ge
 643 0096 4FF48073 		movge	r3, #256
 644 009a 3868     		ldr	r0, [r7]
 645 009c 2E49     		ldr	r1, .L89+8
 646 009e 0093     		str	r3, [sp]
 647 00a0 2C4A     		ldr	r2, .L89+4
 648 00a2 2346     		mov	r3, r4
 649 00a4 FFF7FEFF 		bl	StreamReadUntilChars
 650              	.LVL88:
 651              		.loc 1 390 0
 652 00a8 051E     		subs	r5, r0, #0
 653              		.loc 1 401 0
 654 00aa 2C49     		ldr	r1, .L89+12
 655 00ac 2046     		mov	r0, r4
 656              	.LVL89:
 657              		.loc 1 390 0
 658 00ae 37DD     		ble	.L71
 659              	.LVL90:
 660              		.loc 1 394 0
 661 00b0 3368     		ldr	r3, [r6]
 662              		.loc 1 395 0
 663 00b2 2278     		ldrb	r2, [r4]	@ zero_extendqisi2
 664              		.loc 1 394 0
 665 00b4 5D1B     		subs	r5, r3, r5
 666              	.LVL91:
 667 00b6 3560     		str	r5, [r6]
 668              		.loc 1 395 0
 669 00b8 002A     		cmp	r2, #0
 670 00ba 43D0     		beq	.L79
 671              		.loc 1 401 0
 672 00bc FFF7FEFF 		bl	strcasecmp
 673              	.LVL92:
ARM GAS  C:\Users\jo\AppData\Local\Temp\ccBtYjN3.s 			page 13


 674              		.loc 1 404 0
 675 00c0 2749     		ldr	r1, .L89+16
 676              		.loc 1 401 0
 677 00c2 C0B9     		cbnz	r0, .L72
 678              		.loc 1 402 0
 679 00c4 07F14808 		add	r8, r7, #72
 680              	.LVL93:
 681              	.L73:
 682              		.loc 1 415 0
 683 00c8 B5F5807F 		cmp	r5, #256
 684 00cc A8BF     		it	ge
 685 00ce 4FF48075 		movge	r5, #256
 686 00d2 3868     		ldr	r0, [r7]
 687 00d4 1E49     		ldr	r1, .L89
 688 00d6 1F4A     		ldr	r2, .L89+4
 689 00d8 0095     		str	r5, [sp]
 690 00da 2346     		mov	r3, r4
 691 00dc FFF7FEFF 		bl	StreamReadUntilChars
 692              	.LVL94:
 693              		.loc 1 416 0
 694 00e0 0028     		cmp	r0, #0
 695 00e2 1DDD     		ble	.L71
 696              		.loc 1 419 0
 697 00e4 3368     		ldr	r3, [r6]
 698 00e6 181A     		subs	r0, r3, r0
 699              	.LVL95:
 700 00e8 3060     		str	r0, [r6]
 701              		.loc 1 420 0
 702 00ea 2046     		mov	r0, r4
 703 00ec FFF7FEFF 		bl	strdup
 704              	.LVL96:
 705 00f0 C8F80000 		str	r0, [r8]
 706 00f4 C9E7     		b	.L84
 707              	.LVL97:
 708              	.L72:
 709              		.loc 1 404 0
 710 00f6 2046     		mov	r0, r4
 711 00f8 FFF7FEFF 		bl	strcasecmp
 712              	.LVL98:
 713 00fc 10B9     		cbnz	r0, .L74
 714              		.loc 1 405 0
 715 00fe 07F14C08 		add	r8, r7, #76
 716              	.LVL99:
 717 0102 E1E7     		b	.L73
 718              	.LVL100:
 719              	.L74:
 720              		.loc 1 408 0
 721 0104 0022     		movs	r2, #0
 722 0106 3868     		ldr	r0, [r7]
 723 0108 1149     		ldr	r1, .L89
 724 010a 0095     		str	r5, [sp]
 725 010c 1346     		mov	r3, r2
 726 010e FFF7FEFF 		bl	StreamReadUntilChars
 727              	.LVL101:
 728              		.loc 1 409 0
 729 0112 0028     		cmp	r0, #0
 730 0114 04DD     		ble	.L71
ARM GAS  C:\Users\jo\AppData\Local\Temp\ccBtYjN3.s 			page 14


 731              		.loc 1 412 0
 732 0116 3368     		ldr	r3, [r6]
 733 0118 1B1A     		subs	r3, r3, r0
 734 011a 3360     		str	r3, [r6]
 735              		.loc 1 387 0
 736 011c 002B     		cmp	r3, #0
 737 011e B7D1     		bne	.L75
 738              	.LVL102:
 739              	.L71:
 740              		.loc 1 357 0
 741 0120 4FF0FF35 		mov	r5, #-1
 742              	.L70:
 743              	.LVL103:
 744              		.loc 1 424 0
 745 0124 2046     		mov	r0, r4
 746 0126 FFF7FEFF 		bl	free
 747              	.LVL104:
 748              		.loc 1 425 0
 749 012a 2846     		mov	r0, r5
 750              	.LVL105:
 751              	.L85:
 752              		.loc 1 426 0
 753 012c 02B0     		add	sp, sp, #8
 754              		.cfi_remember_state
 755              		.cfi_def_cfa_offset 32
 756              		@ sp needed
 757 012e BDE8F087 		pop	{r4, r5, r6, r7, r8, r9, r10, pc}
 758              	.LVL106:
 759              	.L88:
 760              		.cfi_restore_state
 761              		.loc 1 386 0 discriminator 1
 762 0132 04EB0900 		add	r0, r4, r9
 763 0136 0B49     		ldr	r1, .L89+20
 764 0138 0222     		movs	r2, #2
 765 013a FFF7FEFF 		bl	strncmp
 766              	.LVL107:
 767 013e 0028     		cmp	r0, #0
 768 0140 A3D1     		bne	.L84
 769 0142 EDE7     		b	.L71
 770              	.LVL108:
 771              	.L79:
 772              		.loc 1 397 0
 773 0144 1546     		mov	r5, r2
 774 0146 EDE7     		b	.L70
 775              	.LVL109:
 776              	.L78:
 777              		.loc 1 365 0
 778 0148 4FF0FF30 		mov	r0, #-1
 779              	.LVL110:
 780 014c EEE7     		b	.L85
 781              	.L90:
 782 014e 00BF     		.align	2
 783              	.L89:
 784 0150 0C000000 		.word	.LC3
 785 0154 10000000 		.word	.LC4
 786 0158 18000000 		.word	.LC6
 787 015c 00000000 		.word	.LANCHOR0
ARM GAS  C:\Users\jo\AppData\Local\Temp\ccBtYjN3.s 			page 15


 788 0160 00000000 		.word	.LANCHOR1
 789 0164 14000000 		.word	.LC5
 790              		.cfi_endproc
 791              	.LFE271:
 792              		.size	HttpParseMultipartHeader, .-HttpParseMultipartHeader
 793 0168 AFF30080 		.section	.text.HttpParseHeader,"ax",%progbits
 793      AFF30080 
 794              		.align	2
 795              		.p2align 4,,15
 796              		.global	HttpParseHeader
 797              		.thumb
 798              		.thumb_func
 799              		.type	HttpParseHeader, %function
 800              	HttpParseHeader:
 801              	.LFB272:
 802              		.loc 1 430 0
 803              		.cfi_startproc
 804              		@ args = 0, pretend = 0, frame = 0
 805              		@ frame_needed = 0, uses_anonymous_args = 0
 806              	.LVL111:
 807 0000 70B5     		push	{r4, r5, r6, lr}
 808              		.cfi_def_cfa_offset 16
 809              		.cfi_offset 4, -16
 810              		.cfi_offset 5, -12
 811              		.cfi_offset 6, -8
 812              		.cfi_offset 14, -4
 813 0002 0546     		mov	r5, r0
 814 0004 82B0     		sub	sp, sp, #8
 815              		.cfi_def_cfa_offset 24
 816              		.loc 1 435 0
 817 0006 40F20110 		movw	r0, #257
 818              	.LVL112:
 819 000a FFF7FEFF 		bl	malloc
 820              	.LVL113:
 821              		.loc 1 436 0
 822 000e 0446     		mov	r4, r0
 823 0010 0028     		cmp	r0, #0
 824 0012 00F0D380 		beq	.L115
 825              		.loc 1 439 0
 826 0016 0021     		movs	r1, #0
 827 0018 4C22     		movs	r2, #76
 828 001a 281D     		adds	r0, r5, #4
 829              	.LVL114:
 830 001c FFF7FEFF 		bl	memset
 831              	.LVL115:
 832              		.loc 1 442 0
 833 0020 4FF48073 		mov	r3, #256
 834 0024 2868     		ldr	r0, [r5]
 835 0026 6C49     		ldr	r1, .L128
 836 0028 0093     		str	r3, [sp]
 837 002a 6C4A     		ldr	r2, .L128+4
 838 002c 2346     		mov	r3, r4
 839 002e FFF7FEFF 		bl	StreamReadUntilChars
 840              	.LVL116:
 841              		.loc 1 443 0
 842 0032 0028     		cmp	r0, #0
 843              		.loc 1 444 0
ARM GAS  C:\Users\jo\AppData\Local\Temp\ccBtYjN3.s 			page 16


 844 0034 2046     		mov	r0, r4
 845              	.LVL117:
 846              		.loc 1 443 0
 847 0036 40F3CA80 		ble	.L124
 848              		.loc 1 448 0
 849 003a 6949     		ldr	r1, .L128+8
 850 003c FFF7FEFF 		bl	strcasecmp
 851              	.LVL118:
 852 0040 0028     		cmp	r0, #0
 853 0042 58D0     		beq	.L125
 854              		.loc 1 452 0
 855 0044 2046     		mov	r0, r4
 856 0046 6749     		ldr	r1, .L128+12
 857 0048 FFF7FEFF 		bl	strcasecmp
 858              	.LVL119:
 859 004c 0028     		cmp	r0, #0
 860 004e 40F0A080 		bne	.L96
 861              		.loc 1 453 0
 862 0052 0323     		movs	r3, #3
 863 0054 6B60     		str	r3, [r5, #4]
 864              	.L95:
 865              		.loc 1 467 0
 866 0056 4FF48073 		mov	r3, #256
 867 005a 2868     		ldr	r0, [r5]
 868 005c 5E49     		ldr	r1, .L128
 869 005e 0093     		str	r3, [sp]
 870 0060 5E4A     		ldr	r2, .L128+4
 871 0062 2346     		mov	r3, r4
 872 0064 FFF7FEFF 		bl	StreamReadUntilChars
 873              	.LVL120:
 874              		.loc 1 469 0
 875 0068 2046     		mov	r0, r4
 876 006a 3F21     		movs	r1, #63
 877 006c FFF7FEFF 		bl	strchr
 878              	.LVL121:
 879              		.loc 1 470 0
 880 0070 28B1     		cbz	r0, .L98
 881              	.LVL122:
 882              		.loc 1 471 0
 883 0072 0023     		movs	r3, #0
 884 0074 00F8013B 		strb	r3, [r0], #1
 885              	.LVL123:
 886              		.loc 1 472 0
 887 0078 FFF7FEFF 		bl	strdup
 888              	.LVL124:
 889 007c 2861     		str	r0, [r5, #16]
 890              	.L98:
 891              		.loc 1 474 0
 892 007e 2046     		mov	r0, r4
 893 0080 FFF7FEFF 		bl	strdup
 894              	.LVL125:
 895 0084 FFF7FEFF 		bl	UriUnescape
 896              	.LVL126:
 897              		.loc 1 477 0
 898 0088 2A68     		ldr	r2, [r5]
 899              		.loc 1 474 0
 900 008a A860     		str	r0, [r5, #8]
ARM GAS  C:\Users\jo\AppData\Local\Temp\ccBtYjN3.s 			page 17


 901              		.loc 1 477 0
 902 008c 4FF48073 		mov	r3, #256
 903 0090 1046     		mov	r0, r2
 904 0092 0093     		str	r3, [sp]
 905 0094 5449     		ldr	r1, .L128+16
 906 0096 554A     		ldr	r2, .L128+20
 907 0098 2346     		mov	r3, r4
 908 009a FFF7FEFF 		bl	StreamReadUntilChars
 909              	.LVL127:
 910              		.loc 1 479 0
 911 009e 2046     		mov	r0, r4
 912 00a0 5349     		ldr	r1, .L128+24
 913 00a2 0522     		movs	r2, #5
 914 00a4 FFF7FEFF 		bl	strncasecmp
 915              	.LVL128:
 916 00a8 0028     		cmp	r0, #0
 917 00aa 5DD0     		beq	.L99
 918              		.loc 1 480 0
 919 00ac 0923     		movs	r3, #9
 920 00ae EB60     		str	r3, [r5, #12]
 921              	.L114:
 922              	.LBB2:
 923              		.loc 1 495 0
 924 00b0 4FF48076 		mov	r6, #256
 925 00b4 2868     		ldr	r0, [r5]
 926 00b6 4F49     		ldr	r1, .L128+28
 927 00b8 484A     		ldr	r2, .L128+4
 928 00ba 0096     		str	r6, [sp]
 929 00bc 2346     		mov	r3, r4
 930 00be FFF7FEFF 		bl	StreamReadUntilChars
 931              	.LVL129:
 932 00c2 0028     		cmp	r0, #0
 933              	.LBE2:
 934              		.loc 1 556 0
 935 00c4 2046     		mov	r0, r4
 936              	.LBB3:
 937              		.loc 1 495 0
 938 00c6 42DD     		ble	.L102
 939              	.LVL130:
 940              		.loc 1 499 0
 941 00c8 2378     		ldrb	r3, [r4]	@ zero_extendqisi2
 942 00ca 002B     		cmp	r3, #0
 943 00cc 3FD0     		beq	.L102
 944              	.LVL131:
 945              		.loc 1 504 0
 946 00ce 4A49     		ldr	r1, .L128+32
 947 00d0 FFF7FEFF 		bl	strcasecmp
 948              	.LVL132:
 949 00d4 90B9     		cbnz	r0, .L103
 950              		.loc 1 505 0
 951 00d6 05F14406 		add	r6, r5, #68
 952              	.LVL133:
 953              	.L113:
 954              		.loc 1 550 0
 955 00da 4FF48073 		mov	r3, #256
 956 00de 2868     		ldr	r0, [r5]
 957 00e0 4149     		ldr	r1, .L128+16
ARM GAS  C:\Users\jo\AppData\Local\Temp\ccBtYjN3.s 			page 18


 958 00e2 3E4A     		ldr	r2, .L128+4
 959 00e4 0093     		str	r3, [sp]
 960 00e6 2346     		mov	r3, r4
 961 00e8 FFF7FEFF 		bl	StreamReadUntilChars
 962              	.LVL134:
 963              		.loc 1 551 0
 964 00ec 2046     		mov	r0, r4
 965 00ee FFF7FEFF 		bl	strdup
 966              	.LVL135:
 967 00f2 3060     		str	r0, [r6]
 968 00f4 DCE7     		b	.L114
 969              	.LVL136:
 970              	.L125:
 971              	.LBE3:
 972              		.loc 1 449 0
 973 00f6 0123     		movs	r3, #1
 974 00f8 6B60     		str	r3, [r5, #4]
 975 00fa ACE7     		b	.L95
 976              	.LVL137:
 977              	.L103:
 978              	.LBB4:
 979              		.loc 1 507 0
 980 00fc 2046     		mov	r0, r4
 981 00fe 3F49     		ldr	r1, .L128+36
 982 0100 FFF7FEFF 		bl	strcasecmp
 983              	.LVL138:
 984 0104 10B9     		cbnz	r0, .L105
 985              		.loc 1 508 0
 986 0106 05F13406 		add	r6, r5, #52
 987              	.LVL139:
 988 010a E6E7     		b	.L113
 989              	.LVL140:
 990              	.L105:
 991              		.loc 1 521 0
 992 010c 2046     		mov	r0, r4
 993 010e 3C49     		ldr	r1, .L128+40
 994 0110 FFF7FEFF 		bl	strcasecmp
 995              	.LVL141:
 996 0114 78B1     		cbz	r0, .L126
 997              		.loc 1 525 0
 998 0116 2046     		mov	r0, r4
 999 0118 3A49     		ldr	r1, .L128+44
 1000 011a FFF7FEFF 		bl	strcasecmp
 1001              	.LVL142:
 1002 011e 10B9     		cbnz	r0, .L108
 1003              		.loc 1 526 0
 1004 0120 05F12C06 		add	r6, r5, #44
 1005              	.LVL143:
 1006 0124 D9E7     		b	.L113
 1007              	.LVL144:
 1008              	.L108:
 1009              		.loc 1 528 0
 1010 0126 2046     		mov	r0, r4
 1011 0128 3749     		ldr	r1, .L128+48
 1012 012a FFF7FEFF 		bl	strcasecmp
 1013              	.LVL145:
 1014 012e 98B9     		cbnz	r0, .L109
ARM GAS  C:\Users\jo\AppData\Local\Temp\ccBtYjN3.s 			page 19


 1015              		.loc 1 529 0
 1016 0130 05F13006 		add	r6, r5, #48
 1017              	.LVL146:
 1018 0134 D1E7     		b	.L113
 1019              	.LVL147:
 1020              	.L126:
 1021              		.loc 1 522 0
 1022 0136 2868     		ldr	r0, [r5]
 1023 0138 2B49     		ldr	r1, .L128+16
 1024 013a 284A     		ldr	r2, .L128+4
 1025 013c 0096     		str	r6, [sp]
 1026 013e 2346     		mov	r3, r4
 1027 0140 FFF7FEFF 		bl	StreamReadUntilChars
 1028              	.LVL148:
 1029              		.loc 1 523 0
 1030 0144 2046     		mov	r0, r4
 1031 0146 FFF7FEFF 		bl	atol
 1032              	.LVL149:
 1033 014a 6862     		str	r0, [r5, #36]
 1034 014c B0E7     		b	.L114
 1035              	.LVL150:
 1036              	.L102:
 1037              	.LBE4:
 1038              		.loc 1 556 0
 1039 014e FFF7FEFF 		bl	free
 1040              	.LVL151:
 1041              		.loc 1 557 0
 1042 0152 0020     		movs	r0, #0
 1043              	.L122:
 1044              		.loc 1 558 0
 1045 0154 02B0     		add	sp, sp, #8
 1046              		.cfi_remember_state
 1047              		.cfi_def_cfa_offset 16
 1048              		@ sp needed
 1049 0156 70BD     		pop	{r4, r5, r6, pc}
 1050              	.LVL152:
 1051              	.L109:
 1052              		.cfi_restore_state
 1053              	.LBB5:
 1054              		.loc 1 531 0
 1055 0158 2046     		mov	r0, r4
 1056 015a 2C49     		ldr	r1, .L128+52
 1057 015c FFF7FEFF 		bl	strcasecmp
 1058              	.LVL153:
 1059 0160 50B9     		cbnz	r0, .L110
 1060              		.loc 1 532 0
 1061 0162 05F14006 		add	r6, r5, #64
 1062              	.LVL154:
 1063 0166 B8E7     		b	.L113
 1064              	.LVL155:
 1065              	.L99:
 1066              	.LBE5:
 1067              		.loc 1 482 0
 1068 0168 6279     		ldrb	r2, [r4, #5]	@ zero_extendqisi2
 1069              		.loc 1 484 0
 1070 016a A379     		ldrb	r3, [r4, #6]	@ zero_extendqisi2
 1071 016c 03EB0213 		add	r3, r3, r2, lsl #4
ARM GAS  C:\Users\jo\AppData\Local\Temp\ccBtYjN3.s 			page 20


 1072 0170 A3F54C73 		sub	r3, r3, #816
 1073 0174 EB60     		str	r3, [r5, #12]
 1074 0176 9BE7     		b	.L114
 1075              	.LVL156:
 1076              	.L110:
 1077              	.LBB6:
 1078              		.loc 1 540 0
 1079 0178 2046     		mov	r0, r4
 1080 017a 2549     		ldr	r1, .L128+56
 1081 017c FFF7FEFF 		bl	strcasecmp
 1082              	.LVL157:
 1083 0180 78B1     		cbz	r0, .L127
 1084              		.loc 1 543 0
 1085 0182 2046     		mov	r0, r4
 1086 0184 2349     		ldr	r1, .L128+60
 1087 0186 FFF7FEFF 		bl	strcasecmp
 1088              	.LVL158:
 1089 018a 68B9     		cbnz	r0, .L112
 1090              		.loc 1 544 0
 1091 018c 05F13806 		add	r6, r5, #56
 1092              	.LVL159:
 1093 0190 A3E7     		b	.L113
 1094              	.LVL160:
 1095              	.L96:
 1096              	.LBE6:
 1097              		.loc 1 455 0
 1098 0192 2046     		mov	r0, r4
 1099 0194 2049     		ldr	r1, .L128+64
 1100 0196 FFF7FEFF 		bl	strcasecmp
 1101              	.LVL161:
 1102 019a 90B9     		cbnz	r0, .L97
 1103              		.loc 1 456 0
 1104 019c 0223     		movs	r3, #2
 1105 019e 6B60     		str	r3, [r5, #4]
 1106 01a0 59E7     		b	.L95
 1107              	.LVL162:
 1108              	.L127:
 1109              	.LBB7:
 1110              		.loc 1 541 0
 1111 01a2 05F13C06 		add	r6, r5, #60
 1112              	.LVL163:
 1113 01a6 98E7     		b	.L113
 1114              	.LVL164:
 1115              	.L112:
 1116              		.loc 1 547 0
 1117 01a8 42F20F73 		movw	r3, #9999
 1118 01ac 0022     		movs	r2, #0
 1119 01ae 2868     		ldr	r0, [r5]
 1120 01b0 0D49     		ldr	r1, .L128+16
 1121 01b2 0093     		str	r3, [sp]
 1122 01b4 1346     		mov	r3, r2
 1123 01b6 FFF7FEFF 		bl	StreamReadUntilChars
 1124              	.LVL165:
 1125 01ba 79E7     		b	.L114
 1126              	.LVL166:
 1127              	.L115:
 1128              	.LBE7:
ARM GAS  C:\Users\jo\AppData\Local\Temp\ccBtYjN3.s 			page 21


 1129              		.loc 1 437 0
 1130 01bc 4FF0FF30 		mov	r0, #-1
 1131              	.LVL167:
 1132 01c0 C8E7     		b	.L122
 1133              	.L97:
 1134              		.loc 1 461 0
 1135 01c2 2846     		mov	r0, r5
 1136 01c4 40F2F511 		movw	r1, #501
 1137 01c8 FFF7FEFF 		bl	HttpSendError
 1138              	.LVL168:
 1139              		.loc 1 462 0
 1140 01cc 2046     		mov	r0, r4
 1141              	.LVL169:
 1142              	.L124:
 1143 01ce FFF7FEFF 		bl	free
 1144              	.LVL170:
 1145              		.loc 1 463 0
 1146 01d2 4FF0FF30 		mov	r0, #-1
 1147 01d6 BDE7     		b	.L122
 1148              	.L129:
 1149              		.align	2
 1150              	.L128:
 1151 01d8 1C000000 		.word	.LC7
 1152 01dc 10000000 		.word	.LC4
 1153 01e0 00000000 		.word	.LANCHOR2
 1154 01e4 00000000 		.word	.LANCHOR3
 1155 01e8 0C000000 		.word	.LC3
 1156 01ec 20000000 		.word	.LC8
 1157 01f0 24000000 		.word	.LC9
 1158 01f4 18000000 		.word	.LC6
 1159 01f8 00000000 		.word	.LANCHOR5
 1160 01fc 00000000 		.word	.LANCHOR6
 1161 0200 00000000 		.word	.LANCHOR7
 1162 0204 00000000 		.word	.LANCHOR1
 1163 0208 00000000 		.word	.LANCHOR8
 1164 020c 00000000 		.word	.LANCHOR9
 1165 0210 00000000 		.word	.LANCHOR10
 1166 0214 00000000 		.word	.LANCHOR11
 1167 0218 00000000 		.word	.LANCHOR4
 1168              		.cfi_endproc
 1169              	.LFE272:
 1170              		.size	HttpParseHeader, .-HttpParseHeader
 1171 021c AFF30080 		.section	.text.HttpdClientHandler,"ax",%progbits
 1172              		.align	2
 1173              		.p2align 4,,15
 1174              		.global	HttpdClientHandler
 1175              		.thumb
 1176              		.thumb_func
 1177              		.type	HttpdClientHandler, %function
 1178              	HttpdClientHandler:
 1179              	.LFB274:
 1180              		.loc 1 577 0
 1181              		.cfi_startproc
 1182              		@ args = 0, pretend = 0, frame = 0
 1183              		@ frame_needed = 0, uses_anonymous_args = 0
 1184              	.LVL171:
 1185 0000 2DE9F047 		push	{r4, r5, r6, r7, r8, r9, r10, lr}
ARM GAS  C:\Users\jo\AppData\Local\Temp\ccBtYjN3.s 			page 22


 1186              		.cfi_def_cfa_offset 32
 1187              		.cfi_offset 4, -32
 1188              		.cfi_offset 5, -28
 1189              		.cfi_offset 6, -24
 1190              		.cfi_offset 7, -20
 1191              		.cfi_offset 8, -16
 1192              		.cfi_offset 9, -12
 1193              		.cfi_offset 10, -8
 1194              		.cfi_offset 14, -4
 1195              		.loc 1 577 0
 1196 0004 0746     		mov	r7, r0
 1197              		.loc 1 584 0
 1198 0006 5020     		movs	r0, #80
 1199              	.LVL172:
 1200 0008 FFF7FEFF 		bl	malloc
 1201              	.LVL173:
 1202              		.loc 1 585 0
 1203 000c 0446     		mov	r4, r0
 1204 000e 0028     		cmp	r0, #0
 1205 0010 74D0     		beq	.L130
 1206              		.loc 1 593 0
 1207 0012 DFF8F080 		ldr	r8, .L155+4
 1208              		.loc 1 596 0
 1209 0016 DFF8F090 		ldr	r9, .L155+8
 1210              		.loc 1 598 0
 1211 001a DFF8F0A0 		ldr	r10, .L155+12
 1212 001e 0026     		movs	r6, #0
 1213 0020 08E0     		b	.L138
 1214              	.LVL174:
 1215              	.L141:
 1216              		.loc 1 594 0
 1217 0022 40F29116 		movw	r6, #401
 1218              	.LVL175:
 1219              	.L140:
 1220              		.loc 1 612 0
 1221 0026 2046     		mov	r0, r4
 1222 0028 3146     		mov	r1, r6
 1223 002a FFF7FEFF 		bl	HttpSendError
 1224              	.LVL176:
 1225              		.loc 1 614 0
 1226 002e 236A     		ldr	r3, [r4, #32]
 1227 0030 022B     		cmp	r3, #2
 1228 0032 2ED1     		bne	.L139
 1229              	.LVL177:
 1230              	.L138:
 1231              		.loc 1 587 0
 1232 0034 2760     		str	r7, [r4]
 1233              	.LVL178:
 1234              		.loc 1 590 0
 1235 0036 2046     		mov	r0, r4
 1236 0038 FFF7FEFF 		bl	HttpParseHeader
 1237              	.LVL179:
 1238 003c 48BB     		cbnz	r0, .L139
 1239              		.loc 1 593 0
 1240 003e D8F80030 		ldr	r3, [r8]
 1241 0042 2046     		mov	r0, r4
 1242 0044 9847     		blx	r3
ARM GAS  C:\Users\jo\AppData\Local\Temp\ccBtYjN3.s 			page 23


 1243              	.LVL180:
 1244 0046 0546     		mov	r5, r0
 1245 0048 0028     		cmp	r0, #0
 1246 004a EAD1     		bne	.L141
 1247              		.loc 1 596 0
 1248 004c D9F80030 		ldr	r3, [r9]
 1249 0050 2046     		mov	r0, r4
 1250 0052 9847     		blx	r3
 1251              	.LVL181:
 1252 0054 C0B1     		cbz	r0, .L134
 1253              		.loc 1 598 0
 1254 0056 DAF80000 		ldr	r0, [r10]
 1255 005a 294B     		ldr	r3, .L155
 1256 005c A168     		ldr	r1, [r4, #8]
 1257 005e 2A46     		mov	r2, r5
 1258 0060 0028     		cmp	r0, #0
 1259 0062 08BF     		it	eq
 1260 0064 1846     		moveq	r0, r3
 1261 0066 FFF7FEFF 		bl	AllocConcatStrings
 1262              	.LVL182:
 1263              		.loc 1 599 0
 1264 006a 0546     		mov	r5, r0
 1265 006c 0028     		cmp	r0, #0
 1266 006e 3FD0     		beq	.L143
 1267              		.loc 1 600 0
 1268 0070 FFF7FEFF 		bl	GetMediaTypeEntry
 1269              	.LVL183:
 1270              		.loc 1 601 0
 1271 0074 0028     		cmp	r0, #0
 1272 0076 3ED0     		beq	.L144
 1273              		.loc 1 604 0
 1274 0078 4369     		ldr	r3, [r0, #20]
 1275 007a 0146     		mov	r1, r0
 1276 007c 2A46     		mov	r2, r5
 1277 007e 2046     		mov	r0, r4
 1278              	.LVL184:
 1279 0080 9847     		blx	r3
 1280              	.LVL185:
 1281              	.L136:
 1282              		.loc 1 606 0
 1283 0082 2846     		mov	r0, r5
 1284 0084 FFF7FEFF 		bl	free
 1285              	.LVL186:
 1286              	.L134:
 1287              		.loc 1 611 0
 1288 0088 002E     		cmp	r6, #0
 1289 008a CCD1     		bne	.L140
 1290              		.loc 1 614 0
 1291 008c 236A     		ldr	r3, [r4, #32]
 1292 008e 022B     		cmp	r3, #2
 1293 0090 D0D0     		beq	.L138
 1294              	.L139:
 1295              		.loc 1 616 0
 1296 0092 A068     		ldr	r0, [r4, #8]
 1297 0094 FFF7FEFF 		bl	free
 1298              	.LVL187:
 1299              		.loc 1 617 0
ARM GAS  C:\Users\jo\AppData\Local\Temp\ccBtYjN3.s 			page 24


 1300 0098 2069     		ldr	r0, [r4, #16]
 1301 009a FFF7FEFF 		bl	free
 1302              	.LVL188:
 1303              		.loc 1 618 0
 1304 009e 6069     		ldr	r0, [r4, #20]
 1305 00a0 FFF7FEFF 		bl	free
 1306              	.LVL189:
 1307              		.loc 1 619 0
 1308 00a4 A069     		ldr	r0, [r4, #24]
 1309 00a6 FFF7FEFF 		bl	free
 1310              	.LVL190:
 1311              		.loc 1 621 0
 1312 00aa A06A     		ldr	r0, [r4, #40]
 1313 00ac FFF7FEFF 		bl	free
 1314              	.LVL191:
 1315              		.loc 1 622 0
 1316 00b0 E06A     		ldr	r0, [r4, #44]
 1317 00b2 FFF7FEFF 		bl	free
 1318              	.LVL192:
 1319              		.loc 1 623 0
 1320 00b6 206B     		ldr	r0, [r4, #48]
 1321 00b8 FFF7FEFF 		bl	free
 1322              	.LVL193:
 1323              		.loc 1 624 0
 1324 00bc 606B     		ldr	r0, [r4, #52]
 1325 00be FFF7FEFF 		bl	free
 1326              	.LVL194:
 1327              		.loc 1 625 0
 1328 00c2 A06B     		ldr	r0, [r4, #56]
 1329 00c4 FFF7FEFF 		bl	free
 1330              	.LVL195:
 1331              		.loc 1 626 0
 1332 00c8 E06B     		ldr	r0, [r4, #60]
 1333 00ca FFF7FEFF 		bl	free
 1334              	.LVL196:
 1335              		.loc 1 627 0
 1336 00ce 206C     		ldr	r0, [r4, #64]
 1337 00d0 FFF7FEFF 		bl	free
 1338              	.LVL197:
 1339              		.loc 1 628 0
 1340 00d4 606C     		ldr	r0, [r4, #68]
 1341 00d6 FFF7FEFF 		bl	free
 1342              	.LVL198:
 1343              		.loc 1 629 0
 1344 00da A06C     		ldr	r0, [r4, #72]
 1345 00dc FFF7FEFF 		bl	free
 1346              	.LVL199:
 1347              		.loc 1 630 0
 1348 00e0 E06C     		ldr	r0, [r4, #76]
 1349 00e2 FFF7FEFF 		bl	free
 1350              	.LVL200:
 1351              		.loc 1 632 0
 1352 00e6 2046     		mov	r0, r4
 1353              		.loc 1 634 0
 1354 00e8 BDE8F047 		pop	{r4, r5, r6, r7, r8, r9, r10, lr}
 1355              		.cfi_remember_state
 1356              		.cfi_restore 14
ARM GAS  C:\Users\jo\AppData\Local\Temp\ccBtYjN3.s 			page 25


 1357              		.cfi_restore 10
 1358              		.cfi_restore 9
 1359              		.cfi_restore 8
 1360              		.cfi_restore 7
 1361              		.cfi_restore 6
 1362              		.cfi_restore 5
 1363              		.cfi_restore 4
 1364              		.cfi_def_cfa_offset 0
 1365              	.LVL201:
 1366              		.loc 1 632 0
 1367 00ec FFF7FEBF 		b	free
 1368              	.LVL202:
 1369              	.L143:
 1370              		.cfi_restore_state
 1371              		.loc 1 608 0
 1372 00f0 4FF4CA76 		mov	r6, #404
 1373              	.LVL203:
 1374 00f4 97E7     		b	.L140
 1375              	.LVL204:
 1376              	.L144:
 1377              		.loc 1 602 0
 1378 00f6 4FF4CA76 		mov	r6, #404
 1379              	.LVL205:
 1380 00fa C2E7     		b	.L136
 1381              	.LVL206:
 1382              	.L130:
 1383 00fc BDE8F087 		pop	{r4, r5, r6, r7, r8, r9, r10, pc}
 1384              	.LVL207:
 1385              	.L156:
 1386              		.align	2
 1387              	.L155:
 1388 0100 2C000000 		.word	.LC10
 1389 0104 00000000 		.word	.LANCHOR12
 1390 0108 00000000 		.word	.LANCHOR13
 1391 010c 00000000 		.word	.LANCHOR14
 1392              		.cfi_endproc
 1393              	.LFE274:
 1394              		.size	HttpdClientHandler, .-HttpdClientHandler
 1395              		.section	.text.HttpRegisterRootPath,"ax",%progbits
 1396              		.align	2
 1397              		.p2align 4,,15
 1398              		.global	HttpRegisterRootPath
 1399              		.thumb
 1400              		.thumb_func
 1401              		.type	HttpRegisterRootPath, %function
 1402              	HttpRegisterRootPath:
 1403              	.LFB273:
 1404              		.loc 1 561 0
 1405              		.cfi_startproc
 1406              		@ args = 0, pretend = 0, frame = 0
 1407              		@ frame_needed = 0, uses_anonymous_args = 0
 1408              	.LVL208:
 1409 0000 38B5     		push	{r3, r4, r5, lr}
 1410              		.cfi_def_cfa_offset 16
 1411              		.cfi_offset 3, -16
 1412              		.cfi_offset 4, -12
 1413              		.cfi_offset 5, -8
ARM GAS  C:\Users\jo\AppData\Local\Temp\ccBtYjN3.s 			page 26


 1414              		.cfi_offset 14, -4
 1415              		.loc 1 562 0
 1416 0002 0A4D     		ldr	r5, .L165
 1417 0004 2B68     		ldr	r3, [r5]
 1418              		.loc 1 561 0
 1419 0006 0446     		mov	r4, r0
 1420              		.loc 1 562 0
 1421 0008 13B1     		cbz	r3, .L158
 1422              		.loc 1 563 0
 1423 000a 1846     		mov	r0, r3
 1424              	.LVL209:
 1425 000c FFF7FEFF 		bl	free
 1426              	.LVL210:
 1427              	.L158:
 1428              		.loc 1 565 0
 1429 0010 44B1     		cbz	r4, .L159
 1430              		.loc 1 566 0
 1431 0012 2046     		mov	r0, r4
 1432 0014 FFF7FEFF 		bl	strdup
 1433              	.LVL211:
 1434              		.loc 1 567 0
 1435 0018 B0FA80F4 		clz	r4, r0
 1436              	.LVL212:
 1437 001c 6409     		lsrs	r4, r4, #5
 1438              		.loc 1 566 0
 1439 001e 2860     		str	r0, [r5]
 1440              		.loc 1 567 0
 1441 0020 6042     		negs	r0, r4
 1442 0022 38BD     		pop	{r3, r4, r5, pc}
 1443              	.LVL213:
 1444              	.L159:
 1445              		.loc 1 571 0
 1446 0024 2C60     		str	r4, [r5]
 1447              		.loc 1 573 0
 1448 0026 2046     		mov	r0, r4
 1449              		.loc 1 574 0
 1450 0028 38BD     		pop	{r3, r4, r5, pc}
 1451              	.LVL214:
 1452              	.L166:
 1453 002a 00BF     		.align	2
 1454              	.L165:
 1455 002c 00000000 		.word	.LANCHOR14
 1456              		.cfi_endproc
 1457              	.LFE273:
 1458              		.size	HttpRegisterRootPath, .-HttpRegisterRootPath
 1459              		.section	.text.HttpTask,"ax",%progbits
 1460              		.align	2
 1461              		.p2align 4,,15
 1462              		.global	HttpTask
 1463              		.thumb
 1464              		.thumb_func
 1465              		.type	HttpTask, %function
 1466              	HttpTask:
 1467              	.LFB275:
 1468              		.loc 1 649 0
 1469              		.cfi_startproc
 1470              		@ Volatile: function does not return.
ARM GAS  C:\Users\jo\AppData\Local\Temp\ccBtYjN3.s 			page 27


 1471              		@ args = 0, pretend = 0, frame = 0
 1472              		@ frame_needed = 0, uses_anonymous_args = 0
 1473              	.LVL215:
 1474 0000 08B5     		push	{r3, lr}
 1475              		.cfi_def_cfa_offset 8
 1476              		.cfi_offset 3, -8
 1477              		.cfi_offset 14, -4
 1478              		.loc 1 652 0
 1479 0002 0E4B     		ldr	r3, .L170
 1480 0004 0E4A     		ldr	r2, .L170+4
 1481 0006 9B69     		ldr	r3, [r3, #24]
 1482 0008 9A61     		str	r2, [r3, #24]
 1483              		.loc 1 657 0
 1484 000a FFF7FEFF 		bl	StreamInit
 1485              	.LVL216:
 1486              		.loc 1 663 0
 1487 000e FFF7FEFF 		bl	MediaTypeInitDefaults
 1488              	.LVL217:
 1489              		.loc 1 664 0
 1490 0012 0C49     		ldr	r1, .L170+8
 1491 0014 0C48     		ldr	r0, .L170+12
 1492 0016 40F22D12 		movw	r2, #301
 1493 001a FFF7FEFF 		bl	HttpRegisterRedir
 1494              	.LVL218:
 1495              		.loc 1 669 0
 1496 001e 0021     		movs	r1, #0
 1497 0020 0A46     		mov	r2, r1
 1498 0022 0A48     		ldr	r0, .L170+16
 1499 0024 0A4B     		ldr	r3, .L170+20
 1500 0026 FFF7FEFF 		bl	HttpRegisterMediaType
 1501              	.LVL219:
 1502              		.loc 1 676 0
 1503 002a 0A48     		ldr	r0, .L170+24
 1504 002c 0021     		movs	r1, #0
 1505 002e FFF7FEFF 		bl	StreamClientAccept_SSL
 1506              	.LVL220:
 1507              	.L168:
 1508              		.loc 1 681 0 discriminator 1
 1509 0032 46F2A810 		movw	r0, #25000
 1510 0036 FFF7FEFF 		bl	chThdSleep
 1511              	.LVL221:
 1512              		.loc 1 682 0 discriminator 1
 1513 003a FAE7     		b	.L168
 1514              	.L171:
 1515              		.align	2
 1516              	.L170:
 1517 003c 00000000 		.word	ch
 1518 0040 34000000 		.word	.LC11
 1519 0044 44000000 		.word	.LC13
 1520 0048 40000000 		.word	.LC12
 1521 004c 50000000 		.word	.LC14
 1522 0050 00000000 		.word	HttpCgiFunctionHandler
 1523 0054 00000000 		.word	HttpdClientHandler
 1524              		.cfi_endproc
 1525              	.LFE275:
 1526              		.size	HttpTask, .-HttpTask
 1527              		.global	task_http_stack
ARM GAS  C:\Users\jo\AppData\Local\Temp\ccBtYjN3.s 			page 28


 1528              		.global	httpd_loc_redirector
 1529              		.global	httpd_auth_validator
 1530              		.global	http_root_path
 1531              		.global	ct_Location
 1532              		.global	ct_Content_Encoding
 1533              		.global	ct_Date
 1534              		.global	ct_Expires
 1535              		.global	ct_Last_Modified
 1536              		.global	ct_User_Agent
 1537              		.global	ct_Referer
 1538              		.global	ct_If_Modified_Since
 1539              		.global	ct_Host
 1540              		.global	ct_Cookie
 1541              		.global	ct_Content_Length
 1542              		.global	ct_Keep_Alive
 1543              		.global	ct_close
 1544              		.global	ct_Connection
 1545              		.global	ct_Authorization
 1546              		.global	ct_Accept_Encoding
 1547              		.global	ct_Content_Type
 1548              		.global	ct_Content_Disposition
 1549              		.global	ct_POST
 1550              		.global	ct_HEAD
 1551              		.global	ct_GET
 1552 0058 AFF30080 		.section	.rodata.ct_Expires,"a",%progbits
 1552      AFF30080 
 1553              		.align	2
 1554              		.type	ct_Expires, %object
 1555              		.size	ct_Expires, 8
 1556              	ct_Expires:
 1557 0000 45787069 		.ascii	"Expires\000"
 1557      72657300 
 1558              		.section	.rodata.ct_Connection,"a",%progbits
 1559              		.align	2
 1560              		.type	ct_Connection, %object
 1561              		.size	ct_Connection, 11
 1562              	ct_Connection:
 1563 0000 436F6E6E 		.ascii	"Connection\000"
 1563      65637469 
 1563      6F6E00
 1564 000b 00       		.section	.rodata.ct_Cookie,"a",%progbits
 1565              		.align	2
 1566              		.set	.LANCHOR8,. + 0
 1567              		.type	ct_Cookie, %object
 1568              		.size	ct_Cookie, 7
 1569              	ct_Cookie:
 1570 0000 436F6F6B 		.ascii	"Cookie\000"
 1570      696500
 1571 0007 00       		.section	.rodata.ct_GET,"a",%progbits
 1572              		.align	2
 1573              		.set	.LANCHOR2,. + 0
 1574              		.type	ct_GET, %object
 1575              		.size	ct_GET, 4
 1576              	ct_GET:
 1577 0000 47455400 		.ascii	"GET\000"
 1578              		.section	.bss.task_http_stack,"aw",%nobits
 1579              		.align	3
ARM GAS  C:\Users\jo\AppData\Local\Temp\ccBtYjN3.s 			page 29


 1580              		.type	task_http_stack, %object
 1581              		.size	task_http_stack, 7888
 1582              	task_http_stack:
 1583 0000 00000000 		.space	7888
 1583      00000000 
 1583      00000000 
 1583      00000000 
 1583      00000000 
 1584              		.section	.rodata.ct_Authorization,"a",%progbits
 1585              		.align	2
 1586              		.set	.LANCHOR6,. + 0
 1587              		.type	ct_Authorization, %object
 1588              		.size	ct_Authorization, 14
 1589              	ct_Authorization:
 1590 0000 41757468 		.ascii	"Authorization\000"
 1590      6F72697A 
 1590      6174696F 
 1590      6E00
 1591 000e 0000     		.section	.rodata.ct_Content_Disposition,"a",%progbits
 1592              		.align	2
 1593              		.set	.LANCHOR0,. + 0
 1594              		.type	ct_Content_Disposition, %object
 1595              		.size	ct_Content_Disposition, 20
 1596              	ct_Content_Disposition:
 1597 0000 436F6E74 		.ascii	"Content-Disposition\000"
 1597      656E742D 
 1597      44697370 
 1597      6F736974 
 1597      696F6E00 
 1598              		.section	.rodata.ct_Content_Type,"a",%progbits
 1599              		.align	2
 1600              		.set	.LANCHOR1,. + 0
 1601              		.type	ct_Content_Type, %object
 1602              		.size	ct_Content_Type, 13
 1603              	ct_Content_Type:
 1604 0000 436F6E74 		.ascii	"Content-Type\000"
 1604      656E742D 
 1604      54797065 
 1604      00
 1605 000d 000000   		.section	.data.httpd_loc_redirector,"aw",%progbits
 1606              		.align	2
 1607              		.set	.LANCHOR13,. + 0
 1608              		.type	httpd_loc_redirector, %object
 1609              		.size	httpd_loc_redirector, 4
 1610              	httpd_loc_redirector:
 1611 0000 00000000 		.word	HttpLocationRedirNone
 1612              		.section	.rodata.ct_Location,"a",%progbits
 1613              		.align	2
 1614              		.type	ct_Location, %object
 1615              		.size	ct_Location, 9
 1616              	ct_Location:
 1617 0000 4C6F6361 		.ascii	"Location\000"
 1617      74696F6E 
 1617      00
 1618 0009 000000   		.section	.rodata.ct_If_Modified_Since,"a",%progbits
 1619              		.align	2
 1620              		.type	ct_If_Modified_Since, %object
ARM GAS  C:\Users\jo\AppData\Local\Temp\ccBtYjN3.s 			page 30


 1621              		.size	ct_If_Modified_Since, 18
 1622              	ct_If_Modified_Since:
 1623 0000 49662D4D 		.ascii	"If-Modified-Since\000"
 1623      6F646966 
 1623      6965642D 
 1623      53696E63 
 1623      6500
 1624 0012 0000     		.section	.rodata.ct_close,"a",%progbits
 1625              		.align	2
 1626              		.type	ct_close, %object
 1627              		.size	ct_close, 6
 1628              	ct_close:
 1629 0000 636C6F73 		.ascii	"close\000"
 1629      6500
 1630 0006 0000     		.section	.rodata.ct_Date,"a",%progbits
 1631              		.align	2
 1632              		.type	ct_Date, %object
 1633              		.size	ct_Date, 5
 1634              	ct_Date:
 1635 0000 44617465 		.ascii	"Date\000"
 1635      00
 1636 0005 000000   		.section	.rodata.ct_HEAD,"a",%progbits
 1637              		.align	2
 1638              		.set	.LANCHOR3,. + 0
 1639              		.type	ct_HEAD, %object
 1640              		.size	ct_HEAD, 5
 1641              	ct_HEAD:
 1642 0000 48454144 		.ascii	"HEAD\000"
 1642      00
 1643 0005 000000   		.section	.rodata.str1.4,"aMS",%progbits,1
 1644              		.align	2
 1645              	.LC0:
 1646 0000 2600     		.ascii	"&\000"
 1647 0002 0000     		.space	2
 1648              	.LC1:
 1649 0004 3D223B00 		.ascii	"=\";\000"
 1650              	.LC2:
 1651 0008 223B00   		.ascii	"\";\000"
 1652 000b 00       		.space	1
 1653              	.LC3:
 1654 000c 0A00     		.ascii	"\012\000"
 1655 000e 0000     		.space	2
 1656              	.LC4:
 1657 0010 0D00     		.ascii	"\015\000"
 1658 0012 0000     		.space	2
 1659              	.LC5:
 1660 0014 2D2D00   		.ascii	"--\000"
 1661 0017 00       		.space	1
 1662              	.LC6:
 1663 0018 3A0A00   		.ascii	":\012\000"
 1664 001b 00       		.space	1
 1665              	.LC7:
 1666 001c 200A00   		.ascii	" \012\000"
 1667 001f 00       		.space	1
 1668              	.LC8:
 1669 0020 200D00   		.ascii	" \015\000"
 1670 0023 00       		.space	1
ARM GAS  C:\Users\jo\AppData\Local\Temp\ccBtYjN3.s 			page 31


 1671              	.LC9:
 1672 0024 48545450 		.ascii	"HTTP/\000"
 1672      2F00
 1673 002a 0000     		.space	2
 1674              	.LC10:
 1675 002c 55524F4D 		.ascii	"UROM:\000"
 1675      3A00
 1676 0032 0000     		.space	2
 1677              	.LC11:
 1678 0034 48747470 		.ascii	"HttpTask\000"
 1678      5461736B 
 1678      00
 1679 003d 000000   		.space	3
 1680              	.LC12:
 1681 0040 00       		.ascii	"\000"
 1682 0041 000000   		.space	3
 1683              	.LC13:
 1684 0044 2F696E64 		.ascii	"/index.html\000"
 1684      65782E68 
 1684      746D6C00 
 1685              	.LC14:
 1686 0050 63676900 		.ascii	"cgi\000"
 1687              		.section	.rodata.ct_POST,"a",%progbits
 1688              		.align	2
 1689              		.set	.LANCHOR4,. + 0
 1690              		.type	ct_POST, %object
 1691              		.size	ct_POST, 5
 1692              	ct_POST:
 1693 0000 504F5354 		.ascii	"POST\000"
 1693      00
 1694 0005 000000   		.section	.rodata.ct_User_Agent,"a",%progbits
 1695              		.align	2
 1696              		.set	.LANCHOR11,. + 0
 1697              		.type	ct_User_Agent, %object
 1698              		.size	ct_User_Agent, 11
 1699              	ct_User_Agent:
 1700 0000 55736572 		.ascii	"User-Agent\000"
 1700      2D416765 
 1700      6E7400
 1701 000b 00       		.section	.rodata.ct_Accept_Encoding,"a",%progbits
 1702              		.align	2
 1703              		.set	.LANCHOR5,. + 0
 1704              		.type	ct_Accept_Encoding, %object
 1705              		.size	ct_Accept_Encoding, 16
 1706              	ct_Accept_Encoding:
 1707 0000 41636365 		.ascii	"Accept-Encoding\000"
 1707      70742D45 
 1707      6E636F64 
 1707      696E6700 
 1708              		.section	.bss.http_root_path,"aw",%nobits
 1709              		.align	2
 1710              		.set	.LANCHOR14,. + 0
 1711              		.type	http_root_path, %object
 1712              		.size	http_root_path, 4
 1713              	http_root_path:
 1714 0000 00000000 		.space	4
 1715              		.section	.data.httpd_auth_validator,"aw",%progbits
ARM GAS  C:\Users\jo\AppData\Local\Temp\ccBtYjN3.s 			page 32


 1716              		.align	2
 1717              		.set	.LANCHOR12,. + 0
 1718              		.type	httpd_auth_validator, %object
 1719              		.size	httpd_auth_validator, 4
 1720              	httpd_auth_validator:
 1721 0000 00000000 		.word	HttpAuthValidateAll
 1722              		.section	.rodata.ct_Keep_Alive,"a",%progbits
 1723              		.align	2
 1724              		.type	ct_Keep_Alive, %object
 1725              		.size	ct_Keep_Alive, 11
 1726              	ct_Keep_Alive:
 1727 0000 6B656570 		.ascii	"keep-alive\000"
 1727      2D616C69 
 1727      766500
 1728 000b 00       		.section	.rodata.ct_Content_Length,"a",%progbits
 1729              		.align	2
 1730              		.set	.LANCHOR7,. + 0
 1731              		.type	ct_Content_Length, %object
 1732              		.size	ct_Content_Length, 15
 1733              	ct_Content_Length:
 1734 0000 436F6E74 		.ascii	"Content-Length\000"
 1734      656E742D 
 1734      4C656E67 
 1734      746800
 1735 000f 00       		.section	.rodata.ct_Last_Modified,"a",%progbits
 1736              		.align	2
 1737              		.type	ct_Last_Modified, %object
 1738              		.size	ct_Last_Modified, 14
 1739              	ct_Last_Modified:
 1740 0000 4C617374 		.ascii	"Last-Modified\000"
 1740      2D4D6F64 
 1740      69666965 
 1740      6400
 1741 000e 0000     		.section	.rodata.ct_Host,"a",%progbits
 1742              		.align	2
 1743              		.set	.LANCHOR9,. + 0
 1744              		.type	ct_Host, %object
 1745              		.size	ct_Host, 5
 1746              	ct_Host:
 1747 0000 486F7374 		.ascii	"Host\000"
 1747      00
 1748 0005 000000   		.section	.rodata.ct_Content_Encoding,"a",%progbits
 1749              		.align	2
 1750              		.type	ct_Content_Encoding, %object
 1751              		.size	ct_Content_Encoding, 17
 1752              	ct_Content_Encoding:
 1753 0000 436F6E74 		.ascii	"Content-Encoding\000"
 1753      656E742D 
 1753      456E636F 
 1753      64696E67 
 1753      00
 1754 0011 000000   		.section	.rodata.ct_Referer,"a",%progbits
 1755              		.align	2
 1756              		.set	.LANCHOR10,. + 0
 1757              		.type	ct_Referer, %object
 1758              		.size	ct_Referer, 8
 1759              	ct_Referer:
ARM GAS  C:\Users\jo\AppData\Local\Temp\ccBtYjN3.s 			page 33


 1760 0000 52656665 		.ascii	"Referer\000"
 1760      72657200 
 1761              		.text
 1762              	.Letext0:
 1763              		.file 2 "c:\\program files\\gnu tools arm embedded\\4.9 2014q4\\lib\\gcc\\arm-none-eabi\\4.9.3\\in
 1764              		.file 3 "c:\\program files\\gnu tools arm embedded\\4.9 2014q4\\arm-none-eabi\\include\\machine\\_
 1765              		.file 4 "c:\\program files\\gnu tools arm embedded\\4.9 2014q4\\arm-none-eabi\\include\\stdint.h"
 1766              		.file 5 "../../../os/rt/ports/ARMCMx/compilers/GCC/chtypes.h"
 1767              		.file 6 "../../../os/rt/include/chsystypes.h"
 1768              		.file 7 "../../../os/rt/include/chschd.h"
 1769              		.file 8 "../../../os/rt/ports/ARMCMx/chcore.h"
 1770              		.file 9 "../../../os/rt/ports/ARMCMx/chcore_v7m.h"
 1771              		.file 10 "../../../os/rt/include/chdebug.h"
 1772              		.file 11 "../../../os/rt/include/chtm.h"
 1773              		.file 12 "../../../os/rt/include/chsem.h"
 1774              		.file 13 "../../../os/rt/include/chmtx.h"
 1775              		.file 14 "./ITM_trace.h"
 1776              		.file 15 "../../../os/various/lwip_bindings/arch/cc.h"
 1777              		.file 16 "../../../ext/lwip/src/include/ipv4/lwip/inet.h"
 1778              		.file 17 "../../../ext/lwip/src/include/lwip\\sockets.h"
 1779              		.file 18 "./uhttp-1.1/pro/lwip/streamio.h"
 1780              		.file 19 "./os/streamio.h"
 1781              		.file 20 "./uhttp-1.1/uhttpd.h"
 1782              		.file 21 "./uhttp-1.1/mediatypes.h"
 1783              		.file 22 "../../../os/ext/CMSIS/include/core_cm4.h"
 1784              		.file 23 "c:\\program files\\gnu tools arm embedded\\4.9 2014q4\\arm-none-eabi\\include\\string.h"
 1785              		.file 24 "c:\\program files\\gnu tools arm embedded\\4.9 2014q4\\arm-none-eabi\\include\\stdlib.h"
 1786              		.file 25 "./uhttp-1.1/utils.h"
 1787              		.file 26 "../../../os/rt/include/chthreads.h"