ARM GAS  C:\Users\jo\AppData\Local\Temp\ccwlN2BW.s 			page 1


   1              		.syntax unified
   2              		.cpu cortex-m4
   3              		.fpu softvfp
   4              		.eabi_attribute 20, 1
   5              		.eabi_attribute 21, 1
   6              		.eabi_attribute 23, 3
   7              		.eabi_attribute 24, 1
   8              		.eabi_attribute 25, 1
   9              		.eabi_attribute 26, 1
  10              		.eabi_attribute 30, 2
  11              		.eabi_attribute 34, 1
  12              		.eabi_attribute 18, 4
  13              		.thumb
  14              		.file	"aes.c"
  15              		.text
  16              	.Ltext0:
  17              		.cfi_sections	.debug_frame
  18              		.section	.text.aes_setkey_enc,"ax",%progbits
  19              		.align	2
  20              		.p2align 4,,15
  21              		.global	aes_setkey_enc
  22              		.thumb
  23              		.thumb_func
  24              		.type	aes_setkey_enc, %function
  25              	aes_setkey_enc:
  26              	.LFB0:
  27              		.file 1 "../../../os/ext/PolarSSL/library/aes.c"
  28              		.loc 1 489 0
  29              		.cfi_startproc
  30              		@ args = 0, pretend = 0, frame = 8
  31              		@ frame_needed = 0, uses_anonymous_args = 0
  32              	.LVL0:
  33 0000 2DE9F04F 		push	{r4, r5, r6, r7, r8, r9, r10, fp, lr}
  34              		.cfi_def_cfa_offset 36
  35              		.cfi_offset 4, -36
  36              		.cfi_offset 5, -32
  37              		.cfi_offset 6, -28
  38              		.cfi_offset 7, -24
  39              		.cfi_offset 8, -20
  40              		.cfi_offset 9, -16
  41              		.cfi_offset 10, -12
  42              		.cfi_offset 11, -8
  43              		.cfi_offset 14, -4
  44              		.loc 1 523 0
  45 0004 C02A     		cmp	r2, #192
  46              		.loc 1 489 0
  47 0006 83B0     		sub	sp, sp, #12
  48              		.cfi_def_cfa_offset 48
  49              		.loc 1 523 0
  50 0008 39D0     		beq	.L3
  51 000a B2F5807F 		cmp	r2, #256
  52 000e 32D0     		beq	.L4
  53 0010 802A     		cmp	r2, #128
  54 0012 04D0     		beq	.L26
  55              		.loc 1 528 0
  56 0014 6FF01F00 		mvn	r0, #31
  57              	.LVL1:
ARM GAS  C:\Users\jo\AppData\Local\Temp\ccwlN2BW.s 			page 2


  58              		.loc 1 616 0
  59 0018 03B0     		add	sp, sp, #12
  60              		.cfi_remember_state
  61              		.cfi_def_cfa_offset 36
  62              		@ sp needed
  63 001a BDE8F08F 		pop	{r4, r5, r6, r7, r8, r9, r10, fp, pc}
  64              	.LVL2:
  65              	.L26:
  66              		.cfi_restore_state
  67              		.loc 1 525 0
  68 001e 0A23     		movs	r3, #10
  69 0020 0360     		str	r3, [r0]
  70 0022 9846     		mov	r8, r3
  71              	.L6:
  72              		.loc 1 539 0
  73 0024 8446     		mov	ip, r0
  74 0026 00F10803 		add	r3, r0, #8
  75              	.LVL3:
  76 002a 4CF8043F 		str	r3, [ip, #4]!
  77              	.LVL4:
  78              		.loc 1 541 0
  79 002e 5209     		lsrs	r2, r2, #5
  80              	.LVL5:
  81 0030 0027     		movs	r7, #0
  82              	.LVL6:
  83              	.L7:
  84              		.loc 1 543 0 discriminator 3
  85 0032 01EB870E 		add	lr, r1, r7, lsl #2
  86 0036 11F82750 		ldrb	r5, [r1, r7, lsl #2]	@ zero_extendqisi2
  87 003a 9EF80260 		ldrb	r6, [lr, #2]	@ zero_extendqisi2
  88 003e 9EF80140 		ldrb	r4, [lr, #1]	@ zero_extendqisi2
  89 0042 9EF803E0 		ldrb	lr, [lr, #3]	@ zero_extendqisi2
  90 0046 3604     		lsls	r6, r6, #16
  91 0048 46EA0424 		orr	r4, r6, r4, lsl #8
  92 004c 2C43     		orrs	r4, r4, r5
  93              		.loc 1 541 0 discriminator 3
  94 004e 0137     		adds	r7, r7, #1
  95              	.LVL7:
  96              		.loc 1 543 0 discriminator 3
  97 0050 44EA0E64 		orr	r4, r4, lr, lsl #24
  98              		.loc 1 541 0 discriminator 3
  99 0054 BA42     		cmp	r2, r7
 100              		.loc 1 543 0 discriminator 3
 101 0056 4CF8044F 		str	r4, [ip, #4]!
 102              		.loc 1 541 0 discriminator 3
 103 005a EAD8     		bhi	.L7
 104              		.loc 1 546 0
 105 005c B8F10C0F 		cmp	r8, #12
 106 0060 11D0     		beq	.L8
 107 0062 B8F10E0F 		cmp	r8, #14
 108 0066 73D0     		beq	.L9
 109 0068 B8F10A0F 		cmp	r8, #10
 110 006c 43D0     		beq	.L27
 111              	.LVL8:
 112              	.L22:
 113              		.loc 1 613 0
 114 006e 0020     		movs	r0, #0
ARM GAS  C:\Users\jo\AppData\Local\Temp\ccwlN2BW.s 			page 3


 115              		.loc 1 616 0
 116 0070 03B0     		add	sp, sp, #12
 117              		.cfi_remember_state
 118              		.cfi_def_cfa_offset 36
 119              		@ sp needed
 120 0072 BDE8F08F 		pop	{r4, r5, r6, r7, r8, r9, r10, fp, pc}
 121              	.LVL9:
 122              	.L4:
 123              		.cfi_restore_state
 124              		.loc 1 527 0
 125 0076 0E23     		movs	r3, #14
 126 0078 0360     		str	r3, [r0]
 127 007a 9846     		mov	r8, r3
 128 007c D2E7     		b	.L6
 129              	.L3:
 130              		.loc 1 526 0
 131 007e 0C23     		movs	r3, #12
 132 0080 0360     		str	r3, [r0]
 133 0082 9846     		mov	r8, r3
 134 0084 CEE7     		b	.L6
 135              	.LVL10:
 136              	.L8:
 137 0086 DFF87081 		ldr	r8, .L28
 138 008a DFF870E1 		ldr	lr, .L28+4
 139 008e C830     		adds	r0, r0, #200
 140              	.LVL11:
 141              	.L12:
 142              		.loc 1 569 0 discriminator 3
 143 0090 5969     		ldr	r1, [r3, #20]
 144              		.loc 1 576 0 discriminator 3
 145 0092 DD68     		ldr	r5, [r3, #12]
 146 0094 58F8044F 		ldr	r4, [r8, #4]!
 147 0098 0195     		str	r5, [sp, #4]
 148              		.loc 1 569 0 discriminator 3
 149 009a C1F30722 		ubfx	r2, r1, #8, #8
 150 009e 1D68     		ldr	r5, [r3]
 151 00a0 1EF80220 		ldrb	r2, [lr, r2]	@ zero_extendqisi2
 152              		.loc 1 574 0 discriminator 3
 153 00a4 5F68     		ldr	r7, [r3, #4]
 154              		.loc 1 575 0 discriminator 3
 155 00a6 9E68     		ldr	r6, [r3, #8]
 156              		.loc 1 571 0 discriminator 3
 157 00a8 4FEA1169 		lsr	r9, r1, #24
 158              		.loc 1 572 0 discriminator 3
 159 00ac 5FFA81FB 		uxtb	fp, r1
 160 00b0 85EA040C 		eor	ip, r5, r4
 161              		.loc 1 571 0 discriminator 3
 162 00b4 1EF809A0 		ldrb	r10, [lr, r9]	@ zero_extendqisi2
 163              		.loc 1 576 0 discriminator 3
 164 00b8 019D     		ldr	r5, [sp, #4]
 165              		.loc 1 577 0 discriminator 3
 166 00ba 1C69     		ldr	r4, [r3, #16]
 167              		.loc 1 570 0 discriminator 3
 168 00bc C1F30749 		ubfx	r9, r1, #16, #8
 169 00c0 8CEA020C 		eor	ip, ip, r2
 170              		.loc 1 572 0 discriminator 3
 171 00c4 1EF80B20 		ldrb	r2, [lr, fp]	@ zero_extendqisi2
ARM GAS  C:\Users\jo\AppData\Local\Temp\ccwlN2BW.s 			page 4


 172              		.loc 1 570 0 discriminator 3
 173 00c8 1EF80990 		ldrb	r9, [lr, r9]	@ zero_extendqisi2
 174 00cc 8CEA0A4C 		eor	ip, ip, r10, lsl #16
 175 00d0 8CEA0262 		eor	r2, ip, r2, lsl #24
 176              		.loc 1 571 0 discriminator 3
 177 00d4 82EA0922 		eor	r2, r2, r9, lsl #8
 178              		.loc 1 574 0 discriminator 3
 179 00d8 5740     		eors	r7, r7, r2
 180              		.loc 1 575 0 discriminator 3
 181 00da 7E40     		eors	r6, r6, r7
 182              		.loc 1 576 0 discriminator 3
 183 00dc 7540     		eors	r5, r5, r6
 184              		.loc 1 577 0 discriminator 3
 185 00de 6C40     		eors	r4, r4, r5
 186              		.loc 1 578 0 discriminator 3
 187 00e0 6140     		eors	r1, r1, r4
 188              		.loc 1 568 0 discriminator 3
 189 00e2 9A61     		str	r2, [r3, #24]
 190              		.loc 1 574 0 discriminator 3
 191 00e4 DF61     		str	r7, [r3, #28]
 192              		.loc 1 575 0 discriminator 3
 193 00e6 1E62     		str	r6, [r3, #32]
 194              		.loc 1 576 0 discriminator 3
 195 00e8 5D62     		str	r5, [r3, #36]
 196              		.loc 1 578 0 discriminator 3
 197 00ea D962     		str	r1, [r3, #44]
 198              		.loc 1 577 0 discriminator 3
 199 00ec 9C62     		str	r4, [r3, #40]
 200              		.loc 1 566 0 discriminator 3
 201 00ee 1833     		adds	r3, r3, #24
 202              	.LVL12:
 203 00f0 8342     		cmp	r3, r0
 204 00f2 CDD1     		bne	.L12
 205 00f4 BBE7     		b	.L22
 206              	.LVL13:
 207              	.L27:
 208 00f6 DFF808C1 		ldr	ip, .L28+8
 209 00fa DFF800E1 		ldr	lr, .L28+4
 210 00fe A830     		adds	r0, r0, #168
 211              	.LVL14:
 212              	.L11:
 213              		.loc 1 553 0 discriminator 3
 214 0100 DF68     		ldr	r7, [r3, #12]
 215              		.loc 1 552 0 discriminator 3
 216 0102 5CF8041B 		ldr	r1, [ip], #4
 217              		.loc 1 558 0 discriminator 3
 218 0106 5D68     		ldr	r5, [r3, #4]
 219              		.loc 1 559 0 discriminator 3
 220 0108 9C68     		ldr	r4, [r3, #8]
 221              		.loc 1 555 0 discriminator 3
 222 010a 3A0E     		lsrs	r2, r7, #24
 223              		.loc 1 553 0 discriminator 3
 224 010c C7F30726 		ubfx	r6, r7, #8, #8
 225              		.loc 1 555 0 discriminator 3
 226 0110 1EF80280 		ldrb	r8, [lr, r2]	@ zero_extendqisi2
 227 0114 1A68     		ldr	r2, [r3]
 228              		.loc 1 553 0 discriminator 3
ARM GAS  C:\Users\jo\AppData\Local\Temp\ccwlN2BW.s 			page 5


 229 0116 1EF80660 		ldrb	r6, [lr, r6]	@ zero_extendqisi2
 230              		.loc 1 556 0 discriminator 3
 231 011a 5FFA87FA 		uxtb	r10, r7
 232 011e 5140     		eors	r1, r1, r2
 233              		.loc 1 554 0 discriminator 3
 234 0120 C7F30749 		ubfx	r9, r7, #16, #8
 235 0124 7140     		eors	r1, r1, r6
 236              		.loc 1 556 0 discriminator 3
 237 0126 1EF80A20 		ldrb	r2, [lr, r10]	@ zero_extendqisi2
 238              		.loc 1 554 0 discriminator 3
 239 012a 1EF80960 		ldrb	r6, [lr, r9]	@ zero_extendqisi2
 240 012e 81EA0841 		eor	r1, r1, r8, lsl #16
 241 0132 81EA0262 		eor	r2, r1, r2, lsl #24
 242              		.loc 1 555 0 discriminator 3
 243 0136 82EA0622 		eor	r2, r2, r6, lsl #8
 244              		.loc 1 558 0 discriminator 3
 245 013a 5540     		eors	r5, r5, r2
 246              		.loc 1 559 0 discriminator 3
 247 013c 6C40     		eors	r4, r4, r5
 248              		.loc 1 560 0 discriminator 3
 249 013e 6740     		eors	r7, r7, r4
 250              		.loc 1 552 0 discriminator 3
 251 0140 1A61     		str	r2, [r3, #16]
 252              		.loc 1 558 0 discriminator 3
 253 0142 5D61     		str	r5, [r3, #20]
 254              		.loc 1 560 0 discriminator 3
 255 0144 DF61     		str	r7, [r3, #28]
 256              		.loc 1 559 0 discriminator 3
 257 0146 9C61     		str	r4, [r3, #24]
 258              		.loc 1 550 0 discriminator 3
 259 0148 1033     		adds	r3, r3, #16
 260              	.LVL15:
 261 014a 8342     		cmp	r3, r0
 262 014c D8D1     		bne	.L11
 263 014e 8EE7     		b	.L22
 264              	.LVL16:
 265              	.L9:
 266 0150 DFF8A480 		ldr	r8, .L28
 267 0154 DFF8A4E0 		ldr	lr, .L28+4
 268 0158 00F1E809 		add	r9, r0, #232
 269              	.LVL17:
 270              	.L14:
 271              		.loc 1 587 0 discriminator 3
 272 015c D869     		ldr	r0, [r3, #28]
 273 015e 58F8042F 		ldr	r2, [r8, #4]!
 274 0162 1968     		ldr	r1, [r3]
 275              		.loc 1 592 0 discriminator 3
 276 0164 5E68     		ldr	r6, [r3, #4]
 277              		.loc 1 593 0 discriminator 3
 278 0166 9D68     		ldr	r5, [r3, #8]
 279 0168 1F69     		ldr	r7, [r3, #16]
 280              		.loc 1 602 0 discriminator 3
 281 016a 5C69     		ldr	r4, [r3, #20]
 282              		.loc 1 587 0 discriminator 3
 283 016c C0F3072A 		ubfx	r10, r0, #8, #8
 284              		.loc 1 589 0 discriminator 3
 285 0170 4FEA106C 		lsr	ip, r0, #24
ARM GAS  C:\Users\jo\AppData\Local\Temp\ccwlN2BW.s 			page 6


 286              		.loc 1 587 0 discriminator 3
 287 0174 1EF80AA0 		ldrb	r10, [lr, r10]	@ zero_extendqisi2
 288              		.loc 1 589 0 discriminator 3
 289 0178 1EF80CC0 		ldrb	ip, [lr, ip]	@ zero_extendqisi2
 290 017c 81EA020B 		eor	fp, r1, r2
 291 0180 8BEA0A0A 		eor	r10, fp, r10
 292              		.loc 1 590 0 discriminator 3
 293 0184 5FFA80FB 		uxtb	fp, r0
 294 0188 8AEA0C4C 		eor	ip, r10, ip, lsl #16
 295              		.loc 1 588 0 discriminator 3
 296 018c C0F3074A 		ubfx	r10, r0, #16, #8
 297              		.loc 1 590 0 discriminator 3
 298 0190 1EF80BB0 		ldrb	fp, [lr, fp]	@ zero_extendqisi2
 299              		.loc 1 588 0 discriminator 3
 300 0194 1EF80AA0 		ldrb	r10, [lr, r10]	@ zero_extendqisi2
 301              		.loc 1 594 0 discriminator 3
 302 0198 DA68     		ldr	r2, [r3, #12]
 303 019a 8CEA0B6C 		eor	ip, ip, fp, lsl #24
 304              		.loc 1 589 0 discriminator 3
 305 019e 8CEA0A21 		eor	r1, ip, r10, lsl #8
 306              		.loc 1 592 0 discriminator 3
 307 01a2 4E40     		eors	r6, r6, r1
 308              		.loc 1 593 0 discriminator 3
 309 01a4 7540     		eors	r5, r5, r6
 310              		.loc 1 594 0 discriminator 3
 311 01a6 6A40     		eors	r2, r2, r5
 312              		.loc 1 597 0 discriminator 3
 313 01a8 5FFA82FC 		uxtb	ip, r2
 314              		.loc 1 600 0 discriminator 3
 315 01ac 4FEA126B 		lsr	fp, r2, #24
 316              		.loc 1 597 0 discriminator 3
 317 01b0 1EF80CC0 		ldrb	ip, [lr, ip]	@ zero_extendqisi2
 318              		.loc 1 600 0 discriminator 3
 319 01b4 1EF80BB0 		ldrb	fp, [lr, fp]	@ zero_extendqisi2
 320              		.loc 1 592 0 discriminator 3
 321 01b8 5E62     		str	r6, [r3, #36]
 322              		.loc 1 598 0 discriminator 3
 323 01ba C2F3072A 		ubfx	r10, r2, #8, #8
 324 01be 8CEA0707 		eor	r7, ip, r7
 325              		.loc 1 599 0 discriminator 3
 326 01c2 C2F3074C 		ubfx	ip, r2, #16, #8
 327              		.loc 1 598 0 discriminator 3
 328 01c6 1EF80AA0 		ldrb	r10, [lr, r10]	@ zero_extendqisi2
 329              		.loc 1 599 0 discriminator 3
 330 01ca 1EF80CC0 		ldrb	ip, [lr, ip]	@ zero_extendqisi2
 331              		.loc 1 586 0 discriminator 3
 332 01ce 1962     		str	r1, [r3, #32]
 333 01d0 87EA0B67 		eor	r7, r7, fp, lsl #24
 334 01d4 87EA0A26 		eor	r6, r7, r10, lsl #8
 335              		.loc 1 603 0 discriminator 3
 336 01d8 9969     		ldr	r1, [r3, #24]
 337              		.loc 1 593 0 discriminator 3
 338 01da 9D62     		str	r5, [r3, #40]
 339              		.loc 1 599 0 discriminator 3
 340 01dc 86EA0C46 		eor	r6, r6, ip, lsl #16
 341              		.loc 1 602 0 discriminator 3
 342 01e0 7440     		eors	r4, r4, r6
ARM GAS  C:\Users\jo\AppData\Local\Temp\ccwlN2BW.s 			page 7


 343              		.loc 1 603 0 discriminator 3
 344 01e2 6140     		eors	r1, r1, r4
 345              		.loc 1 604 0 discriminator 3
 346 01e4 4840     		eors	r0, r0, r1
 347              		.loc 1 594 0 discriminator 3
 348 01e6 DA62     		str	r2, [r3, #44]
 349              		.loc 1 596 0 discriminator 3
 350 01e8 1E63     		str	r6, [r3, #48]
 351              		.loc 1 602 0 discriminator 3
 352 01ea 5C63     		str	r4, [r3, #52]
 353              		.loc 1 604 0 discriminator 3
 354 01ec D863     		str	r0, [r3, #60]
 355              		.loc 1 603 0 discriminator 3
 356 01ee 9963     		str	r1, [r3, #56]
 357              		.loc 1 584 0 discriminator 3
 358 01f0 2033     		adds	r3, r3, #32
 359              	.LVL18:
 360 01f2 4B45     		cmp	r3, r9
 361 01f4 B2D1     		bne	.L14
 362 01f6 3AE7     		b	.L22
 363              	.L29:
 364              		.align	2
 365              	.L28:
 366 01f8 FCFFFFFF 		.word	.LANCHOR0-4
 367 01fc 00000000 		.word	.LANCHOR1
 368 0200 00000000 		.word	.LANCHOR0
 369              		.cfi_endproc
 370              	.LFE0:
 371              		.size	aes_setkey_enc, .-aes_setkey_enc
 372 0204 AFF30080 		.section	.text.aes_setkey_dec,"ax",%progbits
 372      AFF30080 
 372      AFF30080 
 373              		.align	2
 374              		.p2align 4,,15
 375              		.global	aes_setkey_dec
 376              		.thumb
 377              		.thumb_func
 378              		.type	aes_setkey_dec, %function
 379              	aes_setkey_dec:
 380              	.LFB1:
 381              		.loc 1 622 0
 382              		.cfi_startproc
 383              		@ args = 0, pretend = 0, frame = 296
 384              		@ frame_needed = 0, uses_anonymous_args = 0
 385              	.LVL19:
 386 0000 2DE9F04F 		push	{r4, r5, r6, r7, r8, r9, r10, fp, lr}
 387              		.cfi_def_cfa_offset 36
 388              		.cfi_offset 4, -36
 389              		.cfi_offset 5, -32
 390              		.cfi_offset 6, -28
 391              		.cfi_offset 7, -24
 392              		.cfi_offset 8, -20
 393              		.cfi_offset 9, -16
 394              		.cfi_offset 10, -12
 395              		.cfi_offset 11, -8
 396              		.cfi_offset 14, -4
 397              		.loc 1 650 0
ARM GAS  C:\Users\jo\AppData\Local\Temp\ccwlN2BW.s 			page 8


 398 0004 C02A     		cmp	r2, #192
 399              		.loc 1 622 0
 400 0006 CBB0     		sub	sp, sp, #300
 401              		.cfi_def_cfa_offset 336
 402              		.loc 1 650 0
 403 0008 00F08980 		beq	.L32
 404 000c B2F5807F 		cmp	r2, #256
 405 0010 00F08280 		beq	.L33
 406 0014 802A     		cmp	r2, #128
 407 0016 04D0     		beq	.L45
 408              		.loc 1 655 0
 409 0018 6FF01F00 		mvn	r0, #31
 410              	.LVL20:
 411              	.L31:
 412              		.loc 1 700 0
 413 001c 4BB0     		add	sp, sp, #300
 414              		.cfi_remember_state
 415              		.cfi_def_cfa_offset 36
 416              		@ sp needed
 417 001e BDE8F08F 		pop	{r4, r5, r6, r7, r8, r9, r10, fp, pc}
 418              	.LVL21:
 419              	.L45:
 420              		.cfi_restore_state
 421              		.loc 1 652 0
 422 0022 0A23     		movs	r3, #10
 423 0024 0360     		str	r3, [r0]
 424              	.L35:
 425              	.LVL22:
 426              		.loc 1 666 0
 427 0026 00F10803 		add	r3, r0, #8
 428              	.LVL23:
 429 002a 0546     		mov	r5, r0
 430 002c 4360     		str	r3, [r0, #4]
 431              		.loc 1 668 0
 432 002e 04A8     		add	r0, sp, #16
 433              	.LVL24:
 434 0030 FFF7FEFF 		bl	aes_setkey_enc
 435              	.LVL25:
 436              		.loc 1 669 0
 437 0034 0028     		cmp	r0, #0
 438 0036 F1D1     		bne	.L31
 439              		.loc 1 672 0
 440 0038 049B     		ldr	r3, [sp, #16]
 441 003a 059A     		ldr	r2, [sp, #20]
 442              		.loc 1 679 0
 443 003c 2968     		ldr	r1, [r5]
 444 003e 0391     		str	r1, [sp, #12]
 445              		.loc 1 672 0
 446 0040 1B01     		lsls	r3, r3, #4
 447 0042 02EB030A 		add	r10, r2, r3
 448              	.LVL26:
 449              		.loc 1 674 0
 450 0046 D358     		ldr	r3, [r2, r3]
 451 0048 AB60     		str	r3, [r5, #8]
 452              	.LVL27:
 453              		.loc 1 675 0
 454 004a DAF80430 		ldr	r3, [r10, #4]
ARM GAS  C:\Users\jo\AppData\Local\Temp\ccwlN2BW.s 			page 9


 455 004e EB60     		str	r3, [r5, #12]
 456              	.LVL28:
 457              		.loc 1 676 0
 458 0050 DAF80830 		ldr	r3, [r10, #8]
 459 0054 2B61     		str	r3, [r5, #16]
 460              		.loc 1 677 0
 461 0056 DAF80C30 		ldr	r3, [r10, #12]
 462 005a 6B61     		str	r3, [r5, #20]
 463              		.loc 1 679 0
 464 005c 01F1FF3B 		add	fp, r1, #-1
 465 0060 AAF11003 		sub	r3, r10, #16
 466 0064 0293     		str	r3, [sp, #8]
 467 0066 BBF1000F 		cmp	fp, #0
 468              		.loc 1 677 0
 469 006a 05F11803 		add	r3, r5, #24
 470 006e 0193     		str	r3, [sp, #4]
 471              	.LVL29:
 472              		.loc 1 679 0
 473 0070 3DDD     		ble	.L36
 474 0072 DFF8B490 		ldr	r9, .L46+4
 475 0076 2B4C     		ldr	r4, .L46
 476 0078 DFF8B080 		ldr	r8, .L46+8
 477 007c DFF8B0C0 		ldr	ip, .L46+12
 478 0080 DFF8B0E0 		ldr	lr, .L46+16
 479 0084 AAF1140A 		sub	r10, r10, #20
 480 0088 1435     		adds	r5, r5, #20
 481              	.LVL30:
 482              	.L37:
 483 008a 05F11006 		add	r6, r5, #16
 484              		.loc 1 622 0 discriminator 1
 485 008e 5046     		mov	r0, r10
 486              	.LVL31:
 487              	.L38:
 488              		.loc 1 683 0 discriminator 3
 489 0090 50F8043F 		ldr	r3, [r0, #4]!
 490              	.LVL32:
 491              		.loc 1 686 0 discriminator 3
 492 0094 1F0E     		lsrs	r7, r3, #24
 493              		.loc 1 683 0 discriminator 3
 494 0096 D9B2     		uxtb	r1, r3
 495              		.loc 1 684 0 discriminator 3
 496 0098 C3F30722 		ubfx	r2, r3, #8, #8
 497              		.loc 1 686 0 discriminator 3
 498 009c E75D     		ldrb	r7, [r4, r7]	@ zero_extendqisi2
 499              		.loc 1 683 0 discriminator 3
 500 009e 615C     		ldrb	r1, [r4, r1]	@ zero_extendqisi2
 501              		.loc 1 684 0 discriminator 3
 502 00a0 A25C     		ldrb	r2, [r4, r2]	@ zero_extendqisi2
 503 00a2 59F82770 		ldr	r7, [r9, r7, lsl #2]
 504 00a6 58F82110 		ldr	r1, [r8, r1, lsl #2]
 505 00aa 5CF82220 		ldr	r2, [ip, r2, lsl #2]
 506              		.loc 1 685 0 discriminator 3
 507 00ae C3F30743 		ubfx	r3, r3, #16, #8
 508 00b2 7940     		eors	r1, r1, r7
 509 00b4 E35C     		ldrb	r3, [r4, r3]	@ zero_extendqisi2
 510 00b6 5EF82330 		ldr	r3, [lr, r3, lsl #2]
 511 00ba 4A40     		eors	r2, r2, r1
ARM GAS  C:\Users\jo\AppData\Local\Temp\ccwlN2BW.s 			page 10


 512 00bc 5A40     		eors	r2, r2, r3
 513              		.loc 1 683 0 discriminator 3
 514 00be 45F8042F 		str	r2, [r5, #4]!
 515              	.LVL33:
 516              		.loc 1 681 0 discriminator 3
 517 00c2 AE42     		cmp	r6, r5
 518 00c4 E4D1     		bne	.L38
 519              	.LVL34:
 520              		.loc 1 679 0
 521 00c6 BBF1010B 		subs	fp, fp, #1
 522              	.LVL35:
 523 00ca AAF1100A 		sub	r10, r10, #16
 524              	.LVL36:
 525 00ce 3546     		mov	r5, r6
 526 00d0 DBD1     		bne	.L37
 527              	.LVL37:
 528 00d2 0399     		ldr	r1, [sp, #12]
 529 00d4 01F18052 		add	r2, r1, #268435456
 530 00d8 0B01     		lsls	r3, r1, #4
 531 00da 0199     		ldr	r1, [sp, #4]
 532 00dc 013A     		subs	r2, r2, #1
 533 00de 01EB0212 		add	r2, r1, r2, lsl #4
 534 00e2 0192     		str	r2, [sp, #4]
 535              	.LVL38:
 536 00e4 029A     		ldr	r2, [sp, #8]
 537 00e6 C3F11003 		rsb	r3, r3, #16
 538 00ea 1A44     		add	r2, r2, r3
 539 00ec 0292     		str	r2, [sp, #8]
 540              	.LVL39:
 541              	.L36:
 542              		.loc 1 690 0
 543 00ee 0299     		ldr	r1, [sp, #8]
 544 00f0 019C     		ldr	r4, [sp, #4]
 545 00f2 0B68     		ldr	r3, [r1]
 546 00f4 2360     		str	r3, [r4]
 547              	.LVL40:
 548              		.loc 1 691 0
 549 00f6 4B68     		ldr	r3, [r1, #4]
 550 00f8 6360     		str	r3, [r4, #4]
 551              	.LVL41:
 552              		.loc 1 692 0
 553 00fa 8B68     		ldr	r3, [r1, #8]
 554 00fc A360     		str	r3, [r4, #8]
 555              	.LVL42:
 556              		.loc 1 691 0
 557 00fe 0A46     		mov	r2, r1
 558              		.loc 1 695 0
 559 0100 04A8     		add	r0, sp, #16
 560              		.loc 1 693 0
 561 0102 D368     		ldr	r3, [r2, #12]
 562 0104 E360     		str	r3, [r4, #12]
 563              		.loc 1 695 0
 564 0106 0021     		movs	r1, #0
 565 0108 4FF48C72 		mov	r2, #280
 566 010c FFF7FEFF 		bl	memset
 567              	.LVL43:
 568              		.loc 1 697 0
ARM GAS  C:\Users\jo\AppData\Local\Temp\ccwlN2BW.s 			page 11


 569 0110 0020     		movs	r0, #0
 570              		.loc 1 700 0
 571 0112 4BB0     		add	sp, sp, #300
 572              		.cfi_remember_state
 573              		.cfi_def_cfa_offset 36
 574              		@ sp needed
 575 0114 BDE8F08F 		pop	{r4, r5, r6, r7, r8, r9, r10, fp, pc}
 576              	.LVL44:
 577              	.L33:
 578              		.cfi_restore_state
 579              		.loc 1 654 0
 580 0118 0E23     		movs	r3, #14
 581 011a 0360     		str	r3, [r0]
 582 011c 83E7     		b	.L35
 583              	.L32:
 584              		.loc 1 653 0
 585 011e 0C23     		movs	r3, #12
 586 0120 0360     		str	r3, [r0]
 587 0122 80E7     		b	.L35
 588              	.L47:
 589              		.align	2
 590              	.L46:
 591 0124 00000000 		.word	.LANCHOR1
 592 0128 00000000 		.word	.LANCHOR2
 593 012c 00000000 		.word	.LANCHOR3
 594 0130 00000000 		.word	.LANCHOR4
 595 0134 00000000 		.word	.LANCHOR5
 596              		.cfi_endproc
 597              	.LFE1:
 598              		.size	aes_setkey_dec, .-aes_setkey_dec
 599 0138 AFF30080 		.section	.text.aes_crypt_ecb,"ax",%progbits
 599      AFF30080 
 600              		.align	2
 601              		.p2align 4,,15
 602              		.global	aes_crypt_ecb
 603              		.thumb
 604              		.thumb_func
 605              		.type	aes_crypt_ecb, %function
 606              	aes_crypt_ecb:
 607              	.LFB2:
 608              		.loc 1 755 0
 609              		.cfi_startproc
 610              		@ args = 0, pretend = 0, frame = 48
 611              		@ frame_needed = 0, uses_anonymous_args = 0
 612              	.LVL45:
 613 0000 2DE9F04F 		push	{r4, r5, r6, r7, r8, r9, r10, fp, lr}
 614              		.cfi_def_cfa_offset 36
 615              		.cfi_offset 4, -36
 616              		.cfi_offset 5, -32
 617              		.cfi_offset 6, -28
 618              		.cfi_offset 7, -24
 619              		.cfi_offset 8, -20
 620              		.cfi_offset 9, -16
 621              		.cfi_offset 10, -12
 622              		.cfi_offset 11, -8
 623              		.cfi_offset 14, -4
 624              		.loc 1 810 0
ARM GAS  C:\Users\jo\AppData\Local\Temp\ccwlN2BW.s 			page 12


 625 0004 92F802C0 		ldrb	ip, [r2, #2]	@ zero_extendqisi2
 626              		.loc 1 813 0
 627 0008 967B     		ldrb	r6, [r2, #14]	@ zero_extendqisi2
 628              		.loc 1 810 0
 629 000a 92F801E0 		ldrb	lr, [r2, #1]	@ zero_extendqisi2
 630              		.loc 1 813 0
 631 000e 92F80D80 		ldrb	r8, [r2, #13]	@ zero_extendqisi2
 632              		.loc 1 808 0
 633 0012 4568     		ldr	r5, [r0, #4]
 634              	.LVL46:
 635              		.loc 1 810 0
 636 0014 92F800A0 		ldrb	r10, [r2]	@ zero_extendqisi2
 637              		.loc 1 811 0
 638 0018 9479     		ldrb	r4, [r2, #6]	@ zero_extendqisi2
 639              		.loc 1 812 0
 640 001a 977A     		ldrb	r7, [r2, #10]	@ zero_extendqisi2
 641              		.loc 1 811 0
 642 001c 92F805B0 		ldrb	fp, [r2, #5]	@ zero_extendqisi2
 643              		.loc 1 812 0
 644 0020 92F80990 		ldrb	r9, [r2, #9]	@ zero_extendqisi2
 645              		.loc 1 755 0
 646 0024 8DB0     		sub	sp, sp, #52
 647              		.cfi_def_cfa_offset 88
 648              		.loc 1 810 0
 649 0026 4FEA0C4C 		lsl	ip, ip, #16
 650              		.loc 1 813 0
 651 002a 3604     		lsls	r6, r6, #16
 652 002c 4CEA0E2C 		orr	ip, ip, lr, lsl #8
 653 0030 46EA0826 		orr	r6, r6, r8, lsl #8
 654              		.loc 1 810 0
 655 0034 92F80380 		ldrb	r8, [r2, #3]	@ zero_extendqisi2
 656              		.loc 1 755 0
 657 0038 0190     		str	r0, [sp, #4]
 658              		.loc 1 812 0
 659 003a 3F04     		lsls	r7, r7, #16
 660              		.loc 1 811 0
 661 003c 1079     		ldrb	r0, [r2, #4]	@ zero_extendqisi2
 662              	.LVL47:
 663              		.loc 1 755 0
 664 003e 0A93     		str	r3, [sp, #40]
 665              		.loc 1 810 0
 666 0040 4CEA0A0C 		orr	ip, ip, r10
 667 0044 2B68     		ldr	r3, [r5]
 668              	.LVL48:
 669              		.loc 1 812 0
 670 0046 92F808E0 		ldrb	lr, [r2, #8]	@ zero_extendqisi2
 671 004a 92F80BA0 		ldrb	r10, [r2, #11]	@ zero_extendqisi2
 672              		.loc 1 811 0
 673 004e 2404     		lsls	r4, r4, #16
 674 0050 44EA0B24 		orr	r4, r4, fp, lsl #8
 675 0054 47EA0929 		orr	r9, r7, r9, lsl #8
 676              		.loc 1 810 0
 677 0058 4CEA0868 		orr	r8, ip, r8, lsl #24
 678              	.LVL49:
 679              		.loc 1 811 0
 680 005c D779     		ldrb	r7, [r2, #7]	@ zero_extendqisi2
 681              		.loc 1 813 0
ARM GAS  C:\Users\jo\AppData\Local\Temp\ccwlN2BW.s 			page 13


 682 005e 92F80CB0 		ldrb	fp, [r2, #12]	@ zero_extendqisi2
 683 0062 D27B     		ldrb	r2, [r2, #15]	@ zero_extendqisi2
 684              	.LVL50:
 685              		.loc 1 811 0
 686 0064 0443     		orrs	r4, r4, r0
 687              		.loc 1 810 0
 688 0066 88EA0308 		eor	r8, r8, r3
 689              	.LVL51:
 690              		.loc 1 811 0
 691 006a 6B68     		ldr	r3, [r5, #4]
 692 006c 44EA0764 		orr	r4, r4, r7, lsl #24
 693              	.LVL52:
 694 0070 6340     		eors	r3, r3, r4
 695              		.loc 1 812 0
 696 0072 49EA0E0E 		orr	lr, r9, lr
 697              		.loc 1 811 0
 698 0076 0393     		str	r3, [sp, #12]
 699              	.LVL53:
 700              		.loc 1 812 0
 701 0078 AB68     		ldr	r3, [r5, #8]
 702              	.LVL54:
 703 007a 4EEA0A67 		orr	r7, lr, r10, lsl #24
 704              	.LVL55:
 705              		.loc 1 813 0
 706 007e 46EA0B06 		orr	r6, r6, fp
 707              		.loc 1 812 0
 708 0082 5F40     		eors	r7, r7, r3
 709              	.LVL56:
 710              		.loc 1 813 0
 711 0084 EB68     		ldr	r3, [r5, #12]
 712 0086 46EA0262 		orr	r2, r6, r2, lsl #24
 713              	.LVL57:
 714 008a 5A40     		eors	r2, r2, r3
 715              	.LVL58:
 716 008c 05F11003 		add	r3, r5, #16
 717 0090 0993     		str	r3, [sp, #36]
 718              	.LVL59:
 719              		.loc 1 817 0
 720 0092 019B     		ldr	r3, [sp, #4]
 721              	.LVL60:
 722 0094 1B68     		ldr	r3, [r3]
 723 0096 5B10     		asrs	r3, r3, #1
 724 0098 0B93     		str	r3, [sp, #44]
 725 009a 013B     		subs	r3, r3, #1
 726              		.loc 1 815 0
 727 009c 0029     		cmp	r1, #0
 728 009e 40F01482 		bne	.L49
 729              		.loc 1 817 0
 730 00a2 0693     		str	r3, [sp, #24]
 731              	.LVL61:
 732 00a4 002B     		cmp	r3, #0
 733 00a6 D04B     		ldr	r3, .L62
 734              	.LVL62:
 735 00a8 0493     		str	r3, [sp, #16]
 736 00aa D04B     		ldr	r3, .L62+4
 737 00ac 0293     		str	r3, [sp, #8]
 738 00ae D04B     		ldr	r3, .L62+8
ARM GAS  C:\Users\jo\AppData\Local\Temp\ccwlN2BW.s 			page 14


 739 00b0 DFF844A3 		ldr	r10, .L62+16
 740 00b4 0193     		str	r3, [sp, #4]
 741              	.LVL63:
 742 00b6 40F3EA80 		ble	.L50
 743 00ba 05F13009 		add	r9, r5, #48
 744 00be 0597     		str	r7, [sp, #20]
 745              	.LVL64:
 746              	.L51:
 747              		.loc 1 819 0 discriminator 3
 748 00c0 039C     		ldr	r4, [sp, #12]
 749 00c2 049F     		ldr	r7, [sp, #16]
 750 00c4 DDF814B0 		ldr	fp, [sp, #20]
 751 00c8 E5B2     		uxtb	r5, r4
 752 00ca D0B2     		uxtb	r0, r2
 753 00cc 230E     		lsrs	r3, r4, #24
 754 00ce 029C     		ldr	r4, [sp, #8]
 755 00d0 57F825C0 		ldr	ip, [r7, r5, lsl #2]
 756 00d4 54F823E0 		ldr	lr, [r4, r3, lsl #2]
 757 00d8 57F82050 		ldr	r5, [r7, r0, lsl #2]
 758 00dc 59F8143C 		ldr	r3, [r9, #-20]
 759 00e0 5FFA8BF1 		uxtb	r1, fp
 760 00e4 6B40     		eors	r3, r3, r5
 761 00e6 57F82100 		ldr	r0, [r7, r1, lsl #2]
 762 00ea 59F81C1C 		ldr	r1, [r9, #-28]
 763 00ee 150E     		lsrs	r5, r2, #24
 764 00f0 8CEA010C 		eor	ip, ip, r1
 765 00f4 5946     		mov	r1, fp
 766 00f6 54F825B0 		ldr	fp, [r4, r5, lsl #2]
 767 00fa 59F8185C 		ldr	r5, [r9, #-24]
 768 00fe 6840     		eors	r0, r0, r5
 769 0100 4FEA1865 		lsr	r5, r8, #24
 770 0104 5FFA88F6 		uxtb	r6, r8
 771 0108 54F82550 		ldr	r5, [r4, r5, lsl #2]
 772 010c 57F82660 		ldr	r6, [r7, r6, lsl #2]
 773 0110 59F8207C 		ldr	r7, [r9, #-32]
 774 0114 6B40     		eors	r3, r3, r5
 775 0116 090E     		lsrs	r1, r1, #24
 776 0118 059D     		ldr	r5, [sp, #20]
 777 011a 54F82110 		ldr	r1, [r4, r1, lsl #2]
 778 011e 039C     		ldr	r4, [sp, #12]
 779 0120 7E40     		eors	r6, r6, r7
 780 0122 80EA0B00 		eor	r0, r0, fp
 781 0126 C5F3072B 		ubfx	fp, r5, #8, #8
 782 012a 86EA0E06 		eor	r6, r6, lr
 783 012e 5AF82B70 		ldr	r7, [r10, fp, lsl #2]
 784 0132 0796     		str	r6, [sp, #28]
 785 0134 C2F3072E 		ubfx	lr, r2, #8, #8
 786 0138 019E     		ldr	r6, [sp, #4]
 787 013a 5AF82EE0 		ldr	lr, [r10, lr, lsl #2]
 788 013e 8CEA0101 		eor	r1, ip, r1
 789 0142 C4F3072B 		ubfx	fp, r4, #8, #8
 790 0146 C8F3072C 		ubfx	ip, r8, #8, #8
 791 014a C2F30742 		ubfx	r2, r2, #16, #8
 792              	.LVL65:
 793 014e C8F30748 		ubfx	r8, r8, #16, #8
 794              	.LVL66:
 795 0152 C5F30745 		ubfx	r5, r5, #16, #8
ARM GAS  C:\Users\jo\AppData\Local\Temp\ccwlN2BW.s 			page 15


 796 0156 C4F30744 		ubfx	r4, r4, #16, #8
 797 015a 56F82220 		ldr	r2, [r6, r2, lsl #2]
 798 015e 56F82440 		ldr	r4, [r6, r4, lsl #2]
 799 0162 56F82880 		ldr	r8, [r6, r8, lsl #2]
 800 0166 56F82550 		ldr	r5, [r6, r5, lsl #2]
 801 016a 079E     		ldr	r6, [sp, #28]
 802 016c 5AF82CC0 		ldr	ip, [r10, ip, lsl #2]
 803 0170 5AF82BB0 		ldr	fp, [r10, fp, lsl #2]
 804 0174 86EA0E06 		eor	r6, r6, lr
 805 0178 7540     		eors	r5, r5, r6
 806              	.LVL67:
 807 017a 2E46     		mov	r6, r5
 808 017c 81EA0C01 		eor	r1, r1, ip
 809 0180 7B40     		eors	r3, r3, r7
 810              		.loc 1 820 0 discriminator 3
 811 0182 0396     		str	r6, [sp, #12]
 812              	.LVL68:
 813 0184 C6F30727 		ubfx	r7, r6, #8, #8
 814 0188 EDB2     		uxtb	r5, r5
 815              	.LVL69:
 816 018a 049E     		ldr	r6, [sp, #16]
 817              	.LVL70:
 818              		.loc 1 819 0 discriminator 3
 819 018c 6340     		eors	r3, r3, r4
 820 018e 5140     		eors	r1, r1, r2
 821              	.LVL71:
 822 0190 80EA0B00 		eor	r0, r0, fp
 823 0194 80EA0808 		eor	r8, r0, r8
 824              	.LVL72:
 825 0198 56F82550 		ldr	r5, [r6, r5, lsl #2]
 826 019c 029E     		ldr	r6, [sp, #8]
 827              		.loc 1 820 0 discriminator 3
 828 019e C3F3072C 		ubfx	ip, r3, #8, #8
 829 01a2 080E     		lsrs	r0, r1, #24
 830 01a4 B346     		mov	fp, r6
 831 01a6 56F82000 		ldr	r0, [r6, r0, lsl #2]
 832 01aa 5AF82C60 		ldr	r6, [r10, ip, lsl #2]
 833 01ae 0596     		str	r6, [sp, #20]
 834              	.LVL73:
 835 01b0 C8F30744 		ubfx	r4, r8, #16, #8
 836 01b4 019E     		ldr	r6, [sp, #4]
 837 01b6 5AF827C0 		ldr	ip, [r10, r7, lsl #2]
 838 01ba 56F82440 		ldr	r4, [r6, r4, lsl #2]
 839 01be 049E     		ldr	r6, [sp, #16]
 840 01c0 0794     		str	r4, [sp, #28]
 841 01c2 4FEA186E 		lsr	lr, r8, #24
 842 01c6 CAB2     		uxtb	r2, r1
 843 01c8 5BF82E40 		ldr	r4, [fp, lr, lsl #2]
 844 01cc 56F82220 		ldr	r2, [r6, r2, lsl #2]
 845 01d0 59F8107C 		ldr	r7, [r9, #-16]
 846 01d4 82EA040B 		eor	fp, r2, r4
 847 01d8 6840     		eors	r0, r0, r5
 848 01da 019A     		ldr	r2, [sp, #4]
 849 01dc C3F30745 		ubfx	r5, r3, #16, #8
 850 01e0 5FFA88F4 		uxtb	r4, r8
 851 01e4 52F82550 		ldr	r5, [r2, r5, lsl #2]
 852 01e8 59F80C2C 		ldr	r2, [r9, #-12]
ARM GAS  C:\Users\jo\AppData\Local\Temp\ccwlN2BW.s 			page 16


 853 01ec 0895     		str	r5, [sp, #32]
 854 01ee 7840     		eors	r0, r0, r7
 855 01f0 8BEA020B 		eor	fp, fp, r2
 856 01f4 029F     		ldr	r7, [sp, #8]
 857 01f6 56F82450 		ldr	r5, [r6, r4, lsl #2]
 858 01fa 1A0E     		lsrs	r2, r3, #24
 859 01fc DBB2     		uxtb	r3, r3
 860              	.LVL74:
 861 01fe 57F82270 		ldr	r7, [r7, r2, lsl #2]
 862 0202 56F82330 		ldr	r3, [r6, r3, lsl #2]
 863 0206 019E     		ldr	r6, [sp, #4]
 864 0208 C1F30722 		ubfx	r2, r1, #8, #8
 865 020c 85EA070E 		eor	lr, r5, r7
 866 0210 C1F30741 		ubfx	r1, r1, #16, #8
 867              	.LVL75:
 868 0214 039D     		ldr	r5, [sp, #12]
 869 0216 5AF82270 		ldr	r7, [r10, r2, lsl #2]
 870 021a 59F8082C 		ldr	r2, [r9, #-8]
 871 021e 56F82110 		ldr	r1, [r6, r1, lsl #2]
 872 0222 8EEA020E 		eor	lr, lr, r2
 873 0226 C5F30746 		ubfx	r6, r5, #16, #8
 874 022a 2A0E     		lsrs	r2, r5, #24
 875 022c 029D     		ldr	r5, [sp, #8]
 876 022e 55F82220 		ldr	r2, [r5, r2, lsl #2]
 877 0232 019D     		ldr	r5, [sp, #4]
 878 0234 5A40     		eors	r2, r2, r3
 879 0236 059B     		ldr	r3, [sp, #20]
 880 0238 55F82660 		ldr	r6, [r5, r6, lsl #2]
 881 023c 089D     		ldr	r5, [sp, #32]
 882 023e C8F30728 		ubfx	r8, r8, #8, #8
 883              	.LVL76:
 884 0242 5840     		eors	r0, r0, r3
 885 0244 59F8043C 		ldr	r3, [r9, #-4]
 886 0248 5AF82840 		ldr	r4, [r10, r8, lsl #2]
 887 024c 8BEA0C0B 		eor	fp, fp, ip
 888 0250 5A40     		eors	r2, r2, r3
 889 0252 8EEA0707 		eor	r7, lr, r7
 890 0256 8BEA0503 		eor	r3, fp, r5
 891 025a 6240     		eors	r2, r2, r4
 892 025c 079C     		ldr	r4, [sp, #28]
 893 025e 0393     		str	r3, [sp, #12]
 894              	.LVL77:
 895 0260 87EA0603 		eor	r3, r7, r6
 896 0264 0593     		str	r3, [sp, #20]
 897              		.loc 1 817 0 discriminator 3
 898 0266 069B     		ldr	r3, [sp, #24]
 899 0268 013B     		subs	r3, r3, #1
 900              		.loc 1 820 0 discriminator 3
 901 026a 80EA0408 		eor	r8, r0, r4
 902              	.LVL78:
 903 026e 82EA0102 		eor	r2, r2, r1
 904              	.LVL79:
 905 0272 09F12009 		add	r9, r9, #32
 906              	.LVL80:
 907              		.loc 1 817 0 discriminator 3
 908 0276 0693     		str	r3, [sp, #24]
 909 0278 7FF422AF 		bne	.L51
ARM GAS  C:\Users\jo\AppData\Local\Temp\ccwlN2BW.s 			page 17


 910 027c 0B9B     		ldr	r3, [sp, #44]
 911              	.LVL81:
 912 027e 0999     		ldr	r1, [sp, #36]
 913 0280 059F     		ldr	r7, [sp, #20]
 914 0282 03F10063 		add	r3, r3, #134217728
 915 0286 013B     		subs	r3, r3, #1
 916 0288 01EB4313 		add	r3, r1, r3, lsl #5
 917 028c 0993     		str	r3, [sp, #36]
 918              	.LVL82:
 919              	.L50:
 920              		.loc 1 823 0
 921 028e 039C     		ldr	r4, [sp, #12]
 922 0290 9DF80C60 		ldrb	r6, [sp, #12]	@ zero_extendqisi2
 923 0294 5FFA88FE 		uxtb	lr, r8
 924 0298 210E     		lsrs	r1, r4, #24
 925 029a 049C     		ldr	r4, [sp, #16]
 926 029c 54F82EE0 		ldr	lr, [r4, lr, lsl #2]
 927 02a0 029C     		ldr	r4, [sp, #8]
 928 02a2 54F82110 		ldr	r1, [r4, r1, lsl #2]
 929 02a6 049C     		ldr	r4, [sp, #16]
 930 02a8 3D0E     		lsrs	r5, r7, #24
 931 02aa 54F82660 		ldr	r6, [r4, r6, lsl #2]
 932 02ae 029C     		ldr	r4, [sp, #8]
 933 02b0 0696     		str	r6, [sp, #24]
 934 02b2 130E     		lsrs	r3, r2, #24
 935 02b4 54F82550 		ldr	r5, [r4, r5, lsl #2]
 936 02b8 54F82390 		ldr	r9, [r4, r3, lsl #2]
 937 02bc 0795     		str	r5, [sp, #28]
 938 02be 2546     		mov	r5, r4
 939 02c0 099C     		ldr	r4, [sp, #36]
 940 02c2 049E     		ldr	r6, [sp, #16]
 941 02c4 2368     		ldr	r3, [r4]
 942 02c6 0293     		str	r3, [sp, #8]
 943 02c8 8EEA010C 		eor	ip, lr, r1
 944 02cc 4FEA1863 		lsr	r3, r8, #24
 945 02d0 C2F30721 		ubfx	r1, r2, #8, #8
 946 02d4 55F82330 		ldr	r3, [r5, r3, lsl #2]
 947 02d8 5AF82150 		ldr	r5, [r10, r1, lsl #2]
 948 02dc 0595     		str	r5, [sp, #20]
 949 02de D0B2     		uxtb	r0, r2
 950 02e0 019D     		ldr	r5, [sp, #4]
 951 02e2 0499     		ldr	r1, [sp, #16]
 952 02e4 56F82060 		ldr	r6, [r6, r0, lsl #2]
 953              		.loc 1 826 0
 954 02e8 4248     		ldr	r0, .L62+12
 955              		.loc 1 823 0
 956 02ea C2F30742 		ubfx	r2, r2, #16, #8
 957              	.LVL83:
 958 02ee 5FFA87FE 		uxtb	lr, r7
 959 02f2 55F822B0 		ldr	fp, [r5, r2, lsl #2]
 960 02f6 069A     		ldr	r2, [sp, #24]
 961 02f8 079D     		ldr	r5, [sp, #28]
 962 02fa 51F82E10 		ldr	r1, [r1, lr, lsl #2]
 963 02fe 5540     		eors	r5, r5, r2
 964 0300 C8F30722 		ubfx	r2, r8, #8, #8
 965 0304 81EA0909 		eor	r9, r1, r9
 966 0308 7340     		eors	r3, r3, r6
ARM GAS  C:\Users\jo\AppData\Local\Temp\ccwlN2BW.s 			page 18


 967 030a C7F30721 		ubfx	r1, r7, #8, #8
 968 030e C8F30748 		ubfx	r8, r8, #16, #8
 969              	.LVL84:
 970 0312 019E     		ldr	r6, [sp, #4]
 971 0314 5AF82220 		ldr	r2, [r10, r2, lsl #2]
 972 0318 56F82860 		ldr	r6, [r6, r8, lsl #2]
 973 031c 0492     		str	r2, [sp, #16]
 974 031e 5AF82180 		ldr	r8, [r10, r1, lsl #2]
 975 0322 2246     		mov	r2, r4
 976 0324 C7F30747 		ubfx	r7, r7, #16, #8
 977              	.LVL85:
 978 0328 6468     		ldr	r4, [r4, #4]
 979 032a 0199     		ldr	r1, [sp, #4]
 980 032c 51F82710 		ldr	r1, [r1, r7, lsl #2]
 981 0330 D768     		ldr	r7, [r2, #12]
 982 0332 3A46     		mov	r2, r7
 983 0334 029F     		ldr	r7, [sp, #8]
 984 0336 8CEA070E 		eor	lr, ip, r7
 985 033a 85EA040C 		eor	ip, r5, r4
 986 033e 039C     		ldr	r4, [sp, #12]
 987 0340 C4F30725 		ubfx	r5, r4, #8, #8
 988 0344 C4F30744 		ubfx	r4, r4, #16, #8
 989 0348 5AF82570 		ldr	r7, [r10, r5, lsl #2]
 990 034c 019D     		ldr	r5, [sp, #4]
 991 034e 55F82450 		ldr	r5, [r5, r4, lsl #2]
 992 0352 099C     		ldr	r4, [sp, #36]
 993 0354 A468     		ldr	r4, [r4, #8]
 994 0356 89EA040A 		eor	r10, r9, r4
 995 035a 059C     		ldr	r4, [sp, #20]
 996 035c 5340     		eors	r3, r3, r2
 997 035e 8EEA040E 		eor	lr, lr, r4
 998 0362 83EA0803 		eor	r3, r3, r8
 999 0366 8EEA0101 		eor	r1, lr, r1
 1000              	.LVL86:
 1001 036a 049A     		ldr	r2, [sp, #16]
 1002 036c 6B40     		eors	r3, r3, r5
 1003 036e 8AEA0704 		eor	r4, r10, r7
 1004              		.loc 1 834 0
 1005 0372 C3F30745 		ubfx	r5, r3, #16, #8
 1006              		.loc 1 833 0
 1007 0376 C1F30727 		ubfx	r7, r1, #8, #8
 1008              		.loc 1 823 0
 1009 037a 7440     		eors	r4, r4, r6
 1010              		.loc 1 834 0
 1011 037c 0495     		str	r5, [sp, #16]
 1012              		.loc 1 827 0
 1013 037e C3F30729 		ubfx	r9, r3, #8, #8
 1014              		.loc 1 841 0
 1015 0382 1D0E     		lsrs	r5, r3, #24
 1016 0384 8CEA0202 		eor	r2, ip, r2
 1017              		.loc 1 844 0
 1018 0388 DBB2     		uxtb	r3, r3
 1019              		.loc 1 823 0
 1020 038a 82EA0B02 		eor	r2, r2, fp
 1021              	.LVL87:
 1022              		.loc 1 833 0
 1023 038e C75D     		ldrb	r7, [r0, r7]	@ zero_extendqisi2
ARM GAS  C:\Users\jo\AppData\Local\Temp\ccwlN2BW.s 			page 19


 1024              		.loc 1 844 0
 1025 0390 0693     		str	r3, [sp, #24]
 1026              		.loc 1 828 0
 1027 0392 C4F30748 		ubfx	r8, r4, #16, #8
 1028              		.loc 1 838 0
 1029 0396 E6B2     		uxtb	r6, r4
 1030              		.loc 1 826 0
 1031 0398 5FFA81FB 		uxtb	fp, r1
 1032 039c 099B     		ldr	r3, [sp, #36]
 1033              		.loc 1 838 0
 1034 039e 0596     		str	r6, [sp, #20]
 1035              		.loc 1 829 0
 1036 03a0 4FEA126A 		lsr	r10, r2, #24
 1037              		.loc 1 827 0
 1038 03a4 10F80960 		ldrb	r6, [r0, r9]	@ zero_extendqisi2
 1039              		.loc 1 833 0
 1040 03a8 0397     		str	r7, [sp, #12]
 1041              		.loc 1 834 0
 1042 03aa 049F     		ldr	r7, [sp, #16]
 1043              		.loc 1 826 0
 1044 03ac 10F80BB0 		ldrb	fp, [r0, fp]	@ zero_extendqisi2
 1045 03b0 1B69     		ldr	r3, [r3, #16]
 1046              		.loc 1 827 0
 1047 03b2 0196     		str	r6, [sp, #4]
 1048              		.loc 1 828 0
 1049 03b4 10F80860 		ldrb	r6, [r0, r8]	@ zero_extendqisi2
 1050              		.loc 1 829 0
 1051 03b8 10F80AA0 		ldrb	r10, [r0, r10]	@ zero_extendqisi2
 1052              		.loc 1 834 0
 1053 03bc C75D     		ldrb	r7, [r0, r7]	@ zero_extendqisi2
 1054              		.loc 1 828 0
 1055 03be 0296     		str	r6, [sp, #8]
 1056              		.loc 1 832 0
 1057 03c0 5FFA82FC 		uxtb	ip, r2
 1058              		.loc 1 835 0
 1059 03c4 4FEA146E 		lsr	lr, r4, #24
 1060              		.loc 1 838 0
 1061 03c8 059E     		ldr	r6, [sp, #20]
 1062              		.loc 1 834 0
 1063 03ca 0497     		str	r7, [sp, #16]
 1064 03cc 8BEA0303 		eor	r3, fp, r3
 1065              		.loc 1 839 0
 1066 03d0 C2F30727 		ubfx	r7, r2, #8, #8
 1067              		.loc 1 846 0
 1068 03d4 C2F30742 		ubfx	r2, r2, #16, #8
 1069              	.LVL88:
 1070              		.loc 1 832 0
 1071 03d8 10F80CC0 		ldrb	ip, [r0, ip]	@ zero_extendqisi2
 1072              		.loc 1 841 0
 1073 03dc 10F80590 		ldrb	r9, [r0, r5]	@ zero_extendqisi2
 1074              		.loc 1 835 0
 1075 03e0 10F80EE0 		ldrb	lr, [r0, lr]	@ zero_extendqisi2
 1076              		.loc 1 838 0
 1077 03e4 865D     		ldrb	r6, [r0, r6]	@ zero_extendqisi2
 1078 03e6 09E0     		b	.L63
 1079              	.L64:
 1080              		.align	2
ARM GAS  C:\Users\jo\AppData\Local\Temp\ccwlN2BW.s 			page 20


 1081              	.L62:
 1082 03e8 00000000 		.word	.LANCHOR3
 1083 03ec 00000000 		.word	.LANCHOR2
 1084 03f0 00000000 		.word	.LANCHOR5
 1085 03f4 00000000 		.word	.LANCHOR6
 1086 03f8 00000000 		.word	.LANCHOR4
 1087              	.L63:
 1088              		.loc 1 846 0
 1089 03fc 0592     		str	r2, [sp, #20]
 1090 03fe 83EA0A6B 		eor	fp, r3, r10, lsl #24
 1091 0402 099B     		ldr	r3, [sp, #36]
 1092              		.loc 1 844 0
 1093 0404 069A     		ldr	r2, [sp, #24]
 1094 0406 5D69     		ldr	r5, [r3, #20]
 1095 0408 D3F81CA0 		ldr	r10, [r3, #28]
 1096              		.loc 1 839 0
 1097 040c C75D     		ldrb	r7, [r0, r7]	@ zero_extendqisi2
 1098 040e 8CEA0505 		eor	r5, ip, r5
 1099              		.loc 1 847 0
 1100 0412 4FEA1168 		lsr	r8, r1, #24
 1101 0416 85EA0E6E 		eor	lr, r5, lr, lsl #24
 1102 041a 9D69     		ldr	r5, [r3, #24]
 1103              		.loc 1 844 0
 1104 041c 10F802C0 		ldrb	ip, [r0, r2]	@ zero_extendqisi2
 1105              		.loc 1 846 0
 1106 0420 059B     		ldr	r3, [sp, #20]
 1107              		.loc 1 847 0
 1108 0422 10F80880 		ldrb	r8, [r0, r8]	@ zero_extendqisi2
 1109              		.loc 1 846 0
 1110 0426 C25C     		ldrb	r2, [r0, r3]	@ zero_extendqisi2
 1111 0428 019B     		ldr	r3, [sp, #4]
 1112              		.loc 1 845 0
 1113 042a C4F30724 		ubfx	r4, r4, #8, #8
 1114              	.LVL89:
 1115 042e 6E40     		eors	r6, r6, r5
 1116              		.loc 1 840 0
 1117 0430 C1F30741 		ubfx	r1, r1, #16, #8
 1118              	.LVL90:
 1119              		.loc 1 845 0
 1120 0434 045D     		ldrb	r4, [r0, r4]	@ zero_extendqisi2
 1121 0436 039D     		ldr	r5, [sp, #12]
 1122              		.loc 1 840 0
 1123 0438 415C     		ldrb	r1, [r0, r1]	@ zero_extendqisi2
 1124              		.loc 1 825 0
 1125 043a 0298     		ldr	r0, [sp, #8]
 1126 043c 8CEA0A0C 		eor	ip, ip, r10
 1127 0440 86EA0966 		eor	r6, r6, r9, lsl #24
 1128 0444 86EA0726 		eor	r6, r6, r7, lsl #8
 1129 0448 8CEA086C 		eor	ip, ip, r8, lsl #24
 1130              		.loc 1 831 0
 1131 044c 049F     		ldr	r7, [sp, #16]
 1132 044e 8BEA0323 		eor	r3, fp, r3, lsl #8
 1133 0452 8EEA052E 		eor	lr, lr, r5, lsl #8
 1134 0456 8CEA0424 		eor	r4, ip, r4, lsl #8
 1135              		.loc 1 825 0
 1136 045a 83EA0043 		eor	r3, r3, r0, lsl #16
 1137              	.LVL91:
ARM GAS  C:\Users\jo\AppData\Local\Temp\ccwlN2BW.s 			page 21


 1138              		.loc 1 831 0
 1139 045e 8EEA074E 		eor	lr, lr, r7, lsl #16
 1140              	.LVL92:
 1141              		.loc 1 837 0
 1142 0462 86EA0140 		eor	r0, r6, r1, lsl #16
 1143              	.LVL93:
 1144              		.loc 1 843 0
 1145 0466 84EA0242 		eor	r2, r4, r2, lsl #16
 1146              	.LVL94:
 1147              	.L52:
 1148              		.loc 1 884 0
 1149 046a 0A99     		ldr	r1, [sp, #40]
 1150              		.loc 1 886 0
 1151 046c 050A     		lsrs	r5, r0, #8
 1152 046e 040C     		lsrs	r4, r0, #16
 1153 0470 4FEA106B 		lsr	fp, r0, #24
 1154 0474 0872     		strb	r0, [r1, #8]
 1155              		.loc 1 887 0
 1156 0476 100E     		lsrs	r0, r2, #24
 1157              	.LVL95:
 1158              		.loc 1 884 0
 1159 0478 4FEA132A 		lsr	r10, r3, #8
 1160 047c 4FEA1349 		lsr	r9, r3, #16
 1161 0480 4FEA1368 		lsr	r8, r3, #24
 1162              		.loc 1 885 0
 1163 0484 4FEA1E2C 		lsr	ip, lr, #8
 1164 0488 4FEA1E47 		lsr	r7, lr, #16
 1165 048c 4FEA1E66 		lsr	r6, lr, #24
 1166              		.loc 1 884 0
 1167 0490 0B70     		strb	r3, [r1]
 1168              		.loc 1 885 0
 1169 0492 81F804E0 		strb	lr, [r1, #4]
 1170              		.loc 1 887 0
 1171 0496 130A     		lsrs	r3, r2, #8
 1172              	.LVL96:
 1173 0498 4FEA124E 		lsr	lr, r2, #16
 1174              	.LVL97:
 1175 049c C873     		strb	r0, [r1, #15]
 1176              		.loc 1 892 0
 1177 049e 0020     		movs	r0, #0
 1178              		.loc 1 887 0
 1179 04a0 0A73     		strb	r2, [r1, #12]
 1180              		.loc 1 884 0
 1181 04a2 81F801A0 		strb	r10, [r1, #1]
 1182 04a6 81F80290 		strb	r9, [r1, #2]
 1183 04aa 81F80380 		strb	r8, [r1, #3]
 1184              		.loc 1 885 0
 1185 04ae 81F805C0 		strb	ip, [r1, #5]
 1186 04b2 8F71     		strb	r7, [r1, #6]
 1187 04b4 CE71     		strb	r6, [r1, #7]
 1188              		.loc 1 886 0
 1189 04b6 4D72     		strb	r5, [r1, #9]
 1190 04b8 8C72     		strb	r4, [r1, #10]
 1191 04ba 81F80BB0 		strb	fp, [r1, #11]
 1192              		.loc 1 887 0
 1193 04be 4B73     		strb	r3, [r1, #13]
 1194 04c0 81F80EE0 		strb	lr, [r1, #14]
ARM GAS  C:\Users\jo\AppData\Local\Temp\ccwlN2BW.s 			page 22


 1195              		.loc 1 892 0
 1196 04c4 0DB0     		add	sp, sp, #52
 1197              		.cfi_remember_state
 1198              		.cfi_def_cfa_offset 36
 1199              		@ sp needed
 1200 04c6 BDE8F08F 		pop	{r4, r5, r6, r7, r8, r9, r10, fp, pc}
 1201              	.LVL98:
 1202              	.L49:
 1203              		.cfi_restore_state
 1204              		.loc 1 851 0
 1205 04ca 0793     		str	r3, [sp, #28]
 1206              	.LVL99:
 1207 04cc 002B     		cmp	r3, #0
 1208 04ce D24B     		ldr	r3, .L65
 1209 04d0 0593     		str	r3, [sp, #20]
 1210 04d2 D24B     		ldr	r3, .L65+4
 1211 04d4 0193     		str	r3, [sp, #4]
 1212              	.LVL100:
 1213 04d6 DFF84CB3 		ldr	fp, .L65+12
 1214 04da DFF84C93 		ldr	r9, .L65+16
 1215 04de 40F3F080 		ble	.L53
 1216 04e2 039C     		ldr	r4, [sp, #12]
 1217 04e4 0697     		str	r7, [sp, #24]
 1218 04e6 05F1300A 		add	r10, r5, #48
 1219 04ea 0492     		str	r2, [sp, #16]
 1220 04ec CDF808B0 		str	fp, [sp, #8]
 1221              	.LVL101:
 1222              	.L54:
 1223              		.loc 1 853 0 discriminator 3
 1224 04f0 049A     		ldr	r2, [sp, #16]
 1225 04f2 059F     		ldr	r7, [sp, #20]
 1226 04f4 DDF818B0 		ldr	fp, [sp, #24]
 1227 04f8 D5B2     		uxtb	r5, r2
 1228 04fa E0B2     		uxtb	r0, r4
 1229 04fc 130E     		lsrs	r3, r2, #24
 1230 04fe 019A     		ldr	r2, [sp, #4]
 1231 0500 57F825C0 		ldr	ip, [r7, r5, lsl #2]
 1232 0504 52F823E0 		ldr	lr, [r2, r3, lsl #2]
 1233 0508 57F82050 		ldr	r5, [r7, r0, lsl #2]
 1234 050c 5AF81C3C 		ldr	r3, [r10, #-28]
 1235 0510 5FFA8BF1 		uxtb	r1, fp
 1236 0514 6B40     		eors	r3, r3, r5
 1237 0516 57F82100 		ldr	r0, [r7, r1, lsl #2]
 1238 051a 5AF8141C 		ldr	r1, [r10, #-20]
 1239 051e 250E     		lsrs	r5, r4, #24
 1240 0520 8CEA010C 		eor	ip, ip, r1
 1241 0524 5946     		mov	r1, fp
 1242 0526 52F825B0 		ldr	fp, [r2, r5, lsl #2]
 1243 052a 5AF8185C 		ldr	r5, [r10, #-24]
 1244 052e 5FFA88F6 		uxtb	r6, r8
 1245 0532 6840     		eors	r0, r0, r5
 1246 0534 4FEA1865 		lsr	r5, r8, #24
 1247 0538 57F82660 		ldr	r6, [r7, r6, lsl #2]
 1248 053c 52F82550 		ldr	r5, [r2, r5, lsl #2]
 1249 0540 5AF8207C 		ldr	r7, [r10, #-32]
 1250 0544 6B40     		eors	r3, r3, r5
 1251 0546 7E40     		eors	r6, r6, r7
ARM GAS  C:\Users\jo\AppData\Local\Temp\ccwlN2BW.s 			page 23


 1252 0548 069D     		ldr	r5, [sp, #24]
 1253 054a 090E     		lsrs	r1, r1, #24
 1254 054c 86EA0E06 		eor	r6, r6, lr
 1255 0550 0396     		str	r6, [sp, #12]
 1256 0552 52F82110 		ldr	r1, [r2, r1, lsl #2]
 1257 0556 029E     		ldr	r6, [sp, #8]
 1258 0558 049A     		ldr	r2, [sp, #16]
 1259 055a 80EA0B00 		eor	r0, r0, fp
 1260 055e C5F3072B 		ubfx	fp, r5, #8, #8
 1261 0562 C4F3072E 		ubfx	lr, r4, #8, #8
 1262 0566 56F82B70 		ldr	r7, [r6, fp, lsl #2]
 1263 056a 56F82EE0 		ldr	lr, [r6, lr, lsl #2]
 1264 056e 8CEA0101 		eor	r1, ip, r1
 1265 0572 C2F3072B 		ubfx	fp, r2, #8, #8
 1266 0576 C8F3072C 		ubfx	ip, r8, #8, #8
 1267 057a C5F30745 		ubfx	r5, r5, #16, #8
 1268 057e 56F82CC0 		ldr	ip, [r6, ip, lsl #2]
 1269 0582 56F82BB0 		ldr	fp, [r6, fp, lsl #2]
 1270 0586 039E     		ldr	r6, [sp, #12]
 1271 0588 59F82550 		ldr	r5, [r9, r5, lsl #2]
 1272 058c 86EA0E06 		eor	r6, r6, lr
 1273 0590 7540     		eors	r5, r5, r6
 1274              	.LVL102:
 1275 0592 C4F30744 		ubfx	r4, r4, #16, #8
 1276              	.LVL103:
 1277 0596 C2F30742 		ubfx	r2, r2, #16, #8
 1278 059a 2E46     		mov	r6, r5
 1279 059c C8F30748 		ubfx	r8, r8, #16, #8
 1280              	.LVL104:
 1281 05a0 59F82440 		ldr	r4, [r9, r4, lsl #2]
 1282 05a4 59F82220 		ldr	r2, [r9, r2, lsl #2]
 1283              		.loc 1 854 0 discriminator 3
 1284 05a8 0396     		str	r6, [sp, #12]
 1285 05aa 4FEA166E 		lsr	lr, r6, #24
 1286 05ae EDB2     		uxtb	r5, r5
 1287              	.LVL105:
 1288 05b0 059E     		ldr	r6, [sp, #20]
 1289              	.LVL106:
 1290              		.loc 1 853 0 discriminator 3
 1291 05b2 59F82880 		ldr	r8, [r9, r8, lsl #2]
 1292 05b6 56F82550 		ldr	r5, [r6, r5, lsl #2]
 1293 05ba 0495     		str	r5, [sp, #16]
 1294              	.LVL107:
 1295 05bc 7B40     		eors	r3, r3, r7
 1296 05be 81EA0C01 		eor	r1, r1, ip
 1297 05c2 6140     		eors	r1, r1, r4
 1298 05c4 5A40     		eors	r2, r2, r3
 1299              	.LVL108:
 1300 05c6 80EA0B00 		eor	r0, r0, fp
 1301 05ca 019E     		ldr	r6, [sp, #4]
 1302 05cc 029D     		ldr	r5, [sp, #8]
 1303 05ce 80EA0808 		eor	r8, r0, r8
 1304              	.LVL109:
 1305              		.loc 1 854 0 discriminator 3
 1306 05d2 C2F3072C 		ubfx	ip, r2, #8, #8
 1307 05d6 080E     		lsrs	r0, r1, #24
 1308 05d8 B346     		mov	fp, r6
ARM GAS  C:\Users\jo\AppData\Local\Temp\ccwlN2BW.s 			page 24


 1309 05da 56F82000 		ldr	r0, [r6, r0, lsl #2]
 1310 05de 55F82C60 		ldr	r6, [r5, ip, lsl #2]
 1311 05e2 0696     		str	r6, [sp, #24]
 1312              	.LVL110:
 1313 05e4 C8F30744 		ubfx	r4, r8, #16, #8
 1314 05e8 059E     		ldr	r6, [sp, #20]
 1315 05ea 59F82440 		ldr	r4, [r9, r4, lsl #2]
 1316 05ee 0894     		str	r4, [sp, #32]
 1317 05f0 C8F30727 		ubfx	r7, r8, #8, #8
 1318 05f4 D3B2     		uxtb	r3, r2
 1319 05f6 5BF82E40 		ldr	r4, [fp, lr, lsl #2]
 1320 05fa 56F82330 		ldr	r3, [r6, r3, lsl #2]
 1321 05fe 55F827B0 		ldr	fp, [r5, r7, lsl #2]
 1322 0602 049D     		ldr	r5, [sp, #16]
 1323 0604 5AF8107C 		ldr	r7, [r10, #-16]
 1324 0608 5C40     		eors	r4, r4, r3
 1325 060a 6840     		eors	r0, r0, r5
 1326 060c 5AF80C3C 		ldr	r3, [r10, #-12]
 1327 0610 C1F30745 		ubfx	r5, r1, #16, #8
 1328 0614 7840     		eors	r0, r0, r7
 1329 0616 59F825C0 		ldr	ip, [r9, r5, lsl #2]
 1330 061a 019F     		ldr	r7, [sp, #4]
 1331 061c 5FFA88F5 		uxtb	r5, r8
 1332 0620 6340     		eors	r3, r3, r4
 1333 0622 140E     		lsrs	r4, r2, #24
 1334 0624 56F82550 		ldr	r5, [r6, r5, lsl #2]
 1335 0628 57F82470 		ldr	r7, [r7, r4, lsl #2]
 1336 062c C1F30724 		ubfx	r4, r1, #8, #8
 1337 0630 85EA070E 		eor	lr, r5, r7
 1338 0634 029D     		ldr	r5, [sp, #8]
 1339 0636 4FEA1868 		lsr	r8, r8, #24
 1340              	.LVL111:
 1341 063a 55F82470 		ldr	r7, [r5, r4, lsl #2]
 1342 063e 019C     		ldr	r4, [sp, #4]
 1343 0640 C9B2     		uxtb	r1, r1
 1344              	.LVL112:
 1345 0642 54F82850 		ldr	r5, [r4, r8, lsl #2]
 1346 0646 56F82110 		ldr	r1, [r6, r1, lsl #2]
 1347 064a 5AF8086C 		ldr	r6, [r10, #-8]
 1348 064e 6940     		eors	r1, r1, r5
 1349 0650 039D     		ldr	r5, [sp, #12]
 1350 0652 8EEA060E 		eor	lr, lr, r6
 1351 0656 C5F30724 		ubfx	r4, r5, #8, #8
 1352 065a C5F30746 		ubfx	r6, r5, #16, #8
 1353 065e 029D     		ldr	r5, [sp, #8]
 1354 0660 59F82660 		ldr	r6, [r9, r6, lsl #2]
 1355 0664 55F82450 		ldr	r5, [r5, r4, lsl #2]
 1356 0668 5AF8044C 		ldr	r4, [r10, #-4]
 1357 066c 6140     		eors	r1, r1, r4
 1358 066e 069C     		ldr	r4, [sp, #24]
 1359 0670 C2F30742 		ubfx	r2, r2, #16, #8
 1360              	.LVL113:
 1361 0674 6040     		eors	r0, r0, r4
 1362 0676 089C     		ldr	r4, [sp, #32]
 1363 0678 59F82220 		ldr	r2, [r9, r2, lsl #2]
 1364 067c 83EA0B03 		eor	r3, r3, fp
 1365 0680 8EEA0707 		eor	r7, lr, r7
ARM GAS  C:\Users\jo\AppData\Local\Temp\ccwlN2BW.s 			page 25


 1366 0684 6940     		eors	r1, r1, r5
 1367 0686 80EA0408 		eor	r8, r0, r4
 1368              	.LVL114:
 1369 068a 83EA0C04 		eor	r4, r3, ip
 1370              	.LVL115:
 1371 068e 87EA0603 		eor	r3, r7, r6
 1372 0692 0693     		str	r3, [sp, #24]
 1373              	.LVL116:
 1374 0694 82EA0103 		eor	r3, r2, r1
 1375              	.LVL117:
 1376 0698 0493     		str	r3, [sp, #16]
 1377              	.LVL118:
 1378              		.loc 1 851 0 discriminator 3
 1379 069a 079B     		ldr	r3, [sp, #28]
 1380              	.LVL119:
 1381 069c 013B     		subs	r3, r3, #1
 1382              	.LVL120:
 1383 069e 0AF1200A 		add	r10, r10, #32
 1384              	.LVL121:
 1385 06a2 0793     		str	r3, [sp, #28]
 1386 06a4 7FF424AF 		bne	.L54
 1387 06a8 0B9B     		ldr	r3, [sp, #44]
 1388              	.LVL122:
 1389 06aa 0999     		ldr	r1, [sp, #36]
 1390 06ac 069F     		ldr	r7, [sp, #24]
 1391 06ae 049A     		ldr	r2, [sp, #16]
 1392 06b0 DDF808B0 		ldr	fp, [sp, #8]
 1393 06b4 0394     		str	r4, [sp, #12]
 1394              	.LVL123:
 1395 06b6 03F10063 		add	r3, r3, #134217728
 1396 06ba 013B     		subs	r3, r3, #1
 1397 06bc 01EB4313 		add	r3, r1, r3, lsl #5
 1398 06c0 0993     		str	r3, [sp, #36]
 1399              	.LVL124:
 1400              	.L53:
 1401 06c2 059C     		ldr	r4, [sp, #20]
 1402              		.loc 1 857 0
 1403 06c4 0398     		ldr	r0, [sp, #12]
 1404 06c6 5FFA88FE 		uxtb	lr, r8
 1405 06ca 160E     		lsrs	r6, r2, #24
 1406 06cc 54F82EE0 		ldr	lr, [r4, lr, lsl #2]
 1407 06d0 019C     		ldr	r4, [sp, #4]
 1408 06d2 D5B2     		uxtb	r5, r2
 1409 06d4 54F82660 		ldr	r6, [r4, r6, lsl #2]
 1410 06d8 059C     		ldr	r4, [sp, #20]
 1411 06da C1B2     		uxtb	r1, r0
 1412 06dc 54F82550 		ldr	r5, [r4, r5, lsl #2]
 1413 06e0 019C     		ldr	r4, [sp, #4]
 1414 06e2 0495     		str	r5, [sp, #16]
 1415 06e4 000E     		lsrs	r0, r0, #24
 1416 06e6 059D     		ldr	r5, [sp, #20]
 1417 06e8 54F820A0 		ldr	r10, [r4, r0, lsl #2]
 1418 06ec 0998     		ldr	r0, [sp, #36]
 1419 06ee 55F82110 		ldr	r1, [r5, r1, lsl #2]
 1420 06f2 0068     		ldr	r0, [r0]
 1421 06f4 0290     		str	r0, [sp, #8]
 1422 06f6 3B0E     		lsrs	r3, r7, #24
ARM GAS  C:\Users\jo\AppData\Local\Temp\ccwlN2BW.s 			page 26


 1423 06f8 0398     		ldr	r0, [sp, #12]
 1424 06fa 54F82330 		ldr	r3, [r4, r3, lsl #2]
 1425 06fe 019C     		ldr	r4, [sp, #4]
 1426 0700 8EEA060C 		eor	ip, lr, r6
 1427 0704 4FEA1865 		lsr	r5, r8, #24
 1428 0708 C0F30726 		ubfx	r6, r0, #8, #8
 1429 070c 54F82550 		ldr	r5, [r4, r5, lsl #2]
 1430 0710 5BF82640 		ldr	r4, [fp, r6, lsl #2]
 1431 0714 0194     		str	r4, [sp, #4]
 1432 0716 5FFA87FE 		uxtb	lr, r7
 1433 071a C0F30744 		ubfx	r4, r0, #16, #8
 1434 071e 059E     		ldr	r6, [sp, #20]
 1435 0720 56F82E60 		ldr	r6, [r6, lr, lsl #2]
 1436 0724 59F824E0 		ldr	lr, [r9, r4, lsl #2]
 1437 0728 049C     		ldr	r4, [sp, #16]
 1438 072a 6340     		eors	r3, r3, r4
 1439 072c C8F30724 		ubfx	r4, r8, #8, #8
 1440 0730 C8F30748 		ubfx	r8, r8, #16, #8
 1441              	.LVL125:
 1442 0734 6940     		eors	r1, r1, r5
 1443 0736 86EA0A0A 		eor	r10, r6, r10
 1444 073a 099D     		ldr	r5, [sp, #36]
 1445 073c 59F82800 		ldr	r0, [r9, r8, lsl #2]
 1446 0740 0490     		str	r0, [sp, #16]
 1447 0742 C7F30726 		ubfx	r6, r7, #8, #8
 1448 0746 C7F30747 		ubfx	r7, r7, #16, #8
 1449              	.LVL126:
 1450 074a E868     		ldr	r0, [r5, #12]
 1451 074c 5BF82660 		ldr	r6, [fp, r6, lsl #2]
 1452 0750 5BF82440 		ldr	r4, [fp, r4, lsl #2]
 1453 0754 0590     		str	r0, [sp, #20]
 1454 0756 0396     		str	r6, [sp, #12]
 1455 0758 59F82780 		ldr	r8, [r9, r7, lsl #2]
 1456 075c 6F68     		ldr	r7, [r5, #4]
 1457 075e 029E     		ldr	r6, [sp, #8]
 1458 0760 2846     		mov	r0, r5
 1459 0762 3D46     		mov	r5, r7
 1460 0764 059F     		ldr	r7, [sp, #20]
 1461 0766 7B40     		eors	r3, r3, r7
 1462 0768 C2F30727 		ubfx	r7, r2, #8, #8
 1463 076c C2F30742 		ubfx	r2, r2, #16, #8
 1464              	.LVL127:
 1465 0770 5BF827B0 		ldr	fp, [fp, r7, lsl #2]
 1466 0774 59F82270 		ldr	r7, [r9, r2, lsl #2]
 1467 0778 8268     		ldr	r2, [r0, #8]
 1468 077a 0069     		ldr	r0, [r0, #16]
 1469 077c 8AEA020A 		eor	r10, r10, r2
 1470 0780 019A     		ldr	r2, [sp, #4]
 1471 0782 8CEA0606 		eor	r6, ip, r6
 1472 0786 5640     		eors	r6, r6, r2
 1473 0788 039A     		ldr	r2, [sp, #12]
 1474 078a 6940     		eors	r1, r1, r5
 1475 078c 5140     		eors	r1, r1, r2
 1476 078e 86EA0802 		eor	r2, r6, r8
 1477 0792 0192     		str	r2, [sp, #4]
 1478              	.LVL128:
 1479 0794 6340     		eors	r3, r3, r4
ARM GAS  C:\Users\jo\AppData\Local\Temp\ccwlN2BW.s 			page 27


 1480 0796 83EA0E02 		eor	r2, r3, lr
 1481              	.LVL129:
 1482              		.loc 1 869 0
 1483 079a 019C     		ldr	r4, [sp, #4]
 1484              		.loc 1 857 0
 1485 079c 049B     		ldr	r3, [sp, #16]
 1486 079e 8AEA0B0A 		eor	r10, r10, fp
 1487 07a2 8AEA0305 		eor	r5, r10, r3
 1488              		.loc 1 869 0
 1489 07a6 4FEA146C 		lsr	ip, r4, #24
 1490              		.loc 1 860 0
 1491 07aa 9DF80430 		ldrb	r3, [sp, #4]	@ zero_extendqisi2
 1492 07ae 1C4C     		ldr	r4, .L65+8
 1493              		.loc 1 857 0
 1494 07b0 7940     		eors	r1, r1, r7
 1495              	.LVL130:
 1496              		.loc 1 860 0
 1497 07b2 E35C     		ldrb	r3, [r4, r3]	@ zero_extendqisi2
 1498              		.loc 1 863 0
 1499 07b4 4FEA126B 		lsr	fp, r2, #24
 1500 07b8 0446     		mov	r4, r0
 1501              		.loc 1 861 0
 1502 07ba C1F3072A 		ubfx	r10, r1, #8, #8
 1503              		.loc 1 863 0
 1504 07be 1848     		ldr	r0, .L65+8
 1505              		.loc 1 862 0
 1506 07c0 C5F30749 		ubfx	r9, r5, #16, #8
 1507              		.loc 1 861 0
 1508 07c4 10F80AA0 		ldrb	r10, [r0, r10]	@ zero_extendqisi2
 1509              		.loc 1 863 0
 1510 07c8 10F80BB0 		ldrb	fp, [r0, fp]	@ zero_extendqisi2
 1511              		.loc 1 862 0
 1512 07cc 1448     		ldr	r0, .L65+8
 1513              		.loc 1 861 0
 1514 07ce CDF808A0 		str	r10, [sp, #8]
 1515              		.loc 1 862 0
 1516 07d2 10F80990 		ldrb	r9, [r0, r9]	@ zero_extendqisi2
 1517              		.loc 1 866 0
 1518 07d6 1248     		ldr	r0, .L65+8
 1519              		.loc 1 862 0
 1520 07d8 CDF80C90 		str	r9, [sp, #12]
 1521              		.loc 1 866 0
 1522 07dc 5FFA81F8 		uxtb	r8, r1
 1523              		.loc 1 869 0
 1524 07e0 10F80CC0 		ldrb	ip, [r0, ip]	@ zero_extendqisi2
 1525              		.loc 1 866 0
 1526 07e4 10F80880 		ldrb	r8, [r0, r8]	@ zero_extendqisi2
 1527              		.loc 1 867 0
 1528 07e8 0D48     		ldr	r0, .L65+8
 1529              		.loc 1 869 0
 1530 07ea CDF810C0 		str	ip, [sp, #16]
 1531              		.loc 1 867 0
 1532 07ee C5F3072E 		ubfx	lr, r5, #8, #8
 1533              		.loc 1 872 0
 1534 07f2 EEB2     		uxtb	r6, r5
 1535              		.loc 1 881 0
 1536 07f4 2D0E     		lsrs	r5, r5, #24
ARM GAS  C:\Users\jo\AppData\Local\Temp\ccwlN2BW.s 			page 28


 1537              	.LVL131:
 1538              		.loc 1 867 0
 1539 07f6 10F80EE0 		ldrb	lr, [r0, lr]	@ zero_extendqisi2
 1540              		.loc 1 881 0
 1541 07fa 0695     		str	r5, [sp, #24]
 1542              		.loc 1 868 0
 1543 07fc 0848     		ldr	r0, .L65+8
 1544              		.loc 1 867 0
 1545 07fe CDF814E0 		str	lr, [sp, #20]
 1546              		.loc 1 868 0
 1547 0802 C2F30747 		ubfx	r7, r2, #16, #8
 1548              		.loc 1 875 0
 1549 0806 0D0E     		lsrs	r5, r1, #24
 1550              		.loc 1 868 0
 1551 0808 10F807E0 		ldrb	lr, [r0, r7]	@ zero_extendqisi2
 1552              		.loc 1 875 0
 1553 080c 10F805C0 		ldrb	ip, [r0, r5]	@ zero_extendqisi2
 1554              		.loc 1 872 0
 1555 0810 865D     		ldrb	r6, [r0, r6]	@ zero_extendqisi2
 1556 0812 0998     		ldr	r0, [sp, #36]
 1557 0814 0AE0     		b	.L66
 1558              	.L67:
 1559 0816 00BF     		.align	2
 1560              	.L65:
 1561 0818 00000000 		.word	.LANCHOR7
 1562 081c 00000000 		.word	.LANCHOR8
 1563 0820 00000000 		.word	.LANCHOR1
 1564 0824 00000000 		.word	.LANCHOR9
 1565 0828 00000000 		.word	.LANCHOR10
 1566              	.L66:
 1567 082c 6340     		eors	r3, r3, r4
 1568              		.loc 1 873 0
 1569 082e C2F30727 		ubfx	r7, r2, #8, #8
 1570 0832 1C4C     		ldr	r4, .L68
 1571 0834 4569     		ldr	r5, [r0, #20]
 1572 0836 14F80790 		ldrb	r9, [r4, r7]	@ zero_extendqisi2
 1573              		.loc 1 878 0
 1574 083a D2B2     		uxtb	r2, r2
 1575              	.LVL132:
 1576 083c 83EA0B6B 		eor	fp, r3, fp, lsl #24
 1577 0840 8369     		ldr	r3, [r0, #24]
 1578 0842 A75C     		ldrb	r7, [r4, r2]	@ zero_extendqisi2
 1579 0844 C269     		ldr	r2, [r0, #28]
 1580              		.loc 1 881 0
 1581 0846 0698     		ldr	r0, [sp, #24]
 1582 0848 5E40     		eors	r6, r6, r3
 1583              		.loc 1 879 0
 1584 084a 019B     		ldr	r3, [sp, #4]
 1585 084c 88EA0505 		eor	r5, r8, r5
 1586 0850 5740     		eors	r7, r7, r2
 1587              		.loc 1 881 0
 1588 0852 8046     		mov	r8, r0
 1589              		.loc 1 874 0
 1590 0854 019A     		ldr	r2, [sp, #4]
 1591              		.loc 1 881 0
 1592 0856 14F808A0 		ldrb	r10, [r4, r8]	@ zero_extendqisi2
 1593              		.loc 1 880 0
ARM GAS  C:\Users\jo\AppData\Local\Temp\ccwlN2BW.s 			page 29


 1594 085a C1F30741 		ubfx	r1, r1, #16, #8
 1595              	.LVL133:
 1596              		.loc 1 881 0
 1597 085e 2046     		mov	r0, r4
 1598              		.loc 1 879 0
 1599 0860 C3F30723 		ubfx	r3, r3, #8, #8
 1600              		.loc 1 880 0
 1601 0864 615C     		ldrb	r1, [r4, r1]	@ zero_extendqisi2
 1602              		.loc 1 874 0
 1603 0866 C2F30744 		ubfx	r4, r2, #16, #8
 1604              		.loc 1 879 0
 1605 086a C25C     		ldrb	r2, [r0, r3]	@ zero_extendqisi2
 1606 086c 049B     		ldr	r3, [sp, #16]
 1607              		.loc 1 874 0
 1608 086e 005D     		ldrb	r0, [r0, r4]	@ zero_extendqisi2
 1609 0870 059C     		ldr	r4, [sp, #20]
 1610 0872 85EA0365 		eor	r5, r5, r3, lsl #24
 1611 0876 029B     		ldr	r3, [sp, #8]
 1612 0878 85EA0425 		eor	r5, r5, r4, lsl #8
 1613 087c 86EA0C66 		eor	r6, r6, ip, lsl #24
 1614 0880 87EA0A67 		eor	r7, r7, r10, lsl #24
 1615              		.loc 1 859 0
 1616 0884 039C     		ldr	r4, [sp, #12]
 1617 0886 8BEA0323 		eor	r3, fp, r3, lsl #8
 1618 088a 86EA0926 		eor	r6, r6, r9, lsl #8
 1619 088e 87EA0222 		eor	r2, r7, r2, lsl #8
 1620 0892 83EA0443 		eor	r3, r3, r4, lsl #16
 1621              	.LVL134:
 1622              		.loc 1 865 0
 1623 0896 85EA0E4E 		eor	lr, r5, lr, lsl #16
 1624              	.LVL135:
 1625              		.loc 1 871 0
 1626 089a 86EA0040 		eor	r0, r6, r0, lsl #16
 1627              	.LVL136:
 1628              		.loc 1 877 0
 1629 089e 82EA0142 		eor	r2, r2, r1, lsl #16
 1630              	.LVL137:
 1631 08a2 E2E5     		b	.L52
 1632              	.L69:
 1633              		.align	2
 1634              	.L68:
 1635 08a4 00000000 		.word	.LANCHOR1
 1636              		.cfi_endproc
 1637              	.LFE2:
 1638              		.size	aes_crypt_ecb, .-aes_crypt_ecb
 1639 08a8 AFF30080 		.section	.text.aes_crypt_cbc,"ax",%progbits
 1639      AFF30080 
 1640              		.align	2
 1641              		.p2align 4,,15
 1642              		.global	aes_crypt_cbc
 1643              		.thumb
 1644              		.thumb_func
 1645              		.type	aes_crypt_cbc, %function
 1646              	aes_crypt_cbc:
 1647              	.LFB3:
 1648              		.loc 1 903 0
 1649              		.cfi_startproc
ARM GAS  C:\Users\jo\AppData\Local\Temp\ccwlN2BW.s 			page 30


 1650              		@ args = 8, pretend = 0, frame = 16
 1651              		@ frame_needed = 0, uses_anonymous_args = 0
 1652              	.LVL138:
 1653 0000 2DE9F047 		push	{r4, r5, r6, r7, r8, r9, r10, lr}
 1654              		.cfi_def_cfa_offset 32
 1655              		.cfi_offset 4, -32
 1656              		.cfi_offset 5, -28
 1657              		.cfi_offset 6, -24
 1658              		.cfi_offset 7, -20
 1659              		.cfi_offset 8, -16
 1660              		.cfi_offset 9, -12
 1661              		.cfi_offset 10, -8
 1662              		.cfi_offset 14, -4
 1663 0004 84B0     		sub	sp, sp, #16
 1664              		.cfi_def_cfa_offset 48
 1665              		.loc 1 907 0
 1666 0006 12F00F0F 		tst	r2, #15
 1667              		.loc 1 903 0
 1668 000a 9046     		mov	r8, r2
 1669 000c DDF830A0 		ldr	r10, [sp, #48]
 1670 0010 0D9C     		ldr	r4, [sp, #52]
 1671              		.loc 1 907 0
 1672 0012 5CD1     		bne	.L81
 1673 0014 0646     		mov	r6, r0
 1674 0016 8946     		mov	r9, r1
 1675 0018 1D46     		mov	r5, r3
 1676              		.loc 1 922 0
 1677 001a 41B3     		cbz	r1, .L88
 1678              	.LVL139:
 1679              		.loc 1 941 0
 1680 001c 1AB3     		cbz	r2, .L80
 1681 001e 0AF1FF3A 		add	r10, r10, #-1
 1682              	.LVL140:
 1683 0022 5F1E     		subs	r7, r3, #1
 1684              	.LVL141:
 1685              	.L79:
 1686 0024 3946     		mov	r1, r7
 1687 0026 621E     		subs	r2, r4, #1
 1688 0028 0AF1100E 		add	lr, r10, #16
 1689              	.LVL142:
 1690              	.L78:
 1691              		.loc 1 944 0 discriminator 3
 1692 002c 1AF8013F 		ldrb	r3, [r10, #1]!	@ zero_extendqisi2
 1693              	.LVL143:
 1694 0030 11F8010F 		ldrb	r0, [r1, #1]!	@ zero_extendqisi2
 1695              		.loc 1 943 0 discriminator 3
 1696 0034 F245     		cmp	r10, lr
 1697              		.loc 1 944 0 discriminator 3
 1698 0036 83EA0003 		eor	r3, r3, r0
 1699 003a 02F8013F 		strb	r3, [r2, #1]!
 1700              	.LVL144:
 1701              		.loc 1 943 0 discriminator 3
 1702 003e F5D1     		bne	.L78
 1703              		.loc 1 946 0
 1704 0040 2246     		mov	r2, r4
 1705 0042 2346     		mov	r3, r4
 1706 0044 4946     		mov	r1, r9
ARM GAS  C:\Users\jo\AppData\Local\Temp\ccwlN2BW.s 			page 31


 1707 0046 3046     		mov	r0, r6
 1708 0048 FFF7FEFF 		bl	aes_crypt_ecb
 1709              	.LVL145:
 1710              		.loc 1 947 0
 1711 004c 2168     		ldr	r1, [r4]	@ unaligned
 1712 004e 6268     		ldr	r2, [r4, #4]	@ unaligned
 1713 0050 A368     		ldr	r3, [r4, #8]	@ unaligned
 1714 0052 E068     		ldr	r0, [r4, #12]	@ unaligned
 1715 0054 E860     		str	r0, [r5, #12]	@ unaligned
 1716              	.LVL146:
 1717              		.loc 1 941 0
 1718 0056 B8F11008 		subs	r8, r8, #16
 1719              	.LVL147:
 1720              		.loc 1 947 0
 1721 005a 2960     		str	r1, [r5]	@ unaligned
 1722 005c 6A60     		str	r2, [r5, #4]	@ unaligned
 1723 005e AB60     		str	r3, [r5, #8]	@ unaligned
 1724              		.loc 1 950 0
 1725 0060 04F11004 		add	r4, r4, #16
 1726              	.LVL148:
 1727              		.loc 1 941 0
 1728 0064 DED1     		bne	.L79
 1729              	.LVL149:
 1730              	.L80:
 1731              		.loc 1 955 0
 1732 0066 0020     		movs	r0, #0
 1733              	.LVL150:
 1734              	.L86:
 1735              		.loc 1 956 0
 1736 0068 04B0     		add	sp, sp, #16
 1737              		.cfi_remember_state
 1738              		.cfi_def_cfa_offset 32
 1739              		@ sp needed
 1740 006a BDE8F087 		pop	{r4, r5, r6, r7, r8, r9, r10, pc}
 1741              	.LVL151:
 1742              	.L88:
 1743              		.cfi_restore_state
 1744 006e 5F1E     		subs	r7, r3, #1
 1745              	.LBB4:
 1746              	.LBB5:
 1747              		.loc 1 924 0
 1748 0070 002A     		cmp	r2, #0
 1749 0072 F8D0     		beq	.L80
 1750              	.LVL152:
 1751              	.L76:
 1752              		.loc 1 926 0
 1753 0074 DAF80000 		ldr	r0, [r10]	@ unaligned
 1754 0078 DAF80410 		ldr	r1, [r10, #4]	@ unaligned
 1755 007c DAF80820 		ldr	r2, [r10, #8]	@ unaligned
 1756 0080 DAF80C30 		ldr	r3, [r10, #12]	@ unaligned
 1757 0084 EE46     		mov	lr, sp
 1758 0086 AEE80F00 		stmia	lr!, {r0, r1, r2, r3}
 1759              		.loc 1 927 0
 1760 008a 0021     		movs	r1, #0
 1761 008c 2346     		mov	r3, r4
 1762 008e 3046     		mov	r0, r6
 1763 0090 5246     		mov	r2, r10
ARM GAS  C:\Users\jo\AppData\Local\Temp\ccwlN2BW.s 			page 32


 1764 0092 FFF7FEFF 		bl	aes_crypt_ecb
 1765              	.LVL153:
 1766 0096 631E     		subs	r3, r4, #1
 1767 0098 3946     		mov	r1, r7
 1768 009a 04F10F0E 		add	lr, r4, #15
 1769              	.LVL154:
 1770              	.L75:
 1771              		.loc 1 930 0
 1772 009e 13F8012F 		ldrb	r2, [r3, #1]!	@ zero_extendqisi2
 1773 00a2 11F8010F 		ldrb	r0, [r1, #1]!	@ zero_extendqisi2
 1774              		.loc 1 929 0
 1775 00a6 7345     		cmp	r3, lr
 1776              		.loc 1 930 0
 1777 00a8 82EA0002 		eor	r2, r2, r0
 1778 00ac 1A70     		strb	r2, [r3]
 1779              		.loc 1 929 0
 1780 00ae F6D1     		bne	.L75
 1781              		.loc 1 932 0
 1782 00b0 EE46     		mov	lr, sp
 1783 00b2 BEE80F00 		ldmia	lr!, {r0, r1, r2, r3}
 1784              		.loc 1 924 0
 1785 00b6 B8F11008 		subs	r8, r8, #16
 1786              	.LVL155:
 1787              		.loc 1 934 0
 1788 00ba 0AF1100A 		add	r10, r10, #16
 1789              		.loc 1 935 0
 1790 00be 04F11004 		add	r4, r4, #16
 1791              	.LVL156:
 1792              		.loc 1 932 0
 1793 00c2 2860     		str	r0, [r5]	@ unaligned
 1794 00c4 6960     		str	r1, [r5, #4]	@ unaligned
 1795 00c6 AA60     		str	r2, [r5, #8]	@ unaligned
 1796 00c8 EB60     		str	r3, [r5, #12]	@ unaligned
 1797              	.LVL157:
 1798              		.loc 1 924 0
 1799 00ca D3D1     		bne	.L76
 1800 00cc CBE7     		b	.L80
 1801              	.LVL158:
 1802              	.L81:
 1803              	.LBE5:
 1804              	.LBE4:
 1805              		.loc 1 908 0
 1806 00ce 6FF02100 		mvn	r0, #33
 1807              	.LVL159:
 1808 00d2 C9E7     		b	.L86
 1809              		.cfi_endproc
 1810              	.LFE3:
 1811              		.size	aes_crypt_cbc, .-aes_crypt_cbc
 1812 00d4 AFF30080 		.section	.text.aes_crypt_cfb128,"ax",%progbits
 1812      AFF30080 
 1812      AFF30080 
 1813              		.align	2
 1814              		.p2align 4,,15
 1815              		.global	aes_crypt_cfb128
 1816              		.thumb
 1817              		.thumb_func
 1818              		.type	aes_crypt_cfb128, %function
ARM GAS  C:\Users\jo\AppData\Local\Temp\ccwlN2BW.s 			page 33


 1819              	aes_crypt_cfb128:
 1820              	.LFB4:
 1821              		.loc 1 969 0
 1822              		.cfi_startproc
 1823              		@ args = 12, pretend = 0, frame = 0
 1824              		@ frame_needed = 0, uses_anonymous_args = 0
 1825              	.LVL160:
 1826 0000 2DE9F047 		push	{r4, r5, r6, r7, r8, r9, r10, lr}
 1827              		.cfi_def_cfa_offset 32
 1828              		.cfi_offset 4, -32
 1829              		.cfi_offset 5, -28
 1830              		.cfi_offset 6, -24
 1831              		.cfi_offset 7, -20
 1832              		.cfi_offset 8, -16
 1833              		.cfi_offset 9, -12
 1834              		.cfi_offset 10, -8
 1835              		.cfi_offset 14, -4
 1836              		.loc 1 969 0
 1837 0004 08AE     		add	r6, sp, #32
 1838              	.LVL161:
 1839 0006 9846     		mov	r8, r3
 1840 0008 0746     		mov	r7, r0
 1841              		.loc 1 971 0
 1842 000a 1C68     		ldr	r4, [r3]
 1843              		.loc 1 969 0
 1844 000c 96E84006 		ldmia	r6, {r6, r9, r10}
 1845              	.LVL162:
 1846              		.loc 1 973 0
 1847 0010 A9B1     		cbz	r1, .L90
 1848              	.LVL163:
 1849              		.loc 1 989 0
 1850 0012 7AB1     		cbz	r2, .L92
 1851 0014 0AF1FF3A 		add	r10, r10, #-1
 1852 0018 1546     		mov	r5, r2
 1853              	.LVL164:
 1854              	.L96:
 1855              		.loc 1 991 0
 1856 001a 4CB3     		cbz	r4, .L104
 1857              	.L95:
 1858              		.loc 1 994 0
 1859 001c 315D     		ldrb	r1, [r6, r4]	@ zero_extendqisi2
 1860 001e 19F8013B 		ldrb	r3, [r9], #1	@ zero_extendqisi2
 1861              	.LVL165:
 1862              		.loc 1 996 0
 1863 0022 621C     		adds	r2, r4, #1
 1864              		.loc 1 994 0
 1865 0024 4B40     		eors	r3, r3, r1
 1866              		.loc 1 989 0
 1867 0026 013D     		subs	r5, r5, #1
 1868              	.LVL166:
 1869              		.loc 1 994 0
 1870 0028 0AF8013F 		strb	r3, [r10, #1]!
 1871 002c 3355     		strb	r3, [r6, r4]
 1872              		.loc 1 996 0
 1873 002e 02F00F04 		and	r4, r2, #15
 1874              	.LVL167:
 1875              		.loc 1 989 0
ARM GAS  C:\Users\jo\AppData\Local\Temp\ccwlN2BW.s 			page 34


 1876 0032 F2D1     		bne	.L96
 1877              	.L92:
 1878              		.loc 1 1000 0
 1879 0034 C8F80040 		str	r4, [r8]
 1880              		.loc 1 1003 0
 1881 0038 0020     		movs	r0, #0
 1882 003a BDE8F087 		pop	{r4, r5, r6, r7, r8, r9, r10, pc}
 1883              	.LVL168:
 1884              	.L90:
 1885              		.loc 1 975 0
 1886 003e 002A     		cmp	r2, #0
 1887 0040 F8D0     		beq	.L92
 1888 0042 1546     		mov	r5, r2
 1889              		.loc 1 977 0
 1890 0044 6CB1     		cbz	r4, .L105
 1891              	.LVL169:
 1892              	.L93:
 1893              		.loc 1 981 0
 1894 0046 335D     		ldrb	r3, [r6, r4]	@ zero_extendqisi2
 1895              		.loc 1 980 0
 1896 0048 19F8012B 		ldrb	r2, [r9], #1	@ zero_extendqisi2
 1897              	.LVL170:
 1898              		.loc 1 984 0
 1899 004c 611C     		adds	r1, r4, #1
 1900              		.loc 1 981 0
 1901 004e 5340     		eors	r3, r3, r2
 1902              		.loc 1 975 0
 1903 0050 013D     		subs	r5, r5, #1
 1904              		.loc 1 981 0
 1905 0052 0AF8013B 		strb	r3, [r10], #1
 1906              	.LVL171:
 1907              		.loc 1 982 0
 1908 0056 3255     		strb	r2, [r6, r4]
 1909              		.loc 1 984 0
 1910 0058 01F00F04 		and	r4, r1, #15
 1911              	.LVL172:
 1912              		.loc 1 975 0
 1913 005c EAD0     		beq	.L92
 1914              	.LVL173:
 1915              		.loc 1 977 0
 1916 005e 002C     		cmp	r4, #0
 1917 0060 F1D1     		bne	.L93
 1918              	.LVL174:
 1919              	.L105:
 1920              		.loc 1 978 0
 1921 0062 3846     		mov	r0, r7
 1922 0064 0121     		movs	r1, #1
 1923 0066 3246     		mov	r2, r6
 1924 0068 3346     		mov	r3, r6
 1925 006a FFF7FEFF 		bl	aes_crypt_ecb
 1926              	.LVL175:
 1927 006e EAE7     		b	.L93
 1928              	.LVL176:
 1929              	.L104:
 1930              		.loc 1 992 0
 1931 0070 3846     		mov	r0, r7
 1932 0072 0121     		movs	r1, #1
ARM GAS  C:\Users\jo\AppData\Local\Temp\ccwlN2BW.s 			page 35


 1933 0074 3246     		mov	r2, r6
 1934 0076 3346     		mov	r3, r6
 1935 0078 FFF7FEFF 		bl	aes_crypt_ecb
 1936              	.LVL177:
 1937 007c CEE7     		b	.L95
 1938              		.cfi_endproc
 1939              	.LFE4:
 1940              		.size	aes_crypt_cfb128, .-aes_crypt_cfb128
 1941 007e 00BF     		.section	.text.aes_crypt_ctr,"ax",%progbits
 1942              		.align	2
 1943              		.p2align 4,,15
 1944              		.global	aes_crypt_ctr
 1945              		.thumb
 1946              		.thumb_func
 1947              		.type	aes_crypt_ctr, %function
 1948              	aes_crypt_ctr:
 1949              	.LFB5:
 1950              		.loc 1 1017 0
 1951              		.cfi_startproc
 1952              		@ args = 12, pretend = 0, frame = 0
 1953              		@ frame_needed = 0, uses_anonymous_args = 0
 1954              	.LVL178:
 1955 0000 2DE9F84F 		push	{r3, r4, r5, r6, r7, r8, r9, r10, fp, lr}
 1956              		.cfi_def_cfa_offset 40
 1957              		.cfi_offset 3, -40
 1958              		.cfi_offset 4, -36
 1959              		.cfi_offset 5, -32
 1960              		.cfi_offset 6, -28
 1961              		.cfi_offset 7, -24
 1962              		.cfi_offset 8, -20
 1963              		.cfi_offset 9, -16
 1964              		.cfi_offset 10, -12
 1965              		.cfi_offset 11, -8
 1966              		.cfi_offset 14, -4
 1967              		.loc 1 1017 0
 1968 0004 DDF828B0 		ldr	fp, [sp, #40]
 1969              		.loc 1 1019 0
 1970 0008 1468     		ldr	r4, [r2]
 1971              	.LVL179:
 1972              		.loc 1 1017 0
 1973 000a 0B9F     		ldr	r7, [sp, #44]
 1974 000c DDF83080 		ldr	r8, [sp, #48]
 1975              	.LVL180:
 1976 0010 9246     		mov	r10, r2
 1977              		.loc 1 1021 0
 1978 0012 79B1     		cbz	r1, .L107
 1979 0014 8146     		mov	r9, r0
 1980 0016 1E46     		mov	r6, r3
 1981 0018 0D46     		mov	r5, r1
 1982              	.LVL181:
 1983              	.L109:
 1984              		.loc 1 1023 0
 1985 001a 84B1     		cbz	r4, .L108
 1986              	.LVL182:
 1987              	.L110:
 1988              		.loc 1 1031 0
 1989 001c 1BF80420 		ldrb	r2, [fp, r4]	@ zero_extendqisi2
ARM GAS  C:\Users\jo\AppData\Local\Temp\ccwlN2BW.s 			page 36


 1990 0020 17F8013B 		ldrb	r3, [r7], #1	@ zero_extendqisi2
 1991              	.LVL183:
 1992              		.loc 1 1033 0
 1993 0024 0134     		adds	r4, r4, #1
 1994              	.LVL184:
 1995              		.loc 1 1031 0
 1996 0026 5340     		eors	r3, r3, r2
 1997              		.loc 1 1021 0
 1998 0028 013D     		subs	r5, r5, #1
 1999              	.LVL185:
 2000              		.loc 1 1033 0
 2001 002a 04F00F04 		and	r4, r4, #15
 2002              	.LVL186:
 2003              		.loc 1 1031 0
 2004 002e 08F8013B 		strb	r3, [r8], #1
 2005              	.LVL187:
 2006              		.loc 1 1021 0
 2007 0032 F2D1     		bne	.L109
 2008              	.LVL188:
 2009              	.L107:
 2010              		.loc 1 1036 0
 2011 0034 CAF80040 		str	r4, [r10]
 2012              		.loc 1 1039 0
 2013 0038 0020     		movs	r0, #0
 2014 003a BDE8F88F 		pop	{r3, r4, r5, r6, r7, r8, r9, r10, fp, pc}
 2015              	.LVL189:
 2016              	.L108:
 2017              		.loc 1 1024 0
 2018 003e 3246     		mov	r2, r6
 2019 0040 4846     		mov	r0, r9
 2020 0042 0121     		movs	r1, #1
 2021 0044 5B46     		mov	r3, fp
 2022 0046 FFF7FEFF 		bl	aes_crypt_ecb
 2023              	.LVL190:
 2024 004a 06F11002 		add	r2, r6, #16
 2025              	.LVL191:
 2026              	.L111:
 2027              		.loc 1 1027 0
 2028 004e 12F8013D 		ldrb	r3, [r2, #-1]!	@ zero_extendqisi2
 2029              	.LVL192:
 2030 0052 0133     		adds	r3, r3, #1
 2031 0054 DBB2     		uxtb	r3, r3
 2032 0056 1370     		strb	r3, [r2]
 2033 0058 002B     		cmp	r3, #0
 2034 005a DFD1     		bne	.L110
 2035              		.loc 1 1026 0 discriminator 2
 2036 005c B242     		cmp	r2, r6
 2037 005e F6D1     		bne	.L111
 2038 0060 DCE7     		b	.L110
 2039              		.cfi_endproc
 2040              	.LFE5:
 2041              		.size	aes_crypt_ctr, .-aes_crypt_ctr
 2042 0062 00BFAFF3 		.section	.text.aes_self_test,"ax",%progbits
 2042      0080AFF3 
 2042      0080AFF3 
 2042      0080
 2043              		.align	2
ARM GAS  C:\Users\jo\AppData\Local\Temp\ccwlN2BW.s 			page 37


 2044              		.p2align 4,,15
 2045              		.global	aes_self_test
 2046              		.thumb
 2047              		.thumb_func
 2048              		.type	aes_self_test, %function
 2049              	aes_self_test:
 2050              	.LFB6:
 2051              		.loc 1 1225 0
 2052              		.cfi_startproc
 2053              		@ args = 0, pretend = 0, frame = 456
 2054              		@ frame_needed = 0, uses_anonymous_args = 0
 2055              	.LVL193:
 2056 0000 2DE9F04F 		push	{r4, r5, r6, r7, r8, r9, r10, fp, lr}
 2057              		.cfi_def_cfa_offset 36
 2058              		.cfi_offset 4, -36
 2059              		.cfi_offset 5, -32
 2060              		.cfi_offset 6, -28
 2061              		.cfi_offset 7, -24
 2062              		.cfi_offset 8, -20
 2063              		.cfi_offset 9, -16
 2064              		.cfi_offset 10, -12
 2065              		.cfi_offset 11, -8
 2066              		.cfi_offset 14, -4
 2067 0004 F7B0     		sub	sp, sp, #476
 2068              		.cfi_def_cfa_offset 512
 2069              		.loc 1 1241 0
 2070 0006 0022     		movs	r2, #0
 2071              		.loc 1 1252 0
 2072 0008 DFF83093 		ldr	r9, .L211+8
 2073 000c DFF83083 		ldr	r8, .L211+12
 2074              		.loc 1 1241 0
 2075 0010 1892     		str	r2, [sp, #96]
 2076 0012 1992     		str	r2, [sp, #100]
 2077 0014 1A92     		str	r2, [sp, #104]
 2078 0016 1B92     		str	r2, [sp, #108]
 2079              		.loc 1 1225 0
 2080 0018 8346     		mov	fp, r0
 2081              		.loc 1 1241 0
 2082 001a 1C92     		str	r2, [sp, #112]
 2083              		.loc 1 1246 0
 2084 001c 1646     		mov	r6, r2
 2085              		.loc 1 1241 0
 2086 001e 1D92     		str	r2, [sp, #116]
 2087 0020 20AC     		add	r4, sp, #128
 2088 0022 1E92     		str	r2, [sp, #120]
 2089 0024 1F92     		str	r2, [sp, #124]
 2090              	.LVL194:
 2091              	.L129:
 2092              		.loc 1 1248 0
 2093 0026 7710     		asrs	r7, r6, #1
 2094              	.LVL195:
 2095              		.loc 1 1252 0
 2096 0028 BD1C     		adds	r5, r7, #2
 2097              		.loc 1 1249 0
 2098 002a 06F0010A 		and	r10, r6, #1
 2099              	.LVL196:
 2100              		.loc 1 1252 0
ARM GAS  C:\Users\jo\AppData\Local\Temp\ccwlN2BW.s 			page 38


 2101 002e AD01     		lsls	r5, r5, #6
 2102              		.loc 1 1251 0
 2103 0030 BBF1000F 		cmp	fp, #0
 2104 0034 08D0     		beq	.L120
 2105              		.loc 1 1252 0
 2106 0036 2946     		mov	r1, r5
 2107 0038 BE48     		ldr	r0, .L211
 2108 003a BAF1000F 		cmp	r10, #0
 2109 003e 0CBF     		ite	eq
 2110 0040 4A46     		moveq	r2, r9
 2111 0042 4246     		movne	r2, r8
 2112 0044 FFF7FEFF 		bl	printf
 2113              	.LVL197:
 2114              	.L120:
 2115              		.loc 1 1255 0
 2116 0048 0023     		movs	r3, #0
 2117 004a 2360     		str	r3, [r4]
 2118              		.loc 1 1259 0
 2119 004c 2A46     		mov	r2, r5
 2120              		.loc 1 1255 0
 2121 004e 2193     		str	r3, [sp, #132]
 2122 0050 2293     		str	r3, [sp, #136]
 2123 0052 2393     		str	r3, [sp, #140]
 2124              		.loc 1 1259 0
 2125 0054 30A8     		add	r0, sp, #192
 2126 0056 18A9     		add	r1, sp, #96
 2127              		.loc 1 1257 0
 2128 0058 BAF1000F 		cmp	r10, #0
 2129 005c 40F05B81 		bne	.L122
 2130              		.loc 1 1259 0
 2131 0060 FFF7FEFF 		bl	aes_setkey_dec
 2132              	.LVL198:
 2133 0064 42F21075 		movw	r5, #10000
 2134              	.LVL199:
 2135              	.L123:
 2136              		.loc 1 1262 0 discriminator 3
 2137 0068 30A8     		add	r0, sp, #192
 2138 006a 0021     		movs	r1, #0
 2139 006c 2246     		mov	r2, r4
 2140 006e 2346     		mov	r3, r4
 2141 0070 FFF7FEFF 		bl	aes_crypt_ecb
 2142              	.LVL200:
 2143              		.loc 1 1261 0 discriminator 3
 2144 0074 013D     		subs	r5, r5, #1
 2145              	.LVL201:
 2146 0076 F7D1     		bne	.L123
 2147              		.loc 1 1264 0
 2148 0078 AF49     		ldr	r1, .L211+4
 2149              	.LVL202:
 2150              	.L201:
 2151 007a 2046     		mov	r0, r4
 2152 007c 01EB0711 		add	r1, r1, r7, lsl #4
 2153 0080 1022     		movs	r2, #16
 2154 0082 FFF7FEFF 		bl	memcmp
 2155              	.LVL203:
 2156 0086 0028     		cmp	r0, #0
 2157 0088 40F03D81 		bne	.L127
ARM GAS  C:\Users\jo\AppData\Local\Temp\ccwlN2BW.s 			page 39


 2158              		.loc 1 1288 0
 2159 008c BBF1000F 		cmp	fp, #0
 2160 0090 40F0BE81 		bne	.L202
 2161              	.L128:
 2162              		.loc 1 1246 0 discriminator 2
 2163 0094 0136     		adds	r6, r6, #1
 2164              	.LVL204:
 2165 0096 062E     		cmp	r6, #6
 2166 0098 C5D1     		bne	.L129
 2167              		.loc 1 1292 0
 2168 009a BBF1000F 		cmp	fp, #0
 2169 009e 40F0CA81 		bne	.L203
 2170              	.L130:
 2171              	.LVL205:
 2172              		.loc 1 1274 0 discriminator 1
 2173 00a2 4FF00008 		mov	r8, #0
 2174 00a6 0CAF     		add	r7, sp, #48
 2175              	.LVL206:
 2176 00a8 08AD     		add	r5, sp, #32
 2177              	.LVL207:
 2178              	.L139:
 2179              		.loc 1 1300 0
 2180 00aa 4FEA680A 		asr	r10, r8, #1
 2181              	.LVL208:
 2182              		.loc 1 1304 0
 2183 00ae 0AF10206 		add	r6, r10, #2
 2184              		.loc 1 1301 0
 2185 00b2 08F00109 		and	r9, r8, #1
 2186              	.LVL209:
 2187              		.loc 1 1304 0
 2188 00b6 B601     		lsls	r6, r6, #6
 2189              		.loc 1 1303 0
 2190 00b8 BBF1000F 		cmp	fp, #0
 2191 00bc 09D0     		beq	.L132
 2192              		.loc 1 1304 0
 2193 00be 9F4A     		ldr	r2, .L211+8
 2194 00c0 9F4B     		ldr	r3, .L211+12
 2195 00c2 A048     		ldr	r0, .L211+16
 2196 00c4 3146     		mov	r1, r6
 2197 00c6 B9F1000F 		cmp	r9, #0
 2198 00ca 18BF     		it	ne
 2199 00cc 1A46     		movne	r2, r3
 2200 00ce FFF7FEFF 		bl	printf
 2201              	.LVL210:
 2202              	.L132:
 2203              		.loc 1 1307 0
 2204 00d2 0023     		movs	r3, #0
 2205 00d4 3B60     		str	r3, [r7]
 2206              		.loc 1 1308 0
 2207 00d6 2B60     		str	r3, [r5]
 2208              		.loc 1 1309 0
 2209 00d8 2360     		str	r3, [r4]
 2210              		.loc 1 1307 0
 2211 00da 0D93     		str	r3, [sp, #52]
 2212 00dc 0E93     		str	r3, [sp, #56]
 2213 00de 0F93     		str	r3, [sp, #60]
 2214              		.loc 1 1308 0
ARM GAS  C:\Users\jo\AppData\Local\Temp\ccwlN2BW.s 			page 40


 2215 00e0 0993     		str	r3, [sp, #36]
 2216 00e2 0A93     		str	r3, [sp, #40]
 2217 00e4 0B93     		str	r3, [sp, #44]
 2218              		.loc 1 1309 0
 2219 00e6 2193     		str	r3, [sp, #132]
 2220 00e8 2293     		str	r3, [sp, #136]
 2221 00ea 2393     		str	r3, [sp, #140]
 2222              		.loc 1 1313 0
 2223 00ec 3246     		mov	r2, r6
 2224 00ee 30A8     		add	r0, sp, #192
 2225 00f0 18A9     		add	r1, sp, #96
 2226              		.loc 1 1311 0
 2227 00f2 B9F1000F 		cmp	r9, #0
 2228 00f6 40F0E080 		bne	.L134
 2229              		.loc 1 1313 0
 2230 00fa FFF7FEFF 		bl	aes_setkey_dec
 2231              	.LVL211:
 2232 00fe 42F21076 		movw	r6, #10000
 2233              	.LVL212:
 2234              	.L135:
 2235              		.loc 1 1316 0 discriminator 3
 2236 0102 0094     		str	r4, [sp]
 2237 0104 0194     		str	r4, [sp, #4]
 2238 0106 30A8     		add	r0, sp, #192
 2239 0108 0021     		movs	r1, #0
 2240 010a 1022     		movs	r2, #16
 2241 010c 3B46     		mov	r3, r7
 2242 010e FFF7FEFF 		bl	aes_crypt_cbc
 2243              	.LVL213:
 2244              		.loc 1 1315 0 discriminator 3
 2245 0112 013E     		subs	r6, r6, #1
 2246              	.LVL214:
 2247 0114 F5D1     		bne	.L135
 2248              		.loc 1 1318 0
 2249 0116 8C49     		ldr	r1, .L211+20
 2250 0118 2046     		mov	r0, r4
 2251 011a 01EB0A11 		add	r1, r1, r10, lsl #4
 2252 011e 1022     		movs	r2, #16
 2253 0120 FFF7FEFF 		bl	memcmp
 2254              	.LVL215:
 2255 0124 0028     		cmp	r0, #0
 2256 0126 40F0EE80 		bne	.L127
 2257              	.LVL216:
 2258              	.L136:
 2259              		.loc 1 1350 0
 2260 012a BBF1000F 		cmp	fp, #0
 2261 012e 40F07381 		bne	.L204
 2262              	.L138:
 2263              		.loc 1 1298 0 discriminator 2
 2264 0132 08F10108 		add	r8, r8, #1
 2265              	.LVL217:
 2266 0136 B8F1060F 		cmp	r8, #6
 2267 013a B6D1     		bne	.L139
 2268              		.loc 1 1354 0
 2269 013c BBF1000F 		cmp	fp, #0
 2270 0140 40F07D81 		bne	.L205
 2271              	.L140:
ARM GAS  C:\Users\jo\AppData\Local\Temp\ccwlN2BW.s 			page 41


 2272              	.LVL218:
 2273              		.loc 1 1328 0 discriminator 1
 2274 0144 4FF00008 		mov	r8, #0
 2275              	.LVL219:
 2276              	.L147:
 2277              		.loc 1 1363 0
 2278 0148 4FEA6809 		asr	r9, r8, #1
 2279              	.LVL220:
 2280              		.loc 1 1367 0
 2281 014c 09F10205 		add	r5, r9, #2
 2282 0150 7A4A     		ldr	r2, .L211+8
 2283 0152 7B4B     		ldr	r3, .L211+12
 2284 0154 7D48     		ldr	r0, .L211+24
 2285 0156 AE01     		lsls	r6, r5, #6
 2286              		.loc 1 1364 0
 2287 0158 08F0010A 		and	r10, r8, #1
 2288              	.LVL221:
 2289              		.loc 1 1367 0
 2290 015c 3146     		mov	r1, r6
 2291 015e BAF1000F 		cmp	r10, #0
 2292 0162 18BF     		it	ne
 2293 0164 1A46     		movne	r2, r3
 2294              		.loc 1 1366 0
 2295 0166 BBF1000F 		cmp	fp, #0
 2296 016a 01D0     		beq	.L142
 2297              		.loc 1 1367 0
 2298 016c FFF7FEFF 		bl	printf
 2299              	.LVL222:
 2300              	.L142:
 2301              		.loc 1 1370 0
 2302 0170 774B     		ldr	r3, .L211+28
 2303 0172 0FCB     		ldmia	r3, {r0, r1, r2, r3}
 2304 0174 87E80F00 		stmia	r7, {r0, r1, r2, r3}
 2305              		.loc 1 1371 0
 2306 0178 764B     		ldr	r3, .L211+32
 2307 017a EA00     		lsls	r2, r5, #3
 2308 017c 03EB4911 		add	r1, r3, r9, lsl #5
 2309 0180 18A8     		add	r0, sp, #96
 2310 0182 FFF7FEFF 		bl	memcpy
 2311              	.LVL223:
 2312              		.loc 1 1373 0
 2313 0186 0023     		movs	r3, #0
 2314              		.loc 1 1374 0
 2315 0188 3246     		mov	r2, r6
 2316 018a 30A8     		add	r0, sp, #192
 2317 018c 18A9     		add	r1, sp, #96
 2318              		.loc 1 1373 0
 2319 018e 0793     		str	r3, [sp, #28]
 2320              		.loc 1 1374 0
 2321 0190 FFF7FEFF 		bl	aes_setkey_enc
 2322              	.LVL224:
 2323              		.loc 1 1378 0
 2324 0194 704B     		ldr	r3, .L211+36
 2325              		.loc 1 1391 0
 2326 0196 714E     		ldr	r6, .L211+40
 2327              		.loc 1 1361 0
 2328 0198 08F10108 		add	r8, r8, #1
ARM GAS  C:\Users\jo\AppData\Local\Temp\ccwlN2BW.s 			page 42


 2329              	.LVL225:
 2330              		.loc 1 1378 0
 2331 019c 03EB891C 		add	ip, r3, r9, lsl #6
 2332 01a0 A646     		mov	lr, r4
 2333              		.loc 1 1391 0
 2334 01a2 2546     		mov	r5, r4
 2335              		.loc 1 1376 0
 2336 01a4 BAF1000F 		cmp	r10, #0
 2337 01a8 40F0EA80 		bne	.L144
 2338              		.loc 1 1378 0
 2339 01ac BCE80F00 		ldmia	ip!, {r0, r1, r2, r3}
 2340 01b0 AEE80F00 		stmia	lr!, {r0, r1, r2, r3}
 2341 01b4 BCE80F00 		ldmia	ip!, {r0, r1, r2, r3}
 2342 01b8 AEE80F00 		stmia	lr!, {r0, r1, r2, r3}
 2343 01bc BCE80F00 		ldmia	ip!, {r0, r1, r2, r3}
 2344 01c0 AEE80F00 		stmia	lr!, {r0, r1, r2, r3}
 2345 01c4 9CE80F00 		ldmia	ip, {r0, r1, r2, r3}
 2346              		.loc 1 1379 0
 2347 01c8 0097     		str	r7, [sp]
 2348              		.loc 1 1378 0
 2349 01ca 8EE80F00 		stmia	lr, {r0, r1, r2, r3}
 2350              		.loc 1 1379 0
 2351 01ce 0194     		str	r4, [sp, #4]
 2352 01d0 5146     		mov	r1, r10
 2353 01d2 4022     		movs	r2, #64
 2354 01d4 0294     		str	r4, [sp, #8]
 2355 01d6 30A8     		add	r0, sp, #192
 2356 01d8 07AB     		add	r3, sp, #28
 2357 01da FFF7FEFF 		bl	aes_crypt_cfb128
 2358              	.LVL226:
 2359              		.loc 1 1381 0
 2360 01de 2046     		mov	r0, r4
 2361 01e0 3146     		mov	r1, r6
 2362 01e2 4022     		movs	r2, #64
 2363 01e4 FFF7FEFF 		bl	memcmp
 2364              	.LVL227:
 2365 01e8 0028     		cmp	r0, #0
 2366 01ea 40F08C80 		bne	.L127
 2367              		.loc 1 1403 0
 2368 01ee BBF1000F 		cmp	fp, #0
 2369 01f2 40F0E580 		bne	.L206
 2370              	.L146:
 2371              	.LVL228:
 2372              		.loc 1 1361 0 discriminator 2
 2373 01f6 B8F1060F 		cmp	r8, #6
 2374 01fa A5D1     		bne	.L147
 2375              		.loc 1 1407 0
 2376 01fc BBF1000F 		cmp	fp, #0
 2377 0200 40F01581 		bne	.L207
 2378              	.L148:
 2379              	.LVL229:
 2380 0204 14AB     		add	r3, sp, #80
 2381              		.loc 1 1367 0 discriminator 1
 2382 0206 4FF00008 		mov	r8, #0
 2383 020a 0593     		str	r3, [sp, #20]
 2384              	.LVL230:
 2385              	.L154:
ARM GAS  C:\Users\jo\AppData\Local\Temp\ccwlN2BW.s 			page 43


 2386              		.loc 1 1421 0
 2387 020c 4B49     		ldr	r1, .L211+8
 2388 020e 4C4B     		ldr	r3, .L211+12
 2389 0210 5348     		ldr	r0, .L211+44
 2390              		.loc 1 1418 0
 2391 0212 08F00106 		and	r6, r8, #1
 2392              		.loc 1 1417 0
 2393 0216 4FEA680A 		asr	r10, r8, #1
 2394              	.LVL231:
 2395              		.loc 1 1421 0
 2396 021a 002E     		cmp	r6, #0
 2397 021c 18BF     		it	ne
 2398 021e 1946     		movne	r1, r3
 2399              		.loc 1 1415 0
 2400 0220 08F10108 		add	r8, r8, #1
 2401              	.LVL232:
 2402              		.loc 1 1420 0
 2403 0224 BBF1000F 		cmp	fp, #0
 2404 0228 01D0     		beq	.L149
 2405              		.loc 1 1421 0
 2406 022a FFF7FEFF 		bl	printf
 2407              	.LVL233:
 2408              	.L149:
 2409              		.loc 1 1424 0
 2410 022e 4D4B     		ldr	r3, .L211+48
 2411              		.loc 1 1425 0
 2412 0230 4D4F     		ldr	r7, .L211+52
 2413              		.loc 1 1424 0
 2414 0232 4FEA0A15 		lsl	r5, r10, #4
 2415 0236 2B44     		add	r3, r3, r5
 2416 0238 0FCB     		ldmia	r3, {r0, r1, r2, r3}
 2417              		.loc 1 1425 0
 2418 023a 3D44     		add	r5, r5, r7
 2419              		.loc 1 1424 0
 2420 023c 10AF     		add	r7, sp, #64
 2421 023e 87E80F00 		stmia	r7, {r0, r1, r2, r3}
 2422              		.loc 1 1425 0
 2423 0242 95E80F00 		ldmia	r5, {r0, r1, r2, r3}
 2424 0246 18AF     		add	r7, sp, #96
 2425 0248 87E80F00 		stmia	r7, {r0, r1, r2, r3}
 2426              		.loc 1 1427 0
 2427 024c 0025     		movs	r5, #0
 2428              		.loc 1 1428 0
 2429 024e 3946     		mov	r1, r7
 2430 0250 30A8     		add	r0, sp, #192
 2431 0252 8022     		movs	r2, #128
 2432              		.loc 1 1427 0
 2433 0254 0795     		str	r5, [sp, #28]
 2434              		.loc 1 1428 0
 2435 0256 FFF7FEFF 		bl	aes_setkey_enc
 2436              	.LVL234:
 2437              		.loc 1 1433 0
 2438 025a 0AEB4A05 		add	r5, r10, r10, lsl #1
 2439 025e 434B     		ldr	r3, .L211+56
 2440 0260 2D01     		lsls	r5, r5, #4
 2441 0262 5919     		adds	r1, r3, r5
 2442              		.loc 1 1448 0
ARM GAS  C:\Users\jo\AppData\Local\Temp\ccwlN2BW.s 			page 44


 2443 0264 A946     		mov	r9, r5
 2444              		.loc 1 1433 0
 2445 0266 2046     		mov	r0, r4
 2446 0268 414B     		ldr	r3, .L211+60
 2447              		.loc 1 1430 0
 2448 026a 002E     		cmp	r6, #0
 2449 026c 40F0AC80 		bne	.L151
 2450              		.loc 1 1433 0
 2451 0270 53F82A60 		ldr	r6, [r3, r10, lsl #2]
 2452              	.LVL235:
 2453 0274 3246     		mov	r2, r6
 2454 0276 FFF7FEFF 		bl	memcpy
 2455              	.LVL236:
 2456              		.loc 1 1435 0
 2457 027a 059B     		ldr	r3, [sp, #20]
 2458 027c 0294     		str	r4, [sp, #8]
 2459 027e 8DE81800 		stmia	sp, {r3, r4}
 2460 0282 3146     		mov	r1, r6
 2461 0284 07AA     		add	r2, sp, #28
 2462 0286 10AB     		add	r3, sp, #64
 2463 0288 30A8     		add	r0, sp, #192
 2464 028a FFF7FEFF 		bl	aes_crypt_ctr
 2465              	.LVL237:
 2466              		.loc 1 1437 0
 2467 028e 394B     		ldr	r3, .L211+64
 2468 0290 2046     		mov	r0, r4
 2469 0292 3246     		mov	r2, r6
 2470 0294 5919     		adds	r1, r3, r5
 2471 0296 FFF7FEFF 		bl	memcmp
 2472              	.LVL238:
 2473 029a A0BB     		cbnz	r0, .L127
 2474              		.loc 1 1461 0
 2475 029c BBF1000F 		cmp	fp, #0
 2476 02a0 40F0B280 		bne	.L208
 2477              	.L153:
 2478              	.LVL239:
 2479              		.loc 1 1415 0 discriminator 2
 2480 02a4 B8F1060F 		cmp	r8, #6
 2481 02a8 B0D1     		bne	.L154
 2482              		.loc 1 1465 0
 2483 02aa BBF1000F 		cmp	fp, #0
 2484 02ae 40F0B780 		bne	.L209
 2485              		.loc 1 1469 0
 2486 02b2 5846     		mov	r0, fp
 2487              		.loc 1 1470 0
 2488 02b4 77B0     		add	sp, sp, #476
 2489              		.cfi_remember_state
 2490              		.cfi_def_cfa_offset 36
 2491              		@ sp needed
 2492 02b6 BDE8F08F 		pop	{r4, r5, r6, r7, r8, r9, r10, fp, pc}
 2493              	.LVL240:
 2494              	.L134:
 2495              		.cfi_restore_state
 2496              		.loc 1 1328 0
 2497 02ba FFF7FEFF 		bl	aes_setkey_enc
 2498              	.LVL241:
 2499 02be 42F21079 		movw	r9, #10000
ARM GAS  C:\Users\jo\AppData\Local\Temp\ccwlN2BW.s 			page 45


 2500              	.LVL242:
 2501 02c2 14AE     		add	r6, sp, #80
 2502              	.LVL243:
 2503              	.L137:
 2504              	.LBB6:
 2505              		.loc 1 1334 0 discriminator 3
 2506 02c4 0121     		movs	r1, #1
 2507 02c6 1022     		movs	r2, #16
 2508 02c8 3B46     		mov	r3, r7
 2509 02ca 0094     		str	r4, [sp]
 2510 02cc 0194     		str	r4, [sp, #4]
 2511 02ce 30A8     		add	r0, sp, #192
 2512 02d0 FFF7FEFF 		bl	aes_crypt_cbc
 2513              	.LVL244:
 2514              		.loc 1 1336 0 discriminator 3
 2515 02d4 95E80F00 		ldmia	r5, {r0, r1, r2, r3}
 2516 02d8 86E80F00 		stmia	r6, {r0, r1, r2, r3}
 2517              		.loc 1 1337 0 discriminator 3
 2518 02dc 94E80F00 		ldmia	r4, {r0, r1, r2, r3}
 2519 02e0 85E80F00 		stmia	r5, {r0, r1, r2, r3}
 2520              		.loc 1 1338 0 discriminator 3
 2521 02e4 96E80F00 		ldmia	r6, {r0, r1, r2, r3}
 2522              	.LBE6:
 2523              		.loc 1 1330 0 discriminator 3
 2524 02e8 B9F10109 		subs	r9, r9, #1
 2525              	.LVL245:
 2526              	.LBB7:
 2527              		.loc 1 1338 0 discriminator 3
 2528 02ec 84E80F00 		stmia	r4, {r0, r1, r2, r3}
 2529              	.LVL246:
 2530              	.LBE7:
 2531              		.loc 1 1330 0 discriminator 3
 2532 02f0 E8D1     		bne	.L137
 2533              		.loc 1 1341 0
 2534 02f2 2149     		ldr	r1, .L211+68
 2535 02f4 2846     		mov	r0, r5
 2536 02f6 01EB0A11 		add	r1, r1, r10, lsl #4
 2537 02fa 1022     		movs	r2, #16
 2538 02fc FFF7FEFF 		bl	memcmp
 2539              	.LVL247:
 2540 0300 0028     		cmp	r0, #0
 2541 0302 3FF412AF 		beq	.L136
 2542              	.LVL248:
 2543              	.L127:
 2544              		.loc 1 1269 0
 2545 0306 0120     		movs	r0, #1
 2546              		.loc 1 1266 0
 2547 0308 BBF1000F 		cmp	fp, #0
 2548 030c 40F09B80 		bne	.L210
 2549              		.loc 1 1470 0
 2550 0310 77B0     		add	sp, sp, #476
 2551              		.cfi_remember_state
 2552              		.cfi_def_cfa_offset 36
 2553              		@ sp needed
 2554 0312 BDE8F08F 		pop	{r4, r5, r6, r7, r8, r9, r10, fp, pc}
 2555              	.LVL249:
 2556              	.L122:
ARM GAS  C:\Users\jo\AppData\Local\Temp\ccwlN2BW.s 			page 46


 2557              		.cfi_restore_state
 2558              		.loc 1 1274 0
 2559 0316 FFF7FEFF 		bl	aes_setkey_enc
 2560              	.LVL250:
 2561 031a 42F21075 		movw	r5, #10000
 2562              	.LVL251:
 2563              	.L126:
 2564              		.loc 1 1277 0 discriminator 3
 2565 031e 30A8     		add	r0, sp, #192
 2566 0320 0121     		movs	r1, #1
 2567 0322 2246     		mov	r2, r4
 2568 0324 2346     		mov	r3, r4
 2569 0326 FFF7FEFF 		bl	aes_crypt_ecb
 2570              	.LVL252:
 2571              		.loc 1 1276 0 discriminator 3
 2572 032a 013D     		subs	r5, r5, #1
 2573              	.LVL253:
 2574 032c F7D1     		bne	.L126
 2575              		.loc 1 1279 0
 2576 032e 1349     		ldr	r1, .L211+72
 2577 0330 A3E6     		b	.L201
 2578              	.L212:
 2579 0332 00BF     		.align	2
 2580              	.L211:
 2581 0334 08000000 		.word	.LC2
 2582 0338 00000000 		.word	.LANCHOR11
 2583 033c 00000000 		.word	.LC0
 2584 0340 04000000 		.word	.LC1
 2585 0344 30000000 		.word	.LC5
 2586 0348 00000000 		.word	.LANCHOR13
 2587 034c 48000000 		.word	.LC6
 2588 0350 00000000 		.word	.LANCHOR15
 2589 0354 00000000 		.word	.LANCHOR16
 2590 0358 00000000 		.word	.LANCHOR17
 2591 035c 00000000 		.word	.LANCHOR18
 2592 0360 60000000 		.word	.LC7
 2593 0364 00000000 		.word	.LANCHOR19
 2594 0368 00000000 		.word	.LANCHOR20
 2595 036c 00000000 		.word	.LANCHOR22
 2596 0370 00000000 		.word	.LANCHOR21
 2597 0374 00000000 		.word	.LANCHOR23
 2598 0378 00000000 		.word	.LANCHOR14
 2599 037c 00000000 		.word	.LANCHOR12
 2600              	.LVL254:
 2601              	.L144:
 2602              		.loc 1 1391 0
 2603 0380 0FCE     		ldmia	r6!, {r0, r1, r2, r3}
 2604 0382 0FC5     		stmia	r5!, {r0, r1, r2, r3}
 2605 0384 0FCE     		ldmia	r6!, {r0, r1, r2, r3}
 2606 0386 0FC5     		stmia	r5!, {r0, r1, r2, r3}
 2607 0388 0FCE     		ldmia	r6!, {r0, r1, r2, r3}
 2608 038a 0FC5     		stmia	r5!, {r0, r1, r2, r3}
 2609 038c 96E80F00 		ldmia	r6, {r0, r1, r2, r3}
 2610              		.loc 1 1392 0
 2611 0390 0097     		str	r7, [sp]
 2612              		.loc 1 1391 0
 2613 0392 85E80F00 		stmia	r5, {r0, r1, r2, r3}
ARM GAS  C:\Users\jo\AppData\Local\Temp\ccwlN2BW.s 			page 47


 2614              		.loc 1 1392 0
 2615 0396 0194     		str	r4, [sp, #4]
 2616 0398 0121     		movs	r1, #1
 2617 039a 4022     		movs	r2, #64
 2618 039c 07AB     		add	r3, sp, #28
 2619 039e 30A8     		add	r0, sp, #192
 2620 03a0 0294     		str	r4, [sp, #8]
 2621 03a2 FFF7FEFF 		bl	aes_crypt_cfb128
 2622              	.LVL255:
 2623              		.loc 1 1394 0
 2624 03a6 2B4B     		ldr	r3, .L213
 2625 03a8 2046     		mov	r0, r4
 2626 03aa 03EB8911 		add	r1, r3, r9, lsl #6
 2627 03ae 4022     		movs	r2, #64
 2628 03b0 FFF7FEFF 		bl	memcmp
 2629              	.LVL256:
 2630 03b4 0028     		cmp	r0, #0
 2631 03b6 A6D1     		bne	.L127
 2632              		.loc 1 1403 0
 2633 03b8 BBF1000F 		cmp	fp, #0
 2634 03bc 3FF41BAF 		beq	.L146
 2635              	.L206:
 2636              		.loc 1 1404 0
 2637 03c0 2548     		ldr	r0, .L213+4
 2638 03c2 FFF7FEFF 		bl	puts
 2639              	.LVL257:
 2640 03c6 16E7     		b	.L146
 2641              	.LVL258:
 2642              	.L151:
 2643              		.loc 1 1448 0
 2644 03c8 53F82A50 		ldr	r5, [r3, r10, lsl #2]
 2645 03cc 234B     		ldr	r3, .L213+8
 2646 03ce 2A46     		mov	r2, r5
 2647 03d0 03EB0901 		add	r1, r3, r9
 2648 03d4 2046     		mov	r0, r4
 2649 03d6 FFF7FEFF 		bl	memcpy
 2650              	.LVL259:
 2651              		.loc 1 1450 0
 2652 03da 059B     		ldr	r3, [sp, #20]
 2653 03dc 0294     		str	r4, [sp, #8]
 2654 03de 8DE81800 		stmia	sp, {r3, r4}
 2655 03e2 2946     		mov	r1, r5
 2656 03e4 07AA     		add	r2, sp, #28
 2657 03e6 10AB     		add	r3, sp, #64
 2658 03e8 30A8     		add	r0, sp, #192
 2659 03ea FFF7FEFF 		bl	aes_crypt_ctr
 2660              	.LVL260:
 2661              		.loc 1 1452 0
 2662 03ee 1C4B     		ldr	r3, .L213+12
 2663 03f0 2046     		mov	r0, r4
 2664 03f2 2A46     		mov	r2, r5
 2665 03f4 03EB0901 		add	r1, r3, r9
 2666 03f8 FFF7FEFF 		bl	memcmp
 2667              	.LVL261:
 2668 03fc 0028     		cmp	r0, #0
 2669 03fe 82D1     		bne	.L127
 2670              		.loc 1 1461 0
ARM GAS  C:\Users\jo\AppData\Local\Temp\ccwlN2BW.s 			page 48


 2671 0400 BBF1000F 		cmp	fp, #0
 2672 0404 3FF44EAF 		beq	.L153
 2673              	.LVL262:
 2674              	.L208:
 2675              		.loc 1 1462 0
 2676 0408 1348     		ldr	r0, .L213+4
 2677 040a FFF7FEFF 		bl	puts
 2678              	.LVL263:
 2679 040e 49E7     		b	.L153
 2680              	.LVL264:
 2681              	.L202:
 2682              		.loc 1 1289 0
 2683 0410 1148     		ldr	r0, .L213+4
 2684 0412 FFF7FEFF 		bl	puts
 2685              	.LVL265:
 2686 0416 3DE6     		b	.L128
 2687              	.LVL266:
 2688              	.L204:
 2689              		.loc 1 1351 0
 2690 0418 0F48     		ldr	r0, .L213+4
 2691 041a FFF7FEFF 		bl	puts
 2692              	.LVL267:
 2693 041e 88E6     		b	.L138
 2694              	.LVL268:
 2695              	.L209:
 2696              		.loc 1 1466 0
 2697 0420 0A20     		movs	r0, #10
 2698 0422 FFF7FEFF 		bl	putchar
 2699              	.LVL269:
 2700              		.loc 1 1469 0
 2701 0426 0020     		movs	r0, #0
 2702              		.loc 1 1470 0
 2703 0428 77B0     		add	sp, sp, #476
 2704              		.cfi_remember_state
 2705              		.cfi_def_cfa_offset 36
 2706              		@ sp needed
 2707 042a BDE8F08F 		pop	{r4, r5, r6, r7, r8, r9, r10, fp, pc}
 2708              	.LVL270:
 2709              	.L207:
 2710              		.cfi_restore_state
 2711              		.loc 1 1408 0
 2712 042e 0A20     		movs	r0, #10
 2713 0430 FFF7FEFF 		bl	putchar
 2714              	.LVL271:
 2715 0434 E6E6     		b	.L148
 2716              	.LVL272:
 2717              	.L203:
 2718              		.loc 1 1293 0
 2719 0436 0A20     		movs	r0, #10
 2720 0438 FFF7FEFF 		bl	putchar
 2721              	.LVL273:
 2722 043c 31E6     		b	.L130
 2723              	.LVL274:
 2724              	.L205:
 2725              		.loc 1 1355 0
 2726 043e 0A20     		movs	r0, #10
 2727 0440 FFF7FEFF 		bl	putchar
ARM GAS  C:\Users\jo\AppData\Local\Temp\ccwlN2BW.s 			page 49


 2728              	.LVL275:
 2729 0444 7EE6     		b	.L140
 2730              	.LVL276:
 2731              	.L210:
 2732              		.loc 1 1267 0
 2733 0446 0748     		ldr	r0, .L213+16
 2734 0448 FFF7FEFF 		bl	puts
 2735              	.LVL277:
 2736              		.loc 1 1269 0
 2737 044c 0120     		movs	r0, #1
 2738              		.loc 1 1470 0
 2739 044e 77B0     		add	sp, sp, #476
 2740              		.cfi_def_cfa_offset 36
 2741              		@ sp needed
 2742 0450 BDE8F08F 		pop	{r4, r5, r6, r7, r8, r9, r10, fp, pc}
 2743              	.LVL278:
 2744              	.L214:
 2745              		.align	2
 2746              	.L213:
 2747 0454 00000000 		.word	.LANCHOR17
 2748 0458 28000000 		.word	.LC4
 2749 045c 00000000 		.word	.LANCHOR23
 2750 0460 00000000 		.word	.LANCHOR22
 2751 0464 20000000 		.word	.LC3
 2752              		.cfi_endproc
 2753              	.LFE6:
 2754              		.size	aes_self_test, .-aes_self_test
 2755 0468 AFF30080 		.section	.rodata.RCON,"a",%progbits
 2755      AFF30080 
 2756              		.align	2
 2757              		.set	.LANCHOR0,. + 0
 2758              		.type	RCON, %object
 2759              		.size	RCON, 40
 2760              	RCON:
 2761 0000 01000000 		.word	1
 2762 0004 02000000 		.word	2
 2763 0008 04000000 		.word	4
 2764 000c 08000000 		.word	8
 2765 0010 10000000 		.word	16
 2766 0014 20000000 		.word	32
 2767 0018 40000000 		.word	64
 2768 001c 80000000 		.word	128
 2769 0020 1B000000 		.word	27
 2770 0024 36000000 		.word	54
 2771              		.section	.rodata.FSb,"a",%progbits
 2772              		.align	2
 2773              		.set	.LANCHOR1,. + 0
 2774              		.type	FSb, %object
 2775              		.size	FSb, 256
 2776              	FSb:
 2777 0000 63       		.byte	99
 2778 0001 7C       		.byte	124
 2779 0002 77       		.byte	119
 2780 0003 7B       		.byte	123
 2781 0004 F2       		.byte	-14
 2782 0005 6B       		.byte	107
 2783 0006 6F       		.byte	111
ARM GAS  C:\Users\jo\AppData\Local\Temp\ccwlN2BW.s 			page 50


 2784 0007 C5       		.byte	-59
 2785 0008 30       		.byte	48
 2786 0009 01       		.byte	1
 2787 000a 67       		.byte	103
 2788 000b 2B       		.byte	43
 2789 000c FE       		.byte	-2
 2790 000d D7       		.byte	-41
 2791 000e AB       		.byte	-85
 2792 000f 76       		.byte	118
 2793 0010 CA       		.byte	-54
 2794 0011 82       		.byte	-126
 2795 0012 C9       		.byte	-55
 2796 0013 7D       		.byte	125
 2797 0014 FA       		.byte	-6
 2798 0015 59       		.byte	89
 2799 0016 47       		.byte	71
 2800 0017 F0       		.byte	-16
 2801 0018 AD       		.byte	-83
 2802 0019 D4       		.byte	-44
 2803 001a A2       		.byte	-94
 2804 001b AF       		.byte	-81
 2805 001c 9C       		.byte	-100
 2806 001d A4       		.byte	-92
 2807 001e 72       		.byte	114
 2808 001f C0       		.byte	-64
 2809 0020 B7       		.byte	-73
 2810 0021 FD       		.byte	-3
 2811 0022 93       		.byte	-109
 2812 0023 26       		.byte	38
 2813 0024 36       		.byte	54
 2814 0025 3F       		.byte	63
 2815 0026 F7       		.byte	-9
 2816 0027 CC       		.byte	-52
 2817 0028 34       		.byte	52
 2818 0029 A5       		.byte	-91
 2819 002a E5       		.byte	-27
 2820 002b F1       		.byte	-15
 2821 002c 71       		.byte	113
 2822 002d D8       		.byte	-40
 2823 002e 31       		.byte	49
 2824 002f 15       		.byte	21
 2825 0030 04       		.byte	4
 2826 0031 C7       		.byte	-57
 2827 0032 23       		.byte	35
 2828 0033 C3       		.byte	-61
 2829 0034 18       		.byte	24
 2830 0035 96       		.byte	-106
 2831 0036 05       		.byte	5
 2832 0037 9A       		.byte	-102
 2833 0038 07       		.byte	7
 2834 0039 12       		.byte	18
 2835 003a 80       		.byte	-128
 2836 003b E2       		.byte	-30
 2837 003c EB       		.byte	-21
 2838 003d 27       		.byte	39
 2839 003e B2       		.byte	-78
 2840 003f 75       		.byte	117
ARM GAS  C:\Users\jo\AppData\Local\Temp\ccwlN2BW.s 			page 51


 2841 0040 09       		.byte	9
 2842 0041 83       		.byte	-125
 2843 0042 2C       		.byte	44
 2844 0043 1A       		.byte	26
 2845 0044 1B       		.byte	27
 2846 0045 6E       		.byte	110
 2847 0046 5A       		.byte	90
 2848 0047 A0       		.byte	-96
 2849 0048 52       		.byte	82
 2850 0049 3B       		.byte	59
 2851 004a D6       		.byte	-42
 2852 004b B3       		.byte	-77
 2853 004c 29       		.byte	41
 2854 004d E3       		.byte	-29
 2855 004e 2F       		.byte	47
 2856 004f 84       		.byte	-124
 2857 0050 53       		.byte	83
 2858 0051 D1       		.byte	-47
 2859 0052 00       		.byte	0
 2860 0053 ED       		.byte	-19
 2861 0054 20       		.byte	32
 2862 0055 FC       		.byte	-4
 2863 0056 B1       		.byte	-79
 2864 0057 5B       		.byte	91
 2865 0058 6A       		.byte	106
 2866 0059 CB       		.byte	-53
 2867 005a BE       		.byte	-66
 2868 005b 39       		.byte	57
 2869 005c 4A       		.byte	74
 2870 005d 4C       		.byte	76
 2871 005e 58       		.byte	88
 2872 005f CF       		.byte	-49
 2873 0060 D0       		.byte	-48
 2874 0061 EF       		.byte	-17
 2875 0062 AA       		.byte	-86
 2876 0063 FB       		.byte	-5
 2877 0064 43       		.byte	67
 2878 0065 4D       		.byte	77
 2879 0066 33       		.byte	51
 2880 0067 85       		.byte	-123
 2881 0068 45       		.byte	69
 2882 0069 F9       		.byte	-7
 2883 006a 02       		.byte	2
 2884 006b 7F       		.byte	127
 2885 006c 50       		.byte	80
 2886 006d 3C       		.byte	60
 2887 006e 9F       		.byte	-97
 2888 006f A8       		.byte	-88
 2889 0070 51       		.byte	81
 2890 0071 A3       		.byte	-93
 2891 0072 40       		.byte	64
 2892 0073 8F       		.byte	-113
 2893 0074 92       		.byte	-110
 2894 0075 9D       		.byte	-99
 2895 0076 38       		.byte	56
 2896 0077 F5       		.byte	-11
 2897 0078 BC       		.byte	-68
ARM GAS  C:\Users\jo\AppData\Local\Temp\ccwlN2BW.s 			page 52


 2898 0079 B6       		.byte	-74
 2899 007a DA       		.byte	-38
 2900 007b 21       		.byte	33
 2901 007c 10       		.byte	16
 2902 007d FF       		.byte	-1
 2903 007e F3       		.byte	-13
 2904 007f D2       		.byte	-46
 2905 0080 CD       		.byte	-51
 2906 0081 0C       		.byte	12
 2907 0082 13       		.byte	19
 2908 0083 EC       		.byte	-20
 2909 0084 5F       		.byte	95
 2910 0085 97       		.byte	-105
 2911 0086 44       		.byte	68
 2912 0087 17       		.byte	23
 2913 0088 C4       		.byte	-60
 2914 0089 A7       		.byte	-89
 2915 008a 7E       		.byte	126
 2916 008b 3D       		.byte	61
 2917 008c 64       		.byte	100
 2918 008d 5D       		.byte	93
 2919 008e 19       		.byte	25
 2920 008f 73       		.byte	115
 2921 0090 60       		.byte	96
 2922 0091 81       		.byte	-127
 2923 0092 4F       		.byte	79
 2924 0093 DC       		.byte	-36
 2925 0094 22       		.byte	34
 2926 0095 2A       		.byte	42
 2927 0096 90       		.byte	-112
 2928 0097 88       		.byte	-120
 2929 0098 46       		.byte	70
 2930 0099 EE       		.byte	-18
 2931 009a B8       		.byte	-72
 2932 009b 14       		.byte	20
 2933 009c DE       		.byte	-34
 2934 009d 5E       		.byte	94
 2935 009e 0B       		.byte	11
 2936 009f DB       		.byte	-37
 2937 00a0 E0       		.byte	-32
 2938 00a1 32       		.byte	50
 2939 00a2 3A       		.byte	58
 2940 00a3 0A       		.byte	10
 2941 00a4 49       		.byte	73
 2942 00a5 06       		.byte	6
 2943 00a6 24       		.byte	36
 2944 00a7 5C       		.byte	92
 2945 00a8 C2       		.byte	-62
 2946 00a9 D3       		.byte	-45
 2947 00aa AC       		.byte	-84
 2948 00ab 62       		.byte	98
 2949 00ac 91       		.byte	-111
 2950 00ad 95       		.byte	-107
 2951 00ae E4       		.byte	-28
 2952 00af 79       		.byte	121
 2953 00b0 E7       		.byte	-25
 2954 00b1 C8       		.byte	-56
ARM GAS  C:\Users\jo\AppData\Local\Temp\ccwlN2BW.s 			page 53


 2955 00b2 37       		.byte	55
 2956 00b3 6D       		.byte	109
 2957 00b4 8D       		.byte	-115
 2958 00b5 D5       		.byte	-43
 2959 00b6 4E       		.byte	78
 2960 00b7 A9       		.byte	-87
 2961 00b8 6C       		.byte	108
 2962 00b9 56       		.byte	86
 2963 00ba F4       		.byte	-12
 2964 00bb EA       		.byte	-22
 2965 00bc 65       		.byte	101
 2966 00bd 7A       		.byte	122
 2967 00be AE       		.byte	-82
 2968 00bf 08       		.byte	8
 2969 00c0 BA       		.byte	-70
 2970 00c1 78       		.byte	120
 2971 00c2 25       		.byte	37
 2972 00c3 2E       		.byte	46
 2973 00c4 1C       		.byte	28
 2974 00c5 A6       		.byte	-90
 2975 00c6 B4       		.byte	-76
 2976 00c7 C6       		.byte	-58
 2977 00c8 E8       		.byte	-24
 2978 00c9 DD       		.byte	-35
 2979 00ca 74       		.byte	116
 2980 00cb 1F       		.byte	31
 2981 00cc 4B       		.byte	75
 2982 00cd BD       		.byte	-67
 2983 00ce 8B       		.byte	-117
 2984 00cf 8A       		.byte	-118
 2985 00d0 70       		.byte	112
 2986 00d1 3E       		.byte	62
 2987 00d2 B5       		.byte	-75
 2988 00d3 66       		.byte	102
 2989 00d4 48       		.byte	72
 2990 00d5 03       		.byte	3
 2991 00d6 F6       		.byte	-10
 2992 00d7 0E       		.byte	14
 2993 00d8 61       		.byte	97
 2994 00d9 35       		.byte	53
 2995 00da 57       		.byte	87
 2996 00db B9       		.byte	-71
 2997 00dc 86       		.byte	-122
 2998 00dd C1       		.byte	-63
 2999 00de 1D       		.byte	29
 3000 00df 9E       		.byte	-98
 3001 00e0 E1       		.byte	-31
 3002 00e1 F8       		.byte	-8
 3003 00e2 98       		.byte	-104
 3004 00e3 11       		.byte	17
 3005 00e4 69       		.byte	105
 3006 00e5 D9       		.byte	-39
 3007 00e6 8E       		.byte	-114
 3008 00e7 94       		.byte	-108
 3009 00e8 9B       		.byte	-101
 3010 00e9 1E       		.byte	30
 3011 00ea 87       		.byte	-121
ARM GAS  C:\Users\jo\AppData\Local\Temp\ccwlN2BW.s 			page 54


 3012 00eb E9       		.byte	-23
 3013 00ec CE       		.byte	-50
 3014 00ed 55       		.byte	85
 3015 00ee 28       		.byte	40
 3016 00ef DF       		.byte	-33
 3017 00f0 8C       		.byte	-116
 3018 00f1 A1       		.byte	-95
 3019 00f2 89       		.byte	-119
 3020 00f3 0D       		.byte	13
 3021 00f4 BF       		.byte	-65
 3022 00f5 E6       		.byte	-26
 3023 00f6 42       		.byte	66
 3024 00f7 68       		.byte	104
 3025 00f8 41       		.byte	65
 3026 00f9 99       		.byte	-103
 3027 00fa 2D       		.byte	45
 3028 00fb 0F       		.byte	15
 3029 00fc B0       		.byte	-80
 3030 00fd 54       		.byte	84
 3031 00fe BB       		.byte	-69
 3032 00ff 16       		.byte	22
 3033              		.section	.rodata.aes_test_ecb_dec,"a",%progbits
 3034              		.align	2
 3035              		.set	.LANCHOR11,. + 0
 3036              		.type	aes_test_ecb_dec, %object
 3037              		.size	aes_test_ecb_dec, 48
 3038              	aes_test_ecb_dec:
 3039 0000 44       		.byte	68
 3040 0001 41       		.byte	65
 3041 0002 6A       		.byte	106
 3042 0003 C2       		.byte	-62
 3043 0004 D1       		.byte	-47
 3044 0005 F5       		.byte	-11
 3045 0006 3C       		.byte	60
 3046 0007 58       		.byte	88
 3047 0008 33       		.byte	51
 3048 0009 03       		.byte	3
 3049 000a 91       		.byte	-111
 3050 000b 7E       		.byte	126
 3051 000c 6B       		.byte	107
 3052 000d E9       		.byte	-23
 3053 000e EB       		.byte	-21
 3054 000f E0       		.byte	-32
 3055 0010 48       		.byte	72
 3056 0011 E3       		.byte	-29
 3057 0012 1E       		.byte	30
 3058 0013 9E       		.byte	-98
 3059 0014 25       		.byte	37
 3060 0015 67       		.byte	103
 3061 0016 18       		.byte	24
 3062 0017 F2       		.byte	-14
 3063 0018 92       		.byte	-110
 3064 0019 29       		.byte	41
 3065 001a 31       		.byte	49
 3066 001b 9C       		.byte	-100
 3067 001c 19       		.byte	25
 3068 001d F1       		.byte	-15
ARM GAS  C:\Users\jo\AppData\Local\Temp\ccwlN2BW.s 			page 55


 3069 001e 5B       		.byte	91
 3070 001f A4       		.byte	-92
 3071 0020 05       		.byte	5
 3072 0021 8C       		.byte	-116
 3073 0022 CF       		.byte	-49
 3074 0023 FD       		.byte	-3
 3075 0024 BB       		.byte	-69
 3076 0025 CB       		.byte	-53
 3077 0026 38       		.byte	56
 3078 0027 2D       		.byte	45
 3079 0028 1F       		.byte	31
 3080 0029 6F       		.byte	111
 3081 002a 56       		.byte	86
 3082 002b 58       		.byte	88
 3083 002c 5D       		.byte	93
 3084 002d 8A       		.byte	-118
 3085 002e 4A       		.byte	74
 3086 002f DE       		.byte	-34
 3087              		.section	.rodata.RSb,"a",%progbits
 3088              		.align	2
 3089              		.set	.LANCHOR6,. + 0
 3090              		.type	RSb, %object
 3091              		.size	RSb, 256
 3092              	RSb:
 3093 0000 52       		.byte	82
 3094 0001 09       		.byte	9
 3095 0002 6A       		.byte	106
 3096 0003 D5       		.byte	-43
 3097 0004 30       		.byte	48
 3098 0005 36       		.byte	54
 3099 0006 A5       		.byte	-91
 3100 0007 38       		.byte	56
 3101 0008 BF       		.byte	-65
 3102 0009 40       		.byte	64
 3103 000a A3       		.byte	-93
 3104 000b 9E       		.byte	-98
 3105 000c 81       		.byte	-127
 3106 000d F3       		.byte	-13
 3107 000e D7       		.byte	-41
 3108 000f FB       		.byte	-5
 3109 0010 7C       		.byte	124
 3110 0011 E3       		.byte	-29
 3111 0012 39       		.byte	57
 3112 0013 82       		.byte	-126
 3113 0014 9B       		.byte	-101
 3114 0015 2F       		.byte	47
 3115 0016 FF       		.byte	-1
 3116 0017 87       		.byte	-121
 3117 0018 34       		.byte	52
 3118 0019 8E       		.byte	-114
 3119 001a 43       		.byte	67
 3120 001b 44       		.byte	68
 3121 001c C4       		.byte	-60
 3122 001d DE       		.byte	-34
 3123 001e E9       		.byte	-23
 3124 001f CB       		.byte	-53
 3125 0020 54       		.byte	84
ARM GAS  C:\Users\jo\AppData\Local\Temp\ccwlN2BW.s 			page 56


 3126 0021 7B       		.byte	123
 3127 0022 94       		.byte	-108
 3128 0023 32       		.byte	50
 3129 0024 A6       		.byte	-90
 3130 0025 C2       		.byte	-62
 3131 0026 23       		.byte	35
 3132 0027 3D       		.byte	61
 3133 0028 EE       		.byte	-18
 3134 0029 4C       		.byte	76
 3135 002a 95       		.byte	-107
 3136 002b 0B       		.byte	11
 3137 002c 42       		.byte	66
 3138 002d FA       		.byte	-6
 3139 002e C3       		.byte	-61
 3140 002f 4E       		.byte	78
 3141 0030 08       		.byte	8
 3142 0031 2E       		.byte	46
 3143 0032 A1       		.byte	-95
 3144 0033 66       		.byte	102
 3145 0034 28       		.byte	40
 3146 0035 D9       		.byte	-39
 3147 0036 24       		.byte	36
 3148 0037 B2       		.byte	-78
 3149 0038 76       		.byte	118
 3150 0039 5B       		.byte	91
 3151 003a A2       		.byte	-94
 3152 003b 49       		.byte	73
 3153 003c 6D       		.byte	109
 3154 003d 8B       		.byte	-117
 3155 003e D1       		.byte	-47
 3156 003f 25       		.byte	37
 3157 0040 72       		.byte	114
 3158 0041 F8       		.byte	-8
 3159 0042 F6       		.byte	-10
 3160 0043 64       		.byte	100
 3161 0044 86       		.byte	-122
 3162 0045 68       		.byte	104
 3163 0046 98       		.byte	-104
 3164 0047 16       		.byte	22
 3165 0048 D4       		.byte	-44
 3166 0049 A4       		.byte	-92
 3167 004a 5C       		.byte	92
 3168 004b CC       		.byte	-52
 3169 004c 5D       		.byte	93
 3170 004d 65       		.byte	101
 3171 004e B6       		.byte	-74
 3172 004f 92       		.byte	-110
 3173 0050 6C       		.byte	108
 3174 0051 70       		.byte	112
 3175 0052 48       		.byte	72
 3176 0053 50       		.byte	80
 3177 0054 FD       		.byte	-3
 3178 0055 ED       		.byte	-19
 3179 0056 B9       		.byte	-71
 3180 0057 DA       		.byte	-38
 3181 0058 5E       		.byte	94
 3182 0059 15       		.byte	21
ARM GAS  C:\Users\jo\AppData\Local\Temp\ccwlN2BW.s 			page 57


 3183 005a 46       		.byte	70
 3184 005b 57       		.byte	87
 3185 005c A7       		.byte	-89
 3186 005d 8D       		.byte	-115
 3187 005e 9D       		.byte	-99
 3188 005f 84       		.byte	-124
 3189 0060 90       		.byte	-112
 3190 0061 D8       		.byte	-40
 3191 0062 AB       		.byte	-85
 3192 0063 00       		.byte	0
 3193 0064 8C       		.byte	-116
 3194 0065 BC       		.byte	-68
 3195 0066 D3       		.byte	-45
 3196 0067 0A       		.byte	10
 3197 0068 F7       		.byte	-9
 3198 0069 E4       		.byte	-28
 3199 006a 58       		.byte	88
 3200 006b 05       		.byte	5
 3201 006c B8       		.byte	-72
 3202 006d B3       		.byte	-77
 3203 006e 45       		.byte	69
 3204 006f 06       		.byte	6
 3205 0070 D0       		.byte	-48
 3206 0071 2C       		.byte	44
 3207 0072 1E       		.byte	30
 3208 0073 8F       		.byte	-113
 3209 0074 CA       		.byte	-54
 3210 0075 3F       		.byte	63
 3211 0076 0F       		.byte	15
 3212 0077 02       		.byte	2
 3213 0078 C1       		.byte	-63
 3214 0079 AF       		.byte	-81
 3215 007a BD       		.byte	-67
 3216 007b 03       		.byte	3
 3217 007c 01       		.byte	1
 3218 007d 13       		.byte	19
 3219 007e 8A       		.byte	-118
 3220 007f 6B       		.byte	107
 3221 0080 3A       		.byte	58
 3222 0081 91       		.byte	-111
 3223 0082 11       		.byte	17
 3224 0083 41       		.byte	65
 3225 0084 4F       		.byte	79
 3226 0085 67       		.byte	103
 3227 0086 DC       		.byte	-36
 3228 0087 EA       		.byte	-22
 3229 0088 97       		.byte	-105
 3230 0089 F2       		.byte	-14
 3231 008a CF       		.byte	-49
 3232 008b CE       		.byte	-50
 3233 008c F0       		.byte	-16
 3234 008d B4       		.byte	-76
 3235 008e E6       		.byte	-26
 3236 008f 73       		.byte	115
 3237 0090 96       		.byte	-106
 3238 0091 AC       		.byte	-84
 3239 0092 74       		.byte	116
ARM GAS  C:\Users\jo\AppData\Local\Temp\ccwlN2BW.s 			page 58


 3240 0093 22       		.byte	34
 3241 0094 E7       		.byte	-25
 3242 0095 AD       		.byte	-83
 3243 0096 35       		.byte	53
 3244 0097 85       		.byte	-123
 3245 0098 E2       		.byte	-30
 3246 0099 F9       		.byte	-7
 3247 009a 37       		.byte	55
 3248 009b E8       		.byte	-24
 3249 009c 1C       		.byte	28
 3250 009d 75       		.byte	117
 3251 009e DF       		.byte	-33
 3252 009f 6E       		.byte	110
 3253 00a0 47       		.byte	71
 3254 00a1 F1       		.byte	-15
 3255 00a2 1A       		.byte	26
 3256 00a3 71       		.byte	113
 3257 00a4 1D       		.byte	29
 3258 00a5 29       		.byte	41
 3259 00a6 C5       		.byte	-59
 3260 00a7 89       		.byte	-119
 3261 00a8 6F       		.byte	111
 3262 00a9 B7       		.byte	-73
 3263 00aa 62       		.byte	98
 3264 00ab 0E       		.byte	14
 3265 00ac AA       		.byte	-86
 3266 00ad 18       		.byte	24
 3267 00ae BE       		.byte	-66
 3268 00af 1B       		.byte	27
 3269 00b0 FC       		.byte	-4
 3270 00b1 56       		.byte	86
 3271 00b2 3E       		.byte	62
 3272 00b3 4B       		.byte	75
 3273 00b4 C6       		.byte	-58
 3274 00b5 D2       		.byte	-46
 3275 00b6 79       		.byte	121
 3276 00b7 20       		.byte	32
 3277 00b8 9A       		.byte	-102
 3278 00b9 DB       		.byte	-37
 3279 00ba C0       		.byte	-64
 3280 00bb FE       		.byte	-2
 3281 00bc 78       		.byte	120
 3282 00bd CD       		.byte	-51
 3283 00be 5A       		.byte	90
 3284 00bf F4       		.byte	-12
 3285 00c0 1F       		.byte	31
 3286 00c1 DD       		.byte	-35
 3287 00c2 A8       		.byte	-88
 3288 00c3 33       		.byte	51
 3289 00c4 88       		.byte	-120
 3290 00c5 07       		.byte	7
 3291 00c6 C7       		.byte	-57
 3292 00c7 31       		.byte	49
 3293 00c8 B1       		.byte	-79
 3294 00c9 12       		.byte	18
 3295 00ca 10       		.byte	16
 3296 00cb 59       		.byte	89
ARM GAS  C:\Users\jo\AppData\Local\Temp\ccwlN2BW.s 			page 59


 3297 00cc 27       		.byte	39
 3298 00cd 80       		.byte	-128
 3299 00ce EC       		.byte	-20
 3300 00cf 5F       		.byte	95
 3301 00d0 60       		.byte	96
 3302 00d1 51       		.byte	81
 3303 00d2 7F       		.byte	127
 3304 00d3 A9       		.byte	-87
 3305 00d4 19       		.byte	25
 3306 00d5 B5       		.byte	-75
 3307 00d6 4A       		.byte	74
 3308 00d7 0D       		.byte	13
 3309 00d8 2D       		.byte	45
 3310 00d9 E5       		.byte	-27
 3311 00da 7A       		.byte	122
 3312 00db 9F       		.byte	-97
 3313 00dc 93       		.byte	-109
 3314 00dd C9       		.byte	-55
 3315 00de 9C       		.byte	-100
 3316 00df EF       		.byte	-17
 3317 00e0 A0       		.byte	-96
 3318 00e1 E0       		.byte	-32
 3319 00e2 3B       		.byte	59
 3320 00e3 4D       		.byte	77
 3321 00e4 AE       		.byte	-82
 3322 00e5 2A       		.byte	42
 3323 00e6 F5       		.byte	-11
 3324 00e7 B0       		.byte	-80
 3325 00e8 C8       		.byte	-56
 3326 00e9 EB       		.byte	-21
 3327 00ea BB       		.byte	-69
 3328 00eb 3C       		.byte	60
 3329 00ec 83       		.byte	-125
 3330 00ed 53       		.byte	83
 3331 00ee 99       		.byte	-103
 3332 00ef 61       		.byte	97
 3333 00f0 17       		.byte	23
 3334 00f1 2B       		.byte	43
 3335 00f2 04       		.byte	4
 3336 00f3 7E       		.byte	126
 3337 00f4 BA       		.byte	-70
 3338 00f5 77       		.byte	119
 3339 00f6 D6       		.byte	-42
 3340 00f7 26       		.byte	38
 3341 00f8 E1       		.byte	-31
 3342 00f9 69       		.byte	105
 3343 00fa 14       		.byte	20
 3344 00fb 63       		.byte	99
 3345 00fc 55       		.byte	85
 3346 00fd 21       		.byte	33
 3347 00fe 0C       		.byte	12
 3348 00ff 7D       		.byte	125
 3349              		.section	.rodata.aes_test_ctr_nonce_counter,"a",%progbits
 3350              		.align	2
 3351              		.set	.LANCHOR19,. + 0
 3352              		.type	aes_test_ctr_nonce_counter, %object
 3353              		.size	aes_test_ctr_nonce_counter, 48
ARM GAS  C:\Users\jo\AppData\Local\Temp\ccwlN2BW.s 			page 60


 3354              	aes_test_ctr_nonce_counter:
 3355 0000 00       		.byte	0
 3356 0001 00       		.byte	0
 3357 0002 00       		.byte	0
 3358 0003 30       		.byte	48
 3359 0004 00       		.byte	0
 3360 0005 00       		.byte	0
 3361 0006 00       		.byte	0
 3362 0007 00       		.byte	0
 3363 0008 00       		.byte	0
 3364 0009 00       		.byte	0
 3365 000a 00       		.byte	0
 3366 000b 00       		.byte	0
 3367 000c 00       		.byte	0
 3368 000d 00       		.byte	0
 3369 000e 00       		.byte	0
 3370 000f 01       		.byte	1
 3371 0010 00       		.byte	0
 3372 0011 6C       		.byte	108
 3373 0012 B6       		.byte	-74
 3374 0013 DB       		.byte	-37
 3375 0014 C0       		.byte	-64
 3376 0015 54       		.byte	84
 3377 0016 3B       		.byte	59
 3378 0017 59       		.byte	89
 3379 0018 DA       		.byte	-38
 3380 0019 48       		.byte	72
 3381 001a D9       		.byte	-39
 3382 001b 0B       		.byte	11
 3383 001c 00       		.byte	0
 3384 001d 00       		.byte	0
 3385 001e 00       		.byte	0
 3386 001f 01       		.byte	1
 3387 0020 00       		.byte	0
 3388 0021 E0       		.byte	-32
 3389 0022 01       		.byte	1
 3390 0023 7B       		.byte	123
 3391 0024 27       		.byte	39
 3392 0025 77       		.byte	119
 3393 0026 7F       		.byte	127
 3394 0027 3F       		.byte	63
 3395 0028 4A       		.byte	74
 3396 0029 17       		.byte	23
 3397 002a 86       		.byte	-122
 3398 002b F0       		.byte	-16
 3399 002c 00       		.byte	0
 3400 002d 00       		.byte	0
 3401 002e 00       		.byte	0
 3402 002f 01       		.byte	1
 3403              		.section	.rodata.aes_test_cfb128_ct,"a",%progbits
 3404              		.align	2
 3405              		.set	.LANCHOR17,. + 0
 3406              		.type	aes_test_cfb128_ct, %object
 3407              		.size	aes_test_cfb128_ct, 192
 3408              	aes_test_cfb128_ct:
 3409 0000 3B       		.byte	59
 3410 0001 3F       		.byte	63
ARM GAS  C:\Users\jo\AppData\Local\Temp\ccwlN2BW.s 			page 61


 3411 0002 D9       		.byte	-39
 3412 0003 2E       		.byte	46
 3413 0004 B7       		.byte	-73
 3414 0005 2D       		.byte	45
 3415 0006 AD       		.byte	-83
 3416 0007 20       		.byte	32
 3417 0008 33       		.byte	51
 3418 0009 34       		.byte	52
 3419 000a 49       		.byte	73
 3420 000b F8       		.byte	-8
 3421 000c E8       		.byte	-24
 3422 000d 3C       		.byte	60
 3423 000e FB       		.byte	-5
 3424 000f 4A       		.byte	74
 3425 0010 C8       		.byte	-56
 3426 0011 A6       		.byte	-90
 3427 0012 45       		.byte	69
 3428 0013 37       		.byte	55
 3429 0014 A0       		.byte	-96
 3430 0015 B3       		.byte	-77
 3431 0016 A9       		.byte	-87
 3432 0017 3F       		.byte	63
 3433 0018 CD       		.byte	-51
 3434 0019 E3       		.byte	-29
 3435 001a CD       		.byte	-51
 3436 001b AD       		.byte	-83
 3437 001c 9F       		.byte	-97
 3438 001d 1C       		.byte	28
 3439 001e E5       		.byte	-27
 3440 001f 8B       		.byte	-117
 3441 0020 26       		.byte	38
 3442 0021 75       		.byte	117
 3443 0022 1F       		.byte	31
 3444 0023 67       		.byte	103
 3445 0024 A3       		.byte	-93
 3446 0025 CB       		.byte	-53
 3447 0026 B1       		.byte	-79
 3448 0027 40       		.byte	64
 3449 0028 B1       		.byte	-79
 3450 0029 80       		.byte	-128
 3451 002a 8C       		.byte	-116
 3452 002b F1       		.byte	-15
 3453 002c 87       		.byte	-121
 3454 002d A4       		.byte	-92
 3455 002e F4       		.byte	-12
 3456 002f DF       		.byte	-33
 3457 0030 C0       		.byte	-64
 3458 0031 4B       		.byte	75
 3459 0032 05       		.byte	5
 3460 0033 35       		.byte	53
 3461 0034 7C       		.byte	124
 3462 0035 5D       		.byte	93
 3463 0036 1C       		.byte	28
 3464 0037 0E       		.byte	14
 3465 0038 EA       		.byte	-22
 3466 0039 C4       		.byte	-60
 3467 003a C6       		.byte	-58
ARM GAS  C:\Users\jo\AppData\Local\Temp\ccwlN2BW.s 			page 62


 3468 003b 6F       		.byte	111
 3469 003c 9F       		.byte	-97
 3470 003d F7       		.byte	-9
 3471 003e F2       		.byte	-14
 3472 003f E6       		.byte	-26
 3473 0040 CD       		.byte	-51
 3474 0041 C8       		.byte	-56
 3475 0042 0D       		.byte	13
 3476 0043 6F       		.byte	111
 3477 0044 DD       		.byte	-35
 3478 0045 F1       		.byte	-15
 3479 0046 8C       		.byte	-116
 3480 0047 AB       		.byte	-85
 3481 0048 34       		.byte	52
 3482 0049 C2       		.byte	-62
 3483 004a 59       		.byte	89
 3484 004b 09       		.byte	9
 3485 004c C9       		.byte	-55
 3486 004d 9A       		.byte	-102
 3487 004e 41       		.byte	65
 3488 004f 74       		.byte	116
 3489 0050 67       		.byte	103
 3490 0051 CE       		.byte	-50
 3491 0052 7F       		.byte	127
 3492 0053 7F       		.byte	127
 3493 0054 81       		.byte	-127
 3494 0055 17       		.byte	23
 3495 0056 36       		.byte	54
 3496 0057 21       		.byte	33
 3497 0058 96       		.byte	-106
 3498 0059 1A       		.byte	26
 3499 005a 2B       		.byte	43
 3500 005b 70       		.byte	112
 3501 005c 17       		.byte	23
 3502 005d 1D       		.byte	29
 3503 005e 3D       		.byte	61
 3504 005f 7A       		.byte	122
 3505 0060 2E       		.byte	46
 3506 0061 1E       		.byte	30
 3507 0062 8A       		.byte	-118
 3508 0063 1D       		.byte	29
 3509 0064 D5       		.byte	-43
 3510 0065 9B       		.byte	-101
 3511 0066 88       		.byte	-120
 3512 0067 B1       		.byte	-79
 3513 0068 C8       		.byte	-56
 3514 0069 E6       		.byte	-26
 3515 006a 0F       		.byte	15
 3516 006b ED       		.byte	-19
 3517 006c 1E       		.byte	30
 3518 006d FA       		.byte	-6
 3519 006e C4       		.byte	-60
 3520 006f C9       		.byte	-55
 3521 0070 C0       		.byte	-64
 3522 0071 5F       		.byte	95
 3523 0072 9F       		.byte	-97
 3524 0073 9C       		.byte	-100
ARM GAS  C:\Users\jo\AppData\Local\Temp\ccwlN2BW.s 			page 63


 3525 0074 A9       		.byte	-87
 3526 0075 83       		.byte	-125
 3527 0076 4F       		.byte	79
 3528 0077 A0       		.byte	-96
 3529 0078 42       		.byte	66
 3530 0079 AE       		.byte	-82
 3531 007a 8F       		.byte	-113
 3532 007b BA       		.byte	-70
 3533 007c 58       		.byte	88
 3534 007d 4B       		.byte	75
 3535 007e 09       		.byte	9
 3536 007f FF       		.byte	-1
 3537 0080 DC       		.byte	-36
 3538 0081 7E       		.byte	126
 3539 0082 84       		.byte	-124
 3540 0083 BF       		.byte	-65
 3541 0084 DA       		.byte	-38
 3542 0085 79       		.byte	121
 3543 0086 16       		.byte	22
 3544 0087 4B       		.byte	75
 3545 0088 7E       		.byte	126
 3546 0089 CD       		.byte	-51
 3547 008a 84       		.byte	-124
 3548 008b 86       		.byte	-122
 3549 008c 98       		.byte	-104
 3550 008d 5D       		.byte	93
 3551 008e 38       		.byte	56
 3552 008f 60       		.byte	96
 3553 0090 39       		.byte	57
 3554 0091 FF       		.byte	-1
 3555 0092 ED       		.byte	-19
 3556 0093 14       		.byte	20
 3557 0094 3B       		.byte	59
 3558 0095 28       		.byte	40
 3559 0096 B1       		.byte	-79
 3560 0097 C8       		.byte	-56
 3561 0098 32       		.byte	50
 3562 0099 11       		.byte	17
 3563 009a 3C       		.byte	60
 3564 009b 63       		.byte	99
 3565 009c 31       		.byte	49
 3566 009d E5       		.byte	-27
 3567 009e 40       		.byte	64
 3568 009f 7B       		.byte	123
 3569 00a0 DF       		.byte	-33
 3570 00a1 10       		.byte	16
 3571 00a2 13       		.byte	19
 3572 00a3 24       		.byte	36
 3573 00a4 15       		.byte	21
 3574 00a5 E5       		.byte	-27
 3575 00a6 4B       		.byte	75
 3576 00a7 92       		.byte	-110
 3577 00a8 A1       		.byte	-95
 3578 00a9 3E       		.byte	62
 3579 00aa D0       		.byte	-48
 3580 00ab A8       		.byte	-88
 3581 00ac 26       		.byte	38
ARM GAS  C:\Users\jo\AppData\Local\Temp\ccwlN2BW.s 			page 64


 3582 00ad 7A       		.byte	122
 3583 00ae E2       		.byte	-30
 3584 00af F9       		.byte	-7
 3585 00b0 75       		.byte	117
 3586 00b1 A3       		.byte	-93
 3587 00b2 85       		.byte	-123
 3588 00b3 74       		.byte	116
 3589 00b4 1A       		.byte	26
 3590 00b5 B9       		.byte	-71
 3591 00b6 CE       		.byte	-50
 3592 00b7 F8       		.byte	-8
 3593 00b8 20       		.byte	32
 3594 00b9 31       		.byte	49
 3595 00ba 62       		.byte	98
 3596 00bb 3D       		.byte	61
 3597 00bc 55       		.byte	85
 3598 00bd B1       		.byte	-79
 3599 00be E4       		.byte	-28
 3600 00bf 71       		.byte	113
 3601              		.section	.rodata.FT1,"a",%progbits
 3602              		.align	2
 3603              		.set	.LANCHOR9,. + 0
 3604              		.type	FT1, %object
 3605              		.size	FT1, 1024
 3606              	FT1:
 3607 0000 A5C66363 		.word	1667483301
 3608 0004 84F87C7C 		.word	2088564868
 3609 0008 99EE7777 		.word	2004348569
 3610 000c 8DF67B7B 		.word	2071721613
 3611 0010 0DFFF2F2 		.word	-218956019
 3612 0014 BDD66B6B 		.word	1802229437
 3613 0018 B1DE6F6F 		.word	1869602481
 3614 001c 5491C5C5 		.word	-976907948
 3615 0020 50603030 		.word	808476752
 3616 0024 03020101 		.word	16843267
 3617 0028 A9CE6767 		.word	1734856361
 3618 002c 7D562B2B 		.word	724260477
 3619 0030 19E7FEFE 		.word	-16849127
 3620 0034 62B5D7D7 		.word	-673729182
 3621 0038 E64DABAB 		.word	-1414836762
 3622 003c 9AEC7676 		.word	1987505306
 3623 0040 458FCACA 		.word	-892694715
 3624 0044 9D1F8282 		.word	-2105401443
 3625 0048 4089C9C9 		.word	-909539008
 3626 004c 87FA7D7D 		.word	2105408135
 3627 0050 15EFFAFA 		.word	-84218091
 3628 0054 EBB25959 		.word	1499050731
 3629 0058 C98E4747 		.word	1195871945
 3630 005c 0BFBF0F0 		.word	-252642549
 3631 0060 EC41ADAD 		.word	-1381154324
 3632 0064 67B3D4D4 		.word	-724257945
 3633 0068 FD5FA2A2 		.word	-1566416899
 3634 006c EA45AFAF 		.word	-1347467798
 3635 0070 BF239C9C 		.word	-1667488833
 3636 0074 F753A4A4 		.word	-1532734473
 3637 0078 96E47272 		.word	1920132246
 3638 007c 5B9BC0C0 		.word	-1061119141
ARM GAS  C:\Users\jo\AppData\Local\Temp\ccwlN2BW.s 			page 65


 3639 0080 C275B7B7 		.word	-1212713534
 3640 0084 1CE1FDFD 		.word	-33693412
 3641 0088 AE3D9393 		.word	-1819066962
 3642 008c 6A4C2626 		.word	640044138
 3643 0090 5A6C3636 		.word	909536346
 3644 0094 417E3F3F 		.word	1061125697
 3645 0098 02F5F7F7 		.word	-134744830
 3646 009c 4F83CCCC 		.word	-859012273
 3647 00a0 5C683434 		.word	875849820
 3648 00a4 F451A5A5 		.word	-1515892236
 3649 00a8 34D1E5E5 		.word	-437923532
 3650 00ac 08F9F1F1 		.word	-235800312
 3651 00b0 93E27171 		.word	1903288979
 3652 00b4 73ABD8D8 		.word	-656888973
 3653 00b8 53623131 		.word	825320019
 3654 00bc 3F2A1515 		.word	353708607
 3655 00c0 0C080404 		.word	67373068
 3656 00c4 5295C7C7 		.word	-943221422
 3657 00c8 65462323 		.word	589514341
 3658 00cc 5E9DC3C3 		.word	-1010590370
 3659 00d0 28301818 		.word	404238376
 3660 00d4 A1379696 		.word	-1768540255
 3661 00d8 0F0A0505 		.word	84216335
 3662 00dc B52F9A9A 		.word	-1701171275
 3663 00e0 090E0707 		.word	117902857
 3664 00e4 36241212 		.word	303178806
 3665 00e8 9B1B8080 		.word	-2139087973
 3666 00ec 3DDFE2E2 		.word	-488448195
 3667 00f0 26CDEBEB 		.word	-336868058
 3668 00f4 694E2727 		.word	656887401
 3669 00f8 CD7FB2B2 		.word	-1296924723
 3670 00fc 9FEA7575 		.word	1970662047
 3671 0100 1B120909 		.word	151589403
 3672 0104 9E1D8383 		.word	-2088559202
 3673 0108 74582C2C 		.word	741103732
 3674 010c 2E341A1A 		.word	437924910
 3675 0110 2D361B1B 		.word	454768173
 3676 0114 B2DC6E6E 		.word	1852759218
 3677 0118 EEB45A5A 		.word	1515893998
 3678 011c FB5BA0A0 		.word	-1600103429
 3679 0120 F6A45252 		.word	1381147894
 3680 0124 4D763B3B 		.word	993752653
 3681 0128 61B7D6D6 		.word	-690571423
 3682 012c CE7DB3B3 		.word	-1280082482
 3683 0130 7B522929 		.word	690573947
 3684 0134 3EDDE3E3 		.word	-471605954
 3685 0138 715E2F2F 		.word	791633521
 3686 013c 97138484 		.word	-2071719017
 3687 0140 F5A65353 		.word	1397991157
 3688 0144 68B9D1D1 		.word	-774784664
 3689 0148 00000000 		.word	0
 3690 014c 2CC1EDED 		.word	-303185620
 3691 0150 60402020 		.word	538984544
 3692 0154 1FE3FCFC 		.word	-50535649
 3693 0158 C879B1B1 		.word	-1313769016
 3694 015c EDB65B5B 		.word	1532737261
 3695 0160 BED46A6A 		.word	1785386174
ARM GAS  C:\Users\jo\AppData\Local\Temp\ccwlN2BW.s 			page 66


 3696 0164 468DCBCB 		.word	-875852474
 3697 0168 D967BEBE 		.word	-1094817831
 3698 016c 4B723939 		.word	960066123
 3699 0170 DE944A4A 		.word	1246401758
 3700 0174 D4984C4C 		.word	1280088276
 3701 0178 E8B05858 		.word	1482207464
 3702 017c 4A85CFCF 		.word	-808483510
 3703 0180 6BBBD0D0 		.word	-791626901
 3704 0184 2AC5EFEF 		.word	-269499094
 3705 0188 E54FAAAA 		.word	-1431679003
 3706 018c 16EDFBFB 		.word	-67375850
 3707 0190 C5864343 		.word	1128498885
 3708 0194 D79A4D4D 		.word	1296931543
 3709 0198 55663333 		.word	859006549
 3710 019c 94118585 		.word	-2054876780
 3711 01a0 CF8A4545 		.word	1162185423
 3712 01a4 10E9F9F9 		.word	-101062384
 3713 01a8 06040202 		.word	33686534
 3714 01ac 81FE7F7F 		.word	2139094657
 3715 01b0 F0A05050 		.word	1347461360
 3716 01b4 44783C3C 		.word	1010595908
 3717 01b8 BA259F9F 		.word	-1616960070
 3718 01bc E34BA8A8 		.word	-1465365533
 3719 01c0 F3A25151 		.word	1364304627
 3720 01c4 FE5DA3A3 		.word	-1549574658
 3721 01c8 C0804040 		.word	1077969088
 3722 01cc 8A058F8F 		.word	-1886452342
 3723 01d0 AD3F9292 		.word	-1835909203
 3724 01d4 BC219D9D 		.word	-1650646596
 3725 01d8 48703838 		.word	943222856
 3726 01dc 04F1F5F5 		.word	-168431356
 3727 01e0 DF63BCBC 		.word	-1128504353
 3728 01e4 C177B6B6 		.word	-1229555775
 3729 01e8 75AFDADA 		.word	-623202443
 3730 01ec 63422121 		.word	555827811
 3731 01f0 30201010 		.word	269492272
 3732 01f4 1AE5FFFF 		.word	-6886
 3733 01f8 0EFDF3F3 		.word	-202113778
 3734 01fc 6DBFD2D2 		.word	-757940371
 3735 0200 4C81CDCD 		.word	-842170036
 3736 0204 14180C0C 		.word	202119188
 3737 0208 35261313 		.word	320022069
 3738 020c 2FC3ECEC 		.word	-320027857
 3739 0210 E1BE5F5F 		.word	1600110305
 3740 0214 A2359797 		.word	-1751698014
 3741 0218 CC884444 		.word	1145342156
 3742 021c 392E1717 		.word	387395129
 3743 0220 5793C4C4 		.word	-993750185
 3744 0224 F255A7A7 		.word	-1482205710
 3745 0228 82FC7E7E 		.word	2122251394
 3746 022c 477A3D3D 		.word	1027439175
 3747 0230 ACC86464 		.word	1684326572
 3748 0234 E7BA5D5D 		.word	1566423783
 3749 0238 2B321919 		.word	421081643
 3750 023c 95E67373 		.word	1936975509
 3751 0240 A0C06060 		.word	1616953504
 3752 0244 98198181 		.word	-2122245736
ARM GAS  C:\Users\jo\AppData\Local\Temp\ccwlN2BW.s 			page 67


 3753 0248 D19E4F4F 		.word	1330618065
 3754 024c 7FA3DCDC 		.word	-589520001
 3755 0250 66442222 		.word	572671078
 3756 0254 7E542A2A 		.word	707417214
 3757 0258 AB3B9090 		.word	-1869595733
 3758 025c 830B8888 		.word	-2004350077
 3759 0260 CA8C4646 		.word	1179028682
 3760 0264 29C7EEEE 		.word	-286341335
 3761 0268 D36BB8B8 		.word	-1195873325
 3762 026c 3C281414 		.word	336865340
 3763 0270 79A7DEDE 		.word	-555833479
 3764 0274 E2BC5E5E 		.word	1583267042
 3765 0278 1D160B0B 		.word	185275933
 3766 027c 76ADDBDB 		.word	-606360202
 3767 0280 3BDBE0E0 		.word	-522134725
 3768 0284 56643232 		.word	842163286
 3769 0288 4E743A3A 		.word	976909390
 3770 028c 1E140A0A 		.word	168432670
 3771 0290 DB924949 		.word	1229558491
 3772 0294 0A0C0606 		.word	101059594
 3773 0298 6C482424 		.word	606357612
 3774 029c E4B85C5C 		.word	1549580516
 3775 02a0 5D9FC2C2 		.word	-1027432611
 3776 02a4 6EBDD3D3 		.word	-741098130
 3777 02a8 EF43ACAC 		.word	-1397996561
 3778 02ac A6C46262 		.word	1650640038
 3779 02b0 A8399191 		.word	-1852753496
 3780 02b4 A4319595 		.word	-1785384540
 3781 02b8 37D3E4E4 		.word	-454765769
 3782 02bc 8BF27979 		.word	2038035083
 3783 02c0 32D5E7E7 		.word	-404237006
 3784 02c4 438BC8C8 		.word	-926381245
 3785 02c8 596E3737 		.word	926379609
 3786 02cc B7DA6D6D 		.word	1835915959
 3787 02d0 8C018D8D 		.word	-1920138868
 3788 02d4 64B1D5D5 		.word	-707415708
 3789 02d8 D29C4E4E 		.word	1313774802
 3790 02dc E049A9A9 		.word	-1448523296
 3791 02e0 B4D86C6C 		.word	1819072692
 3792 02e4 FAAC5656 		.word	1448520954
 3793 02e8 07F3F4F4 		.word	-185273593
 3794 02ec 25CFEAEA 		.word	-353710299
 3795 02f0 AFCA6565 		.word	1701169839
 3796 02f4 8EF47A7A 		.word	2054878350
 3797 02f8 E947AEAE 		.word	-1364310039
 3798 02fc 18100808 		.word	134746136
 3799 0300 D56FBABA 		.word	-1162186795
 3800 0304 88F07878 		.word	2021191816
 3801 0308 6F4A2525 		.word	623200879
 3802 030c 725C2E2E 		.word	774790258
 3803 0310 24381C1C 		.word	471611428
 3804 0314 F157A6A6 		.word	-1499047951
 3805 0318 C773B4B4 		.word	-1263242297
 3806 031c 5197C6C6 		.word	-960063663
 3807 0320 23CBE8E8 		.word	-387396829
 3808 0324 7CA1DDDD 		.word	-572677764
 3809 0328 9CE87474 		.word	1953818780
ARM GAS  C:\Users\jo\AppData\Local\Temp\ccwlN2BW.s 			page 68


 3810 032c 213E1F1F 		.word	522141217
 3811 0330 DD964B4B 		.word	1263245021
 3812 0334 DC61BDBD 		.word	-1111662116
 3813 0338 860D8B8B 		.word	-1953821306
 3814 033c 850F8A8A 		.word	-1970663547
 3815 0340 90E07070 		.word	1886445712
 3816 0344 427C3E3E 		.word	1044282434
 3817 0348 C471B5B5 		.word	-1246400060
 3818 034c AACC6666 		.word	1718013098
 3819 0350 D8904848 		.word	1212715224
 3820 0354 05060303 		.word	50529797
 3821 0358 01F7F6F6 		.word	-151587071
 3822 035c 121C0E0E 		.word	235805714
 3823 0360 A3C26161 		.word	1633796771
 3824 0364 5F6A3535 		.word	892693087
 3825 0368 F9AE5757 		.word	1465364217
 3826 036c D069B9B9 		.word	-1179031088
 3827 0370 91178686 		.word	-2038032495
 3828 0374 5899C1C1 		.word	-1044276904
 3829 0378 273A1D1D 		.word	488454695
 3830 037c B9279E9E 		.word	-1633802311
 3831 0380 38D9E1E1 		.word	-505292488
 3832 0384 13EBF8F8 		.word	-117904621
 3833 0388 B32B9898 		.word	-1734857805
 3834 038c 33221111 		.word	286335539
 3835 0390 BBD26969 		.word	1768542907
 3836 0394 70A9D9D9 		.word	-640046736
 3837 0398 89078E8E 		.word	-1903294583
 3838 039c A7339494 		.word	-1802226777
 3839 03a0 B62D9B9B 		.word	-1684329034
 3840 03a4 223C1E1E 		.word	505297954
 3841 03a8 92158787 		.word	-2021190254
 3842 03ac 20C9E9E9 		.word	-370554592
 3843 03b0 4987CECE 		.word	-825325751
 3844 03b4 FFAA5555 		.word	1431677695
 3845 03b8 78502828 		.word	673730680
 3846 03bc 7AA5DFDF 		.word	-538991238
 3847 03c0 8F038C8C 		.word	-1936981105
 3848 03c4 F859A1A1 		.word	-1583261192
 3849 03c8 80098989 		.word	-1987507840
 3850 03cc 171A0D0D 		.word	218962455
 3851 03d0 DA65BFBF 		.word	-1077975590
 3852 03d4 31D7E6E6 		.word	-421079247
 3853 03d8 C6844242 		.word	1111655622
 3854 03dc B8D06868 		.word	1751699640
 3855 03e0 C3824141 		.word	1094812355
 3856 03e4 B0299999 		.word	-1718015568
 3857 03e8 775A2D2D 		.word	757946999
 3858 03ec 111E0F0F 		.word	252648977
 3859 03f0 CB7BB0B0 		.word	-1330611253
 3860 03f4 FCA85454 		.word	1414834428
 3861 03f8 D66DBBBB 		.word	-1145344554
 3862 03fc 3A2C1616 		.word	370551866
 3863              		.section	.rodata.FT2,"a",%progbits
 3864              		.align	2
 3865              		.set	.LANCHOR10,. + 0
 3866              		.type	FT2, %object
ARM GAS  C:\Users\jo\AppData\Local\Temp\ccwlN2BW.s 			page 69


 3867              		.size	FT2, 1024
 3868              	FT2:
 3869 0000 63A5C663 		.word	1673962851
 3870 0004 7C84F87C 		.word	2096661628
 3871 0008 7799EE77 		.word	2012125559
 3872 000c 7B8DF67B 		.word	2079755643
 3873 0010 F20DFFF2 		.word	-218165774
 3874 0014 6BBDD66B 		.word	1809235307
 3875 0018 6FB1DE6F 		.word	1876865391
 3876 001c C55491C5 		.word	-980331323
 3877 0020 30506030 		.word	811618352
 3878 0024 01030201 		.word	16909057
 3879 0028 67A9CE67 		.word	1741597031
 3880 002c 2B7D562B 		.word	727088427
 3881 0030 FE19E7FE 		.word	-18408962
 3882 0034 D762B5D7 		.word	-675978537
 3883 0038 ABE64DAB 		.word	-1420958037
 3884 003c 769AEC76 		.word	1995217526
 3885 0040 CA458FCA 		.word	-896580150
 3886 0044 829D1F82 		.word	-2111857278
 3887 0048 C94089C9 		.word	-913751863
 3888 004c 7D87FA7D 		.word	2113570685
 3889 0050 FA15EFFA 		.word	-84994566
 3890 0054 59EBB259 		.word	1504897881
 3891 0058 47C98E47 		.word	1200539975
 3892 005c F00BFBF0 		.word	-251982864
 3893 0060 ADEC41AD 		.word	-1388188499
 3894 0064 D467B3D4 		.word	-726439980
 3895 0068 A2FD5FA2 		.word	-1570767454
 3896 006c AFEA45AF 		.word	-1354372433
 3897 0070 9CBF239C 		.word	-1675378788
 3898 0074 A4F753A4 		.word	-1538000988
 3899 0078 7296E472 		.word	1927583346
 3900 007c C05B9BC0 		.word	-1063560256
 3901 0080 B7C275B7 		.word	-1217019209
 3902 0084 FD1CE1FD 		.word	-35578627
 3903 0088 93AE3D93 		.word	-1824674157
 3904 008c 266A4C26 		.word	642542118
 3905 0090 365A6C36 		.word	913070646
 3906 0094 3F417E3F 		.word	1065238847
 3907 0098 F702F5F7 		.word	-134937865
 3908 009c CC4F83CC 		.word	-863809588
 3909 00a0 345C6834 		.word	879254580
 3910 00a4 A5F451A5 		.word	-1521355611
 3911 00a8 E534D1E5 		.word	-439274267
 3912 00ac F108F9F1 		.word	-235337487
 3913 00b0 7193E271 		.word	1910674289
 3914 00b4 D873ABD8 		.word	-659852328
 3915 00b8 31536231 		.word	828527409
 3916 00bc 153F2A15 		.word	355090197
 3917 00c0 040C0804 		.word	67636228
 3918 00c4 C75295C7 		.word	-946515257
 3919 00c8 23654623 		.word	591815971
 3920 00cc C35E9DC3 		.word	-1013096765
 3921 00d0 18283018 		.word	405809176
 3922 00d4 96A13796 		.word	-1774739050
 3923 00d8 050F0A05 		.word	84545285
ARM GAS  C:\Users\jo\AppData\Local\Temp\ccwlN2BW.s 			page 70


 3924 00dc 9AB52F9A 		.word	-1708149350
 3925 00e0 07090E07 		.word	118360327
 3926 00e4 12362412 		.word	304363026
 3927 00e8 809B1B80 		.word	-2145674368
 3928 00ec E23DDFE2 		.word	-488686110
 3929 00f0 EB26CDEB 		.word	-338876693
 3930 00f4 27694E27 		.word	659450151
 3931 00f8 B2CD7FB2 		.word	-1300247118
 3932 00fc 759FEA75 		.word	1978310517
 3933 0100 091B1209 		.word	152181513
 3934 0104 839E1D83 		.word	-2095210877
 3935 0108 2C74582C 		.word	743994412
 3936 010c 1A2E341A 		.word	439627290
 3937 0110 1B2D361B 		.word	456535323
 3938 0114 6EB2DC6E 		.word	1859957358
 3939 0118 5AEEB45A 		.word	1521806938
 3940 011c A0FB5BA0 		.word	-1604584544
 3941 0120 52F6A452 		.word	1386542674
 3942 0124 3B4D763B 		.word	997608763
 3943 0128 D661B7D6 		.word	-692624938
 3944 012c B3CE7DB3 		.word	-1283600717
 3945 0130 297B5229 		.word	693271337
 3946 0134 E33EDDE3 		.word	-472039709
 3947 0138 2F715E2F 		.word	794718511
 3948 013c 84971384 		.word	-2079090812
 3949 0140 53F5A653 		.word	1403450707
 3950 0144 D168B9D1 		.word	-776378159
 3951 0148 00000000 		.word	0
 3952 014c ED2CC1ED 		.word	-306107155
 3953 0150 20604020 		.word	541089824
 3954 0154 FC1FE3FC 		.word	-52224004
 3955 0158 B1C879B1 		.word	-1317418831
 3956 015c 5BEDB65B 		.word	1538714971
 3957 0160 6ABED46A 		.word	1792327274
 3958 0164 CB468DCB 		.word	-879933749
 3959 0168 BED967BE 		.word	-1100490306
 3960 016c 394B7239 		.word	963791673
 3961 0170 4ADE944A 		.word	1251270218
 3962 0174 4CD4984C 		.word	1285084236
 3963 0178 58E8B058 		.word	1487988824
 3964 017c CF4A85CF 		.word	-813348145
 3965 0180 D06BBBD0 		.word	-793023536
 3966 0184 EF2AC5EF 		.word	-272291089
 3967 0188 AAE54FAA 		.word	-1437604438
 3968 018c FB16EDFB 		.word	-68348165
 3969 0190 43C58643 		.word	1132905795
 3970 0194 4DD79A4D 		.word	1301993293
 3971 0198 33556633 		.word	862344499
 3972 019c 85941185 		.word	-2062445435
 3973 01a0 45CF8A45 		.word	1166724933
 3974 01a4 F910E9F9 		.word	-102166279
 3975 01a8 02060402 		.word	33818114
 3976 01ac 7F81FE7F 		.word	2147385727
 3977 01b0 50F0A050 		.word	1352724560
 3978 01b4 3C44783C 		.word	1014514748
 3979 01b8 9FBA259F 		.word	-1624917345
 3980 01bc A8E34BA8 		.word	-1471421528
ARM GAS  C:\Users\jo\AppData\Local\Temp\ccwlN2BW.s 			page 71


 3981 01c0 51F3A251 		.word	1369633617
 3982 01c4 A3FE5DA3 		.word	-1554121053
 3983 01c8 40C08040 		.word	1082179648
 3984 01cc 8F8A058F 		.word	-1895462257
 3985 01d0 92AD3F92 		.word	-1841320558
 3986 01d4 9DBC219D 		.word	-1658733411
 3987 01d8 38487038 		.word	946882616
 3988 01dc F504F1F5 		.word	-168753931
 3989 01e0 BCDF63BC 		.word	-1134305348
 3990 01e4 B6C177B6 		.word	-1233665610
 3991 01e8 DA75AFDA 		.word	-626035238
 3992 01ec 21634221 		.word	557998881
 3993 01f0 10302010 		.word	270544912
 3994 01f4 FF1AE5FF 		.word	-1762561
 3995 01f8 F30EFDF3 		.word	-201519373
 3996 01fc D26DBFD2 		.word	-759206446
 3997 0200 CD4C81CD 		.word	-847164211
 3998 0204 0C14180C 		.word	202904588
 3999 0208 13352613 		.word	321271059
 4000 020c EC2FC3EC 		.word	-322752532
 4001 0210 5FE1BE5F 		.word	1606345055
 4002 0214 97A23597 		.word	-1758092649
 4003 0218 44CC8844 		.word	1149815876
 4004 021c 17392E17 		.word	388905239
 4005 0220 C45793C4 		.word	-996976700
 4006 0224 A7F255A7 		.word	-1487539545
 4007 0228 7E82FC7E 		.word	2130477694
 4008 022c 3D477A3D 		.word	1031423805
 4009 0230 64ACC864 		.word	1690872932
 4010 0234 5DE7BA5D 		.word	1572530013
 4011 0238 192B3219 		.word	422718233
 4012 023c 7395E673 		.word	1944491379
 4013 0240 60A0C060 		.word	1623236704
 4014 0244 81981981 		.word	-2129028991
 4015 0248 4FD19E4F 		.word	1335808335
 4016 024c DC7FA3DC 		.word	-593264676
 4017 0250 22664422 		.word	574907938
 4018 0254 2A7E542A 		.word	710180394
 4019 0258 90AB3B90 		.word	-1875137648
 4020 025c 88830B88 		.word	-2012511352
 4021 0260 46CA8C46 		.word	1183631942
 4022 0264 EE29C7EE 		.word	-288937490
 4023 0268 B8D36BB8 		.word	-1200893000
 4024 026c 143C2814 		.word	338181140
 4025 0270 DE79A7DE 		.word	-559449634
 4026 0274 5EE2BC5E 		.word	1589437022
 4027 0278 0B1D160B 		.word	185998603
 4028 027c DB76ADDB 		.word	-609388837
 4029 0280 E03BDBE0 		.word	-522503200
 4030 0284 32566432 		.word	845436466
 4031 0288 3A4E743A 		.word	980700730
 4032 028c 0A1E140A 		.word	169090570
 4033 0290 49DB9249 		.word	1234361161
 4034 0294 060A0C06 		.word	101452294
 4035 0298 246C4824 		.word	608726052
 4036 029c 5CE4B85C 		.word	1555620956
 4037 02a0 C25D9FC2 		.word	-1029743166
ARM GAS  C:\Users\jo\AppData\Local\Temp\ccwlN2BW.s 			page 72


 4038 02a4 D36EBDD3 		.word	-742560045
 4039 02a8 ACEF43AC 		.word	-1404833876
 4040 02ac 62A6C462 		.word	1657054818
 4041 02b0 91A83991 		.word	-1858492271
 4042 02b4 95A43195 		.word	-1791908715
 4043 02b8 E437D3E4 		.word	-455919644
 4044 02bc 798BF279 		.word	2045938553
 4045 02c0 E732D5E7 		.word	-405458201
 4046 02c4 C8438BC8 		.word	-930397240
 4047 02c8 37596E37 		.word	929978679
 4048 02cc 6DB7DA6D 		.word	1843050349
 4049 02d0 8D8C018D 		.word	-1929278323
 4050 02d4 D564B1D5 		.word	-709794603
 4051 02d8 4ED29C4E 		.word	1318900302
 4052 02dc A9E049A9 		.word	-1454776151
 4053 02e0 6CB4D86C 		.word	1826141292
 4054 02e4 56FAAC56 		.word	1454176854
 4055 02e8 F407F3F4 		.word	-185399308
 4056 02ec EA25CFEA 		.word	-355523094
 4057 02f0 65AFCA65 		.word	1707781989
 4058 02f4 7A8EF47A 		.word	2062847610
 4059 02f8 AEE947AE 		.word	-1371018834
 4060 02fc 08181008 		.word	135272456
 4061 0300 BAD56FBA 		.word	-1167075910
 4062 0304 7888F078 		.word	2029029496
 4063 0308 256F4A25 		.word	625635109
 4064 030c 2E725C2E 		.word	777810478
 4065 0310 1C24381C 		.word	473441308
 4066 0314 A6F157A6 		.word	-1504185946
 4067 0318 B4C773B4 		.word	-1267480652
 4068 031c C65197C6 		.word	-963161658
 4069 0320 E823CBE8 		.word	-389340184
 4070 0324 DD7CA1DD 		.word	-576619299
 4071 0328 749CE874 		.word	1961401460
 4072 032c 1F213E1F 		.word	524165407
 4073 0330 4BDD964B 		.word	1268178251
 4074 0334 BDDC61BD 		.word	-1117659971
 4075 0338 8B860D8B 		.word	-1962047861
 4076 033c 8A850F8A 		.word	-1978694262
 4077 0340 7090E070 		.word	1893765232
 4078 0344 3E427C3E 		.word	1048330814
 4079 0348 B5C471B5 		.word	-1250835275
 4080 034c 66AACC66 		.word	1724688998
 4081 0350 48D89048 		.word	1217452104
 4082 0354 03050603 		.word	50726147
 4083 0358 F601F7F6 		.word	-151584266
 4084 035c 0E121C0E 		.word	236720654
 4085 0360 61A3C261 		.word	1640145761
 4086 0364 355F6A35 		.word	896163637
 4087 0368 57F9AE57 		.word	1471084887
 4088 036c B9D069B9 		.word	-1184247623
 4089 0370 86911786 		.word	-2045275770
 4090 0374 C15899C1 		.word	-1046914879
 4091 0378 1D273A1D 		.word	490350365
 4092 037c 9EB9279E 		.word	-1641563746
 4093 0380 E138D9E1 		.word	-505857823
 4094 0384 F813EBF8 		.word	-118811656
ARM GAS  C:\Users\jo\AppData\Local\Temp\ccwlN2BW.s 			page 73


 4095 0388 98B32B98 		.word	-1741966440
 4096 038c 11332211 		.word	287453969
 4097 0390 69BBD269 		.word	1775418217
 4098 0394 D970A9D9 		.word	-643206951
 4099 0398 8E89078E 		.word	-1912108658
 4100 039c 94A73394 		.word	-1808554092
 4101 03a0 9BB62D9B 		.word	-1691502949
 4102 03a4 1E223C1E 		.word	507257374
 4103 03a8 87921587 		.word	-2028629369
 4104 03ac E920C9E9 		.word	-372694807
 4105 03b0 CE4987CE 		.word	-829994546
 4106 03b4 55FFAA55 		.word	1437269845
 4107 03b8 28785028 		.word	676362280
 4108 03bc DF7AA5DF 		.word	-542803233
 4109 03c0 8C8F038C 		.word	-1945923700
 4110 03c4 A1F859A1 		.word	-1587939167
 4111 03c8 89800989 		.word	-1995865975
 4112 03cc 0D171A0D 		.word	219813645
 4113 03d0 BFDA65BF 		.word	-1083843905
 4114 03d4 E631D7E6 		.word	-422104602
 4115 03d8 42C68442 		.word	1115997762
 4116 03dc 68B8D068 		.word	1758509160
 4117 03e0 41C38241 		.word	1099088705
 4118 03e4 99B02999 		.word	-1725321063
 4119 03e8 2D775A2D 		.word	760903469
 4120 03ec 0F111E0F 		.word	253628687
 4121 03f0 B0CB7BB0 		.word	-1334064208
 4122 03f4 54FCA854 		.word	1420360788
 4123 03f8 BBD66DBB 		.word	-1150429509
 4124 03fc 163A2C16 		.word	371997206
 4125              		.section	.rodata.FT3,"a",%progbits
 4126              		.align	2
 4127              		.set	.LANCHOR8,. + 0
 4128              		.type	FT3, %object
 4129              		.size	FT3, 1024
 4130              	FT3:
 4131 0000 6363A5C6 		.word	-962239645
 4132 0004 7C7C84F8 		.word	-125535108
 4133 0008 777799EE 		.word	-291932297
 4134 000c 7B7B8DF6 		.word	-158499973
 4135 0010 F2F20DFF 		.word	-15863054
 4136 0014 6B6BBDD6 		.word	-692229269
 4137 0018 6F6FB1DE 		.word	-558796945
 4138 001c C5C55491 		.word	-1856715323
 4139 0020 30305060 		.word	1615867952
 4140 0024 01010302 		.word	33751297
 4141 0028 6767A9CE 		.word	-827758745
 4142 002c 2B2B7D56 		.word	1451043627
 4143 0030 FEFE19E7 		.word	-417726722
 4144 0034 D7D762B5 		.word	-1251813417
 4145 0038 ABABE64D 		.word	1306962859
 4146 003c 76769AEC 		.word	-325421450
 4147 0040 CACA458F 		.word	-1891251510
 4148 0044 82829D1F 		.word	530416258
 4149 0048 C9C94089 		.word	-1992242743
 4150 004c 7D7D87FA 		.word	-91783811
 4151 0050 FAFA15EF 		.word	-283772166
ARM GAS  C:\Users\jo\AppData\Local\Temp\ccwlN2BW.s 			page 74


 4152 0054 5959EBB2 		.word	-1293199015
 4153 0058 4747C98E 		.word	-1899411641
 4154 005c F0F00BFB 		.word	-83103504
 4155 0060 ADADEC41 		.word	1106029997
 4156 0064 D4D467B3 		.word	-1285040940
 4157 0068 A2A2FD5F 		.word	1610457762
 4158 006c AFAFEA45 		.word	1173008303
 4159 0070 9C9CBF23 		.word	599760028
 4160 0074 A4A4F753 		.word	1408738468
 4161 0078 727296E4 		.word	-459902350
 4162 007c C0C05B9B 		.word	-1688485696
 4163 0080 B7B7C275 		.word	1975695287
 4164 0084 FDFD1CE1 		.word	-518193667
 4165 0088 9393AE3D 		.word	1034851219
 4166 008c 26266A4C 		.word	1282024998
 4167 0090 36365A6C 		.word	1817851446
 4168 0094 3F3F417E 		.word	2118205247
 4169 0098 F7F702F5 		.word	-184354825
 4170 009c CCCC4F83 		.word	-2091922228
 4171 00a0 34345C68 		.word	1750873140
 4172 00a4 A5A5F451 		.word	1374987685
 4173 00a8 E5E534D1 		.word	-785062427
 4174 00ac F1F108F9 		.word	-116854287
 4175 00b0 717193E2 		.word	-493653647
 4176 00b4 D8D873AB 		.word	-1418471208
 4177 00b8 31315362 		.word	1649619249
 4178 00bc 15153F2A 		.word	708777237
 4179 00c0 04040C08 		.word	135005188
 4180 00c4 C7C75295 		.word	-1789737017
 4181 00c8 23236546 		.word	1181033251
 4182 00cc C3C35E9D 		.word	-1654733885
 4183 00d0 18182830 		.word	807933976
 4184 00d4 9696A137 		.word	933336726
 4185 00d8 05050F0A 		.word	168756485
 4186 00dc 9A9AB52F 		.word	800430746
 4187 00e0 0707090E 		.word	235472647
 4188 00e4 12123624 		.word	607523346
 4189 00e8 80809B1B 		.word	463175808
 4190 00ec E2E23DDF 		.word	-549592350
 4191 00f0 EBEB26CD 		.word	-853087253
 4192 00f4 2727694E 		.word	1315514151
 4193 00f8 B2B2CD7F 		.word	2144187058
 4194 00fc 75759FEA 		.word	-358648459
 4195 0100 09091B12 		.word	303761673
 4196 0104 83839E1D 		.word	496927619
 4197 0108 2C2C7458 		.word	1484008492
 4198 010c 1A1A2E34 		.word	875436570
 4199 0110 1B1B2D36 		.word	908925723
 4200 0114 6E6EB2DC 		.word	-592286098
 4201 0118 5A5AEEB4 		.word	-1259447718
 4202 011c A0A0FB5B 		.word	1543217312
 4203 0120 5252F6A4 		.word	-1527360942
 4204 0124 3B3B4D76 		.word	1984772923
 4205 0128 D6D661B7 		.word	-1218324778
 4206 012c B3B3CE7D 		.word	2110698419
 4207 0130 29297B52 		.word	1383803177
 4208 0134 E3E33EDD 		.word	-583080989
ARM GAS  C:\Users\jo\AppData\Local\Temp\ccwlN2BW.s 			page 75


 4209 0138 2F2F715E 		.word	1584475951
 4210 013c 84849713 		.word	328696964
 4211 0140 5353F5A6 		.word	-1493871789
 4212 0144 D1D168B9 		.word	-1184312879
 4213 0148 00000000 		.word	0
 4214 014c EDED2CC1 		.word	-1054020115
 4215 0150 20206040 		.word	1080041504
 4216 0154 FCFC1FE3 		.word	-484442884
 4217 0158 B1B1C879 		.word	2043195825
 4218 015c 5B5BEDB6 		.word	-1225958565
 4219 0160 6A6ABED4 		.word	-725718422
 4220 0164 CBCB468D 		.word	-1924740149
 4221 0168 BEBED967 		.word	1742323390
 4222 016c 39394B72 		.word	1917532473
 4223 0170 4A4ADE94 		.word	-1797371318
 4224 0174 4C4CD498 		.word	-1730917300
 4225 0178 5858E8B0 		.word	-1326950312
 4226 017c CFCF4A85 		.word	-2058694705
 4227 0180 D0D06BBB 		.word	-1150562096
 4228 0184 EFEF2AC5 		.word	-987041809
 4229 0188 AAAAE54F 		.word	1340451498
 4230 018c FBFB16ED 		.word	-317260805
 4231 0190 4343C586 		.word	-2033892541
 4232 0194 4D4DD79A 		.word	-1697166003
 4233 0198 33335566 		.word	1716859699
 4234 019c 85859411 		.word	294946181
 4235 01a0 4545CF8A 		.word	-1966127803
 4236 01a4 F9F910E9 		.word	-384763399
 4237 01a8 02020604 		.word	67502594
 4238 01ac 7F7F81FE 		.word	-25067649
 4239 01b0 5050F0A0 		.word	-1594863536
 4240 01b4 3C3C4478 		.word	2017737788
 4241 01b8 9F9FBA25 		.word	632987551
 4242 01bc A8A8E34B 		.word	1273211048
 4243 01c0 5151F3A2 		.word	-1561112239
 4244 01c4 A3A3FE5D 		.word	1576969123
 4245 01c8 4040C080 		.word	-2134884288
 4246 01cc 8F8F8A05 		.word	92966799
 4247 01d0 9292AD3F 		.word	1068339858
 4248 01d4 9D9DBC21 		.word	566009245
 4249 01d8 38384870 		.word	1883781176
 4250 01dc F5F504F1 		.word	-251333131
 4251 01e0 BCBCDF63 		.word	1675607228
 4252 01e4 B6B6C177 		.word	2009183926
 4253 01e8 DADA75AF 		.word	-1351230758
 4254 01ec 21216342 		.word	1113792801
 4255 01f0 10103020 		.word	540020752
 4256 01f4 FFFF1AE5 		.word	-451215361
 4257 01f8 F3F30EFD 		.word	-49351693
 4258 01fc D2D26DBF 		.word	-1083321646
 4259 0200 CDCD4C81 		.word	-2125673011
 4260 0204 0C0C1418 		.word	403966988
 4261 0208 13133526 		.word	641012499
 4262 020c ECEC2FC3 		.word	-1020269332
 4263 0210 5F5FE1BE 		.word	-1092526241
 4264 0214 9797A235 		.word	899848087
 4265 0218 4444CC88 		.word	-1999879100
ARM GAS  C:\Users\jo\AppData\Local\Temp\ccwlN2BW.s 			page 76


 4266 021c 1717392E 		.word	775493399
 4267 0220 C4C45793 		.word	-1822964540
 4268 0224 A7A7F255 		.word	1441965991
 4269 0228 7E7E82FC 		.word	-58556802
 4270 022c 3D3D477A 		.word	2051489085
 4271 0230 6464ACC8 		.word	-928226204
 4272 0234 5D5DE7BA 		.word	-1159242403
 4273 0238 19192B32 		.word	841685273
 4274 023c 737395E6 		.word	-426413197
 4275 0240 6060A0C0 		.word	-1063231392
 4276 0244 81819819 		.word	429425025
 4277 0248 4F4FD19E 		.word	-1630449841
 4278 024c DCDC7FA3 		.word	-1551901476
 4279 0250 22226644 		.word	1147544098
 4280 0254 2A2A7E54 		.word	1417554474
 4281 0258 9090AB3B 		.word	1001099408
 4282 025c 8888830B 		.word	193169544
 4283 0260 4646CA8C 		.word	-1932900794
 4284 0264 EEEE29C7 		.word	-953553170
 4285 0268 B8B8D36B 		.word	1809037496
 4286 026c 14143C28 		.word	675025940
 4287 0270 DEDE79A7 		.word	-1485185314
 4288 0274 5E5EE2BC 		.word	-1126015394
 4289 0278 0B0B1D16 		.word	371002123
 4290 027c DBDB76AD 		.word	-1384719397
 4291 0280 E0E03BDB 		.word	-616832800
 4292 0284 32325664 		.word	1683370546
 4293 0288 3A3A4E74 		.word	1951283770
 4294 028c 0A0A1E14 		.word	337512970
 4295 0290 4949DB92 		.word	-1831122615
 4296 0294 06060A0C 		.word	201983494
 4297 0298 24246C48 		.word	1215046692
 4298 029c 5C5CE4B8 		.word	-1192993700
 4299 02a0 C2C25D9F 		.word	-1621245246
 4300 02a4 D3D36EBD 		.word	-1116810285
 4301 02a8 ACACEF43 		.word	1139780780
 4302 02ac 6262A6C4 		.word	-995728798
 4303 02b0 9191A839 		.word	967348625
 4304 02b4 9595A431 		.word	832869781
 4305 02b8 E4E437D3 		.word	-751311644
 4306 02bc 79798BF2 		.word	-225740423
 4307 02c0 E7E732D5 		.word	-718084121
 4308 02c4 C8C8438B 		.word	-1958491960
 4309 02c8 3737596E 		.word	1851340599
 4310 02cc 6D6DB7DA 		.word	-625513107
 4311 02d0 8D8D8C01 		.word	25988493
 4312 02d4 D5D564B1 		.word	-1318791723
 4313 02d8 4E4ED29C 		.word	-1663938994
 4314 02dc A9A9E049 		.word	1239460265
 4315 02e0 6C6CB4D8 		.word	-659264404
 4316 02e4 5656FAAC 		.word	-1392880042
 4317 02e8 F4F407F3 		.word	-217582348
 4318 02ec EAEA25CF 		.word	-819598614
 4319 02f0 6565AFCA 		.word	-894474907
 4320 02f4 7A7A8EF4 		.word	-191989126
 4321 02f8 AEAEE947 		.word	1206496942
 4322 02fc 08081810 		.word	270010376
ARM GAS  C:\Users\jo\AppData\Local\Temp\ccwlN2BW.s 			page 77


 4323 0300 BABAD56F 		.word	1876277946
 4324 0304 787888F0 		.word	-259491720
 4325 0308 25256F4A 		.word	1248797989
 4326 030c 2E2E725C 		.word	1550986798
 4327 0310 1C1C2438 		.word	941890588
 4328 0314 A6A6F157 		.word	1475454630
 4329 0318 B4B4C773 		.word	1942467764
 4330 031c C6C65197 		.word	-1756248378
 4331 0320 E8E823CB 		.word	-886839064
 4332 0324 DDDD7CA1 		.word	-1585652259
 4333 0328 74749CE8 		.word	-392399756
 4334 032c 1F1F213E 		.word	1042358047
 4335 0330 4B4BDD96 		.word	-1763882165
 4336 0334 BDBDDC61 		.word	1641856445
 4337 0338 8B8B860D 		.word	226921355
 4338 033c 8A8A850F 		.word	260409994
 4339 0340 707090E0 		.word	-527404944
 4340 0344 3E3E427C 		.word	2084716094
 4341 0348 B5B5C471 		.word	1908716981
 4342 034c 6666AACC 		.word	-861247898
 4343 0350 4848D890 		.word	-1864873912
 4344 0354 03030506 		.word	100991747
 4345 0358 F6F601F7 		.word	-150866186
 4346 035c 0E0E121C 		.word	470945294
 4347 0360 6161A3C2 		.word	-1029480095
 4348 0364 35355F6A 		.word	1784624437
 4349 0368 5757F9AE 		.word	-1359390889
 4350 036c B9B9D069 		.word	1775286713
 4351 0370 86869117 		.word	395413126
 4352 0374 C1C15899 		.word	-1722236479
 4353 0378 1D1D273A 		.word	975641885
 4354 037c 9E9EB927 		.word	666476190
 4355 0380 E1E138D9 		.word	-650583583
 4356 0384 F8F813EB 		.word	-351012616
 4357 0388 9898B32B 		.word	733190296
 4358 038c 11113322 		.word	573772049
 4359 0390 6969BBD2 		.word	-759469719
 4360 0394 D9D970A9 		.word	-1452221991
 4361 0398 8E8E8907 		.word	126455438
 4362 039c 9494A733 		.word	866620564
 4363 03a0 9B9BB62D 		.word	766942107
 4364 03a4 1E1E223C 		.word	1008868894
 4365 03a8 87879215 		.word	361924487
 4366 03ac E9E920C9 		.word	-920589847
 4367 03b0 CECE4987 		.word	-2025206066
 4368 03b4 5555FFAA 		.word	-1426107051
 4369 03b8 28287850 		.word	1350051880
 4370 03bc DFDF7AA5 		.word	-1518673953
 4371 03c0 8C8C8F03 		.word	59739276
 4372 03c4 A1A1F859 		.word	1509466529
 4373 03c8 89898009 		.word	159418761
 4374 03cc 0D0D171A 		.word	437718285
 4375 03d0 BFBFDA65 		.word	1708834751
 4376 03d4 E6E631D7 		.word	-684595482
 4377 03d8 4242C684 		.word	-2067381694
 4378 03dc 6868B8D0 		.word	-793221016
 4379 03e0 4141C382 		.word	-2101132991
ARM GAS  C:\Users\jo\AppData\Local\Temp\ccwlN2BW.s 			page 78


 4380 03e4 9999B029 		.word	699439513
 4381 03e8 2D2D775A 		.word	1517759789
 4382 03ec 0F0F111E 		.word	504434447
 4383 03f0 B0B0CB7B 		.word	2076946608
 4384 03f4 5454FCA8 		.word	-1459858348
 4385 03f8 BBBBD66D 		.word	1842789307
 4386 03fc 16163A2C 		.word	742004246
 4387              		.section	.rodata.FT0,"a",%progbits
 4388              		.align	2
 4389              		.set	.LANCHOR7,. + 0
 4390              		.type	FT0, %object
 4391              		.size	FT0, 1024
 4392              	FT0:
 4393 0000 C66363A5 		.word	-1520213050
 4394 0004 F87C7C84 		.word	-2072216328
 4395 0008 EE777799 		.word	-1720223762
 4396 000c F67B7B8D 		.word	-1921287178
 4397 0010 FFF2F20D 		.word	234025727
 4398 0014 D66B6BBD 		.word	-1117033514
 4399 0018 DE6F6FB1 		.word	-1318096930
 4400 001c 91C5C554 		.word	1422247313
 4401 0020 60303050 		.word	1345335392
 4402 0024 02010103 		.word	50397442
 4403 0028 CE6767A9 		.word	-1452841010
 4404 002c 562B2B7D 		.word	2099981142
 4405 0030 E7FEFE19 		.word	436141799
 4406 0034 B5D7D762 		.word	1658312629
 4407 0038 4DABABE6 		.word	-424957107
 4408 003c EC76769A 		.word	-1703512340
 4409 0040 8FCACA45 		.word	1170918031
 4410 0044 1F82829D 		.word	-1652391393
 4411 0048 89C9C940 		.word	1086966153
 4412 004c FA7D7D87 		.word	-2021818886
 4413 0050 EFFAFA15 		.word	368769775
 4414 0054 B25959EB 		.word	-346465870
 4415 0058 8E4747C9 		.word	-918075506
 4416 005c FBF0F00B 		.word	200339707
 4417 0060 41ADADEC 		.word	-324162239
 4418 0064 B3D4D467 		.word	1742001331
 4419 0068 5FA2A2FD 		.word	-39673249
 4420 006c 45AFAFEA 		.word	-357585083
 4421 0070 239C9CBF 		.word	-1080255453
 4422 0074 53A4A4F7 		.word	-140204973
 4423 0078 E4727296 		.word	-1770884380
 4424 007c 9BC0C05B 		.word	1539358875
 4425 0080 75B7B7C2 		.word	-1028147339
 4426 0084 E1FDFD1C 		.word	486407649
 4427 0088 3D9393AE 		.word	-1366060227
 4428 008c 4C26266A 		.word	1780885068
 4429 0090 6C36365A 		.word	1513502316
 4430 0094 7E3F3F41 		.word	1094664062
 4431 0098 F5F7F702 		.word	49805301
 4432 009c 83CCCC4F 		.word	1338821763
 4433 00a0 6834345C 		.word	1546925160
 4434 00a4 51A5A5F4 		.word	-190470831
 4435 00a8 D1E5E534 		.word	887481809
 4436 00ac F9F1F108 		.word	150073849
ARM GAS  C:\Users\jo\AppData\Local\Temp\ccwlN2BW.s 			page 79


 4437 00b0 E2717193 		.word	-1821281822
 4438 00b4 ABD8D873 		.word	1943591083
 4439 00b8 62313153 		.word	1395732834
 4440 00bc 2A15153F 		.word	1058346282
 4441 00c0 0804040C 		.word	201589768
 4442 00c4 95C7C752 		.word	1388824469
 4443 00c8 46232365 		.word	1696801606
 4444 00cc 9DC3C35E 		.word	1589887901
 4445 00d0 30181828 		.word	672667696
 4446 00d4 379696A1 		.word	-1583966665
 4447 00d8 0A05050F 		.word	251987210
 4448 00dc 2F9A9AB5 		.word	-1248159185
 4449 00e0 0E070709 		.word	151455502
 4450 00e4 24121236 		.word	907153956
 4451 00e8 1B80809B 		.word	-1686077413
 4452 00ec DFE2E23D 		.word	1038279391
 4453 00f0 CDEBEB26 		.word	652995533
 4454 00f4 4E272769 		.word	1764173646
 4455 00f8 7FB2B2CD 		.word	-843926913
 4456 00fc EA75759F 		.word	-1619692054
 4457 0100 1209091B 		.word	453576978
 4458 0104 1D83839E 		.word	-1635548387
 4459 0108 582C2C74 		.word	1949051992
 4460 010c 341A1A2E 		.word	773462580
 4461 0110 361B1B2D 		.word	756751158
 4462 0114 DC6E6EB2 		.word	-1301385508
 4463 0118 B45A5AEE 		.word	-296068428
 4464 011c 5BA0A0FB 		.word	-73359269
 4465 0120 A45252F6 		.word	-162377052
 4466 0124 763B3B4D 		.word	1295727478
 4467 0128 B7D6D661 		.word	1641469623
 4468 012c 7DB3B3CE 		.word	-827083907
 4469 0130 5229297B 		.word	2066295122
 4470 0134 DDE3E33E 		.word	1055122397
 4471 0138 5E2F2F71 		.word	1898917726
 4472 013c 13848497 		.word	-1752923117
 4473 0140 A65353F5 		.word	-179088474
 4474 0144 B9D1D168 		.word	1758581177
 4475 0148 00000000 		.word	0
 4476 014c C1EDED2C 		.word	753790401
 4477 0150 40202060 		.word	1612718144
 4478 0154 E3FCFC1F 		.word	536673507
 4479 0158 79B1B1C8 		.word	-927878791
 4480 015c B65B5BED 		.word	-312779850
 4481 0160 D46A6ABE 		.word	-1100322092
 4482 0164 8DCBCB46 		.word	1187761037
 4483 0168 67BEBED9 		.word	-641810841
 4484 016c 7239394B 		.word	1262041458
 4485 0170 944A4ADE 		.word	-565556588
 4486 0174 984C4CD4 		.word	-733197160
 4487 0178 B05858E8 		.word	-396863312
 4488 017c 85CFCF4A 		.word	1255133061
 4489 0180 BBD0D06B 		.word	1808847035
 4490 0184 C5EFEF2A 		.word	720367557
 4491 0188 4FAAAAE5 		.word	-441800113
 4492 018c EDFBFB16 		.word	385612781
 4493 0190 864343C5 		.word	-985447546
ARM GAS  C:\Users\jo\AppData\Local\Temp\ccwlN2BW.s 			page 80


 4494 0194 9A4D4DD7 		.word	-682799718
 4495 0198 66333355 		.word	1429418854
 4496 019c 11858594 		.word	-1803188975
 4497 01a0 8A4545CF 		.word	-817543798
 4498 01a4 E9F9F910 		.word	284817897
 4499 01a8 04020206 		.word	100794884
 4500 01ac FE7F7F81 		.word	-2122350594
 4501 01b0 A05050F0 		.word	-263171936
 4502 01b4 783C3C44 		.word	1144798328
 4503 01b8 259F9FBA 		.word	-1163944155
 4504 01bc 4BA8A8E3 		.word	-475486133
 4505 01c0 A25151F3 		.word	-212774494
 4506 01c4 5DA3A3FE 		.word	-22830243
 4507 01c8 804040C0 		.word	-1069531008
 4508 01cc 058F8F8A 		.word	-1970303227
 4509 01d0 3F9292AD 		.word	-1382903233
 4510 01d4 219D9DBC 		.word	-1130521311
 4511 01d8 70383848 		.word	1211644016
 4512 01dc F1F5F504 		.word	83228145
 4513 01e0 63BCBCDF 		.word	-541279133
 4514 01e4 77B6B6C1 		.word	-1044990345
 4515 01e8 AFDADA75 		.word	1977277103
 4516 01ec 42212163 		.word	1663115586
 4517 01f0 20101030 		.word	806359072
 4518 01f4 E5FFFF1A 		.word	452984805
 4519 01f8 FDF3F30E 		.word	250868733
 4520 01fc BFD2D26D 		.word	1842533055
 4521 0200 81CDCD4C 		.word	1288555905
 4522 0204 180C0C14 		.word	336333848
 4523 0208 26131335 		.word	890442534
 4524 020c C3ECEC2F 		.word	804056259
 4525 0210 BE5F5FE1 		.word	-513843266
 4526 0214 359797A2 		.word	-1567123659
 4527 0218 884444CC 		.word	-867941240
 4528 021c 2E171739 		.word	957814574
 4529 0220 93C4C457 		.word	1472513171
 4530 0224 55A7A7F2 		.word	-223893675
 4531 0228 FC7E7E82 		.word	-2105639172
 4532 022c 7A3D3D47 		.word	1195195770
 4533 0230 C86464AC 		.word	-1402706744
 4534 0234 BA5D5DE7 		.word	-413311558
 4535 0238 3219192B 		.word	723065138
 4536 023c E6737395 		.word	-1787595802
 4537 0240 C06060A0 		.word	-1604296512
 4538 0244 19818198 		.word	-1736343271
 4539 0248 9E4F4FD1 		.word	-783331426
 4540 024c A3DCDC7F 		.word	2145180835
 4541 0250 44222266 		.word	1713513028
 4542 0254 542A2A7E 		.word	2116692564
 4543 0258 3B9090AB 		.word	-1416589253
 4544 025c 0B888883 		.word	-2088204277
 4545 0260 8C4646CA 		.word	-901364084
 4546 0264 C7EEEE29 		.word	703524551
 4547 0268 6BB8B8D3 		.word	-742868885
 4548 026c 2814143C 		.word	1007948840
 4549 0270 A7DEDE79 		.word	2044649127
 4550 0274 BC5E5EE2 		.word	-497131844
ARM GAS  C:\Users\jo\AppData\Local\Temp\ccwlN2BW.s 			page 81


 4551 0278 160B0B1D 		.word	487262998
 4552 027c ADDBDB76 		.word	1994120109
 4553 0280 DBE0E03B 		.word	1004593371
 4554 0284 64323256 		.word	1446130276
 4555 0288 743A3A4E 		.word	1312438900
 4556 028c 140A0A1E 		.word	503974420
 4557 0290 924949DB 		.word	-615954030
 4558 0294 0C06060A 		.word	168166924
 4559 0298 4824246C 		.word	1814307912
 4560 029c B85C5CE4 		.word	-463709000
 4561 02a0 9FC2C25D 		.word	1573044895
 4562 02a4 BDD3D36E 		.word	1859376061
 4563 02a8 43ACACEF 		.word	-273896381
 4564 02ac C46262A6 		.word	-1503501628
 4565 02b0 399191A8 		.word	-1466855111
 4566 02b4 319595A4 		.word	-1533700815
 4567 02b8 D3E4E437 		.word	937747667
 4568 02bc F279798B 		.word	-1954973198
 4569 02c0 D5E7E732 		.word	854058965
 4570 02c4 8BC8C843 		.word	1137232011
 4571 02c8 6E373759 		.word	1496790894
 4572 02cc DA6D6DB7 		.word	-1217565222
 4573 02d0 018D8D8C 		.word	-1936880383
 4574 02d4 B1D5D564 		.word	1691735473
 4575 02d8 9C4E4ED2 		.word	-766620004
 4576 02dc 49A9A9E0 		.word	-525751991
 4577 02e0 D86C6CB4 		.word	-1267962664
 4578 02e4 AC5656FA 		.word	-95005012
 4579 02e8 F3F4F407 		.word	133494003
 4580 02ec CFEAEA25 		.word	636152527
 4581 02f0 CA6565AF 		.word	-1352309302
 4582 02f4 F47A7A8E 		.word	-1904575756
 4583 02f8 47AEAEE9 		.word	-374428089
 4584 02fc 10080818 		.word	403179536
 4585 0300 6FBABAD5 		.word	-709182865
 4586 0304 F0787888 		.word	-2005370640
 4587 0308 4A25256F 		.word	1864705354
 4588 030c 5C2E2E72 		.word	1915629148
 4589 0310 381C1C24 		.word	605822008
 4590 0314 57A6A6F1 		.word	-240736681
 4591 0318 73B4B4C7 		.word	-944458637
 4592 031c 97C6C651 		.word	1371981463
 4593 0320 CBE8E823 		.word	602466507
 4594 0324 A1DDDD7C 		.word	2094914977
 4595 0328 E874749C 		.word	-1670089496
 4596 032c 3E1F1F21 		.word	555687742
 4597 0330 964B4BDD 		.word	-582268010
 4598 0334 61BDBDDC 		.word	-591544991
 4599 0338 0D8B8B86 		.word	-2037675251
 4600 033c 0F8A8A85 		.word	-2054518257
 4601 0340 E0707090 		.word	-1871679264
 4602 0344 7C3E3E42 		.word	1111375484
 4603 0348 71B5B5C4 		.word	-994724495
 4604 034c CC6666AA 		.word	-1436129588
 4605 0350 904848D8 		.word	-666351472
 4606 0354 06030305 		.word	84083462
 4607 0358 F7F6F601 		.word	32962295
ARM GAS  C:\Users\jo\AppData\Local\Temp\ccwlN2BW.s 			page 82


 4608 035c 1C0E0E12 		.word	302911004
 4609 0360 C26161A3 		.word	-1553899070
 4610 0364 6A35355F 		.word	1597322602
 4611 0368 AE5757F9 		.word	-111716434
 4612 036c 69B9B9D0 		.word	-793134743
 4613 0370 17868691 		.word	-1853454825
 4614 0374 99C1C158 		.word	1489093017
 4615 0378 3A1D1D27 		.word	656219450
 4616 037c 279E9EB9 		.word	-1180787161
 4617 0380 D9E1E138 		.word	954327513
 4618 0384 EBF8F813 		.word	335083755
 4619 0388 2B9898B3 		.word	-1281845205
 4620 038c 22111133 		.word	856756514
 4621 0390 D26969BB 		.word	-1150719534
 4622 0394 A9D9D970 		.word	1893325225
 4623 0398 078E8E89 		.word	-1987146233
 4624 039c 339494A7 		.word	-1483434957
 4625 03a0 2D9B9BB6 		.word	-1231316179
 4626 03a4 3C1E1E22 		.word	572399164
 4627 03a8 15878792 		.word	-1836611819
 4628 03ac C9E9E920 		.word	552200649
 4629 03b0 87CECE49 		.word	1238290055
 4630 03b4 AA5555FF 		.word	-11184726
 4631 03b8 50282878 		.word	2015897680
 4632 03bc A5DFDF7A 		.word	2061492133
 4633 03c0 038C8C8F 		.word	-1886614525
 4634 03c4 59A1A1F8 		.word	-123625127
 4635 03c8 09898980 		.word	-2138470135
 4636 03cc 1A0D0D17 		.word	386731290
 4637 03d0 65BFBFDA 		.word	-624967835
 4638 03d4 D7E6E631 		.word	837215959
 4639 03d8 844242C6 		.word	-968736124
 4640 03dc D06868B8 		.word	-1201116976
 4641 03e0 824141C3 		.word	-1019133566
 4642 03e4 299999B0 		.word	-1332111063
 4643 03e8 5A2D2D77 		.word	1999449434
 4644 03ec 1E0F0F11 		.word	286199582
 4645 03f0 7BB0B0CB 		.word	-877612933
 4646 03f4 A85454FC 		.word	-61582168
 4647 03f8 6DBBBBD6 		.word	-692339859
 4648 03fc 2C16163A 		.word	974525996
 4649              		.section	.rodata.RT0,"a",%progbits
 4650              		.align	2
 4651              		.set	.LANCHOR3,. + 0
 4652              		.type	RT0, %object
 4653              		.size	RT0, 1024
 4654              	RT0:
 4655 0000 51F4A750 		.word	1353184337
 4656 0004 7E416553 		.word	1399144830
 4657 0008 1A17A4C3 		.word	-1012656358
 4658 000c 3A275E96 		.word	-1772214470
 4659 0010 3BAB6BCB 		.word	-882136261
 4660 0014 1F9D45F1 		.word	-247096033
 4661 0018 ACFA58AB 		.word	-1420232020
 4662 001c 4BE30393 		.word	-1828461749
 4663 0020 2030FA55 		.word	1442459680
 4664 0024 AD766DF6 		.word	-160598355
ARM GAS  C:\Users\jo\AppData\Local\Temp\ccwlN2BW.s 			page 83


 4665 0028 88CC7691 		.word	-1854485368
 4666 002c F5024C25 		.word	625738485
 4667 0030 4FE5D7FC 		.word	-52959921
 4668 0034 C52ACBD7 		.word	-674551099
 4669 0038 26354480 		.word	-2143013594
 4670 003c B562A38F 		.word	-1885117771
 4671 0040 DEB15A49 		.word	1230680542
 4672 0044 25BA1B67 		.word	1729870373
 4673 0048 45EA0E98 		.word	-1743852987
 4674 004c 5DFEC0E1 		.word	-507445667
 4675 0050 C32F7502 		.word	41234371
 4676 0054 814CF012 		.word	317738113
 4677 0058 8D4697A3 		.word	-1550367091
 4678 005c 6BD3F9C6 		.word	-956705941
 4679 0060 038F5FE7 		.word	-413167869
 4680 0064 15929C95 		.word	-1784901099
 4681 0068 BF6D7AEB 		.word	-344298049
 4682 006c 955259DA 		.word	-631680363
 4683 0070 D4BE832D 		.word	763608788
 4684 0074 587421D3 		.word	-752782248
 4685 0078 49E06929 		.word	694804553
 4686 007c 8EC9C844 		.word	1154009486
 4687 0080 75C2896A 		.word	1787413109
 4688 0084 F48E7978 		.word	2021232372
 4689 0088 99583E6B 		.word	1799248025
 4690 008c 27B971DD 		.word	-579749593
 4691 0090 BEE14FB6 		.word	-1236278850
 4692 0094 F088AD17 		.word	397248752
 4693 0098 C920AC66 		.word	1722556617
 4694 009c 7DCE3AB4 		.word	-1271214467
 4695 00a0 63DF4A18 		.word	407560035
 4696 00a4 E51A3182 		.word	-2110711067
 4697 00a8 97513360 		.word	1613975959
 4698 00ac 62537F45 		.word	1165972322
 4699 00b0 B16477E0 		.word	-529046351
 4700 00b4 BB6BAE84 		.word	-2068943941
 4701 00b8 FE81A01C 		.word	480281086
 4702 00bc F9082B94 		.word	-1809118983
 4703 00c0 70486858 		.word	1483229296
 4704 00c4 8F45FD19 		.word	436028815
 4705 00c8 94DE6C87 		.word	-2022908268
 4706 00cc 527BF8B7 		.word	-1208452270
 4707 00d0 AB73D323 		.word	601060267
 4708 00d4 724B02E2 		.word	-503166094
 4709 00d8 E31F8F57 		.word	1468997603
 4710 00dc 6655AB2A 		.word	715871590
 4711 00e0 B2EB2807 		.word	120122290
 4712 00e4 2FB5C203 		.word	63092015
 4713 00e8 86C57B9A 		.word	-1703164538
 4714 00ec D33708A5 		.word	-1526188077
 4715 00f0 302887F2 		.word	-226023376
 4716 00f4 23BFA5B2 		.word	-1297760477
 4717 00f8 02036ABA 		.word	-1167457534
 4718 00fc ED16825C 		.word	1552029421
 4719 0100 8ACF1C2B 		.word	723308426
 4720 0104 A779B492 		.word	-1833666137
 4721 0108 F307F2F0 		.word	-252573709
ARM GAS  C:\Users\jo\AppData\Local\Temp\ccwlN2BW.s 			page 84


 4722 010c 4E69E2A1 		.word	-1578997426
 4723 0110 65DAF4CD 		.word	-839591323
 4724 0114 0605BED5 		.word	-708967162
 4725 0118 D134621F 		.word	526529745
 4726 011c C4A6FE8A 		.word	-1963022652
 4727 0120 342E539D 		.word	-1655493068
 4728 0124 A2F355A0 		.word	-1604979806
 4729 0128 058AE132 		.word	853641733
 4730 012c A4F6EB75 		.word	1978398372
 4731 0130 0B83EC39 		.word	971801355
 4732 0134 4060EFAA 		.word	-1427152832
 4733 0138 5E719F06 		.word	111112542
 4734 013c BD6E1051 		.word	1360031421
 4735 0140 3E218AF9 		.word	-108388034
 4736 0144 96DD063D 		.word	1023860118
 4737 0148 DD3E05AE 		.word	-1375387939
 4738 014c 4DE6BD46 		.word	1186850381
 4739 0150 91548DB5 		.word	-1249028975
 4740 0154 71C45D05 		.word	90031217
 4741 0158 0406D46F 		.word	1876166148
 4742 015c 605015FF 		.word	-15380384
 4743 0160 1998FB24 		.word	620468249
 4744 0164 D6BDE997 		.word	-1746289194
 4745 0168 894043CC 		.word	-868007799
 4746 016c 67D99E77 		.word	2006899047
 4747 0170 B0E842BD 		.word	-1119688528
 4748 0174 07898B88 		.word	-2004121337
 4749 0178 E7195B38 		.word	945494503
 4750 017c 79C8EEDB 		.word	-605108103
 4751 0180 A17C0A47 		.word	1191869601
 4752 0184 7C420FE9 		.word	-384875908
 4753 0188 F8841EC9 		.word	-920746760
 4754 018c 00000000 		.word	0
 4755 0190 09808683 		.word	-2088337399
 4756 0194 322BED48 		.word	1223502642
 4757 0198 1E1170AC 		.word	-1401941730
 4758 019c 6C5A724E 		.word	1316117100
 4759 01a0 FD0EFFFB 		.word	-67170563
 4760 01a4 0F853856 		.word	1446544655
 4761 01a8 3DAED51E 		.word	517320253
 4762 01ac 362D3927 		.word	658058550
 4763 01b0 0A0FD964 		.word	1691946762
 4764 01b4 685CA621 		.word	564550760
 4765 01b8 9B5B54D1 		.word	-783000677
 4766 01bc 24362E3A 		.word	976107044
 4767 01c0 0C0A67B1 		.word	-1318647284
 4768 01c4 9357E70F 		.word	266819475
 4769 01c8 B4EE96D2 		.word	-761860428
 4770 01cc 1B9B919E 		.word	-1634624741
 4771 01d0 80C0C54F 		.word	1338359936
 4772 01d4 61DC20A2 		.word	-1574904735
 4773 01d8 5A774B69 		.word	1766553434
 4774 01dc 1C121A16 		.word	370807324
 4775 01e0 E293BA0A 		.word	179999714
 4776 01e4 C0A02AE5 		.word	-450191168
 4777 01e8 3C22E043 		.word	1138762300
 4778 01ec 121B171D 		.word	488053522
ARM GAS  C:\Users\jo\AppData\Local\Temp\ccwlN2BW.s 			page 85


 4779 01f0 0E090D0B 		.word	185403662
 4780 01f4 F28BC7AD 		.word	-1379431438
 4781 01f8 2DB6A8B9 		.word	-1180125651
 4782 01fc 141EA9C8 		.word	-928440812
 4783 0200 57F11985 		.word	-2061897385
 4784 0204 AF75074C 		.word	1275557295
 4785 0208 EE99DDBB 		.word	-1143105042
 4786 020c A37F60FD 		.word	-44007517
 4787 0210 F701269F 		.word	-1624899081
 4788 0214 5C72F5BC 		.word	-1124765092
 4789 0218 44663BC5 		.word	-985962940
 4790 021c 5BFB7E34 		.word	880737115
 4791 0220 8B432976 		.word	1982415755
 4792 0224 CB23C6DC 		.word	-590994485
 4793 0228 B6EDFC68 		.word	1761406390
 4794 022c B8E4F163 		.word	1676797112
 4795 0230 D731DCCA 		.word	-891538985
 4796 0234 42638510 		.word	277177154
 4797 0238 13972240 		.word	1076008723
 4798 023c 84C61120 		.word	538035844
 4799 0240 854A247D 		.word	2099530373
 4800 0244 D2BB3DF8 		.word	-130171950
 4801 0248 AEF93211 		.word	288553390
 4802 024c C729A16D 		.word	1839278535
 4803 0250 1D9E2F4B 		.word	1261411869
 4804 0254 DCB230F3 		.word	-214912292
 4805 0258 0D8652EC 		.word	-330136051
 4806 025c 77C1E3D0 		.word	-790380169
 4807 0260 2BB3166C 		.word	1813426987
 4808 0264 A970B999 		.word	-1715900247
 4809 0268 119448FA 		.word	-95906799
 4810 026c 47E96422 		.word	577038663
 4811 0270 A8FC8CC4 		.word	-997393240
 4812 0274 A0F03F1A 		.word	440397984
 4813 0278 567D2CD8 		.word	-668172970
 4814 027c 223390EF 		.word	-275762398
 4815 0280 87494EC7 		.word	-951170681
 4816 0284 D938D1C1 		.word	-1043253031
 4817 0288 8CCAA2FE 		.word	-22885748
 4818 028c 98D40B36 		.word	906744984
 4819 0290 A6F581CF 		.word	-813566554
 4820 0294 A57ADE28 		.word	685669029
 4821 0298 DAB78E26 		.word	646887386
 4822 029c 3FADBFA4 		.word	-1530942145
 4823 02a0 2C3A9DE4 		.word	-459458004
 4824 02a4 5078920D 		.word	227702864
 4825 02a8 6A5FCC9B 		.word	-1681105046
 4826 02ac 547E4662 		.word	1648787028
 4827 02b0 F68D13C2 		.word	-1038905866
 4828 02b4 90D8B8E8 		.word	-390539120
 4829 02b8 2E39F75E 		.word	1593260334
 4830 02bc 82C3AFF5 		.word	-173030526
 4831 02c0 9F5D80BE 		.word	-1098883681
 4832 02c4 69D0937C 		.word	2090061929
 4833 02c8 6FD52DA9 		.word	-1456614033
 4834 02cc CF2512B3 		.word	-1290656305
 4835 02d0 C8AC993B 		.word	999926984
ARM GAS  C:\Users\jo\AppData\Local\Temp\ccwlN2BW.s 			page 86


 4836 02d4 10187DA7 		.word	-1484974064
 4837 02d8 E89C636E 		.word	1852021992
 4838 02dc DB3BBB7B 		.word	2075868123
 4839 02e0 CD267809 		.word	158869197
 4840 02e4 6E5918F4 		.word	-199730834
 4841 02e8 EC9AB701 		.word	28809964
 4842 02ec 834F9AA8 		.word	-1466282109
 4843 02f0 E6956E65 		.word	1701746150
 4844 02f4 AAFFE67E 		.word	2129067946
 4845 02f8 21BCCF08 		.word	147831841
 4846 02fc EF15E8E6 		.word	-420997649
 4847 0300 BAE79BD9 		.word	-644094022
 4848 0304 4A6F36CE 		.word	-835293366
 4849 0308 EA9F09D4 		.word	-737566742
 4850 030c 29B07CD6 		.word	-696471511
 4851 0310 31A4B2AF 		.word	-1347247055
 4852 0314 2A3F2331 		.word	824393514
 4853 0318 C6A59430 		.word	815048134
 4854 031c 35A266C0 		.word	-1067015627
 4855 0320 744EBC37 		.word	935087732
 4856 0324 FC82CAA6 		.word	-1496677636
 4857 0328 E090D0B0 		.word	-1328508704
 4858 032c 33A7D815 		.word	366520115
 4859 0330 F104984A 		.word	1251476721
 4860 0334 41ECDAF7 		.word	-136647615
 4861 0338 7FCD500E 		.word	240176511
 4862 033c 1791F62F 		.word	804688151
 4863 0340 764DD68D 		.word	-1915335306
 4864 0344 43EFB04D 		.word	1303441219
 4865 0348 CCAA4D54 		.word	1414376140
 4866 034c E49604DF 		.word	-553347356
 4867 0350 9ED1B5E3 		.word	-474623586
 4868 0354 4C6A881B 		.word	461924940
 4869 0358 C12C1FB8 		.word	-1205916479
 4870 035c 4665517F 		.word	2136040774
 4871 0360 9D5EEA04 		.word	82468509
 4872 0364 018C355D 		.word	1563790337
 4873 0368 FA877473 		.word	1937016826
 4874 036c FB0B412E 		.word	776014843
 4875 0370 B3671D5A 		.word	1511876531
 4876 0374 92DBD252 		.word	1389550482
 4877 0378 E9105633 		.word	861278441
 4878 037c 6DD64713 		.word	323475053
 4879 0380 9AD7618C 		.word	-1939744870
 4880 0384 37A10C7A 		.word	2047648055
 4881 0388 59F8148E 		.word	-1911228327
 4882 038c EB133C89 		.word	-1992551445
 4883 0390 CEA927EE 		.word	-299390514
 4884 0394 B761C935 		.word	902390199
 4885 0398 E11CE5ED 		.word	-303751967
 4886 039c 7A47B13C 		.word	1018251130
 4887 03a0 9CD2DF59 		.word	1507840668
 4888 03a4 55F2733F 		.word	1064563285
 4889 03a8 1814CE79 		.word	2043548696
 4890 03ac 73C737BF 		.word	-1086863501
 4891 03b0 53F7CDEA 		.word	-355600557
 4892 03b4 5FFDAA5B 		.word	1537932639
ARM GAS  C:\Users\jo\AppData\Local\Temp\ccwlN2BW.s 			page 87


 4893 03b8 DF3D6F14 		.word	342834655
 4894 03bc 7844DB86 		.word	-2032450440
 4895 03c0 CAAFF381 		.word	-2114736182
 4896 03c4 B968C43E 		.word	1053059257
 4897 03c8 3824342C 		.word	741614648
 4898 03cc C2A3405F 		.word	1598071746
 4899 03d0 161DC372 		.word	1925389590
 4900 03d4 BCE2250C 		.word	203809468
 4901 03d8 283C498B 		.word	-1958134744
 4902 03dc FF0D9541 		.word	1100287487
 4903 03e0 39A80171 		.word	1895934009
 4904 03e4 080CB3DE 		.word	-558691320
 4905 03e8 D8B4E49C 		.word	-1662733096
 4906 03ec 6456C190 		.word	-1866377628
 4907 03f0 7BCB8461 		.word	1636092795
 4908 03f4 D532B670 		.word	1890988757
 4909 03f8 486C5C74 		.word	1952214088
 4910 03fc D0B85742 		.word	1113045200
 4911              		.section	.rodata.aes_test_cbc_dec,"a",%progbits
 4912              		.align	2
 4913              		.set	.LANCHOR13,. + 0
 4914              		.type	aes_test_cbc_dec, %object
 4915              		.size	aes_test_cbc_dec, 48
 4916              	aes_test_cbc_dec:
 4917 0000 FA       		.byte	-6
 4918 0001 CA       		.byte	-54
 4919 0002 37       		.byte	55
 4920 0003 E0       		.byte	-32
 4921 0004 B0       		.byte	-80
 4922 0005 C8       		.byte	-56
 4923 0006 53       		.byte	83
 4924 0007 73       		.byte	115
 4925 0008 DF       		.byte	-33
 4926 0009 70       		.byte	112
 4927 000a 6E       		.byte	110
 4928 000b 73       		.byte	115
 4929 000c F7       		.byte	-9
 4930 000d C9       		.byte	-55
 4931 000e AF       		.byte	-81
 4932 000f 86       		.byte	-122
 4933 0010 5D       		.byte	93
 4934 0011 F6       		.byte	-10
 4935 0012 78       		.byte	120
 4936 0013 DD       		.byte	-35
 4937 0014 17       		.byte	23
 4938 0015 BA       		.byte	-70
 4939 0016 4E       		.byte	78
 4940 0017 75       		.byte	117
 4941 0018 B6       		.byte	-74
 4942 0019 17       		.byte	23
 4943 001a 68       		.byte	104
 4944 001b C6       		.byte	-58
 4945 001c AD       		.byte	-83
 4946 001d EF       		.byte	-17
 4947 001e 7C       		.byte	124
 4948 001f 7B       		.byte	123
 4949 0020 48       		.byte	72
ARM GAS  C:\Users\jo\AppData\Local\Temp\ccwlN2BW.s 			page 88


 4950 0021 04       		.byte	4
 4951 0022 E1       		.byte	-31
 4952 0023 81       		.byte	-127
 4953 0024 8F       		.byte	-113
 4954 0025 E6       		.byte	-26
 4955 0026 29       		.byte	41
 4956 0027 75       		.byte	117
 4957 0028 19       		.byte	25
 4958 0029 A3       		.byte	-93
 4959 002a E8       		.byte	-24
 4960 002b 8C       		.byte	-116
 4961 002c 57       		.byte	87
 4962 002d 31       		.byte	49
 4963 002e 04       		.byte	4
 4964 002f 13       		.byte	19
 4965              		.section	.rodata.RT2,"a",%progbits
 4966              		.align	2
 4967              		.set	.LANCHOR5,. + 0
 4968              		.type	RT2, %object
 4969              		.size	RT2, 1024
 4970              	RT2:
 4971 0000 A75051F4 		.word	-195997529
 4972 0004 65537E41 		.word	1098797925
 4973 0008 A4C31A17 		.word	387629988
 4974 000c 5E963A27 		.word	658151006
 4975 0010 6BCB3BAB 		.word	-1422144661
 4976 0014 45F11F9D 		.word	-1658851003
 4977 0018 58ABACFA 		.word	-89347240
 4978 001c 03934BE3 		.word	-481586429
 4979 0020 FA552030 		.word	807425530
 4980 0024 6DF6AD76 		.word	1991112301
 4981 0028 769188CC 		.word	-863465098
 4982 002c 4C25F502 		.word	49620300
 4983 0030 D7FC4FE5 		.word	-447742761
 4984 0034 CBD7C52A 		.word	717608907
 4985 0038 44802635 		.word	891715652
 4986 003c A38FB562 		.word	1656065955
 4987 0040 5A49DEB1 		.word	-1310832294
 4988 0044 1B6725BA 		.word	-1171953893
 4989 0048 0E9845EA 		.word	-364537842
 4990 004c C0E15DFE 		.word	-27401792
 4991 0050 7502C32F 		.word	801309301
 4992 0054 F012814C 		.word	1283527408
 4993 0058 97A38D46 		.word	1183687575
 4994 005c F9C66BD3 		.word	-747911431
 4995 0060 5FE7038F 		.word	-1895569569
 4996 0064 9C951592 		.word	-1844079204
 4997 0068 7AEBBF6D 		.word	1841294202
 4998 006c 59DA9552 		.word	1385552473
 4999 0070 832DD4BE 		.word	-1093390973
 5000 0074 21D35874 		.word	1951978273
 5001 0078 692949E0 		.word	-532076183
 5002 007c C8448EC9 		.word	-913423160
 5003 0080 896A75C2 		.word	-1032492407
 5004 0084 7978F48E 		.word	-1896580999
 5005 0088 3E6B9958 		.word	1486449470
 5006 008c 71DD27B9 		.word	-1188569743
ARM GAS  C:\Users\jo\AppData\Local\Temp\ccwlN2BW.s 			page 89


 5007 0090 4FB6BEE1 		.word	-507595185
 5008 0094 AD17F088 		.word	-1997531219
 5009 0098 AC66C920 		.word	550069932
 5010 009c 3AB47DCE 		.word	-830622662
 5011 00a0 4A1863DF 		.word	-547153846
 5012 00a4 3182E51A 		.word	451248689
 5013 00a8 33609751 		.word	1368875059
 5014 00ac 7F456253 		.word	1398949247
 5015 00b0 77E0B164 		.word	1689378935
 5016 00b4 AE84BB6B 		.word	1807451310
 5017 00b8 A01CFE81 		.word	-2114052960
 5018 00bc 2B94F908 		.word	150574123
 5019 00c0 68587048 		.word	1215322216
 5020 00c4 FD198F45 		.word	1167006205
 5021 00c8 6C8794DE 		.word	-560691348
 5022 00cc F8B7527B 		.word	2069018616
 5023 00d0 D323AB73 		.word	1940595667
 5024 00d4 02E2724B 		.word	1265820162
 5025 00d8 8F57E31F 		.word	534992783
 5026 00dc AB2A6655 		.word	1432758955
 5027 00e0 2807B2EB 		.word	-340654296
 5028 00e4 C2032FB5 		.word	-1255210046
 5029 00e8 7B9A86C5 		.word	-981034373
 5030 00ec 08A5D337 		.word	936617224
 5031 00f0 87F23028 		.word	674296455
 5032 00f4 A5B223BF 		.word	-1088179547
 5033 00f8 6ABA0203 		.word	50510442
 5034 00fc 825CED16 		.word	384654466
 5035 0100 1C2B8ACF 		.word	-813028580
 5036 0104 B492A779 		.word	2041025204
 5037 0108 F2F0F307 		.word	133427442
 5038 010c E2A14E69 		.word	1766760930
 5039 0110 F4CD65DA 		.word	-630862348
 5040 0114 BED50605 		.word	84334014
 5041 0118 621FD134 		.word	886120290
 5042 011c FE8AC4A6 		.word	-1497068802
 5043 0120 539D342E 		.word	775200083
 5044 0124 55A0A2F3 		.word	-207445931
 5045 0128 E132058A 		.word	-1979370783
 5046 012c EB75A4F6 		.word	-156994069
 5047 0130 EC390B83 		.word	-2096416276
 5048 0134 EFAA4060 		.word	1614850799
 5049 0138 9F065E71 		.word	1901987487
 5050 013c 1051BD6E 		.word	1857900816
 5051 0140 8AF93E21 		.word	557775242
 5052 0144 063D96DD 		.word	-577356538
 5053 0148 05AEDD3E 		.word	1054715397
 5054 014c BD464DE6 		.word	-431143235
 5055 0150 8DB59154 		.word	1418835341
 5056 0154 5D0571C4 		.word	-999226019
 5057 0158 D46F0406 		.word	100954068
 5058 015c 15FF6050 		.word	1348534037
 5059 0160 FB241998 		.word	-1743182597
 5060 0164 E997D6BD 		.word	-1110009879
 5061 0168 43CC8940 		.word	1082772547
 5062 016c 9E7767D9 		.word	-647530594
 5063 0170 42BDB0E8 		.word	-391070398
ARM GAS  C:\Users\jo\AppData\Local\Temp\ccwlN2BW.s 			page 90


 5064 0174 8B880789 		.word	-1995994997
 5065 0178 5B38E719 		.word	434583643
 5066 017c EEDB79C8 		.word	-931537938
 5067 0180 0A47A17C 		.word	2090944266
 5068 0184 0FE97C42 		.word	1115482383
 5069 0188 1EC9F884 		.word	-2064070370
 5070 018c 00000000 		.word	0
 5071 0190 86830980 		.word	-2146860154
 5072 0194 ED48322B 		.word	724715757
 5073 0198 70AC1E11 		.word	287222896
 5074 019c 724E6C5A 		.word	1517047410
 5075 01a0 FFFBFD0E 		.word	251526143
 5076 01a4 38560F85 		.word	-2062592456
 5077 01a8 D51E3DAE 		.word	-1371726123
 5078 01ac 3927362D 		.word	758523705
 5079 01b0 D9640A0F 		.word	252339417
 5080 01b4 A621685C 		.word	1550328230
 5081 01b8 54D19B5B 		.word	1536938324
 5082 01bc 2E3A2436 		.word	908343854
 5083 01c0 67B10C0A 		.word	168604007
 5084 01c4 E70F9357 		.word	1469255655
 5085 01c8 96D2B4EE 		.word	-290139498
 5086 01cc 919E1B9B 		.word	-1692688751
 5087 01d0 C54F80C0 		.word	-1065332795
 5088 01d4 20A261DC 		.word	-597581280
 5089 01d8 4B695A77 		.word	2002413899
 5090 01dc 1A161C12 		.word	303830554
 5091 01e0 BA0AE293 		.word	-1813902662
 5092 01e4 2AE5C0A0 		.word	-1597971158
 5093 01e8 E0433C22 		.word	574374880
 5094 01ec 171D121B 		.word	454171927
 5095 01f0 0D0B0E09 		.word	151915277
 5096 01f4 C7ADF28B 		.word	-1947030073
 5097 01f8 A8B92DB6 		.word	-1238517336
 5098 01fc A9C8141E 		.word	504678569
 5099 0200 198557F1 		.word	-245922535
 5100 0204 074CAF75 		.word	1974422535
 5101 0208 DDBBEE99 		.word	-1712407587
 5102 020c 60FDA37F 		.word	2141453664
 5103 0210 269FF701 		.word	33005350
 5104 0214 F5BC5C72 		.word	1918680309
 5105 0218 3BC54466 		.word	1715782971
 5106 021c 7E345BFB 		.word	-77908866
 5107 0220 29768B43 		.word	1133213225
 5108 0224 C6DCCB23 		.word	600562886
 5109 0228 FC68B6ED 		.word	-306812676
 5110 022c F163B8E4 		.word	-457677839
 5111 0230 DCCAD731 		.word	836225756
 5112 0234 85104263 		.word	1665273989
 5113 0238 22401397 		.word	-1760346078
 5114 023c 112084C6 		.word	-964419567
 5115 0240 247D854A 		.word	1250262308
 5116 0244 3DF8D2BB 		.word	-1143801795
 5117 0248 3211AEF9 		.word	-106032846
 5118 024c A16DC729 		.word	700935585
 5119 0250 2F4B1D9E 		.word	-1642247377
 5120 0254 30F3DCB2 		.word	-1294142672
ARM GAS  C:\Users\jo\AppData\Local\Temp\ccwlN2BW.s 			page 91


 5121 0258 52EC0D86 		.word	-2045907886
 5122 025c E3D077C1 		.word	-1049112349
 5123 0260 166C2BB3 		.word	-1288999914
 5124 0264 B999A970 		.word	1890163129
 5125 0268 48FA1194 		.word	-1810761144
 5126 026c 642247E9 		.word	-381214108
 5127 0270 8CC4A8FC 		.word	-56048500
 5128 0274 3F1AA0F0 		.word	-257942977
 5129 0278 2CD8567D 		.word	2102843436
 5130 027c 90EF2233 		.word	857927568
 5131 0280 4EC78749 		.word	1233635150
 5132 0284 D1C1D938 		.word	953795025
 5133 0288 A2FE8CCA 		.word	-896729438
 5134 028c 0B3698D4 		.word	-728222197
 5135 0290 81CFA6F5 		.word	-173617279
 5136 0294 DE28A57A 		.word	2057644254
 5137 0298 8E26DAB7 		.word	-1210440050
 5138 029c BFA43FAD 		.word	-1388337985
 5139 02a0 9DE42C3A 		.word	976020637
 5140 02a4 920D5078 		.word	2018512274
 5141 02a8 CC9B6A5F 		.word	1600822220
 5142 02ac 4662547E 		.word	2119459398
 5143 02b0 13C2F68D 		.word	-1913208301
 5144 02b4 B8E890D8 		.word	-661591880
 5145 02b8 F75E2E39 		.word	959340279
 5146 02bc AFF582C3 		.word	-1014827601
 5147 02c0 80BE9F5D 		.word	1570750080
 5148 02c4 937C69D0 		.word	-798393197
 5149 02c8 2DA96FD5 		.word	-714102483
 5150 02cc 12B3CF25 		.word	634368786
 5151 02d0 993BC8AC 		.word	-1396163687
 5152 02d4 7DA71018 		.word	403744637
 5153 02d8 636EE89C 		.word	-1662488989
 5154 02dc BB7BDB3B 		.word	1004239803
 5155 02e0 7809CD26 		.word	650971512
 5156 02e4 18F46E59 		.word	1500443672
 5157 02e8 B701EC9A 		.word	-1695809097
 5158 02ec 9AA8834F 		.word	1334028442
 5159 02f0 6E65E695 		.word	-1780062866
 5160 02f4 E67EAAFF 		.word	-5603610
 5161 02f8 CF0821BC 		.word	-1138685745
 5162 02fc E8E6EF15 		.word	368043752
 5163 0300 9BD9BAE7 		.word	-407184997
 5164 0304 36CE4A6F 		.word	1867173430
 5165 0308 09D4EA9F 		.word	-1612000247
 5166 030c 7CD629B0 		.word	-1339435396
 5167 0310 B2AF31A4 		.word	-1540247630
 5168 0314 23312A3F 		.word	1059729699
 5169 0318 9430C6A5 		.word	-1513738092
 5170 031c 66C035A2 		.word	-1573535642
 5171 0320 BC37744E 		.word	1316239292
 5172 0324 CAA6FC82 		.word	-2097371446
 5173 0328 D0B0E090 		.word	-1864322864
 5174 032c D81533A7 		.word	-1489824296
 5175 0330 984AF104 		.word	82922136
 5176 0334 DAF741EC 		.word	-331221030
 5177 0338 500E7FCD 		.word	-847311280
ARM GAS  C:\Users\jo\AppData\Local\Temp\ccwlN2BW.s 			page 92


 5178 033c F62F1791 		.word	-1860751370
 5179 0340 D68D764D 		.word	1299615190
 5180 0344 B04D43EF 		.word	-280801872
 5181 0348 4D54CCAA 		.word	-1429449651
 5182 034c 04DFE496 		.word	-1763385596
 5183 0350 B5E39ED1 		.word	-778116171
 5184 0354 881B4C6A 		.word	1783372680
 5185 0358 1FB8C12C 		.word	750893087
 5186 035c 517F4665 		.word	1699118929
 5187 0360 EA049D5E 		.word	1587348714
 5188 0364 355D018C 		.word	-1946067659
 5189 0368 7473FA87 		.word	-2013629580
 5190 036c 412EFB0B 		.word	201010753
 5191 0370 1D5AB367 		.word	1739807261
 5192 0374 D25292DB 		.word	-611167534
 5193 0378 5633E910 		.word	283718486
 5194 037c 47136DD6 		.word	-697494713
 5195 0380 618C9AD7 		.word	-677737375
 5196 0384 0C7A37A1 		.word	-1590199796
 5197 0388 148E59F8 		.word	-128348652
 5198 038c 3C89EB13 		.word	334203196
 5199 0390 27EECEA9 		.word	-1446056409
 5200 0394 C935B761 		.word	1639396809
 5201 0398 E5EDE11C 		.word	484568549
 5202 039c B13C7A47 		.word	1199193265
 5203 03a0 DF599CD2 		.word	-761505313
 5204 03a4 733F55F2 		.word	-229294221
 5205 03a8 CE791814 		.word	337148366
 5206 03ac 37BF73C7 		.word	-948715721
 5207 03b0 CDEA53F7 		.word	-145495347
 5208 03b4 AA5B5FFD 		.word	-44082262
 5209 03b8 6F14DF3D 		.word	1038029935
 5210 03bc DB867844 		.word	1148749531
 5211 03c0 F381CAAF 		.word	-1345682957
 5212 03c4 C43EB968 		.word	1756970692
 5213 03c8 342C3824 		.word	607661108
 5214 03cc 405FC2A3 		.word	-1547542720
 5215 03d0 C372161D 		.word	488010435
 5216 03d4 250CBCE2 		.word	-490992603
 5217 03d8 498B283C 		.word	1009290057
 5218 03dc 9541FF0D 		.word	234832277
 5219 03e0 017139A8 		.word	-1472630527
 5220 03e4 B3DE080C 		.word	201907891
 5221 03e8 E49CD8B4 		.word	-1260872476
 5222 03ec C1906456 		.word	1449431233
 5223 03f0 84617BCB 		.word	-881106556
 5224 03f4 B670D532 		.word	852848822
 5225 03f8 5C74486C 		.word	1816687708
 5226 03fc 5742D0B8 		.word	-1194311081
 5227              		.section	.rodata.RT3,"a",%progbits
 5228              		.align	2
 5229              		.set	.LANCHOR2,. + 0
 5230              		.type	RT3, %object
 5231              		.size	RT3, 1024
 5232              	RT3:
 5233 0000 F4A75051 		.word	1364240372
 5234 0004 4165537E 		.word	2119394625
ARM GAS  C:\Users\jo\AppData\Local\Temp\ccwlN2BW.s 			page 93


 5235 0008 17A4C31A 		.word	449029143
 5236 000c 275E963A 		.word	982933031
 5237 0010 AB6BCB3B 		.word	1003187115
 5238 0014 9D45F11F 		.word	535905693
 5239 0018 FA58ABAC 		.word	-1398056710
 5240 001c E303934B 		.word	1267925987
 5241 0020 30FA5520 		.word	542505520
 5242 0024 766DF6AD 		.word	-1376359050
 5243 0028 CC769188 		.word	-2003732788
 5244 002c 024C25F5 		.word	-182105086
 5245 0030 E5D7FC4F 		.word	1341970405
 5246 0034 2ACBD7C5 		.word	-975713494
 5247 0038 35448026 		.word	645940277
 5248 003c 62A38FB5 		.word	-1248877726
 5249 0040 B15A49DE 		.word	-565617999
 5250 0044 BA1B6725 		.word	627514298
 5251 0048 EA0E9845 		.word	1167593194
 5252 004c FEC0E15D 		.word	1575076094
 5253 0050 2F7502C3 		.word	-1023249105
 5254 0054 4CF01281 		.word	-2129465268
 5255 0058 4697A38D 		.word	-1918658746
 5256 005c D3F9C66B 		.word	1808202195
 5257 0060 8F5FE703 		.word	65494927
 5258 0064 929C9515 		.word	362126482
 5259 0068 6D7AEBBF 		.word	-1075086739
 5260 006c 5259DA95 		.word	-1780852398
 5261 0070 BE832DD4 		.word	-735214658
 5262 0074 7421D358 		.word	1490231668
 5263 0078 E0692949 		.word	1227450848
 5264 007c C9C8448E 		.word	-1908094775
 5265 0080 C2896A75 		.word	1969916354
 5266 0084 8E7978F4 		.word	-193431154
 5267 0088 583E6B99 		.word	-1721024936
 5268 008c B971DD27 		.word	668823993
 5269 0090 E14FB6BE 		.word	-1095348255
 5270 0094 88AD17F0 		.word	-266883704
 5271 0098 20AC66C9 		.word	-916018144
 5272 009c CE3AB47D 		.word	2108963534
 5273 00a0 DF4A1863 		.word	1662536415
 5274 00a4 1A3182E5 		.word	-444452582
 5275 00a8 51336097 		.word	-1755303087
 5276 00ac 537F4562 		.word	1648721747
 5277 00b0 6477E0B1 		.word	-1310689436
 5278 00b4 6BAE84BB 		.word	-1148932501
 5279 00b8 81A01CFE 		.word	-31678335
 5280 00bc 082B94F9 		.word	-107730168
 5281 00c0 48685870 		.word	1884842056
 5282 00c4 45FD198F 		.word	-1894122171
 5283 00c8 DE6C8794 		.word	-1803064098
 5284 00cc 7BF8B752 		.word	1387788411
 5285 00d0 73D323AB 		.word	-1423715469
 5286 00d4 4B02E272 		.word	1927414347
 5287 00d8 1F8F57E3 		.word	-480800993
 5288 00dc 55AB2A66 		.word	1714072405
 5289 00e0 EB2807B2 		.word	-1308153621
 5290 00e4 B5C2032F 		.word	788775605
 5291 00e8 C57B9A86 		.word	-2036696123
ARM GAS  C:\Users\jo\AppData\Local\Temp\ccwlN2BW.s 			page 94


 5292 00ec 3708A5D3 		.word	-744159177
 5293 00f0 2887F230 		.word	821200680
 5294 00f4 BFA5B223 		.word	598910399
 5295 00f8 036ABA02 		.word	45771267
 5296 00fc 16825CED 		.word	-312704490
 5297 0100 CF1C2B8A 		.word	-1976886065
 5298 0104 79B492A7 		.word	-1483557767
 5299 0108 07F2F0F3 		.word	-202313209
 5300 010c 69E2A14E 		.word	1319232105
 5301 0110 DAF4CD65 		.word	1707996378
 5302 0114 05BED506 		.word	114671109
 5303 0118 34621FD1 		.word	-786472396
 5304 011c A6FE8AC4 		.word	-997523802
 5305 0120 2E539D34 		.word	882725678
 5306 0124 F355A0A2 		.word	-1566550541
 5307 0128 8AE13205 		.word	87220618
 5308 012c F6EB75A4 		.word	-1535775754
 5309 0130 83EC390B 		.word	188345475
 5310 0134 60EFAA40 		.word	1084944224
 5311 0138 719F065E 		.word	1577492337
 5312 013c 6E1051BD 		.word	-1118760850
 5313 0140 218AF93E 		.word	1056541217
 5314 0144 DD063D96 		.word	-1774385443
 5315 0148 3E05AEDD 		.word	-575797954
 5316 014c E6BD464D 		.word	1296481766
 5317 0150 548DB591 		.word	-1850372780
 5318 0154 C45D0571 		.word	1896177092
 5319 0158 06D46F04 		.word	74437638
 5320 015c 5015FF60 		.word	1627329872
 5321 0160 98FB2419 		.word	421854104
 5322 0164 BDE997D6 		.word	-694687299
 5323 0168 4043CC89 		.word	-1983102144
 5324 016c D99E7767 		.word	1735892697
 5325 0170 E842BDB0 		.word	-1329773848
 5326 0174 898B8807 		.word	126389129
 5327 0178 195B38E7 		.word	-415737063
 5328 017c C8EEDB79 		.word	2044456648
 5329 0180 7C0A47A1 		.word	-1589179780
 5330 0184 420FE97C 		.word	2095648578
 5331 0188 841EC9F8 		.word	-121037180
 5332 018c 00000000 		.word	0
 5333 0190 80868309 		.word	159614592
 5334 0194 2BED4832 		.word	843640107
 5335 0198 1170AC1E 		.word	514617361
 5336 019c 5A724E6C 		.word	1817080410
 5337 01a0 0EFFFBFD 		.word	-33816818
 5338 01a4 8538560F 		.word	257308805
 5339 01a8 AED51E3D 		.word	1025430958
 5340 01ac 2D392736 		.word	908540205
 5341 01b0 0FD9640A 		.word	174381327
 5342 01b4 5CA62168 		.word	1747035740
 5343 01b8 5B54D19B 		.word	-1680780197
 5344 01bc 362E3A24 		.word	607792694
 5345 01c0 0A67B10C 		.word	212952842
 5346 01c4 57E70F93 		.word	-1827674281
 5347 01c8 EE96D2B4 		.word	-1261267218
 5348 01cc 9B919E1B 		.word	463376795
ARM GAS  C:\Users\jo\AppData\Local\Temp\ccwlN2BW.s 			page 95


 5349 01d0 C0C54F80 		.word	-2142255680
 5350 01d4 DC20A261 		.word	1638015196
 5351 01d8 774B695A 		.word	1516850039
 5352 01dc 121A161C 		.word	471210514
 5353 01e0 93BA0AE2 		.word	-502613357
 5354 01e4 A02AE5C0 		.word	-1058723168
 5355 01e8 22E0433C 		.word	1011081250
 5356 01ec 1B171D12 		.word	303896347
 5357 01f0 090D0B0E 		.word	235605257
 5358 01f4 8BC7ADF2 		.word	-223492213
 5359 01f8 B6A8B92D 		.word	767142070
 5360 01fc 1EA9C814 		.word	348694814
 5361 0200 F1198557 		.word	1468340721
 5362 0204 75074CAF 		.word	-1353971851
 5363 0208 99DDBBEE 		.word	-289677927
 5364 020c 7F60FDA3 		.word	-1543675777
 5365 0210 01269FF7 		.word	-140564991
 5366 0214 72F5BC5C 		.word	1555887474
 5367 0218 663BC544 		.word	1153776486
 5368 021c FB7E345B 		.word	1530167035
 5369 0220 4329768B 		.word	-1955190461
 5370 0224 23C6DCCB 		.word	-874723805
 5371 0228 EDFC68B6 		.word	-1234633491
 5372 022c E4F163B8 		.word	-1201409564
 5373 0230 31DCCAD7 		.word	-674571215
 5374 0234 63851042 		.word	1108378979
 5375 0238 97224013 		.word	322970263
 5376 023c C6112084 		.word	-2078273082
 5377 0240 4A247D85 		.word	-2055396278
 5378 0244 BB3DF8D2 		.word	-755483205
 5379 0248 F93211AE 		.word	-1374604551
 5380 024c 29A16DC7 		.word	-949116631
 5381 0250 9E2F4B1D 		.word	491466654
 5382 0254 B230F3DC 		.word	-588042062
 5383 0258 8652EC0D 		.word	233591430
 5384 025c C1E3D077 		.word	2010178497
 5385 0260 B3166C2B 		.word	728503987
 5386 0264 70B999A9 		.word	-1449543312
 5387 0268 9448FA11 		.word	301615252
 5388 026c E9642247 		.word	1193436393
 5389 0270 FC8CC4A8 		.word	-1463513860
 5390 0274 F03F1AA0 		.word	-1608892432
 5391 0278 7D2CD856 		.word	1457007741
 5392 027c 3390EF22 		.word	586125363
 5393 0280 494EC787 		.word	-2016981431
 5394 0284 38D1C1D9 		.word	-641609416
 5395 0288 CAA2FE8C 		.word	-1929469238
 5396 028c D40B3698 		.word	-1741288492
 5397 0290 F581CFA6 		.word	-1496350219
 5398 0294 7ADE28A5 		.word	-1524048262
 5399 0298 B78E26DA 		.word	-635007305
 5400 029c ADBFA43F 		.word	1067761581
 5401 02a0 3A9DE42C 		.word	753179962
 5402 02a4 78920D50 		.word	1343066744
 5403 02a8 5FCC9B6A 		.word	1788595295
 5404 02ac 7E466254 		.word	1415726718
 5405 02b0 8D13C2F6 		.word	-155053171
ARM GAS  C:\Users\jo\AppData\Local\Temp\ccwlN2BW.s 			page 96


 5406 02b4 D8B8E890 		.word	-1863796520
 5407 02b8 39F75E2E 		.word	777975609
 5408 02bc C3AFF582 		.word	-2097827901
 5409 02c0 5D80BE9F 		.word	-1614905251
 5410 02c4 D0937C69 		.word	1769771984
 5411 02c8 D52DA96F 		.word	1873358293
 5412 02cc 2512B3CF 		.word	-810347995
 5413 02d0 AC993BC8 		.word	-935618132
 5414 02d4 187DA710 		.word	279411992
 5415 02d8 9C636EE8 		.word	-395418724
 5416 02dc 3BBB7BDB 		.word	-612648133
 5417 02e0 267809CD 		.word	-855017434
 5418 02e4 5918F46E 		.word	1861490777
 5419 02e8 9AB701EC 		.word	-335431782
 5420 02ec 4F9AA883 		.word	-2086102449
 5421 02f0 956E65E6 		.word	-429560171
 5422 02f4 FFE67EAA 		.word	-1434523905
 5423 02f8 BCCF0821 		.word	554225596
 5424 02fc 15E8E6EF 		.word	-270079979
 5425 0300 E79BD9BA 		.word	-1160143897
 5426 0304 6F36CE4A 		.word	1255028335
 5427 0308 9F09D4EA 		.word	-355202657
 5428 030c B07CD629 		.word	701922480
 5429 0310 A4B2AF31 		.word	833598116
 5430 0314 3F23312A 		.word	707863359
 5431 0318 A59430C6 		.word	-969894747
 5432 031c A266C035 		.word	901801634
 5433 0320 4EBC3774 		.word	1949809742
 5434 0324 82CAA6FC 		.word	-56178046
 5435 0328 90D0B0E0 		.word	-525283184
 5436 032c A7D81533 		.word	857069735
 5437 0330 04984AF1 		.word	-246769660
 5438 0334 ECDAF741 		.word	1106762476
 5439 0338 CD500E7F 		.word	2131644621
 5440 033c 91F62F17 		.word	389019281
 5441 0340 4DD68D76 		.word	1989006925
 5442 0344 EFB04D43 		.word	1129165039
 5443 0348 AA4D54CC 		.word	-866890326
 5444 034c 9604DFE4 		.word	-455146346
 5445 0350 D1B5E39E 		.word	-1629243951
 5446 0354 6A881B4C 		.word	1276872810
 5447 0358 2C1FB8C1 		.word	-1044898004
 5448 035c 65517F46 		.word	1182749029
 5449 0360 5EEA049D 		.word	-1660622242
 5450 0364 8C355D01 		.word	22885772
 5451 0368 877473FA 		.word	-93096825
 5452 036c 0B412EFB 		.word	-80854773
 5453 0370 671D5AB3 		.word	-1285939865
 5454 0374 DBD25292 		.word	-1840065829
 5455 0378 105633E9 		.word	-382511600
 5456 037c D647136D 		.word	1829980118
 5457 0380 D7618C9A 		.word	-1702075945
 5458 0384 A10C7A37 		.word	930745505
 5459 0388 F8148E59 		.word	1502483704
 5460 038c 133C89EB 		.word	-343327725
 5461 0390 A927EECE 		.word	-823253079
 5462 0394 61C935B7 		.word	-1221211807
ARM GAS  C:\Users\jo\AppData\Local\Temp\ccwlN2BW.s 			page 97


 5463 0398 1CE5EDE1 		.word	-504503012
 5464 039c 47B13C7A 		.word	2050797895
 5465 03a0 D2DF599C 		.word	-1671831598
 5466 03a4 F2733F55 		.word	1430221810
 5467 03a8 14CE7918 		.word	410635796
 5468 03ac C737BF73 		.word	1941911495
 5469 03b0 F7CDEA53 		.word	1407897079
 5470 03b4 FDAA5B5F 		.word	1599843069
 5471 03b8 3D6F14DF 		.word	-552308931
 5472 03bc 44DB8678 		.word	2022103876
 5473 03c0 AFF381CA 		.word	-897453137
 5474 03c4 68C43EB9 		.word	-1187068824
 5475 03c8 24342C38 		.word	942421028
 5476 03cc A3405FC2 		.word	-1033944925
 5477 03d0 1DC37216 		.word	376619805
 5478 03d4 E2250CBC 		.word	-1140054558
 5479 03d8 3C498B28 		.word	680216892
 5480 03dc 0D9541FF 		.word	-12479219
 5481 03e0 A8017139 		.word	963707304
 5482 03e4 0CB3DE08 		.word	148812556
 5483 03e8 B4E49CD8 		.word	-660806476
 5484 03ec 56C19064 		.word	1687208278
 5485 03f0 CB84617B 		.word	2069988555
 5486 03f4 32B670D5 		.word	-714033614
 5487 03f8 6C5C7448 		.word	1215585388
 5488 03fc B85742D0 		.word	-800958536
 5489              		.section	.rodata.str1.4,"aMS",%progbits,1
 5490              		.align	2
 5491              	.LC0:
 5492 0000 64656300 		.ascii	"dec\000"
 5493              	.LC1:
 5494 0004 656E6300 		.ascii	"enc\000"
 5495              	.LC2:
 5496 0008 20204145 		.ascii	"  AES-ECB-%3d (%s): \000"
 5496      532D4543 
 5496      422D2533 
 5496      64202825 
 5496      73293A20 
 5497 001d 000000   		.space	3
 5498              	.LC3:
 5499 0020 6661696C 		.ascii	"failed\000"
 5499      656400
 5500 0027 00       		.space	1
 5501              	.LC4:
 5502 0028 70617373 		.ascii	"passed\000"
 5502      656400
 5503 002f 00       		.space	1
 5504              	.LC5:
 5505 0030 20204145 		.ascii	"  AES-CBC-%3d (%s): \000"
 5505      532D4342 
 5505      432D2533 
 5505      64202825 
 5505      73293A20 
 5506 0045 000000   		.space	3
 5507              	.LC6:
 5508 0048 20204145 		.ascii	"  AES-CFB128-%3d (%s): \000"
 5508      532D4346 
ARM GAS  C:\Users\jo\AppData\Local\Temp\ccwlN2BW.s 			page 98


 5508      42313238 
 5508      2D253364 
 5508      20282573 
 5509              	.LC7:
 5510 0060 20204145 		.ascii	"  AES-CTR-128 (%s): \000"
 5510      532D4354 
 5510      522D3132 
 5510      38202825 
 5510      73293A20 
 5511 0075 000000   		.section	.rodata.aes_test_ctr_key,"a",%progbits
 5512              		.align	2
 5513              		.set	.LANCHOR20,. + 0
 5514              		.type	aes_test_ctr_key, %object
 5515              		.size	aes_test_ctr_key, 48
 5516              	aes_test_ctr_key:
 5517 0000 AE       		.byte	-82
 5518 0001 68       		.byte	104
 5519 0002 52       		.byte	82
 5520 0003 F8       		.byte	-8
 5521 0004 12       		.byte	18
 5522 0005 10       		.byte	16
 5523 0006 67       		.byte	103
 5524 0007 CC       		.byte	-52
 5525 0008 4B       		.byte	75
 5526 0009 F7       		.byte	-9
 5527 000a A5       		.byte	-91
 5528 000b 76       		.byte	118
 5529 000c 55       		.byte	85
 5530 000d 77       		.byte	119
 5531 000e F3       		.byte	-13
 5532 000f 9E       		.byte	-98
 5533 0010 7E       		.byte	126
 5534 0011 24       		.byte	36
 5535 0012 06       		.byte	6
 5536 0013 78       		.byte	120
 5537 0014 17       		.byte	23
 5538 0015 FA       		.byte	-6
 5539 0016 E0       		.byte	-32
 5540 0017 D7       		.byte	-41
 5541 0018 43       		.byte	67
 5542 0019 D6       		.byte	-42
 5543 001a CE       		.byte	-50
 5544 001b 1F       		.byte	31
 5545 001c 32       		.byte	50
 5546 001d 53       		.byte	83
 5547 001e 91       		.byte	-111
 5548 001f 63       		.byte	99
 5549 0020 76       		.byte	118
 5550 0021 91       		.byte	-111
 5551 0022 BE       		.byte	-66
 5552 0023 03       		.byte	3
 5553 0024 5E       		.byte	94
 5554 0025 50       		.byte	80
 5555 0026 20       		.byte	32
 5556 0027 A8       		.byte	-88
 5557 0028 AC       		.byte	-84
 5558 0029 6E       		.byte	110
ARM GAS  C:\Users\jo\AppData\Local\Temp\ccwlN2BW.s 			page 99


 5559 002a 61       		.byte	97
 5560 002b 85       		.byte	-123
 5561 002c 29       		.byte	41
 5562 002d F9       		.byte	-7
 5563 002e A0       		.byte	-96
 5564 002f DC       		.byte	-36
 5565              		.section	.rodata.RT1,"a",%progbits
 5566              		.align	2
 5567              		.set	.LANCHOR4,. + 0
 5568              		.type	RT1, %object
 5569              		.size	RT1, 1024
 5570              	RT1:
 5571 0000 5051F4A7 		.word	-1477160624
 5572 0004 537E4165 		.word	1698790995
 5573 0008 C31A17A4 		.word	-1541989693
 5574 000c 963A275E 		.word	1579629206
 5575 0010 CB3BAB6B 		.word	1806384075
 5576 0014 F11F9D45 		.word	1167925233
 5577 0018 ABACFA58 		.word	1492823211
 5578 001c 934BE303 		.word	65227667
 5579 0020 552030FA 		.word	-97509291
 5580 0024 F6AD766D 		.word	1836494326
 5581 0028 9188CC76 		.word	1993115793
 5582 002c 25F5024C 		.word	1275262245
 5583 0030 FC4FE5D7 		.word	-672837636
 5584 0034 D7C52ACB 		.word	-886389289
 5585 0038 80263544 		.word	1144333952
 5586 003c 8FB562A3 		.word	-1553812081
 5587 0040 49DEB15A 		.word	1521606217
 5588 0044 6725BA1B 		.word	465184103
 5589 0048 9845EA0E 		.word	250234264
 5590 004c E15DFEC0 		.word	-1057071647
 5591 0050 02C32F75 		.word	1966064386
 5592 0054 12814CF0 		.word	-263421678
 5593 0058 A38D4697 		.word	-1756983901
 5594 005c C66BD3F9 		.word	-103584826
 5595 0060 E7038F5F 		.word	1603208167
 5596 0064 9515929C 		.word	-1668147819
 5597 0068 EBBF6D7A 		.word	2054012907
 5598 006c DA955259 		.word	1498584538
 5599 0070 2DD4BE83 		.word	-2084645843
 5600 0074 D3587421 		.word	561273043
 5601 0078 2949E069 		.word	1776306473
 5602 007c 448EC9C8 		.word	-926314940
 5603 0080 6A75C289 		.word	-1983744662
 5604 0084 78F48E79 		.word	2039411832
 5605 0088 6B99583E 		.word	1045993835
 5606 008c DD27B971 		.word	1907959773
 5607 0090 B6BEE14F 		.word	1340194486
 5608 0094 17F088AD 		.word	-1383534569
 5609 0098 66C920AC 		.word	-1407137434
 5610 009c B47DCE3A 		.word	986611124
 5611 00a0 1863DF4A 		.word	1256153880
 5612 00a4 82E51A31 		.word	823846274
 5613 00a8 60975133 		.word	860985184
 5614 00ac 4562537F 		.word	2136171077
 5615 00b0 E0B16477 		.word	2003087840
ARM GAS  C:\Users\jo\AppData\Local\Temp\ccwlN2BW.s 			page 100


 5616 00b4 84BB6BAE 		.word	-1368671356
 5617 00b8 1CFE81A0 		.word	-1602093540
 5618 00bc 94F9082B 		.word	722008468
 5619 00c0 58704868 		.word	1749577816
 5620 00c4 198F45FD 		.word	-45773031
 5621 00c8 8794DE6C 		.word	1826526343
 5622 00cc B7527BF8 		.word	-126135625
 5623 00d0 23AB73D3 		.word	-747394269
 5624 00d4 E2724B02 		.word	38499042
 5625 00d8 57E31F8F 		.word	-1893735593
 5626 00dc 2A6655AB 		.word	-1420466646
 5627 00e0 07B2EB28 		.word	686535175
 5628 00e4 032FB5C2 		.word	-1028313341
 5629 00e8 9A86C57B 		.word	2076542618
 5630 00ec A5D33708 		.word	137876389
 5631 00f0 F2302887 		.word	-2027409166
 5632 00f4 B223BFA5 		.word	-1514200142
 5633 00f8 BA02036A 		.word	1778582202
 5634 00fc 5CED1682 		.word	-2112426660
 5635 0100 2B8ACF1C 		.word	483363371
 5636 0104 92A779B4 		.word	-1267095662
 5637 0108 F0F307F2 		.word	-234359824
 5638 010c A14E69E2 		.word	-496415071
 5639 0110 CD65DAF4 		.word	-187013683
 5640 0114 D50605BE 		.word	-1106966827
 5641 0118 1FD13462 		.word	1647628575
 5642 011c 8AC4A6FE 		.word	-22625142
 5643 0120 9D342E53 		.word	1395537053
 5644 0124 A0A2F355 		.word	1442030240
 5645 0128 32058AE1 		.word	-511048398
 5646 012c 75A4F6EB 		.word	-336157579
 5647 0130 390B83EC 		.word	-326956231
 5648 0134 AA4060EF 		.word	-278904662
 5649 0138 065E719F 		.word	-1619960314
 5650 013c 51BD6E10 		.word	275692881
 5651 0140 F93E218A 		.word	-1977532679
 5652 0144 3D96DD06 		.word	115185213
 5653 0148 AEDD3E05 		.word	88006062
 5654 014c 464DE6BD 		.word	-1108980410
 5655 0150 B591548D 		.word	-1923837515
 5656 0154 0571C45D 		.word	1573155077
 5657 0158 6F0406D4 		.word	-737803153
 5658 015c FF605015 		.word	357589247
 5659 0160 241998FB 		.word	-73918172
 5660 0164 97D6BDE9 		.word	-373434729
 5661 0168 CC894043 		.word	1128303052
 5662 016c 7767D99E 		.word	-1629919369
 5663 0170 BDB0E842 		.word	1122545853
 5664 0174 8807898B 		.word	-1953953912
 5665 0178 38E7195B 		.word	1528424248
 5666 017c DB79C8EE 		.word	-288851493
 5667 0180 47A17C0A 		.word	175939911
 5668 0184 E97C420F 		.word	256015593
 5669 0188 C9F8841E 		.word	512030921
 5670 018c 00000000 		.word	0
 5671 0190 83098086 		.word	-2038429309
 5672 0194 48322BED 		.word	-315936184
ARM GAS  C:\Users\jo\AppData\Local\Temp\ccwlN2BW.s 			page 101


 5673 0198 AC1E1170 		.word	1880170156
 5674 019c 4E6C5A72 		.word	1918528590
 5675 01a0 FBFD0EFF 		.word	-15794693
 5676 01a4 560F8538 		.word	948244310
 5677 01a8 1E3DAED5 		.word	-710001378
 5678 01ac 27362D39 		.word	959264295
 5679 01b0 640A0FD9 		.word	-653325724
 5680 01b4 21685CA6 		.word	-1503893471
 5681 01b8 D19B5B54 		.word	1415289809
 5682 01bc 3A24362E 		.word	775300154
 5683 01c0 B10C0A67 		.word	1728711857
 5684 01c4 0F9357E7 		.word	-413691121
 5685 01c8 D2B4EE96 		.word	-1762741038
 5686 01cc 9E1B9B91 		.word	-1852105826
 5687 01d0 4F80C0C5 		.word	-977239985
 5688 01d4 A261DC20 		.word	551313826
 5689 01d8 695A774B 		.word	1266113129
 5690 01dc 161C121A 		.word	437394454
 5691 01e0 0AE293BA 		.word	-1164713462
 5692 01e4 E5C0A02A 		.word	715178213
 5693 01e8 433C22E0 		.word	-534627261
 5694 01ec 1D121B17 		.word	387650077
 5695 01f0 0B0E090D 		.word	218697227
 5696 01f4 ADF28BC7 		.word	-947129683
 5697 01f8 B92DB6A8 		.word	-1464455751
 5698 01fc C8141EA9 		.word	-1457646392
 5699 0200 8557F119 		.word	435246981
 5700 0204 4CAF7507 		.word	125153100
 5701 0208 BBEE99DD 		.word	-577114437
 5702 020c FDA37F60 		.word	1618977789
 5703 0210 9FF70126 		.word	637663135
 5704 0214 BC5C72F5 		.word	-177054532
 5705 0218 C544663B 		.word	996558021
 5706 021c 345BFB7E 		.word	2130402100
 5707 0220 768B4329 		.word	692292470
 5708 0224 DCCB23C6 		.word	-970732580
 5709 0228 68B6EDFC 		.word	-51530136
 5710 022c 63B8E4F1 		.word	-236668829
 5711 0230 CAD731DC 		.word	-600713270
 5712 0234 10426385 		.word	-2057092592
 5713 0238 40139722 		.word	580326208
 5714 023c 2084C611 		.word	298222624
 5715 0240 7D854A24 		.word	608863613
 5716 0244 F8D2BB3D 		.word	1035719416
 5717 0248 11AEF932 		.word	855223825
 5718 024c 6DC729A1 		.word	-1591097491
 5719 0250 4B1D9E2F 		.word	798891339
 5720 0254 F3DCB230 		.word	817028339
 5721 0258 EC0D8652 		.word	1384517100
 5722 025c D077C1E3 		.word	-473860144
 5723 0260 6C2BB316 		.word	380840812
 5724 0264 99A970B9 		.word	-1183798887
 5725 0268 FA119448 		.word	1217663482
 5726 026c 2247E964 		.word	1693009698
 5727 0270 C4A8FC8C 		.word	-1929598780
 5728 0274 1AA0F03F 		.word	1072734234
 5729 0278 D8567D2C 		.word	746411736
ARM GAS  C:\Users\jo\AppData\Local\Temp\ccwlN2BW.s 			page 102


 5730 027c EF223390 		.word	-1875696913
 5731 0280 C787494E 		.word	1313441735
 5732 0284 C1D938D1 		.word	-784803391
 5733 0288 FE8CCAA2 		.word	-1563783938
 5734 028c 3698D40B 		.word	198481974
 5735 0290 CFA6F581 		.word	-2114607409
 5736 0294 28A57ADE 		.word	-562387672
 5737 0298 26DAB78E 		.word	-1900553690
 5738 029c A43FADBF 		.word	-1079165020
 5739 02a0 E42C3A9D 		.word	-1657131804
 5740 02a4 0D507892 		.word	-1837608947
 5741 02a8 9B6A5FCC 		.word	-866162021
 5742 02ac 62547E46 		.word	1182684258
 5743 02b0 C2F68D13 		.word	328070850
 5744 02b4 E890D8B8 		.word	-1193766680
 5745 02b8 5E2E39F7 		.word	-147247522
 5746 02bc F582C3AF 		.word	-1346141451
 5747 02c0 BE9F5D80 		.word	-2141347906
 5748 02c4 7C69D093 		.word	-1815058052
 5749 02c8 A96FD52D 		.word	768962473
 5750 02cc B3CF2512 		.word	304467891
 5751 02d0 3BC8AC99 		.word	-1716729797
 5752 02d4 A710187D 		.word	2098729127
 5753 02d8 6EE89C63 		.word	1671227502
 5754 02dc 7BDB3BBB 		.word	-1153705093
 5755 02e0 09CD2678 		.word	2015808777
 5756 02e4 F46E5918 		.word	408514292
 5757 02e8 01EC9AB7 		.word	-1214583807
 5758 02ec A8834F9A 		.word	-1706064984
 5759 02f0 65E6956E 		.word	1855317605
 5760 02f4 7EAAFFE6 		.word	-419452290
 5761 02f8 0821BCCF 		.word	-809754360
 5762 02fc E6EF15E8 		.word	-401215514
 5763 0300 D9BAE79B 		.word	-1679312167
 5764 0304 CE4A6F36 		.word	913263310
 5765 0308 D4EA9F09 		.word	161475284
 5766 030c D629B07C 		.word	2091919830
 5767 0310 AF31A4B2 		.word	-1297862225
 5768 0314 312A3F23 		.word	591342129
 5769 0318 30C6A594 		.word	-1801075152
 5770 031c C035A266 		.word	1721906624
 5771 0320 37744EBC 		.word	-1135709129
 5772 0324 A6FC82CA 		.word	-897385306
 5773 0328 B0E090D0 		.word	-795811664
 5774 032c 1533A7D8 		.word	-660131051
 5775 0330 4AF10498 		.word	-1744506550
 5776 0334 F741ECDA 		.word	-622050825
 5777 0338 0E7FCD50 		.word	1355644686
 5778 033c 2F1791F6 		.word	-158263505
 5779 0340 8D764DD6 		.word	-699566451
 5780 0344 4D43EFB0 		.word	-1326496947
 5781 0348 54CCAA4D 		.word	1303039060
 5782 034c DFE49604 		.word	76997855
 5783 0350 E39ED1B5 		.word	-1244553501
 5784 0354 1B4C6A88 		.word	-2006299621
 5785 0358 B8C12C1F 		.word	523026872
 5786 035c 7F466551 		.word	1365591679
ARM GAS  C:\Users\jo\AppData\Local\Temp\ccwlN2BW.s 			page 103


 5787 0360 049D5EEA 		.word	-362898172
 5788 0364 5D018C35 		.word	898367837
 5789 0368 73FA8774 		.word	1955068531
 5790 036c 2EFB0B41 		.word	1091304238
 5791 0370 5AB3671D 		.word	493335386
 5792 0374 5292DBD2 		.word	-757362094
 5793 0378 33E91056 		.word	1443948851
 5794 037c 136DD647 		.word	1205234963
 5795 0380 8C9AD761 		.word	1641519756
 5796 0384 7A37A10C 		.word	211892090
 5797 0388 8E59F814 		.word	351820174
 5798 038c 89EB133C 		.word	1007938441
 5799 0390 EECEA927 		.word	665439982
 5800 0394 35B761C9 		.word	-916342987
 5801 0398 EDE11CE5 		.word	-451091987
 5802 039c 3C7A47B1 		.word	-1320715716
 5803 03a0 599CD2DF 		.word	-539845543
 5804 03a4 3F55F273 		.word	1945261375
 5805 03a8 791814CE 		.word	-837543815
 5806 03ac BF73C737 		.word	935818175
 5807 03b0 EA53F7CD 		.word	-839429142
 5808 03b4 5B5FFDAA 		.word	-1426235557
 5809 03b8 14DF3D6F 		.word	1866325780
 5810 03bc 867844DB 		.word	-616269690
 5811 03c0 81CAAFF3 		.word	-206583167
 5812 03c4 3EB968C4 		.word	-999769794
 5813 03c8 2C382434 		.word	874788908
 5814 03cc 5FC2A340 		.word	1084473951
 5815 03d0 72161DC3 		.word	-1021503886
 5816 03d4 0CBCE225 		.word	635616268
 5817 03d8 8B283C49 		.word	1228679307
 5818 03dc 41FF0D95 		.word	-1794244799
 5819 03e0 7139A801 		.word	27801969
 5820 03e4 DE080CB3 		.word	-1291056930
 5821 03e8 9CD8B4E4 		.word	-457910116
 5822 03ec 906456C1 		.word	-1051302768
 5823 03f0 617BCB84 		.word	-2067039391
 5824 03f4 70D532B6 		.word	-1238182544
 5825 03f8 74486C5C 		.word	1550600308
 5826 03fc 42D0B857 		.word	1471729730
 5827              		.section	.rodata.aes_test_ecb_enc,"a",%progbits
 5828              		.align	2
 5829              		.set	.LANCHOR12,. + 0
 5830              		.type	aes_test_ecb_enc, %object
 5831              		.size	aes_test_ecb_enc, 48
 5832              	aes_test_ecb_enc:
 5833 0000 C3       		.byte	-61
 5834 0001 4C       		.byte	76
 5835 0002 05       		.byte	5
 5836 0003 2C       		.byte	44
 5837 0004 C0       		.byte	-64
 5838 0005 DA       		.byte	-38
 5839 0006 8D       		.byte	-115
 5840 0007 73       		.byte	115
 5841 0008 45       		.byte	69
 5842 0009 1A       		.byte	26
 5843 000a FE       		.byte	-2
ARM GAS  C:\Users\jo\AppData\Local\Temp\ccwlN2BW.s 			page 104


 5844 000b 5F       		.byte	95
 5845 000c 03       		.byte	3
 5846 000d BE       		.byte	-66
 5847 000e 29       		.byte	41
 5848 000f 7F       		.byte	127
 5849 0010 F3       		.byte	-13
 5850 0011 F6       		.byte	-10
 5851 0012 75       		.byte	117
 5852 0013 2A       		.byte	42
 5853 0014 E8       		.byte	-24
 5854 0015 D7       		.byte	-41
 5855 0016 83       		.byte	-125
 5856 0017 11       		.byte	17
 5857 0018 38       		.byte	56
 5858 0019 F0       		.byte	-16
 5859 001a 41       		.byte	65
 5860 001b 56       		.byte	86
 5861 001c 06       		.byte	6
 5862 001d 31       		.byte	49
 5863 001e B1       		.byte	-79
 5864 001f 14       		.byte	20
 5865 0020 8B       		.byte	-117
 5866 0021 79       		.byte	121
 5867 0022 EE       		.byte	-18
 5868 0023 CC       		.byte	-52
 5869 0024 93       		.byte	-109
 5870 0025 A0       		.byte	-96
 5871 0026 EE       		.byte	-18
 5872 0027 5D       		.byte	93
 5873 0028 FF       		.byte	-1
 5874 0029 30       		.byte	48
 5875 002a B4       		.byte	-76
 5876 002b EA       		.byte	-22
 5877 002c 21       		.byte	33
 5878 002d 63       		.byte	99
 5879 002e 6D       		.byte	109
 5880 002f A4       		.byte	-92
 5881              		.section	.rodata.aes_test_cfb128_pt,"a",%progbits
 5882              		.align	2
 5883              		.set	.LANCHOR18,. + 0
 5884              		.type	aes_test_cfb128_pt, %object
 5885              		.size	aes_test_cfb128_pt, 64
 5886              	aes_test_cfb128_pt:
 5887 0000 6B       		.byte	107
 5888 0001 C1       		.byte	-63
 5889 0002 BE       		.byte	-66
 5890 0003 E2       		.byte	-30
 5891 0004 2E       		.byte	46
 5892 0005 40       		.byte	64
 5893 0006 9F       		.byte	-97
 5894 0007 96       		.byte	-106
 5895 0008 E9       		.byte	-23
 5896 0009 3D       		.byte	61
 5897 000a 7E       		.byte	126
 5898 000b 11       		.byte	17
 5899 000c 73       		.byte	115
 5900 000d 93       		.byte	-109
ARM GAS  C:\Users\jo\AppData\Local\Temp\ccwlN2BW.s 			page 105


 5901 000e 17       		.byte	23
 5902 000f 2A       		.byte	42
 5903 0010 AE       		.byte	-82
 5904 0011 2D       		.byte	45
 5905 0012 8A       		.byte	-118
 5906 0013 57       		.byte	87
 5907 0014 1E       		.byte	30
 5908 0015 03       		.byte	3
 5909 0016 AC       		.byte	-84
 5910 0017 9C       		.byte	-100
 5911 0018 9E       		.byte	-98
 5912 0019 B7       		.byte	-73
 5913 001a 6F       		.byte	111
 5914 001b AC       		.byte	-84
 5915 001c 45       		.byte	69
 5916 001d AF       		.byte	-81
 5917 001e 8E       		.byte	-114
 5918 001f 51       		.byte	81
 5919 0020 30       		.byte	48
 5920 0021 C8       		.byte	-56
 5921 0022 1C       		.byte	28
 5922 0023 46       		.byte	70
 5923 0024 A3       		.byte	-93
 5924 0025 5C       		.byte	92
 5925 0026 E4       		.byte	-28
 5926 0027 11       		.byte	17
 5927 0028 E5       		.byte	-27
 5928 0029 FB       		.byte	-5
 5929 002a C1       		.byte	-63
 5930 002b 19       		.byte	25
 5931 002c 1A       		.byte	26
 5932 002d 0A       		.byte	10
 5933 002e 52       		.byte	82
 5934 002f EF       		.byte	-17
 5935 0030 F6       		.byte	-10
 5936 0031 9F       		.byte	-97
 5937 0032 24       		.byte	36
 5938 0033 45       		.byte	69
 5939 0034 DF       		.byte	-33
 5940 0035 4F       		.byte	79
 5941 0036 9B       		.byte	-101
 5942 0037 17       		.byte	23
 5943 0038 AD       		.byte	-83
 5944 0039 2B       		.byte	43
 5945 003a 41       		.byte	65
 5946 003b 7B       		.byte	123
 5947 003c E6       		.byte	-26
 5948 003d 6C       		.byte	108
 5949 003e 37       		.byte	55
 5950 003f 10       		.byte	16
 5951              		.section	.rodata.aes_test_cfb128_key,"a",%progbits
 5952              		.align	2
 5953              		.set	.LANCHOR16,. + 0
 5954              		.type	aes_test_cfb128_key, %object
 5955              		.size	aes_test_cfb128_key, 96
 5956              	aes_test_cfb128_key:
 5957 0000 2B       		.byte	43
ARM GAS  C:\Users\jo\AppData\Local\Temp\ccwlN2BW.s 			page 106


 5958 0001 7E       		.byte	126
 5959 0002 15       		.byte	21
 5960 0003 16       		.byte	22
 5961 0004 28       		.byte	40
 5962 0005 AE       		.byte	-82
 5963 0006 D2       		.byte	-46
 5964 0007 A6       		.byte	-90
 5965 0008 AB       		.byte	-85
 5966 0009 F7       		.byte	-9
 5967 000a 15       		.byte	21
 5968 000b 88       		.byte	-120
 5969 000c 09       		.byte	9
 5970 000d CF       		.byte	-49
 5971 000e 4F       		.byte	79
 5972 000f 3C       		.byte	60
 5973 0010 00000000 		.space	16
 5973      00000000 
 5973      00000000 
 5973      00000000 
 5974 0020 8E       		.byte	-114
 5975 0021 73       		.byte	115
 5976 0022 B0       		.byte	-80
 5977 0023 F7       		.byte	-9
 5978 0024 DA       		.byte	-38
 5979 0025 0E       		.byte	14
 5980 0026 64       		.byte	100
 5981 0027 52       		.byte	82
 5982 0028 C8       		.byte	-56
 5983 0029 10       		.byte	16
 5984 002a F3       		.byte	-13
 5985 002b 2B       		.byte	43
 5986 002c 80       		.byte	-128
 5987 002d 90       		.byte	-112
 5988 002e 79       		.byte	121
 5989 002f E5       		.byte	-27
 5990 0030 62       		.byte	98
 5991 0031 F8       		.byte	-8
 5992 0032 EA       		.byte	-22
 5993 0033 D2       		.byte	-46
 5994 0034 52       		.byte	82
 5995 0035 2C       		.byte	44
 5996 0036 6B       		.byte	107
 5997 0037 7B       		.byte	123
 5998 0038 00000000 		.space	8
 5998      00000000 
 5999 0040 60       		.byte	96
 6000 0041 3D       		.byte	61
 6001 0042 EB       		.byte	-21
 6002 0043 10       		.byte	16
 6003 0044 15       		.byte	21
 6004 0045 CA       		.byte	-54
 6005 0046 71       		.byte	113
 6006 0047 BE       		.byte	-66
 6007 0048 2B       		.byte	43
 6008 0049 73       		.byte	115
 6009 004a AE       		.byte	-82
 6010 004b F0       		.byte	-16
ARM GAS  C:\Users\jo\AppData\Local\Temp\ccwlN2BW.s 			page 107


 6011 004c 85       		.byte	-123
 6012 004d 7D       		.byte	125
 6013 004e 77       		.byte	119
 6014 004f 81       		.byte	-127
 6015 0050 1F       		.byte	31
 6016 0051 35       		.byte	53
 6017 0052 2C       		.byte	44
 6018 0053 07       		.byte	7
 6019 0054 3B       		.byte	59
 6020 0055 61       		.byte	97
 6021 0056 08       		.byte	8
 6022 0057 D7       		.byte	-41
 6023 0058 2D       		.byte	45
 6024 0059 98       		.byte	-104
 6025 005a 10       		.byte	16
 6026 005b A3       		.byte	-93
 6027 005c 09       		.byte	9
 6028 005d 14       		.byte	20
 6029 005e DF       		.byte	-33
 6030 005f F4       		.byte	-12
 6031              		.section	.rodata.aes_test_ctr_ct,"a",%progbits
 6032              		.align	2
 6033              		.set	.LANCHOR22,. + 0
 6034              		.type	aes_test_ctr_ct, %object
 6035              		.size	aes_test_ctr_ct, 144
 6036              	aes_test_ctr_ct:
 6037 0000 E4       		.byte	-28
 6038 0001 09       		.byte	9
 6039 0002 5D       		.byte	93
 6040 0003 4F       		.byte	79
 6041 0004 B7       		.byte	-73
 6042 0005 A7       		.byte	-89
 6043 0006 B3       		.byte	-77
 6044 0007 79       		.byte	121
 6045 0008 2D       		.byte	45
 6046 0009 61       		.byte	97
 6047 000a 75       		.byte	117
 6048 000b A3       		.byte	-93
 6049 000c 26       		.byte	38
 6050 000d 13       		.byte	19
 6051 000e 11       		.byte	17
 6052 000f B8       		.byte	-72
 6053 0010 00000000 		.space	32
 6053      00000000 
 6053      00000000 
 6053      00000000 
 6053      00000000 
 6054 0030 51       		.byte	81
 6055 0031 04       		.byte	4
 6056 0032 A1       		.byte	-95
 6057 0033 06       		.byte	6
 6058 0034 16       		.byte	22
 6059 0035 8A       		.byte	-118
 6060 0036 72       		.byte	114
 6061 0037 D9       		.byte	-39
 6062 0038 79       		.byte	121
 6063 0039 0D       		.byte	13
ARM GAS  C:\Users\jo\AppData\Local\Temp\ccwlN2BW.s 			page 108


 6064 003a 41       		.byte	65
 6065 003b EE       		.byte	-18
 6066 003c 8E       		.byte	-114
 6067 003d DA       		.byte	-38
 6068 003e D3       		.byte	-45
 6069 003f 88       		.byte	-120
 6070 0040 EB       		.byte	-21
 6071 0041 2E       		.byte	46
 6072 0042 1E       		.byte	30
 6073 0043 FC       		.byte	-4
 6074 0044 46       		.byte	70
 6075 0045 DA       		.byte	-38
 6076 0046 57       		.byte	87
 6077 0047 C8       		.byte	-56
 6078 0048 FC       		.byte	-4
 6079 0049 E6       		.byte	-26
 6080 004a 30       		.byte	48
 6081 004b DF       		.byte	-33
 6082 004c 91       		.byte	-111
 6083 004d 41       		.byte	65
 6084 004e BE       		.byte	-66
 6085 004f 28       		.byte	40
 6086 0050 00000000 		.space	16
 6086      00000000 
 6086      00000000 
 6086      00000000 
 6087 0060 C1       		.byte	-63
 6088 0061 CF       		.byte	-49
 6089 0062 48       		.byte	72
 6090 0063 A8       		.byte	-88
 6091 0064 9F       		.byte	-97
 6092 0065 2F       		.byte	47
 6093 0066 FD       		.byte	-3
 6094 0067 D9       		.byte	-39
 6095 0068 CF       		.byte	-49
 6096 0069 46       		.byte	70
 6097 006a 52       		.byte	82
 6098 006b E9       		.byte	-23
 6099 006c EF       		.byte	-17
 6100 006d DB       		.byte	-37
 6101 006e 72       		.byte	114
 6102 006f D7       		.byte	-41
 6103 0070 45       		.byte	69
 6104 0071 40       		.byte	64
 6105 0072 A4       		.byte	-92
 6106 0073 2B       		.byte	43
 6107 0074 DE       		.byte	-34
 6108 0075 6D       		.byte	109
 6109 0076 78       		.byte	120
 6110 0077 36       		.byte	54
 6111 0078 D5       		.byte	-43
 6112 0079 9A       		.byte	-102
 6113 007a 5C       		.byte	92
 6114 007b EA       		.byte	-22
 6115 007c AE       		.byte	-82
 6116 007d F3       		.byte	-13
 6117 007e 10       		.byte	16
ARM GAS  C:\Users\jo\AppData\Local\Temp\ccwlN2BW.s 			page 109


 6118 007f 53       		.byte	83
 6119 0080 25       		.byte	37
 6120 0081 B2       		.byte	-78
 6121 0082 07       		.byte	7
 6122 0083 2F       		.byte	47
 6123 0084 00000000 		.space	12
 6123      00000000 
 6123      00000000 
 6124              		.section	.rodata.aes_test_ctr_len,"a",%progbits
 6125              		.align	2
 6126              		.set	.LANCHOR21,. + 0
 6127              		.type	aes_test_ctr_len, %object
 6128              		.size	aes_test_ctr_len, 12
 6129              	aes_test_ctr_len:
 6130 0000 10000000 		.word	16
 6131 0004 20000000 		.word	32
 6132 0008 24000000 		.word	36
 6133              		.section	.rodata.aes_test_cbc_enc,"a",%progbits
 6134              		.align	2
 6135              		.set	.LANCHOR14,. + 0
 6136              		.type	aes_test_cbc_enc, %object
 6137              		.size	aes_test_cbc_enc, 48
 6138              	aes_test_cbc_enc:
 6139 0000 8A       		.byte	-118
 6140 0001 05       		.byte	5
 6141 0002 FC       		.byte	-4
 6142 0003 5E       		.byte	94
 6143 0004 09       		.byte	9
 6144 0005 5A       		.byte	90
 6145 0006 F4       		.byte	-12
 6146 0007 84       		.byte	-124
 6147 0008 8A       		.byte	-118
 6148 0009 08       		.byte	8
 6149 000a D3       		.byte	-45
 6150 000b 28       		.byte	40
 6151 000c D3       		.byte	-45
 6152 000d 68       		.byte	104
 6153 000e 8E       		.byte	-114
 6154 000f 3D       		.byte	61
 6155 0010 7B       		.byte	123
 6156 0011 D9       		.byte	-39
 6157 0012 66       		.byte	102
 6158 0013 D5       		.byte	-43
 6159 0014 3A       		.byte	58
 6160 0015 D8       		.byte	-40
 6161 0016 C1       		.byte	-63
 6162 0017 BB       		.byte	-69
 6163 0018 85       		.byte	-123
 6164 0019 D2       		.byte	-46
 6165 001a AD       		.byte	-83
 6166 001b FA       		.byte	-6
 6167 001c E8       		.byte	-24
 6168 001d 7B       		.byte	123
 6169 001e B1       		.byte	-79
 6170 001f 04       		.byte	4
 6171 0020 FE       		.byte	-2
 6172 0021 3C       		.byte	60
ARM GAS  C:\Users\jo\AppData\Local\Temp\ccwlN2BW.s 			page 110


 6173 0022 53       		.byte	83
 6174 0023 65       		.byte	101
 6175 0024 3E       		.byte	62
 6176 0025 2F       		.byte	47
 6177 0026 45       		.byte	69
 6178 0027 B5       		.byte	-75
 6179 0028 6F       		.byte	111
 6180 0029 CD       		.byte	-51
 6181 002a 88       		.byte	-120
 6182 002b B2       		.byte	-78
 6183 002c CC       		.byte	-52
 6184 002d 89       		.byte	-119
 6185 002e 8F       		.byte	-113
 6186 002f F0       		.byte	-16
 6187              		.section	.rodata.aes_test_ctr_pt,"a",%progbits
 6188              		.align	2
 6189              		.set	.LANCHOR23,. + 0
 6190              		.type	aes_test_ctr_pt, %object
 6191              		.size	aes_test_ctr_pt, 144
 6192              	aes_test_ctr_pt:
 6193 0000 53       		.byte	83
 6194 0001 69       		.byte	105
 6195 0002 6E       		.byte	110
 6196 0003 67       		.byte	103
 6197 0004 6C       		.byte	108
 6198 0005 65       		.byte	101
 6199 0006 20       		.byte	32
 6200 0007 62       		.byte	98
 6201 0008 6C       		.byte	108
 6202 0009 6F       		.byte	111
 6203 000a 63       		.byte	99
 6204 000b 6B       		.byte	107
 6205 000c 20       		.byte	32
 6206 000d 6D       		.byte	109
 6207 000e 73       		.byte	115
 6208 000f 67       		.byte	103
 6209 0010 00000000 		.space	32
 6209      00000000 
 6209      00000000 
 6209      00000000 
 6209      00000000 
 6210 0030 00       		.byte	0
 6211 0031 01       		.byte	1
 6212 0032 02       		.byte	2
 6213 0033 03       		.byte	3
 6214 0034 04       		.byte	4
 6215 0035 05       		.byte	5
 6216 0036 06       		.byte	6
 6217 0037 07       		.byte	7
 6218 0038 08       		.byte	8
 6219 0039 09       		.byte	9
 6220 003a 0A       		.byte	10
 6221 003b 0B       		.byte	11
 6222 003c 0C       		.byte	12
 6223 003d 0D       		.byte	13
 6224 003e 0E       		.byte	14
 6225 003f 0F       		.byte	15
ARM GAS  C:\Users\jo\AppData\Local\Temp\ccwlN2BW.s 			page 111


 6226 0040 10       		.byte	16
 6227 0041 11       		.byte	17
 6228 0042 12       		.byte	18
 6229 0043 13       		.byte	19
 6230 0044 14       		.byte	20
 6231 0045 15       		.byte	21
 6232 0046 16       		.byte	22
 6233 0047 17       		.byte	23
 6234 0048 18       		.byte	24
 6235 0049 19       		.byte	25
 6236 004a 1A       		.byte	26
 6237 004b 1B       		.byte	27
 6238 004c 1C       		.byte	28
 6239 004d 1D       		.byte	29
 6240 004e 1E       		.byte	30
 6241 004f 1F       		.byte	31
 6242 0050 00000000 		.space	16
 6242      00000000 
 6242      00000000 
 6242      00000000 
 6243 0060 00       		.byte	0
 6244 0061 01       		.byte	1
 6245 0062 02       		.byte	2
 6246 0063 03       		.byte	3
 6247 0064 04       		.byte	4
 6248 0065 05       		.byte	5
 6249 0066 06       		.byte	6
 6250 0067 07       		.byte	7
 6251 0068 08       		.byte	8
 6252 0069 09       		.byte	9
 6253 006a 0A       		.byte	10
 6254 006b 0B       		.byte	11
 6255 006c 0C       		.byte	12
 6256 006d 0D       		.byte	13
 6257 006e 0E       		.byte	14
 6258 006f 0F       		.byte	15
 6259 0070 10       		.byte	16
 6260 0071 11       		.byte	17
 6261 0072 12       		.byte	18
 6262 0073 13       		.byte	19
 6263 0074 14       		.byte	20
 6264 0075 15       		.byte	21
 6265 0076 16       		.byte	22
 6266 0077 17       		.byte	23
 6267 0078 18       		.byte	24
 6268 0079 19       		.byte	25
 6269 007a 1A       		.byte	26
 6270 007b 1B       		.byte	27
 6271 007c 1C       		.byte	28
 6272 007d 1D       		.byte	29
 6273 007e 1E       		.byte	30
 6274 007f 1F       		.byte	31
 6275 0080 20       		.byte	32
 6276 0081 21       		.byte	33
 6277 0082 22       		.byte	34
 6278 0083 23       		.byte	35
 6279 0084 00000000 		.space	12
ARM GAS  C:\Users\jo\AppData\Local\Temp\ccwlN2BW.s 			page 112


 6279      00000000 
 6279      00000000 
 6280              		.section	.rodata.aes_test_cfb128_iv,"a",%progbits
 6281              		.align	2
 6282              		.set	.LANCHOR15,. + 0
 6283              		.type	aes_test_cfb128_iv, %object
 6284              		.size	aes_test_cfb128_iv, 16
 6285              	aes_test_cfb128_iv:
 6286 0000 00       		.byte	0
 6287 0001 01       		.byte	1
 6288 0002 02       		.byte	2
 6289 0003 03       		.byte	3
 6290 0004 04       		.byte	4
 6291 0005 05       		.byte	5
 6292 0006 06       		.byte	6
 6293 0007 07       		.byte	7
 6294 0008 08       		.byte	8
 6295 0009 09       		.byte	9
 6296 000a 0A       		.byte	10
 6297 000b 0B       		.byte	11
 6298 000c 0C       		.byte	12
 6299 000d 0D       		.byte	13
 6300 000e 0E       		.byte	14
 6301 000f 0F       		.byte	15
 6302              		.text
 6303              	.Letext0:
 6304              		.file 2 "c:\\program files\\gnu tools arm embedded\\4.9 2014q4\\lib\\gcc\\arm-none-eabi\\4.9.3\\in
 6305              		.file 3 "c:\\program files\\gnu tools arm embedded\\4.9 2014q4\\arm-none-eabi\\include\\machine\\_
 6306              		.file 4 "c:\\program files\\gnu tools arm embedded\\4.9 2014q4\\arm-none-eabi\\include\\stdint.h"
 6307              		.file 5 "../../../demos/STM32/RT-STM32F407-DISCOVERY-uHttp/uhttp-1.1/PolarSSL/include/polarssl/aes
 6308              		.file 6 "c:\\program files\\gnu tools arm embedded\\4.9 2014q4\\arm-none-eabi\\include\\stdio.h"
 6309              		.file 7 "c:\\program files\\gnu tools arm embedded\\4.9 2014q4\\arm-none-eabi\\include\\string.h"
 6310              		.file 8 "<built-in>"
 6311              		.section	.debug_info,"",%progbits
 6312              	.Ldebug_info0:
 6313 0000 17100000 		.4byte	0x1017
 6314 0004 0400     		.2byte	0x4
 6315 0006 00000000 		.4byte	.Ldebug_abbrev0
 6316 000a 04       		.byte	0x4
 6317 000b 01       		.uleb128 0x1
 6318 000c DE010000 		.4byte	.LASF53
 6319 0010 01       		.byte	0x1
 6320 0011 BB000000 		.4byte	.LASF54
 6321 0015 53000000 		.4byte	.LASF55
 6322 0019 18000000 		.4byte	.Ldebug_ranges0+0x18
 6323 001d 00000000 		.4byte	0
 6324 0021 00000000 		.4byte	.Ldebug_line0
 6325 0025 02       		.uleb128 0x2
 6326 0026 04       		.byte	0x4
 6327 0027 05       		.byte	0x5
 6328 0028 696E7400 		.ascii	"int\000"
 6329 002c 03       		.uleb128 0x3
 6330 002d 07000000 		.4byte	.LASF6
 6331 0031 02       		.byte	0x2
 6332 0032 D4       		.byte	0xd4
 6333 0033 37000000 		.4byte	0x37
 6334 0037 04       		.uleb128 0x4
ARM GAS  C:\Users\jo\AppData\Local\Temp\ccwlN2BW.s 			page 113


 6335 0038 04       		.byte	0x4
 6336 0039 07       		.byte	0x7
 6337 003a 52010000 		.4byte	.LASF0
 6338 003e 04       		.uleb128 0x4
 6339 003f 01       		.byte	0x1
 6340 0040 06       		.byte	0x6
 6341 0041 AF000000 		.4byte	.LASF1
 6342 0045 04       		.uleb128 0x4
 6343 0046 01       		.byte	0x1
 6344 0047 08       		.byte	0x8
 6345 0048 4E030000 		.4byte	.LASF2
 6346 004c 04       		.uleb128 0x4
 6347 004d 02       		.byte	0x2
 6348 004e 05       		.byte	0x5
 6349 004f 5C030000 		.4byte	.LASF3
 6350 0053 04       		.uleb128 0x4
 6351 0054 02       		.byte	0x2
 6352 0055 07       		.byte	0x7
 6353 0056 CB010000 		.4byte	.LASF4
 6354 005a 04       		.uleb128 0x4
 6355 005b 04       		.byte	0x4
 6356 005c 05       		.byte	0x5
 6357 005d FE000000 		.4byte	.LASF5
 6358 0061 03       		.uleb128 0x3
 6359 0062 1E010000 		.4byte	.LASF7
 6360 0066 03       		.byte	0x3
 6361 0067 41       		.byte	0x41
 6362 0068 6C000000 		.4byte	0x6c
 6363 006c 04       		.uleb128 0x4
 6364 006d 04       		.byte	0x4
 6365 006e 07       		.byte	0x7
 6366 006f 7D010000 		.4byte	.LASF8
 6367 0073 04       		.uleb128 0x4
 6368 0074 08       		.byte	0x8
 6369 0075 05       		.byte	0x5
 6370 0076 A1000000 		.4byte	.LASF9
 6371 007a 04       		.uleb128 0x4
 6372 007b 08       		.byte	0x8
 6373 007c 07       		.byte	0x7
 6374 007d 2E000000 		.4byte	.LASF10
 6375 0081 04       		.uleb128 0x4
 6376 0082 04       		.byte	0x4
 6377 0083 07       		.byte	0x7
 6378 0084 BF020000 		.4byte	.LASF11
 6379 0088 05       		.uleb128 0x5
 6380 0089 04       		.byte	0x4
 6381 008a 06       		.uleb128 0x6
 6382 008b 04       		.byte	0x4
 6383 008c 45000000 		.4byte	0x45
 6384 0090 04       		.uleb128 0x4
 6385 0091 01       		.byte	0x1
 6386 0092 08       		.byte	0x8
 6387 0093 7C030000 		.4byte	.LASF12
 6388 0097 06       		.uleb128 0x6
 6389 0098 04       		.byte	0x4
 6390 0099 9D000000 		.4byte	0x9d
 6391 009d 07       		.uleb128 0x7
ARM GAS  C:\Users\jo\AppData\Local\Temp\ccwlN2BW.s 			page 114


 6392 009e 90000000 		.4byte	0x90
 6393 00a2 03       		.uleb128 0x3
 6394 00a3 6C030000 		.4byte	.LASF13
 6395 00a7 04       		.byte	0x4
 6396 00a8 2D       		.byte	0x2d
 6397 00a9 61000000 		.4byte	0x61
 6398 00ad 08       		.uleb128 0x8
 6399 00ae 1801     		.2byte	0x118
 6400 00b0 05       		.byte	0x5
 6401 00b1 56       		.byte	0x56
 6402 00b2 D9000000 		.4byte	0xd9
 6403 00b6 09       		.uleb128 0x9
 6404 00b7 6E7200   		.ascii	"nr\000"
 6405 00ba 05       		.byte	0x5
 6406 00bb 58       		.byte	0x58
 6407 00bc 25000000 		.4byte	0x25
 6408 00c0 00       		.byte	0
 6409 00c1 09       		.uleb128 0x9
 6410 00c2 726B00   		.ascii	"rk\000"
 6411 00c5 05       		.byte	0x5
 6412 00c6 59       		.byte	0x59
 6413 00c7 D9000000 		.4byte	0xd9
 6414 00cb 04       		.byte	0x4
 6415 00cc 09       		.uleb128 0x9
 6416 00cd 62756600 		.ascii	"buf\000"
 6417 00d1 05       		.byte	0x5
 6418 00d2 5A       		.byte	0x5a
 6419 00d3 DF000000 		.4byte	0xdf
 6420 00d7 08       		.byte	0x8
 6421 00d8 00       		.byte	0
 6422 00d9 06       		.uleb128 0x6
 6423 00da 04       		.byte	0x4
 6424 00db A2000000 		.4byte	0xa2
 6425 00df 0A       		.uleb128 0xa
 6426 00e0 A2000000 		.4byte	0xa2
 6427 00e4 EF000000 		.4byte	0xef
 6428 00e8 0B       		.uleb128 0xb
 6429 00e9 81000000 		.4byte	0x81
 6430 00ed 43       		.byte	0x43
 6431 00ee 00       		.byte	0
 6432 00ef 03       		.uleb128 0x3
 6433 00f0 D8020000 		.4byte	.LASF14
 6434 00f4 05       		.byte	0x5
 6435 00f5 60       		.byte	0x60
 6436 00f6 AD000000 		.4byte	0xad
 6437 00fa 0C       		.uleb128 0xc
 6438 00fb F0000000 		.4byte	.LASF47
 6439 00ff 01       		.byte	0x1
 6440 0100 8103     		.2byte	0x381
 6441 0102 25000000 		.4byte	0x25
 6442 0106 01       		.byte	0x1
 6443 0107 69010000 		.4byte	0x169
 6444 010b 0D       		.uleb128 0xd
 6445 010c 63747800 		.ascii	"ctx\000"
 6446 0110 01       		.byte	0x1
 6447 0111 8103     		.2byte	0x381
 6448 0113 69010000 		.4byte	0x169
ARM GAS  C:\Users\jo\AppData\Local\Temp\ccwlN2BW.s 			page 115


 6449 0117 0E       		.uleb128 0xe
 6450 0118 81030000 		.4byte	.LASF15
 6451 011c 01       		.byte	0x1
 6452 011d 8203     		.2byte	0x382
 6453 011f 25000000 		.4byte	0x25
 6454 0123 0E       		.uleb128 0xe
 6455 0124 75030000 		.4byte	.LASF16
 6456 0128 01       		.byte	0x1
 6457 0129 8303     		.2byte	0x383
 6458 012b 2C000000 		.4byte	0x2c
 6459 012f 0D       		.uleb128 0xd
 6460 0130 697600   		.ascii	"iv\000"
 6461 0133 01       		.byte	0x1
 6462 0134 8403     		.2byte	0x384
 6463 0136 8A000000 		.4byte	0x8a
 6464 013a 0E       		.uleb128 0xe
 6465 013b 66030000 		.4byte	.LASF17
 6466 013f 01       		.byte	0x1
 6467 0140 8503     		.2byte	0x385
 6468 0142 6F010000 		.4byte	0x16f
 6469 0146 0E       		.uleb128 0xe
 6470 0147 B8020000 		.4byte	.LASF18
 6471 014b 01       		.byte	0x1
 6472 014c 8603     		.2byte	0x386
 6473 014e 8A000000 		.4byte	0x8a
 6474 0152 0F       		.uleb128 0xf
 6475 0153 6900     		.ascii	"i\000"
 6476 0155 01       		.byte	0x1
 6477 0156 8803     		.2byte	0x388
 6478 0158 25000000 		.4byte	0x25
 6479 015c 10       		.uleb128 0x10
 6480 015d 4D010000 		.4byte	.LASF19
 6481 0161 01       		.byte	0x1
 6482 0162 8903     		.2byte	0x389
 6483 0164 7A010000 		.4byte	0x17a
 6484 0168 00       		.byte	0
 6485 0169 06       		.uleb128 0x6
 6486 016a 04       		.byte	0x4
 6487 016b EF000000 		.4byte	0xef
 6488 016f 06       		.uleb128 0x6
 6489 0170 04       		.byte	0x4
 6490 0171 75010000 		.4byte	0x175
 6491 0175 07       		.uleb128 0x7
 6492 0176 45000000 		.4byte	0x45
 6493 017a 0A       		.uleb128 0xa
 6494 017b 45000000 		.4byte	0x45
 6495 017f 8A010000 		.4byte	0x18a
 6496 0183 0B       		.uleb128 0xb
 6497 0184 81000000 		.4byte	0x81
 6498 0188 0F       		.byte	0xf
 6499 0189 00       		.byte	0
 6500 018a 11       		.uleb128 0x11
 6501 018b 6E010000 		.4byte	.LASF21
 6502 018f 01       		.byte	0x1
 6503 0190 E801     		.2byte	0x1e8
 6504 0192 25000000 		.4byte	0x25
 6505 0196 00000000 		.4byte	.LFB0
ARM GAS  C:\Users\jo\AppData\Local\Temp\ccwlN2BW.s 			page 116


 6506 019a 04020000 		.4byte	.LFE0-.LFB0
 6507 019e 01       		.uleb128 0x1
 6508 019f 9C       		.byte	0x9c
 6509 01a0 F2010000 		.4byte	0x1f2
 6510 01a4 12       		.uleb128 0x12
 6511 01a5 63747800 		.ascii	"ctx\000"
 6512 01a9 01       		.byte	0x1
 6513 01aa E801     		.2byte	0x1e8
 6514 01ac 69010000 		.4byte	0x169
 6515 01b0 00000000 		.4byte	.LLST0
 6516 01b4 12       		.uleb128 0x12
 6517 01b5 6B657900 		.ascii	"key\000"
 6518 01b9 01       		.byte	0x1
 6519 01ba E801     		.2byte	0x1e8
 6520 01bc 6F010000 		.4byte	0x16f
 6521 01c0 85000000 		.4byte	.LLST1
 6522 01c4 13       		.uleb128 0x13
 6523 01c5 8F010000 		.4byte	.LASF20
 6524 01c9 01       		.byte	0x1
 6525 01ca E801     		.2byte	0x1e8
 6526 01cc 37000000 		.4byte	0x37
 6527 01d0 F1000000 		.4byte	.LLST2
 6528 01d4 14       		.uleb128 0x14
 6529 01d5 6900     		.ascii	"i\000"
 6530 01d7 01       		.byte	0x1
 6531 01d8 FF01     		.2byte	0x1ff
 6532 01da 37000000 		.4byte	0x37
 6533 01de 2B010000 		.4byte	.LLST3
 6534 01e2 14       		.uleb128 0x14
 6535 01e3 524B00   		.ascii	"RK\000"
 6536 01e6 01       		.byte	0x1
 6537 01e7 0002     		.2byte	0x200
 6538 01e9 D9000000 		.4byte	0xd9
 6539 01ed 6B010000 		.4byte	.LLST4
 6540 01f1 00       		.byte	0
 6541 01f2 11       		.uleb128 0x11
 6542 01f3 5F010000 		.4byte	.LASF22
 6543 01f7 01       		.byte	0x1
 6544 01f8 6D02     		.2byte	0x26d
 6545 01fa 25000000 		.4byte	0x25
 6546 01fe 00000000 		.4byte	.LFB1
 6547 0202 38010000 		.4byte	.LFE1-.LFB1
 6548 0206 01       		.uleb128 0x1
 6549 0207 9C       		.byte	0x9c
 6550 0208 C9020000 		.4byte	0x2c9
 6551 020c 12       		.uleb128 0x12
 6552 020d 63747800 		.ascii	"ctx\000"
 6553 0211 01       		.byte	0x1
 6554 0212 6D02     		.2byte	0x26d
 6555 0214 69010000 		.4byte	0x169
 6556 0218 89010000 		.4byte	.LLST5
 6557 021c 12       		.uleb128 0x12
 6558 021d 6B657900 		.ascii	"key\000"
 6559 0221 01       		.byte	0x1
 6560 0222 6D02     		.2byte	0x26d
 6561 0224 6F010000 		.4byte	0x16f
 6562 0228 EA010000 		.4byte	.LLST6
ARM GAS  C:\Users\jo\AppData\Local\Temp\ccwlN2BW.s 			page 117


 6563 022c 13       		.uleb128 0x13
 6564 022d 8F010000 		.4byte	.LASF20
 6565 0231 01       		.byte	0x1
 6566 0232 6D02     		.2byte	0x26d
 6567 0234 37000000 		.4byte	0x37
 6568 0238 2F020000 		.4byte	.LLST7
 6569 023c 14       		.uleb128 0x14
 6570 023d 6900     		.ascii	"i\000"
 6571 023f 01       		.byte	0x1
 6572 0240 8402     		.2byte	0x284
 6573 0242 25000000 		.4byte	0x25
 6574 0246 74020000 		.4byte	.LLST8
 6575 024a 14       		.uleb128 0x14
 6576 024b 6A00     		.ascii	"j\000"
 6577 024d 01       		.byte	0x1
 6578 024e 8402     		.2byte	0x284
 6579 0250 25000000 		.4byte	0x25
 6580 0254 9F020000 		.4byte	.LLST9
 6581 0258 15       		.uleb128 0x15
 6582 0259 63747900 		.ascii	"cty\000"
 6583 025d 01       		.byte	0x1
 6584 025e 8502     		.2byte	0x285
 6585 0260 EF000000 		.4byte	0xef
 6586 0264 03       		.uleb128 0x3
 6587 0265 91       		.byte	0x91
 6588 0266 C07D     		.sleb128 -320
 6589 0268 14       		.uleb128 0x14
 6590 0269 524B00   		.ascii	"RK\000"
 6591 026c 01       		.byte	0x1
 6592 026d 8602     		.2byte	0x286
 6593 026f D9000000 		.4byte	0xd9
 6594 0273 B3020000 		.4byte	.LLST10
 6595 0277 14       		.uleb128 0x14
 6596 0278 534B00   		.ascii	"SK\000"
 6597 027b 01       		.byte	0x1
 6598 027c 8702     		.2byte	0x287
 6599 027e D9000000 		.4byte	0xd9
 6600 0282 B4030000 		.4byte	.LLST11
 6601 0286 14       		.uleb128 0x14
 6602 0287 72657400 		.ascii	"ret\000"
 6603 028b 01       		.byte	0x1
 6604 028c 8802     		.2byte	0x288
 6605 028e 25000000 		.4byte	0x25
 6606 0292 80040000 		.4byte	.LLST12
 6607 0296 16       		.uleb128 0x16
 6608 0297 34000000 		.4byte	.LVL25
 6609 029b 8A010000 		.4byte	0x18a
 6610 029f AB020000 		.4byte	0x2ab
 6611 02a3 17       		.uleb128 0x17
 6612 02a4 01       		.uleb128 0x1
 6613 02a5 50       		.byte	0x50
 6614 02a6 03       		.uleb128 0x3
 6615 02a7 91       		.byte	0x91
 6616 02a8 C07D     		.sleb128 -320
 6617 02aa 00       		.byte	0
 6618 02ab 18       		.uleb128 0x18
 6619 02ac 10010000 		.4byte	.LVL43
ARM GAS  C:\Users\jo\AppData\Local\Temp\ccwlN2BW.s 			page 118


 6620 02b0 760F0000 		.4byte	0xf76
 6621 02b4 17       		.uleb128 0x17
 6622 02b5 01       		.uleb128 0x1
 6623 02b6 52       		.byte	0x52
 6624 02b7 03       		.uleb128 0x3
 6625 02b8 0A       		.byte	0xa
 6626 02b9 1801     		.2byte	0x118
 6627 02bb 17       		.uleb128 0x17
 6628 02bc 01       		.uleb128 0x1
 6629 02bd 51       		.byte	0x51
 6630 02be 01       		.uleb128 0x1
 6631 02bf 30       		.byte	0x30
 6632 02c0 17       		.uleb128 0x17
 6633 02c1 01       		.uleb128 0x1
 6634 02c2 50       		.byte	0x50
 6635 02c3 03       		.uleb128 0x3
 6636 02c4 91       		.byte	0x91
 6637 02c5 C07D     		.sleb128 -320
 6638 02c7 00       		.byte	0
 6639 02c8 00       		.byte	0
 6640 02c9 11       		.uleb128 0x11
 6641 02ca DD030000 		.4byte	.LASF23
 6642 02ce 01       		.byte	0x1
 6643 02cf EF02     		.2byte	0x2ef
 6644 02d1 25000000 		.4byte	0x25
 6645 02d5 00000000 		.4byte	.LFB2
 6646 02d9 A8080000 		.4byte	.LFE2-.LFB2
 6647 02dd 01       		.uleb128 0x1
 6648 02de 9C       		.byte	0x9c
 6649 02df B9030000 		.4byte	0x3b9
 6650 02e3 12       		.uleb128 0x12
 6651 02e4 63747800 		.ascii	"ctx\000"
 6652 02e8 01       		.byte	0x1
 6653 02e9 EF02     		.2byte	0x2ef
 6654 02eb 69010000 		.4byte	0x169
 6655 02ef 93040000 		.4byte	.LLST13
 6656 02f3 13       		.uleb128 0x13
 6657 02f4 81030000 		.4byte	.LASF15
 6658 02f8 01       		.byte	0x1
 6659 02f9 F002     		.2byte	0x2f0
 6660 02fb 25000000 		.4byte	0x25
 6661 02ff DC040000 		.4byte	.LLST14
 6662 0303 13       		.uleb128 0x13
 6663 0304 66030000 		.4byte	.LASF17
 6664 0308 01       		.byte	0x1
 6665 0309 F102     		.2byte	0x2f1
 6666 030b 6F010000 		.4byte	0x16f
 6667 030f 16050000 		.4byte	.LLST15
 6668 0313 13       		.uleb128 0x13
 6669 0314 B8020000 		.4byte	.LASF18
 6670 0318 01       		.byte	0x1
 6671 0319 F202     		.2byte	0x2f2
 6672 031b 8A000000 		.4byte	0x8a
 6673 031f 37050000 		.4byte	.LLST16
 6674 0323 14       		.uleb128 0x14
 6675 0324 6900     		.ascii	"i\000"
 6676 0326 01       		.byte	0x1
ARM GAS  C:\Users\jo\AppData\Local\Temp\ccwlN2BW.s 			page 119


 6677 0327 1903     		.2byte	0x319
 6678 0329 25000000 		.4byte	0x25
 6679 032d 56050000 		.4byte	.LLST17
 6680 0331 14       		.uleb128 0x14
 6681 0332 524B00   		.ascii	"RK\000"
 6682 0335 01       		.byte	0x1
 6683 0336 1A03     		.2byte	0x31a
 6684 0338 D9000000 		.4byte	0xd9
 6685 033c BF050000 		.4byte	.LLST18
 6686 0340 14       		.uleb128 0x14
 6687 0341 583000   		.ascii	"X0\000"
 6688 0344 01       		.byte	0x1
 6689 0345 1A03     		.2byte	0x31a
 6690 0347 A2000000 		.4byte	0xa2
 6691 034b 8E070000 		.4byte	.LLST19
 6692 034f 14       		.uleb128 0x14
 6693 0350 583100   		.ascii	"X1\000"
 6694 0353 01       		.byte	0x1
 6695 0354 1A03     		.2byte	0x31a
 6696 0356 A2000000 		.4byte	0xa2
 6697 035a D8070000 		.4byte	.LLST20
 6698 035e 14       		.uleb128 0x14
 6699 035f 583200   		.ascii	"X2\000"
 6700 0362 01       		.byte	0x1
 6701 0363 1A03     		.2byte	0x31a
 6702 0365 A2000000 		.4byte	0xa2
 6703 0369 56080000 		.4byte	.LLST21
 6704 036d 14       		.uleb128 0x14
 6705 036e 583300   		.ascii	"X3\000"
 6706 0371 01       		.byte	0x1
 6707 0372 1A03     		.2byte	0x31a
 6708 0374 A2000000 		.4byte	0xa2
 6709 0378 DD080000 		.4byte	.LLST22
 6710 037c 14       		.uleb128 0x14
 6711 037d 593000   		.ascii	"Y0\000"
 6712 0380 01       		.byte	0x1
 6713 0381 1A03     		.2byte	0x31a
 6714 0383 A2000000 		.4byte	0xa2
 6715 0387 66090000 		.4byte	.LLST23
 6716 038b 14       		.uleb128 0x14
 6717 038c 593100   		.ascii	"Y1\000"
 6718 038f 01       		.byte	0x1
 6719 0390 1A03     		.2byte	0x31a
 6720 0392 A2000000 		.4byte	0xa2
 6721 0396 D7090000 		.4byte	.LLST24
 6722 039a 14       		.uleb128 0x14
 6723 039b 593200   		.ascii	"Y2\000"
 6724 039e 01       		.byte	0x1
 6725 039f 1A03     		.2byte	0x31a
 6726 03a1 A2000000 		.4byte	0xa2
 6727 03a5 0B0A0000 		.4byte	.LLST25
 6728 03a9 14       		.uleb128 0x14
 6729 03aa 593300   		.ascii	"Y3\000"
 6730 03ad 01       		.byte	0x1
 6731 03ae 1A03     		.2byte	0x31a
 6732 03b0 A2000000 		.4byte	0xa2
 6733 03b4 3F0A0000 		.4byte	.LLST26
ARM GAS  C:\Users\jo\AppData\Local\Temp\ccwlN2BW.s 			page 120


 6734 03b8 00       		.byte	0
 6735 03b9 19       		.uleb128 0x19
 6736 03ba FA000000 		.4byte	0xfa
 6737 03be 00000000 		.4byte	.LFB3
 6738 03c2 D4000000 		.4byte	.LFE3-.LFB3
 6739 03c6 01       		.uleb128 0x1
 6740 03c7 9C       		.byte	0x9c
 6741 03c8 A7040000 		.4byte	0x4a7
 6742 03cc 1A       		.uleb128 0x1a
 6743 03cd 0B010000 		.4byte	0x10b
 6744 03d1 680A0000 		.4byte	.LLST27
 6745 03d5 1A       		.uleb128 0x1a
 6746 03d6 17010000 		.4byte	0x117
 6747 03da C30A0000 		.4byte	.LLST28
 6748 03de 1A       		.uleb128 0x1a
 6749 03df 23010000 		.4byte	0x123
 6750 03e3 100B0000 		.4byte	.LLST29
 6751 03e7 1A       		.uleb128 0x1a
 6752 03e8 2F010000 		.4byte	0x12f
 6753 03ec 5F0B0000 		.4byte	.LLST30
 6754 03f0 1A       		.uleb128 0x1a
 6755 03f1 3A010000 		.4byte	0x13a
 6756 03f5 AC0B0000 		.4byte	.LLST31
 6757 03f9 1A       		.uleb128 0x1a
 6758 03fa 46010000 		.4byte	0x146
 6759 03fe F30B0000 		.4byte	.LLST32
 6760 0402 1B       		.uleb128 0x1b
 6761 0403 52010000 		.4byte	0x152
 6762 0407 1E0C0000 		.4byte	.LLST33
 6763 040b 1C       		.uleb128 0x1c
 6764 040c 5C010000 		.4byte	0x15c
 6765 0410 1D       		.uleb128 0x1d
 6766 0411 70000000 		.4byte	.LBB4
 6767 0415 5E000000 		.4byte	.LBE4-.LBB4
 6768 0419 84040000 		.4byte	0x484
 6769 041d 1A       		.uleb128 0x1a
 6770 041e 46010000 		.4byte	0x146
 6771 0422 690C0000 		.4byte	.LLST34
 6772 0426 1A       		.uleb128 0x1a
 6773 0427 3A010000 		.4byte	0x13a
 6774 042b 940C0000 		.4byte	.LLST35
 6775 042f 1E       		.uleb128 0x1e
 6776 0430 2F010000 		.4byte	0x12f
 6777 0434 1A       		.uleb128 0x1a
 6778 0435 23010000 		.4byte	0x123
 6779 0439 A70C0000 		.4byte	.LLST36
 6780 043d 1E       		.uleb128 0x1e
 6781 043e 17010000 		.4byte	0x117
 6782 0442 1E       		.uleb128 0x1e
 6783 0443 0B010000 		.4byte	0x10b
 6784 0447 1F       		.uleb128 0x1f
 6785 0448 70000000 		.4byte	.LBB5
 6786 044c 5E000000 		.4byte	.LBE5-.LBB5
 6787 0450 1B       		.uleb128 0x1b
 6788 0451 52010000 		.4byte	0x152
 6789 0455 D20C0000 		.4byte	.LLST37
 6790 0459 20       		.uleb128 0x20
ARM GAS  C:\Users\jo\AppData\Local\Temp\ccwlN2BW.s 			page 121


 6791 045a 5C010000 		.4byte	0x15c
 6792 045e 02       		.uleb128 0x2
 6793 045f 91       		.byte	0x91
 6794 0460 50       		.sleb128 -48
 6795 0461 18       		.uleb128 0x18
 6796 0462 96000000 		.4byte	.LVL153
 6797 0466 C9020000 		.4byte	0x2c9
 6798 046a 17       		.uleb128 0x17
 6799 046b 01       		.uleb128 0x1
 6800 046c 53       		.byte	0x53
 6801 046d 02       		.uleb128 0x2
 6802 046e 74       		.byte	0x74
 6803 046f 00       		.sleb128 0
 6804 0470 17       		.uleb128 0x17
 6805 0471 01       		.uleb128 0x1
 6806 0472 52       		.byte	0x52
 6807 0473 02       		.uleb128 0x2
 6808 0474 7A       		.byte	0x7a
 6809 0475 00       		.sleb128 0
 6810 0476 17       		.uleb128 0x17
 6811 0477 01       		.uleb128 0x1
 6812 0478 51       		.byte	0x51
 6813 0479 01       		.uleb128 0x1
 6814 047a 30       		.byte	0x30
 6815 047b 17       		.uleb128 0x17
 6816 047c 01       		.uleb128 0x1
 6817 047d 50       		.byte	0x50
 6818 047e 02       		.uleb128 0x2
 6819 047f 76       		.byte	0x76
 6820 0480 00       		.sleb128 0
 6821 0481 00       		.byte	0
 6822 0482 00       		.byte	0
 6823 0483 00       		.byte	0
 6824 0484 18       		.uleb128 0x18
 6825 0485 4C000000 		.4byte	.LVL145
 6826 0489 C9020000 		.4byte	0x2c9
 6827 048d 17       		.uleb128 0x17
 6828 048e 01       		.uleb128 0x1
 6829 048f 53       		.byte	0x53
 6830 0490 02       		.uleb128 0x2
 6831 0491 74       		.byte	0x74
 6832 0492 00       		.sleb128 0
 6833 0493 17       		.uleb128 0x17
 6834 0494 01       		.uleb128 0x1
 6835 0495 52       		.byte	0x52
 6836 0496 02       		.uleb128 0x2
 6837 0497 74       		.byte	0x74
 6838 0498 00       		.sleb128 0
 6839 0499 17       		.uleb128 0x17
 6840 049a 01       		.uleb128 0x1
 6841 049b 51       		.byte	0x51
 6842 049c 02       		.uleb128 0x2
 6843 049d 79       		.byte	0x79
 6844 049e 00       		.sleb128 0
 6845 049f 17       		.uleb128 0x17
 6846 04a0 01       		.uleb128 0x1
 6847 04a1 50       		.byte	0x50
ARM GAS  C:\Users\jo\AppData\Local\Temp\ccwlN2BW.s 			page 122


 6848 04a2 02       		.uleb128 0x2
 6849 04a3 76       		.byte	0x76
 6850 04a4 00       		.sleb128 0
 6851 04a5 00       		.byte	0
 6852 04a6 00       		.byte	0
 6853 04a7 11       		.uleb128 0x11
 6854 04a8 3C010000 		.4byte	.LASF24
 6855 04ac 01       		.byte	0x1
 6856 04ad C203     		.2byte	0x3c2
 6857 04af 25000000 		.4byte	0x25
 6858 04b3 00000000 		.4byte	.LFB4
 6859 04b7 7E000000 		.4byte	.LFE4-.LFB4
 6860 04bb 01       		.uleb128 0x1
 6861 04bc 9C       		.byte	0x9c
 6862 04bd 91050000 		.4byte	0x591
 6863 04c1 12       		.uleb128 0x12
 6864 04c2 63747800 		.ascii	"ctx\000"
 6865 04c6 01       		.byte	0x1
 6866 04c7 C203     		.2byte	0x3c2
 6867 04c9 69010000 		.4byte	0x169
 6868 04cd E60C0000 		.4byte	.LLST38
 6869 04d1 13       		.uleb128 0x13
 6870 04d2 81030000 		.4byte	.LASF15
 6871 04d6 01       		.byte	0x1
 6872 04d7 C303     		.2byte	0x3c3
 6873 04d9 25000000 		.4byte	0x25
 6874 04dd 1A0D0000 		.4byte	.LLST39
 6875 04e1 13       		.uleb128 0x13
 6876 04e2 75030000 		.4byte	.LASF16
 6877 04e6 01       		.byte	0x1
 6878 04e7 C403     		.2byte	0x3c4
 6879 04e9 2C000000 		.4byte	0x2c
 6880 04ed 540D0000 		.4byte	.LLST40
 6881 04f1 13       		.uleb128 0x13
 6882 04f2 4C000000 		.4byte	.LASF25
 6883 04f6 01       		.byte	0x1
 6884 04f7 C503     		.2byte	0x3c5
 6885 04f9 91050000 		.4byte	0x591
 6886 04fd B30D0000 		.4byte	.LLST41
 6887 0501 12       		.uleb128 0x12
 6888 0502 697600   		.ascii	"iv\000"
 6889 0505 01       		.byte	0x1
 6890 0506 C603     		.2byte	0x3c6
 6891 0508 8A000000 		.4byte	0x8a
 6892 050c E70D0000 		.4byte	.LLST42
 6893 0510 13       		.uleb128 0x13
 6894 0511 66030000 		.4byte	.LASF17
 6895 0515 01       		.byte	0x1
 6896 0516 C703     		.2byte	0x3c7
 6897 0518 6F010000 		.4byte	0x16f
 6898 051c 130E0000 		.4byte	.LLST43
 6899 0520 13       		.uleb128 0x13
 6900 0521 B8020000 		.4byte	.LASF18
 6901 0525 01       		.byte	0x1
 6902 0526 C803     		.2byte	0x3c8
 6903 0528 8A000000 		.4byte	0x8a
 6904 052c 7A0E0000 		.4byte	.LLST44
ARM GAS  C:\Users\jo\AppData\Local\Temp\ccwlN2BW.s 			page 123


 6905 0530 14       		.uleb128 0x14
 6906 0531 6300     		.ascii	"c\000"
 6907 0533 01       		.byte	0x1
 6908 0534 CA03     		.2byte	0x3ca
 6909 0536 25000000 		.4byte	0x25
 6910 053a BE0E0000 		.4byte	.LLST45
 6911 053e 15       		.uleb128 0x15
 6912 053f 6E00     		.ascii	"n\000"
 6913 0541 01       		.byte	0x1
 6914 0542 CB03     		.2byte	0x3cb
 6915 0544 2C000000 		.4byte	0x2c
 6916 0548 01       		.uleb128 0x1
 6917 0549 54       		.byte	0x54
 6918 054a 16       		.uleb128 0x16
 6919 054b 6E000000 		.4byte	.LVL175
 6920 054f C9020000 		.4byte	0x2c9
 6921 0553 6F050000 		.4byte	0x56f
 6922 0557 17       		.uleb128 0x17
 6923 0558 01       		.uleb128 0x1
 6924 0559 53       		.byte	0x53
 6925 055a 02       		.uleb128 0x2
 6926 055b 76       		.byte	0x76
 6927 055c 00       		.sleb128 0
 6928 055d 17       		.uleb128 0x17
 6929 055e 01       		.uleb128 0x1
 6930 055f 52       		.byte	0x52
 6931 0560 02       		.uleb128 0x2
 6932 0561 76       		.byte	0x76
 6933 0562 00       		.sleb128 0
 6934 0563 17       		.uleb128 0x17
 6935 0564 01       		.uleb128 0x1
 6936 0565 51       		.byte	0x51
 6937 0566 01       		.uleb128 0x1
 6938 0567 31       		.byte	0x31
 6939 0568 17       		.uleb128 0x17
 6940 0569 01       		.uleb128 0x1
 6941 056a 50       		.byte	0x50
 6942 056b 02       		.uleb128 0x2
 6943 056c 77       		.byte	0x77
 6944 056d 00       		.sleb128 0
 6945 056e 00       		.byte	0
 6946 056f 18       		.uleb128 0x18
 6947 0570 7C000000 		.4byte	.LVL177
 6948 0574 C9020000 		.4byte	0x2c9
 6949 0578 17       		.uleb128 0x17
 6950 0579 01       		.uleb128 0x1
 6951 057a 53       		.byte	0x53
 6952 057b 02       		.uleb128 0x2
 6953 057c 76       		.byte	0x76
 6954 057d 00       		.sleb128 0
 6955 057e 17       		.uleb128 0x17
 6956 057f 01       		.uleb128 0x1
 6957 0580 52       		.byte	0x52
 6958 0581 02       		.uleb128 0x2
 6959 0582 76       		.byte	0x76
 6960 0583 00       		.sleb128 0
 6961 0584 17       		.uleb128 0x17
ARM GAS  C:\Users\jo\AppData\Local\Temp\ccwlN2BW.s 			page 124


 6962 0585 01       		.uleb128 0x1
 6963 0586 51       		.byte	0x51
 6964 0587 01       		.uleb128 0x1
 6965 0588 31       		.byte	0x31
 6966 0589 17       		.uleb128 0x17
 6967 058a 01       		.uleb128 0x1
 6968 058b 50       		.byte	0x50
 6969 058c 02       		.uleb128 0x2
 6970 058d 77       		.byte	0x77
 6971 058e 00       		.sleb128 0
 6972 058f 00       		.byte	0
 6973 0590 00       		.byte	0
 6974 0591 06       		.uleb128 0x6
 6975 0592 04       		.byte	0x4
 6976 0593 2C000000 		.4byte	0x2c
 6977 0597 11       		.uleb128 0x11
 6978 0598 25030000 		.4byte	.LASF26
 6979 059c 01       		.byte	0x1
 6980 059d F203     		.2byte	0x3f2
 6981 059f 25000000 		.4byte	0x25
 6982 05a3 00000000 		.4byte	.LFB5
 6983 05a7 62000000 		.4byte	.LFE5-.LFB5
 6984 05ab 01       		.uleb128 0x1
 6985 05ac 9C       		.byte	0x9c
 6986 05ad 6D060000 		.4byte	0x66d
 6987 05b1 12       		.uleb128 0x12
 6988 05b2 63747800 		.ascii	"ctx\000"
 6989 05b6 01       		.byte	0x1
 6990 05b7 F203     		.2byte	0x3f2
 6991 05b9 69010000 		.4byte	0x169
 6992 05bd D60E0000 		.4byte	.LLST46
 6993 05c1 13       		.uleb128 0x13
 6994 05c2 75030000 		.4byte	.LASF16
 6995 05c6 01       		.byte	0x1
 6996 05c7 F303     		.2byte	0x3f3
 6997 05c9 2C000000 		.4byte	0x2c
 6998 05cd 0D0F0000 		.4byte	.LLST47
 6999 05d1 13       		.uleb128 0x13
 7000 05d2 45000000 		.4byte	.LASF27
 7001 05d6 01       		.byte	0x1
 7002 05d7 F403     		.2byte	0x3f4
 7003 05d9 91050000 		.4byte	0x591
 7004 05dd 520F0000 		.4byte	.LLST48
 7005 05e1 13       		.uleb128 0x13
 7006 05e2 E4020000 		.4byte	.LASF28
 7007 05e6 01       		.byte	0x1
 7008 05e7 F503     		.2byte	0x3f5
 7009 05e9 8A000000 		.4byte	0x8a
 7010 05ed 700F0000 		.4byte	.LLST49
 7011 05f1 13       		.uleb128 0x13
 7012 05f2 21000000 		.4byte	.LASF29
 7013 05f6 01       		.byte	0x1
 7014 05f7 F603     		.2byte	0x3f6
 7015 05f9 8A000000 		.4byte	0x8a
 7016 05fd A70F0000 		.4byte	.LLST50
 7017 0601 13       		.uleb128 0x13
 7018 0602 66030000 		.4byte	.LASF17
ARM GAS  C:\Users\jo\AppData\Local\Temp\ccwlN2BW.s 			page 125


 7019 0606 01       		.byte	0x1
 7020 0607 F703     		.2byte	0x3f7
 7021 0609 6F010000 		.4byte	0x16f
 7022 060d C70F0000 		.4byte	.LLST51
 7023 0611 13       		.uleb128 0x13
 7024 0612 B8020000 		.4byte	.LASF18
 7025 0616 01       		.byte	0x1
 7026 0617 F803     		.2byte	0x3f8
 7027 0619 8A000000 		.4byte	0x8a
 7028 061d FE0F0000 		.4byte	.LLST52
 7029 0621 14       		.uleb128 0x14
 7030 0622 6300     		.ascii	"c\000"
 7031 0624 01       		.byte	0x1
 7032 0625 FA03     		.2byte	0x3fa
 7033 0627 25000000 		.4byte	0x25
 7034 062b 1D100000 		.4byte	.LLST53
 7035 062f 14       		.uleb128 0x14
 7036 0630 6900     		.ascii	"i\000"
 7037 0632 01       		.byte	0x1
 7038 0633 FA03     		.2byte	0x3fa
 7039 0635 25000000 		.4byte	0x25
 7040 0639 49100000 		.4byte	.LLST54
 7041 063d 14       		.uleb128 0x14
 7042 063e 6E00     		.ascii	"n\000"
 7043 0640 01       		.byte	0x1
 7044 0641 FB03     		.2byte	0x3fb
 7045 0643 2C000000 		.4byte	0x2c
 7046 0647 6D100000 		.4byte	.LLST55
 7047 064b 18       		.uleb128 0x18
 7048 064c 4A000000 		.4byte	.LVL190
 7049 0650 C9020000 		.4byte	0x2c9
 7050 0654 17       		.uleb128 0x17
 7051 0655 01       		.uleb128 0x1
 7052 0656 53       		.byte	0x53
 7053 0657 02       		.uleb128 0x2
 7054 0658 7B       		.byte	0x7b
 7055 0659 00       		.sleb128 0
 7056 065a 17       		.uleb128 0x17
 7057 065b 01       		.uleb128 0x1
 7058 065c 52       		.byte	0x52
 7059 065d 02       		.uleb128 0x2
 7060 065e 76       		.byte	0x76
 7061 065f 00       		.sleb128 0
 7062 0660 17       		.uleb128 0x17
 7063 0661 01       		.uleb128 0x1
 7064 0662 51       		.byte	0x51
 7065 0663 01       		.uleb128 0x1
 7066 0664 31       		.byte	0x31
 7067 0665 17       		.uleb128 0x17
 7068 0666 01       		.uleb128 0x1
 7069 0667 50       		.byte	0x50
 7070 0668 02       		.uleb128 0x2
 7071 0669 79       		.byte	0x79
 7072 066a 00       		.sleb128 0
 7073 066b 00       		.byte	0
 7074 066c 00       		.byte	0
 7075 066d 11       		.uleb128 0x11
ARM GAS  C:\Users\jo\AppData\Local\Temp\ccwlN2BW.s 			page 126


 7076 066e E2000000 		.4byte	.LASF30
 7077 0672 01       		.byte	0x1
 7078 0673 C804     		.2byte	0x4c8
 7079 0675 25000000 		.4byte	0x25
 7080 0679 00000000 		.4byte	.LFB6
 7081 067d 68040000 		.4byte	.LFE6-.LFB6
 7082 0681 01       		.uleb128 0x1
 7083 0682 9C       		.byte	0x9c
 7084 0683 9C0C0000 		.4byte	0xc9c
 7085 0687 13       		.uleb128 0x13
 7086 0688 97030000 		.4byte	.LASF31
 7087 068c 01       		.byte	0x1
 7088 068d C804     		.2byte	0x4c8
 7089 068f 25000000 		.4byte	0x25
 7090 0693 98100000 		.4byte	.LLST56
 7091 0697 14       		.uleb128 0x14
 7092 0698 6900     		.ascii	"i\000"
 7093 069a 01       		.byte	0x1
 7094 069b CA04     		.2byte	0x4ca
 7095 069d 25000000 		.4byte	0x25
 7096 06a1 C4100000 		.4byte	.LLST57
 7097 06a5 14       		.uleb128 0x14
 7098 06a6 6A00     		.ascii	"j\000"
 7099 06a8 01       		.byte	0x1
 7100 06a9 CA04     		.2byte	0x4ca
 7101 06ab 25000000 		.4byte	0x25
 7102 06af 90110000 		.4byte	.LLST58
 7103 06b3 14       		.uleb128 0x14
 7104 06b4 7500     		.ascii	"u\000"
 7105 06b6 01       		.byte	0x1
 7106 06b7 CA04     		.2byte	0x4ca
 7107 06b9 25000000 		.4byte	0x25
 7108 06bd 83120000 		.4byte	.LLST59
 7109 06c1 14       		.uleb128 0x14
 7110 06c2 7600     		.ascii	"v\000"
 7111 06c4 01       		.byte	0x1
 7112 06c5 CA04     		.2byte	0x4ca
 7113 06c7 25000000 		.4byte	0x25
 7114 06cb 1E130000 		.4byte	.LLST60
 7115 06cf 15       		.uleb128 0x15
 7116 06d0 6B657900 		.ascii	"key\000"
 7117 06d4 01       		.byte	0x1
 7118 06d5 CB04     		.2byte	0x4cb
 7119 06d7 9C0C0000 		.4byte	0xc9c
 7120 06db 03       		.uleb128 0x3
 7121 06dc 91       		.byte	0x91
 7122 06dd E07C     		.sleb128 -416
 7123 06df 15       		.uleb128 0x15
 7124 06e0 62756600 		.ascii	"buf\000"
 7125 06e4 01       		.byte	0x1
 7126 06e5 CC04     		.2byte	0x4cc
 7127 06e7 AC0C0000 		.4byte	0xcac
 7128 06eb 03       		.uleb128 0x3
 7129 06ec 91       		.byte	0x91
 7130 06ed 807D     		.sleb128 -384
 7131 06ef 15       		.uleb128 0x15
 7132 06f0 70727600 		.ascii	"prv\000"
ARM GAS  C:\Users\jo\AppData\Local\Temp\ccwlN2BW.s 			page 127


 7133 06f4 01       		.byte	0x1
 7134 06f5 CD04     		.2byte	0x4cd
 7135 06f7 7A010000 		.4byte	0x17a
 7136 06fb 03       		.uleb128 0x3
 7137 06fc 91       		.byte	0x91
 7138 06fd A07C     		.sleb128 -480
 7139 06ff 15       		.uleb128 0x15
 7140 0700 697600   		.ascii	"iv\000"
 7141 0703 01       		.byte	0x1
 7142 0704 CE04     		.2byte	0x4ce
 7143 0706 7A010000 		.4byte	0x17a
 7144 070a 03       		.uleb128 0x3
 7145 070b 91       		.byte	0x91
 7146 070c B07C     		.sleb128 -464
 7147 070e 21       		.uleb128 0x21
 7148 070f AF030000 		.4byte	.LASF32
 7149 0713 01       		.byte	0x1
 7150 0714 D004     		.2byte	0x4d0
 7151 0716 2C000000 		.4byte	0x2c
 7152 071a 03       		.uleb128 0x3
 7153 071b 91       		.byte	0x91
 7154 071c 9C7C     		.sleb128 -484
 7155 071e 14       		.uleb128 0x14
 7156 071f 6C656E00 		.ascii	"len\000"
 7157 0723 01       		.byte	0x1
 7158 0724 D304     		.2byte	0x4d3
 7159 0726 25000000 		.4byte	0x25
 7160 072a 01140000 		.4byte	.LLST61
 7161 072e 21       		.uleb128 0x21
 7162 072f E4020000 		.4byte	.LASF28
 7163 0733 01       		.byte	0x1
 7164 0734 D404     		.2byte	0x4d4
 7165 0736 7A010000 		.4byte	0x17a
 7166 073a 03       		.uleb128 0x3
 7167 073b 91       		.byte	0x91
 7168 073c C07C     		.sleb128 -448
 7169 073e 21       		.uleb128 0x21
 7170 073f 21000000 		.4byte	.LASF29
 7171 0743 01       		.byte	0x1
 7172 0744 D504     		.2byte	0x4d5
 7173 0746 7A010000 		.4byte	0x17a
 7174 074a 03       		.uleb128 0x3
 7175 074b 91       		.byte	0x91
 7176 074c D07C     		.sleb128 -432
 7177 074e 15       		.uleb128 0x15
 7178 074f 63747800 		.ascii	"ctx\000"
 7179 0753 01       		.byte	0x1
 7180 0754 D704     		.2byte	0x4d7
 7181 0756 EF000000 		.4byte	0xef
 7182 075a 03       		.uleb128 0x3
 7183 075b 91       		.byte	0x91
 7184 075c C07D     		.sleb128 -320
 7185 075e 22       		.uleb128 0x22
 7186 075f 00000000 		.4byte	.Ldebug_ranges0+0
 7187 0763 A7070000 		.4byte	0x7a7
 7188 0767 15       		.uleb128 0x15
 7189 0768 746D7000 		.ascii	"tmp\000"
ARM GAS  C:\Users\jo\AppData\Local\Temp\ccwlN2BW.s 			page 128


 7190 076c 01       		.byte	0x1
 7191 076d 3405     		.2byte	0x534
 7192 076f 7A010000 		.4byte	0x17a
 7193 0773 03       		.uleb128 0x3
 7194 0774 91       		.byte	0x91
 7195 0775 D07C     		.sleb128 -432
 7196 0777 18       		.uleb128 0x18
 7197 0778 D4020000 		.4byte	.LVL244
 7198 077c FA000000 		.4byte	0xfa
 7199 0780 17       		.uleb128 0x17
 7200 0781 01       		.uleb128 0x1
 7201 0782 53       		.byte	0x53
 7202 0783 02       		.uleb128 0x2
 7203 0784 77       		.byte	0x77
 7204 0785 00       		.sleb128 0
 7205 0786 17       		.uleb128 0x17
 7206 0787 01       		.uleb128 0x1
 7207 0788 52       		.byte	0x52
 7208 0789 01       		.uleb128 0x1
 7209 078a 40       		.byte	0x40
 7210 078b 17       		.uleb128 0x17
 7211 078c 01       		.uleb128 0x1
 7212 078d 51       		.byte	0x51
 7213 078e 01       		.uleb128 0x1
 7214 078f 31       		.byte	0x31
 7215 0790 17       		.uleb128 0x17
 7216 0791 01       		.uleb128 0x1
 7217 0792 50       		.byte	0x50
 7218 0793 03       		.uleb128 0x3
 7219 0794 91       		.byte	0x91
 7220 0795 C07D     		.sleb128 -320
 7221 0797 17       		.uleb128 0x17
 7222 0798 02       		.uleb128 0x2
 7223 0799 7D       		.byte	0x7d
 7224 079a 04       		.sleb128 4
 7225 079b 02       		.uleb128 0x2
 7226 079c 74       		.byte	0x74
 7227 079d 00       		.sleb128 0
 7228 079e 17       		.uleb128 0x17
 7229 079f 02       		.uleb128 0x2
 7230 07a0 7D       		.byte	0x7d
 7231 07a1 00       		.sleb128 0
 7232 07a2 02       		.uleb128 0x2
 7233 07a3 74       		.byte	0x74
 7234 07a4 00       		.sleb128 0
 7235 07a5 00       		.byte	0
 7236 07a6 00       		.byte	0
 7237 07a7 16       		.uleb128 0x16
 7238 07a8 48000000 		.4byte	.LVL197
 7239 07ac 930F0000 		.4byte	0xf93
 7240 07b0 D5070000 		.4byte	0x7d5
 7241 07b4 17       		.uleb128 0x17
 7242 07b5 01       		.uleb128 0x1
 7243 07b6 52       		.byte	0x52
 7244 07b7 0D       		.uleb128 0xd
 7245 07b8 79       		.byte	0x79
 7246 07b9 00       		.sleb128 0
ARM GAS  C:\Users\jo\AppData\Local\Temp\ccwlN2BW.s 			page 129


 7247 07ba 78       		.byte	0x78
 7248 07bb 00       		.sleb128 0
 7249 07bc 7A       		.byte	0x7a
 7250 07bd 00       		.sleb128 0
 7251 07be 30       		.byte	0x30
 7252 07bf 29       		.byte	0x29
 7253 07c0 28       		.byte	0x28
 7254 07c1 0100     		.2byte	0x1
 7255 07c3 16       		.byte	0x16
 7256 07c4 13       		.byte	0x13
 7257 07c5 17       		.uleb128 0x17
 7258 07c6 01       		.uleb128 0x1
 7259 07c7 51       		.byte	0x51
 7260 07c8 02       		.uleb128 0x2
 7261 07c9 75       		.byte	0x75
 7262 07ca 00       		.sleb128 0
 7263 07cb 17       		.uleb128 0x17
 7264 07cc 01       		.uleb128 0x1
 7265 07cd 50       		.byte	0x50
 7266 07ce 05       		.uleb128 0x5
 7267 07cf 03       		.byte	0x3
 7268 07d0 08000000 		.4byte	.LC2
 7269 07d4 00       		.byte	0
 7270 07d5 16       		.uleb128 0x16
 7271 07d6 64000000 		.4byte	.LVL198
 7272 07da F2010000 		.4byte	0x1f2
 7273 07de F7070000 		.4byte	0x7f7
 7274 07e2 17       		.uleb128 0x17
 7275 07e3 01       		.uleb128 0x1
 7276 07e4 52       		.byte	0x52
 7277 07e5 02       		.uleb128 0x2
 7278 07e6 75       		.byte	0x75
 7279 07e7 00       		.sleb128 0
 7280 07e8 17       		.uleb128 0x17
 7281 07e9 01       		.uleb128 0x1
 7282 07ea 51       		.byte	0x51
 7283 07eb 03       		.uleb128 0x3
 7284 07ec 91       		.byte	0x91
 7285 07ed E07C     		.sleb128 -416
 7286 07ef 17       		.uleb128 0x17
 7287 07f0 01       		.uleb128 0x1
 7288 07f1 50       		.byte	0x50
 7289 07f2 03       		.uleb128 0x3
 7290 07f3 91       		.byte	0x91
 7291 07f4 C07D     		.sleb128 -320
 7292 07f6 00       		.byte	0
 7293 07f7 16       		.uleb128 0x16
 7294 07f8 74000000 		.4byte	.LVL200
 7295 07fc C9020000 		.4byte	0x2c9
 7296 0800 1D080000 		.4byte	0x81d
 7297 0804 17       		.uleb128 0x17
 7298 0805 01       		.uleb128 0x1
 7299 0806 53       		.byte	0x53
 7300 0807 02       		.uleb128 0x2
 7301 0808 74       		.byte	0x74
 7302 0809 00       		.sleb128 0
 7303 080a 17       		.uleb128 0x17
ARM GAS  C:\Users\jo\AppData\Local\Temp\ccwlN2BW.s 			page 130


 7304 080b 01       		.uleb128 0x1
 7305 080c 52       		.byte	0x52
 7306 080d 02       		.uleb128 0x2
 7307 080e 74       		.byte	0x74
 7308 080f 00       		.sleb128 0
 7309 0810 17       		.uleb128 0x17
 7310 0811 01       		.uleb128 0x1
 7311 0812 51       		.byte	0x51
 7312 0813 01       		.uleb128 0x1
 7313 0814 30       		.byte	0x30
 7314 0815 17       		.uleb128 0x17
 7315 0816 01       		.uleb128 0x1
 7316 0817 50       		.byte	0x50
 7317 0818 03       		.uleb128 0x3
 7318 0819 91       		.byte	0x91
 7319 081a C07D     		.sleb128 -320
 7320 081c 00       		.byte	0
 7321 081d 16       		.uleb128 0x16
 7322 081e 86000000 		.4byte	.LVL203
 7323 0822 A90F0000 		.4byte	0xfa9
 7324 0826 36080000 		.4byte	0x836
 7325 082a 17       		.uleb128 0x17
 7326 082b 01       		.uleb128 0x1
 7327 082c 52       		.byte	0x52
 7328 082d 01       		.uleb128 0x1
 7329 082e 40       		.byte	0x40
 7330 082f 17       		.uleb128 0x17
 7331 0830 01       		.uleb128 0x1
 7332 0831 50       		.byte	0x50
 7333 0832 02       		.uleb128 0x2
 7334 0833 74       		.byte	0x74
 7335 0834 00       		.sleb128 0
 7336 0835 00       		.byte	0
 7337 0836 16       		.uleb128 0x16
 7338 0837 D2000000 		.4byte	.LVL210
 7339 083b 930F0000 		.4byte	0xf93
 7340 083f 6A080000 		.4byte	0x86a
 7341 0843 17       		.uleb128 0x17
 7342 0844 01       		.uleb128 0x1
 7343 0845 52       		.byte	0x52
 7344 0846 13       		.uleb128 0x13
 7345 0847 03       		.byte	0x3
 7346 0848 00000000 		.4byte	.LC0
 7347 084c 03       		.byte	0x3
 7348 084d 04000000 		.4byte	.LC1
 7349 0851 79       		.byte	0x79
 7350 0852 00       		.sleb128 0
 7351 0853 30       		.byte	0x30
 7352 0854 29       		.byte	0x29
 7353 0855 28       		.byte	0x28
 7354 0856 0100     		.2byte	0x1
 7355 0858 16       		.byte	0x16
 7356 0859 13       		.byte	0x13
 7357 085a 17       		.uleb128 0x17
 7358 085b 01       		.uleb128 0x1
 7359 085c 51       		.byte	0x51
 7360 085d 02       		.uleb128 0x2
ARM GAS  C:\Users\jo\AppData\Local\Temp\ccwlN2BW.s 			page 131


 7361 085e 76       		.byte	0x76
 7362 085f 00       		.sleb128 0
 7363 0860 17       		.uleb128 0x17
 7364 0861 01       		.uleb128 0x1
 7365 0862 50       		.byte	0x50
 7366 0863 05       		.uleb128 0x5
 7367 0864 03       		.byte	0x3
 7368 0865 30000000 		.4byte	.LC5
 7369 0869 00       		.byte	0
 7370 086a 16       		.uleb128 0x16
 7371 086b FE000000 		.4byte	.LVL211
 7372 086f F2010000 		.4byte	0x1f2
 7373 0873 8C080000 		.4byte	0x88c
 7374 0877 17       		.uleb128 0x17
 7375 0878 01       		.uleb128 0x1
 7376 0879 52       		.byte	0x52
 7377 087a 02       		.uleb128 0x2
 7378 087b 76       		.byte	0x76
 7379 087c 00       		.sleb128 0
 7380 087d 17       		.uleb128 0x17
 7381 087e 01       		.uleb128 0x1
 7382 087f 51       		.byte	0x51
 7383 0880 03       		.uleb128 0x3
 7384 0881 91       		.byte	0x91
 7385 0882 E07C     		.sleb128 -416
 7386 0884 17       		.uleb128 0x17
 7387 0885 01       		.uleb128 0x1
 7388 0886 50       		.byte	0x50
 7389 0887 03       		.uleb128 0x3
 7390 0888 91       		.byte	0x91
 7391 0889 C07D     		.sleb128 -320
 7392 088b 00       		.byte	0
 7393 088c 16       		.uleb128 0x16
 7394 088d 12010000 		.4byte	.LVL213
 7395 0891 FA000000 		.4byte	0xfa
 7396 0895 BF080000 		.4byte	0x8bf
 7397 0899 17       		.uleb128 0x17
 7398 089a 01       		.uleb128 0x1
 7399 089b 53       		.byte	0x53
 7400 089c 02       		.uleb128 0x2
 7401 089d 77       		.byte	0x77
 7402 089e 00       		.sleb128 0
 7403 089f 17       		.uleb128 0x17
 7404 08a0 01       		.uleb128 0x1
 7405 08a1 52       		.byte	0x52
 7406 08a2 01       		.uleb128 0x1
 7407 08a3 40       		.byte	0x40
 7408 08a4 17       		.uleb128 0x17
 7409 08a5 01       		.uleb128 0x1
 7410 08a6 51       		.byte	0x51
 7411 08a7 01       		.uleb128 0x1
 7412 08a8 30       		.byte	0x30
 7413 08a9 17       		.uleb128 0x17
 7414 08aa 01       		.uleb128 0x1
 7415 08ab 50       		.byte	0x50
 7416 08ac 03       		.uleb128 0x3
 7417 08ad 91       		.byte	0x91
ARM GAS  C:\Users\jo\AppData\Local\Temp\ccwlN2BW.s 			page 132


 7418 08ae C07D     		.sleb128 -320
 7419 08b0 17       		.uleb128 0x17
 7420 08b1 02       		.uleb128 0x2
 7421 08b2 7D       		.byte	0x7d
 7422 08b3 04       		.sleb128 4
 7423 08b4 02       		.uleb128 0x2
 7424 08b5 74       		.byte	0x74
 7425 08b6 00       		.sleb128 0
 7426 08b7 17       		.uleb128 0x17
 7427 08b8 02       		.uleb128 0x2
 7428 08b9 7D       		.byte	0x7d
 7429 08ba 00       		.sleb128 0
 7430 08bb 02       		.uleb128 0x2
 7431 08bc 74       		.byte	0x74
 7432 08bd 00       		.sleb128 0
 7433 08be 00       		.byte	0
 7434 08bf 16       		.uleb128 0x16
 7435 08c0 24010000 		.4byte	.LVL215
 7436 08c4 A90F0000 		.4byte	0xfa9
 7437 08c8 E6080000 		.4byte	0x8e6
 7438 08cc 17       		.uleb128 0x17
 7439 08cd 01       		.uleb128 0x1
 7440 08ce 52       		.byte	0x52
 7441 08cf 01       		.uleb128 0x1
 7442 08d0 40       		.byte	0x40
 7443 08d1 17       		.uleb128 0x17
 7444 08d2 01       		.uleb128 0x1
 7445 08d3 51       		.byte	0x51
 7446 08d4 0A       		.uleb128 0xa
 7447 08d5 7A       		.byte	0x7a
 7448 08d6 00       		.sleb128 0
 7449 08d7 34       		.byte	0x34
 7450 08d8 24       		.byte	0x24
 7451 08d9 03       		.byte	0x3
 7452 08da 00000000 		.4byte	.LANCHOR13
 7453 08de 22       		.byte	0x22
 7454 08df 17       		.uleb128 0x17
 7455 08e0 01       		.uleb128 0x1
 7456 08e1 50       		.byte	0x50
 7457 08e2 02       		.uleb128 0x2
 7458 08e3 74       		.byte	0x74
 7459 08e4 00       		.sleb128 0
 7460 08e5 00       		.byte	0
 7461 08e6 16       		.uleb128 0x16
 7462 08e7 70010000 		.4byte	.LVL222
 7463 08eb 930F0000 		.4byte	0xf93
 7464 08ef 1A090000 		.4byte	0x91a
 7465 08f3 17       		.uleb128 0x17
 7466 08f4 01       		.uleb128 0x1
 7467 08f5 52       		.byte	0x52
 7468 08f6 13       		.uleb128 0x13
 7469 08f7 03       		.byte	0x3
 7470 08f8 00000000 		.4byte	.LC0
 7471 08fc 03       		.byte	0x3
 7472 08fd 04000000 		.4byte	.LC1
 7473 0901 7A       		.byte	0x7a
 7474 0902 00       		.sleb128 0
ARM GAS  C:\Users\jo\AppData\Local\Temp\ccwlN2BW.s 			page 133


 7475 0903 30       		.byte	0x30
 7476 0904 29       		.byte	0x29
 7477 0905 28       		.byte	0x28
 7478 0906 0100     		.2byte	0x1
 7479 0908 16       		.byte	0x16
 7480 0909 13       		.byte	0x13
 7481 090a 17       		.uleb128 0x17
 7482 090b 01       		.uleb128 0x1
 7483 090c 51       		.byte	0x51
 7484 090d 02       		.uleb128 0x2
 7485 090e 76       		.byte	0x76
 7486 090f 00       		.sleb128 0
 7487 0910 17       		.uleb128 0x17
 7488 0911 01       		.uleb128 0x1
 7489 0912 50       		.byte	0x50
 7490 0913 05       		.uleb128 0x5
 7491 0914 03       		.byte	0x3
 7492 0915 48000000 		.4byte	.LC6
 7493 0919 00       		.byte	0
 7494 091a 16       		.uleb128 0x16
 7495 091b 86010000 		.4byte	.LVL223
 7496 091f CF0F0000 		.4byte	0xfcf
 7497 0923 45090000 		.4byte	0x945
 7498 0927 17       		.uleb128 0x17
 7499 0928 01       		.uleb128 0x1
 7500 0929 52       		.byte	0x52
 7501 092a 04       		.uleb128 0x4
 7502 092b 75       		.byte	0x75
 7503 092c 00       		.sleb128 0
 7504 092d 33       		.byte	0x33
 7505 092e 24       		.byte	0x24
 7506 092f 17       		.uleb128 0x17
 7507 0930 01       		.uleb128 0x1
 7508 0931 51       		.byte	0x51
 7509 0932 0A       		.uleb128 0xa
 7510 0933 79       		.byte	0x79
 7511 0934 00       		.sleb128 0
 7512 0935 35       		.byte	0x35
 7513 0936 24       		.byte	0x24
 7514 0937 03       		.byte	0x3
 7515 0938 00000000 		.4byte	.LANCHOR16
 7516 093c 22       		.byte	0x22
 7517 093d 17       		.uleb128 0x17
 7518 093e 01       		.uleb128 0x1
 7519 093f 50       		.byte	0x50
 7520 0940 03       		.uleb128 0x3
 7521 0941 91       		.byte	0x91
 7522 0942 E07C     		.sleb128 -416
 7523 0944 00       		.byte	0
 7524 0945 16       		.uleb128 0x16
 7525 0946 94010000 		.4byte	.LVL224
 7526 094a 8A010000 		.4byte	0x18a
 7527 094e 67090000 		.4byte	0x967
 7528 0952 17       		.uleb128 0x17
 7529 0953 01       		.uleb128 0x1
 7530 0954 52       		.byte	0x52
 7531 0955 02       		.uleb128 0x2
ARM GAS  C:\Users\jo\AppData\Local\Temp\ccwlN2BW.s 			page 134


 7532 0956 76       		.byte	0x76
 7533 0957 00       		.sleb128 0
 7534 0958 17       		.uleb128 0x17
 7535 0959 01       		.uleb128 0x1
 7536 095a 51       		.byte	0x51
 7537 095b 03       		.uleb128 0x3
 7538 095c 91       		.byte	0x91
 7539 095d E07C     		.sleb128 -416
 7540 095f 17       		.uleb128 0x17
 7541 0960 01       		.uleb128 0x1
 7542 0961 50       		.byte	0x50
 7543 0962 03       		.uleb128 0x3
 7544 0963 91       		.byte	0x91
 7545 0964 C07D     		.sleb128 -320
 7546 0966 00       		.byte	0
 7547 0967 16       		.uleb128 0x16
 7548 0968 DE010000 		.4byte	.LVL226
 7549 096c A7040000 		.4byte	0x4a7
 7550 0970 9D090000 		.4byte	0x99d
 7551 0974 17       		.uleb128 0x17
 7552 0975 01       		.uleb128 0x1
 7553 0976 53       		.byte	0x53
 7554 0977 03       		.uleb128 0x3
 7555 0978 91       		.byte	0x91
 7556 0979 9C7C     		.sleb128 -484
 7557 097b 17       		.uleb128 0x17
 7558 097c 01       		.uleb128 0x1
 7559 097d 52       		.byte	0x52
 7560 097e 02       		.uleb128 0x2
 7561 097f 08       		.byte	0x8
 7562 0980 40       		.byte	0x40
 7563 0981 17       		.uleb128 0x17
 7564 0982 01       		.uleb128 0x1
 7565 0983 51       		.byte	0x51
 7566 0984 02       		.uleb128 0x2
 7567 0985 7A       		.byte	0x7a
 7568 0986 00       		.sleb128 0
 7569 0987 17       		.uleb128 0x17
 7570 0988 01       		.uleb128 0x1
 7571 0989 50       		.byte	0x50
 7572 098a 03       		.uleb128 0x3
 7573 098b 91       		.byte	0x91
 7574 098c C07D     		.sleb128 -320
 7575 098e 17       		.uleb128 0x17
 7576 098f 02       		.uleb128 0x2
 7577 0990 7D       		.byte	0x7d
 7578 0991 08       		.sleb128 8
 7579 0992 02       		.uleb128 0x2
 7580 0993 74       		.byte	0x74
 7581 0994 00       		.sleb128 0
 7582 0995 17       		.uleb128 0x17
 7583 0996 02       		.uleb128 0x2
 7584 0997 7D       		.byte	0x7d
 7585 0998 04       		.sleb128 4
 7586 0999 02       		.uleb128 0x2
 7587 099a 74       		.byte	0x74
 7588 099b 00       		.sleb128 0
ARM GAS  C:\Users\jo\AppData\Local\Temp\ccwlN2BW.s 			page 135


 7589 099c 00       		.byte	0
 7590 099d 16       		.uleb128 0x16
 7591 099e E8010000 		.4byte	.LVL227
 7592 09a2 A90F0000 		.4byte	0xfa9
 7593 09a6 BD090000 		.4byte	0x9bd
 7594 09aa 17       		.uleb128 0x17
 7595 09ab 01       		.uleb128 0x1
 7596 09ac 52       		.byte	0x52
 7597 09ad 02       		.uleb128 0x2
 7598 09ae 08       		.byte	0x8
 7599 09af 40       		.byte	0x40
 7600 09b0 17       		.uleb128 0x17
 7601 09b1 01       		.uleb128 0x1
 7602 09b2 51       		.byte	0x51
 7603 09b3 02       		.uleb128 0x2
 7604 09b4 76       		.byte	0x76
 7605 09b5 00       		.sleb128 0
 7606 09b6 17       		.uleb128 0x17
 7607 09b7 01       		.uleb128 0x1
 7608 09b8 50       		.byte	0x50
 7609 09b9 02       		.uleb128 0x2
 7610 09ba 74       		.byte	0x74
 7611 09bb 00       		.sleb128 0
 7612 09bc 00       		.byte	0
 7613 09bd 16       		.uleb128 0x16
 7614 09be 2E020000 		.4byte	.LVL233
 7615 09c2 930F0000 		.4byte	0xf93
 7616 09c6 EB090000 		.4byte	0x9eb
 7617 09ca 17       		.uleb128 0x17
 7618 09cb 01       		.uleb128 0x1
 7619 09cc 51       		.byte	0x51
 7620 09cd 13       		.uleb128 0x13
 7621 09ce 03       		.byte	0x3
 7622 09cf 00000000 		.4byte	.LC0
 7623 09d3 03       		.byte	0x3
 7624 09d4 04000000 		.4byte	.LC1
 7625 09d8 76       		.byte	0x76
 7626 09d9 00       		.sleb128 0
 7627 09da 30       		.byte	0x30
 7628 09db 29       		.byte	0x29
 7629 09dc 28       		.byte	0x28
 7630 09dd 0100     		.2byte	0x1
 7631 09df 16       		.byte	0x16
 7632 09e0 13       		.byte	0x13
 7633 09e1 17       		.uleb128 0x17
 7634 09e2 01       		.uleb128 0x1
 7635 09e3 50       		.byte	0x50
 7636 09e4 05       		.uleb128 0x5
 7637 09e5 03       		.byte	0x3
 7638 09e6 60000000 		.4byte	.LC7
 7639 09ea 00       		.byte	0
 7640 09eb 16       		.uleb128 0x16
 7641 09ec 5A020000 		.4byte	.LVL234
 7642 09f0 8A010000 		.4byte	0x18a
 7643 09f4 0C0A0000 		.4byte	0xa0c
 7644 09f8 17       		.uleb128 0x17
 7645 09f9 01       		.uleb128 0x1
ARM GAS  C:\Users\jo\AppData\Local\Temp\ccwlN2BW.s 			page 136


 7646 09fa 52       		.byte	0x52
 7647 09fb 02       		.uleb128 0x2
 7648 09fc 08       		.byte	0x8
 7649 09fd 80       		.byte	0x80
 7650 09fe 17       		.uleb128 0x17
 7651 09ff 01       		.uleb128 0x1
 7652 0a00 51       		.byte	0x51
 7653 0a01 02       		.uleb128 0x2
 7654 0a02 77       		.byte	0x77
 7655 0a03 00       		.sleb128 0
 7656 0a04 17       		.uleb128 0x17
 7657 0a05 01       		.uleb128 0x1
 7658 0a06 50       		.byte	0x50
 7659 0a07 03       		.uleb128 0x3
 7660 0a08 91       		.byte	0x91
 7661 0a09 C07D     		.sleb128 -320
 7662 0a0b 00       		.byte	0
 7663 0a0c 16       		.uleb128 0x16
 7664 0a0d 7A020000 		.4byte	.LVL236
 7665 0a11 CF0F0000 		.4byte	0xfcf
 7666 0a15 320A0000 		.4byte	0xa32
 7667 0a19 17       		.uleb128 0x17
 7668 0a1a 01       		.uleb128 0x1
 7669 0a1b 52       		.byte	0x52
 7670 0a1c 02       		.uleb128 0x2
 7671 0a1d 76       		.byte	0x76
 7672 0a1e 00       		.sleb128 0
 7673 0a1f 17       		.uleb128 0x17
 7674 0a20 01       		.uleb128 0x1
 7675 0a21 51       		.byte	0x51
 7676 0a22 08       		.uleb128 0x8
 7677 0a23 75       		.byte	0x75
 7678 0a24 00       		.sleb128 0
 7679 0a25 03       		.byte	0x3
 7680 0a26 00000000 		.4byte	.LANCHOR22
 7681 0a2a 22       		.byte	0x22
 7682 0a2b 17       		.uleb128 0x17
 7683 0a2c 01       		.uleb128 0x1
 7684 0a2d 50       		.byte	0x50
 7685 0a2e 02       		.uleb128 0x2
 7686 0a2f 74       		.byte	0x74
 7687 0a30 00       		.sleb128 0
 7688 0a31 00       		.byte	0
 7689 0a32 16       		.uleb128 0x16
 7690 0a33 8E020000 		.4byte	.LVL237
 7691 0a37 97050000 		.4byte	0x597
 7692 0a3b 720A0000 		.4byte	0xa72
 7693 0a3f 17       		.uleb128 0x17
 7694 0a40 01       		.uleb128 0x1
 7695 0a41 53       		.byte	0x53
 7696 0a42 03       		.uleb128 0x3
 7697 0a43 91       		.byte	0x91
 7698 0a44 C07C     		.sleb128 -448
 7699 0a46 17       		.uleb128 0x17
 7700 0a47 01       		.uleb128 0x1
 7701 0a48 52       		.byte	0x52
 7702 0a49 03       		.uleb128 0x3
ARM GAS  C:\Users\jo\AppData\Local\Temp\ccwlN2BW.s 			page 137


 7703 0a4a 91       		.byte	0x91
 7704 0a4b 9C7C     		.sleb128 -484
 7705 0a4d 17       		.uleb128 0x17
 7706 0a4e 01       		.uleb128 0x1
 7707 0a4f 51       		.byte	0x51
 7708 0a50 02       		.uleb128 0x2
 7709 0a51 76       		.byte	0x76
 7710 0a52 00       		.sleb128 0
 7711 0a53 17       		.uleb128 0x17
 7712 0a54 01       		.uleb128 0x1
 7713 0a55 50       		.byte	0x50
 7714 0a56 03       		.uleb128 0x3
 7715 0a57 91       		.byte	0x91
 7716 0a58 C07D     		.sleb128 -320
 7717 0a5a 17       		.uleb128 0x17
 7718 0a5b 02       		.uleb128 0x2
 7719 0a5c 7D       		.byte	0x7d
 7720 0a5d 08       		.sleb128 8
 7721 0a5e 02       		.uleb128 0x2
 7722 0a5f 74       		.byte	0x74
 7723 0a60 00       		.sleb128 0
 7724 0a61 17       		.uleb128 0x17
 7725 0a62 02       		.uleb128 0x2
 7726 0a63 7D       		.byte	0x7d
 7727 0a64 04       		.sleb128 4
 7728 0a65 02       		.uleb128 0x2
 7729 0a66 74       		.byte	0x74
 7730 0a67 00       		.sleb128 0
 7731 0a68 17       		.uleb128 0x17
 7732 0a69 02       		.uleb128 0x2
 7733 0a6a 7D       		.byte	0x7d
 7734 0a6b 00       		.sleb128 0
 7735 0a6c 04       		.uleb128 0x4
 7736 0a6d 91       		.byte	0x91
 7737 0a6e 947C     		.sleb128 -492
 7738 0a70 06       		.byte	0x6
 7739 0a71 00       		.byte	0
 7740 0a72 16       		.uleb128 0x16
 7741 0a73 9A020000 		.4byte	.LVL238
 7742 0a77 A90F0000 		.4byte	0xfa9
 7743 0a7b 980A0000 		.4byte	0xa98
 7744 0a7f 17       		.uleb128 0x17
 7745 0a80 01       		.uleb128 0x1
 7746 0a81 52       		.byte	0x52
 7747 0a82 02       		.uleb128 0x2
 7748 0a83 76       		.byte	0x76
 7749 0a84 00       		.sleb128 0
 7750 0a85 17       		.uleb128 0x17
 7751 0a86 01       		.uleb128 0x1
 7752 0a87 51       		.byte	0x51
 7753 0a88 08       		.uleb128 0x8
 7754 0a89 75       		.byte	0x75
 7755 0a8a 00       		.sleb128 0
 7756 0a8b 03       		.byte	0x3
 7757 0a8c 00000000 		.4byte	.LANCHOR23
 7758 0a90 22       		.byte	0x22
 7759 0a91 17       		.uleb128 0x17
ARM GAS  C:\Users\jo\AppData\Local\Temp\ccwlN2BW.s 			page 138


 7760 0a92 01       		.uleb128 0x1
 7761 0a93 50       		.byte	0x50
 7762 0a94 02       		.uleb128 0x2
 7763 0a95 74       		.byte	0x74
 7764 0a96 00       		.sleb128 0
 7765 0a97 00       		.byte	0
 7766 0a98 23       		.uleb128 0x23
 7767 0a99 BE020000 		.4byte	.LVL241
 7768 0a9d 8A010000 		.4byte	0x18a
 7769 0aa1 16       		.uleb128 0x16
 7770 0aa2 00030000 		.4byte	.LVL247
 7771 0aa6 A90F0000 		.4byte	0xfa9
 7772 0aaa C80A0000 		.4byte	0xac8
 7773 0aae 17       		.uleb128 0x17
 7774 0aaf 01       		.uleb128 0x1
 7775 0ab0 52       		.byte	0x52
 7776 0ab1 01       		.uleb128 0x1
 7777 0ab2 40       		.byte	0x40
 7778 0ab3 17       		.uleb128 0x17
 7779 0ab4 01       		.uleb128 0x1
 7780 0ab5 51       		.byte	0x51
 7781 0ab6 0A       		.uleb128 0xa
 7782 0ab7 7A       		.byte	0x7a
 7783 0ab8 00       		.sleb128 0
 7784 0ab9 34       		.byte	0x34
 7785 0aba 24       		.byte	0x24
 7786 0abb 03       		.byte	0x3
 7787 0abc 00000000 		.4byte	.LANCHOR14
 7788 0ac0 22       		.byte	0x22
 7789 0ac1 17       		.uleb128 0x17
 7790 0ac2 01       		.uleb128 0x1
 7791 0ac3 50       		.byte	0x50
 7792 0ac4 02       		.uleb128 0x2
 7793 0ac5 75       		.byte	0x75
 7794 0ac6 00       		.sleb128 0
 7795 0ac7 00       		.byte	0
 7796 0ac8 23       		.uleb128 0x23
 7797 0ac9 1A030000 		.4byte	.LVL250
 7798 0acd 8A010000 		.4byte	0x18a
 7799 0ad1 16       		.uleb128 0x16
 7800 0ad2 2A030000 		.4byte	.LVL252
 7801 0ad6 C9020000 		.4byte	0x2c9
 7802 0ada F70A0000 		.4byte	0xaf7
 7803 0ade 17       		.uleb128 0x17
 7804 0adf 01       		.uleb128 0x1
 7805 0ae0 53       		.byte	0x53
 7806 0ae1 02       		.uleb128 0x2
 7807 0ae2 74       		.byte	0x74
 7808 0ae3 00       		.sleb128 0
 7809 0ae4 17       		.uleb128 0x17
 7810 0ae5 01       		.uleb128 0x1
 7811 0ae6 52       		.byte	0x52
 7812 0ae7 02       		.uleb128 0x2
 7813 0ae8 74       		.byte	0x74
 7814 0ae9 00       		.sleb128 0
 7815 0aea 17       		.uleb128 0x17
 7816 0aeb 01       		.uleb128 0x1
ARM GAS  C:\Users\jo\AppData\Local\Temp\ccwlN2BW.s 			page 139


 7817 0aec 51       		.byte	0x51
 7818 0aed 01       		.uleb128 0x1
 7819 0aee 31       		.byte	0x31
 7820 0aef 17       		.uleb128 0x17
 7821 0af0 01       		.uleb128 0x1
 7822 0af1 50       		.byte	0x50
 7823 0af2 03       		.uleb128 0x3
 7824 0af3 91       		.byte	0x91
 7825 0af4 C07D     		.sleb128 -320
 7826 0af6 00       		.byte	0
 7827 0af7 16       		.uleb128 0x16
 7828 0af8 A6030000 		.4byte	.LVL255
 7829 0afc A7040000 		.4byte	0x4a7
 7830 0b00 2C0B0000 		.4byte	0xb2c
 7831 0b04 17       		.uleb128 0x17
 7832 0b05 01       		.uleb128 0x1
 7833 0b06 53       		.byte	0x53
 7834 0b07 03       		.uleb128 0x3
 7835 0b08 91       		.byte	0x91
 7836 0b09 9C7C     		.sleb128 -484
 7837 0b0b 17       		.uleb128 0x17
 7838 0b0c 01       		.uleb128 0x1
 7839 0b0d 52       		.byte	0x52
 7840 0b0e 02       		.uleb128 0x2
 7841 0b0f 08       		.byte	0x8
 7842 0b10 40       		.byte	0x40
 7843 0b11 17       		.uleb128 0x17
 7844 0b12 01       		.uleb128 0x1
 7845 0b13 51       		.byte	0x51
 7846 0b14 01       		.uleb128 0x1
 7847 0b15 31       		.byte	0x31
 7848 0b16 17       		.uleb128 0x17
 7849 0b17 01       		.uleb128 0x1
 7850 0b18 50       		.byte	0x50
 7851 0b19 03       		.uleb128 0x3
 7852 0b1a 91       		.byte	0x91
 7853 0b1b C07D     		.sleb128 -320
 7854 0b1d 17       		.uleb128 0x17
 7855 0b1e 02       		.uleb128 0x2
 7856 0b1f 7D       		.byte	0x7d
 7857 0b20 08       		.sleb128 8
 7858 0b21 02       		.uleb128 0x2
 7859 0b22 74       		.byte	0x74
 7860 0b23 00       		.sleb128 0
 7861 0b24 17       		.uleb128 0x17
 7862 0b25 02       		.uleb128 0x2
 7863 0b26 7D       		.byte	0x7d
 7864 0b27 04       		.sleb128 4
 7865 0b28 02       		.uleb128 0x2
 7866 0b29 74       		.byte	0x74
 7867 0b2a 00       		.sleb128 0
 7868 0b2b 00       		.byte	0
 7869 0b2c 16       		.uleb128 0x16
 7870 0b2d B4030000 		.4byte	.LVL256
 7871 0b31 A90F0000 		.4byte	0xfa9
 7872 0b35 540B0000 		.4byte	0xb54
 7873 0b39 17       		.uleb128 0x17
ARM GAS  C:\Users\jo\AppData\Local\Temp\ccwlN2BW.s 			page 140


 7874 0b3a 01       		.uleb128 0x1
 7875 0b3b 52       		.byte	0x52
 7876 0b3c 02       		.uleb128 0x2
 7877 0b3d 08       		.byte	0x8
 7878 0b3e 40       		.byte	0x40
 7879 0b3f 17       		.uleb128 0x17
 7880 0b40 01       		.uleb128 0x1
 7881 0b41 51       		.byte	0x51
 7882 0b42 0A       		.uleb128 0xa
 7883 0b43 79       		.byte	0x79
 7884 0b44 00       		.sleb128 0
 7885 0b45 36       		.byte	0x36
 7886 0b46 24       		.byte	0x24
 7887 0b47 03       		.byte	0x3
 7888 0b48 00000000 		.4byte	.LANCHOR17
 7889 0b4c 22       		.byte	0x22
 7890 0b4d 17       		.uleb128 0x17
 7891 0b4e 01       		.uleb128 0x1
 7892 0b4f 50       		.byte	0x50
 7893 0b50 02       		.uleb128 0x2
 7894 0b51 74       		.byte	0x74
 7895 0b52 00       		.sleb128 0
 7896 0b53 00       		.byte	0
 7897 0b54 16       		.uleb128 0x16
 7898 0b55 C6030000 		.4byte	.LVL257
 7899 0b59 EC0F0000 		.4byte	0xfec
 7900 0b5d 6B0B0000 		.4byte	0xb6b
 7901 0b61 17       		.uleb128 0x17
 7902 0b62 01       		.uleb128 0x1
 7903 0b63 50       		.byte	0x50
 7904 0b64 05       		.uleb128 0x5
 7905 0b65 03       		.byte	0x3
 7906 0b66 28000000 		.4byte	.LC4
 7907 0b6a 00       		.byte	0
 7908 0b6b 16       		.uleb128 0x16
 7909 0b6c DA030000 		.4byte	.LVL259
 7910 0b70 CF0F0000 		.4byte	0xfcf
 7911 0b74 910B0000 		.4byte	0xb91
 7912 0b78 17       		.uleb128 0x17
 7913 0b79 01       		.uleb128 0x1
 7914 0b7a 52       		.byte	0x52
 7915 0b7b 02       		.uleb128 0x2
 7916 0b7c 75       		.byte	0x75
 7917 0b7d 00       		.sleb128 0
 7918 0b7e 17       		.uleb128 0x17
 7919 0b7f 01       		.uleb128 0x1
 7920 0b80 51       		.byte	0x51
 7921 0b81 08       		.uleb128 0x8
 7922 0b82 79       		.byte	0x79
 7923 0b83 00       		.sleb128 0
 7924 0b84 03       		.byte	0x3
 7925 0b85 00000000 		.4byte	.LANCHOR23
 7926 0b89 22       		.byte	0x22
 7927 0b8a 17       		.uleb128 0x17
 7928 0b8b 01       		.uleb128 0x1
 7929 0b8c 50       		.byte	0x50
 7930 0b8d 02       		.uleb128 0x2
ARM GAS  C:\Users\jo\AppData\Local\Temp\ccwlN2BW.s 			page 141


 7931 0b8e 74       		.byte	0x74
 7932 0b8f 00       		.sleb128 0
 7933 0b90 00       		.byte	0
 7934 0b91 16       		.uleb128 0x16
 7935 0b92 EE030000 		.4byte	.LVL260
 7936 0b96 97050000 		.4byte	0x597
 7937 0b9a D10B0000 		.4byte	0xbd1
 7938 0b9e 17       		.uleb128 0x17
 7939 0b9f 01       		.uleb128 0x1
 7940 0ba0 53       		.byte	0x53
 7941 0ba1 03       		.uleb128 0x3
 7942 0ba2 91       		.byte	0x91
 7943 0ba3 C07C     		.sleb128 -448
 7944 0ba5 17       		.uleb128 0x17
 7945 0ba6 01       		.uleb128 0x1
 7946 0ba7 52       		.byte	0x52
 7947 0ba8 03       		.uleb128 0x3
 7948 0ba9 91       		.byte	0x91
 7949 0baa 9C7C     		.sleb128 -484
 7950 0bac 17       		.uleb128 0x17
 7951 0bad 01       		.uleb128 0x1
 7952 0bae 51       		.byte	0x51
 7953 0baf 02       		.uleb128 0x2
 7954 0bb0 75       		.byte	0x75
 7955 0bb1 00       		.sleb128 0
 7956 0bb2 17       		.uleb128 0x17
 7957 0bb3 01       		.uleb128 0x1
 7958 0bb4 50       		.byte	0x50
 7959 0bb5 03       		.uleb128 0x3
 7960 0bb6 91       		.byte	0x91
 7961 0bb7 C07D     		.sleb128 -320
 7962 0bb9 17       		.uleb128 0x17
 7963 0bba 02       		.uleb128 0x2
 7964 0bbb 7D       		.byte	0x7d
 7965 0bbc 08       		.sleb128 8
 7966 0bbd 02       		.uleb128 0x2
 7967 0bbe 74       		.byte	0x74
 7968 0bbf 00       		.sleb128 0
 7969 0bc0 17       		.uleb128 0x17
 7970 0bc1 02       		.uleb128 0x2
 7971 0bc2 7D       		.byte	0x7d
 7972 0bc3 04       		.sleb128 4
 7973 0bc4 02       		.uleb128 0x2
 7974 0bc5 74       		.byte	0x74
 7975 0bc6 00       		.sleb128 0
 7976 0bc7 17       		.uleb128 0x17
 7977 0bc8 02       		.uleb128 0x2
 7978 0bc9 7D       		.byte	0x7d
 7979 0bca 00       		.sleb128 0
 7980 0bcb 04       		.uleb128 0x4
 7981 0bcc 91       		.byte	0x91
 7982 0bcd 947C     		.sleb128 -492
 7983 0bcf 06       		.byte	0x6
 7984 0bd0 00       		.byte	0
 7985 0bd1 16       		.uleb128 0x16
 7986 0bd2 FC030000 		.4byte	.LVL261
 7987 0bd6 A90F0000 		.4byte	0xfa9
ARM GAS  C:\Users\jo\AppData\Local\Temp\ccwlN2BW.s 			page 142


 7988 0bda F70B0000 		.4byte	0xbf7
 7989 0bde 17       		.uleb128 0x17
 7990 0bdf 01       		.uleb128 0x1
 7991 0be0 52       		.byte	0x52
 7992 0be1 02       		.uleb128 0x2
 7993 0be2 75       		.byte	0x75
 7994 0be3 00       		.sleb128 0
 7995 0be4 17       		.uleb128 0x17
 7996 0be5 01       		.uleb128 0x1
 7997 0be6 51       		.byte	0x51
 7998 0be7 08       		.uleb128 0x8
 7999 0be8 79       		.byte	0x79
 8000 0be9 00       		.sleb128 0
 8001 0bea 03       		.byte	0x3
 8002 0beb 00000000 		.4byte	.LANCHOR22
 8003 0bef 22       		.byte	0x22
 8004 0bf0 17       		.uleb128 0x17
 8005 0bf1 01       		.uleb128 0x1
 8006 0bf2 50       		.byte	0x50
 8007 0bf3 02       		.uleb128 0x2
 8008 0bf4 74       		.byte	0x74
 8009 0bf5 00       		.sleb128 0
 8010 0bf6 00       		.byte	0
 8011 0bf7 16       		.uleb128 0x16
 8012 0bf8 0E040000 		.4byte	.LVL263
 8013 0bfc EC0F0000 		.4byte	0xfec
 8014 0c00 0E0C0000 		.4byte	0xc0e
 8015 0c04 17       		.uleb128 0x17
 8016 0c05 01       		.uleb128 0x1
 8017 0c06 50       		.byte	0x50
 8018 0c07 05       		.uleb128 0x5
 8019 0c08 03       		.byte	0x3
 8020 0c09 28000000 		.4byte	.LC4
 8021 0c0d 00       		.byte	0
 8022 0c0e 16       		.uleb128 0x16
 8023 0c0f 16040000 		.4byte	.LVL265
 8024 0c13 EC0F0000 		.4byte	0xfec
 8025 0c17 250C0000 		.4byte	0xc25
 8026 0c1b 17       		.uleb128 0x17
 8027 0c1c 01       		.uleb128 0x1
 8028 0c1d 50       		.byte	0x50
 8029 0c1e 05       		.uleb128 0x5
 8030 0c1f 03       		.byte	0x3
 8031 0c20 28000000 		.4byte	.LC4
 8032 0c24 00       		.byte	0
 8033 0c25 16       		.uleb128 0x16
 8034 0c26 1E040000 		.4byte	.LVL267
 8035 0c2a EC0F0000 		.4byte	0xfec
 8036 0c2e 3C0C0000 		.4byte	0xc3c
 8037 0c32 17       		.uleb128 0x17
 8038 0c33 01       		.uleb128 0x1
 8039 0c34 50       		.byte	0x50
 8040 0c35 05       		.uleb128 0x5
 8041 0c36 03       		.byte	0x3
 8042 0c37 28000000 		.4byte	.LC4
 8043 0c3b 00       		.byte	0
 8044 0c3c 16       		.uleb128 0x16
ARM GAS  C:\Users\jo\AppData\Local\Temp\ccwlN2BW.s 			page 143


 8045 0c3d 26040000 		.4byte	.LVL269
 8046 0c41 05100000 		.4byte	0x1005
 8047 0c45 4F0C0000 		.4byte	0xc4f
 8048 0c49 17       		.uleb128 0x17
 8049 0c4a 01       		.uleb128 0x1
 8050 0c4b 50       		.byte	0x50
 8051 0c4c 01       		.uleb128 0x1
 8052 0c4d 3A       		.byte	0x3a
 8053 0c4e 00       		.byte	0
 8054 0c4f 16       		.uleb128 0x16
 8055 0c50 34040000 		.4byte	.LVL271
 8056 0c54 05100000 		.4byte	0x1005
 8057 0c58 620C0000 		.4byte	0xc62
 8058 0c5c 17       		.uleb128 0x17
 8059 0c5d 01       		.uleb128 0x1
 8060 0c5e 50       		.byte	0x50
 8061 0c5f 01       		.uleb128 0x1
 8062 0c60 3A       		.byte	0x3a
 8063 0c61 00       		.byte	0
 8064 0c62 16       		.uleb128 0x16
 8065 0c63 3C040000 		.4byte	.LVL273
 8066 0c67 05100000 		.4byte	0x1005
 8067 0c6b 750C0000 		.4byte	0xc75
 8068 0c6f 17       		.uleb128 0x17
 8069 0c70 01       		.uleb128 0x1
 8070 0c71 50       		.byte	0x50
 8071 0c72 01       		.uleb128 0x1
 8072 0c73 3A       		.byte	0x3a
 8073 0c74 00       		.byte	0
 8074 0c75 16       		.uleb128 0x16
 8075 0c76 44040000 		.4byte	.LVL275
 8076 0c7a 05100000 		.4byte	0x1005
 8077 0c7e 880C0000 		.4byte	0xc88
 8078 0c82 17       		.uleb128 0x17
 8079 0c83 01       		.uleb128 0x1
 8080 0c84 50       		.byte	0x50
 8081 0c85 01       		.uleb128 0x1
 8082 0c86 3A       		.byte	0x3a
 8083 0c87 00       		.byte	0
 8084 0c88 18       		.uleb128 0x18
 8085 0c89 4C040000 		.4byte	.LVL277
 8086 0c8d EC0F0000 		.4byte	0xfec
 8087 0c91 17       		.uleb128 0x17
 8088 0c92 01       		.uleb128 0x1
 8089 0c93 50       		.byte	0x50
 8090 0c94 05       		.uleb128 0x5
 8091 0c95 03       		.byte	0x3
 8092 0c96 20000000 		.4byte	.LC3
 8093 0c9a 00       		.byte	0
 8094 0c9b 00       		.byte	0
 8095 0c9c 0A       		.uleb128 0xa
 8096 0c9d 45000000 		.4byte	0x45
 8097 0ca1 AC0C0000 		.4byte	0xcac
 8098 0ca5 0B       		.uleb128 0xb
 8099 0ca6 81000000 		.4byte	0x81
 8100 0caa 1F       		.byte	0x1f
 8101 0cab 00       		.byte	0
ARM GAS  C:\Users\jo\AppData\Local\Temp\ccwlN2BW.s 			page 144


 8102 0cac 0A       		.uleb128 0xa
 8103 0cad 45000000 		.4byte	0x45
 8104 0cb1 BC0C0000 		.4byte	0xcbc
 8105 0cb5 0B       		.uleb128 0xb
 8106 0cb6 81000000 		.4byte	0x81
 8107 0cba 3F       		.byte	0x3f
 8108 0cbb 00       		.byte	0
 8109 0cbc 0A       		.uleb128 0xa
 8110 0cbd 45000000 		.4byte	0x45
 8111 0cc1 CC0C0000 		.4byte	0xccc
 8112 0cc5 0B       		.uleb128 0xb
 8113 0cc6 81000000 		.4byte	0x81
 8114 0cca FF       		.byte	0xff
 8115 0ccb 00       		.byte	0
 8116 0ccc 24       		.uleb128 0x24
 8117 0ccd 46536200 		.ascii	"FSb\000"
 8118 0cd1 01       		.byte	0x1
 8119 0cd2 6E       		.byte	0x6e
 8120 0cd3 DD0C0000 		.4byte	0xcdd
 8121 0cd7 05       		.uleb128 0x5
 8122 0cd8 03       		.byte	0x3
 8123 0cd9 00000000 		.4byte	FSb
 8124 0cdd 07       		.uleb128 0x7
 8125 0cde BC0C0000 		.4byte	0xcbc
 8126 0ce2 0A       		.uleb128 0xa
 8127 0ce3 A2000000 		.4byte	0xa2
 8128 0ce7 F20C0000 		.4byte	0xcf2
 8129 0ceb 0B       		.uleb128 0xb
 8130 0cec 81000000 		.4byte	0x81
 8131 0cf0 FF       		.byte	0xff
 8132 0cf1 00       		.byte	0
 8133 0cf2 24       		.uleb128 0x24
 8134 0cf3 46543000 		.ascii	"FT0\000"
 8135 0cf7 01       		.byte	0x1
 8136 0cf8 D9       		.byte	0xd9
 8137 0cf9 030D0000 		.4byte	0xd03
 8138 0cfd 05       		.uleb128 0x5
 8139 0cfe 03       		.byte	0x3
 8140 0cff 00000000 		.4byte	FT0
 8141 0d03 07       		.uleb128 0x7
 8142 0d04 E20C0000 		.4byte	0xce2
 8143 0d08 24       		.uleb128 0x24
 8144 0d09 46543100 		.ascii	"FT1\000"
 8145 0d0d 01       		.byte	0x1
 8146 0d0e DD       		.byte	0xdd
 8147 0d0f 190D0000 		.4byte	0xd19
 8148 0d13 05       		.uleb128 0x5
 8149 0d14 03       		.byte	0x3
 8150 0d15 00000000 		.4byte	FT1
 8151 0d19 07       		.uleb128 0x7
 8152 0d1a E20C0000 		.4byte	0xce2
 8153 0d1e 24       		.uleb128 0x24
 8154 0d1f 46543200 		.ascii	"FT2\000"
 8155 0d23 01       		.byte	0x1
 8156 0d24 E1       		.byte	0xe1
 8157 0d25 2F0D0000 		.4byte	0xd2f
 8158 0d29 05       		.uleb128 0x5
ARM GAS  C:\Users\jo\AppData\Local\Temp\ccwlN2BW.s 			page 145


 8159 0d2a 03       		.byte	0x3
 8160 0d2b 00000000 		.4byte	FT2
 8161 0d2f 07       		.uleb128 0x7
 8162 0d30 E20C0000 		.4byte	0xce2
 8163 0d34 24       		.uleb128 0x24
 8164 0d35 46543300 		.ascii	"FT3\000"
 8165 0d39 01       		.byte	0x1
 8166 0d3a E5       		.byte	0xe5
 8167 0d3b 450D0000 		.4byte	0xd45
 8168 0d3f 05       		.uleb128 0x5
 8169 0d40 03       		.byte	0x3
 8170 0d41 00000000 		.4byte	FT3
 8171 0d45 07       		.uleb128 0x7
 8172 0d46 E20C0000 		.4byte	0xce2
 8173 0d4a 24       		.uleb128 0x24
 8174 0d4b 52536200 		.ascii	"RSb\000"
 8175 0d4f 01       		.byte	0x1
 8176 0d50 ED       		.byte	0xed
 8177 0d51 5B0D0000 		.4byte	0xd5b
 8178 0d55 05       		.uleb128 0x5
 8179 0d56 03       		.byte	0x3
 8180 0d57 00000000 		.4byte	RSb
 8181 0d5b 07       		.uleb128 0x7
 8182 0d5c BC0C0000 		.4byte	0xcbc
 8183 0d60 15       		.uleb128 0x15
 8184 0d61 52543000 		.ascii	"RT0\000"
 8185 0d65 01       		.byte	0x1
 8186 0d66 5801     		.2byte	0x158
 8187 0d68 720D0000 		.4byte	0xd72
 8188 0d6c 05       		.uleb128 0x5
 8189 0d6d 03       		.byte	0x3
 8190 0d6e 00000000 		.4byte	RT0
 8191 0d72 07       		.uleb128 0x7
 8192 0d73 E20C0000 		.4byte	0xce2
 8193 0d77 15       		.uleb128 0x15
 8194 0d78 52543100 		.ascii	"RT1\000"
 8195 0d7c 01       		.byte	0x1
 8196 0d7d 5C01     		.2byte	0x15c
 8197 0d7f 890D0000 		.4byte	0xd89
 8198 0d83 05       		.uleb128 0x5
 8199 0d84 03       		.byte	0x3
 8200 0d85 00000000 		.4byte	RT1
 8201 0d89 07       		.uleb128 0x7
 8202 0d8a E20C0000 		.4byte	0xce2
 8203 0d8e 15       		.uleb128 0x15
 8204 0d8f 52543200 		.ascii	"RT2\000"
 8205 0d93 01       		.byte	0x1
 8206 0d94 6001     		.2byte	0x160
 8207 0d96 A00D0000 		.4byte	0xda0
 8208 0d9a 05       		.uleb128 0x5
 8209 0d9b 03       		.byte	0x3
 8210 0d9c 00000000 		.4byte	RT2
 8211 0da0 07       		.uleb128 0x7
 8212 0da1 E20C0000 		.4byte	0xce2
 8213 0da5 15       		.uleb128 0x15
 8214 0da6 52543300 		.ascii	"RT3\000"
 8215 0daa 01       		.byte	0x1
ARM GAS  C:\Users\jo\AppData\Local\Temp\ccwlN2BW.s 			page 146


 8216 0dab 6401     		.2byte	0x164
 8217 0dad B70D0000 		.4byte	0xdb7
 8218 0db1 05       		.uleb128 0x5
 8219 0db2 03       		.byte	0x3
 8220 0db3 00000000 		.4byte	RT3
 8221 0db7 07       		.uleb128 0x7
 8222 0db8 E20C0000 		.4byte	0xce2
 8223 0dbc 0A       		.uleb128 0xa
 8224 0dbd A2000000 		.4byte	0xa2
 8225 0dc1 CC0D0000 		.4byte	0xdcc
 8226 0dc5 0B       		.uleb128 0xb
 8227 0dc6 81000000 		.4byte	0x81
 8228 0dca 09       		.byte	0x9
 8229 0dcb 00       		.byte	0
 8230 0dcc 21       		.uleb128 0x21
 8231 0dcd D8030000 		.4byte	.LASF33
 8232 0dd1 01       		.byte	0x1
 8233 0dd2 6C01     		.2byte	0x16c
 8234 0dd4 DE0D0000 		.4byte	0xdde
 8235 0dd8 05       		.uleb128 0x5
 8236 0dd9 03       		.byte	0x3
 8237 0dda 00000000 		.4byte	RCON
 8238 0dde 07       		.uleb128 0x7
 8239 0ddf BC0D0000 		.4byte	0xdbc
 8240 0de3 0A       		.uleb128 0xa
 8241 0de4 45000000 		.4byte	0x45
 8242 0de8 F90D0000 		.4byte	0xdf9
 8243 0dec 0B       		.uleb128 0xb
 8244 0ded 81000000 		.4byte	0x81
 8245 0df1 02       		.byte	0x2
 8246 0df2 0B       		.uleb128 0xb
 8247 0df3 81000000 		.4byte	0x81
 8248 0df7 0F       		.byte	0xf
 8249 0df8 00       		.byte	0
 8250 0df9 21       		.uleb128 0x21
 8251 0dfa A9010000 		.4byte	.LASF34
 8252 0dfe 01       		.byte	0x1
 8253 0dff 1C04     		.2byte	0x41c
 8254 0e01 0B0E0000 		.4byte	0xe0b
 8255 0e05 05       		.uleb128 0x5
 8256 0e06 03       		.byte	0x3
 8257 0e07 00000000 		.4byte	aes_test_ecb_dec
 8258 0e0b 07       		.uleb128 0x7
 8259 0e0c E30D0000 		.4byte	0xde3
 8260 0e10 21       		.uleb128 0x21
 8261 0e11 BA010000 		.4byte	.LASF35
 8262 0e15 01       		.byte	0x1
 8263 0e16 2604     		.2byte	0x426
 8264 0e18 220E0000 		.4byte	0xe22
 8265 0e1c 05       		.uleb128 0x5
 8266 0e1d 03       		.byte	0x3
 8267 0e1e 00000000 		.4byte	aes_test_ecb_enc
 8268 0e22 07       		.uleb128 0x7
 8269 0e23 E30D0000 		.4byte	0xde3
 8270 0e27 21       		.uleb128 0x21
 8271 0e28 F2020000 		.4byte	.LASF36
 8272 0e2c 01       		.byte	0x1
ARM GAS  C:\Users\jo\AppData\Local\Temp\ccwlN2BW.s 			page 147


 8273 0e2d 3004     		.2byte	0x430
 8274 0e2f 390E0000 		.4byte	0xe39
 8275 0e33 05       		.uleb128 0x5
 8276 0e34 03       		.byte	0x3
 8277 0e35 00000000 		.4byte	aes_test_cbc_dec
 8278 0e39 07       		.uleb128 0x7
 8279 0e3a E30D0000 		.4byte	0xde3
 8280 0e3e 21       		.uleb128 0x21
 8281 0e3f 03030000 		.4byte	.LASF37
 8282 0e43 01       		.byte	0x1
 8283 0e44 3A04     		.2byte	0x43a
 8284 0e46 500E0000 		.4byte	0xe50
 8285 0e4a 05       		.uleb128 0x5
 8286 0e4b 03       		.byte	0x3
 8287 0e4c 00000000 		.4byte	aes_test_cbc_enc
 8288 0e50 07       		.uleb128 0x7
 8289 0e51 E30D0000 		.4byte	0xde3
 8290 0e55 0A       		.uleb128 0xa
 8291 0e56 45000000 		.4byte	0x45
 8292 0e5a 6B0E0000 		.4byte	0xe6b
 8293 0e5e 0B       		.uleb128 0xb
 8294 0e5f 81000000 		.4byte	0x81
 8295 0e63 02       		.byte	0x2
 8296 0e64 0B       		.uleb128 0xb
 8297 0e65 81000000 		.4byte	0x81
 8298 0e69 1F       		.byte	0x1f
 8299 0e6a 00       		.byte	0
 8300 0e6b 21       		.uleb128 0x21
 8301 0e6c BD030000 		.4byte	.LASF38
 8302 0e70 01       		.byte	0x1
 8303 0e71 4A04     		.2byte	0x44a
 8304 0e73 7D0E0000 		.4byte	0xe7d
 8305 0e77 05       		.uleb128 0x5
 8306 0e78 03       		.byte	0x3
 8307 0e79 00000000 		.4byte	aes_test_cfb128_key
 8308 0e7d 07       		.uleb128 0x7
 8309 0e7e 550E0000 		.4byte	0xe55
 8310 0e82 21       		.uleb128 0x21
 8311 0e83 0E000000 		.4byte	.LASF39
 8312 0e87 01       		.byte	0x1
 8313 0e88 5704     		.2byte	0x457
 8314 0e8a 940E0000 		.4byte	0xe94
 8315 0e8e 05       		.uleb128 0x5
 8316 0e8f 03       		.byte	0x3
 8317 0e90 00000000 		.4byte	aes_test_cfb128_iv
 8318 0e94 07       		.uleb128 0x7
 8319 0e95 7A010000 		.4byte	0x17a
 8320 0e99 21       		.uleb128 0x21
 8321 0e9a F7030000 		.4byte	.LASF40
 8322 0e9e 01       		.byte	0x1
 8323 0e9f 5D04     		.2byte	0x45d
 8324 0ea1 AB0E0000 		.4byte	0xeab
 8325 0ea5 05       		.uleb128 0x5
 8326 0ea6 03       		.byte	0x3
 8327 0ea7 00000000 		.4byte	aes_test_cfb128_pt
 8328 0eab 07       		.uleb128 0x7
 8329 0eac AC0C0000 		.4byte	0xcac
ARM GAS  C:\Users\jo\AppData\Local\Temp\ccwlN2BW.s 			page 148


 8330 0eb0 0A       		.uleb128 0xa
 8331 0eb1 45000000 		.4byte	0x45
 8332 0eb5 C60E0000 		.4byte	0xec6
 8333 0eb9 0B       		.uleb128 0xb
 8334 0eba 81000000 		.4byte	0x81
 8335 0ebe 02       		.byte	0x2
 8336 0ebf 0B       		.uleb128 0xb
 8337 0ec0 81000000 		.4byte	0x81
 8338 0ec4 3F       		.byte	0x3f
 8339 0ec5 00       		.byte	0
 8340 0ec6 21       		.uleb128 0x21
 8341 0ec7 29010000 		.4byte	.LASF41
 8342 0ecb 01       		.byte	0x1
 8343 0ecc 6904     		.2byte	0x469
 8344 0ece D80E0000 		.4byte	0xed8
 8345 0ed2 05       		.uleb128 0x5
 8346 0ed3 03       		.byte	0x3
 8347 0ed4 00000000 		.4byte	aes_test_cfb128_ct
 8348 0ed8 07       		.uleb128 0x7
 8349 0ed9 B00E0000 		.4byte	0xeb0
 8350 0edd 21       		.uleb128 0x21
 8351 0ede 86030000 		.4byte	.LASF42
 8352 0ee2 01       		.byte	0x1
 8353 0ee3 8D04     		.2byte	0x48d
 8354 0ee5 EF0E0000 		.4byte	0xeef
 8355 0ee9 05       		.uleb128 0x5
 8356 0eea 03       		.byte	0x3
 8357 0eeb 00000000 		.4byte	aes_test_ctr_key
 8358 0eef 07       		.uleb128 0x7
 8359 0ef0 E30D0000 		.4byte	0xde3
 8360 0ef4 21       		.uleb128 0x21
 8361 0ef5 33030000 		.4byte	.LASF43
 8362 0ef9 01       		.byte	0x1
 8363 0efa 9704     		.2byte	0x497
 8364 0efc 060F0000 		.4byte	0xf06
 8365 0f00 05       		.uleb128 0x5
 8366 0f01 03       		.byte	0x3
 8367 0f02 00000000 		.4byte	aes_test_ctr_nonce_counter
 8368 0f06 07       		.uleb128 0x7
 8369 0f07 E30D0000 		.4byte	0xde3
 8370 0f0b 0A       		.uleb128 0xa
 8371 0f0c 45000000 		.4byte	0x45
 8372 0f10 210F0000 		.4byte	0xf21
 8373 0f14 0B       		.uleb128 0xb
 8374 0f15 81000000 		.4byte	0x81
 8375 0f19 02       		.byte	0x2
 8376 0f1a 0B       		.uleb128 0xb
 8377 0f1b 81000000 		.4byte	0x81
 8378 0f1f 2F       		.byte	0x2f
 8379 0f20 00       		.byte	0
 8380 0f21 21       		.uleb128 0x21
 8381 0f22 C8020000 		.4byte	.LASF44
 8382 0f26 01       		.byte	0x1
 8383 0f27 A104     		.2byte	0x4a1
 8384 0f29 330F0000 		.4byte	0xf33
 8385 0f2d 05       		.uleb128 0x5
 8386 0f2e 03       		.byte	0x3
ARM GAS  C:\Users\jo\AppData\Local\Temp\ccwlN2BW.s 			page 149


 8387 0f2f 00000000 		.4byte	aes_test_ctr_pt
 8388 0f33 07       		.uleb128 0x7
 8389 0f34 0B0F0000 		.4byte	0xf0b
 8390 0f38 21       		.uleb128 0x21
 8391 0f39 9F030000 		.4byte	.LASF45
 8392 0f3d 01       		.byte	0x1
 8393 0f3e B204     		.2byte	0x4b2
 8394 0f40 4A0F0000 		.4byte	0xf4a
 8395 0f44 05       		.uleb128 0x5
 8396 0f45 03       		.byte	0x3
 8397 0f46 00000000 		.4byte	aes_test_ctr_ct
 8398 0f4a 07       		.uleb128 0x7
 8399 0f4b 0B0F0000 		.4byte	0xf0b
 8400 0f4f 0A       		.uleb128 0xa
 8401 0f50 25000000 		.4byte	0x25
 8402 0f54 5F0F0000 		.4byte	0xf5f
 8403 0f58 0B       		.uleb128 0xb
 8404 0f59 81000000 		.4byte	0x81
 8405 0f5d 02       		.byte	0x2
 8406 0f5e 00       		.byte	0
 8407 0f5f 21       		.uleb128 0x21
 8408 0f60 14030000 		.4byte	.LASF46
 8409 0f64 01       		.byte	0x1
 8410 0f65 C104     		.2byte	0x4c1
 8411 0f67 710F0000 		.4byte	0xf71
 8412 0f6b 05       		.uleb128 0x5
 8413 0f6c 03       		.byte	0x3
 8414 0f6d 00000000 		.4byte	aes_test_ctr_len
 8415 0f71 07       		.uleb128 0x7
 8416 0f72 4F0F0000 		.4byte	0xf4f
 8417 0f76 25       		.uleb128 0x25
 8418 0f77 D1030000 		.4byte	.LASF50
 8419 0f7b 88000000 		.4byte	0x88
 8420 0f7f 930F0000 		.4byte	0xf93
 8421 0f83 26       		.uleb128 0x26
 8422 0f84 88000000 		.4byte	0x88
 8423 0f88 26       		.uleb128 0x26
 8424 0f89 25000000 		.4byte	0x25
 8425 0f8d 26       		.uleb128 0x26
 8426 0f8e 81000000 		.4byte	0x81
 8427 0f92 00       		.byte	0
 8428 0f93 27       		.uleb128 0x27
 8429 0f94 00000000 		.4byte	.LASF48
 8430 0f98 06       		.byte	0x6
 8431 0f99 B1       		.byte	0xb1
 8432 0f9a 25000000 		.4byte	0x25
 8433 0f9e A90F0000 		.4byte	0xfa9
 8434 0fa2 26       		.uleb128 0x26
 8435 0fa3 97000000 		.4byte	0x97
 8436 0fa7 28       		.uleb128 0x28
 8437 0fa8 00       		.byte	0
 8438 0fa9 27       		.uleb128 0x27
 8439 0faa F0030000 		.4byte	.LASF49
 8440 0fae 07       		.byte	0x7
 8441 0faf 16       		.byte	0x16
 8442 0fb0 25000000 		.4byte	0x25
 8443 0fb4 C80F0000 		.4byte	0xfc8
ARM GAS  C:\Users\jo\AppData\Local\Temp\ccwlN2BW.s 			page 150


 8444 0fb8 26       		.uleb128 0x26
 8445 0fb9 C80F0000 		.4byte	0xfc8
 8446 0fbd 26       		.uleb128 0x26
 8447 0fbe C80F0000 		.4byte	0xfc8
 8448 0fc2 26       		.uleb128 0x26
 8449 0fc3 2C000000 		.4byte	0x2c
 8450 0fc7 00       		.byte	0
 8451 0fc8 06       		.uleb128 0x6
 8452 0fc9 04       		.byte	0x4
 8453 0fca CE0F0000 		.4byte	0xfce
 8454 0fce 29       		.uleb128 0x29
 8455 0fcf 25       		.uleb128 0x25
 8456 0fd0 B6030000 		.4byte	.LASF51
 8457 0fd4 88000000 		.4byte	0x88
 8458 0fd8 EC0F0000 		.4byte	0xfec
 8459 0fdc 26       		.uleb128 0x26
 8460 0fdd 88000000 		.4byte	0x88
 8461 0fe1 26       		.uleb128 0x26
 8462 0fe2 C80F0000 		.4byte	0xfc8
 8463 0fe6 26       		.uleb128 0x26
 8464 0fe7 81000000 		.4byte	0x81
 8465 0feb 00       		.byte	0
 8466 0fec 2A       		.uleb128 0x2a
 8467 0fed 07010000 		.4byte	.LASF56
 8468 0ff1 08       		.byte	0x8
 8469 0ff2 00       		.byte	0
 8470 0ff3 EB030000 		.4byte	.LASF57
 8471 0ff7 25000000 		.4byte	0x25
 8472 0ffb 05100000 		.4byte	0x1005
 8473 0fff 26       		.uleb128 0x26
 8474 1000 97000000 		.4byte	0x97
 8475 1004 00       		.byte	0
 8476 1005 2B       		.uleb128 0x2b
 8477 1006 97010000 		.4byte	.LASF52
 8478 100a 08       		.byte	0x8
 8479 100b 00       		.byte	0
 8480 100c 16010000 		.4byte	.LASF58
 8481 1010 25000000 		.4byte	0x25
 8482 1014 26       		.uleb128 0x26
 8483 1015 25000000 		.4byte	0x25
 8484 1019 00       		.byte	0
 8485 101a 00       		.byte	0
 8486              		.section	.debug_abbrev,"",%progbits
 8487              	.Ldebug_abbrev0:
 8488 0000 01       		.uleb128 0x1
 8489 0001 11       		.uleb128 0x11
 8490 0002 01       		.byte	0x1
 8491 0003 25       		.uleb128 0x25
 8492 0004 0E       		.uleb128 0xe
 8493 0005 13       		.uleb128 0x13
 8494 0006 0B       		.uleb128 0xb
 8495 0007 03       		.uleb128 0x3
 8496 0008 0E       		.uleb128 0xe
 8497 0009 1B       		.uleb128 0x1b
 8498 000a 0E       		.uleb128 0xe
 8499 000b 55       		.uleb128 0x55
 8500 000c 17       		.uleb128 0x17
ARM GAS  C:\Users\jo\AppData\Local\Temp\ccwlN2BW.s 			page 151


 8501 000d 11       		.uleb128 0x11
 8502 000e 01       		.uleb128 0x1
 8503 000f 10       		.uleb128 0x10
 8504 0010 17       		.uleb128 0x17
 8505 0011 00       		.byte	0
 8506 0012 00       		.byte	0
 8507 0013 02       		.uleb128 0x2
 8508 0014 24       		.uleb128 0x24
 8509 0015 00       		.byte	0
 8510 0016 0B       		.uleb128 0xb
 8511 0017 0B       		.uleb128 0xb
 8512 0018 3E       		.uleb128 0x3e
 8513 0019 0B       		.uleb128 0xb
 8514 001a 03       		.uleb128 0x3
 8515 001b 08       		.uleb128 0x8
 8516 001c 00       		.byte	0
 8517 001d 00       		.byte	0
 8518 001e 03       		.uleb128 0x3
 8519 001f 16       		.uleb128 0x16
 8520 0020 00       		.byte	0
 8521 0021 03       		.uleb128 0x3
 8522 0022 0E       		.uleb128 0xe
 8523 0023 3A       		.uleb128 0x3a
 8524 0024 0B       		.uleb128 0xb
 8525 0025 3B       		.uleb128 0x3b
 8526 0026 0B       		.uleb128 0xb
 8527 0027 49       		.uleb128 0x49
 8528 0028 13       		.uleb128 0x13
 8529 0029 00       		.byte	0
 8530 002a 00       		.byte	0
 8531 002b 04       		.uleb128 0x4
 8532 002c 24       		.uleb128 0x24
 8533 002d 00       		.byte	0
 8534 002e 0B       		.uleb128 0xb
 8535 002f 0B       		.uleb128 0xb
 8536 0030 3E       		.uleb128 0x3e
 8537 0031 0B       		.uleb128 0xb
 8538 0032 03       		.uleb128 0x3
 8539 0033 0E       		.uleb128 0xe
 8540 0034 00       		.byte	0
 8541 0035 00       		.byte	0
 8542 0036 05       		.uleb128 0x5
 8543 0037 0F       		.uleb128 0xf
 8544 0038 00       		.byte	0
 8545 0039 0B       		.uleb128 0xb
 8546 003a 0B       		.uleb128 0xb
 8547 003b 00       		.byte	0
 8548 003c 00       		.byte	0
 8549 003d 06       		.uleb128 0x6
 8550 003e 0F       		.uleb128 0xf
 8551 003f 00       		.byte	0
 8552 0040 0B       		.uleb128 0xb
 8553 0041 0B       		.uleb128 0xb
 8554 0042 49       		.uleb128 0x49
 8555 0043 13       		.uleb128 0x13
 8556 0044 00       		.byte	0
 8557 0045 00       		.byte	0
ARM GAS  C:\Users\jo\AppData\Local\Temp\ccwlN2BW.s 			page 152


 8558 0046 07       		.uleb128 0x7
 8559 0047 26       		.uleb128 0x26
 8560 0048 00       		.byte	0
 8561 0049 49       		.uleb128 0x49
 8562 004a 13       		.uleb128 0x13
 8563 004b 00       		.byte	0
 8564 004c 00       		.byte	0
 8565 004d 08       		.uleb128 0x8
 8566 004e 13       		.uleb128 0x13
 8567 004f 01       		.byte	0x1
 8568 0050 0B       		.uleb128 0xb
 8569 0051 05       		.uleb128 0x5
 8570 0052 3A       		.uleb128 0x3a
 8571 0053 0B       		.uleb128 0xb
 8572 0054 3B       		.uleb128 0x3b
 8573 0055 0B       		.uleb128 0xb
 8574 0056 01       		.uleb128 0x1
 8575 0057 13       		.uleb128 0x13
 8576 0058 00       		.byte	0
 8577 0059 00       		.byte	0
 8578 005a 09       		.uleb128 0x9
 8579 005b 0D       		.uleb128 0xd
 8580 005c 00       		.byte	0
 8581 005d 03       		.uleb128 0x3
 8582 005e 08       		.uleb128 0x8
 8583 005f 3A       		.uleb128 0x3a
 8584 0060 0B       		.uleb128 0xb
 8585 0061 3B       		.uleb128 0x3b
 8586 0062 0B       		.uleb128 0xb
 8587 0063 49       		.uleb128 0x49
 8588 0064 13       		.uleb128 0x13
 8589 0065 38       		.uleb128 0x38
 8590 0066 0B       		.uleb128 0xb
 8591 0067 00       		.byte	0
 8592 0068 00       		.byte	0
 8593 0069 0A       		.uleb128 0xa
 8594 006a 01       		.uleb128 0x1
 8595 006b 01       		.byte	0x1
 8596 006c 49       		.uleb128 0x49
 8597 006d 13       		.uleb128 0x13
 8598 006e 01       		.uleb128 0x1
 8599 006f 13       		.uleb128 0x13
 8600 0070 00       		.byte	0
 8601 0071 00       		.byte	0
 8602 0072 0B       		.uleb128 0xb
 8603 0073 21       		.uleb128 0x21
 8604 0074 00       		.byte	0
 8605 0075 49       		.uleb128 0x49
 8606 0076 13       		.uleb128 0x13
 8607 0077 2F       		.uleb128 0x2f
 8608 0078 0B       		.uleb128 0xb
 8609 0079 00       		.byte	0
 8610 007a 00       		.byte	0
 8611 007b 0C       		.uleb128 0xc
 8612 007c 2E       		.uleb128 0x2e
 8613 007d 01       		.byte	0x1
 8614 007e 3F       		.uleb128 0x3f
ARM GAS  C:\Users\jo\AppData\Local\Temp\ccwlN2BW.s 			page 153


 8615 007f 19       		.uleb128 0x19
 8616 0080 03       		.uleb128 0x3
 8617 0081 0E       		.uleb128 0xe
 8618 0082 3A       		.uleb128 0x3a
 8619 0083 0B       		.uleb128 0xb
 8620 0084 3B       		.uleb128 0x3b
 8621 0085 05       		.uleb128 0x5
 8622 0086 27       		.uleb128 0x27
 8623 0087 19       		.uleb128 0x19
 8624 0088 49       		.uleb128 0x49
 8625 0089 13       		.uleb128 0x13
 8626 008a 20       		.uleb128 0x20
 8627 008b 0B       		.uleb128 0xb
 8628 008c 01       		.uleb128 0x1
 8629 008d 13       		.uleb128 0x13
 8630 008e 00       		.byte	0
 8631 008f 00       		.byte	0
 8632 0090 0D       		.uleb128 0xd
 8633 0091 05       		.uleb128 0x5
 8634 0092 00       		.byte	0
 8635 0093 03       		.uleb128 0x3
 8636 0094 08       		.uleb128 0x8
 8637 0095 3A       		.uleb128 0x3a
 8638 0096 0B       		.uleb128 0xb
 8639 0097 3B       		.uleb128 0x3b
 8640 0098 05       		.uleb128 0x5
 8641 0099 49       		.uleb128 0x49
 8642 009a 13       		.uleb128 0x13
 8643 009b 00       		.byte	0
 8644 009c 00       		.byte	0
 8645 009d 0E       		.uleb128 0xe
 8646 009e 05       		.uleb128 0x5
 8647 009f 00       		.byte	0
 8648 00a0 03       		.uleb128 0x3
 8649 00a1 0E       		.uleb128 0xe
 8650 00a2 3A       		.uleb128 0x3a
 8651 00a3 0B       		.uleb128 0xb
 8652 00a4 3B       		.uleb128 0x3b
 8653 00a5 05       		.uleb128 0x5
 8654 00a6 49       		.uleb128 0x49
 8655 00a7 13       		.uleb128 0x13
 8656 00a8 00       		.byte	0
 8657 00a9 00       		.byte	0
 8658 00aa 0F       		.uleb128 0xf
 8659 00ab 34       		.uleb128 0x34
 8660 00ac 00       		.byte	0
 8661 00ad 03       		.uleb128 0x3
 8662 00ae 08       		.uleb128 0x8
 8663 00af 3A       		.uleb128 0x3a
 8664 00b0 0B       		.uleb128 0xb
 8665 00b1 3B       		.uleb128 0x3b
 8666 00b2 05       		.uleb128 0x5
 8667 00b3 49       		.uleb128 0x49
 8668 00b4 13       		.uleb128 0x13
 8669 00b5 00       		.byte	0
 8670 00b6 00       		.byte	0
 8671 00b7 10       		.uleb128 0x10
ARM GAS  C:\Users\jo\AppData\Local\Temp\ccwlN2BW.s 			page 154


 8672 00b8 34       		.uleb128 0x34
 8673 00b9 00       		.byte	0
 8674 00ba 03       		.uleb128 0x3
 8675 00bb 0E       		.uleb128 0xe
 8676 00bc 3A       		.uleb128 0x3a
 8677 00bd 0B       		.uleb128 0xb
 8678 00be 3B       		.uleb128 0x3b
 8679 00bf 05       		.uleb128 0x5
 8680 00c0 49       		.uleb128 0x49
 8681 00c1 13       		.uleb128 0x13
 8682 00c2 00       		.byte	0
 8683 00c3 00       		.byte	0
 8684 00c4 11       		.uleb128 0x11
 8685 00c5 2E       		.uleb128 0x2e
 8686 00c6 01       		.byte	0x1
 8687 00c7 3F       		.uleb128 0x3f
 8688 00c8 19       		.uleb128 0x19
 8689 00c9 03       		.uleb128 0x3
 8690 00ca 0E       		.uleb128 0xe
 8691 00cb 3A       		.uleb128 0x3a
 8692 00cc 0B       		.uleb128 0xb
 8693 00cd 3B       		.uleb128 0x3b
 8694 00ce 05       		.uleb128 0x5
 8695 00cf 27       		.uleb128 0x27
 8696 00d0 19       		.uleb128 0x19
 8697 00d1 49       		.uleb128 0x49
 8698 00d2 13       		.uleb128 0x13
 8699 00d3 11       		.uleb128 0x11
 8700 00d4 01       		.uleb128 0x1
 8701 00d5 12       		.uleb128 0x12
 8702 00d6 06       		.uleb128 0x6
 8703 00d7 40       		.uleb128 0x40
 8704 00d8 18       		.uleb128 0x18
 8705 00d9 9742     		.uleb128 0x2117
 8706 00db 19       		.uleb128 0x19
 8707 00dc 01       		.uleb128 0x1
 8708 00dd 13       		.uleb128 0x13
 8709 00de 00       		.byte	0
 8710 00df 00       		.byte	0
 8711 00e0 12       		.uleb128 0x12
 8712 00e1 05       		.uleb128 0x5
 8713 00e2 00       		.byte	0
 8714 00e3 03       		.uleb128 0x3
 8715 00e4 08       		.uleb128 0x8
 8716 00e5 3A       		.uleb128 0x3a
 8717 00e6 0B       		.uleb128 0xb
 8718 00e7 3B       		.uleb128 0x3b
 8719 00e8 05       		.uleb128 0x5
 8720 00e9 49       		.uleb128 0x49
 8721 00ea 13       		.uleb128 0x13
 8722 00eb 02       		.uleb128 0x2
 8723 00ec 17       		.uleb128 0x17
 8724 00ed 00       		.byte	0
 8725 00ee 00       		.byte	0
 8726 00ef 13       		.uleb128 0x13
 8727 00f0 05       		.uleb128 0x5
 8728 00f1 00       		.byte	0
ARM GAS  C:\Users\jo\AppData\Local\Temp\ccwlN2BW.s 			page 155


 8729 00f2 03       		.uleb128 0x3
 8730 00f3 0E       		.uleb128 0xe
 8731 00f4 3A       		.uleb128 0x3a
 8732 00f5 0B       		.uleb128 0xb
 8733 00f6 3B       		.uleb128 0x3b
 8734 00f7 05       		.uleb128 0x5
 8735 00f8 49       		.uleb128 0x49
 8736 00f9 13       		.uleb128 0x13
 8737 00fa 02       		.uleb128 0x2
 8738 00fb 17       		.uleb128 0x17
 8739 00fc 00       		.byte	0
 8740 00fd 00       		.byte	0
 8741 00fe 14       		.uleb128 0x14
 8742 00ff 34       		.uleb128 0x34
 8743 0100 00       		.byte	0
 8744 0101 03       		.uleb128 0x3
 8745 0102 08       		.uleb128 0x8
 8746 0103 3A       		.uleb128 0x3a
 8747 0104 0B       		.uleb128 0xb
 8748 0105 3B       		.uleb128 0x3b
 8749 0106 05       		.uleb128 0x5
 8750 0107 49       		.uleb128 0x49
 8751 0108 13       		.uleb128 0x13
 8752 0109 02       		.uleb128 0x2
 8753 010a 17       		.uleb128 0x17
 8754 010b 00       		.byte	0
 8755 010c 00       		.byte	0
 8756 010d 15       		.uleb128 0x15
 8757 010e 34       		.uleb128 0x34
 8758 010f 00       		.byte	0
 8759 0110 03       		.uleb128 0x3
 8760 0111 08       		.uleb128 0x8
 8761 0112 3A       		.uleb128 0x3a
 8762 0113 0B       		.uleb128 0xb
 8763 0114 3B       		.uleb128 0x3b
 8764 0115 05       		.uleb128 0x5
 8765 0116 49       		.uleb128 0x49
 8766 0117 13       		.uleb128 0x13
 8767 0118 02       		.uleb128 0x2
 8768 0119 18       		.uleb128 0x18
 8769 011a 00       		.byte	0
 8770 011b 00       		.byte	0
 8771 011c 16       		.uleb128 0x16
 8772 011d 898201   		.uleb128 0x4109
 8773 0120 01       		.byte	0x1
 8774 0121 11       		.uleb128 0x11
 8775 0122 01       		.uleb128 0x1
 8776 0123 31       		.uleb128 0x31
 8777 0124 13       		.uleb128 0x13
 8778 0125 01       		.uleb128 0x1
 8779 0126 13       		.uleb128 0x13
 8780 0127 00       		.byte	0
 8781 0128 00       		.byte	0
 8782 0129 17       		.uleb128 0x17
 8783 012a 8A8201   		.uleb128 0x410a
 8784 012d 00       		.byte	0
 8785 012e 02       		.uleb128 0x2
ARM GAS  C:\Users\jo\AppData\Local\Temp\ccwlN2BW.s 			page 156


 8786 012f 18       		.uleb128 0x18
 8787 0130 9142     		.uleb128 0x2111
 8788 0132 18       		.uleb128 0x18
 8789 0133 00       		.byte	0
 8790 0134 00       		.byte	0
 8791 0135 18       		.uleb128 0x18
 8792 0136 898201   		.uleb128 0x4109
 8793 0139 01       		.byte	0x1
 8794 013a 11       		.uleb128 0x11
 8795 013b 01       		.uleb128 0x1
 8796 013c 31       		.uleb128 0x31
 8797 013d 13       		.uleb128 0x13
 8798 013e 00       		.byte	0
 8799 013f 00       		.byte	0
 8800 0140 19       		.uleb128 0x19
 8801 0141 2E       		.uleb128 0x2e
 8802 0142 01       		.byte	0x1
 8803 0143 31       		.uleb128 0x31
 8804 0144 13       		.uleb128 0x13
 8805 0145 11       		.uleb128 0x11
 8806 0146 01       		.uleb128 0x1
 8807 0147 12       		.uleb128 0x12
 8808 0148 06       		.uleb128 0x6
 8809 0149 40       		.uleb128 0x40
 8810 014a 18       		.uleb128 0x18
 8811 014b 9742     		.uleb128 0x2117
 8812 014d 19       		.uleb128 0x19
 8813 014e 01       		.uleb128 0x1
 8814 014f 13       		.uleb128 0x13
 8815 0150 00       		.byte	0
 8816 0151 00       		.byte	0
 8817 0152 1A       		.uleb128 0x1a
 8818 0153 05       		.uleb128 0x5
 8819 0154 00       		.byte	0
 8820 0155 31       		.uleb128 0x31
 8821 0156 13       		.uleb128 0x13
 8822 0157 02       		.uleb128 0x2
 8823 0158 17       		.uleb128 0x17
 8824 0159 00       		.byte	0
 8825 015a 00       		.byte	0
 8826 015b 1B       		.uleb128 0x1b
 8827 015c 34       		.uleb128 0x34
 8828 015d 00       		.byte	0
 8829 015e 31       		.uleb128 0x31
 8830 015f 13       		.uleb128 0x13
 8831 0160 02       		.uleb128 0x2
 8832 0161 17       		.uleb128 0x17
 8833 0162 00       		.byte	0
 8834 0163 00       		.byte	0
 8835 0164 1C       		.uleb128 0x1c
 8836 0165 34       		.uleb128 0x34
 8837 0166 00       		.byte	0
 8838 0167 31       		.uleb128 0x31
 8839 0168 13       		.uleb128 0x13
 8840 0169 00       		.byte	0
 8841 016a 00       		.byte	0
 8842 016b 1D       		.uleb128 0x1d
ARM GAS  C:\Users\jo\AppData\Local\Temp\ccwlN2BW.s 			page 157


 8843 016c 0B       		.uleb128 0xb
 8844 016d 01       		.byte	0x1
 8845 016e 11       		.uleb128 0x11
 8846 016f 01       		.uleb128 0x1
 8847 0170 12       		.uleb128 0x12
 8848 0171 06       		.uleb128 0x6
 8849 0172 01       		.uleb128 0x1
 8850 0173 13       		.uleb128 0x13
 8851 0174 00       		.byte	0
 8852 0175 00       		.byte	0
 8853 0176 1E       		.uleb128 0x1e
 8854 0177 05       		.uleb128 0x5
 8855 0178 00       		.byte	0
 8856 0179 31       		.uleb128 0x31
 8857 017a 13       		.uleb128 0x13
 8858 017b 00       		.byte	0
 8859 017c 00       		.byte	0
 8860 017d 1F       		.uleb128 0x1f
 8861 017e 0B       		.uleb128 0xb
 8862 017f 01       		.byte	0x1
 8863 0180 11       		.uleb128 0x11
 8864 0181 01       		.uleb128 0x1
 8865 0182 12       		.uleb128 0x12
 8866 0183 06       		.uleb128 0x6
 8867 0184 00       		.byte	0
 8868 0185 00       		.byte	0
 8869 0186 20       		.uleb128 0x20
 8870 0187 34       		.uleb128 0x34
 8871 0188 00       		.byte	0
 8872 0189 31       		.uleb128 0x31
 8873 018a 13       		.uleb128 0x13
 8874 018b 02       		.uleb128 0x2
 8875 018c 18       		.uleb128 0x18
 8876 018d 00       		.byte	0
 8877 018e 00       		.byte	0
 8878 018f 21       		.uleb128 0x21
 8879 0190 34       		.uleb128 0x34
 8880 0191 00       		.byte	0
 8881 0192 03       		.uleb128 0x3
 8882 0193 0E       		.uleb128 0xe
 8883 0194 3A       		.uleb128 0x3a
 8884 0195 0B       		.uleb128 0xb
 8885 0196 3B       		.uleb128 0x3b
 8886 0197 05       		.uleb128 0x5
 8887 0198 49       		.uleb128 0x49
 8888 0199 13       		.uleb128 0x13
 8889 019a 02       		.uleb128 0x2
 8890 019b 18       		.uleb128 0x18
 8891 019c 00       		.byte	0
 8892 019d 00       		.byte	0
 8893 019e 22       		.uleb128 0x22
 8894 019f 0B       		.uleb128 0xb
 8895 01a0 01       		.byte	0x1
 8896 01a1 55       		.uleb128 0x55
 8897 01a2 17       		.uleb128 0x17
 8898 01a3 01       		.uleb128 0x1
 8899 01a4 13       		.uleb128 0x13
ARM GAS  C:\Users\jo\AppData\Local\Temp\ccwlN2BW.s 			page 158


 8900 01a5 00       		.byte	0
 8901 01a6 00       		.byte	0
 8902 01a7 23       		.uleb128 0x23
 8903 01a8 898201   		.uleb128 0x4109
 8904 01ab 00       		.byte	0
 8905 01ac 11       		.uleb128 0x11
 8906 01ad 01       		.uleb128 0x1
 8907 01ae 31       		.uleb128 0x31
 8908 01af 13       		.uleb128 0x13
 8909 01b0 00       		.byte	0
 8910 01b1 00       		.byte	0
 8911 01b2 24       		.uleb128 0x24
 8912 01b3 34       		.uleb128 0x34
 8913 01b4 00       		.byte	0
 8914 01b5 03       		.uleb128 0x3
 8915 01b6 08       		.uleb128 0x8
 8916 01b7 3A       		.uleb128 0x3a
 8917 01b8 0B       		.uleb128 0xb
 8918 01b9 3B       		.uleb128 0x3b
 8919 01ba 0B       		.uleb128 0xb
 8920 01bb 49       		.uleb128 0x49
 8921 01bc 13       		.uleb128 0x13
 8922 01bd 02       		.uleb128 0x2
 8923 01be 18       		.uleb128 0x18
 8924 01bf 00       		.byte	0
 8925 01c0 00       		.byte	0
 8926 01c1 25       		.uleb128 0x25
 8927 01c2 2E       		.uleb128 0x2e
 8928 01c3 01       		.byte	0x1
 8929 01c4 3F       		.uleb128 0x3f
 8930 01c5 19       		.uleb128 0x19
 8931 01c6 03       		.uleb128 0x3
 8932 01c7 0E       		.uleb128 0xe
 8933 01c8 27       		.uleb128 0x27
 8934 01c9 19       		.uleb128 0x19
 8935 01ca 49       		.uleb128 0x49
 8936 01cb 13       		.uleb128 0x13
 8937 01cc 34       		.uleb128 0x34
 8938 01cd 19       		.uleb128 0x19
 8939 01ce 3C       		.uleb128 0x3c
 8940 01cf 19       		.uleb128 0x19
 8941 01d0 01       		.uleb128 0x1
 8942 01d1 13       		.uleb128 0x13
 8943 01d2 00       		.byte	0
 8944 01d3 00       		.byte	0
 8945 01d4 26       		.uleb128 0x26
 8946 01d5 05       		.uleb128 0x5
 8947 01d6 00       		.byte	0
 8948 01d7 49       		.uleb128 0x49
 8949 01d8 13       		.uleb128 0x13
 8950 01d9 00       		.byte	0
 8951 01da 00       		.byte	0
 8952 01db 27       		.uleb128 0x27
 8953 01dc 2E       		.uleb128 0x2e
 8954 01dd 01       		.byte	0x1
 8955 01de 3F       		.uleb128 0x3f
 8956 01df 19       		.uleb128 0x19
ARM GAS  C:\Users\jo\AppData\Local\Temp\ccwlN2BW.s 			page 159


 8957 01e0 03       		.uleb128 0x3
 8958 01e1 0E       		.uleb128 0xe
 8959 01e2 3A       		.uleb128 0x3a
 8960 01e3 0B       		.uleb128 0xb
 8961 01e4 3B       		.uleb128 0x3b
 8962 01e5 0B       		.uleb128 0xb
 8963 01e6 27       		.uleb128 0x27
 8964 01e7 19       		.uleb128 0x19
 8965 01e8 49       		.uleb128 0x49
 8966 01e9 13       		.uleb128 0x13
 8967 01ea 3C       		.uleb128 0x3c
 8968 01eb 19       		.uleb128 0x19
 8969 01ec 01       		.uleb128 0x1
 8970 01ed 13       		.uleb128 0x13
 8971 01ee 00       		.byte	0
 8972 01ef 00       		.byte	0
 8973 01f0 28       		.uleb128 0x28
 8974 01f1 18       		.uleb128 0x18
 8975 01f2 00       		.byte	0
 8976 01f3 00       		.byte	0
 8977 01f4 00       		.byte	0
 8978 01f5 29       		.uleb128 0x29
 8979 01f6 26       		.uleb128 0x26
 8980 01f7 00       		.byte	0
 8981 01f8 00       		.byte	0
 8982 01f9 00       		.byte	0
 8983 01fa 2A       		.uleb128 0x2a
 8984 01fb 2E       		.uleb128 0x2e
 8985 01fc 01       		.byte	0x1
 8986 01fd 3F       		.uleb128 0x3f
 8987 01fe 19       		.uleb128 0x19
 8988 01ff 03       		.uleb128 0x3
 8989 0200 0E       		.uleb128 0xe
 8990 0201 3A       		.uleb128 0x3a
 8991 0202 0B       		.uleb128 0xb
 8992 0203 3B       		.uleb128 0x3b
 8993 0204 0B       		.uleb128 0xb
 8994 0205 6E       		.uleb128 0x6e
 8995 0206 0E       		.uleb128 0xe
 8996 0207 27       		.uleb128 0x27
 8997 0208 19       		.uleb128 0x19
 8998 0209 49       		.uleb128 0x49
 8999 020a 13       		.uleb128 0x13
 9000 020b 3C       		.uleb128 0x3c
 9001 020c 19       		.uleb128 0x19
 9002 020d 01       		.uleb128 0x1
 9003 020e 13       		.uleb128 0x13
 9004 020f 00       		.byte	0
 9005 0210 00       		.byte	0
 9006 0211 2B       		.uleb128 0x2b
 9007 0212 2E       		.uleb128 0x2e
 9008 0213 01       		.byte	0x1
 9009 0214 3F       		.uleb128 0x3f
 9010 0215 19       		.uleb128 0x19
 9011 0216 03       		.uleb128 0x3
 9012 0217 0E       		.uleb128 0xe
 9013 0218 3A       		.uleb128 0x3a
ARM GAS  C:\Users\jo\AppData\Local\Temp\ccwlN2BW.s 			page 160


 9014 0219 0B       		.uleb128 0xb
 9015 021a 3B       		.uleb128 0x3b
 9016 021b 0B       		.uleb128 0xb
 9017 021c 6E       		.uleb128 0x6e
 9018 021d 0E       		.uleb128 0xe
 9019 021e 27       		.uleb128 0x27
 9020 021f 19       		.uleb128 0x19
 9021 0220 49       		.uleb128 0x49
 9022 0221 13       		.uleb128 0x13
 9023 0222 3C       		.uleb128 0x3c
 9024 0223 19       		.uleb128 0x19
 9025 0224 00       		.byte	0
 9026 0225 00       		.byte	0
 9027 0226 00       		.byte	0
 9028              		.section	.debug_loc,"",%progbits
 9029              	.Ldebug_loc0:
 9030              	.LLST0:
 9031 0000 00000000 		.4byte	.LVL0
 9032 0004 18000000 		.4byte	.LVL1
 9033 0008 0100     		.2byte	0x1
 9034 000a 50       		.byte	0x50
 9035 000b 18000000 		.4byte	.LVL1
 9036 000f 1E000000 		.4byte	.LVL2
 9037 0013 0400     		.2byte	0x4
 9038 0015 F3       		.byte	0xf3
 9039 0016 01       		.uleb128 0x1
 9040 0017 50       		.byte	0x50
 9041 0018 9F       		.byte	0x9f
 9042 0019 1E000000 		.4byte	.LVL2
 9043 001d 6E000000 		.4byte	.LVL8
 9044 0021 0100     		.2byte	0x1
 9045 0023 50       		.byte	0x50
 9046 0024 6E000000 		.4byte	.LVL8
 9047 0028 76000000 		.4byte	.LVL9
 9048 002c 0400     		.2byte	0x4
 9049 002e F3       		.byte	0xf3
 9050 002f 01       		.uleb128 0x1
 9051 0030 50       		.byte	0x50
 9052 0031 9F       		.byte	0x9f
 9053 0032 76000000 		.4byte	.LVL9
 9054 0036 90000000 		.4byte	.LVL11
 9055 003a 0100     		.2byte	0x1
 9056 003c 50       		.byte	0x50
 9057 003d 90000000 		.4byte	.LVL11
 9058 0041 F6000000 		.4byte	.LVL13
 9059 0045 0400     		.2byte	0x4
 9060 0047 70       		.byte	0x70
 9061 0048 B87E     		.sleb128 -200
 9062 004a 9F       		.byte	0x9f
 9063 004b F6000000 		.4byte	.LVL13
 9064 004f 00010000 		.4byte	.LVL14
 9065 0053 0100     		.2byte	0x1
 9066 0055 50       		.byte	0x50
 9067 0056 00010000 		.4byte	.LVL14
 9068 005a 50010000 		.4byte	.LVL16
 9069 005e 0400     		.2byte	0x4
 9070 0060 70       		.byte	0x70
ARM GAS  C:\Users\jo\AppData\Local\Temp\ccwlN2BW.s 			page 161


 9071 0061 D87E     		.sleb128 -168
 9072 0063 9F       		.byte	0x9f
 9073 0064 50010000 		.4byte	.LVL16
 9074 0068 5C010000 		.4byte	.LVL17
 9075 006c 0100     		.2byte	0x1
 9076 006e 50       		.byte	0x50
 9077 006f 5C010000 		.4byte	.LVL17
 9078 0073 04020000 		.4byte	.LFE0
 9079 0077 0400     		.2byte	0x4
 9080 0079 79       		.byte	0x79
 9081 007a 987E     		.sleb128 -232
 9082 007c 9F       		.byte	0x9f
 9083 007d 00000000 		.4byte	0
 9084 0081 00000000 		.4byte	0
 9085              	.LLST1:
 9086 0085 00000000 		.4byte	.LVL0
 9087 0089 6E000000 		.4byte	.LVL8
 9088 008d 0100     		.2byte	0x1
 9089 008f 51       		.byte	0x51
 9090 0090 6E000000 		.4byte	.LVL8
 9091 0094 76000000 		.4byte	.LVL9
 9092 0098 0400     		.2byte	0x4
 9093 009a F3       		.byte	0xf3
 9094 009b 01       		.uleb128 0x1
 9095 009c 51       		.byte	0x51
 9096 009d 9F       		.byte	0x9f
 9097 009e 76000000 		.4byte	.LVL9
 9098 00a2 90000000 		.4byte	.LVL11
 9099 00a6 0100     		.2byte	0x1
 9100 00a8 51       		.byte	0x51
 9101 00a9 90000000 		.4byte	.LVL11
 9102 00ad F6000000 		.4byte	.LVL13
 9103 00b1 0400     		.2byte	0x4
 9104 00b3 F3       		.byte	0xf3
 9105 00b4 01       		.uleb128 0x1
 9106 00b5 51       		.byte	0x51
 9107 00b6 9F       		.byte	0x9f
 9108 00b7 F6000000 		.4byte	.LVL13
 9109 00bb 00010000 		.4byte	.LVL14
 9110 00bf 0100     		.2byte	0x1
 9111 00c1 51       		.byte	0x51
 9112 00c2 00010000 		.4byte	.LVL14
 9113 00c6 50010000 		.4byte	.LVL16
 9114 00ca 0400     		.2byte	0x4
 9115 00cc F3       		.byte	0xf3
 9116 00cd 01       		.uleb128 0x1
 9117 00ce 51       		.byte	0x51
 9118 00cf 9F       		.byte	0x9f
 9119 00d0 50010000 		.4byte	.LVL16
 9120 00d4 5C010000 		.4byte	.LVL17
 9121 00d8 0100     		.2byte	0x1
 9122 00da 51       		.byte	0x51
 9123 00db 5C010000 		.4byte	.LVL17
 9124 00df 04020000 		.4byte	.LFE0
 9125 00e3 0400     		.2byte	0x4
 9126 00e5 F3       		.byte	0xf3
 9127 00e6 01       		.uleb128 0x1
ARM GAS  C:\Users\jo\AppData\Local\Temp\ccwlN2BW.s 			page 162


 9128 00e7 51       		.byte	0x51
 9129 00e8 9F       		.byte	0x9f
 9130 00e9 00000000 		.4byte	0
 9131 00ed 00000000 		.4byte	0
 9132              	.LLST2:
 9133 00f1 00000000 		.4byte	.LVL0
 9134 00f5 30000000 		.4byte	.LVL5
 9135 00f9 0100     		.2byte	0x1
 9136 00fb 52       		.byte	0x52
 9137 00fc 30000000 		.4byte	.LVL5
 9138 0100 76000000 		.4byte	.LVL9
 9139 0104 0400     		.2byte	0x4
 9140 0106 F3       		.byte	0xf3
 9141 0107 01       		.uleb128 0x1
 9142 0108 52       		.byte	0x52
 9143 0109 9F       		.byte	0x9f
 9144 010a 76000000 		.4byte	.LVL9
 9145 010e 86000000 		.4byte	.LVL10
 9146 0112 0100     		.2byte	0x1
 9147 0114 52       		.byte	0x52
 9148 0115 86000000 		.4byte	.LVL10
 9149 0119 04020000 		.4byte	.LFE0
 9150 011d 0400     		.2byte	0x4
 9151 011f F3       		.byte	0xf3
 9152 0120 01       		.uleb128 0x1
 9153 0121 52       		.byte	0x52
 9154 0122 9F       		.byte	0x9f
 9155 0123 00000000 		.4byte	0
 9156 0127 00000000 		.4byte	0
 9157              	.LLST3:
 9158 012b 2E000000 		.4byte	.LVL4
 9159 012f 32000000 		.4byte	.LVL6
 9160 0133 0200     		.2byte	0x2
 9161 0135 30       		.byte	0x30
 9162 0136 9F       		.byte	0x9f
 9163 0137 32000000 		.4byte	.LVL6
 9164 013b 6E000000 		.4byte	.LVL8
 9165 013f 0100     		.2byte	0x1
 9166 0141 57       		.byte	0x57
 9167 0142 86000000 		.4byte	.LVL10
 9168 0146 90000000 		.4byte	.LVL11
 9169 014a 0100     		.2byte	0x1
 9170 014c 57       		.byte	0x57
 9171 014d F6000000 		.4byte	.LVL13
 9172 0151 00010000 		.4byte	.LVL14
 9173 0155 0100     		.2byte	0x1
 9174 0157 57       		.byte	0x57
 9175 0158 50010000 		.4byte	.LVL16
 9176 015c 5C010000 		.4byte	.LVL17
 9177 0160 0100     		.2byte	0x1
 9178 0162 57       		.byte	0x57
 9179 0163 00000000 		.4byte	0
 9180 0167 00000000 		.4byte	0
 9181              	.LLST4:
 9182 016b 2A000000 		.4byte	.LVL3
 9183 016f 76000000 		.4byte	.LVL9
 9184 0173 0100     		.2byte	0x1
ARM GAS  C:\Users\jo\AppData\Local\Temp\ccwlN2BW.s 			page 163


 9185 0175 53       		.byte	0x53
 9186 0176 86000000 		.4byte	.LVL10
 9187 017a 04020000 		.4byte	.LFE0
 9188 017e 0100     		.2byte	0x1
 9189 0180 53       		.byte	0x53
 9190 0181 00000000 		.4byte	0
 9191 0185 00000000 		.4byte	0
 9192              	.LLST5:
 9193 0189 00000000 		.4byte	.LVL19
 9194 018d 1C000000 		.4byte	.LVL20
 9195 0191 0100     		.2byte	0x1
 9196 0193 50       		.byte	0x50
 9197 0194 1C000000 		.4byte	.LVL20
 9198 0198 22000000 		.4byte	.LVL21
 9199 019c 0400     		.2byte	0x4
 9200 019e F3       		.byte	0xf3
 9201 019f 01       		.uleb128 0x1
 9202 01a0 50       		.byte	0x50
 9203 01a1 9F       		.byte	0x9f
 9204 01a2 22000000 		.4byte	.LVL21
 9205 01a6 30000000 		.4byte	.LVL24
 9206 01aa 0100     		.2byte	0x1
 9207 01ac 50       		.byte	0x50
 9208 01ad 30000000 		.4byte	.LVL24
 9209 01b1 8A000000 		.4byte	.LVL30
 9210 01b5 0100     		.2byte	0x1
 9211 01b7 55       		.byte	0x55
 9212 01b8 8A000000 		.4byte	.LVL30
 9213 01bc E4000000 		.4byte	.LVL38
 9214 01c0 0700     		.2byte	0x7
 9215 01c2 91       		.byte	0x91
 9216 01c3 B47D     		.sleb128 -332
 9217 01c5 06       		.byte	0x6
 9218 01c6 48       		.byte	0x48
 9219 01c7 1C       		.byte	0x1c
 9220 01c8 9F       		.byte	0x9f
 9221 01c9 E4000000 		.4byte	.LVL38
 9222 01cd 18010000 		.4byte	.LVL44
 9223 01d1 0400     		.2byte	0x4
 9224 01d3 F3       		.byte	0xf3
 9225 01d4 01       		.uleb128 0x1
 9226 01d5 50       		.byte	0x50
 9227 01d6 9F       		.byte	0x9f
 9228 01d7 18010000 		.4byte	.LVL44
 9229 01db 38010000 		.4byte	.LFE1
 9230 01df 0100     		.2byte	0x1
 9231 01e1 50       		.byte	0x50
 9232 01e2 00000000 		.4byte	0
 9233 01e6 00000000 		.4byte	0
 9234              	.LLST6:
 9235 01ea 00000000 		.4byte	.LVL19
 9236 01ee 1C000000 		.4byte	.LVL20
 9237 01f2 0100     		.2byte	0x1
 9238 01f4 51       		.byte	0x51
 9239 01f5 1C000000 		.4byte	.LVL20
 9240 01f9 22000000 		.4byte	.LVL21
 9241 01fd 0400     		.2byte	0x4
ARM GAS  C:\Users\jo\AppData\Local\Temp\ccwlN2BW.s 			page 164


 9242 01ff F3       		.byte	0xf3
 9243 0200 01       		.uleb128 0x1
 9244 0201 51       		.byte	0x51
 9245 0202 9F       		.byte	0x9f
 9246 0203 22000000 		.4byte	.LVL21
 9247 0207 33000000 		.4byte	.LVL25-1
 9248 020b 0100     		.2byte	0x1
 9249 020d 51       		.byte	0x51
 9250 020e 33000000 		.4byte	.LVL25-1
 9251 0212 18010000 		.4byte	.LVL44
 9252 0216 0400     		.2byte	0x4
 9253 0218 F3       		.byte	0xf3
 9254 0219 01       		.uleb128 0x1
 9255 021a 51       		.byte	0x51
 9256 021b 9F       		.byte	0x9f
 9257 021c 18010000 		.4byte	.LVL44
 9258 0220 38010000 		.4byte	.LFE1
 9259 0224 0100     		.2byte	0x1
 9260 0226 51       		.byte	0x51
 9261 0227 00000000 		.4byte	0
 9262 022b 00000000 		.4byte	0
 9263              	.LLST7:
 9264 022f 00000000 		.4byte	.LVL19
 9265 0233 1C000000 		.4byte	.LVL20
 9266 0237 0100     		.2byte	0x1
 9267 0239 52       		.byte	0x52
 9268 023a 1C000000 		.4byte	.LVL20
 9269 023e 22000000 		.4byte	.LVL21
 9270 0242 0400     		.2byte	0x4
 9271 0244 F3       		.byte	0xf3
 9272 0245 01       		.uleb128 0x1
 9273 0246 52       		.byte	0x52
 9274 0247 9F       		.byte	0x9f
 9275 0248 22000000 		.4byte	.LVL21
 9276 024c 33000000 		.4byte	.LVL25-1
 9277 0250 0100     		.2byte	0x1
 9278 0252 52       		.byte	0x52
 9279 0253 33000000 		.4byte	.LVL25-1
 9280 0257 18010000 		.4byte	.LVL44
 9281 025b 0400     		.2byte	0x4
 9282 025d F3       		.byte	0xf3
 9283 025e 01       		.uleb128 0x1
 9284 025f 52       		.byte	0x52
 9285 0260 9F       		.byte	0x9f
 9286 0261 18010000 		.4byte	.LVL44
 9287 0265 38010000 		.4byte	.LFE1
 9288 0269 0100     		.2byte	0x1
 9289 026b 52       		.byte	0x52
 9290 026c 00000000 		.4byte	0
 9291 0270 00000000 		.4byte	0
 9292              	.LLST8:
 9293 0274 70000000 		.4byte	.LVL29
 9294 0278 C6000000 		.4byte	.LVL34
 9295 027c 0100     		.2byte	0x1
 9296 027e 5B       		.byte	0x5b
 9297 027f C6000000 		.4byte	.LVL34
 9298 0283 CA000000 		.4byte	.LVL35
ARM GAS  C:\Users\jo\AppData\Local\Temp\ccwlN2BW.s 			page 165


 9299 0287 0300     		.2byte	0x3
 9300 0289 7B       		.byte	0x7b
 9301 028a 7F       		.sleb128 -1
 9302 028b 9F       		.byte	0x9f
 9303 028c CA000000 		.4byte	.LVL35
 9304 0290 18010000 		.4byte	.LVL44
 9305 0294 0100     		.2byte	0x1
 9306 0296 5B       		.byte	0x5b
 9307 0297 00000000 		.4byte	0
 9308 029b 00000000 		.4byte	0
 9309              	.LLST9:
 9310 029f 8A000000 		.4byte	.LVL30
 9311 02a3 90000000 		.4byte	.LVL31
 9312 02a7 0200     		.2byte	0x2
 9313 02a9 30       		.byte	0x30
 9314 02aa 9F       		.byte	0x9f
 9315 02ab 00000000 		.4byte	0
 9316 02af 00000000 		.4byte	0
 9317              	.LLST10:
 9318 02b3 26000000 		.4byte	.LVL22
 9319 02b7 2A000000 		.4byte	.LVL23
 9320 02bb 0300     		.2byte	0x3
 9321 02bd 70       		.byte	0x70
 9322 02be 08       		.sleb128 8
 9323 02bf 9F       		.byte	0x9f
 9324 02c0 2A000000 		.4byte	.LVL23
 9325 02c4 33000000 		.4byte	.LVL25-1
 9326 02c8 0100     		.2byte	0x1
 9327 02ca 53       		.byte	0x53
 9328 02cb 33000000 		.4byte	.LVL25-1
 9329 02cf 46000000 		.4byte	.LVL26
 9330 02d3 0300     		.2byte	0x3
 9331 02d5 75       		.byte	0x75
 9332 02d6 08       		.sleb128 8
 9333 02d7 9F       		.byte	0x9f
 9334 02d8 46000000 		.4byte	.LVL26
 9335 02dc 4A000000 		.4byte	.LVL27
 9336 02e0 0300     		.2byte	0x3
 9337 02e2 75       		.byte	0x75
 9338 02e3 0C       		.sleb128 12
 9339 02e4 9F       		.byte	0x9f
 9340 02e5 4A000000 		.4byte	.LVL27
 9341 02e9 50000000 		.4byte	.LVL28
 9342 02ed 0300     		.2byte	0x3
 9343 02ef 75       		.byte	0x75
 9344 02f0 10       		.sleb128 16
 9345 02f1 9F       		.byte	0x9f
 9346 02f2 50000000 		.4byte	.LVL28
 9347 02f6 70000000 		.4byte	.LVL29
 9348 02fa 0300     		.2byte	0x3
 9349 02fc 75       		.byte	0x75
 9350 02fd 14       		.sleb128 20
 9351 02fe 9F       		.byte	0x9f
 9352 02ff 70000000 		.4byte	.LVL29
 9353 0303 8A000000 		.4byte	.LVL30
 9354 0307 0100     		.2byte	0x1
 9355 0309 53       		.byte	0x53
ARM GAS  C:\Users\jo\AppData\Local\Temp\ccwlN2BW.s 			page 166


 9356 030a 8A000000 		.4byte	.LVL30
 9357 030e 90000000 		.4byte	.LVL31
 9358 0312 0300     		.2byte	0x3
 9359 0314 75       		.byte	0x75
 9360 0315 04       		.sleb128 4
 9361 0316 9F       		.byte	0x9f
 9362 0317 90000000 		.4byte	.LVL31
 9363 031b C2000000 		.4byte	.LVL33
 9364 031f 0B00     		.2byte	0xb
 9365 0321 70       		.byte	0x70
 9366 0322 00       		.sleb128 0
 9367 0323 75       		.byte	0x75
 9368 0324 00       		.sleb128 0
 9369 0325 22       		.byte	0x22
 9370 0326 7A       		.byte	0x7a
 9371 0327 00       		.sleb128 0
 9372 0328 1C       		.byte	0x1c
 9373 0329 23       		.byte	0x23
 9374 032a 08       		.uleb128 0x8
 9375 032b 9F       		.byte	0x9f
 9376 032c C2000000 		.4byte	.LVL33
 9377 0330 C6000000 		.4byte	.LVL34
 9378 0334 0B00     		.2byte	0xb
 9379 0336 70       		.byte	0x70
 9380 0337 00       		.sleb128 0
 9381 0338 75       		.byte	0x75
 9382 0339 00       		.sleb128 0
 9383 033a 22       		.byte	0x22
 9384 033b 7A       		.byte	0x7a
 9385 033c 00       		.sleb128 0
 9386 033d 1C       		.byte	0x1c
 9387 033e 23       		.byte	0x23
 9388 033f 04       		.uleb128 0x4
 9389 0340 9F       		.byte	0x9f
 9390 0341 C6000000 		.4byte	.LVL34
 9391 0345 CE000000 		.4byte	.LVL36
 9392 0349 0300     		.2byte	0x3
 9393 034b 75       		.byte	0x75
 9394 034c 14       		.sleb128 20
 9395 034d 9F       		.byte	0x9f
 9396 034e CE000000 		.4byte	.LVL36
 9397 0352 D2000000 		.4byte	.LVL37
 9398 0356 0300     		.2byte	0x3
 9399 0358 76       		.byte	0x76
 9400 0359 14       		.sleb128 20
 9401 035a 9F       		.byte	0x9f
 9402 035b D2000000 		.4byte	.LVL37
 9403 035f EE000000 		.4byte	.LVL39
 9404 0363 0300     		.2byte	0x3
 9405 0365 75       		.byte	0x75
 9406 0366 14       		.sleb128 20
 9407 0367 9F       		.byte	0x9f
 9408 0368 EE000000 		.4byte	.LVL39
 9409 036c F6000000 		.4byte	.LVL40
 9410 0370 0700     		.2byte	0x7
 9411 0372 91       		.byte	0x91
 9412 0373 B47D     		.sleb128 -332
ARM GAS  C:\Users\jo\AppData\Local\Temp\ccwlN2BW.s 			page 167


 9413 0375 06       		.byte	0x6
 9414 0376 23       		.byte	0x23
 9415 0377 04       		.uleb128 0x4
 9416 0378 9F       		.byte	0x9f
 9417 0379 F6000000 		.4byte	.LVL40
 9418 037d FA000000 		.4byte	.LVL41
 9419 0381 0700     		.2byte	0x7
 9420 0383 91       		.byte	0x91
 9421 0384 B47D     		.sleb128 -332
 9422 0386 06       		.byte	0x6
 9423 0387 23       		.byte	0x23
 9424 0388 08       		.uleb128 0x8
 9425 0389 9F       		.byte	0x9f
 9426 038a FA000000 		.4byte	.LVL41
 9427 038e FE000000 		.4byte	.LVL42
 9428 0392 0700     		.2byte	0x7
 9429 0394 91       		.byte	0x91
 9430 0395 B47D     		.sleb128 -332
 9431 0397 06       		.byte	0x6
 9432 0398 23       		.byte	0x23
 9433 0399 0C       		.uleb128 0xc
 9434 039a 9F       		.byte	0x9f
 9435 039b FE000000 		.4byte	.LVL42
 9436 039f 18010000 		.4byte	.LVL44
 9437 03a3 0700     		.2byte	0x7
 9438 03a5 91       		.byte	0x91
 9439 03a6 B47D     		.sleb128 -332
 9440 03a8 06       		.byte	0x6
 9441 03a9 23       		.byte	0x23
 9442 03aa 10       		.uleb128 0x10
 9443 03ab 9F       		.byte	0x9f
 9444 03ac 00000000 		.4byte	0
 9445 03b0 00000000 		.4byte	0
 9446              	.LLST11:
 9447 03b4 46000000 		.4byte	.LVL26
 9448 03b8 4A000000 		.4byte	.LVL27
 9449 03bc 0300     		.2byte	0x3
 9450 03be 7A       		.byte	0x7a
 9451 03bf 04       		.sleb128 4
 9452 03c0 9F       		.byte	0x9f
 9453 03c1 4A000000 		.4byte	.LVL27
 9454 03c5 50000000 		.4byte	.LVL28
 9455 03c9 0300     		.2byte	0x3
 9456 03cb 7A       		.byte	0x7a
 9457 03cc 08       		.sleb128 8
 9458 03cd 9F       		.byte	0x9f
 9459 03ce 50000000 		.4byte	.LVL28
 9460 03d2 70000000 		.4byte	.LVL29
 9461 03d6 0300     		.2byte	0x3
 9462 03d8 7A       		.byte	0x7a
 9463 03d9 0C       		.sleb128 12
 9464 03da 9F       		.byte	0x9f
 9465 03db 70000000 		.4byte	.LVL29
 9466 03df 8A000000 		.4byte	.LVL30
 9467 03e3 0300     		.2byte	0x3
 9468 03e5 91       		.byte	0x91
 9469 03e6 B87D     		.sleb128 -328
ARM GAS  C:\Users\jo\AppData\Local\Temp\ccwlN2BW.s 			page 168


 9470 03e8 8A000000 		.4byte	.LVL30
 9471 03ec 90000000 		.4byte	.LVL31
 9472 03f0 0300     		.2byte	0x3
 9473 03f2 7A       		.byte	0x7a
 9474 03f3 04       		.sleb128 4
 9475 03f4 9F       		.byte	0x9f
 9476 03f5 90000000 		.4byte	.LVL31
 9477 03f9 94000000 		.4byte	.LVL32
 9478 03fd 0300     		.2byte	0x3
 9479 03ff 70       		.byte	0x70
 9480 0400 04       		.sleb128 4
 9481 0401 9F       		.byte	0x9f
 9482 0402 94000000 		.4byte	.LVL32
 9483 0406 C2000000 		.4byte	.LVL33
 9484 040a 0100     		.2byte	0x1
 9485 040c 50       		.byte	0x50
 9486 040d C2000000 		.4byte	.LVL33
 9487 0411 C6000000 		.4byte	.LVL34
 9488 0415 0300     		.2byte	0x3
 9489 0417 70       		.byte	0x70
 9490 0418 04       		.sleb128 4
 9491 0419 9F       		.byte	0x9f
 9492 041a C6000000 		.4byte	.LVL34
 9493 041e CE000000 		.4byte	.LVL36
 9494 0422 0300     		.2byte	0x3
 9495 0424 7A       		.byte	0x7a
 9496 0425 74       		.sleb128 -12
 9497 0426 9F       		.byte	0x9f
 9498 0427 CE000000 		.4byte	.LVL36
 9499 042b EE000000 		.4byte	.LVL39
 9500 042f 0300     		.2byte	0x3
 9501 0431 7A       		.byte	0x7a
 9502 0432 04       		.sleb128 4
 9503 0433 9F       		.byte	0x9f
 9504 0434 EE000000 		.4byte	.LVL39
 9505 0438 F6000000 		.4byte	.LVL40
 9506 043c 0700     		.2byte	0x7
 9507 043e 91       		.byte	0x91
 9508 043f B87D     		.sleb128 -328
 9509 0441 06       		.byte	0x6
 9510 0442 23       		.byte	0x23
 9511 0443 04       		.uleb128 0x4
 9512 0444 9F       		.byte	0x9f
 9513 0445 F6000000 		.4byte	.LVL40
 9514 0449 FA000000 		.4byte	.LVL41
 9515 044d 0700     		.2byte	0x7
 9516 044f 91       		.byte	0x91
 9517 0450 B87D     		.sleb128 -328
 9518 0452 06       		.byte	0x6
 9519 0453 23       		.byte	0x23
 9520 0454 08       		.uleb128 0x8
 9521 0455 9F       		.byte	0x9f
 9522 0456 FA000000 		.4byte	.LVL41
 9523 045a FE000000 		.4byte	.LVL42
 9524 045e 0700     		.2byte	0x7
 9525 0460 91       		.byte	0x91
 9526 0461 B87D     		.sleb128 -328
ARM GAS  C:\Users\jo\AppData\Local\Temp\ccwlN2BW.s 			page 169


 9527 0463 06       		.byte	0x6
 9528 0464 23       		.byte	0x23
 9529 0465 0C       		.uleb128 0xc
 9530 0466 9F       		.byte	0x9f
 9531 0467 FE000000 		.4byte	.LVL42
 9532 046b 18010000 		.4byte	.LVL44
 9533 046f 0700     		.2byte	0x7
 9534 0471 91       		.byte	0x91
 9535 0472 B87D     		.sleb128 -328
 9536 0474 06       		.byte	0x6
 9537 0475 23       		.byte	0x23
 9538 0476 10       		.uleb128 0x10
 9539 0477 9F       		.byte	0x9f
 9540 0478 00000000 		.4byte	0
 9541 047c 00000000 		.4byte	0
 9542              	.LLST12:
 9543 0480 34000000 		.4byte	.LVL25
 9544 0484 8A000000 		.4byte	.LVL30
 9545 0488 0100     		.2byte	0x1
 9546 048a 50       		.byte	0x50
 9547 048b 00000000 		.4byte	0
 9548 048f 00000000 		.4byte	0
 9549              	.LLST13:
 9550 0493 00000000 		.4byte	.LVL45
 9551 0497 3E000000 		.4byte	.LVL47
 9552 049b 0100     		.2byte	0x1
 9553 049d 50       		.byte	0x50
 9554 049e 3E000000 		.4byte	.LVL47
 9555 04a2 B6000000 		.4byte	.LVL63
 9556 04a6 0300     		.2byte	0x3
 9557 04a8 91       		.byte	0x91
 9558 04a9 AC7F     		.sleb128 -84
 9559 04ab B6000000 		.4byte	.LVL63
 9560 04af CA040000 		.4byte	.LVL98
 9561 04b3 0400     		.2byte	0x4
 9562 04b5 F3       		.byte	0xf3
 9563 04b6 01       		.uleb128 0x1
 9564 04b7 50       		.byte	0x50
 9565 04b8 9F       		.byte	0x9f
 9566 04b9 CA040000 		.4byte	.LVL98
 9567 04bd D6040000 		.4byte	.LVL100
 9568 04c1 0300     		.2byte	0x3
 9569 04c3 91       		.byte	0x91
 9570 04c4 AC7F     		.sleb128 -84
 9571 04c6 D6040000 		.4byte	.LVL100
 9572 04ca A8080000 		.4byte	.LFE2
 9573 04ce 0400     		.2byte	0x4
 9574 04d0 F3       		.byte	0xf3
 9575 04d1 01       		.uleb128 0x1
 9576 04d2 50       		.byte	0x50
 9577 04d3 9F       		.byte	0x9f
 9578 04d4 00000000 		.4byte	0
 9579 04d8 00000000 		.4byte	0
 9580              	.LLST14:
 9581 04dc 00000000 		.4byte	.LVL45
 9582 04e0 C0000000 		.4byte	.LVL64
 9583 04e4 0100     		.2byte	0x1
ARM GAS  C:\Users\jo\AppData\Local\Temp\ccwlN2BW.s 			page 170


 9584 04e6 51       		.byte	0x51
 9585 04e7 C0000000 		.4byte	.LVL64
 9586 04eb CA040000 		.4byte	.LVL98
 9587 04ef 0400     		.2byte	0x4
 9588 04f1 F3       		.byte	0xf3
 9589 04f2 01       		.uleb128 0x1
 9590 04f3 51       		.byte	0x51
 9591 04f4 9F       		.byte	0x9f
 9592 04f5 CA040000 		.4byte	.LVL98
 9593 04f9 F0040000 		.4byte	.LVL101
 9594 04fd 0100     		.2byte	0x1
 9595 04ff 51       		.byte	0x51
 9596 0500 F0040000 		.4byte	.LVL101
 9597 0504 A8080000 		.4byte	.LFE2
 9598 0508 0400     		.2byte	0x4
 9599 050a F3       		.byte	0xf3
 9600 050b 01       		.uleb128 0x1
 9601 050c 51       		.byte	0x51
 9602 050d 9F       		.byte	0x9f
 9603 050e 00000000 		.4byte	0
 9604 0512 00000000 		.4byte	0
 9605              	.LLST15:
 9606 0516 00000000 		.4byte	.LVL45
 9607 051a 64000000 		.4byte	.LVL50
 9608 051e 0100     		.2byte	0x1
 9609 0520 52       		.byte	0x52
 9610 0521 64000000 		.4byte	.LVL50
 9611 0525 A8080000 		.4byte	.LFE2
 9612 0529 0400     		.2byte	0x4
 9613 052b F3       		.byte	0xf3
 9614 052c 01       		.uleb128 0x1
 9615 052d 52       		.byte	0x52
 9616 052e 9F       		.byte	0x9f
 9617 052f 00000000 		.4byte	0
 9618 0533 00000000 		.4byte	0
 9619              	.LLST16:
 9620 0537 00000000 		.4byte	.LVL45
 9621 053b 46000000 		.4byte	.LVL48
 9622 053f 0100     		.2byte	0x1
 9623 0541 53       		.byte	0x53
 9624 0542 46000000 		.4byte	.LVL48
 9625 0546 A8080000 		.4byte	.LFE2
 9626 054a 0200     		.2byte	0x2
 9627 054c 91       		.byte	0x91
 9628 054d 50       		.sleb128 -48
 9629 054e 00000000 		.4byte	0
 9630 0552 00000000 		.4byte	0
 9631              	.LLST17:
 9632 0556 A4000000 		.4byte	.LVL61
 9633 055a A8000000 		.4byte	.LVL62
 9634 055e 0100     		.2byte	0x1
 9635 0560 53       		.byte	0x53
 9636 0561 A8000000 		.4byte	.LVL62
 9637 0565 72020000 		.4byte	.LVL79
 9638 0569 0200     		.2byte	0x2
 9639 056b 91       		.byte	0x91
 9640 056c 40       		.sleb128 -64
ARM GAS  C:\Users\jo\AppData\Local\Temp\ccwlN2BW.s 			page 171


 9641 056d 72020000 		.4byte	.LVL79
 9642 0571 7E020000 		.4byte	.LVL81
 9643 0575 0100     		.2byte	0x1
 9644 0577 53       		.byte	0x53
 9645 0578 7E020000 		.4byte	.LVL81
 9646 057c 6A040000 		.4byte	.LVL94
 9647 0580 0200     		.2byte	0x2
 9648 0582 91       		.byte	0x91
 9649 0583 40       		.sleb128 -64
 9650 0584 CC040000 		.4byte	.LVL99
 9651 0588 9A060000 		.4byte	.LVL118
 9652 058c 0200     		.2byte	0x2
 9653 058e 91       		.byte	0x91
 9654 058f 44       		.sleb128 -60
 9655 0590 9A060000 		.4byte	.LVL118
 9656 0594 9E060000 		.4byte	.LVL120
 9657 0598 0600     		.2byte	0x6
 9658 059a 91       		.byte	0x91
 9659 059b 44       		.sleb128 -60
 9660 059c 06       		.byte	0x6
 9661 059d 31       		.byte	0x31
 9662 059e 1C       		.byte	0x1c
 9663 059f 9F       		.byte	0x9f
 9664 05a0 9E060000 		.4byte	.LVL120
 9665 05a4 AA060000 		.4byte	.LVL122
 9666 05a8 0100     		.2byte	0x1
 9667 05aa 53       		.byte	0x53
 9668 05ab AA060000 		.4byte	.LVL122
 9669 05af A8080000 		.4byte	.LFE2
 9670 05b3 0200     		.2byte	0x2
 9671 05b5 91       		.byte	0x91
 9672 05b6 44       		.sleb128 -60
 9673 05b7 00000000 		.4byte	0
 9674 05bb 00000000 		.4byte	0
 9675              	.LLST18:
 9676 05bf 14000000 		.4byte	.LVL46
 9677 05c3 5C000000 		.4byte	.LVL49
 9678 05c7 0100     		.2byte	0x1
 9679 05c9 55       		.byte	0x55
 9680 05ca 5C000000 		.4byte	.LVL49
 9681 05ce 70000000 		.4byte	.LVL52
 9682 05d2 0300     		.2byte	0x3
 9683 05d4 75       		.byte	0x75
 9684 05d5 04       		.sleb128 4
 9685 05d6 9F       		.byte	0x9f
 9686 05d7 70000000 		.4byte	.LVL52
 9687 05db 7E000000 		.4byte	.LVL55
 9688 05df 0300     		.2byte	0x3
 9689 05e1 75       		.byte	0x75
 9690 05e2 08       		.sleb128 8
 9691 05e3 9F       		.byte	0x9f
 9692 05e4 7E000000 		.4byte	.LVL55
 9693 05e8 92000000 		.4byte	.LVL59
 9694 05ec 0300     		.2byte	0x3
 9695 05ee 75       		.byte	0x75
 9696 05ef 0C       		.sleb128 12
 9697 05f0 9F       		.byte	0x9f
ARM GAS  C:\Users\jo\AppData\Local\Temp\ccwlN2BW.s 			page 172


 9698 05f1 92000000 		.4byte	.LVL59
 9699 05f5 94000000 		.4byte	.LVL60
 9700 05f9 0100     		.2byte	0x1
 9701 05fb 53       		.byte	0x53
 9702 05fc 94000000 		.4byte	.LVL60
 9703 0600 C0000000 		.4byte	.LVL64
 9704 0604 0200     		.2byte	0x2
 9705 0606 91       		.byte	0x91
 9706 0607 4C       		.sleb128 -52
 9707 0608 C0000000 		.4byte	.LVL64
 9708 060c 7A010000 		.4byte	.LVL67
 9709 0610 0300     		.2byte	0x3
 9710 0612 79       		.byte	0x79
 9711 0613 64       		.sleb128 -28
 9712 0614 9F       		.byte	0x9f
 9713 0615 7A010000 		.4byte	.LVL67
 9714 0619 90010000 		.4byte	.LVL71
 9715 061d 0300     		.2byte	0x3
 9716 061f 79       		.byte	0x79
 9717 0620 68       		.sleb128 -24
 9718 0621 9F       		.byte	0x9f
 9719 0622 90010000 		.4byte	.LVL71
 9720 0626 98010000 		.4byte	.LVL72
 9721 062a 0300     		.2byte	0x3
 9722 062c 79       		.byte	0x79
 9723 062d 6C       		.sleb128 -20
 9724 062e 9F       		.byte	0x9f
 9725 062f 98010000 		.4byte	.LVL72
 9726 0633 6E020000 		.4byte	.LVL78
 9727 0637 0300     		.2byte	0x3
 9728 0639 79       		.byte	0x79
 9729 063a 74       		.sleb128 -12
 9730 063b 9F       		.byte	0x9f
 9731 063c 6E020000 		.4byte	.LVL78
 9732 0640 76020000 		.4byte	.LVL80
 9733 0644 0100     		.2byte	0x1
 9734 0646 59       		.byte	0x59
 9735 0647 76020000 		.4byte	.LVL80
 9736 064b 8E020000 		.4byte	.LVL82
 9737 064f 0300     		.2byte	0x3
 9738 0651 79       		.byte	0x79
 9739 0652 60       		.sleb128 -32
 9740 0653 9F       		.byte	0x9f
 9741 0654 8E020000 		.4byte	.LVL82
 9742 0658 6A030000 		.4byte	.LVL86
 9743 065c 0600     		.2byte	0x6
 9744 065e 91       		.byte	0x91
 9745 065f 4C       		.sleb128 -52
 9746 0660 06       		.byte	0x6
 9747 0661 23       		.byte	0x23
 9748 0662 04       		.uleb128 0x4
 9749 0663 9F       		.byte	0x9f
 9750 0664 6A030000 		.4byte	.LVL86
 9751 0668 8E030000 		.4byte	.LVL87
 9752 066c 0600     		.2byte	0x6
 9753 066e 91       		.byte	0x91
 9754 066f 4C       		.sleb128 -52
ARM GAS  C:\Users\jo\AppData\Local\Temp\ccwlN2BW.s 			page 173


 9755 0670 06       		.byte	0x6
 9756 0671 23       		.byte	0x23
 9757 0672 08       		.uleb128 0x8
 9758 0673 9F       		.byte	0x9f
 9759 0674 8E030000 		.4byte	.LVL87
 9760 0678 5E040000 		.4byte	.LVL91
 9761 067c 0600     		.2byte	0x6
 9762 067e 91       		.byte	0x91
 9763 067f 4C       		.sleb128 -52
 9764 0680 06       		.byte	0x6
 9765 0681 23       		.byte	0x23
 9766 0682 14       		.uleb128 0x14
 9767 0683 9F       		.byte	0x9f
 9768 0684 5E040000 		.4byte	.LVL91
 9769 0688 62040000 		.4byte	.LVL92
 9770 068c 0600     		.2byte	0x6
 9771 068e 91       		.byte	0x91
 9772 068f 4C       		.sleb128 -52
 9773 0690 06       		.byte	0x6
 9774 0691 23       		.byte	0x23
 9775 0692 18       		.uleb128 0x18
 9776 0693 9F       		.byte	0x9f
 9777 0694 62040000 		.4byte	.LVL92
 9778 0698 66040000 		.4byte	.LVL93
 9779 069c 0600     		.2byte	0x6
 9780 069e 91       		.byte	0x91
 9781 069f 4C       		.sleb128 -52
 9782 06a0 06       		.byte	0x6
 9783 06a1 23       		.byte	0x23
 9784 06a2 1C       		.uleb128 0x1c
 9785 06a3 9F       		.byte	0x9f
 9786 06a4 66040000 		.4byte	.LVL93
 9787 06a8 6A040000 		.4byte	.LVL94
 9788 06ac 0600     		.2byte	0x6
 9789 06ae 91       		.byte	0x91
 9790 06af 4C       		.sleb128 -52
 9791 06b0 06       		.byte	0x6
 9792 06b1 23       		.byte	0x23
 9793 06b2 20       		.uleb128 0x20
 9794 06b3 9F       		.byte	0x9f
 9795 06b4 CA040000 		.4byte	.LVL98
 9796 06b8 F0040000 		.4byte	.LVL101
 9797 06bc 0200     		.2byte	0x2
 9798 06be 91       		.byte	0x91
 9799 06bf 4C       		.sleb128 -52
 9800 06c0 F0040000 		.4byte	.LVL101
 9801 06c4 92050000 		.4byte	.LVL102
 9802 06c8 0300     		.2byte	0x3
 9803 06ca 7A       		.byte	0x7a
 9804 06cb 64       		.sleb128 -28
 9805 06cc 9F       		.byte	0x9f
 9806 06cd 92050000 		.4byte	.LVL102
 9807 06d1 C6050000 		.4byte	.LVL108
 9808 06d5 0300     		.2byte	0x3
 9809 06d7 7A       		.byte	0x7a
 9810 06d8 68       		.sleb128 -24
 9811 06d9 9F       		.byte	0x9f
ARM GAS  C:\Users\jo\AppData\Local\Temp\ccwlN2BW.s 			page 174


 9812 06da C6050000 		.4byte	.LVL108
 9813 06de D2050000 		.4byte	.LVL109
 9814 06e2 0300     		.2byte	0x3
 9815 06e4 7A       		.byte	0x7a
 9816 06e5 6C       		.sleb128 -20
 9817 06e6 9F       		.byte	0x9f
 9818 06e7 D2050000 		.4byte	.LVL109
 9819 06eb 8A060000 		.4byte	.LVL114
 9820 06ef 0300     		.2byte	0x3
 9821 06f1 7A       		.byte	0x7a
 9822 06f2 74       		.sleb128 -12
 9823 06f3 9F       		.byte	0x9f
 9824 06f4 8A060000 		.4byte	.LVL114
 9825 06f8 8E060000 		.4byte	.LVL115
 9826 06fc 0300     		.2byte	0x3
 9827 06fe 7A       		.byte	0x7a
 9828 06ff 78       		.sleb128 -8
 9829 0700 9F       		.byte	0x9f
 9830 0701 8E060000 		.4byte	.LVL115
 9831 0705 94060000 		.4byte	.LVL116
 9832 0709 0300     		.2byte	0x3
 9833 070b 7A       		.byte	0x7a
 9834 070c 7C       		.sleb128 -4
 9835 070d 9F       		.byte	0x9f
 9836 070e 94060000 		.4byte	.LVL116
 9837 0712 A2060000 		.4byte	.LVL121
 9838 0716 0100     		.2byte	0x1
 9839 0718 5A       		.byte	0x5a
 9840 0719 A2060000 		.4byte	.LVL121
 9841 071d C2060000 		.4byte	.LVL124
 9842 0721 0300     		.2byte	0x3
 9843 0723 7A       		.byte	0x7a
 9844 0724 60       		.sleb128 -32
 9845 0725 9F       		.byte	0x9f
 9846 0726 C2060000 		.4byte	.LVL124
 9847 072a 94070000 		.4byte	.LVL128
 9848 072e 0600     		.2byte	0x6
 9849 0730 91       		.byte	0x91
 9850 0731 4C       		.sleb128 -52
 9851 0732 06       		.byte	0x6
 9852 0733 23       		.byte	0x23
 9853 0734 04       		.uleb128 0x4
 9854 0735 9F       		.byte	0x9f
 9855 0736 94070000 		.4byte	.LVL128
 9856 073a B2070000 		.4byte	.LVL130
 9857 073e 0600     		.2byte	0x6
 9858 0740 91       		.byte	0x91
 9859 0741 4C       		.sleb128 -52
 9860 0742 06       		.byte	0x6
 9861 0743 23       		.byte	0x23
 9862 0744 08       		.uleb128 0x8
 9863 0745 9F       		.byte	0x9f
 9864 0746 B2070000 		.4byte	.LVL130
 9865 074a 96080000 		.4byte	.LVL134
 9866 074e 0600     		.2byte	0x6
 9867 0750 91       		.byte	0x91
 9868 0751 4C       		.sleb128 -52
ARM GAS  C:\Users\jo\AppData\Local\Temp\ccwlN2BW.s 			page 175


 9869 0752 06       		.byte	0x6
 9870 0753 23       		.byte	0x23
 9871 0754 14       		.uleb128 0x14
 9872 0755 9F       		.byte	0x9f
 9873 0756 96080000 		.4byte	.LVL134
 9874 075a 9A080000 		.4byte	.LVL135
 9875 075e 0600     		.2byte	0x6
 9876 0760 91       		.byte	0x91
 9877 0761 4C       		.sleb128 -52
 9878 0762 06       		.byte	0x6
 9879 0763 23       		.byte	0x23
 9880 0764 18       		.uleb128 0x18
 9881 0765 9F       		.byte	0x9f
 9882 0766 9A080000 		.4byte	.LVL135
 9883 076a 9E080000 		.4byte	.LVL136
 9884 076e 0600     		.2byte	0x6
 9885 0770 91       		.byte	0x91
 9886 0771 4C       		.sleb128 -52
 9887 0772 06       		.byte	0x6
 9888 0773 23       		.byte	0x23
 9889 0774 1C       		.uleb128 0x1c
 9890 0775 9F       		.byte	0x9f
 9891 0776 9E080000 		.4byte	.LVL136
 9892 077a A8080000 		.4byte	.LFE2
 9893 077e 0600     		.2byte	0x6
 9894 0780 91       		.byte	0x91
 9895 0781 4C       		.sleb128 -52
 9896 0782 06       		.byte	0x6
 9897 0783 23       		.byte	0x23
 9898 0784 20       		.uleb128 0x20
 9899 0785 9F       		.byte	0x9f
 9900 0786 00000000 		.4byte	0
 9901 078a 00000000 		.4byte	0
 9902              	.LLST19:
 9903 078e 5C000000 		.4byte	.LVL49
 9904 0792 52010000 		.4byte	.LVL66
 9905 0796 0100     		.2byte	0x1
 9906 0798 58       		.byte	0x58
 9907 0799 6E020000 		.4byte	.LVL78
 9908 079d 12030000 		.4byte	.LVL84
 9909 07a1 0100     		.2byte	0x1
 9910 07a3 58       		.byte	0x58
 9911 07a4 5E040000 		.4byte	.LVL91
 9912 07a8 98040000 		.4byte	.LVL96
 9913 07ac 0100     		.2byte	0x1
 9914 07ae 53       		.byte	0x53
 9915 07af CA040000 		.4byte	.LVL98
 9916 07b3 A0050000 		.4byte	.LVL104
 9917 07b7 0100     		.2byte	0x1
 9918 07b9 58       		.byte	0x58
 9919 07ba 8A060000 		.4byte	.LVL114
 9920 07be 34070000 		.4byte	.LVL125
 9921 07c2 0100     		.2byte	0x1
 9922 07c4 58       		.byte	0x58
 9923 07c5 96080000 		.4byte	.LVL134
 9924 07c9 A8080000 		.4byte	.LFE2
 9925 07cd 0100     		.2byte	0x1
ARM GAS  C:\Users\jo\AppData\Local\Temp\ccwlN2BW.s 			page 176


 9926 07cf 53       		.byte	0x53
 9927 07d0 00000000 		.4byte	0
 9928 07d4 00000000 		.4byte	0
 9929              	.LLST20:
 9930 07d8 70000000 		.4byte	.LVL52
 9931 07dc 78000000 		.4byte	.LVL53
 9932 07e0 0100     		.2byte	0x1
 9933 07e2 54       		.byte	0x54
 9934 07e3 78000000 		.4byte	.LVL53
 9935 07e7 7A000000 		.4byte	.LVL54
 9936 07eb 0100     		.2byte	0x1
 9937 07ed 53       		.byte	0x53
 9938 07ee 7A000000 		.4byte	.LVL54
 9939 07f2 84010000 		.4byte	.LVL68
 9940 07f6 0300     		.2byte	0x3
 9941 07f8 91       		.byte	0x91
 9942 07f9 B47F     		.sleb128 -76
 9943 07fb 6E020000 		.4byte	.LVL78
 9944 07ff 62040000 		.4byte	.LVL92
 9945 0803 0300     		.2byte	0x3
 9946 0805 91       		.byte	0x91
 9947 0806 B47F     		.sleb128 -76
 9948 0808 62040000 		.4byte	.LVL92
 9949 080c 9C040000 		.4byte	.LVL97
 9950 0810 0100     		.2byte	0x1
 9951 0812 5E       		.byte	0x5e
 9952 0813 CA040000 		.4byte	.LVL98
 9953 0817 F0040000 		.4byte	.LVL101
 9954 081b 0300     		.2byte	0x3
 9955 081d 91       		.byte	0x91
 9956 081e B47F     		.sleb128 -76
 9957 0820 F0040000 		.4byte	.LVL101
 9958 0824 96050000 		.4byte	.LVL103
 9959 0828 0100     		.2byte	0x1
 9960 082a 54       		.byte	0x54
 9961 082b 8E060000 		.4byte	.LVL115
 9962 082f C2060000 		.4byte	.LVL124
 9963 0833 0100     		.2byte	0x1
 9964 0835 54       		.byte	0x54
 9965 0836 C2060000 		.4byte	.LVL124
 9966 083a 9A080000 		.4byte	.LVL135
 9967 083e 0300     		.2byte	0x3
 9968 0840 91       		.byte	0x91
 9969 0841 B47F     		.sleb128 -76
 9970 0843 9A080000 		.4byte	.LVL135
 9971 0847 A8080000 		.4byte	.LFE2
 9972 084b 0100     		.2byte	0x1
 9973 084d 5E       		.byte	0x5e
 9974 084e 00000000 		.4byte	0
 9975 0852 00000000 		.4byte	0
 9976              	.LLST21:
 9977 0856 7E000000 		.4byte	.LVL55
 9978 085a C0000000 		.4byte	.LVL64
 9979 085e 0100     		.2byte	0x1
 9980 0860 57       		.byte	0x57
 9981 0861 C0000000 		.4byte	.LVL64
 9982 0865 B0010000 		.4byte	.LVL73
ARM GAS  C:\Users\jo\AppData\Local\Temp\ccwlN2BW.s 			page 177


 9983 0869 0300     		.2byte	0x3
 9984 086b 91       		.byte	0x91
 9985 086c BC7F     		.sleb128 -68
 9986 086e 6E020000 		.4byte	.LVL78
 9987 0872 8E020000 		.4byte	.LVL82
 9988 0876 0300     		.2byte	0x3
 9989 0878 91       		.byte	0x91
 9990 0879 BC7F     		.sleb128 -68
 9991 087b 8E020000 		.4byte	.LVL82
 9992 087f 28030000 		.4byte	.LVL85
 9993 0883 0100     		.2byte	0x1
 9994 0885 57       		.byte	0x57
 9995 0886 66040000 		.4byte	.LVL93
 9996 088a 78040000 		.4byte	.LVL95
 9997 088e 0100     		.2byte	0x1
 9998 0890 50       		.byte	0x50
 9999 0891 CA040000 		.4byte	.LVL98
 10000 0895 F0040000 		.4byte	.LVL101
 10001 0899 0100     		.2byte	0x1
 10002 089b 57       		.byte	0x57
 10003 089c F0040000 		.4byte	.LVL101
 10004 08a0 E4050000 		.4byte	.LVL110
 10005 08a4 0200     		.2byte	0x2
 10006 08a6 91       		.byte	0x91
 10007 08a7 40       		.sleb128 -64
 10008 08a8 94060000 		.4byte	.LVL116
 10009 08ac 98060000 		.4byte	.LVL117
 10010 08b0 0100     		.2byte	0x1
 10011 08b2 53       		.byte	0x53
 10012 08b3 98060000 		.4byte	.LVL117
 10013 08b7 C2060000 		.4byte	.LVL124
 10014 08bb 0200     		.2byte	0x2
 10015 08bd 91       		.byte	0x91
 10016 08be 40       		.sleb128 -64
 10017 08bf C2060000 		.4byte	.LVL124
 10018 08c3 4A070000 		.4byte	.LVL126
 10019 08c7 0100     		.2byte	0x1
 10020 08c9 57       		.byte	0x57
 10021 08ca 9E080000 		.4byte	.LVL136
 10022 08ce A8080000 		.4byte	.LFE2
 10023 08d2 0100     		.2byte	0x1
 10024 08d4 50       		.byte	0x50
 10025 08d5 00000000 		.4byte	0
 10026 08d9 00000000 		.4byte	0
 10027              	.LLST22:
 10028 08dd 8A000000 		.4byte	.LVL57
 10029 08e1 8C000000 		.4byte	.LVL58
 10030 08e5 0100     		.2byte	0x1
 10031 08e7 52       		.byte	0x52
 10032 08e8 8C000000 		.4byte	.LVL58
 10033 08ec 92000000 		.4byte	.LVL59
 10034 08f0 1000     		.2byte	0x10
 10035 08f2 F3       		.byte	0xf3
 10036 08f3 01       		.uleb128 0x1
 10037 08f4 52       		.byte	0x52
 10038 08f5 23       		.byte	0x23
 10039 08f6 0F       		.uleb128 0xf
ARM GAS  C:\Users\jo\AppData\Local\Temp\ccwlN2BW.s 			page 178


 10040 08f7 94       		.byte	0x94
 10041 08f8 01       		.byte	0x1
 10042 08f9 08       		.byte	0x8
 10043 08fa FF       		.byte	0xff
 10044 08fb 1A       		.byte	0x1a
 10045 08fc 48       		.byte	0x48
 10046 08fd 24       		.byte	0x24
 10047 08fe 76       		.byte	0x76
 10048 08ff 00       		.sleb128 0
 10049 0900 21       		.byte	0x21
 10050 0901 9F       		.byte	0x9f
 10051 0902 92000000 		.4byte	.LVL59
 10052 0906 4E010000 		.4byte	.LVL65
 10053 090a 0100     		.2byte	0x1
 10054 090c 52       		.byte	0x52
 10055 090d 72020000 		.4byte	.LVL79
 10056 0911 EE020000 		.4byte	.LVL83
 10057 0915 0100     		.2byte	0x1
 10058 0917 52       		.byte	0x52
 10059 0918 6A040000 		.4byte	.LVL94
 10060 091c F0040000 		.4byte	.LVL101
 10061 0920 0100     		.2byte	0x1
 10062 0922 52       		.byte	0x52
 10063 0923 F0040000 		.4byte	.LVL101
 10064 0927 BC050000 		.4byte	.LVL107
 10065 092b 0300     		.2byte	0x3
 10066 092d 91       		.byte	0x91
 10067 092e B87F     		.sleb128 -72
 10068 0930 9A060000 		.4byte	.LVL118
 10069 0934 9C060000 		.4byte	.LVL119
 10070 0938 0100     		.2byte	0x1
 10071 093a 53       		.byte	0x53
 10072 093b 9C060000 		.4byte	.LVL119
 10073 093f C2060000 		.4byte	.LVL124
 10074 0943 0300     		.2byte	0x3
 10075 0945 91       		.byte	0x91
 10076 0946 B87F     		.sleb128 -72
 10077 0948 C2060000 		.4byte	.LVL124
 10078 094c 70070000 		.4byte	.LVL127
 10079 0950 0100     		.2byte	0x1
 10080 0952 52       		.byte	0x52
 10081 0953 A2080000 		.4byte	.LVL137
 10082 0957 A8080000 		.4byte	.LFE2
 10083 095b 0100     		.2byte	0x1
 10084 095d 52       		.byte	0x52
 10085 095e 00000000 		.4byte	0
 10086 0962 00000000 		.4byte	0
 10087              	.LLST23:
 10088 0966 7A010000 		.4byte	.LVL67
 10089 096a 8A010000 		.4byte	.LVL69
 10090 096e 0100     		.2byte	0x1
 10091 0970 55       		.byte	0x55
 10092 0971 8A010000 		.4byte	.LVL69
 10093 0975 8C010000 		.4byte	.LVL70
 10094 0979 0100     		.2byte	0x1
 10095 097b 56       		.byte	0x56
 10096 097c 8C010000 		.4byte	.LVL70
ARM GAS  C:\Users\jo\AppData\Local\Temp\ccwlN2BW.s 			page 179


 10097 0980 60020000 		.4byte	.LVL77
 10098 0984 0300     		.2byte	0x3
 10099 0986 91       		.byte	0x91
 10100 0987 B47F     		.sleb128 -76
 10101 0989 6A030000 		.4byte	.LVL86
 10102 098d 34040000 		.4byte	.LVL90
 10103 0991 0100     		.2byte	0x1
 10104 0993 51       		.byte	0x51
 10105 0994 92050000 		.4byte	.LVL102
 10106 0998 B0050000 		.4byte	.LVL105
 10107 099c 0100     		.2byte	0x1
 10108 099e 55       		.byte	0x55
 10109 099f B0050000 		.4byte	.LVL105
 10110 09a3 B2050000 		.4byte	.LVL106
 10111 09a7 0100     		.2byte	0x1
 10112 09a9 56       		.byte	0x56
 10113 09aa B2050000 		.4byte	.LVL106
 10114 09ae B6060000 		.4byte	.LVL123
 10115 09b2 0300     		.2byte	0x3
 10116 09b4 91       		.byte	0x91
 10117 09b5 B47F     		.sleb128 -76
 10118 09b7 94070000 		.4byte	.LVL128
 10119 09bb 9A070000 		.4byte	.LVL129
 10120 09bf 0100     		.2byte	0x1
 10121 09c1 52       		.byte	0x52
 10122 09c2 9A070000 		.4byte	.LVL129
 10123 09c6 A8080000 		.4byte	.LFE2
 10124 09ca 0300     		.2byte	0x3
 10125 09cc 91       		.byte	0x91
 10126 09cd AC7F     		.sleb128 -84
 10127 09cf 00000000 		.4byte	0
 10128 09d3 00000000 		.4byte	0
 10129              	.LLST24:
 10130 09d7 90010000 		.4byte	.LVL71
 10131 09db 14020000 		.4byte	.LVL75
 10132 09df 0100     		.2byte	0x1
 10133 09e1 51       		.byte	0x51
 10134 09e2 8E030000 		.4byte	.LVL87
 10135 09e6 D8030000 		.4byte	.LVL88
 10136 09ea 0100     		.2byte	0x1
 10137 09ec 52       		.byte	0x52
 10138 09ed C6050000 		.4byte	.LVL108
 10139 09f1 74060000 		.4byte	.LVL113
 10140 09f5 0100     		.2byte	0x1
 10141 09f7 52       		.byte	0x52
 10142 09f8 B2070000 		.4byte	.LVL130
 10143 09fc 5E080000 		.4byte	.LVL133
 10144 0a00 0100     		.2byte	0x1
 10145 0a02 51       		.byte	0x51
 10146 0a03 00000000 		.4byte	0
 10147 0a07 00000000 		.4byte	0
 10148              	.LLST25:
 10149 0a0b 98010000 		.4byte	.LVL72
 10150 0a0f 42020000 		.4byte	.LVL76
 10151 0a13 0100     		.2byte	0x1
 10152 0a15 58       		.byte	0x58
 10153 0a16 8E030000 		.4byte	.LVL87
ARM GAS  C:\Users\jo\AppData\Local\Temp\ccwlN2BW.s 			page 180


 10154 0a1a 2E040000 		.4byte	.LVL89
 10155 0a1e 0100     		.2byte	0x1
 10156 0a20 54       		.byte	0x54
 10157 0a21 D2050000 		.4byte	.LVL109
 10158 0a25 3A060000 		.4byte	.LVL111
 10159 0a29 0100     		.2byte	0x1
 10160 0a2b 58       		.byte	0x58
 10161 0a2c B2070000 		.4byte	.LVL130
 10162 0a30 F6070000 		.4byte	.LVL131
 10163 0a34 0100     		.2byte	0x1
 10164 0a36 55       		.byte	0x55
 10165 0a37 00000000 		.4byte	0
 10166 0a3b 00000000 		.4byte	0
 10167              	.LLST26:
 10168 0a3f 98010000 		.4byte	.LVL72
 10169 0a43 FE010000 		.4byte	.LVL74
 10170 0a47 0100     		.2byte	0x1
 10171 0a49 53       		.byte	0x53
 10172 0a4a D2050000 		.4byte	.LVL109
 10173 0a4e 42060000 		.4byte	.LVL112
 10174 0a52 0100     		.2byte	0x1
 10175 0a54 51       		.byte	0x51
 10176 0a55 B2070000 		.4byte	.LVL130
 10177 0a59 3C080000 		.4byte	.LVL132
 10178 0a5d 0100     		.2byte	0x1
 10179 0a5f 52       		.byte	0x52
 10180 0a60 00000000 		.4byte	0
 10181 0a64 00000000 		.4byte	0
 10182              	.LLST27:
 10183 0a68 00000000 		.4byte	.LVL138
 10184 0a6c 24000000 		.4byte	.LVL141
 10185 0a70 0100     		.2byte	0x1
 10186 0a72 50       		.byte	0x50
 10187 0a73 24000000 		.4byte	.LVL141
 10188 0a77 68000000 		.4byte	.LVL150
 10189 0a7b 0100     		.2byte	0x1
 10190 0a7d 56       		.byte	0x56
 10191 0a7e 68000000 		.4byte	.LVL150
 10192 0a82 6E000000 		.4byte	.LVL151
 10193 0a86 0400     		.2byte	0x4
 10194 0a88 F3       		.byte	0xf3
 10195 0a89 01       		.uleb128 0x1
 10196 0a8a 50       		.byte	0x50
 10197 0a8b 9F       		.byte	0x9f
 10198 0a8c 6E000000 		.4byte	.LVL151
 10199 0a90 74000000 		.4byte	.LVL152
 10200 0a94 0100     		.2byte	0x1
 10201 0a96 50       		.byte	0x50
 10202 0a97 74000000 		.4byte	.LVL152
 10203 0a9b CE000000 		.4byte	.LVL158
 10204 0a9f 0100     		.2byte	0x1
 10205 0aa1 56       		.byte	0x56
 10206 0aa2 CE000000 		.4byte	.LVL158
 10207 0aa6 D2000000 		.4byte	.LVL159
 10208 0aaa 0100     		.2byte	0x1
 10209 0aac 50       		.byte	0x50
 10210 0aad D2000000 		.4byte	.LVL159
ARM GAS  C:\Users\jo\AppData\Local\Temp\ccwlN2BW.s 			page 181


 10211 0ab1 D4000000 		.4byte	.LFE3
 10212 0ab5 0400     		.2byte	0x4
 10213 0ab7 F3       		.byte	0xf3
 10214 0ab8 01       		.uleb128 0x1
 10215 0ab9 50       		.byte	0x50
 10216 0aba 9F       		.byte	0x9f
 10217 0abb 00000000 		.4byte	0
 10218 0abf 00000000 		.4byte	0
 10219              	.LLST28:
 10220 0ac3 00000000 		.4byte	.LVL138
 10221 0ac7 24000000 		.4byte	.LVL141
 10222 0acb 0100     		.2byte	0x1
 10223 0acd 51       		.byte	0x51
 10224 0ace 24000000 		.4byte	.LVL141
 10225 0ad2 68000000 		.4byte	.LVL150
 10226 0ad6 0100     		.2byte	0x1
 10227 0ad8 59       		.byte	0x59
 10228 0ad9 68000000 		.4byte	.LVL150
 10229 0add 6E000000 		.4byte	.LVL151
 10230 0ae1 0400     		.2byte	0x4
 10231 0ae3 F3       		.byte	0xf3
 10232 0ae4 01       		.uleb128 0x1
 10233 0ae5 51       		.byte	0x51
 10234 0ae6 9F       		.byte	0x9f
 10235 0ae7 6E000000 		.4byte	.LVL151
 10236 0aeb 74000000 		.4byte	.LVL152
 10237 0aef 0100     		.2byte	0x1
 10238 0af1 51       		.byte	0x51
 10239 0af2 74000000 		.4byte	.LVL152
 10240 0af6 CE000000 		.4byte	.LVL158
 10241 0afa 0100     		.2byte	0x1
 10242 0afc 59       		.byte	0x59
 10243 0afd CE000000 		.4byte	.LVL158
 10244 0b01 D4000000 		.4byte	.LFE3
 10245 0b05 0100     		.2byte	0x1
 10246 0b07 51       		.byte	0x51
 10247 0b08 00000000 		.4byte	0
 10248 0b0c 00000000 		.4byte	0
 10249              	.LLST29:
 10250 0b10 00000000 		.4byte	.LVL138
 10251 0b14 24000000 		.4byte	.LVL141
 10252 0b18 0100     		.2byte	0x1
 10253 0b1a 52       		.byte	0x52
 10254 0b1b 24000000 		.4byte	.LVL141
 10255 0b1f 5A000000 		.4byte	.LVL147
 10256 0b23 0100     		.2byte	0x1
 10257 0b25 58       		.byte	0x58
 10258 0b26 5A000000 		.4byte	.LVL147
 10259 0b2a 64000000 		.4byte	.LVL148
 10260 0b2e 0300     		.2byte	0x3
 10261 0b30 78       		.byte	0x78
 10262 0b31 10       		.sleb128 16
 10263 0b32 9F       		.byte	0x9f
 10264 0b33 6E000000 		.4byte	.LVL151
 10265 0b37 74000000 		.4byte	.LVL152
 10266 0b3b 0100     		.2byte	0x1
 10267 0b3d 52       		.byte	0x52
ARM GAS  C:\Users\jo\AppData\Local\Temp\ccwlN2BW.s 			page 182


 10268 0b3e 74000000 		.4byte	.LVL152
 10269 0b42 CE000000 		.4byte	.LVL158
 10270 0b46 0400     		.2byte	0x4
 10271 0b48 F3       		.byte	0xf3
 10272 0b49 01       		.uleb128 0x1
 10273 0b4a 52       		.byte	0x52
 10274 0b4b 9F       		.byte	0x9f
 10275 0b4c CE000000 		.4byte	.LVL158
 10276 0b50 D4000000 		.4byte	.LFE3
 10277 0b54 0100     		.2byte	0x1
 10278 0b56 52       		.byte	0x52
 10279 0b57 00000000 		.4byte	0
 10280 0b5b 00000000 		.4byte	0
 10281              	.LLST30:
 10282 0b5f 00000000 		.4byte	.LVL138
 10283 0b63 24000000 		.4byte	.LVL141
 10284 0b67 0100     		.2byte	0x1
 10285 0b69 53       		.byte	0x53
 10286 0b6a 24000000 		.4byte	.LVL141
 10287 0b6e 68000000 		.4byte	.LVL150
 10288 0b72 0100     		.2byte	0x1
 10289 0b74 55       		.byte	0x55
 10290 0b75 68000000 		.4byte	.LVL150
 10291 0b79 6E000000 		.4byte	.LVL151
 10292 0b7d 0400     		.2byte	0x4
 10293 0b7f F3       		.byte	0xf3
 10294 0b80 01       		.uleb128 0x1
 10295 0b81 53       		.byte	0x53
 10296 0b82 9F       		.byte	0x9f
 10297 0b83 6E000000 		.4byte	.LVL151
 10298 0b87 74000000 		.4byte	.LVL152
 10299 0b8b 0100     		.2byte	0x1
 10300 0b8d 53       		.byte	0x53
 10301 0b8e 74000000 		.4byte	.LVL152
 10302 0b92 CE000000 		.4byte	.LVL158
 10303 0b96 0100     		.2byte	0x1
 10304 0b98 55       		.byte	0x55
 10305 0b99 CE000000 		.4byte	.LVL158
 10306 0b9d D4000000 		.4byte	.LFE3
 10307 0ba1 0100     		.2byte	0x1
 10308 0ba3 53       		.byte	0x53
 10309 0ba4 00000000 		.4byte	0
 10310 0ba8 00000000 		.4byte	0
 10311              	.LLST31:
 10312 0bac 00000000 		.4byte	.LVL138
 10313 0bb0 1C000000 		.4byte	.LVL139
 10314 0bb4 0200     		.2byte	0x2
 10315 0bb6 91       		.byte	0x91
 10316 0bb7 00       		.sleb128 0
 10317 0bb8 1C000000 		.4byte	.LVL139
 10318 0bbc 22000000 		.4byte	.LVL140
 10319 0bc0 0100     		.2byte	0x1
 10320 0bc2 5A       		.byte	0x5a
 10321 0bc3 22000000 		.4byte	.LVL140
 10322 0bc7 56000000 		.4byte	.LVL146
 10323 0bcb 0200     		.2byte	0x2
 10324 0bcd 91       		.byte	0x91
ARM GAS  C:\Users\jo\AppData\Local\Temp\ccwlN2BW.s 			page 183


 10325 0bce 00       		.sleb128 0
 10326 0bcf 56000000 		.4byte	.LVL146
 10327 0bd3 66000000 		.4byte	.LVL149
 10328 0bd7 0600     		.2byte	0x6
 10329 0bd9 91       		.byte	0x91
 10330 0bda 00       		.sleb128 0
 10331 0bdb 06       		.byte	0x6
 10332 0bdc 23       		.byte	0x23
 10333 0bdd 10       		.uleb128 0x10
 10334 0bde 9F       		.byte	0x9f
 10335 0bdf 6E000000 		.4byte	.LVL151
 10336 0be3 D4000000 		.4byte	.LFE3
 10337 0be7 0200     		.2byte	0x2
 10338 0be9 91       		.byte	0x91
 10339 0bea 00       		.sleb128 0
 10340 0beb 00000000 		.4byte	0
 10341 0bef 00000000 		.4byte	0
 10342              	.LLST32:
 10343 0bf3 00000000 		.4byte	.LVL138
 10344 0bf7 1C000000 		.4byte	.LVL139
 10345 0bfb 0200     		.2byte	0x2
 10346 0bfd 91       		.byte	0x91
 10347 0bfe 04       		.sleb128 4
 10348 0bff 1C000000 		.4byte	.LVL139
 10349 0c03 66000000 		.4byte	.LVL149
 10350 0c07 0100     		.2byte	0x1
 10351 0c09 54       		.byte	0x54
 10352 0c0a 6E000000 		.4byte	.LVL151
 10353 0c0e D4000000 		.4byte	.LFE3
 10354 0c12 0200     		.2byte	0x2
 10355 0c14 91       		.byte	0x91
 10356 0c15 04       		.sleb128 4
 10357 0c16 00000000 		.4byte	0
 10358 0c1a 00000000 		.4byte	0
 10359              	.LLST33:
 10360 0c1e 24000000 		.4byte	.LVL141
 10361 0c22 2C000000 		.4byte	.LVL142
 10362 0c26 0200     		.2byte	0x2
 10363 0c28 30       		.byte	0x30
 10364 0c29 9F       		.byte	0x9f
 10365 0c2a 2C000000 		.4byte	.LVL142
 10366 0c2e 30000000 		.4byte	.LVL143
 10367 0c32 0900     		.2byte	0x9
 10368 0c34 7A       		.byte	0x7a
 10369 0c35 00       		.sleb128 0
 10370 0c36 91       		.byte	0x91
 10371 0c37 00       		.sleb128 0
 10372 0c38 06       		.byte	0x6
 10373 0c39 1C       		.byte	0x1c
 10374 0c3a 23       		.byte	0x23
 10375 0c3b 01       		.uleb128 0x1
 10376 0c3c 9F       		.byte	0x9f
 10377 0c3d 30000000 		.4byte	.LVL143
 10378 0c41 3E000000 		.4byte	.LVL144
 10379 0c45 0700     		.2byte	0x7
 10380 0c47 7A       		.byte	0x7a
 10381 0c48 00       		.sleb128 0
ARM GAS  C:\Users\jo\AppData\Local\Temp\ccwlN2BW.s 			page 184


 10382 0c49 91       		.byte	0x91
 10383 0c4a 00       		.sleb128 0
 10384 0c4b 06       		.byte	0x6
 10385 0c4c 1C       		.byte	0x1c
 10386 0c4d 9F       		.byte	0x9f
 10387 0c4e 3E000000 		.4byte	.LVL144
 10388 0c52 66000000 		.4byte	.LVL149
 10389 0c56 0900     		.2byte	0x9
 10390 0c58 7A       		.byte	0x7a
 10391 0c59 00       		.sleb128 0
 10392 0c5a 91       		.byte	0x91
 10393 0c5b 00       		.sleb128 0
 10394 0c5c 06       		.byte	0x6
 10395 0c5d 1C       		.byte	0x1c
 10396 0c5e 23       		.byte	0x23
 10397 0c5f 01       		.uleb128 0x1
 10398 0c60 9F       		.byte	0x9f
 10399 0c61 00000000 		.4byte	0
 10400 0c65 00000000 		.4byte	0
 10401              	.LLST34:
 10402 0c69 6E000000 		.4byte	.LVL151
 10403 0c6d C2000000 		.4byte	.LVL156
 10404 0c71 0100     		.2byte	0x1
 10405 0c73 54       		.byte	0x54
 10406 0c74 C2000000 		.4byte	.LVL156
 10407 0c78 CA000000 		.4byte	.LVL157
 10408 0c7c 0300     		.2byte	0x3
 10409 0c7e 74       		.byte	0x74
 10410 0c7f 70       		.sleb128 -16
 10411 0c80 9F       		.byte	0x9f
 10412 0c81 CA000000 		.4byte	.LVL157
 10413 0c85 CE000000 		.4byte	.LVL158
 10414 0c89 0100     		.2byte	0x1
 10415 0c8b 54       		.byte	0x54
 10416 0c8c 00000000 		.4byte	0
 10417 0c90 00000000 		.4byte	0
 10418              	.LLST35:
 10419 0c94 6E000000 		.4byte	.LVL151
 10420 0c98 74000000 		.4byte	.LVL152
 10421 0c9c 0100     		.2byte	0x1
 10422 0c9e 5A       		.byte	0x5a
 10423 0c9f 00000000 		.4byte	0
 10424 0ca3 00000000 		.4byte	0
 10425              	.LLST36:
 10426 0ca7 6E000000 		.4byte	.LVL151
 10427 0cab 74000000 		.4byte	.LVL152
 10428 0caf 0100     		.2byte	0x1
 10429 0cb1 52       		.byte	0x52
 10430 0cb2 74000000 		.4byte	.LVL152
 10431 0cb6 BA000000 		.4byte	.LVL155
 10432 0cba 0100     		.2byte	0x1
 10433 0cbc 58       		.byte	0x58
 10434 0cbd BA000000 		.4byte	.LVL155
 10435 0cc1 CA000000 		.4byte	.LVL157
 10436 0cc5 0300     		.2byte	0x3
 10437 0cc7 78       		.byte	0x78
 10438 0cc8 10       		.sleb128 16
ARM GAS  C:\Users\jo\AppData\Local\Temp\ccwlN2BW.s 			page 185


 10439 0cc9 9F       		.byte	0x9f
 10440 0cca 00000000 		.4byte	0
 10441 0cce 00000000 		.4byte	0
 10442              	.LLST37:
 10443 0cd2 96000000 		.4byte	.LVL153
 10444 0cd6 9E000000 		.4byte	.LVL154
 10445 0cda 0200     		.2byte	0x2
 10446 0cdc 30       		.byte	0x30
 10447 0cdd 9F       		.byte	0x9f
 10448 0cde 00000000 		.4byte	0
 10449 0ce2 00000000 		.4byte	0
 10450              	.LLST38:
 10451 0ce6 00000000 		.4byte	.LVL160
 10452 0cea 1A000000 		.4byte	.LVL164
 10453 0cee 0100     		.2byte	0x1
 10454 0cf0 50       		.byte	0x50
 10455 0cf1 1A000000 		.4byte	.LVL164
 10456 0cf5 3E000000 		.4byte	.LVL168
 10457 0cf9 0100     		.2byte	0x1
 10458 0cfb 57       		.byte	0x57
 10459 0cfc 3E000000 		.4byte	.LVL168
 10460 0d00 46000000 		.4byte	.LVL169
 10461 0d04 0100     		.2byte	0x1
 10462 0d06 50       		.byte	0x50
 10463 0d07 46000000 		.4byte	.LVL169
 10464 0d0b 7E000000 		.4byte	.LFE4
 10465 0d0f 0100     		.2byte	0x1
 10466 0d11 57       		.byte	0x57
 10467 0d12 00000000 		.4byte	0
 10468 0d16 00000000 		.4byte	0
 10469              	.LLST39:
 10470 0d1a 00000000 		.4byte	.LVL160
 10471 0d1e 1A000000 		.4byte	.LVL164
 10472 0d22 0100     		.2byte	0x1
 10473 0d24 51       		.byte	0x51
 10474 0d25 1A000000 		.4byte	.LVL164
 10475 0d29 3E000000 		.4byte	.LVL168
 10476 0d2d 0400     		.2byte	0x4
 10477 0d2f F3       		.byte	0xf3
 10478 0d30 01       		.uleb128 0x1
 10479 0d31 51       		.byte	0x51
 10480 0d32 9F       		.byte	0x9f
 10481 0d33 3E000000 		.4byte	.LVL168
 10482 0d37 46000000 		.4byte	.LVL169
 10483 0d3b 0100     		.2byte	0x1
 10484 0d3d 51       		.byte	0x51
 10485 0d3e 46000000 		.4byte	.LVL169
 10486 0d42 7E000000 		.4byte	.LFE4
 10487 0d46 0400     		.2byte	0x4
 10488 0d48 F3       		.byte	0xf3
 10489 0d49 01       		.uleb128 0x1
 10490 0d4a 51       		.byte	0x51
 10491 0d4b 9F       		.byte	0x9f
 10492 0d4c 00000000 		.4byte	0
 10493 0d50 00000000 		.4byte	0
 10494              	.LLST40:
 10495 0d54 00000000 		.4byte	.LVL160
ARM GAS  C:\Users\jo\AppData\Local\Temp\ccwlN2BW.s 			page 186


 10496 0d58 12000000 		.4byte	.LVL163
 10497 0d5c 0100     		.2byte	0x1
 10498 0d5e 52       		.byte	0x52
 10499 0d5f 12000000 		.4byte	.LVL163
 10500 0d63 1A000000 		.4byte	.LVL164
 10501 0d67 0300     		.2byte	0x3
 10502 0d69 72       		.byte	0x72
 10503 0d6a 7F       		.sleb128 -1
 10504 0d6b 9F       		.byte	0x9f
 10505 0d6c 1A000000 		.4byte	.LVL164
 10506 0d70 28000000 		.4byte	.LVL166
 10507 0d74 0300     		.2byte	0x3
 10508 0d76 75       		.byte	0x75
 10509 0d77 7F       		.sleb128 -1
 10510 0d78 9F       		.byte	0x9f
 10511 0d79 28000000 		.4byte	.LVL166
 10512 0d7d 32000000 		.4byte	.LVL167
 10513 0d81 0100     		.2byte	0x1
 10514 0d83 55       		.byte	0x55
 10515 0d84 3E000000 		.4byte	.LVL168
 10516 0d88 46000000 		.4byte	.LVL169
 10517 0d8c 0300     		.2byte	0x3
 10518 0d8e 72       		.byte	0x72
 10519 0d8f 7F       		.sleb128 -1
 10520 0d90 9F       		.byte	0x9f
 10521 0d91 5E000000 		.4byte	.LVL173
 10522 0d95 62000000 		.4byte	.LVL174
 10523 0d99 0300     		.2byte	0x3
 10524 0d9b 75       		.byte	0x75
 10525 0d9c 7F       		.sleb128 -1
 10526 0d9d 9F       		.byte	0x9f
 10527 0d9e 70000000 		.4byte	.LVL176
 10528 0da2 7E000000 		.4byte	.LFE4
 10529 0da6 0300     		.2byte	0x3
 10530 0da8 75       		.byte	0x75
 10531 0da9 7F       		.sleb128 -1
 10532 0daa 9F       		.byte	0x9f
 10533 0dab 00000000 		.4byte	0
 10534 0daf 00000000 		.4byte	0
 10535              	.LLST41:
 10536 0db3 00000000 		.4byte	.LVL160
 10537 0db7 1A000000 		.4byte	.LVL164
 10538 0dbb 0100     		.2byte	0x1
 10539 0dbd 53       		.byte	0x53
 10540 0dbe 1A000000 		.4byte	.LVL164
 10541 0dc2 3E000000 		.4byte	.LVL168
 10542 0dc6 0100     		.2byte	0x1
 10543 0dc8 58       		.byte	0x58
 10544 0dc9 3E000000 		.4byte	.LVL168
 10545 0dcd 46000000 		.4byte	.LVL169
 10546 0dd1 0100     		.2byte	0x1
 10547 0dd3 53       		.byte	0x53
 10548 0dd4 46000000 		.4byte	.LVL169
 10549 0dd8 7E000000 		.4byte	.LFE4
 10550 0ddc 0100     		.2byte	0x1
 10551 0dde 58       		.byte	0x58
 10552 0ddf 00000000 		.4byte	0
ARM GAS  C:\Users\jo\AppData\Local\Temp\ccwlN2BW.s 			page 187


 10553 0de3 00000000 		.4byte	0
 10554              	.LLST42:
 10555 0de7 00000000 		.4byte	.LVL160
 10556 0deb 06000000 		.4byte	.LVL161
 10557 0def 0200     		.2byte	0x2
 10558 0df1 91       		.byte	0x91
 10559 0df2 00       		.sleb128 0
 10560 0df3 06000000 		.4byte	.LVL161
 10561 0df7 10000000 		.4byte	.LVL162
 10562 0dfb 0200     		.2byte	0x2
 10563 0dfd 76       		.byte	0x76
 10564 0dfe 00       		.sleb128 0
 10565 0dff 10000000 		.4byte	.LVL162
 10566 0e03 7E000000 		.4byte	.LFE4
 10567 0e07 0200     		.2byte	0x2
 10568 0e09 91       		.byte	0x91
 10569 0e0a 00       		.sleb128 0
 10570 0e0b 00000000 		.4byte	0
 10571 0e0f 00000000 		.4byte	0
 10572              	.LLST43:
 10573 0e13 00000000 		.4byte	.LVL160
 10574 0e17 06000000 		.4byte	.LVL161
 10575 0e1b 0200     		.2byte	0x2
 10576 0e1d 91       		.byte	0x91
 10577 0e1e 04       		.sleb128 4
 10578 0e1f 06000000 		.4byte	.LVL161
 10579 0e23 10000000 		.4byte	.LVL162
 10580 0e27 0200     		.2byte	0x2
 10581 0e29 76       		.byte	0x76
 10582 0e2a 04       		.sleb128 4
 10583 0e2b 10000000 		.4byte	.LVL162
 10584 0e2f 12000000 		.4byte	.LVL163
 10585 0e33 0200     		.2byte	0x2
 10586 0e35 91       		.byte	0x91
 10587 0e36 04       		.sleb128 4
 10588 0e37 12000000 		.4byte	.LVL163
 10589 0e3b 22000000 		.4byte	.LVL165
 10590 0e3f 0100     		.2byte	0x1
 10591 0e41 59       		.byte	0x59
 10592 0e42 22000000 		.4byte	.LVL165
 10593 0e46 32000000 		.4byte	.LVL167
 10594 0e4a 0300     		.2byte	0x3
 10595 0e4c 79       		.byte	0x79
 10596 0e4d 7F       		.sleb128 -1
 10597 0e4e 9F       		.byte	0x9f
 10598 0e4f 32000000 		.4byte	.LVL167
 10599 0e53 4C000000 		.4byte	.LVL170
 10600 0e57 0100     		.2byte	0x1
 10601 0e59 59       		.byte	0x59
 10602 0e5a 4C000000 		.4byte	.LVL170
 10603 0e5e 5C000000 		.4byte	.LVL172
 10604 0e62 0300     		.2byte	0x3
 10605 0e64 79       		.byte	0x79
 10606 0e65 7F       		.sleb128 -1
 10607 0e66 9F       		.byte	0x9f
 10608 0e67 5C000000 		.4byte	.LVL172
 10609 0e6b 7E000000 		.4byte	.LFE4
ARM GAS  C:\Users\jo\AppData\Local\Temp\ccwlN2BW.s 			page 188


 10610 0e6f 0100     		.2byte	0x1
 10611 0e71 59       		.byte	0x59
 10612 0e72 00000000 		.4byte	0
 10613 0e76 00000000 		.4byte	0
 10614              	.LLST44:
 10615 0e7a 00000000 		.4byte	.LVL160
 10616 0e7e 06000000 		.4byte	.LVL161
 10617 0e82 0200     		.2byte	0x2
 10618 0e84 91       		.byte	0x91
 10619 0e85 08       		.sleb128 8
 10620 0e86 06000000 		.4byte	.LVL161
 10621 0e8a 10000000 		.4byte	.LVL162
 10622 0e8e 0200     		.2byte	0x2
 10623 0e90 76       		.byte	0x76
 10624 0e91 08       		.sleb128 8
 10625 0e92 10000000 		.4byte	.LVL162
 10626 0e96 12000000 		.4byte	.LVL163
 10627 0e9a 0200     		.2byte	0x2
 10628 0e9c 91       		.byte	0x91
 10629 0e9d 08       		.sleb128 8
 10630 0e9e 4C000000 		.4byte	.LVL170
 10631 0ea2 56000000 		.4byte	.LVL171
 10632 0ea6 0300     		.2byte	0x3
 10633 0ea8 7A       		.byte	0x7a
 10634 0ea9 01       		.sleb128 1
 10635 0eaa 9F       		.byte	0x9f
 10636 0eab 56000000 		.4byte	.LVL171
 10637 0eaf 62000000 		.4byte	.LVL174
 10638 0eb3 0100     		.2byte	0x1
 10639 0eb5 5A       		.byte	0x5a
 10640 0eb6 00000000 		.4byte	0
 10641 0eba 00000000 		.4byte	0
 10642              	.LLST45:
 10643 0ebe 4C000000 		.4byte	.LVL170
 10644 0ec2 62000000 		.4byte	.LVL174
 10645 0ec6 0600     		.2byte	0x6
 10646 0ec8 72       		.byte	0x72
 10647 0ec9 00       		.sleb128 0
 10648 0eca 08       		.byte	0x8
 10649 0ecb FF       		.byte	0xff
 10650 0ecc 1A       		.byte	0x1a
 10651 0ecd 9F       		.byte	0x9f
 10652 0ece 00000000 		.4byte	0
 10653 0ed2 00000000 		.4byte	0
 10654              	.LLST46:
 10655 0ed6 00000000 		.4byte	.LVL178
 10656 0eda 1A000000 		.4byte	.LVL181
 10657 0ede 0100     		.2byte	0x1
 10658 0ee0 50       		.byte	0x50
 10659 0ee1 1A000000 		.4byte	.LVL181
 10660 0ee5 34000000 		.4byte	.LVL188
 10661 0ee9 0100     		.2byte	0x1
 10662 0eeb 59       		.byte	0x59
 10663 0eec 34000000 		.4byte	.LVL188
 10664 0ef0 3E000000 		.4byte	.LVL189
 10665 0ef4 0400     		.2byte	0x4
 10666 0ef6 F3       		.byte	0xf3
ARM GAS  C:\Users\jo\AppData\Local\Temp\ccwlN2BW.s 			page 189


 10667 0ef7 01       		.uleb128 0x1
 10668 0ef8 50       		.byte	0x50
 10669 0ef9 9F       		.byte	0x9f
 10670 0efa 3E000000 		.4byte	.LVL189
 10671 0efe 62000000 		.4byte	.LFE5
 10672 0f02 0100     		.2byte	0x1
 10673 0f04 59       		.byte	0x59
 10674 0f05 00000000 		.4byte	0
 10675 0f09 00000000 		.4byte	0
 10676              	.LLST47:
 10677 0f0d 00000000 		.4byte	.LVL178
 10678 0f11 10000000 		.4byte	.LVL180
 10679 0f15 0100     		.2byte	0x1
 10680 0f17 51       		.byte	0x51
 10681 0f18 10000000 		.4byte	.LVL180
 10682 0f1c 1A000000 		.4byte	.LVL181
 10683 0f20 0300     		.2byte	0x3
 10684 0f22 71       		.byte	0x71
 10685 0f23 7F       		.sleb128 -1
 10686 0f24 9F       		.byte	0x9f
 10687 0f25 1A000000 		.4byte	.LVL181
 10688 0f29 2A000000 		.4byte	.LVL185
 10689 0f2d 0300     		.2byte	0x3
 10690 0f2f 75       		.byte	0x75
 10691 0f30 7F       		.sleb128 -1
 10692 0f31 9F       		.byte	0x9f
 10693 0f32 2A000000 		.4byte	.LVL185
 10694 0f36 32000000 		.4byte	.LVL187
 10695 0f3a 0100     		.2byte	0x1
 10696 0f3c 55       		.byte	0x55
 10697 0f3d 3E000000 		.4byte	.LVL189
 10698 0f41 62000000 		.4byte	.LFE5
 10699 0f45 0300     		.2byte	0x3
 10700 0f47 75       		.byte	0x75
 10701 0f48 7F       		.sleb128 -1
 10702 0f49 9F       		.byte	0x9f
 10703 0f4a 00000000 		.4byte	0
 10704 0f4e 00000000 		.4byte	0
 10705              	.LLST48:
 10706 0f52 00000000 		.4byte	.LVL178
 10707 0f56 1A000000 		.4byte	.LVL181
 10708 0f5a 0100     		.2byte	0x1
 10709 0f5c 52       		.byte	0x52
 10710 0f5d 1A000000 		.4byte	.LVL181
 10711 0f61 62000000 		.4byte	.LFE5
 10712 0f65 0100     		.2byte	0x1
 10713 0f67 5A       		.byte	0x5a
 10714 0f68 00000000 		.4byte	0
 10715 0f6c 00000000 		.4byte	0
 10716              	.LLST49:
 10717 0f70 00000000 		.4byte	.LVL178
 10718 0f74 1A000000 		.4byte	.LVL181
 10719 0f78 0100     		.2byte	0x1
 10720 0f7a 53       		.byte	0x53
 10721 0f7b 1A000000 		.4byte	.LVL181
 10722 0f7f 34000000 		.4byte	.LVL188
 10723 0f83 0100     		.2byte	0x1
ARM GAS  C:\Users\jo\AppData\Local\Temp\ccwlN2BW.s 			page 190


 10724 0f85 56       		.byte	0x56
 10725 0f86 34000000 		.4byte	.LVL188
 10726 0f8a 3E000000 		.4byte	.LVL189
 10727 0f8e 0400     		.2byte	0x4
 10728 0f90 F3       		.byte	0xf3
 10729 0f91 01       		.uleb128 0x1
 10730 0f92 53       		.byte	0x53
 10731 0f93 9F       		.byte	0x9f
 10732 0f94 3E000000 		.4byte	.LVL189
 10733 0f98 62000000 		.4byte	.LFE5
 10734 0f9c 0100     		.2byte	0x1
 10735 0f9e 56       		.byte	0x56
 10736 0f9f 00000000 		.4byte	0
 10737 0fa3 00000000 		.4byte	0
 10738              	.LLST50:
 10739 0fa7 00000000 		.4byte	.LVL178
 10740 0fab 3E000000 		.4byte	.LVL189
 10741 0faf 0200     		.2byte	0x2
 10742 0fb1 91       		.byte	0x91
 10743 0fb2 00       		.sleb128 0
 10744 0fb3 3E000000 		.4byte	.LVL189
 10745 0fb7 62000000 		.4byte	.LFE5
 10746 0fbb 0200     		.2byte	0x2
 10747 0fbd 91       		.byte	0x91
 10748 0fbe 00       		.sleb128 0
 10749 0fbf 00000000 		.4byte	0
 10750 0fc3 00000000 		.4byte	0
 10751              	.LLST51:
 10752 0fc7 00000000 		.4byte	.LVL178
 10753 0fcb 10000000 		.4byte	.LVL180
 10754 0fcf 0200     		.2byte	0x2
 10755 0fd1 91       		.byte	0x91
 10756 0fd2 04       		.sleb128 4
 10757 0fd3 10000000 		.4byte	.LVL180
 10758 0fd7 24000000 		.4byte	.LVL183
 10759 0fdb 0100     		.2byte	0x1
 10760 0fdd 57       		.byte	0x57
 10761 0fde 24000000 		.4byte	.LVL183
 10762 0fe2 32000000 		.4byte	.LVL187
 10763 0fe6 0300     		.2byte	0x3
 10764 0fe8 77       		.byte	0x77
 10765 0fe9 7F       		.sleb128 -1
 10766 0fea 9F       		.byte	0x9f
 10767 0feb 32000000 		.4byte	.LVL187
 10768 0fef 4E000000 		.4byte	.LVL191
 10769 0ff3 0100     		.2byte	0x1
 10770 0ff5 57       		.byte	0x57
 10771 0ff6 00000000 		.4byte	0
 10772 0ffa 00000000 		.4byte	0
 10773              	.LLST52:
 10774 0ffe 00000000 		.4byte	.LVL178
 10775 1002 10000000 		.4byte	.LVL180
 10776 1006 0200     		.2byte	0x2
 10777 1008 91       		.byte	0x91
 10778 1009 08       		.sleb128 8
 10779 100a 10000000 		.4byte	.LVL180
 10780 100e 4E000000 		.4byte	.LVL191
ARM GAS  C:\Users\jo\AppData\Local\Temp\ccwlN2BW.s 			page 191


 10781 1012 0100     		.2byte	0x1
 10782 1014 58       		.byte	0x58
 10783 1015 00000000 		.4byte	0
 10784 1019 00000000 		.4byte	0
 10785              	.LLST53:
 10786 101d 1C000000 		.4byte	.LVL182
 10787 1021 24000000 		.4byte	.LVL183
 10788 1025 0800     		.2byte	0x8
 10789 1027 77       		.byte	0x77
 10790 1028 7F       		.sleb128 -1
 10791 1029 94       		.byte	0x94
 10792 102a 01       		.byte	0x1
 10793 102b 08       		.byte	0x8
 10794 102c FF       		.byte	0xff
 10795 102d 1A       		.byte	0x1a
 10796 102e 9F       		.byte	0x9f
 10797 102f 24000000 		.4byte	.LVL183
 10798 1033 32000000 		.4byte	.LVL187
 10799 1037 0800     		.2byte	0x8
 10800 1039 77       		.byte	0x77
 10801 103a 7E       		.sleb128 -2
 10802 103b 94       		.byte	0x94
 10803 103c 01       		.byte	0x1
 10804 103d 08       		.byte	0x8
 10805 103e FF       		.byte	0xff
 10806 103f 1A       		.byte	0x1a
 10807 1040 9F       		.byte	0x9f
 10808 1041 00000000 		.4byte	0
 10809 1045 00000000 		.4byte	0
 10810              	.LLST54:
 10811 1049 4A000000 		.4byte	.LVL190
 10812 104d 4E000000 		.4byte	.LVL191
 10813 1051 0200     		.2byte	0x2
 10814 1053 40       		.byte	0x40
 10815 1054 9F       		.byte	0x9f
 10816 1055 52000000 		.4byte	.LVL192
 10817 1059 62000000 		.4byte	.LFE5
 10818 105d 0600     		.2byte	0x6
 10819 105f 72       		.byte	0x72
 10820 1060 00       		.sleb128 0
 10821 1061 76       		.byte	0x76
 10822 1062 00       		.sleb128 0
 10823 1063 1C       		.byte	0x1c
 10824 1064 9F       		.byte	0x9f
 10825 1065 00000000 		.4byte	0
 10826 1069 00000000 		.4byte	0
 10827              	.LLST55:
 10828 106d 0A000000 		.4byte	.LVL179
 10829 1071 26000000 		.4byte	.LVL184
 10830 1075 0100     		.2byte	0x1
 10831 1077 54       		.byte	0x54
 10832 1078 26000000 		.4byte	.LVL184
 10833 107c 2E000000 		.4byte	.LVL186
 10834 1080 0300     		.2byte	0x3
 10835 1082 74       		.byte	0x74
 10836 1083 7F       		.sleb128 -1
 10837 1084 9F       		.byte	0x9f
ARM GAS  C:\Users\jo\AppData\Local\Temp\ccwlN2BW.s 			page 192


 10838 1085 2E000000 		.4byte	.LVL186
 10839 1089 62000000 		.4byte	.LFE5
 10840 108d 0100     		.2byte	0x1
 10841 108f 54       		.byte	0x54
 10842 1090 00000000 		.4byte	0
 10843 1094 00000000 		.4byte	0
 10844              	.LLST56:
 10845 1098 00000000 		.4byte	.LVL193
 10846 109c 26000000 		.4byte	.LVL194
 10847 10a0 0100     		.2byte	0x1
 10848 10a2 50       		.byte	0x50
 10849 10a3 26000000 		.4byte	.LVL194
 10850 10a7 54040000 		.4byte	.LVL278
 10851 10ab 0100     		.2byte	0x1
 10852 10ad 5B       		.byte	0x5b
 10853 10ae 54040000 		.4byte	.LVL278
 10854 10b2 68040000 		.4byte	.LFE6
 10855 10b6 0400     		.2byte	0x4
 10856 10b8 F3       		.byte	0xf3
 10857 10b9 01       		.uleb128 0x1
 10858 10ba 50       		.byte	0x50
 10859 10bb 9F       		.byte	0x9f
 10860 10bc 00000000 		.4byte	0
 10861 10c0 00000000 		.4byte	0
 10862              	.LLST57:
 10863 10c4 26000000 		.4byte	.LVL194
 10864 10c8 A2000000 		.4byte	.LVL205
 10865 10cc 0100     		.2byte	0x1
 10866 10ce 56       		.byte	0x56
 10867 10cf A2000000 		.4byte	.LVL205
 10868 10d3 AA000000 		.4byte	.LVL207
 10869 10d7 0200     		.2byte	0x2
 10870 10d9 30       		.byte	0x30
 10871 10da 9F       		.byte	0x9f
 10872 10db AA000000 		.4byte	.LVL207
 10873 10df 44010000 		.4byte	.LVL218
 10874 10e3 0100     		.2byte	0x1
 10875 10e5 58       		.byte	0x58
 10876 10e6 44010000 		.4byte	.LVL218
 10877 10ea 48010000 		.4byte	.LVL219
 10878 10ee 0200     		.2byte	0x2
 10879 10f0 30       		.byte	0x30
 10880 10f1 9F       		.byte	0x9f
 10881 10f2 48010000 		.4byte	.LVL219
 10882 10f6 9C010000 		.4byte	.LVL225
 10883 10fa 0100     		.2byte	0x1
 10884 10fc 58       		.byte	0x58
 10885 10fd 9C010000 		.4byte	.LVL225
 10886 1101 F6010000 		.4byte	.LVL228
 10887 1105 0300     		.2byte	0x3
 10888 1107 78       		.byte	0x78
 10889 1108 7F       		.sleb128 -1
 10890 1109 9F       		.byte	0x9f
 10891 110a F6010000 		.4byte	.LVL228
 10892 110e 04020000 		.4byte	.LVL229
 10893 1112 0100     		.2byte	0x1
 10894 1114 58       		.byte	0x58
ARM GAS  C:\Users\jo\AppData\Local\Temp\ccwlN2BW.s 			page 193


 10895 1115 04020000 		.4byte	.LVL229
 10896 1119 0C020000 		.4byte	.LVL230
 10897 111d 0200     		.2byte	0x2
 10898 111f 30       		.byte	0x30
 10899 1120 9F       		.byte	0x9f
 10900 1121 0C020000 		.4byte	.LVL230
 10901 1125 24020000 		.4byte	.LVL232
 10902 1129 0100     		.2byte	0x1
 10903 112b 58       		.byte	0x58
 10904 112c 24020000 		.4byte	.LVL232
 10905 1130 A4020000 		.4byte	.LVL239
 10906 1134 0300     		.2byte	0x3
 10907 1136 78       		.byte	0x78
 10908 1137 7F       		.sleb128 -1
 10909 1138 9F       		.byte	0x9f
 10910 1139 A4020000 		.4byte	.LVL239
 10911 113d 06030000 		.4byte	.LVL248
 10912 1141 0100     		.2byte	0x1
 10913 1143 58       		.byte	0x58
 10914 1144 16030000 		.4byte	.LVL249
 10915 1148 80030000 		.4byte	.LVL254
 10916 114c 0100     		.2byte	0x1
 10917 114e 56       		.byte	0x56
 10918 114f 80030000 		.4byte	.LVL254
 10919 1153 10040000 		.4byte	.LVL264
 10920 1157 0300     		.2byte	0x3
 10921 1159 78       		.byte	0x78
 10922 115a 7F       		.sleb128 -1
 10923 115b 9F       		.byte	0x9f
 10924 115c 10040000 		.4byte	.LVL264
 10925 1160 18040000 		.4byte	.LVL266
 10926 1164 0100     		.2byte	0x1
 10927 1166 56       		.byte	0x56
 10928 1167 18040000 		.4byte	.LVL266
 10929 116b 36040000 		.4byte	.LVL272
 10930 116f 0100     		.2byte	0x1
 10931 1171 58       		.byte	0x58
 10932 1172 36040000 		.4byte	.LVL272
 10933 1176 3E040000 		.4byte	.LVL274
 10934 117a 0100     		.2byte	0x1
 10935 117c 56       		.byte	0x56
 10936 117d 3E040000 		.4byte	.LVL274
 10937 1181 46040000 		.4byte	.LVL276
 10938 1185 0100     		.2byte	0x1
 10939 1187 58       		.byte	0x58
 10940 1188 00000000 		.4byte	0
 10941 118c 00000000 		.4byte	0
 10942              	.LLST58:
 10943 1190 64000000 		.4byte	.LVL198
 10944 1194 68000000 		.4byte	.LVL199
 10945 1198 0200     		.2byte	0x2
 10946 119a 30       		.byte	0x30
 10947 119b 9F       		.byte	0x9f
 10948 119c 68000000 		.4byte	.LVL199
 10949 11a0 74000000 		.4byte	.LVL200
 10950 11a4 0700     		.2byte	0x7
 10951 11a6 0A       		.byte	0xa
ARM GAS  C:\Users\jo\AppData\Local\Temp\ccwlN2BW.s 			page 194


 10952 11a7 1027     		.2byte	0x2710
 10953 11a9 75       		.byte	0x75
 10954 11aa 00       		.sleb128 0
 10955 11ab 1C       		.byte	0x1c
 10956 11ac 9F       		.byte	0x9f
 10957 11ad 74000000 		.4byte	.LVL200
 10958 11b1 76000000 		.4byte	.LVL201
 10959 11b5 0700     		.2byte	0x7
 10960 11b7 0A       		.byte	0xa
 10961 11b8 1127     		.2byte	0x2711
 10962 11ba 75       		.byte	0x75
 10963 11bb 00       		.sleb128 0
 10964 11bc 1C       		.byte	0x1c
 10965 11bd 9F       		.byte	0x9f
 10966 11be 76000000 		.4byte	.LVL201
 10967 11c2 7A000000 		.4byte	.LVL202
 10968 11c6 0700     		.2byte	0x7
 10969 11c8 0A       		.byte	0xa
 10970 11c9 1027     		.2byte	0x2710
 10971 11cb 75       		.byte	0x75
 10972 11cc 00       		.sleb128 0
 10973 11cd 1C       		.byte	0x1c
 10974 11ce 9F       		.byte	0x9f
 10975 11cf FE000000 		.4byte	.LVL211
 10976 11d3 02010000 		.4byte	.LVL212
 10977 11d7 0200     		.2byte	0x2
 10978 11d9 30       		.byte	0x30
 10979 11da 9F       		.byte	0x9f
 10980 11db 02010000 		.4byte	.LVL212
 10981 11df 12010000 		.4byte	.LVL213
 10982 11e3 0700     		.2byte	0x7
 10983 11e5 0A       		.byte	0xa
 10984 11e6 1027     		.2byte	0x2710
 10985 11e8 76       		.byte	0x76
 10986 11e9 00       		.sleb128 0
 10987 11ea 1C       		.byte	0x1c
 10988 11eb 9F       		.byte	0x9f
 10989 11ec 12010000 		.4byte	.LVL213
 10990 11f0 14010000 		.4byte	.LVL214
 10991 11f4 0700     		.2byte	0x7
 10992 11f6 0A       		.byte	0xa
 10993 11f7 1127     		.2byte	0x2711
 10994 11f9 76       		.byte	0x76
 10995 11fa 00       		.sleb128 0
 10996 11fb 1C       		.byte	0x1c
 10997 11fc 9F       		.byte	0x9f
 10998 11fd 14010000 		.4byte	.LVL214
 10999 1201 2A010000 		.4byte	.LVL216
 11000 1205 0700     		.2byte	0x7
 11001 1207 0A       		.byte	0xa
 11002 1208 1027     		.2byte	0x2710
 11003 120a 76       		.byte	0x76
 11004 120b 00       		.sleb128 0
 11005 120c 1C       		.byte	0x1c
 11006 120d 9F       		.byte	0x9f
 11007 120e BE020000 		.4byte	.LVL241
 11008 1212 C4020000 		.4byte	.LVL243
ARM GAS  C:\Users\jo\AppData\Local\Temp\ccwlN2BW.s 			page 195


 11009 1216 0200     		.2byte	0x2
 11010 1218 30       		.byte	0x30
 11011 1219 9F       		.byte	0x9f
 11012 121a C4020000 		.4byte	.LVL243
 11013 121e EC020000 		.4byte	.LVL245
 11014 1222 0700     		.2byte	0x7
 11015 1224 0A       		.byte	0xa
 11016 1225 1027     		.2byte	0x2710
 11017 1227 79       		.byte	0x79
 11018 1228 00       		.sleb128 0
 11019 1229 1C       		.byte	0x1c
 11020 122a 9F       		.byte	0x9f
 11021 122b EC020000 		.4byte	.LVL245
 11022 122f F0020000 		.4byte	.LVL246
 11023 1233 0700     		.2byte	0x7
 11024 1235 0A       		.byte	0xa
 11025 1236 0F27     		.2byte	0x270f
 11026 1238 79       		.byte	0x79
 11027 1239 00       		.sleb128 0
 11028 123a 1C       		.byte	0x1c
 11029 123b 9F       		.byte	0x9f
 11030 123c 1A030000 		.4byte	.LVL250
 11031 1240 1E030000 		.4byte	.LVL251
 11032 1244 0200     		.2byte	0x2
 11033 1246 30       		.byte	0x30
 11034 1247 9F       		.byte	0x9f
 11035 1248 1E030000 		.4byte	.LVL251
 11036 124c 2A030000 		.4byte	.LVL252
 11037 1250 0700     		.2byte	0x7
 11038 1252 0A       		.byte	0xa
 11039 1253 1027     		.2byte	0x2710
 11040 1255 75       		.byte	0x75
 11041 1256 00       		.sleb128 0
 11042 1257 1C       		.byte	0x1c
 11043 1258 9F       		.byte	0x9f
 11044 1259 2A030000 		.4byte	.LVL252
 11045 125d 2C030000 		.4byte	.LVL253
 11046 1261 0700     		.2byte	0x7
 11047 1263 0A       		.byte	0xa
 11048 1264 1127     		.2byte	0x2711
 11049 1266 75       		.byte	0x75
 11050 1267 00       		.sleb128 0
 11051 1268 1C       		.byte	0x1c
 11052 1269 9F       		.byte	0x9f
 11053 126a 2C030000 		.4byte	.LVL253
 11054 126e 80030000 		.4byte	.LVL254
 11055 1272 0700     		.2byte	0x7
 11056 1274 0A       		.byte	0xa
 11057 1275 1027     		.2byte	0x2710
 11058 1277 75       		.byte	0x75
 11059 1278 00       		.sleb128 0
 11060 1279 1C       		.byte	0x1c
 11061 127a 9F       		.byte	0x9f
 11062 127b 00000000 		.4byte	0
 11063 127f 00000000 		.4byte	0
 11064              	.LLST59:
 11065 1283 28000000 		.4byte	.LVL195
ARM GAS  C:\Users\jo\AppData\Local\Temp\ccwlN2BW.s 			page 196


 11066 1287 A8000000 		.4byte	.LVL206
 11067 128b 0100     		.2byte	0x1
 11068 128d 57       		.byte	0x57
 11069 128e A8000000 		.4byte	.LVL206
 11070 1292 AA000000 		.4byte	.LVL207
 11071 1296 0500     		.2byte	0x5
 11072 1298 76       		.byte	0x76
 11073 1299 7F       		.sleb128 -1
 11074 129a 31       		.byte	0x31
 11075 129b 26       		.byte	0x26
 11076 129c 9F       		.byte	0x9f
 11077 129d AE000000 		.4byte	.LVL208
 11078 12a1 48010000 		.4byte	.LVL219
 11079 12a5 0100     		.2byte	0x1
 11080 12a7 5A       		.byte	0x5a
 11081 12a8 4C010000 		.4byte	.LVL220
 11082 12ac 0C020000 		.4byte	.LVL230
 11083 12b0 0100     		.2byte	0x1
 11084 12b2 59       		.byte	0x59
 11085 12b3 1A020000 		.4byte	.LVL231
 11086 12b7 06030000 		.4byte	.LVL248
 11087 12bb 0100     		.2byte	0x1
 11088 12bd 5A       		.byte	0x5a
 11089 12be 16030000 		.4byte	.LVL249
 11090 12c2 80030000 		.4byte	.LVL254
 11091 12c6 0100     		.2byte	0x1
 11092 12c8 57       		.byte	0x57
 11093 12c9 80030000 		.4byte	.LVL254
 11094 12cd C8030000 		.4byte	.LVL258
 11095 12d1 0100     		.2byte	0x1
 11096 12d3 59       		.byte	0x59
 11097 12d4 C8030000 		.4byte	.LVL258
 11098 12d8 10040000 		.4byte	.LVL264
 11099 12dc 0100     		.2byte	0x1
 11100 12de 5A       		.byte	0x5a
 11101 12df 10040000 		.4byte	.LVL264
 11102 12e3 18040000 		.4byte	.LVL266
 11103 12e7 0100     		.2byte	0x1
 11104 12e9 57       		.byte	0x57
 11105 12ea 18040000 		.4byte	.LVL266
 11106 12ee 2E040000 		.4byte	.LVL270
 11107 12f2 0100     		.2byte	0x1
 11108 12f4 5A       		.byte	0x5a
 11109 12f5 2E040000 		.4byte	.LVL270
 11110 12f9 36040000 		.4byte	.LVL272
 11111 12fd 0100     		.2byte	0x1
 11112 12ff 59       		.byte	0x59
 11113 1300 36040000 		.4byte	.LVL272
 11114 1304 3E040000 		.4byte	.LVL274
 11115 1308 0100     		.2byte	0x1
 11116 130a 57       		.byte	0x57
 11117 130b 3E040000 		.4byte	.LVL274
 11118 130f 46040000 		.4byte	.LVL276
 11119 1313 0100     		.2byte	0x1
 11120 1315 5A       		.byte	0x5a
 11121 1316 00000000 		.4byte	0
 11122 131a 00000000 		.4byte	0
ARM GAS  C:\Users\jo\AppData\Local\Temp\ccwlN2BW.s 			page 197


 11123              	.LLST60:
 11124 131e 2E000000 		.4byte	.LVL196
 11125 1322 AA000000 		.4byte	.LVL207
 11126 1326 0100     		.2byte	0x1
 11127 1328 5A       		.byte	0x5a
 11128 1329 B6000000 		.4byte	.LVL209
 11129 132d 2A010000 		.4byte	.LVL216
 11130 1331 0100     		.2byte	0x1
 11131 1333 59       		.byte	0x59
 11132 1334 2A010000 		.4byte	.LVL216
 11133 1338 36010000 		.4byte	.LVL217
 11134 133c 0500     		.2byte	0x5
 11135 133e 78       		.byte	0x78
 11136 133f 00       		.sleb128 0
 11137 1340 31       		.byte	0x31
 11138 1341 1A       		.byte	0x1a
 11139 1342 9F       		.byte	0x9f
 11140 1343 36010000 		.4byte	.LVL217
 11141 1347 48010000 		.4byte	.LVL219
 11142 134b 0500     		.2byte	0x5
 11143 134d 78       		.byte	0x78
 11144 134e 7F       		.sleb128 -1
 11145 134f 31       		.byte	0x31
 11146 1350 1A       		.byte	0x1a
 11147 1351 9F       		.byte	0x9f
 11148 1352 5C010000 		.4byte	.LVL221
 11149 1356 0C020000 		.4byte	.LVL230
 11150 135a 0100     		.2byte	0x1
 11151 135c 5A       		.byte	0x5a
 11152 135d 1A020000 		.4byte	.LVL231
 11153 1361 74020000 		.4byte	.LVL235
 11154 1365 0100     		.2byte	0x1
 11155 1367 56       		.byte	0x56
 11156 1368 74020000 		.4byte	.LVL235
 11157 136c BA020000 		.4byte	.LVL240
 11158 1370 0500     		.2byte	0x5
 11159 1372 78       		.byte	0x78
 11160 1373 7F       		.sleb128 -1
 11161 1374 31       		.byte	0x31
 11162 1375 1A       		.byte	0x1a
 11163 1376 9F       		.byte	0x9f
 11164 1377 BA020000 		.4byte	.LVL240
 11165 137b C2020000 		.4byte	.LVL242
 11166 137f 0100     		.2byte	0x1
 11167 1381 59       		.byte	0x59
 11168 1382 C2020000 		.4byte	.LVL242
 11169 1386 06030000 		.4byte	.LVL248
 11170 138a 0500     		.2byte	0x5
 11171 138c 78       		.byte	0x78
 11172 138d 00       		.sleb128 0
 11173 138e 31       		.byte	0x31
 11174 138f 1A       		.byte	0x1a
 11175 1390 9F       		.byte	0x9f
 11176 1391 16030000 		.4byte	.LVL249
 11177 1395 C8030000 		.4byte	.LVL258
 11178 1399 0100     		.2byte	0x1
 11179 139b 5A       		.byte	0x5a
ARM GAS  C:\Users\jo\AppData\Local\Temp\ccwlN2BW.s 			page 198


 11180 139c C8030000 		.4byte	.LVL258
 11181 13a0 08040000 		.4byte	.LVL262
 11182 13a4 0100     		.2byte	0x1
 11183 13a6 56       		.byte	0x56
 11184 13a7 08040000 		.4byte	.LVL262
 11185 13ab 10040000 		.4byte	.LVL264
 11186 13af 0500     		.2byte	0x5
 11187 13b1 78       		.byte	0x78
 11188 13b2 7F       		.sleb128 -1
 11189 13b3 31       		.byte	0x31
 11190 13b4 1A       		.byte	0x1a
 11191 13b5 9F       		.byte	0x9f
 11192 13b6 10040000 		.4byte	.LVL264
 11193 13ba 18040000 		.4byte	.LVL266
 11194 13be 0100     		.2byte	0x1
 11195 13c0 5A       		.byte	0x5a
 11196 13c1 18040000 		.4byte	.LVL266
 11197 13c5 20040000 		.4byte	.LVL268
 11198 13c9 0500     		.2byte	0x5
 11199 13cb 78       		.byte	0x78
 11200 13cc 00       		.sleb128 0
 11201 13cd 31       		.byte	0x31
 11202 13ce 1A       		.byte	0x1a
 11203 13cf 9F       		.byte	0x9f
 11204 13d0 20040000 		.4byte	.LVL268
 11205 13d4 2E040000 		.4byte	.LVL270
 11206 13d8 0500     		.2byte	0x5
 11207 13da 78       		.byte	0x78
 11208 13db 7F       		.sleb128 -1
 11209 13dc 31       		.byte	0x31
 11210 13dd 1A       		.byte	0x1a
 11211 13de 9F       		.byte	0x9f
 11212 13df 2E040000 		.4byte	.LVL270
 11213 13e3 3E040000 		.4byte	.LVL274
 11214 13e7 0100     		.2byte	0x1
 11215 13e9 5A       		.byte	0x5a
 11216 13ea 3E040000 		.4byte	.LVL274
 11217 13ee 46040000 		.4byte	.LVL276
 11218 13f2 0500     		.2byte	0x5
 11219 13f4 78       		.byte	0x78
 11220 13f5 7F       		.sleb128 -1
 11221 13f6 31       		.byte	0x31
 11222 13f7 1A       		.byte	0x1a
 11223 13f8 9F       		.byte	0x9f
 11224 13f9 00000000 		.4byte	0
 11225 13fd 00000000 		.4byte	0
 11226              	.LLST61:
 11227 1401 5A020000 		.4byte	.LVL234
 11228 1405 BA020000 		.4byte	.LVL240
 11229 1409 0A00     		.2byte	0xa
 11230 140b 7A       		.byte	0x7a
 11231 140c 00       		.sleb128 0
 11232 140d 32       		.byte	0x32
 11233 140e 24       		.byte	0x24
 11234 140f 03       		.byte	0x3
 11235 1410 00000000 		.4byte	aes_test_ctr_len
 11236 1414 22       		.byte	0x22
ARM GAS  C:\Users\jo\AppData\Local\Temp\ccwlN2BW.s 			page 199


 11237 1415 C8030000 		.4byte	.LVL258
 11238 1419 10040000 		.4byte	.LVL264
 11239 141d 0A00     		.2byte	0xa
 11240 141f 7A       		.byte	0x7a
 11241 1420 00       		.sleb128 0
 11242 1421 32       		.byte	0x32
 11243 1422 24       		.byte	0x24
 11244 1423 03       		.byte	0x3
 11245 1424 00000000 		.4byte	aes_test_ctr_len
 11246 1428 22       		.byte	0x22
 11247 1429 20040000 		.4byte	.LVL268
 11248 142d 2E040000 		.4byte	.LVL270
 11249 1431 0A00     		.2byte	0xa
 11250 1433 7A       		.byte	0x7a
 11251 1434 00       		.sleb128 0
 11252 1435 32       		.byte	0x32
 11253 1436 24       		.byte	0x24
 11254 1437 03       		.byte	0x3
 11255 1438 00000000 		.4byte	aes_test_ctr_len
 11256 143c 22       		.byte	0x22
 11257 143d 00000000 		.4byte	0
 11258 1441 00000000 		.4byte	0
 11259              		.section	.debug_aranges,"",%progbits
 11260 0000 4C000000 		.4byte	0x4c
 11261 0004 0200     		.2byte	0x2
 11262 0006 00000000 		.4byte	.Ldebug_info0
 11263 000a 04       		.byte	0x4
 11264 000b 00       		.byte	0
 11265 000c 0000     		.2byte	0
 11266 000e 0000     		.2byte	0
 11267 0010 00000000 		.4byte	.LFB0
 11268 0014 04020000 		.4byte	.LFE0-.LFB0
 11269 0018 00000000 		.4byte	.LFB1
 11270 001c 38010000 		.4byte	.LFE1-.LFB1
 11271 0020 00000000 		.4byte	.LFB2
 11272 0024 A8080000 		.4byte	.LFE2-.LFB2
 11273 0028 00000000 		.4byte	.LFB3
 11274 002c D4000000 		.4byte	.LFE3-.LFB3
 11275 0030 00000000 		.4byte	.LFB4
 11276 0034 7E000000 		.4byte	.LFE4-.LFB4
 11277 0038 00000000 		.4byte	.LFB5
 11278 003c 62000000 		.4byte	.LFE5-.LFB5
 11279 0040 00000000 		.4byte	.LFB6
 11280 0044 68040000 		.4byte	.LFE6-.LFB6
 11281 0048 00000000 		.4byte	0
 11282 004c 00000000 		.4byte	0
 11283              		.section	.debug_ranges,"",%progbits
 11284              	.Ldebug_ranges0:
 11285 0000 C4020000 		.4byte	.LBB6
 11286 0004 E8020000 		.4byte	.LBE6
 11287 0008 EC020000 		.4byte	.LBB7
 11288 000c F0020000 		.4byte	.LBE7
 11289 0010 00000000 		.4byte	0
 11290 0014 00000000 		.4byte	0
 11291 0018 00000000 		.4byte	.LFB0
 11292 001c 04020000 		.4byte	.LFE0
 11293 0020 00000000 		.4byte	.LFB1
ARM GAS  C:\Users\jo\AppData\Local\Temp\ccwlN2BW.s 			page 200


 11294 0024 38010000 		.4byte	.LFE1
 11295 0028 00000000 		.4byte	.LFB2
 11296 002c A8080000 		.4byte	.LFE2
 11297 0030 00000000 		.4byte	.LFB3
 11298 0034 D4000000 		.4byte	.LFE3
 11299 0038 00000000 		.4byte	.LFB4
 11300 003c 7E000000 		.4byte	.LFE4
 11301 0040 00000000 		.4byte	.LFB5
 11302 0044 62000000 		.4byte	.LFE5
 11303 0048 00000000 		.4byte	.LFB6
 11304 004c 68040000 		.4byte	.LFE6
 11305 0050 00000000 		.4byte	0
 11306 0054 00000000 		.4byte	0
 11307              		.section	.debug_line,"",%progbits
 11308              	.Ldebug_line0:
 11309 0000 EA070000 		.section	.debug_str,"MS",%progbits,1
 11309      0200DE01 
 11309      00000201 
 11309      FB0E0D00 
 11309      01010101 
 11310              	.LASF48:
 11311 0000 7072696E 		.ascii	"printf\000"
 11311      746600
 11312              	.LASF6:
 11313 0007 73697A65 		.ascii	"size_t\000"
 11313      5F7400
 11314              	.LASF39:
 11315 000e 6165735F 		.ascii	"aes_test_cfb128_iv\000"
 11315      74657374 
 11315      5F636662 
 11315      3132385F 
 11315      697600
 11316              	.LASF29:
 11317 0021 73747265 		.ascii	"stream_block\000"
 11317      616D5F62 
 11317      6C6F636B 
 11317      00
 11318              	.LASF10:
 11319 002e 6C6F6E67 		.ascii	"long long unsigned int\000"
 11319      206C6F6E 
 11319      6720756E 
 11319      7369676E 
 11319      65642069 
 11320              	.LASF27:
 11321 0045 6E635F6F 		.ascii	"nc_off\000"
 11321      666600
 11322              	.LASF25:
 11323 004c 69765F6F 		.ascii	"iv_off\000"
 11323      666600
 11324              	.LASF55:
 11325 0053 433A5C55 		.ascii	"C:\\Users\\jo\\Documents\\GitHub\\ChibiOS\\demos\\S"
 11325      73657273 
 11325      5C6A6F5C 
 11325      446F6375 
 11325      6D656E74 
 11326 007f 544D3332 		.ascii	"TM32\\RT-STM32F407-DISCOVERY-uHttp\000"
 11326      5C52542D 
ARM GAS  C:\Users\jo\AppData\Local\Temp\ccwlN2BW.s 			page 201


 11326      53544D33 
 11326      32463430 
 11326      372D4449 
 11327              	.LASF9:
 11328 00a1 6C6F6E67 		.ascii	"long long int\000"
 11328      206C6F6E 
 11328      6720696E 
 11328      7400
 11329              	.LASF1:
 11330 00af 7369676E 		.ascii	"signed char\000"
 11330      65642063 
 11330      68617200 
 11331              	.LASF54:
 11332 00bb 2E2E2F2E 		.ascii	"../../../os/ext/PolarSSL/library/aes.c\000"
 11332      2E2F2E2E 
 11332      2F6F732F 
 11332      6578742F 
 11332      506F6C61 
 11333              	.LASF30:
 11334 00e2 6165735F 		.ascii	"aes_self_test\000"
 11334      73656C66 
 11334      5F746573 
 11334      7400
 11335              	.LASF47:
 11336 00f0 6165735F 		.ascii	"aes_crypt_cbc\000"
 11336      63727970 
 11336      745F6362 
 11336      6300
 11337              	.LASF5:
 11338 00fe 6C6F6E67 		.ascii	"long int\000"
 11338      20696E74 
 11338      00
 11339              	.LASF56:
 11340 0107 5F5F6275 		.ascii	"__builtin_puts\000"
 11340      696C7469 
 11340      6E5F7075 
 11340      747300
 11341              	.LASF58:
 11342 0116 70757463 		.ascii	"putchar\000"
 11342      68617200 
 11343              	.LASF7:
 11344 011e 5F5F7569 		.ascii	"__uint32_t\000"
 11344      6E743332 
 11344      5F7400
 11345              	.LASF41:
 11346 0129 6165735F 		.ascii	"aes_test_cfb128_ct\000"
 11346      74657374 
 11346      5F636662 
 11346      3132385F 
 11346      637400
 11347              	.LASF24:
 11348 013c 6165735F 		.ascii	"aes_crypt_cfb128\000"
 11348      63727970 
 11348      745F6366 
 11348      62313238 
 11348      00
 11349              	.LASF19:
ARM GAS  C:\Users\jo\AppData\Local\Temp\ccwlN2BW.s 			page 202


 11350 014d 74656D70 		.ascii	"temp\000"
 11350      00
 11351              	.LASF0:
 11352 0152 756E7369 		.ascii	"unsigned int\000"
 11352      676E6564 
 11352      20696E74 
 11352      00
 11353              	.LASF22:
 11354 015f 6165735F 		.ascii	"aes_setkey_dec\000"
 11354      7365746B 
 11354      65795F64 
 11354      656300
 11355              	.LASF21:
 11356 016e 6165735F 		.ascii	"aes_setkey_enc\000"
 11356      7365746B 
 11356      65795F65 
 11356      6E6300
 11357              	.LASF8:
 11358 017d 6C6F6E67 		.ascii	"long unsigned int\000"
 11358      20756E73 
 11358      69676E65 
 11358      6420696E 
 11358      7400
 11359              	.LASF20:
 11360 018f 6B657973 		.ascii	"keysize\000"
 11360      697A6500 
 11361              	.LASF52:
 11362 0197 5F5F6275 		.ascii	"__builtin_putchar\000"
 11362      696C7469 
 11362      6E5F7075 
 11362      74636861 
 11362      7200
 11363              	.LASF34:
 11364 01a9 6165735F 		.ascii	"aes_test_ecb_dec\000"
 11364      74657374 
 11364      5F656362 
 11364      5F646563 
 11364      00
 11365              	.LASF35:
 11366 01ba 6165735F 		.ascii	"aes_test_ecb_enc\000"
 11366      74657374 
 11366      5F656362 
 11366      5F656E63 
 11366      00
 11367              	.LASF4:
 11368 01cb 73686F72 		.ascii	"short unsigned int\000"
 11368      7420756E 
 11368      7369676E 
 11368      65642069 
 11368      6E7400
 11369              	.LASF53:
 11370 01de 474E5520 		.ascii	"GNU C 4.9.3 20141119 (release) [ARM/embedded-4_9-br"
 11370      4320342E 
 11370      392E3320 
 11370      32303134 
 11370      31313139 
 11371 0211 616E6368 		.ascii	"anch revision 218278] -mcpu=cortex-m4 -mno-thumb-in"
ARM GAS  C:\Users\jo\AppData\Local\Temp\ccwlN2BW.s 			page 203


 11371      20726576 
 11371      6973696F 
 11371      6E203231 
 11371      38323738 
 11372 0244 74657277 		.ascii	"terwork -mthumb -ggdb -O2 -fomit-frame-pointer -fal"
 11372      6F726B20 
 11372      2D6D7468 
 11372      756D6220 
 11372      2D676764 
 11373 0277 69676E2D 		.ascii	"ign-functions=16 -ffunction-sections -fdata-section"
 11373      66756E63 
 11373      74696F6E 
 11373      733D3136 
 11373      202D6666 
 11374 02aa 73202D66 		.ascii	"s -fno-common\000"
 11374      6E6F2D63 
 11374      6F6D6D6F 
 11374      6E00
 11375              	.LASF18:
 11376 02b8 6F757470 		.ascii	"output\000"
 11376      757400
 11377              	.LASF11:
 11378 02bf 73697A65 		.ascii	"sizetype\000"
 11378      74797065 
 11378      00
 11379              	.LASF44:
 11380 02c8 6165735F 		.ascii	"aes_test_ctr_pt\000"
 11380      74657374 
 11380      5F637472 
 11380      5F707400 
 11381              	.LASF14:
 11382 02d8 6165735F 		.ascii	"aes_context\000"
 11382      636F6E74 
 11382      65787400 
 11383              	.LASF28:
 11384 02e4 6E6F6E63 		.ascii	"nonce_counter\000"
 11384      655F636F 
 11384      756E7465 
 11384      7200
 11385              	.LASF36:
 11386 02f2 6165735F 		.ascii	"aes_test_cbc_dec\000"
 11386      74657374 
 11386      5F636263 
 11386      5F646563 
 11386      00
 11387              	.LASF37:
 11388 0303 6165735F 		.ascii	"aes_test_cbc_enc\000"
 11388      74657374 
 11388      5F636263 
 11388      5F656E63 
 11388      00
 11389              	.LASF46:
 11390 0314 6165735F 		.ascii	"aes_test_ctr_len\000"
 11390      74657374 
 11390      5F637472 
 11390      5F6C656E 
 11390      00
ARM GAS  C:\Users\jo\AppData\Local\Temp\ccwlN2BW.s 			page 204


 11391              	.LASF26:
 11392 0325 6165735F 		.ascii	"aes_crypt_ctr\000"
 11392      63727970 
 11392      745F6374 
 11392      7200
 11393              	.LASF43:
 11394 0333 6165735F 		.ascii	"aes_test_ctr_nonce_counter\000"
 11394      74657374 
 11394      5F637472 
 11394      5F6E6F6E 
 11394      63655F63 
 11395              	.LASF2:
 11396 034e 756E7369 		.ascii	"unsigned char\000"
 11396      676E6564 
 11396      20636861 
 11396      7200
 11397              	.LASF3:
 11398 035c 73686F72 		.ascii	"short int\000"
 11398      7420696E 
 11398      7400
 11399              	.LASF17:
 11400 0366 696E7075 		.ascii	"input\000"
 11400      7400
 11401              	.LASF13:
 11402 036c 75696E74 		.ascii	"uint32_t\000"
 11402      33325F74 
 11402      00
 11403              	.LASF16:
 11404 0375 6C656E67 		.ascii	"length\000"
 11404      746800
 11405              	.LASF12:
 11406 037c 63686172 		.ascii	"char\000"
 11406      00
 11407              	.LASF15:
 11408 0381 6D6F6465 		.ascii	"mode\000"
 11408      00
 11409              	.LASF42:
 11410 0386 6165735F 		.ascii	"aes_test_ctr_key\000"
 11410      74657374 
 11410      5F637472 
 11410      5F6B6579 
 11410      00
 11411              	.LASF31:
 11412 0397 76657262 		.ascii	"verbose\000"
 11412      6F736500 
 11413              	.LASF45:
 11414 039f 6165735F 		.ascii	"aes_test_ctr_ct\000"
 11414      74657374 
 11414      5F637472 
 11414      5F637400 
 11415              	.LASF32:
 11416 03af 6F666673 		.ascii	"offset\000"
 11416      657400
 11417              	.LASF51:
 11418 03b6 6D656D63 		.ascii	"memcpy\000"
 11418      707900
 11419              	.LASF38:
ARM GAS  C:\Users\jo\AppData\Local\Temp\ccwlN2BW.s 			page 205


 11420 03bd 6165735F 		.ascii	"aes_test_cfb128_key\000"
 11420      74657374 
 11420      5F636662 
 11420      3132385F 
 11420      6B657900 
 11421              	.LASF50:
 11422 03d1 6D656D73 		.ascii	"memset\000"
 11422      657400
 11423              	.LASF33:
 11424 03d8 52434F4E 		.ascii	"RCON\000"
 11424      00
 11425              	.LASF23:
 11426 03dd 6165735F 		.ascii	"aes_crypt_ecb\000"
 11426      63727970 
 11426      745F6563 
 11426      6200
 11427              	.LASF57:
 11428 03eb 70757473 		.ascii	"puts\000"
 11428      00
 11429              	.LASF49:
 11430 03f0 6D656D63 		.ascii	"memcmp\000"
 11430      6D7000
 11431              	.LASF40:
 11432 03f7 6165735F 		.ascii	"aes_test_cfb128_pt\000"
 11432      74657374 
 11432      5F636662 
 11432      3132385F 
 11432      707400
 11433              		.ident	"GCC: (GNU Tools for ARM Embedded Processors) 4.9.3 20141119 (release) [ARM/embedded-4_9-br
ARM GAS  C:\Users\jo\AppData\Local\Temp\ccwlN2BW.s 			page 206


DEFINED SYMBOLS
                            *ABS*:00000000 aes.c
C:\Users\jo\AppData\Local\Temp\ccwlN2BW.s:19     .text.aes_setkey_enc:00000000 $t
C:\Users\jo\AppData\Local\Temp\ccwlN2BW.s:25     .text.aes_setkey_enc:00000000 aes_setkey_enc
C:\Users\jo\AppData\Local\Temp\ccwlN2BW.s:366    .text.aes_setkey_enc:000001f8 $d
C:\Users\jo\AppData\Local\Temp\ccwlN2BW.s:373    .text.aes_setkey_dec:00000000 $t
C:\Users\jo\AppData\Local\Temp\ccwlN2BW.s:379    .text.aes_setkey_dec:00000000 aes_setkey_dec
C:\Users\jo\AppData\Local\Temp\ccwlN2BW.s:591    .text.aes_setkey_dec:00000124 $d
C:\Users\jo\AppData\Local\Temp\ccwlN2BW.s:600    .text.aes_crypt_ecb:00000000 $t
C:\Users\jo\AppData\Local\Temp\ccwlN2BW.s:606    .text.aes_crypt_ecb:00000000 aes_crypt_ecb
C:\Users\jo\AppData\Local\Temp\ccwlN2BW.s:1082   .text.aes_crypt_ecb:000003e8 $d
C:\Users\jo\AppData\Local\Temp\ccwlN2BW.s:1089   .text.aes_crypt_ecb:000003fc $t
C:\Users\jo\AppData\Local\Temp\ccwlN2BW.s:1561   .text.aes_crypt_ecb:00000818 $d
C:\Users\jo\AppData\Local\Temp\ccwlN2BW.s:1567   .text.aes_crypt_ecb:0000082c $t
C:\Users\jo\AppData\Local\Temp\ccwlN2BW.s:1635   .text.aes_crypt_ecb:000008a4 $d
C:\Users\jo\AppData\Local\Temp\ccwlN2BW.s:1640   .text.aes_crypt_cbc:00000000 $t
C:\Users\jo\AppData\Local\Temp\ccwlN2BW.s:1646   .text.aes_crypt_cbc:00000000 aes_crypt_cbc
C:\Users\jo\AppData\Local\Temp\ccwlN2BW.s:1813   .text.aes_crypt_cfb128:00000000 $t
C:\Users\jo\AppData\Local\Temp\ccwlN2BW.s:1819   .text.aes_crypt_cfb128:00000000 aes_crypt_cfb128
C:\Users\jo\AppData\Local\Temp\ccwlN2BW.s:1942   .text.aes_crypt_ctr:00000000 $t
C:\Users\jo\AppData\Local\Temp\ccwlN2BW.s:1948   .text.aes_crypt_ctr:00000000 aes_crypt_ctr
C:\Users\jo\AppData\Local\Temp\ccwlN2BW.s:2043   .text.aes_self_test:00000000 $t
C:\Users\jo\AppData\Local\Temp\ccwlN2BW.s:2049   .text.aes_self_test:00000000 aes_self_test
C:\Users\jo\AppData\Local\Temp\ccwlN2BW.s:2581   .text.aes_self_test:00000334 $d
C:\Users\jo\AppData\Local\Temp\ccwlN2BW.s:2603   .text.aes_self_test:00000380 $t
C:\Users\jo\AppData\Local\Temp\ccwlN2BW.s:2747   .text.aes_self_test:00000454 $d
C:\Users\jo\AppData\Local\Temp\ccwlN2BW.s:2756   .rodata.RCON:00000000 $d
C:\Users\jo\AppData\Local\Temp\ccwlN2BW.s:2760   .rodata.RCON:00000000 RCON
C:\Users\jo\AppData\Local\Temp\ccwlN2BW.s:2772   .rodata.FSb:00000000 $d
C:\Users\jo\AppData\Local\Temp\ccwlN2BW.s:2776   .rodata.FSb:00000000 FSb
C:\Users\jo\AppData\Local\Temp\ccwlN2BW.s:3034   .rodata.aes_test_ecb_dec:00000000 $d
C:\Users\jo\AppData\Local\Temp\ccwlN2BW.s:3038   .rodata.aes_test_ecb_dec:00000000 aes_test_ecb_dec
C:\Users\jo\AppData\Local\Temp\ccwlN2BW.s:3088   .rodata.RSb:00000000 $d
C:\Users\jo\AppData\Local\Temp\ccwlN2BW.s:3092   .rodata.RSb:00000000 RSb
C:\Users\jo\AppData\Local\Temp\ccwlN2BW.s:3350   .rodata.aes_test_ctr_nonce_counter:00000000 $d
C:\Users\jo\AppData\Local\Temp\ccwlN2BW.s:3354   .rodata.aes_test_ctr_nonce_counter:00000000 aes_test_ctr_nonce_counter
C:\Users\jo\AppData\Local\Temp\ccwlN2BW.s:3404   .rodata.aes_test_cfb128_ct:00000000 $d
C:\Users\jo\AppData\Local\Temp\ccwlN2BW.s:3408   .rodata.aes_test_cfb128_ct:00000000 aes_test_cfb128_ct
C:\Users\jo\AppData\Local\Temp\ccwlN2BW.s:3602   .rodata.FT1:00000000 $d
C:\Users\jo\AppData\Local\Temp\ccwlN2BW.s:3606   .rodata.FT1:00000000 FT1
C:\Users\jo\AppData\Local\Temp\ccwlN2BW.s:3864   .rodata.FT2:00000000 $d
C:\Users\jo\AppData\Local\Temp\ccwlN2BW.s:3868   .rodata.FT2:00000000 FT2
C:\Users\jo\AppData\Local\Temp\ccwlN2BW.s:4126   .rodata.FT3:00000000 $d
C:\Users\jo\AppData\Local\Temp\ccwlN2BW.s:4130   .rodata.FT3:00000000 FT3
C:\Users\jo\AppData\Local\Temp\ccwlN2BW.s:4388   .rodata.FT0:00000000 $d
C:\Users\jo\AppData\Local\Temp\ccwlN2BW.s:4392   .rodata.FT0:00000000 FT0
C:\Users\jo\AppData\Local\Temp\ccwlN2BW.s:4650   .rodata.RT0:00000000 $d
C:\Users\jo\AppData\Local\Temp\ccwlN2BW.s:4654   .rodata.RT0:00000000 RT0
C:\Users\jo\AppData\Local\Temp\ccwlN2BW.s:4912   .rodata.aes_test_cbc_dec:00000000 $d
C:\Users\jo\AppData\Local\Temp\ccwlN2BW.s:4916   .rodata.aes_test_cbc_dec:00000000 aes_test_cbc_dec
C:\Users\jo\AppData\Local\Temp\ccwlN2BW.s:4966   .rodata.RT2:00000000 $d
C:\Users\jo\AppData\Local\Temp\ccwlN2BW.s:4970   .rodata.RT2:00000000 RT2
C:\Users\jo\AppData\Local\Temp\ccwlN2BW.s:5228   .rodata.RT3:00000000 $d
C:\Users\jo\AppData\Local\Temp\ccwlN2BW.s:5232   .rodata.RT3:00000000 RT3
C:\Users\jo\AppData\Local\Temp\ccwlN2BW.s:5490   .rodata.str1.4:00000000 $d
C:\Users\jo\AppData\Local\Temp\ccwlN2BW.s:5512   .rodata.aes_test_ctr_key:00000000 $d
C:\Users\jo\AppData\Local\Temp\ccwlN2BW.s:5516   .rodata.aes_test_ctr_key:00000000 aes_test_ctr_key
ARM GAS  C:\Users\jo\AppData\Local\Temp\ccwlN2BW.s 			page 207


C:\Users\jo\AppData\Local\Temp\ccwlN2BW.s:5566   .rodata.RT1:00000000 $d
C:\Users\jo\AppData\Local\Temp\ccwlN2BW.s:5570   .rodata.RT1:00000000 RT1
C:\Users\jo\AppData\Local\Temp\ccwlN2BW.s:5828   .rodata.aes_test_ecb_enc:00000000 $d
C:\Users\jo\AppData\Local\Temp\ccwlN2BW.s:5832   .rodata.aes_test_ecb_enc:00000000 aes_test_ecb_enc
C:\Users\jo\AppData\Local\Temp\ccwlN2BW.s:5882   .rodata.aes_test_cfb128_pt:00000000 $d
C:\Users\jo\AppData\Local\Temp\ccwlN2BW.s:5886   .rodata.aes_test_cfb128_pt:00000000 aes_test_cfb128_pt
C:\Users\jo\AppData\Local\Temp\ccwlN2BW.s:5952   .rodata.aes_test_cfb128_key:00000000 $d
C:\Users\jo\AppData\Local\Temp\ccwlN2BW.s:5956   .rodata.aes_test_cfb128_key:00000000 aes_test_cfb128_key
C:\Users\jo\AppData\Local\Temp\ccwlN2BW.s:6032   .rodata.aes_test_ctr_ct:00000000 $d
C:\Users\jo\AppData\Local\Temp\ccwlN2BW.s:6036   .rodata.aes_test_ctr_ct:00000000 aes_test_ctr_ct
C:\Users\jo\AppData\Local\Temp\ccwlN2BW.s:6125   .rodata.aes_test_ctr_len:00000000 $d
C:\Users\jo\AppData\Local\Temp\ccwlN2BW.s:6129   .rodata.aes_test_ctr_len:00000000 aes_test_ctr_len
C:\Users\jo\AppData\Local\Temp\ccwlN2BW.s:6134   .rodata.aes_test_cbc_enc:00000000 $d
C:\Users\jo\AppData\Local\Temp\ccwlN2BW.s:6138   .rodata.aes_test_cbc_enc:00000000 aes_test_cbc_enc
C:\Users\jo\AppData\Local\Temp\ccwlN2BW.s:6188   .rodata.aes_test_ctr_pt:00000000 $d
C:\Users\jo\AppData\Local\Temp\ccwlN2BW.s:6192   .rodata.aes_test_ctr_pt:00000000 aes_test_ctr_pt
C:\Users\jo\AppData\Local\Temp\ccwlN2BW.s:6281   .rodata.aes_test_cfb128_iv:00000000 $d
C:\Users\jo\AppData\Local\Temp\ccwlN2BW.s:6285   .rodata.aes_test_cfb128_iv:00000000 aes_test_cfb128_iv
                     .debug_frame:00000010 $d
C:\Users\jo\AppData\Local\Temp\ccwlN2BW.s:372    .text.aes_setkey_enc:00000204 $t
C:\Users\jo\AppData\Local\Temp\ccwlN2BW.s:599    .text.aes_setkey_dec:00000138 $t
C:\Users\jo\AppData\Local\Temp\ccwlN2BW.s:1639   .text.aes_crypt_ecb:000008a8 $t
C:\Users\jo\AppData\Local\Temp\ccwlN2BW.s:2755   .text.aes_self_test:00000468 $t

UNDEFINED SYMBOLS
memset
printf
memcmp
memcpy
puts
putchar
