ARM GAS  C:\Users\jo\AppData\Local\Temp\ccrbjt8r.s 			page 1


   1              		.syntax unified
   2              		.cpu cortex-m4
   3              		.fpu softvfp
   4              		.eabi_attribute 20, 1
   5              		.eabi_attribute 21, 1
   6              		.eabi_attribute 23, 3
   7              		.eabi_attribute 24, 1
   8              		.eabi_attribute 25, 1
   9              		.eabi_attribute 26, 1
  10              		.eabi_attribute 30, 2
  11              		.eabi_attribute 34, 1
  12              		.eabi_attribute 18, 4
  13              		.thumb
  14              		.file	"arc4.c"
  15              		.text
  16              	.Ltext0:
  17              		.cfi_sections	.debug_frame
  18              		.section	.text.arc4_setup,"ax",%progbits
  19              		.align	2
  20              		.p2align 4,,15
  21              		.global	arc4_setup
  22              		.thumb
  23              		.thumb_func
  24              		.type	arc4_setup, %function
  25              	arc4_setup:
  26              	.LFB0:
  27              		.file 1 "../../../os/ext/PolarSSL/library/arc4.c"
  28              		.loc 1 43 0
  29              		.cfi_startproc
  30              		@ args = 0, pretend = 0, frame = 0
  31              		@ frame_needed = 0, uses_anonymous_args = 0
  32              	.LVL0:
  33 0000 F0B5     		push	{r4, r5, r6, r7, lr}
  34              		.cfi_def_cfa_offset 20
  35              		.cfi_offset 4, -20
  36              		.cfi_offset 5, -16
  37              		.cfi_offset 6, -12
  38              		.cfi_offset 7, -8
  39              		.cfi_offset 14, -4
  40              		.loc 1 48 0
  41 0002 0023     		movs	r3, #0
  42 0004 C41D     		adds	r4, r0, #7
  43              		.loc 1 50 0
  44 0006 2546     		mov	r5, r4
  45              		.loc 1 48 0
  46 0008 0360     		str	r3, [r0]
  47              		.loc 1 49 0
  48 000a 4360     		str	r3, [r0, #4]
  49              		.loc 1 50 0
  50 000c 00F10807 		add	r7, r0, #8
  51              	.LVL1:
  52              	.L2:
  53              		.loc 1 53 0 discriminator 3
  54 0010 05F8013F 		strb	r3, [r5, #1]!
  55              		.loc 1 52 0 discriminator 3
  56 0014 0133     		adds	r3, r3, #1
  57              	.LVL2:
ARM GAS  C:\Users\jo\AppData\Local\Temp\ccrbjt8r.s 			page 2


  58 0016 B3F5807F 		cmp	r3, #256
  59 001a F9D1     		bne	.L2
  60              		.loc 1 52 0 is_stmt 0
  61 001c 0025     		movs	r5, #0
  62 001e 00F2071E 		addw	lr, r0, #263
  63 0022 2B46     		mov	r3, r5
  64              	.LVL3:
  65              	.L4:
  66              		.loc 1 59 0 is_stmt 1
  67 0024 AA42     		cmp	r2, r5
  68 0026 8CBF     		ite	hi
  69 0028 2846     		movhi	r0, r5
  70 002a 0020     		movls	r0, #0
  71              	.LVL4:
  72              		.loc 1 61 0
  73 002c 14F8016F 		ldrb	r6, [r4, #1]!	@ zero_extendqisi2
  74              	.LVL5:
  75              		.loc 1 62 0
  76 0030 085C     		ldrb	r0, [r1, r0]	@ zero_extendqisi2
  77              	.LVL6:
  78 0032 3344     		add	r3, r3, r6
  79              	.LVL7:
  80 0034 0344     		add	r3, r3, r0
  81 0036 DBB2     		uxtb	r3, r3
  82              	.LVL8:
  83              		.loc 1 59 0
  84 0038 88BF     		it	hi
  85 003a 0135     		addhi	r5, r5, #1
  86              		.loc 1 63 0
  87 003c F85C     		ldrb	r0, [r7, r3]	@ zero_extendqisi2
  88 003e 2070     		strb	r0, [r4]
  89 0040 98BF     		it	ls
  90 0042 0125     		movls	r5, #1
  91              		.loc 1 57 0
  92 0044 7445     		cmp	r4, lr
  93              		.loc 1 64 0
  94 0046 FE54     		strb	r6, [r7, r3]
  95              	.LVL9:
  96              		.loc 1 57 0
  97 0048 ECD1     		bne	.L4
  98              		.loc 1 66 0
  99 004a F0BD     		pop	{r4, r5, r6, r7, pc}
 100              		.cfi_endproc
 101              	.LFE0:
 102              		.size	arc4_setup, .-arc4_setup
 103 004c AFF30080 		.section	.text.arc4_crypt,"ax",%progbits
 104              		.align	2
 105              		.p2align 4,,15
 106              		.global	arc4_crypt
 107              		.thumb
 108              		.thumb_func
 109              		.type	arc4_crypt, %function
 110              	arc4_crypt:
 111              	.LFB1:
 112              		.loc 1 73 0
 113              		.cfi_startproc
 114              		@ args = 0, pretend = 0, frame = 0
ARM GAS  C:\Users\jo\AppData\Local\Temp\ccrbjt8r.s 			page 3


 115              		@ frame_needed = 0, uses_anonymous_args = 0
 116              	.LVL10:
 117 0000 F0B5     		push	{r4, r5, r6, r7, lr}
 118              		.cfi_def_cfa_offset 20
 119              		.cfi_offset 4, -20
 120              		.cfi_offset 5, -16
 121              		.cfi_offset 6, -12
 122              		.cfi_offset 7, -8
 123              		.cfi_offset 14, -4
 124              		.loc 1 78 0
 125 0002 0668     		ldr	r6, [r0]
 126              	.LVL11:
 127              		.loc 1 79 0
 128 0004 4568     		ldr	r5, [r0, #4]
 129              	.LVL12:
 130              		.loc 1 80 0
 131 0006 00F10807 		add	r7, r0, #8
 132              	.LVL13:
 133              		.loc 1 82 0
 134 000a B1B1     		cbz	r1, .L11
 135 000c 1144     		add	r1, r1, r2
 136              	.LVL14:
 137 000e 013B     		subs	r3, r3, #1
 138              	.LVL15:
 139              	.L12:
 140              		.loc 1 84 0 discriminator 3
 141 0010 0136     		adds	r6, r6, #1
 142              	.LVL16:
 143 0012 F6B2     		uxtb	r6, r6
 144              	.LVL17:
 145 0014 17F806E0 		ldrb	lr, [r7, r6]	@ zero_extendqisi2
 146              	.LVL18:
 147              		.loc 1 85 0 discriminator 3
 148 0018 7544     		add	r5, r5, lr
 149              	.LVL19:
 150 001a EDB2     		uxtb	r5, r5
 151              	.LVL20:
 152 001c 7C5D     		ldrb	r4, [r7, r5]	@ zero_extendqisi2
 153              	.LVL21:
 154              		.loc 1 87 0 discriminator 3
 155 001e BC55     		strb	r4, [r7, r6]
 156              		.loc 1 91 0 discriminator 3
 157 0020 7444     		add	r4, r4, lr
 158              	.LVL22:
 159              		.loc 1 88 0 discriminator 3
 160 0022 07F805E0 		strb	lr, [r7, r5]
 161              	.LVL23:
 162              		.loc 1 91 0 discriminator 3
 163 0026 E4B2     		uxtb	r4, r4
 164 0028 12F801EB 		ldrb	lr, [r2], #1	@ zero_extendqisi2
 165              	.LVL24:
 166              		.loc 1 90 0 discriminator 3
 167 002c 3C5D     		ldrb	r4, [r7, r4]	@ zero_extendqisi2
 168              		.loc 1 82 0 discriminator 3
 169 002e 8A42     		cmp	r2, r1
 170              		.loc 1 90 0 discriminator 3
 171 0030 8EEA0404 		eor	r4, lr, r4
ARM GAS  C:\Users\jo\AppData\Local\Temp\ccrbjt8r.s 			page 4


 172 0034 03F8014F 		strb	r4, [r3, #1]!
 173              	.LVL25:
 174              		.loc 1 82 0 discriminator 3
 175 0038 EAD1     		bne	.L12
 176              	.LVL26:
 177              	.L11:
 178              		.loc 1 94 0
 179 003a 0660     		str	r6, [r0]
 180              		.loc 1 95 0
 181 003c 4560     		str	r5, [r0, #4]
 182              		.loc 1 98 0
 183 003e 0020     		movs	r0, #0
 184              	.LVL27:
 185 0040 F0BD     		pop	{r4, r5, r6, r7, pc}
 186              		.cfi_endproc
 187              	.LFE1:
 188              		.size	arc4_crypt, .-arc4_crypt
 189 0042 00BFAFF3 		.section	.text.arc4_self_test,"ax",%progbits
 189      0080AFF3 
 189      0080AFF3 
 189      0080
 190              		.align	2
 191              		.p2align 4,,15
 192              		.global	arc4_self_test
 193              		.thumb
 194              		.thumb_func
 195              		.type	arc4_self_test, %function
 196              	arc4_self_test:
 197              	.LFB2:
 198              		.loc 1 137 0
 199              		.cfi_startproc
 200              		@ args = 0, pretend = 0, frame = 280
 201              		@ frame_needed = 0, uses_anonymous_args = 0
 202              	.LVL28:
 203 0000 2DE9F047 		push	{r4, r5, r6, r7, r8, r9, r10, lr}
 204              		.cfi_def_cfa_offset 32
 205              		.cfi_offset 4, -32
 206              		.cfi_offset 5, -28
 207              		.cfi_offset 6, -24
 208              		.cfi_offset 7, -20
 209              		.cfi_offset 8, -16
 210              		.cfi_offset 9, -12
 211              		.cfi_offset 10, -8
 212              		.cfi_offset 14, -4
 213 0004 DFF89490 		ldr	r9, .L40+16
 214 0008 DFF89480 		ldr	r8, .L40+20
 215 000c 1F4F     		ldr	r7, .L40
 216 000e C6B0     		sub	sp, sp, #280
 217              		.cfi_def_cfa_offset 312
 218              		.loc 1 137 0
 219 0010 0546     		mov	r5, r0
 220 0012 0024     		movs	r4, #0
 221 0014 0126     		movs	r6, #1
 222              	.LVL29:
 223              	.L23:
 224              		.loc 1 145 0
 225 0016 35BB     		cbnz	r5, .L36
ARM GAS  C:\Users\jo\AppData\Local\Temp\ccrbjt8r.s 			page 5


 226              	.L19:
 227              		.loc 1 148 0
 228 0018 09EB0402 		add	r2, r9, r4
 229 001c 6B46     		mov	r3, sp
 230 001e 1068     		ldr	r0, [r2]	@ unaligned
 231 0020 5168     		ldr	r1, [r2, #4]	@ unaligned
 232              		.loc 1 150 0
 233 0022 0822     		movs	r2, #8
 234              		.loc 1 148 0
 235 0024 03C3     		stmia	r3!, {r0, r1}
 236              		.loc 1 150 0
 237 0026 08EB0401 		add	r1, r8, r4
 238 002a 04A8     		add	r0, sp, #16
 239 002c FFF7FEFF 		bl	arc4_setup
 240              	.LVL30:
 241              		.loc 1 151 0
 242 0030 0821     		movs	r1, #8
 243 0032 0DEB0103 		add	r3, sp, r1
 244 0036 6A46     		mov	r2, sp
 245 0038 04A8     		add	r0, sp, #16
 246 003a FFF7FEFF 		bl	arc4_crypt
 247              	.LVL31:
 248              		.loc 1 153 0
 249 003e 3919     		adds	r1, r7, r4
 250 0040 02A8     		add	r0, sp, #8
 251 0042 0822     		movs	r2, #8
 252 0044 FFF7FEFF 		bl	memcmp
 253              	.LVL32:
 254 0048 0834     		adds	r4, r4, #8
 255 004a 8246     		mov	r10, r0
 256 004c 0136     		adds	r6, r6, #1
 257              	.LVL33:
 258 004e 98B9     		cbnz	r0, .L37
 259              		.loc 1 161 0
 260 0050 75B9     		cbnz	r5, .L38
 261              	.L22:
 262              	.LVL34:
 263              		.loc 1 143 0 discriminator 2
 264 0052 182C     		cmp	r4, #24
 265 0054 DFD1     		bne	.L23
 266              		.loc 1 165 0
 267 0056 15B1     		cbz	r5, .L21
 268              		.loc 1 166 0
 269 0058 0A20     		movs	r0, #10
 270 005a FFF7FEFF 		bl	putchar
 271              	.LVL35:
 272              	.L21:
 273              		.loc 1 169 0
 274 005e 5046     		mov	r0, r10
 275 0060 46B0     		add	sp, sp, #280
 276              		.cfi_remember_state
 277              		.cfi_def_cfa_offset 32
 278              		@ sp needed
 279 0062 BDE8F087 		pop	{r4, r5, r6, r7, r8, r9, r10, pc}
 280              	.LVL36:
 281              	.L36:
 282              		.cfi_restore_state
ARM GAS  C:\Users\jo\AppData\Local\Temp\ccrbjt8r.s 			page 6


 283              		.loc 1 146 0
 284 0066 3146     		mov	r1, r6
 285 0068 0948     		ldr	r0, .L40+4
 286 006a FFF7FEFF 		bl	printf
 287              	.LVL37:
 288 006e D3E7     		b	.L19
 289              	.LVL38:
 290              	.L38:
 291              		.loc 1 162 0
 292 0070 0848     		ldr	r0, .L40+8
 293 0072 FFF7FEFF 		bl	puts
 294              	.LVL39:
 295 0076 ECE7     		b	.L22
 296              	.L37:
 297              		.loc 1 155 0
 298 0078 15B9     		cbnz	r5, .L39
 299              		.loc 1 158 0
 300 007a 4FF0010A 		mov	r10, #1
 301 007e EEE7     		b	.L21
 302              	.L39:
 303              		.loc 1 156 0
 304 0080 0548     		ldr	r0, .L40+12
 305 0082 FFF7FEFF 		bl	puts
 306              	.LVL40:
 307              		.loc 1 158 0
 308 0086 4FF0010A 		mov	r10, #1
 309 008a E8E7     		b	.L21
 310              	.L41:
 311              		.align	2
 312              	.L40:
 313 008c 00000000 		.word	.LANCHOR2
 314 0090 00000000 		.word	.LC0
 315 0094 1C000000 		.word	.LC2
 316 0098 14000000 		.word	.LC1
 317 009c 00000000 		.word	.LANCHOR0
 318 00a0 00000000 		.word	.LANCHOR1
 319              		.cfi_endproc
 320              	.LFE2:
 321              		.size	arc4_self_test, .-arc4_self_test
 322 00a4 AFF30080 		.section	.rodata.arc4_test_ct,"a",%progbits
 322      AFF30080 
 322      AFF30080 
 323              		.align	2
 324              		.set	.LANCHOR2,. + 0
 325              		.type	arc4_test_ct, %object
 326              		.size	arc4_test_ct, 24
 327              	arc4_test_ct:
 328 0000 75       		.byte	117
 329 0001 B7       		.byte	-73
 330 0002 87       		.byte	-121
 331 0003 80       		.byte	-128
 332 0004 99       		.byte	-103
 333 0005 E0       		.byte	-32
 334 0006 C5       		.byte	-59
 335 0007 96       		.byte	-106
 336 0008 74       		.byte	116
 337 0009 94       		.byte	-108
ARM GAS  C:\Users\jo\AppData\Local\Temp\ccrbjt8r.s 			page 7


 338 000a C2       		.byte	-62
 339 000b E7       		.byte	-25
 340 000c 10       		.byte	16
 341 000d 4B       		.byte	75
 342 000e 08       		.byte	8
 343 000f 79       		.byte	121
 344 0010 DE       		.byte	-34
 345 0011 18       		.byte	24
 346 0012 89       		.byte	-119
 347 0013 41       		.byte	65
 348 0014 A3       		.byte	-93
 349 0015 37       		.byte	55
 350 0016 5D       		.byte	93
 351 0017 3A       		.byte	58
 352              		.section	.rodata.arc4_test_key,"a",%progbits
 353              		.align	2
 354              		.set	.LANCHOR1,. + 0
 355              		.type	arc4_test_key, %object
 356              		.size	arc4_test_key, 24
 357              	arc4_test_key:
 358 0000 01       		.byte	1
 359 0001 23       		.byte	35
 360 0002 45       		.byte	69
 361 0003 67       		.byte	103
 362 0004 89       		.byte	-119
 363 0005 AB       		.byte	-85
 364 0006 CD       		.byte	-51
 365 0007 EF       		.byte	-17
 366 0008 01       		.byte	1
 367 0009 23       		.byte	35
 368 000a 45       		.byte	69
 369 000b 67       		.byte	103
 370 000c 89       		.byte	-119
 371 000d AB       		.byte	-85
 372 000e CD       		.byte	-51
 373 000f EF       		.byte	-17
 374 0010 00       		.byte	0
 375 0011 00       		.byte	0
 376 0012 00       		.byte	0
 377 0013 00       		.byte	0
 378 0014 00       		.byte	0
 379 0015 00       		.byte	0
 380 0016 00       		.byte	0
 381 0017 00       		.byte	0
 382              		.section	.rodata.str1.4,"aMS",%progbits,1
 383              		.align	2
 384              	.LC0:
 385 0000 20204152 		.ascii	"  ARC4 test #%d: \000"
 385      43342074 
 385      65737420 
 385      2325643A 
 385      2000
 386 0012 0000     		.space	2
 387              	.LC1:
 388 0014 6661696C 		.ascii	"failed\000"
 388      656400
 389 001b 00       		.space	1
ARM GAS  C:\Users\jo\AppData\Local\Temp\ccrbjt8r.s 			page 8


 390              	.LC2:
 391 001c 70617373 		.ascii	"passed\000"
 391      656400
 392 0023 00       		.section	.rodata.arc4_test_pt,"a",%progbits
 393              		.align	2
 394              		.set	.LANCHOR0,. + 0
 395              		.type	arc4_test_pt, %object
 396              		.size	arc4_test_pt, 24
 397              	arc4_test_pt:
 398 0000 01       		.byte	1
 399 0001 23       		.byte	35
 400 0002 45       		.byte	69
 401 0003 67       		.byte	103
 402 0004 89       		.byte	-119
 403 0005 AB       		.byte	-85
 404 0006 CD       		.byte	-51
 405 0007 EF       		.byte	-17
 406 0008 00       		.byte	0
 407 0009 00       		.byte	0
 408 000a 00       		.byte	0
 409 000b 00       		.byte	0
 410 000c 00       		.byte	0
 411 000d 00       		.byte	0
 412 000e 00       		.byte	0
 413 000f 00       		.byte	0
 414 0010 00       		.byte	0
 415 0011 00       		.byte	0
 416 0012 00       		.byte	0
 417 0013 00       		.byte	0
 418 0014 00       		.byte	0
 419 0015 00       		.byte	0
 420 0016 00       		.byte	0
 421 0017 00       		.byte	0
 422              		.text
 423              	.Letext0:
 424              		.file 2 "../../../demos/STM32/RT-STM32F407-DISCOVERY-uHttp/uhttp-1.1/PolarSSL/include/polarssl/arc
 425              		.file 3 "c:\\program files\\gnu tools arm embedded\\4.9 2014q4\\lib\\gcc\\arm-none-eabi\\4.9.3\\in
 426              		.file 4 "c:\\program files\\gnu tools arm embedded\\4.9 2014q4\\arm-none-eabi\\include\\string.h"
 427              		.file 5 "c:\\program files\\gnu tools arm embedded\\4.9 2014q4\\arm-none-eabi\\include\\stdio.h"
 428              		.file 6 "<built-in>"