ARM GAS  C:\Users\jo\AppData\Local\Temp\ccN0EpzZ.s 			page 1


   1              		.syntax unified
   2              		.cpu cortex-m4
   3              		.fpu softvfp
   4              		.eabi_attribute 20, 1
   5              		.eabi_attribute 21, 1
   6              		.eabi_attribute 23, 3
   7              		.eabi_attribute 24, 1
   8              		.eabi_attribute 25, 1
   9              		.eabi_attribute 26, 1
  10              		.eabi_attribute 30, 2
  11              		.eabi_attribute 34, 1
  12              		.eabi_attribute 18, 4
  13              		.thumb
  14              		.file	"ArrayList.c"
  15              		.text
  16              	.Ltext0:
  17              		.cfi_sections	.debug_frame
  18              		.section	.text.chprintf.constprop.2,"ax",%progbits
  19              		.align	2
  20              		.p2align 4,,15
  21              		.thumb
  22              		.thumb_func
  23              		.type	chprintf.constprop.2, %function
  24              	chprintf.constprop.2:
  25              	.LFB277:
  26              		.file 1 "../../../os/hal/lib/streams/chprintf.h"
  27              		.loc 1 69 0
  28              		.cfi_startproc
  29              		@ args = 4, pretend = 12, frame = 8
  30              		@ frame_needed = 0, uses_anonymous_args = 1
  31              	.LVL0:
  32 0000 0EB4     		push	{r1, r2, r3}
  33              		.cfi_def_cfa_offset 12
  34              		.cfi_offset 1, -12
  35              		.cfi_offset 2, -8
  36              		.cfi_offset 3, -4
  37 0002 00B5     		push	{lr}
  38              		.cfi_def_cfa_offset 16
  39              		.cfi_offset 14, -16
  40 0004 82B0     		sub	sp, sp, #8
  41              		.cfi_def_cfa_offset 24
  42              		.loc 1 69 0
  43 0006 03AA     		add	r2, sp, #12
  44              		.loc 1 74 0
  45 0008 0548     		ldr	r0, .L3
  46              	.LVL1:
  47              		.loc 1 69 0
  48 000a 52F8041B 		ldr	r1, [r2], #4
  49              		.loc 1 73 0
  50 000e 0192     		str	r2, [sp, #4]
  51              		.loc 1 74 0
  52 0010 FFF7FEFF 		bl	chvprintf
  53              	.LVL2:
  54              		.loc 1 78 0
  55 0014 02B0     		add	sp, sp, #8
  56              		.cfi_def_cfa_offset 16
  57              		@ sp needed
ARM GAS  C:\Users\jo\AppData\Local\Temp\ccN0EpzZ.s 			page 2


  58 0016 5DF804EB 		ldr	lr, [sp], #4
  59              		.cfi_restore 14
  60              		.cfi_def_cfa_offset 12
  61 001a 03B0     		add	sp, sp, #12
  62              		.cfi_restore 3
  63              		.cfi_restore 2
  64              		.cfi_restore 1
  65              		.cfi_def_cfa_offset 0
  66 001c 7047     		bx	lr
  67              	.L4:
  68 001e 00BF     		.align	2
  69              	.L3:
  70 0020 00000000 		.word	itm_port
  71              		.cfi_endproc
  72              	.LFE277:
  73              		.size	chprintf.constprop.2, .-chprintf.constprop.2
  74 0024 AFF30080 		.section	.text.initWithSizeAndIncRate,"ax",%progbits
  74      AFF30080 
  74      AFF30080 
  75              		.align	2
  76              		.p2align 4,,15
  77              		.global	initWithSizeAndIncRate
  78              		.thumb
  79              		.thumb_func
  80              		.type	initWithSizeAndIncRate, %function
  81              	initWithSizeAndIncRate:
  82              	.LFB258:
  83              		.file 2 "ArrayList.c"
  84              		.loc 2 28 0
  85              		.cfi_startproc
  86              		@ args = 0, pretend = 0, frame = 0
  87              		@ frame_needed = 0, uses_anonymous_args = 0
  88              	.LVL3:
  89 0000 10B5     		push	{r4, lr}
  90              		.cfi_def_cfa_offset 8
  91              		.cfi_offset 4, -8
  92              		.cfi_offset 14, -4
  93              		.loc 2 28 0
  94 0002 0446     		mov	r4, r0
  95              		.loc 2 30 0
  96 0004 8260     		str	r2, [r0, #8]
  97              		.loc 2 29 0
  98 0006 4160     		str	r1, [r0, #4]
  99              		.loc 2 31 0
 100 0008 8900     		lsls	r1, r1, #2
 101              	.LVL4:
 102 000a 0020     		movs	r0, #0
 103              	.LVL5:
 104 000c FFF7FEFF 		bl	chHeapAlloc
 105              	.LVL6:
 106              		.loc 2 32 0
 107 0010 0449     		ldr	r1, .L7
 108              		.loc 2 31 0
 109 0012 E060     		str	r0, [r4, #12]
 110              		.loc 2 32 0
 111 0014 0268     		ldr	r2, [r0]
 112 0016 0448     		ldr	r0, .L7+4
ARM GAS  C:\Users\jo\AppData\Local\Temp\ccN0EpzZ.s 			page 3


 113 0018 FFF7FEFF 		bl	chprintf.constprop.2
 114              	.LVL7:
 115              		.loc 2 33 0
 116 001c 4FF0FF33 		mov	r3, #-1
 117 0020 2360     		str	r3, [r4]
 118 0022 10BD     		pop	{r4, pc}
 119              	.LVL8:
 120              	.L8:
 121              		.align	2
 122              	.L7:
 123 0024 00000000 		.word	.LC0
 124 0028 00000000 		.word	itm_port
 125              		.cfi_endproc
 126              	.LFE258:
 127              		.size	initWithSizeAndIncRate, .-initWithSizeAndIncRate
 128 002c AFF30080 		.section	.text.initWithSize,"ax",%progbits
 129              		.align	2
 130              		.p2align 4,,15
 131              		.global	initWithSize
 132              		.thumb
 133              		.thumb_func
 134              		.type	initWithSize, %function
 135              	initWithSize:
 136              	.LFB257:
 137              		.loc 2 23 0
 138              		.cfi_startproc
 139              		@ args = 0, pretend = 0, frame = 0
 140              		@ frame_needed = 0, uses_anonymous_args = 0
 141              		@ link register save eliminated.
 142              	.LVL9:
 143              		.loc 2 24 0
 144 0000 3222     		movs	r2, #50
 145 0002 FFF7FEBF 		b	initWithSizeAndIncRate
 146              	.LVL10:
 147              		.cfi_endproc
 148              	.LFE257:
 149              		.size	initWithSize, .-initWithSize
 150 0006 00BFAFF3 		.section	.text.init,"ax",%progbits
 150      0080AFF3 
 150      0080
 151              		.align	2
 152              		.p2align 4,,15
 153              		.global	init
 154              		.thumb
 155              		.thumb_func
 156              		.type	init, %function
 157              	init:
 158              	.LFB256:
 159              		.loc 2 18 0
 160              		.cfi_startproc
 161              		@ args = 0, pretend = 0, frame = 0
 162              		@ frame_needed = 0, uses_anonymous_args = 0
 163              		@ link register save eliminated.
 164              	.LVL11:
 165              	.LBB7:
 166              	.LBB8:
 167              		.loc 2 24 0
ARM GAS  C:\Users\jo\AppData\Local\Temp\ccN0EpzZ.s 			page 4


 168 0000 1021     		movs	r1, #16
 169 0002 3222     		movs	r2, #50
 170 0004 FFF7FEBF 		b	initWithSizeAndIncRate
 171              	.LVL12:
 172              	.LBE8:
 173              	.LBE7:
 174              		.cfi_endproc
 175              	.LFE256:
 176              		.size	init, .-init
 177 0008 AFF30080 		.section	.text.clear,"ax",%progbits
 177      AFF30080 
 178              		.align	2
 179              		.p2align 4,,15
 180              		.global	clear
 181              		.thumb
 182              		.thumb_func
 183              		.type	clear, %function
 184              	clear:
 185              	.LFB259:
 186              		.loc 2 37 0
 187              		.cfi_startproc
 188              		@ args = 0, pretend = 0, frame = 0
 189              		@ frame_needed = 0, uses_anonymous_args = 0
 190              		@ link register save eliminated.
 191              	.LVL13:
 192              		.loc 2 38 0
 193 0000 0368     		ldr	r3, [r0]
 194 0002 002B     		cmp	r3, #0
 195 0004 0BDB     		blt	.L11
 196 0006 C268     		ldr	r2, [r0, #12]
 197              		.loc 2 40 0
 198 0008 0021     		movs	r1, #0
 199 000a 02EB8303 		add	r3, r2, r3, lsl #2
 200 000e 043A     		subs	r2, r2, #4
 201              	.L13:
 202 0010 43F80419 		str	r1, [r3], #-4
 203              		.loc 2 38 0
 204 0014 9342     		cmp	r3, r2
 205 0016 FBD1     		bne	.L13
 206 0018 4FF0FF33 		mov	r3, #-1
 207 001c 0360     		str	r3, [r0]
 208              	.L11:
 209 001e 7047     		bx	lr
 210              		.cfi_endproc
 211              	.LFE259:
 212              		.size	clear, .-clear
 213              		.section	.text.set,"ax",%progbits
 214              		.align	2
 215              		.p2align 4,,15
 216              		.global	set
 217              		.thumb
 218              		.thumb_func
 219              		.type	set, %function
 220              	set:
 221              	.LFB260:
 222              		.loc 2 46 0
 223              		.cfi_startproc
ARM GAS  C:\Users\jo\AppData\Local\Temp\ccN0EpzZ.s 			page 5


 224              		@ args = 0, pretend = 0, frame = 0
 225              		@ frame_needed = 0, uses_anonymous_args = 0
 226              		@ link register save eliminated.
 227              	.LVL14:
 228              		.loc 2 47 0
 229 0000 0368     		ldr	r3, [r0]
 230 0002 9342     		cmp	r3, r2
 231              		.loc 2 49 0
 232 0004 A8BF     		it	ge
 233 0006 C368     		ldrge	r3, [r0, #12]
 234              		.loc 2 52 0
 235 0008 4FF00000 		mov	r0, #0
 236              	.LVL15:
 237              		.loc 2 49 0
 238 000c A8BF     		it	ge
 239 000e 43F82210 		strge	r1, [r3, r2, lsl #2]
 240              		.loc 2 52 0
 241 0012 7047     		bx	lr
 242              		.cfi_endproc
 243              	.LFE260:
 244              		.size	set, .-set
 245 0014 AFF30080 		.section	.text.get,"ax",%progbits
 245      AFF30080 
 245      AFF30080 
 246              		.align	2
 247              		.p2align 4,,15
 248              		.global	get
 249              		.thumb
 250              		.thumb_func
 251              		.type	get, %function
 252              	get:
 253              	.LFB261:
 254              		.loc 2 55 0
 255              		.cfi_startproc
 256              		@ args = 0, pretend = 0, frame = 0
 257              		@ frame_needed = 0, uses_anonymous_args = 0
 258              		@ link register save eliminated.
 259              	.LVL16:
 260              		.loc 2 56 0
 261 0000 0368     		ldr	r3, [r0]
 262 0002 8B42     		cmp	r3, r1
 263              	.LBB9:
 264              		.loc 2 58 0
 265 0004 A6BF     		itte	ge
 266 0006 C368     		ldrge	r3, [r0, #12]
 267 0008 03EB8100 		addge	r0, r3, r1, lsl #2
 268              	.LVL17:
 269              	.LBE9:
 270              		.loc 2 61 0
 271 000c 0020     		movlt	r0, #0
 272              		.loc 2 62 0
 273 000e 7047     		bx	lr
 274              		.cfi_endproc
 275              	.LFE261:
 276              		.size	get, .-get
 277              		.section	.text.add,"ax",%progbits
 278              		.align	2
ARM GAS  C:\Users\jo\AppData\Local\Temp\ccN0EpzZ.s 			page 6


 279              		.p2align 4,,15
 280              		.global	add
 281              		.thumb
 282              		.thumb_func
 283              		.type	add, %function
 284              	add:
 285              	.LFB262:
 286              		.loc 2 65 0
 287              		.cfi_startproc
 288              		@ args = 0, pretend = 0, frame = 0
 289              		@ frame_needed = 0, uses_anonymous_args = 0
 290              	.LVL18:
 291 0000 2DE9F041 		push	{r4, r5, r6, r7, r8, lr}
 292              		.cfi_def_cfa_offset 24
 293              		.cfi_offset 4, -24
 294              		.cfi_offset 5, -20
 295              		.cfi_offset 6, -16
 296              		.cfi_offset 7, -12
 297              		.cfi_offset 8, -8
 298              		.cfi_offset 14, -4
 299              		.loc 2 66 0
 300 0004 90E86000 		ldmia	r0, {r5, r6}
 301 0008 0135     		adds	r5, r5, #1
 302 000a B542     		cmp	r5, r6
 303              		.loc 2 65 0
 304 000c 84B0     		sub	sp, sp, #16
 305              		.cfi_def_cfa_offset 40
 306              		.loc 2 65 0
 307 000e 0446     		mov	r4, r0
 308 0010 0F46     		mov	r7, r1
 309              		.loc 2 66 0
 310 0012 0560     		str	r5, [r0]
 311 0014 1CDB     		blt	.L26
 312              	.LVL19:
 313              	.LBB12:
 314              	.LBB13:
 315              		.loc 2 84 0
 316 0016 8368     		ldr	r3, [r0, #8]
 317 0018 1E44     		add	r6, r6, r3
 318 001a 4660     		str	r6, [r0, #4]
 319              		.loc 2 85 0
 320 001c 3146     		mov	r1, r6
 321              	.LVL20:
 322 001e 0420     		movs	r0, #4
 323              	.LVL21:
 324 0020 FFF7FEFF 		bl	calloc
 325              	.LVL22:
 326              		.loc 2 86 0
 327 0024 0021     		movs	r1, #0
 328 0026 0423     		movs	r3, #4
 329 0028 E268     		ldr	r2, [r4, #12]
 330 002a 0293     		str	r3, [sp, #8]
 331 002c 0196     		str	r6, [sp, #4]
 332 002e 0B46     		mov	r3, r1
 333 0030 0095     		str	r5, [sp]
 334              		.loc 2 85 0
 335 0032 8046     		mov	r8, r0
ARM GAS  C:\Users\jo\AppData\Local\Temp\ccN0EpzZ.s 			page 7


 336              	.LVL23:
 337              		.loc 2 86 0
 338 0034 FFF7FEFF 		bl	arrayCopy
 339              	.LVL24:
 340              		.loc 2 87 0
 341 0038 E068     		ldr	r0, [r4, #12]
 342 003a FFF7FEFF 		bl	free
 343              	.LVL25:
 344              	.LBE13:
 345              	.LBE12:
 346              		.loc 2 76 0
 347 003e 2368     		ldr	r3, [r4]
 348              	.LBB15:
 349              	.LBB14:
 350              		.loc 2 88 0
 351 0040 C4F80C80 		str	r8, [r4, #12]
 352              	.LBE14:
 353              	.LBE15:
 354              		.loc 2 80 0
 355 0044 0120     		movs	r0, #1
 356              	.LVL26:
 357              		.loc 2 76 0
 358 0046 48F82370 		str	r7, [r8, r3, lsl #2]
 359              		.loc 2 80 0
 360 004a 04B0     		add	sp, sp, #16
 361              		.cfi_remember_state
 362              		.cfi_def_cfa_offset 24
 363              		@ sp needed
 364 004c BDE8F081 		pop	{r4, r5, r6, r7, r8, pc}
 365              	.LVL27:
 366              	.L26:
 367              		.cfi_restore_state
 368              		.loc 2 68 0
 369 0050 2A46     		mov	r2, r5
 370 0052 0B49     		ldr	r1, .L27
 371              	.LVL28:
 372 0054 0B48     		ldr	r0, .L27+4
 373              	.LVL29:
 374 0056 FFF7FEFF 		bl	chprintf.constprop.2
 375              	.LVL30:
 376              		.loc 2 69 0
 377 005a 3A46     		mov	r2, r7
 378 005c 0A49     		ldr	r1, .L27+8
 379 005e 0948     		ldr	r0, .L27+4
 380 0060 FFF7FEFF 		bl	chprintf.constprop.2
 381              	.LVL31:
 382              		.loc 2 70 0
 383 0064 2268     		ldr	r2, [r4]
 384 0066 E368     		ldr	r3, [r4, #12]
 385              		.loc 2 71 0
 386 0068 0849     		ldr	r1, .L27+12
 387              		.loc 2 70 0
 388 006a 43F82270 		str	r7, [r3, r2, lsl #2]
 389              		.loc 2 71 0
 390 006e 0548     		ldr	r0, .L27+4
 391 0070 3A46     		mov	r2, r7
 392 0072 FFF7FEFF 		bl	chprintf.constprop.2
ARM GAS  C:\Users\jo\AppData\Local\Temp\ccN0EpzZ.s 			page 8


 393              	.LVL32:
 394              		.loc 2 80 0
 395 0076 0120     		movs	r0, #1
 396 0078 04B0     		add	sp, sp, #16
 397              		.cfi_def_cfa_offset 24
 398              		@ sp needed
 399 007a BDE8F081 		pop	{r4, r5, r6, r7, r8, pc}
 400              	.LVL33:
 401              	.L28:
 402 007e 00BF     		.align	2
 403              	.L27:
 404 0080 14000000 		.word	.LC1
 405 0084 00000000 		.word	itm_port
 406 0088 28000000 		.word	.LC2
 407 008c 34000000 		.word	.LC3
 408              		.cfi_endproc
 409              	.LFE262:
 410              		.size	add, .-add
 411              		.section	.text.insert,"ax",%progbits
 412              		.align	2
 413              		.p2align 4,,15
 414              		.global	insert
 415              		.thumb
 416              		.thumb_func
 417              		.type	insert, %function
 418              	insert:
 419              	.LFB264:
 420              		.loc 2 92 0
 421              		.cfi_startproc
 422              		@ args = 0, pretend = 0, frame = 0
 423              		@ frame_needed = 0, uses_anonymous_args = 0
 424              	.LVL34:
 425 0000 F0B5     		push	{r4, r5, r6, r7, lr}
 426              		.cfi_def_cfa_offset 20
 427              		.cfi_offset 4, -20
 428              		.cfi_offset 5, -16
 429              		.cfi_offset 6, -12
 430              		.cfi_offset 7, -8
 431              		.cfi_offset 14, -4
 432              		.loc 2 93 0
 433 0002 0468     		ldr	r4, [r0]
 434 0004 9442     		cmp	r4, r2
 435              		.loc 2 92 0
 436 0006 85B0     		sub	sp, sp, #20
 437              		.cfi_def_cfa_offset 40
 438              		.loc 2 93 0
 439 0008 04DB     		blt	.L32
 440              		.loc 2 93 0 is_stmt 0 discriminator 1
 441 000a 4368     		ldr	r3, [r0, #4]
 442 000c 0134     		adds	r4, r4, #1
 443 000e 9C42     		cmp	r4, r3
 444 0010 0460     		str	r4, [r0]
 445 0012 02DB     		blt	.L34
 446              	.L32:
 447              		.loc 2 99 0 is_stmt 1
 448 0014 0020     		movs	r0, #0
 449              	.LVL35:
ARM GAS  C:\Users\jo\AppData\Local\Temp\ccN0EpzZ.s 			page 9


 450              		.loc 2 100 0
 451 0016 05B0     		add	sp, sp, #20
 452              		.cfi_remember_state
 453              		.cfi_def_cfa_offset 20
 454              		@ sp needed
 455 0018 F0BD     		pop	{r4, r5, r6, r7, pc}
 456              	.LVL36:
 457              	.L34:
 458              		.cfi_restore_state
 459 001a 0546     		mov	r5, r0
 460 001c C068     		ldr	r0, [r0, #12]
 461              	.LVL37:
 462              	.LBB20:
 463              	.LBB21:
 464              	.LBB22:
 465              		.loc 2 169 0
 466 001e 0194     		str	r4, [sp, #4]
 467 0020 1646     		mov	r6, r2
 468              	.LVL38:
 469 0022 0124     		movs	r4, #1
 470 0024 0423     		movs	r3, #4
 471 0026 0F46     		mov	r7, r1
 472 0028 0246     		mov	r2, r0
 473              	.LVL39:
 474 002a 0293     		str	r3, [sp, #8]
 475 002c 0094     		str	r4, [sp]
 476 002e 3346     		mov	r3, r6
 477 0030 3119     		adds	r1, r6, r4
 478              	.LVL40:
 479 0032 FFF7FEFF 		bl	arrayCopy
 480              	.LVL41:
 481              	.LBE22:
 482              	.LBE21:
 483              	.LBE20:
 484              		.loc 2 96 0
 485 0036 EB68     		ldr	r3, [r5, #12]
 486              		.loc 2 97 0
 487 0038 2046     		mov	r0, r4
 488              	.LVL42:
 489              		.loc 2 96 0
 490 003a 43F82670 		str	r7, [r3, r6, lsl #2]
 491              		.loc 2 100 0
 492 003e 05B0     		add	sp, sp, #20
 493              		.cfi_def_cfa_offset 20
 494              		@ sp needed
 495 0040 F0BD     		pop	{r4, r5, r6, r7, pc}
 496              		.cfi_endproc
 497              	.LFE264:
 498              		.size	insert, .-insert
 499 0042 00BFAFF3 		.section	.text.lastIndexOf,"ax",%progbits
 499      0080AFF3 
 499      0080AFF3 
 499      0080
 500              		.align	2
 501              		.p2align 4,,15
 502              		.global	lastIndexOf
 503              		.thumb
ARM GAS  C:\Users\jo\AppData\Local\Temp\ccN0EpzZ.s 			page 10


 504              		.thumb_func
 505              		.type	lastIndexOf, %function
 506              	lastIndexOf:
 507              	.LFB265:
 508              		.loc 2 103 0
 509              		.cfi_startproc
 510              		@ args = 0, pretend = 0, frame = 0
 511              		@ frame_needed = 0, uses_anonymous_args = 0
 512              		@ link register save eliminated.
 513              	.LVL43:
 514 0000 30B4     		push	{r4, r5}
 515              		.cfi_def_cfa_offset 8
 516              		.cfi_offset 4, -8
 517              		.cfi_offset 5, -4
 518              		.loc 2 104 0
 519 0002 0568     		ldr	r5, [r0]
 520              	.LVL44:
 521              		.loc 2 105 0
 522 0004 002D     		cmp	r5, #0
 523 0006 10DB     		blt	.L41
 524              		.loc 2 107 0
 525 0008 C268     		ldr	r2, [r0, #12]
 526 000a 52F82530 		ldr	r3, [r2, r5, lsl #2]
 527 000e 9942     		cmp	r1, r3
 528 0010 02EB8502 		add	r2, r2, r5, lsl #2
 529 0014 18BF     		it	ne
 530 0016 2B46     		movne	r3, r5
 531 0018 04D1     		bne	.L39
 532 001a 06E0     		b	.L41
 533              	.LVL45:
 534              	.L40:
 535 001c 52F8044D 		ldr	r4, [r2, #-4]!
 536 0020 A142     		cmp	r1, r4
 537 0022 05D0     		beq	.L46
 538              	.LVL46:
 539              	.L39:
 540              		.loc 2 105 0
 541 0024 13F1FF33 		adds	r3, r3, #-1
 542              	.LVL47:
 543 0028 F8D2     		bcs	.L40
 544              	.LVL48:
 545              	.L41:
 546              		.loc 2 110 0
 547 002a 0020     		movs	r0, #0
 548              	.LVL49:
 549              		.loc 2 111 0
 550 002c 30BC     		pop	{r4, r5}
 551              		.cfi_remember_state
 552              		.cfi_restore 5
 553              		.cfi_restore 4
 554              		.cfi_def_cfa_offset 0
 555 002e 7047     		bx	lr
 556              	.LVL50:
 557              	.L46:
 558              		.cfi_restore_state
 559 0030 E81A     		subs	r0, r5, r3
 560              	.LVL51:
ARM GAS  C:\Users\jo\AppData\Local\Temp\ccN0EpzZ.s 			page 11


 561 0032 30BC     		pop	{r4, r5}
 562              		.cfi_restore 4
 563              		.cfi_restore 5
 564              		.cfi_def_cfa_offset 0
 565 0034 7047     		bx	lr
 566              		.cfi_endproc
 567              	.LFE265:
 568              		.size	lastIndexOf, .-lastIndexOf
 569 0036 00BFAFF3 		.section	.text.indexOf,"ax",%progbits
 569      0080AFF3 
 569      0080
 570              		.align	2
 571              		.p2align 4,,15
 572              		.global	indexOf
 573              		.thumb
 574              		.thumb_func
 575              		.type	indexOf, %function
 576              	indexOf:
 577              	.LFB266:
 578              		.loc 2 114 0
 579              		.cfi_startproc
 580              		@ args = 0, pretend = 0, frame = 0
 581              		@ frame_needed = 0, uses_anonymous_args = 0
 582              		@ link register save eliminated.
 583              	.LVL52:
 584 0000 10B4     		push	{r4}
 585              		.cfi_def_cfa_offset 4
 586              		.cfi_offset 4, -4
 587              		.loc 2 116 0
 588 0002 0468     		ldr	r4, [r0]
 589 0004 002C     		cmp	r4, #0
 590 0006 0DDB     		blt	.L53
 591              		.loc 2 118 0
 592 0008 C368     		ldr	r3, [r0, #12]
 593 000a 1A68     		ldr	r2, [r3]
 594 000c 9142     		cmp	r1, r2
 595 000e 18BF     		it	ne
 596 0010 0020     		movne	r0, #0
 597              	.LVL53:
 598 0012 04D1     		bne	.L51
 599 0014 06E0     		b	.L53
 600              	.LVL54:
 601              	.L52:
 602 0016 53F8042F 		ldr	r2, [r3, #4]!
 603 001a 9142     		cmp	r1, r2
 604 001c 03D0     		beq	.L48
 605              	.LVL55:
 606              	.L51:
 607              		.loc 2 119 0
 608 001e 0130     		adds	r0, r0, #1
 609              	.LVL56:
 610              		.loc 2 116 0
 611 0020 A042     		cmp	r0, r4
 612 0022 F8DD     		ble	.L52
 613              	.LVL57:
 614              	.L53:
 615              		.loc 2 121 0
ARM GAS  C:\Users\jo\AppData\Local\Temp\ccN0EpzZ.s 			page 12


 616 0024 0020     		movs	r0, #0
 617              	.L48:
 618              		.loc 2 122 0
 619 0026 5DF8044B 		ldr	r4, [sp], #4
 620              		.cfi_restore 4
 621              		.cfi_def_cfa_offset 0
 622 002a 7047     		bx	lr
 623              		.cfi_endproc
 624              	.LFE266:
 625              		.size	indexOf, .-indexOf
 626 002c AFF30080 		.section	.text.isEmpty,"ax",%progbits
 627              		.align	2
 628              		.p2align 4,,15
 629              		.global	isEmpty
 630              		.thumb
 631              		.thumb_func
 632              		.type	isEmpty, %function
 633              	isEmpty:
 634              	.LFB267:
 635              		.loc 2 125 0
 636              		.cfi_startproc
 637              		@ args = 0, pretend = 0, frame = 0
 638              		@ frame_needed = 0, uses_anonymous_args = 0
 639              		@ link register save eliminated.
 640              	.LVL58:
 641              		.loc 2 126 0
 642 0000 0068     		ldr	r0, [r0]
 643              	.LVL59:
 644              		.loc 2 127 0
 645 0002 A0F1FF30 		sub	r0, r0, #-1
 646 0006 B0FA80F0 		clz	r0, r0
 647 000a 4009     		lsrs	r0, r0, #5
 648 000c 7047     		bx	lr
 649              		.cfi_endproc
 650              	.LFE267:
 651              		.size	isEmpty, .-isEmpty
 652 000e 00BF     		.section	.text.removeAt,"ax",%progbits
 653              		.align	2
 654              		.p2align 4,,15
 655              		.global	removeAt
 656              		.thumb
 657              		.thumb_func
 658              		.type	removeAt, %function
 659              	removeAt:
 660              	.LFB268:
 661              		.loc 2 130 0
 662              		.cfi_startproc
 663              		@ args = 0, pretend = 0, frame = 0
 664              		@ frame_needed = 0, uses_anonymous_args = 0
 665              	.LVL60:
 666 0000 F0B5     		push	{r4, r5, r6, r7, lr}
 667              		.cfi_def_cfa_offset 20
 668              		.cfi_offset 4, -20
 669              		.cfi_offset 5, -16
 670              		.cfi_offset 6, -12
 671              		.cfi_offset 7, -8
 672              		.cfi_offset 14, -4
ARM GAS  C:\Users\jo\AppData\Local\Temp\ccN0EpzZ.s 			page 13


 673              		.loc 2 131 0
 674 0002 0368     		ldr	r3, [r0]
 675 0004 8B42     		cmp	r3, r1
 676              		.loc 2 130 0
 677 0006 85B0     		sub	sp, sp, #20
 678              		.cfi_def_cfa_offset 40
 679              		.loc 2 131 0
 680 0008 16DB     		blt	.L61
 681              	.LBB26:
 682              		.loc 2 133 0
 683 000a C568     		ldr	r5, [r0, #12]
 684              	.LBB27:
 685              	.LBB28:
 686              		.loc 2 172 0
 687 000c 0193     		str	r3, [sp, #4]
 688 000e 0446     		mov	r4, r0
 689 0010 4FF0010E 		mov	lr, #1
 690 0014 0427     		movs	r7, #4
 691 0016 2846     		mov	r0, r5
 692              	.LVL61:
 693 0018 2A46     		mov	r2, r5
 694 001a 01EB0E03 		add	r3, r1, lr
 695 001e CDF800E0 		str	lr, [sp]
 696 0022 0297     		str	r7, [sp, #8]
 697              	.LBE28:
 698              	.LBE27:
 699              		.loc 2 133 0
 700 0024 05EB8105 		add	r5, r5, r1, lsl #2
 701              	.LVL62:
 702              	.LBB30:
 703              	.LBB29:
 704              		.loc 2 172 0
 705 0028 FFF7FEFF 		bl	arrayCopy
 706              	.LVL63:
 707              	.LBE29:
 708              	.LBE30:
 709              		.loc 2 135 0
 710 002c 2368     		ldr	r3, [r4]
 711              		.loc 2 136 0
 712 002e 2846     		mov	r0, r5
 713              		.loc 2 135 0
 714 0030 013B     		subs	r3, r3, #1
 715 0032 2360     		str	r3, [r4]
 716              	.LBE26:
 717              		.loc 2 139 0
 718 0034 05B0     		add	sp, sp, #20
 719              		.cfi_remember_state
 720              		.cfi_def_cfa_offset 20
 721              		@ sp needed
 722 0036 F0BD     		pop	{r4, r5, r6, r7, pc}
 723              	.LVL64:
 724              	.L61:
 725              		.cfi_restore_state
 726              		.loc 2 138 0
 727 0038 0020     		movs	r0, #0
 728              	.LVL65:
 729              		.loc 2 139 0
ARM GAS  C:\Users\jo\AppData\Local\Temp\ccN0EpzZ.s 			page 14


 730 003a 05B0     		add	sp, sp, #20
 731              		.cfi_def_cfa_offset 20
 732              		@ sp needed
 733 003c F0BD     		pop	{r4, r5, r6, r7, pc}
 734              		.cfi_endproc
 735              	.LFE268:
 736              		.size	removeAt, .-removeAt
 737 003e 00BF     		.section	.text.print,"ax",%progbits
 738              		.align	2
 739              		.p2align 4,,15
 740              		.global	print
 741              		.thumb
 742              		.thumb_func
 743              		.type	print, %function
 744              	print:
 745              	.LFB269:
 746              		.loc 2 142 0
 747              		.cfi_startproc
 748              		@ args = 0, pretend = 0, frame = 0
 749              		@ frame_needed = 0, uses_anonymous_args = 0
 750              	.LVL66:
 751 0000 70B5     		push	{r4, r5, r6, lr}
 752              		.cfi_def_cfa_offset 16
 753              		.cfi_offset 4, -16
 754              		.cfi_offset 5, -12
 755              		.cfi_offset 6, -8
 756              		.cfi_offset 14, -4
 757              		.loc 2 142 0
 758 0002 0546     		mov	r5, r0
 759              		.loc 2 144 0
 760 0004 0268     		ldr	r2, [r0]
 761 0006 1449     		ldr	r1, .L69
 762 0008 1448     		ldr	r0, .L69+4
 763              	.LVL67:
 764 000a FFF7FEFF 		bl	chprintf.constprop.2
 765              	.LVL68:
 766              		.loc 2 145 0
 767 000e 2B68     		ldr	r3, [r5]
 768 0010 002B     		cmp	r3, #0
 769 0012 A8BF     		it	ge
 770 0014 0024     		movge	r4, #0
 771 0016 18DB     		blt	.L65
 772              	.LVL69:
 773              	.L64:
 774              	.LBB31:
 775              		.loc 2 147 0 discriminator 3
 776 0018 EB68     		ldr	r3, [r5, #12]
 777 001a 1149     		ldr	r1, .L69+8
 778 001c 53F82430 		ldr	r3, [r3, r4, lsl #2]
 779 0020 0E48     		ldr	r0, .L69+4
 780 0022 2246     		mov	r2, r4
 781 0024 FFF7FEFF 		bl	chprintf.constprop.2
 782              	.LVL70:
 783              		.loc 2 148 0 discriminator 3
 784 0028 EB68     		ldr	r3, [r5, #12]
 785              		.loc 2 149 0 discriminator 3
 786 002a 0E49     		ldr	r1, .L69+12
ARM GAS  C:\Users\jo\AppData\Local\Temp\ccN0EpzZ.s 			page 15


 787              		.loc 2 148 0 discriminator 3
 788 002c 53F82460 		ldr	r6, [r3, r4, lsl #2]
 789              	.LVL71:
 790              		.loc 2 149 0 discriminator 3
 791 0030 0A48     		ldr	r0, .L69+4
 792 0032 3246     		mov	r2, r6
 793 0034 FFF7FEFF 		bl	chprintf.constprop.2
 794              	.LVL72:
 795              	.LBB32:
 796              	.LBB33:
 797              		.loc 2 162 0 discriminator 3
 798 0038 3246     		mov	r2, r6
 799 003a 0848     		ldr	r0, .L69+4
 800 003c 0A49     		ldr	r1, .L69+16
 801 003e FFF7FEFF 		bl	chprintf.constprop.2
 802              	.LVL73:
 803              	.LBE33:
 804              	.LBE32:
 805              	.LBE31:
 806              		.loc 2 145 0 discriminator 3
 807 0042 2B68     		ldr	r3, [r5]
 808 0044 0134     		adds	r4, r4, #1
 809              	.LVL74:
 810 0046 A342     		cmp	r3, r4
 811 0048 E6DA     		bge	.L64
 812              	.LVL75:
 813              	.L65:
 814              		.loc 2 152 0
 815 004a 0448     		ldr	r0, .L69+4
 816 004c 0749     		ldr	r1, .L69+20
 817              		.loc 2 153 0
 818 004e BDE87040 		pop	{r4, r5, r6, lr}
 819              		.cfi_restore 14
 820              		.cfi_restore 6
 821              		.cfi_restore 5
 822              		.cfi_restore 4
 823              		.cfi_def_cfa_offset 0
 824              	.LVL76:
 825              		.loc 2 152 0
 826 0052 FFF7FEBF 		b	chprintf.constprop.2
 827              	.LVL77:
 828              	.L70:
 829 0056 00BF     		.align	2
 830              	.L69:
 831 0058 58000000 		.word	.LC4
 832 005c 00000000 		.word	itm_port
 833 0060 78000000 		.word	.LC6
 834 0064 98000000 		.word	.LC7
 835 0068 AC000000 		.word	.LC8
 836 006c 74000000 		.word	.LC5
 837              		.cfi_endproc
 838              	.LFE269:
 839              		.size	print, .-print
 840              		.section	.text.clean,"ax",%progbits
 841              		.align	2
 842              		.p2align 4,,15
 843              		.global	clean
ARM GAS  C:\Users\jo\AppData\Local\Temp\ccN0EpzZ.s 			page 16


 844              		.thumb
 845              		.thumb_func
 846              		.type	clean, %function
 847              	clean:
 848              	.LFB270:
 849              		.loc 2 156 0
 850              		.cfi_startproc
 851              		@ args = 0, pretend = 0, frame = 0
 852              		@ frame_needed = 0, uses_anonymous_args = 0
 853              		@ link register save eliminated.
 854              	.LVL78:
 855              		.loc 2 157 0
 856 0000 C068     		ldr	r0, [r0, #12]
 857              	.LVL79:
 858 0002 FFF7FEBF 		b	free
 859              	.LVL80:
 860              		.cfi_endproc
 861              	.LFE270:
 862              		.size	clean, .-clean
 863 0006 00BFAFF3 		.section	.rodata.str1.4,"aMS",%progbits,1
 863      0080AFF3 
 863      0080
 864              		.align	2
 865              	.LC0:
 866 0000 6C697374 		.ascii	"list->elements: %i\012\000"
 866      2D3E656C 
 866      656D656E 
 866      74733A20 
 866      25690A00 
 867              	.LC1:
 868 0014 6C697374 		.ascii	"list->current: %i\012\000"
 868      2D3E6375 
 868      7272656E 
 868      743A2025 
 868      690A00
 869 0027 00       		.space	1
 870              	.LC2:
 871 0028 652E6461 		.ascii	"e.data: %i\012\000"
 871      74613A20 
 871      25690A00 
 872              	.LC3:
 873 0034 6C697374 		.ascii	"list->elements[list->current]: %i\012\000"
 873      2D3E656C 
 873      656D656E 
 873      74735B6C 
 873      6973742D 
 874 0057 00       		.space	1
 875              	.LC4:
 876 0058 7072696E 		.ascii	"print list->current: %i\012\000"
 876      74206C69 
 876      73742D3E 
 876      63757272 
 876      656E743A 
 877 0071 000000   		.space	3
 878              	.LC5:
 879 0074 0A00     		.ascii	"\012\000"
 880 0076 0000     		.space	2
ARM GAS  C:\Users\jo\AppData\Local\Temp\ccN0EpzZ.s 			page 17


 881              	.LC6:
 882 0078 7072696E 		.ascii	"print list->elements[%d]: %i\012\000"
 882      74206C69 
 882      73742D3E 
 882      656C656D 
 882      656E7473 
 883 0096 0000     		.space	2
 884              	.LC7:
 885 0098 7072696E 		.ascii	"print e.data: %i\012\000"
 885      7420652E 
 885      64617461 
 885      3A202569 
 885      0A00
 886 00aa 0000     		.space	2
 887              	.LC8:
 888 00ac 7072696E 		.ascii	"print e->data: %i \000"
 888      7420652D 
 888      3E646174 
 888      613A2025 
 888      692000
 889 00bf 00       		.text
 890              	.Letext0:
 891              		.file 3 "c:\\program files\\gnu tools arm embedded\\4.9 2014q4\\lib\\gcc\\arm-none-eabi\\4.9.3\\in
 892              		.file 4 "c:\\program files\\gnu tools arm embedded\\4.9 2014q4\\arm-none-eabi\\include\\machine\\_
 893              		.file 5 "c:\\program files\\gnu tools arm embedded\\4.9 2014q4\\arm-none-eabi\\include\\stdint.h"
 894              		.file 6 "../../../os/rt/ports/ARMCMx/compilers/GCC/chtypes.h"
 895              		.file 7 "../../../os/rt/include/chsystypes.h"
 896              		.file 8 "../../../os/rt/include/chschd.h"
 897              		.file 9 "../../../os/rt/ports/ARMCMx/chcore.h"
 898              		.file 10 "../../../os/rt/ports/ARMCMx/chcore_v7m.h"
 899              		.file 11 "c:\\program files\\gnu tools arm embedded\\4.9 2014q4\\lib\\gcc\\arm-none-eabi\\4.9.3\\i
 900              		.file 12 "<built-in>"
 901              		.file 13 "../../../os/rt/include/chdebug.h"
 902              		.file 14 "../../../os/rt/include/chtm.h"
 903              		.file 15 "../../../os/rt/include/chstats.h"
 904              		.file 16 "../../../os/rt/include/chmtx.h"
 905              		.file 17 "../../../os/rt/include/chmemcore.h"
 906              		.file 18 "../../../os/rt/include/chheap.h"
 907              		.file 19 "../../../os/rt/include/chstreams.h"
 908              		.file 20 "ITM_trace.h"
 909              		.file 21 "ArrayList.h"
 910              		.file 22 "../../../os/ext/CMSIS/include/core_cm4.h"
 911              		.file 23 "c:\\program files\\gnu tools arm embedded\\4.9 2014q4\\arm-none-eabi\\include\\stdlib.h"
 912              		.file 24 "ArrayUtil.h"