ARM GAS  C:\Users\jo\AppData\Local\Temp\ccN0EpzZ.s 			page 1


   1              		.syntax unified
   2              		.cpu cortex-m4
   3              		.fpu softvfp
   4              		.eabi_attribute 20, 1
   5              		.eabi_attribute 21, 1
   6              		.eabi_attribute 23, 3
   7              		.eabi_attribute 24, 1
   8              		.eabi_attribute 25, 1
   9              		.eabi_attribute 26, 1
  10              		.eabi_attribute 30, 2
  11              		.eabi_attribute 34, 1
  12              		.eabi_attribute 18, 4
  13              		.thumb
  14              		.file	"ArrayList.c"
  15              		.text
  16              	.Ltext0:
  17              		.cfi_sections	.debug_frame
  18              		.section	.text.chprintf.constprop.2,"ax",%progbits
  19              		.align	2
  20              		.p2align 4,,15
  21              		.thumb
  22              		.thumb_func
  23              		.type	chprintf.constprop.2, %function
  24              	chprintf.constprop.2:
  25              	.LFB277:
  26              		.file 1 "../../../os/hal/lib/streams/chprintf.h"
  27              		.loc 1 69 0
  28              		.cfi_startproc
  29              		@ args = 4, pretend = 12, frame = 8
  30              		@ frame_needed = 0, uses_anonymous_args = 1
  31              	.LVL0:
  32 0000 0EB4     		push	{r1, r2, r3}
  33              		.cfi_def_cfa_offset 12
  34              		.cfi_offset 1, -12
  35              		.cfi_offset 2, -8
  36              		.cfi_offset 3, -4
  37 0002 00B5     		push	{lr}
  38              		.cfi_def_cfa_offset 16
  39              		.cfi_offset 14, -16
  40 0004 82B0     		sub	sp, sp, #8
  41              		.cfi_def_cfa_offset 24
  42              		.loc 1 69 0
  43 0006 03AA     		add	r2, sp, #12
  44              		.loc 1 74 0
  45 0008 0548     		ldr	r0, .L3
  46              	.LVL1:
  47              		.loc 1 69 0
  48 000a 52F8041B 		ldr	r1, [r2], #4
  49              		.loc 1 73 0
  50 000e 0192     		str	r2, [sp, #4]
  51              		.loc 1 74 0
  52 0010 FFF7FEFF 		bl	chvprintf
  53              	.LVL2:
  54              		.loc 1 78 0
  55 0014 02B0     		add	sp, sp, #8
  56              		.cfi_def_cfa_offset 16
  57              		@ sp needed
ARM GAS  C:\Users\jo\AppData\Local\Temp\ccN0EpzZ.s 			page 2


  58 0016 5DF804EB 		ldr	lr, [sp], #4
  59              		.cfi_restore 14
  60              		.cfi_def_cfa_offset 12
  61 001a 03B0     		add	sp, sp, #12
  62              		.cfi_restore 3
  63              		.cfi_restore 2
  64              		.cfi_restore 1
  65              		.cfi_def_cfa_offset 0
  66 001c 7047     		bx	lr
  67              	.L4:
  68 001e 00BF     		.align	2
  69              	.L3:
  70 0020 00000000 		.word	itm_port
  71              		.cfi_endproc
  72              	.LFE277:
  73              		.size	chprintf.constprop.2, .-chprintf.constprop.2
  74 0024 AFF30080 		.section	.text.initWithSizeAndIncRate,"ax",%progbits
  74      AFF30080 
  74      AFF30080 
  75              		.align	2
  76              		.p2align 4,,15
  77              		.global	initWithSizeAndIncRate
  78              		.thumb
  79              		.thumb_func
  80              		.type	initWithSizeAndIncRate, %function
  81              	initWithSizeAndIncRate:
  82              	.LFB258:
  83              		.file 2 "ArrayList.c"
  84              		.loc 2 28 0
  85              		.cfi_startproc
  86              		@ args = 0, pretend = 0, frame = 0
  87              		@ frame_needed = 0, uses_anonymous_args = 0
  88              	.LVL3:
  89 0000 10B5     		push	{r4, lr}
  90              		.cfi_def_cfa_offset 8
  91              		.cfi_offset 4, -8
  92              		.cfi_offset 14, -4
  93              		.loc 2 28 0
  94 0002 0446     		mov	r4, r0
  95              		.loc 2 30 0
  96 0004 8260     		str	r2, [r0, #8]
  97              		.loc 2 29 0
  98 0006 4160     		str	r1, [r0, #4]
  99              		.loc 2 31 0
 100 0008 8900     		lsls	r1, r1, #2
 101              	.LVL4:
 102 000a 0020     		movs	r0, #0
 103              	.LVL5:
 104 000c FFF7FEFF 		bl	chHeapAlloc
 105              	.LVL6:
 106              		.loc 2 32 0
 107 0010 0449     		ldr	r1, .L7
 108              		.loc 2 31 0
 109 0012 E060     		str	r0, [r4, #12]
 110              		.loc 2 32 0
 111 0014 0268     		ldr	r2, [r0]
 112 0016 0448     		ldr	r0, .L7+4
ARM GAS  C:\Users\jo\AppData\Local\Temp\ccN0EpzZ.s 			page 3


 113 0018 FFF7FEFF 		bl	chprintf.constprop.2
 114              	.LVL7:
 115              		.loc 2 33 0
 116 001c 4FF0FF33 		mov	r3, #-1
 117 0020 2360     		str	r3, [r4]
 118 0022 10BD     		pop	{r4, pc}
 119              	.LVL8:
 120              	.L8:
 121              		.align	2
 122              	.L7:
 123 0024 00000000 		.word	.LC0
 124 0028 00000000 		.word	itm_port
 125              		.cfi_endproc
 126              	.LFE258:
 127              		.size	initWithSizeAndIncRate, .-initWithSizeAndIncRate
 128 002c AFF30080 		.section	.text.initWithSize,"ax",%progbits
 129              		.align	2
 130              		.p2align 4,,15
 131              		.global	initWithSize
 132              		.thumb
 133              		.thumb_func
 134              		.type	initWithSize, %function
 135              	initWithSize:
 136              	.LFB257:
 137              		.loc 2 23 0
 138              		.cfi_startproc
 139              		@ args = 0, pretend = 0, frame = 0
 140              		@ frame_needed = 0, uses_anonymous_args = 0
 141              		@ link register save eliminated.
 142              	.LVL9:
 143              		.loc 2 24 0
 144 0000 3222     		movs	r2, #50
 145 0002 FFF7FEBF 		b	initWithSizeAndIncRate
 146              	.LVL10:
 147              		.cfi_endproc
 148              	.LFE257:
 149              		.size	initWithSize, .-initWithSize
 150 0006 00BFAFF3 		.section	.text.init,"ax",%progbits
 150      0080AFF3 
 150      0080
 151              		.align	2
 152              		.p2align 4,,15
 153              		.global	init
 154              		.thumb
 155              		.thumb_func
 156              		.type	init, %function
 157              	init:
 158              	.LFB256:
 159              		.loc 2 18 0
 160              		.cfi_startproc
 161              		@ args = 0, pretend = 0, frame = 0
 162              		@ frame_needed = 0, uses_anonymous_args = 0
 163              		@ link register save eliminated.
 164              	.LVL11:
 165              	.LBB7:
 166              	.LBB8:
 167              		.loc 2 24 0
ARM GAS  C:\Users\jo\AppData\Local\Temp\ccN0EpzZ.s 			page 4


 168 0000 1021     		movs	r1, #16
 169 0002 3222     		movs	r2, #50
 170 0004 FFF7FEBF 		b	initWithSizeAndIncRate
 171              	.LVL12:
 172              	.LBE8:
 173              	.LBE7:
 174              		.cfi_endproc
 175              	.LFE256:
 176              		.size	init, .-init
 177 0008 AFF30080 		.section	.text.clear,"ax",%progbits
 177      AFF30080 
 178              		.align	2
 179              		.p2align 4,,15
 180              		.global	clear
 181              		.thumb
 182              		.thumb_func
 183              		.type	clear, %function
 184              	clear:
 185              	.LFB259:
 186              		.loc 2 37 0
 187              		.cfi_startproc
 188              		@ args = 0, pretend = 0, frame = 0
 189              		@ frame_needed = 0, uses_anonymous_args = 0
 190              		@ link register save eliminated.
 191              	.LVL13:
 192              		.loc 2 38 0
 193 0000 0368     		ldr	r3, [r0]
 194 0002 002B     		cmp	r3, #0
 195 0004 0BDB     		blt	.L11
 196 0006 C268     		ldr	r2, [r0, #12]
 197              		.loc 2 40 0
 198 0008 0021     		movs	r1, #0
 199 000a 02EB8303 		add	r3, r2, r3, lsl #2
 200 000e 043A     		subs	r2, r2, #4
 201              	.L13:
 202 0010 43F80419 		str	r1, [r3], #-4
 203              		.loc 2 38 0
 204 0014 9342     		cmp	r3, r2
 205 0016 FBD1     		bne	.L13
 206 0018 4FF0FF33 		mov	r3, #-1
 207 001c 0360     		str	r3, [r0]
 208              	.L11:
 209 001e 7047     		bx	lr
 210              		.cfi_endproc
 211              	.LFE259:
 212              		.size	clear, .-clear
 213              		.section	.text.set,"ax",%progbits
 214              		.align	2
 215              		.p2align 4,,15
 216              		.global	set
 217              		.thumb
 218              		.thumb_func
 219              		.type	set, %function
 220              	set:
 221              	.LFB260:
 222              		.loc 2 46 0
 223              		.cfi_startproc
ARM GAS  C:\Users\jo\AppData\Local\Temp\ccN0EpzZ.s 			page 5


 224              		@ args = 0, pretend = 0, frame = 0
 225              		@ frame_needed = 0, uses_anonymous_args = 0
 226              		@ link register save eliminated.
 227              	.LVL14:
 228              		.loc 2 47 0
 229 0000 0368     		ldr	r3, [r0]
 230 0002 9342     		cmp	r3, r2
 231              		.loc 2 49 0
 232 0004 A8BF     		it	ge
 233 0006 C368     		ldrge	r3, [r0, #12]
 234              		.loc 2 52 0
 235 0008 4FF00000 		mov	r0, #0
 236              	.LVL15:
 237              		.loc 2 49 0
 238 000c A8BF     		it	ge
 239 000e 43F82210 		strge	r1, [r3, r2, lsl #2]
 240              		.loc 2 52 0
 241 0012 7047     		bx	lr
 242              		.cfi_endproc
 243              	.LFE260:
 244              		.size	set, .-set
 245 0014 AFF30080 		.section	.text.get,"ax",%progbits
 245      AFF30080 
 245      AFF30080 
 246              		.align	2
 247              		.p2align 4,,15
 248              		.global	get
 249              		.thumb
 250              		.thumb_func
 251              		.type	get, %function
 252              	get:
 253              	.LFB261:
 254              		.loc 2 55 0
 255              		.cfi_startproc
 256              		@ args = 0, pretend = 0, frame = 0
 257              		@ frame_needed = 0, uses_anonymous_args = 0
 258              		@ link register save eliminated.
 259              	.LVL16:
 260              		.loc 2 56 0
 261 0000 0368     		ldr	r3, [r0]
 262 0002 8B42     		cmp	r3, r1
 263              	.LBB9:
 264              		.loc 2 58 0
 265 0004 A6BF     		itte	ge
 266 0006 C368     		ldrge	r3, [r0, #12]
 267 0008 03EB8100 		addge	r0, r3, r1, lsl #2
 268              	.LVL17:
 269              	.LBE9:
 270              		.loc 2 61 0
 271 000c 0020     		movlt	r0, #0
 272              		.loc 2 62 0
 273 000e 7047     		bx	lr
 274              		.cfi_endproc
 275              	.LFE261:
 276              		.size	get, .-get
 277              		.section	.text.add,"ax",%progbits
 278              		.align	2
ARM GAS  C:\Users\jo\AppData\Local\Temp\ccN0EpzZ.s 			page 6


 279              		.p2align 4,,15
 280              		.global	add
 281              		.thumb
 282              		.thumb_func
 283              		.type	add, %function
 284              	add:
 285              	.LFB262:
 286              		.loc 2 65 0
 287              		.cfi_startproc
 288              		@ args = 0, pretend = 0, frame = 0
 289              		@ frame_needed = 0, uses_anonymous_args = 0
 290              	.LVL18:
 291 0000 2DE9F041 		push	{r4, r5, r6, r7, r8, lr}
 292              		.cfi_def_cfa_offset 24
 293              		.cfi_offset 4, -24
 294              		.cfi_offset 5, -20
 295              		.cfi_offset 6, -16
 296              		.cfi_offset 7, -12
 297              		.cfi_offset 8, -8
 298              		.cfi_offset 14, -4
 299              		.loc 2 66 0
 300 0004 90E86000 		ldmia	r0, {r5, r6}
 301 0008 0135     		adds	r5, r5, #1
 302 000a B542     		cmp	r5, r6
 303              		.loc 2 65 0
 304 000c 84B0     		sub	sp, sp, #16
 305              		.cfi_def_cfa_offset 40
 306              		.loc 2 65 0
 307 000e 0446     		mov	r4, r0
 308 0010 0F46     		mov	r7, r1
 309              		.loc 2 66 0
 310 0012 0560     		str	r5, [r0]
 311 0014 1CDB     		blt	.L26
 312              	.LVL19:
 313              	.LBB12:
 314              	.LBB13:
 315              		.loc 2 84 0
 316 0016 8368     		ldr	r3, [r0, #8]
 317 0018 1E44     		add	r6, r6, r3
 318 001a 4660     		str	r6, [r0, #4]
 319              		.loc 2 85 0
 320 001c 3146     		mov	r1, r6
 321              	.LVL20:
 322 001e 0420     		movs	r0, #4
 323              	.LVL21:
 324 0020 FFF7FEFF 		bl	calloc
 325              	.LVL22:
 326              		.loc 2 86 0
 327 0024 0021     		movs	r1, #0
 328 0026 0423     		movs	r3, #4
 329 0028 E268     		ldr	r2, [r4, #12]
 330 002a 0293     		str	r3, [sp, #8]
 331 002c 0196     		str	r6, [sp, #4]
 332 002e 0B46     		mov	r3, r1
 333 0030 0095     		str	r5, [sp]
 334              		.loc 2 85 0
 335 0032 8046     		mov	r8, r0
ARM GAS  C:\Users\jo\AppData\Local\Temp\ccN0EpzZ.s 			page 7


 336              	.LVL23:
 337              		.loc 2 86 0
 338 0034 FFF7FEFF 		bl	arrayCopy
 339              	.LVL24:
 340              		.loc 2 87 0
 341 0038 E068     		ldr	r0, [r4, #12]
 342 003a FFF7FEFF 		bl	free
 343              	.LVL25:
 344              	.LBE13:
 345              	.LBE12:
 346              		.loc 2 76 0
 347 003e 2368     		ldr	r3, [r4]
 348              	.LBB15:
 349              	.LBB14:
 350              		.loc 2 88 0
 351 0040 C4F80C80 		str	r8, [r4, #12]
 352              	.LBE14:
 353              	.LBE15:
 354              		.loc 2 80 0
 355 0044 0120     		movs	r0, #1
 356              	.LVL26:
 357              		.loc 2 76 0
 358 0046 48F82370 		str	r7, [r8, r3, lsl #2]
 359              		.loc 2 80 0
 360 004a 04B0     		add	sp, sp, #16
 361              		.cfi_remember_state
 362              		.cfi_def_cfa_offset 24
 363              		@ sp needed
 364 004c BDE8F081 		pop	{r4, r5, r6, r7, r8, pc}
 365              	.LVL27:
 366              	.L26:
 367              		.cfi_restore_state
 368              		.loc 2 68 0
 369 0050 2A46     		mov	r2, r5
 370 0052 0B49     		ldr	r1, .L27
 371              	.LVL28:
 372 0054 0B48     		ldr	r0, .L27+4
 373              	.LVL29:
 374 0056 FFF7FEFF 		bl	chprintf.constprop.2
 375              	.LVL30:
 376              		.loc 2 69 0
 377 005a 3A46     		mov	r2, r7
 378 005c 0A49     		ldr	r1, .L27+8
 379 005e 0948     		ldr	r0, .L27+4
 380 0060 FFF7FEFF 		bl	chprintf.constprop.2
 381              	.LVL31:
 382              		.loc 2 70 0
 383 0064 2268     		ldr	r2, [r4]
 384 0066 E368     		ldr	r3, [r4, #12]
 385              		.loc 2 71 0
 386 0068 0849     		ldr	r1, .L27+12
 387              		.loc 2 70 0
 388 006a 43F82270 		str	r7, [r3, r2, lsl #2]
 389              		.loc 2 71 0
 390 006e 0548     		ldr	r0, .L27+4
 391 0070 3A46     		mov	r2, r7
 392 0072 FFF7FEFF 		bl	chprintf.constprop.2
ARM GAS  C:\Users\jo\AppData\Local\Temp\ccN0EpzZ.s 			page 8


 393              	.LVL32:
 394              		.loc 2 80 0
 395 0076 0120     		movs	r0, #1
 396 0078 04B0     		add	sp, sp, #16
 397              		.cfi_def_cfa_offset 24
 398              		@ sp needed
 399 007a BDE8F081 		pop	{r4, r5, r6, r7, r8, pc}
 400              	.LVL33:
 401              	.L28:
 402 007e 00BF     		.align	2
 403              	.L27:
 404 0080 14000000 		.word	.LC1
 405 0084 00000000 		.word	itm_port
 406 0088 28000000 		.word	.LC2
 407 008c 34000000 		.word	.LC3
 408              		.cfi_endproc
 409              	.LFE262:
 410              		.size	add, .-add
 411              		.section	.text.insert,"ax",%progbits
 412              		.align	2
 413              		.p2align 4,,15
 414              		.global	insert
 415              		.thumb
 416              		.thumb_func
 417              		.type	insert, %function
 418              	insert:
 419              	.LFB264:
 420              		.loc 2 92 0
 421              		.cfi_startproc
 422              		@ args = 0, pretend = 0, frame = 0
 423              		@ frame_needed = 0, uses_anonymous_args = 0
 424              	.LVL34:
 425 0000 F0B5     		push	{r4, r5, r6, r7, lr}
 426              		.cfi_def_cfa_offset 20
 427              		.cfi_offset 4, -20
 428              		.cfi_offset 5, -16
 429              		.cfi_offset 6, -12
 430              		.cfi_offset 7, -8
 431              		.cfi_offset 14, -4
 432              		.loc 2 93 0
 433 0002 0468     		ldr	r4, [r0]
 434 0004 9442     		cmp	r4, r2
 435              		.loc 2 92 0
 436 0006 85B0     		sub	sp, sp, #20
 437              		.cfi_def_cfa_offset 40
 438              		.loc 2 93 0
 439 0008 04DB     		blt	.L32
 440              		.loc 2 93 0 is_stmt 0 discriminator 1
 441 000a 4368     		ldr	r3, [r0, #4]
 442 000c 0134     		adds	r4, r4, #1
 443 000e 9C42     		cmp	r4, r3
 444 0010 0460     		str	r4, [r0]
 445 0012 02DB     		blt	.L34
 446              	.L32:
 447              		.loc 2 99 0 is_stmt 1
 448 0014 0020     		movs	r0, #0
 449              	.LVL35:
ARM GAS  C:\Users\jo\AppData\Local\Temp\ccN0EpzZ.s 			page 9


 450              		.loc 2 100 0
 451 0016 05B0     		add	sp, sp, #20
 452              		.cfi_remember_state
 453              		.cfi_def_cfa_offset 20
 454              		@ sp needed
 455 0018 F0BD     		pop	{r4, r5, r6, r7, pc}
 456              	.LVL36:
 457              	.L34:
 458              		.cfi_restore_state
 459 001a 0546     		mov	r5, r0
 460 001c C068     		ldr	r0, [r0, #12]
 461              	.LVL37:
 462              	.LBB20:
 463              	.LBB21:
 464              	.LBB22:
 465              		.loc 2 169 0
 466 001e 0194     		str	r4, [sp, #4]
 467 0020 1646     		mov	r6, r2
 468              	.LVL38:
 469 0022 0124     		movs	r4, #1
 470 0024 0423     		movs	r3, #4
 471 0026 0F46     		mov	r7, r1
 472 0028 0246     		mov	r2, r0
 473              	.LVL39:
 474 002a 0293     		str	r3, [sp, #8]
 475 002c 0094     		str	r4, [sp]
 476 002e 3346     		mov	r3, r6
 477 0030 3119     		adds	r1, r6, r4
 478              	.LVL40:
 479 0032 FFF7FEFF 		bl	arrayCopy
 480              	.LVL41:
 481              	.LBE22:
 482              	.LBE21:
 483              	.LBE20:
 484              		.loc 2 96 0
 485 0036 EB68     		ldr	r3, [r5, #12]
 486              		.loc 2 97 0
 487 0038 2046     		mov	r0, r4
 488              	.LVL42:
 489              		.loc 2 96 0
 490 003a 43F82670 		str	r7, [r3, r6, lsl #2]
 491              		.loc 2 100 0
 492 003e 05B0     		add	sp, sp, #20
 493              		.cfi_def_cfa_offset 20
 494              		@ sp needed
 495 0040 F0BD     		pop	{r4, r5, r6, r7, pc}
 496              		.cfi_endproc
 497              	.LFE264:
 498              		.size	insert, .-insert
 499 0042 00BFAFF3 		.section	.text.lastIndexOf,"ax",%progbits
 499      0080AFF3 
 499      0080AFF3 
 499      0080
 500              		.align	2
 501              		.p2align 4,,15
 502              		.global	lastIndexOf
 503              		.thumb
ARM GAS  C:\Users\jo\AppData\Local\Temp\ccN0EpzZ.s 			page 10


 504              		.thumb_func
 505              		.type	lastIndexOf, %function
 506              	lastIndexOf:
 507              	.LFB265:
 508              		.loc 2 103 0
 509              		.cfi_startproc
 510              		@ args = 0, pretend = 0, frame = 0
 511              		@ frame_needed = 0, uses_anonymous_args = 0
 512              		@ link register save eliminated.
 513              	.LVL43:
 514 0000 30B4     		push	{r4, r5}
 515              		.cfi_def_cfa_offset 8
 516              		.cfi_offset 4, -8
 517              		.cfi_offset 5, -4
 518              		.loc 2 104 0
 519 0002 0568     		ldr	r5, [r0]
 520              	.LVL44:
 521              		.loc 2 105 0
 522 0004 002D     		cmp	r5, #0
 523 0006 10DB     		blt	.L41
 524              		.loc 2 107 0
 525 0008 C268     		ldr	r2, [r0, #12]
 526 000a 52F82530 		ldr	r3, [r2, r5, lsl #2]
 527 000e 9942     		cmp	r1, r3
 528 0010 02EB8502 		add	r2, r2, r5, lsl #2
 529 0014 18BF     		it	ne
 530 0016 2B46     		movne	r3, r5
 531 0018 04D1     		bne	.L39
 532 001a 06E0     		b	.L41
 533              	.LVL45:
 534              	.L40:
 535 001c 52F8044D 		ldr	r4, [r2, #-4]!
 536 0020 A142     		cmp	r1, r4
 537 0022 05D0     		beq	.L46
 538              	.LVL46:
 539              	.L39:
 540              		.loc 2 105 0
 541 0024 13F1FF33 		adds	r3, r3, #-1
 542              	.LVL47:
 543 0028 F8D2     		bcs	.L40
 544              	.LVL48:
 545              	.L41:
 546              		.loc 2 110 0
 547 002a 0020     		movs	r0, #0
 548              	.LVL49:
 549              		.loc 2 111 0
 550 002c 30BC     		pop	{r4, r5}
 551              		.cfi_remember_state
 552              		.cfi_restore 5
 553              		.cfi_restore 4
 554              		.cfi_def_cfa_offset 0
 555 002e 7047     		bx	lr
 556              	.LVL50:
 557              	.L46:
 558              		.cfi_restore_state
 559 0030 E81A     		subs	r0, r5, r3
 560              	.LVL51:
ARM GAS  C:\Users\jo\AppData\Local\Temp\ccN0EpzZ.s 			page 11


 561 0032 30BC     		pop	{r4, r5}
 562              		.cfi_restore 4
 563              		.cfi_restore 5
 564              		.cfi_def_cfa_offset 0
 565 0034 7047     		bx	lr
 566              		.cfi_endproc
 567              	.LFE265:
 568              		.size	lastIndexOf, .-lastIndexOf
 569 0036 00BFAFF3 		.section	.text.indexOf,"ax",%progbits
 569      0080AFF3 
 569      0080
 570              		.align	2
 571              		.p2align 4,,15
 572              		.global	indexOf
 573              		.thumb
 574              		.thumb_func
 575              		.type	indexOf, %function
 576              	indexOf:
 577              	.LFB266:
 578              		.loc 2 114 0
 579              		.cfi_startproc
 580              		@ args = 0, pretend = 0, frame = 0
 581              		@ frame_needed = 0, uses_anonymous_args = 0
 582              		@ link register save eliminated.
 583              	.LVL52:
 584 0000 10B4     		push	{r4}
 585              		.cfi_def_cfa_offset 4
 586              		.cfi_offset 4, -4
 587              		.loc 2 116 0
 588 0002 0468     		ldr	r4, [r0]
 589 0004 002C     		cmp	r4, #0
 590 0006 0DDB     		blt	.L53
 591              		.loc 2 118 0
 592 0008 C368     		ldr	r3, [r0, #12]
 593 000a 1A68     		ldr	r2, [r3]
 594 000c 9142     		cmp	r1, r2
 595 000e 18BF     		it	ne
 596 0010 0020     		movne	r0, #0
 597              	.LVL53:
 598 0012 04D1     		bne	.L51
 599 0014 06E0     		b	.L53
 600              	.LVL54:
 601              	.L52:
 602 0016 53F8042F 		ldr	r2, [r3, #4]!
 603 001a 9142     		cmp	r1, r2
 604 001c 03D0     		beq	.L48
 605              	.LVL55:
 606              	.L51:
 607              		.loc 2 119 0
 608 001e 0130     		adds	r0, r0, #1
 609              	.LVL56:
 610              		.loc 2 116 0
 611 0020 A042     		cmp	r0, r4
 612 0022 F8DD     		ble	.L52
 613              	.LVL57:
 614              	.L53:
 615              		.loc 2 121 0
ARM GAS  C:\Users\jo\AppData\Local\Temp\ccN0EpzZ.s 			page 12


 616 0024 0020     		movs	r0, #0
 617              	.L48:
 618              		.loc 2 122 0
 619 0026 5DF8044B 		ldr	r4, [sp], #4
 620              		.cfi_restore 4
 621              		.cfi_def_cfa_offset 0
 622 002a 7047     		bx	lr
 623              		.cfi_endproc
 624              	.LFE266:
 625              		.size	indexOf, .-indexOf
 626 002c AFF30080 		.section	.text.isEmpty,"ax",%progbits
 627              		.align	2
 628              		.p2align 4,,15
 629              		.global	isEmpty
 630              		.thumb
 631              		.thumb_func
 632              		.type	isEmpty, %function
 633              	isEmpty:
 634              	.LFB267:
 635              		.loc 2 125 0
 636              		.cfi_startproc
 637              		@ args = 0, pretend = 0, frame = 0
 638              		@ frame_needed = 0, uses_anonymous_args = 0
 639              		@ link register save eliminated.
 640              	.LVL58:
 641              		.loc 2 126 0
 642 0000 0068     		ldr	r0, [r0]
 643              	.LVL59:
 644              		.loc 2 127 0
 645 0002 A0F1FF30 		sub	r0, r0, #-1
 646 0006 B0FA80F0 		clz	r0, r0
 647 000a 4009     		lsrs	r0, r0, #5
 648 000c 7047     		bx	lr
 649              		.cfi_endproc
 650              	.LFE267:
 651              		.size	isEmpty, .-isEmpty
 652 000e 00BF     		.section	.text.removeAt,"ax",%progbits
 653              		.align	2
 654              		.p2align 4,,15
 655              		.global	removeAt
 656              		.thumb
 657              		.thumb_func
 658              		.type	removeAt, %function
 659              	removeAt:
 660              	.LFB268:
 661              		.loc 2 130 0
 662              		.cfi_startproc
 663              		@ args = 0, pretend = 0, frame = 0
 664              		@ frame_needed = 0, uses_anonymous_args = 0
 665              	.LVL60:
 666 0000 F0B5     		push	{r4, r5, r6, r7, lr}
 667              		.cfi_def_cfa_offset 20
 668              		.cfi_offset 4, -20
 669              		.cfi_offset 5, -16
 670              		.cfi_offset 6, -12
 671              		.cfi_offset 7, -8
 672              		.cfi_offset 14, -4
ARM GAS  C:\Users\jo\AppData\Local\Temp\ccN0EpzZ.s 			page 13


 673              		.loc 2 131 0
 674 0002 0368     		ldr	r3, [r0]
 675 0004 8B42     		cmp	r3, r1
 676              		.loc 2 130 0
 677 0006 85B0     		sub	sp, sp, #20
 678              		.cfi_def_cfa_offset 40
 679              		.loc 2 131 0
 680 0008 16DB     		blt	.L61
 681              	.LBB26:
 682              		.loc 2 133 0
 683 000a C568     		ldr	r5, [r0, #12]
 684              	.LBB27:
 685              	.LBB28:
 686              		.loc 2 172 0
 687 000c 0193     		str	r3, [sp, #4]
 688 000e 0446     		mov	r4, r0
 689 0010 4FF0010E 		mov	lr, #1
 690 0014 0427     		movs	r7, #4
 691 0016 2846     		mov	r0, r5
 692              	.LVL61:
 693 0018 2A46     		mov	r2, r5
 694 001a 01EB0E03 		add	r3, r1, lr
 695 001e CDF800E0 		str	lr, [sp]
 696 0022 0297     		str	r7, [sp, #8]
 697              	.LBE28:
 698              	.LBE27:
 699              		.loc 2 133 0
 700 0024 05EB8105 		add	r5, r5, r1, lsl #2
 701              	.LVL62:
 702              	.LBB30:
 703              	.LBB29:
 704              		.loc 2 172 0
 705 0028 FFF7FEFF 		bl	arrayCopy
 706              	.LVL63:
 707              	.LBE29:
 708              	.LBE30:
 709              		.loc 2 135 0
 710 002c 2368     		ldr	r3, [r4]
 711              		.loc 2 136 0
 712 002e 2846     		mov	r0, r5
 713              		.loc 2 135 0
 714 0030 013B     		subs	r3, r3, #1
 715 0032 2360     		str	r3, [r4]
 716              	.LBE26:
 717              		.loc 2 139 0
 718 0034 05B0     		add	sp, sp, #20
 719              		.cfi_remember_state
 720              		.cfi_def_cfa_offset 20
 721              		@ sp needed
 722 0036 F0BD     		pop	{r4, r5, r6, r7, pc}
 723              	.LVL64:
 724              	.L61:
 725              		.cfi_restore_state
 726              		.loc 2 138 0
 727 0038 0020     		movs	r0, #0
 728              	.LVL65:
 729              		.loc 2 139 0
ARM GAS  C:\Users\jo\AppData\Local\Temp\ccN0EpzZ.s 			page 14


 730 003a 05B0     		add	sp, sp, #20
 731              		.cfi_def_cfa_offset 20
 732              		@ sp needed
 733 003c F0BD     		pop	{r4, r5, r6, r7, pc}
 734              		.cfi_endproc
 735              	.LFE268:
 736              		.size	removeAt, .-removeAt
 737 003e 00BF     		.section	.text.print,"ax",%progbits
 738              		.align	2
 739              		.p2align 4,,15
 740              		.global	print
 741              		.thumb
 742              		.thumb_func
 743              		.type	print, %function
 744              	print:
 745              	.LFB269:
 746              		.loc 2 142 0
 747              		.cfi_startproc
 748              		@ args = 0, pretend = 0, frame = 0
 749              		@ frame_needed = 0, uses_anonymous_args = 0
 750              	.LVL66:
 751 0000 70B5     		push	{r4, r5, r6, lr}
 752              		.cfi_def_cfa_offset 16
 753              		.cfi_offset 4, -16
 754              		.cfi_offset 5, -12
 755              		.cfi_offset 6, -8
 756              		.cfi_offset 14, -4
 757              		.loc 2 142 0
 758 0002 0546     		mov	r5, r0
 759              		.loc 2 144 0
 760 0004 0268     		ldr	r2, [r0]
 761 0006 1449     		ldr	r1, .L69
 762 0008 1448     		ldr	r0, .L69+4
 763              	.LVL67:
 764 000a FFF7FEFF 		bl	chprintf.constprop.2
 765              	.LVL68:
 766              		.loc 2 145 0
 767 000e 2B68     		ldr	r3, [r5]
 768 0010 002B     		cmp	r3, #0
 769 0012 A8BF     		it	ge
 770 0014 0024     		movge	r4, #0
 771 0016 18DB     		blt	.L65
 772              	.LVL69:
 773              	.L64:
 774              	.LBB31:
 775              		.loc 2 147 0 discriminator 3
 776 0018 EB68     		ldr	r3, [r5, #12]
 777 001a 1149     		ldr	r1, .L69+8
 778 001c 53F82430 		ldr	r3, [r3, r4, lsl #2]
 779 0020 0E48     		ldr	r0, .L69+4
 780 0022 2246     		mov	r2, r4
 781 0024 FFF7FEFF 		bl	chprintf.constprop.2
 782              	.LVL70:
 783              		.loc 2 148 0 discriminator 3
 784 0028 EB68     		ldr	r3, [r5, #12]
 785              		.loc 2 149 0 discriminator 3
 786 002a 0E49     		ldr	r1, .L69+12
ARM GAS  C:\Users\jo\AppData\Local\Temp\ccN0EpzZ.s 			page 15


 787              		.loc 2 148 0 discriminator 3
 788 002c 53F82460 		ldr	r6, [r3, r4, lsl #2]
 789              	.LVL71:
 790              		.loc 2 149 0 discriminator 3
 791 0030 0A48     		ldr	r0, .L69+4
 792 0032 3246     		mov	r2, r6
 793 0034 FFF7FEFF 		bl	chprintf.constprop.2
 794              	.LVL72:
 795              	.LBB32:
 796              	.LBB33:
 797              		.loc 2 162 0 discriminator 3
 798 0038 3246     		mov	r2, r6
 799 003a 0848     		ldr	r0, .L69+4
 800 003c 0A49     		ldr	r1, .L69+16
 801 003e FFF7FEFF 		bl	chprintf.constprop.2
 802              	.LVL73:
 803              	.LBE33:
 804              	.LBE32:
 805              	.LBE31:
 806              		.loc 2 145 0 discriminator 3
 807 0042 2B68     		ldr	r3, [r5]
 808 0044 0134     		adds	r4, r4, #1
 809              	.LVL74:
 810 0046 A342     		cmp	r3, r4
 811 0048 E6DA     		bge	.L64
 812              	.LVL75:
 813              	.L65:
 814              		.loc 2 152 0
 815 004a 0448     		ldr	r0, .L69+4
 816 004c 0749     		ldr	r1, .L69+20
 817              		.loc 2 153 0
 818 004e BDE87040 		pop	{r4, r5, r6, lr}
 819              		.cfi_restore 14
 820              		.cfi_restore 6
 821              		.cfi_restore 5
 822              		.cfi_restore 4
 823              		.cfi_def_cfa_offset 0
 824              	.LVL76:
 825              		.loc 2 152 0
 826 0052 FFF7FEBF 		b	chprintf.constprop.2
 827              	.LVL77:
 828              	.L70:
 829 0056 00BF     		.align	2
 830              	.L69:
 831 0058 58000000 		.word	.LC4
 832 005c 00000000 		.word	itm_port
 833 0060 78000000 		.word	.LC6
 834 0064 98000000 		.word	.LC7
 835 0068 AC000000 		.word	.LC8
 836 006c 74000000 		.word	.LC5
 837              		.cfi_endproc
 838              	.LFE269:
 839              		.size	print, .-print
 840              		.section	.text.clean,"ax",%progbits
 841              		.align	2
 842              		.p2align 4,,15
 843              		.global	clean
ARM GAS  C:\Users\jo\AppData\Local\Temp\ccN0EpzZ.s 			page 16


 844              		.thumb
 845              		.thumb_func
 846              		.type	clean, %function
 847              	clean:
 848              	.LFB270:
 849              		.loc 2 156 0
 850              		.cfi_startproc
 851              		@ args = 0, pretend = 0, frame = 0
 852              		@ frame_needed = 0, uses_anonymous_args = 0
 853              		@ link register save eliminated.
 854              	.LVL78:
 855              		.loc 2 157 0
 856 0000 C068     		ldr	r0, [r0, #12]
 857              	.LVL79:
 858 0002 FFF7FEBF 		b	free
 859              	.LVL80:
 860              		.cfi_endproc
 861              	.LFE270:
 862              		.size	clean, .-clean
 863 0006 00BFAFF3 		.section	.rodata.str1.4,"aMS",%progbits,1
 863      0080AFF3 
 863      0080
 864              		.align	2
 865              	.LC0:
 866 0000 6C697374 		.ascii	"list->elements: %i\012\000"
 866      2D3E656C 
 866      656D656E 
 866      74733A20 
 866      25690A00 
 867              	.LC1:
 868 0014 6C697374 		.ascii	"list->current: %i\012\000"
 868      2D3E6375 
 868      7272656E 
 868      743A2025 
 868      690A00
 869 0027 00       		.space	1
 870              	.LC2:
 871 0028 652E6461 		.ascii	"e.data: %i\012\000"
 871      74613A20 
 871      25690A00 
 872              	.LC3:
 873 0034 6C697374 		.ascii	"list->elements[list->current]: %i\012\000"
 873      2D3E656C 
 873      656D656E 
 873      74735B6C 
 873      6973742D 
 874 0057 00       		.space	1
 875              	.LC4:
 876 0058 7072696E 		.ascii	"print list->current: %i\012\000"
 876      74206C69 
 876      73742D3E 
 876      63757272 
 876      656E743A 
 877 0071 000000   		.space	3
 878              	.LC5:
 879 0074 0A00     		.ascii	"\012\000"
 880 0076 0000     		.space	2
ARM GAS  C:\Users\jo\AppData\Local\Temp\ccN0EpzZ.s 			page 17


 881              	.LC6:
 882 0078 7072696E 		.ascii	"print list->elements[%d]: %i\012\000"
 882      74206C69 
 882      73742D3E 
 882      656C656D 
 882      656E7473 
 883 0096 0000     		.space	2
 884              	.LC7:
 885 0098 7072696E 		.ascii	"print e.data: %i\012\000"
 885      7420652E 
 885      64617461 
 885      3A202569 
 885      0A00
 886 00aa 0000     		.space	2
 887              	.LC8:
 888 00ac 7072696E 		.ascii	"print e->data: %i \000"
 888      7420652D 
 888      3E646174 
 888      613A2025 
 888      692000
 889 00bf 00       		.text
 890              	.Letext0:
 891              		.file 3 "c:\\program files\\gnu tools arm embedded\\4.9 2014q4\\lib\\gcc\\arm-none-eabi\\4.9.3\\in
 892              		.file 4 "c:\\program files\\gnu tools arm embedded\\4.9 2014q4\\arm-none-eabi\\include\\machine\\_
 893              		.file 5 "c:\\program files\\gnu tools arm embedded\\4.9 2014q4\\arm-none-eabi\\include\\stdint.h"
 894              		.file 6 "../../../os/rt/ports/ARMCMx/compilers/GCC/chtypes.h"
 895              		.file 7 "../../../os/rt/include/chsystypes.h"
 896              		.file 8 "../../../os/rt/include/chschd.h"
 897              		.file 9 "../../../os/rt/ports/ARMCMx/chcore.h"
 898              		.file 10 "../../../os/rt/ports/ARMCMx/chcore_v7m.h"
 899              		.file 11 "c:\\program files\\gnu tools arm embedded\\4.9 2014q4\\lib\\gcc\\arm-none-eabi\\4.9.3\\i
 900              		.file 12 "<built-in>"
 901              		.file 13 "../../../os/rt/include/chdebug.h"
 902              		.file 14 "../../../os/rt/include/chtm.h"
 903              		.file 15 "../../../os/rt/include/chstats.h"
 904              		.file 16 "../../../os/rt/include/chmtx.h"
 905              		.file 17 "../../../os/rt/include/chmemcore.h"
 906              		.file 18 "../../../os/rt/include/chheap.h"
 907              		.file 19 "../../../os/rt/include/chstreams.h"
 908              		.file 20 "ITM_trace.h"
 909              		.file 21 "ArrayList.h"
 910              		.file 22 "../../../os/ext/CMSIS/include/core_cm4.h"
 911              		.file 23 "c:\\program files\\gnu tools arm embedded\\4.9 2014q4\\arm-none-eabi\\include\\stdlib.h"
 912              		.file 24 "ArrayUtil.h"
 913              		.section	.debug_info,"",%progbits
 914              	.Ldebug_info0:
 915 0000 36120000 		.4byte	0x1236
 916 0004 0400     		.2byte	0x4
 917 0006 00000000 		.4byte	.Ldebug_abbrev0
 918 000a 04       		.byte	0x4
 919 000b 01       		.uleb128 0x1
 920 000c 49030000 		.4byte	.LASF178
 921 0010 01       		.byte	0x1
 922 0011 96070000 		.4byte	.LASF179
 923 0015 12010000 		.4byte	.LASF180
 924 0019 30000000 		.4byte	.Ldebug_ranges0+0x30
 925 001d 00000000 		.4byte	0
ARM GAS  C:\Users\jo\AppData\Local\Temp\ccN0EpzZ.s 			page 18


 926 0021 00000000 		.4byte	.Ldebug_line0
 927 0025 02       		.uleb128 0x2
 928 0026 1A000000 		.4byte	.LASF2
 929 002a 03       		.byte	0x3
 930 002b D4       		.byte	0xd4
 931 002c 30000000 		.4byte	0x30
 932 0030 03       		.uleb128 0x3
 933 0031 04       		.byte	0x4
 934 0032 07       		.byte	0x7
 935 0033 73020000 		.4byte	.LASF0
 936 0037 04       		.uleb128 0x4
 937 0038 04       		.byte	0x4
 938 0039 05       		.byte	0x5
 939 003a 696E7400 		.ascii	"int\000"
 940 003e 03       		.uleb128 0x3
 941 003f 01       		.byte	0x1
 942 0040 06       		.byte	0x6
 943 0041 76010000 		.4byte	.LASF1
 944 0045 02       		.uleb128 0x2
 945 0046 48000000 		.4byte	.LASF3
 946 004a 04       		.byte	0x4
 947 004b 1D       		.byte	0x1d
 948 004c 50000000 		.4byte	0x50
 949 0050 03       		.uleb128 0x3
 950 0051 01       		.byte	0x1
 951 0052 08       		.byte	0x8
 952 0053 58050000 		.4byte	.LASF4
 953 0057 03       		.uleb128 0x3
 954 0058 02       		.byte	0x2
 955 0059 05       		.byte	0x5
 956 005a 83050000 		.4byte	.LASF5
 957 005e 03       		.uleb128 0x3
 958 005f 02       		.byte	0x2
 959 0060 07       		.byte	0x7
 960 0061 AD020000 		.4byte	.LASF6
 961 0065 02       		.uleb128 0x2
 962 0066 3F030000 		.4byte	.LASF7
 963 006a 04       		.byte	0x4
 964 006b 3F       		.byte	0x3f
 965 006c 70000000 		.4byte	0x70
 966 0070 03       		.uleb128 0x3
 967 0071 04       		.byte	0x4
 968 0072 05       		.byte	0x5
 969 0073 A4010000 		.4byte	.LASF8
 970 0077 02       		.uleb128 0x2
 971 0078 B5060000 		.4byte	.LASF9
 972 007c 04       		.byte	0x4
 973 007d 41       		.byte	0x41
 974 007e 82000000 		.4byte	0x82
 975 0082 03       		.uleb128 0x3
 976 0083 04       		.byte	0x4
 977 0084 07       		.byte	0x7
 978 0085 4A060000 		.4byte	.LASF10
 979 0089 03       		.uleb128 0x3
 980 008a 08       		.byte	0x8
 981 008b 05       		.byte	0x5
 982 008c 68010000 		.4byte	.LASF11
ARM GAS  C:\Users\jo\AppData\Local\Temp\ccN0EpzZ.s 			page 19


 983 0090 02       		.uleb128 0x2
 984 0091 F2040000 		.4byte	.LASF12
 985 0095 04       		.byte	0x4
 986 0096 5B       		.byte	0x5b
 987 0097 9B000000 		.4byte	0x9b
 988 009b 03       		.uleb128 0x3
 989 009c 08       		.byte	0x8
 990 009d 07       		.byte	0x7
 991 009e 93000000 		.4byte	.LASF13
 992 00a2 03       		.uleb128 0x3
 993 00a3 04       		.byte	0x4
 994 00a4 07       		.byte	0x7
 995 00a5 47040000 		.4byte	.LASF14
 996 00a9 05       		.uleb128 0x5
 997 00aa 04       		.byte	0x4
 998 00ab 03       		.uleb128 0x3
 999 00ac 01       		.byte	0x1
 1000 00ad 08       		.byte	0x8
 1001 00ae 61060000 		.4byte	.LASF15
 1002 00b2 06       		.uleb128 0x6
 1003 00b3 04       		.byte	0x4
 1004 00b4 B8000000 		.4byte	0xb8
 1005 00b8 07       		.uleb128 0x7
 1006 00b9 AB000000 		.4byte	0xab
 1007 00bd 06       		.uleb128 0x6
 1008 00be 04       		.byte	0x4
 1009 00bf C3000000 		.4byte	0xc3
 1010 00c3 08       		.uleb128 0x8
 1011 00c4 02       		.uleb128 0x2
 1012 00c5 57070000 		.4byte	.LASF16
 1013 00c9 05       		.byte	0x5
 1014 00ca 15       		.byte	0x15
 1015 00cb 45000000 		.4byte	0x45
 1016 00cf 02       		.uleb128 0x2
 1017 00d0 50050000 		.4byte	.LASF17
 1018 00d4 05       		.byte	0x5
 1019 00d5 2C       		.byte	0x2c
 1020 00d6 65000000 		.4byte	0x65
 1021 00da 02       		.uleb128 0x2
 1022 00db 15060000 		.4byte	.LASF18
 1023 00df 05       		.byte	0x5
 1024 00e0 2D       		.byte	0x2d
 1025 00e1 77000000 		.4byte	0x77
 1026 00e5 02       		.uleb128 0x2
 1027 00e6 2D000000 		.4byte	.LASF19
 1028 00ea 05       		.byte	0x5
 1029 00eb 39       		.byte	0x39
 1030 00ec 90000000 		.4byte	0x90
 1031 00f0 09       		.uleb128 0x9
 1032 00f1 CF000000 		.4byte	0xcf
 1033 00f5 02       		.uleb128 0x2
 1034 00f6 FF060000 		.4byte	.LASF20
 1035 00fa 06       		.byte	0x6
 1036 00fb 45       		.byte	0x45
 1037 00fc DA000000 		.4byte	0xda
 1038 0100 02       		.uleb128 0x2
 1039 0101 02010000 		.4byte	.LASF21
ARM GAS  C:\Users\jo\AppData\Local\Temp\ccN0EpzZ.s 			page 20


 1040 0105 06       		.byte	0x6
 1041 0106 46       		.byte	0x46
 1042 0107 E5000000 		.4byte	0xe5
 1043 010b 02       		.uleb128 0x2
 1044 010c 12030000 		.4byte	.LASF22
 1045 0110 06       		.byte	0x6
 1046 0111 48       		.byte	0x48
 1047 0112 C4000000 		.4byte	0xc4
 1048 0116 02       		.uleb128 0x2
 1049 0117 AD010000 		.4byte	.LASF23
 1050 011b 06       		.byte	0x6
 1051 011c 49       		.byte	0x49
 1052 011d C4000000 		.4byte	0xc4
 1053 0121 02       		.uleb128 0x2
 1054 0122 EA020000 		.4byte	.LASF24
 1055 0126 06       		.byte	0x6
 1056 0127 4A       		.byte	0x4a
 1057 0128 C4000000 		.4byte	0xc4
 1058 012c 02       		.uleb128 0x2
 1059 012d 33050000 		.4byte	.LASF25
 1060 0131 06       		.byte	0x6
 1061 0132 4C       		.byte	0x4c
 1062 0133 DA000000 		.4byte	0xda
 1063 0137 02       		.uleb128 0x2
 1064 0138 E4020000 		.4byte	.LASF26
 1065 013c 06       		.byte	0x6
 1066 013d 4D       		.byte	0x4d
 1067 013e CF000000 		.4byte	0xcf
 1068 0142 02       		.uleb128 0x2
 1069 0143 33030000 		.4byte	.LASF27
 1070 0147 06       		.byte	0x6
 1071 0148 4F       		.byte	0x4f
 1072 0149 DA000000 		.4byte	0xda
 1073 014d 02       		.uleb128 0x2
 1074 014e 62020000 		.4byte	.LASF28
 1075 0152 06       		.byte	0x6
 1076 0153 51       		.byte	0x51
 1077 0154 CF000000 		.4byte	0xcf
 1078 0158 02       		.uleb128 0x2
 1079 0159 F2020000 		.4byte	.LASF29
 1080 015d 06       		.byte	0x6
 1081 015e 52       		.byte	0x52
 1082 015f DA000000 		.4byte	0xda
 1083 0163 02       		.uleb128 0x2
 1084 0164 97060000 		.4byte	.LASF30
 1085 0168 07       		.byte	0x7
 1086 0169 33       		.byte	0x33
 1087 016a DA000000 		.4byte	0xda
 1088 016e 02       		.uleb128 0x2
 1089 016f 82060000 		.4byte	.LASF31
 1090 0173 07       		.byte	0x7
 1091 0174 3F       		.byte	0x3f
 1092 0175 79010000 		.4byte	0x179
 1093 0179 0A       		.uleb128 0xa
 1094 017a CF020000 		.4byte	.LASF52
 1095 017e 60       		.byte	0x60
 1096 017f 08       		.byte	0x8
ARM GAS  C:\Users\jo\AppData\Local\Temp\ccN0EpzZ.s 			page 21


 1097 0180 BE       		.byte	0xbe
 1098 0181 7F020000 		.4byte	0x27f
 1099 0185 0B       		.uleb128 0xb
 1100 0186 AF050000 		.4byte	.LASF32
 1101 018a 08       		.byte	0x8
 1102 018b BF       		.byte	0xbf
 1103 018c CE050000 		.4byte	0x5ce
 1104 0190 00       		.byte	0
 1105 0191 0B       		.uleb128 0xb
 1106 0192 2C050000 		.4byte	.LASF33
 1107 0196 08       		.byte	0x8
 1108 0197 C1       		.byte	0xc1
 1109 0198 CE050000 		.4byte	0x5ce
 1110 019c 04       		.byte	0x4
 1111 019d 0B       		.uleb128 0xb
 1112 019e 0B010000 		.4byte	.LASF34
 1113 01a2 08       		.byte	0x8
 1114 01a3 C3       		.byte	0xc3
 1115 01a4 2C010000 		.4byte	0x12c
 1116 01a8 08       		.byte	0x8
 1117 01a9 0B       		.uleb128 0xb
 1118 01aa FC070000 		.4byte	.LASF35
 1119 01ae 08       		.byte	0x8
 1120 01af C4       		.byte	0xc4
 1121 01b0 D9040000 		.4byte	0x4d9
 1122 01b4 0C       		.byte	0xc
 1123 01b5 0B       		.uleb128 0xb
 1124 01b6 DD010000 		.4byte	.LASF36
 1125 01ba 08       		.byte	0x8
 1126 01bb C6       		.byte	0xc6
 1127 01bc CE050000 		.4byte	0x5ce
 1128 01c0 10       		.byte	0x10
 1129 01c1 0B       		.uleb128 0xb
 1130 01c2 B0040000 		.4byte	.LASF37
 1131 01c6 08       		.byte	0x8
 1132 01c7 C7       		.byte	0xc7
 1133 01c8 CE050000 		.4byte	0x5ce
 1134 01cc 14       		.byte	0x14
 1135 01cd 0B       		.uleb128 0xb
 1136 01ce 34070000 		.4byte	.LASF38
 1137 01d2 08       		.byte	0x8
 1138 01d3 CE       		.byte	0xce
 1139 01d4 B2000000 		.4byte	0xb2
 1140 01d8 18       		.byte	0x18
 1141 01d9 0B       		.uleb128 0xb
 1142 01da 68020000 		.4byte	.LASF39
 1143 01de 08       		.byte	0x8
 1144 01df D4       		.byte	0xd4
 1145 01e0 18070000 		.4byte	0x718
 1146 01e4 1C       		.byte	0x1c
 1147 01e5 0B       		.uleb128 0xb
 1148 01e6 8D050000 		.4byte	.LASF40
 1149 01ea 08       		.byte	0x8
 1150 01eb D9       		.byte	0xd9
 1151 01ec 16010000 		.4byte	0x116
 1152 01f0 20       		.byte	0x20
 1153 01f1 0B       		.uleb128 0xb
ARM GAS  C:\Users\jo\AppData\Local\Temp\ccN0EpzZ.s 			page 22


 1154 01f2 D4050000 		.4byte	.LASF41
 1155 01f6 08       		.byte	0x8
 1156 01f7 DD       		.byte	0xdd
 1157 01f8 0B010000 		.4byte	0x10b
 1158 01fc 21       		.byte	0x21
 1159 01fd 0B       		.uleb128 0xb
 1160 01fe 3B070000 		.4byte	.LASF42
 1161 0202 08       		.byte	0x8
 1162 0203 E2       		.byte	0xe2
 1163 0204 21010000 		.4byte	0x121
 1164 0208 22       		.byte	0x22
 1165 0209 0C       		.uleb128 0xc
 1166 020a 705F7500 		.ascii	"p_u\000"
 1167 020e 08       		.byte	0x8
 1168 020f 1401     		.2byte	0x114
 1169 0211 E0060000 		.4byte	0x6e0
 1170 0215 24       		.byte	0x24
 1171 0216 0D       		.uleb128 0xd
 1172 0217 3D040000 		.4byte	.LASF43
 1173 021b 08       		.byte	0x8
 1174 021c 1901     		.2byte	0x119
 1175 021e 7F020000 		.4byte	0x27f
 1176 0222 28       		.byte	0x28
 1177 0223 0D       		.uleb128 0xd
 1178 0224 88020000 		.4byte	.LASF44
 1179 0228 08       		.byte	0x8
 1180 0229 1F01     		.2byte	0x11f
 1181 022b A3020000 		.4byte	0x2a3
 1182 022f 2C       		.byte	0x2c
 1183 0230 0D       		.uleb128 0xd
 1184 0231 6F060000 		.4byte	.LASF45
 1185 0235 08       		.byte	0x8
 1186 0236 2301     		.2byte	0x123
 1187 0238 37010000 		.4byte	0x137
 1188 023c 34       		.byte	0x34
 1189 023d 0D       		.uleb128 0xd
 1190 023e 0A060000 		.4byte	.LASF46
 1191 0242 08       		.byte	0x8
 1192 0243 2901     		.2byte	0x129
 1193 0245 42010000 		.4byte	0x142
 1194 0249 38       		.byte	0x38
 1195 024a 0D       		.uleb128 0xd
 1196 024b 79050000 		.4byte	.LASF47
 1197 024f 08       		.byte	0x8
 1198 0250 3001     		.2byte	0x130
 1199 0252 4F070000 		.4byte	0x74f
 1200 0256 3C       		.byte	0x3c
 1201 0257 0D       		.uleb128 0xd
 1202 0258 A1060000 		.4byte	.LASF48
 1203 025c 08       		.byte	0x8
 1204 025d 3401     		.2byte	0x134
 1205 025f 2C010000 		.4byte	0x12c
 1206 0263 40       		.byte	0x40
 1207 0264 0D       		.uleb128 0xd
 1208 0265 8D010000 		.4byte	.LASF49
 1209 0269 08       		.byte	0x8
 1210 026a 3A01     		.2byte	0x13a
ARM GAS  C:\Users\jo\AppData\Local\Temp\ccN0EpzZ.s 			page 23


 1211 026c A9000000 		.4byte	0xa9
 1212 0270 44       		.byte	0x44
 1213 0271 0D       		.uleb128 0xd
 1214 0272 DC050000 		.4byte	.LASF50
 1215 0276 08       		.byte	0x8
 1216 0277 4001     		.2byte	0x140
 1217 0279 91060000 		.4byte	0x691
 1218 027d 48       		.byte	0x48
 1219 027e 00       		.byte	0
 1220 027f 02       		.uleb128 0x2
 1221 0280 AE070000 		.4byte	.LASF51
 1222 0284 07       		.byte	0x7
 1223 0285 44       		.byte	0x44
 1224 0286 8A020000 		.4byte	0x28a
 1225 028a 0A       		.uleb128 0xa
 1226 028b 2F060000 		.4byte	.LASF53
 1227 028f 04       		.byte	0x4
 1228 0290 08       		.byte	0x8
 1229 0291 AC       		.byte	0xac
 1230 0292 A3020000 		.4byte	0x2a3
 1231 0296 0B       		.uleb128 0xb
 1232 0297 AF050000 		.4byte	.LASF32
 1233 029b 08       		.byte	0x8
 1234 029c AD       		.byte	0xad
 1235 029d CE050000 		.4byte	0x5ce
 1236 02a1 00       		.byte	0
 1237 02a2 00       		.byte	0
 1238 02a3 02       		.uleb128 0x2
 1239 02a4 24070000 		.4byte	.LASF54
 1240 02a8 07       		.byte	0x7
 1241 02a9 4B       		.byte	0x4b
 1242 02aa AE020000 		.4byte	0x2ae
 1243 02ae 0A       		.uleb128 0xa
 1244 02af 0A080000 		.4byte	.LASF55
 1245 02b3 08       		.byte	0x8
 1246 02b4 08       		.byte	0x8
 1247 02b5 B3       		.byte	0xb3
 1248 02b6 D3020000 		.4byte	0x2d3
 1249 02ba 0B       		.uleb128 0xb
 1250 02bb AF050000 		.4byte	.LASF32
 1251 02bf 08       		.byte	0x8
 1252 02c0 B4       		.byte	0xb4
 1253 02c1 CE050000 		.4byte	0x5ce
 1254 02c5 00       		.byte	0
 1255 02c6 0B       		.uleb128 0xb
 1256 02c7 2C050000 		.4byte	.LASF33
 1257 02cb 08       		.byte	0x8
 1258 02cc B5       		.byte	0xb5
 1259 02cd CE050000 		.4byte	0x5ce
 1260 02d1 04       		.byte	0x4
 1261 02d2 00       		.byte	0
 1262 02d3 02       		.uleb128 0x2
 1263 02d4 05000000 		.4byte	.LASF56
 1264 02d8 07       		.byte	0x7
 1265 02d9 52       		.byte	0x52
 1266 02da DE020000 		.4byte	0x2de
 1267 02de 0E       		.uleb128 0xe
ARM GAS  C:\Users\jo\AppData\Local\Temp\ccN0EpzZ.s 			page 24


 1268 02df 25030000 		.4byte	.LASF57
 1269 02e3 1C       		.byte	0x1c
 1270 02e4 08       		.byte	0x8
 1271 02e5 7201     		.2byte	0x172
 1272 02e7 3A030000 		.4byte	0x33a
 1273 02eb 0D       		.uleb128 0xd
 1274 02ec 1E060000 		.4byte	.LASF58
 1275 02f0 08       		.byte	0x8
 1276 02f1 7301     		.2byte	0x173
 1277 02f3 A3020000 		.4byte	0x2a3
 1278 02f7 00       		.byte	0
 1279 02f8 0D       		.uleb128 0xd
 1280 02f9 95050000 		.4byte	.LASF59
 1281 02fd 08       		.byte	0x8
 1282 02fe 7401     		.2byte	0x174
 1283 0300 2C010000 		.4byte	0x12c
 1284 0304 08       		.byte	0x8
 1285 0305 0D       		.uleb128 0xd
 1286 0306 B8040000 		.4byte	.LASF60
 1287 030a 08       		.byte	0x8
 1288 030b 7601     		.2byte	0x176
 1289 030d D9040000 		.4byte	0x4d9
 1290 0311 0C       		.byte	0xc
 1291 0312 0D       		.uleb128 0xd
 1292 0313 F3010000 		.4byte	.LASF61
 1293 0317 08       		.byte	0x8
 1294 0318 7901     		.2byte	0x179
 1295 031a CE050000 		.4byte	0x5ce
 1296 031e 10       		.byte	0x10
 1297 031f 0D       		.uleb128 0xd
 1298 0320 E2040000 		.4byte	.LASF62
 1299 0324 08       		.byte	0x8
 1300 0325 7A01     		.2byte	0x17a
 1301 0327 CE050000 		.4byte	0x5ce
 1302 032b 14       		.byte	0x14
 1303 032c 0D       		.uleb128 0xd
 1304 032d D8040000 		.4byte	.LASF63
 1305 0331 08       		.byte	0x8
 1306 0332 7D01     		.2byte	0x17d
 1307 0334 CE050000 		.4byte	0x5ce
 1308 0338 18       		.byte	0x18
 1309 0339 00       		.byte	0
 1310 033a 02       		.uleb128 0x2
 1311 033b AC060000 		.4byte	.LASF64
 1312 033f 07       		.byte	0x7
 1313 0340 57       		.byte	0x57
 1314 0341 45030000 		.4byte	0x345
 1315 0345 06       		.uleb128 0x6
 1316 0346 04       		.byte	0x4
 1317 0347 4B030000 		.4byte	0x34b
 1318 034b 0F       		.uleb128 0xf
 1319 034c 56030000 		.4byte	0x356
 1320 0350 10       		.uleb128 0x10
 1321 0351 A9000000 		.4byte	0xa9
 1322 0355 00       		.byte	0
 1323 0356 02       		.uleb128 0x2
 1324 0357 1C050000 		.4byte	.LASF65
ARM GAS  C:\Users\jo\AppData\Local\Temp\ccN0EpzZ.s 			page 25


 1325 035b 07       		.byte	0x7
 1326 035c 5C       		.byte	0x5c
 1327 035d 61030000 		.4byte	0x361
 1328 0361 0E       		.uleb128 0xe
 1329 0362 EE060000 		.4byte	.LASF66
 1330 0366 14       		.byte	0x14
 1331 0367 08       		.byte	0x8
 1332 0368 4D01     		.2byte	0x14d
 1333 036a B0030000 		.4byte	0x3b0
 1334 036e 0D       		.uleb128 0xd
 1335 036f 80020000 		.4byte	.LASF67
 1336 0373 08       		.byte	0x8
 1337 0374 4E01     		.2byte	0x14e
 1338 0376 55070000 		.4byte	0x755
 1339 037a 00       		.byte	0
 1340 037b 0D       		.uleb128 0xd
 1341 037c 04020000 		.4byte	.LASF68
 1342 0380 08       		.byte	0x8
 1343 0381 4F01     		.2byte	0x14f
 1344 0383 55070000 		.4byte	0x755
 1345 0387 04       		.byte	0x4
 1346 0388 0D       		.uleb128 0xd
 1347 0389 26060000 		.4byte	.LASF69
 1348 038d 08       		.byte	0x8
 1349 038e 5001     		.2byte	0x150
 1350 0390 63010000 		.4byte	0x163
 1351 0394 08       		.byte	0x8
 1352 0395 0D       		.uleb128 0xd
 1353 0396 02080000 		.4byte	.LASF70
 1354 039a 08       		.byte	0x8
 1355 039b 5101     		.2byte	0x151
 1356 039d 3A030000 		.4byte	0x33a
 1357 03a1 0C       		.byte	0xc
 1358 03a2 0D       		.uleb128 0xd
 1359 03a3 14070000 		.4byte	.LASF71
 1360 03a7 08       		.byte	0x8
 1361 03a8 5301     		.2byte	0x153
 1362 03aa A9000000 		.4byte	0xa9
 1363 03ae 10       		.byte	0x10
 1364 03af 00       		.byte	0
 1365 03b0 02       		.uleb128 0x2
 1366 03b1 D9000000 		.4byte	.LASF72
 1367 03b5 07       		.byte	0x7
 1368 03b6 61       		.byte	0x61
 1369 03b7 BB030000 		.4byte	0x3bb
 1370 03bb 0E       		.uleb128 0xe
 1371 03bc 50040000 		.4byte	.LASF73
 1372 03c0 10       		.byte	0x10
 1373 03c1 08       		.byte	0x8
 1374 03c2 5D01     		.2byte	0x15d
 1375 03c4 FD030000 		.4byte	0x3fd
 1376 03c8 0D       		.uleb128 0xd
 1377 03c9 80020000 		.4byte	.LASF67
 1378 03cd 08       		.byte	0x8
 1379 03ce 5E01     		.2byte	0x15e
 1380 03d0 55070000 		.4byte	0x755
 1381 03d4 00       		.byte	0
ARM GAS  C:\Users\jo\AppData\Local\Temp\ccN0EpzZ.s 			page 26


 1382 03d5 0D       		.uleb128 0xd
 1383 03d6 04020000 		.4byte	.LASF68
 1384 03da 08       		.byte	0x8
 1385 03db 6001     		.2byte	0x160
 1386 03dd 55070000 		.4byte	0x755
 1387 03e1 04       		.byte	0x4
 1388 03e2 0D       		.uleb128 0xd
 1389 03e3 26060000 		.4byte	.LASF69
 1390 03e7 08       		.byte	0x8
 1391 03e8 6201     		.2byte	0x162
 1392 03ea 63010000 		.4byte	0x163
 1393 03ee 08       		.byte	0x8
 1394 03ef 0D       		.uleb128 0xd
 1395 03f0 92040000 		.4byte	.LASF74
 1396 03f4 08       		.byte	0x8
 1397 03f5 6A01     		.2byte	0x16a
 1398 03f7 63010000 		.4byte	0x163
 1399 03fb 0C       		.byte	0xc
 1400 03fc 00       		.byte	0
 1401 03fd 02       		.uleb128 0x2
 1402 03fe 66000000 		.4byte	.LASF75
 1403 0402 07       		.byte	0x7
 1404 0403 66       		.byte	0x66
 1405 0404 08040000 		.4byte	0x408
 1406 0408 11       		.uleb128 0x11
 1407 0409 CA070000 		.4byte	.LASF76
 1408 040d 1404     		.2byte	0x414
 1409 040f 08       		.byte	0x8
 1410 0410 8401     		.2byte	0x184
 1411 0412 4B040000 		.4byte	0x44b
 1412 0416 0D       		.uleb128 0xd
 1413 0417 C5060000 		.4byte	.LASF77
 1414 041b 08       		.byte	0x8
 1415 041c 8C01     		.2byte	0x18c
 1416 041e 5B070000 		.4byte	0x75b
 1417 0422 00       		.byte	0
 1418 0423 0D       		.uleb128 0xd
 1419 0424 42070000 		.4byte	.LASF78
 1420 0428 08       		.byte	0x8
 1421 0429 9101     		.2byte	0x191
 1422 042b 4D010000 		.4byte	0x14d
 1423 042f 04       		.byte	0x4
 1424 0430 0D       		.uleb128 0xd
 1425 0431 CF040000 		.4byte	.LASF79
 1426 0435 08       		.byte	0x8
 1427 0436 9501     		.2byte	0x195
 1428 0438 4D010000 		.4byte	0x14d
 1429 043c 08       		.byte	0x8
 1430 043d 0D       		.uleb128 0xd
 1431 043e BD070000 		.4byte	.LASF80
 1432 0442 08       		.byte	0x8
 1433 0443 9B01     		.2byte	0x19b
 1434 0445 23060000 		.4byte	0x623
 1435 0449 0C       		.byte	0xc
 1436 044a 00       		.byte	0
 1437 044b 02       		.uleb128 0x2
 1438 044c F9020000 		.4byte	.LASF81
ARM GAS  C:\Users\jo\AppData\Local\Temp\ccN0EpzZ.s 			page 27


 1439 0450 07       		.byte	0x7
 1440 0451 6B       		.byte	0x6b
 1441 0452 56040000 		.4byte	0x456
 1442 0456 11       		.uleb128 0x11
 1443 0457 EE050000 		.4byte	.LASF82
 1444 045b D805     		.2byte	0x5d8
 1445 045d 08       		.byte	0x8
 1446 045e A401     		.2byte	0x1a4
 1447 0460 C3040000 		.4byte	0x4c3
 1448 0464 0D       		.uleb128 0xd
 1449 0465 51070000 		.4byte	.LASF83
 1450 0469 08       		.byte	0x8
 1451 046a A801     		.2byte	0x1a8
 1452 046c D3020000 		.4byte	0x2d3
 1453 0470 00       		.byte	0
 1454 0471 0D       		.uleb128 0xd
 1455 0472 95010000 		.4byte	.LASF84
 1456 0476 08       		.byte	0x8
 1457 0477 AC01     		.2byte	0x1ac
 1458 0479 B0030000 		.4byte	0x3b0
 1459 047d 1C       		.byte	0x1c
 1460 047e 0C       		.uleb128 0xc
 1461 047f 64626700 		.ascii	"dbg\000"
 1462 0483 08       		.byte	0x8
 1463 0484 B001     		.2byte	0x1b0
 1464 0486 FD030000 		.4byte	0x3fd
 1465 048a 2C       		.byte	0x2c
 1466 048b 12       		.uleb128 0x12
 1467 048c D9020000 		.4byte	.LASF85
 1468 0490 08       		.byte	0x8
 1469 0491 B401     		.2byte	0x1b4
 1470 0493 6E010000 		.4byte	0x16e
 1471 0497 4004     		.2byte	0x440
 1472 0499 13       		.uleb128 0x13
 1473 049a 746D00   		.ascii	"tm\000"
 1474 049d 08       		.byte	0x8
 1475 049e B901     		.2byte	0x1b9
 1476 04a0 43060000 		.4byte	0x643
 1477 04a4 A004     		.2byte	0x4a0
 1478 04a6 12       		.uleb128 0x12
 1479 04a7 36000000 		.4byte	.LASF86
 1480 04ab 08       		.byte	0x8
 1481 04ac BF01     		.2byte	0x1bf
 1482 04ae D5060000 		.4byte	0x6d5
 1483 04b2 A804     		.2byte	0x4a8
 1484 04b4 12       		.uleb128 0x12
 1485 04b5 4C020000 		.4byte	.LASF87
 1486 04b9 08       		.byte	0x8
 1487 04ba C501     		.2byte	0x1c5
 1488 04bc 60070000 		.4byte	0x760
 1489 04c0 E004     		.2byte	0x4e0
 1490 04c2 00       		.byte	0
 1491 04c3 02       		.uleb128 0x2
 1492 04c4 FB010000 		.4byte	.LASF88
 1493 04c8 09       		.byte	0x9
 1494 04c9 85       		.byte	0x85
 1495 04ca A9000000 		.4byte	0xa9
ARM GAS  C:\Users\jo\AppData\Local\Temp\ccN0EpzZ.s 			page 28


 1496 04ce 02       		.uleb128 0x2
 1497 04cf 23040000 		.4byte	.LASF89
 1498 04d3 09       		.byte	0x9
 1499 04d4 8D       		.byte	0x8d
 1500 04d5 E5000000 		.4byte	0xe5
 1501 04d9 0A       		.uleb128 0xa
 1502 04da DB060000 		.4byte	.LASF90
 1503 04de 04       		.byte	0x4
 1504 04df 09       		.byte	0x9
 1505 04e0 A9       		.byte	0xa9
 1506 04e1 F2040000 		.4byte	0x4f2
 1507 04e5 14       		.uleb128 0x14
 1508 04e6 72313300 		.ascii	"r13\000"
 1509 04ea 09       		.byte	0x9
 1510 04eb AA       		.byte	0xaa
 1511 04ec 6D050000 		.4byte	0x56d
 1512 04f0 00       		.byte	0
 1513 04f1 00       		.byte	0
 1514 04f2 0A       		.uleb128 0xa
 1515 04f3 52000000 		.4byte	.LASF91
 1516 04f7 24       		.byte	0x24
 1517 04f8 0A       		.byte	0xa
 1518 04f9 F4       		.byte	0xf4
 1519 04fa 6D050000 		.4byte	0x56d
 1520 04fe 0C       		.uleb128 0xc
 1521 04ff 723400   		.ascii	"r4\000"
 1522 0502 0A       		.byte	0xa
 1523 0503 0701     		.2byte	0x107
 1524 0505 C3040000 		.4byte	0x4c3
 1525 0509 00       		.byte	0
 1526 050a 0C       		.uleb128 0xc
 1527 050b 723500   		.ascii	"r5\000"
 1528 050e 0A       		.byte	0xa
 1529 050f 0801     		.2byte	0x108
 1530 0511 C3040000 		.4byte	0x4c3
 1531 0515 04       		.byte	0x4
 1532 0516 0C       		.uleb128 0xc
 1533 0517 723600   		.ascii	"r6\000"
 1534 051a 0A       		.byte	0xa
 1535 051b 0901     		.2byte	0x109
 1536 051d C3040000 		.4byte	0x4c3
 1537 0521 08       		.byte	0x8
 1538 0522 0C       		.uleb128 0xc
 1539 0523 723700   		.ascii	"r7\000"
 1540 0526 0A       		.byte	0xa
 1541 0527 0A01     		.2byte	0x10a
 1542 0529 C3040000 		.4byte	0x4c3
 1543 052d 0C       		.byte	0xc
 1544 052e 0C       		.uleb128 0xc
 1545 052f 723800   		.ascii	"r8\000"
 1546 0532 0A       		.byte	0xa
 1547 0533 0B01     		.2byte	0x10b
 1548 0535 C3040000 		.4byte	0x4c3
 1549 0539 10       		.byte	0x10
 1550 053a 0C       		.uleb128 0xc
 1551 053b 723900   		.ascii	"r9\000"
 1552 053e 0A       		.byte	0xa
ARM GAS  C:\Users\jo\AppData\Local\Temp\ccN0EpzZ.s 			page 29


 1553 053f 0C01     		.2byte	0x10c
 1554 0541 C3040000 		.4byte	0x4c3
 1555 0545 14       		.byte	0x14
 1556 0546 0C       		.uleb128 0xc
 1557 0547 72313000 		.ascii	"r10\000"
 1558 054b 0A       		.byte	0xa
 1559 054c 0D01     		.2byte	0x10d
 1560 054e C3040000 		.4byte	0x4c3
 1561 0552 18       		.byte	0x18
 1562 0553 0C       		.uleb128 0xc
 1563 0554 72313100 		.ascii	"r11\000"
 1564 0558 0A       		.byte	0xa
 1565 0559 0E01     		.2byte	0x10e
 1566 055b C3040000 		.4byte	0x4c3
 1567 055f 1C       		.byte	0x1c
 1568 0560 0C       		.uleb128 0xc
 1569 0561 6C7200   		.ascii	"lr\000"
 1570 0564 0A       		.byte	0xa
 1571 0565 0F01     		.2byte	0x10f
 1572 0567 C3040000 		.4byte	0x4c3
 1573 056b 20       		.byte	0x20
 1574 056c 00       		.byte	0
 1575 056d 06       		.uleb128 0x6
 1576 056e 04       		.byte	0x4
 1577 056f F2040000 		.4byte	0x4f2
 1578 0573 02       		.uleb128 0x2
 1579 0574 74040000 		.4byte	.LASF92
 1580 0578 0B       		.byte	0xb
 1581 0579 28       		.byte	0x28
 1582 057a 7E050000 		.4byte	0x57e
 1583 057e 0A       		.uleb128 0xa
 1584 057f B6010000 		.4byte	.LASF93
 1585 0583 04       		.byte	0x4
 1586 0584 0C       		.byte	0xc
 1587 0585 00       		.byte	0
 1588 0586 95050000 		.4byte	0x595
 1589 058a 15       		.uleb128 0x15
 1590 058b D6060000 		.4byte	.LASF115
 1591 058f A9000000 		.4byte	0xa9
 1592 0593 00       		.byte	0
 1593 0594 00       		.byte	0
 1594 0595 16       		.uleb128 0x16
 1595 0596 10       		.byte	0x10
 1596 0597 0D       		.byte	0xd
 1597 0598 57       		.byte	0x57
 1598 0599 CE050000 		.4byte	0x5ce
 1599 059d 0B       		.uleb128 0xb
 1600 059e 12000000 		.4byte	.LASF94
 1601 05a2 0D       		.byte	0xd
 1602 05a3 5B       		.byte	0x5b
 1603 05a4 63010000 		.4byte	0x163
 1604 05a8 00       		.byte	0
 1605 05a9 0B       		.uleb128 0xb
 1606 05aa CE010000 		.4byte	.LASF95
 1607 05ae 0D       		.byte	0xd
 1608 05af 5F       		.byte	0x5f
 1609 05b0 CE050000 		.4byte	0x5ce
ARM GAS  C:\Users\jo\AppData\Local\Temp\ccN0EpzZ.s 			page 30


 1610 05b4 04       		.byte	0x4
 1611 05b5 0B       		.uleb128 0xb
 1612 05b6 F2070000 		.4byte	.LASF96
 1613 05ba 0D       		.byte	0xd
 1614 05bb 63       		.byte	0x63
 1615 05bc A9000000 		.4byte	0xa9
 1616 05c0 08       		.byte	0x8
 1617 05c1 0B       		.uleb128 0xb
 1618 05c2 BA000000 		.4byte	.LASF97
 1619 05c6 0D       		.byte	0xd
 1620 05c7 67       		.byte	0x67
 1621 05c8 C4000000 		.4byte	0xc4
 1622 05cc 0C       		.byte	0xc
 1623 05cd 00       		.byte	0
 1624 05ce 06       		.uleb128 0x6
 1625 05cf 04       		.byte	0x4
 1626 05d0 6E010000 		.4byte	0x16e
 1627 05d4 02       		.uleb128 0x2
 1628 05d5 83040000 		.4byte	.LASF98
 1629 05d9 0D       		.byte	0xd
 1630 05da 68       		.byte	0x68
 1631 05db 95050000 		.4byte	0x595
 1632 05df 17       		.uleb128 0x17
 1633 05e0 0804     		.2byte	0x408
 1634 05e2 0D       		.byte	0xd
 1635 05e3 6D       		.byte	0x6d
 1636 05e4 0D060000 		.4byte	0x60d
 1637 05e8 0B       		.uleb128 0xb
 1638 05e9 EB010000 		.4byte	.LASF99
 1639 05ed 0D       		.byte	0xd
 1640 05ee 71       		.byte	0x71
 1641 05ef 30000000 		.4byte	0x30
 1642 05f3 00       		.byte	0
 1643 05f4 0B       		.uleb128 0xb
 1644 05f5 6D040000 		.4byte	.LASF100
 1645 05f9 0D       		.byte	0xd
 1646 05fa 75       		.byte	0x75
 1647 05fb 0D060000 		.4byte	0x60d
 1648 05ff 04       		.byte	0x4
 1649 0600 0B       		.uleb128 0xb
 1650 0601 12050000 		.4byte	.LASF101
 1651 0605 0D       		.byte	0xd
 1652 0606 79       		.byte	0x79
 1653 0607 13060000 		.4byte	0x613
 1654 060b 08       		.byte	0x8
 1655 060c 00       		.byte	0
 1656 060d 06       		.uleb128 0x6
 1657 060e 04       		.byte	0x4
 1658 060f D4050000 		.4byte	0x5d4
 1659 0613 18       		.uleb128 0x18
 1660 0614 D4050000 		.4byte	0x5d4
 1661 0618 23060000 		.4byte	0x623
 1662 061c 19       		.uleb128 0x19
 1663 061d A2000000 		.4byte	0xa2
 1664 0621 3F       		.byte	0x3f
 1665 0622 00       		.byte	0
 1666 0623 02       		.uleb128 0x2
ARM GAS  C:\Users\jo\AppData\Local\Temp\ccN0EpzZ.s 			page 31


 1667 0624 9E040000 		.4byte	.LASF102
 1668 0628 0D       		.byte	0xd
 1669 0629 7A       		.byte	0x7a
 1670 062a DF050000 		.4byte	0x5df
 1671 062e 16       		.uleb128 0x16
 1672 062f 04       		.byte	0x4
 1673 0630 0E       		.byte	0xe
 1674 0631 38       		.byte	0x38
 1675 0632 43060000 		.4byte	0x643
 1676 0636 0B       		.uleb128 0xb
 1677 0637 CF060000 		.4byte	.LASF103
 1678 063b 0E       		.byte	0xe
 1679 063c 3C       		.byte	0x3c
 1680 063d F5000000 		.4byte	0xf5
 1681 0641 00       		.byte	0
 1682 0642 00       		.byte	0
 1683 0643 02       		.uleb128 0x2
 1684 0644 BE040000 		.4byte	.LASF104
 1685 0648 0E       		.byte	0xe
 1686 0649 3D       		.byte	0x3d
 1687 064a 2E060000 		.4byte	0x62e
 1688 064e 16       		.uleb128 0x16
 1689 064f 18       		.byte	0x18
 1690 0650 0E       		.byte	0xe
 1691 0651 48       		.byte	0x48
 1692 0652 91060000 		.4byte	0x691
 1693 0656 0B       		.uleb128 0xb
 1694 0657 8B060000 		.4byte	.LASF105
 1695 065b 0E       		.byte	0xe
 1696 065c 49       		.byte	0x49
 1697 065d F5000000 		.4byte	0xf5
 1698 0661 00       		.byte	0
 1699 0662 0B       		.uleb128 0xb
 1700 0663 7A000000 		.4byte	.LASF106
 1701 0667 0E       		.byte	0xe
 1702 0668 4A       		.byte	0x4a
 1703 0669 F5000000 		.4byte	0xf5
 1704 066d 04       		.byte	0x4
 1705 066e 0B       		.uleb128 0xb
 1706 066f C0060000 		.4byte	.LASF107
 1707 0673 0E       		.byte	0xe
 1708 0674 4B       		.byte	0x4b
 1709 0675 F5000000 		.4byte	0xf5
 1710 0679 08       		.byte	0x8
 1711 067a 14       		.uleb128 0x14
 1712 067b 6E00     		.ascii	"n\000"
 1713 067d 0E       		.byte	0xe
 1714 067e 4C       		.byte	0x4c
 1715 067f 58010000 		.4byte	0x158
 1716 0683 0C       		.byte	0xc
 1717 0684 0B       		.uleb128 0xb
 1718 0685 FD040000 		.4byte	.LASF108
 1719 0689 0E       		.byte	0xe
 1720 068a 4D       		.byte	0x4d
 1721 068b 00010000 		.4byte	0x100
 1722 068f 10       		.byte	0x10
 1723 0690 00       		.byte	0
ARM GAS  C:\Users\jo\AppData\Local\Temp\ccN0EpzZ.s 			page 32


 1724 0691 02       		.uleb128 0x2
 1725 0692 80000000 		.4byte	.LASF109
 1726 0696 0E       		.byte	0xe
 1727 0697 4E       		.byte	0x4e
 1728 0698 4E060000 		.4byte	0x64e
 1729 069c 16       		.uleb128 0x16
 1730 069d 38       		.byte	0x38
 1731 069e 0F       		.byte	0xf
 1732 069f 38       		.byte	0x38
 1733 06a0 D5060000 		.4byte	0x6d5
 1734 06a4 0B       		.uleb128 0xb
 1735 06a5 A2020000 		.4byte	.LASF110
 1736 06a9 0F       		.byte	0xf
 1737 06aa 39       		.byte	0x39
 1738 06ab 58010000 		.4byte	0x158
 1739 06af 00       		.byte	0
 1740 06b0 0B       		.uleb128 0xb
 1741 06b1 41050000 		.4byte	.LASF111
 1742 06b5 0F       		.byte	0xf
 1743 06b6 3A       		.byte	0x3a
 1744 06b7 58010000 		.4byte	0x158
 1745 06bb 04       		.byte	0x4
 1746 06bc 0B       		.uleb128 0xb
 1747 06bd DF070000 		.4byte	.LASF112
 1748 06c1 0F       		.byte	0xf
 1749 06c2 3B       		.byte	0x3b
 1750 06c3 91060000 		.4byte	0x691
 1751 06c7 08       		.byte	0x8
 1752 06c8 0B       		.uleb128 0xb
 1753 06c9 1A030000 		.4byte	.LASF113
 1754 06cd 0F       		.byte	0xf
 1755 06ce 3D       		.byte	0x3d
 1756 06cf 91060000 		.4byte	0x691
 1757 06d3 20       		.byte	0x20
 1758 06d4 00       		.byte	0
 1759 06d5 02       		.uleb128 0x2
 1760 06d6 C0020000 		.4byte	.LASF114
 1761 06da 0F       		.byte	0xf
 1762 06db 3F       		.byte	0x3f
 1763 06dc 9C060000 		.4byte	0x69c
 1764 06e0 1A       		.uleb128 0x1a
 1765 06e1 04       		.byte	0x4
 1766 06e2 08       		.byte	0x8
 1767 06e3 F6       		.byte	0xf6
 1768 06e4 18070000 		.4byte	0x718
 1769 06e8 1B       		.uleb128 0x1b
 1770 06e9 26000000 		.4byte	.LASF116
 1771 06ed 08       		.byte	0x8
 1772 06ee FD       		.byte	0xfd
 1773 06ef 37010000 		.4byte	0x137
 1774 06f3 1C       		.uleb128 0x1c
 1775 06f4 C3000000 		.4byte	.LASF117
 1776 06f8 08       		.byte	0x8
 1777 06f9 0401     		.2byte	0x104
 1778 06fb 37010000 		.4byte	0x137
 1779 06ff 1C       		.uleb128 0x1c
 1780 0700 89070000 		.4byte	.LASF118
ARM GAS  C:\Users\jo\AppData\Local\Temp\ccN0EpzZ.s 			page 33


 1781 0704 08       		.byte	0x8
 1782 0705 0B01     		.2byte	0x10b
 1783 0707 A9000000 		.4byte	0xa9
 1784 070b 1C       		.uleb128 0x1c
 1785 070c A8050000 		.4byte	.LASF119
 1786 0710 08       		.byte	0x8
 1787 0711 1201     		.2byte	0x112
 1788 0713 42010000 		.4byte	0x142
 1789 0717 00       		.byte	0
 1790 0718 06       		.uleb128 0x6
 1791 0719 04       		.byte	0x4
 1792 071a CE040000 		.4byte	0x4ce
 1793 071e 0A       		.uleb128 0xa
 1794 071f 3B050000 		.4byte	.LASF120
 1795 0723 10       		.byte	0x10
 1796 0724 10       		.byte	0x10
 1797 0725 39       		.byte	0x39
 1798 0726 4F070000 		.4byte	0x74f
 1799 072a 0B       		.uleb128 0xb
 1800 072b 66050000 		.4byte	.LASF121
 1801 072f 10       		.byte	0x10
 1802 0730 3A       		.byte	0x3a
 1803 0731 A3020000 		.4byte	0x2a3
 1804 0735 00       		.byte	0
 1805 0736 0B       		.uleb128 0xb
 1806 0737 EA070000 		.4byte	.LASF122
 1807 073b 10       		.byte	0x10
 1808 073c 3C       		.byte	0x3c
 1809 073d CE050000 		.4byte	0x5ce
 1810 0741 08       		.byte	0x8
 1811 0742 0B       		.uleb128 0xb
 1812 0743 90060000 		.4byte	.LASF123
 1813 0747 10       		.byte	0x10
 1814 0748 3E       		.byte	0x3e
 1815 0749 90070000 		.4byte	0x790
 1816 074d 0C       		.byte	0xc
 1817 074e 00       		.byte	0
 1818 074f 06       		.uleb128 0x6
 1819 0750 04       		.byte	0x4
 1820 0751 1E070000 		.4byte	0x71e
 1821 0755 06       		.uleb128 0x6
 1822 0756 04       		.byte	0x4
 1823 0757 56030000 		.4byte	0x356
 1824 075b 09       		.uleb128 0x9
 1825 075c B2000000 		.4byte	0xb2
 1826 0760 18       		.uleb128 0x18
 1827 0761 CE040000 		.4byte	0x4ce
 1828 0765 70070000 		.4byte	0x770
 1829 0769 19       		.uleb128 0x19
 1830 076a A2000000 		.4byte	0xa2
 1831 076e 1E       		.byte	0x1e
 1832 076f 00       		.byte	0
 1833 0770 06       		.uleb128 0x6
 1834 0771 04       		.byte	0x4
 1835 0772 76070000 		.4byte	0x776
 1836 0776 1D       		.uleb128 0x1d
 1837 0777 37010000 		.4byte	0x137
ARM GAS  C:\Users\jo\AppData\Local\Temp\ccN0EpzZ.s 			page 34


 1838 077b 85070000 		.4byte	0x785
 1839 077f 10       		.uleb128 0x10
 1840 0780 A9000000 		.4byte	0xa9
 1841 0784 00       		.byte	0
 1842 0785 02       		.uleb128 0x2
 1843 0786 60010000 		.4byte	.LASF124
 1844 078a 10       		.byte	0x10
 1845 078b 34       		.byte	0x34
 1846 078c 1E070000 		.4byte	0x71e
 1847 0790 06       		.uleb128 0x6
 1848 0791 04       		.byte	0x4
 1849 0792 85070000 		.4byte	0x785
 1850 0796 02       		.uleb128 0x2
 1851 0797 07070000 		.4byte	.LASF125
 1852 079b 11       		.byte	0x11
 1853 079c 36       		.byte	0x36
 1854 079d A1070000 		.4byte	0x7a1
 1855 07a1 06       		.uleb128 0x6
 1856 07a2 04       		.byte	0x4
 1857 07a3 A7070000 		.4byte	0x7a7
 1858 07a7 1D       		.uleb128 0x1d
 1859 07a8 A9000000 		.4byte	0xa9
 1860 07ac B6070000 		.4byte	0x7b6
 1861 07b0 10       		.uleb128 0x10
 1862 07b1 25000000 		.4byte	0x25
 1863 07b5 00       		.byte	0
 1864 07b6 02       		.uleb128 0x2
 1865 07b7 C0010000 		.4byte	.LASF126
 1866 07bb 12       		.byte	0x12
 1867 07bc 3C       		.byte	0x3c
 1868 07bd C1070000 		.4byte	0x7c1
 1869 07c1 0A       		.uleb128 0xa
 1870 07c2 1B080000 		.4byte	.LASF127
 1871 07c6 20       		.byte	0x20
 1872 07c7 12       		.byte	0x12
 1873 07c8 4F       		.byte	0x4f
 1874 07c9 F2070000 		.4byte	0x7f2
 1875 07cd 0B       		.uleb128 0xb
 1876 07ce 7E070000 		.4byte	.LASF128
 1877 07d2 12       		.byte	0x12
 1878 07d3 50       		.byte	0x50
 1879 07d4 96070000 		.4byte	0x796
 1880 07d8 00       		.byte	0
 1881 07d9 0B       		.uleb128 0xb
 1882 07da D2000000 		.4byte	.LASF129
 1883 07de 12       		.byte	0x12
 1884 07df 52       		.byte	0x52
 1885 07e0 11080000 		.4byte	0x811
 1886 07e4 08       		.byte	0x8
 1887 07e5 0B       		.uleb128 0xb
 1888 07e6 82010000 		.4byte	.LASF130
 1889 07ea 12       		.byte	0x12
 1890 07eb 54       		.byte	0x54
 1891 07ec 85070000 		.4byte	0x785
 1892 07f0 10       		.byte	0x10
 1893 07f1 00       		.byte	0
 1894 07f2 1A       		.uleb128 0x1a
ARM GAS  C:\Users\jo\AppData\Local\Temp\ccN0EpzZ.s 			page 35


 1895 07f3 04       		.byte	0x4
 1896 07f4 12       		.byte	0x12
 1897 07f5 44       		.byte	0x44
 1898 07f6 11080000 		.4byte	0x811
 1899 07fa 1B       		.uleb128 0x1b
 1900 07fb 21000000 		.4byte	.LASF131
 1901 07ff 12       		.byte	0x12
 1902 0800 45       		.byte	0x45
 1903 0801 32080000 		.4byte	0x832
 1904 0805 1B       		.uleb128 0x1b
 1905 0806 45060000 		.4byte	.LASF132
 1906 080a 12       		.byte	0x12
 1907 080b 46       		.byte	0x46
 1908 080c 38080000 		.4byte	0x838
 1909 0810 00       		.byte	0
 1910 0811 1E       		.uleb128 0x1e
 1911 0812 9C050000 		.4byte	.LASF181
 1912 0816 08       		.byte	0x8
 1913 0817 12       		.byte	0x12
 1914 0818 41       		.byte	0x41
 1915 0819 32080000 		.4byte	0x832
 1916 081d 1B       		.uleb128 0x1b
 1917 081e FC000000 		.4byte	.LASF133
 1918 0822 12       		.byte	0x12
 1919 0823 42       		.byte	0x42
 1920 0824 CE040000 		.4byte	0x4ce
 1921 0828 1F       		.uleb128 0x1f
 1922 0829 6800     		.ascii	"h\000"
 1923 082b 12       		.byte	0x12
 1924 082c 49       		.byte	0x49
 1925 082d 3E080000 		.4byte	0x83e
 1926 0831 00       		.byte	0
 1927 0832 06       		.uleb128 0x6
 1928 0833 04       		.byte	0x4
 1929 0834 11080000 		.4byte	0x811
 1930 0838 06       		.uleb128 0x6
 1931 0839 04       		.byte	0x4
 1932 083a B6070000 		.4byte	0x7b6
 1933 083e 16       		.uleb128 0x16
 1934 083f 08       		.byte	0x8
 1935 0840 12       		.byte	0x12
 1936 0841 43       		.byte	0x43
 1937 0842 5D080000 		.4byte	0x85d
 1938 0846 14       		.uleb128 0x14
 1939 0847 7500     		.ascii	"u\000"
 1940 0849 12       		.byte	0x12
 1941 084a 47       		.byte	0x47
 1942 084b F2070000 		.4byte	0x7f2
 1943 084f 00       		.byte	0
 1944 0850 0B       		.uleb128 0xb
 1945 0851 A2070000 		.4byte	.LASF134
 1946 0855 12       		.byte	0x12
 1947 0856 48       		.byte	0x48
 1948 0857 25000000 		.4byte	0x25
 1949 085b 04       		.byte	0x4
 1950 085c 00       		.byte	0
 1951 085d 06       		.uleb128 0x6
ARM GAS  C:\Users\jo\AppData\Local\Temp\ccN0EpzZ.s 			page 36


 1952 085e 04       		.byte	0x4
 1953 085f C4000000 		.4byte	0xc4
 1954 0863 0A       		.uleb128 0xa
 1955 0864 BC050000 		.4byte	.LASF135
 1956 0868 10       		.byte	0x10
 1957 0869 13       		.byte	0x13
 1958 086a 40       		.byte	0x40
 1959 086b A0080000 		.4byte	0x8a0
 1960 086f 0B       		.uleb128 0xb
 1961 0870 37040000 		.4byte	.LASF136
 1962 0874 13       		.byte	0x13
 1963 0875 41       		.byte	0x41
 1964 0876 C4080000 		.4byte	0x8c4
 1965 087a 00       		.byte	0
 1966 087b 0B       		.uleb128 0xb
 1967 087c 5C060000 		.4byte	.LASF137
 1968 0880 13       		.byte	0x13
 1969 0881 41       		.byte	0x41
 1970 0882 E3080000 		.4byte	0x8e3
 1971 0886 04       		.byte	0x4
 1972 0887 14       		.uleb128 0x14
 1973 0888 70757400 		.ascii	"put\000"
 1974 088c 13       		.byte	0x13
 1975 088d 41       		.byte	0x41
 1976 088e FD080000 		.4byte	0x8fd
 1977 0892 08       		.byte	0x8
 1978 0893 14       		.uleb128 0x14
 1979 0894 67657400 		.ascii	"get\000"
 1980 0898 13       		.byte	0x13
 1981 0899 41       		.byte	0x41
 1982 089a 70070000 		.4byte	0x770
 1983 089e 0C       		.byte	0xc
 1984 089f 00       		.byte	0
 1985 08a0 1D       		.uleb128 0x1d
 1986 08a1 25000000 		.4byte	0x25
 1987 08a5 B9080000 		.4byte	0x8b9
 1988 08a9 10       		.uleb128 0x10
 1989 08aa A9000000 		.4byte	0xa9
 1990 08ae 10       		.uleb128 0x10
 1991 08af B9080000 		.4byte	0x8b9
 1992 08b3 10       		.uleb128 0x10
 1993 08b4 25000000 		.4byte	0x25
 1994 08b8 00       		.byte	0
 1995 08b9 06       		.uleb128 0x6
 1996 08ba 04       		.byte	0x4
 1997 08bb BF080000 		.4byte	0x8bf
 1998 08bf 07       		.uleb128 0x7
 1999 08c0 C4000000 		.4byte	0xc4
 2000 08c4 06       		.uleb128 0x6
 2001 08c5 04       		.byte	0x4
 2002 08c6 A0080000 		.4byte	0x8a0
 2003 08ca 1D       		.uleb128 0x1d
 2004 08cb 25000000 		.4byte	0x25
 2005 08cf E3080000 		.4byte	0x8e3
 2006 08d3 10       		.uleb128 0x10
 2007 08d4 A9000000 		.4byte	0xa9
 2008 08d8 10       		.uleb128 0x10
ARM GAS  C:\Users\jo\AppData\Local\Temp\ccN0EpzZ.s 			page 37


 2009 08d9 5D080000 		.4byte	0x85d
 2010 08dd 10       		.uleb128 0x10
 2011 08de 25000000 		.4byte	0x25
 2012 08e2 00       		.byte	0
 2013 08e3 06       		.uleb128 0x6
 2014 08e4 04       		.byte	0x4
 2015 08e5 CA080000 		.4byte	0x8ca
 2016 08e9 1D       		.uleb128 0x1d
 2017 08ea 37010000 		.4byte	0x137
 2018 08ee FD080000 		.4byte	0x8fd
 2019 08f2 10       		.uleb128 0x10
 2020 08f3 A9000000 		.4byte	0xa9
 2021 08f7 10       		.uleb128 0x10
 2022 08f8 C4000000 		.4byte	0xc4
 2023 08fc 00       		.byte	0
 2024 08fd 06       		.uleb128 0x6
 2025 08fe 04       		.byte	0x4
 2026 08ff E9080000 		.4byte	0x8e9
 2027 0903 16       		.uleb128 0x16
 2028 0904 04       		.byte	0x4
 2029 0905 13       		.byte	0x13
 2030 0906 49       		.byte	0x49
 2031 0907 18090000 		.4byte	0x918
 2032 090b 14       		.uleb128 0x14
 2033 090c 766D7400 		.ascii	"vmt\000"
 2034 0910 13       		.byte	0x13
 2035 0911 4B       		.byte	0x4b
 2036 0912 18090000 		.4byte	0x918
 2037 0916 00       		.byte	0
 2038 0917 00       		.byte	0
 2039 0918 06       		.uleb128 0x6
 2040 0919 04       		.byte	0x4
 2041 091a 1E090000 		.4byte	0x91e
 2042 091e 07       		.uleb128 0x7
 2043 091f 63080000 		.4byte	0x863
 2044 0923 02       		.uleb128 0x2
 2045 0924 37020000 		.4byte	.LASF138
 2046 0928 13       		.byte	0x13
 2047 0929 4D       		.byte	0x4d
 2048 092a 03090000 		.4byte	0x903
 2049 092e 03       		.uleb128 0x3
 2050 092f 01       		.byte	0x1
 2051 0930 02       		.byte	0x2
 2052 0931 4A050000 		.4byte	.LASF139
 2053 0935 0A       		.uleb128 0xa
 2054 0936 75060000 		.4byte	.LASF140
 2055 093a 10       		.byte	0x10
 2056 093b 14       		.byte	0x14
 2057 093c 2E       		.byte	0x2e
 2058 093d 72090000 		.4byte	0x972
 2059 0941 0B       		.uleb128 0xb
 2060 0942 37040000 		.4byte	.LASF136
 2061 0946 14       		.byte	0x14
 2062 0947 2F       		.byte	0x2f
 2063 0948 C4080000 		.4byte	0x8c4
 2064 094c 00       		.byte	0
 2065 094d 0B       		.uleb128 0xb
ARM GAS  C:\Users\jo\AppData\Local\Temp\ccN0EpzZ.s 			page 38


 2066 094e 5C060000 		.4byte	.LASF137
 2067 0952 14       		.byte	0x14
 2068 0953 2F       		.byte	0x2f
 2069 0954 E3080000 		.4byte	0x8e3
 2070 0958 04       		.byte	0x4
 2071 0959 14       		.uleb128 0x14
 2072 095a 70757400 		.ascii	"put\000"
 2073 095e 14       		.byte	0x14
 2074 095f 2F       		.byte	0x2f
 2075 0960 FD080000 		.4byte	0x8fd
 2076 0964 08       		.byte	0x8
 2077 0965 14       		.uleb128 0x14
 2078 0966 67657400 		.ascii	"get\000"
 2079 096a 14       		.byte	0x14
 2080 096b 2F       		.byte	0x2f
 2081 096c 70070000 		.4byte	0x770
 2082 0970 0C       		.byte	0xc
 2083 0971 00       		.byte	0
 2084 0972 16       		.uleb128 0x16
 2085 0973 04       		.byte	0x4
 2086 0974 14       		.byte	0x14
 2087 0975 39       		.byte	0x39
 2088 0976 87090000 		.4byte	0x987
 2089 097a 14       		.uleb128 0x14
 2090 097b 766D7400 		.ascii	"vmt\000"
 2091 097f 14       		.byte	0x14
 2092 0980 3B       		.byte	0x3b
 2093 0981 87090000 		.4byte	0x987
 2094 0985 00       		.byte	0
 2095 0986 00       		.byte	0
 2096 0987 06       		.uleb128 0x6
 2097 0988 04       		.byte	0x4
 2098 0989 8D090000 		.4byte	0x98d
 2099 098d 07       		.uleb128 0x7
 2100 098e 35090000 		.4byte	0x935
 2101 0992 02       		.uleb128 0x2
 2102 0993 08050000 		.4byte	.LASF141
 2103 0997 14       		.byte	0x14
 2104 0998 3D       		.byte	0x3d
 2105 0999 72090000 		.4byte	0x972
 2106 099d 02       		.uleb128 0x2
 2107 099e 5E000000 		.4byte	.LASF142
 2108 09a2 0B       		.byte	0xb
 2109 09a3 62       		.byte	0x62
 2110 09a4 73050000 		.4byte	0x573
 2111 09a8 16       		.uleb128 0x16
 2112 09a9 04       		.byte	0x4
 2113 09aa 15       		.byte	0x15
 2114 09ab 0F       		.byte	0xf
 2115 09ac BD090000 		.4byte	0x9bd
 2116 09b0 0B       		.uleb128 0xb
 2117 09b1 A8020000 		.4byte	.LASF143
 2118 09b5 15       		.byte	0x15
 2119 09b6 11       		.byte	0x11
 2120 09b7 37000000 		.4byte	0x37
 2121 09bb 00       		.byte	0
 2122 09bc 00       		.byte	0
ARM GAS  C:\Users\jo\AppData\Local\Temp\ccN0EpzZ.s 			page 39


 2123 09bd 02       		.uleb128 0x2
 2124 09be 69070000 		.4byte	.LASF144
 2125 09c2 15       		.byte	0x15
 2126 09c3 12       		.byte	0x12
 2127 09c4 A8090000 		.4byte	0x9a8
 2128 09c8 16       		.uleb128 0x16
 2129 09c9 10       		.byte	0x10
 2130 09ca 15       		.byte	0x15
 2131 09cb 27       		.byte	0x27
 2132 09cc 010A0000 		.4byte	0xa01
 2133 09d0 0B       		.uleb128 0xb
 2134 09d1 EA040000 		.4byte	.LASF145
 2135 09d5 15       		.byte	0x15
 2136 09d6 29       		.byte	0x29
 2137 09d7 37000000 		.4byte	0x37
 2138 09db 00       		.byte	0
 2139 09dc 0B       		.uleb128 0xb
 2140 09dd A2070000 		.4byte	.LASF134
 2141 09e1 15       		.byte	0x15
 2142 09e2 2A       		.byte	0x2a
 2143 09e3 37000000 		.4byte	0x37
 2144 09e7 04       		.byte	0x4
 2145 09e8 0B       		.uleb128 0xb
 2146 09e9 93020000 		.4byte	.LASF146
 2147 09ed 15       		.byte	0x15
 2148 09ee 2B       		.byte	0x2b
 2149 09ef 37000000 		.4byte	0x37
 2150 09f3 08       		.byte	0x8
 2151 09f4 0B       		.uleb128 0xb
 2152 09f5 D4010000 		.4byte	.LASF147
 2153 09f9 15       		.byte	0x15
 2154 09fa 2C       		.byte	0x2c
 2155 09fb 010A0000 		.4byte	0xa01
 2156 09ff 0C       		.byte	0xc
 2157 0a00 00       		.byte	0
 2158 0a01 06       		.uleb128 0x6
 2159 0a02 04       		.byte	0x4
 2160 0a03 BD090000 		.4byte	0x9bd
 2161 0a07 02       		.uleb128 0x2
 2162 0a08 6E050000 		.4byte	.LASF148
 2163 0a0c 15       		.byte	0x15
 2164 0a0d 2D       		.byte	0x2d
 2165 0a0e C8090000 		.4byte	0x9c8
 2166 0a12 20       		.uleb128 0x20
 2167 0a13 01       		.byte	0x1
 2168 0a14 15       		.byte	0x15
 2169 0a15 30       		.byte	0x30
 2170 0a16 270A0000 		.4byte	0xa27
 2171 0a1a 21       		.uleb128 0x21
 2172 0a1b 3F060000 		.4byte	.LASF149
 2173 0a1f 00       		.sleb128 0
 2174 0a20 21       		.uleb128 0x21
 2175 0a21 00000000 		.4byte	.LASF150
 2176 0a25 01       		.sleb128 1
 2177 0a26 00       		.byte	0
 2178 0a27 02       		.uleb128 0x2
 2179 0a28 E8060000 		.4byte	.LASF151
ARM GAS  C:\Users\jo\AppData\Local\Temp\ccN0EpzZ.s 			page 40


 2180 0a2c 15       		.byte	0x15
 2181 0a2d 33       		.byte	0x33
 2182 0a2e 120A0000 		.4byte	0xa12
 2183 0a32 22       		.uleb128 0x22
 2184 0a33 E5010000 		.4byte	.LASF155
 2185 0a37 02       		.byte	0x2
 2186 0a38 A5       		.byte	0xa5
 2187 0a39 01       		.byte	0x1
 2188 0a3a 6B0A0000 		.4byte	0xa6b
 2189 0a3e 23       		.uleb128 0x23
 2190 0a3f DA070000 		.4byte	.LASF152
 2191 0a43 02       		.byte	0x2
 2192 0a44 A5       		.byte	0xa5
 2193 0a45 6B0A0000 		.4byte	0xa6b
 2194 0a49 23       		.uleb128 0x23
 2195 0a4a 90070000 		.4byte	.LASF153
 2196 0a4e 02       		.byte	0x2
 2197 0a4f A5       		.byte	0xa5
 2198 0a50 37000000 		.4byte	0x37
 2199 0a54 23       		.uleb128 0x23
 2200 0a55 B6050000 		.4byte	.LASF154
 2201 0a59 02       		.byte	0x2
 2202 0a5a A5       		.byte	0xa5
 2203 0a5b 37000000 		.4byte	0x37
 2204 0a5f 24       		.uleb128 0x24
 2205 0a60 64697200 		.ascii	"dir\000"
 2206 0a64 02       		.byte	0x2
 2207 0a65 A5       		.byte	0xa5
 2208 0a66 270A0000 		.4byte	0xa27
 2209 0a6a 00       		.byte	0
 2210 0a6b 07       		.uleb128 0x7
 2211 0a6c 700A0000 		.4byte	0xa70
 2212 0a70 06       		.uleb128 0x6
 2213 0a71 04       		.byte	0x4
 2214 0a72 070A0000 		.4byte	0xa07
 2215 0a76 25       		.uleb128 0x25
 2216 0a77 71070000 		.4byte	.LASF176
 2217 0a7b 02       		.byte	0x2
 2218 0a7c 16       		.byte	0x16
 2219 0a7d 01       		.byte	0x1
 2220 0a7e 990A0000 		.4byte	0xa99
 2221 0a82 23       		.uleb128 0x23
 2222 0a83 DA070000 		.4byte	.LASF152
 2223 0a87 02       		.byte	0x2
 2224 0a88 16       		.byte	0x16
 2225 0a89 6B0A0000 		.4byte	0xa6b
 2226 0a8d 23       		.uleb128 0x23
 2227 0a8e A2070000 		.4byte	.LASF134
 2228 0a92 02       		.byte	0x2
 2229 0a93 16       		.byte	0x16
 2230 0a94 37000000 		.4byte	0x37
 2231 0a98 00       		.byte	0
 2232 0a99 22       		.uleb128 0x22
 2233 0a9a 05030000 		.4byte	.LASF156
 2234 0a9e 02       		.byte	0x2
 2235 0a9f A0       		.byte	0xa0
 2236 0aa0 01       		.byte	0x1
ARM GAS  C:\Users\jo\AppData\Local\Temp\ccN0EpzZ.s 			page 41


 2237 0aa1 AF0A0000 		.4byte	0xaaf
 2238 0aa5 24       		.uleb128 0x24
 2239 0aa6 6500     		.ascii	"e\000"
 2240 0aa8 02       		.byte	0x2
 2241 0aa9 A0       		.byte	0xa0
 2242 0aaa AF0A0000 		.4byte	0xaaf
 2243 0aae 00       		.byte	0
 2244 0aaf 07       		.uleb128 0x7
 2245 0ab0 B40A0000 		.4byte	0xab4
 2246 0ab4 06       		.uleb128 0x6
 2247 0ab5 04       		.byte	0x4
 2248 0ab6 BA0A0000 		.4byte	0xaba
 2249 0aba 07       		.uleb128 0x7
 2250 0abb BD090000 		.4byte	0x9bd
 2251 0abf 26       		.uleb128 0x26
 2252 0ac0 66060000 		.4byte	.LASF182
 2253 0ac4 01       		.byte	0x1
 2254 0ac5 45       		.byte	0x45
 2255 0ac6 37000000 		.4byte	0x37
 2256 0aca 03       		.byte	0x3
 2257 0acb FC0A0000 		.4byte	0xafc
 2258 0acf 24       		.uleb128 0x24
 2259 0ad0 63687000 		.ascii	"chp\000"
 2260 0ad4 01       		.byte	0x1
 2261 0ad5 45       		.byte	0x45
 2262 0ad6 FC0A0000 		.4byte	0xafc
 2263 0ada 24       		.uleb128 0x24
 2264 0adb 666D7400 		.ascii	"fmt\000"
 2265 0adf 01       		.byte	0x1
 2266 0ae0 45       		.byte	0x45
 2267 0ae1 B2000000 		.4byte	0xb2
 2268 0ae5 27       		.uleb128 0x27
 2269 0ae6 28       		.uleb128 0x28
 2270 0ae7 617000   		.ascii	"ap\000"
 2271 0aea 01       		.byte	0x1
 2272 0aeb 46       		.byte	0x46
 2273 0aec 9D090000 		.4byte	0x99d
 2274 0af0 29       		.uleb128 0x29
 2275 0af1 AA000000 		.4byte	.LASF157
 2276 0af5 01       		.byte	0x1
 2277 0af6 47       		.byte	0x47
 2278 0af7 37000000 		.4byte	0x37
 2279 0afb 00       		.byte	0
 2280 0afc 06       		.uleb128 0x6
 2281 0afd 04       		.byte	0x4
 2282 0afe 23090000 		.4byte	0x923
 2283 0b02 2A       		.uleb128 0x2a
 2284 0b03 BF0A0000 		.4byte	0xabf
 2285 0b07 00000000 		.4byte	.LFB277
 2286 0b0b 24000000 		.4byte	.LFE277-.LFB277
 2287 0b0f 01       		.uleb128 0x1
 2288 0b10 9C       		.byte	0x9c
 2289 0b11 530B0000 		.4byte	0xb53
 2290 0b15 2B       		.uleb128 0x2b
 2291 0b16 CF0A0000 		.4byte	0xacf
 2292 0b1a 00000000 		.4byte	.LLST0
 2293 0b1e 2C       		.uleb128 0x2c
ARM GAS  C:\Users\jo\AppData\Local\Temp\ccN0EpzZ.s 			page 42


 2294 0b1f DA0A0000 		.4byte	0xada
 2295 0b23 02       		.uleb128 0x2
 2296 0b24 91       		.byte	0x91
 2297 0b25 74       		.sleb128 -12
 2298 0b26 27       		.uleb128 0x27
 2299 0b27 2D       		.uleb128 0x2d
 2300 0b28 E60A0000 		.4byte	0xae6
 2301 0b2c 02       		.uleb128 0x2
 2302 0b2d 91       		.byte	0x91
 2303 0b2e 6C       		.sleb128 -20
 2304 0b2f 2D       		.uleb128 0x2d
 2305 0b30 F00A0000 		.4byte	0xaf0
 2306 0b34 01       		.uleb128 0x1
 2307 0b35 50       		.byte	0x50
 2308 0b36 2E       		.uleb128 0x2e
 2309 0b37 CF0A0000 		.4byte	0xacf
 2310 0b3b 2F       		.uleb128 0x2f
 2311 0b3c 14000000 		.4byte	.LVL2
 2312 0b40 AA110000 		.4byte	0x11aa
 2313 0b44 30       		.uleb128 0x30
 2314 0b45 01       		.uleb128 0x1
 2315 0b46 52       		.byte	0x52
 2316 0b47 02       		.uleb128 0x2
 2317 0b48 91       		.byte	0x91
 2318 0b49 60       		.sleb128 -32
 2319 0b4a 30       		.uleb128 0x30
 2320 0b4b 01       		.uleb128 0x1
 2321 0b4c 51       		.byte	0x51
 2322 0b4d 03       		.uleb128 0x3
 2323 0b4e 91       		.byte	0x91
 2324 0b4f 5C       		.sleb128 -36
 2325 0b50 06       		.byte	0x6
 2326 0b51 00       		.byte	0
 2327 0b52 00       		.byte	0
 2328 0b53 31       		.uleb128 0x31
 2329 0b54 14020000 		.4byte	.LASF159
 2330 0b58 02       		.byte	0x2
 2331 0b59 1B       		.byte	0x1b
 2332 0b5a 00000000 		.4byte	.LFB258
 2333 0b5e 2C000000 		.4byte	.LFE258-.LFB258
 2334 0b62 01       		.uleb128 0x1
 2335 0b63 9C       		.byte	0x9c
 2336 0b64 C50B0000 		.4byte	0xbc5
 2337 0b68 32       		.uleb128 0x32
 2338 0b69 DA070000 		.4byte	.LASF152
 2339 0b6d 02       		.byte	0x2
 2340 0b6e 1B       		.byte	0x1b
 2341 0b6f 6B0A0000 		.4byte	0xa6b
 2342 0b73 21000000 		.4byte	.LLST1
 2343 0b77 32       		.uleb128 0x32
 2344 0b78 A2070000 		.4byte	.LASF134
 2345 0b7c 02       		.byte	0x2
 2346 0b7d 1B       		.byte	0x1b
 2347 0b7e 37000000 		.4byte	0x37
 2348 0b82 4D000000 		.4byte	.LLST2
 2349 0b86 32       		.uleb128 0x32
 2350 0b87 88010000 		.4byte	.LASF158
ARM GAS  C:\Users\jo\AppData\Local\Temp\ccN0EpzZ.s 			page 43


 2351 0b8b 02       		.byte	0x2
 2352 0b8c 1B       		.byte	0x1b
 2353 0b8d 37000000 		.4byte	0x37
 2354 0b91 86000000 		.4byte	.LLST3
 2355 0b95 33       		.uleb128 0x33
 2356 0b96 10000000 		.4byte	.LVL6
 2357 0b9a C9110000 		.4byte	0x11c9
 2358 0b9e B10B0000 		.4byte	0xbb1
 2359 0ba2 30       		.uleb128 0x30
 2360 0ba3 01       		.uleb128 0x1
 2361 0ba4 51       		.byte	0x51
 2362 0ba5 05       		.uleb128 0x5
 2363 0ba6 F3       		.byte	0xf3
 2364 0ba7 01       		.uleb128 0x1
 2365 0ba8 51       		.byte	0x51
 2366 0ba9 32       		.byte	0x32
 2367 0baa 24       		.byte	0x24
 2368 0bab 30       		.uleb128 0x30
 2369 0bac 01       		.uleb128 0x1
 2370 0bad 50       		.byte	0x50
 2371 0bae 01       		.uleb128 0x1
 2372 0baf 30       		.byte	0x30
 2373 0bb0 00       		.byte	0
 2374 0bb1 2F       		.uleb128 0x2f
 2375 0bb2 1C000000 		.4byte	.LVL7
 2376 0bb6 020B0000 		.4byte	0xb02
 2377 0bba 30       		.uleb128 0x30
 2378 0bbb 01       		.uleb128 0x1
 2379 0bbc 51       		.byte	0x51
 2380 0bbd 05       		.uleb128 0x5
 2381 0bbe 03       		.byte	0x3
 2382 0bbf 00000000 		.4byte	.LC0
 2383 0bc3 00       		.byte	0
 2384 0bc4 00       		.byte	0
 2385 0bc5 2A       		.uleb128 0x2a
 2386 0bc6 760A0000 		.4byte	0xa76
 2387 0bca 00000000 		.4byte	.LFB257
 2388 0bce 06000000 		.4byte	.LFE257-.LFB257
 2389 0bd2 01       		.uleb128 0x1
 2390 0bd3 9C       		.byte	0x9c
 2391 0bd4 090C0000 		.4byte	0xc09
 2392 0bd8 2B       		.uleb128 0x2b
 2393 0bd9 820A0000 		.4byte	0xa82
 2394 0bdd A7000000 		.4byte	.LLST4
 2395 0be1 2B       		.uleb128 0x2b
 2396 0be2 8D0A0000 		.4byte	0xa8d
 2397 0be6 C8000000 		.4byte	.LLST5
 2398 0bea 34       		.uleb128 0x34
 2399 0beb 06000000 		.4byte	.LVL10
 2400 0bef 530B0000 		.4byte	0xb53
 2401 0bf3 30       		.uleb128 0x30
 2402 0bf4 01       		.uleb128 0x1
 2403 0bf5 52       		.byte	0x52
 2404 0bf6 02       		.uleb128 0x2
 2405 0bf7 08       		.byte	0x8
 2406 0bf8 32       		.byte	0x32
 2407 0bf9 30       		.uleb128 0x30
ARM GAS  C:\Users\jo\AppData\Local\Temp\ccN0EpzZ.s 			page 44


 2408 0bfa 01       		.uleb128 0x1
 2409 0bfb 51       		.byte	0x51
 2410 0bfc 03       		.uleb128 0x3
 2411 0bfd F3       		.byte	0xf3
 2412 0bfe 01       		.uleb128 0x1
 2413 0bff 51       		.byte	0x51
 2414 0c00 30       		.uleb128 0x30
 2415 0c01 01       		.uleb128 0x1
 2416 0c02 50       		.byte	0x50
 2417 0c03 03       		.uleb128 0x3
 2418 0c04 F3       		.byte	0xf3
 2419 0c05 01       		.uleb128 0x1
 2420 0c06 50       		.byte	0x50
 2421 0c07 00       		.byte	0
 2422 0c08 00       		.byte	0
 2423 0c09 31       		.uleb128 0x31
 2424 0c0a 75000000 		.4byte	.LASF160
 2425 0c0e 02       		.byte	0x2
 2426 0c0f 11       		.byte	0x11
 2427 0c10 00000000 		.4byte	.LFB256
 2428 0c14 08000000 		.4byte	.LFE256-.LFB256
 2429 0c18 01       		.uleb128 0x1
 2430 0c19 9C       		.byte	0x9c
 2431 0c1a 690C0000 		.4byte	0xc69
 2432 0c1e 32       		.uleb128 0x32
 2433 0c1f DA070000 		.4byte	.LASF152
 2434 0c23 02       		.byte	0x2
 2435 0c24 11       		.byte	0x11
 2436 0c25 6B0A0000 		.4byte	0xa6b
 2437 0c29 E9000000 		.4byte	.LLST6
 2438 0c2d 35       		.uleb128 0x35
 2439 0c2e 760A0000 		.4byte	0xa76
 2440 0c32 00000000 		.4byte	.LBB7
 2441 0c36 08000000 		.4byte	.LBE7-.LBB7
 2442 0c3a 02       		.byte	0x2
 2443 0c3b 13       		.byte	0x13
 2444 0c3c 36       		.uleb128 0x36
 2445 0c3d 8D0A0000 		.4byte	0xa8d
 2446 0c41 10       		.byte	0x10
 2447 0c42 2B       		.uleb128 0x2b
 2448 0c43 820A0000 		.4byte	0xa82
 2449 0c47 E9000000 		.4byte	.LLST6
 2450 0c4b 34       		.uleb128 0x34
 2451 0c4c 08000000 		.4byte	.LVL12
 2452 0c50 530B0000 		.4byte	0xb53
 2453 0c54 30       		.uleb128 0x30
 2454 0c55 01       		.uleb128 0x1
 2455 0c56 52       		.byte	0x52
 2456 0c57 02       		.uleb128 0x2
 2457 0c58 08       		.byte	0x8
 2458 0c59 32       		.byte	0x32
 2459 0c5a 30       		.uleb128 0x30
 2460 0c5b 01       		.uleb128 0x1
 2461 0c5c 51       		.byte	0x51
 2462 0c5d 01       		.uleb128 0x1
 2463 0c5e 40       		.byte	0x40
 2464 0c5f 30       		.uleb128 0x30
ARM GAS  C:\Users\jo\AppData\Local\Temp\ccN0EpzZ.s 			page 45


 2465 0c60 01       		.uleb128 0x1
 2466 0c61 50       		.byte	0x50
 2467 0c62 03       		.uleb128 0x3
 2468 0c63 F3       		.byte	0xf3
 2469 0c64 01       		.uleb128 0x1
 2470 0c65 50       		.byte	0x50
 2471 0c66 00       		.byte	0
 2472 0c67 00       		.byte	0
 2473 0c68 00       		.byte	0
 2474 0c69 31       		.uleb128 0x31
 2475 0c6a 67040000 		.4byte	.LASF161
 2476 0c6e 02       		.byte	0x2
 2477 0c6f 24       		.byte	0x24
 2478 0c70 00000000 		.4byte	.LFB259
 2479 0c74 20000000 		.4byte	.LFE259-.LFB259
 2480 0c78 01       		.uleb128 0x1
 2481 0c79 9C       		.byte	0x9c
 2482 0c7a 8C0C0000 		.4byte	0xc8c
 2483 0c7e 37       		.uleb128 0x37
 2484 0c7f DA070000 		.4byte	.LASF152
 2485 0c83 02       		.byte	0x2
 2486 0c84 24       		.byte	0x24
 2487 0c85 6B0A0000 		.4byte	0xa6b
 2488 0c89 01       		.uleb128 0x1
 2489 0c8a 50       		.byte	0x50
 2490 0c8b 00       		.byte	0
 2491 0c8c 38       		.uleb128 0x38
 2492 0c8d 73657400 		.ascii	"set\000"
 2493 0c91 02       		.byte	0x2
 2494 0c92 2D       		.byte	0x2d
 2495 0c93 37000000 		.4byte	0x37
 2496 0c97 00000000 		.4byte	.LFB260
 2497 0c9b 14000000 		.4byte	.LFE260-.LFB260
 2498 0c9f 01       		.uleb128 0x1
 2499 0ca0 9C       		.byte	0x9c
 2500 0ca1 CD0C0000 		.4byte	0xccd
 2501 0ca5 32       		.uleb128 0x32
 2502 0ca6 DA070000 		.4byte	.LASF152
 2503 0caa 02       		.byte	0x2
 2504 0cab 2D       		.byte	0x2d
 2505 0cac 6B0A0000 		.4byte	0xa6b
 2506 0cb0 0A010000 		.4byte	.LLST8
 2507 0cb4 39       		.uleb128 0x39
 2508 0cb5 6500     		.ascii	"e\000"
 2509 0cb7 02       		.byte	0x2
 2510 0cb8 2D       		.byte	0x2d
 2511 0cb9 BD090000 		.4byte	0x9bd
 2512 0cbd 01       		.uleb128 0x1
 2513 0cbe 51       		.byte	0x51
 2514 0cbf 37       		.uleb128 0x37
 2515 0cc0 90070000 		.4byte	.LASF153
 2516 0cc4 02       		.byte	0x2
 2517 0cc5 2D       		.byte	0x2d
 2518 0cc6 37000000 		.4byte	0x37
 2519 0cca 01       		.uleb128 0x1
 2520 0ccb 52       		.byte	0x52
 2521 0ccc 00       		.byte	0
ARM GAS  C:\Users\jo\AppData\Local\Temp\ccN0EpzZ.s 			page 46


 2522 0ccd 38       		.uleb128 0x38
 2523 0cce 67657400 		.ascii	"get\000"
 2524 0cd2 02       		.byte	0x2
 2525 0cd3 36       		.byte	0x36
 2526 0cd4 010A0000 		.4byte	0xa01
 2527 0cd8 00000000 		.4byte	.LFB261
 2528 0cdc 10000000 		.4byte	.LFE261-.LFB261
 2529 0ce0 01       		.uleb128 0x1
 2530 0ce1 9C       		.byte	0x9c
 2531 0ce2 160D0000 		.4byte	0xd16
 2532 0ce6 32       		.uleb128 0x32
 2533 0ce7 DA070000 		.4byte	.LASF152
 2534 0ceb 02       		.byte	0x2
 2535 0cec 36       		.byte	0x36
 2536 0ced 6B0A0000 		.4byte	0xa6b
 2537 0cf1 2B010000 		.4byte	.LLST9
 2538 0cf5 37       		.uleb128 0x37
 2539 0cf6 90070000 		.4byte	.LASF153
 2540 0cfa 02       		.byte	0x2
 2541 0cfb 36       		.byte	0x36
 2542 0cfc 37000000 		.4byte	0x37
 2543 0d00 01       		.uleb128 0x1
 2544 0d01 51       		.byte	0x51
 2545 0d02 3A       		.uleb128 0x3a
 2546 0d03 04000000 		.4byte	.LBB9
 2547 0d07 08000000 		.4byte	.LBE9-.LBB9
 2548 0d0b 28       		.uleb128 0x28
 2549 0d0c 6500     		.ascii	"e\000"
 2550 0d0e 02       		.byte	0x2
 2551 0d0f 3A       		.byte	0x3a
 2552 0d10 010A0000 		.4byte	0xa01
 2553 0d14 00       		.byte	0
 2554 0d15 00       		.byte	0
 2555 0d16 22       		.uleb128 0x22
 2556 0d17 43000000 		.4byte	.LASF162
 2557 0d1b 02       		.byte	0x2
 2558 0d1c 52       		.byte	0x52
 2559 0d1d 01       		.byte	0x1
 2560 0d1e 390D0000 		.4byte	0xd39
 2561 0d22 23       		.uleb128 0x23
 2562 0d23 DA070000 		.4byte	.LASF152
 2563 0d27 02       		.byte	0x2
 2564 0d28 52       		.byte	0x52
 2565 0d29 6B0A0000 		.4byte	0xa6b
 2566 0d2d 29       		.uleb128 0x29
 2567 0d2e A7070000 		.4byte	.LASF163
 2568 0d32 02       		.byte	0x2
 2569 0d33 55       		.byte	0x55
 2570 0d34 010A0000 		.4byte	0xa01
 2571 0d38 00       		.byte	0
 2572 0d39 38       		.uleb128 0x38
 2573 0d3a 61646400 		.ascii	"add\000"
 2574 0d3e 02       		.byte	0x2
 2575 0d3f 40       		.byte	0x40
 2576 0d40 37000000 		.4byte	0x37
 2577 0d44 00000000 		.4byte	.LFB262
 2578 0d48 90000000 		.4byte	.LFE262-.LFB262
ARM GAS  C:\Users\jo\AppData\Local\Temp\ccN0EpzZ.s 			page 47


 2579 0d4c 01       		.uleb128 0x1
 2580 0d4d 9C       		.byte	0x9c
 2581 0d4e 420E0000 		.4byte	0xe42
 2582 0d52 32       		.uleb128 0x32
 2583 0d53 DA070000 		.4byte	.LASF152
 2584 0d57 02       		.byte	0x2
 2585 0d58 40       		.byte	0x40
 2586 0d59 6B0A0000 		.4byte	0xa6b
 2587 0d5d 4C010000 		.4byte	.LLST10
 2588 0d61 3B       		.uleb128 0x3b
 2589 0d62 6500     		.ascii	"e\000"
 2590 0d64 02       		.byte	0x2
 2591 0d65 40       		.byte	0x40
 2592 0d66 BD090000 		.4byte	0x9bd
 2593 0d6a 8E010000 		.4byte	.LLST11
 2594 0d6e 3C       		.uleb128 0x3c
 2595 0d6f 160D0000 		.4byte	0xd16
 2596 0d73 16000000 		.4byte	.LBB12
 2597 0d77 00000000 		.4byte	.Ldebug_ranges0+0
 2598 0d7b 02       		.byte	0x2
 2599 0d7c 4B       		.byte	0x4b
 2600 0d7d EE0D0000 		.4byte	0xdee
 2601 0d81 2B       		.uleb128 0x2b
 2602 0d82 220D0000 		.4byte	0xd22
 2603 0d86 C2010000 		.4byte	.LLST12
 2604 0d8a 3D       		.uleb128 0x3d
 2605 0d8b 00000000 		.4byte	.Ldebug_ranges0+0
 2606 0d8f 3E       		.uleb128 0x3e
 2607 0d90 2D0D0000 		.4byte	0xd2d
 2608 0d94 E0010000 		.4byte	.LLST13
 2609 0d98 33       		.uleb128 0x33
 2610 0d99 24000000 		.4byte	.LVL22
 2611 0d9d E3110000 		.4byte	0x11e3
 2612 0da1 B10D0000 		.4byte	0xdb1
 2613 0da5 30       		.uleb128 0x30
 2614 0da6 01       		.uleb128 0x1
 2615 0da7 51       		.byte	0x51
 2616 0da8 02       		.uleb128 0x2
 2617 0da9 76       		.byte	0x76
 2618 0daa 00       		.sleb128 0
 2619 0dab 30       		.uleb128 0x30
 2620 0dac 01       		.uleb128 0x1
 2621 0dad 50       		.byte	0x50
 2622 0dae 01       		.uleb128 0x1
 2623 0daf 34       		.byte	0x34
 2624 0db0 00       		.byte	0
 2625 0db1 33       		.uleb128 0x33
 2626 0db2 38000000 		.4byte	.LVL24
 2627 0db6 FD110000 		.4byte	0x11fd
 2628 0dba E30D0000 		.4byte	0xde3
 2629 0dbe 30       		.uleb128 0x30
 2630 0dbf 01       		.uleb128 0x1
 2631 0dc0 53       		.byte	0x53
 2632 0dc1 01       		.uleb128 0x1
 2633 0dc2 30       		.byte	0x30
 2634 0dc3 30       		.uleb128 0x30
 2635 0dc4 01       		.uleb128 0x1
ARM GAS  C:\Users\jo\AppData\Local\Temp\ccN0EpzZ.s 			page 48


 2636 0dc5 51       		.byte	0x51
 2637 0dc6 01       		.uleb128 0x1
 2638 0dc7 30       		.byte	0x30
 2639 0dc8 30       		.uleb128 0x30
 2640 0dc9 01       		.uleb128 0x1
 2641 0dca 50       		.byte	0x50
 2642 0dcb 02       		.uleb128 0x2
 2643 0dcc 78       		.byte	0x78
 2644 0dcd 00       		.sleb128 0
 2645 0dce 30       		.uleb128 0x30
 2646 0dcf 02       		.uleb128 0x2
 2647 0dd0 7D       		.byte	0x7d
 2648 0dd1 08       		.sleb128 8
 2649 0dd2 01       		.uleb128 0x1
 2650 0dd3 34       		.byte	0x34
 2651 0dd4 30       		.uleb128 0x30
 2652 0dd5 02       		.uleb128 0x2
 2653 0dd6 7D       		.byte	0x7d
 2654 0dd7 04       		.sleb128 4
 2655 0dd8 02       		.uleb128 0x2
 2656 0dd9 76       		.byte	0x76
 2657 0dda 00       		.sleb128 0
 2658 0ddb 30       		.uleb128 0x30
 2659 0ddc 02       		.uleb128 0x2
 2660 0ddd 7D       		.byte	0x7d
 2661 0dde 00       		.sleb128 0
 2662 0ddf 02       		.uleb128 0x2
 2663 0de0 75       		.byte	0x75
 2664 0de1 00       		.sleb128 0
 2665 0de2 00       		.byte	0
 2666 0de3 3F       		.uleb128 0x3f
 2667 0de4 3E000000 		.4byte	.LVL25
 2668 0de8 2C120000 		.4byte	0x122c
 2669 0dec 00       		.byte	0
 2670 0ded 00       		.byte	0
 2671 0dee 33       		.uleb128 0x33
 2672 0def 5A000000 		.4byte	.LVL30
 2673 0df3 020B0000 		.4byte	0xb02
 2674 0df7 0B0E0000 		.4byte	0xe0b
 2675 0dfb 30       		.uleb128 0x30
 2676 0dfc 01       		.uleb128 0x1
 2677 0dfd 52       		.byte	0x52
 2678 0dfe 02       		.uleb128 0x2
 2679 0dff 75       		.byte	0x75
 2680 0e00 00       		.sleb128 0
 2681 0e01 30       		.uleb128 0x30
 2682 0e02 01       		.uleb128 0x1
 2683 0e03 51       		.byte	0x51
 2684 0e04 05       		.uleb128 0x5
 2685 0e05 03       		.byte	0x3
 2686 0e06 14000000 		.4byte	.LC1
 2687 0e0a 00       		.byte	0
 2688 0e0b 33       		.uleb128 0x33
 2689 0e0c 64000000 		.4byte	.LVL31
 2690 0e10 020B0000 		.4byte	0xb02
 2691 0e14 280E0000 		.4byte	0xe28
 2692 0e18 30       		.uleb128 0x30
ARM GAS  C:\Users\jo\AppData\Local\Temp\ccN0EpzZ.s 			page 49


 2693 0e19 01       		.uleb128 0x1
 2694 0e1a 52       		.byte	0x52
 2695 0e1b 02       		.uleb128 0x2
 2696 0e1c 77       		.byte	0x77
 2697 0e1d 00       		.sleb128 0
 2698 0e1e 30       		.uleb128 0x30
 2699 0e1f 01       		.uleb128 0x1
 2700 0e20 51       		.byte	0x51
 2701 0e21 05       		.uleb128 0x5
 2702 0e22 03       		.byte	0x3
 2703 0e23 28000000 		.4byte	.LC2
 2704 0e27 00       		.byte	0
 2705 0e28 2F       		.uleb128 0x2f
 2706 0e29 76000000 		.4byte	.LVL32
 2707 0e2d 020B0000 		.4byte	0xb02
 2708 0e31 30       		.uleb128 0x30
 2709 0e32 01       		.uleb128 0x1
 2710 0e33 52       		.byte	0x52
 2711 0e34 02       		.uleb128 0x2
 2712 0e35 77       		.byte	0x77
 2713 0e36 00       		.sleb128 0
 2714 0e37 30       		.uleb128 0x30
 2715 0e38 01       		.uleb128 0x1
 2716 0e39 51       		.byte	0x51
 2717 0e3a 05       		.uleb128 0x5
 2718 0e3b 03       		.byte	0x3
 2719 0e3c 34000000 		.4byte	.LC3
 2720 0e40 00       		.byte	0
 2721 0e41 00       		.byte	0
 2722 0e42 40       		.uleb128 0x40
 2723 0e43 5B020000 		.4byte	.LASF164
 2724 0e47 02       		.byte	0x2
 2725 0e48 5B       		.byte	0x5b
 2726 0e49 37000000 		.4byte	0x37
 2727 0e4d 00000000 		.4byte	.LFB264
 2728 0e51 42000000 		.4byte	.LFE264-.LFB264
 2729 0e55 01       		.uleb128 0x1
 2730 0e56 9C       		.byte	0x9c
 2731 0e57 050F0000 		.4byte	0xf05
 2732 0e5b 32       		.uleb128 0x32
 2733 0e5c DA070000 		.4byte	.LASF152
 2734 0e60 02       		.byte	0x2
 2735 0e61 5B       		.byte	0x5b
 2736 0e62 6B0A0000 		.4byte	0xa6b
 2737 0e66 FE010000 		.4byte	.LLST14
 2738 0e6a 3B       		.uleb128 0x3b
 2739 0e6b 6500     		.ascii	"e\000"
 2740 0e6d 02       		.byte	0x2
 2741 0e6e 5B       		.byte	0x5b
 2742 0e6f BD090000 		.4byte	0x9bd
 2743 0e73 35020000 		.4byte	.LLST15
 2744 0e77 32       		.uleb128 0x32
 2745 0e78 90070000 		.4byte	.LASF153
 2746 0e7c 02       		.byte	0x2
 2747 0e7d 5B       		.byte	0x5b
 2748 0e7e 37000000 		.4byte	0x37
 2749 0e82 53020000 		.4byte	.LLST16
ARM GAS  C:\Users\jo\AppData\Local\Temp\ccN0EpzZ.s 			page 50


 2750 0e86 35       		.uleb128 0x35
 2751 0e87 320A0000 		.4byte	0xa32
 2752 0e8b 1E000000 		.4byte	.LBB20
 2753 0e8f 18000000 		.4byte	.LBE20-.LBB20
 2754 0e93 02       		.byte	0x2
 2755 0e94 5F       		.byte	0x5f
 2756 0e95 36       		.uleb128 0x36
 2757 0e96 540A0000 		.4byte	0xa54
 2758 0e9a 01       		.byte	0x1
 2759 0e9b 2C       		.uleb128 0x2c
 2760 0e9c 3E0A0000 		.4byte	0xa3e
 2761 0ea0 01       		.uleb128 0x1
 2762 0ea1 55       		.byte	0x55
 2763 0ea2 2C       		.uleb128 0x2c
 2764 0ea3 3E0A0000 		.4byte	0xa3e
 2765 0ea7 01       		.uleb128 0x1
 2766 0ea8 55       		.byte	0x55
 2767 0ea9 36       		.uleb128 0x36
 2768 0eaa 5F0A0000 		.4byte	0xa5f
 2769 0eae 00       		.byte	0
 2770 0eaf 2C       		.uleb128 0x2c
 2771 0eb0 490A0000 		.4byte	0xa49
 2772 0eb4 01       		.uleb128 0x1
 2773 0eb5 56       		.byte	0x56
 2774 0eb6 3A       		.uleb128 0x3a
 2775 0eb7 1E000000 		.4byte	.LBB21
 2776 0ebb 18000000 		.4byte	.LBE21-.LBB21
 2777 0ebf 36       		.uleb128 0x36
 2778 0ec0 540A0000 		.4byte	0xa54
 2779 0ec4 01       		.byte	0x1
 2780 0ec5 36       		.uleb128 0x36
 2781 0ec6 5F0A0000 		.4byte	0xa5f
 2782 0eca 00       		.byte	0
 2783 0ecb 2E       		.uleb128 0x2e
 2784 0ecc 3E0A0000 		.4byte	0xa3e
 2785 0ed0 2E       		.uleb128 0x2e
 2786 0ed1 3E0A0000 		.4byte	0xa3e
 2787 0ed5 2C       		.uleb128 0x2c
 2788 0ed6 490A0000 		.4byte	0xa49
 2789 0eda 01       		.uleb128 0x1
 2790 0edb 56       		.byte	0x56
 2791 0edc 2F       		.uleb128 0x2f
 2792 0edd 36000000 		.4byte	.LVL41
 2793 0ee1 FD110000 		.4byte	0x11fd
 2794 0ee5 30       		.uleb128 0x30
 2795 0ee6 01       		.uleb128 0x1
 2796 0ee7 53       		.byte	0x53
 2797 0ee8 02       		.uleb128 0x2
 2798 0ee9 76       		.byte	0x76
 2799 0eea 00       		.sleb128 0
 2800 0eeb 30       		.uleb128 0x30
 2801 0eec 01       		.uleb128 0x1
 2802 0eed 51       		.byte	0x51
 2803 0eee 05       		.uleb128 0x5
 2804 0eef 76       		.byte	0x76
 2805 0ef0 00       		.sleb128 0
 2806 0ef1 74       		.byte	0x74
ARM GAS  C:\Users\jo\AppData\Local\Temp\ccN0EpzZ.s 			page 51


 2807 0ef2 00       		.sleb128 0
 2808 0ef3 22       		.byte	0x22
 2809 0ef4 30       		.uleb128 0x30
 2810 0ef5 02       		.uleb128 0x2
 2811 0ef6 7D       		.byte	0x7d
 2812 0ef7 08       		.sleb128 8
 2813 0ef8 01       		.uleb128 0x1
 2814 0ef9 34       		.byte	0x34
 2815 0efa 30       		.uleb128 0x30
 2816 0efb 02       		.uleb128 0x2
 2817 0efc 7D       		.byte	0x7d
 2818 0efd 00       		.sleb128 0
 2819 0efe 02       		.uleb128 0x2
 2820 0eff 74       		.byte	0x74
 2821 0f00 00       		.sleb128 0
 2822 0f01 00       		.byte	0
 2823 0f02 00       		.byte	0
 2824 0f03 00       		.byte	0
 2825 0f04 00       		.byte	0
 2826 0f05 40       		.uleb128 0x40
 2827 0f06 2B020000 		.4byte	.LASF165
 2828 0f0a 02       		.byte	0x2
 2829 0f0b 66       		.byte	0x66
 2830 0f0c 37000000 		.4byte	0x37
 2831 0f10 00000000 		.4byte	.LFB265
 2832 0f14 36000000 		.4byte	.LFE265-.LFB265
 2833 0f18 01       		.uleb128 0x1
 2834 0f19 9C       		.byte	0x9c
 2835 0f1a 480F0000 		.4byte	0xf48
 2836 0f1e 32       		.uleb128 0x32
 2837 0f1f DA070000 		.4byte	.LASF152
 2838 0f23 02       		.byte	0x2
 2839 0f24 66       		.byte	0x66
 2840 0f25 480F0000 		.4byte	0xf48
 2841 0f29 71020000 		.4byte	.LLST17
 2842 0f2d 39       		.uleb128 0x39
 2843 0f2e 6500     		.ascii	"e\000"
 2844 0f30 02       		.byte	0x2
 2845 0f31 66       		.byte	0x66
 2846 0f32 BD090000 		.4byte	0x9bd
 2847 0f36 01       		.uleb128 0x1
 2848 0f37 51       		.byte	0x51
 2849 0f38 41       		.uleb128 0x41
 2850 0f39 90070000 		.4byte	.LASF153
 2851 0f3d 02       		.byte	0x2
 2852 0f3e 68       		.byte	0x68
 2853 0f3f 37000000 		.4byte	0x37
 2854 0f43 AB020000 		.4byte	.LLST18
 2855 0f47 00       		.byte	0
 2856 0f48 07       		.uleb128 0x7
 2857 0f49 4D0F0000 		.4byte	0xf4d
 2858 0f4d 06       		.uleb128 0x6
 2859 0f4e 04       		.byte	0x4
 2860 0f4f 530F0000 		.4byte	0xf53
 2861 0f53 07       		.uleb128 0x7
 2862 0f54 070A0000 		.4byte	0xa07
 2863 0f58 40       		.uleb128 0x40
ARM GAS  C:\Users\jo\AppData\Local\Temp\ccN0EpzZ.s 			page 52


 2864 0f59 0C020000 		.4byte	.LASF166
 2865 0f5d 02       		.byte	0x2
 2866 0f5e 71       		.byte	0x71
 2867 0f5f 37000000 		.4byte	0x37
 2868 0f63 00000000 		.4byte	.LFB266
 2869 0f67 2C000000 		.4byte	.LFE266-.LFB266
 2870 0f6b 01       		.uleb128 0x1
 2871 0f6c 9C       		.byte	0x9c
 2872 0f6d 9B0F0000 		.4byte	0xf9b
 2873 0f71 32       		.uleb128 0x32
 2874 0f72 DA070000 		.4byte	.LASF152
 2875 0f76 02       		.byte	0x2
 2876 0f77 71       		.byte	0x71
 2877 0f78 480F0000 		.4byte	0xf48
 2878 0f7c F0020000 		.4byte	.LLST19
 2879 0f80 39       		.uleb128 0x39
 2880 0f81 6500     		.ascii	"e\000"
 2881 0f83 02       		.byte	0x2
 2882 0f84 71       		.byte	0x71
 2883 0f85 BD090000 		.4byte	0x9bd
 2884 0f89 01       		.uleb128 0x1
 2885 0f8a 51       		.byte	0x51
 2886 0f8b 41       		.uleb128 0x41
 2887 0f8c 90070000 		.4byte	.LASF153
 2888 0f90 02       		.byte	0x2
 2889 0f91 73       		.byte	0x73
 2890 0f92 37000000 		.4byte	0x37
 2891 0f96 11030000 		.4byte	.LLST20
 2892 0f9a 00       		.byte	0
 2893 0f9b 40       		.uleb128 0x40
 2894 0f9c 9C010000 		.4byte	.LASF167
 2895 0fa0 02       		.byte	0x2
 2896 0fa1 7C       		.byte	0x7c
 2897 0fa2 37000000 		.4byte	0x37
 2898 0fa6 00000000 		.4byte	.LFB267
 2899 0faa 0E000000 		.4byte	.LFE267-.LFB267
 2900 0fae 01       		.uleb128 0x1
 2901 0faf 9C       		.byte	0x9c
 2902 0fb0 C40F0000 		.4byte	0xfc4
 2903 0fb4 32       		.uleb128 0x32
 2904 0fb5 DA070000 		.4byte	.LASF152
 2905 0fb9 02       		.byte	0x2
 2906 0fba 7C       		.byte	0x7c
 2907 0fbb 480F0000 		.4byte	0xf48
 2908 0fbf 30030000 		.4byte	.LLST21
 2909 0fc3 00       		.byte	0
 2910 0fc4 40       		.uleb128 0x40
 2911 0fc5 2E040000 		.4byte	.LASF168
 2912 0fc9 02       		.byte	0x2
 2913 0fca 81       		.byte	0x81
 2914 0fcb 010A0000 		.4byte	0xa01
 2915 0fcf 00000000 		.4byte	.LFB268
 2916 0fd3 3E000000 		.4byte	.LFE268-.LFB268
 2917 0fd7 01       		.uleb128 0x1
 2918 0fd8 9C       		.byte	0x9c
 2919 0fd9 77100000 		.4byte	0x1077
 2920 0fdd 32       		.uleb128 0x32
ARM GAS  C:\Users\jo\AppData\Local\Temp\ccN0EpzZ.s 			page 53


 2921 0fde DA070000 		.4byte	.LASF152
 2922 0fe2 02       		.byte	0x2
 2923 0fe3 81       		.byte	0x81
 2924 0fe4 6B0A0000 		.4byte	0xa6b
 2925 0fe8 51030000 		.4byte	.LLST22
 2926 0fec 32       		.uleb128 0x32
 2927 0fed 90070000 		.4byte	.LASF153
 2928 0ff1 02       		.byte	0x2
 2929 0ff2 81       		.byte	0x81
 2930 0ff3 37000000 		.4byte	0x37
 2931 0ff7 88030000 		.4byte	.LLST23
 2932 0ffb 3A       		.uleb128 0x3a
 2933 0ffc 0A000000 		.4byte	.LBB26
 2934 1000 2A000000 		.4byte	.LBE26-.LBB26
 2935 1004 42       		.uleb128 0x42
 2936 1005 6500     		.ascii	"e\000"
 2937 1007 02       		.byte	0x2
 2938 1008 85       		.byte	0x85
 2939 1009 010A0000 		.4byte	0xa01
 2940 100d B4030000 		.4byte	.LLST24
 2941 1011 43       		.uleb128 0x43
 2942 1012 320A0000 		.4byte	0xa32
 2943 1016 0C000000 		.4byte	.LBB27
 2944 101a 18000000 		.4byte	.Ldebug_ranges0+0x18
 2945 101e 02       		.byte	0x2
 2946 101f 86       		.byte	0x86
 2947 1020 2B       		.uleb128 0x2b
 2948 1021 540A0000 		.4byte	0xa54
 2949 1025 C7030000 		.4byte	.LLST25
 2950 1029 2B       		.uleb128 0x2b
 2951 102a 3E0A0000 		.4byte	0xa3e
 2952 102e DB030000 		.4byte	.LLST26
 2953 1032 2B       		.uleb128 0x2b
 2954 1033 3E0A0000 		.4byte	0xa3e
 2955 1037 DB030000 		.4byte	.LLST26
 2956 103b 2B       		.uleb128 0x2b
 2957 103c 5F0A0000 		.4byte	0xa5f
 2958 1040 C7030000 		.4byte	.LLST25
 2959 1044 2B       		.uleb128 0x2b
 2960 1045 490A0000 		.4byte	0xa49
 2961 1049 EE030000 		.4byte	.LLST29
 2962 104d 2F       		.uleb128 0x2f
 2963 104e 2C000000 		.4byte	.LVL63
 2964 1052 FD110000 		.4byte	0x11fd
 2965 1056 30       		.uleb128 0x30
 2966 1057 01       		.uleb128 0x1
 2967 1058 53       		.byte	0x53
 2968 1059 05       		.uleb128 0x5
 2969 105a F3       		.byte	0xf3
 2970 105b 01       		.uleb128 0x1
 2971 105c 51       		.byte	0x51
 2972 105d 23       		.byte	0x23
 2973 105e 01       		.uleb128 0x1
 2974 105f 30       		.uleb128 0x30
 2975 1060 01       		.uleb128 0x1
 2976 1061 51       		.byte	0x51
 2977 1062 03       		.uleb128 0x3
ARM GAS  C:\Users\jo\AppData\Local\Temp\ccN0EpzZ.s 			page 54


 2978 1063 F3       		.byte	0xf3
 2979 1064 01       		.uleb128 0x1
 2980 1065 51       		.byte	0x51
 2981 1066 30       		.uleb128 0x30
 2982 1067 02       		.uleb128 0x2
 2983 1068 7D       		.byte	0x7d
 2984 1069 08       		.sleb128 8
 2985 106a 02       		.uleb128 0x2
 2986 106b 77       		.byte	0x77
 2987 106c 00       		.sleb128 0
 2988 106d 30       		.uleb128 0x30
 2989 106e 02       		.uleb128 0x2
 2990 106f 7D       		.byte	0x7d
 2991 1070 00       		.sleb128 0
 2992 1071 01       		.uleb128 0x1
 2993 1072 31       		.byte	0x31
 2994 1073 00       		.byte	0
 2995 1074 00       		.byte	0
 2996 1075 00       		.byte	0
 2997 1076 00       		.byte	0
 2998 1077 31       		.uleb128 0x31
 2999 1078 CC000000 		.4byte	.LASF169
 3000 107c 02       		.byte	0x2
 3001 107d 8D       		.byte	0x8d
 3002 107e 00000000 		.4byte	.LFB269
 3003 1082 70000000 		.4byte	.LFE269-.LFB269
 3004 1086 01       		.uleb128 0x1
 3005 1087 9C       		.byte	0x9c
 3006 1088 5A110000 		.4byte	0x115a
 3007 108c 32       		.uleb128 0x32
 3008 108d DA070000 		.4byte	.LASF152
 3009 1091 02       		.byte	0x2
 3010 1092 8D       		.byte	0x8d
 3011 1093 480F0000 		.4byte	0xf48
 3012 1097 0F040000 		.4byte	.LLST30
 3013 109b 42       		.uleb128 0x42
 3014 109c 6900     		.ascii	"i\000"
 3015 109e 02       		.byte	0x2
 3016 109f 8F       		.byte	0x8f
 3017 10a0 37000000 		.4byte	0x37
 3018 10a4 3B040000 		.4byte	.LLST31
 3019 10a8 44       		.uleb128 0x44
 3020 10a9 18000000 		.4byte	.LBB31
 3021 10ad 2A000000 		.4byte	.LBE31-.LBB31
 3022 10b1 2F110000 		.4byte	0x112f
 3023 10b5 42       		.uleb128 0x42
 3024 10b6 6500     		.ascii	"e\000"
 3025 10b8 02       		.byte	0x2
 3026 10b9 94       		.byte	0x94
 3027 10ba BD090000 		.4byte	0x9bd
 3028 10be 5A040000 		.4byte	.LLST32
 3029 10c2 45       		.uleb128 0x45
 3030 10c3 990A0000 		.4byte	0xa99
 3031 10c7 38000000 		.4byte	.LBB32
 3032 10cb 0A000000 		.4byte	.LBE32-.LBB32
 3033 10cf 02       		.byte	0x2
 3034 10d0 96       		.byte	0x96
ARM GAS  C:\Users\jo\AppData\Local\Temp\ccN0EpzZ.s 			page 55


 3035 10d1 F8100000 		.4byte	0x10f8
 3036 10d5 2B       		.uleb128 0x2b
 3037 10d6 A50A0000 		.4byte	0xaa5
 3038 10da 6F040000 		.4byte	.LLST33
 3039 10de 2F       		.uleb128 0x2f
 3040 10df 42000000 		.4byte	.LVL73
 3041 10e3 020B0000 		.4byte	0xb02
 3042 10e7 30       		.uleb128 0x30
 3043 10e8 01       		.uleb128 0x1
 3044 10e9 52       		.byte	0x52
 3045 10ea 02       		.uleb128 0x2
 3046 10eb 76       		.byte	0x76
 3047 10ec 00       		.sleb128 0
 3048 10ed 30       		.uleb128 0x30
 3049 10ee 01       		.uleb128 0x1
 3050 10ef 51       		.byte	0x51
 3051 10f0 05       		.uleb128 0x5
 3052 10f1 03       		.byte	0x3
 3053 10f2 AC000000 		.4byte	.LC8
 3054 10f6 00       		.byte	0
 3055 10f7 00       		.byte	0
 3056 10f8 33       		.uleb128 0x33
 3057 10f9 28000000 		.4byte	.LVL70
 3058 10fd 020B0000 		.4byte	0xb02
 3059 1101 15110000 		.4byte	0x1115
 3060 1105 30       		.uleb128 0x30
 3061 1106 01       		.uleb128 0x1
 3062 1107 52       		.byte	0x52
 3063 1108 02       		.uleb128 0x2
 3064 1109 74       		.byte	0x74
 3065 110a 00       		.sleb128 0
 3066 110b 30       		.uleb128 0x30
 3067 110c 01       		.uleb128 0x1
 3068 110d 51       		.byte	0x51
 3069 110e 05       		.uleb128 0x5
 3070 110f 03       		.byte	0x3
 3071 1110 78000000 		.4byte	.LC6
 3072 1114 00       		.byte	0
 3073 1115 2F       		.uleb128 0x2f
 3074 1116 38000000 		.4byte	.LVL72
 3075 111a 020B0000 		.4byte	0xb02
 3076 111e 30       		.uleb128 0x30
 3077 111f 01       		.uleb128 0x1
 3078 1120 52       		.byte	0x52
 3079 1121 02       		.uleb128 0x2
 3080 1122 76       		.byte	0x76
 3081 1123 00       		.sleb128 0
 3082 1124 30       		.uleb128 0x30
 3083 1125 01       		.uleb128 0x1
 3084 1126 51       		.byte	0x51
 3085 1127 05       		.uleb128 0x5
 3086 1128 03       		.byte	0x3
 3087 1129 98000000 		.4byte	.LC7
 3088 112d 00       		.byte	0
 3089 112e 00       		.byte	0
 3090 112f 33       		.uleb128 0x33
 3091 1130 0E000000 		.4byte	.LVL68
ARM GAS  C:\Users\jo\AppData\Local\Temp\ccN0EpzZ.s 			page 56


 3092 1134 020B0000 		.4byte	0xb02
 3093 1138 46110000 		.4byte	0x1146
 3094 113c 30       		.uleb128 0x30
 3095 113d 01       		.uleb128 0x1
 3096 113e 51       		.byte	0x51
 3097 113f 05       		.uleb128 0x5
 3098 1140 03       		.byte	0x3
 3099 1141 58000000 		.4byte	.LC4
 3100 1145 00       		.byte	0
 3101 1146 34       		.uleb128 0x34
 3102 1147 56000000 		.4byte	.LVL77
 3103 114b 020B0000 		.4byte	0xb02
 3104 114f 30       		.uleb128 0x30
 3105 1150 01       		.uleb128 0x1
 3106 1151 51       		.byte	0x51
 3107 1152 05       		.uleb128 0x5
 3108 1153 03       		.byte	0x3
 3109 1154 74000000 		.4byte	.LC5
 3110 1158 00       		.byte	0
 3111 1159 00       		.byte	0
 3112 115a 31       		.uleb128 0x31
 3113 115b F8050000 		.4byte	.LASF170
 3114 115f 02       		.byte	0x2
 3115 1160 9B       		.byte	0x9b
 3116 1161 00000000 		.4byte	.LFB270
 3117 1165 06000000 		.4byte	.LFE270-.LFB270
 3118 1169 01       		.uleb128 0x1
 3119 116a 9C       		.byte	0x9c
 3120 116b 88110000 		.4byte	0x1188
 3121 116f 32       		.uleb128 0x32
 3122 1170 DA070000 		.4byte	.LASF152
 3123 1174 02       		.byte	0x2
 3124 1175 9B       		.byte	0x9b
 3125 1176 700A0000 		.4byte	0xa70
 3126 117a 87040000 		.4byte	.LLST34
 3127 117e 46       		.uleb128 0x46
 3128 117f 06000000 		.4byte	.LVL80
 3129 1183 2C120000 		.4byte	0x122c
 3130 1187 00       		.byte	0
 3131 1188 47       		.uleb128 0x47
 3132 1189 EF000000 		.4byte	.LASF171
 3133 118d 16       		.byte	0x16
 3134 118e A706     		.2byte	0x6a7
 3135 1190 F0000000 		.4byte	0xf0
 3136 1194 48       		.uleb128 0x48
 3137 1195 636800   		.ascii	"ch\000"
 3138 1198 08       		.byte	0x8
 3139 1199 EB01     		.2byte	0x1eb
 3140 119b 4B040000 		.4byte	0x44b
 3141 119f 49       		.uleb128 0x49
 3142 11a0 1B070000 		.4byte	.LASF172
 3143 11a4 02       		.byte	0x2
 3144 11a5 0A       		.byte	0xa
 3145 11a6 92090000 		.4byte	0x992
 3146 11aa 4A       		.uleb128 0x4a
 3147 11ab 5F070000 		.4byte	.LASF173
 3148 11af 01       		.byte	0x1
ARM GAS  C:\Users\jo\AppData\Local\Temp\ccN0EpzZ.s 			page 57


 3149 11b0 28       		.byte	0x28
 3150 11b1 37000000 		.4byte	0x37
 3151 11b5 C9110000 		.4byte	0x11c9
 3152 11b9 10       		.uleb128 0x10
 3153 11ba FC0A0000 		.4byte	0xafc
 3154 11be 10       		.uleb128 0x10
 3155 11bf B2000000 		.4byte	0xb2
 3156 11c3 10       		.uleb128 0x10
 3157 11c4 9D090000 		.4byte	0x99d
 3158 11c8 00       		.byte	0
 3159 11c9 4A       		.uleb128 0x4a
 3160 11ca FE050000 		.4byte	.LASF174
 3161 11ce 12       		.byte	0x12
 3162 11cf 67       		.byte	0x67
 3163 11d0 A9000000 		.4byte	0xa9
 3164 11d4 E3110000 		.4byte	0x11e3
 3165 11d8 10       		.uleb128 0x10
 3166 11d9 38080000 		.4byte	0x838
 3167 11dd 10       		.uleb128 0x10
 3168 11de 25000000 		.4byte	0x25
 3169 11e2 00       		.byte	0
 3170 11e3 4A       		.uleb128 0x4a
 3171 11e4 4A070000 		.4byte	.LASF175
 3172 11e8 17       		.byte	0x17
 3173 11e9 52       		.byte	0x52
 3174 11ea A9000000 		.4byte	0xa9
 3175 11ee FD110000 		.4byte	0x11fd
 3176 11f2 10       		.uleb128 0x10
 3177 11f3 25000000 		.4byte	0x25
 3178 11f7 10       		.uleb128 0x10
 3179 11f8 25000000 		.4byte	0x25
 3180 11fc 00       		.byte	0
 3181 11fd 4B       		.uleb128 0x4b
 3182 11fe E4050000 		.4byte	.LASF177
 3183 1202 18       		.byte	0x18
 3184 1203 13       		.byte	0x13
 3185 1204 2C120000 		.4byte	0x122c
 3186 1208 10       		.uleb128 0x10
 3187 1209 A9000000 		.4byte	0xa9
 3188 120d 10       		.uleb128 0x10
 3189 120e 37000000 		.4byte	0x37
 3190 1212 10       		.uleb128 0x10
 3191 1213 BD000000 		.4byte	0xbd
 3192 1217 10       		.uleb128 0x10
 3193 1218 37000000 		.4byte	0x37
 3194 121c 10       		.uleb128 0x10
 3195 121d 37000000 		.4byte	0x37
 3196 1221 10       		.uleb128 0x10
 3197 1222 37000000 		.4byte	0x37
 3198 1226 10       		.uleb128 0x10
 3199 1227 25000000 		.4byte	0x25
 3200 122b 00       		.byte	0
 3201 122c 4C       		.uleb128 0x4c
 3202 122d E3060000 		.4byte	.LASF183
 3203 1231 17       		.byte	0x17
 3204 1232 55       		.byte	0x55
 3205 1233 10       		.uleb128 0x10
ARM GAS  C:\Users\jo\AppData\Local\Temp\ccN0EpzZ.s 			page 58


 3206 1234 A9000000 		.4byte	0xa9
 3207 1238 00       		.byte	0
 3208 1239 00       		.byte	0
 3209              		.section	.debug_abbrev,"",%progbits
 3210              	.Ldebug_abbrev0:
 3211 0000 01       		.uleb128 0x1
 3212 0001 11       		.uleb128 0x11
 3213 0002 01       		.byte	0x1
 3214 0003 25       		.uleb128 0x25
 3215 0004 0E       		.uleb128 0xe
 3216 0005 13       		.uleb128 0x13
 3217 0006 0B       		.uleb128 0xb
 3218 0007 03       		.uleb128 0x3
 3219 0008 0E       		.uleb128 0xe
 3220 0009 1B       		.uleb128 0x1b
 3221 000a 0E       		.uleb128 0xe
 3222 000b 55       		.uleb128 0x55
 3223 000c 17       		.uleb128 0x17
 3224 000d 11       		.uleb128 0x11
 3225 000e 01       		.uleb128 0x1
 3226 000f 10       		.uleb128 0x10
 3227 0010 17       		.uleb128 0x17
 3228 0011 00       		.byte	0
 3229 0012 00       		.byte	0
 3230 0013 02       		.uleb128 0x2
 3231 0014 16       		.uleb128 0x16
 3232 0015 00       		.byte	0
 3233 0016 03       		.uleb128 0x3
 3234 0017 0E       		.uleb128 0xe
 3235 0018 3A       		.uleb128 0x3a
 3236 0019 0B       		.uleb128 0xb
 3237 001a 3B       		.uleb128 0x3b
 3238 001b 0B       		.uleb128 0xb
 3239 001c 49       		.uleb128 0x49
 3240 001d 13       		.uleb128 0x13
 3241 001e 00       		.byte	0
 3242 001f 00       		.byte	0
 3243 0020 03       		.uleb128 0x3
 3244 0021 24       		.uleb128 0x24
 3245 0022 00       		.byte	0
 3246 0023 0B       		.uleb128 0xb
 3247 0024 0B       		.uleb128 0xb
 3248 0025 3E       		.uleb128 0x3e
 3249 0026 0B       		.uleb128 0xb
 3250 0027 03       		.uleb128 0x3
 3251 0028 0E       		.uleb128 0xe
 3252 0029 00       		.byte	0
 3253 002a 00       		.byte	0
 3254 002b 04       		.uleb128 0x4
 3255 002c 24       		.uleb128 0x24
 3256 002d 00       		.byte	0
 3257 002e 0B       		.uleb128 0xb
 3258 002f 0B       		.uleb128 0xb
 3259 0030 3E       		.uleb128 0x3e
 3260 0031 0B       		.uleb128 0xb
 3261 0032 03       		.uleb128 0x3
 3262 0033 08       		.uleb128 0x8
ARM GAS  C:\Users\jo\AppData\Local\Temp\ccN0EpzZ.s 			page 59


 3263 0034 00       		.byte	0
 3264 0035 00       		.byte	0
 3265 0036 05       		.uleb128 0x5
 3266 0037 0F       		.uleb128 0xf
 3267 0038 00       		.byte	0
 3268 0039 0B       		.uleb128 0xb
 3269 003a 0B       		.uleb128 0xb
 3270 003b 00       		.byte	0
 3271 003c 00       		.byte	0
 3272 003d 06       		.uleb128 0x6
 3273 003e 0F       		.uleb128 0xf
 3274 003f 00       		.byte	0
 3275 0040 0B       		.uleb128 0xb
 3276 0041 0B       		.uleb128 0xb
 3277 0042 49       		.uleb128 0x49
 3278 0043 13       		.uleb128 0x13
 3279 0044 00       		.byte	0
 3280 0045 00       		.byte	0
 3281 0046 07       		.uleb128 0x7
 3282 0047 26       		.uleb128 0x26
 3283 0048 00       		.byte	0
 3284 0049 49       		.uleb128 0x49
 3285 004a 13       		.uleb128 0x13
 3286 004b 00       		.byte	0
 3287 004c 00       		.byte	0
 3288 004d 08       		.uleb128 0x8
 3289 004e 26       		.uleb128 0x26
 3290 004f 00       		.byte	0
 3291 0050 00       		.byte	0
 3292 0051 00       		.byte	0
 3293 0052 09       		.uleb128 0x9
 3294 0053 35       		.uleb128 0x35
 3295 0054 00       		.byte	0
 3296 0055 49       		.uleb128 0x49
 3297 0056 13       		.uleb128 0x13
 3298 0057 00       		.byte	0
 3299 0058 00       		.byte	0
 3300 0059 0A       		.uleb128 0xa
 3301 005a 13       		.uleb128 0x13
 3302 005b 01       		.byte	0x1
 3303 005c 03       		.uleb128 0x3
 3304 005d 0E       		.uleb128 0xe
 3305 005e 0B       		.uleb128 0xb
 3306 005f 0B       		.uleb128 0xb
 3307 0060 3A       		.uleb128 0x3a
 3308 0061 0B       		.uleb128 0xb
 3309 0062 3B       		.uleb128 0x3b
 3310 0063 0B       		.uleb128 0xb
 3311 0064 01       		.uleb128 0x1
 3312 0065 13       		.uleb128 0x13
 3313 0066 00       		.byte	0
 3314 0067 00       		.byte	0
 3315 0068 0B       		.uleb128 0xb
 3316 0069 0D       		.uleb128 0xd
 3317 006a 00       		.byte	0
 3318 006b 03       		.uleb128 0x3
 3319 006c 0E       		.uleb128 0xe
ARM GAS  C:\Users\jo\AppData\Local\Temp\ccN0EpzZ.s 			page 60


 3320 006d 3A       		.uleb128 0x3a
 3321 006e 0B       		.uleb128 0xb
 3322 006f 3B       		.uleb128 0x3b
 3323 0070 0B       		.uleb128 0xb
 3324 0071 49       		.uleb128 0x49
 3325 0072 13       		.uleb128 0x13
 3326 0073 38       		.uleb128 0x38
 3327 0074 0B       		.uleb128 0xb
 3328 0075 00       		.byte	0
 3329 0076 00       		.byte	0
 3330 0077 0C       		.uleb128 0xc
 3331 0078 0D       		.uleb128 0xd
 3332 0079 00       		.byte	0
 3333 007a 03       		.uleb128 0x3
 3334 007b 08       		.uleb128 0x8
 3335 007c 3A       		.uleb128 0x3a
 3336 007d 0B       		.uleb128 0xb
 3337 007e 3B       		.uleb128 0x3b
 3338 007f 05       		.uleb128 0x5
 3339 0080 49       		.uleb128 0x49
 3340 0081 13       		.uleb128 0x13
 3341 0082 38       		.uleb128 0x38
 3342 0083 0B       		.uleb128 0xb
 3343 0084 00       		.byte	0
 3344 0085 00       		.byte	0
 3345 0086 0D       		.uleb128 0xd
 3346 0087 0D       		.uleb128 0xd
 3347 0088 00       		.byte	0
 3348 0089 03       		.uleb128 0x3
 3349 008a 0E       		.uleb128 0xe
 3350 008b 3A       		.uleb128 0x3a
 3351 008c 0B       		.uleb128 0xb
 3352 008d 3B       		.uleb128 0x3b
 3353 008e 05       		.uleb128 0x5
 3354 008f 49       		.uleb128 0x49
 3355 0090 13       		.uleb128 0x13
 3356 0091 38       		.uleb128 0x38
 3357 0092 0B       		.uleb128 0xb
 3358 0093 00       		.byte	0
 3359 0094 00       		.byte	0
 3360 0095 0E       		.uleb128 0xe
 3361 0096 13       		.uleb128 0x13
 3362 0097 01       		.byte	0x1
 3363 0098 03       		.uleb128 0x3
 3364 0099 0E       		.uleb128 0xe
 3365 009a 0B       		.uleb128 0xb
 3366 009b 0B       		.uleb128 0xb
 3367 009c 3A       		.uleb128 0x3a
 3368 009d 0B       		.uleb128 0xb
 3369 009e 3B       		.uleb128 0x3b
 3370 009f 05       		.uleb128 0x5
 3371 00a0 01       		.uleb128 0x1
 3372 00a1 13       		.uleb128 0x13
 3373 00a2 00       		.byte	0
 3374 00a3 00       		.byte	0
 3375 00a4 0F       		.uleb128 0xf
 3376 00a5 15       		.uleb128 0x15
ARM GAS  C:\Users\jo\AppData\Local\Temp\ccN0EpzZ.s 			page 61


 3377 00a6 01       		.byte	0x1
 3378 00a7 27       		.uleb128 0x27
 3379 00a8 19       		.uleb128 0x19
 3380 00a9 01       		.uleb128 0x1
 3381 00aa 13       		.uleb128 0x13
 3382 00ab 00       		.byte	0
 3383 00ac 00       		.byte	0
 3384 00ad 10       		.uleb128 0x10
 3385 00ae 05       		.uleb128 0x5
 3386 00af 00       		.byte	0
 3387 00b0 49       		.uleb128 0x49
 3388 00b1 13       		.uleb128 0x13
 3389 00b2 00       		.byte	0
 3390 00b3 00       		.byte	0
 3391 00b4 11       		.uleb128 0x11
 3392 00b5 13       		.uleb128 0x13
 3393 00b6 01       		.byte	0x1
 3394 00b7 03       		.uleb128 0x3
 3395 00b8 0E       		.uleb128 0xe
 3396 00b9 0B       		.uleb128 0xb
 3397 00ba 05       		.uleb128 0x5
 3398 00bb 3A       		.uleb128 0x3a
 3399 00bc 0B       		.uleb128 0xb
 3400 00bd 3B       		.uleb128 0x3b
 3401 00be 05       		.uleb128 0x5
 3402 00bf 01       		.uleb128 0x1
 3403 00c0 13       		.uleb128 0x13
 3404 00c1 00       		.byte	0
 3405 00c2 00       		.byte	0
 3406 00c3 12       		.uleb128 0x12
 3407 00c4 0D       		.uleb128 0xd
 3408 00c5 00       		.byte	0
 3409 00c6 03       		.uleb128 0x3
 3410 00c7 0E       		.uleb128 0xe
 3411 00c8 3A       		.uleb128 0x3a
 3412 00c9 0B       		.uleb128 0xb
 3413 00ca 3B       		.uleb128 0x3b
 3414 00cb 05       		.uleb128 0x5
 3415 00cc 49       		.uleb128 0x49
 3416 00cd 13       		.uleb128 0x13
 3417 00ce 38       		.uleb128 0x38
 3418 00cf 05       		.uleb128 0x5
 3419 00d0 00       		.byte	0
 3420 00d1 00       		.byte	0
 3421 00d2 13       		.uleb128 0x13
 3422 00d3 0D       		.uleb128 0xd
 3423 00d4 00       		.byte	0
 3424 00d5 03       		.uleb128 0x3
 3425 00d6 08       		.uleb128 0x8
 3426 00d7 3A       		.uleb128 0x3a
 3427 00d8 0B       		.uleb128 0xb
 3428 00d9 3B       		.uleb128 0x3b
 3429 00da 05       		.uleb128 0x5
 3430 00db 49       		.uleb128 0x49
 3431 00dc 13       		.uleb128 0x13
 3432 00dd 38       		.uleb128 0x38
 3433 00de 05       		.uleb128 0x5
ARM GAS  C:\Users\jo\AppData\Local\Temp\ccN0EpzZ.s 			page 62


 3434 00df 00       		.byte	0
 3435 00e0 00       		.byte	0
 3436 00e1 14       		.uleb128 0x14
 3437 00e2 0D       		.uleb128 0xd
 3438 00e3 00       		.byte	0
 3439 00e4 03       		.uleb128 0x3
 3440 00e5 08       		.uleb128 0x8
 3441 00e6 3A       		.uleb128 0x3a
 3442 00e7 0B       		.uleb128 0xb
 3443 00e8 3B       		.uleb128 0x3b
 3444 00e9 0B       		.uleb128 0xb
 3445 00ea 49       		.uleb128 0x49
 3446 00eb 13       		.uleb128 0x13
 3447 00ec 38       		.uleb128 0x38
 3448 00ed 0B       		.uleb128 0xb
 3449 00ee 00       		.byte	0
 3450 00ef 00       		.byte	0
 3451 00f0 15       		.uleb128 0x15
 3452 00f1 0D       		.uleb128 0xd
 3453 00f2 00       		.byte	0
 3454 00f3 03       		.uleb128 0x3
 3455 00f4 0E       		.uleb128 0xe
 3456 00f5 49       		.uleb128 0x49
 3457 00f6 13       		.uleb128 0x13
 3458 00f7 38       		.uleb128 0x38
 3459 00f8 0B       		.uleb128 0xb
 3460 00f9 34       		.uleb128 0x34
 3461 00fa 19       		.uleb128 0x19
 3462 00fb 00       		.byte	0
 3463 00fc 00       		.byte	0
 3464 00fd 16       		.uleb128 0x16
 3465 00fe 13       		.uleb128 0x13
 3466 00ff 01       		.byte	0x1
 3467 0100 0B       		.uleb128 0xb
 3468 0101 0B       		.uleb128 0xb
 3469 0102 3A       		.uleb128 0x3a
 3470 0103 0B       		.uleb128 0xb
 3471 0104 3B       		.uleb128 0x3b
 3472 0105 0B       		.uleb128 0xb
 3473 0106 01       		.uleb128 0x1
 3474 0107 13       		.uleb128 0x13
 3475 0108 00       		.byte	0
 3476 0109 00       		.byte	0
 3477 010a 17       		.uleb128 0x17
 3478 010b 13       		.uleb128 0x13
 3479 010c 01       		.byte	0x1
 3480 010d 0B       		.uleb128 0xb
 3481 010e 05       		.uleb128 0x5
 3482 010f 3A       		.uleb128 0x3a
 3483 0110 0B       		.uleb128 0xb
 3484 0111 3B       		.uleb128 0x3b
 3485 0112 0B       		.uleb128 0xb
 3486 0113 01       		.uleb128 0x1
 3487 0114 13       		.uleb128 0x13
 3488 0115 00       		.byte	0
 3489 0116 00       		.byte	0
 3490 0117 18       		.uleb128 0x18
ARM GAS  C:\Users\jo\AppData\Local\Temp\ccN0EpzZ.s 			page 63


 3491 0118 01       		.uleb128 0x1
 3492 0119 01       		.byte	0x1
 3493 011a 49       		.uleb128 0x49
 3494 011b 13       		.uleb128 0x13
 3495 011c 01       		.uleb128 0x1
 3496 011d 13       		.uleb128 0x13
 3497 011e 00       		.byte	0
 3498 011f 00       		.byte	0
 3499 0120 19       		.uleb128 0x19
 3500 0121 21       		.uleb128 0x21
 3501 0122 00       		.byte	0
 3502 0123 49       		.uleb128 0x49
 3503 0124 13       		.uleb128 0x13
 3504 0125 2F       		.uleb128 0x2f
 3505 0126 0B       		.uleb128 0xb
 3506 0127 00       		.byte	0
 3507 0128 00       		.byte	0
 3508 0129 1A       		.uleb128 0x1a
 3509 012a 17       		.uleb128 0x17
 3510 012b 01       		.byte	0x1
 3511 012c 0B       		.uleb128 0xb
 3512 012d 0B       		.uleb128 0xb
 3513 012e 3A       		.uleb128 0x3a
 3514 012f 0B       		.uleb128 0xb
 3515 0130 3B       		.uleb128 0x3b
 3516 0131 0B       		.uleb128 0xb
 3517 0132 01       		.uleb128 0x1
 3518 0133 13       		.uleb128 0x13
 3519 0134 00       		.byte	0
 3520 0135 00       		.byte	0
 3521 0136 1B       		.uleb128 0x1b
 3522 0137 0D       		.uleb128 0xd
 3523 0138 00       		.byte	0
 3524 0139 03       		.uleb128 0x3
 3525 013a 0E       		.uleb128 0xe
 3526 013b 3A       		.uleb128 0x3a
 3527 013c 0B       		.uleb128 0xb
 3528 013d 3B       		.uleb128 0x3b
 3529 013e 0B       		.uleb128 0xb
 3530 013f 49       		.uleb128 0x49
 3531 0140 13       		.uleb128 0x13
 3532 0141 00       		.byte	0
 3533 0142 00       		.byte	0
 3534 0143 1C       		.uleb128 0x1c
 3535 0144 0D       		.uleb128 0xd
 3536 0145 00       		.byte	0
 3537 0146 03       		.uleb128 0x3
 3538 0147 0E       		.uleb128 0xe
 3539 0148 3A       		.uleb128 0x3a
 3540 0149 0B       		.uleb128 0xb
 3541 014a 3B       		.uleb128 0x3b
 3542 014b 05       		.uleb128 0x5
 3543 014c 49       		.uleb128 0x49
 3544 014d 13       		.uleb128 0x13
 3545 014e 00       		.byte	0
 3546 014f 00       		.byte	0
 3547 0150 1D       		.uleb128 0x1d
ARM GAS  C:\Users\jo\AppData\Local\Temp\ccN0EpzZ.s 			page 64


 3548 0151 15       		.uleb128 0x15
 3549 0152 01       		.byte	0x1
 3550 0153 27       		.uleb128 0x27
 3551 0154 19       		.uleb128 0x19
 3552 0155 49       		.uleb128 0x49
 3553 0156 13       		.uleb128 0x13
 3554 0157 01       		.uleb128 0x1
 3555 0158 13       		.uleb128 0x13
 3556 0159 00       		.byte	0
 3557 015a 00       		.byte	0
 3558 015b 1E       		.uleb128 0x1e
 3559 015c 17       		.uleb128 0x17
 3560 015d 01       		.byte	0x1
 3561 015e 03       		.uleb128 0x3
 3562 015f 0E       		.uleb128 0xe
 3563 0160 0B       		.uleb128 0xb
 3564 0161 0B       		.uleb128 0xb
 3565 0162 3A       		.uleb128 0x3a
 3566 0163 0B       		.uleb128 0xb
 3567 0164 3B       		.uleb128 0x3b
 3568 0165 0B       		.uleb128 0xb
 3569 0166 01       		.uleb128 0x1
 3570 0167 13       		.uleb128 0x13
 3571 0168 00       		.byte	0
 3572 0169 00       		.byte	0
 3573 016a 1F       		.uleb128 0x1f
 3574 016b 0D       		.uleb128 0xd
 3575 016c 00       		.byte	0
 3576 016d 03       		.uleb128 0x3
 3577 016e 08       		.uleb128 0x8
 3578 016f 3A       		.uleb128 0x3a
 3579 0170 0B       		.uleb128 0xb
 3580 0171 3B       		.uleb128 0x3b
 3581 0172 0B       		.uleb128 0xb
 3582 0173 49       		.uleb128 0x49
 3583 0174 13       		.uleb128 0x13
 3584 0175 00       		.byte	0
 3585 0176 00       		.byte	0
 3586 0177 20       		.uleb128 0x20
 3587 0178 04       		.uleb128 0x4
 3588 0179 01       		.byte	0x1
 3589 017a 0B       		.uleb128 0xb
 3590 017b 0B       		.uleb128 0xb
 3591 017c 3A       		.uleb128 0x3a
 3592 017d 0B       		.uleb128 0xb
 3593 017e 3B       		.uleb128 0x3b
 3594 017f 0B       		.uleb128 0xb
 3595 0180 01       		.uleb128 0x1
 3596 0181 13       		.uleb128 0x13
 3597 0182 00       		.byte	0
 3598 0183 00       		.byte	0
 3599 0184 21       		.uleb128 0x21
 3600 0185 28       		.uleb128 0x28
 3601 0186 00       		.byte	0
 3602 0187 03       		.uleb128 0x3
 3603 0188 0E       		.uleb128 0xe
 3604 0189 1C       		.uleb128 0x1c
ARM GAS  C:\Users\jo\AppData\Local\Temp\ccN0EpzZ.s 			page 65


 3605 018a 0D       		.uleb128 0xd
 3606 018b 00       		.byte	0
 3607 018c 00       		.byte	0
 3608 018d 22       		.uleb128 0x22
 3609 018e 2E       		.uleb128 0x2e
 3610 018f 01       		.byte	0x1
 3611 0190 03       		.uleb128 0x3
 3612 0191 0E       		.uleb128 0xe
 3613 0192 3A       		.uleb128 0x3a
 3614 0193 0B       		.uleb128 0xb
 3615 0194 3B       		.uleb128 0x3b
 3616 0195 0B       		.uleb128 0xb
 3617 0196 27       		.uleb128 0x27
 3618 0197 19       		.uleb128 0x19
 3619 0198 20       		.uleb128 0x20
 3620 0199 0B       		.uleb128 0xb
 3621 019a 01       		.uleb128 0x1
 3622 019b 13       		.uleb128 0x13
 3623 019c 00       		.byte	0
 3624 019d 00       		.byte	0
 3625 019e 23       		.uleb128 0x23
 3626 019f 05       		.uleb128 0x5
 3627 01a0 00       		.byte	0
 3628 01a1 03       		.uleb128 0x3
 3629 01a2 0E       		.uleb128 0xe
 3630 01a3 3A       		.uleb128 0x3a
 3631 01a4 0B       		.uleb128 0xb
 3632 01a5 3B       		.uleb128 0x3b
 3633 01a6 0B       		.uleb128 0xb
 3634 01a7 49       		.uleb128 0x49
 3635 01a8 13       		.uleb128 0x13
 3636 01a9 00       		.byte	0
 3637 01aa 00       		.byte	0
 3638 01ab 24       		.uleb128 0x24
 3639 01ac 05       		.uleb128 0x5
 3640 01ad 00       		.byte	0
 3641 01ae 03       		.uleb128 0x3
 3642 01af 08       		.uleb128 0x8
 3643 01b0 3A       		.uleb128 0x3a
 3644 01b1 0B       		.uleb128 0xb
 3645 01b2 3B       		.uleb128 0x3b
 3646 01b3 0B       		.uleb128 0xb
 3647 01b4 49       		.uleb128 0x49
 3648 01b5 13       		.uleb128 0x13
 3649 01b6 00       		.byte	0
 3650 01b7 00       		.byte	0
 3651 01b8 25       		.uleb128 0x25
 3652 01b9 2E       		.uleb128 0x2e
 3653 01ba 01       		.byte	0x1
 3654 01bb 3F       		.uleb128 0x3f
 3655 01bc 19       		.uleb128 0x19
 3656 01bd 03       		.uleb128 0x3
 3657 01be 0E       		.uleb128 0xe
 3658 01bf 3A       		.uleb128 0x3a
 3659 01c0 0B       		.uleb128 0xb
 3660 01c1 3B       		.uleb128 0x3b
 3661 01c2 0B       		.uleb128 0xb
ARM GAS  C:\Users\jo\AppData\Local\Temp\ccN0EpzZ.s 			page 66


 3662 01c3 27       		.uleb128 0x27
 3663 01c4 19       		.uleb128 0x19
 3664 01c5 20       		.uleb128 0x20
 3665 01c6 0B       		.uleb128 0xb
 3666 01c7 01       		.uleb128 0x1
 3667 01c8 13       		.uleb128 0x13
 3668 01c9 00       		.byte	0
 3669 01ca 00       		.byte	0
 3670 01cb 26       		.uleb128 0x26
 3671 01cc 2E       		.uleb128 0x2e
 3672 01cd 01       		.byte	0x1
 3673 01ce 03       		.uleb128 0x3
 3674 01cf 0E       		.uleb128 0xe
 3675 01d0 3A       		.uleb128 0x3a
 3676 01d1 0B       		.uleb128 0xb
 3677 01d2 3B       		.uleb128 0x3b
 3678 01d3 0B       		.uleb128 0xb
 3679 01d4 27       		.uleb128 0x27
 3680 01d5 19       		.uleb128 0x19
 3681 01d6 49       		.uleb128 0x49
 3682 01d7 13       		.uleb128 0x13
 3683 01d8 20       		.uleb128 0x20
 3684 01d9 0B       		.uleb128 0xb
 3685 01da 01       		.uleb128 0x1
 3686 01db 13       		.uleb128 0x13
 3687 01dc 00       		.byte	0
 3688 01dd 00       		.byte	0
 3689 01de 27       		.uleb128 0x27
 3690 01df 18       		.uleb128 0x18
 3691 01e0 00       		.byte	0
 3692 01e1 00       		.byte	0
 3693 01e2 00       		.byte	0
 3694 01e3 28       		.uleb128 0x28
 3695 01e4 34       		.uleb128 0x34
 3696 01e5 00       		.byte	0
 3697 01e6 03       		.uleb128 0x3
 3698 01e7 08       		.uleb128 0x8
 3699 01e8 3A       		.uleb128 0x3a
 3700 01e9 0B       		.uleb128 0xb
 3701 01ea 3B       		.uleb128 0x3b
 3702 01eb 0B       		.uleb128 0xb
 3703 01ec 49       		.uleb128 0x49
 3704 01ed 13       		.uleb128 0x13
 3705 01ee 00       		.byte	0
 3706 01ef 00       		.byte	0
 3707 01f0 29       		.uleb128 0x29
 3708 01f1 34       		.uleb128 0x34
 3709 01f2 00       		.byte	0
 3710 01f3 03       		.uleb128 0x3
 3711 01f4 0E       		.uleb128 0xe
 3712 01f5 3A       		.uleb128 0x3a
 3713 01f6 0B       		.uleb128 0xb
 3714 01f7 3B       		.uleb128 0x3b
 3715 01f8 0B       		.uleb128 0xb
 3716 01f9 49       		.uleb128 0x49
 3717 01fa 13       		.uleb128 0x13
 3718 01fb 00       		.byte	0
ARM GAS  C:\Users\jo\AppData\Local\Temp\ccN0EpzZ.s 			page 67


 3719 01fc 00       		.byte	0
 3720 01fd 2A       		.uleb128 0x2a
 3721 01fe 2E       		.uleb128 0x2e
 3722 01ff 01       		.byte	0x1
 3723 0200 31       		.uleb128 0x31
 3724 0201 13       		.uleb128 0x13
 3725 0202 11       		.uleb128 0x11
 3726 0203 01       		.uleb128 0x1
 3727 0204 12       		.uleb128 0x12
 3728 0205 06       		.uleb128 0x6
 3729 0206 40       		.uleb128 0x40
 3730 0207 18       		.uleb128 0x18
 3731 0208 9742     		.uleb128 0x2117
 3732 020a 19       		.uleb128 0x19
 3733 020b 01       		.uleb128 0x1
 3734 020c 13       		.uleb128 0x13
 3735 020d 00       		.byte	0
 3736 020e 00       		.byte	0
 3737 020f 2B       		.uleb128 0x2b
 3738 0210 05       		.uleb128 0x5
 3739 0211 00       		.byte	0
 3740 0212 31       		.uleb128 0x31
 3741 0213 13       		.uleb128 0x13
 3742 0214 02       		.uleb128 0x2
 3743 0215 17       		.uleb128 0x17
 3744 0216 00       		.byte	0
 3745 0217 00       		.byte	0
 3746 0218 2C       		.uleb128 0x2c
 3747 0219 05       		.uleb128 0x5
 3748 021a 00       		.byte	0
 3749 021b 31       		.uleb128 0x31
 3750 021c 13       		.uleb128 0x13
 3751 021d 02       		.uleb128 0x2
 3752 021e 18       		.uleb128 0x18
 3753 021f 00       		.byte	0
 3754 0220 00       		.byte	0
 3755 0221 2D       		.uleb128 0x2d
 3756 0222 34       		.uleb128 0x34
 3757 0223 00       		.byte	0
 3758 0224 31       		.uleb128 0x31
 3759 0225 13       		.uleb128 0x13
 3760 0226 02       		.uleb128 0x2
 3761 0227 18       		.uleb128 0x18
 3762 0228 00       		.byte	0
 3763 0229 00       		.byte	0
 3764 022a 2E       		.uleb128 0x2e
 3765 022b 05       		.uleb128 0x5
 3766 022c 00       		.byte	0
 3767 022d 31       		.uleb128 0x31
 3768 022e 13       		.uleb128 0x13
 3769 022f 00       		.byte	0
 3770 0230 00       		.byte	0
 3771 0231 2F       		.uleb128 0x2f
 3772 0232 898201   		.uleb128 0x4109
 3773 0235 01       		.byte	0x1
 3774 0236 11       		.uleb128 0x11
 3775 0237 01       		.uleb128 0x1
ARM GAS  C:\Users\jo\AppData\Local\Temp\ccN0EpzZ.s 			page 68


 3776 0238 31       		.uleb128 0x31
 3777 0239 13       		.uleb128 0x13
 3778 023a 00       		.byte	0
 3779 023b 00       		.byte	0
 3780 023c 30       		.uleb128 0x30
 3781 023d 8A8201   		.uleb128 0x410a
 3782 0240 00       		.byte	0
 3783 0241 02       		.uleb128 0x2
 3784 0242 18       		.uleb128 0x18
 3785 0243 9142     		.uleb128 0x2111
 3786 0245 18       		.uleb128 0x18
 3787 0246 00       		.byte	0
 3788 0247 00       		.byte	0
 3789 0248 31       		.uleb128 0x31
 3790 0249 2E       		.uleb128 0x2e
 3791 024a 01       		.byte	0x1
 3792 024b 3F       		.uleb128 0x3f
 3793 024c 19       		.uleb128 0x19
 3794 024d 03       		.uleb128 0x3
 3795 024e 0E       		.uleb128 0xe
 3796 024f 3A       		.uleb128 0x3a
 3797 0250 0B       		.uleb128 0xb
 3798 0251 3B       		.uleb128 0x3b
 3799 0252 0B       		.uleb128 0xb
 3800 0253 27       		.uleb128 0x27
 3801 0254 19       		.uleb128 0x19
 3802 0255 11       		.uleb128 0x11
 3803 0256 01       		.uleb128 0x1
 3804 0257 12       		.uleb128 0x12
 3805 0258 06       		.uleb128 0x6
 3806 0259 40       		.uleb128 0x40
 3807 025a 18       		.uleb128 0x18
 3808 025b 9742     		.uleb128 0x2117
 3809 025d 19       		.uleb128 0x19
 3810 025e 01       		.uleb128 0x1
 3811 025f 13       		.uleb128 0x13
 3812 0260 00       		.byte	0
 3813 0261 00       		.byte	0
 3814 0262 32       		.uleb128 0x32
 3815 0263 05       		.uleb128 0x5
 3816 0264 00       		.byte	0
 3817 0265 03       		.uleb128 0x3
 3818 0266 0E       		.uleb128 0xe
 3819 0267 3A       		.uleb128 0x3a
 3820 0268 0B       		.uleb128 0xb
 3821 0269 3B       		.uleb128 0x3b
 3822 026a 0B       		.uleb128 0xb
 3823 026b 49       		.uleb128 0x49
 3824 026c 13       		.uleb128 0x13
 3825 026d 02       		.uleb128 0x2
 3826 026e 17       		.uleb128 0x17
 3827 026f 00       		.byte	0
 3828 0270 00       		.byte	0
 3829 0271 33       		.uleb128 0x33
 3830 0272 898201   		.uleb128 0x4109
 3831 0275 01       		.byte	0x1
 3832 0276 11       		.uleb128 0x11
ARM GAS  C:\Users\jo\AppData\Local\Temp\ccN0EpzZ.s 			page 69


 3833 0277 01       		.uleb128 0x1
 3834 0278 31       		.uleb128 0x31
 3835 0279 13       		.uleb128 0x13
 3836 027a 01       		.uleb128 0x1
 3837 027b 13       		.uleb128 0x13
 3838 027c 00       		.byte	0
 3839 027d 00       		.byte	0
 3840 027e 34       		.uleb128 0x34
 3841 027f 898201   		.uleb128 0x4109
 3842 0282 01       		.byte	0x1
 3843 0283 11       		.uleb128 0x11
 3844 0284 01       		.uleb128 0x1
 3845 0285 9542     		.uleb128 0x2115
 3846 0287 19       		.uleb128 0x19
 3847 0288 31       		.uleb128 0x31
 3848 0289 13       		.uleb128 0x13
 3849 028a 00       		.byte	0
 3850 028b 00       		.byte	0
 3851 028c 35       		.uleb128 0x35
 3852 028d 1D       		.uleb128 0x1d
 3853 028e 01       		.byte	0x1
 3854 028f 31       		.uleb128 0x31
 3855 0290 13       		.uleb128 0x13
 3856 0291 11       		.uleb128 0x11
 3857 0292 01       		.uleb128 0x1
 3858 0293 12       		.uleb128 0x12
 3859 0294 06       		.uleb128 0x6
 3860 0295 58       		.uleb128 0x58
 3861 0296 0B       		.uleb128 0xb
 3862 0297 59       		.uleb128 0x59
 3863 0298 0B       		.uleb128 0xb
 3864 0299 00       		.byte	0
 3865 029a 00       		.byte	0
 3866 029b 36       		.uleb128 0x36
 3867 029c 05       		.uleb128 0x5
 3868 029d 00       		.byte	0
 3869 029e 31       		.uleb128 0x31
 3870 029f 13       		.uleb128 0x13
 3871 02a0 1C       		.uleb128 0x1c
 3872 02a1 0B       		.uleb128 0xb
 3873 02a2 00       		.byte	0
 3874 02a3 00       		.byte	0
 3875 02a4 37       		.uleb128 0x37
 3876 02a5 05       		.uleb128 0x5
 3877 02a6 00       		.byte	0
 3878 02a7 03       		.uleb128 0x3
 3879 02a8 0E       		.uleb128 0xe
 3880 02a9 3A       		.uleb128 0x3a
 3881 02aa 0B       		.uleb128 0xb
 3882 02ab 3B       		.uleb128 0x3b
 3883 02ac 0B       		.uleb128 0xb
 3884 02ad 49       		.uleb128 0x49
 3885 02ae 13       		.uleb128 0x13
 3886 02af 02       		.uleb128 0x2
 3887 02b0 18       		.uleb128 0x18
 3888 02b1 00       		.byte	0
 3889 02b2 00       		.byte	0
ARM GAS  C:\Users\jo\AppData\Local\Temp\ccN0EpzZ.s 			page 70


 3890 02b3 38       		.uleb128 0x38
 3891 02b4 2E       		.uleb128 0x2e
 3892 02b5 01       		.byte	0x1
 3893 02b6 3F       		.uleb128 0x3f
 3894 02b7 19       		.uleb128 0x19
 3895 02b8 03       		.uleb128 0x3
 3896 02b9 08       		.uleb128 0x8
 3897 02ba 3A       		.uleb128 0x3a
 3898 02bb 0B       		.uleb128 0xb
 3899 02bc 3B       		.uleb128 0x3b
 3900 02bd 0B       		.uleb128 0xb
 3901 02be 27       		.uleb128 0x27
 3902 02bf 19       		.uleb128 0x19
 3903 02c0 49       		.uleb128 0x49
 3904 02c1 13       		.uleb128 0x13
 3905 02c2 11       		.uleb128 0x11
 3906 02c3 01       		.uleb128 0x1
 3907 02c4 12       		.uleb128 0x12
 3908 02c5 06       		.uleb128 0x6
 3909 02c6 40       		.uleb128 0x40
 3910 02c7 18       		.uleb128 0x18
 3911 02c8 9742     		.uleb128 0x2117
 3912 02ca 19       		.uleb128 0x19
 3913 02cb 01       		.uleb128 0x1
 3914 02cc 13       		.uleb128 0x13
 3915 02cd 00       		.byte	0
 3916 02ce 00       		.byte	0
 3917 02cf 39       		.uleb128 0x39
 3918 02d0 05       		.uleb128 0x5
 3919 02d1 00       		.byte	0
 3920 02d2 03       		.uleb128 0x3
 3921 02d3 08       		.uleb128 0x8
 3922 02d4 3A       		.uleb128 0x3a
 3923 02d5 0B       		.uleb128 0xb
 3924 02d6 3B       		.uleb128 0x3b
 3925 02d7 0B       		.uleb128 0xb
 3926 02d8 49       		.uleb128 0x49
 3927 02d9 13       		.uleb128 0x13
 3928 02da 02       		.uleb128 0x2
 3929 02db 18       		.uleb128 0x18
 3930 02dc 00       		.byte	0
 3931 02dd 00       		.byte	0
 3932 02de 3A       		.uleb128 0x3a
 3933 02df 0B       		.uleb128 0xb
 3934 02e0 01       		.byte	0x1
 3935 02e1 11       		.uleb128 0x11
 3936 02e2 01       		.uleb128 0x1
 3937 02e3 12       		.uleb128 0x12
 3938 02e4 06       		.uleb128 0x6
 3939 02e5 00       		.byte	0
 3940 02e6 00       		.byte	0
 3941 02e7 3B       		.uleb128 0x3b
 3942 02e8 05       		.uleb128 0x5
 3943 02e9 00       		.byte	0
 3944 02ea 03       		.uleb128 0x3
 3945 02eb 08       		.uleb128 0x8
 3946 02ec 3A       		.uleb128 0x3a
ARM GAS  C:\Users\jo\AppData\Local\Temp\ccN0EpzZ.s 			page 71


 3947 02ed 0B       		.uleb128 0xb
 3948 02ee 3B       		.uleb128 0x3b
 3949 02ef 0B       		.uleb128 0xb
 3950 02f0 49       		.uleb128 0x49
 3951 02f1 13       		.uleb128 0x13
 3952 02f2 02       		.uleb128 0x2
 3953 02f3 17       		.uleb128 0x17
 3954 02f4 00       		.byte	0
 3955 02f5 00       		.byte	0
 3956 02f6 3C       		.uleb128 0x3c
 3957 02f7 1D       		.uleb128 0x1d
 3958 02f8 01       		.byte	0x1
 3959 02f9 31       		.uleb128 0x31
 3960 02fa 13       		.uleb128 0x13
 3961 02fb 52       		.uleb128 0x52
 3962 02fc 01       		.uleb128 0x1
 3963 02fd 55       		.uleb128 0x55
 3964 02fe 17       		.uleb128 0x17
 3965 02ff 58       		.uleb128 0x58
 3966 0300 0B       		.uleb128 0xb
 3967 0301 59       		.uleb128 0x59
 3968 0302 0B       		.uleb128 0xb
 3969 0303 01       		.uleb128 0x1
 3970 0304 13       		.uleb128 0x13
 3971 0305 00       		.byte	0
 3972 0306 00       		.byte	0
 3973 0307 3D       		.uleb128 0x3d
 3974 0308 0B       		.uleb128 0xb
 3975 0309 01       		.byte	0x1
 3976 030a 55       		.uleb128 0x55
 3977 030b 17       		.uleb128 0x17
 3978 030c 00       		.byte	0
 3979 030d 00       		.byte	0
 3980 030e 3E       		.uleb128 0x3e
 3981 030f 34       		.uleb128 0x34
 3982 0310 00       		.byte	0
 3983 0311 31       		.uleb128 0x31
 3984 0312 13       		.uleb128 0x13
 3985 0313 02       		.uleb128 0x2
 3986 0314 17       		.uleb128 0x17
 3987 0315 00       		.byte	0
 3988 0316 00       		.byte	0
 3989 0317 3F       		.uleb128 0x3f
 3990 0318 898201   		.uleb128 0x4109
 3991 031b 00       		.byte	0
 3992 031c 11       		.uleb128 0x11
 3993 031d 01       		.uleb128 0x1
 3994 031e 31       		.uleb128 0x31
 3995 031f 13       		.uleb128 0x13
 3996 0320 00       		.byte	0
 3997 0321 00       		.byte	0
 3998 0322 40       		.uleb128 0x40
 3999 0323 2E       		.uleb128 0x2e
 4000 0324 01       		.byte	0x1
 4001 0325 3F       		.uleb128 0x3f
 4002 0326 19       		.uleb128 0x19
 4003 0327 03       		.uleb128 0x3
ARM GAS  C:\Users\jo\AppData\Local\Temp\ccN0EpzZ.s 			page 72


 4004 0328 0E       		.uleb128 0xe
 4005 0329 3A       		.uleb128 0x3a
 4006 032a 0B       		.uleb128 0xb
 4007 032b 3B       		.uleb128 0x3b
 4008 032c 0B       		.uleb128 0xb
 4009 032d 27       		.uleb128 0x27
 4010 032e 19       		.uleb128 0x19
 4011 032f 49       		.uleb128 0x49
 4012 0330 13       		.uleb128 0x13
 4013 0331 11       		.uleb128 0x11
 4014 0332 01       		.uleb128 0x1
 4015 0333 12       		.uleb128 0x12
 4016 0334 06       		.uleb128 0x6
 4017 0335 40       		.uleb128 0x40
 4018 0336 18       		.uleb128 0x18
 4019 0337 9742     		.uleb128 0x2117
 4020 0339 19       		.uleb128 0x19
 4021 033a 01       		.uleb128 0x1
 4022 033b 13       		.uleb128 0x13
 4023 033c 00       		.byte	0
 4024 033d 00       		.byte	0
 4025 033e 41       		.uleb128 0x41
 4026 033f 34       		.uleb128 0x34
 4027 0340 00       		.byte	0
 4028 0341 03       		.uleb128 0x3
 4029 0342 0E       		.uleb128 0xe
 4030 0343 3A       		.uleb128 0x3a
 4031 0344 0B       		.uleb128 0xb
 4032 0345 3B       		.uleb128 0x3b
 4033 0346 0B       		.uleb128 0xb
 4034 0347 49       		.uleb128 0x49
 4035 0348 13       		.uleb128 0x13
 4036 0349 02       		.uleb128 0x2
 4037 034a 17       		.uleb128 0x17
 4038 034b 00       		.byte	0
 4039 034c 00       		.byte	0
 4040 034d 42       		.uleb128 0x42
 4041 034e 34       		.uleb128 0x34
 4042 034f 00       		.byte	0
 4043 0350 03       		.uleb128 0x3
 4044 0351 08       		.uleb128 0x8
 4045 0352 3A       		.uleb128 0x3a
 4046 0353 0B       		.uleb128 0xb
 4047 0354 3B       		.uleb128 0x3b
 4048 0355 0B       		.uleb128 0xb
 4049 0356 49       		.uleb128 0x49
 4050 0357 13       		.uleb128 0x13
 4051 0358 02       		.uleb128 0x2
 4052 0359 17       		.uleb128 0x17
 4053 035a 00       		.byte	0
 4054 035b 00       		.byte	0
 4055 035c 43       		.uleb128 0x43
 4056 035d 1D       		.uleb128 0x1d
 4057 035e 01       		.byte	0x1
 4058 035f 31       		.uleb128 0x31
 4059 0360 13       		.uleb128 0x13
 4060 0361 52       		.uleb128 0x52
ARM GAS  C:\Users\jo\AppData\Local\Temp\ccN0EpzZ.s 			page 73


 4061 0362 01       		.uleb128 0x1
 4062 0363 55       		.uleb128 0x55
 4063 0364 17       		.uleb128 0x17
 4064 0365 58       		.uleb128 0x58
 4065 0366 0B       		.uleb128 0xb
 4066 0367 59       		.uleb128 0x59
 4067 0368 0B       		.uleb128 0xb
 4068 0369 00       		.byte	0
 4069 036a 00       		.byte	0
 4070 036b 44       		.uleb128 0x44
 4071 036c 0B       		.uleb128 0xb
 4072 036d 01       		.byte	0x1
 4073 036e 11       		.uleb128 0x11
 4074 036f 01       		.uleb128 0x1
 4075 0370 12       		.uleb128 0x12
 4076 0371 06       		.uleb128 0x6
 4077 0372 01       		.uleb128 0x1
 4078 0373 13       		.uleb128 0x13
 4079 0374 00       		.byte	0
 4080 0375 00       		.byte	0
 4081 0376 45       		.uleb128 0x45
 4082 0377 1D       		.uleb128 0x1d
 4083 0378 01       		.byte	0x1
 4084 0379 31       		.uleb128 0x31
 4085 037a 13       		.uleb128 0x13
 4086 037b 11       		.uleb128 0x11
 4087 037c 01       		.uleb128 0x1
 4088 037d 12       		.uleb128 0x12
 4089 037e 06       		.uleb128 0x6
 4090 037f 58       		.uleb128 0x58
 4091 0380 0B       		.uleb128 0xb
 4092 0381 59       		.uleb128 0x59
 4093 0382 0B       		.uleb128 0xb
 4094 0383 01       		.uleb128 0x1
 4095 0384 13       		.uleb128 0x13
 4096 0385 00       		.byte	0
 4097 0386 00       		.byte	0
 4098 0387 46       		.uleb128 0x46
 4099 0388 898201   		.uleb128 0x4109
 4100 038b 00       		.byte	0
 4101 038c 11       		.uleb128 0x11
 4102 038d 01       		.uleb128 0x1
 4103 038e 9542     		.uleb128 0x2115
 4104 0390 19       		.uleb128 0x19
 4105 0391 31       		.uleb128 0x31
 4106 0392 13       		.uleb128 0x13
 4107 0393 00       		.byte	0
 4108 0394 00       		.byte	0
 4109 0395 47       		.uleb128 0x47
 4110 0396 34       		.uleb128 0x34
 4111 0397 00       		.byte	0
 4112 0398 03       		.uleb128 0x3
 4113 0399 0E       		.uleb128 0xe
 4114 039a 3A       		.uleb128 0x3a
 4115 039b 0B       		.uleb128 0xb
 4116 039c 3B       		.uleb128 0x3b
 4117 039d 05       		.uleb128 0x5
ARM GAS  C:\Users\jo\AppData\Local\Temp\ccN0EpzZ.s 			page 74


 4118 039e 49       		.uleb128 0x49
 4119 039f 13       		.uleb128 0x13
 4120 03a0 3F       		.uleb128 0x3f
 4121 03a1 19       		.uleb128 0x19
 4122 03a2 3C       		.uleb128 0x3c
 4123 03a3 19       		.uleb128 0x19
 4124 03a4 00       		.byte	0
 4125 03a5 00       		.byte	0
 4126 03a6 48       		.uleb128 0x48
 4127 03a7 34       		.uleb128 0x34
 4128 03a8 00       		.byte	0
 4129 03a9 03       		.uleb128 0x3
 4130 03aa 08       		.uleb128 0x8
 4131 03ab 3A       		.uleb128 0x3a
 4132 03ac 0B       		.uleb128 0xb
 4133 03ad 3B       		.uleb128 0x3b
 4134 03ae 05       		.uleb128 0x5
 4135 03af 49       		.uleb128 0x49
 4136 03b0 13       		.uleb128 0x13
 4137 03b1 3F       		.uleb128 0x3f
 4138 03b2 19       		.uleb128 0x19
 4139 03b3 3C       		.uleb128 0x3c
 4140 03b4 19       		.uleb128 0x19
 4141 03b5 00       		.byte	0
 4142 03b6 00       		.byte	0
 4143 03b7 49       		.uleb128 0x49
 4144 03b8 34       		.uleb128 0x34
 4145 03b9 00       		.byte	0
 4146 03ba 03       		.uleb128 0x3
 4147 03bb 0E       		.uleb128 0xe
 4148 03bc 3A       		.uleb128 0x3a
 4149 03bd 0B       		.uleb128 0xb
 4150 03be 3B       		.uleb128 0x3b
 4151 03bf 0B       		.uleb128 0xb
 4152 03c0 49       		.uleb128 0x49
 4153 03c1 13       		.uleb128 0x13
 4154 03c2 3F       		.uleb128 0x3f
 4155 03c3 19       		.uleb128 0x19
 4156 03c4 3C       		.uleb128 0x3c
 4157 03c5 19       		.uleb128 0x19
 4158 03c6 00       		.byte	0
 4159 03c7 00       		.byte	0
 4160 03c8 4A       		.uleb128 0x4a
 4161 03c9 2E       		.uleb128 0x2e
 4162 03ca 01       		.byte	0x1
 4163 03cb 3F       		.uleb128 0x3f
 4164 03cc 19       		.uleb128 0x19
 4165 03cd 03       		.uleb128 0x3
 4166 03ce 0E       		.uleb128 0xe
 4167 03cf 3A       		.uleb128 0x3a
 4168 03d0 0B       		.uleb128 0xb
 4169 03d1 3B       		.uleb128 0x3b
 4170 03d2 0B       		.uleb128 0xb
 4171 03d3 27       		.uleb128 0x27
 4172 03d4 19       		.uleb128 0x19
 4173 03d5 49       		.uleb128 0x49
 4174 03d6 13       		.uleb128 0x13
ARM GAS  C:\Users\jo\AppData\Local\Temp\ccN0EpzZ.s 			page 75


 4175 03d7 3C       		.uleb128 0x3c
 4176 03d8 19       		.uleb128 0x19
 4177 03d9 01       		.uleb128 0x1
 4178 03da 13       		.uleb128 0x13
 4179 03db 00       		.byte	0
 4180 03dc 00       		.byte	0
 4181 03dd 4B       		.uleb128 0x4b
 4182 03de 2E       		.uleb128 0x2e
 4183 03df 01       		.byte	0x1
 4184 03e0 3F       		.uleb128 0x3f
 4185 03e1 19       		.uleb128 0x19
 4186 03e2 03       		.uleb128 0x3
 4187 03e3 0E       		.uleb128 0xe
 4188 03e4 3A       		.uleb128 0x3a
 4189 03e5 0B       		.uleb128 0xb
 4190 03e6 3B       		.uleb128 0x3b
 4191 03e7 0B       		.uleb128 0xb
 4192 03e8 27       		.uleb128 0x27
 4193 03e9 19       		.uleb128 0x19
 4194 03ea 3C       		.uleb128 0x3c
 4195 03eb 19       		.uleb128 0x19
 4196 03ec 01       		.uleb128 0x1
 4197 03ed 13       		.uleb128 0x13
 4198 03ee 00       		.byte	0
 4199 03ef 00       		.byte	0
 4200 03f0 4C       		.uleb128 0x4c
 4201 03f1 2E       		.uleb128 0x2e
 4202 03f2 01       		.byte	0x1
 4203 03f3 3F       		.uleb128 0x3f
 4204 03f4 19       		.uleb128 0x19
 4205 03f5 03       		.uleb128 0x3
 4206 03f6 0E       		.uleb128 0xe
 4207 03f7 3A       		.uleb128 0x3a
 4208 03f8 0B       		.uleb128 0xb
 4209 03f9 3B       		.uleb128 0x3b
 4210 03fa 0B       		.uleb128 0xb
 4211 03fb 27       		.uleb128 0x27
 4212 03fc 19       		.uleb128 0x19
 4213 03fd 3C       		.uleb128 0x3c
 4214 03fe 19       		.uleb128 0x19
 4215 03ff 00       		.byte	0
 4216 0400 00       		.byte	0
 4217 0401 00       		.byte	0
 4218              		.section	.debug_loc,"",%progbits
 4219              	.Ldebug_loc0:
 4220              	.LLST0:
 4221 0000 00000000 		.4byte	.LVL0
 4222 0004 0A000000 		.4byte	.LVL1
 4223 0008 0100     		.2byte	0x1
 4224 000a 50       		.byte	0x50
 4225 000b 0A000000 		.4byte	.LVL1
 4226 000f 24000000 		.4byte	.LFE277
 4227 0013 0400     		.2byte	0x4
 4228 0015 F3       		.byte	0xf3
 4229 0016 01       		.uleb128 0x1
 4230 0017 50       		.byte	0x50
 4231 0018 9F       		.byte	0x9f
ARM GAS  C:\Users\jo\AppData\Local\Temp\ccN0EpzZ.s 			page 76


 4232 0019 00000000 		.4byte	0
 4233 001d 00000000 		.4byte	0
 4234              	.LLST1:
 4235 0021 00000000 		.4byte	.LVL3
 4236 0025 0C000000 		.4byte	.LVL5
 4237 0029 0100     		.2byte	0x1
 4238 002b 50       		.byte	0x50
 4239 002c 0C000000 		.4byte	.LVL5
 4240 0030 24000000 		.4byte	.LVL8
 4241 0034 0100     		.2byte	0x1
 4242 0036 54       		.byte	0x54
 4243 0037 24000000 		.4byte	.LVL8
 4244 003b 2C000000 		.4byte	.LFE258
 4245 003f 0400     		.2byte	0x4
 4246 0041 F3       		.byte	0xf3
 4247 0042 01       		.uleb128 0x1
 4248 0043 50       		.byte	0x50
 4249 0044 9F       		.byte	0x9f
 4250 0045 00000000 		.4byte	0
 4251 0049 00000000 		.4byte	0
 4252              	.LLST2:
 4253 004d 00000000 		.4byte	.LVL3
 4254 0051 0A000000 		.4byte	.LVL4
 4255 0055 0100     		.2byte	0x1
 4256 0057 51       		.byte	0x51
 4257 0058 0A000000 		.4byte	.LVL4
 4258 005c 0C000000 		.4byte	.LVL5
 4259 0060 0200     		.2byte	0x2
 4260 0062 70       		.byte	0x70
 4261 0063 04       		.sleb128 4
 4262 0064 0C000000 		.4byte	.LVL5
 4263 0068 0F000000 		.4byte	.LVL6-1
 4264 006c 0200     		.2byte	0x2
 4265 006e 74       		.byte	0x74
 4266 006f 04       		.sleb128 4
 4267 0070 0F000000 		.4byte	.LVL6-1
 4268 0074 2C000000 		.4byte	.LFE258
 4269 0078 0400     		.2byte	0x4
 4270 007a F3       		.byte	0xf3
 4271 007b 01       		.uleb128 0x1
 4272 007c 51       		.byte	0x51
 4273 007d 9F       		.byte	0x9f
 4274 007e 00000000 		.4byte	0
 4275 0082 00000000 		.4byte	0
 4276              	.LLST3:
 4277 0086 00000000 		.4byte	.LVL3
 4278 008a 0F000000 		.4byte	.LVL6-1
 4279 008e 0100     		.2byte	0x1
 4280 0090 52       		.byte	0x52
 4281 0091 0F000000 		.4byte	.LVL6-1
 4282 0095 2C000000 		.4byte	.LFE258
 4283 0099 0400     		.2byte	0x4
 4284 009b F3       		.byte	0xf3
 4285 009c 01       		.uleb128 0x1
 4286 009d 52       		.byte	0x52
 4287 009e 9F       		.byte	0x9f
 4288 009f 00000000 		.4byte	0
ARM GAS  C:\Users\jo\AppData\Local\Temp\ccN0EpzZ.s 			page 77


 4289 00a3 00000000 		.4byte	0
 4290              	.LLST4:
 4291 00a7 00000000 		.4byte	.LVL9
 4292 00ab 05000000 		.4byte	.LVL10-1
 4293 00af 0100     		.2byte	0x1
 4294 00b1 50       		.byte	0x50
 4295 00b2 05000000 		.4byte	.LVL10-1
 4296 00b6 06000000 		.4byte	.LFE257
 4297 00ba 0400     		.2byte	0x4
 4298 00bc F3       		.byte	0xf3
 4299 00bd 01       		.uleb128 0x1
 4300 00be 50       		.byte	0x50
 4301 00bf 9F       		.byte	0x9f
 4302 00c0 00000000 		.4byte	0
 4303 00c4 00000000 		.4byte	0
 4304              	.LLST5:
 4305 00c8 00000000 		.4byte	.LVL9
 4306 00cc 05000000 		.4byte	.LVL10-1
 4307 00d0 0100     		.2byte	0x1
 4308 00d2 51       		.byte	0x51
 4309 00d3 05000000 		.4byte	.LVL10-1
 4310 00d7 06000000 		.4byte	.LFE257
 4311 00db 0400     		.2byte	0x4
 4312 00dd F3       		.byte	0xf3
 4313 00de 01       		.uleb128 0x1
 4314 00df 51       		.byte	0x51
 4315 00e0 9F       		.byte	0x9f
 4316 00e1 00000000 		.4byte	0
 4317 00e5 00000000 		.4byte	0
 4318              	.LLST6:
 4319 00e9 00000000 		.4byte	.LVL11
 4320 00ed 07000000 		.4byte	.LVL12-1
 4321 00f1 0100     		.2byte	0x1
 4322 00f3 50       		.byte	0x50
 4323 00f4 07000000 		.4byte	.LVL12-1
 4324 00f8 08000000 		.4byte	.LFE256
 4325 00fc 0400     		.2byte	0x4
 4326 00fe F3       		.byte	0xf3
 4327 00ff 01       		.uleb128 0x1
 4328 0100 50       		.byte	0x50
 4329 0101 9F       		.byte	0x9f
 4330 0102 00000000 		.4byte	0
 4331 0106 00000000 		.4byte	0
 4332              	.LLST8:
 4333 010a 00000000 		.4byte	.LVL14
 4334 010e 0C000000 		.4byte	.LVL15
 4335 0112 0100     		.2byte	0x1
 4336 0114 50       		.byte	0x50
 4337 0115 0C000000 		.4byte	.LVL15
 4338 0119 14000000 		.4byte	.LFE260
 4339 011d 0400     		.2byte	0x4
 4340 011f F3       		.byte	0xf3
 4341 0120 01       		.uleb128 0x1
 4342 0121 50       		.byte	0x50
 4343 0122 9F       		.byte	0x9f
 4344 0123 00000000 		.4byte	0
 4345 0127 00000000 		.4byte	0
ARM GAS  C:\Users\jo\AppData\Local\Temp\ccN0EpzZ.s 			page 78


 4346              	.LLST9:
 4347 012b 00000000 		.4byte	.LVL16
 4348 012f 0C000000 		.4byte	.LVL17
 4349 0133 0100     		.2byte	0x1
 4350 0135 50       		.byte	0x50
 4351 0136 0C000000 		.4byte	.LVL17
 4352 013a 10000000 		.4byte	.LFE261
 4353 013e 0400     		.2byte	0x4
 4354 0140 F3       		.byte	0xf3
 4355 0141 01       		.uleb128 0x1
 4356 0142 50       		.byte	0x50
 4357 0143 9F       		.byte	0x9f
 4358 0144 00000000 		.4byte	0
 4359 0148 00000000 		.4byte	0
 4360              	.LLST10:
 4361 014c 00000000 		.4byte	.LVL18
 4362 0150 20000000 		.4byte	.LVL21
 4363 0154 0100     		.2byte	0x1
 4364 0156 50       		.byte	0x50
 4365 0157 20000000 		.4byte	.LVL21
 4366 015b 50000000 		.4byte	.LVL27
 4367 015f 0100     		.2byte	0x1
 4368 0161 54       		.byte	0x54
 4369 0162 50000000 		.4byte	.LVL27
 4370 0166 56000000 		.4byte	.LVL29
 4371 016a 0100     		.2byte	0x1
 4372 016c 50       		.byte	0x50
 4373 016d 56000000 		.4byte	.LVL29
 4374 0171 7E000000 		.4byte	.LVL33
 4375 0175 0100     		.2byte	0x1
 4376 0177 54       		.byte	0x54
 4377 0178 7E000000 		.4byte	.LVL33
 4378 017c 90000000 		.4byte	.LFE262
 4379 0180 0400     		.2byte	0x4
 4380 0182 F3       		.byte	0xf3
 4381 0183 01       		.uleb128 0x1
 4382 0184 50       		.byte	0x50
 4383 0185 9F       		.byte	0x9f
 4384 0186 00000000 		.4byte	0
 4385 018a 00000000 		.4byte	0
 4386              	.LLST11:
 4387 018e 00000000 		.4byte	.LVL18
 4388 0192 1E000000 		.4byte	.LVL20
 4389 0196 0100     		.2byte	0x1
 4390 0198 51       		.byte	0x51
 4391 0199 46000000 		.4byte	.LVL26
 4392 019d 50000000 		.4byte	.LVL27
 4393 01a1 0100     		.2byte	0x1
 4394 01a3 57       		.byte	0x57
 4395 01a4 50000000 		.4byte	.LVL27
 4396 01a8 54000000 		.4byte	.LVL28
 4397 01ac 0100     		.2byte	0x1
 4398 01ae 51       		.byte	0x51
 4399 01af 5A000000 		.4byte	.LVL30
 4400 01b3 7E000000 		.4byte	.LVL33
 4401 01b7 0100     		.2byte	0x1
 4402 01b9 57       		.byte	0x57
ARM GAS  C:\Users\jo\AppData\Local\Temp\ccN0EpzZ.s 			page 79


 4403 01ba 00000000 		.4byte	0
 4404 01be 00000000 		.4byte	0
 4405              	.LLST12:
 4406 01c2 16000000 		.4byte	.LVL19
 4407 01c6 20000000 		.4byte	.LVL21
 4408 01ca 0100     		.2byte	0x1
 4409 01cc 50       		.byte	0x50
 4410 01cd 20000000 		.4byte	.LVL21
 4411 01d1 50000000 		.4byte	.LVL27
 4412 01d5 0100     		.2byte	0x1
 4413 01d7 54       		.byte	0x54
 4414 01d8 00000000 		.4byte	0
 4415 01dc 00000000 		.4byte	0
 4416              	.LLST13:
 4417 01e0 34000000 		.4byte	.LVL23
 4418 01e4 37000000 		.4byte	.LVL24-1
 4419 01e8 0100     		.2byte	0x1
 4420 01ea 50       		.byte	0x50
 4421 01eb 37000000 		.4byte	.LVL24-1
 4422 01ef 50000000 		.4byte	.LVL27
 4423 01f3 0100     		.2byte	0x1
 4424 01f5 58       		.byte	0x58
 4425 01f6 00000000 		.4byte	0
 4426 01fa 00000000 		.4byte	0
 4427              	.LLST14:
 4428 01fe 00000000 		.4byte	.LVL34
 4429 0202 16000000 		.4byte	.LVL35
 4430 0206 0100     		.2byte	0x1
 4431 0208 50       		.byte	0x50
 4432 0209 16000000 		.4byte	.LVL35
 4433 020d 1A000000 		.4byte	.LVL36
 4434 0211 0400     		.2byte	0x4
 4435 0213 F3       		.byte	0xf3
 4436 0214 01       		.uleb128 0x1
 4437 0215 50       		.byte	0x50
 4438 0216 9F       		.byte	0x9f
 4439 0217 1A000000 		.4byte	.LVL36
 4440 021b 1E000000 		.4byte	.LVL37
 4441 021f 0100     		.2byte	0x1
 4442 0221 50       		.byte	0x50
 4443 0222 1E000000 		.4byte	.LVL37
 4444 0226 42000000 		.4byte	.LFE264
 4445 022a 0100     		.2byte	0x1
 4446 022c 55       		.byte	0x55
 4447 022d 00000000 		.4byte	0
 4448 0231 00000000 		.4byte	0
 4449              	.LLST15:
 4450 0235 00000000 		.4byte	.LVL34
 4451 0239 32000000 		.4byte	.LVL40
 4452 023d 0100     		.2byte	0x1
 4453 023f 51       		.byte	0x51
 4454 0240 3A000000 		.4byte	.LVL42
 4455 0244 42000000 		.4byte	.LFE264
 4456 0248 0100     		.2byte	0x1
 4457 024a 57       		.byte	0x57
 4458 024b 00000000 		.4byte	0
 4459 024f 00000000 		.4byte	0
ARM GAS  C:\Users\jo\AppData\Local\Temp\ccN0EpzZ.s 			page 80


 4460              	.LLST16:
 4461 0253 00000000 		.4byte	.LVL34
 4462 0257 2A000000 		.4byte	.LVL39
 4463 025b 0100     		.2byte	0x1
 4464 025d 52       		.byte	0x52
 4465 025e 2A000000 		.4byte	.LVL39
 4466 0262 42000000 		.4byte	.LFE264
 4467 0266 0100     		.2byte	0x1
 4468 0268 56       		.byte	0x56
 4469 0269 00000000 		.4byte	0
 4470 026d 00000000 		.4byte	0
 4471              	.LLST17:
 4472 0271 00000000 		.4byte	.LVL43
 4473 0275 2C000000 		.4byte	.LVL49
 4474 0279 0100     		.2byte	0x1
 4475 027b 50       		.byte	0x50
 4476 027c 2C000000 		.4byte	.LVL49
 4477 0280 30000000 		.4byte	.LVL50
 4478 0284 0400     		.2byte	0x4
 4479 0286 F3       		.byte	0xf3
 4480 0287 01       		.uleb128 0x1
 4481 0288 50       		.byte	0x50
 4482 0289 9F       		.byte	0x9f
 4483 028a 30000000 		.4byte	.LVL50
 4484 028e 32000000 		.4byte	.LVL51
 4485 0292 0100     		.2byte	0x1
 4486 0294 50       		.byte	0x50
 4487 0295 32000000 		.4byte	.LVL51
 4488 0299 36000000 		.4byte	.LFE265
 4489 029d 0400     		.2byte	0x4
 4490 029f F3       		.byte	0xf3
 4491 02a0 01       		.uleb128 0x1
 4492 02a1 50       		.byte	0x50
 4493 02a2 9F       		.byte	0x9f
 4494 02a3 00000000 		.4byte	0
 4495 02a7 00000000 		.4byte	0
 4496              	.LLST18:
 4497 02ab 04000000 		.4byte	.LVL44
 4498 02af 1C000000 		.4byte	.LVL45
 4499 02b3 0100     		.2byte	0x1
 4500 02b5 55       		.byte	0x55
 4501 02b6 1C000000 		.4byte	.LVL45
 4502 02ba 24000000 		.4byte	.LVL46
 4503 02be 0300     		.2byte	0x3
 4504 02c0 73       		.byte	0x73
 4505 02c1 01       		.sleb128 1
 4506 02c2 9F       		.byte	0x9f
 4507 02c3 24000000 		.4byte	.LVL46
 4508 02c7 28000000 		.4byte	.LVL47
 4509 02cb 0100     		.2byte	0x1
 4510 02cd 53       		.byte	0x53
 4511 02ce 28000000 		.4byte	.LVL47
 4512 02d2 2A000000 		.4byte	.LVL48
 4513 02d6 0300     		.2byte	0x3
 4514 02d8 73       		.byte	0x73
 4515 02d9 01       		.sleb128 1
 4516 02da 9F       		.byte	0x9f
ARM GAS  C:\Users\jo\AppData\Local\Temp\ccN0EpzZ.s 			page 81


 4517 02db 30000000 		.4byte	.LVL50
 4518 02df 36000000 		.4byte	.LFE265
 4519 02e3 0300     		.2byte	0x3
 4520 02e5 73       		.byte	0x73
 4521 02e6 01       		.sleb128 1
 4522 02e7 9F       		.byte	0x9f
 4523 02e8 00000000 		.4byte	0
 4524 02ec 00000000 		.4byte	0
 4525              	.LLST19:
 4526 02f0 00000000 		.4byte	.LVL52
 4527 02f4 12000000 		.4byte	.LVL53
 4528 02f8 0100     		.2byte	0x1
 4529 02fa 50       		.byte	0x50
 4530 02fb 12000000 		.4byte	.LVL53
 4531 02ff 2C000000 		.4byte	.LFE266
 4532 0303 0400     		.2byte	0x4
 4533 0305 F3       		.byte	0xf3
 4534 0306 01       		.uleb128 0x1
 4535 0307 50       		.byte	0x50
 4536 0308 9F       		.byte	0x9f
 4537 0309 00000000 		.4byte	0
 4538 030d 00000000 		.4byte	0
 4539              	.LLST20:
 4540 0311 00000000 		.4byte	.LVL52
 4541 0315 16000000 		.4byte	.LVL54
 4542 0319 0200     		.2byte	0x2
 4543 031b 30       		.byte	0x30
 4544 031c 9F       		.byte	0x9f
 4545 031d 16000000 		.4byte	.LVL54
 4546 0321 24000000 		.4byte	.LVL57
 4547 0325 0100     		.2byte	0x1
 4548 0327 50       		.byte	0x50
 4549 0328 00000000 		.4byte	0
 4550 032c 00000000 		.4byte	0
 4551              	.LLST21:
 4552 0330 00000000 		.4byte	.LVL58
 4553 0334 02000000 		.4byte	.LVL59
 4554 0338 0100     		.2byte	0x1
 4555 033a 50       		.byte	0x50
 4556 033b 02000000 		.4byte	.LVL59
 4557 033f 0E000000 		.4byte	.LFE267
 4558 0343 0400     		.2byte	0x4
 4559 0345 F3       		.byte	0xf3
 4560 0346 01       		.uleb128 0x1
 4561 0347 50       		.byte	0x50
 4562 0348 9F       		.byte	0x9f
 4563 0349 00000000 		.4byte	0
 4564 034d 00000000 		.4byte	0
 4565              	.LLST22:
 4566 0351 00000000 		.4byte	.LVL60
 4567 0355 18000000 		.4byte	.LVL61
 4568 0359 0100     		.2byte	0x1
 4569 035b 50       		.byte	0x50
 4570 035c 18000000 		.4byte	.LVL61
 4571 0360 38000000 		.4byte	.LVL64
 4572 0364 0100     		.2byte	0x1
 4573 0366 54       		.byte	0x54
ARM GAS  C:\Users\jo\AppData\Local\Temp\ccN0EpzZ.s 			page 82


 4574 0367 38000000 		.4byte	.LVL64
 4575 036b 3A000000 		.4byte	.LVL65
 4576 036f 0100     		.2byte	0x1
 4577 0371 50       		.byte	0x50
 4578 0372 3A000000 		.4byte	.LVL65
 4579 0376 3E000000 		.4byte	.LFE268
 4580 037a 0400     		.2byte	0x4
 4581 037c F3       		.byte	0xf3
 4582 037d 01       		.uleb128 0x1
 4583 037e 50       		.byte	0x50
 4584 037f 9F       		.byte	0x9f
 4585 0380 00000000 		.4byte	0
 4586 0384 00000000 		.4byte	0
 4587              	.LLST23:
 4588 0388 00000000 		.4byte	.LVL60
 4589 038c 2B000000 		.4byte	.LVL63-1
 4590 0390 0100     		.2byte	0x1
 4591 0392 51       		.byte	0x51
 4592 0393 2B000000 		.4byte	.LVL63-1
 4593 0397 38000000 		.4byte	.LVL64
 4594 039b 0400     		.2byte	0x4
 4595 039d F3       		.byte	0xf3
 4596 039e 01       		.uleb128 0x1
 4597 039f 51       		.byte	0x51
 4598 03a0 9F       		.byte	0x9f
 4599 03a1 38000000 		.4byte	.LVL64
 4600 03a5 3E000000 		.4byte	.LFE268
 4601 03a9 0100     		.2byte	0x1
 4602 03ab 51       		.byte	0x51
 4603 03ac 00000000 		.4byte	0
 4604 03b0 00000000 		.4byte	0
 4605              	.LLST24:
 4606 03b4 28000000 		.4byte	.LVL62
 4607 03b8 38000000 		.4byte	.LVL64
 4608 03bc 0100     		.2byte	0x1
 4609 03be 55       		.byte	0x55
 4610 03bf 00000000 		.4byte	0
 4611 03c3 00000000 		.4byte	0
 4612              	.LLST25:
 4613 03c7 28000000 		.4byte	.LVL62
 4614 03cb 38000000 		.4byte	.LVL64
 4615 03cf 0200     		.2byte	0x2
 4616 03d1 31       		.byte	0x31
 4617 03d2 9F       		.byte	0x9f
 4618 03d3 00000000 		.4byte	0
 4619 03d7 00000000 		.4byte	0
 4620              	.LLST26:
 4621 03db 28000000 		.4byte	.LVL62
 4622 03df 38000000 		.4byte	.LVL64
 4623 03e3 0100     		.2byte	0x1
 4624 03e5 54       		.byte	0x54
 4625 03e6 00000000 		.4byte	0
 4626 03ea 00000000 		.4byte	0
 4627              	.LLST29:
 4628 03ee 28000000 		.4byte	.LVL62
 4629 03f2 2B000000 		.4byte	.LVL63-1
 4630 03f6 0100     		.2byte	0x1
ARM GAS  C:\Users\jo\AppData\Local\Temp\ccN0EpzZ.s 			page 83


 4631 03f8 51       		.byte	0x51
 4632 03f9 2B000000 		.4byte	.LVL63-1
 4633 03fd 38000000 		.4byte	.LVL64
 4634 0401 0400     		.2byte	0x4
 4635 0403 F3       		.byte	0xf3
 4636 0404 01       		.uleb128 0x1
 4637 0405 51       		.byte	0x51
 4638 0406 9F       		.byte	0x9f
 4639 0407 00000000 		.4byte	0
 4640 040b 00000000 		.4byte	0
 4641              	.LLST30:
 4642 040f 00000000 		.4byte	.LVL66
 4643 0413 0A000000 		.4byte	.LVL67
 4644 0417 0100     		.2byte	0x1
 4645 0419 50       		.byte	0x50
 4646 041a 0A000000 		.4byte	.LVL67
 4647 041e 52000000 		.4byte	.LVL76
 4648 0422 0100     		.2byte	0x1
 4649 0424 55       		.byte	0x55
 4650 0425 52000000 		.4byte	.LVL76
 4651 0429 70000000 		.4byte	.LFE269
 4652 042d 0400     		.2byte	0x4
 4653 042f F3       		.byte	0xf3
 4654 0430 01       		.uleb128 0x1
 4655 0431 50       		.byte	0x50
 4656 0432 9F       		.byte	0x9f
 4657 0433 00000000 		.4byte	0
 4658 0437 00000000 		.4byte	0
 4659              	.LLST31:
 4660 043b 0E000000 		.4byte	.LVL68
 4661 043f 18000000 		.4byte	.LVL69
 4662 0443 0200     		.2byte	0x2
 4663 0445 30       		.byte	0x30
 4664 0446 9F       		.byte	0x9f
 4665 0447 18000000 		.4byte	.LVL69
 4666 044b 4A000000 		.4byte	.LVL75
 4667 044f 0100     		.2byte	0x1
 4668 0451 54       		.byte	0x54
 4669 0452 00000000 		.4byte	0
 4670 0456 00000000 		.4byte	0
 4671              	.LLST32:
 4672 045a 30000000 		.4byte	.LVL71
 4673 045e 4A000000 		.4byte	.LVL75
 4674 0462 0300     		.2byte	0x3
 4675 0464 56       		.byte	0x56
 4676 0465 93       		.byte	0x93
 4677 0466 04       		.uleb128 0x4
 4678 0467 00000000 		.4byte	0
 4679 046b 00000000 		.4byte	0
 4680              	.LLST33:
 4681 046f 38000000 		.4byte	.LVL72
 4682 0473 4A000000 		.4byte	.LVL75
 4683 0477 0600     		.2byte	0x6
 4684 0479 F2       		.byte	0xf2
 4685 047a B5100000 		.4byte	.Ldebug_info0+4277
 4686 047e 00       		.sleb128 0
 4687 047f 00000000 		.4byte	0
ARM GAS  C:\Users\jo\AppData\Local\Temp\ccN0EpzZ.s 			page 84


 4688 0483 00000000 		.4byte	0
 4689              	.LLST34:
 4690 0487 00000000 		.4byte	.LVL78
 4691 048b 02000000 		.4byte	.LVL79
 4692 048f 0100     		.2byte	0x1
 4693 0491 50       		.byte	0x50
 4694 0492 02000000 		.4byte	.LVL79
 4695 0496 06000000 		.4byte	.LFE270
 4696 049a 0400     		.2byte	0x4
 4697 049c F3       		.byte	0xf3
 4698 049d 01       		.uleb128 0x1
 4699 049e 50       		.byte	0x50
 4700 049f 9F       		.byte	0x9f
 4701 04a0 00000000 		.4byte	0
 4702 04a4 00000000 		.4byte	0
 4703              		.section	.debug_aranges,"",%progbits
 4704 0000 8C000000 		.4byte	0x8c
 4705 0004 0200     		.2byte	0x2
 4706 0006 00000000 		.4byte	.Ldebug_info0
 4707 000a 04       		.byte	0x4
 4708 000b 00       		.byte	0
 4709 000c 0000     		.2byte	0
 4710 000e 0000     		.2byte	0
 4711 0010 00000000 		.4byte	.LFB277
 4712 0014 24000000 		.4byte	.LFE277-.LFB277
 4713 0018 00000000 		.4byte	.LFB258
 4714 001c 2C000000 		.4byte	.LFE258-.LFB258
 4715 0020 00000000 		.4byte	.LFB257
 4716 0024 06000000 		.4byte	.LFE257-.LFB257
 4717 0028 00000000 		.4byte	.LFB256
 4718 002c 08000000 		.4byte	.LFE256-.LFB256
 4719 0030 00000000 		.4byte	.LFB259
 4720 0034 20000000 		.4byte	.LFE259-.LFB259
 4721 0038 00000000 		.4byte	.LFB260
 4722 003c 14000000 		.4byte	.LFE260-.LFB260
 4723 0040 00000000 		.4byte	.LFB261
 4724 0044 10000000 		.4byte	.LFE261-.LFB261
 4725 0048 00000000 		.4byte	.LFB262
 4726 004c 90000000 		.4byte	.LFE262-.LFB262
 4727 0050 00000000 		.4byte	.LFB264
 4728 0054 42000000 		.4byte	.LFE264-.LFB264
 4729 0058 00000000 		.4byte	.LFB265
 4730 005c 36000000 		.4byte	.LFE265-.LFB265
 4731 0060 00000000 		.4byte	.LFB266
 4732 0064 2C000000 		.4byte	.LFE266-.LFB266
 4733 0068 00000000 		.4byte	.LFB267
 4734 006c 0E000000 		.4byte	.LFE267-.LFB267
 4735 0070 00000000 		.4byte	.LFB268
 4736 0074 3E000000 		.4byte	.LFE268-.LFB268
 4737 0078 00000000 		.4byte	.LFB269
 4738 007c 70000000 		.4byte	.LFE269-.LFB269
 4739 0080 00000000 		.4byte	.LFB270
 4740 0084 06000000 		.4byte	.LFE270-.LFB270
 4741 0088 00000000 		.4byte	0
 4742 008c 00000000 		.4byte	0
 4743              		.section	.debug_ranges,"",%progbits
 4744              	.Ldebug_ranges0:
ARM GAS  C:\Users\jo\AppData\Local\Temp\ccN0EpzZ.s 			page 85


 4745 0000 16000000 		.4byte	.LBB12
 4746 0004 3E000000 		.4byte	.LBE12
 4747 0008 40000000 		.4byte	.LBB15
 4748 000c 44000000 		.4byte	.LBE15
 4749 0010 00000000 		.4byte	0
 4750 0014 00000000 		.4byte	0
 4751 0018 0C000000 		.4byte	.LBB27
 4752 001c 24000000 		.4byte	.LBE27
 4753 0020 28000000 		.4byte	.LBB30
 4754 0024 2C000000 		.4byte	.LBE30
 4755 0028 00000000 		.4byte	0
 4756 002c 00000000 		.4byte	0
 4757 0030 00000000 		.4byte	.LFB277
 4758 0034 24000000 		.4byte	.LFE277
 4759 0038 00000000 		.4byte	.LFB258
 4760 003c 2C000000 		.4byte	.LFE258
 4761 0040 00000000 		.4byte	.LFB257
 4762 0044 06000000 		.4byte	.LFE257
 4763 0048 00000000 		.4byte	.LFB256
 4764 004c 08000000 		.4byte	.LFE256
 4765 0050 00000000 		.4byte	.LFB259
 4766 0054 20000000 		.4byte	.LFE259
 4767 0058 00000000 		.4byte	.LFB260
 4768 005c 14000000 		.4byte	.LFE260
 4769 0060 00000000 		.4byte	.LFB261
 4770 0064 10000000 		.4byte	.LFE261
 4771 0068 00000000 		.4byte	.LFB262
 4772 006c 90000000 		.4byte	.LFE262
 4773 0070 00000000 		.4byte	.LFB264
 4774 0074 42000000 		.4byte	.LFE264
 4775 0078 00000000 		.4byte	.LFB265
 4776 007c 36000000 		.4byte	.LFE265
 4777 0080 00000000 		.4byte	.LFB266
 4778 0084 2C000000 		.4byte	.LFE266
 4779 0088 00000000 		.4byte	.LFB267
 4780 008c 0E000000 		.4byte	.LFE267
 4781 0090 00000000 		.4byte	.LFB268
 4782 0094 3E000000 		.4byte	.LFE268
 4783 0098 00000000 		.4byte	.LFB269
 4784 009c 70000000 		.4byte	.LFE269
 4785 00a0 00000000 		.4byte	.LFB270
 4786 00a4 06000000 		.4byte	.LFE270
 4787 00a8 00000000 		.4byte	0
 4788 00ac 00000000 		.4byte	0
 4789              		.section	.debug_line,"",%progbits
 4790              	.Ldebug_line0:
 4791 0000 95040000 		.section	.debug_str,"MS",%progbits,1
 4791      0200E302 
 4791      00000201 
 4791      FB0E0D00 
 4791      01010101 
 4792              	.LASF150:
 4793 0000 4C454654 		.ascii	"LEFT\000"
 4793      00
 4794              	.LASF56:
 4795 0005 72656164 		.ascii	"ready_list_t\000"
 4795      795F6C69 
ARM GAS  C:\Users\jo\AppData\Local\Temp\ccN0EpzZ.s 			page 86


 4795      73745F74 
 4795      00
 4796              	.LASF94:
 4797 0012 73655F74 		.ascii	"se_time\000"
 4797      696D6500 
 4798              	.LASF2:
 4799 001a 73697A65 		.ascii	"size_t\000"
 4799      5F7400
 4800              	.LASF131:
 4801 0021 6E657874 		.ascii	"next\000"
 4801      00
 4802              	.LASF116:
 4803 0026 7264796D 		.ascii	"rdymsg\000"
 4803      736700
 4804              	.LASF19:
 4805 002d 75696E74 		.ascii	"uint64_t\000"
 4805      36345F74 
 4805      00
 4806              	.LASF86:
 4807 0036 6B65726E 		.ascii	"kernel_stats\000"
 4807      656C5F73 
 4807      74617473 
 4807      00
 4808              	.LASF162:
 4809 0043 77696465 		.ascii	"wide\000"
 4809      00
 4810              	.LASF3:
 4811 0048 5F5F7569 		.ascii	"__uint8_t\000"
 4811      6E74385F 
 4811      7400
 4812              	.LASF91:
 4813 0052 706F7274 		.ascii	"port_intctx\000"
 4813      5F696E74 
 4813      63747800 
 4814              	.LASF142:
 4815 005e 76615F6C 		.ascii	"va_list\000"
 4815      69737400 
 4816              	.LASF75:
 4817 0066 73797374 		.ascii	"system_debug_t\000"
 4817      656D5F64 
 4817      65627567 
 4817      5F7400
 4818              	.LASF160:
 4819 0075 696E6974 		.ascii	"init\000"
 4819      00
 4820              	.LASF106:
 4821 007a 776F7273 		.ascii	"worst\000"
 4821      7400
 4822              	.LASF109:
 4823 0080 74696D65 		.ascii	"time_measurement_t\000"
 4823      5F6D6561 
 4823      73757265 
 4823      6D656E74 
 4823      5F7400
 4824              	.LASF13:
 4825 0093 6C6F6E67 		.ascii	"long long unsigned int\000"
 4825      206C6F6E 
ARM GAS  C:\Users\jo\AppData\Local\Temp\ccN0EpzZ.s 			page 87


 4825      6720756E 
 4825      7369676E 
 4825      65642069 
 4826              	.LASF157:
 4827 00aa 666F726D 		.ascii	"formatted_bytes\000"
 4827      61747465 
 4827      645F6279 
 4827      74657300 
 4828              	.LASF97:
 4829 00ba 73655F73 		.ascii	"se_state\000"
 4829      74617465 
 4829      00
 4830              	.LASF117:
 4831 00c3 65786974 		.ascii	"exitcode\000"
 4831      636F6465 
 4831      00
 4832              	.LASF169:
 4833 00cc 7072696E 		.ascii	"print\000"
 4833      7400
 4834              	.LASF129:
 4835 00d2 685F6672 		.ascii	"h_free\000"
 4835      656500
 4836              	.LASF72:
 4837 00d9 76697274 		.ascii	"virtual_timers_list_t\000"
 4837      75616C5F 
 4837      74696D65 
 4837      72735F6C 
 4837      6973745F 
 4838              	.LASF171:
 4839 00ef 49544D5F 		.ascii	"ITM_RxBuffer\000"
 4839      52784275 
 4839      66666572 
 4839      00
 4840              	.LASF133:
 4841 00fc 616C6967 		.ascii	"align\000"
 4841      6E00
 4842              	.LASF21:
 4843 0102 72747469 		.ascii	"rttime_t\000"
 4843      6D655F74 
 4843      00
 4844              	.LASF34:
 4845 010b 705F7072 		.ascii	"p_prio\000"
 4845      696F00
 4846              	.LASF180:
 4847 0112 433A5C55 		.ascii	"C:\\Users\\jo\\Documents\\GitHub\\ChibiOS\\demos\\S"
 4847      73657273 
 4847      5C6A6F5C 
 4847      446F6375 
 4847      6D656E74 
 4848 013e 544D3332 		.ascii	"TM32\\RT-STM32F407-DISCOVERY-uHttp\000"
 4848      5C52542D 
 4848      53544D33 
 4848      32463430 
 4848      372D4449 
 4849              	.LASF124:
 4850 0160 6D757465 		.ascii	"mutex_t\000"
 4850      785F7400 
ARM GAS  C:\Users\jo\AppData\Local\Temp\ccN0EpzZ.s 			page 88


 4851              	.LASF11:
 4852 0168 6C6F6E67 		.ascii	"long long int\000"
 4852      206C6F6E 
 4852      6720696E 
 4852      7400
 4853              	.LASF1:
 4854 0176 7369676E 		.ascii	"signed char\000"
 4854      65642063 
 4854      68617200 
 4855              	.LASF130:
 4856 0182 685F6D74 		.ascii	"h_mtx\000"
 4856      7800
 4857              	.LASF158:
 4858 0188 72617465 		.ascii	"rate\000"
 4858      00
 4859              	.LASF49:
 4860 018d 705F6D70 		.ascii	"p_mpool\000"
 4860      6F6F6C00 
 4861              	.LASF84:
 4862 0195 76746C69 		.ascii	"vtlist\000"
 4862      737400
 4863              	.LASF167:
 4864 019c 6973456D 		.ascii	"isEmpty\000"
 4864      70747900 
 4865              	.LASF8:
 4866 01a4 6C6F6E67 		.ascii	"long int\000"
 4866      20696E74 
 4866      00
 4867              	.LASF23:
 4868 01ad 74737461 		.ascii	"tstate_t\000"
 4868      74655F74 
 4868      00
 4869              	.LASF93:
 4870 01b6 5F5F7661 		.ascii	"__va_list\000"
 4870      5F6C6973 
 4870      7400
 4871              	.LASF126:
 4872 01c0 6D656D6F 		.ascii	"memory_heap_t\000"
 4872      72795F68 
 4872      6561705F 
 4872      7400
 4873              	.LASF95:
 4874 01ce 73655F74 		.ascii	"se_tp\000"
 4874      7000
 4875              	.LASF147:
 4876 01d4 656C656D 		.ascii	"elements\000"
 4876      656E7473 
 4876      00
 4877              	.LASF36:
 4878 01dd 705F6E65 		.ascii	"p_newer\000"
 4878      77657200 
 4879              	.LASF155:
 4880 01e5 73686966 		.ascii	"shift\000"
 4880      7400
 4881              	.LASF99:
 4882 01eb 74625F73 		.ascii	"tb_size\000"
 4882      697A6500 
ARM GAS  C:\Users\jo\AppData\Local\Temp\ccN0EpzZ.s 			page 89


 4883              	.LASF61:
 4884 01f3 725F6E65 		.ascii	"r_newer\000"
 4884      77657200 
 4885              	.LASF88:
 4886 01fb 72656761 		.ascii	"regarm_t\000"
 4886      726D5F74 
 4886      00
 4887              	.LASF68:
 4888 0204 76745F70 		.ascii	"vt_prev\000"
 4888      72657600 
 4889              	.LASF166:
 4890 020c 696E6465 		.ascii	"indexOf\000"
 4890      784F6600 
 4891              	.LASF159:
 4892 0214 696E6974 		.ascii	"initWithSizeAndIncRate\000"
 4892      57697468 
 4892      53697A65 
 4892      416E6449 
 4892      6E635261 
 4893              	.LASF165:
 4894 022b 6C617374 		.ascii	"lastIndexOf\000"
 4894      496E6465 
 4894      784F6600 
 4895              	.LASF138:
 4896 0237 42617365 		.ascii	"BaseSequentialStream\000"
 4896      53657175 
 4896      656E7469 
 4896      616C5374 
 4896      7265616D 
 4897              	.LASF87:
 4898 024c 69646C65 		.ascii	"idle_thread_wa\000"
 4898      5F746872 
 4898      6561645F 
 4898      776100
 4899              	.LASF164:
 4900 025b 696E7365 		.ascii	"insert\000"
 4900      727400
 4901              	.LASF28:
 4902 0262 636E745F 		.ascii	"cnt_t\000"
 4902      7400
 4903              	.LASF39:
 4904 0268 705F7374 		.ascii	"p_stklimit\000"
 4904      6B6C696D 
 4904      697400
 4905              	.LASF0:
 4906 0273 756E7369 		.ascii	"unsigned int\000"
 4906      676E6564 
 4906      20696E74 
 4906      00
 4907              	.LASF67:
 4908 0280 76745F6E 		.ascii	"vt_next\000"
 4908      65787400 
 4909              	.LASF44:
 4910 0288 705F6D73 		.ascii	"p_msgqueue\000"
 4910      67717565 
 4910      756500
 4911              	.LASF146:
ARM GAS  C:\Users\jo\AppData\Local\Temp\ccN0EpzZ.s 			page 90


 4912 0293 696E6372 		.ascii	"increment_rate\000"
 4912      656D656E 
 4912      745F7261 
 4912      746500
 4913              	.LASF110:
 4914 02a2 6E5F6972 		.ascii	"n_irq\000"
 4914      7100
 4915              	.LASF143:
 4916 02a8 64617461 		.ascii	"data\000"
 4916      00
 4917              	.LASF6:
 4918 02ad 73686F72 		.ascii	"short unsigned int\000"
 4918      7420756E 
 4918      7369676E 
 4918      65642069 
 4918      6E7400
 4919              	.LASF114:
 4920 02c0 6B65726E 		.ascii	"kernel_stats_t\000"
 4920      656C5F73 
 4920      74617473 
 4920      5F7400
 4921              	.LASF52:
 4922 02cf 63685F74 		.ascii	"ch_thread\000"
 4922      68726561 
 4922      6400
 4923              	.LASF85:
 4924 02d9 6D61696E 		.ascii	"mainthread\000"
 4924      74687265 
 4924      616400
 4925              	.LASF26:
 4926 02e4 6D73675F 		.ascii	"msg_t\000"
 4926      7400
 4927              	.LASF24:
 4928 02ea 74726566 		.ascii	"trefs_t\000"
 4928      735F7400 
 4929              	.LASF29:
 4930 02f2 75636E74 		.ascii	"ucnt_t\000"
 4930      5F7400
 4931              	.LASF81:
 4932 02f9 63685F73 		.ascii	"ch_system_t\000"
 4932      79737465 
 4932      6D5F7400 
 4933              	.LASF156:
 4934 0305 7072696E 		.ascii	"printElement\000"
 4934      74456C65 
 4934      6D656E74 
 4934      00
 4935              	.LASF22:
 4936 0312 746D6F64 		.ascii	"tmode_t\000"
 4936      655F7400 
 4937              	.LASF113:
 4938 031a 6D5F6372 		.ascii	"m_crit_isr\000"
 4938      69745F69 
 4938      737200
 4939              	.LASF57:
 4940 0325 63685F72 		.ascii	"ch_ready_list\000"
 4940      65616479 
ARM GAS  C:\Users\jo\AppData\Local\Temp\ccN0EpzZ.s 			page 91


 4940      5F6C6973 
 4940      7400
 4941              	.LASF27:
 4942 0333 6576656E 		.ascii	"eventmask_t\000"
 4942      746D6173 
 4942      6B5F7400 
 4943              	.LASF7:
 4944 033f 5F5F696E 		.ascii	"__int32_t\000"
 4944      7433325F 
 4944      7400
 4945              	.LASF178:
 4946 0349 474E5520 		.ascii	"GNU C 4.9.3 20141119 (release) [ARM/embedded-4_9-br"
 4946      4320342E 
 4946      392E3320 
 4946      32303134 
 4946      31313139 
 4947 037c 616E6368 		.ascii	"anch revision 218278] -mcpu=cortex-m4 -mno-thumb-in"
 4947      20726576 
 4947      6973696F 
 4947      6E203231 
 4947      38323738 
 4948 03af 74657277 		.ascii	"terwork -mthumb -ggdb -O2 -fomit-frame-pointer -fal"
 4948      6F726B20 
 4948      2D6D7468 
 4948      756D6220 
 4948      2D676764 
 4949 03e2 69676E2D 		.ascii	"ign-functions=16 -ffunction-sections -fdata-section"
 4949      66756E63 
 4949      74696F6E 
 4949      733D3136 
 4949      202D6666 
 4950 0415 73202D66 		.ascii	"s -fno-common\000"
 4950      6E6F2D63 
 4950      6F6D6D6F 
 4950      6E00
 4951              	.LASF89:
 4952 0423 73746B61 		.ascii	"stkalign_t\000"
 4952      6C69676E 
 4952      5F7400
 4953              	.LASF168:
 4954 042e 72656D6F 		.ascii	"removeAt\000"
 4954      76654174 
 4954      00
 4955              	.LASF136:
 4956 0437 77726974 		.ascii	"write\000"
 4956      6500
 4957              	.LASF43:
 4958 043d 705F7761 		.ascii	"p_waiting\000"
 4958      6974696E 
 4958      6700
 4959              	.LASF14:
 4960 0447 73697A65 		.ascii	"sizetype\000"
 4960      74797065 
 4960      00
 4961              	.LASF73:
 4962 0450 63685F76 		.ascii	"ch_virtual_timers_list\000"
 4962      69727475 
ARM GAS  C:\Users\jo\AppData\Local\Temp\ccN0EpzZ.s 			page 92


 4962      616C5F74 
 4962      696D6572 
 4962      735F6C69 
 4963              	.LASF161:
 4964 0467 636C6561 		.ascii	"clear\000"
 4964      7200
 4965              	.LASF100:
 4966 046d 74625F70 		.ascii	"tb_ptr\000"
 4966      747200
 4967              	.LASF92:
 4968 0474 5F5F676E 		.ascii	"__gnuc_va_list\000"
 4968      75635F76 
 4968      615F6C69 
 4968      737400
 4969              	.LASF98:
 4970 0483 63685F73 		.ascii	"ch_swc_event_t\000"
 4970      77635F65 
 4970      76656E74 
 4970      5F7400
 4971              	.LASF74:
 4972 0492 76745F6C 		.ascii	"vt_lasttime\000"
 4972      61737474 
 4972      696D6500 
 4973              	.LASF102:
 4974 049e 63685F74 		.ascii	"ch_trace_buffer_t\000"
 4974      72616365 
 4974      5F627566 
 4974      6665725F 
 4974      7400
 4975              	.LASF37:
 4976 04b0 705F6F6C 		.ascii	"p_older\000"
 4976      64657200 
 4977              	.LASF60:
 4978 04b8 725F6374 		.ascii	"r_ctx\000"
 4978      7800
 4979              	.LASF104:
 4980 04be 746D5F63 		.ascii	"tm_calibration_t\000"
 4980      616C6962 
 4980      72617469 
 4980      6F6E5F74 
 4980      00
 4981              	.LASF79:
 4982 04cf 6C6F636B 		.ascii	"lock_cnt\000"
 4982      5F636E74 
 4982      00
 4983              	.LASF63:
 4984 04d8 725F6375 		.ascii	"r_current\000"
 4984      7272656E 
 4984      7400
 4985              	.LASF62:
 4986 04e2 725F6F6C 		.ascii	"r_older\000"
 4986      64657200 
 4987              	.LASF145:
 4988 04ea 63757272 		.ascii	"current\000"
 4988      656E7400 
 4989              	.LASF12:
 4990 04f2 5F5F7569 		.ascii	"__uint64_t\000"
ARM GAS  C:\Users\jo\AppData\Local\Temp\ccN0EpzZ.s 			page 93


 4990      6E743634 
 4990      5F7400
 4991              	.LASF108:
 4992 04fd 63756D75 		.ascii	"cumulative\000"
 4992      6C617469 
 4992      766500
 4993              	.LASF141:
 4994 0508 49544D53 		.ascii	"ITMStream\000"
 4994      74726561 
 4994      6D00
 4995              	.LASF101:
 4996 0512 74625F62 		.ascii	"tb_buffer\000"
 4996      75666665 
 4996      7200
 4997              	.LASF65:
 4998 051c 76697274 		.ascii	"virtual_timer_t\000"
 4998      75616C5F 
 4998      74696D65 
 4998      725F7400 
 4999              	.LASF33:
 5000 052c 705F7072 		.ascii	"p_prev\000"
 5000      657600
 5001              	.LASF25:
 5002 0533 74707269 		.ascii	"tprio_t\000"
 5002      6F5F7400 
 5003              	.LASF120:
 5004 053b 6D757465 		.ascii	"mutex\000"
 5004      7800
 5005              	.LASF111:
 5006 0541 6E5F6374 		.ascii	"n_ctxswc\000"
 5006      78737763 
 5006      00
 5007              	.LASF139:
 5008 054a 5F426F6F 		.ascii	"_Bool\000"
 5008      6C00
 5009              	.LASF17:
 5010 0550 696E7433 		.ascii	"int32_t\000"
 5010      325F7400 
 5011              	.LASF4:
 5012 0558 756E7369 		.ascii	"unsigned char\000"
 5012      676E6564 
 5012      20636861 
 5012      7200
 5013              	.LASF121:
 5014 0566 6D5F7175 		.ascii	"m_queue\000"
 5014      65756500 
 5015              	.LASF148:
 5016 056e 44657669 		.ascii	"DeviceList\000"
 5016      63654C69 
 5016      737400
 5017              	.LASF47:
 5018 0579 705F6D74 		.ascii	"p_mtxlist\000"
 5018      786C6973 
 5018      7400
 5019              	.LASF5:
 5020 0583 73686F72 		.ascii	"short int\000"
 5020      7420696E 
ARM GAS  C:\Users\jo\AppData\Local\Temp\ccN0EpzZ.s 			page 94


 5020      7400
 5021              	.LASF40:
 5022 058d 705F7374 		.ascii	"p_state\000"
 5022      61746500 
 5023              	.LASF59:
 5024 0595 725F7072 		.ascii	"r_prio\000"
 5024      696F00
 5025              	.LASF181:
 5026 059c 68656170 		.ascii	"heap_header\000"
 5026      5F686561 
 5026      64657200 
 5027              	.LASF119:
 5028 05a8 65776D61 		.ascii	"ewmask\000"
 5028      736B00
 5029              	.LASF32:
 5030 05af 705F6E65 		.ascii	"p_next\000"
 5030      787400
 5031              	.LASF154:
 5032 05b6 726F6F6D 		.ascii	"rooms\000"
 5032      7300
 5033              	.LASF135:
 5034 05bc 42617365 		.ascii	"BaseSequentialStreamVMT\000"
 5034      53657175 
 5034      656E7469 
 5034      616C5374 
 5034      7265616D 
 5035              	.LASF41:
 5036 05d4 705F666C 		.ascii	"p_flags\000"
 5036      61677300 
 5037              	.LASF50:
 5038 05dc 705F7374 		.ascii	"p_stats\000"
 5038      61747300 
 5039              	.LASF177:
 5040 05e4 61727261 		.ascii	"arrayCopy\000"
 5040      79436F70 
 5040      7900
 5041              	.LASF82:
 5042 05ee 63685F73 		.ascii	"ch_system\000"
 5042      79737465 
 5042      6D00
 5043              	.LASF170:
 5044 05f8 636C6561 		.ascii	"clean\000"
 5044      6E00
 5045              	.LASF174:
 5046 05fe 63684865 		.ascii	"chHeapAlloc\000"
 5046      6170416C 
 5046      6C6F6300 
 5047              	.LASF46:
 5048 060a 705F6570 		.ascii	"p_epending\000"
 5048      656E6469 
 5048      6E6700
 5049              	.LASF18:
 5050 0615 75696E74 		.ascii	"uint32_t\000"
 5050      33325F74 
 5050      00
 5051              	.LASF58:
 5052 061e 725F7175 		.ascii	"r_queue\000"
ARM GAS  C:\Users\jo\AppData\Local\Temp\ccN0EpzZ.s 			page 95


 5052      65756500 
 5053              	.LASF69:
 5054 0626 76745F64 		.ascii	"vt_delta\000"
 5054      656C7461 
 5054      00
 5055              	.LASF53:
 5056 062f 63685F74 		.ascii	"ch_threads_list\000"
 5056      68726561 
 5056      64735F6C 
 5056      69737400 
 5057              	.LASF149:
 5058 063f 52494748 		.ascii	"RIGHT\000"
 5058      5400
 5059              	.LASF132:
 5060 0645 68656170 		.ascii	"heap\000"
 5060      00
 5061              	.LASF10:
 5062 064a 6C6F6E67 		.ascii	"long unsigned int\000"
 5062      20756E73 
 5062      69676E65 
 5062      6420696E 
 5062      7400
 5063              	.LASF137:
 5064 065c 72656164 		.ascii	"read\000"
 5064      00
 5065              	.LASF15:
 5066 0661 63686172 		.ascii	"char\000"
 5066      00
 5067              	.LASF182:
 5068 0666 63687072 		.ascii	"chprintf\000"
 5068      696E7466 
 5068      00
 5069              	.LASF45:
 5070 066f 705F6D73 		.ascii	"p_msg\000"
 5070      6700
 5071              	.LASF140:
 5072 0675 49544D53 		.ascii	"ITMStreamVMT\000"
 5072      74726561 
 5072      6D564D54 
 5072      00
 5073              	.LASF31:
 5074 0682 74687265 		.ascii	"thread_t\000"
 5074      61645F74 
 5074      00
 5075              	.LASF105:
 5076 068b 62657374 		.ascii	"best\000"
 5076      00
 5077              	.LASF123:
 5078 0690 6D5F6E65 		.ascii	"m_next\000"
 5078      787400
 5079              	.LASF30:
 5080 0697 73797374 		.ascii	"systime_t\000"
 5080      696D655F 
 5080      7400
 5081              	.LASF48:
 5082 06a1 705F7265 		.ascii	"p_realprio\000"
 5082      616C7072 
ARM GAS  C:\Users\jo\AppData\Local\Temp\ccN0EpzZ.s 			page 96


 5082      696F00
 5083              	.LASF64:
 5084 06ac 76746675 		.ascii	"vtfunc_t\000"
 5084      6E635F74 
 5084      00
 5085              	.LASF9:
 5086 06b5 5F5F7569 		.ascii	"__uint32_t\000"
 5086      6E743332 
 5086      5F7400
 5087              	.LASF107:
 5088 06c0 6C617374 		.ascii	"last\000"
 5088      00
 5089              	.LASF77:
 5090 06c5 70616E69 		.ascii	"panic_msg\000"
 5090      635F6D73 
 5090      6700
 5091              	.LASF103:
 5092 06cf 6F666673 		.ascii	"offset\000"
 5092      657400
 5093              	.LASF115:
 5094 06d6 5F5F6170 		.ascii	"__ap\000"
 5094      00
 5095              	.LASF90:
 5096 06db 636F6E74 		.ascii	"context\000"
 5096      65787400 
 5097              	.LASF183:
 5098 06e3 66726565 		.ascii	"free\000"
 5098      00
 5099              	.LASF151:
 5100 06e8 53686966 		.ascii	"Shift\000"
 5100      7400
 5101              	.LASF66:
 5102 06ee 63685F76 		.ascii	"ch_virtual_timer\000"
 5102      69727475 
 5102      616C5F74 
 5102      696D6572 
 5102      00
 5103              	.LASF20:
 5104 06ff 7274636E 		.ascii	"rtcnt_t\000"
 5104      745F7400 
 5105              	.LASF125:
 5106 0707 6D656D67 		.ascii	"memgetfunc_t\000"
 5106      65746675 
 5106      6E635F74 
 5106      00
 5107              	.LASF71:
 5108 0714 76745F70 		.ascii	"vt_par\000"
 5108      617200
 5109              	.LASF172:
 5110 071b 69746D5F 		.ascii	"itm_port\000"
 5110      706F7274 
 5110      00
 5111              	.LASF54:
 5112 0724 74687265 		.ascii	"threads_queue_t\000"
 5112      6164735F 
 5112      71756575 
 5112      655F7400 
ARM GAS  C:\Users\jo\AppData\Local\Temp\ccN0EpzZ.s 			page 97


 5113              	.LASF38:
 5114 0734 705F6E61 		.ascii	"p_name\000"
 5114      6D6500
 5115              	.LASF42:
 5116 073b 705F7265 		.ascii	"p_refs\000"
 5116      667300
 5117              	.LASF78:
 5118 0742 6973725F 		.ascii	"isr_cnt\000"
 5118      636E7400 
 5119              	.LASF175:
 5120 074a 63616C6C 		.ascii	"calloc\000"
 5120      6F6300
 5121              	.LASF83:
 5122 0751 726C6973 		.ascii	"rlist\000"
 5122      7400
 5123              	.LASF16:
 5124 0757 75696E74 		.ascii	"uint8_t\000"
 5124      385F7400 
 5125              	.LASF173:
 5126 075f 63687670 		.ascii	"chvprintf\000"
 5126      72696E74 
 5126      6600
 5127              	.LASF144:
 5128 0769 456C656D 		.ascii	"Element\000"
 5128      656E7400 
 5129              	.LASF176:
 5130 0771 696E6974 		.ascii	"initWithSize\000"
 5130      57697468 
 5130      53697A65 
 5130      00
 5131              	.LASF128:
 5132 077e 685F7072 		.ascii	"h_provider\000"
 5132      6F766964 
 5132      657200
 5133              	.LASF118:
 5134 0789 77746F62 		.ascii	"wtobjp\000"
 5134      6A7000
 5135              	.LASF153:
 5136 0790 696E6465 		.ascii	"index\000"
 5136      7800
 5137              	.LASF179:
 5138 0796 41727261 		.ascii	"ArrayList.c\000"
 5138      794C6973 
 5138      742E6300 
 5139              	.LASF134:
 5140 07a2 73697A65 		.ascii	"size\000"
 5140      00
 5141              	.LASF163:
 5142 07a7 6E657741 		.ascii	"newArr\000"
 5142      727200
 5143              	.LASF51:
 5144 07ae 74687265 		.ascii	"threads_list_t\000"
 5144      6164735F 
 5144      6C697374 
 5144      5F7400
 5145              	.LASF80:
 5146 07bd 74726163 		.ascii	"trace_buffer\000"
ARM GAS  C:\Users\jo\AppData\Local\Temp\ccN0EpzZ.s 			page 98


 5146      655F6275 
 5146      66666572 
 5146      00
 5147              	.LASF76:
 5148 07ca 63685F73 		.ascii	"ch_system_debug\000"
 5148      79737465 
 5148      6D5F6465 
 5148      62756700 
 5149              	.LASF152:
 5150 07da 6C697374 		.ascii	"list\000"
 5150      00
 5151              	.LASF112:
 5152 07df 6D5F6372 		.ascii	"m_crit_thd\000"
 5152      69745F74 
 5152      686400
 5153              	.LASF122:
 5154 07ea 6D5F6F77 		.ascii	"m_owner\000"
 5154      6E657200 
 5155              	.LASF96:
 5156 07f2 73655F77 		.ascii	"se_wtobjp\000"
 5156      746F626A 
 5156      7000
 5157              	.LASF35:
 5158 07fc 705F6374 		.ascii	"p_ctx\000"
 5158      7800
 5159              	.LASF70:
 5160 0802 76745F66 		.ascii	"vt_func\000"
 5160      756E6300 
 5161              	.LASF55:
 5162 080a 63685F74 		.ascii	"ch_threads_queue\000"
 5162      68726561 
 5162      64735F71 
 5162      75657565 
 5162      00
 5163              	.LASF127:
 5164 081b 6D656D6F 		.ascii	"memory_heap\000"
 5164      72795F68 
 5164      65617000 
 5165              		.ident	"GCC: (GNU Tools for ARM Embedded Processors) 4.9.3 20141119 (release) [ARM/embedded-4_9-br
ARM GAS  C:\Users\jo\AppData\Local\Temp\ccN0EpzZ.s 			page 99


DEFINED SYMBOLS
                            *ABS*:00000000 ArrayList.c
C:\Users\jo\AppData\Local\Temp\ccN0EpzZ.s:19     .text.chprintf.constprop.2:00000000 $t
C:\Users\jo\AppData\Local\Temp\ccN0EpzZ.s:24     .text.chprintf.constprop.2:00000000 chprintf.constprop.2
C:\Users\jo\AppData\Local\Temp\ccN0EpzZ.s:70     .text.chprintf.constprop.2:00000020 $d
C:\Users\jo\AppData\Local\Temp\ccN0EpzZ.s:75     .text.initWithSizeAndIncRate:00000000 $t
C:\Users\jo\AppData\Local\Temp\ccN0EpzZ.s:81     .text.initWithSizeAndIncRate:00000000 initWithSizeAndIncRate
C:\Users\jo\AppData\Local\Temp\ccN0EpzZ.s:123    .text.initWithSizeAndIncRate:00000024 $d
C:\Users\jo\AppData\Local\Temp\ccN0EpzZ.s:129    .text.initWithSize:00000000 $t
C:\Users\jo\AppData\Local\Temp\ccN0EpzZ.s:135    .text.initWithSize:00000000 initWithSize
C:\Users\jo\AppData\Local\Temp\ccN0EpzZ.s:151    .text.init:00000000 $t
C:\Users\jo\AppData\Local\Temp\ccN0EpzZ.s:157    .text.init:00000000 init
C:\Users\jo\AppData\Local\Temp\ccN0EpzZ.s:178    .text.clear:00000000 $t
C:\Users\jo\AppData\Local\Temp\ccN0EpzZ.s:184    .text.clear:00000000 clear
C:\Users\jo\AppData\Local\Temp\ccN0EpzZ.s:214    .text.set:00000000 $t
C:\Users\jo\AppData\Local\Temp\ccN0EpzZ.s:220    .text.set:00000000 set
C:\Users\jo\AppData\Local\Temp\ccN0EpzZ.s:246    .text.get:00000000 $t
C:\Users\jo\AppData\Local\Temp\ccN0EpzZ.s:252    .text.get:00000000 get
C:\Users\jo\AppData\Local\Temp\ccN0EpzZ.s:278    .text.add:00000000 $t
C:\Users\jo\AppData\Local\Temp\ccN0EpzZ.s:284    .text.add:00000000 add
C:\Users\jo\AppData\Local\Temp\ccN0EpzZ.s:404    .text.add:00000080 $d
C:\Users\jo\AppData\Local\Temp\ccN0EpzZ.s:412    .text.insert:00000000 $t
C:\Users\jo\AppData\Local\Temp\ccN0EpzZ.s:418    .text.insert:00000000 insert
C:\Users\jo\AppData\Local\Temp\ccN0EpzZ.s:500    .text.lastIndexOf:00000000 $t
C:\Users\jo\AppData\Local\Temp\ccN0EpzZ.s:506    .text.lastIndexOf:00000000 lastIndexOf
C:\Users\jo\AppData\Local\Temp\ccN0EpzZ.s:570    .text.indexOf:00000000 $t
C:\Users\jo\AppData\Local\Temp\ccN0EpzZ.s:576    .text.indexOf:00000000 indexOf
C:\Users\jo\AppData\Local\Temp\ccN0EpzZ.s:627    .text.isEmpty:00000000 $t
C:\Users\jo\AppData\Local\Temp\ccN0EpzZ.s:633    .text.isEmpty:00000000 isEmpty
C:\Users\jo\AppData\Local\Temp\ccN0EpzZ.s:653    .text.removeAt:00000000 $t
C:\Users\jo\AppData\Local\Temp\ccN0EpzZ.s:659    .text.removeAt:00000000 removeAt
C:\Users\jo\AppData\Local\Temp\ccN0EpzZ.s:738    .text.print:00000000 $t
C:\Users\jo\AppData\Local\Temp\ccN0EpzZ.s:744    .text.print:00000000 print
C:\Users\jo\AppData\Local\Temp\ccN0EpzZ.s:831    .text.print:00000058 $d
C:\Users\jo\AppData\Local\Temp\ccN0EpzZ.s:841    .text.clean:00000000 $t
C:\Users\jo\AppData\Local\Temp\ccN0EpzZ.s:847    .text.clean:00000000 clean
C:\Users\jo\AppData\Local\Temp\ccN0EpzZ.s:864    .rodata.str1.4:00000000 $d
                     .debug_frame:00000010 $d
C:\Users\jo\AppData\Local\Temp\ccN0EpzZ.s:74     .text.chprintf.constprop.2:00000024 $t
C:\Users\jo\AppData\Local\Temp\ccN0EpzZ.s:128    .text.initWithSizeAndIncRate:0000002c $t

UNDEFINED SYMBOLS
chvprintf
itm_port
chHeapAlloc
calloc
arrayCopy
free
