ARM GAS  C:\Users\jo\AppData\Local\Temp\ccrpD54K.s 			page 1


   1              		.syntax unified
   2              		.cpu cortex-m4
   3              		.fpu softvfp
   4              		.eabi_attribute 20, 1
   5              		.eabi_attribute 21, 1
   6              		.eabi_attribute 23, 3
   7              		.eabi_attribute 24, 1
   8              		.eabi_attribute 25, 1
   9              		.eabi_attribute 26, 1
  10              		.eabi_attribute 30, 2
  11              		.eabi_attribute 34, 1
  12              		.eabi_attribute 18, 4
  13              		.thumb
  14              		.file	"ArrayCopy.c"
  15              		.text
  16              	.Ltext0:
  17              		.cfi_sections	.debug_frame
  18              		.section	.text.arrayCopy,"ax",%progbits
  19              		.align	2
  20              		.p2align 4,,15
  21              		.global	arrayCopy
  22              		.thumb
  23              		.thumb_func
  24              		.type	arrayCopy, %function
  25              	arrayCopy:
  26              	.LFB0:
  27              		.file 1 "ArrayCopy.c"
  28              		.loc 1 8 0
  29              		.cfi_startproc
  30              		@ args = 12, pretend = 0, frame = 0
  31              		@ frame_needed = 0, uses_anonymous_args = 0
  32              	.LVL0:
  33 0000 2DE9F047 		push	{r4, r5, r6, r7, r8, r9, r10, lr}
  34              		.cfi_def_cfa_offset 32
  35              		.cfi_offset 4, -32
  36              		.cfi_offset 5, -28
  37              		.cfi_offset 6, -24
  38              		.cfi_offset 7, -20
  39              		.cfi_offset 8, -16
  40              		.cfi_offset 9, -12
  41              		.cfi_offset 10, -8
  42              		.cfi_offset 14, -4
  43              		.loc 1 8 0
  44 0004 0A9C     		ldr	r4, [sp, #40]
  45 0006 089D     		ldr	r5, [sp, #32]
  46 0008 DDF824E0 		ldr	lr, [sp, #36]
  47              	.LVL1:
  48              		.loc 1 16 0
  49 000c 8242     		cmp	r2, r0
  50              		.loc 1 8 0
  51 000e 1646     		mov	r6, r2
  52              	.LVL2:
  53              		.loc 1 13 0
  54 0010 05FB04F5 		mul	r5, r5, r4
  55              		.loc 1 11 0
  56 0014 04FB01F7 		mul	r7, r4, r1
  57              	.LVL3:
ARM GAS  C:\Users\jo\AppData\Local\Temp\ccrpD54K.s 			page 2


  58              		.loc 1 12 0
  59 0018 04FB03F8 		mul	r8, r4, r3
  60              	.LVL4:
  61              		.loc 1 16 0
  62 001c 07D0     		beq	.L2
  63              		.loc 1 18 0
  64 001e 02EB0801 		add	r1, r2, r8
  65 0022 3844     		add	r0, r0, r7
  66              	.LVL5:
  67 0024 2A46     		mov	r2, r5
  68              	.LVL6:
  69              		.loc 1 34 0
  70 0026 BDE8F047 		pop	{r4, r5, r6, r7, r8, r9, r10, lr}
  71              		.cfi_remember_state
  72              		.cfi_restore 14
  73              		.cfi_restore 10
  74              		.cfi_restore 9
  75              		.cfi_restore 8
  76              		.cfi_restore 7
  77              		.cfi_restore 6
  78              		.cfi_restore 5
  79              		.cfi_restore 4
  80              		.cfi_def_cfa_offset 0
  81              	.LVL7:
  82              		.loc 1 18 0
  83 002a FFF7FEBF 		b	memcpy
  84              	.LVL8:
  85              	.L2:
  86              		.cfi_restore_state
  87              		.loc 1 21 0
  88 002e 4745     		cmp	r7, r8
  89              		.loc 1 14 0
  90 0030 0EFB04F0 		mul	r0, lr, r4
  91              	.LVL9:
  92              		.loc 1 21 0
  93 0034 0CDC     		bgt	.L7
  94              		.loc 1 28 0
  95 0036 01DB     		blt	.L8
  96 0038 BDE8F087 		pop	{r4, r5, r6, r7, r8, r9, r10, pc}
  97              	.LVL10:
  98              	.L8:
  99              		.loc 1 30 0
 100 003c C8EB0002 		rsb	r2, r8, r0
 101              	.LVL11:
 102 0040 06EB0801 		add	r1, r6, r8
 103 0044 F019     		adds	r0, r6, r7
 104 0046 0132     		adds	r2, r2, #1
 105              		.loc 1 34 0
 106 0048 BDE8F047 		pop	{r4, r5, r6, r7, r8, r9, r10, lr}
 107              		.cfi_remember_state
 108              		.cfi_restore 14
 109              		.cfi_restore 10
 110              		.cfi_restore 9
 111              		.cfi_restore 8
 112              		.cfi_restore 7
 113              		.cfi_restore 6
 114              		.cfi_restore 5
ARM GAS  C:\Users\jo\AppData\Local\Temp\ccrpD54K.s 			page 3


 115              		.cfi_restore 4
 116              		.cfi_def_cfa_offset 0
 117              	.LVL12:
 118              		.loc 1 30 0
 119 004c FFF7FEBF 		b	memcpy
 120              	.LVL13:
 121              	.L7:
 122              		.cfi_restore_state
 123              	.LBB2:
 124              		.loc 1 23 0
 125 0050 2146     		mov	r1, r4
 126              		.loc 1 24 0
 127 0052 02EB070A 		add	r10, r2, r7
 128 0056 C7EB0009 		rsb	r9, r7, r0
 129              		.loc 1 23 0
 130 005a FFF7FEFF 		bl	calloc
 131              	.LVL14:
 132              		.loc 1 24 0
 133 005e 4A46     		mov	r2, r9
 134 0060 5146     		mov	r1, r10
 135              		.loc 1 23 0
 136 0062 0446     		mov	r4, r0
 137              	.LVL15:
 138              		.loc 1 24 0
 139 0064 FFF7FEFF 		bl	memcpy
 140              	.LVL16:
 141              		.loc 1 25 0
 142 0068 06EB0801 		add	r1, r6, r8
 143 006c 2A46     		mov	r2, r5
 144 006e 5046     		mov	r0, r10
 145 0070 FFF7FEFF 		bl	memcpy
 146              	.LVL17:
 147              		.loc 1 26 0
 148 0074 7819     		adds	r0, r7, r5
 149 0076 4A46     		mov	r2, r9
 150 0078 3044     		add	r0, r0, r6
 151 007a 2146     		mov	r1, r4
 152 007c FFF7FEFF 		bl	memcpy
 153              	.LVL18:
 154              		.loc 1 27 0
 155 0080 2046     		mov	r0, r4
 156              	.LBE2:
 157              		.loc 1 34 0
 158 0082 BDE8F047 		pop	{r4, r5, r6, r7, r8, r9, r10, lr}
 159              		.cfi_restore 14
 160              		.cfi_restore 10
 161              		.cfi_restore 9
 162              		.cfi_restore 8
 163              		.cfi_restore 7
 164              		.cfi_restore 6
 165              		.cfi_restore 5
 166              		.cfi_restore 4
 167              		.cfi_def_cfa_offset 0
 168              	.LVL19:
 169              	.LBB3:
 170              		.loc 1 27 0
 171 0086 FFF7FEBF 		b	free
ARM GAS  C:\Users\jo\AppData\Local\Temp\ccrpD54K.s 			page 4


 172              	.LVL20:
 173              	.LBE3:
 174              		.cfi_endproc
 175              	.LFE0:
 176              		.size	arrayCopy, .-arrayCopy
 177 008a 00BFAFF3 		.text
 177      0080
 178              	.Letext0:
 179              		.file 2 "c:\\program files\\gnu tools arm embedded\\4.9 2014q4\\lib\\gcc\\arm-none-eabi\\4.9.3\\in
 180              		.file 3 "c:\\program files\\gnu tools arm embedded\\4.9 2014q4\\arm-none-eabi\\include\\machine\\_
 181              		.file 4 "c:\\program files\\gnu tools arm embedded\\4.9 2014q4\\arm-none-eabi\\include\\stdint.h"
 182              		.file 5 "c:\\program files\\gnu tools arm embedded\\4.9 2014q4\\arm-none-eabi\\include\\stdlib.h"