ARM GAS  C:\Users\jo\AppData\Local\Temp\ccrpD54K.s 			page 1


   1              		.syntax unified
   2              		.cpu cortex-m4
   3              		.fpu softvfp
   4              		.eabi_attribute 20, 1
   5              		.eabi_attribute 21, 1
   6              		.eabi_attribute 23, 3
   7              		.eabi_attribute 24, 1
   8              		.eabi_attribute 25, 1
   9              		.eabi_attribute 26, 1
  10              		.eabi_attribute 30, 2
  11              		.eabi_attribute 34, 1
  12              		.eabi_attribute 18, 4
  13              		.thumb
  14              		.file	"ArrayCopy.c"
  15              		.text
  16              	.Ltext0:
  17              		.cfi_sections	.debug_frame
  18              		.section	.text.arrayCopy,"ax",%progbits
  19              		.align	2
  20              		.p2align 4,,15
  21              		.global	arrayCopy
  22              		.thumb
  23              		.thumb_func
  24              		.type	arrayCopy, %function
  25              	arrayCopy:
  26              	.LFB0:
  27              		.file 1 "ArrayCopy.c"
  28              		.loc 1 8 0
  29              		.cfi_startproc
  30              		@ args = 12, pretend = 0, frame = 0
  31              		@ frame_needed = 0, uses_anonymous_args = 0
  32              	.LVL0:
  33 0000 2DE9F047 		push	{r4, r5, r6, r7, r8, r9, r10, lr}
  34              		.cfi_def_cfa_offset 32
  35              		.cfi_offset 4, -32
  36              		.cfi_offset 5, -28
  37              		.cfi_offset 6, -24
  38              		.cfi_offset 7, -20
  39              		.cfi_offset 8, -16
  40              		.cfi_offset 9, -12
  41              		.cfi_offset 10, -8
  42              		.cfi_offset 14, -4
  43              		.loc 1 8 0
  44 0004 0A9C     		ldr	r4, [sp, #40]
  45 0006 089D     		ldr	r5, [sp, #32]
  46 0008 DDF824E0 		ldr	lr, [sp, #36]
  47              	.LVL1:
  48              		.loc 1 16 0
  49 000c 8242     		cmp	r2, r0
  50              		.loc 1 8 0
  51 000e 1646     		mov	r6, r2
  52              	.LVL2:
  53              		.loc 1 13 0
  54 0010 05FB04F5 		mul	r5, r5, r4
  55              		.loc 1 11 0
  56 0014 04FB01F7 		mul	r7, r4, r1
  57              	.LVL3:
ARM GAS  C:\Users\jo\AppData\Local\Temp\ccrpD54K.s 			page 2


  58              		.loc 1 12 0
  59 0018 04FB03F8 		mul	r8, r4, r3
  60              	.LVL4:
  61              		.loc 1 16 0
  62 001c 07D0     		beq	.L2
  63              		.loc 1 18 0
  64 001e 02EB0801 		add	r1, r2, r8
  65 0022 3844     		add	r0, r0, r7
  66              	.LVL5:
  67 0024 2A46     		mov	r2, r5
  68              	.LVL6:
  69              		.loc 1 34 0
  70 0026 BDE8F047 		pop	{r4, r5, r6, r7, r8, r9, r10, lr}
  71              		.cfi_remember_state
  72              		.cfi_restore 14
  73              		.cfi_restore 10
  74              		.cfi_restore 9
  75              		.cfi_restore 8
  76              		.cfi_restore 7
  77              		.cfi_restore 6
  78              		.cfi_restore 5
  79              		.cfi_restore 4
  80              		.cfi_def_cfa_offset 0
  81              	.LVL7:
  82              		.loc 1 18 0
  83 002a FFF7FEBF 		b	memcpy
  84              	.LVL8:
  85              	.L2:
  86              		.cfi_restore_state
  87              		.loc 1 21 0
  88 002e 4745     		cmp	r7, r8
  89              		.loc 1 14 0
  90 0030 0EFB04F0 		mul	r0, lr, r4
  91              	.LVL9:
  92              		.loc 1 21 0
  93 0034 0CDC     		bgt	.L7
  94              		.loc 1 28 0
  95 0036 01DB     		blt	.L8
  96 0038 BDE8F087 		pop	{r4, r5, r6, r7, r8, r9, r10, pc}
  97              	.LVL10:
  98              	.L8:
  99              		.loc 1 30 0
 100 003c C8EB0002 		rsb	r2, r8, r0
 101              	.LVL11:
 102 0040 06EB0801 		add	r1, r6, r8
 103 0044 F019     		adds	r0, r6, r7
 104 0046 0132     		adds	r2, r2, #1
 105              		.loc 1 34 0
 106 0048 BDE8F047 		pop	{r4, r5, r6, r7, r8, r9, r10, lr}
 107              		.cfi_remember_state
 108              		.cfi_restore 14
 109              		.cfi_restore 10
 110              		.cfi_restore 9
 111              		.cfi_restore 8
 112              		.cfi_restore 7
 113              		.cfi_restore 6
 114              		.cfi_restore 5
ARM GAS  C:\Users\jo\AppData\Local\Temp\ccrpD54K.s 			page 3


 115              		.cfi_restore 4
 116              		.cfi_def_cfa_offset 0
 117              	.LVL12:
 118              		.loc 1 30 0
 119 004c FFF7FEBF 		b	memcpy
 120              	.LVL13:
 121              	.L7:
 122              		.cfi_restore_state
 123              	.LBB2:
 124              		.loc 1 23 0
 125 0050 2146     		mov	r1, r4
 126              		.loc 1 24 0
 127 0052 02EB070A 		add	r10, r2, r7
 128 0056 C7EB0009 		rsb	r9, r7, r0
 129              		.loc 1 23 0
 130 005a FFF7FEFF 		bl	calloc
 131              	.LVL14:
 132              		.loc 1 24 0
 133 005e 4A46     		mov	r2, r9
 134 0060 5146     		mov	r1, r10
 135              		.loc 1 23 0
 136 0062 0446     		mov	r4, r0
 137              	.LVL15:
 138              		.loc 1 24 0
 139 0064 FFF7FEFF 		bl	memcpy
 140              	.LVL16:
 141              		.loc 1 25 0
 142 0068 06EB0801 		add	r1, r6, r8
 143 006c 2A46     		mov	r2, r5
 144 006e 5046     		mov	r0, r10
 145 0070 FFF7FEFF 		bl	memcpy
 146              	.LVL17:
 147              		.loc 1 26 0
 148 0074 7819     		adds	r0, r7, r5
 149 0076 4A46     		mov	r2, r9
 150 0078 3044     		add	r0, r0, r6
 151 007a 2146     		mov	r1, r4
 152 007c FFF7FEFF 		bl	memcpy
 153              	.LVL18:
 154              		.loc 1 27 0
 155 0080 2046     		mov	r0, r4
 156              	.LBE2:
 157              		.loc 1 34 0
 158 0082 BDE8F047 		pop	{r4, r5, r6, r7, r8, r9, r10, lr}
 159              		.cfi_restore 14
 160              		.cfi_restore 10
 161              		.cfi_restore 9
 162              		.cfi_restore 8
 163              		.cfi_restore 7
 164              		.cfi_restore 6
 165              		.cfi_restore 5
 166              		.cfi_restore 4
 167              		.cfi_def_cfa_offset 0
 168              	.LVL19:
 169              	.LBB3:
 170              		.loc 1 27 0
 171 0086 FFF7FEBF 		b	free
ARM GAS  C:\Users\jo\AppData\Local\Temp\ccrpD54K.s 			page 4


 172              	.LVL20:
 173              	.LBE3:
 174              		.cfi_endproc
 175              	.LFE0:
 176              		.size	arrayCopy, .-arrayCopy
 177 008a 00BFAFF3 		.text
 177      0080
 178              	.Letext0:
 179              		.file 2 "c:\\program files\\gnu tools arm embedded\\4.9 2014q4\\lib\\gcc\\arm-none-eabi\\4.9.3\\in
 180              		.file 3 "c:\\program files\\gnu tools arm embedded\\4.9 2014q4\\arm-none-eabi\\include\\machine\\_
 181              		.file 4 "c:\\program files\\gnu tools arm embedded\\4.9 2014q4\\arm-none-eabi\\include\\stdint.h"
 182              		.file 5 "c:\\program files\\gnu tools arm embedded\\4.9 2014q4\\arm-none-eabi\\include\\stdlib.h"
 183              		.section	.debug_info,"",%progbits
 184              	.Ldebug_info0:
 185 0000 A4020000 		.4byte	0x2a4
 186 0004 0400     		.2byte	0x4
 187 0006 00000000 		.4byte	.Ldebug_abbrev0
 188 000a 04       		.byte	0x4
 189 000b 01       		.uleb128 0x1
 190 000c C5000000 		.4byte	.LASF21
 191 0010 01       		.byte	0x1
 192 0011 F5010000 		.4byte	.LASF22
 193 0015 00000000 		.4byte	.LASF23
 194 0019 18000000 		.4byte	.Ldebug_ranges0+0x18
 195 001d 00000000 		.4byte	0
 196 0021 00000000 		.4byte	.Ldebug_line0
 197 0025 02       		.uleb128 0x2
 198 0026 04       		.byte	0x4
 199 0027 05       		.byte	0x5
 200 0028 696E7400 		.ascii	"int\000"
 201 002c 03       		.uleb128 0x3
 202 002d 9C000000 		.4byte	.LASF2
 203 0031 02       		.byte	0x2
 204 0032 D4       		.byte	0xd4
 205 0033 37000000 		.4byte	0x37
 206 0037 04       		.uleb128 0x4
 207 0038 04       		.byte	0x4
 208 0039 07       		.byte	0x7
 209 003a B8000000 		.4byte	.LASF0
 210 003e 04       		.uleb128 0x4
 211 003f 01       		.byte	0x1
 212 0040 06       		.byte	0x6
 213 0041 16020000 		.4byte	.LASF1
 214 0045 03       		.uleb128 0x3
 215 0046 55000000 		.4byte	.LASF3
 216 004a 03       		.byte	0x3
 217 004b 1D       		.byte	0x1d
 218 004c 50000000 		.4byte	0x50
 219 0050 04       		.uleb128 0x4
 220 0051 01       		.byte	0x1
 221 0052 08       		.byte	0x8
 222 0053 A3000000 		.4byte	.LASF4
 223 0057 04       		.uleb128 0x4
 224 0058 02       		.byte	0x2
 225 0059 05       		.byte	0x5
 226 005a EB010000 		.4byte	.LASF5
 227 005e 04       		.uleb128 0x4
ARM GAS  C:\Users\jo\AppData\Local\Temp\ccrpD54K.s 			page 5


 228 005f 02       		.byte	0x2
 229 0060 07       		.byte	0x7
 230 0061 89000000 		.4byte	.LASF6
 231 0065 04       		.uleb128 0x4
 232 0066 04       		.byte	0x4
 233 0067 05       		.byte	0x5
 234 0068 08020000 		.4byte	.LASF7
 235 006c 04       		.uleb128 0x4
 236 006d 04       		.byte	0x4
 237 006e 07       		.byte	0x7
 238 006f 77000000 		.4byte	.LASF8
 239 0073 04       		.uleb128 0x4
 240 0074 08       		.byte	0x8
 241 0075 05       		.byte	0x5
 242 0076 CC010000 		.4byte	.LASF9
 243 007a 04       		.uleb128 0x4
 244 007b 08       		.byte	0x8
 245 007c 07       		.byte	0x7
 246 007d 9F010000 		.4byte	.LASF10
 247 0081 04       		.uleb128 0x4
 248 0082 04       		.byte	0x4
 249 0083 07       		.byte	0x7
 250 0084 BE010000 		.4byte	.LASF11
 251 0088 05       		.uleb128 0x5
 252 0089 04       		.byte	0x4
 253 008a 04       		.uleb128 0x4
 254 008b 01       		.byte	0x1
 255 008c 08       		.byte	0x8
 256 008d 11020000 		.4byte	.LASF12
 257 0091 03       		.uleb128 0x3
 258 0092 B6010000 		.4byte	.LASF13
 259 0096 04       		.byte	0x4
 260 0097 15       		.byte	0x15
 261 0098 45000000 		.4byte	0x45
 262 009c 06       		.uleb128 0x6
 263 009d 04       		.byte	0x4
 264 009e A2000000 		.4byte	0xa2
 265 00a2 07       		.uleb128 0x7
 266 00a3 08       		.uleb128 0x8
 267 00a4 DA010000 		.4byte	.LASF24
 268 00a8 01       		.byte	0x1
 269 00a9 07       		.byte	0x7
 270 00aa 00000000 		.4byte	.LFB0
 271 00ae 8A000000 		.4byte	.LFE0-.LFB0
 272 00b2 01       		.uleb128 0x1
 273 00b3 9C       		.byte	0x9c
 274 00b4 5D020000 		.4byte	0x25d
 275 00b8 09       		.uleb128 0x9
 276 00b9 6D000000 		.4byte	.LASF14
 277 00bd 01       		.byte	0x1
 278 00be 07       		.byte	0x7
 279 00bf 88000000 		.4byte	0x88
 280 00c3 00000000 		.4byte	.LLST0
 281 00c7 09       		.uleb128 0x9
 282 00c8 01020000 		.4byte	.LASF15
 283 00cc 01       		.byte	0x1
 284 00cd 07       		.byte	0x7
ARM GAS  C:\Users\jo\AppData\Local\Temp\ccrpD54K.s 			page 6


 285 00ce 25000000 		.4byte	0x25
 286 00d2 3A000000 		.4byte	.LLST1
 287 00d6 0A       		.uleb128 0xa
 288 00d7 73726300 		.ascii	"src\000"
 289 00db 01       		.byte	0x1
 290 00dc 07       		.byte	0x7
 291 00dd 9C000000 		.4byte	0x9c
 292 00e1 A4000000 		.4byte	.LLST2
 293 00e5 09       		.uleb128 0x9
 294 00e6 B1000000 		.4byte	.LASF16
 295 00ea 01       		.byte	0x1
 296 00eb 07       		.byte	0x7
 297 00ec 25000000 		.4byte	0x25
 298 00f0 18010000 		.4byte	.LLST3
 299 00f4 0A       		.uleb128 0xa
 300 00f5 6C656E00 		.ascii	"len\000"
 301 00f9 01       		.byte	0x1
 302 00fa 07       		.byte	0x7
 303 00fb 25000000 		.4byte	0x25
 304 00ff A4010000 		.4byte	.LLST4
 305 0103 09       		.uleb128 0x9
 306 0104 5F000000 		.4byte	.LASF17
 307 0108 01       		.byte	0x1
 308 0109 07       		.byte	0x7
 309 010a 25000000 		.4byte	0x25
 310 010e 1A020000 		.4byte	.LLST5
 311 0112 09       		.uleb128 0x9
 312 0113 72000000 		.4byte	.LASF18
 313 0117 01       		.byte	0x1
 314 0118 07       		.byte	0x7
 315 0119 2C000000 		.4byte	0x2c
 316 011d B7020000 		.4byte	.LLST6
 317 0121 0B       		.uleb128 0xb
 318 0122 67000000 		.4byte	.LASF19
 319 0126 01       		.byte	0x1
 320 0127 09       		.byte	0x9
 321 0128 5D020000 		.4byte	0x25d
 322 012c 07030000 		.4byte	.LLST7
 323 0130 0B       		.uleb128 0xb
 324 0131 22020000 		.4byte	.LASF20
 325 0135 01       		.byte	0x1
 326 0136 0A       		.byte	0xa
 327 0137 5D020000 		.4byte	0x25d
 328 013b 41030000 		.4byte	.LLST8
 329 013f 0C       		.uleb128 0xc
 330 0140 00000000 		.4byte	.Ldebug_ranges0+0
 331 0144 E8010000 		.4byte	0x1e8
 332 0148 0D       		.uleb128 0xd
 333 0149 746D7000 		.ascii	"tmp\000"
 334 014d 01       		.byte	0x1
 335 014e 17       		.byte	0x17
 336 014f 5D020000 		.4byte	0x25d
 337 0153 B5030000 		.4byte	.LLST9
 338 0157 0E       		.uleb128 0xe
 339 0158 5E000000 		.4byte	.LVL14
 340 015c 63020000 		.4byte	0x263
 341 0160 75010000 		.4byte	0x175
ARM GAS  C:\Users\jo\AppData\Local\Temp\ccrpD54K.s 			page 7


 342 0164 0F       		.uleb128 0xf
 343 0165 01       		.uleb128 0x1
 344 0166 51       		.byte	0x51
 345 0167 02       		.uleb128 0x2
 346 0168 74       		.byte	0x74
 347 0169 00       		.sleb128 0
 348 016a 0F       		.uleb128 0xf
 349 016b 01       		.uleb128 0x1
 350 016c 50       		.byte	0x50
 351 016d 06       		.uleb128 0x6
 352 016e 91       		.byte	0x91
 353 016f 04       		.sleb128 4
 354 0170 06       		.byte	0x6
 355 0171 74       		.byte	0x74
 356 0172 00       		.sleb128 0
 357 0173 1E       		.byte	0x1e
 358 0174 00       		.byte	0
 359 0175 0E       		.uleb128 0xe
 360 0176 68000000 		.4byte	.LVL16
 361 017a 7D020000 		.4byte	0x27d
 362 017e 95010000 		.4byte	0x195
 363 0182 0F       		.uleb128 0xf
 364 0183 01       		.uleb128 0x1
 365 0184 52       		.byte	0x52
 366 0185 02       		.uleb128 0x2
 367 0186 79       		.byte	0x79
 368 0187 00       		.sleb128 0
 369 0188 0F       		.uleb128 0xf
 370 0189 01       		.uleb128 0x1
 371 018a 51       		.byte	0x51
 372 018b 02       		.uleb128 0x2
 373 018c 7A       		.byte	0x7a
 374 018d 00       		.sleb128 0
 375 018e 0F       		.uleb128 0xf
 376 018f 01       		.uleb128 0x1
 377 0190 50       		.byte	0x50
 378 0191 02       		.uleb128 0x2
 379 0192 74       		.byte	0x74
 380 0193 00       		.sleb128 0
 381 0194 00       		.byte	0
 382 0195 0E       		.uleb128 0xe
 383 0196 74000000 		.4byte	.LVL17
 384 019a 7D020000 		.4byte	0x27d
 385 019e B8010000 		.4byte	0x1b8
 386 01a2 0F       		.uleb128 0xf
 387 01a3 01       		.uleb128 0x1
 388 01a4 52       		.byte	0x52
 389 01a5 02       		.uleb128 0x2
 390 01a6 75       		.byte	0x75
 391 01a7 00       		.sleb128 0
 392 01a8 0F       		.uleb128 0xf
 393 01a9 01       		.uleb128 0x1
 394 01aa 51       		.byte	0x51
 395 01ab 05       		.uleb128 0x5
 396 01ac 76       		.byte	0x76
 397 01ad 00       		.sleb128 0
 398 01ae 78       		.byte	0x78
ARM GAS  C:\Users\jo\AppData\Local\Temp\ccrpD54K.s 			page 8


 399 01af 00       		.sleb128 0
 400 01b0 22       		.byte	0x22
 401 01b1 0F       		.uleb128 0xf
 402 01b2 01       		.uleb128 0x1
 403 01b3 50       		.byte	0x50
 404 01b4 02       		.uleb128 0x2
 405 01b5 7A       		.byte	0x7a
 406 01b6 00       		.sleb128 0
 407 01b7 00       		.byte	0
 408 01b8 0E       		.uleb128 0xe
 409 01b9 80000000 		.4byte	.LVL18
 410 01bd 7D020000 		.4byte	0x27d
 411 01c1 DE010000 		.4byte	0x1de
 412 01c5 0F       		.uleb128 0xf
 413 01c6 01       		.uleb128 0x1
 414 01c7 52       		.byte	0x52
 415 01c8 02       		.uleb128 0x2
 416 01c9 79       		.byte	0x79
 417 01ca 00       		.sleb128 0
 418 01cb 0F       		.uleb128 0xf
 419 01cc 01       		.uleb128 0x1
 420 01cd 51       		.byte	0x51
 421 01ce 02       		.uleb128 0x2
 422 01cf 74       		.byte	0x74
 423 01d0 00       		.sleb128 0
 424 01d1 0F       		.uleb128 0xf
 425 01d2 01       		.uleb128 0x1
 426 01d3 50       		.byte	0x50
 427 01d4 08       		.uleb128 0x8
 428 01d5 76       		.byte	0x76
 429 01d6 00       		.sleb128 0
 430 01d7 75       		.byte	0x75
 431 01d8 00       		.sleb128 0
 432 01d9 22       		.byte	0x22
 433 01da 77       		.byte	0x77
 434 01db 00       		.sleb128 0
 435 01dc 22       		.byte	0x22
 436 01dd 00       		.byte	0
 437 01de 10       		.uleb128 0x10
 438 01df 8A000000 		.4byte	.LVL20
 439 01e3 9A020000 		.4byte	0x29a
 440 01e7 00       		.byte	0
 441 01e8 11       		.uleb128 0x11
 442 01e9 2E000000 		.4byte	.LVL8
 443 01ed 7D020000 		.4byte	0x27d
 444 01f1 1F020000 		.4byte	0x21f
 445 01f5 0F       		.uleb128 0xf
 446 01f6 01       		.uleb128 0x1
 447 01f7 52       		.byte	0x52
 448 01f8 07       		.uleb128 0x7
 449 01f9 7D       		.byte	0x7d
 450 01fa 00       		.sleb128 0
 451 01fb 06       		.byte	0x6
 452 01fc 7D       		.byte	0x7d
 453 01fd 08       		.sleb128 8
 454 01fe 06       		.byte	0x6
 455 01ff 1E       		.byte	0x1e
ARM GAS  C:\Users\jo\AppData\Local\Temp\ccrpD54K.s 			page 9


 456 0200 0F       		.uleb128 0xf
 457 0201 01       		.uleb128 0x1
 458 0202 51       		.byte	0x51
 459 0203 0B       		.uleb128 0xb
 460 0204 7D       		.byte	0x7d
 461 0205 08       		.sleb128 8
 462 0206 06       		.byte	0x6
 463 0207 F3       		.byte	0xf3
 464 0208 01       		.uleb128 0x1
 465 0209 53       		.byte	0x53
 466 020a 1E       		.byte	0x1e
 467 020b F3       		.byte	0xf3
 468 020c 01       		.uleb128 0x1
 469 020d 52       		.byte	0x52
 470 020e 22       		.byte	0x22
 471 020f 0F       		.uleb128 0xf
 472 0210 01       		.uleb128 0x1
 473 0211 50       		.byte	0x50
 474 0212 0B       		.uleb128 0xb
 475 0213 7D       		.byte	0x7d
 476 0214 08       		.sleb128 8
 477 0215 06       		.byte	0x6
 478 0216 F3       		.byte	0xf3
 479 0217 01       		.uleb128 0x1
 480 0218 51       		.byte	0x51
 481 0219 1E       		.byte	0x1e
 482 021a F3       		.byte	0xf3
 483 021b 01       		.uleb128 0x1
 484 021c 50       		.byte	0x50
 485 021d 22       		.byte	0x22
 486 021e 00       		.byte	0
 487 021f 12       		.uleb128 0x12
 488 0220 50000000 		.4byte	.LVL13
 489 0224 7D020000 		.4byte	0x27d
 490 0228 0F       		.uleb128 0xf
 491 0229 01       		.uleb128 0x1
 492 022a 52       		.byte	0x52
 493 022b 11       		.uleb128 0x11
 494 022c 7D       		.byte	0x7d
 495 022d 04       		.sleb128 4
 496 022e 06       		.byte	0x6
 497 022f 7D       		.byte	0x7d
 498 0230 08       		.sleb128 8
 499 0231 06       		.byte	0x6
 500 0232 1E       		.byte	0x1e
 501 0233 7D       		.byte	0x7d
 502 0234 08       		.sleb128 8
 503 0235 06       		.byte	0x6
 504 0236 F3       		.byte	0xf3
 505 0237 01       		.uleb128 0x1
 506 0238 53       		.byte	0x53
 507 0239 1E       		.byte	0x1e
 508 023a 1C       		.byte	0x1c
 509 023b 23       		.byte	0x23
 510 023c 01       		.uleb128 0x1
 511 023d 0F       		.uleb128 0xf
 512 023e 01       		.uleb128 0x1
ARM GAS  C:\Users\jo\AppData\Local\Temp\ccrpD54K.s 			page 10


 513 023f 51       		.byte	0x51
 514 0240 0B       		.uleb128 0xb
 515 0241 7D       		.byte	0x7d
 516 0242 08       		.sleb128 8
 517 0243 06       		.byte	0x6
 518 0244 F3       		.byte	0xf3
 519 0245 01       		.uleb128 0x1
 520 0246 53       		.byte	0x53
 521 0247 1E       		.byte	0x1e
 522 0248 F3       		.byte	0xf3
 523 0249 01       		.uleb128 0x1
 524 024a 52       		.byte	0x52
 525 024b 22       		.byte	0x22
 526 024c 0F       		.uleb128 0xf
 527 024d 01       		.uleb128 0x1
 528 024e 50       		.byte	0x50
 529 024f 0B       		.uleb128 0xb
 530 0250 7D       		.byte	0x7d
 531 0251 08       		.sleb128 8
 532 0252 06       		.byte	0x6
 533 0253 F3       		.byte	0xf3
 534 0254 01       		.uleb128 0x1
 535 0255 51       		.byte	0x51
 536 0256 1E       		.byte	0x1e
 537 0257 F3       		.byte	0xf3
 538 0258 01       		.uleb128 0x1
 539 0259 52       		.byte	0x52
 540 025a 22       		.byte	0x22
 541 025b 00       		.byte	0
 542 025c 00       		.byte	0
 543 025d 06       		.uleb128 0x6
 544 025e 04       		.byte	0x4
 545 025f 91000000 		.4byte	0x91
 546 0263 13       		.uleb128 0x13
 547 0264 4E000000 		.4byte	.LASF25
 548 0268 05       		.byte	0x5
 549 0269 52       		.byte	0x52
 550 026a 88000000 		.4byte	0x88
 551 026e 7D020000 		.4byte	0x27d
 552 0272 14       		.uleb128 0x14
 553 0273 2C000000 		.4byte	0x2c
 554 0277 14       		.uleb128 0x14
 555 0278 2C000000 		.4byte	0x2c
 556 027c 00       		.byte	0
 557 027d 15       		.uleb128 0x15
 558 027e E4010000 		.4byte	.LASF26
 559 0282 88000000 		.4byte	0x88
 560 0286 9A020000 		.4byte	0x29a
 561 028a 14       		.uleb128 0x14
 562 028b 88000000 		.4byte	0x88
 563 028f 14       		.uleb128 0x14
 564 0290 9C000000 		.4byte	0x9c
 565 0294 14       		.uleb128 0x14
 566 0295 81000000 		.4byte	0x81
 567 0299 00       		.byte	0
 568 029a 16       		.uleb128 0x16
 569 029b C7010000 		.4byte	.LASF27
ARM GAS  C:\Users\jo\AppData\Local\Temp\ccrpD54K.s 			page 11


 570 029f 05       		.byte	0x5
 571 02a0 55       		.byte	0x55
 572 02a1 14       		.uleb128 0x14
 573 02a2 88000000 		.4byte	0x88
 574 02a6 00       		.byte	0
 575 02a7 00       		.byte	0
 576              		.section	.debug_abbrev,"",%progbits
 577              	.Ldebug_abbrev0:
 578 0000 01       		.uleb128 0x1
 579 0001 11       		.uleb128 0x11
 580 0002 01       		.byte	0x1
 581 0003 25       		.uleb128 0x25
 582 0004 0E       		.uleb128 0xe
 583 0005 13       		.uleb128 0x13
 584 0006 0B       		.uleb128 0xb
 585 0007 03       		.uleb128 0x3
 586 0008 0E       		.uleb128 0xe
 587 0009 1B       		.uleb128 0x1b
 588 000a 0E       		.uleb128 0xe
 589 000b 55       		.uleb128 0x55
 590 000c 17       		.uleb128 0x17
 591 000d 11       		.uleb128 0x11
 592 000e 01       		.uleb128 0x1
 593 000f 10       		.uleb128 0x10
 594 0010 17       		.uleb128 0x17
 595 0011 00       		.byte	0
 596 0012 00       		.byte	0
 597 0013 02       		.uleb128 0x2
 598 0014 24       		.uleb128 0x24
 599 0015 00       		.byte	0
 600 0016 0B       		.uleb128 0xb
 601 0017 0B       		.uleb128 0xb
 602 0018 3E       		.uleb128 0x3e
 603 0019 0B       		.uleb128 0xb
 604 001a 03       		.uleb128 0x3
 605 001b 08       		.uleb128 0x8
 606 001c 00       		.byte	0
 607 001d 00       		.byte	0
 608 001e 03       		.uleb128 0x3
 609 001f 16       		.uleb128 0x16
 610 0020 00       		.byte	0
 611 0021 03       		.uleb128 0x3
 612 0022 0E       		.uleb128 0xe
 613 0023 3A       		.uleb128 0x3a
 614 0024 0B       		.uleb128 0xb
 615 0025 3B       		.uleb128 0x3b
 616 0026 0B       		.uleb128 0xb
 617 0027 49       		.uleb128 0x49
 618 0028 13       		.uleb128 0x13
 619 0029 00       		.byte	0
 620 002a 00       		.byte	0
 621 002b 04       		.uleb128 0x4
 622 002c 24       		.uleb128 0x24
 623 002d 00       		.byte	0
 624 002e 0B       		.uleb128 0xb
 625 002f 0B       		.uleb128 0xb
 626 0030 3E       		.uleb128 0x3e
ARM GAS  C:\Users\jo\AppData\Local\Temp\ccrpD54K.s 			page 12


 627 0031 0B       		.uleb128 0xb
 628 0032 03       		.uleb128 0x3
 629 0033 0E       		.uleb128 0xe
 630 0034 00       		.byte	0
 631 0035 00       		.byte	0
 632 0036 05       		.uleb128 0x5
 633 0037 0F       		.uleb128 0xf
 634 0038 00       		.byte	0
 635 0039 0B       		.uleb128 0xb
 636 003a 0B       		.uleb128 0xb
 637 003b 00       		.byte	0
 638 003c 00       		.byte	0
 639 003d 06       		.uleb128 0x6
 640 003e 0F       		.uleb128 0xf
 641 003f 00       		.byte	0
 642 0040 0B       		.uleb128 0xb
 643 0041 0B       		.uleb128 0xb
 644 0042 49       		.uleb128 0x49
 645 0043 13       		.uleb128 0x13
 646 0044 00       		.byte	0
 647 0045 00       		.byte	0
 648 0046 07       		.uleb128 0x7
 649 0047 26       		.uleb128 0x26
 650 0048 00       		.byte	0
 651 0049 00       		.byte	0
 652 004a 00       		.byte	0
 653 004b 08       		.uleb128 0x8
 654 004c 2E       		.uleb128 0x2e
 655 004d 01       		.byte	0x1
 656 004e 3F       		.uleb128 0x3f
 657 004f 19       		.uleb128 0x19
 658 0050 03       		.uleb128 0x3
 659 0051 0E       		.uleb128 0xe
 660 0052 3A       		.uleb128 0x3a
 661 0053 0B       		.uleb128 0xb
 662 0054 3B       		.uleb128 0x3b
 663 0055 0B       		.uleb128 0xb
 664 0056 27       		.uleb128 0x27
 665 0057 19       		.uleb128 0x19
 666 0058 11       		.uleb128 0x11
 667 0059 01       		.uleb128 0x1
 668 005a 12       		.uleb128 0x12
 669 005b 06       		.uleb128 0x6
 670 005c 40       		.uleb128 0x40
 671 005d 18       		.uleb128 0x18
 672 005e 9742     		.uleb128 0x2117
 673 0060 19       		.uleb128 0x19
 674 0061 01       		.uleb128 0x1
 675 0062 13       		.uleb128 0x13
 676 0063 00       		.byte	0
 677 0064 00       		.byte	0
 678 0065 09       		.uleb128 0x9
 679 0066 05       		.uleb128 0x5
 680 0067 00       		.byte	0
 681 0068 03       		.uleb128 0x3
 682 0069 0E       		.uleb128 0xe
 683 006a 3A       		.uleb128 0x3a
ARM GAS  C:\Users\jo\AppData\Local\Temp\ccrpD54K.s 			page 13


 684 006b 0B       		.uleb128 0xb
 685 006c 3B       		.uleb128 0x3b
 686 006d 0B       		.uleb128 0xb
 687 006e 49       		.uleb128 0x49
 688 006f 13       		.uleb128 0x13
 689 0070 02       		.uleb128 0x2
 690 0071 17       		.uleb128 0x17
 691 0072 00       		.byte	0
 692 0073 00       		.byte	0
 693 0074 0A       		.uleb128 0xa
 694 0075 05       		.uleb128 0x5
 695 0076 00       		.byte	0
 696 0077 03       		.uleb128 0x3
 697 0078 08       		.uleb128 0x8
 698 0079 3A       		.uleb128 0x3a
 699 007a 0B       		.uleb128 0xb
 700 007b 3B       		.uleb128 0x3b
 701 007c 0B       		.uleb128 0xb
 702 007d 49       		.uleb128 0x49
 703 007e 13       		.uleb128 0x13
 704 007f 02       		.uleb128 0x2
 705 0080 17       		.uleb128 0x17
 706 0081 00       		.byte	0
 707 0082 00       		.byte	0
 708 0083 0B       		.uleb128 0xb
 709 0084 34       		.uleb128 0x34
 710 0085 00       		.byte	0
 711 0086 03       		.uleb128 0x3
 712 0087 0E       		.uleb128 0xe
 713 0088 3A       		.uleb128 0x3a
 714 0089 0B       		.uleb128 0xb
 715 008a 3B       		.uleb128 0x3b
 716 008b 0B       		.uleb128 0xb
 717 008c 49       		.uleb128 0x49
 718 008d 13       		.uleb128 0x13
 719 008e 02       		.uleb128 0x2
 720 008f 17       		.uleb128 0x17
 721 0090 00       		.byte	0
 722 0091 00       		.byte	0
 723 0092 0C       		.uleb128 0xc
 724 0093 0B       		.uleb128 0xb
 725 0094 01       		.byte	0x1
 726 0095 55       		.uleb128 0x55
 727 0096 17       		.uleb128 0x17
 728 0097 01       		.uleb128 0x1
 729 0098 13       		.uleb128 0x13
 730 0099 00       		.byte	0
 731 009a 00       		.byte	0
 732 009b 0D       		.uleb128 0xd
 733 009c 34       		.uleb128 0x34
 734 009d 00       		.byte	0
 735 009e 03       		.uleb128 0x3
 736 009f 08       		.uleb128 0x8
 737 00a0 3A       		.uleb128 0x3a
 738 00a1 0B       		.uleb128 0xb
 739 00a2 3B       		.uleb128 0x3b
 740 00a3 0B       		.uleb128 0xb
ARM GAS  C:\Users\jo\AppData\Local\Temp\ccrpD54K.s 			page 14


 741 00a4 49       		.uleb128 0x49
 742 00a5 13       		.uleb128 0x13
 743 00a6 02       		.uleb128 0x2
 744 00a7 17       		.uleb128 0x17
 745 00a8 00       		.byte	0
 746 00a9 00       		.byte	0
 747 00aa 0E       		.uleb128 0xe
 748 00ab 898201   		.uleb128 0x4109
 749 00ae 01       		.byte	0x1
 750 00af 11       		.uleb128 0x11
 751 00b0 01       		.uleb128 0x1
 752 00b1 31       		.uleb128 0x31
 753 00b2 13       		.uleb128 0x13
 754 00b3 01       		.uleb128 0x1
 755 00b4 13       		.uleb128 0x13
 756 00b5 00       		.byte	0
 757 00b6 00       		.byte	0
 758 00b7 0F       		.uleb128 0xf
 759 00b8 8A8201   		.uleb128 0x410a
 760 00bb 00       		.byte	0
 761 00bc 02       		.uleb128 0x2
 762 00bd 18       		.uleb128 0x18
 763 00be 9142     		.uleb128 0x2111
 764 00c0 18       		.uleb128 0x18
 765 00c1 00       		.byte	0
 766 00c2 00       		.byte	0
 767 00c3 10       		.uleb128 0x10
 768 00c4 898201   		.uleb128 0x4109
 769 00c7 00       		.byte	0
 770 00c8 11       		.uleb128 0x11
 771 00c9 01       		.uleb128 0x1
 772 00ca 9542     		.uleb128 0x2115
 773 00cc 19       		.uleb128 0x19
 774 00cd 31       		.uleb128 0x31
 775 00ce 13       		.uleb128 0x13
 776 00cf 00       		.byte	0
 777 00d0 00       		.byte	0
 778 00d1 11       		.uleb128 0x11
 779 00d2 898201   		.uleb128 0x4109
 780 00d5 01       		.byte	0x1
 781 00d6 11       		.uleb128 0x11
 782 00d7 01       		.uleb128 0x1
 783 00d8 9542     		.uleb128 0x2115
 784 00da 19       		.uleb128 0x19
 785 00db 31       		.uleb128 0x31
 786 00dc 13       		.uleb128 0x13
 787 00dd 01       		.uleb128 0x1
 788 00de 13       		.uleb128 0x13
 789 00df 00       		.byte	0
 790 00e0 00       		.byte	0
 791 00e1 12       		.uleb128 0x12
 792 00e2 898201   		.uleb128 0x4109
 793 00e5 01       		.byte	0x1
 794 00e6 11       		.uleb128 0x11
 795 00e7 01       		.uleb128 0x1
 796 00e8 9542     		.uleb128 0x2115
 797 00ea 19       		.uleb128 0x19
ARM GAS  C:\Users\jo\AppData\Local\Temp\ccrpD54K.s 			page 15


 798 00eb 31       		.uleb128 0x31
 799 00ec 13       		.uleb128 0x13
 800 00ed 00       		.byte	0
 801 00ee 00       		.byte	0
 802 00ef 13       		.uleb128 0x13
 803 00f0 2E       		.uleb128 0x2e
 804 00f1 01       		.byte	0x1
 805 00f2 3F       		.uleb128 0x3f
 806 00f3 19       		.uleb128 0x19
 807 00f4 03       		.uleb128 0x3
 808 00f5 0E       		.uleb128 0xe
 809 00f6 3A       		.uleb128 0x3a
 810 00f7 0B       		.uleb128 0xb
 811 00f8 3B       		.uleb128 0x3b
 812 00f9 0B       		.uleb128 0xb
 813 00fa 27       		.uleb128 0x27
 814 00fb 19       		.uleb128 0x19
 815 00fc 49       		.uleb128 0x49
 816 00fd 13       		.uleb128 0x13
 817 00fe 3C       		.uleb128 0x3c
 818 00ff 19       		.uleb128 0x19
 819 0100 01       		.uleb128 0x1
 820 0101 13       		.uleb128 0x13
 821 0102 00       		.byte	0
 822 0103 00       		.byte	0
 823 0104 14       		.uleb128 0x14
 824 0105 05       		.uleb128 0x5
 825 0106 00       		.byte	0
 826 0107 49       		.uleb128 0x49
 827 0108 13       		.uleb128 0x13
 828 0109 00       		.byte	0
 829 010a 00       		.byte	0
 830 010b 15       		.uleb128 0x15
 831 010c 2E       		.uleb128 0x2e
 832 010d 01       		.byte	0x1
 833 010e 3F       		.uleb128 0x3f
 834 010f 19       		.uleb128 0x19
 835 0110 03       		.uleb128 0x3
 836 0111 0E       		.uleb128 0xe
 837 0112 27       		.uleb128 0x27
 838 0113 19       		.uleb128 0x19
 839 0114 49       		.uleb128 0x49
 840 0115 13       		.uleb128 0x13
 841 0116 34       		.uleb128 0x34
 842 0117 19       		.uleb128 0x19
 843 0118 3C       		.uleb128 0x3c
 844 0119 19       		.uleb128 0x19
 845 011a 01       		.uleb128 0x1
 846 011b 13       		.uleb128 0x13
 847 011c 00       		.byte	0
 848 011d 00       		.byte	0
 849 011e 16       		.uleb128 0x16
 850 011f 2E       		.uleb128 0x2e
 851 0120 01       		.byte	0x1
 852 0121 3F       		.uleb128 0x3f
 853 0122 19       		.uleb128 0x19
 854 0123 03       		.uleb128 0x3
ARM GAS  C:\Users\jo\AppData\Local\Temp\ccrpD54K.s 			page 16


 855 0124 0E       		.uleb128 0xe
 856 0125 3A       		.uleb128 0x3a
 857 0126 0B       		.uleb128 0xb
 858 0127 3B       		.uleb128 0x3b
 859 0128 0B       		.uleb128 0xb
 860 0129 27       		.uleb128 0x27
 861 012a 19       		.uleb128 0x19
 862 012b 3C       		.uleb128 0x3c
 863 012c 19       		.uleb128 0x19
 864 012d 00       		.byte	0
 865 012e 00       		.byte	0
 866 012f 00       		.byte	0
 867              		.section	.debug_loc,"",%progbits
 868              	.Ldebug_loc0:
 869              	.LLST0:
 870 0000 00000000 		.4byte	.LVL0
 871 0004 24000000 		.4byte	.LVL5
 872 0008 0100     		.2byte	0x1
 873 000a 50       		.byte	0x50
 874 000b 24000000 		.4byte	.LVL5
 875 000f 2E000000 		.4byte	.LVL8
 876 0013 0400     		.2byte	0x4
 877 0015 F3       		.byte	0xf3
 878 0016 01       		.uleb128 0x1
 879 0017 50       		.byte	0x50
 880 0018 9F       		.byte	0x9f
 881 0019 2E000000 		.4byte	.LVL8
 882 001d 34000000 		.4byte	.LVL9
 883 0021 0100     		.2byte	0x1
 884 0023 50       		.byte	0x50
 885 0024 34000000 		.4byte	.LVL9
 886 0028 8A000000 		.4byte	.LFE0
 887 002c 0400     		.2byte	0x4
 888 002e F3       		.byte	0xf3
 889 002f 01       		.uleb128 0x1
 890 0030 50       		.byte	0x50
 891 0031 9F       		.byte	0x9f
 892 0032 00000000 		.4byte	0
 893 0036 00000000 		.4byte	0
 894              	.LLST1:
 895 003a 00000000 		.4byte	.LVL0
 896 003e 18000000 		.4byte	.LVL3
 897 0042 0100     		.2byte	0x1
 898 0044 51       		.byte	0x51
 899 0045 18000000 		.4byte	.LVL3
 900 0049 2A000000 		.4byte	.LVL7
 901 004d 0100     		.2byte	0x1
 902 004f 57       		.byte	0x57
 903 0050 2A000000 		.4byte	.LVL7
 904 0054 2E000000 		.4byte	.LVL8
 905 0058 0800     		.2byte	0x8
 906 005a 7D       		.byte	0x7d
 907 005b 08       		.sleb128 8
 908 005c 06       		.byte	0x6
 909 005d F3       		.byte	0xf3
 910 005e 01       		.uleb128 0x1
 911 005f 51       		.byte	0x51
ARM GAS  C:\Users\jo\AppData\Local\Temp\ccrpD54K.s 			page 17


 912 0060 1E       		.byte	0x1e
 913 0061 9F       		.byte	0x9f
 914 0062 2E000000 		.4byte	.LVL8
 915 0066 4C000000 		.4byte	.LVL12
 916 006a 0100     		.2byte	0x1
 917 006c 57       		.byte	0x57
 918 006d 4C000000 		.4byte	.LVL12
 919 0071 50000000 		.4byte	.LVL13
 920 0075 0800     		.2byte	0x8
 921 0077 7D       		.byte	0x7d
 922 0078 08       		.sleb128 8
 923 0079 06       		.byte	0x6
 924 007a F3       		.byte	0xf3
 925 007b 01       		.uleb128 0x1
 926 007c 51       		.byte	0x51
 927 007d 1E       		.byte	0x1e
 928 007e 9F       		.byte	0x9f
 929 007f 50000000 		.4byte	.LVL13
 930 0083 86000000 		.4byte	.LVL19
 931 0087 0100     		.2byte	0x1
 932 0089 57       		.byte	0x57
 933 008a 86000000 		.4byte	.LVL19
 934 008e 8A000000 		.4byte	.LFE0
 935 0092 0800     		.2byte	0x8
 936 0094 7D       		.byte	0x7d
 937 0095 08       		.sleb128 8
 938 0096 06       		.byte	0x6
 939 0097 F3       		.byte	0xf3
 940 0098 01       		.uleb128 0x1
 941 0099 51       		.byte	0x51
 942 009a 1E       		.byte	0x1e
 943 009b 9F       		.byte	0x9f
 944 009c 00000000 		.4byte	0
 945 00a0 00000000 		.4byte	0
 946              	.LLST2:
 947 00a4 00000000 		.4byte	.LVL0
 948 00a8 26000000 		.4byte	.LVL6
 949 00ac 0100     		.2byte	0x1
 950 00ae 52       		.byte	0x52
 951 00af 26000000 		.4byte	.LVL6
 952 00b3 2A000000 		.4byte	.LVL7
 953 00b7 0100     		.2byte	0x1
 954 00b9 56       		.byte	0x56
 955 00ba 2A000000 		.4byte	.LVL7
 956 00be 2E000000 		.4byte	.LVL8
 957 00c2 0400     		.2byte	0x4
 958 00c4 F3       		.byte	0xf3
 959 00c5 01       		.uleb128 0x1
 960 00c6 52       		.byte	0x52
 961 00c7 9F       		.byte	0x9f
 962 00c8 2E000000 		.4byte	.LVL8
 963 00cc 40000000 		.4byte	.LVL11
 964 00d0 0100     		.2byte	0x1
 965 00d2 52       		.byte	0x52
 966 00d3 40000000 		.4byte	.LVL11
 967 00d7 4C000000 		.4byte	.LVL12
 968 00db 0100     		.2byte	0x1
ARM GAS  C:\Users\jo\AppData\Local\Temp\ccrpD54K.s 			page 18


 969 00dd 56       		.byte	0x56
 970 00de 4C000000 		.4byte	.LVL12
 971 00e2 50000000 		.4byte	.LVL13
 972 00e6 0400     		.2byte	0x4
 973 00e8 F3       		.byte	0xf3
 974 00e9 01       		.uleb128 0x1
 975 00ea 52       		.byte	0x52
 976 00eb 9F       		.byte	0x9f
 977 00ec 50000000 		.4byte	.LVL13
 978 00f0 5D000000 		.4byte	.LVL14-1
 979 00f4 0100     		.2byte	0x1
 980 00f6 52       		.byte	0x52
 981 00f7 5D000000 		.4byte	.LVL14-1
 982 00fb 86000000 		.4byte	.LVL19
 983 00ff 0100     		.2byte	0x1
 984 0101 56       		.byte	0x56
 985 0102 86000000 		.4byte	.LVL19
 986 0106 8A000000 		.4byte	.LFE0
 987 010a 0400     		.2byte	0x4
 988 010c F3       		.byte	0xf3
 989 010d 01       		.uleb128 0x1
 990 010e 52       		.byte	0x52
 991 010f 9F       		.byte	0x9f
 992 0110 00000000 		.4byte	0
 993 0114 00000000 		.4byte	0
 994              	.LLST3:
 995 0118 00000000 		.4byte	.LVL0
 996 011c 1C000000 		.4byte	.LVL4
 997 0120 0100     		.2byte	0x1
 998 0122 53       		.byte	0x53
 999 0123 1C000000 		.4byte	.LVL4
 1000 0127 2A000000 		.4byte	.LVL7
 1001 012b 0100     		.2byte	0x1
 1002 012d 58       		.byte	0x58
 1003 012e 2A000000 		.4byte	.LVL7
 1004 0132 2D000000 		.4byte	.LVL8-1
 1005 0136 0700     		.2byte	0x7
 1006 0138 7D       		.byte	0x7d
 1007 0139 08       		.sleb128 8
 1008 013a 06       		.byte	0x6
 1009 013b 73       		.byte	0x73
 1010 013c 00       		.sleb128 0
 1011 013d 1E       		.byte	0x1e
 1012 013e 9F       		.byte	0x9f
 1013 013f 2D000000 		.4byte	.LVL8-1
 1014 0143 2E000000 		.4byte	.LVL8
 1015 0147 0800     		.2byte	0x8
 1016 0149 7D       		.byte	0x7d
 1017 014a 08       		.sleb128 8
 1018 014b 06       		.byte	0x6
 1019 014c F3       		.byte	0xf3
 1020 014d 01       		.uleb128 0x1
 1021 014e 53       		.byte	0x53
 1022 014f 1E       		.byte	0x1e
 1023 0150 9F       		.byte	0x9f
 1024 0151 2E000000 		.4byte	.LVL8
 1025 0155 4C000000 		.4byte	.LVL12
ARM GAS  C:\Users\jo\AppData\Local\Temp\ccrpD54K.s 			page 19


 1026 0159 0100     		.2byte	0x1
 1027 015b 58       		.byte	0x58
 1028 015c 4C000000 		.4byte	.LVL12
 1029 0160 4F000000 		.4byte	.LVL13-1
 1030 0164 0700     		.2byte	0x7
 1031 0166 7D       		.byte	0x7d
 1032 0167 08       		.sleb128 8
 1033 0168 06       		.byte	0x6
 1034 0169 73       		.byte	0x73
 1035 016a 00       		.sleb128 0
 1036 016b 1E       		.byte	0x1e
 1037 016c 9F       		.byte	0x9f
 1038 016d 4F000000 		.4byte	.LVL13-1
 1039 0171 50000000 		.4byte	.LVL13
 1040 0175 0800     		.2byte	0x8
 1041 0177 7D       		.byte	0x7d
 1042 0178 08       		.sleb128 8
 1043 0179 06       		.byte	0x6
 1044 017a F3       		.byte	0xf3
 1045 017b 01       		.uleb128 0x1
 1046 017c 53       		.byte	0x53
 1047 017d 1E       		.byte	0x1e
 1048 017e 9F       		.byte	0x9f
 1049 017f 50000000 		.4byte	.LVL13
 1050 0183 86000000 		.4byte	.LVL19
 1051 0187 0100     		.2byte	0x1
 1052 0189 58       		.byte	0x58
 1053 018a 86000000 		.4byte	.LVL19
 1054 018e 8A000000 		.4byte	.LFE0
 1055 0192 0800     		.2byte	0x8
 1056 0194 7D       		.byte	0x7d
 1057 0195 08       		.sleb128 8
 1058 0196 06       		.byte	0x6
 1059 0197 F3       		.byte	0xf3
 1060 0198 01       		.uleb128 0x1
 1061 0199 53       		.byte	0x53
 1062 019a 1E       		.byte	0x1e
 1063 019b 9F       		.byte	0x9f
 1064 019c 00000000 		.4byte	0
 1065 01a0 00000000 		.4byte	0
 1066              	.LLST4:
 1067 01a4 00000000 		.4byte	.LVL0
 1068 01a8 1C000000 		.4byte	.LVL4
 1069 01ac 0200     		.2byte	0x2
 1070 01ae 91       		.byte	0x91
 1071 01af 00       		.sleb128 0
 1072 01b0 1C000000 		.4byte	.LVL4
 1073 01b4 2A000000 		.4byte	.LVL7
 1074 01b8 0100     		.2byte	0x1
 1075 01ba 55       		.byte	0x55
 1076 01bb 2A000000 		.4byte	.LVL7
 1077 01bf 2D000000 		.4byte	.LVL8-1
 1078 01c3 0100     		.2byte	0x1
 1079 01c5 52       		.byte	0x52
 1080 01c6 2D000000 		.4byte	.LVL8-1
 1081 01ca 2E000000 		.4byte	.LVL8
 1082 01ce 0800     		.2byte	0x8
ARM GAS  C:\Users\jo\AppData\Local\Temp\ccrpD54K.s 			page 20


 1083 01d0 7D       		.byte	0x7d
 1084 01d1 00       		.sleb128 0
 1085 01d2 06       		.byte	0x6
 1086 01d3 7D       		.byte	0x7d
 1087 01d4 08       		.sleb128 8
 1088 01d5 06       		.byte	0x6
 1089 01d6 1E       		.byte	0x1e
 1090 01d7 9F       		.byte	0x9f
 1091 01d8 2E000000 		.4byte	.LVL8
 1092 01dc 4C000000 		.4byte	.LVL12
 1093 01e0 0100     		.2byte	0x1
 1094 01e2 55       		.byte	0x55
 1095 01e3 4C000000 		.4byte	.LVL12
 1096 01e7 50000000 		.4byte	.LVL13
 1097 01eb 0800     		.2byte	0x8
 1098 01ed 7D       		.byte	0x7d
 1099 01ee 00       		.sleb128 0
 1100 01ef 06       		.byte	0x6
 1101 01f0 7D       		.byte	0x7d
 1102 01f1 08       		.sleb128 8
 1103 01f2 06       		.byte	0x6
 1104 01f3 1E       		.byte	0x1e
 1105 01f4 9F       		.byte	0x9f
 1106 01f5 50000000 		.4byte	.LVL13
 1107 01f9 86000000 		.4byte	.LVL19
 1108 01fd 0100     		.2byte	0x1
 1109 01ff 55       		.byte	0x55
 1110 0200 86000000 		.4byte	.LVL19
 1111 0204 8A000000 		.4byte	.LFE0
 1112 0208 0800     		.2byte	0x8
 1113 020a 7D       		.byte	0x7d
 1114 020b 00       		.sleb128 0
 1115 020c 06       		.byte	0x6
 1116 020d 7D       		.byte	0x7d
 1117 020e 08       		.sleb128 8
 1118 020f 06       		.byte	0x6
 1119 0210 1E       		.byte	0x1e
 1120 0211 9F       		.byte	0x9f
 1121 0212 00000000 		.4byte	0
 1122 0216 00000000 		.4byte	0
 1123              	.LLST5:
 1124 021a 00000000 		.4byte	.LVL0
 1125 021e 1C000000 		.4byte	.LVL4
 1126 0222 0200     		.2byte	0x2
 1127 0224 91       		.byte	0x91
 1128 0225 04       		.sleb128 4
 1129 0226 1C000000 		.4byte	.LVL4
 1130 022a 2A000000 		.4byte	.LVL7
 1131 022e 0600     		.2byte	0x6
 1132 0230 74       		.byte	0x74
 1133 0231 00       		.sleb128 0
 1134 0232 7E       		.byte	0x7e
 1135 0233 00       		.sleb128 0
 1136 0234 1E       		.byte	0x1e
 1137 0235 9F       		.byte	0x9f
 1138 0236 2A000000 		.4byte	.LVL7
 1139 023a 2E000000 		.4byte	.LVL8
ARM GAS  C:\Users\jo\AppData\Local\Temp\ccrpD54K.s 			page 21


 1140 023e 0800     		.2byte	0x8
 1141 0240 7D       		.byte	0x7d
 1142 0241 08       		.sleb128 8
 1143 0242 06       		.byte	0x6
 1144 0243 7D       		.byte	0x7d
 1145 0244 04       		.sleb128 4
 1146 0245 06       		.byte	0x6
 1147 0246 1E       		.byte	0x1e
 1148 0247 9F       		.byte	0x9f
 1149 0248 2E000000 		.4byte	.LVL8
 1150 024c 4C000000 		.4byte	.LVL12
 1151 0250 0600     		.2byte	0x6
 1152 0252 74       		.byte	0x74
 1153 0253 00       		.sleb128 0
 1154 0254 7E       		.byte	0x7e
 1155 0255 00       		.sleb128 0
 1156 0256 1E       		.byte	0x1e
 1157 0257 9F       		.byte	0x9f
 1158 0258 4C000000 		.4byte	.LVL12
 1159 025c 50000000 		.4byte	.LVL13
 1160 0260 0800     		.2byte	0x8
 1161 0262 7D       		.byte	0x7d
 1162 0263 08       		.sleb128 8
 1163 0264 06       		.byte	0x6
 1164 0265 7D       		.byte	0x7d
 1165 0266 04       		.sleb128 4
 1166 0267 06       		.byte	0x6
 1167 0268 1E       		.byte	0x1e
 1168 0269 9F       		.byte	0x9f
 1169 026a 50000000 		.4byte	.LVL13
 1170 026e 5D000000 		.4byte	.LVL14-1
 1171 0272 0600     		.2byte	0x6
 1172 0274 74       		.byte	0x74
 1173 0275 00       		.sleb128 0
 1174 0276 7E       		.byte	0x7e
 1175 0277 00       		.sleb128 0
 1176 0278 1E       		.byte	0x1e
 1177 0279 9F       		.byte	0x9f
 1178 027a 5D000000 		.4byte	.LVL14-1
 1179 027e 64000000 		.4byte	.LVL15
 1180 0282 0700     		.2byte	0x7
 1181 0284 74       		.byte	0x74
 1182 0285 00       		.sleb128 0
 1183 0286 91       		.byte	0x91
 1184 0287 04       		.sleb128 4
 1185 0288 06       		.byte	0x6
 1186 0289 1E       		.byte	0x1e
 1187 028a 9F       		.byte	0x9f
 1188 028b 64000000 		.4byte	.LVL15
 1189 028f 86000000 		.4byte	.LVL19
 1190 0293 0800     		.2byte	0x8
 1191 0295 91       		.byte	0x91
 1192 0296 08       		.sleb128 8
 1193 0297 06       		.byte	0x6
 1194 0298 91       		.byte	0x91
 1195 0299 04       		.sleb128 4
 1196 029a 06       		.byte	0x6
ARM GAS  C:\Users\jo\AppData\Local\Temp\ccrpD54K.s 			page 22


 1197 029b 1E       		.byte	0x1e
 1198 029c 9F       		.byte	0x9f
 1199 029d 86000000 		.4byte	.LVL19
 1200 02a1 8A000000 		.4byte	.LFE0
 1201 02a5 0800     		.2byte	0x8
 1202 02a7 7D       		.byte	0x7d
 1203 02a8 08       		.sleb128 8
 1204 02a9 06       		.byte	0x6
 1205 02aa 7D       		.byte	0x7d
 1206 02ab 04       		.sleb128 4
 1207 02ac 06       		.byte	0x6
 1208 02ad 1E       		.byte	0x1e
 1209 02ae 9F       		.byte	0x9f
 1210 02af 00000000 		.4byte	0
 1211 02b3 00000000 		.4byte	0
 1212              	.LLST6:
 1213 02b7 00000000 		.4byte	.LVL0
 1214 02bb 2A000000 		.4byte	.LVL7
 1215 02bf 0200     		.2byte	0x2
 1216 02c1 91       		.byte	0x91
 1217 02c2 08       		.sleb128 8
 1218 02c3 2A000000 		.4byte	.LVL7
 1219 02c7 2E000000 		.4byte	.LVL8
 1220 02cb 0200     		.2byte	0x2
 1221 02cd 7D       		.byte	0x7d
 1222 02ce 08       		.sleb128 8
 1223 02cf 2E000000 		.4byte	.LVL8
 1224 02d3 4C000000 		.4byte	.LVL12
 1225 02d7 0200     		.2byte	0x2
 1226 02d9 91       		.byte	0x91
 1227 02da 08       		.sleb128 8
 1228 02db 4C000000 		.4byte	.LVL12
 1229 02df 50000000 		.4byte	.LVL13
 1230 02e3 0200     		.2byte	0x2
 1231 02e5 7D       		.byte	0x7d
 1232 02e6 08       		.sleb128 8
 1233 02e7 50000000 		.4byte	.LVL13
 1234 02eb 86000000 		.4byte	.LVL19
 1235 02ef 0200     		.2byte	0x2
 1236 02f1 91       		.byte	0x91
 1237 02f2 08       		.sleb128 8
 1238 02f3 86000000 		.4byte	.LVL19
 1239 02f7 8A000000 		.4byte	.LFE0
 1240 02fb 0200     		.2byte	0x2
 1241 02fd 7D       		.byte	0x7d
 1242 02fe 08       		.sleb128 8
 1243 02ff 00000000 		.4byte	0
 1244 0303 00000000 		.4byte	0
 1245              	.LLST7:
 1246 0307 0C000000 		.4byte	.LVL1
 1247 030b 24000000 		.4byte	.LVL5
 1248 030f 0100     		.2byte	0x1
 1249 0311 50       		.byte	0x50
 1250 0312 24000000 		.4byte	.LVL5
 1251 0316 2E000000 		.4byte	.LVL8
 1252 031a 0400     		.2byte	0x4
 1253 031c F3       		.byte	0xf3
ARM GAS  C:\Users\jo\AppData\Local\Temp\ccrpD54K.s 			page 23


 1254 031d 01       		.uleb128 0x1
 1255 031e 50       		.byte	0x50
 1256 031f 9F       		.byte	0x9f
 1257 0320 2E000000 		.4byte	.LVL8
 1258 0324 34000000 		.4byte	.LVL9
 1259 0328 0100     		.2byte	0x1
 1260 032a 50       		.byte	0x50
 1261 032b 34000000 		.4byte	.LVL9
 1262 032f 8A000000 		.4byte	.LFE0
 1263 0333 0400     		.2byte	0x4
 1264 0335 F3       		.byte	0xf3
 1265 0336 01       		.uleb128 0x1
 1266 0337 50       		.byte	0x50
 1267 0338 9F       		.byte	0x9f
 1268 0339 00000000 		.4byte	0
 1269 033d 00000000 		.4byte	0
 1270              	.LLST8:
 1271 0341 10000000 		.4byte	.LVL2
 1272 0345 26000000 		.4byte	.LVL6
 1273 0349 0100     		.2byte	0x1
 1274 034b 52       		.byte	0x52
 1275 034c 26000000 		.4byte	.LVL6
 1276 0350 2A000000 		.4byte	.LVL7
 1277 0354 0100     		.2byte	0x1
 1278 0356 56       		.byte	0x56
 1279 0357 2A000000 		.4byte	.LVL7
 1280 035b 2E000000 		.4byte	.LVL8
 1281 035f 0400     		.2byte	0x4
 1282 0361 F3       		.byte	0xf3
 1283 0362 01       		.uleb128 0x1
 1284 0363 52       		.byte	0x52
 1285 0364 9F       		.byte	0x9f
 1286 0365 2E000000 		.4byte	.LVL8
 1287 0369 40000000 		.4byte	.LVL11
 1288 036d 0100     		.2byte	0x1
 1289 036f 52       		.byte	0x52
 1290 0370 40000000 		.4byte	.LVL11
 1291 0374 4C000000 		.4byte	.LVL12
 1292 0378 0100     		.2byte	0x1
 1293 037a 56       		.byte	0x56
 1294 037b 4C000000 		.4byte	.LVL12
 1295 037f 50000000 		.4byte	.LVL13
 1296 0383 0400     		.2byte	0x4
 1297 0385 F3       		.byte	0xf3
 1298 0386 01       		.uleb128 0x1
 1299 0387 52       		.byte	0x52
 1300 0388 9F       		.byte	0x9f
 1301 0389 50000000 		.4byte	.LVL13
 1302 038d 5D000000 		.4byte	.LVL14-1
 1303 0391 0100     		.2byte	0x1
 1304 0393 52       		.byte	0x52
 1305 0394 5D000000 		.4byte	.LVL14-1
 1306 0398 86000000 		.4byte	.LVL19
 1307 039c 0100     		.2byte	0x1
 1308 039e 56       		.byte	0x56
 1309 039f 86000000 		.4byte	.LVL19
 1310 03a3 8A000000 		.4byte	.LFE0
ARM GAS  C:\Users\jo\AppData\Local\Temp\ccrpD54K.s 			page 24


 1311 03a7 0400     		.2byte	0x4
 1312 03a9 F3       		.byte	0xf3
 1313 03aa 01       		.uleb128 0x1
 1314 03ab 52       		.byte	0x52
 1315 03ac 9F       		.byte	0x9f
 1316 03ad 00000000 		.4byte	0
 1317 03b1 00000000 		.4byte	0
 1318              	.LLST9:
 1319 03b5 64000000 		.4byte	.LVL15
 1320 03b9 67000000 		.4byte	.LVL16-1
 1321 03bd 0100     		.2byte	0x1
 1322 03bf 50       		.byte	0x50
 1323 03c0 67000000 		.4byte	.LVL16-1
 1324 03c4 86000000 		.4byte	.LVL19
 1325 03c8 0100     		.2byte	0x1
 1326 03ca 54       		.byte	0x54
 1327 03cb 86000000 		.4byte	.LVL19
 1328 03cf 89000000 		.4byte	.LVL20-1
 1329 03d3 0100     		.2byte	0x1
 1330 03d5 50       		.byte	0x50
 1331 03d6 00000000 		.4byte	0
 1332 03da 00000000 		.4byte	0
 1333              		.section	.debug_aranges,"",%progbits
 1334 0000 1C000000 		.4byte	0x1c
 1335 0004 0200     		.2byte	0x2
 1336 0006 00000000 		.4byte	.Ldebug_info0
 1337 000a 04       		.byte	0x4
 1338 000b 00       		.byte	0
 1339 000c 0000     		.2byte	0
 1340 000e 0000     		.2byte	0
 1341 0010 00000000 		.4byte	.LFB0
 1342 0014 8A000000 		.4byte	.LFE0-.LFB0
 1343 0018 00000000 		.4byte	0
 1344 001c 00000000 		.4byte	0
 1345              		.section	.debug_ranges,"",%progbits
 1346              	.Ldebug_ranges0:
 1347 0000 50000000 		.4byte	.LBB2
 1348 0004 82000000 		.4byte	.LBE2
 1349 0008 86000000 		.4byte	.LBB3
 1350 000c 8A000000 		.4byte	.LBE3
 1351 0010 00000000 		.4byte	0
 1352 0014 00000000 		.4byte	0
 1353 0018 00000000 		.4byte	.LFB0
 1354 001c 8A000000 		.4byte	.LFE0
 1355 0020 00000000 		.4byte	0
 1356 0024 00000000 		.4byte	0
 1357              		.section	.debug_line,"",%progbits
 1358              	.Ldebug_line0:
 1359 0000 86010000 		.section	.debug_str,"MS",%progbits,1
 1359      02004B01 
 1359      00000201 
 1359      FB0E0D00 
 1359      01010101 
 1360              	.LASF23:
 1361 0000 433A5C55 		.ascii	"C:\\Users\\jo\\Documents\\GitHub\\ChibiOS\\demos\\S"
 1361      73657273 
 1361      5C6A6F5C 
ARM GAS  C:\Users\jo\AppData\Local\Temp\ccrpD54K.s 			page 25


 1361      446F6375 
 1361      6D656E74 
 1362 002c 544D3332 		.ascii	"TM32\\RT-STM32F407-DISCOVERY-uHttp\000"
 1362      5C52542D 
 1362      53544D33 
 1362      32463430 
 1362      372D4449 
 1363              	.LASF25:
 1364 004e 63616C6C 		.ascii	"calloc\000"
 1364      6F6300
 1365              	.LASF3:
 1366 0055 5F5F7569 		.ascii	"__uint8_t\000"
 1366      6E74385F 
 1366      7400
 1367              	.LASF17:
 1368 005f 64657374 		.ascii	"destLen\000"
 1368      4C656E00 
 1369              	.LASF19:
 1370 0067 75646573 		.ascii	"udest\000"
 1370      7400
 1371              	.LASF14:
 1372 006d 64657374 		.ascii	"dest\000"
 1372      00
 1373              	.LASF18:
 1374 0072 73697A65 		.ascii	"size\000"
 1374      00
 1375              	.LASF8:
 1376 0077 6C6F6E67 		.ascii	"long unsigned int\000"
 1376      20756E73 
 1376      69676E65 
 1376      6420696E 
 1376      7400
 1377              	.LASF6:
 1378 0089 73686F72 		.ascii	"short unsigned int\000"
 1378      7420756E 
 1378      7369676E 
 1378      65642069 
 1378      6E7400
 1379              	.LASF2:
 1380 009c 73697A65 		.ascii	"size_t\000"
 1380      5F7400
 1381              	.LASF4:
 1382 00a3 756E7369 		.ascii	"unsigned char\000"
 1382      676E6564 
 1382      20636861 
 1382      7200
 1383              	.LASF16:
 1384 00b1 73496E64 		.ascii	"sIndex\000"
 1384      657800
 1385              	.LASF0:
 1386 00b8 756E7369 		.ascii	"unsigned int\000"
 1386      676E6564 
 1386      20696E74 
 1386      00
 1387              	.LASF21:
 1388 00c5 474E5520 		.ascii	"GNU C 4.9.3 20141119 (release) [ARM/embedded-4_9-br"
 1388      4320342E 
ARM GAS  C:\Users\jo\AppData\Local\Temp\ccrpD54K.s 			page 26


 1388      392E3320 
 1388      32303134 
 1388      31313139 
 1389 00f8 616E6368 		.ascii	"anch revision 218278] -mcpu=cortex-m4 -mno-thumb-in"
 1389      20726576 
 1389      6973696F 
 1389      6E203231 
 1389      38323738 
 1390 012b 74657277 		.ascii	"terwork -mthumb -ggdb -O2 -fomit-frame-pointer -fal"
 1390      6F726B20 
 1390      2D6D7468 
 1390      756D6220 
 1390      2D676764 
 1391 015e 69676E2D 		.ascii	"ign-functions=16 -ffunction-sections -fdata-section"
 1391      66756E63 
 1391      74696F6E 
 1391      733D3136 
 1391      202D6666 
 1392 0191 73202D66 		.ascii	"s -fno-common\000"
 1392      6E6F2D63 
 1392      6F6D6D6F 
 1392      6E00
 1393              	.LASF10:
 1394 019f 6C6F6E67 		.ascii	"long long unsigned int\000"
 1394      206C6F6E 
 1394      6720756E 
 1394      7369676E 
 1394      65642069 
 1395              	.LASF13:
 1396 01b6 75696E74 		.ascii	"uint8_t\000"
 1396      385F7400 
 1397              	.LASF11:
 1398 01be 73697A65 		.ascii	"sizetype\000"
 1398      74797065 
 1398      00
 1399              	.LASF27:
 1400 01c7 66726565 		.ascii	"free\000"
 1400      00
 1401              	.LASF9:
 1402 01cc 6C6F6E67 		.ascii	"long long int\000"
 1402      206C6F6E 
 1402      6720696E 
 1402      7400
 1403              	.LASF24:
 1404 01da 61727261 		.ascii	"arrayCopy\000"
 1404      79436F70 
 1404      7900
 1405              	.LASF26:
 1406 01e4 6D656D63 		.ascii	"memcpy\000"
 1406      707900
 1407              	.LASF5:
 1408 01eb 73686F72 		.ascii	"short int\000"
 1408      7420696E 
 1408      7400
 1409              	.LASF22:
 1410 01f5 41727261 		.ascii	"ArrayCopy.c\000"
 1410      79436F70 
ARM GAS  C:\Users\jo\AppData\Local\Temp\ccrpD54K.s 			page 27


 1410      792E6300 
 1411              	.LASF15:
 1412 0201 64496E64 		.ascii	"dIndex\000"
 1412      657800
 1413              	.LASF7:
 1414 0208 6C6F6E67 		.ascii	"long int\000"
 1414      20696E74 
 1414      00
 1415              	.LASF12:
 1416 0211 63686172 		.ascii	"char\000"
 1416      00
 1417              	.LASF1:
 1418 0216 7369676E 		.ascii	"signed char\000"
 1418      65642063 
 1418      68617200 
 1419              	.LASF20:
 1420 0222 75737263 		.ascii	"usrc\000"
 1420      00
 1421              		.ident	"GCC: (GNU Tools for ARM Embedded Processors) 4.9.3 20141119 (release) [ARM/embedded-4_9-br
ARM GAS  C:\Users\jo\AppData\Local\Temp\ccrpD54K.s 			page 28


DEFINED SYMBOLS
                            *ABS*:00000000 ArrayCopy.c
C:\Users\jo\AppData\Local\Temp\ccrpD54K.s:19     .text.arrayCopy:00000000 $t
C:\Users\jo\AppData\Local\Temp\ccrpD54K.s:25     .text.arrayCopy:00000000 arrayCopy
                     .debug_frame:00000010 $d

UNDEFINED SYMBOLS
memcpy
calloc
free
