ARM GAS  C:\Users\jo\AppData\Local\Temp\cc9x5Kid.s 			page 1


   1              		.syntax unified
   2              		.cpu cortex-m4
   3              		.fpu softvfp
   4              		.eabi_attribute 20, 1
   5              		.eabi_attribute 21, 1
   6              		.eabi_attribute 23, 3
   7              		.eabi_attribute 24, 1
   8              		.eabi_attribute 25, 1
   9              		.eabi_attribute 26, 1
  10              		.eabi_attribute 30, 2
  11              		.eabi_attribute 34, 1
  12              		.eabi_attribute 18, 4
  13              		.thumb
  14              		.file	"asn1parse.c"
  15              		.text
  16              	.Ltext0:
  17              		.cfi_sections	.debug_frame
  18              		.section	.text.asn1_get_len,"ax",%progbits
  19              		.align	2
  20              		.p2align 4,,15
  21              		.global	asn1_get_len
  22              		.thumb
  23              		.thumb_func
  24              		.type	asn1_get_len, %function
  25              	asn1_get_len:
  26              	.LFB0:
  27              		.file 1 "../../../os/ext/PolarSSL/library/asn1parse.c"
  28              		.loc 1 46 0
  29              		.cfi_startproc
  30              		@ args = 0, pretend = 0, frame = 0
  31              		@ frame_needed = 0, uses_anonymous_args = 0
  32              		@ link register save eliminated.
  33              	.LVL0:
  34              		.loc 1 47 0
  35 0000 0368     		ldr	r3, [r0]
  36              		.loc 1 46 0
  37 0002 F0B4     		push	{r4, r5, r6, r7}
  38              		.cfi_def_cfa_offset 16
  39              		.cfi_offset 4, -16
  40              		.cfi_offset 5, -12
  41              		.cfi_offset 6, -8
  42              		.cfi_offset 7, -4
  43              		.loc 1 47 0
  44 0004 CD1A     		subs	r5, r1, r3
  45 0006 002D     		cmp	r5, #0
  46 0008 43DD     		ble	.L11
  47              		.loc 1 50 0
  48 000a 1C78     		ldrb	r4, [r3]	@ zero_extendqisi2
  49 000c 2606     		lsls	r6, r4, #24
  50 000e 09D4     		bmi	.L4
  51              		.loc 1 51 0
  52 0010 5D1C     		adds	r5, r3, #1
  53 0012 0560     		str	r5, [r0]
  54 0014 1C78     		ldrb	r4, [r3]	@ zero_extendqisi2
  55 0016 1460     		str	r4, [r2]
  56              	.L5:
  57              		.loc 1 93 0
ARM GAS  C:\Users\jo\AppData\Local\Temp\cc9x5Kid.s 			page 2


  58 0018 491B     		subs	r1, r1, r5
  59              	.LVL1:
  60 001a A142     		cmp	r1, r4
  61 001c 39D3     		bcc	.L11
  62              		.loc 1 96 0
  63 001e 0020     		movs	r0, #0
  64              	.LVL2:
  65              	.L3:
  66              		.loc 1 97 0
  67 0020 F0BC     		pop	{r4, r5, r6, r7}
  68              		.cfi_remember_state
  69              		.cfi_restore 7
  70              		.cfi_restore 6
  71              		.cfi_restore 5
  72              		.cfi_restore 4
  73              		.cfi_def_cfa_offset 0
  74 0022 7047     		bx	lr
  75              	.LVL3:
  76              	.L4:
  77              		.cfi_restore_state
  78              		.loc 1 54 0
  79 0024 04F07F04 		and	r4, r4, #127
  80 0028 013C     		subs	r4, r4, #1
  81 002a 032C     		cmp	r4, #3
  82 002c 34D8     		bhi	.L12
  83 002e DFE804F0 		tbb	[pc, r4]
  84              	.L7:
  85 0032 29       		.byte	(.L6-.L7)/2
  86 0033 1F       		.byte	(.L8-.L7)/2
  87 0034 12       		.byte	(.L9-.L7)/2
  88 0035 02       		.byte	(.L10-.L7)/2
  89              		.p2align 1
  90              	.L10:
  91              		.loc 1 81 0
  92 0036 042D     		cmp	r5, #4
  93 0038 2BDD     		ble	.L11
  94              		.loc 1 84 0
  95 003a 9E78     		ldrb	r6, [r3, #2]	@ zero_extendqisi2
  96 003c 5C78     		ldrb	r4, [r3, #1]	@ zero_extendqisi2
  97 003e 1D79     		ldrb	r5, [r3, #4]	@ zero_extendqisi2
  98 0040 DF78     		ldrb	r7, [r3, #3]	@ zero_extendqisi2
  99 0042 3604     		lsls	r6, r6, #16
 100 0044 46EA0464 		orr	r4, r6, r4, lsl #24
 101 0048 2C43     		orrs	r4, r4, r5
 102 004a 44EA0724 		orr	r4, r4, r7, lsl #8
 103              		.loc 1 85 0
 104 004e 5D1D     		adds	r5, r3, #5
 105              		.loc 1 84 0
 106 0050 1460     		str	r4, [r2]
 107              		.loc 1 85 0
 108 0052 0560     		str	r5, [r0]
 109              		.loc 1 86 0
 110 0054 E0E7     		b	.L5
 111              	.L9:
 112              		.loc 1 73 0
 113 0056 032D     		cmp	r5, #3
 114 0058 1BDD     		ble	.L11
ARM GAS  C:\Users\jo\AppData\Local\Temp\cc9x5Kid.s 			page 3


 115              		.loc 1 76 0
 116 005a 9C78     		ldrb	r4, [r3, #2]	@ zero_extendqisi2
 117 005c 5E78     		ldrb	r6, [r3, #1]	@ zero_extendqisi2
 118 005e DD78     		ldrb	r5, [r3, #3]	@ zero_extendqisi2
 119 0060 2402     		lsls	r4, r4, #8
 120 0062 44EA0644 		orr	r4, r4, r6, lsl #16
 121 0066 2C43     		orrs	r4, r4, r5
 122              		.loc 1 77 0
 123 0068 1D1D     		adds	r5, r3, #4
 124              		.loc 1 76 0
 125 006a 1460     		str	r4, [r2]
 126              		.loc 1 77 0
 127 006c 0560     		str	r5, [r0]
 128              		.loc 1 78 0
 129 006e D3E7     		b	.L5
 130              	.L8:
 131              		.loc 1 65 0
 132 0070 022D     		cmp	r5, #2
 133 0072 0EDD     		ble	.L11
 134              		.loc 1 68 0
 135 0074 5E78     		ldrb	r6, [r3, #1]	@ zero_extendqisi2
 136 0076 9C78     		ldrb	r4, [r3, #2]	@ zero_extendqisi2
 137              		.loc 1 69 0
 138 0078 DD1C     		adds	r5, r3, #3
 139              		.loc 1 68 0
 140 007a 44EA0624 		orr	r4, r4, r6, lsl #8
 141 007e 1460     		str	r4, [r2]
 142              		.loc 1 69 0
 143 0080 0560     		str	r5, [r0]
 144              		.loc 1 70 0
 145 0082 C9E7     		b	.L5
 146              	.L6:
 147              		.loc 1 57 0
 148 0084 012D     		cmp	r5, #1
 149 0086 04D0     		beq	.L11
 150              		.loc 1 60 0
 151 0088 5C78     		ldrb	r4, [r3, #1]	@ zero_extendqisi2
 152 008a 1460     		str	r4, [r2]
 153              		.loc 1 61 0
 154 008c 9D1C     		adds	r5, r3, #2
 155 008e 0560     		str	r5, [r0]
 156              		.loc 1 62 0
 157 0090 C2E7     		b	.L5
 158              	.LVL4:
 159              	.L11:
 160              		.loc 1 48 0
 161 0092 6FF05F00 		mvn	r0, #95
 162              	.LVL5:
 163 0096 C3E7     		b	.L3
 164              	.LVL6:
 165              	.L12:
 166              		.loc 1 89 0
 167 0098 6FF06300 		mvn	r0, #99
 168              	.LVL7:
 169 009c C0E7     		b	.L3
 170              		.cfi_endproc
 171              	.LFE0:
ARM GAS  C:\Users\jo\AppData\Local\Temp\cc9x5Kid.s 			page 4


 172              		.size	asn1_get_len, .-asn1_get_len
 173 009e 00BF     		.section	.text.asn1_get_tag,"ax",%progbits
 174              		.align	2
 175              		.p2align 4,,15
 176              		.global	asn1_get_tag
 177              		.thumb
 178              		.thumb_func
 179              		.type	asn1_get_tag, %function
 180              	asn1_get_tag:
 181              	.LFB1:
 182              		.loc 1 102 0
 183              		.cfi_startproc
 184              		@ args = 0, pretend = 0, frame = 0
 185              		@ frame_needed = 0, uses_anonymous_args = 0
 186              		@ link register save eliminated.
 187              	.LVL8:
 188 0000 70B4     		push	{r4, r5, r6}
 189              		.cfi_def_cfa_offset 12
 190              		.cfi_offset 4, -12
 191              		.cfi_offset 5, -8
 192              		.cfi_offset 6, -4
 193              		.loc 1 103 0
 194 0002 0468     		ldr	r4, [r0]
 195 0004 0E1B     		subs	r6, r1, r4
 196 0006 002E     		cmp	r6, #0
 197 0008 0BDD     		ble	.L20
 198              		.loc 1 106 0
 199 000a 2678     		ldrb	r6, [r4]	@ zero_extendqisi2
 200 000c 9E42     		cmp	r6, r3
 201 000e 04D1     		bne	.L21
 202              		.loc 1 109 0
 203 0010 0134     		adds	r4, r4, #1
 204 0012 0460     		str	r4, [r0]
 205              		.loc 1 112 0
 206 0014 70BC     		pop	{r4, r5, r6}
 207              		.cfi_remember_state
 208              		.cfi_restore 6
 209              		.cfi_restore 5
 210              		.cfi_restore 4
 211              		.cfi_def_cfa_offset 0
 212              		.loc 1 111 0
 213 0016 FFF7FEBF 		b	asn1_get_len
 214              	.LVL9:
 215              	.L21:
 216              		.cfi_restore_state
 217              		.loc 1 107 0
 218 001a 6FF06100 		mvn	r0, #97
 219              	.LVL10:
 220              	.L19:
 221              		.loc 1 112 0
 222 001e 70BC     		pop	{r4, r5, r6}
 223              		.cfi_remember_state
 224              		.cfi_restore 6
 225              		.cfi_restore 5
 226              		.cfi_restore 4
 227              		.cfi_def_cfa_offset 0
 228 0020 7047     		bx	lr
ARM GAS  C:\Users\jo\AppData\Local\Temp\cc9x5Kid.s 			page 5


 229              	.LVL11:
 230              	.L20:
 231              		.cfi_restore_state
 232              		.loc 1 104 0
 233 0022 6FF05F00 		mvn	r0, #95
 234              	.LVL12:
 235 0026 FAE7     		b	.L19
 236              		.cfi_endproc
 237              	.LFE1:
 238              		.size	asn1_get_tag, .-asn1_get_tag
 239 0028 AFF30080 		.section	.text.asn1_get_bool,"ax",%progbits
 239      AFF30080 
 240              		.align	2
 241              		.p2align 4,,15
 242              		.global	asn1_get_bool
 243              		.thumb
 244              		.thumb_func
 245              		.type	asn1_get_bool, %function
 246              	asn1_get_bool:
 247              	.LFB2:
 248              		.loc 1 117 0
 249              		.cfi_startproc
 250              		@ args = 0, pretend = 0, frame = 8
 251              		@ frame_needed = 0, uses_anonymous_args = 0
 252              	.LVL13:
 253 0000 30B5     		push	{r4, r5, lr}
 254              		.cfi_def_cfa_offset 12
 255              		.cfi_offset 4, -12
 256              		.cfi_offset 5, -8
 257              		.cfi_offset 14, -4
 258 0002 83B0     		sub	sp, sp, #12
 259              		.cfi_def_cfa_offset 24
 260              		.loc 1 117 0
 261 0004 1546     		mov	r5, r2
 262              		.loc 1 121 0
 263 0006 0123     		movs	r3, #1
 264 0008 01AA     		add	r2, sp, #4
 265              	.LVL14:
 266              		.loc 1 117 0
 267 000a 0446     		mov	r4, r0
 268              		.loc 1 121 0
 269 000c FFF7FEFF 		bl	asn1_get_tag
 270              	.LVL15:
 271 0010 50B9     		cbnz	r0, .L24
 272              		.loc 1 124 0
 273 0012 019B     		ldr	r3, [sp, #4]
 274 0014 012B     		cmp	r3, #1
 275 0016 09D1     		bne	.L26
 276              		.loc 1 127 0
 277 0018 2368     		ldr	r3, [r4]
 278 001a 13F8012B 		ldrb	r2, [r3], #1	@ zero_extendqisi2
 279 001e 0032     		adds	r2, r2, #0
 280 0020 18BF     		it	ne
 281 0022 0122     		movne	r2, #1
 282 0024 2A60     		str	r2, [r5]
 283              		.loc 1 128 0
 284 0026 2360     		str	r3, [r4]
ARM GAS  C:\Users\jo\AppData\Local\Temp\cc9x5Kid.s 			page 6


 285              	.LVL16:
 286              	.L24:
 287              		.loc 1 131 0
 288 0028 03B0     		add	sp, sp, #12
 289              		.cfi_remember_state
 290              		.cfi_def_cfa_offset 12
 291              		@ sp needed
 292 002a 30BD     		pop	{r4, r5, pc}
 293              	.LVL17:
 294              	.L26:
 295              		.cfi_restore_state
 296              		.loc 1 125 0
 297 002c 6FF06300 		mvn	r0, #99
 298              	.LVL18:
 299 0030 FAE7     		b	.L24
 300              		.cfi_endproc
 301              	.LFE2:
 302              		.size	asn1_get_bool, .-asn1_get_bool
 303 0032 00BFAFF3 		.section	.text.asn1_get_int,"ax",%progbits
 303      0080AFF3 
 303      0080AFF3 
 303      0080
 304              		.align	2
 305              		.p2align 4,,15
 306              		.global	asn1_get_int
 307              		.thumb
 308              		.thumb_func
 309              		.type	asn1_get_int, %function
 310              	asn1_get_int:
 311              	.LFB3:
 312              		.loc 1 136 0
 313              		.cfi_startproc
 314              		@ args = 0, pretend = 0, frame = 8
 315              		@ frame_needed = 0, uses_anonymous_args = 0
 316              	.LVL19:
 317 0000 30B5     		push	{r4, r5, lr}
 318              		.cfi_def_cfa_offset 12
 319              		.cfi_offset 4, -12
 320              		.cfi_offset 5, -8
 321              		.cfi_offset 14, -4
 322 0002 83B0     		sub	sp, sp, #12
 323              		.cfi_def_cfa_offset 24
 324              		.loc 1 136 0
 325 0004 1546     		mov	r5, r2
 326              		.loc 1 140 0
 327 0006 0223     		movs	r3, #2
 328 0008 01AA     		add	r2, sp, #4
 329              	.LVL20:
 330              		.loc 1 136 0
 331 000a 0446     		mov	r4, r0
 332              		.loc 1 140 0
 333 000c FFF7FEFF 		bl	asn1_get_tag
 334              	.LVL21:
 335 0010 B0B9     		cbnz	r0, .L29
 336              		.loc 1 143 0
 337 0012 0199     		ldr	r1, [sp, #4]
 338 0014 0429     		cmp	r1, #4
ARM GAS  C:\Users\jo\AppData\Local\Temp\cc9x5Kid.s 			page 7


 339 0016 15D8     		bhi	.L35
 340              		.loc 1 143 0 is_stmt 0 discriminator 1
 341 0018 2268     		ldr	r2, [r4]
 342 001a 92F90030 		ldrsb	r3, [r2]
 343 001e 002B     		cmp	r3, #0
 344 0020 10DB     		blt	.L35
 345              		.loc 1 148 0 is_stmt 1
 346 0022 4B1E     		subs	r3, r1, #1
 347              		.loc 1 146 0
 348 0024 2860     		str	r0, [r5]
 349              		.loc 1 148 0
 350 0026 0193     		str	r3, [sp, #4]
 351 0028 49B1     		cbz	r1, .L32
 352              	.LVL22:
 353              	.L31:
 354              		.loc 1 150 0
 355 002a 12F8011B 		ldrb	r1, [r2], #1	@ zero_extendqisi2
 356              		.loc 1 148 0
 357 002e 013B     		subs	r3, r3, #1
 358              		.loc 1 150 0
 359 0030 41EA0020 		orr	r0, r1, r0, lsl #8
 360              		.loc 1 148 0
 361 0034 591C     		adds	r1, r3, #1
 362              		.loc 1 150 0
 363 0036 2860     		str	r0, [r5]
 364              		.loc 1 148 0
 365 0038 0193     		str	r3, [sp, #4]
 366              		.loc 1 151 0
 367 003a 2260     		str	r2, [r4]
 368              		.loc 1 148 0
 369 003c F5D1     		bne	.L31
 370              	.L32:
 371              		.loc 1 154 0
 372 003e 0020     		movs	r0, #0
 373              	.L29:
 374              		.loc 1 155 0
 375 0040 03B0     		add	sp, sp, #12
 376              		.cfi_remember_state
 377              		.cfi_def_cfa_offset 12
 378              		@ sp needed
 379 0042 30BD     		pop	{r4, r5, pc}
 380              	.LVL23:
 381              	.L35:
 382              		.cfi_restore_state
 383              		.loc 1 144 0
 384 0044 6FF06300 		mvn	r0, #99
 385              	.LVL24:
 386 0048 FAE7     		b	.L29
 387              		.cfi_endproc
 388              	.LFE3:
 389              		.size	asn1_get_int, .-asn1_get_int
 390 004a 00BFAFF3 		.section	.text.asn1_get_mpi,"ax",%progbits
 390      0080
 391              		.align	2
 392              		.p2align 4,,15
 393              		.global	asn1_get_mpi
 394              		.thumb
ARM GAS  C:\Users\jo\AppData\Local\Temp\cc9x5Kid.s 			page 8


 395              		.thumb_func
 396              		.type	asn1_get_mpi, %function
 397              	asn1_get_mpi:
 398              	.LFB4:
 399              		.loc 1 161 0
 400              		.cfi_startproc
 401              		@ args = 0, pretend = 0, frame = 8
 402              		@ frame_needed = 0, uses_anonymous_args = 0
 403              	.LVL25:
 404 0000 30B5     		push	{r4, r5, lr}
 405              		.cfi_def_cfa_offset 12
 406              		.cfi_offset 4, -12
 407              		.cfi_offset 5, -8
 408              		.cfi_offset 14, -4
 409 0002 83B0     		sub	sp, sp, #12
 410              		.cfi_def_cfa_offset 24
 411              		.loc 1 161 0
 412 0004 1546     		mov	r5, r2
 413              		.loc 1 165 0
 414 0006 0223     		movs	r3, #2
 415 0008 01AA     		add	r2, sp, #4
 416              	.LVL26:
 417              		.loc 1 161 0
 418 000a 0446     		mov	r4, r0
 419              		.loc 1 165 0
 420 000c FFF7FEFF 		bl	asn1_get_tag
 421              	.LVL27:
 422 0010 40B9     		cbnz	r0, .L39
 423              		.loc 1 168 0
 424 0012 019A     		ldr	r2, [sp, #4]
 425 0014 2168     		ldr	r1, [r4]
 426 0016 2846     		mov	r0, r5
 427              	.LVL28:
 428 0018 FFF7FEFF 		bl	mpi_read_binary
 429              	.LVL29:
 430              		.loc 1 170 0
 431 001c 2268     		ldr	r2, [r4]
 432 001e 019B     		ldr	r3, [sp, #4]
 433 0020 1344     		add	r3, r3, r2
 434 0022 2360     		str	r3, [r4]
 435              	.L39:
 436              		.loc 1 173 0
 437 0024 03B0     		add	sp, sp, #12
 438              		.cfi_def_cfa_offset 12
 439              		@ sp needed
 440 0026 30BD     		pop	{r4, r5, pc}
 441              		.cfi_endproc
 442              	.LFE4:
 443              		.size	asn1_get_mpi, .-asn1_get_mpi
 444 0028 AFF30080 		.section	.text.asn1_get_bitstring,"ax",%progbits
 444      AFF30080 
 445              		.align	2
 446              		.p2align 4,,15
 447              		.global	asn1_get_bitstring
 448              		.thumb
 449              		.thumb_func
 450              		.type	asn1_get_bitstring, %function
ARM GAS  C:\Users\jo\AppData\Local\Temp\cc9x5Kid.s 			page 9


 451              	asn1_get_bitstring:
 452              	.LFB5:
 453              		.loc 1 178 0
 454              		.cfi_startproc
 455              		@ args = 0, pretend = 0, frame = 0
 456              		@ frame_needed = 0, uses_anonymous_args = 0
 457              	.LVL30:
 458 0000 70B5     		push	{r4, r5, r6, lr}
 459              		.cfi_def_cfa_offset 16
 460              		.cfi_offset 4, -16
 461              		.cfi_offset 5, -12
 462              		.cfi_offset 6, -8
 463              		.cfi_offset 14, -4
 464              		.loc 1 182 0
 465 0002 0323     		movs	r3, #3
 466              		.loc 1 178 0
 467 0004 0446     		mov	r4, r0
 468 0006 0E46     		mov	r6, r1
 469 0008 1546     		mov	r5, r2
 470              		.loc 1 182 0
 471 000a FFF7FEFF 		bl	asn1_get_tag
 472              	.LVL31:
 473 000e B8B9     		cbnz	r0, .L43
 474              		.loc 1 186 0
 475 0010 2B68     		ldr	r3, [r5]
 476 0012 B3B1     		cbz	r3, .L45
 477              		.loc 1 191 0
 478 0014 2268     		ldr	r2, [r4]
 479              		.loc 1 188 0
 480 0016 013B     		subs	r3, r3, #1
 481 0018 2B60     		str	r3, [r5]
 482              		.loc 1 191 0
 483 001a 1278     		ldrb	r2, [r2]	@ zero_extendqisi2
 484 001c 2A71     		strb	r2, [r5, #4]
 485              		.loc 1 192 0
 486 001e 072A     		cmp	r2, #7
 487 0020 0CD8     		bhi	.L46
 488              		.loc 1 194 0
 489 0022 2268     		ldr	r2, [r4]
 490 0024 0132     		adds	r2, r2, #1
 491 0026 2260     		str	r2, [r4]
 492              		.loc 1 197 0
 493 0028 AA60     		str	r2, [r5, #8]
 494              		.loc 1 198 0
 495 002a 2268     		ldr	r2, [r4]
 496 002c 1344     		add	r3, r3, r2
 497              		.loc 1 200 0
 498 002e 9E42     		cmp	r6, r3
 499              		.loc 1 198 0
 500 0030 2360     		str	r3, [r4]
 501              		.loc 1 203 0
 502 0032 14BF     		ite	ne
 503 0034 6FF06500 		mvnne	r0, #101
 504              	.LVL32:
 505 0038 0020     		moveq	r0, #0
 506 003a 70BD     		pop	{r4, r5, r6, pc}
 507              	.LVL33:
ARM GAS  C:\Users\jo\AppData\Local\Temp\cc9x5Kid.s 			page 10


 508              	.L46:
 509              		.loc 1 193 0
 510 003c 6FF06300 		mvn	r0, #99
 511              	.LVL34:
 512              	.L43:
 513              		.loc 1 204 0
 514 0040 70BD     		pop	{r4, r5, r6, pc}
 515              	.LVL35:
 516              	.L45:
 517              		.loc 1 187 0
 518 0042 6FF05F00 		mvn	r0, #95
 519              	.LVL36:
 520 0046 70BD     		pop	{r4, r5, r6, pc}
 521              		.cfi_endproc
 522              	.LFE5:
 523              		.size	asn1_get_bitstring, .-asn1_get_bitstring
 524 0048 AFF30080 		.section	.text.asn1_get_sequence_of,"ax",%progbits
 524      AFF30080 
 525              		.align	2
 526              		.p2align 4,,15
 527              		.global	asn1_get_sequence_of
 528              		.thumb
 529              		.thumb_func
 530              		.type	asn1_get_sequence_of, %function
 531              	asn1_get_sequence_of:
 532              	.LFB6:
 533              		.loc 1 214 0
 534              		.cfi_startproc
 535              		@ args = 0, pretend = 0, frame = 8
 536              		@ frame_needed = 0, uses_anonymous_args = 0
 537              	.LVL37:
 538 0000 2DE9F043 		push	{r4, r5, r6, r7, r8, r9, lr}
 539              		.cfi_def_cfa_offset 28
 540              		.cfi_offset 4, -28
 541              		.cfi_offset 5, -24
 542              		.cfi_offset 6, -20
 543              		.cfi_offset 7, -16
 544              		.cfi_offset 8, -12
 545              		.cfi_offset 9, -8
 546              		.cfi_offset 14, -4
 547 0004 83B0     		sub	sp, sp, #12
 548              		.cfi_def_cfa_offset 40
 549              		.loc 1 214 0
 550 0006 1646     		mov	r6, r2
 551 0008 1F46     		mov	r7, r3
 552              		.loc 1 220 0
 553 000a 01AA     		add	r2, sp, #4
 554              	.LVL38:
 555 000c 3023     		movs	r3, #48
 556              	.LVL39:
 557              		.loc 1 214 0
 558 000e 0546     		mov	r5, r0
 559 0010 8946     		mov	r9, r1
 560              		.loc 1 220 0
 561 0012 FFF7FEFF 		bl	asn1_get_tag
 562              	.LVL40:
 563 0016 F0B9     		cbnz	r0, .L50
ARM GAS  C:\Users\jo\AppData\Local\Temp\cc9x5Kid.s 			page 11


 564              		.loc 1 224 0
 565 0018 2C68     		ldr	r4, [r5]
 566 001a 019B     		ldr	r3, [sp, #4]
 567 001c 04EB0308 		add	r8, r4, r3
 568 0020 C845     		cmp	r8, r9
 569 0022 23D1     		bne	.L51
 570              	.LVL41:
 571              	.L52:
 572              		.loc 1 227 0
 573 0024 A045     		cmp	r8, r4
 574              		.loc 1 230 0
 575 0026 3246     		mov	r2, r6
 576              		.loc 1 232 0
 577 0028 4146     		mov	r1, r8
 578 002a 3B46     		mov	r3, r7
 579 002c 2846     		mov	r0, r5
 580              		.loc 1 227 0
 581 002e 0DD9     		bls	.L58
 582              	.LVL42:
 583              		.loc 1 230 0
 584 0030 2478     		ldrb	r4, [r4]	@ zero_extendqisi2
 585 0032 42F8044B 		str	r4, [r2], #4
 586              		.loc 1 232 0
 587 0036 FFF7FEFF 		bl	asn1_get_tag
 588              	.LVL43:
 589 003a 60B9     		cbnz	r0, .L50
 590              		.loc 1 235 0
 591 003c 2B68     		ldr	r3, [r5]
 592 003e B360     		str	r3, [r6, #8]
 593              		.loc 1 236 0
 594 0040 2C68     		ldr	r4, [r5]
 595 0042 7368     		ldr	r3, [r6, #4]
 596 0044 1C44     		add	r4, r4, r3
 597              		.loc 1 239 0
 598 0046 A045     		cmp	r8, r4
 599              		.loc 1 236 0
 600 0048 2C60     		str	r4, [r5]
 601              		.loc 1 239 0
 602 004a 07D8     		bhi	.L60
 603              	.LVL44:
 604              	.L58:
 605              		.loc 1 252 0
 606 004c 0020     		movs	r0, #0
 607 004e F060     		str	r0, [r6, #12]
 608              		.loc 1 254 0
 609 0050 2B68     		ldr	r3, [r5]
 610 0052 9845     		cmp	r8, r3
 611 0054 0AD1     		bne	.L51
 612              	.LVL45:
 613              	.L50:
 614              		.loc 1 258 0
 615 0056 03B0     		add	sp, sp, #12
 616              		.cfi_remember_state
 617              		.cfi_def_cfa_offset 28
 618              		@ sp needed
 619 0058 BDE8F083 		pop	{r4, r5, r6, r7, r8, r9, pc}
 620              	.LVL46:
ARM GAS  C:\Users\jo\AppData\Local\Temp\cc9x5Kid.s 			page 12


 621              	.L60:
 622              		.cfi_restore_state
 623              		.loc 1 241 0
 624 005c 1020     		movs	r0, #16
 625              	.LVL47:
 626 005e FFF7FEFF 		bl	malloc
 627              	.LVL48:
 628 0062 F060     		str	r0, [r6, #12]
 629              		.loc 1 244 0
 630 0064 38B1     		cbz	r0, .L57
 631 0066 2C68     		ldr	r4, [r5]
 632 0068 0646     		mov	r6, r0
 633              	.LVL49:
 634 006a DBE7     		b	.L52
 635              	.LVL50:
 636              	.L51:
 637              		.loc 1 225 0
 638 006c 6FF06500 		mvn	r0, #101
 639              		.loc 1 258 0
 640 0070 03B0     		add	sp, sp, #12
 641              		.cfi_remember_state
 642              		.cfi_def_cfa_offset 28
 643              		@ sp needed
 644 0072 BDE8F083 		pop	{r4, r5, r6, r7, r8, r9, pc}
 645              	.LVL51:
 646              	.L57:
 647              		.cfi_restore_state
 648              		.loc 1 245 0
 649 0076 6FF06900 		mvn	r0, #105
 650 007a ECE7     		b	.L50
 651              		.cfi_endproc
 652              	.LFE6:
 653              		.size	asn1_get_sequence_of, .-asn1_get_sequence_of
 654 007c AFF30080 		.text
 655              	.Letext0:
 656              		.file 2 "c:\\program files\\gnu tools arm embedded\\4.9 2014q4\\arm-none-eabi\\include\\machine\\_
 657              		.file 3 "c:\\program files\\gnu tools arm embedded\\4.9 2014q4\\lib\\gcc\\arm-none-eabi\\4.9.3\\in
 658              		.file 4 "c:\\program files\\gnu tools arm embedded\\4.9 2014q4\\arm-none-eabi\\include\\stdint.h"
 659              		.file 5 "../../../demos/STM32/RT-STM32F407-DISCOVERY-uHttp/uhttp-1.1/PolarSSL/include/polarssl/big
 660              		.file 6 "../../../demos/STM32/RT-STM32F407-DISCOVERY-uHttp/uhttp-1.1/PolarSSL/include/polarssl/asn
 661              		.file 7 "c:\\program files\\gnu tools arm embedded\\4.9 2014q4\\arm-none-eabi\\include\\stdlib.h"