ARM GAS  C:\Users\jo\AppData\Local\Temp\ccRVaYUI.s 			page 1


   1              		.syntax unified
   2              		.cpu cortex-m4
   3              		.fpu softvfp
   4              		.eabi_attribute 20, 1
   5              		.eabi_attribute 21, 1
   6              		.eabi_attribute 23, 3
   7              		.eabi_attribute 24, 1
   8              		.eabi_attribute 25, 1
   9              		.eabi_attribute 26, 1
  10              		.eabi_attribute 30, 2
  11              		.eabi_attribute 34, 1
  12              		.eabi_attribute 18, 4
  13              		.thumb
  14              		.file	"base64.c"
  15              		.text
  16              	.Ltext0:
  17              		.cfi_sections	.debug_frame
  18              		.section	.text.base64_encode,"ax",%progbits
  19              		.align	2
  20              		.p2align 4,,15
  21              		.global	base64_encode
  22              		.thumb
  23              		.thumb_func
  24              		.type	base64_encode, %function
  25              	base64_encode:
  26              	.LFB0:
  27              		.file 1 "../../../os/ext/PolarSSL/library/base64.c"
  28              		.loc 1 72 0
  29              		.cfi_startproc
  30              		@ args = 0, pretend = 0, frame = 0
  31              		@ frame_needed = 0, uses_anonymous_args = 0
  32              	.LVL0:
  33              		.loc 1 77 0
  34 0000 002B     		cmp	r3, #0
  35 0002 6ED0     		beq	.L12
  36              		.loc 1 72 0
  37 0004 2DE9F04F 		push	{r4, r5, r6, r7, r8, r9, r10, fp, lr}
  38              		.cfi_def_cfa_offset 36
  39              		.cfi_offset 4, -36
  40              		.cfi_offset 5, -32
  41              		.cfi_offset 6, -28
  42              		.cfi_offset 7, -24
  43              		.cfi_offset 8, -20
  44              		.cfi_offset 9, -16
  45              		.cfi_offset 10, -12
  46              		.cfi_offset 11, -8
  47              		.cfi_offset 14, -4
  48              		.loc 1 80 0
  49 0008 454C     		ldr	r4, .L20
  50 000a DD00     		lsls	r5, r3, #3
  51 000c A4FB0564 		umull	r6, r4, r4, r5
  52 0010 A408     		lsrs	r4, r4, #2
  53              	.LVL1:
  54              		.loc 1 82 0
  55 0012 04EB4406 		add	r6, r4, r4, lsl #1
  56 0016 A5EB4605 		sub	r5, r5, r6, lsl #1
  57 001a 022D     		cmp	r5, #2
ARM GAS  C:\Users\jo\AppData\Local\Temp\ccRVaYUI.s 			page 2


  58 001c 5FD0     		beq	.L4
  59 001e 042D     		cmp	r5, #4
  60 0020 00D1     		bne	.L3
  61              		.loc 1 85 0
  62 0022 0234     		adds	r4, r4, #2
  63              	.LVL2:
  64              	.L3:
  65              		.loc 1 89 0
  66 0024 0D68     		ldr	r5, [r1]
  67 0026 0134     		adds	r4, r4, #1
  68              	.LVL3:
  69 0028 A542     		cmp	r5, r4
  70 002a 74D3     		bcc	.L18
  71              	.LVL4:
  72              	.LBB4:
  73              	.LBB5:
  74              		.loc 1 95 0
  75 002c 3C4C     		ldr	r4, .L20
  76              	.LVL5:
  77 002e A4FB034A 		umull	r4, r10, r4, r3
  78 0032 4FEA5A0A 		lsr	r10, r10, #1
  79              	.LVL6:
  80              		.loc 1 97 0
  81 0036 1AEB4A0A 		adds	r10, r10, r10, lsl #1
  82              	.LVL7:
  83 003a 69D0     		beq	.L13
  84 003c DFF8E4E0 		ldr	lr, .L20+4
  85 0040 D51C     		adds	r5, r2, #3
  86 0042 041D     		adds	r4, r0, #4
  87 0044 4FF00009 		mov	r9, #0
  88              	.LVL8:
  89              	.L8:
  90              		.loc 1 99 0
  91 0048 15F8037C 		ldrb	r7, [r5, #-3]	@ zero_extendqisi2
  92              	.LVL9:
  93              		.loc 1 100 0
  94 004c 15F8026C 		ldrb	r6, [r5, #-2]	@ zero_extendqisi2
  95              	.LVL10:
  96              		.loc 1 101 0
  97 0050 15F8012C 		ldrb	r2, [r5, #-1]	@ zero_extendqisi2
  98              	.LVL11:
  99              		.loc 1 104 0
 100 0054 07F00308 		and	r8, r7, #3
 101              		.loc 1 105 0
 102 0058 06F00F0C 		and	ip, r6, #15
 103 005c 4FEAA21B 		asr	fp, r2, #6
 104              		.loc 1 104 0
 105 0060 0EEB0818 		add	r8, lr, r8, lsl #4
 106              		.loc 1 103 0
 107 0064 BF10     		asrs	r7, r7, #2
 108              	.LVL12:
 109              		.loc 1 104 0
 110 0066 3611     		asrs	r6, r6, #4
 111              	.LVL13:
 112              		.loc 1 105 0
 113 0068 0EEB8C0C 		add	ip, lr, ip, lsl #2
 114              		.loc 1 106 0
ARM GAS  C:\Users\jo\AppData\Local\Temp\ccRVaYUI.s 			page 3


 115 006c 02F03F02 		and	r2, r2, #63
 116              	.LVL14:
 117              		.loc 1 97 0
 118 0070 09F10309 		add	r9, r9, #3
 119              	.LVL15:
 120              		.loc 1 104 0
 121 0074 18F80660 		ldrb	r6, [r8, r6]	@ zero_extendqisi2
 122              		.loc 1 106 0
 123 0078 1EF80220 		ldrb	r2, [lr, r2]	@ zero_extendqisi2
 124              		.loc 1 103 0
 125 007c 1EF80770 		ldrb	r7, [lr, r7]	@ zero_extendqisi2
 126              		.loc 1 105 0
 127 0080 1CF80BC0 		ldrb	ip, [ip, fp]	@ zero_extendqisi2
 128              		.loc 1 104 0
 129 0084 04F8036C 		strb	r6, [r4, #-3]
 130              	.LVL16:
 131              		.loc 1 97 0
 132 0088 CA45     		cmp	r10, r9
 133              		.loc 1 106 0
 134 008a 04F8012C 		strb	r2, [r4, #-1]
 135              		.loc 1 103 0
 136 008e 04F8047C 		strb	r7, [r4, #-4]
 137              	.LVL17:
 138              		.loc 1 105 0
 139 0092 04F802CC 		strb	ip, [r4, #-2]
 140              	.LVL18:
 141 0096 2A46     		mov	r2, r5
 142 0098 2646     		mov	r6, r4
 143 009a 05F10305 		add	r5, r5, #3
 144              	.LVL19:
 145 009e 04F10404 		add	r4, r4, #4
 146              	.LVL20:
 147              		.loc 1 97 0
 148 00a2 D1D8     		bhi	.L8
 149              	.LVL21:
 150              	.L7:
 151              		.loc 1 109 0
 152 00a4 4B45     		cmp	r3, r9
 153 00a6 13D9     		bls	.L9
 154              	.LVL22:
 155              		.loc 1 112 0
 156 00a8 09F10104 		add	r4, r9, #1
 157 00ac A342     		cmp	r3, r4
 158              		.loc 1 111 0
 159 00ae 1578     		ldrb	r5, [r2]	@ zero_extendqisi2
 160              	.LVL23:
 161              		.loc 1 112 0
 162 00b0 19D8     		bhi	.L19
 163              	.LVL24:
 164              		.loc 1 115 0
 165 00b2 05F00303 		and	r3, r5, #3
 166              	.LVL25:
 167 00b6 1B01     		lsls	r3, r3, #4
 168              		.loc 1 114 0
 169 00b8 1A4A     		ldr	r2, .L20+4
 170              	.LVL26:
 171 00ba AD10     		asrs	r5, r5, #2
ARM GAS  C:\Users\jo\AppData\Local\Temp\ccRVaYUI.s 			page 4


 172              	.LVL27:
 173              		.loc 1 115 0
 174 00bc D75C     		ldrb	r7, [r2, r3]	@ zero_extendqisi2
 175              		.loc 1 114 0
 176 00be 535D     		ldrb	r3, [r2, r5]	@ zero_extendqisi2
 177              		.loc 1 115 0
 178 00c0 7770     		strb	r7, [r6, #1]
 179              		.loc 1 119 0
 180 00c2 3D24     		movs	r4, #61
 181              		.loc 1 114 0
 182 00c4 3370     		strb	r3, [r6]
 183              	.LVL28:
 184              		.loc 1 119 0
 185 00c6 B470     		strb	r4, [r6, #2]
 186 00c8 0336     		adds	r6, r6, #3
 187              	.LVL29:
 188              	.L11:
 189              		.loc 1 121 0
 190 00ca 3D23     		movs	r3, #61
 191 00cc 3370     		strb	r3, [r6]
 192 00ce 0136     		adds	r6, r6, #1
 193              	.LVL30:
 194              	.L9:
 195              		.loc 1 124 0
 196 00d0 301A     		subs	r0, r6, r0
 197              	.LVL31:
 198              		.loc 1 125 0
 199 00d2 0023     		movs	r3, #0
 200              		.loc 1 124 0
 201 00d4 0860     		str	r0, [r1]
 202              		.loc 1 125 0
 203 00d6 3370     		strb	r3, [r6]
 204 00d8 1846     		mov	r0, r3
 205 00da BDE8F08F 		pop	{r4, r5, r6, r7, r8, r9, r10, fp, pc}
 206              	.LVL32:
 207              	.L4:
 208              	.LBE5:
 209              	.LBE4:
 210              		.loc 1 84 0
 211 00de 0334     		adds	r4, r4, #3
 212              	.LVL33:
 213 00e0 A0E7     		b	.L3
 214              	.LVL34:
 215              	.L12:
 216              		.cfi_def_cfa_offset 0
 217              		.cfi_restore 4
 218              		.cfi_restore 5
 219              		.cfi_restore 6
 220              		.cfi_restore 7
 221              		.cfi_restore 8
 222              		.cfi_restore 9
 223              		.cfi_restore 10
 224              		.cfi_restore 11
 225              		.cfi_restore 14
 226              		.loc 1 78 0
 227 00e2 1846     		mov	r0, r3
 228              	.LVL35:
ARM GAS  C:\Users\jo\AppData\Local\Temp\ccRVaYUI.s 			page 5


 229              		.loc 1 128 0
 230 00e4 7047     		bx	lr
 231              	.LVL36:
 232              	.L19:
 233              		.cfi_def_cfa_offset 36
 234              		.cfi_offset 4, -36
 235              		.cfi_offset 5, -32
 236              		.cfi_offset 6, -28
 237              		.cfi_offset 7, -24
 238              		.cfi_offset 8, -20
 239              		.cfi_offset 9, -16
 240              		.cfi_offset 10, -12
 241              		.cfi_offset 11, -8
 242              		.cfi_offset 14, -4
 243              	.LBB7:
 244              	.LBB6:
 245              		.loc 1 112 0
 246 00e6 5378     		ldrb	r3, [r2, #1]	@ zero_extendqisi2
 247              	.LVL37:
 248              		.loc 1 114 0
 249 00e8 0E4A     		ldr	r2, .L20+4
 250              	.LVL38:
 251              		.loc 1 115 0
 252 00ea 05F00304 		and	r4, r5, #3
 253 00ee 4FEA231E 		asr	lr, r3, #4
 254 00f2 02EB0414 		add	r4, r2, r4, lsl #4
 255              		.loc 1 118 0
 256 00f6 03F00F03 		and	r3, r3, #15
 257              	.LVL39:
 258              		.loc 1 114 0
 259 00fa AD10     		asrs	r5, r5, #2
 260              	.LVL40:
 261              		.loc 1 118 0
 262 00fc 12F82370 		ldrb	r7, [r2, r3, lsl #2]	@ zero_extendqisi2
 263              		.loc 1 115 0
 264 0100 14F80E40 		ldrb	r4, [r4, lr]	@ zero_extendqisi2
 265              		.loc 1 114 0
 266 0104 535D     		ldrb	r3, [r2, r5]	@ zero_extendqisi2
 267              		.loc 1 118 0
 268 0106 B770     		strb	r7, [r6, #2]
 269              		.loc 1 115 0
 270 0108 7470     		strb	r4, [r6, #1]
 271              		.loc 1 114 0
 272 010a 3370     		strb	r3, [r6]
 273              	.LVL41:
 274              		.loc 1 118 0
 275 010c 0336     		adds	r6, r6, #3
 276              	.LVL42:
 277 010e DCE7     		b	.L11
 278              	.LVL43:
 279              	.L13:
 280              		.loc 1 97 0
 281 0110 D146     		mov	r9, r10
 282 0112 0646     		mov	r6, r0
 283 0114 C6E7     		b	.L7
 284              	.LVL44:
 285              	.L18:
ARM GAS  C:\Users\jo\AppData\Local\Temp\ccRVaYUI.s 			page 6


 286              	.LBE6:
 287              	.LBE7:
 288              		.loc 1 91 0
 289 0116 0C60     		str	r4, [r1]
 290              		.loc 1 92 0
 291 0118 6FF02900 		mvn	r0, #41
 292              	.LVL45:
 293 011c BDE8F08F 		pop	{r4, r5, r6, r7, r8, r9, r10, fp, pc}
 294              	.LVL46:
 295              	.L21:
 296              		.align	2
 297              	.L20:
 298 0120 ABAAAAAA 		.word	-1431655765
 299 0124 00000000 		.word	.LANCHOR0
 300              		.cfi_endproc
 301              	.LFE0:
 302              		.size	base64_encode, .-base64_encode
 303 0128 AFF30080 		.section	.text.base64_decode,"ax",%progbits
 303      AFF30080 
 304              		.align	2
 305              		.p2align 4,,15
 306              		.global	base64_decode
 307              		.thumb
 308              		.thumb_func
 309              		.type	base64_decode, %function
 310              	base64_decode:
 311              	.LFB1:
 312              		.loc 1 135 0
 313              		.cfi_startproc
 314              		@ args = 0, pretend = 0, frame = 0
 315              		@ frame_needed = 0, uses_anonymous_args = 0
 316              	.LVL47:
 317              		.loc 1 140 0
 318 0000 002B     		cmp	r3, #0
 319 0002 00F08B80 		beq	.L40
 320              		.loc 1 135 0
 321 0006 2DE9F047 		push	{r4, r5, r6, r7, r8, r9, r10, lr}
 322              		.cfi_def_cfa_offset 32
 323              		.cfi_offset 4, -32
 324              		.cfi_offset 5, -28
 325              		.cfi_offset 6, -24
 326              		.cfi_offset 7, -20
 327              		.cfi_offset 8, -16
 328              		.cfi_offset 9, -12
 329              		.cfi_offset 10, -8
 330              		.cfi_offset 14, -4
 331 000a 9046     		mov	r8, r2
 332              		.loc 1 140 0
 333 000c 0125     		movs	r5, #1
 334 000e 0022     		movs	r2, #0
 335              	.LVL48:
 336              		.loc 1 152 0
 337 0010 DFF81C91 		ldr	r9, .L73
 338              		.loc 1 140 0
 339 0014 1746     		mov	r7, r2
 340 0016 C446     		mov	ip, r8
 341 0018 4646     		mov	r6, r8
ARM GAS  C:\Users\jo\AppData\Local\Temp\ccRVaYUI.s 			page 7


 342 001a 03EB050E 		add	lr, r3, r5
 343 001e 15E0     		b	.L31
 344              	.LVL49:
 345              	.L66:
 346              		.loc 1 149 0
 347 0020 3D2C     		cmp	r4, #61
 348 0022 5BD0     		beq	.L63
 349              		.loc 1 152 0
 350 0024 14F0800F 		tst	r4, #128
 351 0028 54D1     		bne	.L46
 352              	.L27:
 353              		.loc 1 152 0 is_stmt 0 discriminator 1
 354 002a 19F80440 		ldrb	r4, [r9, r4]	@ zero_extendqisi2
 355 002e 7F2C     		cmp	r4, #127
 356 0030 50D0     		beq	.L46
 357              	.L70:
 358              		.loc 1 155 0 is_stmt 1
 359 0032 3F2C     		cmp	r4, #63
 360 0034 01D8     		bhi	.L30
 361              		.loc 1 155 0 is_stmt 0 discriminator 1
 362 0036 002A     		cmp	r2, #0
 363 0038 4CD1     		bne	.L46
 364              	.L30:
 365              		.loc 1 158 0 is_stmt 1
 366 003a 2C46     		mov	r4, r5
 367              		.loc 1 140 0
 368 003c A342     		cmp	r3, r4
 369              		.loc 1 158 0
 370 003e 07F10107 		add	r7, r7, #1
 371              	.LVL50:
 372 0042 05F10105 		add	r5, r5, #1
 373 0046 06F10106 		add	r6, r6, #1
 374              		.loc 1 140 0
 375 004a 0FD9     		bls	.L64
 376              	.LVL51:
 377              	.L31:
 378 004c C5EB0E04 		rsb	r4, r5, lr
 379              		.loc 1 142 0
 380 0050 012C     		cmp	r4, #1
 381              		.loc 1 143 0
 382 0052 3478     		ldrb	r4, [r6]	@ zero_extendqisi2
 383              		.loc 1 142 0
 384 0054 01D9     		bls	.L25
 385              		.loc 1 142 0 is_stmt 0 discriminator 1
 386 0056 0D2C     		cmp	r4, #13
 387 0058 33D0     		beq	.L65
 388              	.L25:
 389              		.loc 1 146 0 is_stmt 1
 390 005a 0A2C     		cmp	r4, #10
 391 005c E0D1     		bne	.L66
 392              	.L42:
 393 005e 2C46     		mov	r4, r5
 394              	.LVL52:
 395              		.loc 1 140 0
 396 0060 A342     		cmp	r3, r4
 397 0062 05F10105 		add	r5, r5, #1
 398 0066 06F10106 		add	r6, r6, #1
ARM GAS  C:\Users\jo\AppData\Local\Temp\ccRVaYUI.s 			page 8


 399 006a EFD8     		bhi	.L31
 400              	.L64:
 401              		.loc 1 161 0
 402 006c 002F     		cmp	r7, #0
 403 006e 3CD0     		beq	.L61
 404              		.loc 1 164 0
 405 0070 07EB4703 		add	r3, r7, r7, lsl #1
 406              	.LVL53:
 407 0074 5B00     		lsls	r3, r3, #1
 408 0076 0733     		adds	r3, r3, #7
 409              		.loc 1 166 0
 410 0078 0A68     		ldr	r2, [r1]
 411              	.LVL54:
 412              		.loc 1 164 0
 413 007a DB08     		lsrs	r3, r3, #3
 414              	.LVL55:
 415              		.loc 1 166 0
 416 007c 9342     		cmp	r3, r2
 417 007e 4FD8     		bhi	.L32
 418              	.LVL56:
 419              		.loc 1 172 0 discriminator 1
 420 0080 002C     		cmp	r4, #0
 421 0082 49D0     		beq	.L67
 422              		.loc 1 172 0 is_stmt 0
 423 0084 0025     		movs	r5, #0
 424              		.loc 1 177 0 is_stmt 1
 425 0086 DFF8A890 		ldr	r9, .L73
 426 008a 4444     		add	r4, r4, r8
 427              	.LVL57:
 428              		.loc 1 172 0
 429 008c 2A46     		mov	r2, r5
 430 008e 8646     		mov	lr, r0
 431              	.LVL58:
 432 0090 0326     		movs	r6, #3
 433 0092 01E0     		b	.L39
 434              	.LVL59:
 435              	.L35:
 436              		.loc 1 172 0 is_stmt 0 discriminator 2
 437 0094 A445     		cmp	ip, r4
 438 0096 25D0     		beq	.L68
 439              	.LVL60:
 440              	.L39:
 441              		.loc 1 174 0 is_stmt 1
 442 0098 1CF8013B 		ldrb	r3, [ip], #1	@ zero_extendqisi2
 443              	.LVL61:
 444 009c 0D2B     		cmp	r3, #13
 445 009e F9D0     		beq	.L35
 446              		.loc 1 174 0 is_stmt 0 discriminator 1
 447 00a0 0A2B     		cmp	r3, #10
 448 00a2 F7D0     		beq	.L35
 449              		.loc 1 177 0 is_stmt 1
 450 00a4 19F80330 		ldrb	r3, [r9, r3]	@ zero_extendqisi2
 451              		.loc 1 180 0
 452 00a8 0132     		adds	r2, r2, #1
 453              	.LVL62:
 454              		.loc 1 178 0
 455 00aa 03F03F07 		and	r7, r3, #63
ARM GAS  C:\Users\jo\AppData\Local\Temp\ccRVaYUI.s 			page 9


 456              		.loc 1 177 0
 457 00ae 402B     		cmp	r3, #64
 458 00b0 08BF     		it	eq
 459 00b2 013E     		subeq	r6, r6, #1
 460              	.LVL63:
 461              		.loc 1 180 0
 462 00b4 042A     		cmp	r2, #4
 463              		.loc 1 178 0
 464 00b6 47EA8515 		orr	r5, r7, r5, lsl #6
 465              	.LVL64:
 466              		.loc 1 180 0
 467 00ba EBD1     		bne	.L35
 468              	.LVL65:
 469              		.loc 1 183 0
 470 00bc C6B9     		cbnz	r6, .L69
 471              	.LVL66:
 472              	.L36:
 473              		.loc 1 182 0
 474 00be 0022     		movs	r2, #0
 475 00c0 E8E7     		b	.L35
 476              	.LVL67:
 477              	.L65:
 478              		.loc 1 143 0
 479 00c2 96F801A0 		ldrb	r10, [r6, #1]	@ zero_extendqisi2
 480 00c6 BAF10A0F 		cmp	r10, #10
 481 00ca C8D0     		beq	.L42
 482              		.loc 1 152 0
 483 00cc 19F80440 		ldrb	r4, [r9, r4]	@ zero_extendqisi2
 484 00d0 7F2C     		cmp	r4, #127
 485 00d2 AED1     		bne	.L70
 486              	.L46:
 487              		.loc 1 150 0
 488 00d4 6FF02B00 		mvn	r0, #43
 489              	.LVL68:
 490 00d8 BDE8F087 		pop	{r4, r5, r6, r7, r8, r9, r10, pc}
 491              	.LVL69:
 492              	.L63:
 493              		.loc 1 149 0 discriminator 1
 494 00dc 0132     		adds	r2, r2, #1
 495              	.LVL70:
 496 00de 022A     		cmp	r2, #2
 497 00e0 A3D9     		bls	.L27
 498 00e2 F7E7     		b	.L46
 499              	.LVL71:
 500              	.L68:
 501 00e4 C0EB0E00 		rsb	r0, r0, lr
 502              	.LVL72:
 503              	.L34:
 504              		.loc 1 189 0
 505 00e8 0860     		str	r0, [r1]
 506              	.L61:
 507              		.loc 1 191 0
 508 00ea 0020     		movs	r0, #0
 509 00ec BDE8F087 		pop	{r4, r5, r6, r7, r8, r9, r10, pc}
 510              	.LVL73:
 511              	.L69:
 512              		.loc 1 183 0 discriminator 1
ARM GAS  C:\Users\jo\AppData\Local\Temp\ccRVaYUI.s 			page 10


 513 00f0 2B0C     		lsrs	r3, r5, #16
 514              		.loc 1 184 0 discriminator 1
 515 00f2 012E     		cmp	r6, #1
 516              		.loc 1 183 0 discriminator 1
 517 00f4 8EF80030 		strb	r3, [lr]
 518              		.loc 1 184 0 discriminator 1
 519 00f8 17D0     		beq	.L71
 520              	.LVL74:
 521 00fa 2B0A     		lsrs	r3, r5, #8
 522              		.loc 1 185 0 discriminator 1
 523 00fc 022E     		cmp	r6, #2
 524              		.loc 1 184 0 discriminator 1
 525 00fe 8EF80130 		strb	r3, [lr, #1]
 526              		.loc 1 185 0 discriminator 1
 527 0102 05D0     		beq	.L72
 528              	.LVL75:
 529 0104 8EF80250 		strb	r5, [lr, #2]
 530              		.loc 1 182 0 discriminator 1
 531 0108 0022     		movs	r2, #0
 532              		.loc 1 185 0 discriminator 1
 533 010a 0EF1030E 		add	lr, lr, #3
 534              	.LVL76:
 535 010e C1E7     		b	.L35
 536              	.LVL77:
 537              	.L72:
 538              		.loc 1 184 0
 539 0110 0EF1020E 		add	lr, lr, #2
 540              	.LVL78:
 541              		.loc 1 182 0
 542 0114 0022     		movs	r2, #0
 543 0116 BDE7     		b	.L35
 544              	.LVL79:
 545              	.L67:
 546              		.loc 1 172 0
 547 0118 2046     		mov	r0, r4
 548              	.LVL80:
 549 011a E5E7     		b	.L34
 550              	.LVL81:
 551              	.L40:
 552              		.cfi_def_cfa_offset 0
 553              		.cfi_restore 4
 554              		.cfi_restore 5
 555              		.cfi_restore 6
 556              		.cfi_restore 7
 557              		.cfi_restore 8
 558              		.cfi_restore 9
 559              		.cfi_restore 10
 560              		.cfi_restore 14
 561              		.loc 1 162 0
 562 011c 1846     		mov	r0, r3
 563              	.LVL82:
 564              		.loc 1 192 0
 565 011e 7047     		bx	lr
 566              	.LVL83:
 567              	.L32:
 568              		.cfi_def_cfa_offset 32
 569              		.cfi_offset 4, -32
ARM GAS  C:\Users\jo\AppData\Local\Temp\ccRVaYUI.s 			page 11


 570              		.cfi_offset 5, -28
 571              		.cfi_offset 6, -24
 572              		.cfi_offset 7, -20
 573              		.cfi_offset 8, -16
 574              		.cfi_offset 9, -12
 575              		.cfi_offset 10, -8
 576              		.cfi_offset 14, -4
 577              		.loc 1 168 0
 578 0120 0B60     		str	r3, [r1]
 579              		.loc 1 169 0
 580 0122 6FF02900 		mvn	r0, #41
 581              	.LVL84:
 582 0126 BDE8F087 		pop	{r4, r5, r6, r7, r8, r9, r10, pc}
 583              	.LVL85:
 584              	.L71:
 585              		.loc 1 183 0
 586 012a 0EF1010E 		add	lr, lr, #1
 587              	.LVL86:
 588 012e C6E7     		b	.L36
 589              	.L74:
 590              		.align	2
 591              	.L73:
 592 0130 00000000 		.word	.LANCHOR1
 593              		.cfi_endproc
 594              	.LFE1:
 595              		.size	base64_decode, .-base64_decode
 596 0134 AFF30080 		.section	.text.base64_self_test,"ax",%progbits
 596      AFF30080 
 596      AFF30080 
 597              		.align	2
 598              		.p2align 4,,15
 599              		.global	base64_self_test
 600              		.thumb
 601              		.thumb_func
 602              		.type	base64_self_test, %function
 603              	base64_self_test:
 604              	.LFB2:
 605              		.loc 1 219 0
 606              		.cfi_startproc
 607              		@ args = 0, pretend = 0, frame = 136
 608              		@ frame_needed = 0, uses_anonymous_args = 0
 609              	.LVL87:
 610 0000 10B5     		push	{r4, lr}
 611              		.cfi_def_cfa_offset 8
 612              		.cfi_offset 4, -8
 613              		.cfi_offset 14, -4
 614 0002 A2B0     		sub	sp, sp, #136
 615              		.cfi_def_cfa_offset 144
 616              		.loc 1 224 0
 617 0004 28BB     		cbnz	r0, .L98
 618              		.loc 1 227 0
 619 0006 8024     		movs	r4, #128
 620              		.loc 1 230 0
 621 0008 02A8     		add	r0, sp, #8
 622              	.LVL88:
 623 000a 01A9     		add	r1, sp, #4
 624 000c 284A     		ldr	r2, .L100
ARM GAS  C:\Users\jo\AppData\Local\Temp\ccRVaYUI.s 			page 12


 625              		.loc 1 227 0
 626 000e 0194     		str	r4, [sp, #4]
 627              	.LVL89:
 628              		.loc 1 230 0
 629 0010 4023     		movs	r3, #64
 630 0012 FFF7FEFF 		bl	base64_encode
 631              	.LVL90:
 632 0016 18B1     		cbz	r0, .L99
 633              	.LVL91:
 634              	.L79:
 635              		.loc 1 236 0
 636 0018 0124     		movs	r4, #1
 637              	.L86:
 638              		.loc 1 258 0
 639 001a 2046     		mov	r0, r4
 640 001c 22B0     		add	sp, sp, #136
 641              		.cfi_remember_state
 642              		.cfi_def_cfa_offset 8
 643              		@ sp needed
 644 001e 10BD     		pop	{r4, pc}
 645              	.LVL92:
 646              	.L99:
 647              		.cfi_restore_state
 648              		.loc 1 231 0
 649 0020 2448     		ldr	r0, .L100+4
 650 0022 02A9     		add	r1, sp, #8
 651 0024 5822     		movs	r2, #88
 652 0026 FFF7FEFF 		bl	memcmp
 653              	.LVL93:
 654              		.loc 1 230 0
 655 002a 0028     		cmp	r0, #0
 656 002c F4D1     		bne	.L79
 657              		.loc 1 245 0
 658 002e 01A9     		add	r1, sp, #4
 659 0030 02A8     		add	r0, sp, #8
 660 0032 204A     		ldr	r2, .L100+4
 661              		.loc 1 242 0
 662 0034 0194     		str	r4, [sp, #4]
 663              	.LVL94:
 664              		.loc 1 245 0
 665 0036 5823     		movs	r3, #88
 666 0038 FFF7FEFF 		bl	base64_decode
 667              	.LVL95:
 668 003c 0028     		cmp	r0, #0
 669 003e EBD1     		bne	.L79
 670              		.loc 1 246 0
 671 0040 02A9     		add	r1, sp, #8
 672 0042 1B48     		ldr	r0, .L100
 673 0044 4022     		movs	r2, #64
 674 0046 FFF7FEFF 		bl	memcmp
 675              	.LVL96:
 676              		.loc 1 245 0
 677 004a 0446     		mov	r4, r0
 678 004c 0028     		cmp	r0, #0
 679 004e E3D1     		bne	.L79
 680 0050 E3E7     		b	.L86
 681              	.LVL97:
ARM GAS  C:\Users\jo\AppData\Local\Temp\ccRVaYUI.s 			page 13


 682              	.L98:
 683              		.loc 1 225 0
 684 0052 1948     		ldr	r0, .L100+8
 685              	.LVL98:
 686 0054 FFF7FEFF 		bl	printf
 687              	.LVL99:
 688              		.loc 1 227 0
 689 0058 8024     		movs	r4, #128
 690              		.loc 1 230 0
 691 005a 02A8     		add	r0, sp, #8
 692 005c 01A9     		add	r1, sp, #4
 693 005e 144A     		ldr	r2, .L100
 694              		.loc 1 227 0
 695 0060 0194     		str	r4, [sp, #4]
 696              	.LVL100:
 697              		.loc 1 230 0
 698 0062 4023     		movs	r3, #64
 699 0064 FFF7FEFF 		bl	base64_encode
 700              	.LVL101:
 701 0068 D8B9     		cbnz	r0, .L81
 702              		.loc 1 231 0
 703 006a 1248     		ldr	r0, .L100+4
 704 006c 02A9     		add	r1, sp, #8
 705 006e 5822     		movs	r2, #88
 706 0070 FFF7FEFF 		bl	memcmp
 707              	.LVL102:
 708              		.loc 1 230 0
 709 0074 A8B9     		cbnz	r0, .L81
 710              		.loc 1 240 0
 711 0076 1148     		ldr	r0, .L100+12
 712 0078 FFF7FEFF 		bl	printf
 713              	.LVL103:
 714              		.loc 1 245 0
 715 007c 01A9     		add	r1, sp, #4
 716 007e 02A8     		add	r0, sp, #8
 717 0080 0C4A     		ldr	r2, .L100+4
 718              		.loc 1 242 0
 719 0082 0194     		str	r4, [sp, #4]
 720              	.LVL104:
 721              		.loc 1 245 0
 722 0084 5823     		movs	r3, #88
 723 0086 FFF7FEFF 		bl	base64_decode
 724              	.LVL105:
 725 008a 50B9     		cbnz	r0, .L81
 726              		.loc 1 246 0
 727 008c 02A9     		add	r1, sp, #8
 728 008e 0848     		ldr	r0, .L100
 729 0090 4022     		movs	r2, #64
 730 0092 FFF7FEFF 		bl	memcmp
 731              	.LVL106:
 732              		.loc 1 245 0
 733 0096 0446     		mov	r4, r0
 734 0098 18B9     		cbnz	r0, .L81
 735              		.loc 1 255 0
 736 009a 0948     		ldr	r0, .L100+16
 737 009c FFF7FEFF 		bl	puts
 738              	.LVL107:
ARM GAS  C:\Users\jo\AppData\Local\Temp\ccRVaYUI.s 			page 14


 739 00a0 BBE7     		b	.L86
 740              	.LVL108:
 741              	.L81:
 742              		.loc 1 234 0
 743 00a2 0848     		ldr	r0, .L100+20
 744 00a4 FFF7FEFF 		bl	puts
 745              	.LVL109:
 746              		.loc 1 236 0
 747 00a8 0124     		movs	r4, #1
 748              		.loc 1 258 0
 749 00aa 2046     		mov	r0, r4
 750 00ac 22B0     		add	sp, sp, #136
 751              		.cfi_def_cfa_offset 8
 752              		@ sp needed
 753 00ae 10BD     		pop	{r4, pc}
 754              	.L101:
 755              		.align	2
 756              	.L100:
 757 00b0 00000000 		.word	.LANCHOR2
 758 00b4 00000000 		.word	.LANCHOR3
 759 00b8 00000000 		.word	.LC0
 760 00bc 24000000 		.word	.LC2
 761 00c0 44000000 		.word	.LC3
 762 00c4 1C000000 		.word	.LC1
 763              		.cfi_endproc
 764              	.LFE2:
 765              		.size	base64_self_test, .-base64_self_test
 766 00c8 AFF30080 		.section	.rodata.base64_enc_map,"a",%progbits
 766      AFF30080 
 767              		.align	2
 768              		.set	.LANCHOR0,. + 0
 769              		.type	base64_enc_map, %object
 770              		.size	base64_enc_map, 64
 771              	base64_enc_map:
 772 0000 41       		.byte	65
 773 0001 42       		.byte	66
 774 0002 43       		.byte	67
 775 0003 44       		.byte	68
 776 0004 45       		.byte	69
 777 0005 46       		.byte	70
 778 0006 47       		.byte	71
 779 0007 48       		.byte	72
 780 0008 49       		.byte	73
 781 0009 4A       		.byte	74
 782 000a 4B       		.byte	75
 783 000b 4C       		.byte	76
 784 000c 4D       		.byte	77
 785 000d 4E       		.byte	78
 786 000e 4F       		.byte	79
 787 000f 50       		.byte	80
 788 0010 51       		.byte	81
 789 0011 52       		.byte	82
 790 0012 53       		.byte	83
 791 0013 54       		.byte	84
 792 0014 55       		.byte	85
 793 0015 56       		.byte	86
 794 0016 57       		.byte	87
ARM GAS  C:\Users\jo\AppData\Local\Temp\ccRVaYUI.s 			page 15


 795 0017 58       		.byte	88
 796 0018 59       		.byte	89
 797 0019 5A       		.byte	90
 798 001a 61       		.byte	97
 799 001b 62       		.byte	98
 800 001c 63       		.byte	99
 801 001d 64       		.byte	100
 802 001e 65       		.byte	101
 803 001f 66       		.byte	102
 804 0020 67       		.byte	103
 805 0021 68       		.byte	104
 806 0022 69       		.byte	105
 807 0023 6A       		.byte	106
 808 0024 6B       		.byte	107
 809 0025 6C       		.byte	108
 810 0026 6D       		.byte	109
 811 0027 6E       		.byte	110
 812 0028 6F       		.byte	111
 813 0029 70       		.byte	112
 814 002a 71       		.byte	113
 815 002b 72       		.byte	114
 816 002c 73       		.byte	115
 817 002d 74       		.byte	116
 818 002e 75       		.byte	117
 819 002f 76       		.byte	118
 820 0030 77       		.byte	119
 821 0031 78       		.byte	120
 822 0032 79       		.byte	121
 823 0033 7A       		.byte	122
 824 0034 30       		.byte	48
 825 0035 31       		.byte	49
 826 0036 32       		.byte	50
 827 0037 33       		.byte	51
 828 0038 34       		.byte	52
 829 0039 35       		.byte	53
 830 003a 36       		.byte	54
 831 003b 37       		.byte	55
 832 003c 38       		.byte	56
 833 003d 39       		.byte	57
 834 003e 2B       		.byte	43
 835 003f 2F       		.byte	47
 836              		.section	.rodata.base64_test_dec,"a",%progbits
 837              		.align	2
 838              		.set	.LANCHOR2,. + 0
 839              		.type	base64_test_dec, %object
 840              		.size	base64_test_dec, 64
 841              	base64_test_dec:
 842 0000 24       		.byte	36
 843 0001 48       		.byte	72
 844 0002 6E       		.byte	110
 845 0003 56       		.byte	86
 846 0004 87       		.byte	-121
 847 0005 62       		.byte	98
 848 0006 5A       		.byte	90
 849 0007 BD       		.byte	-67
 850 0008 BF       		.byte	-65
 851 0009 17       		.byte	23
ARM GAS  C:\Users\jo\AppData\Local\Temp\ccRVaYUI.s 			page 16


 852 000a D9       		.byte	-39
 853 000b A2       		.byte	-94
 854 000c C4       		.byte	-60
 855 000d 17       		.byte	23
 856 000e 1A       		.byte	26
 857 000f 01       		.byte	1
 858 0010 94       		.byte	-108
 859 0011 ED       		.byte	-19
 860 0012 8F       		.byte	-113
 861 0013 1E       		.byte	30
 862 0014 11       		.byte	17
 863 0015 B3       		.byte	-77
 864 0016 D7       		.byte	-41
 865 0017 09       		.byte	9
 866 0018 0C       		.byte	12
 867 0019 B6       		.byte	-74
 868 001a E9       		.byte	-23
 869 001b 10       		.byte	16
 870 001c 6F       		.byte	111
 871 001d 22       		.byte	34
 872 001e EE       		.byte	-18
 873 001f 13       		.byte	19
 874 0020 CA       		.byte	-54
 875 0021 B3       		.byte	-77
 876 0022 07       		.byte	7
 877 0023 05       		.byte	5
 878 0024 76       		.byte	118
 879 0025 C9       		.byte	-55
 880 0026 FA       		.byte	-6
 881 0027 31       		.byte	49
 882 0028 6C       		.byte	108
 883 0029 08       		.byte	8
 884 002a 34       		.byte	52
 885 002b FF       		.byte	-1
 886 002c 8D       		.byte	-115
 887 002d C2       		.byte	-62
 888 002e 6C       		.byte	108
 889 002f 38       		.byte	56
 890 0030 00       		.byte	0
 891 0031 43       		.byte	67
 892 0032 E9       		.byte	-23
 893 0033 54       		.byte	84
 894 0034 97       		.byte	-105
 895 0035 AF       		.byte	-81
 896 0036 50       		.byte	80
 897 0037 4B       		.byte	75
 898 0038 D1       		.byte	-47
 899 0039 41       		.byte	65
 900 003a BA       		.byte	-70
 901 003b 95       		.byte	-107
 902 003c 31       		.byte	49
 903 003d 5A       		.byte	90
 904 003e 0B       		.byte	11
 905 003f 97       		.byte	-105
 906              		.section	.rodata.str1.4,"aMS",%progbits,1
 907              		.align	2
 908              	.LC0:
ARM GAS  C:\Users\jo\AppData\Local\Temp\ccRVaYUI.s 			page 17


 909 0000 20204261 		.ascii	"  Base64 encoding test: \000"
 909      73653634 
 909      20656E63 
 909      6F64696E 
 909      67207465 
 910 0019 000000   		.space	3
 911              	.LC1:
 912 001c 6661696C 		.ascii	"failed\000"
 912      656400
 913 0023 00       		.space	1
 914              	.LC2:
 915 0024 70617373 		.ascii	"passed\012  Base64 decoding test: \000"
 915      65640A20 
 915      20426173 
 915      65363420 
 915      6465636F 
 916              	.LC3:
 917 0044 70617373 		.ascii	"passed\012\000"
 917      65640A00 
 918              		.section	.rodata.base64_test_enc,"a",%progbits
 919              		.align	2
 920              		.set	.LANCHOR3,. + 0
 921              		.type	base64_test_enc, %object
 922              		.size	base64_test_enc, 89
 923              	base64_test_enc:
 924 0000 4A456875 		.ascii	"JEhuVodiWr2/F9mixBcaAZTtjx4Rs9cJDLbpEG8i7hPKswcFdsn"
 924      566F6469 
 924      5772322F 
 924      46396D69 
 924      78426361 
 925 0033 364D5777 		.ascii	"6MWwINP+Nwmw4AEPpVJevUEvRQbqVMVoLlw==\000"
 925      494E502B 
 925      4E776D77 
 925      34414550 
 925      70564A65 
 926 0059 000000   		.section	.rodata.base64_dec_map,"a",%progbits
 927              		.align	2
 928              		.set	.LANCHOR1,. + 0
 929              		.type	base64_dec_map, %object
 930              		.size	base64_dec_map, 128
 931              	base64_dec_map:
 932 0000 7F       		.byte	127
 933 0001 7F       		.byte	127
 934 0002 7F       		.byte	127
 935 0003 7F       		.byte	127
 936 0004 7F       		.byte	127
 937 0005 7F       		.byte	127
 938 0006 7F       		.byte	127
 939 0007 7F       		.byte	127
 940 0008 7F       		.byte	127
 941 0009 7F       		.byte	127
 942 000a 7F       		.byte	127
 943 000b 7F       		.byte	127
 944 000c 7F       		.byte	127
 945 000d 7F       		.byte	127
 946 000e 7F       		.byte	127
 947 000f 7F       		.byte	127
ARM GAS  C:\Users\jo\AppData\Local\Temp\ccRVaYUI.s 			page 18


 948 0010 7F       		.byte	127
 949 0011 7F       		.byte	127
 950 0012 7F       		.byte	127
 951 0013 7F       		.byte	127
 952 0014 7F       		.byte	127
 953 0015 7F       		.byte	127
 954 0016 7F       		.byte	127
 955 0017 7F       		.byte	127
 956 0018 7F       		.byte	127
 957 0019 7F       		.byte	127
 958 001a 7F       		.byte	127
 959 001b 7F       		.byte	127
 960 001c 7F       		.byte	127
 961 001d 7F       		.byte	127
 962 001e 7F       		.byte	127
 963 001f 7F       		.byte	127
 964 0020 7F       		.byte	127
 965 0021 7F       		.byte	127
 966 0022 7F       		.byte	127
 967 0023 7F       		.byte	127
 968 0024 7F       		.byte	127
 969 0025 7F       		.byte	127
 970 0026 7F       		.byte	127
 971 0027 7F       		.byte	127
 972 0028 7F       		.byte	127
 973 0029 7F       		.byte	127
 974 002a 7F       		.byte	127
 975 002b 3E       		.byte	62
 976 002c 7F       		.byte	127
 977 002d 7F       		.byte	127
 978 002e 7F       		.byte	127
 979 002f 3F       		.byte	63
 980 0030 34       		.byte	52
 981 0031 35       		.byte	53
 982 0032 36       		.byte	54
 983 0033 37       		.byte	55
 984 0034 38       		.byte	56
 985 0035 39       		.byte	57
 986 0036 3A       		.byte	58
 987 0037 3B       		.byte	59
 988 0038 3C       		.byte	60
 989 0039 3D       		.byte	61
 990 003a 7F       		.byte	127
 991 003b 7F       		.byte	127
 992 003c 7F       		.byte	127
 993 003d 40       		.byte	64
 994 003e 7F       		.byte	127
 995 003f 7F       		.byte	127
 996 0040 7F       		.byte	127
 997 0041 00       		.byte	0
 998 0042 01       		.byte	1
 999 0043 02       		.byte	2
 1000 0044 03       		.byte	3
 1001 0045 04       		.byte	4
 1002 0046 05       		.byte	5
 1003 0047 06       		.byte	6
 1004 0048 07       		.byte	7
ARM GAS  C:\Users\jo\AppData\Local\Temp\ccRVaYUI.s 			page 19


 1005 0049 08       		.byte	8
 1006 004a 09       		.byte	9
 1007 004b 0A       		.byte	10
 1008 004c 0B       		.byte	11
 1009 004d 0C       		.byte	12
 1010 004e 0D       		.byte	13
 1011 004f 0E       		.byte	14
 1012 0050 0F       		.byte	15
 1013 0051 10       		.byte	16
 1014 0052 11       		.byte	17
 1015 0053 12       		.byte	18
 1016 0054 13       		.byte	19
 1017 0055 14       		.byte	20
 1018 0056 15       		.byte	21
 1019 0057 16       		.byte	22
 1020 0058 17       		.byte	23
 1021 0059 18       		.byte	24
 1022 005a 19       		.byte	25
 1023 005b 7F       		.byte	127
 1024 005c 7F       		.byte	127
 1025 005d 7F       		.byte	127
 1026 005e 7F       		.byte	127
 1027 005f 7F       		.byte	127
 1028 0060 7F       		.byte	127
 1029 0061 1A       		.byte	26
 1030 0062 1B       		.byte	27
 1031 0063 1C       		.byte	28
 1032 0064 1D       		.byte	29
 1033 0065 1E       		.byte	30
 1034 0066 1F       		.byte	31
 1035 0067 20       		.byte	32
 1036 0068 21       		.byte	33
 1037 0069 22       		.byte	34
 1038 006a 23       		.byte	35
 1039 006b 24       		.byte	36
 1040 006c 25       		.byte	37
 1041 006d 26       		.byte	38
 1042 006e 27       		.byte	39
 1043 006f 28       		.byte	40
 1044 0070 29       		.byte	41
 1045 0071 2A       		.byte	42
 1046 0072 2B       		.byte	43
 1047 0073 2C       		.byte	44
 1048 0074 2D       		.byte	45
 1049 0075 2E       		.byte	46
 1050 0076 2F       		.byte	47
 1051 0077 30       		.byte	48
 1052 0078 31       		.byte	49
 1053 0079 32       		.byte	50
 1054 007a 33       		.byte	51
 1055 007b 7F       		.byte	127
 1056 007c 7F       		.byte	127
 1057 007d 7F       		.byte	127
 1058 007e 7F       		.byte	127
 1059 007f 7F       		.byte	127
 1060              		.text
 1061              	.Letext0:
ARM GAS  C:\Users\jo\AppData\Local\Temp\ccRVaYUI.s 			page 20


 1062              		.file 2 "c:\\program files\\gnu tools arm embedded\\4.9 2014q4\\lib\\gcc\\arm-none-eabi\\4.9.3\\in
 1063              		.file 3 "c:\\program files\\gnu tools arm embedded\\4.9 2014q4\\arm-none-eabi\\include\\machine\\_
 1064              		.file 4 "c:\\program files\\gnu tools arm embedded\\4.9 2014q4\\arm-none-eabi\\include\\stdint.h"
 1065              		.file 5 "c:\\program files\\gnu tools arm embedded\\4.9 2014q4\\arm-none-eabi\\include\\string.h"
 1066              		.file 6 "c:\\program files\\gnu tools arm embedded\\4.9 2014q4\\arm-none-eabi\\include\\stdio.h"
 1067              		.file 7 "<built-in>"