ARM GAS  C:\Users\jo\AppData\Local\Temp\ccxFvVJt.s 			page 1


   1              		.syntax unified
   2              		.cpu cortex-m4
   3              		.fpu softvfp
   4              		.eabi_attribute 20, 1
   5              		.eabi_attribute 21, 1
   6              		.eabi_attribute 23, 3
   7              		.eabi_attribute 24, 1
   8              		.eabi_attribute 25, 1
   9              		.eabi_attribute 26, 1
  10              		.eabi_attribute 30, 2
  11              		.eabi_attribute 34, 1
  12              		.eabi_attribute 18, 4
  13              		.thumb
  14              		.file	"bignum.c"
  15              		.text
  16              	.Ltext0:
  17              		.cfi_sections	.debug_frame
  18              		.section	.text.mpi_get_digit,"ax",%progbits
  19              		.align	2
  20              		.p2align 4,,15
  21              		.thumb
  22              		.thumb_func
  23              		.type	mpi_get_digit, %function
  24              	mpi_get_digit:
  25              	.LFB11:
  26              		.file 1 "../../../os/ext/PolarSSL/library/bignum.c"
  27              		.loc 1 256 0
  28              		.cfi_startproc
  29              		@ args = 0, pretend = 0, frame = 0
  30              		@ frame_needed = 0, uses_anonymous_args = 0
  31              		@ link register save eliminated.
  32              	.LVL0:
  33              		.loc 1 259 0
  34 0000 A2F13003 		sub	r3, r2, #48
  35              		.loc 1 256 0
  36 0004 10B4     		push	{r4}
  37              		.cfi_def_cfa_offset 4
  38              		.cfi_offset 4, -4
  39              		.loc 1 259 0
  40 0006 DCB2     		uxtb	r4, r3
  41 0008 092C     		cmp	r4, #9
  42              		.loc 1 257 0
  43 000a 88BF     		it	hi
  44 000c FF23     		movhi	r3, #255
  45              		.loc 1 259 0
  46 000e 0360     		str	r3, [r0]
  47              		.loc 1 260 0
  48 0010 A2F14103 		sub	r3, r2, #65
  49 0014 052B     		cmp	r3, #5
  50 0016 9CBF     		itt	ls
  51 0018 A2F13703 		subls	r3, r2, #55
  52 001c 0360     		strls	r3, [r0]
  53              		.loc 1 261 0
  54 001e A2F16103 		sub	r3, r2, #97
  55 0022 052B     		cmp	r3, #5
  56 0024 88BF     		it	hi
  57 0026 0268     		ldrhi	r2, [r0]
ARM GAS  C:\Users\jo\AppData\Local\Temp\ccxFvVJt.s 			page 2


  58              	.LVL1:
  59              		.loc 1 267 0
  60 0028 5DF8044B 		ldr	r4, [sp], #4
  61              		.cfi_restore 4
  62              		.cfi_def_cfa_offset 0
  63              		.loc 1 261 0
  64 002c 9CBF     		itt	ls
  65 002e 573A     		subls	r2, r2, #87
  66 0030 0260     		strls	r2, [r0]
  67              		.loc 1 263 0
  68 0032 9142     		cmp	r1, r2
  69              		.loc 1 267 0
  70 0034 94BF     		ite	ls
  71 0036 6FF00500 		mvnls	r0, #5
  72              	.LVL2:
  73 003a 0020     		movhi	r0, #0
  74 003c 7047     		bx	lr
  75              		.cfi_endproc
  76              	.LFE11:
  77              		.size	mpi_get_digit, .-mpi_get_digit
  78 003e 00BF     		.section	.text.mpi_sub_hlp,"ax",%progbits
  79              		.align	2
  80              		.p2align 4,,15
  81              		.thumb
  82              		.thumb_func
  83              		.type	mpi_sub_hlp, %function
  84              	mpi_sub_hlp:
  85              	.LFB25:
  86              		.loc 1 781 0
  87              		.cfi_startproc
  88              		@ args = 0, pretend = 0, frame = 0
  89              		@ frame_needed = 0, uses_anonymous_args = 0
  90              	.LVL3:
  91              		.loc 1 785 0
  92 0000 38B3     		cbz	r0, .L21
  93 0002 0023     		movs	r3, #0
  94              		.loc 1 781 0
  95 0004 F0B5     		push	{r4, r5, r6, r7, lr}
  96              		.cfi_def_cfa_offset 20
  97              		.cfi_offset 4, -20
  98              		.cfi_offset 5, -16
  99              		.cfi_offset 6, -12
 100              		.cfi_offset 7, -8
 101              		.cfi_offset 14, -4
 102 0006 A1F1040E 		sub	lr, r1, #4
 103              		.loc 1 785 0
 104 000a 1E46     		mov	r6, r3
 105 000c 1546     		mov	r5, r2
 106              	.LVL4:
 107              	.L12:
 108              		.loc 1 787 0 discriminator 3
 109 000e 2F68     		ldr	r7, [r5]
 110              	.LVL5:
 111 0010 FC1A     		subs	r4, r7, r3
 112 0012 2C60     		str	r4, [r5]
 113              		.loc 1 788 0 discriminator 3
 114 0014 5EF8041F 		ldr	r1, [lr, #4]!
ARM GAS  C:\Users\jo\AppData\Local\Temp\ccxFvVJt.s 			page 3


 115 0018 8C42     		cmp	r4, r1
 116 001a 2CBF     		ite	cs
 117 001c 4FF0000C 		movcs	ip, #0
 118 0020 4FF0010C 		movcc	ip, #1
 119              		.loc 1 785 0 discriminator 3
 120 0024 0136     		adds	r6, r6, #1
 121              	.LVL6:
 122              		.loc 1 788 0 discriminator 3
 123 0026 641A     		subs	r4, r4, r1
 124 0028 9F42     		cmp	r7, r3
 125 002a 2CBF     		ite	cs
 126 002c 6346     		movcs	r3, ip
 127 002e 0CF10103 		addcc	r3, ip, #1
 128              	.LVL7:
 129              		.loc 1 785 0 discriminator 3
 130 0032 8642     		cmp	r6, r0
 131              		.loc 1 788 0 discriminator 3
 132 0034 45F8044B 		str	r4, [r5], #4
 133              	.LVL8:
 134              		.loc 1 785 0 discriminator 3
 135 0038 E9D1     		bne	.L12
 136 003a 02EB8602 		add	r2, r2, r6, lsl #2
 137              	.LVL9:
 138              		.loc 1 791 0
 139 003e 0BB9     		cbnz	r3, .L14
 140 0040 08E0     		b	.L23
 141              	.LVL10:
 142              	.L15:
 143 0042 0123     		movs	r3, #1
 144              	.LVL11:
 145              	.L14:
 146              		.loc 1 793 0
 147 0044 1168     		ldr	r1, [r2]
 148              	.LVL12:
 149 0046 C81A     		subs	r0, r1, r3
 150              		.loc 1 791 0
 151 0048 9942     		cmp	r1, r3
 152              		.loc 1 793 0
 153 004a 42F8040B 		str	r0, [r2], #4
 154              	.LVL13:
 155              		.loc 1 791 0
 156 004e F8D3     		bcc	.L15
 157 0050 F0BD     		pop	{r4, r5, r6, r7, pc}
 158              	.LVL14:
 159              	.L21:
 160              		.cfi_def_cfa_offset 0
 161              		.cfi_restore 4
 162              		.cfi_restore 5
 163              		.cfi_restore 6
 164              		.cfi_restore 7
 165              		.cfi_restore 14
 166 0052 7047     		bx	lr
 167              	.LVL15:
 168              	.L23:
 169              		.cfi_def_cfa_offset 20
 170              		.cfi_offset 4, -20
 171              		.cfi_offset 5, -16
ARM GAS  C:\Users\jo\AppData\Local\Temp\ccxFvVJt.s 			page 4


 172              		.cfi_offset 6, -12
 173              		.cfi_offset 7, -8
 174              		.cfi_offset 14, -4
 175 0054 F0BD     		pop	{r4, r5, r6, r7, pc}
 176              		.cfi_endproc
 177              	.LFE25:
 178              		.size	mpi_sub_hlp, .-mpi_sub_hlp
 179 0056 00BFAFF3 		.section	.text.mpi_mul_hlp,"ax",%progbits
 179      0080AFF3 
 179      0080
 180              		.align	2
 181              		.p2align 4,,15
 182              		.thumb
 183              		.thumb_func
 184              		.type	mpi_mul_hlp, %function
 185              	mpi_mul_hlp:
 186              	.LFB31:
 187              		.loc 1 947 0
 188              		.cfi_startproc
 189              		@ args = 0, pretend = 0, frame = 24
 190              		@ frame_needed = 0, uses_anonymous_args = 0
 191              	.LVL16:
 192 0000 F0B5     		push	{r4, r5, r6, r7, lr}
 193              		.cfi_def_cfa_offset 20
 194              		.cfi_offset 4, -20
 195              		.cfi_offset 5, -16
 196              		.cfi_offset 6, -12
 197              		.cfi_offset 7, -8
 198              		.cfi_offset 14, -4
 199 0002 8646     		mov	lr, r0
 200 0004 87B0     		sub	sp, sp, #28
 201              		.cfi_def_cfa_offset 48
 202              		.loc 1 948 0
 203 0006 0020     		movs	r0, #0
 204              	.LVL17:
 205              		.loc 1 965 0
 206 0008 BEF10F0F 		cmp	lr, #15
 207              		.loc 1 947 0
 208 000c 0391     		str	r1, [sp, #12]
 209 000e 0292     		str	r2, [sp, #8]
 210 0010 0193     		str	r3, [sp, #4]
 211              		.loc 1 948 0
 212 0012 0590     		str	r0, [sp, #20]
 213              	.LVL18:
 214              		.loc 1 965 0
 215 0014 40F2D080 		bls	.L25
 216              		.loc 1 965 0 is_stmt 0 discriminator 2
 217 0018 F446     		mov	ip, lr
 218              	.LVL19:
 219              	.L26:
 220 001a ACF1100C 		sub	ip, ip, #16
 221              	.LVL20:
 222              		.loc 1 967 0 is_stmt 1 discriminator 2
 223              	@ 967 "../../../os/ext/PolarSSL/library/bignum.c" 1
 224 001e 03980299 		                                                 ldr    r0, [sp, #12];                            
 224      059A019B 
 224      50F8044B 
ARM GAS  C:\Users\jo\AppData\Local\Temp\ccxFvVJt.s 			page 5


 224      4FF00005 
 224      0E68E3FB 
 225              	@ 0 "" 2
 226              		.loc 1 965 0 discriminator 2
 227              		.thumb
 228 01ac BCF10F0F 		cmp	ip, #15
 229 01b0 3FF633AF 		bhi	.L26
 230 01b4 0EF00F0E 		and	lr, lr, #15
 231              	.LVL21:
 232              	.L25:
 233              		.loc 1 980 0 discriminator 1
 234 01b8 BEF1070F 		cmp	lr, #7
 235 01bc 68D9     		bls	.L27
 236              		.loc 1 982 0 discriminator 2
 237              	@ 982 "../../../os/ext/PolarSSL/library/bignum.c" 1
 238 01be 03980299 		                                                 ldr    r0, [sp, #12];                            
 238      059A019B 
 238      50F8044B 
 238      4FF00005 
 238      0E68E3FB 
 239              	@ 0 "" 2
 240              	.LVL22:
 241              		.thumb
 242 028c 0EF0070E 		and	lr, lr, #7
 243              	.LVL23:
 244              	.L27:
 245              		.loc 1 991 0 discriminator 1
 246 0290 BEF1000F 		cmp	lr, #0
 247 0294 15D0     		beq	.L31
 248              	.L30:
 249              	.LVL24:
 250              		.loc 1 993 0 discriminator 2
 251              	@ 993 "../../../os/ext/PolarSSL/library/bignum.c" 1
 252 0296 03980299 		                                                 ldr    r0, [sp, #12];                            
 252      059A019B 
 252      50F8044B 
 252      4FF00005 
 252      0E68E3FB 
 253              	@ 0 "" 2
 254              		.loc 1 991 0 discriminator 2
 255              		.thumb
 256 02bc BEF1010E 		subs	lr, lr, #1
 257              	.LVL25:
 258 02c0 E9D1     		bne	.L30
 259              	.L31:
 260 02c2 029A     		ldr	r2, [sp, #8]
 261 02c4 059B     		ldr	r3, [sp, #20]
 262              	.LVL26:
 263              	.L29:
 264              		.loc 1 1002 0 discriminator 1
 265 02c6 1168     		ldr	r1, [r2]
 266 02c8 0B44     		add	r3, r3, r1
 267 02ca 42F8043B 		str	r3, [r2], #4
 268 02ce 0599     		ldr	r1, [sp, #20]
 269 02d0 8B42     		cmp	r3, r1
 270 02d2 2CBF     		ite	cs
 271 02d4 0023     		movcs	r3, #0
ARM GAS  C:\Users\jo\AppData\Local\Temp\ccxFvVJt.s 			page 6


 272 02d6 0123     		movcc	r3, #1
 273 02d8 0593     		str	r3, [sp, #20]
 274              		.loc 1 1004 0 discriminator 1
 275 02da 002B     		cmp	r3, #0
 276 02dc F3D1     		bne	.L29
 277              		.loc 1 1005 0
 278 02de 07B0     		add	sp, sp, #28
 279              		.cfi_def_cfa_offset 20
 280              		@ sp needed
 281 02e0 F0BD     		pop	{r4, r5, r6, r7, pc}
 282              		.cfi_endproc
 283              	.LFE31:
 284              		.size	mpi_mul_hlp, .-mpi_mul_hlp
 285 02e2 00BFAFF3 		.section	.text.mpi_init,"ax",%progbits
 285      0080AFF3 
 285      0080AFF3 
 285      0080
 286              		.align	2
 287              		.p2align 4,,15
 288              		.global	mpi_init
 289              		.thumb
 290              		.thumb_func
 291              		.type	mpi_init, %function
 292              	mpi_init:
 293              	.LFB0:
 294              		.loc 1 56 0
 295              		.cfi_startproc
 296              		@ args = 0, pretend = 0, frame = 0
 297              		@ frame_needed = 0, uses_anonymous_args = 0
 298              		@ link register save eliminated.
 299              	.LVL27:
 300              		.loc 1 57 0
 301 0000 20B1     		cbz	r0, .L36
 302              		.loc 1 61 0
 303 0002 0023     		movs	r3, #0
 304 0004 0122     		movs	r2, #1
 305 0006 80E80C00 		stmia	r0, {r2, r3}
 306              		.loc 1 62 0
 307 000a 8360     		str	r3, [r0, #8]
 308              	.L36:
 309 000c 7047     		bx	lr
 310              		.cfi_endproc
 311              	.LFE0:
 312              		.size	mpi_init, .-mpi_init
 313 000e 00BF     		.section	.text.mpi_free,"ax",%progbits
 314              		.align	2
 315              		.p2align 4,,15
 316              		.global	mpi_free
 317              		.thumb
 318              		.thumb_func
 319              		.type	mpi_free, %function
 320              	mpi_free:
 321              	.LFB1:
 322              		.loc 1 69 0
 323              		.cfi_startproc
 324              		@ args = 0, pretend = 0, frame = 0
 325              		@ frame_needed = 0, uses_anonymous_args = 0
ARM GAS  C:\Users\jo\AppData\Local\Temp\ccxFvVJt.s 			page 7


 326              	.LVL28:
 327              		.loc 1 70 0
 328 0000 88B1     		cbz	r0, .L51
 329              		.loc 1 69 0
 330 0002 10B5     		push	{r4, lr}
 331              		.cfi_def_cfa_offset 8
 332              		.cfi_offset 4, -8
 333              		.cfi_offset 14, -4
 334 0004 0446     		mov	r4, r0
 335              		.loc 1 73 0
 336 0006 8068     		ldr	r0, [r0, #8]
 337              	.LVL29:
 338 0008 38B1     		cbz	r0, .L43
 339              		.loc 1 75 0
 340 000a 6268     		ldr	r2, [r4, #4]
 341 000c 0021     		movs	r1, #0
 342 000e 9200     		lsls	r2, r2, #2
 343 0010 FFF7FEFF 		bl	memset
 344              	.LVL30:
 345              		.loc 1 76 0
 346 0014 A068     		ldr	r0, [r4, #8]
 347 0016 FFF7FEFF 		bl	free
 348              	.LVL31:
 349              	.L43:
 350              		.loc 1 80 0
 351 001a 0023     		movs	r3, #0
 352 001c 0122     		movs	r2, #1
 353 001e 84E80C00 		stmia	r4, {r2, r3}
 354              		.loc 1 81 0
 355 0022 A360     		str	r3, [r4, #8]
 356 0024 10BD     		pop	{r4, pc}
 357              	.LVL32:
 358              	.L51:
 359              		.cfi_def_cfa_offset 0
 360              		.cfi_restore 4
 361              		.cfi_restore 14
 362 0026 7047     		bx	lr
 363              		.cfi_endproc
 364              	.LFE1:
 365              		.size	mpi_free, .-mpi_free
 366 0028 AFF30080 		.section	.text.mpi_grow,"ax",%progbits
 366      AFF30080 
 367              		.align	2
 368              		.p2align 4,,15
 369              		.global	mpi_grow
 370              		.thumb
 371              		.thumb_func
 372              		.type	mpi_grow, %function
 373              	mpi_grow:
 374              	.LFB2:
 375              		.loc 1 88 0
 376              		.cfi_startproc
 377              		@ args = 0, pretend = 0, frame = 0
 378              		@ frame_needed = 0, uses_anonymous_args = 0
 379              	.LVL33:
 380              		.loc 1 91 0
 381 0000 42F21073 		movw	r3, #10000
ARM GAS  C:\Users\jo\AppData\Local\Temp\ccxFvVJt.s 			page 8


 382 0004 9942     		cmp	r1, r3
 383 0006 29D8     		bhi	.L67
 384              		.loc 1 88 0
 385 0008 2DE9F041 		push	{r4, r5, r6, r7, r8, lr}
 386              		.cfi_def_cfa_offset 24
 387              		.cfi_offset 4, -24
 388              		.cfi_offset 5, -20
 389              		.cfi_offset 6, -16
 390              		.cfi_offset 7, -12
 391              		.cfi_offset 8, -8
 392              		.cfi_offset 14, -4
 393              		.loc 1 94 0
 394 000c 4668     		ldr	r6, [r0, #4]
 395 000e B142     		cmp	r1, r6
 396 0010 02D8     		bhi	.L68
 397              		.loc 1 112 0
 398 0012 0020     		movs	r0, #0
 399              	.LVL34:
 400              		.loc 1 113 0
 401 0014 BDE8F081 		pop	{r4, r5, r6, r7, r8, pc}
 402              	.LVL35:
 403              	.L68:
 404              		.loc 1 96 0
 405 0018 8F00     		lsls	r7, r1, #2
 406 001a 0546     		mov	r5, r0
 407 001c 3846     		mov	r0, r7
 408              	.LVL36:
 409 001e 0C46     		mov	r4, r1
 410 0020 FFF7FEFF 		bl	malloc
 411              	.LVL37:
 412 0024 8046     		mov	r8, r0
 413 0026 E0B1     		cbz	r0, .L55
 414              		.loc 1 99 0
 415 0028 3A46     		mov	r2, r7
 416 002a 0021     		movs	r1, #0
 417 002c FFF7FEFF 		bl	memset
 418              	.LVL38:
 419              		.loc 1 101 0
 420 0030 AF68     		ldr	r7, [r5, #8]
 421 0032 6FB1     		cbz	r7, .L56
 422              		.loc 1 103 0
 423 0034 B600     		lsls	r6, r6, #2
 424 0036 3246     		mov	r2, r6
 425 0038 3946     		mov	r1, r7
 426 003a 4046     		mov	r0, r8
 427 003c FFF7FEFF 		bl	memcpy
 428              	.LVL39:
 429              		.loc 1 104 0
 430 0040 3846     		mov	r0, r7
 431 0042 3246     		mov	r2, r6
 432 0044 0021     		movs	r1, #0
 433 0046 FFF7FEFF 		bl	memset
 434              	.LVL40:
 435              		.loc 1 105 0
 436 004a A868     		ldr	r0, [r5, #8]
 437 004c FFF7FEFF 		bl	free
 438              	.LVL41:
ARM GAS  C:\Users\jo\AppData\Local\Temp\ccxFvVJt.s 			page 9


 439              	.L56:
 440              		.loc 1 108 0
 441 0050 6C60     		str	r4, [r5, #4]
 442              		.loc 1 109 0
 443 0052 C5F80880 		str	r8, [r5, #8]
 444              		.loc 1 112 0
 445 0056 0020     		movs	r0, #0
 446 0058 BDE8F081 		pop	{r4, r5, r6, r7, r8, pc}
 447              	.LVL42:
 448              	.L67:
 449              		.cfi_def_cfa_offset 0
 450              		.cfi_restore 4
 451              		.cfi_restore 5
 452              		.cfi_restore 6
 453              		.cfi_restore 7
 454              		.cfi_restore 8
 455              		.cfi_restore 14
 456              		.loc 1 92 0
 457 005c 6FF00F00 		mvn	r0, #15
 458              	.LVL43:
 459              		.loc 1 113 0
 460 0060 7047     		bx	lr
 461              	.LVL44:
 462              	.L55:
 463              		.cfi_def_cfa_offset 24
 464              		.cfi_offset 4, -24
 465              		.cfi_offset 5, -20
 466              		.cfi_offset 6, -16
 467              		.cfi_offset 7, -12
 468              		.cfi_offset 8, -8
 469              		.cfi_offset 14, -4
 470              		.loc 1 92 0
 471 0062 6FF00F00 		mvn	r0, #15
 472              	.LVL45:
 473 0066 BDE8F081 		pop	{r4, r5, r6, r7, r8, pc}
 474              		.cfi_endproc
 475              	.LFE2:
 476              		.size	mpi_grow, .-mpi_grow
 477 006a 00BFAFF3 		.section	.text.mpi_copy,"ax",%progbits
 477      0080
 478              		.align	2
 479              		.p2align 4,,15
 480              		.global	mpi_copy
 481              		.thumb
 482              		.thumb_func
 483              		.type	mpi_copy, %function
 484              	mpi_copy:
 485              	.LFB3:
 486              		.loc 1 119 0
 487              		.cfi_startproc
 488              		@ args = 0, pretend = 0, frame = 0
 489              		@ frame_needed = 0, uses_anonymous_args = 0
 490              	.LVL46:
 491              		.loc 1 123 0
 492 0000 8842     		cmp	r0, r1
 493 0002 29D0     		beq	.L75
 494              		.loc 1 119 0
ARM GAS  C:\Users\jo\AppData\Local\Temp\ccxFvVJt.s 			page 10


 495 0004 F8B5     		push	{r3, r4, r5, r6, r7, lr}
 496              		.cfi_def_cfa_offset 24
 497              		.cfi_offset 3, -24
 498              		.cfi_offset 4, -20
 499              		.cfi_offset 5, -16
 500              		.cfi_offset 6, -12
 501              		.cfi_offset 7, -8
 502              		.cfi_offset 14, -4
 503              		.loc 1 126 0
 504 0006 4F68     		ldr	r7, [r1, #4]
 505              	.LVL47:
 506 0008 7B1E     		subs	r3, r7, #1
 507              	.LVL48:
 508 000a 0BD0     		beq	.L76
 509              		.loc 1 127 0
 510 000c 8C68     		ldr	r4, [r1, #8]
 511 000e 54F82350 		ldr	r5, [r4, r3, lsl #2]
 512 0012 9A00     		lsls	r2, r3, #2
 513 0014 3DB9     		cbnz	r5, .L71
 514 0016 2244     		add	r2, r2, r4
 515 0018 02E0     		b	.L73
 516              	.L74:
 517 001a 52F8044D 		ldr	r4, [r2, #-4]!
 518 001e 64B9     		cbnz	r4, .L81
 519              	.L73:
 520              	.LVL49:
 521              		.loc 1 126 0 discriminator 2
 522 0020 013B     		subs	r3, r3, #1
 523              	.LVL50:
 524 0022 FAD1     		bne	.L74
 525              	.L76:
 526              		.loc 1 126 0 is_stmt 0
 527 0024 0127     		movs	r7, #1
 528              	.L71:
 529              	.LVL51:
 530              		.loc 1 131 0 is_stmt 1
 531 0026 0B68     		ldr	r3, [r1]
 532 0028 0360     		str	r3, [r0]
 533 002a 0C46     		mov	r4, r1
 534              		.loc 1 133 0
 535 002c 3946     		mov	r1, r7
 536              	.LVL52:
 537 002e 0546     		mov	r5, r0
 538 0030 FFF7FEFF 		bl	mpi_grow
 539              	.LVL53:
 540 0034 0646     		mov	r6, r0
 541 0036 10B1     		cbz	r0, .L82
 542              		.loc 1 141 0
 543 0038 F8BD     		pop	{r3, r4, r5, r6, r7, pc}
 544              	.LVL54:
 545              	.L81:
 546 003a 5F1C     		adds	r7, r3, #1
 547 003c F3E7     		b	.L71
 548              	.LVL55:
 549              	.L82:
 550              		.loc 1 135 0
 551 003e 6A68     		ldr	r2, [r5, #4]
ARM GAS  C:\Users\jo\AppData\Local\Temp\ccxFvVJt.s 			page 11


 552 0040 A868     		ldr	r0, [r5, #8]
 553              	.LVL56:
 554 0042 3146     		mov	r1, r6
 555 0044 9200     		lsls	r2, r2, #2
 556 0046 FFF7FEFF 		bl	memset
 557              	.LVL57:
 558              		.loc 1 136 0
 559 004a A868     		ldr	r0, [r5, #8]
 560 004c A168     		ldr	r1, [r4, #8]
 561 004e BA00     		lsls	r2, r7, #2
 562 0050 FFF7FEFF 		bl	memcpy
 563              	.LVL58:
 564 0054 3046     		mov	r0, r6
 565 0056 F8BD     		pop	{r3, r4, r5, r6, r7, pc}
 566              	.LVL59:
 567              	.L75:
 568              		.cfi_def_cfa_offset 0
 569              		.cfi_restore 3
 570              		.cfi_restore 4
 571              		.cfi_restore 5
 572              		.cfi_restore 6
 573              		.cfi_restore 7
 574              		.cfi_restore 14
 575              		.loc 1 124 0
 576 0058 0020     		movs	r0, #0
 577              	.LVL60:
 578              		.loc 1 141 0
 579 005a 7047     		bx	lr
 580              		.cfi_endproc
 581              	.LFE3:
 582              		.size	mpi_copy, .-mpi_copy
 583 005c AFF30080 		.section	.text.mpi_swap,"ax",%progbits
 584              		.align	2
 585              		.p2align 4,,15
 586              		.global	mpi_swap
 587              		.thumb
 588              		.thumb_func
 589              		.type	mpi_swap, %function
 590              	mpi_swap:
 591              	.LFB4:
 592              		.loc 1 147 0
 593              		.cfi_startproc
 594              		@ args = 0, pretend = 0, frame = 16
 595              		@ frame_needed = 0, uses_anonymous_args = 0
 596              		@ link register save eliminated.
 597              	.LVL61:
 598 0000 F0B4     		push	{r4, r5, r6, r7}
 599              		.cfi_def_cfa_offset 16
 600              		.cfi_offset 4, -16
 601              		.cfi_offset 5, -12
 602              		.cfi_offset 6, -8
 603              		.cfi_offset 7, -4
 604 0002 0C46     		mov	r4, r1
 605 0004 0546     		mov	r5, r0
 606              		.loc 1 151 0
 607 0006 A368     		ldr	r3, [r4, #8]	@ unaligned
 608              		.loc 1 150 0
ARM GAS  C:\Users\jo\AppData\Local\Temp\ccxFvVJt.s 			page 12


 609 0008 0068     		ldr	r0, [r0]	@ unaligned
 610              	.LVL62:
 611 000a 6968     		ldr	r1, [r5, #4]	@ unaligned
 612              	.LVL63:
 613 000c AA68     		ldr	r2, [r5, #8]	@ unaligned
 614              		.loc 1 151 0
 615 000e 2768     		ldr	r7, [r4]	@ unaligned
 616 0010 6668     		ldr	r6, [r4, #4]	@ unaligned
 617 0012 AB60     		str	r3, [r5, #8]	@ unaligned
 618              		.loc 1 147 0
 619 0014 84B0     		sub	sp, sp, #16
 620              		.cfi_def_cfa_offset 32
 621              		.loc 1 150 0
 622 0016 01AB     		add	r3, sp, #4
 623 0018 07C3     		stmia	r3!, {r0, r1, r2}
 624              		.loc 1 152 0
 625 001a 01AB     		add	r3, sp, #4
 626 001c 07CB     		ldmia	r3!, {r0, r1, r2}
 627              		.loc 1 151 0
 628 001e 2F60     		str	r7, [r5]	@ unaligned
 629 0020 6E60     		str	r6, [r5, #4]	@ unaligned
 630              		.loc 1 152 0
 631 0022 2060     		str	r0, [r4]	@ unaligned
 632 0024 6160     		str	r1, [r4, #4]	@ unaligned
 633 0026 A260     		str	r2, [r4, #8]	@ unaligned
 634              		.loc 1 153 0
 635 0028 04B0     		add	sp, sp, #16
 636              		.cfi_def_cfa_offset 16
 637              		@ sp needed
 638 002a F0BC     		pop	{r4, r5, r6, r7}
 639              		.cfi_restore 7
 640              		.cfi_restore 6
 641              		.cfi_restore 5
 642              		.cfi_restore 4
 643              		.cfi_def_cfa_offset 0
 644              	.LVL64:
 645 002c 7047     		bx	lr
 646              		.cfi_endproc
 647              	.LFE4:
 648              		.size	mpi_swap, .-mpi_swap
 649 002e 00BF     		.section	.text.mpi_lset,"ax",%progbits
 650              		.align	2
 651              		.p2align 4,,15
 652              		.global	mpi_lset
 653              		.thumb
 654              		.thumb_func
 655              		.type	mpi_lset, %function
 656              	mpi_lset:
 657              	.LFB5:
 658              		.loc 1 159 0
 659              		.cfi_startproc
 660              		@ args = 0, pretend = 0, frame = 0
 661              		@ frame_needed = 0, uses_anonymous_args = 0
 662              	.LVL65:
 663 0000 70B5     		push	{r4, r5, r6, lr}
 664              		.cfi_def_cfa_offset 16
 665              		.cfi_offset 4, -16
ARM GAS  C:\Users\jo\AppData\Local\Temp\ccxFvVJt.s 			page 13


 666              		.cfi_offset 5, -12
 667              		.cfi_offset 6, -8
 668              		.cfi_offset 14, -4
 669              		.loc 1 159 0
 670 0002 0E46     		mov	r6, r1
 671              		.loc 1 162 0
 672 0004 0121     		movs	r1, #1
 673              	.LVL66:
 674              		.loc 1 159 0
 675 0006 0546     		mov	r5, r0
 676              		.loc 1 162 0
 677 0008 FFF7FEFF 		bl	mpi_grow
 678              	.LVL67:
 679 000c 0446     		mov	r4, r0
 680 000e 88B9     		cbnz	r0, .L86
 681              	.LVL68:
 682              	.LBB102:
 683              	.LBB103:
 684              		.loc 1 163 0
 685 0010 6A68     		ldr	r2, [r5, #4]
 686 0012 A868     		ldr	r0, [r5, #8]
 687              	.LVL69:
 688 0014 9200     		lsls	r2, r2, #2
 689 0016 2146     		mov	r1, r4
 690 0018 FFF7FEFF 		bl	memset
 691              	.LVL70:
 692              		.loc 1 166 0
 693 001c 002E     		cmp	r6, #0
 694              		.loc 1 165 0
 695 001e 86EAE671 		eor	r1, r6, r6, asr #31
 696 0022 AA68     		ldr	r2, [r5, #8]
 697 0024 A1EBE671 		sub	r1, r1, r6, asr #31
 698              		.loc 1 166 0
 699 0028 B4BF     		ite	lt
 700 002a 4FF0FF33 		movlt	r3, #-1
 701 002e 0123     		movge	r3, #1
 702              		.loc 1 165 0
 703 0030 1160     		str	r1, [r2]
 704              		.loc 1 166 0
 705 0032 2B60     		str	r3, [r5]
 706              	.LVL71:
 707              	.L86:
 708              	.LBE103:
 709              	.LBE102:
 710              		.loc 1 171 0
 711 0034 2046     		mov	r0, r4
 712 0036 70BD     		pop	{r4, r5, r6, pc}
 713              		.cfi_endproc
 714              	.LFE5:
 715              		.size	mpi_lset, .-mpi_lset
 716 0038 AFF30080 		.section	.text.mpi_get_bit,"ax",%progbits
 716      AFF30080 
 717              		.align	2
 718              		.p2align 4,,15
 719              		.global	mpi_get_bit
 720              		.thumb
 721              		.thumb_func
ARM GAS  C:\Users\jo\AppData\Local\Temp\ccxFvVJt.s 			page 14


 722              		.type	mpi_get_bit, %function
 723              	mpi_get_bit:
 724              	.LFB6:
 725              		.loc 1 177 0
 726              		.cfi_startproc
 727              		@ args = 0, pretend = 0, frame = 0
 728              		@ frame_needed = 0, uses_anonymous_args = 0
 729              		@ link register save eliminated.
 730              	.LVL72:
 731              		.loc 1 178 0
 732 0000 4368     		ldr	r3, [r0, #4]
 733 0002 B1EB431F 		cmp	r1, r3, lsl #5
 734 0006 09D2     		bcs	.L92
 735              		.loc 1 181 0
 736 0008 4A09     		lsrs	r2, r1, #5
 737 000a 8368     		ldr	r3, [r0, #8]
 738 000c 53F82200 		ldr	r0, [r3, r2, lsl #2]
 739              	.LVL73:
 740 0010 01F01F01 		and	r1, r1, #31
 741              	.LVL74:
 742 0014 C840     		lsrs	r0, r0, r1
 743 0016 00F00100 		and	r0, r0, #1
 744 001a 7047     		bx	lr
 745              	.LVL75:
 746              	.L92:
 747              		.loc 1 179 0
 748 001c 0020     		movs	r0, #0
 749              	.LVL76:
 750              		.loc 1 182 0
 751 001e 7047     		bx	lr
 752              		.cfi_endproc
 753              	.LFE6:
 754              		.size	mpi_get_bit, .-mpi_get_bit
 755              		.section	.text.mpi_set_bit,"ax",%progbits
 756              		.align	2
 757              		.p2align 4,,15
 758              		.global	mpi_set_bit
 759              		.thumb
 760              		.thumb_func
 761              		.type	mpi_set_bit, %function
 762              	mpi_set_bit:
 763              	.LFB7:
 764              		.loc 1 188 0
 765              		.cfi_startproc
 766              		@ args = 0, pretend = 0, frame = 0
 767              		@ frame_needed = 0, uses_anonymous_args = 0
 768              	.LVL77:
 769              		.loc 1 193 0
 770 0000 012A     		cmp	r2, #1
 771              		.loc 1 188 0
 772 0002 F8B5     		push	{r3, r4, r5, r6, r7, lr}
 773              		.cfi_def_cfa_offset 24
 774              		.cfi_offset 3, -24
 775              		.cfi_offset 4, -20
 776              		.cfi_offset 5, -16
 777              		.cfi_offset 6, -12
 778              		.cfi_offset 7, -8
ARM GAS  C:\Users\jo\AppData\Local\Temp\ccxFvVJt.s 			page 15


 779              		.cfi_offset 14, -4
 780              		.loc 1 190 0
 781 0004 4FEA5117 		lsr	r7, r1, #5
 782              	.LVL78:
 783              		.loc 1 193 0
 784 0008 1ED8     		bhi	.L97
 785              		.loc 1 196 0
 786 000a 4368     		ldr	r3, [r0, #4]
 787 000c B1EB431F 		cmp	r1, r3, lsl #5
 788 0010 0546     		mov	r5, r0
 789 0012 1646     		mov	r6, r2
 790 0014 0C46     		mov	r4, r1
 791 0016 0FD2     		bcs	.L95
 792              	.LVL79:
 793              	.L96:
 794              		.loc 1 204 0
 795 0018 AD68     		ldr	r5, [r5, #8]
 796              	.LVL80:
 797              		.loc 1 191 0
 798 001a 04F01F01 		and	r1, r4, #31
 799              		.loc 1 204 0
 800 001e 55F82730 		ldr	r3, [r5, r7, lsl #2]
 801 0022 0122     		movs	r2, #1
 802 0024 8A40     		lsls	r2, r2, r1
 803 0026 06FA01F0 		lsl	r0, r6, r1
 804 002a 23EA0202 		bic	r2, r3, r2
 805 002e 0243     		orrs	r2, r2, r0
 806 0030 45F82720 		str	r2, [r5, r7, lsl #2]
 807              	.L103:
 808 0034 0020     		movs	r0, #0
 809 0036 F8BD     		pop	{r3, r4, r5, r6, r7, pc}
 810              	.LVL81:
 811              	.L95:
 812              		.loc 1 198 0
 813 0038 002A     		cmp	r2, #0
 814 003a FBD0     		beq	.L103
 815              		.loc 1 201 0
 816 003c 791C     		adds	r1, r7, #1
 817              	.LVL82:
 818 003e FFF7FEFF 		bl	mpi_grow
 819              	.LVL83:
 820 0042 0028     		cmp	r0, #0
 821 0044 E8D0     		beq	.L96
 822 0046 F8BD     		pop	{r3, r4, r5, r6, r7, pc}
 823              	.LVL84:
 824              	.L97:
 825              		.loc 1 194 0
 826 0048 6FF00300 		mvn	r0, #3
 827              	.LVL85:
 828 004c F8BD     		pop	{r3, r4, r5, r6, r7, pc}
 829              		.cfi_endproc
 830              	.LFE7:
 831              		.size	mpi_set_bit, .-mpi_set_bit
 832 004e 00BF     		.section	.text.mpi_lsb,"ax",%progbits
 833              		.align	2
 834              		.p2align 4,,15
 835              		.global	mpi_lsb
ARM GAS  C:\Users\jo\AppData\Local\Temp\ccxFvVJt.s 			page 16


 836              		.thumb
 837              		.thumb_func
 838              		.type	mpi_lsb, %function
 839              	mpi_lsb:
 840              	.LFB8:
 841              		.loc 1 215 0
 842              		.cfi_startproc
 843              		@ args = 0, pretend = 0, frame = 0
 844              		@ frame_needed = 0, uses_anonymous_args = 0
 845              		@ link register save eliminated.
 846              	.LVL86:
 847 0000 0346     		mov	r3, r0
 848              		.loc 1 218 0
 849 0002 4068     		ldr	r0, [r0, #4]
 850              	.LVL87:
 851 0004 A8B1     		cbz	r0, .L116
 852              		.loc 1 215 0
 853 0006 F0B4     		push	{r4, r5, r6, r7}
 854              		.cfi_def_cfa_offset 16
 855              		.cfi_offset 4, -16
 856              		.cfi_offset 5, -12
 857              		.cfi_offset 6, -8
 858              		.cfi_offset 7, -4
 859 0008 9E68     		ldr	r6, [r3, #8]
 860              		.loc 1 218 0
 861 000a 0027     		movs	r7, #0
 862 000c 043E     		subs	r6, r6, #4
 863 000e 3946     		mov	r1, r7
 864              	.LVL88:
 865              	.L106:
 866 0010 56F8044F 		ldr	r4, [r6, #4]!
 867 0014 01F12005 		add	r5, r1, #32
 868              		.loc 1 215 0 discriminator 1
 869 0018 0B46     		mov	r3, r1
 870 001a 02E0     		b	.L107
 871              	.LVL89:
 872              	.L118:
 873              		.loc 1 219 0 discriminator 2
 874 001c 0133     		adds	r3, r3, #1
 875              	.LVL90:
 876 001e AB42     		cmp	r3, r5
 877 0020 08D0     		beq	.L117
 878              	.L107:
 879 0022 5A1A     		subs	r2, r3, r1
 880              		.loc 1 220 0
 881 0024 24FA02F2 		lsr	r2, r4, r2
 882 0028 12F00102 		ands	r2, r2, #1
 883 002c F6D0     		beq	.L118
 884              		.loc 1 221 0
 885 002e 1846     		mov	r0, r3
 886              	.L105:
 887              		.loc 1 224 0
 888 0030 F0BC     		pop	{r4, r5, r6, r7}
 889              		.cfi_restore 7
 890              		.cfi_restore 6
 891              		.cfi_restore 5
 892              		.cfi_restore 4
ARM GAS  C:\Users\jo\AppData\Local\Temp\ccxFvVJt.s 			page 17


 893              		.cfi_def_cfa_offset 0
 894              	.LVL91:
 895              	.LVL92:
 896              	.L116:
 897 0032 7047     		bx	lr
 898              	.LVL93:
 899              	.L117:
 900              		.cfi_def_cfa_offset 16
 901              		.cfi_offset 4, -16
 902              		.cfi_offset 5, -12
 903              		.cfi_offset 6, -8
 904              		.cfi_offset 7, -4
 905              		.loc 1 218 0 discriminator 2
 906 0034 0137     		adds	r7, r7, #1
 907              	.LVL94:
 908 0036 8742     		cmp	r7, r0
 909 0038 1946     		mov	r1, r3
 910 003a E9D1     		bne	.L106
 911              	.LVL95:
 912              		.loc 1 223 0
 913 003c 1046     		mov	r0, r2
 914 003e F7E7     		b	.L105
 915              		.cfi_endproc
 916              	.LFE8:
 917              		.size	mpi_lsb, .-mpi_lsb
 918              		.section	.text.mpi_msb,"ax",%progbits
 919              		.align	2
 920              		.p2align 4,,15
 921              		.global	mpi_msb
 922              		.thumb
 923              		.thumb_func
 924              		.type	mpi_msb, %function
 925              	mpi_msb:
 926              	.LFB9:
 927              		.loc 1 230 0
 928              		.cfi_startproc
 929              		@ args = 0, pretend = 0, frame = 0
 930              		@ frame_needed = 0, uses_anonymous_args = 0
 931              		@ link register save eliminated.
 932              	.LVL96:
 933              		.loc 1 233 0
 934 0000 4368     		ldr	r3, [r0, #4]
 935              	.LVL97:
 936              		.loc 1 234 0
 937 0002 8068     		ldr	r0, [r0, #8]
 938              	.LVL98:
 939              		.loc 1 233 0
 940 0004 013B     		subs	r3, r3, #1
 941              	.LVL99:
 942              		.loc 1 230 0
 943 0006 10B4     		push	{r4}
 944              		.cfi_def_cfa_offset 4
 945              		.cfi_offset 4, -4
 946              		.loc 1 233 0
 947 0008 0AD0     		beq	.L120
 948              		.loc 1 234 0
 949 000a 50F82310 		ldr	r1, [r0, r3, lsl #2]
ARM GAS  C:\Users\jo\AppData\Local\Temp\ccxFvVJt.s 			page 18


 950 000e 9A00     		lsls	r2, r3, #2
 951 0010 A9B9     		cbnz	r1, .L136
 952 0012 0244     		add	r2, r2, r0
 953 0014 02E0     		b	.L122
 954              	.L124:
 955 0016 52F8041D 		ldr	r1, [r2, #-4]!
 956 001a 81B9     		cbnz	r1, .L136
 957              	.L122:
 958              	.LVL100:
 959              		.loc 1 233 0 discriminator 2
 960 001c 013B     		subs	r3, r3, #1
 961              	.LVL101:
 962 001e FAD1     		bne	.L124
 963              	.L120:
 964 0020 0168     		ldr	r1, [r0]
 965              		.loc 1 230 0
 966 0022 0020     		movs	r0, #0
 967              	.L123:
 968              	.LVL102:
 969              		.loc 1 230 0 is_stmt 0 discriminator 1
 970 0024 2023     		movs	r3, #32
 971              	.LVL103:
 972 0026 01E0     		b	.L127
 973              	.LVL104:
 974              	.L134:
 975              		.loc 1 237 0 is_stmt 1 discriminator 1
 976 0028 1346     		mov	r3, r2
 977 002a 22B1     		cbz	r2, .L125
 978              	.LVL105:
 979              	.L127:
 980              		.loc 1 238 0
 981 002c 5A1E     		subs	r2, r3, #1
 982              	.LVL106:
 983 002e 21FA02F4 		lsr	r4, r1, r2
 984 0032 E407     		lsls	r4, r4, #31
 985 0034 F8D5     		bpl	.L134
 986              	.L125:
 987              		.loc 1 242 0
 988 0036 1844     		add	r0, r0, r3
 989 0038 5DF8044B 		ldr	r4, [sp], #4
 990              		.cfi_remember_state
 991              		.cfi_restore 4
 992              		.cfi_def_cfa_offset 0
 993 003c 7047     		bx	lr
 994              	.LVL107:
 995              	.L136:
 996              		.cfi_restore_state
 997 003e 5801     		lsls	r0, r3, #5
 998 0040 F0E7     		b	.L123
 999              		.cfi_endproc
 1000              	.LFE9:
 1001              		.size	mpi_msb, .-mpi_msb
 1002 0042 00BFAFF3 		.section	.text.mpi_size,"ax",%progbits
 1002      0080AFF3 
 1002      0080AFF3 
 1002      0080
 1003              		.align	2
ARM GAS  C:\Users\jo\AppData\Local\Temp\ccxFvVJt.s 			page 19


 1004              		.p2align 4,,15
 1005              		.global	mpi_size
 1006              		.thumb
 1007              		.thumb_func
 1008              		.type	mpi_size, %function
 1009              	mpi_size:
 1010              	.LFB10:
 1011              		.loc 1 248 0
 1012              		.cfi_startproc
 1013              		@ args = 0, pretend = 0, frame = 0
 1014              		@ frame_needed = 0, uses_anonymous_args = 0
 1015              	.LVL108:
 1016 0000 08B5     		push	{r3, lr}
 1017              		.cfi_def_cfa_offset 8
 1018              		.cfi_offset 3, -8
 1019              		.cfi_offset 14, -4
 1020              		.loc 1 249 0
 1021 0002 FFF7FEFF 		bl	mpi_msb
 1022              	.LVL109:
 1023 0006 0730     		adds	r0, r0, #7
 1024              		.loc 1 250 0
 1025 0008 C008     		lsrs	r0, r0, #3
 1026 000a 08BD     		pop	{r3, pc}
 1027              		.cfi_endproc
 1028              	.LFE10:
 1029              		.size	mpi_size, .-mpi_size
 1030 000c AFF30080 		.section	.text.mpi_read_binary,"ax",%progbits
 1031              		.align	2
 1032              		.p2align 4,,15
 1033              		.global	mpi_read_binary
 1034              		.thumb
 1035              		.thumb_func
 1036              		.type	mpi_read_binary, %function
 1037              	mpi_read_binary:
 1038              	.LFB17:
 1039              		.loc 1 514 0
 1040              		.cfi_startproc
 1041              		@ args = 0, pretend = 0, frame = 0
 1042              		@ frame_needed = 0, uses_anonymous_args = 0
 1043              	.LVL110:
 1044 0000 F8B5     		push	{r3, r4, r5, r6, r7, lr}
 1045              		.cfi_def_cfa_offset 24
 1046              		.cfi_offset 3, -24
 1047              		.cfi_offset 4, -20
 1048              		.cfi_offset 5, -16
 1049              		.cfi_offset 6, -12
 1050              		.cfi_offset 7, -8
 1051              		.cfi_offset 14, -4
 1052              		.loc 1 514 0
 1053 0002 0746     		mov	r7, r0
 1054              	.LVL111:
 1055 0004 0E46     		mov	r6, r1
 1056              		.loc 1 518 0
 1057 0006 1546     		mov	r5, r2
 1058 0008 6AB3     		cbz	r2, .L147
 1059              		.loc 1 519 0
 1060 000a 0C78     		ldrb	r4, [r1]	@ zero_extendqisi2
ARM GAS  C:\Users\jo\AppData\Local\Temp\ccxFvVJt.s 			page 20


 1061 000c 6CBB     		cbnz	r4, .L148
 1062 000e 0B46     		mov	r3, r1
 1063 0010 02E0     		b	.L141
 1064              	.LVL112:
 1065              	.L142:
 1066 0012 13F8011F 		ldrb	r1, [r3, #1]!	@ zero_extendqisi2
 1067 0016 11B9     		cbnz	r1, .L140
 1068              	.LVL113:
 1069              	.L141:
 1070              		.loc 1 518 0 discriminator 2
 1071 0018 0134     		adds	r4, r4, #1
 1072              	.LVL114:
 1073 001a AC42     		cmp	r4, r5
 1074 001c F9D1     		bne	.L142
 1075              	.LVL115:
 1076              	.L140:
 1077 001e E91C     		adds	r1, r5, #3
 1078              		.loc 1 522 0
 1079 0020 091B     		subs	r1, r1, r4
 1080 0022 8908     		lsrs	r1, r1, #2
 1081 0024 3846     		mov	r0, r7
 1082              	.LVL116:
 1083 0026 FFF7FEFF 		bl	mpi_grow
 1084              	.LVL117:
 1085 002a 00B1     		cbz	r0, .L151
 1086              	.L143:
 1087              		.loc 1 531 0
 1088 002c F8BD     		pop	{r3, r4, r5, r6, r7, pc}
 1089              	.LVL118:
 1090              	.L151:
 1091              		.loc 1 523 0
 1092 002e 0146     		mov	r1, r0
 1093 0030 3846     		mov	r0, r7
 1094              	.LVL119:
 1095 0032 FFF7FEFF 		bl	mpi_lset
 1096              	.LVL120:
 1097 0036 0028     		cmp	r0, #0
 1098 0038 F8D1     		bne	.L143
 1099              	.LVL121:
 1100              		.loc 1 525 0 discriminator 1
 1101 003a A542     		cmp	r5, r4
 1102 003c F6D9     		bls	.L143
 1103 003e BF68     		ldr	r7, [r7, #8]
 1104              	.LVL122:
 1105 0040 2E44     		add	r6, r6, r5
 1106              	.LVL123:
 1107 0042 2C1B     		subs	r4, r5, r4
 1108              		.loc 1 525 0 is_stmt 0
 1109 0044 0246     		mov	r2, r0
 1110              	.LVL124:
 1111              	.L145:
 1112              		.loc 1 526 0 is_stmt 1 discriminator 3
 1113 0046 9108     		lsrs	r1, r2, #2
 1114 0048 02F00305 		and	r5, r2, #3
 1115 004c 16F8013D 		ldrb	r3, [r6, #-1]!	@ zero_extendqisi2
 1116              	.LVL125:
 1117 0050 ED00     		lsls	r5, r5, #3
ARM GAS  C:\Users\jo\AppData\Local\Temp\ccxFvVJt.s 			page 21


 1118 0052 AB40     		lsls	r3, r3, r5
 1119 0054 57F82150 		ldr	r5, [r7, r1, lsl #2]
 1120              		.loc 1 525 0 discriminator 3
 1121 0058 0132     		adds	r2, r2, #1
 1122              	.LVL126:
 1123              		.loc 1 526 0 discriminator 3
 1124 005a 2B43     		orrs	r3, r3, r5
 1125              		.loc 1 525 0 discriminator 3
 1126 005c A242     		cmp	r2, r4
 1127              		.loc 1 526 0 discriminator 3
 1128 005e 47F82130 		str	r3, [r7, r1, lsl #2]
 1129              	.LVL127:
 1130              		.loc 1 525 0 discriminator 3
 1131 0062 F0D1     		bne	.L145
 1132              		.loc 1 531 0
 1133 0064 F8BD     		pop	{r3, r4, r5, r6, r7, pc}
 1134              	.LVL128:
 1135              	.L147:
 1136              		.loc 1 518 0
 1137 0066 1446     		mov	r4, r2
 1138 0068 D9E7     		b	.L140
 1139              	.L148:
 1140 006a 0024     		movs	r4, #0
 1141 006c D7E7     		b	.L140
 1142              		.cfi_endproc
 1143              	.LFE17:
 1144              		.size	mpi_read_binary, .-mpi_read_binary
 1145 006e 00BF     		.section	.text.mpi_write_binary,"ax",%progbits
 1146              		.align	2
 1147              		.p2align 4,,15
 1148              		.global	mpi_write_binary
 1149              		.thumb
 1150              		.thumb_func
 1151              		.type	mpi_write_binary, %function
 1152              	mpi_write_binary:
 1153              	.LFB18:
 1154              		.loc 1 537 0
 1155              		.cfi_startproc
 1156              		@ args = 0, pretend = 0, frame = 0
 1157              		@ frame_needed = 0, uses_anonymous_args = 0
 1158              	.LVL129:
 1159 0000 F8B5     		push	{r3, r4, r5, r6, r7, lr}
 1160              		.cfi_def_cfa_offset 24
 1161              		.cfi_offset 3, -24
 1162              		.cfi_offset 4, -20
 1163              		.cfi_offset 5, -16
 1164              		.cfi_offset 6, -12
 1165              		.cfi_offset 7, -8
 1166              		.cfi_offset 14, -4
 1167              		.loc 1 537 0
 1168 0002 1446     		mov	r4, r2
 1169 0004 0D46     		mov	r5, r1
 1170 0006 0746     		mov	r7, r0
 1171              	.LVL130:
 1172              	.LBB104:
 1173              	.LBB105:
 1174              		.loc 1 249 0
ARM GAS  C:\Users\jo\AppData\Local\Temp\ccxFvVJt.s 			page 22


 1175 0008 FFF7FEFF 		bl	mpi_msb
 1176              	.LVL131:
 1177 000c 0730     		adds	r0, r0, #7
 1178 000e C608     		lsrs	r6, r0, #3
 1179              	.LBE105:
 1180              	.LBE104:
 1181              		.loc 1 542 0
 1182 0010 B442     		cmp	r4, r6
 1183 0012 16D3     		bcc	.L157
 1184              		.loc 1 545 0
 1185 0014 2846     		mov	r0, r5
 1186 0016 0021     		movs	r1, #0
 1187 0018 2246     		mov	r2, r4
 1188 001a FFF7FEFF 		bl	memset
 1189              	.LVL132:
 1190              		.loc 1 547 0
 1191 001e 76B1     		cbz	r6, .L156
 1192 0020 2A19     		adds	r2, r5, r4
 1193 0022 0023     		movs	r3, #0
 1194              	.LVL133:
 1195              	.L155:
 1196              		.loc 1 548 0 discriminator 3
 1197 0024 9808     		lsrs	r0, r3, #2
 1198 0026 B968     		ldr	r1, [r7, #8]
 1199 0028 03F00305 		and	r5, r3, #3
 1200 002c 51F82040 		ldr	r4, [r1, r0, lsl #2]
 1201 0030 ED00     		lsls	r5, r5, #3
 1202              		.loc 1 547 0 discriminator 3
 1203 0032 0133     		adds	r3, r3, #1
 1204              	.LVL134:
 1205              		.loc 1 548 0 discriminator 3
 1206 0034 EC40     		lsrs	r4, r4, r5
 1207              		.loc 1 547 0 discriminator 3
 1208 0036 B342     		cmp	r3, r6
 1209              		.loc 1 548 0 discriminator 3
 1210 0038 02F8014D 		strb	r4, [r2, #-1]!
 1211              	.LVL135:
 1212              		.loc 1 547 0 discriminator 3
 1213 003c F2D1     		bne	.L155
 1214              	.LVL136:
 1215              	.L156:
 1216              		.loc 1 550 0
 1217 003e 0020     		movs	r0, #0
 1218 0040 F8BD     		pop	{r3, r4, r5, r6, r7, pc}
 1219              	.LVL137:
 1220              	.L157:
 1221              		.loc 1 543 0
 1222 0042 6FF00700 		mvn	r0, #7
 1223              		.loc 1 551 0
 1224 0046 F8BD     		pop	{r3, r4, r5, r6, r7, pc}
 1225              		.cfi_endproc
 1226              	.LFE18:
 1227              		.size	mpi_write_binary, .-mpi_write_binary
 1228 0048 AFF30080 		.section	.text.mpi_shift_l,"ax",%progbits
 1228      AFF30080 
 1229              		.align	2
 1230              		.p2align 4,,15
ARM GAS  C:\Users\jo\AppData\Local\Temp\ccxFvVJt.s 			page 23


 1231              		.global	mpi_shift_l
 1232              		.thumb
 1233              		.thumb_func
 1234              		.type	mpi_shift_l, %function
 1235              	mpi_shift_l:
 1236              	.LFB19:
 1237              		.loc 1 557 0
 1238              		.cfi_startproc
 1239              		@ args = 0, pretend = 0, frame = 0
 1240              		@ frame_needed = 0, uses_anonymous_args = 0
 1241              	.LVL138:
 1242 0000 F8B5     		push	{r3, r4, r5, r6, r7, lr}
 1243              		.cfi_def_cfa_offset 24
 1244              		.cfi_offset 3, -24
 1245              		.cfi_offset 4, -20
 1246              		.cfi_offset 5, -16
 1247              		.cfi_offset 6, -12
 1248              		.cfi_offset 7, -8
 1249              		.cfi_offset 14, -4
 1250              		.loc 1 557 0
 1251 0002 0D46     		mov	r5, r1
 1252 0004 0646     		mov	r6, r0
 1253              		.loc 1 565 0
 1254 0006 FFF7FEFF 		bl	mpi_msb
 1255              	.LVL139:
 1256              		.loc 1 567 0
 1257 000a 7368     		ldr	r3, [r6, #4]
 1258              		.loc 1 565 0
 1259 000c 2844     		add	r0, r0, r5
 1260              		.loc 1 567 0
 1261 000e B0EB431F 		cmp	r0, r3, lsl #5
 1262              		.loc 1 562 0
 1263 0012 4FEA5514 		lsr	r4, r5, #5
 1264              	.LVL140:
 1265              		.loc 1 563 0
 1266 0016 05F01F05 		and	r5, r5, #31
 1267              	.LVL141:
 1268              		.loc 1 567 0
 1269 001a 34D8     		bhi	.L161
 1270              	.LVL142:
 1271              	.L165:
 1272              		.loc 1 575 0
 1273 001c DCB1     		cbz	r4, .L163
 1274              		.loc 1 577 0
 1275 001e 7368     		ldr	r3, [r6, #4]
 1276              	.LVL143:
 1277 0020 9C42     		cmp	r4, r3
 1278 0022 39D2     		bcs	.L168
 1279 0024 03F18042 		add	r2, r3, #1073741824
 1280 0028 B068     		ldr	r0, [r6, #8]
 1281 002a 013A     		subs	r2, r2, #1
 1282 002c 121B     		subs	r2, r2, r4
 1283 002e 00EB8202 		add	r2, r0, r2, lsl #2
 1284 0032 00EB8303 		add	r3, r0, r3, lsl #2
 1285              	.LVL144:
 1286 0036 00EB8407 		add	r7, r0, r4, lsl #2
 1287              	.LVL145:
ARM GAS  C:\Users\jo\AppData\Local\Temp\ccxFvVJt.s 			page 24


 1288              	.L169:
 1289              		.loc 1 578 0 discriminator 3
 1290 003a 52F80419 		ldr	r1, [r2], #-4
 1291 003e 43F8041D 		str	r1, [r3, #-4]!
 1292              		.loc 1 577 0 discriminator 3
 1293 0042 BB42     		cmp	r3, r7
 1294 0044 F9D1     		bne	.L169
 1295 0046 2346     		mov	r3, r4
 1296              	.L170:
 1297              	.LVL146:
 1298 0048 00EB8303 		add	r3, r0, r3, lsl #2
 1299              	.LVL147:
 1300              		.loc 1 581 0
 1301 004c 0022     		movs	r2, #0
 1302              	.L171:
 1303              		.loc 1 581 0 is_stmt 0 discriminator 2
 1304 004e 43F8042D 		str	r2, [r3, #-4]!
 1305              		.loc 1 580 0 is_stmt 1 discriminator 2
 1306 0052 8342     		cmp	r3, r0
 1307 0054 FBD1     		bne	.L171
 1308              	.L163:
 1309              		.loc 1 587 0
 1310 0056 A5B1     		cbz	r5, .L167
 1311              	.LVL148:
 1312              		.loc 1 589 0 discriminator 1
 1313 0058 7168     		ldr	r1, [r6, #4]
 1314 005a 8C42     		cmp	r4, r1
 1315 005c 11D2     		bcs	.L167
 1316 005e B268     		ldr	r2, [r6, #8]
 1317 0060 C5F12006 		rsb	r6, r5, #32
 1318              	.LVL149:
 1319 0064 02EB8403 		add	r3, r2, r4, lsl #2
 1320 0068 02EB8104 		add	r4, r2, r1, lsl #2
 1321              	.LVL150:
 1322              		.loc 1 589 0 is_stmt 0
 1323 006c 0021     		movs	r1, #0
 1324              	.LVL151:
 1325              	.L172:
 1326              		.loc 1 591 0 is_stmt 1 discriminator 3
 1327 006e 1868     		ldr	r0, [r3]
 1328              	.LVL152:
 1329              		.loc 1 592 0 discriminator 3
 1330 0070 00FA05F2 		lsl	r2, r0, r5
 1331              		.loc 1 593 0 discriminator 3
 1332 0074 0A43     		orrs	r2, r2, r1
 1333 0076 43F8042B 		str	r2, [r3], #4
 1334              	.LVL153:
 1335              		.loc 1 589 0 discriminator 3
 1336 007a A342     		cmp	r3, r4
 1337              		.loc 1 594 0 discriminator 3
 1338 007c 20FA06F1 		lsr	r1, r0, r6
 1339              	.LVL154:
 1340              		.loc 1 589 0 discriminator 3
 1341 0080 F5D1     		bne	.L172
 1342              	.LVL155:
 1343              	.L167:
 1344              		.loc 1 570 0
ARM GAS  C:\Users\jo\AppData\Local\Temp\ccxFvVJt.s 			page 25


 1345 0082 0020     		movs	r0, #0
 1346 0084 F8BD     		pop	{r3, r4, r5, r6, r7, pc}
 1347              	.LVL156:
 1348              	.L161:
 1349              		.loc 1 568 0
 1350 0086 00F11F01 		add	r1, r0, #31
 1351 008a 4909     		lsrs	r1, r1, #5
 1352 008c 3046     		mov	r0, r6
 1353              	.LVL157:
 1354 008e FFF7FEFF 		bl	mpi_grow
 1355              	.LVL158:
 1356 0092 0028     		cmp	r0, #0
 1357 0094 C2D0     		beq	.L165
 1358 0096 F8BD     		pop	{r3, r4, r5, r6, r7, pc}
 1359              	.LVL159:
 1360              	.L168:
 1361              		.loc 1 580 0 discriminator 1
 1362 0098 002B     		cmp	r3, #0
 1363 009a DCD0     		beq	.L163
 1364 009c B068     		ldr	r0, [r6, #8]
 1365 009e D3E7     		b	.L170
 1366              	.L164:
 1367              		.cfi_endproc
 1368              	.LFE19:
 1369              		.size	mpi_shift_l, .-mpi_shift_l
 1370              		.section	.text.mpi_shift_r,"ax",%progbits
 1371              		.align	2
 1372              		.p2align 4,,15
 1373              		.global	mpi_shift_r
 1374              		.thumb
 1375              		.thumb_func
 1376              		.type	mpi_shift_r, %function
 1377              	mpi_shift_r:
 1378              	.LFB20:
 1379              		.loc 1 607 0
 1380              		.cfi_startproc
 1381              		@ args = 0, pretend = 0, frame = 0
 1382              		@ frame_needed = 0, uses_anonymous_args = 0
 1383              		@ link register save eliminated.
 1384              	.LVL160:
 1385              		.loc 1 614 0
 1386 0000 4368     		ldr	r3, [r0, #4]
 1387              		.loc 1 607 0
 1388 0002 F0B4     		push	{r4, r5, r6, r7}
 1389              		.cfi_def_cfa_offset 16
 1390              		.cfi_offset 4, -16
 1391              		.cfi_offset 5, -12
 1392              		.cfi_offset 6, -8
 1393              		.cfi_offset 7, -4
 1394              		.loc 1 611 0
 1395 0004 4E09     		lsrs	r6, r1, #5
 1396              	.LVL161:
 1397              		.loc 1 614 0
 1398 0006 9E42     		cmp	r6, r3
 1399              		.loc 1 612 0
 1400 0008 01F01F01 		and	r1, r1, #31
 1401              	.LVL162:
ARM GAS  C:\Users\jo\AppData\Local\Temp\ccxFvVJt.s 			page 26


 1402              		.loc 1 614 0
 1403 000c 31D8     		bhi	.L181
 1404              		.loc 1 614 0 is_stmt 0 discriminator 1
 1405 000e 2FD0     		beq	.L209
 1406              		.loc 1 620 0 is_stmt 1
 1407 0010 CEB1     		cbz	r6, .L189
 1408              	.LVL163:
 1409              		.loc 1 622 0 discriminator 1
 1410 0012 9A1B     		subs	r2, r3, r6
 1411 0014 0BD0     		beq	.L187
 1412 0016 8568     		ldr	r5, [r0, #8]
 1413 0018 2C46     		mov	r4, r5
 1414 001a 04EB8207 		add	r7, r4, r2, lsl #2
 1415 001e 05EB8605 		add	r5, r5, r6, lsl #2
 1416              	.LVL164:
 1417              	.L188:
 1418              		.loc 1 623 0 discriminator 3
 1419 0022 55F8046B 		ldr	r6, [r5], #4
 1420 0026 44F8046B 		str	r6, [r4], #4
 1421              		.loc 1 622 0 discriminator 3
 1422 002a BC42     		cmp	r4, r7
 1423 002c F9D1     		bne	.L188
 1424              	.L187:
 1425              	.LVL165:
 1426              		.loc 1 625 0 discriminator 1
 1427 002e 9342     		cmp	r3, r2
 1428 0030 09D9     		bls	.L189
 1429              	.LVL166:
 1430              	.L193:
 1431 0032 8468     		ldr	r4, [r0, #8]
 1432              		.loc 1 626 0
 1433 0034 0025     		movs	r5, #0
 1434 0036 04EB8202 		add	r2, r4, r2, lsl #2
 1435 003a 04EB8304 		add	r4, r4, r3, lsl #2
 1436              	.L190:
 1437              		.loc 1 626 0 is_stmt 0 discriminator 2
 1438 003e 42F8045B 		str	r5, [r2], #4
 1439              		.loc 1 625 0 is_stmt 1 discriminator 2
 1440 0042 A242     		cmp	r2, r4
 1441 0044 FBD1     		bne	.L190
 1442              	.L189:
 1443              		.loc 1 632 0
 1444 0046 81B1     		cbz	r1, .L201
 1445              	.LVL167:
 1446              		.loc 1 634 0 discriminator 1
 1447 0048 7BB1     		cbz	r3, .L201
 1448 004a 8568     		ldr	r5, [r0, #8]
 1449 004c C1F12006 		rsb	r6, r1, #32
 1450 0050 05EB8303 		add	r3, r5, r3, lsl #2
 1451              	.LVL168:
 1452              		.loc 1 634 0 is_stmt 0
 1453 0054 0024     		movs	r4, #0
 1454              	.LVL169:
 1455              	.L192:
 1456              		.loc 1 636 0 is_stmt 1 discriminator 3
 1457 0056 53F8040D 		ldr	r0, [r3, #-4]!
 1458              	.LVL170:
ARM GAS  C:\Users\jo\AppData\Local\Temp\ccxFvVJt.s 			page 27


 1459              		.loc 1 637 0 discriminator 3
 1460 005a 20FA01F2 		lsr	r2, r0, r1
 1461              		.loc 1 638 0 discriminator 3
 1462 005e 2243     		orrs	r2, r2, r4
 1463              		.loc 1 634 0 discriminator 3
 1464 0060 AB42     		cmp	r3, r5
 1465              		.loc 1 638 0 discriminator 3
 1466 0062 1A60     		str	r2, [r3]
 1467              	.LVL171:
 1468              		.loc 1 639 0 discriminator 3
 1469 0064 00FA06F4 		lsl	r4, r0, r6
 1470              	.LVL172:
 1471              		.loc 1 634 0 discriminator 3
 1472 0068 F5D1     		bne	.L192
 1473              	.LVL173:
 1474              	.L201:
 1475              		.loc 1 644 0
 1476 006a 0020     		movs	r0, #0
 1477 006c F0BC     		pop	{r4, r5, r6, r7}
 1478              		.cfi_remember_state
 1479              		.cfi_restore 7
 1480              		.cfi_restore 6
 1481              		.cfi_restore 5
 1482              		.cfi_restore 4
 1483              		.cfi_def_cfa_offset 0
 1484 006e 7047     		bx	lr
 1485              	.LVL174:
 1486              	.L209:
 1487              		.cfi_restore_state
 1488              		.loc 1 614 0 discriminator 2
 1489 0070 19B1     		cbz	r1, .L183
 1490              	.L181:
 1491              		.loc 1 615 0
 1492 0072 0021     		movs	r1, #0
 1493              	.LVL175:
 1494              		.loc 1 644 0
 1495 0074 F0BC     		pop	{r4, r5, r6, r7}
 1496              		.cfi_remember_state
 1497              		.cfi_restore 7
 1498              		.cfi_restore 6
 1499              		.cfi_restore 5
 1500              		.cfi_restore 4
 1501              		.cfi_def_cfa_offset 0
 1502              	.LVL176:
 1503              		.loc 1 615 0
 1504 0076 FFF7FEBF 		b	mpi_lset
 1505              	.LVL177:
 1506              	.L183:
 1507              		.cfi_restore_state
 1508              		.loc 1 620 0
 1509 007a 002B     		cmp	r3, #0
 1510 007c F5D0     		beq	.L201
 1511              	.LVL178:
 1512              		.loc 1 625 0
 1513 007e 0A46     		mov	r2, r1
 1514 0080 D7E7     		b	.L193
 1515              		.cfi_endproc
ARM GAS  C:\Users\jo\AppData\Local\Temp\ccxFvVJt.s 			page 28


 1516              	.LFE20:
 1517              		.size	mpi_shift_r, .-mpi_shift_r
 1518 0082 00BFAFF3 		.section	.text.mpi_cmp_abs,"ax",%progbits
 1518      0080AFF3 
 1518      0080AFF3 
 1518      0080
 1519              		.align	2
 1520              		.p2align 4,,15
 1521              		.global	mpi_cmp_abs
 1522              		.thumb
 1523              		.thumb_func
 1524              		.type	mpi_cmp_abs, %function
 1525              	mpi_cmp_abs:
 1526              	.LFB21:
 1527              		.loc 1 650 0
 1528              		.cfi_startproc
 1529              		@ args = 0, pretend = 0, frame = 0
 1530              		@ frame_needed = 0, uses_anonymous_args = 0
 1531              		@ link register save eliminated.
 1532              	.LVL179:
 1533              		.loc 1 653 0
 1534 0000 4368     		ldr	r3, [r0, #4]
 1535              	.LVL180:
 1536              		.loc 1 650 0
 1537 0002 30B4     		push	{r4, r5}
 1538              		.cfi_def_cfa_offset 8
 1539              		.cfi_offset 4, -8
 1540              		.cfi_offset 5, -4
 1541              		.loc 1 653 0
 1542 0004 73B1     		cbz	r3, .L211
 1543              		.loc 1 654 0
 1544 0006 03F18044 		add	r4, r3, #1073741824
 1545 000a 013C     		subs	r4, r4, #1
 1546 000c 8268     		ldr	r2, [r0, #8]
 1547 000e 52F82450 		ldr	r5, [r2, r4, lsl #2]
 1548 0012 02EB8402 		add	r2, r2, r4, lsl #2
 1549 0016 1DB1     		cbz	r5, .L213
 1550 0018 1CE0     		b	.L212
 1551              	.L214:
 1552 001a 52F8044D 		ldr	r4, [r2, #-4]!
 1553 001e CCB9     		cbnz	r4, .L212
 1554              	.L213:
 1555              	.LVL181:
 1556              		.loc 1 653 0 discriminator 2
 1557 0020 013B     		subs	r3, r3, #1
 1558              	.LVL182:
 1559 0022 FAD1     		bne	.L214
 1560              	.L211:
 1561              		.loc 1 657 0
 1562 0024 4A68     		ldr	r2, [r1, #4]
 1563              	.LVL183:
 1564 0026 002A     		cmp	r2, #0
 1565 0028 47D0     		beq	.L242
 1566              		.loc 1 658 0
 1567 002a 02F18043 		add	r3, r2, #1073741824
 1568              	.LVL184:
 1569 002e 013B     		subs	r3, r3, #1
ARM GAS  C:\Users\jo\AppData\Local\Temp\ccxFvVJt.s 			page 29


 1570 0030 8D68     		ldr	r5, [r1, #8]
 1571 0032 55F82340 		ldr	r4, [r5, r3, lsl #2]
 1572 0036 05EB8301 		add	r1, r5, r3, lsl #2
 1573              	.LVL185:
 1574              		.loc 1 657 0
 1575 003a 0023     		movs	r3, #0
 1576              		.loc 1 658 0
 1577 003c 1CB1     		cbz	r4, .L216
 1578 003e 17E0     		b	.L222
 1579              	.L217:
 1580 0040 51F8044D 		ldr	r4, [r1, #-4]!
 1581 0044 94B9     		cbnz	r4, .L215
 1582              	.L216:
 1583              	.LVL186:
 1584              		.loc 1 657 0 discriminator 2
 1585 0046 013A     		subs	r2, r2, #1
 1586              	.LVL187:
 1587 0048 FAD1     		bne	.L217
 1588              		.loc 1 661 0
 1589 004a 181C     		adds	r0, r3, #0
 1590              	.LVL188:
 1591 004c 18BF     		it	ne
 1592 004e 0120     		movne	r0, #1
 1593              	.L238:
 1594              		.loc 1 674 0
 1595 0050 30BC     		pop	{r4, r5}
 1596              		.cfi_remember_state
 1597              		.cfi_restore 5
 1598              		.cfi_restore 4
 1599              		.cfi_def_cfa_offset 0
 1600 0052 7047     		bx	lr
 1601              	.LVL189:
 1602              	.L212:
 1603              		.cfi_restore_state
 1604              		.loc 1 657 0
 1605 0054 4A68     		ldr	r2, [r1, #4]
 1606              	.LVL190:
 1607 0056 4AB3     		cbz	r2, .L240
 1608              		.loc 1 658 0
 1609 0058 02F18044 		add	r4, r2, #1073741824
 1610 005c 8D68     		ldr	r5, [r1, #8]
 1611 005e 013C     		subs	r4, r4, #1
 1612 0060 05EB8401 		add	r1, r5, r4, lsl #2
 1613              	.LVL191:
 1614 0064 55F82440 		ldr	r4, [r5, r4, lsl #2]
 1615 0068 002C     		cmp	r4, #0
 1616 006a ECD0     		beq	.L216
 1617              	.LVL192:
 1618              	.L215:
 1619              		.loc 1 664 0
 1620 006c 9A42     		cmp	r2, r3
 1621 006e 1DD3     		bcc	.L240
 1622              	.L222:
 1623              		.loc 1 665 0
 1624 0070 9A42     		cmp	r2, r3
 1625 0072 1ED8     		bhi	.L232
 1626              	.LVL193:
ARM GAS  C:\Users\jo\AppData\Local\Temp\ccxFvVJt.s 			page 30


 1627              		.loc 1 667 0 discriminator 1
 1628 0074 BBB1     		cbz	r3, .L228
 1629              		.loc 1 669 0
 1630 0076 03F18044 		add	r4, r3, #1073741824
 1631 007a 013C     		subs	r4, r4, #1
 1632 007c 8168     		ldr	r1, [r0, #8]
 1633 007e A200     		lsls	r2, r4, #2
 1634              	.LVL194:
 1635 0080 51F82400 		ldr	r0, [r1, r4, lsl #2]
 1636              	.LVL195:
 1637 0084 55F82440 		ldr	r4, [r5, r4, lsl #2]
 1638 0088 8442     		cmp	r4, r0
 1639 008a 1144     		add	r1, r1, r2
 1640 008c 2A44     		add	r2, r2, r5
 1641 008e 0DD3     		bcc	.L240
 1642              		.loc 1 670 0
 1643 0090 07D9     		bls	.L220
 1644 0092 0EE0     		b	.L232
 1645              	.L221:
 1646              		.loc 1 669 0
 1647 0094 51F8044D 		ldr	r4, [r1, #-4]!
 1648 0098 52F8040D 		ldr	r0, [r2, #-4]!
 1649 009c 8442     		cmp	r4, r0
 1650 009e 05D8     		bhi	.L240
 1651              		.loc 1 670 0
 1652 00a0 07D3     		bcc	.L232
 1653              	.L220:
 1654              	.LVL196:
 1655              		.loc 1 667 0
 1656 00a2 013B     		subs	r3, r3, #1
 1657              	.LVL197:
 1658 00a4 F6D1     		bne	.L221
 1659              	.L228:
 1660              		.loc 1 673 0
 1661 00a6 1846     		mov	r0, r3
 1662              		.loc 1 674 0
 1663 00a8 30BC     		pop	{r4, r5}
 1664              		.cfi_remember_state
 1665              		.cfi_restore 4
 1666              		.cfi_restore 5
 1667              		.cfi_def_cfa_offset 0
 1668 00aa 7047     		bx	lr
 1669              	.LVL198:
 1670              	.L240:
 1671              		.cfi_restore_state
 1672              		.loc 1 664 0
 1673 00ac 0120     		movs	r0, #1
 1674              		.loc 1 674 0
 1675 00ae 30BC     		pop	{r4, r5}
 1676              		.cfi_remember_state
 1677              		.cfi_restore 4
 1678              		.cfi_restore 5
 1679              		.cfi_def_cfa_offset 0
 1680 00b0 7047     		bx	lr
 1681              	.L232:
 1682              		.cfi_restore_state
 1683              		.loc 1 665 0
ARM GAS  C:\Users\jo\AppData\Local\Temp\ccxFvVJt.s 			page 31


 1684 00b2 4FF0FF30 		mov	r0, #-1
 1685              		.loc 1 674 0
 1686 00b6 30BC     		pop	{r4, r5}
 1687              		.cfi_remember_state
 1688              		.cfi_restore 4
 1689              		.cfi_restore 5
 1690              		.cfi_def_cfa_offset 0
 1691 00b8 7047     		bx	lr
 1692              	.LVL199:
 1693              	.L242:
 1694              		.cfi_restore_state
 1695              		.loc 1 673 0
 1696 00ba 1046     		mov	r0, r2
 1697              	.LVL200:
 1698 00bc C8E7     		b	.L238
 1699              		.cfi_endproc
 1700              	.LFE21:
 1701              		.size	mpi_cmp_abs, .-mpi_cmp_abs
 1702 00be 00BF     		.section	.text.mpi_montmul.isra.2,"ax",%progbits
 1703              		.align	2
 1704              		.p2align 4,,15
 1705              		.thumb
 1706              		.thumb_func
 1707              		.type	mpi_montmul.isra.2, %function
 1708              	mpi_montmul.isra.2:
 1709              	.LFB50:
 1710              		.loc 1 1341 0
 1711              		.cfi_startproc
 1712              		@ args = 12, pretend = 0, frame = 24
 1713              		@ frame_needed = 0, uses_anonymous_args = 0
 1714              	.LVL201:
 1715 0000 2DE9F04F 		push	{r4, r5, r6, r7, r8, r9, r10, fp, lr}
 1716              		.cfi_def_cfa_offset 36
 1717              		.cfi_offset 4, -36
 1718              		.cfi_offset 5, -32
 1719              		.cfi_offset 6, -28
 1720              		.cfi_offset 7, -24
 1721              		.cfi_offset 8, -20
 1722              		.cfi_offset 9, -16
 1723              		.cfi_offset 10, -12
 1724              		.cfi_offset 11, -8
 1725              		.cfi_offset 14, -4
 1726 0004 87B0     		sub	sp, sp, #28
 1727              		.cfi_def_cfa_offset 64
 1728              		.loc 1 1341 0
 1729 0006 1F46     		mov	r7, r3
 1730 0008 129D     		ldr	r5, [sp, #72]
 1731 000a 119C     		ldr	r4, [sp, #68]
 1732 000c 0595     		str	r5, [sp, #20]
 1733 000e 2E46     		mov	r6, r5
 1734 0010 109D     		ldr	r5, [sp, #64]
 1735 0012 0295     		str	r5, [sp, #8]
 1736 0014 0D46     		mov	r5, r1
 1737 0016 8146     		mov	r9, r0
 1738 0018 9346     		mov	fp, r2
 1739              		.loc 1 1346 0
 1740 001a 3068     		ldr	r0, [r6]
ARM GAS  C:\Users\jo\AppData\Local\Temp\ccxFvVJt.s 			page 32


 1741              	.LVL202:
 1742              		.loc 1 1341 0
 1743 001c 0093     		str	r3, [sp]
 1744              		.loc 1 1346 0
 1745 001e A200     		lsls	r2, r4, #2
 1746 0020 0021     		movs	r1, #0
 1747 0022 FFF7FEFF 		bl	memset
 1748              	.LVL203:
 1749              		.loc 1 1350 0
 1750 0026 2B68     		ldr	r3, [r5]
 1751              		.loc 1 1349 0
 1752 0028 D7F80480 		ldr	r8, [r7, #4]
 1753              		.loc 1 1348 0
 1754 002c 3268     		ldr	r2, [r6]
 1755 002e 0392     		str	r2, [sp, #12]
 1756              	.LVL204:
 1757              		.loc 1 1350 0
 1758 0030 4345     		cmp	r3, r8
 1759 0032 28BF     		it	cs
 1760 0034 4346     		movcs	r3, r8
 1761 0036 0193     		str	r3, [sp, #4]
 1762              	.LVL205:
 1763              		.loc 1 1352 0
 1764 0038 B8F1000F 		cmp	r8, #0
 1765 003c 4DD0     		beq	.L247
 1766 003e 08F10103 		add	r3, r8, #1
 1767              	.LVL206:
 1768 0042 9B00     		lsls	r3, r3, #2
 1769 0044 1946     		mov	r1, r3
 1770 0046 0493     		str	r3, [sp, #16]
 1771 0048 0026     		movs	r6, #0
 1772 004a 02EB010A 		add	r10, r2, r1
 1773 004e 1546     		mov	r5, r2
 1774              	.LVL207:
 1775              	.L245:
 1776              		.loc 1 1357 0
 1777 0050 D9F80830 		ldr	r3, [r9, #8]
 1778              		.loc 1 1358 0
 1779 0054 DBF80010 		ldr	r1, [fp]
 1780              		.loc 1 1357 0
 1781 0058 53F82670 		ldr	r7, [r3, r6, lsl #2]
 1782              	.LVL208:
 1783              		.loc 1 1358 0
 1784 005c 2C68     		ldr	r4, [r5]
 1785 005e 0B68     		ldr	r3, [r1]
 1786              		.loc 1 1360 0
 1787 0060 0198     		ldr	r0, [sp, #4]
 1788              		.loc 1 1358 0
 1789 0062 03FB0744 		mla	r4, r3, r7, r4
 1790 0066 029B     		ldr	r3, [sp, #8]
 1791              		.loc 1 1360 0
 1792 0068 2A46     		mov	r2, r5
 1793              		.loc 1 1358 0
 1794 006a 03FB04F4 		mul	r4, r3, r4
 1795              	.LVL209:
 1796              		.loc 1 1360 0
 1797 006e 3B46     		mov	r3, r7
ARM GAS  C:\Users\jo\AppData\Local\Temp\ccxFvVJt.s 			page 33


 1798 0070 FFF7FEFF 		bl	mpi_mul_hlp
 1799              	.LVL210:
 1800              		.loc 1 1361 0
 1801 0074 009A     		ldr	r2, [sp]
 1802 0076 2346     		mov	r3, r4
 1803 0078 9168     		ldr	r1, [r2, #8]
 1804              		.loc 1 1352 0
 1805 007a 0136     		adds	r6, r6, #1
 1806              	.LVL211:
 1807              		.loc 1 1361 0
 1808 007c 2A46     		mov	r2, r5
 1809 007e 4046     		mov	r0, r8
 1810 0080 FFF7FEFF 		bl	mpi_mul_hlp
 1811              	.LVL212:
 1812              		.loc 1 1363 0
 1813 0084 0023     		movs	r3, #0
 1814              		.loc 1 1352 0
 1815 0086 4645     		cmp	r6, r8
 1816              		.loc 1 1363 0
 1817 0088 45F8047B 		str	r7, [r5], #4
 1818              	.LVL213:
 1819 008c 4AF8043F 		str	r3, [r10, #4]!
 1820              		.loc 1 1352 0
 1821 0090 DED1     		bne	.L245
 1822 0092 049B     		ldr	r3, [sp, #16]
 1823 0094 039A     		ldr	r2, [sp, #12]
 1824 0096 043B     		subs	r3, r3, #4
 1825 0098 1A44     		add	r2, r2, r3
 1826 009a 0392     		str	r2, [sp, #12]
 1827              	.LVL214:
 1828              	.L244:
 1829              		.loc 1 1366 0
 1830 009c 0399     		ldr	r1, [sp, #12]
 1831 009e 049A     		ldr	r2, [sp, #16]
 1832 00a0 D9F80800 		ldr	r0, [r9, #8]
 1833 00a4 FFF7FEFF 		bl	memcpy
 1834              	.LVL215:
 1835              		.loc 1 1368 0
 1836 00a8 009C     		ldr	r4, [sp]
 1837 00aa 4846     		mov	r0, r9
 1838 00ac 2146     		mov	r1, r4
 1839 00ae FFF7FEFF 		bl	mpi_cmp_abs
 1840              	.LVL216:
 1841 00b2 0028     		cmp	r0, #0
 1842              		.loc 1 1369 0
 1843 00b4 4046     		mov	r0, r8
 1844              		.loc 1 1368 0
 1845 00b6 07DB     		blt	.L246
 1846              	.LVL217:
 1847              		.loc 1 1369 0
 1848 00b8 A168     		ldr	r1, [r4, #8]
 1849 00ba D9F80820 		ldr	r2, [r9, #8]
 1850              		.loc 1 1373 0
 1851 00be 07B0     		add	sp, sp, #28
 1852              		.cfi_remember_state
 1853              		.cfi_def_cfa_offset 36
 1854              	.LVL218:
ARM GAS  C:\Users\jo\AppData\Local\Temp\ccxFvVJt.s 			page 34


 1855              		@ sp needed
 1856 00c0 BDE8F04F 		pop	{r4, r5, r6, r7, r8, r9, r10, fp, lr}
 1857              		.cfi_restore 14
 1858              		.cfi_restore 11
 1859              		.cfi_restore 10
 1860              		.cfi_restore 9
 1861              		.cfi_restore 8
 1862              		.cfi_restore 7
 1863              		.cfi_restore 6
 1864              		.cfi_restore 5
 1865              		.cfi_restore 4
 1866              		.cfi_def_cfa_offset 0
 1867              	.LVL219:
 1868              		.loc 1 1372 0
 1869 00c4 FFF7FEBF 		b	mpi_sub_hlp
 1870              	.LVL220:
 1871              	.L246:
 1872              		.cfi_restore_state
 1873 00c8 059B     		ldr	r3, [sp, #20]
 1874 00ca D9F80810 		ldr	r1, [r9, #8]
 1875 00ce 1A68     		ldr	r2, [r3]
 1876              		.loc 1 1373 0
 1877 00d0 07B0     		add	sp, sp, #28
 1878              		.cfi_remember_state
 1879              		.cfi_def_cfa_offset 36
 1880              	.LVL221:
 1881              		@ sp needed
 1882 00d2 BDE8F04F 		pop	{r4, r5, r6, r7, r8, r9, r10, fp, lr}
 1883              		.cfi_restore 4
 1884              		.cfi_restore 5
 1885              		.cfi_restore 6
 1886              		.cfi_restore 7
 1887              		.cfi_restore 8
 1888              		.cfi_restore 9
 1889              		.cfi_restore 10
 1890              		.cfi_restore 11
 1891              		.cfi_restore 14
 1892              		.cfi_def_cfa_offset 0
 1893              	.LVL222:
 1894              		.loc 1 1372 0
 1895 00d6 FFF7FEBF 		b	mpi_sub_hlp
 1896              	.LVL223:
 1897              	.L247:
 1898              		.cfi_restore_state
 1899              		.loc 1 1352 0
 1900 00da 0423     		movs	r3, #4
 1901              	.LVL224:
 1902 00dc 0493     		str	r3, [sp, #16]
 1903 00de DDE7     		b	.L244
 1904              		.cfi_endproc
 1905              	.LFE50:
 1906              		.size	mpi_montmul.isra.2, .-mpi_montmul.isra.2
 1907              		.section	.text.mpi_cmp_mpi,"ax",%progbits
 1908              		.align	2
 1909              		.p2align 4,,15
 1910              		.global	mpi_cmp_mpi
 1911              		.thumb
ARM GAS  C:\Users\jo\AppData\Local\Temp\ccxFvVJt.s 			page 35


 1912              		.thumb_func
 1913              		.type	mpi_cmp_mpi, %function
 1914              	mpi_cmp_mpi:
 1915              	.LFB22:
 1916              		.loc 1 680 0
 1917              		.cfi_startproc
 1918              		@ args = 0, pretend = 0, frame = 0
 1919              		@ frame_needed = 0, uses_anonymous_args = 0
 1920              		@ link register save eliminated.
 1921              	.LVL225:
 1922              		.loc 1 683 0
 1923 0000 4368     		ldr	r3, [r0, #4]
 1924              	.LVL226:
 1925              		.loc 1 680 0
 1926 0002 70B4     		push	{r4, r5, r6}
 1927              		.cfi_def_cfa_offset 12
 1928              		.cfi_offset 4, -12
 1929              		.cfi_offset 5, -8
 1930              		.cfi_offset 6, -4
 1931              		.loc 1 683 0
 1932 0004 73B1     		cbz	r3, .L252
 1933              		.loc 1 684 0
 1934 0006 03F18044 		add	r4, r3, #1073741824
 1935 000a 013C     		subs	r4, r4, #1
 1936 000c 8268     		ldr	r2, [r0, #8]
 1937 000e 52F82450 		ldr	r5, [r2, r4, lsl #2]
 1938 0012 02EB8402 		add	r2, r2, r4, lsl #2
 1939 0016 1DB1     		cbz	r5, .L254
 1940 0018 1BE0     		b	.L253
 1941              	.L255:
 1942 001a 52F8044D 		ldr	r4, [r2, #-4]!
 1943 001e C4B9     		cbnz	r4, .L253
 1944              	.L254:
 1945              	.LVL227:
 1946              		.loc 1 683 0 discriminator 2
 1947 0020 013B     		subs	r3, r3, #1
 1948              	.LVL228:
 1949 0022 FAD1     		bne	.L255
 1950              	.L252:
 1951              		.loc 1 687 0
 1952 0024 4A68     		ldr	r2, [r1, #4]
 1953              	.LVL229:
 1954 0026 8AB1     		cbz	r2, .L281
 1955              		.loc 1 688 0
 1956 0028 02F18044 		add	r4, r2, #1073741824
 1957 002c 013C     		subs	r4, r4, #1
 1958 002e 8E68     		ldr	r6, [r1, #8]
 1959 0030 56F82450 		ldr	r5, [r6, r4, lsl #2]
 1960              		.loc 1 687 0
 1961 0034 0023     		movs	r3, #0
 1962              	.LVL230:
 1963              		.loc 1 688 0
 1964 0036 06EB8404 		add	r4, r6, r4, lsl #2
 1965 003a 1DB1     		cbz	r5, .L257
 1966 003c 1BE0     		b	.L271
 1967              	.L258:
 1968 003e 54F8045D 		ldr	r5, [r4, #-4]!
ARM GAS  C:\Users\jo\AppData\Local\Temp\ccxFvVJt.s 			page 36


 1969 0042 95B9     		cbnz	r5, .L256
 1970              	.L257:
 1971              	.LVL231:
 1972              		.loc 1 687 0 discriminator 2
 1973 0044 013A     		subs	r2, r2, #1
 1974              	.LVL232:
 1975 0046 FAD1     		bne	.L258
 1976              		.loc 1 691 0
 1977 0048 8BB9     		cbnz	r3, .L270
 1978              	.LVL233:
 1979              	.L279:
 1980              		.loc 1 706 0
 1981 004a 1A46     		mov	r2, r3
 1982              	.L281:
 1983              		.loc 1 707 0
 1984 004c 1046     		mov	r0, r2
 1985 004e 70BC     		pop	{r4, r5, r6}
 1986              		.cfi_remember_state
 1987              		.cfi_restore 6
 1988              		.cfi_restore 5
 1989              		.cfi_restore 4
 1990              		.cfi_def_cfa_offset 0
 1991 0050 7047     		bx	lr
 1992              	.LVL234:
 1993              	.L253:
 1994              		.cfi_restore_state
 1995              		.loc 1 687 0
 1996 0052 4A68     		ldr	r2, [r1, #4]
 1997              	.LVL235:
 1998 0054 5AB1     		cbz	r2, .L270
 1999              		.loc 1 688 0
 2000 0056 02F18044 		add	r4, r2, #1073741824
 2001 005a 013C     		subs	r4, r4, #1
 2002 005c 8E68     		ldr	r6, [r1, #8]
 2003 005e 56F82450 		ldr	r5, [r6, r4, lsl #2]
 2004 0062 06EB8404 		add	r4, r6, r4, lsl #2
 2005 0066 002D     		cmp	r5, #0
 2006 0068 ECD0     		beq	.L257
 2007              	.LVL236:
 2008              	.L256:
 2009              		.loc 1 694 0
 2010 006a 9A42     		cmp	r2, r3
 2011 006c 03D2     		bcs	.L271
 2012              	.L270:
 2013              		.loc 1 694 0 is_stmt 0 discriminator 1
 2014 006e 0268     		ldr	r2, [r0]
 2015              	.LVL237:
 2016              		.loc 1 707 0 is_stmt 1 discriminator 1
 2017 0070 70BC     		pop	{r4, r5, r6}
 2018              		.cfi_remember_state
 2019              		.cfi_restore 4
 2020              		.cfi_restore 5
 2021              		.cfi_restore 6
 2022              		.cfi_def_cfa_offset 0
 2023 0072 1046     		mov	r0, r2
 2024              	.LVL238:
 2025 0074 7047     		bx	lr
ARM GAS  C:\Users\jo\AppData\Local\Temp\ccxFvVJt.s 			page 37


 2026              	.LVL239:
 2027              	.L271:
 2028              		.cfi_restore_state
 2029              		.loc 1 695 0
 2030 0076 9A42     		cmp	r2, r3
 2031 0078 22D8     		bhi	.L292
 2032              		.loc 1 697 0
 2033 007a 0268     		ldr	r2, [r0]
 2034              	.LVL240:
 2035 007c 0968     		ldr	r1, [r1]
 2036              	.LVL241:
 2037 007e 002A     		cmp	r2, #0
 2038 0080 01DD     		ble	.L263
 2039              		.loc 1 697 0 is_stmt 0 discriminator 1
 2040 0082 0029     		cmp	r1, #0
 2041 0084 23DB     		blt	.L276
 2042              	.L263:
 2043              		.loc 1 698 0 is_stmt 1
 2044 0086 0029     		cmp	r1, #0
 2045 0088 01DD     		ble	.L267
 2046              		.loc 1 698 0 is_stmt 0 discriminator 1
 2047 008a 002A     		cmp	r2, #0
 2048 008c 21DB     		blt	.L293
 2049              	.L267:
 2050              	.LVL242:
 2051              		.loc 1 700 0 is_stmt 1 discriminator 1
 2052 008e 002B     		cmp	r3, #0
 2053 0090 DBD0     		beq	.L279
 2054              		.loc 1 702 0
 2055 0092 03F18044 		add	r4, r3, #1073741824
 2056 0096 013C     		subs	r4, r4, #1
 2057 0098 8068     		ldr	r0, [r0, #8]
 2058              	.LVL243:
 2059 009a A100     		lsls	r1, r4, #2
 2060 009c 50F82450 		ldr	r5, [r0, r4, lsl #2]
 2061 00a0 56F82440 		ldr	r4, [r6, r4, lsl #2]
 2062 00a4 A542     		cmp	r5, r4
 2063 00a6 0844     		add	r0, r0, r1
 2064 00a8 3144     		add	r1, r1, r6
 2065 00aa CFD8     		bhi	.L281
 2066              	.L289:
 2067              		.loc 1 703 0
 2068 00ac 0DD3     		bcc	.L294
 2069              	.LVL244:
 2070              		.loc 1 700 0
 2071 00ae 013B     		subs	r3, r3, #1
 2072              	.LVL245:
 2073 00b0 CBD0     		beq	.L279
 2074              		.loc 1 702 0
 2075 00b2 50F8045D 		ldr	r5, [r0, #-4]!
 2076 00b6 51F8044D 		ldr	r4, [r1, #-4]!
 2077 00ba A542     		cmp	r5, r4
 2078 00bc F6D9     		bls	.L289
 2079 00be C5E7     		b	.L281
 2080              	.LVL246:
 2081              	.L292:
 2082              		.loc 1 695 0 discriminator 1
ARM GAS  C:\Users\jo\AppData\Local\Temp\ccxFvVJt.s 			page 38


 2083 00c0 0A68     		ldr	r2, [r1]
 2084              	.LVL247:
 2085 00c2 5242     		negs	r2, r2
 2086              		.loc 1 707 0 discriminator 1
 2087 00c4 1046     		mov	r0, r2
 2088              	.LVL248:
 2089 00c6 70BC     		pop	{r4, r5, r6}
 2090              		.cfi_remember_state
 2091              		.cfi_restore 4
 2092              		.cfi_restore 5
 2093              		.cfi_restore 6
 2094              		.cfi_def_cfa_offset 0
 2095 00c8 7047     		bx	lr
 2096              	.LVL249:
 2097              	.L294:
 2098              		.cfi_restore_state
 2099              		.loc 1 703 0 discriminator 1
 2100 00ca 5242     		negs	r2, r2
 2101 00cc BEE7     		b	.L281
 2102              	.LVL250:
 2103              	.L276:
 2104              		.loc 1 697 0
 2105 00ce 0122     		movs	r2, #1
 2106 00d0 BCE7     		b	.L281
 2107              	.L293:
 2108              		.loc 1 698 0
 2109 00d2 4FF0FF32 		mov	r2, #-1
 2110 00d6 B9E7     		b	.L281
 2111              		.cfi_endproc
 2112              	.LFE22:
 2113              		.size	mpi_cmp_mpi, .-mpi_cmp_mpi
 2114 00d8 AFF30080 		.section	.text.mpi_cmp_int,"ax",%progbits
 2114      AFF30080 
 2115              		.align	2
 2116              		.p2align 4,,15
 2117              		.global	mpi_cmp_int
 2118              		.thumb
 2119              		.thumb_func
 2120              		.type	mpi_cmp_int, %function
 2121              	mpi_cmp_int:
 2122              	.LFB23:
 2123              		.loc 1 713 0
 2124              		.cfi_startproc
 2125              		@ args = 0, pretend = 0, frame = 16
 2126              		@ frame_needed = 0, uses_anonymous_args = 0
 2127              	.LVL251:
 2128 0000 10B5     		push	{r4, lr}
 2129              		.cfi_def_cfa_offset 8
 2130              		.cfi_offset 4, -8
 2131              		.cfi_offset 14, -4
 2132              		.loc 1 718 0
 2133 0002 0029     		cmp	r1, #0
 2134              		.loc 1 713 0
 2135 0004 84B0     		sub	sp, sp, #16
 2136              		.cfi_def_cfa_offset 24
 2137              		.loc 1 717 0
 2138 0006 81EAE174 		eor	r4, r1, r1, asr #31
ARM GAS  C:\Users\jo\AppData\Local\Temp\ccxFvVJt.s 			page 39


 2139 000a A4EBE174 		sub	r4, r4, r1, asr #31
 2140              		.loc 1 718 0
 2141 000e B4BF     		ite	lt
 2142 0010 4FF0FF32 		movlt	r2, #-1
 2143 0014 0122     		movge	r2, #1
 2144              		.loc 1 719 0
 2145 0016 0123     		movs	r3, #1
 2146              		.loc 1 722 0
 2147 0018 01A9     		add	r1, sp, #4
 2148              	.LVL252:
 2149              		.loc 1 717 0
 2150 001a 0094     		str	r4, [sp]
 2151              		.loc 1 718 0
 2152 001c 0192     		str	r2, [sp, #4]
 2153              		.loc 1 719 0
 2154 001e 0293     		str	r3, [sp, #8]
 2155              		.loc 1 720 0
 2156 0020 CDF80CD0 		str	sp, [sp, #12]
 2157              		.loc 1 722 0
 2158 0024 FFF7FEFF 		bl	mpi_cmp_mpi
 2159              	.LVL253:
 2160              		.loc 1 723 0
 2161 0028 04B0     		add	sp, sp, #16
 2162              		.cfi_def_cfa_offset 8
 2163              		@ sp needed
 2164 002a 10BD     		pop	{r4, pc}
 2165              		.cfi_endproc
 2166              	.LFE23:
 2167              		.size	mpi_cmp_int, .-mpi_cmp_int
 2168 002c AFF30080 		.section	.text.mpi_add_abs,"ax",%progbits
 2169              		.align	2
 2170              		.p2align 4,,15
 2171              		.global	mpi_add_abs
 2172              		.thumb
 2173              		.thumb_func
 2174              		.type	mpi_add_abs, %function
 2175              	mpi_add_abs:
 2176              	.LFB24:
 2177              		.loc 1 729 0
 2178              		.cfi_startproc
 2179              		@ args = 0, pretend = 0, frame = 0
 2180              		@ frame_needed = 0, uses_anonymous_args = 0
 2181              	.LVL254:
 2182              		.loc 1 734 0
 2183 0000 9042     		cmp	r0, r2
 2184              		.loc 1 729 0
 2185 0002 2DE9F843 		push	{r3, r4, r5, r6, r7, r8, r9, lr}
 2186              		.cfi_def_cfa_offset 32
 2187              		.cfi_offset 3, -32
 2188              		.cfi_offset 4, -28
 2189              		.cfi_offset 5, -24
 2190              		.cfi_offset 6, -20
 2191              		.cfi_offset 7, -16
 2192              		.cfi_offset 8, -12
 2193              		.cfi_offset 9, -8
 2194              		.cfi_offset 14, -4
 2195              		.loc 1 729 0
ARM GAS  C:\Users\jo\AppData\Local\Temp\ccxFvVJt.s 			page 40


 2196 0006 1446     		mov	r4, r2
 2197 0008 0646     		mov	r6, r0
 2198              		.loc 1 734 0
 2199 000a 63D0     		beq	.L314
 2200              		.loc 1 739 0
 2201 000c 8842     		cmp	r0, r1
 2202 000e 03D0     		beq	.L300
 2203              		.loc 1 740 0
 2204 0010 FFF7FEFF 		bl	mpi_copy
 2205              	.LVL255:
 2206 0014 8146     		mov	r9, r0
 2207 0016 C8B9     		cbnz	r0, .L318
 2208              	.LVL256:
 2209              	.L300:
 2210              		.loc 1 747 0
 2211 0018 6768     		ldr	r7, [r4, #4]
 2212              	.LVL257:
 2213              		.loc 1 745 0
 2214 001a 0123     		movs	r3, #1
 2215 001c 3360     		str	r3, [r6]
 2216              		.loc 1 747 0
 2217 001e 77B1     		cbz	r7, .L304
 2218              		.loc 1 748 0
 2219 0020 07F18042 		add	r2, r7, #1073741824
 2220 0024 013A     		subs	r2, r2, #1
 2221 0026 A368     		ldr	r3, [r4, #8]
 2222 0028 53F82210 		ldr	r1, [r3, r2, lsl #2]
 2223 002c 03EB8203 		add	r3, r3, r2, lsl #2
 2224 0030 19B1     		cbz	r1, .L306
 2225 0032 0EE0     		b	.L305
 2226              	.L307:
 2227 0034 53F8041D 		ldr	r1, [r3, #-4]!
 2228 0038 59B9     		cbnz	r1, .L305
 2229              	.L306:
 2230              	.LVL258:
 2231              		.loc 1 747 0 discriminator 2
 2232 003a 013F     		subs	r7, r7, #1
 2233              	.LVL259:
 2234 003c FAD1     		bne	.L307
 2235              	.L304:
 2236              		.loc 1 751 0
 2237 003e 3046     		mov	r0, r6
 2238 0040 0021     		movs	r1, #0
 2239              		.loc 1 775 0
 2240 0042 BDE8F843 		pop	{r3, r4, r5, r6, r7, r8, r9, lr}
 2241              		.cfi_remember_state
 2242              		.cfi_restore 14
 2243              		.cfi_restore 9
 2244              		.cfi_restore 8
 2245              		.cfi_restore 7
 2246              		.cfi_restore 6
 2247              		.cfi_restore 5
 2248              		.cfi_restore 4
 2249              		.cfi_restore 3
 2250              		.cfi_def_cfa_offset 0
 2251              	.LVL260:
 2252              		.loc 1 751 0
ARM GAS  C:\Users\jo\AppData\Local\Temp\ccxFvVJt.s 			page 41


 2253 0046 FFF7FEBF 		b	mpi_grow
 2254              	.LVL261:
 2255              	.L315:
 2256              		.cfi_restore_state
 2257 004a 8146     		mov	r9, r0
 2258              	.LVL262:
 2259              	.L318:
 2260              		.loc 1 775 0
 2261 004c 4846     		mov	r0, r9
 2262 004e BDE8F883 		pop	{r3, r4, r5, r6, r7, r8, r9, pc}
 2263              	.LVL263:
 2264              	.L305:
 2265              		.loc 1 751 0
 2266 0052 3046     		mov	r0, r6
 2267 0054 3946     		mov	r1, r7
 2268 0056 FFF7FEFF 		bl	mpi_grow
 2269              	.LVL264:
 2270 005a 8146     		mov	r9, r0
 2271 005c 0028     		cmp	r0, #0
 2272 005e F5D1     		bne	.L318
 2273              	.L302:
 2274              	.LVL265:
 2275 0060 A368     		ldr	r3, [r4, #8]
 2276 0062 B068     		ldr	r0, [r6, #8]
 2277              	.LVL266:
 2278 0064 A3F1040C 		sub	ip, r3, #4
 2279              		.loc 1 753 0
 2280 0068 4C46     		mov	r4, r9
 2281 006a 4946     		mov	r1, r9
 2282              	.LVL267:
 2283              	.L308:
 2284              		.loc 1 757 0 discriminator 3
 2285 006c 0268     		ldr	r2, [r0]
 2286 006e 2244     		add	r2, r2, r4
 2287              	.LVL268:
 2288 0070 0260     		str	r2, [r0]
 2289              		.loc 1 758 0 discriminator 3
 2290 0072 5CF8043F 		ldr	r3, [ip, #4]!
 2291 0076 1344     		add	r3, r3, r2
 2292 0078 40F8043B 		str	r3, [r0], #4
 2293              	.LVL269:
 2294 007c DCF80050 		ldr	r5, [ip]
 2295 0080 AB42     		cmp	r3, r5
 2296 0082 2CBF     		ite	cs
 2297 0084 0023     		movcs	r3, #0
 2298 0086 0123     		movcc	r3, #1
 2299              		.loc 1 755 0 discriminator 3
 2300 0088 0131     		adds	r1, r1, #1
 2301              	.LVL270:
 2302              		.loc 1 758 0 discriminator 3
 2303 008a 9442     		cmp	r4, r2
 2304 008c 94BF     		ite	ls
 2305 008e 1C46     		movls	r4, r3
 2306 0090 5C1C     		addhi	r4, r3, #1
 2307              	.LVL271:
 2308              		.loc 1 755 0 discriminator 3
 2309 0092 8F42     		cmp	r7, r1
ARM GAS  C:\Users\jo\AppData\Local\Temp\ccxFvVJt.s 			page 42


 2310 0094 0246     		mov	r2, r0
 2311 0096 E9D8     		bhi	.L308
 2312              	.LVL272:
 2313              		.loc 1 761 0
 2314 0098 002C     		cmp	r4, #0
 2315 009a D7D0     		beq	.L318
 2316 009c 4F1C     		adds	r7, r1, #1
 2317              	.LVL273:
 2318 009e 4FEA8108 		lsl	r8, r1, #2
 2319 00a2 0AE0     		b	.L311
 2320              	.LVL274:
 2321              	.L310:
 2322              		.loc 1 769 0
 2323 00a4 1368     		ldr	r3, [r2]
 2324 00a6 2344     		add	r3, r3, r4
 2325              		.loc 1 761 0
 2326 00a8 A342     		cmp	r3, r4
 2327 00aa 07F10107 		add	r7, r7, #1
 2328              	.LVL275:
 2329 00ae 08F10408 		add	r8, r8, #4
 2330              		.loc 1 769 0
 2331 00b2 42F8043B 		str	r3, [r2], #4
 2332              	.LVL276:
 2333              		.loc 1 761 0
 2334 00b6 C9D2     		bcs	.L318
 2335 00b8 0124     		movs	r4, #1
 2336              	.LVL277:
 2337              	.L311:
 2338              		.loc 1 763 0
 2339 00ba 7168     		ldr	r1, [r6, #4]
 2340 00bc 7B1E     		subs	r3, r7, #1
 2341              	.LVL278:
 2342 00be 9942     		cmp	r1, r3
 2343 00c0 F0D8     		bhi	.L310
 2344              		.loc 1 765 0
 2345 00c2 3046     		mov	r0, r6
 2346 00c4 3946     		mov	r1, r7
 2347 00c6 FFF7FEFF 		bl	mpi_grow
 2348              	.LVL279:
 2349 00ca 0028     		cmp	r0, #0
 2350 00cc BDD1     		bne	.L315
 2351              		.loc 1 766 0
 2352 00ce B268     		ldr	r2, [r6, #8]
 2353 00d0 4244     		add	r2, r2, r8
 2354              	.LVL280:
 2355 00d2 E7E7     		b	.L310
 2356              	.LVL281:
 2357              	.L314:
 2358 00d4 0C46     		mov	r4, r1
 2359 00d6 9FE7     		b	.L300
 2360              		.cfi_endproc
 2361              	.LFE24:
 2362              		.size	mpi_add_abs, .-mpi_add_abs
 2363 00d8 AFF30080 		.section	.text.mpi_sub_abs,"ax",%progbits
 2363      AFF30080 
 2364              		.align	2
 2365              		.p2align 4,,15
ARM GAS  C:\Users\jo\AppData\Local\Temp\ccxFvVJt.s 			page 43


 2366              		.global	mpi_sub_abs
 2367              		.thumb
 2368              		.thumb_func
 2369              		.type	mpi_sub_abs, %function
 2370              	mpi_sub_abs:
 2371              	.LFB26:
 2372              		.loc 1 802 0
 2373              		.cfi_startproc
 2374              		@ args = 0, pretend = 0, frame = 16
 2375              		@ frame_needed = 0, uses_anonymous_args = 0
 2376              	.LVL282:
 2377 0000 2DE9F041 		push	{r4, r5, r6, r7, r8, lr}
 2378              		.cfi_def_cfa_offset 24
 2379              		.cfi_offset 4, -24
 2380              		.cfi_offset 5, -20
 2381              		.cfi_offset 6, -16
 2382              		.cfi_offset 7, -12
 2383              		.cfi_offset 8, -8
 2384              		.cfi_offset 14, -4
 2385 0004 8846     		mov	r8, r1
 2386 0006 84B0     		sub	sp, sp, #16
 2387              		.cfi_def_cfa_offset 40
 2388              		.loc 1 802 0
 2389 0008 0546     		mov	r5, r0
 2390              		.loc 1 807 0
 2391 000a 1146     		mov	r1, r2
 2392              	.LVL283:
 2393 000c 4046     		mov	r0, r8
 2394              	.LVL284:
 2395              		.loc 1 802 0
 2396 000e 1646     		mov	r6, r2
 2397              		.loc 1 807 0
 2398 0010 FFF7FEFF 		bl	mpi_cmp_abs
 2399              	.LVL285:
 2400 0014 0028     		cmp	r0, #0
 2401 0016 38DB     		blt	.L335
 2402              	.LVL286:
 2403              	.LBB106:
 2404              	.LBB107:
 2405              		.loc 1 61 0
 2406 0018 0023     		movs	r3, #0
 2407              		.loc 1 60 0
 2408 001a 0122     		movs	r2, #1
 2409              	.LBE107:
 2410              	.LBE106:
 2411              		.loc 1 812 0
 2412 001c B542     		cmp	r5, r6
 2413              	.LBB109:
 2414              	.LBB108:
 2415              		.loc 1 60 0
 2416 001e 0192     		str	r2, [sp, #4]
 2417              		.loc 1 61 0
 2418 0020 0293     		str	r3, [sp, #8]
 2419              		.loc 1 62 0
 2420 0022 0393     		str	r3, [sp, #12]
 2421              	.LBE108:
 2422              	.LBE109:
ARM GAS  C:\Users\jo\AppData\Local\Temp\ccxFvVJt.s 			page 44


 2423              		.loc 1 814 0
 2424 0024 01AF     		add	r7, sp, #4
 2425              	.LVL287:
 2426              		.loc 1 812 0
 2427 0026 25D0     		beq	.L343
 2428              	.LVL288:
 2429              	.L326:
 2430              		.loc 1 818 0
 2431 0028 4545     		cmp	r5, r8
 2432 002a 05D0     		beq	.L331
 2433              		.loc 1 819 0
 2434 002c 4146     		mov	r1, r8
 2435 002e 2846     		mov	r0, r5
 2436 0030 FFF7FEFF 		bl	mpi_copy
 2437              	.LVL289:
 2438 0034 0446     		mov	r4, r0
 2439 0036 B0B9     		cbnz	r0, .L327
 2440              	.LVL290:
 2441              	.L331:
 2442              		.loc 1 828 0
 2443 0038 7068     		ldr	r0, [r6, #4]
 2444              		.loc 1 824 0
 2445 003a 0123     		movs	r3, #1
 2446 003c 2B60     		str	r3, [r5]
 2447              	.LVL291:
 2448              		.loc 1 828 0
 2449 003e 10B3     		cbz	r0, .L344
 2450              		.loc 1 829 0
 2451 0040 00F18042 		add	r2, r0, #1073741824
 2452 0044 B168     		ldr	r1, [r6, #8]
 2453 0046 013A     		subs	r2, r2, #1
 2454 0048 01EB8203 		add	r3, r1, r2, lsl #2
 2455 004c 51F82220 		ldr	r2, [r1, r2, lsl #2]
 2456 0050 1AB1     		cbz	r2, .L333
 2457 0052 04E0     		b	.L332
 2458              	.L334:
 2459 0054 53F8042D 		ldr	r2, [r3, #-4]!
 2460 0058 0AB9     		cbnz	r2, .L332
 2461              	.L333:
 2462              	.LVL292:
 2463              		.loc 1 828 0 discriminator 2
 2464 005a 0138     		subs	r0, r0, #1
 2465              	.LVL293:
 2466 005c FAD1     		bne	.L334
 2467              	.L332:
 2468              		.loc 1 832 0
 2469 005e AA68     		ldr	r2, [r5, #8]
 2470 0060 FFF7FEFF 		bl	mpi_sub_hlp
 2471              	.LVL294:
 2472              		.loc 1 826 0
 2473 0064 0024     		movs	r4, #0
 2474              	.LVL295:
 2475              	.L327:
 2476              		.loc 1 836 0
 2477 0066 3846     		mov	r0, r7
 2478 0068 FFF7FEFF 		bl	mpi_free
 2479              	.LVL296:
ARM GAS  C:\Users\jo\AppData\Local\Temp\ccxFvVJt.s 			page 45


 2480              		.loc 1 838 0
 2481 006c 2046     		mov	r0, r4
 2482              	.LVL297:
 2483              	.L325:
 2484              		.loc 1 839 0
 2485 006e 04B0     		add	sp, sp, #16
 2486              		.cfi_remember_state
 2487              		.cfi_def_cfa_offset 24
 2488              		@ sp needed
 2489 0070 BDE8F081 		pop	{r4, r5, r6, r7, r8, pc}
 2490              	.LVL298:
 2491              	.L343:
 2492              		.cfi_restore_state
 2493              		.loc 1 814 0
 2494 0074 3846     		mov	r0, r7
 2495 0076 2946     		mov	r1, r5
 2496 0078 FFF7FEFF 		bl	mpi_copy
 2497              	.LVL299:
 2498 007c 0446     		mov	r4, r0
 2499 007e 0028     		cmp	r0, #0
 2500 0080 F1D1     		bne	.L327
 2501              		.loc 1 815 0
 2502 0082 3E46     		mov	r6, r7
 2503              	.LVL300:
 2504 0084 D0E7     		b	.L326
 2505              	.LVL301:
 2506              	.L344:
 2507 0086 B168     		ldr	r1, [r6, #8]
 2508 0088 E9E7     		b	.L332
 2509              	.LVL302:
 2510              	.L335:
 2511              		.loc 1 808 0
 2512 008a 6FF00900 		mvn	r0, #9
 2513 008e EEE7     		b	.L325
 2514              		.cfi_endproc
 2515              	.LFE26:
 2516              		.size	mpi_sub_abs, .-mpi_sub_abs
 2517              		.section	.text.mpi_add_mpi,"ax",%progbits
 2518              		.align	2
 2519              		.p2align 4,,15
 2520              		.global	mpi_add_mpi
 2521              		.thumb
 2522              		.thumb_func
 2523              		.type	mpi_add_mpi, %function
 2524              	mpi_add_mpi:
 2525              	.LFB27:
 2526              		.loc 1 845 0
 2527              		.cfi_startproc
 2528              		@ args = 0, pretend = 0, frame = 0
 2529              		@ frame_needed = 0, uses_anonymous_args = 0
 2530              	.LVL303:
 2531 0000 F8B5     		push	{r3, r4, r5, r6, r7, lr}
 2532              		.cfi_def_cfa_offset 24
 2533              		.cfi_offset 3, -24
 2534              		.cfi_offset 4, -20
 2535              		.cfi_offset 5, -16
 2536              		.cfi_offset 6, -12
ARM GAS  C:\Users\jo\AppData\Local\Temp\ccxFvVJt.s 			page 46


 2537              		.cfi_offset 7, -8
 2538              		.cfi_offset 14, -4
 2539              		.loc 1 846 0
 2540 0002 0E68     		ldr	r6, [r1]
 2541              	.LVL304:
 2542              		.loc 1 848 0
 2543 0004 1368     		ldr	r3, [r2]
 2544 0006 03FB06F3 		mul	r3, r3, r6
 2545 000a 002B     		cmp	r3, #0
 2546              		.loc 1 845 0
 2547 000c 0C46     		mov	r4, r1
 2548 000e 1546     		mov	r5, r2
 2549 0010 0746     		mov	r7, r0
 2550              		.loc 1 848 0
 2551 0012 04DB     		blt	.L352
 2552              		.loc 1 863 0
 2553 0014 FFF7FEFF 		bl	mpi_add_abs
 2554              	.LVL305:
 2555 0018 00B9     		cbnz	r0, .L348
 2556              	.L350:
 2557              		.loc 1 864 0
 2558 001a 3E60     		str	r6, [r7]
 2559              	.L348:
 2560              		.loc 1 870 0
 2561 001c F8BD     		pop	{r3, r4, r5, r6, r7, pc}
 2562              	.LVL306:
 2563              	.L352:
 2564              		.loc 1 850 0
 2565 001e 0846     		mov	r0, r1
 2566              	.LVL307:
 2567 0020 1146     		mov	r1, r2
 2568              	.LVL308:
 2569 0022 FFF7FEFF 		bl	mpi_cmp_abs
 2570              	.LVL309:
 2571 0026 0028     		cmp	r0, #0
 2572 0028 07DB     		blt	.L347
 2573              		.loc 1 852 0
 2574 002a 2146     		mov	r1, r4
 2575 002c 2A46     		mov	r2, r5
 2576 002e 3846     		mov	r0, r7
 2577 0030 FFF7FEFF 		bl	mpi_sub_abs
 2578              	.LVL310:
 2579 0034 0028     		cmp	r0, #0
 2580 0036 F0D0     		beq	.L350
 2581              		.loc 1 870 0
 2582 0038 F8BD     		pop	{r3, r4, r5, r6, r7, pc}
 2583              	.LVL311:
 2584              	.L347:
 2585              		.loc 1 857 0
 2586 003a 2946     		mov	r1, r5
 2587 003c 2246     		mov	r2, r4
 2588 003e 3846     		mov	r0, r7
 2589 0040 FFF7FEFF 		bl	mpi_sub_abs
 2590              	.LVL312:
 2591 0044 0028     		cmp	r0, #0
 2592 0046 E9D1     		bne	.L348
 2593              		.loc 1 858 0
ARM GAS  C:\Users\jo\AppData\Local\Temp\ccxFvVJt.s 			page 47


 2594 0048 7642     		negs	r6, r6
 2595              	.LVL313:
 2596 004a 3E60     		str	r6, [r7]
 2597 004c F8BD     		pop	{r3, r4, r5, r6, r7, pc}
 2598              		.cfi_endproc
 2599              	.LFE27:
 2600              		.size	mpi_add_mpi, .-mpi_add_mpi
 2601 004e 00BF     		.section	.text.mpi_sub_mpi,"ax",%progbits
 2602              		.align	2
 2603              		.p2align 4,,15
 2604              		.global	mpi_sub_mpi
 2605              		.thumb
 2606              		.thumb_func
 2607              		.type	mpi_sub_mpi, %function
 2608              	mpi_sub_mpi:
 2609              	.LFB28:
 2610              		.loc 1 876 0
 2611              		.cfi_startproc
 2612              		@ args = 0, pretend = 0, frame = 0
 2613              		@ frame_needed = 0, uses_anonymous_args = 0
 2614              	.LVL314:
 2615 0000 F8B5     		push	{r3, r4, r5, r6, r7, lr}
 2616              		.cfi_def_cfa_offset 24
 2617              		.cfi_offset 3, -24
 2618              		.cfi_offset 4, -20
 2619              		.cfi_offset 5, -16
 2620              		.cfi_offset 6, -12
 2621              		.cfi_offset 7, -8
 2622              		.cfi_offset 14, -4
 2623              		.loc 1 877 0
 2624 0002 0E68     		ldr	r6, [r1]
 2625              	.LVL315:
 2626              		.loc 1 879 0
 2627 0004 1368     		ldr	r3, [r2]
 2628 0006 03FB06F3 		mul	r3, r3, r6
 2629 000a 002B     		cmp	r3, #0
 2630              		.loc 1 876 0
 2631 000c 0C46     		mov	r4, r1
 2632 000e 1546     		mov	r5, r2
 2633 0010 0746     		mov	r7, r0
 2634              		.loc 1 879 0
 2635 0012 0CDD     		ble	.L354
 2636              		.loc 1 881 0
 2637 0014 0846     		mov	r0, r1
 2638              	.LVL316:
 2639 0016 1146     		mov	r1, r2
 2640              	.LVL317:
 2641 0018 FFF7FEFF 		bl	mpi_cmp_abs
 2642              	.LVL318:
 2643 001c 0028     		cmp	r0, #0
 2644 001e 0CDB     		blt	.L355
 2645              		.loc 1 883 0
 2646 0020 2146     		mov	r1, r4
 2647 0022 2A46     		mov	r2, r5
 2648 0024 3846     		mov	r0, r7
 2649 0026 FFF7FEFF 		bl	mpi_sub_abs
 2650              	.LVL319:
ARM GAS  C:\Users\jo\AppData\Local\Temp\ccxFvVJt.s 			page 48


 2651 002a 20B1     		cbz	r0, .L358
 2652              	.L356:
 2653              		.loc 1 901 0
 2654 002c F8BD     		pop	{r3, r4, r5, r6, r7, pc}
 2655              	.LVL320:
 2656              	.L354:
 2657              		.loc 1 894 0
 2658 002e FFF7FEFF 		bl	mpi_add_abs
 2659              	.LVL321:
 2660 0032 0028     		cmp	r0, #0
 2661 0034 FAD1     		bne	.L356
 2662              	.L358:
 2663              		.loc 1 895 0
 2664 0036 3E60     		str	r6, [r7]
 2665              		.loc 1 901 0
 2666 0038 F8BD     		pop	{r3, r4, r5, r6, r7, pc}
 2667              	.LVL322:
 2668              	.L355:
 2669              		.loc 1 888 0
 2670 003a 2946     		mov	r1, r5
 2671 003c 2246     		mov	r2, r4
 2672 003e 3846     		mov	r0, r7
 2673 0040 FFF7FEFF 		bl	mpi_sub_abs
 2674              	.LVL323:
 2675 0044 0028     		cmp	r0, #0
 2676 0046 F1D1     		bne	.L356
 2677              		.loc 1 889 0
 2678 0048 7642     		negs	r6, r6
 2679              	.LVL324:
 2680 004a 3E60     		str	r6, [r7]
 2681 004c F8BD     		pop	{r3, r4, r5, r6, r7, pc}
 2682              		.cfi_endproc
 2683              	.LFE28:
 2684              		.size	mpi_sub_mpi, .-mpi_sub_mpi
 2685 004e 00BF     		.section	.text.mpi_add_int,"ax",%progbits
 2686              		.align	2
 2687              		.p2align 4,,15
 2688              		.global	mpi_add_int
 2689              		.thumb
 2690              		.thumb_func
 2691              		.type	mpi_add_int, %function
 2692              	mpi_add_int:
 2693              	.LFB29:
 2694              		.loc 1 907 0
 2695              		.cfi_startproc
 2696              		@ args = 0, pretend = 0, frame = 16
 2697              		@ frame_needed = 0, uses_anonymous_args = 0
 2698              	.LVL325:
 2699 0000 30B5     		push	{r4, r5, lr}
 2700              		.cfi_def_cfa_offset 12
 2701              		.cfi_offset 4, -12
 2702              		.cfi_offset 5, -8
 2703              		.cfi_offset 14, -4
 2704              		.loc 1 912 0
 2705 0002 002A     		cmp	r2, #0
 2706              		.loc 1 907 0
 2707 0004 85B0     		sub	sp, sp, #20
ARM GAS  C:\Users\jo\AppData\Local\Temp\ccxFvVJt.s 			page 49


 2708              		.cfi_def_cfa_offset 32
 2709              		.loc 1 911 0
 2710 0006 82EAE275 		eor	r5, r2, r2, asr #31
 2711 000a A5EBE275 		sub	r5, r5, r2, asr #31
 2712              		.loc 1 912 0
 2713 000e B4BF     		ite	lt
 2714 0010 4FF0FF34 		movlt	r4, #-1
 2715 0014 0124     		movge	r4, #1
 2716              		.loc 1 913 0
 2717 0016 0123     		movs	r3, #1
 2718              		.loc 1 916 0
 2719 0018 01AA     		add	r2, sp, #4
 2720              	.LVL326:
 2721              		.loc 1 911 0
 2722 001a 0095     		str	r5, [sp]
 2723              		.loc 1 912 0
 2724 001c 0194     		str	r4, [sp, #4]
 2725              		.loc 1 913 0
 2726 001e 0293     		str	r3, [sp, #8]
 2727              		.loc 1 914 0
 2728 0020 CDF80CD0 		str	sp, [sp, #12]
 2729              		.loc 1 916 0
 2730 0024 FFF7FEFF 		bl	mpi_add_mpi
 2731              	.LVL327:
 2732              		.loc 1 917 0
 2733 0028 05B0     		add	sp, sp, #20
 2734              		.cfi_def_cfa_offset 12
 2735              		@ sp needed
 2736 002a 30BD     		pop	{r4, r5, pc}
 2737              		.cfi_endproc
 2738              	.LFE29:
 2739              		.size	mpi_add_int, .-mpi_add_int
 2740 002c AFF30080 		.section	.text.mpi_sub_int,"ax",%progbits
 2741              		.align	2
 2742              		.p2align 4,,15
 2743              		.global	mpi_sub_int
 2744              		.thumb
 2745              		.thumb_func
 2746              		.type	mpi_sub_int, %function
 2747              	mpi_sub_int:
 2748              	.LFB30:
 2749              		.loc 1 923 0
 2750              		.cfi_startproc
 2751              		@ args = 0, pretend = 0, frame = 16
 2752              		@ frame_needed = 0, uses_anonymous_args = 0
 2753              	.LVL328:
 2754 0000 30B5     		push	{r4, r5, lr}
 2755              		.cfi_def_cfa_offset 12
 2756              		.cfi_offset 4, -12
 2757              		.cfi_offset 5, -8
 2758              		.cfi_offset 14, -4
 2759              		.loc 1 928 0
 2760 0002 002A     		cmp	r2, #0
 2761              		.loc 1 923 0
 2762 0004 85B0     		sub	sp, sp, #20
 2763              		.cfi_def_cfa_offset 32
 2764              		.loc 1 927 0
ARM GAS  C:\Users\jo\AppData\Local\Temp\ccxFvVJt.s 			page 50


 2765 0006 82EAE275 		eor	r5, r2, r2, asr #31
 2766 000a A5EBE275 		sub	r5, r5, r2, asr #31
 2767              		.loc 1 928 0
 2768 000e B4BF     		ite	lt
 2769 0010 4FF0FF34 		movlt	r4, #-1
 2770 0014 0124     		movge	r4, #1
 2771              		.loc 1 929 0
 2772 0016 0123     		movs	r3, #1
 2773              		.loc 1 932 0
 2774 0018 01AA     		add	r2, sp, #4
 2775              	.LVL329:
 2776              		.loc 1 927 0
 2777 001a 0095     		str	r5, [sp]
 2778              		.loc 1 928 0
 2779 001c 0194     		str	r4, [sp, #4]
 2780              		.loc 1 929 0
 2781 001e 0293     		str	r3, [sp, #8]
 2782              		.loc 1 930 0
 2783 0020 CDF80CD0 		str	sp, [sp, #12]
 2784              		.loc 1 932 0
 2785 0024 FFF7FEFF 		bl	mpi_sub_mpi
 2786              	.LVL330:
 2787              		.loc 1 933 0
 2788 0028 05B0     		add	sp, sp, #20
 2789              		.cfi_def_cfa_offset 12
 2790              		@ sp needed
 2791 002a 30BD     		pop	{r4, r5, pc}
 2792              		.cfi_endproc
 2793              	.LFE30:
 2794              		.size	mpi_sub_int, .-mpi_sub_int
 2795 002c AFF30080 		.section	.text.mpi_mul_mpi,"ax",%progbits
 2796              		.align	2
 2797              		.p2align 4,,15
 2798              		.global	mpi_mul_mpi
 2799              		.thumb
 2800              		.thumb_func
 2801              		.type	mpi_mul_mpi, %function
 2802              	mpi_mul_mpi:
 2803              	.LFB32:
 2804              		.loc 1 1011 0
 2805              		.cfi_startproc
 2806              		@ args = 0, pretend = 0, frame = 32
 2807              		@ frame_needed = 0, uses_anonymous_args = 0
 2808              	.LVL331:
 2809 0000 2DE9F04F 		push	{r4, r5, r6, r7, r8, r9, r10, fp, lr}
 2810              		.cfi_def_cfa_offset 36
 2811              		.cfi_offset 4, -36
 2812              		.cfi_offset 5, -32
 2813              		.cfi_offset 6, -28
 2814              		.cfi_offset 7, -24
 2815              		.cfi_offset 8, -20
 2816              		.cfi_offset 9, -16
 2817              		.cfi_offset 10, -12
 2818              		.cfi_offset 11, -8
 2819              		.cfi_offset 14, -4
 2820 0004 89B0     		sub	sp, sp, #36
 2821              		.cfi_def_cfa_offset 72
ARM GAS  C:\Users\jo\AppData\Local\Temp\ccxFvVJt.s 			page 51


 2822              	.LVL332:
 2823              	.LBB110:
 2824              	.LBB111:
 2825              		.loc 1 61 0
 2826 0006 0023     		movs	r3, #0
 2827              	.LBE111:
 2828              	.LBE110:
 2829              		.loc 1 1011 0
 2830 0008 0646     		mov	r6, r0
 2831              	.LBB114:
 2832              	.LBB112:
 2833              		.loc 1 61 0
 2834 000a 0393     		str	r3, [sp, #12]
 2835              		.loc 1 60 0
 2836 000c 0120     		movs	r0, #1
 2837              	.LVL333:
 2838              		.loc 1 62 0
 2839 000e 0493     		str	r3, [sp, #16]
 2840              	.LVL334:
 2841              	.LBE112:
 2842              	.LBE114:
 2843              	.LBB115:
 2844              	.LBB116:
 2845              		.loc 1 61 0
 2846 0010 0693     		str	r3, [sp, #24]
 2847              		.loc 1 62 0
 2848 0012 0793     		str	r3, [sp, #28]
 2849              	.LBE116:
 2850              	.LBE115:
 2851              		.loc 1 1018 0
 2852 0014 8E42     		cmp	r6, r1
 2853 0016 02AB     		add	r3, sp, #8
 2854              	.LVL335:
 2855              		.loc 1 1011 0
 2856 0018 0F46     		mov	r7, r1
 2857 001a 9246     		mov	r10, r2
 2858              	.LBB118:
 2859              	.LBB113:
 2860              		.loc 1 60 0
 2861 001c 0290     		str	r0, [sp, #8]
 2862              	.LBE113:
 2863              	.LBE118:
 2864              	.LBB119:
 2865              	.LBB117:
 2866 001e 0590     		str	r0, [sp, #20]
 2867              	.LBE117:
 2868              	.LBE119:
 2869              		.loc 1 1018 0
 2870 0020 0193     		str	r3, [sp, #4]
 2871 0022 5AD0     		beq	.L394
 2872              	.LVL336:
 2873              	.L368:
 2874              		.loc 1 1019 0
 2875 0024 5645     		cmp	r6, r10
 2876 0026 0DF11409 		add	r9, sp, #20
 2877              	.LVL337:
 2878 002a 5DD0     		beq	.L395
ARM GAS  C:\Users\jo\AppData\Local\Temp\ccxFvVJt.s 			page 52


 2879              	.LVL338:
 2880              	.L370:
 2881              		.loc 1 1021 0
 2882 002c 7D68     		ldr	r5, [r7, #4]
 2883              	.LVL339:
 2884 002e 75B1     		cbz	r5, .L371
 2885              		.loc 1 1022 0
 2886 0030 05F18042 		add	r2, r5, #1073741824
 2887 0034 013A     		subs	r2, r2, #1
 2888 0036 BB68     		ldr	r3, [r7, #8]
 2889 0038 53F82210 		ldr	r1, [r3, r2, lsl #2]
 2890 003c 03EB8203 		add	r3, r3, r2, lsl #2
 2891 0040 19B1     		cbz	r1, .L372
 2892 0042 04E0     		b	.L371
 2893              	.L373:
 2894 0044 53F8042D 		ldr	r2, [r3, #-4]!
 2895 0048 0AB9     		cbnz	r2, .L371
 2896              	.L372:
 2897              	.LVL340:
 2898              		.loc 1 1021 0 discriminator 2
 2899 004a 013D     		subs	r5, r5, #1
 2900              	.LVL341:
 2901 004c FAD1     		bne	.L373
 2902              	.L371:
 2903              		.loc 1 1025 0
 2904 004e DAF80440 		ldr	r4, [r10, #4]
 2905              	.LVL342:
 2906 0052 7CB1     		cbz	r4, .L374
 2907              		.loc 1 1026 0
 2908 0054 04F18042 		add	r2, r4, #1073741824
 2909 0058 013A     		subs	r2, r2, #1
 2910 005a DAF80830 		ldr	r3, [r10, #8]
 2911 005e 53F82210 		ldr	r1, [r3, r2, lsl #2]
 2912 0062 03EB8203 		add	r3, r3, r2, lsl #2
 2913 0066 19B1     		cbz	r1, .L375
 2914 0068 04E0     		b	.L374
 2915              	.L376:
 2916 006a 53F8042D 		ldr	r2, [r3, #-4]!
 2917 006e 0AB9     		cbnz	r2, .L374
 2918              	.L375:
 2919              	.LVL343:
 2920              		.loc 1 1025 0 discriminator 2
 2921 0070 013C     		subs	r4, r4, #1
 2922              	.LVL344:
 2923 0072 FAD1     		bne	.L376
 2924              	.L374:
 2925              		.loc 1 1029 0
 2926 0074 3046     		mov	r0, r6
 2927 0076 6119     		adds	r1, r4, r5
 2928 0078 FFF7FEFF 		bl	mpi_grow
 2929              	.LVL345:
 2930 007c 8346     		mov	fp, r0
 2931 007e 48B1     		cbz	r0, .L396
 2932              	.LVL346:
 2933              	.L369:
 2934              		.loc 1 1039 0
 2935 0080 4846     		mov	r0, r9
ARM GAS  C:\Users\jo\AppData\Local\Temp\ccxFvVJt.s 			page 53


 2936 0082 FFF7FEFF 		bl	mpi_free
 2937              	.LVL347:
 2938 0086 0198     		ldr	r0, [sp, #4]
 2939 0088 FFF7FEFF 		bl	mpi_free
 2940              	.LVL348:
 2941              		.loc 1 1042 0
 2942 008c 5846     		mov	r0, fp
 2943 008e 09B0     		add	sp, sp, #36
 2944              		.cfi_remember_state
 2945              		.cfi_def_cfa_offset 36
 2946              		@ sp needed
 2947 0090 BDE8F08F 		pop	{r4, r5, r6, r7, r8, r9, r10, fp, pc}
 2948              	.LVL349:
 2949              	.L396:
 2950              		.cfi_restore_state
 2951              		.loc 1 1030 0
 2952 0094 0146     		mov	r1, r0
 2953 0096 3046     		mov	r0, r6
 2954              	.LVL350:
 2955 0098 FFF7FEFF 		bl	mpi_lset
 2956              	.LVL351:
 2957 009c 8346     		mov	fp, r0
 2958 009e 0028     		cmp	r0, #0
 2959 00a0 EED1     		bne	.L369
 2960              		.loc 1 1032 0 discriminator 1
 2961 00a2 9CB1     		cbz	r4, .L379
 2962 00a4 04F1804C 		add	ip, r4, #1073741824
 2963 00a8 0CF1FF3C 		add	ip, ip, #-1
 2964 00ac 4FEA8C08 		lsl	r8, ip, #2
 2965              	.LVL352:
 2966              	.L378:
 2967              		.loc 1 1033 0 discriminator 3
 2968 00b0 B268     		ldr	r2, [r6, #8]
 2969 00b2 DAF80830 		ldr	r3, [r10, #8]
 2970 00b6 B968     		ldr	r1, [r7, #8]
 2971 00b8 53F80830 		ldr	r3, [r3, r8]
 2972 00bc 4244     		add	r2, r2, r8
 2973 00be 2846     		mov	r0, r5
 2974 00c0 FFF7FEFF 		bl	mpi_mul_hlp
 2975              	.LVL353:
 2976              		.loc 1 1032 0 discriminator 3
 2977 00c4 013C     		subs	r4, r4, #1
 2978              	.LVL354:
 2979 00c6 A8F10408 		sub	r8, r8, #4
 2980 00ca F1D1     		bne	.L378
 2981              	.L379:
 2982              		.loc 1 1035 0
 2983 00cc 3A68     		ldr	r2, [r7]
 2984 00ce DAF80030 		ldr	r3, [r10]
 2985 00d2 03FB02F3 		mul	r3, r3, r2
 2986 00d6 3360     		str	r3, [r6]
 2987 00d8 D2E7     		b	.L369
 2988              	.LVL355:
 2989              	.L394:
 2990              		.loc 1 1018 0 discriminator 1
 2991 00da 1846     		mov	r0, r3
 2992 00dc FFF7FEFF 		bl	mpi_copy
ARM GAS  C:\Users\jo\AppData\Local\Temp\ccxFvVJt.s 			page 54


 2993              	.LVL356:
 2994 00e0 8346     		mov	fp, r0
 2995 00e2 50B9     		cbnz	r0, .L397
 2996              		.loc 1 1018 0 is_stmt 0
 2997 00e4 019F     		ldr	r7, [sp, #4]
 2998              	.LVL357:
 2999 00e6 9DE7     		b	.L368
 3000              	.LVL358:
 3001              	.L395:
 3002              		.loc 1 1019 0 is_stmt 1 discriminator 1
 3003 00e8 4846     		mov	r0, r9
 3004 00ea 3146     		mov	r1, r6
 3005 00ec FFF7FEFF 		bl	mpi_copy
 3006              	.LVL359:
 3007 00f0 8346     		mov	fp, r0
 3008 00f2 0028     		cmp	r0, #0
 3009 00f4 C4D1     		bne	.L369
 3010              		.loc 1 1019 0 is_stmt 0
 3011 00f6 CA46     		mov	r10, r9
 3012              	.LVL360:
 3013 00f8 98E7     		b	.L370
 3014              	.LVL361:
 3015              	.L397:
 3016 00fa 0DF11409 		add	r9, sp, #20
 3017              	.LVL362:
 3018 00fe BFE7     		b	.L369
 3019              		.cfi_endproc
 3020              	.LFE32:
 3021              		.size	mpi_mul_mpi, .-mpi_mul_mpi
 3022              		.section	.text.mpi_read_string,"ax",%progbits
 3023              		.align	2
 3024              		.p2align 4,,15
 3025              		.global	mpi_read_string
 3026              		.thumb
 3027              		.thumb_func
 3028              		.type	mpi_read_string, %function
 3029              	mpi_read_string:
 3030              	.LFB12:
 3031              		.loc 1 273 0 is_stmt 1
 3032              		.cfi_startproc
 3033              		@ args = 0, pretend = 0, frame = 40
 3034              		@ frame_needed = 0, uses_anonymous_args = 0
 3035              	.LVL363:
 3036              		.loc 1 279 0
 3037 0000 8B1E     		subs	r3, r1, #2
 3038 0002 0E2B     		cmp	r3, #14
 3039 0004 00F29380 		bhi	.L411
 3040              		.loc 1 273 0
 3041 0008 2DE9F04F 		push	{r4, r5, r6, r7, r8, r9, r10, fp, lr}
 3042              		.cfi_def_cfa_offset 36
 3043              		.cfi_offset 4, -36
 3044              		.cfi_offset 5, -32
 3045              		.cfi_offset 6, -28
 3046              		.cfi_offset 7, -24
 3047              		.cfi_offset 8, -20
 3048              		.cfi_offset 9, -16
 3049              		.cfi_offset 10, -12
ARM GAS  C:\Users\jo\AppData\Local\Temp\ccxFvVJt.s 			page 55


 3050              		.cfi_offset 11, -8
 3051              		.cfi_offset 14, -4
 3052 000c 8BB0     		sub	sp, sp, #44
 3053              		.cfi_def_cfa_offset 80
 3054              	.LBB120:
 3055              	.LBB121:
 3056              		.loc 1 61 0
 3057 000e 0024     		movs	r4, #0
 3058 0010 0546     		mov	r5, r0
 3059              		.loc 1 60 0
 3060 0012 0127     		movs	r7, #1
 3061              	.LBE121:
 3062              	.LBE120:
 3063              		.loc 1 284 0
 3064 0014 1046     		mov	r0, r2
 3065              	.LVL364:
 3066 0016 0E46     		mov	r6, r1
 3067              	.LVL365:
 3068 0018 9246     		mov	r10, r2
 3069              	.LBB123:
 3070              	.LBB122:
 3071              		.loc 1 60 0
 3072 001a 0497     		str	r7, [sp, #16]
 3073              		.loc 1 61 0
 3074 001c 0594     		str	r4, [sp, #20]
 3075              		.loc 1 62 0
 3076 001e 0694     		str	r4, [sp, #24]
 3077              	.LBE122:
 3078              	.LBE123:
 3079              		.loc 1 284 0
 3080 0020 FFF7FEFF 		bl	strlen
 3081              	.LVL366:
 3082              		.loc 1 286 0
 3083 0024 102E     		cmp	r6, #16
 3084              		.loc 1 284 0
 3085 0026 8146     		mov	r9, r0
 3086              	.LVL367:
 3087              		.loc 1 286 0
 3088 0028 3DD0     		beq	.L428
 3089              		.loc 1 307 0
 3090 002a 2146     		mov	r1, r4
 3091 002c 2846     		mov	r0, r5
 3092              	.LVL368:
 3093 002e FFF7FEFF 		bl	mpi_lset
 3094              	.LVL369:
 3095 0032 0346     		mov	r3, r0
 3096 0034 0028     		cmp	r0, #0
 3097 0036 6DD1     		bne	.L427
 3098              	.LVL370:
 3099              		.loc 1 309 0 discriminator 1
 3100 0038 B9F1000F 		cmp	r9, #0
 3101 003c 74D0     		beq	.L426
 3102              	.LBB124:
 3103              	.LBB125:
 3104              		.loc 1 1052 0
 3105 003e B846     		mov	r8, r7
 3106              	.LBE125:
ARM GAS  C:\Users\jo\AppData\Local\Temp\ccxFvVJt.s 			page 56


 3107              	.LBE124:
 3108              		.loc 1 309 0
 3109 0040 0446     		mov	r4, r0
 3110 0042 04AF     		add	r7, sp, #16
 3111              	.LVL371:
 3112              	.LBB130:
 3113              	.LBB126:
 3114              		.loc 1 1054 0
 3115 0044 0DF10C0B 		add	fp, sp, #12
 3116 0048 07E0     		b	.L410
 3117              	.LVL372:
 3118              	.L408:
 3119              	.LBE126:
 3120              	.LBE130:
 3121              		.loc 1 326 0
 3122 004a FFF7FEFF 		bl	mpi_sub_int
 3123              	.LVL373:
 3124 004e 0346     		mov	r3, r0
 3125 0050 0028     		cmp	r0, #0
 3126 0052 60D1     		bne	.L401
 3127              	.LVL374:
 3128              	.L407:
 3129              		.loc 1 309 0 discriminator 2
 3130 0054 0134     		adds	r4, r4, #1
 3131              	.LVL375:
 3132 0056 4C45     		cmp	r4, r9
 3133 0058 67D0     		beq	.L405
 3134              	.LVL376:
 3135              	.L410:
 3136              		.loc 1 317 0
 3137 005a 3146     		mov	r1, r6
 3138 005c 02A8     		add	r0, sp, #8
 3139              		.loc 1 311 0
 3140 005e 002C     		cmp	r4, #0
 3141 0060 68D0     		beq	.L429
 3142              	.LVL377:
 3143              	.L406:
 3144              		.loc 1 317 0
 3145 0062 1AF80420 		ldrb	r2, [r10, r4]	@ zero_extendqisi2
 3146 0066 FFF7FEFF 		bl	mpi_get_digit
 3147              	.LVL378:
 3148              	.LBB131:
 3149              	.LBB127:
 3150              		.loc 1 1057 0
 3151 006a 2946     		mov	r1, r5
 3152              	.LBE127:
 3153              	.LBE131:
 3154              		.loc 1 317 0
 3155 006c 0346     		mov	r3, r0
 3156              	.LBB132:
 3157              	.LBB128:
 3158              		.loc 1 1057 0
 3159 006e 07AA     		add	r2, sp, #28
 3160              	.LBE128:
 3161              	.LBE132:
 3162              		.loc 1 317 0
 3163 0070 0028     		cmp	r0, #0
ARM GAS  C:\Users\jo\AppData\Local\Temp\ccxFvVJt.s 			page 57


 3164 0072 50D1     		bne	.L401
 3165              	.LVL379:
 3166              	.LBB133:
 3167              	.LBB129:
 3168              		.loc 1 1057 0
 3169 0074 3846     		mov	r0, r7
 3170              	.LVL380:
 3171              		.loc 1 1052 0
 3172 0076 CDF81C80 		str	r8, [sp, #28]
 3173              		.loc 1 1053 0
 3174 007a CDF82080 		str	r8, [sp, #32]
 3175              		.loc 1 1054 0
 3176 007e CDF824B0 		str	fp, [sp, #36]
 3177              		.loc 1 1055 0
 3178 0082 0396     		str	r6, [sp, #12]
 3179              		.loc 1 1057 0
 3180 0084 FFF7FEFF 		bl	mpi_mul_mpi
 3181              	.LVL381:
 3182              	.LBE129:
 3183              	.LBE133:
 3184              		.loc 1 326 0
 3185 0088 3946     		mov	r1, r7
 3186              		.loc 1 318 0
 3187 008a 0346     		mov	r3, r0
 3188 008c 0028     		cmp	r0, #0
 3189 008e 42D1     		bne	.L401
 3190              	.LVL382:
 3191              		.loc 1 320 0
 3192 0090 2B68     		ldr	r3, [r5]
 3193              		.loc 1 322 0
 3194 0092 029A     		ldr	r2, [sp, #8]
 3195              		.loc 1 320 0
 3196 0094 012B     		cmp	r3, #1
 3197              		.loc 1 326 0
 3198 0096 2846     		mov	r0, r5
 3199              		.loc 1 320 0
 3200 0098 D7D1     		bne	.L408
 3201              	.LVL383:
 3202              		.loc 1 322 0
 3203 009a FFF7FEFF 		bl	mpi_add_int
 3204              	.LVL384:
 3205 009e 0346     		mov	r3, r0
 3206 00a0 0028     		cmp	r0, #0
 3207 00a2 D7D0     		beq	.L407
 3208 00a4 37E0     		b	.L401
 3209              	.LVL385:
 3210              	.L428:
 3211              		.loc 1 288 0
 3212 00a6 8100     		lsls	r1, r0, #2
 3213 00a8 1F31     		adds	r1, r1, #31
 3214              		.loc 1 290 0
 3215 00aa 4909     		lsrs	r1, r1, #5
 3216              	.LVL386:
 3217 00ac 2846     		mov	r0, r5
 3218              	.LVL387:
 3219 00ae FFF7FEFF 		bl	mpi_grow
 3220              	.LVL388:
ARM GAS  C:\Users\jo\AppData\Local\Temp\ccxFvVJt.s 			page 58


 3221 00b2 0346     		mov	r3, r0
 3222 00b4 70BB     		cbnz	r0, .L427
 3223              		.loc 1 291 0
 3224 00b6 0146     		mov	r1, r0
 3225 00b8 2846     		mov	r0, r5
 3226              	.LVL389:
 3227 00ba FFF7FEFF 		bl	mpi_lset
 3228              	.LVL390:
 3229 00be 0346     		mov	r3, r0
 3230 00c0 40BB     		cbnz	r0, .L427
 3231              	.LVL391:
 3232              		.loc 1 293 0 discriminator 1
 3233 00c2 B9F1000F 		cmp	r9, #0
 3234 00c6 2FD0     		beq	.L426
 3235 00c8 0AEB0906 		add	r6, r10, r9
 3236              	.LVL392:
 3237              		.loc 1 293 0 is_stmt 0
 3238 00cc 0446     		mov	r4, r0
 3239 00ce 0CE0     		b	.L404
 3240              	.LVL393:
 3241              	.L431:
 3242              		.loc 1 302 0 is_stmt 1 discriminator 2
 3243 00d0 A868     		ldr	r0, [r5, #8]
 3244              	.LVL394:
 3245 00d2 029A     		ldr	r2, [sp, #8]
 3246 00d4 50F82E10 		ldr	r1, [r0, lr, lsl #2]
 3247              		.loc 1 293 0 discriminator 2
 3248 00d8 019B     		ldr	r3, [sp, #4]
 3249              		.loc 1 302 0 discriminator 2
 3250 00da BA40     		lsls	r2, r2, r7
 3251 00dc 0A43     		orrs	r2, r2, r1
 3252              		.loc 1 293 0 discriminator 2
 3253 00de 0134     		adds	r4, r4, #1
 3254              	.LVL395:
 3255              		.loc 1 302 0 discriminator 2
 3256 00e0 40F82E20 		str	r2, [r0, lr, lsl #2]
 3257              	.LVL396:
 3258              		.loc 1 293 0 discriminator 2
 3259 00e4 B9F1000F 		cmp	r9, #0
 3260 00e8 1ED0     		beq	.L426
 3261              	.LVL397:
 3262              	.L404:
 3263              		.loc 1 295 0
 3264 00ea B9F1010F 		cmp	r9, #1
 3265              		.loc 1 301 0
 3266 00ee 02A8     		add	r0, sp, #8
 3267 00f0 4FF01001 		mov	r1, #16
 3268              		.loc 1 295 0
 3269 00f4 26D0     		beq	.L430
 3270              	.L403:
 3271              		.loc 1 301 0
 3272 00f6 16F8012D 		ldrb	r2, [r6, #-1]!	@ zero_extendqisi2
 3273 00fa 0193     		str	r3, [sp, #4]
 3274 00fc FFF7FEFF 		bl	mpi_get_digit
 3275              	.LVL398:
 3276              		.loc 1 302 0
 3277 0100 04F00702 		and	r2, r4, #7
ARM GAS  C:\Users\jo\AppData\Local\Temp\ccxFvVJt.s 			page 59


 3278 0104 4FEAD40E 		lsr	lr, r4, #3
 3279 0108 9700     		lsls	r7, r2, #2
 3280              		.loc 1 301 0
 3281 010a 09F1FF39 		add	r9, r9, #-1
 3282              	.LVL399:
 3283 010e 0028     		cmp	r0, #0
 3284 0110 DED0     		beq	.L431
 3285 0112 0346     		mov	r3, r0
 3286              	.LVL400:
 3287              	.L427:
 3288 0114 04AF     		add	r7, sp, #16
 3289              	.LVL401:
 3290              	.L401:
 3291              		.loc 1 333 0
 3292 0116 3846     		mov	r0, r7
 3293 0118 0193     		str	r3, [sp, #4]
 3294              	.LVL402:
 3295 011a FFF7FEFF 		bl	mpi_free
 3296              	.LVL403:
 3297              		.loc 1 335 0
 3298 011e 019B     		ldr	r3, [sp, #4]
 3299 0120 1846     		mov	r0, r3
 3300              		.loc 1 336 0
 3301 0122 0BB0     		add	sp, sp, #44
 3302              		.cfi_remember_state
 3303              		.cfi_def_cfa_offset 36
 3304              		@ sp needed
 3305 0124 BDE8F08F 		pop	{r4, r5, r6, r7, r8, r9, r10, fp, pc}
 3306              	.LVL404:
 3307              	.L426:
 3308              		.cfi_restore_state
 3309 0128 04AF     		add	r7, sp, #16
 3310              	.LVL405:
 3311              	.L405:
 3312 012a 0023     		movs	r3, #0
 3313 012c F3E7     		b	.L401
 3314              	.LVL406:
 3315              	.L411:
 3316              		.cfi_def_cfa_offset 0
 3317              		.cfi_restore 4
 3318              		.cfi_restore 5
 3319              		.cfi_restore 6
 3320              		.cfi_restore 7
 3321              		.cfi_restore 8
 3322              		.cfi_restore 9
 3323              		.cfi_restore 10
 3324              		.cfi_restore 11
 3325              		.cfi_restore 14
 3326              		.loc 1 280 0
 3327 012e 6FF00300 		mvn	r0, #3
 3328              	.LVL407:
 3329 0132 7047     		bx	lr
 3330              	.LVL408:
 3331              	.L429:
 3332              		.cfi_def_cfa_offset 80
 3333              		.cfi_offset 4, -36
 3334              		.cfi_offset 5, -32
ARM GAS  C:\Users\jo\AppData\Local\Temp\ccxFvVJt.s 			page 60


 3335              		.cfi_offset 6, -28
 3336              		.cfi_offset 7, -24
 3337              		.cfi_offset 8, -20
 3338              		.cfi_offset 9, -16
 3339              		.cfi_offset 10, -12
 3340              		.cfi_offset 11, -8
 3341              		.cfi_offset 14, -4
 3342              		.loc 1 311 0 discriminator 1
 3343 0134 9AF80030 		ldrb	r3, [r10]	@ zero_extendqisi2
 3344 0138 2D2B     		cmp	r3, #45
 3345 013a 92D1     		bne	.L406
 3346              		.loc 1 313 0
 3347 013c 4FF0FF33 		mov	r3, #-1
 3348 0140 2B60     		str	r3, [r5]
 3349              		.loc 1 314 0
 3350 0142 87E7     		b	.L407
 3351              	.LVL409:
 3352              	.L430:
 3353              		.loc 1 295 0 discriminator 1
 3354 0144 9AF80020 		ldrb	r2, [r10]	@ zero_extendqisi2
 3355 0148 2D2A     		cmp	r2, #45
 3356 014a D4D1     		bne	.L403
 3357              		.loc 1 297 0
 3358 014c 4FF0FF32 		mov	r2, #-1
 3359 0150 2A60     		str	r2, [r5]
 3360 0152 0DEB0107 		add	r7, sp, r1
 3361              		.loc 1 298 0
 3362 0156 DEE7     		b	.L401
 3363              		.cfi_endproc
 3364              	.LFE12:
 3365              		.size	mpi_read_string, .-mpi_read_string
 3366 0158 AFF30080 		.section	.text.mpi_read_file,"ax",%progbits
 3366      AFF30080 
 3367              		.align	2
 3368              		.p2align 4,,15
 3369              		.global	mpi_read_file
 3370              		.thumb
 3371              		.thumb_func
 3372              		.type	mpi_read_file, %function
 3373              	mpi_read_file:
 3374              	.LFB15:
 3375              		.loc 1 440 0
 3376              		.cfi_startproc
 3377              		@ args = 0, pretend = 0, frame = 1256
 3378              		@ frame_needed = 0, uses_anonymous_args = 0
 3379              	.LVL410:
 3380 0000 2DE9F041 		push	{r4, r5, r6, r7, r8, lr}
 3381              		.cfi_def_cfa_offset 24
 3382              		.cfi_offset 4, -24
 3383              		.cfi_offset 5, -20
 3384              		.cfi_offset 6, -16
 3385              		.cfi_offset 7, -12
 3386              		.cfi_offset 8, -8
 3387              		.cfi_offset 14, -4
 3388 0004 ADF59D6D 		sub	sp, sp, #1256
 3389              		.cfi_def_cfa_offset 1280
 3390              		.loc 1 450 0
ARM GAS  C:\Users\jo\AppData\Local\Temp\ccxFvVJt.s 			page 61


 3391 0008 01AE     		add	r6, sp, #4
 3392              		.loc 1 440 0
 3393 000a 1446     		mov	r4, r2
 3394 000c 8046     		mov	r8, r0
 3395              		.loc 1 450 0
 3396 000e 40F2E242 		movw	r2, #1250
 3397              	.LVL411:
 3398              		.loc 1 440 0
 3399 0012 0F46     		mov	r7, r1
 3400              		.loc 1 450 0
 3401 0014 3046     		mov	r0, r6
 3402              	.LVL412:
 3403 0016 0021     		movs	r1, #0
 3404              	.LVL413:
 3405 0018 FFF7FEFF 		bl	memset
 3406              	.LVL414:
 3407              		.loc 1 451 0
 3408 001c 3046     		mov	r0, r6
 3409 001e 2246     		mov	r2, r4
 3410 0020 40F2E141 		movw	r1, #1249
 3411 0024 FFF7FEFF 		bl	fgets
 3412              	.LVL415:
 3413 0028 80B3     		cbz	r0, .L439
 3414              		.loc 1 454 0
 3415 002a 3046     		mov	r0, r6
 3416 002c FFF7FEFF 		bl	strlen
 3417              	.LVL416:
 3418              		.loc 1 455 0
 3419 0030 B0F59C6F 		cmp	r0, #1248
 3420 0034 27D0     		beq	.L440
 3421              		.loc 1 458 0
 3422 0036 431E     		subs	r3, r0, #1
 3423 0038 F25C     		ldrb	r2, [r6, r3]	@ zero_extendqisi2
 3424 003a 0A2A     		cmp	r2, #10
 3425 003c 17D0     		beq	.L443
 3426              		.loc 1 459 0
 3427 003e 0D2A     		cmp	r2, #13
 3428 0040 1DD0     		beq	.L444
 3429              	.L435:
 3430              		.loc 1 461 0
 3431 0042 3418     		adds	r4, r6, r0
 3432              	.LVL417:
 3433              		.loc 1 462 0
 3434 0044 05E0     		b	.L436
 3435              	.LVL418:
 3436              	.L437:
 3437              		.loc 1 463 0
 3438 0046 14F8012C 		ldrb	r2, [r4, #-1]	@ zero_extendqisi2
 3439 004a FFF7FEFF 		bl	mpi_get_digit
 3440              	.LVL419:
 3441 004e 28B9     		cbnz	r0, .L438
 3442 0050 2C46     		mov	r4, r5
 3443              	.LVL420:
 3444              	.L436:
 3445              		.loc 1 462 0
 3446 0052 651E     		subs	r5, r4, #1
 3447              	.LVL421:
ARM GAS  C:\Users\jo\AppData\Local\Temp\ccxFvVJt.s 			page 62


 3448 0054 B542     		cmp	r5, r6
 3449              		.loc 1 463 0
 3450 0056 6846     		mov	r0, sp
 3451 0058 3946     		mov	r1, r7
 3452              		.loc 1 462 0
 3453 005a F4D2     		bcs	.L437
 3454              	.L438:
 3455              		.loc 1 466 0
 3456 005c 4046     		mov	r0, r8
 3457 005e 3946     		mov	r1, r7
 3458 0060 2246     		mov	r2, r4
 3459 0062 FFF7FEFF 		bl	mpi_read_string
 3460              	.LVL422:
 3461              	.L433:
 3462              		.loc 1 467 0
 3463 0066 0DF59D6D 		add	sp, sp, #1256
 3464              		.cfi_remember_state
 3465              		.cfi_def_cfa_offset 24
 3466              		@ sp needed
 3467 006a BDE8F081 		pop	{r4, r5, r6, r7, r8, pc}
 3468              	.LVL423:
 3469              	.L443:
 3470              		.cfi_restore_state
 3471              		.loc 1 458 0 discriminator 1
 3472 006e 0022     		movs	r2, #0
 3473 0070 811E     		subs	r1, r0, #2
 3474 0072 F254     		strb	r2, [r6, r3]
 3475 0074 725C     		ldrb	r2, [r6, r1]	@ zero_extendqisi2
 3476              		.loc 1 459 0 discriminator 1
 3477 0076 0D2A     		cmp	r2, #13
 3478              		.loc 1 458 0 discriminator 1
 3479 0078 1846     		mov	r0, r3
 3480 007a 0B46     		mov	r3, r1
 3481              	.LVL424:
 3482              		.loc 1 459 0 discriminator 1
 3483 007c E1D1     		bne	.L435
 3484              	.L444:
 3485              	.LVL425:
 3486 007e 0022     		movs	r2, #0
 3487 0080 F254     		strb	r2, [r6, r3]
 3488 0082 1846     		mov	r0, r3
 3489 0084 DDE7     		b	.L435
 3490              	.LVL426:
 3491              	.L440:
 3492              		.loc 1 456 0
 3493 0086 6FF00700 		mvn	r0, #7
 3494              	.LVL427:
 3495 008a ECE7     		b	.L433
 3496              	.L439:
 3497              		.loc 1 452 0
 3498 008c 6FF00100 		mvn	r0, #1
 3499 0090 E9E7     		b	.L433
 3500              		.cfi_endproc
 3501              	.LFE15:
 3502              		.size	mpi_read_file, .-mpi_read_file
 3503 0092 00BFAFF3 		.section	.text.mpi_mul_int,"ax",%progbits
 3503      0080AFF3 
ARM GAS  C:\Users\jo\AppData\Local\Temp\ccxFvVJt.s 			page 63


 3503      0080AFF3 
 3503      0080
 3504              		.align	2
 3505              		.p2align 4,,15
 3506              		.global	mpi_mul_int
 3507              		.thumb
 3508              		.thumb_func
 3509              		.type	mpi_mul_int, %function
 3510              	mpi_mul_int:
 3511              	.LFB33:
 3512              		.loc 1 1048 0
 3513              		.cfi_startproc
 3514              		@ args = 0, pretend = 0, frame = 16
 3515              		@ frame_needed = 0, uses_anonymous_args = 0
 3516              	.LVL428:
 3517 0000 00B5     		push	{lr}
 3518              		.cfi_def_cfa_offset 4
 3519              		.cfi_offset 14, -4
 3520 0002 85B0     		sub	sp, sp, #20
 3521              		.cfi_def_cfa_offset 24
 3522              		.loc 1 1052 0
 3523 0004 0123     		movs	r3, #1
 3524              		.loc 1 1055 0
 3525 0006 0092     		str	r2, [sp]
 3526              		.loc 1 1057 0
 3527 0008 01AA     		add	r2, sp, #4
 3528              	.LVL429:
 3529              		.loc 1 1052 0
 3530 000a 0193     		str	r3, [sp, #4]
 3531              		.loc 1 1053 0
 3532 000c 0293     		str	r3, [sp, #8]
 3533              		.loc 1 1054 0
 3534 000e CDF80CD0 		str	sp, [sp, #12]
 3535              		.loc 1 1057 0
 3536 0012 FFF7FEFF 		bl	mpi_mul_mpi
 3537              	.LVL430:
 3538              		.loc 1 1058 0
 3539 0016 05B0     		add	sp, sp, #20
 3540              		.cfi_def_cfa_offset 4
 3541              		@ sp needed
 3542 0018 5DF804FB 		ldr	pc, [sp], #4
 3543              		.cfi_endproc
 3544              	.LFE33:
 3545              		.size	mpi_mul_int, .-mpi_mul_int
 3546              		.global	__aeabi_uldivmod
 3547              		.section	.text.mpi_div_mpi,"ax",%progbits
 3548              		.align	2
 3549              		.p2align 4,,15
 3550              		.global	mpi_div_mpi
 3551              		.thumb
 3552              		.thumb_func
 3553              		.type	mpi_div_mpi, %function
 3554              	mpi_div_mpi:
 3555              	.LFB34:
 3556              		.loc 1 1064 0
 3557              		.cfi_startproc
 3558              		@ args = 0, pretend = 0, frame = 144
ARM GAS  C:\Users\jo\AppData\Local\Temp\ccxFvVJt.s 			page 64


 3559              		@ frame_needed = 0, uses_anonymous_args = 0
 3560              	.LVL431:
 3561 0000 2DE9F04F 		push	{r4, r5, r6, r7, r8, r9, r10, fp, lr}
 3562              		.cfi_def_cfa_offset 36
 3563              		.cfi_offset 4, -36
 3564              		.cfi_offset 5, -32
 3565              		.cfi_offset 6, -28
 3566              		.cfi_offset 7, -24
 3567              		.cfi_offset 8, -20
 3568              		.cfi_offset 9, -16
 3569              		.cfi_offset 10, -12
 3570              		.cfi_offset 11, -8
 3571              		.cfi_offset 14, -4
 3572 0004 A5B0     		sub	sp, sp, #148
 3573              		.cfi_def_cfa_offset 184
 3574              		.loc 1 1064 0
 3575 0006 0746     		mov	r7, r0
 3576 0008 0091     		str	r1, [sp]
 3577              		.loc 1 1069 0
 3578 000a 1846     		mov	r0, r3
 3579              	.LVL432:
 3580 000c 0021     		movs	r1, #0
 3581              	.LVL433:
 3582              		.loc 1 1064 0
 3583 000e 1D46     		mov	r5, r3
 3584 0010 1646     		mov	r6, r2
 3585              		.loc 1 1069 0
 3586 0012 FFF7FEFF 		bl	mpi_cmp_int
 3587              	.LVL434:
 3588 0016 0028     		cmp	r0, #0
 3589 0018 00F08B80 		beq	.L472
 3590              	.LVL435:
 3591              	.LBB134:
 3592              	.LBB135:
 3593              		.loc 1 61 0
 3594 001c 0024     		movs	r4, #0
 3595              		.loc 1 60 0
 3596 001e 4FF0010A 		mov	r10, #1
 3597              	.LBE135:
 3598              	.LBE134:
 3599              		.loc 1 1075 0
 3600 0022 3046     		mov	r0, r6
 3601 0024 2946     		mov	r1, r5
 3602              	.LBB138:
 3603              	.LBB136:
 3604              		.loc 1 60 0
 3605 0026 CDF848A0 		str	r10, [sp, #72]
 3606              	.LBE136:
 3607              	.LBE138:
 3608              	.LBB139:
 3609              	.LBB140:
 3610 002a CDF854A0 		str	r10, [sp, #84]
 3611              	.LBE140:
 3612              	.LBE139:
 3613              	.LBB142:
 3614              	.LBB143:
 3615 002e CDF860A0 		str	r10, [sp, #96]
ARM GAS  C:\Users\jo\AppData\Local\Temp\ccxFvVJt.s 			page 65


 3616              	.LBE143:
 3617              	.LBE142:
 3618              	.LBB145:
 3619              	.LBB146:
 3620 0032 CDF86CA0 		str	r10, [sp, #108]
 3621              	.LBE146:
 3622              	.LBE145:
 3623              	.LBB148:
 3624              	.LBB149:
 3625 0036 CDF878A0 		str	r10, [sp, #120]
 3626              	.LBE149:
 3627              	.LBE148:
 3628              	.LBB151:
 3629              	.LBB137:
 3630              		.loc 1 61 0
 3631 003a 1394     		str	r4, [sp, #76]
 3632              		.loc 1 62 0
 3633 003c 1494     		str	r4, [sp, #80]
 3634              	.LVL436:
 3635              	.LBE137:
 3636              	.LBE151:
 3637              	.LBB152:
 3638              	.LBB141:
 3639              		.loc 1 61 0
 3640 003e 1694     		str	r4, [sp, #88]
 3641              		.loc 1 62 0
 3642 0040 1794     		str	r4, [sp, #92]
 3643              	.LVL437:
 3644              	.LBE141:
 3645              	.LBE152:
 3646              	.LBB153:
 3647              	.LBB144:
 3648              		.loc 1 61 0
 3649 0042 1994     		str	r4, [sp, #100]
 3650              		.loc 1 62 0
 3651 0044 1A94     		str	r4, [sp, #104]
 3652              	.LVL438:
 3653              	.LBE144:
 3654              	.LBE153:
 3655              	.LBB154:
 3656              	.LBB147:
 3657              		.loc 1 61 0
 3658 0046 1C94     		str	r4, [sp, #112]
 3659              		.loc 1 62 0
 3660 0048 1D94     		str	r4, [sp, #116]
 3661              	.LVL439:
 3662              	.LBE147:
 3663              	.LBE154:
 3664              	.LBB155:
 3665              	.LBB150:
 3666              		.loc 1 61 0
 3667 004a 1F94     		str	r4, [sp, #124]
 3668              		.loc 1 62 0
 3669 004c 2094     		str	r4, [sp, #128]
 3670              	.LBE150:
 3671              	.LBE155:
 3672              		.loc 1 1075 0
ARM GAS  C:\Users\jo\AppData\Local\Temp\ccxFvVJt.s 			page 66


 3673 004e FFF7FEFF 		bl	mpi_cmp_abs
 3674              	.LVL440:
 3675 0052 A042     		cmp	r0, r4
 3676 0054 26DB     		blt	.L503
 3677              		.loc 1 1082 0
 3678 0056 0DF1480C 		add	ip, sp, #72
 3679              	.LVL441:
 3680 005a 6046     		mov	r0, ip
 3681 005c 3146     		mov	r1, r6
 3682 005e CDF804C0 		str	ip, [sp, #4]
 3683 0062 FFF7FEFF 		bl	mpi_copy
 3684              	.LVL442:
 3685 0066 DDF804C0 		ldr	ip, [sp, #4]
 3686 006a 0446     		mov	r4, r0
 3687 006c A0B3     		cbz	r0, .L494
 3688 006e 0DF15408 		add	r8, sp, #84
 3689              	.LVL443:
 3690 0072 0DF16009 		add	r9, sp, #96
 3691              	.LVL444:
 3692 0076 0DF16C0A 		add	r10, sp, #108
 3693              	.LVL445:
 3694 007a 0DF1780B 		add	fp, sp, #120
 3695              	.LVL446:
 3696              	.L453:
 3697              		.loc 1 1218 0
 3698 007e 6046     		mov	r0, ip
 3699 0080 FFF7FEFF 		bl	mpi_free
 3700              	.LVL447:
 3701 0084 4046     		mov	r0, r8
 3702 0086 FFF7FEFF 		bl	mpi_free
 3703              	.LVL448:
 3704 008a 4846     		mov	r0, r9
 3705 008c FFF7FEFF 		bl	mpi_free
 3706              	.LVL449:
 3707              		.loc 1 1219 0
 3708 0090 5046     		mov	r0, r10
 3709 0092 FFF7FEFF 		bl	mpi_free
 3710              	.LVL450:
 3711 0096 5846     		mov	r0, fp
 3712 0098 FFF7FEFF 		bl	mpi_free
 3713              	.LVL451:
 3714              		.loc 1 1221 0
 3715 009c 2046     		mov	r0, r4
 3716              	.LVL452:
 3717              	.L448:
 3718              		.loc 1 1222 0
 3719 009e 25B0     		add	sp, sp, #148
 3720              		.cfi_remember_state
 3721              		.cfi_def_cfa_offset 36
 3722              	.LVL453:
 3723              		@ sp needed
 3724 00a0 BDE8F08F 		pop	{r4, r5, r6, r7, r8, r9, r10, fp, pc}
 3725              	.LVL454:
 3726              	.L503:
 3727              		.cfi_restore_state
 3728              		.loc 1 1077 0
 3729 00a4 2FB1     		cbz	r7, .L454
ARM GAS  C:\Users\jo\AppData\Local\Temp\ccxFvVJt.s 			page 67


 3730              		.loc 1 1077 0 is_stmt 0 discriminator 1
 3731 00a6 2146     		mov	r1, r4
 3732 00a8 3846     		mov	r0, r7
 3733 00aa FFF7FEFF 		bl	mpi_lset
 3734              	.LVL455:
 3735 00ae 0446     		mov	r4, r0
 3736 00b0 38B9     		cbnz	r0, .L501
 3737              	.LVL456:
 3738              	.L454:
 3739              		.loc 1 1078 0 is_stmt 1
 3740 00b2 009B     		ldr	r3, [sp]
 3741 00b4 1BB3     		cbz	r3, .L452
 3742              		.loc 1 1078 0 is_stmt 0 discriminator 1
 3743 00b6 0098     		ldr	r0, [sp]
 3744 00b8 3146     		mov	r1, r6
 3745 00ba FFF7FEFF 		bl	mpi_copy
 3746              	.LVL457:
 3747 00be 0446     		mov	r4, r0
 3748 00c0 E8B1     		cbz	r0, .L452
 3749              	.L501:
 3750 00c2 0DF1480C 		add	ip, sp, #72
 3751              	.LVL458:
 3752 00c6 0DF15408 		add	r8, sp, #84
 3753              	.LVL459:
 3754 00ca 0DF16009 		add	r9, sp, #96
 3755              	.LVL460:
 3756 00ce 0DF16C0A 		add	r10, sp, #108
 3757              	.LVL461:
 3758 00d2 0DF1780B 		add	fp, sp, #120
 3759              	.LVL462:
 3760 00d6 D2E7     		b	.L453
 3761              	.LVL463:
 3762              	.L494:
 3763              		.loc 1 1083 0 is_stmt 1
 3764 00d8 0DF15408 		add	r8, sp, #84
 3765              	.LVL464:
 3766 00dc 4046     		mov	r0, r8
 3767              	.LVL465:
 3768 00de 2946     		mov	r1, r5
 3769 00e0 CDF804C0 		str	ip, [sp, #4]
 3770              	.LVL466:
 3771 00e4 FFF7FEFF 		bl	mpi_copy
 3772              	.LVL467:
 3773 00e8 DDF804C0 		ldr	ip, [sp, #4]
 3774 00ec 0446     		mov	r4, r0
 3775 00ee 50B1     		cbz	r0, .L495
 3776 00f0 0DF16009 		add	r9, sp, #96
 3777              	.LVL468:
 3778 00f4 0DF16C0A 		add	r10, sp, #108
 3779              	.LVL469:
 3780 00f8 0DF1780B 		add	fp, sp, #120
 3781              	.LVL470:
 3782 00fc BFE7     		b	.L453
 3783              	.LVL471:
 3784              	.L452:
 3785              		.loc 1 1079 0
 3786 00fe 0020     		movs	r0, #0
ARM GAS  C:\Users\jo\AppData\Local\Temp\ccxFvVJt.s 			page 68


 3787              		.loc 1 1222 0
 3788 0100 25B0     		add	sp, sp, #148
 3789              		.cfi_remember_state
 3790              		.cfi_def_cfa_offset 36
 3791              	.LVL472:
 3792              		@ sp needed
 3793 0102 BDE8F08F 		pop	{r4, r5, r6, r7, r8, r9, r10, fp, pc}
 3794              	.LVL473:
 3795              	.L495:
 3796              		.cfi_restore_state
 3797              		.loc 1 1086 0
 3798 0106 7168     		ldr	r1, [r6, #4]
 3799 0108 CDF804C0 		str	ip, [sp, #4]
 3800 010c 0DF16009 		add	r9, sp, #96
 3801              	.LVL474:
 3802 0110 0231     		adds	r1, r1, #2
 3803 0112 4846     		mov	r0, r9
 3804              	.LVL475:
 3805              		.loc 1 1084 0
 3806 0114 CDF854A0 		str	r10, [sp, #84]
 3807 0118 CDF848A0 		str	r10, [sp, #72]
 3808              		.loc 1 1086 0
 3809 011c FFF7FEFF 		bl	mpi_grow
 3810              	.LVL476:
 3811 0120 DDF804C0 		ldr	ip, [sp, #4]
 3812 0124 0446     		mov	r4, r0
 3813 0126 38B1     		cbz	r0, .L504
 3814              	.L502:
 3815 0128 0DF16C0A 		add	r10, sp, #108
 3816              	.LVL477:
 3817 012c 0DF1780B 		add	fp, sp, #120
 3818              	.LVL478:
 3819 0130 A5E7     		b	.L453
 3820              	.LVL479:
 3821              	.L472:
 3822              		.loc 1 1070 0
 3823 0132 6FF00B00 		mvn	r0, #11
 3824 0136 B2E7     		b	.L448
 3825              	.LVL480:
 3826              	.L504:
 3827              		.loc 1 1087 0
 3828 0138 0146     		mov	r1, r0
 3829 013a 4846     		mov	r0, r9
 3830              	.LVL481:
 3831 013c CDF804C0 		str	ip, [sp, #4]
 3832 0140 FFF7FEFF 		bl	mpi_lset
 3833              	.LVL482:
 3834 0144 DDF804C0 		ldr	ip, [sp, #4]
 3835 0148 0446     		mov	r4, r0
 3836 014a 0028     		cmp	r0, #0
 3837 014c ECD1     		bne	.L502
 3838              		.loc 1 1088 0
 3839 014e 0DF16C0A 		add	r10, sp, #108
 3840              	.LVL483:
 3841 0152 5046     		mov	r0, r10
 3842              	.LVL484:
 3843 0154 0221     		movs	r1, #2
ARM GAS  C:\Users\jo\AppData\Local\Temp\ccxFvVJt.s 			page 69


 3844 0156 CDF804C0 		str	ip, [sp, #4]
 3845 015a FFF7FEFF 		bl	mpi_grow
 3846              	.LVL485:
 3847 015e DDF804C0 		ldr	ip, [sp, #4]
 3848 0162 0446     		mov	r4, r0
 3849 0164 10B1     		cbz	r0, .L498
 3850 0166 0DF1780B 		add	fp, sp, #120
 3851              	.LVL486:
 3852 016a 88E7     		b	.L453
 3853              	.LVL487:
 3854              	.L498:
 3855              		.loc 1 1089 0
 3856 016c 0DF1780B 		add	fp, sp, #120
 3857              	.LVL488:
 3858 0170 5846     		mov	r0, fp
 3859              	.LVL489:
 3860 0172 0321     		movs	r1, #3
 3861 0174 CDF804C0 		str	ip, [sp, #4]
 3862 0178 FFF7FEFF 		bl	mpi_grow
 3863              	.LVL490:
 3864 017c DDF804C0 		ldr	ip, [sp, #4]
 3865 0180 0446     		mov	r4, r0
 3866 0182 0028     		cmp	r0, #0
 3867 0184 7FF47BAF 		bne	.L453
 3868              		.loc 1 1091 0
 3869 0188 4046     		mov	r0, r8
 3870              	.LVL491:
 3871 018a FFF7FEFF 		bl	mpi_msb
 3872              	.LVL492:
 3873 018e 00F01F00 		and	r0, r0, #31
 3874              	.LVL493:
 3875              		.loc 1 1092 0
 3876 0192 1F28     		cmp	r0, #31
 3877 0194 DDF804C0 		ldr	ip, [sp, #4]
 3878 0198 00F0D480 		beq	.L473
 3879              		.loc 1 1094 0
 3880 019c C0F11F03 		rsb	r3, r0, #31
 3881              		.loc 1 1095 0
 3882 01a0 1946     		mov	r1, r3
 3883 01a2 6046     		mov	r0, ip
 3884              	.LVL494:
 3885              		.loc 1 1094 0
 3886 01a4 0893     		str	r3, [sp, #32]
 3887              	.LVL495:
 3888              		.loc 1 1095 0
 3889 01a6 FFF7FEFF 		bl	mpi_shift_l
 3890              	.LVL496:
 3891 01aa DDF804C0 		ldr	ip, [sp, #4]
 3892 01ae 0446     		mov	r4, r0
 3893 01b0 0028     		cmp	r0, #0
 3894 01b2 7FF464AF 		bne	.L453
 3895              		.loc 1 1096 0
 3896 01b6 4046     		mov	r0, r8
 3897              	.LVL497:
 3898 01b8 0899     		ldr	r1, [sp, #32]
 3899 01ba FFF7FEFF 		bl	mpi_shift_l
 3900              	.LVL498:
ARM GAS  C:\Users\jo\AppData\Local\Temp\ccxFvVJt.s 			page 70


 3901 01be DDF804C0 		ldr	ip, [sp, #4]
 3902 01c2 0446     		mov	r4, r0
 3903 01c4 0028     		cmp	r0, #0
 3904 01c6 7FF45AAF 		bne	.L453
 3905              	.LVL499:
 3906              	.L455:
 3907              		.loc 1 1100 0
 3908 01ca 139B     		ldr	r3, [sp, #76]
 3909              		.loc 1 1101 0
 3910 01cc 169A     		ldr	r2, [sp, #88]
 3911              		.loc 1 1100 0
 3912 01ce 0193     		str	r3, [sp, #4]
 3913              		.loc 1 1101 0
 3914 01d0 0492     		str	r2, [sp, #16]
 3915              		.loc 1 1100 0
 3916 01d2 013B     		subs	r3, r3, #1
 3917              		.loc 1 1101 0
 3918 01d4 013A     		subs	r2, r2, #1
 3919              		.loc 1 1100 0
 3920 01d6 0293     		str	r3, [sp, #8]
 3921              	.LVL500:
 3922              		.loc 1 1102 0
 3923 01d8 9B1A     		subs	r3, r3, r2
 3924              	.LVL501:
 3925              		.loc 1 1101 0
 3926 01da 0392     		str	r2, [sp, #12]
 3927              	.LVL502:
 3928              		.loc 1 1102 0
 3929 01dc 5A01     		lsls	r2, r3, #5
 3930              	.LVL503:
 3931 01de 1146     		mov	r1, r2
 3932 01e0 4046     		mov	r0, r8
 3933 01e2 CDF828C0 		str	ip, [sp, #40]
 3934 01e6 0993     		str	r3, [sp, #36]
 3935 01e8 0592     		str	r2, [sp, #20]
 3936 01ea FFF7FEFF 		bl	mpi_shift_l
 3937              	.LVL504:
 3938 01ee 099B     		ldr	r3, [sp, #36]
 3939 01f0 DDF828C0 		ldr	ip, [sp, #40]
 3940 01f4 0446     		mov	r4, r0
 3941 01f6 0028     		cmp	r0, #0
 3942 01f8 7FF441AF 		bne	.L453
 3943              		.loc 1 1106 0
 3944 01fc 9B00     		lsls	r3, r3, #2
 3945 01fe 4446     		mov	r4, r8
 3946 0200 0993     		str	r3, [sp, #36]
 3947 0202 0A90     		str	r0, [sp, #40]
 3948 0204 0B95     		str	r5, [sp, #44]
 3949 0206 E046     		mov	r8, ip
 3950              	.LVL505:
 3951 0208 09E0     		b	.L456
 3952              	.LVL506:
 3953              	.L457:
 3954 020a DDF868E0 		ldr	lr, [sp, #104]
 3955 020e 099D     		ldr	r5, [sp, #36]
 3956 0210 5EF80530 		ldr	r3, [lr, r5]
 3957 0214 0133     		adds	r3, r3, #1
ARM GAS  C:\Users\jo\AppData\Local\Temp\ccxFvVJt.s 			page 71


 3958 0216 4EF80530 		str	r3, [lr, r5]
 3959              		.loc 1 1107 0
 3960 021a FFF7FEFF 		bl	mpi_sub_mpi
 3961              	.LVL507:
 3962              	.L456:
 3963              		.loc 1 1104 0
 3964 021e 2146     		mov	r1, r4
 3965 0220 4046     		mov	r0, r8
 3966 0222 FFF7FEFF 		bl	mpi_cmp_mpi
 3967              	.LVL508:
 3968 0226 0028     		cmp	r0, #0
 3969              		.loc 1 1107 0
 3970 0228 4146     		mov	r1, r8
 3971 022a 4046     		mov	r0, r8
 3972 022c 2246     		mov	r2, r4
 3973              		.loc 1 1104 0
 3974 022e ECDA     		bge	.L457
 3975              	.LVL509:
 3976              		.loc 1 1109 0
 3977 0230 0599     		ldr	r1, [sp, #20]
 3978 0232 0B9D     		ldr	r5, [sp, #44]
 3979 0234 CDF82C80 		str	r8, [sp, #44]
 3980              	.LVL510:
 3981 0238 1046     		mov	r0, r2
 3982 023a A046     		mov	r8, r4
 3983 023c 0A9C     		ldr	r4, [sp, #40]
 3984 023e FFF7FEFF 		bl	mpi_shift_r
 3985              	.LVL511:
 3986 0242 019A     		ldr	r2, [sp, #4]
 3987 0244 0498     		ldr	r0, [sp, #16]
 3988 0246 DDF82CC0 		ldr	ip, [sp, #44]
 3989 024a 0D97     		str	r7, [sp, #52]
 3990 024c 02F10063 		add	r3, r2, #134217728
 3991 0250 02F18041 		add	r1, r2, #1073741824
 3992              		.loc 1 1113 0
 3993 0254 039A     		ldr	r2, [sp, #12]
 3994 0256 0E96     		str	r6, [sp, #56]
 3995 0258 013B     		subs	r3, r3, #1
 3996 025a 9200     		lsls	r2, r2, #2
 3997 025c 1B1A     		subs	r3, r3, r0
 3998 025e 0492     		str	r2, [sp, #16]
 3999 0260 5B01     		lsls	r3, r3, #5
 4000 0262 0593     		str	r3, [sp, #20]
 4001              		.loc 1 1176 0
 4002 0264 049B     		ldr	r3, [sp, #16]
 4003 0266 0C94     		str	r4, [sp, #48]
 4004 0268 6FF00302 		mvn	r2, #3
 4005 026c 1344     		add	r3, r3, r2
 4006 026e 0139     		subs	r1, r1, #1
 4007 0270 0A93     		str	r3, [sp, #40]
 4008              	.LVL512:
 4009 0272 0346     		mov	r3, r0
 4010 0274 8900     		lsls	r1, r1, #2
 4011 0276 02FB03F3 		mul	r3, r2, r3
 4012 027a 0993     		str	r3, [sp, #36]
 4013 027c 0F95     		str	r5, [sp, #60]
 4014 027e 0F46     		mov	r7, r1
ARM GAS  C:\Users\jo\AppData\Local\Temp\ccxFvVJt.s 			page 72


 4015              	.LVL513:
 4016 0280 6646     		mov	r6, ip
 4017              	.LVL514:
 4018 0282 CDF80490 		str	r9, [sp, #4]
 4019              	.LVL515:
 4020              	.L458:
 4021              		.loc 1 1111 0 discriminator 1
 4022 0286 029B     		ldr	r3, [sp, #8]
 4023 0288 039A     		ldr	r2, [sp, #12]
 4024 028a 9342     		cmp	r3, r2
 4025 028c 77D9     		bls	.L505
 4026              		.loc 1 1113 0
 4027 028e 149B     		ldr	r3, [sp, #80]
 4028 0290 179A     		ldr	r2, [sp, #92]
 4029 0292 0498     		ldr	r0, [sp, #16]
 4030 0294 D959     		ldr	r1, [r3, r7]
 4031 0296 1258     		ldr	r2, [r2, r0]
 4032 0298 9142     		cmp	r1, r2
 4033 029a 55D3     		bcc	.L459
 4034              		.loc 1 1114 0
 4035 029c 1A9B     		ldr	r3, [sp, #104]
 4036 029e 0998     		ldr	r0, [sp, #36]
 4037 02a0 DA19     		adds	r2, r3, r7
 4038 02a2 4FF0FF31 		mov	r1, #-1
 4039 02a6 1150     		str	r1, [r2, r0]
 4040              	.L460:
 4041 02a8 099A     		ldr	r2, [sp, #36]
 4042 02aa BC18     		adds	r4, r7, r2
 4043 02ac A7F10802 		sub	r2, r7, #8
 4044 02b0 0B92     		str	r2, [sp, #44]
 4045              		.loc 1 1170 0
 4046 02b2 1A59     		ldr	r2, [r3, r4]
 4047 02b4 0132     		adds	r2, r2, #1
 4048 02b6 3D46     		mov	r5, r7
 4049 02b8 1A51     		str	r2, [r3, r4]
 4050 02ba 043F     		subs	r7, r7, #4
 4051              	.LBB156:
 4052              	.LBB157:
 4053              		.loc 1 1054 0
 4054 02bc 0DF14409 		add	r9, sp, #68
 4055 02c0 2FE0     		b	.L466
 4056              	.LVL516:
 4057              	.L507:
 4058 02c2 179A     		ldr	r2, [sp, #92]
 4059              	.LBE157:
 4060              	.LBE156:
 4061              		.loc 1 1176 0
 4062 02c4 0399     		ldr	r1, [sp, #12]
 4063              	.L463:
 4064              		.loc 1 1176 0 is_stmt 0 discriminator 4
 4065 02c6 1960     		str	r1, [r3]
 4066              		.loc 1 1177 0 is_stmt 1 discriminator 4
 4067 02c8 0499     		ldr	r1, [sp, #16]
 4068 02ca 5158     		ldr	r1, [r2, r1]
 4069              		.loc 1 1178 0 discriminator 4
 4070 02cc 1A9A     		ldr	r2, [sp, #104]
 4071              		.loc 1 1177 0 discriminator 4
ARM GAS  C:\Users\jo\AppData\Local\Temp\ccxFvVJt.s 			page 73


 4072 02ce 5960     		str	r1, [r3, #4]
 4073              		.loc 1 1178 0 discriminator 4
 4074 02d0 1359     		ldr	r3, [r2, r4]
 4075              	.LVL517:
 4076              	.LBB159:
 4077              	.LBB158:
 4078              		.loc 1 1055 0 discriminator 4
 4079 02d2 1193     		str	r3, [sp, #68]
 4080              		.loc 1 1057 0 discriminator 4
 4081 02d4 5146     		mov	r1, r10
 4082              		.loc 1 1052 0 discriminator 4
 4083 02d6 0123     		movs	r3, #1
 4084              	.LVL518:
 4085              		.loc 1 1057 0 discriminator 4
 4086 02d8 21AA     		add	r2, sp, #132
 4087 02da 5046     		mov	r0, r10
 4088              	.LVL519:
 4089              		.loc 1 1052 0 discriminator 4
 4090 02dc 2193     		str	r3, [sp, #132]
 4091              		.loc 1 1053 0 discriminator 4
 4092 02de 2293     		str	r3, [sp, #136]
 4093              		.loc 1 1054 0 discriminator 4
 4094 02e0 CDF88C90 		str	r9, [sp, #140]
 4095              		.loc 1 1057 0 discriminator 4
 4096 02e4 FFF7FEFF 		bl	mpi_mul_mpi
 4097              	.LVL520:
 4098              	.LBE158:
 4099              	.LBE159:
 4100              		.loc 1 1178 0 discriminator 4
 4101 02e8 0146     		mov	r1, r0
 4102 02ea 0028     		cmp	r0, #0
 4103 02ec 40F0A780 		bne	.L479
 4104              		.loc 1 1180 0
 4105 02f0 5846     		mov	r0, fp
 4106 02f2 FFF7FEFF 		bl	mpi_lset
 4107              	.LVL521:
 4108 02f6 0028     		cmp	r0, #0
 4109 02f8 75D1     		bne	.L482
 4110              		.loc 1 1181 0
 4111 02fa 029A     		ldr	r2, [sp, #8]
 4112 02fc 209B     		ldr	r3, [sp, #128]
 4113 02fe 012A     		cmp	r2, #1
 4114 0300 18BF     		it	ne
 4115 0302 0B99     		ldrne	r1, [sp, #44]
 4116 0304 149A     		ldr	r2, [sp, #80]
 4117 0306 18BF     		it	ne
 4118 0308 5058     		ldrne	r0, [r2, r1]
 4119              	.LVL522:
 4120 030a 1860     		str	r0, [r3]
 4121              		.loc 1 1182 0
 4122 030c D159     		ldr	r1, [r2, r7]
 4123 030e 5960     		str	r1, [r3, #4]
 4124              		.loc 1 1183 0
 4125 0310 5259     		ldr	r2, [r2, r5]
 4126 0312 9A60     		str	r2, [r3, #8]
 4127              		.loc 1 1185 0
 4128 0314 5046     		mov	r0, r10
ARM GAS  C:\Users\jo\AppData\Local\Temp\ccxFvVJt.s 			page 74


 4129 0316 5946     		mov	r1, fp
 4130 0318 FFF7FEFF 		bl	mpi_cmp_mpi
 4131              	.LVL523:
 4132 031c 0028     		cmp	r0, #0
 4133 031e 1A9B     		ldr	r3, [sp, #104]
 4134 0320 66DD     		ble	.L506
 4135              	.LVL524:
 4136              	.L466:
 4137              		.loc 1 1173 0
 4138 0322 1A59     		ldr	r2, [r3, r4]
 4139 0324 013A     		subs	r2, r2, #1
 4140 0326 1A51     		str	r2, [r3, r4]
 4141              		.loc 1 1175 0
 4142 0328 5046     		mov	r0, r10
 4143 032a 0021     		movs	r1, #0
 4144 032c FFF7FEFF 		bl	mpi_lset
 4145              	.LVL525:
 4146 0330 0028     		cmp	r0, #0
 4147 0332 58D1     		bne	.L482
 4148              		.loc 1 1176 0
 4149 0334 039A     		ldr	r2, [sp, #12]
 4150 0336 1D9B     		ldr	r3, [sp, #116]
 4151 0338 002A     		cmp	r2, #0
 4152 033a C2D0     		beq	.L507
 4153              		.loc 1 1176 0 is_stmt 0 discriminator 1
 4154 033c 179A     		ldr	r2, [sp, #92]
 4155 033e 0A99     		ldr	r1, [sp, #40]
 4156 0340 5158     		ldr	r1, [r2, r1]
 4157 0342 C0E7     		b	.L463
 4158              	.LVL526:
 4159              	.L473:
 4160              		.loc 1 1098 0 is_stmt 1
 4161 0344 0894     		str	r4, [sp, #32]
 4162 0346 40E7     		b	.L455
 4163              	.LVL527:
 4164              	.L459:
 4165              	.LBB160:
 4166              		.loc 1 1121 0
 4167 0348 3B44     		add	r3, r3, r7
 4168              		.loc 1 1120 0
 4169 034a 0791     		str	r1, [sp, #28]
 4170              		.loc 1 1121 0
 4171 034c 53F8040C 		ldr	r0, [r3, #-4]
 4172              		.loc 1 1120 0
 4173 0350 0023     		movs	r3, #0
 4174 0352 0693     		str	r3, [sp, #24]
 4175              	.LVL528:
 4176              		.loc 1 1122 0
 4177 0354 DDE90645 		ldrd	r4, [sp, #24]
 4178 0358 44EA0004 		orr	r4, r4, r0
 4179              	.LVL529:
 4180 035c 2046     		mov	r0, r4
 4181 035e 2946     		mov	r1, r5
 4182 0360 FFF7FEFF 		bl	__aeabi_uldivmod
 4183              	.LVL530:
 4184 0364 0025     		movs	r5, #0
 4185 0366 4FF0FF34 		mov	r4, #-1
ARM GAS  C:\Users\jo\AppData\Local\Temp\ccxFvVJt.s 			page 75


 4186              		.loc 1 1126 0
 4187 036a 1A9B     		ldr	r3, [sp, #104]
 4188 036c 8D42     		cmp	r5, r1
 4189 036e 08BF     		it	eq
 4190 0370 8442     		cmpeq	r4, r0
 4191 0372 38BF     		it	cc
 4192 0374 2046     		movcc	r0, r4
 4193              	.LVL531:
 4194 0376 DA19     		adds	r2, r3, r7
 4195 0378 099C     		ldr	r4, [sp, #36]
 4196 037a 1051     		str	r0, [r2, r4]
 4197 037c 94E7     		b	.L460
 4198              	.LVL532:
 4199              	.L505:
 4200 037e 0D9F     		ldr	r7, [sp, #52]
 4201 0380 0C9C     		ldr	r4, [sp, #48]
 4202 0382 0F9D     		ldr	r5, [sp, #60]
 4203 0384 DDF80490 		ldr	r9, [sp, #4]
 4204 0388 B446     		mov	ip, r6
 4205 038a 0E9E     		ldr	r6, [sp, #56]
 4206              	.LBE160:
 4207              		.loc 1 1200 0
 4208 038c 67B1     		cbz	r7, .L469
 4209              		.loc 1 1202 0
 4210 038e 3846     		mov	r0, r7
 4211 0390 4946     		mov	r1, r9
 4212 0392 CDF804C0 		str	ip, [sp, #4]
 4213              	.LVL533:
 4214 0396 FFF7FEFF 		bl	mpi_copy
 4215              	.LVL534:
 4216              		.loc 1 1203 0
 4217 039a 2B68     		ldr	r3, [r5]
 4218 039c 3268     		ldr	r2, [r6]
 4219 039e DDF804C0 		ldr	ip, [sp, #4]
 4220 03a2 03FB02F3 		mul	r3, r3, r2
 4221 03a6 3B60     		str	r3, [r7]
 4222              	.L469:
 4223              		.loc 1 1206 0
 4224 03a8 009D     		ldr	r5, [sp]
 4225 03aa 002D     		cmp	r5, #0
 4226 03ac 3FF467AE 		beq	.L453
 4227              		.loc 1 1208 0
 4228 03b0 0899     		ldr	r1, [sp, #32]
 4229 03b2 CDF804C0 		str	ip, [sp, #4]
 4230 03b6 6046     		mov	r0, ip
 4231 03b8 FFF7FEFF 		bl	mpi_shift_r
 4232              	.LVL535:
 4233              		.loc 1 1210 0
 4234 03bc DDF804C0 		ldr	ip, [sp, #4]
 4235              		.loc 1 1209 0
 4236 03c0 3368     		ldr	r3, [r6]
 4237 03c2 1293     		str	r3, [sp, #72]
 4238              		.loc 1 1210 0
 4239 03c4 6146     		mov	r1, ip
 4240 03c6 2846     		mov	r0, r5
 4241 03c8 FFF7FEFF 		bl	mpi_copy
 4242              	.LVL536:
ARM GAS  C:\Users\jo\AppData\Local\Temp\ccxFvVJt.s 			page 76


 4243              		.loc 1 1212 0
 4244 03cc 2846     		mov	r0, r5
 4245 03ce 0021     		movs	r1, #0
 4246 03d0 FFF7FEFF 		bl	mpi_cmp_int
 4247              	.LVL537:
 4248 03d4 DDF804C0 		ldr	ip, [sp, #4]
 4249 03d8 0028     		cmp	r0, #0
 4250 03da 7FF450AE 		bne	.L453
 4251              		.loc 1 1213 0
 4252 03de 009A     		ldr	r2, [sp]
 4253 03e0 0123     		movs	r3, #1
 4254 03e2 1360     		str	r3, [r2]
 4255 03e4 4BE6     		b	.L453
 4256              	.LVL538:
 4257              	.L482:
 4258 03e6 B446     		mov	ip, r6
 4259 03e8 DDF80490 		ldr	r9, [sp, #4]
 4260 03ec 0446     		mov	r4, r0
 4261 03ee 46E6     		b	.L453
 4262              	.LVL539:
 4263              	.L506:
 4264              		.loc 1 1187 0
 4265 03f0 1B59     		ldr	r3, [r3, r4]
 4266              	.LVL540:
 4267              	.LBB161:
 4268              	.LBB162:
 4269              		.loc 1 1055 0
 4270 03f2 1193     		str	r3, [sp, #68]
 4271              		.loc 1 1057 0
 4272 03f4 21AA     		add	r2, sp, #132
 4273              		.loc 1 1052 0
 4274 03f6 0123     		movs	r3, #1
 4275              	.LVL541:
 4276              		.loc 1 1057 0
 4277 03f8 5046     		mov	r0, r10
 4278 03fa 4146     		mov	r1, r8
 4279              		.loc 1 1052 0
 4280 03fc 2193     		str	r3, [sp, #132]
 4281              		.loc 1 1053 0
 4282 03fe 2293     		str	r3, [sp, #136]
 4283              		.loc 1 1054 0
 4284 0400 CDF88C90 		str	r9, [sp, #140]
 4285              		.loc 1 1057 0
 4286 0404 FFF7FEFF 		bl	mpi_mul_mpi
 4287              	.LVL542:
 4288              	.LBE162:
 4289              	.LBE161:
 4290              		.loc 1 1187 0
 4291 0408 0028     		cmp	r0, #0
 4292 040a ECD1     		bne	.L482
 4293              		.loc 1 1188 0
 4294 040c 5046     		mov	r0, r10
 4295 040e 0599     		ldr	r1, [sp, #20]
 4296 0410 FFF7FEFF 		bl	mpi_shift_l
 4297              	.LVL543:
 4298 0414 0028     		cmp	r0, #0
 4299 0416 E6D1     		bne	.L482
ARM GAS  C:\Users\jo\AppData\Local\Temp\ccxFvVJt.s 			page 77


 4300              		.loc 1 1189 0
 4301 0418 3146     		mov	r1, r6
 4302 041a 3046     		mov	r0, r6
 4303              	.LVL544:
 4304 041c 5246     		mov	r2, r10
 4305 041e FFF7FEFF 		bl	mpi_sub_mpi
 4306              	.LVL545:
 4307 0422 0146     		mov	r1, r0
 4308 0424 58B9     		cbnz	r0, .L479
 4309              		.loc 1 1191 0
 4310 0426 3046     		mov	r0, r6
 4311              	.LVL546:
 4312 0428 FFF7FEFF 		bl	mpi_cmp_int
 4313              	.LVL547:
 4314 042c 0028     		cmp	r0, #0
 4315 042e 0BDB     		blt	.L508
 4316              	.L467:
 4317              	.LVL548:
 4318              		.loc 1 1111 0 discriminator 2
 4319 0430 029B     		ldr	r3, [sp, #8]
 4320 0432 013B     		subs	r3, r3, #1
 4321 0434 0293     		str	r3, [sp, #8]
 4322              	.LVL549:
 4323 0436 059B     		ldr	r3, [sp, #20]
 4324              	.LVL550:
 4325 0438 203B     		subs	r3, r3, #32
 4326 043a 0593     		str	r3, [sp, #20]
 4327 043c 23E7     		b	.L458
 4328              	.LVL551:
 4329              	.L479:
 4330 043e B446     		mov	ip, r6
 4331 0440 DDF80490 		ldr	r9, [sp, #4]
 4332 0444 0C46     		mov	r4, r1
 4333 0446 1AE6     		b	.L453
 4334              	.LVL552:
 4335              	.L508:
 4336              		.loc 1 1193 0
 4337 0448 5046     		mov	r0, r10
 4338 044a 4146     		mov	r1, r8
 4339 044c FFF7FEFF 		bl	mpi_copy
 4340              	.LVL553:
 4341 0450 0028     		cmp	r0, #0
 4342 0452 C8D1     		bne	.L482
 4343              		.loc 1 1194 0
 4344 0454 5046     		mov	r0, r10
 4345              	.LVL554:
 4346 0456 0599     		ldr	r1, [sp, #20]
 4347 0458 FFF7FEFF 		bl	mpi_shift_l
 4348              	.LVL555:
 4349 045c 0028     		cmp	r0, #0
 4350 045e C2D1     		bne	.L482
 4351              		.loc 1 1195 0
 4352 0460 3046     		mov	r0, r6
 4353              	.LVL556:
 4354 0462 3146     		mov	r1, r6
 4355 0464 5246     		mov	r2, r10
 4356 0466 FFF7FEFF 		bl	mpi_add_mpi
ARM GAS  C:\Users\jo\AppData\Local\Temp\ccxFvVJt.s 			page 78


 4357              	.LVL557:
 4358 046a 0028     		cmp	r0, #0
 4359 046c BBD1     		bne	.L482
 4360              		.loc 1 1196 0
 4361 046e 1A9A     		ldr	r2, [sp, #104]
 4362 0470 1359     		ldr	r3, [r2, r4]
 4363 0472 013B     		subs	r3, r3, #1
 4364 0474 1351     		str	r3, [r2, r4]
 4365 0476 DBE7     		b	.L467
 4366              		.cfi_endproc
 4367              	.LFE34:
 4368              		.size	mpi_div_mpi, .-mpi_div_mpi
 4369 0478 AFF30080 		.section	.text.mpi_div_int,"ax",%progbits
 4369      AFF30080 
 4370              		.align	2
 4371              		.p2align 4,,15
 4372              		.global	mpi_div_int
 4373              		.thumb
 4374              		.thumb_func
 4375              		.type	mpi_div_int, %function
 4376              	mpi_div_int:
 4377              	.LFB35:
 4378              		.loc 1 1228 0
 4379              		.cfi_startproc
 4380              		@ args = 0, pretend = 0, frame = 16
 4381              		@ frame_needed = 0, uses_anonymous_args = 0
 4382              	.LVL558:
 4383 0000 70B5     		push	{r4, r5, r6, lr}
 4384              		.cfi_def_cfa_offset 16
 4385              		.cfi_offset 4, -16
 4386              		.cfi_offset 5, -12
 4387              		.cfi_offset 6, -8
 4388              		.cfi_offset 14, -4
 4389              		.loc 1 1233 0
 4390 0002 002B     		cmp	r3, #0
 4391              		.loc 1 1228 0
 4392 0004 84B0     		sub	sp, sp, #16
 4393              		.cfi_def_cfa_offset 32
 4394              		.loc 1 1232 0
 4395 0006 83EAE376 		eor	r6, r3, r3, asr #31
 4396 000a A6EBE376 		sub	r6, r6, r3, asr #31
 4397              		.loc 1 1233 0
 4398 000e B4BF     		ite	lt
 4399 0010 4FF0FF35 		movlt	r5, #-1
 4400 0014 0125     		movge	r5, #1
 4401              		.loc 1 1234 0
 4402 0016 0124     		movs	r4, #1
 4403              		.loc 1 1237 0
 4404 0018 01AB     		add	r3, sp, #4
 4405              	.LVL559:
 4406              		.loc 1 1232 0
 4407 001a 0096     		str	r6, [sp]
 4408              		.loc 1 1233 0
 4409 001c 0195     		str	r5, [sp, #4]
 4410              		.loc 1 1234 0
 4411 001e 0294     		str	r4, [sp, #8]
 4412              		.loc 1 1235 0
ARM GAS  C:\Users\jo\AppData\Local\Temp\ccxFvVJt.s 			page 79


 4413 0020 CDF80CD0 		str	sp, [sp, #12]
 4414              		.loc 1 1237 0
 4415 0024 FFF7FEFF 		bl	mpi_div_mpi
 4416              	.LVL560:
 4417              		.loc 1 1238 0
 4418 0028 04B0     		add	sp, sp, #16
 4419              		.cfi_def_cfa_offset 16
 4420              		@ sp needed
 4421 002a 70BD     		pop	{r4, r5, r6, pc}
 4422              		.cfi_endproc
 4423              	.LFE35:
 4424              		.size	mpi_div_int, .-mpi_div_int
 4425 002c AFF30080 		.section	.text.mpi_mod_mpi,"ax",%progbits
 4426              		.align	2
 4427              		.p2align 4,,15
 4428              		.global	mpi_mod_mpi
 4429              		.thumb
 4430              		.thumb_func
 4431              		.type	mpi_mod_mpi, %function
 4432              	mpi_mod_mpi:
 4433              	.LFB36:
 4434              		.loc 1 1244 0
 4435              		.cfi_startproc
 4436              		@ args = 0, pretend = 0, frame = 0
 4437              		@ frame_needed = 0, uses_anonymous_args = 0
 4438              	.LVL561:
 4439 0000 70B5     		push	{r4, r5, r6, lr}
 4440              		.cfi_def_cfa_offset 16
 4441              		.cfi_offset 4, -16
 4442              		.cfi_offset 5, -12
 4443              		.cfi_offset 6, -8
 4444              		.cfi_offset 14, -4
 4445              		.loc 1 1244 0
 4446 0002 0446     		mov	r4, r0
 4447 0004 0E46     		mov	r6, r1
 4448              		.loc 1 1247 0
 4449 0006 1046     		mov	r0, r2
 4450              	.LVL562:
 4451 0008 0021     		movs	r1, #0
 4452              	.LVL563:
 4453              		.loc 1 1244 0
 4454 000a 1546     		mov	r5, r2
 4455              		.loc 1 1247 0
 4456 000c FFF7FEFF 		bl	mpi_cmp_int
 4457              	.LVL564:
 4458 0010 0028     		cmp	r0, #0
 4459 0012 24DB     		blt	.L519
 4460              		.loc 1 1250 0
 4461 0014 3246     		mov	r2, r6
 4462 0016 0020     		movs	r0, #0
 4463 0018 2146     		mov	r1, r4
 4464 001a 2B46     		mov	r3, r5
 4465 001c FFF7FEFF 		bl	mpi_div_mpi
 4466              	.LVL565:
 4467 0020 20B1     		cbz	r0, .L515
 4468              	.LVL566:
 4469              	.L514:
ARM GAS  C:\Users\jo\AppData\Local\Temp\ccxFvVJt.s 			page 80


 4470              		.loc 1 1261 0
 4471 0022 70BD     		pop	{r4, r5, r6, pc}
 4472              	.LVL567:
 4473              	.L516:
 4474              		.loc 1 1253 0
 4475 0024 FFF7FEFF 		bl	mpi_add_mpi
 4476              	.LVL568:
 4477 0028 0028     		cmp	r0, #0
 4478 002a FAD1     		bne	.L514
 4479              	.L515:
 4480              	.LVL569:
 4481              		.loc 1 1252 0
 4482 002c 0021     		movs	r1, #0
 4483 002e 2046     		mov	r0, r4
 4484 0030 FFF7FEFF 		bl	mpi_cmp_int
 4485              	.LVL570:
 4486 0034 0028     		cmp	r0, #0
 4487              		.loc 1 1253 0
 4488 0036 2146     		mov	r1, r4
 4489 0038 2A46     		mov	r2, r5
 4490 003a 2046     		mov	r0, r4
 4491              		.loc 1 1252 0
 4492 003c F2DB     		blt	.L516
 4493              	.LVL571:
 4494 003e 03E0     		b	.L517
 4495              	.L518:
 4496              		.loc 1 1256 0
 4497 0040 FFF7FEFF 		bl	mpi_sub_mpi
 4498              	.LVL572:
 4499 0044 0028     		cmp	r0, #0
 4500 0046 ECD1     		bne	.L514
 4501              	.LVL573:
 4502              	.L517:
 4503              		.loc 1 1255 0
 4504 0048 2946     		mov	r1, r5
 4505 004a 2046     		mov	r0, r4
 4506 004c FFF7FEFF 		bl	mpi_cmp_mpi
 4507              	.LVL574:
 4508 0050 0028     		cmp	r0, #0
 4509              		.loc 1 1256 0
 4510 0052 2146     		mov	r1, r4
 4511 0054 2A46     		mov	r2, r5
 4512 0056 2046     		mov	r0, r4
 4513              		.loc 1 1255 0
 4514 0058 F2DA     		bge	.L518
 4515              	.LVL575:
 4516 005a 0020     		movs	r0, #0
 4517              	.LVL576:
 4518 005c 70BD     		pop	{r4, r5, r6, pc}
 4519              	.LVL577:
 4520              	.L519:
 4521              		.loc 1 1248 0
 4522 005e 6FF00900 		mvn	r0, #9
 4523 0062 DEE7     		b	.L514
 4524              		.cfi_endproc
 4525              	.LFE36:
 4526              		.size	mpi_mod_mpi, .-mpi_mod_mpi
ARM GAS  C:\Users\jo\AppData\Local\Temp\ccxFvVJt.s 			page 81


 4527 0064 AFF30080 		.section	.text.mpi_mod_int,"ax",%progbits
 4527      AFF30080 
 4527      AFF30080 
 4528              		.align	2
 4529              		.p2align 4,,15
 4530              		.global	mpi_mod_int
 4531              		.thumb
 4532              		.thumb_func
 4533              		.type	mpi_mod_int, %function
 4534              	mpi_mod_int:
 4535              	.LFB37:
 4536              		.loc 1 1267 0
 4537              		.cfi_startproc
 4538              		@ args = 0, pretend = 0, frame = 0
 4539              		@ frame_needed = 0, uses_anonymous_args = 0
 4540              		@ link register save eliminated.
 4541              	.LVL578:
 4542              		.loc 1 1271 0
 4543 0000 002A     		cmp	r2, #0
 4544 0002 35D0     		beq	.L531
 4545              		.loc 1 1274 0
 4546 0004 37DB     		blt	.L532
 4547              		.loc 1 1280 0
 4548 0006 012A     		cmp	r2, #1
 4549 0008 25D0     		beq	.L541
 4550              		.loc 1 1286 0
 4551 000a 022A     		cmp	r2, #2
 4552 000c 27D0     		beq	.L542
 4553              	.LVL579:
 4554              		.loc 1 1267 0
 4555 000e F0B4     		push	{r4, r5, r6, r7}
 4556              		.cfi_def_cfa_offset 16
 4557              		.cfi_offset 4, -16
 4558              		.cfi_offset 5, -12
 4559              		.cfi_offset 6, -8
 4560              		.cfi_offset 7, -4
 4561              	.LBB165:
 4562              	.LBB166:
 4563              		.loc 1 1295 0
 4564 0010 4E68     		ldr	r6, [r1, #4]
 4565              	.LVL580:
 4566 0012 5EB3     		cbz	r6, .L528
 4567 0014 8F68     		ldr	r7, [r1, #8]
 4568 0016 0023     		movs	r3, #0
 4569 0018 07EB8606 		add	r6, r7, r6, lsl #2
 4570              	.LVL581:
 4571              	.L529:
 4572              		.loc 1 1297 0
 4573 001c 56F8044D 		ldr	r4, [r6, #-4]!
 4574              	.LVL582:
 4575              		.loc 1 1298 0
 4576 0020 250C     		lsrs	r5, r4, #16
 4577 0022 45EA0343 		orr	r3, r5, r3, lsl #16
 4578              	.LVL583:
 4579              		.loc 1 1303 0
 4580 0026 A4B2     		uxth	r4, r4
 4581              	.LVL584:
ARM GAS  C:\Users\jo\AppData\Local\Temp\ccxFvVJt.s 			page 82


 4582              		.loc 1 1299 0
 4583 0028 B3FBF2F5 		udiv	r5, r3, r2
 4584              	.LVL585:
 4585              		.loc 1 1300 0
 4586 002c 02FB1533 		mls	r3, r2, r5, r3
 4587              	.LVL586:
 4588              		.loc 1 1303 0
 4589 0030 44EA0343 		orr	r3, r4, r3, lsl #16
 4590              	.LVL587:
 4591              		.loc 1 1295 0
 4592 0034 BE42     		cmp	r6, r7
 4593              		.loc 1 1304 0
 4594 0036 B3FBF2F4 		udiv	r4, r3, r2
 4595              	.LVL588:
 4596              		.loc 1 1305 0
 4597 003a 02FB1433 		mls	r3, r2, r4, r3
 4598              	.LVL589:
 4599              		.loc 1 1295 0
 4600 003e EDD1     		bne	.L529
 4601              		.loc 1 1312 0
 4602 0040 0968     		ldr	r1, [r1]
 4603              	.LVL590:
 4604 0042 0029     		cmp	r1, #0
 4605 0044 03DB     		blt	.L543
 4606              	.LVL591:
 4607              	.L530:
 4608              		.loc 1 1315 0
 4609 0046 0360     		str	r3, [r0]
 4610              	.LBE166:
 4611              	.LBE165:
 4612              		.loc 1 1318 0
 4613 0048 F0BC     		pop	{r4, r5, r6, r7}
 4614              		.cfi_remember_state
 4615              		.cfi_restore 7
 4616              		.cfi_restore 6
 4617              		.cfi_restore 5
 4618              		.cfi_restore 4
 4619              		.cfi_def_cfa_offset 0
 4620              	.LBB170:
 4621              	.LBB167:
 4622              		.loc 1 1315 0
 4623 004a 0020     		movs	r0, #0
 4624              	.LVL592:
 4625              	.LBE167:
 4626              	.LBE170:
 4627              		.loc 1 1318 0
 4628 004c 7047     		bx	lr
 4629              	.LVL593:
 4630              	.L543:
 4631              		.cfi_restore_state
 4632              	.LBB171:
 4633              	.LBB168:
 4634              		.loc 1 1312 0
 4635 004e 002B     		cmp	r3, #0
 4636 0050 F9D0     		beq	.L530
 4637              		.loc 1 1313 0
 4638 0052 D31A     		subs	r3, r2, r3
ARM GAS  C:\Users\jo\AppData\Local\Temp\ccxFvVJt.s 			page 83


 4639              	.LVL594:
 4640 0054 F7E7     		b	.L530
 4641              	.LVL595:
 4642              	.L541:
 4643              		.cfi_def_cfa_offset 0
 4644              		.cfi_restore 4
 4645              		.cfi_restore 5
 4646              		.cfi_restore 6
 4647              		.cfi_restore 7
 4648              	.LBE168:
 4649              	.LBE171:
 4650              		.loc 1 1282 0
 4651 0056 0023     		movs	r3, #0
 4652 0058 0360     		str	r3, [r0]
 4653              		.loc 1 1283 0
 4654 005a 1846     		mov	r0, r3
 4655              	.LVL596:
 4656 005c 7047     		bx	lr
 4657              	.LVL597:
 4658              	.L542:
 4659              		.loc 1 1288 0
 4660 005e 8B68     		ldr	r3, [r1, #8]
 4661 0060 1B68     		ldr	r3, [r3]
 4662 0062 03F00103 		and	r3, r3, #1
 4663 0066 0360     		str	r3, [r0]
 4664              		.loc 1 1289 0
 4665 0068 0020     		movs	r0, #0
 4666              	.LVL598:
 4667 006a 7047     		bx	lr
 4668              	.LVL599:
 4669              	.L528:
 4670              		.cfi_def_cfa_offset 16
 4671              		.cfi_offset 4, -16
 4672              		.cfi_offset 5, -12
 4673              		.cfi_offset 6, -8
 4674              		.cfi_offset 7, -4
 4675              	.LBB172:
 4676              	.LBB169:
 4677              		.loc 1 1312 0
 4678 006c 3346     		mov	r3, r6
 4679 006e EAE7     		b	.L530
 4680              	.LVL600:
 4681              	.L531:
 4682              		.cfi_def_cfa_offset 0
 4683              		.cfi_restore 4
 4684              		.cfi_restore 5
 4685              		.cfi_restore 6
 4686              		.cfi_restore 7
 4687              	.LBE169:
 4688              	.LBE172:
 4689              		.loc 1 1272 0
 4690 0070 6FF00B00 		mvn	r0, #11
 4691              	.LVL601:
 4692              		.loc 1 1318 0
 4693 0074 7047     		bx	lr
 4694              	.LVL602:
 4695              	.L532:
ARM GAS  C:\Users\jo\AppData\Local\Temp\ccxFvVJt.s 			page 84


 4696              		.loc 1 1275 0
 4697 0076 6FF00900 		mvn	r0, #9
 4698              	.LVL603:
 4699 007a 7047     		bx	lr
 4700              		.cfi_endproc
 4701              	.LFE37:
 4702              		.size	mpi_mod_int, .-mpi_mod_int
 4703 007c AFF30080 		.section	.text.mpi_write_hlp,"ax",%progbits
 4704              		.align	2
 4705              		.p2align 4,,15
 4706              		.thumb
 4707              		.thumb_func
 4708              		.type	mpi_write_hlp, %function
 4709              	mpi_write_hlp:
 4710              	.LFB13:
 4711              		.loc 1 342 0
 4712              		.cfi_startproc
 4713              		@ args = 0, pretend = 0, frame = 8
 4714              		@ frame_needed = 0, uses_anonymous_args = 0
 4715              	.LVL604:
 4716              		.loc 1 346 0
 4717 0000 8B1E     		subs	r3, r1, #2
 4718 0002 0E2B     		cmp	r3, #14
 4719 0004 23D8     		bhi	.L550
 4720              		.loc 1 342 0
 4721 0006 70B5     		push	{r4, r5, r6, lr}
 4722              		.cfi_def_cfa_offset 16
 4723              		.cfi_offset 4, -16
 4724              		.cfi_offset 5, -12
 4725              		.cfi_offset 6, -8
 4726              		.cfi_offset 14, -4
 4727 0008 0546     		mov	r5, r0
 4728 000a 82B0     		sub	sp, sp, #8
 4729              		.cfi_def_cfa_offset 24
 4730 000c 0C46     		mov	r4, r1
 4731 000e 1646     		mov	r6, r2
 4732              		.loc 1 349 0
 4733 0010 01A8     		add	r0, sp, #4
 4734              	.LVL605:
 4735 0012 2946     		mov	r1, r5
 4736              	.LVL606:
 4737 0014 2246     		mov	r2, r4
 4738              	.LVL607:
 4739 0016 FFF7FEFF 		bl	mpi_mod_int
 4740              	.LVL608:
 4741 001a 08B1     		cbz	r0, .L558
 4742              	.LVL609:
 4743              	.L545:
 4744              		.loc 1 363 0
 4745 001c 02B0     		add	sp, sp, #8
 4746              		.cfi_remember_state
 4747              		.cfi_def_cfa_offset 16
 4748              		@ sp needed
 4749 001e 70BD     		pop	{r4, r5, r6, pc}
 4750              	.LVL610:
 4751              	.L558:
 4752              		.cfi_restore_state
ARM GAS  C:\Users\jo\AppData\Local\Temp\ccxFvVJt.s 			page 85


 4753              		.loc 1 350 0
 4754 0020 0146     		mov	r1, r0
 4755 0022 2A46     		mov	r2, r5
 4756 0024 2846     		mov	r0, r5
 4757              	.LVL611:
 4758 0026 2346     		mov	r3, r4
 4759 0028 FFF7FEFF 		bl	mpi_div_int
 4760              	.LVL612:
 4761 002c 0028     		cmp	r0, #0
 4762 002e F5D1     		bne	.L545
 4763              		.loc 1 352 0
 4764 0030 0146     		mov	r1, r0
 4765 0032 2846     		mov	r0, r5
 4766              	.LVL613:
 4767 0034 FFF7FEFF 		bl	mpi_cmp_int
 4768              	.LVL614:
 4769 0038 98B9     		cbnz	r0, .L546
 4770              	.L549:
 4771              	.LVL615:
 4772              		.loc 1 355 0
 4773 003a 019B     		ldr	r3, [sp, #4]
 4774 003c 092B     		cmp	r3, #9
 4775 003e 09D8     		bhi	.L559
 4776              		.loc 1 356 0
 4777 0040 3268     		ldr	r2, [r6]
 4778 0042 3033     		adds	r3, r3, #48
 4779 0044 511C     		adds	r1, r2, #1
 4780 0046 3160     		str	r1, [r6]
 4781 0048 0020     		movs	r0, #0
 4782 004a 1370     		strb	r3, [r2]
 4783 004c E6E7     		b	.L545
 4784              	.LVL616:
 4785              	.L550:
 4786              		.cfi_def_cfa_offset 0
 4787              		.cfi_restore 4
 4788              		.cfi_restore 5
 4789              		.cfi_restore 6
 4790              		.cfi_restore 14
 4791              		.loc 1 347 0
 4792 004e 6FF00300 		mvn	r0, #3
 4793              	.LVL617:
 4794 0052 7047     		bx	lr
 4795              	.LVL618:
 4796              	.L559:
 4797              		.cfi_def_cfa_offset 24
 4798              		.cfi_offset 4, -16
 4799              		.cfi_offset 5, -12
 4800              		.cfi_offset 6, -8
 4801              		.cfi_offset 14, -4
 4802              		.loc 1 358 0
 4803 0054 3268     		ldr	r2, [r6]
 4804 0056 3733     		adds	r3, r3, #55
 4805 0058 511C     		adds	r1, r2, #1
 4806 005a 3160     		str	r1, [r6]
 4807 005c 0020     		movs	r0, #0
 4808 005e 1370     		strb	r3, [r2]
 4809 0060 DCE7     		b	.L545
ARM GAS  C:\Users\jo\AppData\Local\Temp\ccxFvVJt.s 			page 86


 4810              	.LVL619:
 4811              	.L546:
 4812              		.loc 1 353 0
 4813 0062 2846     		mov	r0, r5
 4814 0064 2146     		mov	r1, r4
 4815 0066 3246     		mov	r2, r6
 4816 0068 FFF7CAFF 		bl	mpi_write_hlp
 4817              	.LVL620:
 4818 006c 0028     		cmp	r0, #0
 4819 006e D5D1     		bne	.L545
 4820 0070 E3E7     		b	.L549
 4821              		.cfi_endproc
 4822              	.LFE13:
 4823              		.size	mpi_write_hlp, .-mpi_write_hlp
 4824 0072 00BFAFF3 		.section	.text.mpi_write_string,"ax",%progbits
 4824      0080AFF3 
 4824      0080AFF3 
 4824      0080
 4825              		.align	2
 4826              		.p2align 4,,15
 4827              		.global	mpi_write_string
 4828              		.thumb
 4829              		.thumb_func
 4830              		.type	mpi_write_string, %function
 4831              	mpi_write_string:
 4832              	.LFB14:
 4833              		.loc 1 369 0
 4834              		.cfi_startproc
 4835              		@ args = 0, pretend = 0, frame = 16
 4836              		@ frame_needed = 0, uses_anonymous_args = 0
 4837              	.LVL621:
 4838 0000 2DE9F047 		push	{r4, r5, r6, r7, r8, r9, r10, lr}
 4839              		.cfi_def_cfa_offset 32
 4840              		.cfi_offset 4, -32
 4841              		.cfi_offset 5, -28
 4842              		.cfi_offset 6, -24
 4843              		.cfi_offset 7, -20
 4844              		.cfi_offset 8, -16
 4845              		.cfi_offset 9, -12
 4846              		.cfi_offset 10, -8
 4847              		.cfi_offset 14, -4
 4848              		.loc 1 375 0
 4849 0004 8C1E     		subs	r4, r1, #2
 4850 0006 0E2C     		cmp	r4, #14
 4851              		.loc 1 369 0
 4852 0008 84B0     		sub	sp, sp, #16
 4853              		.cfi_def_cfa_offset 48
 4854              		.loc 1 375 0
 4855 000a 7BD8     		bhi	.L574
 4856 000c 0D46     		mov	r5, r1
 4857 000e 8246     		mov	r10, r0
 4858 0010 9946     		mov	r9, r3
 4859 0012 9046     		mov	r8, r2
 4860              		.loc 1 378 0
 4861 0014 FFF7FEFF 		bl	mpi_msb
 4862              	.LVL622:
 4863              		.loc 1 379 0
ARM GAS  C:\Users\jo\AppData\Local\Temp\ccxFvVJt.s 			page 87


 4864 0018 032D     		cmp	r5, #3
 4865 001a 27DC     		bgt	.L583
 4866              	.L562:
 4867              		.loc 1 383 0
 4868 001c D9F80030 		ldr	r3, [r9]
 4869              		.loc 1 381 0
 4870 0020 0330     		adds	r0, r0, #3
 4871              	.LVL623:
 4872              		.loc 1 383 0
 4873 0022 9842     		cmp	r0, r3
 4874 0024 71D8     		bhi	.L584
 4875              		.loc 1 392 0
 4876 0026 DAF80020 		ldr	r2, [r10]
 4877              		.loc 1 389 0
 4878 002a CDF80080 		str	r8, [sp]
 4879              	.LVL624:
 4880              	.LBB173:
 4881              	.LBB174:
 4882              		.loc 1 61 0
 4883 002e 0023     		movs	r3, #0
 4884              		.loc 1 60 0
 4885 0030 0121     		movs	r1, #1
 4886              	.LBE174:
 4887              	.LBE173:
 4888              		.loc 1 392 0
 4889 0032 0132     		adds	r2, r2, #1
 4890              	.LBB176:
 4891              	.LBB175:
 4892              		.loc 1 60 0
 4893 0034 0191     		str	r1, [sp, #4]
 4894              		.loc 1 61 0
 4895 0036 0293     		str	r3, [sp, #8]
 4896              		.loc 1 62 0
 4897 0038 0393     		str	r3, [sp, #12]
 4898              	.LBE175:
 4899              	.LBE176:
 4900              		.loc 1 392 0
 4901 003a 5CD0     		beq	.L585
 4902              	.L564:
 4903              		.loc 1 395 0
 4904 003c 102D     		cmp	r5, #16
 4905 003e 1AD0     		beq	.L586
 4906              		.loc 1 417 0
 4907 0040 01AE     		add	r6, sp, #4
 4908              	.LVL625:
 4909 0042 5146     		mov	r1, r10
 4910 0044 3046     		mov	r0, r6
 4911              	.LVL626:
 4912 0046 FFF7FEFF 		bl	mpi_copy
 4913              	.LVL627:
 4914 004a 0446     		mov	r4, r0
 4915 004c 0028     		cmp	r0, #0
 4916 004e 3FD1     		bne	.L567
 4917              		.loc 1 419 0
 4918 0050 019B     		ldr	r3, [sp, #4]
 4919 0052 0133     		adds	r3, r3, #1
 4920              		.loc 1 420 0
ARM GAS  C:\Users\jo\AppData\Local\Temp\ccxFvVJt.s 			page 88


 4921 0054 08BF     		it	eq
 4922 0056 0123     		moveq	r3, #1
 4923              		.loc 1 422 0
 4924 0058 2946     		mov	r1, r5
 4925 005a 3046     		mov	r0, r6
 4926              	.LVL628:
 4927 005c 6A46     		mov	r2, sp
 4928              		.loc 1 420 0
 4929 005e 08BF     		it	eq
 4930 0060 0193     		streq	r3, [sp, #4]
 4931              		.loc 1 422 0
 4932 0062 FFF7FEFF 		bl	mpi_write_hlp
 4933              	.LVL629:
 4934 0066 0446     		mov	r4, r0
 4935 0068 40B3     		cbz	r0, .L572
 4936 006a 31E0     		b	.L567
 4937              	.LVL630:
 4938              	.L583:
 4939              		.loc 1 379 0 discriminator 1
 4940 006c 4008     		lsrs	r0, r0, #1
 4941              	.LVL631:
 4942              		.loc 1 380 0 discriminator 1
 4943 006e 102D     		cmp	r5, #16
 4944 0070 08BF     		it	eq
 4945 0072 4008     		lsreq	r0, r0, #1
 4946              	.LVL632:
 4947 0074 D2E7     		b	.L562
 4948              	.LVL633:
 4949              	.L586:
 4950              	.LBB177:
 4951              		.loc 1 400 0
 4952 0076 DAF80400 		ldr	r0, [r10, #4]
 4953              	.LVL634:
 4954 007a F0B1     		cbz	r0, .L582
 4955 007c 00F18043 		add	r3, r0, #1073741824
 4956 0080 013B     		subs	r3, r3, #1
 4957              		.loc 1 409 0
 4958 0082 244A     		ldr	r2, .L587
 4959 0084 9B00     		lsls	r3, r3, #2
 4960              		.loc 1 400 0
 4961 0086 0021     		movs	r1, #0
 4962              	.LVL635:
 4963              	.L568:
 4964              	.LBE177:
 4965              		.loc 1 369 0 discriminator 1
 4966 0088 0425     		movs	r5, #4
 4967              	.LVL636:
 4968              	.L571:
 4969              	.LBB178:
 4970              		.loc 1 404 0
 4971 008a DAF80840 		ldr	r4, [r10, #8]
 4972 008e 6F1E     		subs	r7, r5, #1
 4973 0090 E458     		ldr	r4, [r4, r3]
 4974 0092 FE00     		lsls	r6, r7, #3
 4975 0094 F440     		lsrs	r4, r4, r6
 4976              	.LVL637:
 4977              		.loc 1 406 0
ARM GAS  C:\Users\jo\AppData\Local\Temp\ccxFvVJt.s 			page 89


 4978 0096 14F0FF06 		ands	r6, r4, #255
 4979              		.loc 1 409 0
 4980 009a 4FEA2616 		asr	r6, r6, #4
 4981              		.loc 1 410 0
 4982 009e 04F00F04 		and	r4, r4, #15
 4983              	.LVL638:
 4984              		.loc 1 406 0
 4985 00a2 1CD1     		bne	.L569
 4986 00a4 0544     		add	r5, r5, r0
 4987              	.LVL639:
 4988              		.loc 1 406 0 is_stmt 0 discriminator 1
 4989 00a6 D1B9     		cbnz	r1, .L569
 4990              		.loc 1 406 0 discriminator 2
 4991 00a8 0335     		adds	r5, r5, #3
 4992 00aa 18D0     		beq	.L569
 4993              	.LVL640:
 4994              	.L570:
 4995 00ac 3D46     		mov	r5, r7
 4996              		.loc 1 402 0 is_stmt 1 discriminator 1
 4997 00ae 002F     		cmp	r7, #0
 4998 00b0 EBD1     		bne	.L571
 4999              	.LVL641:
 5000              		.loc 1 400 0 discriminator 2
 5001 00b2 0138     		subs	r0, r0, #1
 5002              	.LVL642:
 5003 00b4 A3F10403 		sub	r3, r3, #4
 5004 00b8 E6D1     		bne	.L568
 5005              	.LVL643:
 5006              	.L582:
 5007 00ba 01AE     		add	r6, sp, #4
 5008              	.LVL644:
 5009              	.L572:
 5010              	.LBE178:
 5011              		.loc 1 425 0
 5012 00bc 009B     		ldr	r3, [sp]
 5013 00be 0024     		movs	r4, #0
 5014 00c0 5A1C     		adds	r2, r3, #1
 5015 00c2 0092     		str	r2, [sp]
 5016 00c4 1C70     		strb	r4, [r3]
 5017              		.loc 1 426 0
 5018 00c6 009B     		ldr	r3, [sp]
 5019 00c8 C8EB0303 		rsb	r3, r8, r3
 5020 00cc C9F80030 		str	r3, [r9]
 5021              	.LVL645:
 5022              	.L567:
 5023              		.loc 1 430 0
 5024 00d0 3046     		mov	r0, r6
 5025 00d2 FFF7FEFF 		bl	mpi_free
 5026              	.LVL646:
 5027              		.loc 1 432 0
 5028 00d6 2046     		mov	r0, r4
 5029              	.LVL647:
 5030              	.L561:
 5031              		.loc 1 433 0
 5032 00d8 04B0     		add	sp, sp, #16
 5033              		.cfi_remember_state
 5034              		.cfi_def_cfa_offset 32
ARM GAS  C:\Users\jo\AppData\Local\Temp\ccxFvVJt.s 			page 90


 5035              		@ sp needed
 5036 00da BDE8F087 		pop	{r4, r5, r6, r7, r8, r9, r10, pc}
 5037              	.LVL648:
 5038              	.L569:
 5039              		.cfi_restore_state
 5040              	.LBB179:
 5041              		.loc 1 409 0
 5042 00de 0099     		ldr	r1, [sp]
 5043              	.LVL649:
 5044              		.loc 1 410 0
 5045 00e0 155D     		ldrb	r5, [r2, r4]	@ zero_extendqisi2
 5046              		.loc 1 409 0
 5047 00e2 965D     		ldrb	r6, [r2, r6]	@ zero_extendqisi2
 5048 00e4 4C1C     		adds	r4, r1, #1
 5049 00e6 0094     		str	r4, [sp]
 5050 00e8 0E70     		strb	r6, [r1]
 5051              	.LVL650:
 5052              		.loc 1 410 0
 5053 00ea 009C     		ldr	r4, [sp]
 5054 00ec 611C     		adds	r1, r4, #1
 5055 00ee 0091     		str	r1, [sp]
 5056              		.loc 1 411 0
 5057 00f0 0121     		movs	r1, #1
 5058              		.loc 1 410 0
 5059 00f2 2570     		strb	r5, [r4]
 5060              	.LVL651:
 5061 00f4 DAE7     		b	.L570
 5062              	.LVL652:
 5063              	.L585:
 5064              	.LBE179:
 5065              		.loc 1 393 0
 5066 00f6 08EB0102 		add	r2, r8, r1
 5067 00fa 2D23     		movs	r3, #45
 5068 00fc 0092     		str	r2, [sp]
 5069 00fe 88F80030 		strb	r3, [r8]
 5070 0102 9BE7     		b	.L564
 5071              	.LVL653:
 5072              	.L574:
 5073              		.loc 1 376 0
 5074 0104 6FF00300 		mvn	r0, #3
 5075              	.LVL654:
 5076 0108 E6E7     		b	.L561
 5077              	.LVL655:
 5078              	.L584:
 5079              		.loc 1 385 0
 5080 010a C9F80000 		str	r0, [r9]
 5081              		.loc 1 386 0
 5082 010e 6FF00700 		mvn	r0, #7
 5083              	.LVL656:
 5084 0112 E1E7     		b	.L561
 5085              	.L588:
 5086              		.align	2
 5087              	.L587:
 5088 0114 00000000 		.word	.LC0
 5089              		.cfi_endproc
 5090              	.LFE14:
 5091              		.size	mpi_write_string, .-mpi_write_string
ARM GAS  C:\Users\jo\AppData\Local\Temp\ccxFvVJt.s 			page 91


 5092 0118 AFF30080 		.section	.text.mpi_write_file,"ax",%progbits
 5092      AFF30080 
 5093              		.align	2
 5094              		.p2align 4,,15
 5095              		.global	mpi_write_file
 5096              		.thumb
 5097              		.thumb_func
 5098              		.type	mpi_write_file, %function
 5099              	mpi_write_file:
 5100              	.LFB16:
 5101              		.loc 1 473 0
 5102              		.cfi_startproc
 5103              		@ args = 0, pretend = 0, frame = 1256
 5104              		@ frame_needed = 0, uses_anonymous_args = 0
 5105              	.LVL657:
 5106 0000 F0B5     		push	{r4, r5, r6, r7, lr}
 5107              		.cfi_def_cfa_offset 20
 5108              		.cfi_offset 4, -20
 5109              		.cfi_offset 5, -16
 5110              		.cfi_offset 6, -12
 5111              		.cfi_offset 7, -8
 5112              		.cfi_offset 14, -4
 5113 0002 ADF2EC4D 		subw	sp, sp, #1260
 5114              		.cfi_def_cfa_offset 1280
 5115              		.loc 1 473 0
 5116 0006 1446     		mov	r4, r2
 5117 0008 0F46     		mov	r7, r1
 5118              		.loc 1 483 0
 5119 000a 40F2E242 		movw	r2, #1250
 5120              	.LVL658:
 5121 000e 0021     		movs	r1, #0
 5122              	.LVL659:
 5123              		.loc 1 473 0
 5124 0010 0546     		mov	r5, r0
 5125              		.loc 1 483 0
 5126 0012 01A8     		add	r0, sp, #4
 5127              	.LVL660:
 5128              		.loc 1 473 0
 5129 0014 1E46     		mov	r6, r3
 5130              		.loc 1 483 0
 5131 0016 FFF7FEFF 		bl	memset
 5132              	.LVL661:
 5133              		.loc 1 486 0
 5134 001a 2146     		mov	r1, r4
 5135 001c 3846     		mov	r0, r7
 5136              		.loc 1 484 0
 5137 001e 4FF49C64 		mov	r4, #1248
 5138              	.LVL662:
 5139              		.loc 1 486 0
 5140 0022 01AA     		add	r2, sp, #4
 5141 0024 6B46     		mov	r3, sp
 5142              		.loc 1 484 0
 5143 0026 0094     		str	r4, [sp]
 5144              		.loc 1 486 0
 5145 0028 FFF7FEFF 		bl	mpi_write_string
 5146              	.LVL663:
 5147 002c 10BB     		cbnz	r0, .L590
ARM GAS  C:\Users\jo\AppData\Local\Temp\ccxFvVJt.s 			page 92


 5148              		.loc 1 488 0
 5149 002e 25B3     		cbz	r5, .L596
 5150 0030 2846     		mov	r0, r5
 5151              	.LVL664:
 5152 0032 FFF7FEFF 		bl	strlen
 5153              	.LVL665:
 5154 0036 0746     		mov	r7, r0
 5155              	.LVL666:
 5156              	.L591:
 5157              		.loc 1 491 0
 5158 0038 01A8     		add	r0, sp, #4
 5159 003a FFF7FEFF 		bl	strlen
 5160              	.LVL667:
 5161              		.loc 1 493 0
 5162 003e 01AB     		add	r3, sp, #4
 5163              		.loc 1 491 0
 5164 0040 0446     		mov	r4, r0
 5165              	.LVL668:
 5166              		.loc 1 493 0
 5167 0042 0344     		add	r3, r3, r0
 5168              		.loc 1 492 0
 5169 0044 01A8     		add	r0, sp, #4
 5170              	.LVL669:
 5171 0046 0D21     		movs	r1, #13
 5172              		.loc 1 493 0
 5173 0048 0A22     		movs	r2, #10
 5174              		.loc 1 492 0
 5175 004a 0155     		strb	r1, [r0, r4]
 5176              	.LVL670:
 5177              		.loc 1 493 0
 5178 004c 5A70     		strb	r2, [r3, #1]
 5179              		.loc 1 495 0
 5180 004e E6B1     		cbz	r6, .L592
 5181              		.loc 1 497 0
 5182 0050 2846     		mov	r0, r5
 5183 0052 0121     		movs	r1, #1
 5184 0054 3A46     		mov	r2, r7
 5185 0056 3346     		mov	r3, r6
 5186 0058 FFF7FEFF 		bl	fwrite
 5187              	.LVL671:
 5188 005c 8742     		cmp	r7, r0
 5189 005e 0FD1     		bne	.L594
 5190              		.loc 1 493 0 discriminator 1
 5191 0060 0234     		adds	r4, r4, #2
 5192              	.LVL672:
 5193              		.loc 1 498 0 discriminator 1
 5194 0062 01A8     		add	r0, sp, #4
 5195 0064 3346     		mov	r3, r6
 5196 0066 2246     		mov	r2, r4
 5197 0068 0121     		movs	r1, #1
 5198 006a FFF7FEFF 		bl	fwrite
 5199              	.LVL673:
 5200              		.loc 1 497 0 discriminator 1
 5201 006e A042     		cmp	r0, r4
 5202 0070 06D1     		bne	.L594
 5203 0072 0020     		movs	r0, #0
 5204              	.LVL674:
ARM GAS  C:\Users\jo\AppData\Local\Temp\ccxFvVJt.s 			page 93


 5205              	.L590:
 5206              		.loc 1 507 0
 5207 0074 0DF2EC4D 		addw	sp, sp, #1260
 5208              		.cfi_remember_state
 5209              		.cfi_def_cfa_offset 20
 5210              		@ sp needed
 5211 0078 F0BD     		pop	{r4, r5, r6, r7, pc}
 5212              	.LVL675:
 5213              	.L596:
 5214              		.cfi_restore_state
 5215 007a 2F46     		mov	r7, r5
 5216              	.LVL676:
 5217              		.loc 1 488 0
 5218 007c 064D     		ldr	r5, .L598
 5219              	.LVL677:
 5220 007e DBE7     		b	.L591
 5221              	.LVL678:
 5222              	.L594:
 5223              		.loc 1 499 0
 5224 0080 6FF00100 		mvn	r0, #1
 5225              		.loc 1 507 0
 5226 0084 0DF2EC4D 		addw	sp, sp, #1260
 5227              		.cfi_remember_state
 5228              		.cfi_def_cfa_offset 20
 5229              		@ sp needed
 5230 0088 F0BD     		pop	{r4, r5, r6, r7, pc}
 5231              	.LVL679:
 5232              	.L592:
 5233              		.cfi_restore_state
 5234              		.loc 1 502 0
 5235 008a 2946     		mov	r1, r5
 5236 008c 01AA     		add	r2, sp, #4
 5237 008e 0348     		ldr	r0, .L598+4
 5238 0090 FFF7FEFF 		bl	printf
 5239              	.LVL680:
 5240 0094 3046     		mov	r0, r6
 5241 0096 EDE7     		b	.L590
 5242              	.L599:
 5243              		.align	2
 5244              	.L598:
 5245 0098 14000000 		.word	.LC1
 5246 009c 18000000 		.word	.LC2
 5247              		.cfi_endproc
 5248              	.LFE16:
 5249              		.size	mpi_write_file, .-mpi_write_file
 5250              		.section	.text.mpi_exp_mod,"ax",%progbits
 5251              		.align	2
 5252              		.p2align 4,,15
 5253              		.global	mpi_exp_mod
 5254              		.thumb
 5255              		.thumb_func
 5256              		.type	mpi_exp_mod, %function
 5257              	mpi_exp_mod:
 5258              	.LFB41:
 5259              		.loc 1 1393 0
 5260              		.cfi_startproc
 5261              		@ args = 4, pretend = 0, frame = 1640
ARM GAS  C:\Users\jo\AppData\Local\Temp\ccxFvVJt.s 			page 94


 5262              		@ frame_needed = 0, uses_anonymous_args = 0
 5263              	.LVL681:
 5264 0000 2DE9F04F 		push	{r4, r5, r6, r7, r8, r9, r10, fp, lr}
 5265              		.cfi_def_cfa_offset 36
 5266              		.cfi_offset 4, -36
 5267              		.cfi_offset 5, -32
 5268              		.cfi_offset 6, -28
 5269              		.cfi_offset 7, -24
 5270              		.cfi_offset 8, -20
 5271              		.cfi_offset 9, -16
 5272              		.cfi_offset 10, -12
 5273              		.cfi_offset 11, -8
 5274              		.cfi_offset 14, -4
 5275 0004 ADF27C6D 		subw	sp, sp, #1660
 5276              		.cfi_def_cfa_offset 1696
 5277              		.loc 1 1393 0
 5278 0008 8146     		mov	r9, r0
 5279 000a 0691     		str	r1, [sp, #24]
 5280              		.loc 1 1402 0
 5281 000c 1846     		mov	r0, r3
 5282              	.LVL682:
 5283 000e 0021     		movs	r1, #0
 5284              	.LVL683:
 5285              		.loc 1 1393 0
 5286 0010 1E46     		mov	r6, r3
 5287 0012 9046     		mov	r8, r2
 5288              		.loc 1 1402 0
 5289 0014 FFF7FEFF 		bl	mpi_cmp_int
 5290              	.LVL684:
 5291 0018 0028     		cmp	r0, #0
 5292 001a C0F23281 		blt	.L631
 5293              		.loc 1 1402 0 is_stmt 0 discriminator 1
 5294 001e B368     		ldr	r3, [r6, #8]
 5295 0020 D3F800A0 		ldr	r10, [r3]
 5296 0024 1AF0010F 		tst	r10, #1
 5297 0028 00F02B81 		beq	.L631
 5298              		.loc 1 1405 0 is_stmt 1
 5299 002c 4046     		mov	r0, r8
 5300 002e 0021     		movs	r1, #0
 5301 0030 FFF7FEFF 		bl	mpi_cmp_int
 5302              	.LVL685:
 5303 0034 0028     		cmp	r0, #0
 5304 0036 C0F22481 		blt	.L631
 5305              	.LVL686:
 5306              	.LBB192:
 5307              	.LBB193:
 5308              		.loc 1 61 0
 5309 003a 0024     		movs	r4, #0
 5310              		.loc 1 60 0
 5311 003c 0125     		movs	r5, #1
 5312              	.LBE193:
 5313              	.LBE192:
 5314              		.loc 1 1413 0
 5315 003e 2146     		mov	r1, r4
 5316 0040 4FF4C062 		mov	r2, #1536
 5317 0044 1EA8     		add	r0, sp, #120
 5318              	.LBB195:
ARM GAS  C:\Users\jo\AppData\Local\Temp\ccxFvVJt.s 			page 95


 5319              	.LBB194:
 5320              		.loc 1 60 0
 5321 0046 1295     		str	r5, [sp, #72]
 5322              		.loc 1 61 0
 5323 0048 1394     		str	r4, [sp, #76]
 5324              		.loc 1 62 0
 5325 004a 1494     		str	r4, [sp, #80]
 5326              	.LVL687:
 5327              	.LBE194:
 5328              	.LBE195:
 5329              	.LBB196:
 5330              	.LBB197:
 5331              		.loc 1 60 0
 5332 004c 1595     		str	r5, [sp, #84]
 5333              		.loc 1 61 0
 5334 004e 1694     		str	r4, [sp, #88]
 5335              		.loc 1 62 0
 5336 0050 1794     		str	r4, [sp, #92]
 5337              	.LBE197:
 5338              	.LBE196:
 5339              		.loc 1 1413 0
 5340 0052 FFF7FEFF 		bl	memset
 5341              	.LVL688:
 5342              		.loc 1 1415 0
 5343 0056 4046     		mov	r0, r8
 5344 0058 FFF7FEFF 		bl	mpi_msb
 5345              	.LVL689:
 5346              		.loc 1 1417 0
 5347 005c B0F5287F 		cmp	r0, #672
 5348 0060 34D3     		bcc	.L674
 5349 0062 0523     		movs	r3, #5
 5350 0064 0893     		str	r3, [sp, #32]
 5351 0066 4023     		movs	r3, #64
 5352 0068 0493     		str	r3, [sp, #16]
 5353 006a 0623     		movs	r3, #6
 5354 006c 4FF0200B 		mov	fp, #32
 5355 0070 0793     		str	r3, [sp, #28]
 5356              	.L602:
 5357              	.LVL690:
 5358              		.loc 1 1423 0
 5359 0072 7768     		ldr	r7, [r6, #4]
 5360 0074 0137     		adds	r7, r7, #1
 5361              	.LVL691:
 5362              		.loc 1 1424 0
 5363 0076 3946     		mov	r1, r7
 5364 0078 4846     		mov	r0, r9
 5365              	.LVL692:
 5366 007a FFF7FEFF 		bl	mpi_grow
 5367              	.LVL693:
 5368 007e 21AB     		add	r3, sp, #132
 5369 0080 0546     		mov	r5, r0
 5370 0082 0593     		str	r3, [sp, #20]
 5371 0084 78B3     		cbz	r0, .L669
 5372 0086 18AF     		add	r7, sp, #96
 5373              	.LVL694:
 5374              	.L627:
 5375 0088 0BEB4B06 		add	r6, fp, fp, lsl #1
ARM GAS  C:\Users\jo\AppData\Local\Temp\ccxFvVJt.s 			page 96


 5376 008c 1EAB     		add	r3, sp, #120
 5377 008e 049C     		ldr	r4, [sp, #16]
 5378 0090 03EB8606 		add	r6, r3, r6, lsl #2
 5379              	.L626:
 5380              		.loc 1 1585 0 discriminator 3
 5381 0094 3046     		mov	r0, r6
 5382              		.loc 1 1584 0 discriminator 3
 5383 0096 0BF1010B 		add	fp, fp, #1
 5384              	.LVL695:
 5385              		.loc 1 1585 0 discriminator 3
 5386 009a FFF7FEFF 		bl	mpi_free
 5387              	.LVL696:
 5388              		.loc 1 1584 0 discriminator 3
 5389 009e 5C45     		cmp	r4, fp
 5390 00a0 06F10C06 		add	r6, r6, #12
 5391 00a4 F6D8     		bhi	.L626
 5392              	.L625:
 5393              		.loc 1 1587 0
 5394 00a6 0598     		ldr	r0, [sp, #20]
 5395 00a8 FFF7FEFF 		bl	mpi_free
 5396              	.LVL697:
 5397 00ac 15A8     		add	r0, sp, #84
 5398              	.LVL698:
 5399 00ae FFF7FEFF 		bl	mpi_free
 5400              	.LVL699:
 5401 00b2 3846     		mov	r0, r7
 5402 00b4 FFF7FEFF 		bl	mpi_free
 5403              	.LVL700:
 5404              		.loc 1 1589 0
 5405 00b8 DDF8A036 		ldr	r3, [sp, #1696]
 5406 00bc 2846     		mov	r0, r5
 5407 00be 002B     		cmp	r3, #0
 5408 00c0 00F0E280 		beq	.L675
 5409              	.LVL701:
 5410              	.L668:
 5411              		.loc 1 1593 0
 5412 00c4 0DF27C6D 		addw	sp, sp, #1660
 5413              		.cfi_remember_state
 5414              		.cfi_def_cfa_offset 36
 5415              		@ sp needed
 5416 00c8 BDE8F08F 		pop	{r4, r5, r6, r7, r8, r9, r10, fp, pc}
 5417              	.LVL702:
 5418              	.L674:
 5419              		.cfi_restore_state
 5420              		.loc 1 1417 0 discriminator 1
 5421 00cc EF28     		cmp	r0, #239
 5422 00ce 15D8     		bhi	.L633
 5423              		.loc 1 1417 0 is_stmt 0 discriminator 3
 5424 00d0 4F28     		cmp	r0, #79
 5425 00d2 1CD8     		bhi	.L634
 5426              		.loc 1 1417 0 discriminator 5
 5427 00d4 1728     		cmp	r0, #23
 5428 00d6 00F2DC80 		bhi	.L635
 5429              		.loc 1 1417 0
 5430 00da 0223     		movs	r3, #2
 5431 00dc AB46     		mov	fp, r5
 5432 00de 0894     		str	r4, [sp, #32]
ARM GAS  C:\Users\jo\AppData\Local\Temp\ccxFvVJt.s 			page 97


 5433 00e0 0795     		str	r5, [sp, #28]
 5434 00e2 0493     		str	r3, [sp, #16]
 5435 00e4 C5E7     		b	.L602
 5436              	.LVL703:
 5437              	.L669:
 5438              		.loc 1 1425 0 is_stmt 1
 5439 00e6 1846     		mov	r0, r3
 5440              	.LVL704:
 5441 00e8 3946     		mov	r1, r7
 5442 00ea FFF7FEFF 		bl	mpi_grow
 5443              	.LVL705:
 5444 00ee 0546     		mov	r5, r0
 5445 00f0 B0B1     		cbz	r0, .L676
 5446              	.L672:
 5447 00f2 18AF     		add	r7, sp, #96
 5448              	.LVL706:
 5449              	.L603:
 5450              		.loc 1 1584 0
 5451 00f4 049B     		ldr	r3, [sp, #16]
 5452 00f6 5B45     		cmp	r3, fp
 5453 00f8 C6D8     		bhi	.L627
 5454 00fa D4E7     		b	.L625
 5455              	.LVL707:
 5456              	.L633:
 5457 00fc 0423     		movs	r3, #4
 5458 00fe 0893     		str	r3, [sp, #32]
 5459 0100 2023     		movs	r3, #32
 5460 0102 0493     		str	r3, [sp, #16]
 5461              		.loc 1 1417 0
 5462 0104 0523     		movs	r3, #5
 5463 0106 4FF0100B 		mov	fp, #16
 5464 010a 0793     		str	r3, [sp, #28]
 5465 010c B1E7     		b	.L602
 5466              	.L634:
 5467 010e 0323     		movs	r3, #3
 5468 0110 0893     		str	r3, [sp, #32]
 5469 0112 1023     		movs	r3, #16
 5470 0114 0493     		str	r3, [sp, #16]
 5471 0116 0423     		movs	r3, #4
 5472 0118 4FF0080B 		mov	fp, #8
 5473 011c 0793     		str	r3, [sp, #28]
 5474 011e A8E7     		b	.L602
 5475              	.LVL708:
 5476              	.L676:
 5477              		.loc 1 1426 0
 5478 0120 7900     		lsls	r1, r7, #1
 5479 0122 15A8     		add	r0, sp, #84
 5480              	.LVL709:
 5481 0124 FFF7FEFF 		bl	mpi_grow
 5482              	.LVL710:
 5483 0128 0546     		mov	r5, r0
 5484 012a 0028     		cmp	r0, #0
 5485 012c E1D1     		bne	.L672
 5486              		.loc 1 1431 0
 5487 012e 069B     		ldr	r3, [sp, #24]
 5488              	.LBB198:
 5489              	.LBB199:
ARM GAS  C:\Users\jo\AppData\Local\Temp\ccxFvVJt.s 			page 98


 5490              		.loc 1 61 0
 5491 0130 1990     		str	r0, [sp, #100]
 5492              	.LBE199:
 5493              	.LBE198:
 5494              		.loc 1 1431 0
 5495 0132 1B68     		ldr	r3, [r3]
 5496              	.LBB202:
 5497              	.LBB200:
 5498              		.loc 1 62 0
 5499 0134 1A90     		str	r0, [sp, #104]
 5500              		.loc 1 60 0
 5501 0136 18AF     		add	r7, sp, #96
 5502              	.LVL711:
 5503              	.LBE200:
 5504              	.LBE202:
 5505              		.loc 1 1431 0
 5506 0138 A3F1FF33 		sub	r3, r3, #-1
 5507 013c B3FA83F3 		clz	r3, r3
 5508 0140 5B09     		lsrs	r3, r3, #5
 5509 0142 1A46     		mov	r2, r3
 5510 0144 0A93     		str	r3, [sp, #40]
 5511              	.LVL712:
 5512              	.LBB203:
 5513              	.LBB201:
 5514              		.loc 1 60 0
 5515 0146 0123     		movs	r3, #1
 5516 0148 3B60     		str	r3, [r7]
 5517              	.LBE201:
 5518              	.LBE203:
 5519              		.loc 1 1434 0
 5520 014a 002A     		cmp	r2, #0
 5521 014c 40F00B81 		bne	.L677
 5522              	.LVL713:
 5523              	.L604:
 5524              		.loc 1 1444 0
 5525 0150 DDF8A036 		ldr	r3, [sp, #1696]
 5526 0154 002B     		cmp	r3, #0
 5527 0156 00F0DF80 		beq	.L605
 5528              		.loc 1 1444 0 is_stmt 0 discriminator 1
 5529 015a 9B68     		ldr	r3, [r3, #8]
 5530 015c 002B     		cmp	r3, #0
 5531 015e 00F0DB80 		beq	.L605
 5532              		.loc 1 1454 0 is_stmt 1
 5533 0162 DDF8A036 		ldr	r3, [sp, #1696]
 5534 0166 1868     		ldr	r0, [r3]	@ unaligned
 5535              	.LVL714:
 5536 0168 5968     		ldr	r1, [r3, #4]	@ unaligned
 5537 016a 9A68     		ldr	r2, [r3, #8]	@ unaligned
 5538 016c 12AB     		add	r3, sp, #72
 5539              	.LVL715:
 5540 016e 07C3     		stmia	r3!, {r0, r1, r2}
 5541              	.LVL716:
 5542              	.L607:
 5543              		.loc 1 1459 0
 5544 0170 069C     		ldr	r4, [sp, #24]
 5545 0172 3146     		mov	r1, r6
 5546 0174 2046     		mov	r0, r4
ARM GAS  C:\Users\jo\AppData\Local\Temp\ccxFvVJt.s 			page 99


 5547 0176 FFF7FEFF 		bl	mpi_cmp_mpi
 5548              	.LVL717:
 5549 017a 0028     		cmp	r0, #0
 5550 017c C0F20081 		blt	.L608
 5551              		.loc 1 1460 0
 5552 0180 2146     		mov	r1, r4
 5553 0182 0598     		ldr	r0, [sp, #20]
 5554 0184 3246     		mov	r2, r6
 5555 0186 FFF7FEFF 		bl	mpi_mod_mpi
 5556              	.LVL718:
 5557              	.L609:
 5558              	.LBB204:
 5559              	.LBB205:
 5560              		.loc 1 1328 0
 5561 018a 0AF10203 		add	r3, r10, #2
 5562 018e 03F00403 		and	r3, r3, #4
 5563 0192 0AEB4303 		add	r3, r10, r3, lsl #1
 5564              		.loc 1 1329 0
 5565 0196 0AFB03F2 		mul	r2, r10, r3
 5566 019a C2F10202 		rsb	r2, r2, #2
 5567 019e 03FB02F3 		mul	r3, r3, r2
 5568              		.loc 1 1331 0
 5569 01a2 0AFB03F2 		mul	r2, r10, r3
 5570 01a6 C2F10202 		rsb	r2, r2, #2
 5571 01aa 03FB02F3 		mul	r3, r3, r2
 5572              		.loc 1 1332 0
 5573 01ae 0AFB03F2 		mul	r2, r10, r3
 5574 01b2 023A     		subs	r2, r2, #2
 5575              		.loc 1 1335 0
 5576 01b4 02FB03F3 		mul	r3, r2, r3
 5577 01b8 1A46     		mov	r2, r3
 5578 01ba 0693     		str	r3, [sp, #24]
 5579              	.LVL719:
 5580              	.LBE205:
 5581              	.LBE204:
 5582              		.loc 1 1463 0
 5583 01bc 169B     		ldr	r3, [sp, #88]
 5584 01be 0598     		ldr	r0, [sp, #20]
 5585 01c0 8DE80C00 		stmia	sp, {r2, r3}
 5586 01c4 17AB     		add	r3, sp, #92
 5587 01c6 0293     		str	r3, [sp, #8]
 5588 01c8 13A9     		add	r1, sp, #76
 5589 01ca 14AA     		add	r2, sp, #80
 5590 01cc 3346     		mov	r3, r6
 5591 01ce FFF7FEFF 		bl	mpi_montmul.isra.2
 5592              	.LVL720:
 5593              		.loc 1 1468 0
 5594 01d2 4846     		mov	r0, r9
 5595 01d4 12A9     		add	r1, sp, #72
 5596              	.LVL721:
 5597 01d6 FFF7FEFF 		bl	mpi_copy
 5598              	.LVL722:
 5599 01da 0546     		mov	r5, r0
 5600 01dc 0028     		cmp	r0, #0
 5601 01de 89D1     		bne	.L603
 5602              	.LVL723:
 5603              	.LBB206:
ARM GAS  C:\Users\jo\AppData\Local\Temp\ccxFvVJt.s 			page 100


 5604              	.LBB207:
 5605              		.loc 1 1386 0
 5606 01e0 069A     		ldr	r2, [sp, #24]
 5607 01e2 169B     		ldr	r3, [sp, #88]
 5608 01e4 0092     		str	r2, [sp]
 5609 01e6 17AA     		add	r2, sp, #92
 5610              		.loc 1 1380 0
 5611 01e8 4FF0010E 		mov	lr, #1
 5612              		.loc 1 1386 0
 5613 01ec 0292     		str	r2, [sp, #8]
 5614 01ee 0193     		str	r3, [sp, #4]
 5615 01f0 1CA9     		add	r1, sp, #112
 5616 01f2 3346     		mov	r3, r6
 5617 01f4 1DAA     		add	r2, sp, #116
 5618 01f6 4846     		mov	r0, r9
 5619              	.LVL724:
 5620              		.loc 1 1384 0
 5621 01f8 11AC     		add	r4, sp, #68
 5622              		.loc 1 1380 0
 5623 01fa CDF844E0 		str	lr, [sp, #68]
 5624              		.loc 1 1383 0
 5625 01fe CDF86CE0 		str	lr, [sp, #108]
 5626 0202 CDF870E0 		str	lr, [sp, #112]
 5627              		.loc 1 1384 0
 5628 0206 1D94     		str	r4, [sp, #116]
 5629              		.loc 1 1386 0
 5630 0208 FFF7FEFF 		bl	mpi_montmul.isra.2
 5631              	.LVL725:
 5632              	.LBE207:
 5633              	.LBE206:
 5634              		.loc 1 1471 0
 5635 020c 079B     		ldr	r3, [sp, #28]
 5636 020e 012B     		cmp	r3, #1
 5637 0210 40F0BB80 		bne	.L610
 5638              	.LVL726:
 5639              	.L613:
 5640              		.loc 1 1496 0
 5641 0214 D8F80430 		ldr	r3, [r8, #4]
 5642              	.LVL727:
 5643 0218 0E97     		str	r7, [sp, #56]
 5644              		.loc 1 1500 0
 5645 021a 4FF0000A 		mov	r10, #0
 5646 021e 09F10402 		add	r2, r9, #4
 5647 0222 079F     		ldr	r7, [sp, #28]
 5648 0224 0C95     		str	r5, [sp, #48]
 5649              		.loc 1 1498 0
 5650 0226 D446     		mov	ip, r10
 5651              		.loc 1 1499 0
 5652 0228 CDF820A0 		str	r10, [sp, #32]
 5653 022c 0B92     		str	r2, [sp, #44]
 5654 022e 1C46     		mov	r4, r3
 5655 0230 5546     		mov	r5, r10
 5656 0232 CDF834B0 		str	fp, [sp, #52]
 5657 0236 0996     		str	r6, [sp, #36]
 5658              	.LVL728:
 5659              	.L611:
 5660              		.loc 1 1504 0
ARM GAS  C:\Users\jo\AppData\Local\Temp\ccxFvVJt.s 			page 101


 5661 0238 A5BB     		cbnz	r5, .L615
 5662              	.LVL729:
 5663              		.loc 1 1506 0
 5664 023a 631E     		subs	r3, r4, #1
 5665              	.LVL730:
 5666 023c 002C     		cmp	r4, #0
 5667 023e 00F00981 		beq	.L678
 5668 0242 1F25     		movs	r5, #31
 5669 0244 1C46     		mov	r4, r3
 5670 0246 2A46     		mov	r2, r5
 5671              	.LVL731:
 5672              	.L616:
 5673              		.loc 1 1514 0
 5674 0248 D8F80830 		ldr	r3, [r8, #8]
 5675 024c 53F82430 		ldr	r3, [r3, r4, lsl #2]
 5676 0250 D340     		lsrs	r3, r3, r2
 5677              	.LVL732:
 5678              		.loc 1 1519 0
 5679 0252 13F00103 		ands	r3, r3, #1
 5680              	.LVL733:
 5681 0256 06D1     		bne	.L619
 5682              		.loc 1 1519 0 is_stmt 0 discriminator 1
 5683 0258 BAF1000F 		cmp	r10, #0
 5684 025c ECD0     		beq	.L611
 5685              		.loc 1 1522 0 is_stmt 1 discriminator 1
 5686 025e BAF1010F 		cmp	r10, #1
 5687 0262 00F05281 		beq	.L679
 5688              	.L619:
 5689              	.LVL734:
 5690              		.loc 1 1536 0
 5691 0266 0CF1010C 		add	ip, ip, #1
 5692              	.LVL735:
 5693              		.loc 1 1537 0
 5694 026a CCEB0702 		rsb	r2, ip, r7
 5695 026e 9340     		lsls	r3, r3, r2
 5696              	.LVL736:
 5697 0270 089A     		ldr	r2, [sp, #32]
 5698              		.loc 1 1539 0
 5699 0272 6745     		cmp	r7, ip
 5700              		.loc 1 1537 0
 5701 0274 42EA0302 		orr	r2, r2, r3
 5702 0278 0892     		str	r2, [sp, #32]
 5703              	.LVL737:
 5704              		.loc 1 1539 0
 5705 027a 16D0     		beq	.L680
 5706              		.loc 1 1534 0
 5707 027c 4FF0020A 		mov	r10, #2
 5708 0280 DAE7     		b	.L611
 5709              	.LVL738:
 5710              	.L631:
 5711              		.loc 1 1403 0
 5712 0282 6FF00300 		mvn	r0, #3
 5713 0286 1DE7     		b	.L668
 5714              	.LVL739:
 5715              	.L675:
 5716              		.loc 1 1590 0
 5717 0288 12A8     		add	r0, sp, #72
ARM GAS  C:\Users\jo\AppData\Local\Temp\ccxFvVJt.s 			page 102


 5718              	.LVL740:
 5719 028a FFF7FEFF 		bl	mpi_free
 5720              	.LVL741:
 5721 028e 2846     		mov	r0, r5
 5722 0290 18E7     		b	.L668
 5723              	.LVL742:
 5724              	.L635:
 5725 0292 0223     		movs	r3, #2
 5726 0294 0893     		str	r3, [sp, #32]
 5727 0296 0823     		movs	r3, #8
 5728 0298 0493     		str	r3, [sp, #16]
 5729              		.loc 1 1417 0
 5730 029a 0323     		movs	r3, #3
 5731 029c 4FF0040B 		mov	fp, #4
 5732 02a0 0793     		str	r3, [sp, #28]
 5733 02a2 E6E6     		b	.L602
 5734              	.LVL743:
 5735              	.L615:
 5736 02a4 013D     		subs	r5, r5, #1
 5737              	.LVL744:
 5738              		.loc 1 1504 0
 5739 02a6 2A46     		mov	r2, r5
 5740 02a8 CEE7     		b	.L616
 5741              	.LVL745:
 5742              	.L680:
 5743              		.loc 1 1539 0
 5744 02aa 4FF0000B 		mov	fp, #0
 5745 02ae 4346     		mov	r3, r8
 5746 02b0 0794     		str	r4, [sp, #28]
 5747 02b2 0F95     		str	r5, [sp, #60]
 5748 02b4 069C     		ldr	r4, [sp, #24]
 5749              	.LVL746:
 5750 02b6 099E     		ldr	r6, [sp, #36]
 5751 02b8 0B9D     		ldr	r5, [sp, #44]
 5752              	.LVL747:
 5753 02ba D846     		mov	r8, fp
 5754              	.LVL748:
 5755 02bc 09F1080A 		add	r10, r9, #8
 5756 02c0 9B46     		mov	fp, r3
 5757              	.LVL749:
 5758              	.L621:
 5759              		.loc 1 1545 0 discriminator 3
 5760 02c2 169B     		ldr	r3, [sp, #88]
 5761 02c4 0193     		str	r3, [sp, #4]
 5762 02c6 17AA     		add	r2, sp, #92
 5763 02c8 0292     		str	r2, [sp, #8]
 5764 02ca 0094     		str	r4, [sp]
 5765              		.loc 1 1544 0 discriminator 3
 5766 02cc 08F10108 		add	r8, r8, #1
 5767              	.LVL750:
 5768              		.loc 1 1545 0 discriminator 3
 5769 02d0 4846     		mov	r0, r9
 5770 02d2 2946     		mov	r1, r5
 5771 02d4 5246     		mov	r2, r10
 5772 02d6 3346     		mov	r3, r6
 5773 02d8 FFF7FEFF 		bl	mpi_montmul.isra.2
 5774              	.LVL751:
ARM GAS  C:\Users\jo\AppData\Local\Temp\ccxFvVJt.s 			page 103


 5775              		.loc 1 1544 0 discriminator 3
 5776 02dc B845     		cmp	r8, r7
 5777 02de F0D1     		bne	.L621
 5778              		.loc 1 1550 0
 5779 02e0 089B     		ldr	r3, [sp, #32]
 5780 02e2 0699     		ldr	r1, [sp, #24]
 5781 02e4 0091     		str	r1, [sp]
 5782 02e6 03EB4302 		add	r2, r3, r3, lsl #1
 5783 02ea 1EAB     		add	r3, sp, #120
 5784 02ec 03EB8202 		add	r2, r3, r2, lsl #2
 5785 02f0 17A9     		add	r1, sp, #92
 5786 02f2 169B     		ldr	r3, [sp, #88]
 5787 02f4 0996     		str	r6, [sp, #36]
 5788 02f6 0291     		str	r1, [sp, #8]
 5789 02f8 0193     		str	r3, [sp, #4]
 5790 02fa 111D     		adds	r1, r2, #4
 5791 02fc 3346     		mov	r3, r6
 5792 02fe 0832     		adds	r2, r2, #8
 5793              		.loc 1 1553 0
 5794 0300 0026     		movs	r6, #0
 5795              		.loc 1 1550 0
 5796 0302 4846     		mov	r0, r9
 5797 0304 079C     		ldr	r4, [sp, #28]
 5798 0306 0F9D     		ldr	r5, [sp, #60]
 5799              		.loc 1 1553 0
 5800 0308 0896     		str	r6, [sp, #32]
 5801              	.LVL752:
 5802 030a D846     		mov	r8, fp
 5803              	.LVL753:
 5804              		.loc 1 1550 0
 5805 030c FFF7FEFF 		bl	mpi_montmul.isra.2
 5806              	.LVL754:
 5807              		.loc 1 1552 0
 5808 0310 4FF0010A 		mov	r10, #1
 5809              		.loc 1 1554 0
 5810 0314 B446     		mov	ip, r6
 5811 0316 8FE7     		b	.L611
 5812              	.LVL755:
 5813              	.L605:
 5814              		.loc 1 1446 0
 5815 0318 12A8     		add	r0, sp, #72
 5816              	.LVL756:
 5817 031a 0121     		movs	r1, #1
 5818 031c FFF7FEFF 		bl	mpi_lset
 5819              	.LVL757:
 5820 0320 0546     		mov	r5, r0
 5821 0322 0028     		cmp	r0, #0
 5822 0324 7FF4E6AE 		bne	.L603
 5823              		.loc 1 1447 0
 5824 0328 7168     		ldr	r1, [r6, #4]
 5825 032a 12A8     		add	r0, sp, #72
 5826              	.LVL758:
 5827 032c 8901     		lsls	r1, r1, #6
 5828 032e FFF7FEFF 		bl	mpi_shift_l
 5829              	.LVL759:
 5830 0332 0546     		mov	r5, r0
 5831 0334 0028     		cmp	r0, #0
ARM GAS  C:\Users\jo\AppData\Local\Temp\ccxFvVJt.s 			page 104


 5832 0336 7FF4DDAE 		bne	.L603
 5833              		.loc 1 1448 0
 5834 033a 12A8     		add	r0, sp, #72
 5835              	.LVL760:
 5836 033c 0146     		mov	r1, r0
 5837 033e 3246     		mov	r2, r6
 5838 0340 FFF7FEFF 		bl	mpi_mod_mpi
 5839              	.LVL761:
 5840 0344 0546     		mov	r5, r0
 5841 0346 0028     		cmp	r0, #0
 5842 0348 7FF4D4AE 		bne	.L603
 5843              		.loc 1 1450 0
 5844 034c DDF8A036 		ldr	r3, [sp, #1696]
 5845 0350 002B     		cmp	r3, #0
 5846 0352 3FF40DAF 		beq	.L607
 5847              		.loc 1 1451 0
 5848 0356 12AB     		add	r3, sp, #72
 5849              	.LVL762:
 5850 0358 07CB     		ldmia	r3!, {r0, r1, r2}
 5851              	.LVL763:
 5852 035a DDF8A036 		ldr	r3, [sp, #1696]
 5853              	.LVL764:
 5854 035e 1860     		str	r0, [r3]	@ unaligned
 5855 0360 5960     		str	r1, [r3, #4]	@ unaligned
 5856 0362 9A60     		str	r2, [r3, #8]	@ unaligned
 5857 0364 04E7     		b	.L607
 5858              	.LVL765:
 5859              	.L677:
 5860              		.loc 1 1436 0
 5861 0366 0699     		ldr	r1, [sp, #24]
 5862 0368 0993     		str	r3, [sp, #36]
 5863 036a 3846     		mov	r0, r7
 5864              	.LVL766:
 5865 036c FFF7FEFF 		bl	mpi_copy
 5866              	.LVL767:
 5867 0370 099B     		ldr	r3, [sp, #36]
 5868 0372 0546     		mov	r5, r0
 5869 0374 0028     		cmp	r0, #0
 5870 0376 7FF4BDAE 		bne	.L603
 5871              		.loc 1 1437 0
 5872 037a 3B60     		str	r3, [r7]
 5873              	.LVL768:
 5874              		.loc 1 1438 0
 5875 037c 0697     		str	r7, [sp, #24]
 5876 037e E7E6     		b	.L604
 5877              	.LVL769:
 5878              	.L608:
 5879              		.loc 1 1461 0
 5880 0380 0699     		ldr	r1, [sp, #24]
 5881 0382 0598     		ldr	r0, [sp, #20]
 5882 0384 FFF7FEFF 		bl	mpi_copy
 5883              	.LVL770:
 5884 0388 FFE6     		b	.L609
 5885              	.LVL771:
 5886              	.L610:
 5887              		.loc 1 1478 0
 5888 038a 0BEB4B03 		add	r3, fp, fp, lsl #1
ARM GAS  C:\Users\jo\AppData\Local\Temp\ccxFvVJt.s 			page 105


 5889 038e 7168     		ldr	r1, [r6, #4]
 5890 0390 1EAA     		add	r2, sp, #120
 5891 0392 02EB830A 		add	r10, r2, r3, lsl #2
 5892              	.LVL772:
 5893 0396 5046     		mov	r0, r10
 5894 0398 0131     		adds	r1, r1, #1
 5895 039a FFF7FEFF 		bl	mpi_grow
 5896              	.LVL773:
 5897 039e 08B1     		cbz	r0, .L681
 5898              	.L671:
 5899 03a0 0546     		mov	r5, r0
 5900 03a2 A7E6     		b	.L603
 5901              	.L681:
 5902              		.loc 1 1479 0
 5903 03a4 5046     		mov	r0, r10
 5904              	.LVL774:
 5905 03a6 0599     		ldr	r1, [sp, #20]
 5906 03a8 FFF7FEFF 		bl	mpi_copy
 5907              	.LVL775:
 5908 03ac 0028     		cmp	r0, #0
 5909 03ae F7D1     		bne	.L671
 5910 03b0 0AF1040C 		add	ip, r10, #4
 5911 03b4 0AF10803 		add	r3, r10, #8
 5912 03b8 0C97     		str	r7, [sp, #48]
 5913 03ba 049F     		ldr	r7, [sp, #16]
 5914              	.LVL776:
 5915 03bc 0B93     		str	r3, [sp, #44]
 5916 03be 0995     		str	r5, [sp, #36]
 5917 03c0 6446     		mov	r4, ip
 5918              	.LVL777:
 5919              	.L612:
 5920              		.loc 1 1482 0 discriminator 3
 5921 03c2 069A     		ldr	r2, [sp, #24]
 5922 03c4 0092     		str	r2, [sp]
 5923 03c6 17AA     		add	r2, sp, #92
 5924 03c8 0292     		str	r2, [sp, #8]
 5925              		.loc 1 1481 0 discriminator 3
 5926 03ca 099A     		ldr	r2, [sp, #36]
 5927              		.loc 1 1482 0 discriminator 3
 5928 03cc 169B     		ldr	r3, [sp, #88]
 5929 03ce 0193     		str	r3, [sp, #4]
 5930              		.loc 1 1481 0 discriminator 3
 5931 03d0 0132     		adds	r2, r2, #1
 5932 03d2 0992     		str	r2, [sp, #36]
 5933              	.LVL778:
 5934              		.loc 1 1482 0 discriminator 3
 5935 03d4 3346     		mov	r3, r6
 5936 03d6 0B9A     		ldr	r2, [sp, #44]
 5937              	.LVL779:
 5938 03d8 5046     		mov	r0, r10
 5939 03da 2146     		mov	r1, r4
 5940 03dc FFF7FEFF 		bl	mpi_montmul.isra.2
 5941              	.LVL780:
 5942              		.loc 1 1481 0 discriminator 3
 5943 03e0 089B     		ldr	r3, [sp, #32]
 5944 03e2 099A     		ldr	r2, [sp, #36]
 5945 03e4 9342     		cmp	r3, r2
ARM GAS  C:\Users\jo\AppData\Local\Temp\ccxFvVJt.s 			page 106


 5946 03e6 ECD8     		bhi	.L612
 5947 03e8 3A46     		mov	r2, r7
 5948              		.loc 1 1487 0
 5949 03ea 0BF1010C 		add	ip, fp, #1
 5950              	.LVL781:
 5951 03ee 6245     		cmp	r2, ip
 5952 03f0 0497     		str	r7, [sp, #16]
 5953 03f2 0C9F     		ldr	r7, [sp, #48]
 5954 03f4 7FF60EAF 		bls	.L613
 5955 03f8 1EAB     		add	r3, sp, #120
 5956 03fa 0CEB4C0A 		add	r10, ip, ip, lsl #1
 5957 03fe 03EB8A0A 		add	r10, r3, r10, lsl #2
 5958              		.loc 1 1492 0
 5959 0402 3B46     		mov	r3, r7
 5960 0404 0895     		str	r5, [sp, #32]
 5961 0406 5746     		mov	r7, r10
 5962 0408 1546     		mov	r5, r2
 5963 040a 6446     		mov	r4, ip
 5964 040c 9A46     		mov	r10, r3
 5965 040e 13E0     		b	.L614
 5966              	.LVL782:
 5967              	.L683:
 5968              		.loc 1 1490 0
 5969 0410 3846     		mov	r0, r7
 5970              	.LVL783:
 5971 0412 FFF7FEFF 		bl	mpi_copy
 5972              	.LVL784:
 5973              		.loc 1 1492 0
 5974 0416 22A9     		add	r1, sp, #136
 5975 0418 23AA     		add	r2, sp, #140
 5976 041a 3346     		mov	r3, r6
 5977              		.loc 1 1490 0
 5978 041c B0B9     		cbnz	r0, .L639
 5979              	.LVL785:
 5980              		.loc 1 1492 0 discriminator 2
 5981 041e 0698     		ldr	r0, [sp, #24]
 5982              	.LVL786:
 5983 0420 0090     		str	r0, [sp]
 5984 0422 17A8     		add	r0, sp, #92
 5985 0424 0290     		str	r0, [sp, #8]
 5986 0426 1698     		ldr	r0, [sp, #88]
 5987 0428 0190     		str	r0, [sp, #4]
 5988 042a 3846     		mov	r0, r7
 5989 042c FFF7FEFF 		bl	mpi_montmul.isra.2
 5990              	.LVL787:
 5991              		.loc 1 1487 0 discriminator 2
 5992 0430 A542     		cmp	r5, r4
 5993 0432 07F10C07 		add	r7, r7, #12
 5994 0436 7AD9     		bls	.L682
 5995              	.L614:
 5996              		.loc 1 1489 0
 5997 0438 7168     		ldr	r1, [r6, #4]
 5998 043a 3846     		mov	r0, r7
 5999 043c 0131     		adds	r1, r1, #1
 6000 043e FFF7FEFF 		bl	mpi_grow
 6001              	.LVL788:
 6002              		.loc 1 1487 0
ARM GAS  C:\Users\jo\AppData\Local\Temp\ccxFvVJt.s 			page 107


 6003 0442 0134     		adds	r4, r4, #1
 6004              	.LVL789:
 6005              		.loc 1 1490 0
 6006 0444 A7F10C01 		sub	r1, r7, #12
 6007              		.loc 1 1489 0
 6008 0448 0028     		cmp	r0, #0
 6009 044a E1D0     		beq	.L683
 6010              	.L639:
 6011 044c 0495     		str	r5, [sp, #16]
 6012 044e 5746     		mov	r7, r10
 6013 0450 0546     		mov	r5, r0
 6014 0452 4FE6     		b	.L603
 6015              	.LVL790:
 6016              	.L678:
 6017 0454 0C9D     		ldr	r5, [sp, #48]
 6018 0456 DDF834B0 		ldr	fp, [sp, #52]
 6019 045a 099E     		ldr	r6, [sp, #36]
 6020 045c 0E9F     		ldr	r7, [sp, #56]
 6021              		.loc 1 1561 0
 6022 045e BCF1000F 		cmp	ip, #0
 6023 0462 2ED0     		beq	.L624
 6024 0464 09F10803 		add	r3, r9, #8
 6025              	.LVL791:
 6026 0468 A046     		mov	r8, r4
 6027              	.LVL792:
 6028              		.loc 1 1568 0
 6029 046a 0995     		str	r5, [sp, #36]
 6030 046c 09F1040A 		add	r10, r9, #4
 6031              	.LVL793:
 6032 0470 089D     		ldr	r5, [sp, #32]
 6033 0472 0793     		str	r3, [sp, #28]
 6034 0474 0897     		str	r7, [sp, #32]
 6035              	.LVL794:
 6036 0476 049C     		ldr	r4, [sp, #16]
 6037              	.LVL795:
 6038 0478 6746     		mov	r7, ip
 6039 047a 01E0     		b	.L623
 6040              	.LVL796:
 6041              	.L622:
 6042              		.loc 1 1561 0 discriminator 2
 6043 047c B845     		cmp	r8, r7
 6044 047e 1DD0     		beq	.L684
 6045              	.LVL797:
 6046              	.L623:
 6047              		.loc 1 1563 0
 6048 0480 069A     		ldr	r2, [sp, #24]
 6049 0482 169B     		ldr	r3, [sp, #88]
 6050 0484 0092     		str	r2, [sp]
 6051 0486 17AA     		add	r2, sp, #92
 6052 0488 0292     		str	r2, [sp, #8]
 6053 048a 0193     		str	r3, [sp, #4]
 6054              		.loc 1 1565 0
 6055 048c 6D00     		lsls	r5, r5, #1
 6056              	.LVL798:
 6057              		.loc 1 1563 0
 6058 048e 4846     		mov	r0, r9
 6059 0490 5146     		mov	r1, r10
ARM GAS  C:\Users\jo\AppData\Local\Temp\ccxFvVJt.s 			page 108


 6060 0492 079A     		ldr	r2, [sp, #28]
 6061 0494 3346     		mov	r3, r6
 6062 0496 FFF7FEFF 		bl	mpi_montmul.isra.2
 6063              	.LVL799:
 6064              		.loc 1 1567 0
 6065 049a 2C42     		tst	r4, r5
 6066              		.loc 1 1561 0
 6067 049c 08F10108 		add	r8, r8, #1
 6068              	.LVL800:
 6069              		.loc 1 1567 0
 6070 04a0 ECD0     		beq	.L622
 6071              		.loc 1 1568 0
 6072 04a2 069A     		ldr	r2, [sp, #24]
 6073 04a4 169B     		ldr	r3, [sp, #88]
 6074 04a6 0092     		str	r2, [sp]
 6075 04a8 17AA     		add	r2, sp, #92
 6076 04aa 0292     		str	r2, [sp, #8]
 6077 04ac 0193     		str	r3, [sp, #4]
 6078 04ae 4846     		mov	r0, r9
 6079 04b0 22A9     		add	r1, sp, #136
 6080 04b2 23AA     		add	r2, sp, #140
 6081 04b4 3346     		mov	r3, r6
 6082 04b6 FFF7FEFF 		bl	mpi_montmul.isra.2
 6083              	.LVL801:
 6084 04ba DFE7     		b	.L622
 6085              	.LVL802:
 6086              	.L684:
 6087 04bc 099D     		ldr	r5, [sp, #36]
 6088              	.LVL803:
 6089 04be 089F     		ldr	r7, [sp, #32]
 6090              	.LVL804:
 6091 04c0 0494     		str	r4, [sp, #16]
 6092              	.LVL805:
 6093              	.L624:
 6094              	.LBB208:
 6095              	.LBB209:
 6096              		.loc 1 1386 0
 6097 04c2 069A     		ldr	r2, [sp, #24]
 6098 04c4 169B     		ldr	r3, [sp, #88]
 6099 04c6 0092     		str	r2, [sp]
 6100 04c8 17AA     		add	r2, sp, #92
 6101              		.loc 1 1380 0
 6102 04ca 4FF0010E 		mov	lr, #1
 6103              		.loc 1 1386 0
 6104 04ce 0292     		str	r2, [sp, #8]
 6105 04d0 0193     		str	r3, [sp, #4]
 6106 04d2 1CA9     		add	r1, sp, #112
 6107 04d4 3346     		mov	r3, r6
 6108 04d6 1DAA     		add	r2, sp, #116
 6109 04d8 4846     		mov	r0, r9
 6110              		.loc 1 1384 0
 6111 04da 11AC     		add	r4, sp, #68
 6112 04dc 1D94     		str	r4, [sp, #116]
 6113              		.loc 1 1380 0
 6114 04de CDF844E0 		str	lr, [sp, #68]
 6115              		.loc 1 1383 0
 6116 04e2 CDF86CE0 		str	lr, [sp, #108]
ARM GAS  C:\Users\jo\AppData\Local\Temp\ccxFvVJt.s 			page 109


 6117 04e6 CDF870E0 		str	lr, [sp, #112]
 6118              		.loc 1 1386 0
 6119 04ea FFF7FEFF 		bl	mpi_montmul.isra.2
 6120              	.LVL806:
 6121              	.LBE209:
 6122              	.LBE208:
 6123              		.loc 1 1576 0
 6124 04ee 0A9B     		ldr	r3, [sp, #40]
 6125 04f0 002B     		cmp	r3, #0
 6126 04f2 3FF4FFAD 		beq	.L603
 6127              		.loc 1 1578 0
 6128 04f6 4FF0FF33 		mov	r3, #-1
 6129              		.loc 1 1579 0
 6130 04fa 3146     		mov	r1, r6
 6131              		.loc 1 1578 0
 6132 04fc C9F80030 		str	r3, [r9]
 6133              		.loc 1 1579 0
 6134 0500 4846     		mov	r0, r9
 6135 0502 4A46     		mov	r2, r9
 6136 0504 FFF7FEFF 		bl	mpi_add_mpi
 6137              	.LVL807:
 6138 0508 F4E5     		b	.L603
 6139              	.LVL808:
 6140              	.L679:
 6141              		.loc 1 1527 0
 6142 050a 069A     		ldr	r2, [sp, #24]
 6143 050c 169B     		ldr	r3, [sp, #88]
 6144              	.LVL809:
 6145 050e 0092     		str	r2, [sp]
 6146 0510 17AA     		add	r2, sp, #92
 6147 0512 0292     		str	r2, [sp, #8]
 6148 0514 0193     		str	r3, [sp, #4]
 6149 0516 4846     		mov	r0, r9
 6150 0518 0B99     		ldr	r1, [sp, #44]
 6151 051a 099B     		ldr	r3, [sp, #36]
 6152 051c CDF81CC0 		str	ip, [sp, #28]
 6153 0520 09F10802 		add	r2, r9, #8
 6154 0524 FFF7FEFF 		bl	mpi_montmul.isra.2
 6155              	.LVL810:
 6156              		.loc 1 1528 0
 6157 0528 DDF81CC0 		ldr	ip, [sp, #28]
 6158 052c 84E6     		b	.L611
 6159              	.LVL811:
 6160              	.L682:
 6161 052e 0495     		str	r5, [sp, #16]
 6162 0530 5746     		mov	r7, r10
 6163 0532 089D     		ldr	r5, [sp, #32]
 6164 0534 6EE6     		b	.L613
 6165              		.cfi_endproc
 6166              	.LFE41:
 6167              		.size	mpi_exp_mod, .-mpi_exp_mod
 6168 0536 00BFAFF3 		.section	.text.mpi_gcd,"ax",%progbits
 6168      0080AFF3 
 6168      0080
 6169              		.align	2
 6170              		.p2align 4,,15
 6171              		.global	mpi_gcd
ARM GAS  C:\Users\jo\AppData\Local\Temp\ccxFvVJt.s 			page 110


 6172              		.thumb
 6173              		.thumb_func
 6174              		.type	mpi_gcd, %function
 6175              	mpi_gcd:
 6176              	.LFB42:
 6177              		.loc 1 1599 0
 6178              		.cfi_startproc
 6179              		@ args = 0, pretend = 0, frame = 40
 6180              		@ frame_needed = 0, uses_anonymous_args = 0
 6181              	.LVL812:
 6182 0000 2DE9F041 		push	{r4, r5, r6, r7, r8, lr}
 6183              		.cfi_def_cfa_offset 24
 6184              		.cfi_offset 4, -24
 6185              		.cfi_offset 5, -20
 6186              		.cfi_offset 6, -16
 6187              		.cfi_offset 7, -12
 6188              		.cfi_offset 8, -8
 6189              		.cfi_offset 14, -4
 6190 0004 8AB0     		sub	sp, sp, #40
 6191              		.cfi_def_cfa_offset 64
 6192              	.LVL813:
 6193              	.LBB210:
 6194              	.LBB211:
 6195              		.loc 1 61 0
 6196 0006 0023     		movs	r3, #0
 6197              		.loc 1 60 0
 6198 0008 0126     		movs	r6, #1
 6199              	.LBE211:
 6200              	.LBE210:
 6201              		.loc 1 1599 0
 6202 000a 8046     		mov	r8, r0
 6203              		.loc 1 1606 0
 6204 000c 04A8     		add	r0, sp, #16
 6205              	.LVL814:
 6206              		.loc 1 1599 0
 6207 000e 1746     		mov	r7, r2
 6208              	.LBB214:
 6209              	.LBB212:
 6210              		.loc 1 60 0
 6211 0010 0196     		str	r6, [sp, #4]
 6212              	.LBE212:
 6213              	.LBE214:
 6214              	.LBB215:
 6215              	.LBB216:
 6216 0012 0496     		str	r6, [sp, #16]
 6217              	.LBE216:
 6218              	.LBE215:
 6219              	.LBB218:
 6220              	.LBB219:
 6221 0014 0796     		str	r6, [sp, #28]
 6222              	.LBE219:
 6223              	.LBE218:
 6224              	.LBB221:
 6225              	.LBB213:
 6226              		.loc 1 61 0
 6227 0016 0293     		str	r3, [sp, #8]
 6228              		.loc 1 62 0
ARM GAS  C:\Users\jo\AppData\Local\Temp\ccxFvVJt.s 			page 111


 6229 0018 0393     		str	r3, [sp, #12]
 6230              	.LVL815:
 6231              	.LBE213:
 6232              	.LBE221:
 6233              	.LBB222:
 6234              	.LBB217:
 6235              		.loc 1 61 0
 6236 001a 0593     		str	r3, [sp, #20]
 6237              		.loc 1 62 0
 6238 001c 0693     		str	r3, [sp, #24]
 6239              	.LVL816:
 6240              	.LBE217:
 6241              	.LBE222:
 6242              	.LBB223:
 6243              	.LBB220:
 6244              		.loc 1 61 0
 6245 001e 0893     		str	r3, [sp, #32]
 6246              		.loc 1 62 0
 6247 0020 0993     		str	r3, [sp, #36]
 6248              	.LBE220:
 6249              	.LBE223:
 6250              		.loc 1 1606 0
 6251 0022 FFF7FEFF 		bl	mpi_copy
 6252              	.LVL817:
 6253 0026 07AD     		add	r5, sp, #28
 6254              	.LVL818:
 6255 0028 0446     		mov	r4, r0
 6256 002a 60B1     		cbz	r0, .L694
 6257              	.LVL819:
 6258              	.L686:
 6259              		.loc 1 1642 0
 6260 002c 01A8     		add	r0, sp, #4
 6261              	.LVL820:
 6262 002e FFF7FEFF 		bl	mpi_free
 6263              	.LVL821:
 6264 0032 04A8     		add	r0, sp, #16
 6265              	.LVL822:
 6266 0034 FFF7FEFF 		bl	mpi_free
 6267              	.LVL823:
 6268 0038 2846     		mov	r0, r5
 6269 003a FFF7FEFF 		bl	mpi_free
 6270              	.LVL824:
 6271              		.loc 1 1645 0
 6272 003e 2046     		mov	r0, r4
 6273 0040 0AB0     		add	sp, sp, #40
 6274              		.cfi_remember_state
 6275              		.cfi_def_cfa_offset 24
 6276              		@ sp needed
 6277 0042 BDE8F081 		pop	{r4, r5, r6, r7, r8, pc}
 6278              	.LVL825:
 6279              	.L694:
 6280              		.cfi_restore_state
 6281              		.loc 1 1607 0
 6282 0046 3946     		mov	r1, r7
 6283 0048 2846     		mov	r0, r5
 6284              	.LVL826:
 6285 004a FFF7FEFF 		bl	mpi_copy
ARM GAS  C:\Users\jo\AppData\Local\Temp\ccxFvVJt.s 			page 112


 6286              	.LVL827:
 6287 004e 0446     		mov	r4, r0
 6288 0050 0028     		cmp	r0, #0
 6289 0052 EBD1     		bne	.L686
 6290              		.loc 1 1609 0
 6291 0054 04A8     		add	r0, sp, #16
 6292              	.LVL828:
 6293 0056 FFF7FEFF 		bl	mpi_lsb
 6294              	.LVL829:
 6295 005a 0746     		mov	r7, r0
 6296              	.LVL830:
 6297              		.loc 1 1610 0
 6298 005c 2846     		mov	r0, r5
 6299              	.LVL831:
 6300 005e FFF7FEFF 		bl	mpi_lsb
 6301              	.LVL832:
 6302 0062 8742     		cmp	r7, r0
 6303 0064 28BF     		it	cs
 6304 0066 0746     		movcs	r7, r0
 6305              	.LVL833:
 6306              		.loc 1 1615 0
 6307 0068 3946     		mov	r1, r7
 6308 006a 04A8     		add	r0, sp, #16
 6309              	.LVL834:
 6310 006c FFF7FEFF 		bl	mpi_shift_r
 6311              	.LVL835:
 6312 0070 0446     		mov	r4, r0
 6313 0072 0028     		cmp	r0, #0
 6314 0074 DAD1     		bne	.L686
 6315              		.loc 1 1616 0
 6316 0076 2846     		mov	r0, r5
 6317              	.LVL836:
 6318 0078 3946     		mov	r1, r7
 6319 007a FFF7FEFF 		bl	mpi_shift_r
 6320              	.LVL837:
 6321 007e 0446     		mov	r4, r0
 6322 0080 0028     		cmp	r0, #0
 6323 0082 D3D1     		bne	.L686
 6324              		.loc 1 1618 0
 6325 0084 0796     		str	r6, [sp, #28]
 6326 0086 0496     		str	r6, [sp, #16]
 6327              	.L687:
 6328              		.loc 1 1620 0
 6329 0088 04A8     		add	r0, sp, #16
 6330              	.LVL838:
 6331 008a 0021     		movs	r1, #0
 6332 008c FFF7FEFF 		bl	mpi_cmp_int
 6333              	.LVL839:
 6334 0090 0028     		cmp	r0, #0
 6335 0092 39D0     		beq	.L695
 6336              		.loc 1 1622 0
 6337 0094 04A8     		add	r0, sp, #16
 6338              	.LVL840:
 6339 0096 FFF7FEFF 		bl	mpi_lsb
 6340              	.LVL841:
 6341 009a 0146     		mov	r1, r0
 6342 009c 04A8     		add	r0, sp, #16
ARM GAS  C:\Users\jo\AppData\Local\Temp\ccxFvVJt.s 			page 113


 6343              	.LVL842:
 6344 009e FFF7FEFF 		bl	mpi_shift_r
 6345              	.LVL843:
 6346 00a2 0446     		mov	r4, r0
 6347 00a4 0028     		cmp	r0, #0
 6348 00a6 C1D1     		bne	.L686
 6349              		.loc 1 1623 0
 6350 00a8 2846     		mov	r0, r5
 6351              	.LVL844:
 6352 00aa FFF7FEFF 		bl	mpi_lsb
 6353              	.LVL845:
 6354 00ae 0146     		mov	r1, r0
 6355 00b0 2846     		mov	r0, r5
 6356 00b2 FFF7FEFF 		bl	mpi_shift_r
 6357              	.LVL846:
 6358              		.loc 1 1625 0
 6359 00b6 2946     		mov	r1, r5
 6360              		.loc 1 1623 0
 6361 00b8 0446     		mov	r4, r0
 6362 00ba 0028     		cmp	r0, #0
 6363 00bc B6D1     		bne	.L686
 6364              	.LVL847:
 6365              		.loc 1 1625 0
 6366 00be 04A8     		add	r0, sp, #16
 6367              	.LVL848:
 6368 00c0 FFF7FEFF 		bl	mpi_cmp_mpi
 6369              	.LVL849:
 6370              		.loc 1 1627 0
 6371 00c4 04A9     		add	r1, sp, #16
 6372              	.LVL850:
 6373              		.loc 1 1625 0
 6374 00c6 0028     		cmp	r0, #0
 6375              		.loc 1 1627 0
 6376 00c8 2A46     		mov	r2, r5
 6377 00ca 0846     		mov	r0, r1
 6378              		.loc 1 1625 0
 6379 00cc 0CDB     		blt	.L688
 6380              	.LVL851:
 6381              		.loc 1 1627 0
 6382 00ce FFF7FEFF 		bl	mpi_sub_abs
 6383              	.LVL852:
 6384              		.loc 1 1628 0
 6385 00d2 0121     		movs	r1, #1
 6386              		.loc 1 1627 0
 6387 00d4 0446     		mov	r4, r0
 6388 00d6 0028     		cmp	r0, #0
 6389 00d8 A8D1     		bne	.L686
 6390              		.loc 1 1628 0
 6391 00da 04A8     		add	r0, sp, #16
 6392              	.LVL853:
 6393 00dc FFF7FEFF 		bl	mpi_shift_r
 6394              	.LVL854:
 6395 00e0 0446     		mov	r4, r0
 6396 00e2 0028     		cmp	r0, #0
 6397 00e4 D0D0     		beq	.L687
 6398 00e6 A1E7     		b	.L686
 6399              	.LVL855:
ARM GAS  C:\Users\jo\AppData\Local\Temp\ccxFvVJt.s 			page 114


 6400              	.L688:
 6401              		.loc 1 1632 0
 6402 00e8 2946     		mov	r1, r5
 6403 00ea 2846     		mov	r0, r5
 6404              	.LVL856:
 6405 00ec 04AA     		add	r2, sp, #16
 6406              	.LVL857:
 6407 00ee FFF7FEFF 		bl	mpi_sub_abs
 6408              	.LVL858:
 6409              		.loc 1 1633 0
 6410 00f2 0121     		movs	r1, #1
 6411              		.loc 1 1632 0
 6412 00f4 0446     		mov	r4, r0
 6413 00f6 0028     		cmp	r0, #0
 6414 00f8 98D1     		bne	.L686
 6415              		.loc 1 1633 0
 6416 00fa 2846     		mov	r0, r5
 6417              	.LVL859:
 6418 00fc FFF7FEFF 		bl	mpi_shift_r
 6419              	.LVL860:
 6420 0100 0446     		mov	r4, r0
 6421 0102 0028     		cmp	r0, #0
 6422 0104 C0D0     		beq	.L687
 6423 0106 91E7     		b	.L686
 6424              	.LVL861:
 6425              	.L695:
 6426              		.loc 1 1637 0
 6427 0108 3946     		mov	r1, r7
 6428 010a 2846     		mov	r0, r5
 6429 010c FFF7FEFF 		bl	mpi_shift_l
 6430              	.LVL862:
 6431 0110 0446     		mov	r4, r0
 6432 0112 0028     		cmp	r0, #0
 6433 0114 8AD1     		bne	.L686
 6434              		.loc 1 1638 0
 6435 0116 4046     		mov	r0, r8
 6436              	.LVL863:
 6437 0118 2946     		mov	r1, r5
 6438 011a FFF7FEFF 		bl	mpi_copy
 6439              	.LVL864:
 6440 011e 0446     		mov	r4, r0
 6441              	.LVL865:
 6442 0120 84E7     		b	.L686
 6443              		.cfi_endproc
 6444              	.LFE42:
 6445              		.size	mpi_gcd, .-mpi_gcd
 6446 0122 00BFAFF3 		.section	.text.mpi_fill_random,"ax",%progbits
 6446      0080AFF3 
 6446      0080AFF3 
 6446      0080
 6447              		.align	2
 6448              		.p2align 4,,15
 6449              		.global	mpi_fill_random
 6450              		.thumb
 6451              		.thumb_func
 6452              		.type	mpi_fill_random, %function
 6453              	mpi_fill_random:
ARM GAS  C:\Users\jo\AppData\Local\Temp\ccxFvVJt.s 			page 115


 6454              	.LFB43:
 6455              		.loc 1 1650 0
 6456              		.cfi_startproc
 6457              		@ args = 0, pretend = 0, frame = 0
 6458              		@ frame_needed = 0, uses_anonymous_args = 0
 6459              	.LVL866:
 6460 0000 2DE9F041 		push	{r4, r5, r6, r7, r8, lr}
 6461              		.cfi_def_cfa_offset 24
 6462              		.cfi_offset 4, -24
 6463              		.cfi_offset 5, -20
 6464              		.cfi_offset 6, -16
 6465              		.cfi_offset 7, -12
 6466              		.cfi_offset 8, -8
 6467              		.cfi_offset 14, -4
 6468              		.loc 1 1650 0
 6469 0004 0C46     		mov	r4, r1
 6470              		.loc 1 1653 0
 6471 0006 0331     		adds	r1, r1, #3
 6472              	.LVL867:
 6473 0008 8908     		lsrs	r1, r1, #2
 6474              		.loc 1 1650 0
 6475 000a 1646     		mov	r6, r2
 6476 000c 1F46     		mov	r7, r3
 6477 000e 0546     		mov	r5, r0
 6478              		.loc 1 1653 0
 6479 0010 FFF7FEFF 		bl	mpi_grow
 6480              	.LVL868:
 6481 0014 08B1     		cbz	r0, .L699
 6482              	.L697:
 6483              		.loc 1 1660 0
 6484 0016 BDE8F081 		pop	{r4, r5, r6, r7, r8, pc}
 6485              	.LVL869:
 6486              	.L699:
 6487              		.loc 1 1654 0
 6488 001a 0146     		mov	r1, r0
 6489 001c 2846     		mov	r0, r5
 6490              	.LVL870:
 6491 001e FFF7FEFF 		bl	mpi_lset
 6492              	.LVL871:
 6493 0022 0028     		cmp	r0, #0
 6494 0024 F7D1     		bne	.L697
 6495              	.LVL872:
 6496              	.LBB226:
 6497              	.LBB227:
 6498              		.loc 1 1656 0
 6499 0026 3846     		mov	r0, r7
 6500              	.LVL873:
 6501 0028 A968     		ldr	r1, [r5, #8]
 6502 002a 2246     		mov	r2, r4
 6503 002c 3346     		mov	r3, r6
 6504              	.LBE227:
 6505              	.LBE226:
 6506              		.loc 1 1660 0
 6507 002e BDE8F041 		pop	{r4, r5, r6, r7, r8, lr}
 6508              		.cfi_restore 14
 6509              		.cfi_restore 8
 6510              		.cfi_restore 7
ARM GAS  C:\Users\jo\AppData\Local\Temp\ccxFvVJt.s 			page 116


 6511              		.cfi_restore 6
 6512              		.cfi_restore 5
 6513              		.cfi_restore 4
 6514              		.cfi_def_cfa_offset 0
 6515              	.LVL874:
 6516              	.LBB229:
 6517              	.LBB228:
 6518              		.loc 1 1656 0
 6519 0032 1847     		bx	r3
 6520              	.LVL875:
 6521              	.LBE228:
 6522              	.LBE229:
 6523              		.cfi_endproc
 6524              	.LFE43:
 6525              		.size	mpi_fill_random, .-mpi_fill_random
 6526 0034 AFF30080 		.section	.text.mpi_inv_mod,"ax",%progbits
 6526      AFF30080 
 6526      AFF30080 
 6527              		.align	2
 6528              		.p2align 4,,15
 6529              		.global	mpi_inv_mod
 6530              		.thumb
 6531              		.thumb_func
 6532              		.type	mpi_inv_mod, %function
 6533              	mpi_inv_mod:
 6534              	.LFB44:
 6535              		.loc 1 1666 0
 6536              		.cfi_startproc
 6537              		@ args = 0, pretend = 0, frame = 120
 6538              		@ frame_needed = 0, uses_anonymous_args = 0
 6539              	.LVL876:
 6540 0000 2DE9F04F 		push	{r4, r5, r6, r7, r8, r9, r10, fp, lr}
 6541              		.cfi_def_cfa_offset 36
 6542              		.cfi_offset 4, -36
 6543              		.cfi_offset 5, -32
 6544              		.cfi_offset 6, -28
 6545              		.cfi_offset 7, -24
 6546              		.cfi_offset 8, -20
 6547              		.cfi_offset 9, -16
 6548              		.cfi_offset 10, -12
 6549              		.cfi_offset 11, -8
 6550              		.cfi_offset 14, -4
 6551 0004 9FB0     		sub	sp, sp, #124
 6552              		.cfi_def_cfa_offset 160
 6553              		.loc 1 1666 0
 6554 0006 0D46     		mov	r5, r1
 6555 0008 0190     		str	r0, [sp, #4]
 6556              		.loc 1 1670 0
 6557 000a 0021     		movs	r1, #0
 6558              	.LVL877:
 6559 000c 1046     		mov	r0, r2
 6560              	.LVL878:
 6561              		.loc 1 1666 0
 6562 000e 1446     		mov	r4, r2
 6563              		.loc 1 1670 0
 6564 0010 FFF7FEFF 		bl	mpi_cmp_int
 6565              	.LVL879:
ARM GAS  C:\Users\jo\AppData\Local\Temp\ccxFvVJt.s 			page 117


 6566 0014 0028     		cmp	r0, #0
 6567 0016 40F31181 		ble	.L720
 6568              	.LVL880:
 6569              	.LBB230:
 6570              	.LBB231:
 6571              		.loc 1 61 0
 6572 001a 0023     		movs	r3, #0
 6573              		.loc 1 60 0
 6574 001c 0126     		movs	r6, #1
 6575              	.LBE231:
 6576              	.LBE230:
 6577              		.loc 1 1677 0
 6578 001e 03A8     		add	r0, sp, #12
 6579 0020 2946     		mov	r1, r5
 6580 0022 2246     		mov	r2, r4
 6581              	.LBB234:
 6582              	.LBB232:
 6583              		.loc 1 61 0
 6584 0024 0793     		str	r3, [sp, #28]
 6585              		.loc 1 62 0
 6586 0026 0893     		str	r3, [sp, #32]
 6587              	.LVL881:
 6588              	.LBE232:
 6589              	.LBE234:
 6590              	.LBB235:
 6591              	.LBB236:
 6592              		.loc 1 61 0
 6593 0028 0A93     		str	r3, [sp, #40]
 6594              		.loc 1 62 0
 6595 002a 0B93     		str	r3, [sp, #44]
 6596              	.LVL882:
 6597              	.LBE236:
 6598              	.LBE235:
 6599              	.LBB238:
 6600              	.LBB239:
 6601              		.loc 1 61 0
 6602 002c 0D93     		str	r3, [sp, #52]
 6603              		.loc 1 62 0
 6604 002e 0E93     		str	r3, [sp, #56]
 6605              	.LVL883:
 6606              	.LBE239:
 6607              	.LBE238:
 6608              	.LBB241:
 6609              	.LBB242:
 6610              		.loc 1 61 0
 6611 0030 1093     		str	r3, [sp, #64]
 6612              		.loc 1 62 0
 6613 0032 1193     		str	r3, [sp, #68]
 6614              	.LVL884:
 6615              	.LBE242:
 6616              	.LBE241:
 6617              	.LBB244:
 6618              	.LBB245:
 6619              		.loc 1 61 0
 6620 0034 0493     		str	r3, [sp, #16]
 6621              		.loc 1 62 0
 6622 0036 0593     		str	r3, [sp, #20]
ARM GAS  C:\Users\jo\AppData\Local\Temp\ccxFvVJt.s 			page 118


 6623              	.LVL885:
 6624              	.LBE245:
 6625              	.LBE244:
 6626              	.LBB247:
 6627              	.LBB248:
 6628              		.loc 1 61 0
 6629 0038 1393     		str	r3, [sp, #76]
 6630              		.loc 1 62 0
 6631 003a 1493     		str	r3, [sp, #80]
 6632              	.LVL886:
 6633              	.LBE248:
 6634              	.LBE247:
 6635              	.LBB250:
 6636              	.LBB251:
 6637              		.loc 1 61 0
 6638 003c 1693     		str	r3, [sp, #88]
 6639              		.loc 1 62 0
 6640 003e 1793     		str	r3, [sp, #92]
 6641              	.LVL887:
 6642              	.LBE251:
 6643              	.LBE250:
 6644              	.LBB253:
 6645              	.LBB254:
 6646              		.loc 1 61 0
 6647 0040 1993     		str	r3, [sp, #100]
 6648              		.loc 1 62 0
 6649 0042 1A93     		str	r3, [sp, #104]
 6650              	.LVL888:
 6651              	.LBE254:
 6652              	.LBE253:
 6653              	.LBB256:
 6654              	.LBB257:
 6655              		.loc 1 61 0
 6656 0044 1C93     		str	r3, [sp, #112]
 6657              		.loc 1 62 0
 6658 0046 1D93     		str	r3, [sp, #116]
 6659              	.LBE257:
 6660              	.LBE256:
 6661              	.LBB259:
 6662              	.LBB233:
 6663              		.loc 1 60 0
 6664 0048 0696     		str	r6, [sp, #24]
 6665              	.LBE233:
 6666              	.LBE259:
 6667              	.LBB260:
 6668              	.LBB237:
 6669 004a 0996     		str	r6, [sp, #36]
 6670              	.LBE237:
 6671              	.LBE260:
 6672              	.LBB261:
 6673              	.LBB240:
 6674 004c 0C96     		str	r6, [sp, #48]
 6675              	.LBE240:
 6676              	.LBE261:
 6677              	.LBB262:
 6678              	.LBB243:
 6679 004e 0F96     		str	r6, [sp, #60]
ARM GAS  C:\Users\jo\AppData\Local\Temp\ccxFvVJt.s 			page 119


 6680              	.LBE243:
 6681              	.LBE262:
 6682              	.LBB263:
 6683              	.LBB246:
 6684 0050 0396     		str	r6, [sp, #12]
 6685              	.LBE246:
 6686              	.LBE263:
 6687              	.LBB264:
 6688              	.LBB249:
 6689 0052 1296     		str	r6, [sp, #72]
 6690              	.LBE249:
 6691              	.LBE264:
 6692              	.LBB265:
 6693              	.LBB252:
 6694 0054 1596     		str	r6, [sp, #84]
 6695              	.LBE252:
 6696              	.LBE265:
 6697              	.LBB266:
 6698              	.LBB255:
 6699 0056 1896     		str	r6, [sp, #96]
 6700              	.LBE255:
 6701              	.LBE266:
 6702              	.LBB267:
 6703              	.LBB258:
 6704 0058 1B96     		str	r6, [sp, #108]
 6705              	.LBE258:
 6706              	.LBE267:
 6707              		.loc 1 1677 0
 6708 005a FFF7FEFF 		bl	mpi_gcd
 6709              	.LVL889:
 6710 005e 0346     		mov	r3, r0
 6711 0060 68B3     		cbz	r0, .L748
 6712              	.LVL890:
 6713              	.L741:
 6714 0062 0DF1180B 		add	fp, sp, #24
 6715              	.LVL891:
 6716 0066 09AD     		add	r5, sp, #36
 6717              	.LVL892:
 6718              	.L742:
 6719 0068 12AF     		add	r7, sp, #72
 6720              	.LVL893:
 6721              	.L743:
 6722 006a 0DF15409 		add	r9, sp, #84
 6723              	.LVL894:
 6724              	.L744:
 6725 006e 0CAA     		add	r2, sp, #48
 6726              	.LVL895:
 6727 0070 0092     		str	r2, [sp]
 6728 0072 0DF13C0A 		add	r10, sp, #60
 6729              	.LVL896:
 6730              	.L745:
 6731 0076 18AE     		add	r6, sp, #96
 6732              	.LVL897:
 6733              	.L746:
 6734 0078 0DF16C08 		add	r8, sp, #108
 6735              	.LVL898:
 6736              	.L702:
ARM GAS  C:\Users\jo\AppData\Local\Temp\ccxFvVJt.s 			page 120


 6737              		.loc 1 1750 0
 6738 007c 5846     		mov	r0, fp
 6739 007e 0193     		str	r3, [sp, #4]
 6740              	.LVL899:
 6741 0080 FFF7FEFF 		bl	mpi_free
 6742              	.LVL900:
 6743 0084 2846     		mov	r0, r5
 6744 0086 FFF7FEFF 		bl	mpi_free
 6745              	.LVL901:
 6746 008a 0098     		ldr	r0, [sp]
 6747 008c FFF7FEFF 		bl	mpi_free
 6748              	.LVL902:
 6749 0090 5046     		mov	r0, r10
 6750 0092 FFF7FEFF 		bl	mpi_free
 6751              	.LVL903:
 6752              		.loc 1 1751 0
 6753 0096 03A8     		add	r0, sp, #12
 6754              	.LVL904:
 6755 0098 FFF7FEFF 		bl	mpi_free
 6756              	.LVL905:
 6757 009c 3846     		mov	r0, r7
 6758 009e FFF7FEFF 		bl	mpi_free
 6759              	.LVL906:
 6760 00a2 4846     		mov	r0, r9
 6761 00a4 FFF7FEFF 		bl	mpi_free
 6762              	.LVL907:
 6763              		.loc 1 1752 0
 6764 00a8 3046     		mov	r0, r6
 6765 00aa FFF7FEFF 		bl	mpi_free
 6766              	.LVL908:
 6767 00ae 4046     		mov	r0, r8
 6768 00b0 FFF7FEFF 		bl	mpi_free
 6769              	.LVL909:
 6770              		.loc 1 1754 0
 6771 00b4 019B     		ldr	r3, [sp, #4]
 6772 00b6 1846     		mov	r0, r3
 6773              	.LVL910:
 6774              	.L701:
 6775              		.loc 1 1755 0
 6776 00b8 1FB0     		add	sp, sp, #124
 6777              		.cfi_remember_state
 6778              		.cfi_def_cfa_offset 36
 6779              		@ sp needed
 6780 00ba BDE8F08F 		pop	{r4, r5, r6, r7, r8, r9, r10, fp, pc}
 6781              	.LVL911:
 6782              	.L748:
 6783              		.cfi_restore_state
 6784              		.loc 1 1679 0
 6785 00be 03A8     		add	r0, sp, #12
 6786              	.LVL912:
 6787 00c0 3146     		mov	r1, r6
 6788 00c2 FFF7FEFF 		bl	mpi_cmp_int
 6789              	.LVL913:
 6790 00c6 10B1     		cbz	r0, .L749
 6791              		.loc 1 1681 0
 6792 00c8 6FF00D03 		mvn	r3, #13
 6793 00cc C9E7     		b	.L741
ARM GAS  C:\Users\jo\AppData\Local\Temp\ccxFvVJt.s 			page 121


 6794              	.L749:
 6795              		.loc 1 1685 0
 6796 00ce 0DF1180B 		add	fp, sp, #24
 6797              	.LVL914:
 6798 00d2 2946     		mov	r1, r5
 6799 00d4 5846     		mov	r0, fp
 6800 00d6 2246     		mov	r2, r4
 6801 00d8 FFF7FEFF 		bl	mpi_mod_mpi
 6802              	.LVL915:
 6803 00dc 09AD     		add	r5, sp, #36
 6804              	.LVL916:
 6805 00de 0346     		mov	r3, r0
 6806 00e0 0028     		cmp	r0, #0
 6807 00e2 C1D1     		bne	.L742
 6808              		.loc 1 1686 0
 6809 00e4 2846     		mov	r0, r5
 6810              	.LVL917:
 6811 00e6 5946     		mov	r1, fp
 6812 00e8 FFF7FEFF 		bl	mpi_copy
 6813              	.LVL918:
 6814 00ec 12AF     		add	r7, sp, #72
 6815              	.LVL919:
 6816 00ee 0346     		mov	r3, r0
 6817 00f0 0028     		cmp	r0, #0
 6818 00f2 BAD1     		bne	.L743
 6819              		.loc 1 1687 0
 6820 00f4 3846     		mov	r0, r7
 6821              	.LVL920:
 6822 00f6 2146     		mov	r1, r4
 6823 00f8 FFF7FEFF 		bl	mpi_copy
 6824              	.LVL921:
