ARM GAS  C:\Users\jo\AppData\Local\Temp\ccx91ntw.s 			page 1


   1              		.syntax unified
   2              		.cpu cortex-m4
   3              		.fpu softvfp
   4              		.eabi_attribute 20, 1
   5              		.eabi_attribute 21, 1
   6              		.eabi_attribute 23, 3
   7              		.eabi_attribute 24, 1
   8              		.eabi_attribute 25, 1
   9              		.eabi_attribute 26, 1
  10              		.eabi_attribute 30, 2
  11              		.eabi_attribute 34, 1
  12              		.eabi_attribute 18, 4
  13              		.thumb
  14              		.file	"blowfish.c"
  15              		.text
  16              	.Ltext0:
  17              		.cfi_sections	.debug_frame
  18              		.section	.text.blowfish_enc,"ax",%progbits
  19              		.align	2
  20              		.p2align 4,,15
  21              		.thumb
  22              		.thumb_func
  23              		.type	blowfish_enc, %function
  24              	blowfish_enc:
  25              	.LFB1:
  26              		.file 1 "../../../os/ext/PolarSSL/library/blowfish.c"
  27              		.loc 1 94 0
  28              		.cfi_startproc
  29              		@ args = 0, pretend = 0, frame = 0
  30              		@ frame_needed = 0, uses_anonymous_args = 0
  31              	.LVL0:
  32 0000 2DE9F041 		push	{r4, r5, r6, r7, r8, lr}
  33              		.cfi_def_cfa_offset 24
  34              		.cfi_offset 4, -24
  35              		.cfi_offset 5, -20
  36              		.cfi_offset 6, -16
  37              		.cfi_offset 7, -12
  38              		.cfi_offset 8, -8
  39              		.cfi_offset 14, -4
  40              		.loc 1 98 0
  41 0004 0C68     		ldr	r4, [r1]
  42              	.LVL1:
  43              		.loc 1 99 0
  44 0006 D2F800E0 		ldr	lr, [r2]
  45              	.LVL2:
  46 000a 071F     		subs	r7, r0, #4
  47 000c 00F13C0C 		add	ip, r0, #60
  48              	.LVL3:
  49              	.L2:
  50              		.loc 1 103 0 discriminator 3
  51 0010 57F8043F 		ldr	r3, [r7, #4]!
  52 0014 6340     		eors	r3, r3, r4
  53              	.LVL4:
  54              	.LBB6:
  55              	.LBB7:
  56              		.loc 1 84 0 discriminator 3
  57 0016 1C0E     		lsrs	r4, r3, #24
ARM GAS  C:\Users\jo\AppData\Local\Temp\ccx91ntw.s 			page 2


  58              	.LVL5:
  59              		.loc 1 86 0 discriminator 3
  60 0018 C3F30748 		ubfx	r8, r3, #16, #8
  61 001c 1234     		adds	r4, r4, #18
  62              	.LVL6:
  63 001e 08F58978 		add	r8, r8, #274
  64              		.loc 1 87 0 discriminator 3
  65 0022 C3F30726 		ubfx	r6, r3, #8, #8
  66 0026 06F21226 		addw	r6, r6, #530
  67              		.loc 1 88 0 discriminator 3
  68 002a DDB2     		uxtb	r5, r3
  69              		.loc 1 86 0 discriminator 3
  70 002c 50F82440 		ldr	r4, [r0, r4, lsl #2]
  71              	.LVL7:
  72 0030 50F82880 		ldr	r8, [r0, r8, lsl #2]
  73              		.loc 1 87 0 discriminator 3
  74 0034 50F82660 		ldr	r6, [r0, r6, lsl #2]
  75              		.loc 1 88 0 discriminator 3
  76 0038 05F21235 		addw	r5, r5, #786
  77              		.loc 1 86 0 discriminator 3
  78 003c 4444     		add	r4, r4, r8
  79              	.LVL8:
  80              		.loc 1 88 0 discriminator 3
  81 003e 50F82550 		ldr	r5, [r0, r5, lsl #2]
  82              		.loc 1 87 0 discriminator 3
  83 0042 7440     		eors	r4, r4, r6
  84              	.LVL9:
  85              		.loc 1 88 0 discriminator 3
  86 0044 2C44     		add	r4, r4, r5
  87              	.LVL10:
  88              	.LBE7:
  89              	.LBE6:
  90              		.loc 1 101 0 discriminator 3
  91 0046 6745     		cmp	r7, ip
  92              		.loc 1 104 0 discriminator 3
  93 0048 8EEA0404 		eor	r4, lr, r4
  94              	.LVL11:
  95              		.loc 1 103 0 discriminator 3
  96 004c 9E46     		mov	lr, r3
  97              		.loc 1 101 0 discriminator 3
  98 004e DFD1     		bne	.L2
  99              	.LVL12:
 100              		.loc 1 115 0
 101 0050 036C     		ldr	r3, [r0, #64]
 102              	.LVL13:
 103              		.loc 1 116 0
 104 0052 456C     		ldr	r5, [r0, #68]
 105              		.loc 1 115 0
 106 0054 5C40     		eors	r4, r4, r3
 107              	.LVL14:
 108              		.loc 1 116 0
 109 0056 8EEA0500 		eor	r0, lr, r5
 110              	.LVL15:
 111              		.loc 1 118 0
 112 005a 0860     		str	r0, [r1]
 113              	.LVL16:
 114              		.loc 1 119 0
ARM GAS  C:\Users\jo\AppData\Local\Temp\ccx91ntw.s 			page 3


 115 005c 1460     		str	r4, [r2]
 116 005e BDE8F081 		pop	{r4, r5, r6, r7, r8, pc}
 117              		.cfi_endproc
 118              	.LFE1:
 119              		.size	blowfish_enc, .-blowfish_enc
 120 0062 00BFAFF3 		.section	.text.blowfish_setkey,"ax",%progbits
 120      0080AFF3 
 120      0080AFF3 
 120      0080
 121              		.align	2
 122              		.p2align 4,,15
 123              		.global	blowfish_setkey
 124              		.thumb
 125              		.thumb_func
 126              		.type	blowfish_setkey, %function
 127              	blowfish_setkey:
 128              	.LFB3:
 129              		.loc 1 155 0
 130              		.cfi_startproc
 131              		@ args = 0, pretend = 0, frame = 8
 132              		@ frame_needed = 0, uses_anonymous_args = 0
 133              	.LVL17:
 134              		.loc 1 159 0
 135 0000 A2F12003 		sub	r3, r2, #32
 136 0004 B3F5D07F 		cmp	r3, #416
 137 0008 58D8     		bhi	.L18
 138              		.loc 1 159 0 is_stmt 0 discriminator 1
 139 000a 5307     		lsls	r3, r2, #29
 140 000c 56D1     		bne	.L18
 141              		.loc 1 155 0 is_stmt 1
 142 000e F0B5     		push	{r4, r5, r6, r7, lr}
 143              		.cfi_def_cfa_offset 20
 144              		.cfi_offset 4, -20
 145              		.cfi_offset 5, -16
 146              		.cfi_offset 6, -12
 147              		.cfi_offset 7, -8
 148              		.cfi_offset 14, -4
 149 0010 00F5825E 		add	lr, r0, #4160
 150 0014 2B4F     		ldr	r7, .L28
 151 0016 83B0     		sub	sp, sp, #12
 152              		.cfi_def_cfa_offset 32
 153              		.loc 1 165 0
 154 0018 D608     		lsrs	r6, r2, #3
 155              	.LVL18:
 156 001a 0EF1040E 		add	lr, lr, #4
 157 001e 00F14403 		add	r3, r0, #68
 158              	.LVL19:
 159              	.L8:
 160 0022 03F58065 		add	r5, r3, #1024
 161              		.loc 1 155 0
 162 0026 3A46     		mov	r2, r7
 163              	.LVL20:
 164              	.L9:
 165              		.loc 1 170 0 discriminator 3
 166 0028 52F8044F 		ldr	r4, [r2, #4]!
 167 002c 43F8044F 		str	r4, [r3, #4]!
 168              		.loc 1 169 0 discriminator 3
ARM GAS  C:\Users\jo\AppData\Local\Temp\ccx91ntw.s 			page 4


 169 0030 AB42     		cmp	r3, r5
 170 0032 F9D1     		bne	.L9
 171              		.loc 1 167 0 discriminator 2
 172 0034 9E45     		cmp	lr, r3
 173 0036 07F58067 		add	r7, r7, #1024
 174 003a F2D1     		bne	.L8
 175 003c 224F     		ldr	r7, .L28+4
 176 003e A0F1040E 		sub	lr, r0, #4
 177 0042 07F1480C 		add	ip, r7, #72
 178              		.loc 1 167 0 is_stmt 0
 179 0046 0023     		movs	r3, #0
 180              	.L10:
 181              	.LVL21:
 182              		.loc 1 155 0 is_stmt 1
 183 0048 0422     		movs	r2, #4
 184 004a 0024     		movs	r4, #0
 185              	.LVL22:
 186              	.L12:
 187              		.loc 1 179 0
 188 004c CD5C     		ldrb	r5, [r1, r3]	@ zero_extendqisi2
 189 004e 0133     		adds	r3, r3, #1
 190              	.LVL23:
 191              		.loc 1 181 0
 192 0050 9E42     		cmp	r6, r3
 193 0052 98BF     		it	ls
 194 0054 0023     		movls	r3, #0
 195              	.LVL24:
 196              		.loc 1 177 0
 197 0056 013A     		subs	r2, r2, #1
 198              	.LVL25:
 199              		.loc 1 179 0
 200 0058 45EA0424 		orr	r4, r5, r4, lsl #8
 201              	.LVL26:
 202              		.loc 1 177 0
 203 005c F6D1     		bne	.L12
 204              		.loc 1 183 0
 205 005e 57F8045F 		ldr	r5, [r7, #4]!
 206 0062 6C40     		eors	r4, r4, r5
 207              	.LVL27:
 208              		.loc 1 174 0
 209 0064 6745     		cmp	r7, ip
 210              		.loc 1 183 0
 211 0066 4EF8044F 		str	r4, [lr, #4]!
 212              		.loc 1 174 0
 213 006a EDD1     		bne	.L10
 214 006c 0546     		mov	r5, r0
 215              		.loc 1 186 0
 216 006e 0092     		str	r2, [sp]
 217              		.loc 1 187 0
 218 0070 0192     		str	r2, [sp, #4]
 219              	.LVL28:
 220 0072 0446     		mov	r4, r0
 221 0074 00F14807 		add	r7, r0, #72
 222 0078 0646     		mov	r6, r0
 223              	.LVL29:
 224              	.L14:
 225              		.loc 1 191 0 discriminator 3
ARM GAS  C:\Users\jo\AppData\Local\Temp\ccx91ntw.s 			page 5


 226 007a 01AA     		add	r2, sp, #4
 227 007c 2846     		mov	r0, r5
 228 007e 6946     		mov	r1, sp
 229 0080 FFF7FEFF 		bl	blowfish_enc
 230              	.LVL30:
 231              		.loc 1 193 0 discriminator 3
 232 0084 9DE80C00 		ldmia	sp, {r2, r3}
 233 0088 86E80C00 		stmia	r6, {r2, r3}
 234 008c 0836     		adds	r6, r6, #8
 235              		.loc 1 189 0 discriminator 3
 236 008e BE42     		cmp	r6, r7
 237 0090 F3D1     		bne	.L14
 238 0092 05F58057 		add	r7, r5, #4096
 239              	.LVL31:
 240              	.L15:
 241 0096 04F58066 		add	r6, r4, #1024
 242              	.LVL32:
 243              	.L16:
 244              		.loc 1 200 0 discriminator 3
 245 009a 01AA     		add	r2, sp, #4
 246 009c 2846     		mov	r0, r5
 247 009e 6946     		mov	r1, sp
 248 00a0 FFF7FEFF 		bl	blowfish_enc
 249              	.LVL33:
 250              		.loc 1 202 0 discriminator 3
 251 00a4 9DE80C00 		ldmia	sp, {r2, r3}
 252 00a8 0834     		adds	r4, r4, #8
 253              		.loc 1 201 0 discriminator 3
 254 00aa 2264     		str	r2, [r4, #64]
 255              		.loc 1 202 0 discriminator 3
 256 00ac 6364     		str	r3, [r4, #68]
 257              		.loc 1 198 0 discriminator 3
 258 00ae B442     		cmp	r4, r6
 259 00b0 F3D1     		bne	.L16
 260              		.loc 1 196 0 discriminator 2
 261 00b2 BC42     		cmp	r4, r7
 262 00b4 EFD1     		bne	.L15
 263              		.loc 1 205 0
 264 00b6 0020     		movs	r0, #0
 265              		.loc 1 206 0
 266 00b8 03B0     		add	sp, sp, #12
 267              		.cfi_def_cfa_offset 20
 268              		@ sp needed
 269 00ba F0BD     		pop	{r4, r5, r6, r7, pc}
 270              	.LVL34:
 271              	.L18:
 272              		.cfi_def_cfa_offset 0
 273              		.cfi_restore 4
 274              		.cfi_restore 5
 275              		.cfi_restore 6
 276              		.cfi_restore 7
 277              		.cfi_restore 14
 278              		.loc 1 162 0
 279 00bc 6FF01500 		mvn	r0, #21
 280              	.LVL35:
 281 00c0 7047     		bx	lr
 282              	.L29:
ARM GAS  C:\Users\jo\AppData\Local\Temp\ccx91ntw.s 			page 6


 283 00c2 00BF     		.align	2
 284              	.L28:
 285 00c4 FCFFFFFF 		.word	.LANCHOR0-4
 286 00c8 FCFFFFFF 		.word	.LANCHOR1-4
 287              		.cfi_endproc
 288              	.LFE3:
 289              		.size	blowfish_setkey, .-blowfish_setkey
 290 00cc AFF30080 		.section	.text.blowfish_crypt_ecb,"ax",%progbits
 291              		.align	2
 292              		.p2align 4,,15
 293              		.global	blowfish_crypt_ecb
 294              		.thumb
 295              		.thumb_func
 296              		.type	blowfish_crypt_ecb, %function
 297              	blowfish_crypt_ecb:
 298              	.LFB4:
 299              		.loc 1 215 0
 300              		.cfi_startproc
 301              		@ args = 0, pretend = 0, frame = 8
 302              		@ frame_needed = 0, uses_anonymous_args = 0
 303              	.LVL36:
 304 0000 2DE9F043 		push	{r4, r5, r6, r7, r8, r9, lr}
 305              		.cfi_def_cfa_offset 28
 306              		.cfi_offset 4, -28
 307              		.cfi_offset 5, -24
 308              		.cfi_offset 6, -20
 309              		.cfi_offset 7, -16
 310              		.cfi_offset 8, -12
 311              		.cfi_offset 9, -8
 312              		.cfi_offset 14, -4
 313              		.loc 1 219 0
 314 0004 92F805E0 		ldrb	lr, [r2, #5]	@ zero_extendqisi2
 315              		.loc 1 218 0
 316 0008 92F80190 		ldrb	r9, [r2, #1]	@ zero_extendqisi2
 317 000c 1778     		ldrb	r7, [r2]	@ zero_extendqisi2
 318 000e D578     		ldrb	r5, [r2, #3]	@ zero_extendqisi2
 319              		.loc 1 219 0
 320 0010 92F807C0 		ldrb	ip, [r2, #7]	@ zero_extendqisi2
 321              		.loc 1 218 0
 322 0014 9478     		ldrb	r4, [r2, #2]	@ zero_extendqisi2
 323              		.loc 1 219 0
 324 0016 92F80680 		ldrb	r8, [r2, #6]	@ zero_extendqisi2
 325              		.loc 1 215 0
 326 001a 1E46     		mov	r6, r3
 327              		.loc 1 219 0
 328 001c 1379     		ldrb	r3, [r2, #4]	@ zero_extendqisi2
 329              	.LVL37:
 330 001e 4FEA0E4E 		lsl	lr, lr, #16
 331              		.loc 1 218 0
 332 0022 4FEA0942 		lsl	r2, r9, #16
 333              	.LVL38:
 334 0026 42EA0762 		orr	r2, r2, r7, lsl #24
 335              		.loc 1 219 0
 336 002a 4EEA0363 		orr	r3, lr, r3, lsl #24
 337 002e 2A43     		orrs	r2, r2, r5
 338 0030 43EA0C07 		orr	r7, r3, ip
 339              		.loc 1 215 0
ARM GAS  C:\Users\jo\AppData\Local\Temp\ccx91ntw.s 			page 7


 340 0034 83B0     		sub	sp, sp, #12
 341              		.cfi_def_cfa_offset 40
 342              		.loc 1 218 0
 343 0036 42EA0424 		orr	r4, r2, r4, lsl #8
 344              		.loc 1 219 0
 345 003a 47EA0827 		orr	r7, r7, r8, lsl #8
 346 003e 8DE89000 		stmia	sp, {r4, r7}
 347              		.loc 1 221 0
 348 0042 B9B1     		cbz	r1, .L36
 349              		.loc 1 227 0
 350 0044 6946     		mov	r1, sp
 351              	.LVL39:
 352 0046 01AA     		add	r2, sp, #4
 353 0048 FFF7FEFF 		bl	blowfish_enc
 354              	.LVL40:
 355 004c 009F     		ldr	r7, [sp]
 356 004e 019C     		ldr	r4, [sp, #4]
 357              	.L33:
 358              		.loc 1 230 0
 359 0050 F770     		strb	r7, [r6, #3]
 360 0052 380C     		lsrs	r0, r7, #16
 361 0054 3D0E     		lsrs	r5, r7, #24
 362              		.loc 1 231 0
 363 0056 210E     		lsrs	r1, r4, #24
 364              		.loc 1 230 0
 365 0058 3F0A     		lsrs	r7, r7, #8
 366              		.loc 1 231 0
 367 005a 220C     		lsrs	r2, r4, #16
 368 005c 230A     		lsrs	r3, r4, #8
 369              		.loc 1 230 0
 370 005e 7070     		strb	r0, [r6, #1]
 371              		.loc 1 234 0
 372 0060 0020     		movs	r0, #0
 373              		.loc 1 231 0
 374 0062 F471     		strb	r4, [r6, #7]
 375              		.loc 1 230 0
 376 0064 3570     		strb	r5, [r6]
 377 0066 B770     		strb	r7, [r6, #2]
 378              		.loc 1 231 0
 379 0068 3171     		strb	r1, [r6, #4]
 380 006a 7271     		strb	r2, [r6, #5]
 381 006c B371     		strb	r3, [r6, #6]
 382              		.loc 1 234 0
 383 006e 03B0     		add	sp, sp, #12
 384              		.cfi_remember_state
 385              		.cfi_def_cfa_offset 28
 386              		@ sp needed
 387 0070 BDE8F083 		pop	{r4, r5, r6, r7, r8, r9, pc}
 388              	.LVL41:
 389              	.L36:
 390              		.cfi_restore_state
 391 0074 0546     		mov	r5, r0
 392 0076 00F1480E 		add	lr, r0, #72
 393 007a 00F1080C 		add	ip, r0, #8
 394              	.LVL42:
 395              	.L32:
 396              	.LBB12:
ARM GAS  C:\Users\jo\AppData\Local\Temp\ccx91ntw.s 			page 8


 397              	.LBB13:
 398              		.loc 1 132 0
 399 007e 5EF8042D 		ldr	r2, [lr, #-4]!
 400 0082 6240     		eors	r2, r2, r4
 401              	.LVL43:
 402              	.LBB14:
 403              	.LBB15:
 404              		.loc 1 84 0
 405 0084 130E     		lsrs	r3, r2, #24
 406              	.LVL44:
 407              		.loc 1 86 0
 408 0086 C2F30744 		ubfx	r4, r2, #16, #8
 409 008a 1233     		adds	r3, r3, #18
 410              	.LVL45:
 411 008c 04F58974 		add	r4, r4, #274
 412              		.loc 1 87 0
 413 0090 C2F30720 		ubfx	r0, r2, #8, #8
 414 0094 00F21220 		addw	r0, r0, #530
 415              		.loc 1 88 0
 416 0098 D1B2     		uxtb	r1, r2
 417              		.loc 1 86 0
 418 009a 55F82330 		ldr	r3, [r5, r3, lsl #2]
 419              	.LVL46:
 420 009e 55F82440 		ldr	r4, [r5, r4, lsl #2]
 421              		.loc 1 87 0
 422 00a2 55F82000 		ldr	r0, [r5, r0, lsl #2]
 423              		.loc 1 88 0
 424 00a6 01F21231 		addw	r1, r1, #786
 425              		.loc 1 86 0
 426 00aa 1C44     		add	r4, r4, r3
 427              	.LVL47:
 428              		.loc 1 88 0
 429 00ac 55F82110 		ldr	r1, [r5, r1, lsl #2]
 430              		.loc 1 87 0
 431 00b0 4440     		eors	r4, r4, r0
 432              	.LVL48:
 433              		.loc 1 88 0
 434 00b2 0C44     		add	r4, r4, r1
 435              	.LVL49:
 436              	.LBE15:
 437              	.LBE14:
 438              		.loc 1 130 0
 439 00b4 E645     		cmp	lr, ip
 440              		.loc 1 133 0
 441 00b6 84EA0704 		eor	r4, r4, r7
 442              	.LVL50:
 443              		.loc 1 132 0
 444 00ba 1746     		mov	r7, r2
 445              		.loc 1 130 0
 446 00bc DFD1     		bne	.L32
 447              	.LVL51:
 448              		.loc 1 144 0
 449 00be 6A68     		ldr	r2, [r5, #4]
 450              	.LVL52:
 451              		.loc 1 145 0
 452 00c0 2B68     		ldr	r3, [r5]
 453              	.LVL53:
ARM GAS  C:\Users\jo\AppData\Local\Temp\ccx91ntw.s 			page 9


 454 00c2 5440     		eors	r4, r4, r2
 455              	.LVL54:
 456 00c4 5F40     		eors	r7, r7, r3
 457              	.LVL55:
 458 00c6 C3E7     		b	.L33
 459              	.LBE13:
 460              	.LBE12:
 461              		.cfi_endproc
 462              	.LFE4:
 463              		.size	blowfish_crypt_ecb, .-blowfish_crypt_ecb
 464 00c8 AFF30080 		.section	.text.blowfish_crypt_cbc,"ax",%progbits
 464      AFF30080 
 465              		.align	2
 466              		.p2align 4,,15
 467              		.global	blowfish_crypt_cbc
 468              		.thumb
 469              		.thumb_func
 470              		.type	blowfish_crypt_cbc, %function
 471              	blowfish_crypt_cbc:
 472              	.LFB5:
 473              		.loc 1 245 0
 474              		.cfi_startproc
 475              		@ args = 8, pretend = 0, frame = 8
 476              		@ frame_needed = 0, uses_anonymous_args = 0
 477              	.LVL56:
 478 0000 2DE9F047 		push	{r4, r5, r6, r7, r8, r9, r10, lr}
 479              		.cfi_def_cfa_offset 32
 480              		.cfi_offset 4, -32
 481              		.cfi_offset 5, -28
 482              		.cfi_offset 6, -24
 483              		.cfi_offset 7, -20
 484              		.cfi_offset 8, -16
 485              		.cfi_offset 9, -12
 486              		.cfi_offset 10, -8
 487              		.cfi_offset 14, -4
 488 0004 1546     		mov	r5, r2
 489 0006 82B0     		sub	sp, sp, #8
 490              		.cfi_def_cfa_offset 40
 491              		.loc 1 249 0
 492 0008 6A07     		lsls	r2, r5, #29
 493              	.LVL57:
 494              		.loc 1 245 0
 495 000a DDF828A0 		ldr	r10, [sp, #40]
 496 000e 0B9C     		ldr	r4, [sp, #44]
 497              		.loc 1 249 0
 498 0010 52D1     		bne	.L46
 499 0012 0646     		mov	r6, r0
 500 0014 8946     		mov	r9, r1
 501 0016 9846     		mov	r8, r3
 502              		.loc 1 252 0
 503 0018 51BB     		cbnz	r1, .L56
 504              	.LVL58:
 505              		.loc 1 254 0
 506 001a 2DB3     		cbz	r5, .L41
 507 001c 5F1E     		subs	r7, r3, #1
 508              	.LVL59:
 509              	.L43:
ARM GAS  C:\Users\jo\AppData\Local\Temp\ccx91ntw.s 			page 10


 510              		.loc 1 256 0
 511 001e DAF80000 		ldr	r0, [r10]	@ unaligned
 512 0022 DAF80410 		ldr	r1, [r10, #4]	@ unaligned
 513 0026 6B46     		mov	r3, sp
 514 0028 03C3     		stmia	r3!, {r0, r1}
 515              		.loc 1 257 0
 516 002a 5246     		mov	r2, r10
 517 002c 0021     		movs	r1, #0
 518 002e 2346     		mov	r3, r4
 519 0030 3046     		mov	r0, r6
 520 0032 FFF7FEFF 		bl	blowfish_crypt_ecb
 521              	.LVL60:
 522 0036 631E     		subs	r3, r4, #1
 523 0038 3946     		mov	r1, r7
 524 003a 04F1070E 		add	lr, r4, #7
 525              	.LVL61:
 526              	.L42:
 527              		.loc 1 260 0 discriminator 3
 528 003e 13F8012F 		ldrb	r2, [r3, #1]!	@ zero_extendqisi2
 529 0042 11F8010F 		ldrb	r0, [r1, #1]!	@ zero_extendqisi2
 530              		.loc 1 259 0 discriminator 3
 531 0046 7345     		cmp	r3, lr
 532              		.loc 1 260 0 discriminator 3
 533 0048 82EA0002 		eor	r2, r2, r0
 534 004c 1A70     		strb	r2, [r3]
 535              		.loc 1 259 0 discriminator 3
 536 004e F6D1     		bne	.L42
 537              		.loc 1 262 0
 538 0050 6B46     		mov	r3, sp
 539 0052 03CB     		ldmia	r3!, {r0, r1}
 540              		.loc 1 254 0
 541 0054 083D     		subs	r5, r5, #8
 542              	.LVL62:
 543              		.loc 1 264 0
 544 0056 0AF1080A 		add	r10, r10, #8
 545              		.loc 1 265 0
 546 005a 04F10804 		add	r4, r4, #8
 547              		.loc 1 262 0
 548 005e C8F80000 		str	r0, [r8]	@ unaligned
 549 0062 C8F80410 		str	r1, [r8, #4]	@ unaligned
 550              	.LVL63:
 551              		.loc 1 254 0
 552 0066 DAD1     		bne	.L43
 553              	.L41:
 554              		.loc 1 285 0
 555 0068 0020     		movs	r0, #0
 556              	.LVL64:
 557              	.L54:
 558              		.loc 1 286 0
 559 006a 02B0     		add	sp, sp, #8
 560              		.cfi_remember_state
 561              		.cfi_def_cfa_offset 32
 562              		@ sp needed
 563 006c BDE8F087 		pop	{r4, r5, r6, r7, r8, r9, r10, pc}
 564              	.LVL65:
 565              	.L56:
 566              		.cfi_restore_state
ARM GAS  C:\Users\jo\AppData\Local\Temp\ccx91ntw.s 			page 11


 567              		.loc 1 271 0
 568 0070 002D     		cmp	r5, #0
 569 0072 F9D0     		beq	.L41
 570 0074 0AF1FF3A 		add	r10, r10, #-1
 571              	.LVL66:
 572 0078 5F1E     		subs	r7, r3, #1
 573              	.LVL67:
 574              	.L45:
 575 007a 3946     		mov	r1, r7
 576 007c 621E     		subs	r2, r4, #1
 577 007e 0AF1080E 		add	lr, r10, #8
 578              	.LVL68:
 579              	.L44:
 580              		.loc 1 274 0 discriminator 3
 581 0082 1AF8013F 		ldrb	r3, [r10, #1]!	@ zero_extendqisi2
 582              	.LVL69:
 583 0086 11F8010F 		ldrb	r0, [r1, #1]!	@ zero_extendqisi2
 584              		.loc 1 273 0 discriminator 3
 585 008a F245     		cmp	r10, lr
 586              		.loc 1 274 0 discriminator 3
 587 008c 83EA0003 		eor	r3, r3, r0
 588 0090 02F8013F 		strb	r3, [r2, #1]!
 589              	.LVL70:
 590              		.loc 1 273 0 discriminator 3
 591 0094 F5D1     		bne	.L44
 592              		.loc 1 276 0
 593 0096 2246     		mov	r2, r4
 594 0098 2346     		mov	r3, r4
 595 009a 3046     		mov	r0, r6
 596 009c 4946     		mov	r1, r9
 597 009e FFF7FEFF 		bl	blowfish_crypt_ecb
 598              	.LVL71:
 599              		.loc 1 277 0
 600 00a2 2368     		ldr	r3, [r4]	@ unaligned
 601 00a4 6268     		ldr	r2, [r4, #4]	@ unaligned
 602 00a6 C8F80420 		str	r2, [r8, #4]	@ unaligned
 603              	.LVL72:
 604              		.loc 1 271 0
 605 00aa 083D     		subs	r5, r5, #8
 606              	.LVL73:
 607              		.loc 1 277 0
 608 00ac C8F80030 		str	r3, [r8]	@ unaligned
 609              		.loc 1 280 0
 610 00b0 04F10804 		add	r4, r4, #8
 611              	.LVL74:
 612              		.loc 1 271 0
 613 00b4 E1D1     		bne	.L45
 614 00b6 D7E7     		b	.L41
 615              	.LVL75:
 616              	.L46:
 617              		.loc 1 250 0
 618 00b8 6FF01700 		mvn	r0, #23
 619              	.LVL76:
 620 00bc D5E7     		b	.L54
 621              		.cfi_endproc
 622              	.LFE5:
 623              		.size	blowfish_crypt_cbc, .-blowfish_crypt_cbc
ARM GAS  C:\Users\jo\AppData\Local\Temp\ccx91ntw.s 			page 12


 624              		.section	.text.blowfish_crypt_cfb64,"ax",%progbits
 625              		.align	2
 626              		.p2align 4,,15
 627              		.global	blowfish_crypt_cfb64
 628              		.thumb
 629              		.thumb_func
 630              		.type	blowfish_crypt_cfb64, %function
 631              	blowfish_crypt_cfb64:
 632              	.LFB6:
 633              		.loc 1 299 0
 634              		.cfi_startproc
 635              		@ args = 12, pretend = 0, frame = 0
 636              		@ frame_needed = 0, uses_anonymous_args = 0
 637              	.LVL77:
 638 0000 2DE9F047 		push	{r4, r5, r6, r7, r8, r9, r10, lr}
 639              		.cfi_def_cfa_offset 32
 640              		.cfi_offset 4, -32
 641              		.cfi_offset 5, -28
 642              		.cfi_offset 6, -24
 643              		.cfi_offset 7, -20
 644              		.cfi_offset 8, -16
 645              		.cfi_offset 9, -12
 646              		.cfi_offset 10, -8
 647              		.cfi_offset 14, -4
 648              		.loc 1 299 0
 649 0004 08AE     		add	r6, sp, #32
 650              	.LVL78:
 651 0006 9846     		mov	r8, r3
 652 0008 0746     		mov	r7, r0
 653              		.loc 1 301 0
 654 000a 1C68     		ldr	r4, [r3]
 655              		.loc 1 299 0
 656 000c 96E84006 		ldmia	r6, {r6, r9, r10}
 657              	.LVL79:
 658              		.loc 1 303 0
 659 0010 A9B1     		cbz	r1, .L58
 660              	.LVL80:
 661              		.loc 1 319 0
 662 0012 7AB1     		cbz	r2, .L60
 663 0014 0AF1FF3A 		add	r10, r10, #-1
 664 0018 1546     		mov	r5, r2
 665              	.LVL81:
 666              	.L64:
 667              		.loc 1 321 0
 668 001a 4CB3     		cbz	r4, .L72
 669              	.L63:
 670              		.loc 1 324 0
 671 001c 315D     		ldrb	r1, [r6, r4]	@ zero_extendqisi2
 672 001e 19F8013B 		ldrb	r3, [r9], #1	@ zero_extendqisi2
 673              	.LVL82:
 674              		.loc 1 326 0
 675 0022 621C     		adds	r2, r4, #1
 676              		.loc 1 324 0
 677 0024 4B40     		eors	r3, r3, r1
 678              		.loc 1 319 0
 679 0026 013D     		subs	r5, r5, #1
 680              	.LVL83:
ARM GAS  C:\Users\jo\AppData\Local\Temp\ccx91ntw.s 			page 13


 681              		.loc 1 324 0
 682 0028 0AF8013F 		strb	r3, [r10, #1]!
 683 002c 3355     		strb	r3, [r6, r4]
 684              		.loc 1 326 0
 685 002e 02F00704 		and	r4, r2, #7
 686              	.LVL84:
 687              		.loc 1 319 0
 688 0032 F2D1     		bne	.L64
 689              	.L60:
 690              		.loc 1 330 0
 691 0034 C8F80040 		str	r4, [r8]
 692              		.loc 1 333 0
 693 0038 0020     		movs	r0, #0
 694 003a BDE8F087 		pop	{r4, r5, r6, r7, r8, r9, r10, pc}
 695              	.LVL85:
 696              	.L58:
 697              		.loc 1 305 0
 698 003e 002A     		cmp	r2, #0
 699 0040 F8D0     		beq	.L60
 700 0042 1546     		mov	r5, r2
 701              		.loc 1 307 0
 702 0044 6CB1     		cbz	r4, .L73
 703              	.LVL86:
 704              	.L61:
 705              		.loc 1 311 0
 706 0046 335D     		ldrb	r3, [r6, r4]	@ zero_extendqisi2
 707              		.loc 1 310 0
 708 0048 19F8012B 		ldrb	r2, [r9], #1	@ zero_extendqisi2
 709              	.LVL87:
 710              		.loc 1 314 0
 711 004c 611C     		adds	r1, r4, #1
 712              		.loc 1 311 0
 713 004e 5340     		eors	r3, r3, r2
 714              		.loc 1 305 0
 715 0050 013D     		subs	r5, r5, #1
 716              		.loc 1 311 0
 717 0052 0AF8013B 		strb	r3, [r10], #1
 718              	.LVL88:
 719              		.loc 1 312 0
 720 0056 3255     		strb	r2, [r6, r4]
 721              		.loc 1 314 0
 722 0058 01F00704 		and	r4, r1, #7
 723              	.LVL89:
 724              		.loc 1 305 0
 725 005c EAD0     		beq	.L60
 726              	.LVL90:
 727              		.loc 1 307 0
 728 005e 002C     		cmp	r4, #0
 729 0060 F1D1     		bne	.L61
 730              	.LVL91:
 731              	.L73:
 732              		.loc 1 308 0
 733 0062 3846     		mov	r0, r7
 734 0064 0121     		movs	r1, #1
 735 0066 3246     		mov	r2, r6
 736 0068 3346     		mov	r3, r6
 737 006a FFF7FEFF 		bl	blowfish_crypt_ecb
ARM GAS  C:\Users\jo\AppData\Local\Temp\ccx91ntw.s 			page 14


 738              	.LVL92:
 739 006e EAE7     		b	.L61
 740              	.LVL93:
 741              	.L72:
 742              		.loc 1 322 0
 743 0070 3846     		mov	r0, r7
 744 0072 0121     		movs	r1, #1
 745 0074 3246     		mov	r2, r6
 746 0076 3346     		mov	r3, r6
 747 0078 FFF7FEFF 		bl	blowfish_crypt_ecb
 748              	.LVL94:
 749 007c CEE7     		b	.L63
 750              		.cfi_endproc
 751              	.LFE6:
 752              		.size	blowfish_crypt_cfb64, .-blowfish_crypt_cfb64
 753 007e 00BF     		.section	.text.blowfish_crypt_ctr,"ax",%progbits
 754              		.align	2
 755              		.p2align 4,,15
 756              		.global	blowfish_crypt_ctr
 757              		.thumb
 758              		.thumb_func
 759              		.type	blowfish_crypt_ctr, %function
 760              	blowfish_crypt_ctr:
 761              	.LFB7:
 762              		.loc 1 347 0
 763              		.cfi_startproc
 764              		@ args = 12, pretend = 0, frame = 0
 765              		@ frame_needed = 0, uses_anonymous_args = 0
 766              	.LVL95:
 767 0000 2DE9F84F 		push	{r3, r4, r5, r6, r7, r8, r9, r10, fp, lr}
 768              		.cfi_def_cfa_offset 40
 769              		.cfi_offset 3, -40
 770              		.cfi_offset 4, -36
 771              		.cfi_offset 5, -32
 772              		.cfi_offset 6, -28
 773              		.cfi_offset 7, -24
 774              		.cfi_offset 8, -20
 775              		.cfi_offset 9, -16
 776              		.cfi_offset 10, -12
 777              		.cfi_offset 11, -8
 778              		.cfi_offset 14, -4
 779              		.loc 1 347 0
 780 0004 DDF828B0 		ldr	fp, [sp, #40]
 781              		.loc 1 349 0
 782 0008 1468     		ldr	r4, [r2]
 783              	.LVL96:
 784              		.loc 1 347 0
 785 000a 0B9F     		ldr	r7, [sp, #44]
 786 000c DDF83080 		ldr	r8, [sp, #48]
 787              	.LVL97:
 788 0010 9246     		mov	r10, r2
 789              		.loc 1 351 0
 790 0012 79B1     		cbz	r1, .L75
 791 0014 8146     		mov	r9, r0
 792 0016 1E46     		mov	r6, r3
 793 0018 0D46     		mov	r5, r1
 794              	.LVL98:
ARM GAS  C:\Users\jo\AppData\Local\Temp\ccx91ntw.s 			page 15


 795              	.L77:
 796              		.loc 1 353 0
 797 001a 84B1     		cbz	r4, .L76
 798              	.LVL99:
 799              	.L78:
 800              		.loc 1 361 0
 801 001c 1BF80420 		ldrb	r2, [fp, r4]	@ zero_extendqisi2
 802 0020 17F8013B 		ldrb	r3, [r7], #1	@ zero_extendqisi2
 803              	.LVL100:
 804              		.loc 1 363 0
 805 0024 0134     		adds	r4, r4, #1
 806              	.LVL101:
 807              		.loc 1 361 0
 808 0026 5340     		eors	r3, r3, r2
 809              		.loc 1 351 0
 810 0028 013D     		subs	r5, r5, #1
 811              	.LVL102:
 812              		.loc 1 363 0
 813 002a 04F00704 		and	r4, r4, #7
 814              	.LVL103:
 815              		.loc 1 361 0
 816 002e 08F8013B 		strb	r3, [r8], #1
 817              	.LVL104:
 818              		.loc 1 351 0
 819 0032 F2D1     		bne	.L77
 820              	.LVL105:
 821              	.L75:
 822              		.loc 1 366 0
 823 0034 CAF80040 		str	r4, [r10]
 824              		.loc 1 369 0
 825 0038 0020     		movs	r0, #0
 826 003a BDE8F88F 		pop	{r3, r4, r5, r6, r7, r8, r9, r10, fp, pc}
 827              	.LVL106:
 828              	.L76:
 829              		.loc 1 354 0
 830 003e 3246     		mov	r2, r6
 831 0040 4846     		mov	r0, r9
 832 0042 0121     		movs	r1, #1
 833 0044 5B46     		mov	r3, fp
 834 0046 FFF7FEFF 		bl	blowfish_crypt_ecb
 835              	.LVL107:
 836 004a 06F10802 		add	r2, r6, #8
 837              	.LVL108:
 838              	.L79:
 839              		.loc 1 357 0
 840 004e 12F8013D 		ldrb	r3, [r2, #-1]!	@ zero_extendqisi2
 841              	.LVL109:
 842 0052 0133     		adds	r3, r3, #1
 843 0054 DBB2     		uxtb	r3, r3
 844 0056 1370     		strb	r3, [r2]
 845 0058 002B     		cmp	r3, #0
 846 005a DFD1     		bne	.L78
 847              		.loc 1 356 0 discriminator 2
 848 005c B242     		cmp	r2, r6
 849 005e F6D1     		bne	.L79
 850 0060 DCE7     		b	.L78
 851              		.cfi_endproc
ARM GAS  C:\Users\jo\AppData\Local\Temp\ccx91ntw.s 			page 16


 852              	.LFE7:
 853              		.size	blowfish_crypt_ctr, .-blowfish_crypt_ctr
 854 0062 00BFAFF3 		.section	.rodata.P,"a",%progbits
 854      0080AFF3 
 854      0080AFF3 
 854      0080
 855              		.align	2
 856              		.set	.LANCHOR1,. + 0
 857              		.type	P, %object
 858              		.size	P, 72
 859              	P:
 860 0000 886A3F24 		.word	608135816
 861 0004 D308A385 		.word	-2052912941
 862 0008 2E8A1913 		.word	320440878
 863 000c 44737003 		.word	57701188
 864 0010 223809A4 		.word	-1542899678
 865 0014 D0319F29 		.word	698298832
 866 0018 98FA2E08 		.word	137296536
 867 001c 896C4EEC 		.word	-330404727
 868 0020 E6212845 		.word	1160258022
 869 0024 7713D038 		.word	953160567
 870 0028 CF6654BE 		.word	-1101764913
 871 002c 6C0CE934 		.word	887688300
 872 0030 B729ACC0 		.word	-1062458953
 873 0034 DD507CC9 		.word	-914599715
 874 0038 B5D5843F 		.word	1065670069
 875 003c 170947B5 		.word	-1253635817
 876 0040 D9D51692 		.word	-1843997223
 877 0044 1BFB7989 		.word	-1988494565
 878              		.section	.rodata.S,"a",%progbits
 879              		.align	2
 880              		.set	.LANCHOR0,. + 0
 881              		.type	S, %object
 882              		.size	S, 4096
 883              	S:
 884 0000 A60B31D1 		.word	-785314906
 885 0004 ACB5DF98 		.word	-1730169428
 886 0008 DB72FD2F 		.word	805139163
 887 000c B7DF1AD0 		.word	-803545161
 888 0010 EDAFE1B8 		.word	-1193168915
 889 0014 967E266A 		.word	1780907670
 890 0018 45907CBA 		.word	-1166241723
 891 001c 997F2CF1 		.word	-248741991
 892 0020 4799A124 		.word	614570311
 893 0024 F76C91B3 		.word	-1282315017
 894 0028 E2F20108 		.word	134345442
 895 002c 16FC8E85 		.word	-2054226922
 896 0030 D8206963 		.word	1667834072
 897 0034 694E5771 		.word	1901547113
 898 0038 A3FE58A4 		.word	-1537671517
 899 003c 7E3D93F4 		.word	-191677058
 900 0040 8F74950D 		.word	227898511
 901 0044 58B68E72 		.word	1921955416
 902 0048 58CD8B71 		.word	1904987480
 903 004c EE4A1582 		.word	-2112533778
 904 0050 1DA4547B 		.word	2069144605
 905 0054 B5595AC2 		.word	-1034266187
ARM GAS  C:\Users\jo\AppData\Local\Temp\ccx91ntw.s 			page 17


 906 0058 39D5309C 		.word	-1674521287
 907 005c 1360F22A 		.word	720527379
 908 0060 23B0D1C5 		.word	-976113629
 909 0064 F0856028 		.word	677414384
 910 0068 187941CA 		.word	-901678824
 911 006c EF38DBB8 		.word	-1193592593
 912 0070 B0DC798E 		.word	-1904616272
 913 0074 0E183A60 		.word	1614419982
 914 0078 8B0E9E6C 		.word	1822297739
 915 007c 3E8A1EB0 		.word	-1340175810
 916 0080 C17715D7 		.word	-686458943
 917 0084 274B31BD 		.word	-1120842969
 918 0088 DA2FAF78 		.word	2024746970
 919 008c 605C6055 		.word	1432378464
 920 0090 F32555E6 		.word	-430627341
 921 0094 94AB55AA 		.word	-1437226092
 922 0098 62984857 		.word	1464375394
 923 009c 4014E863 		.word	1676153920
 924 00a0 6A39CA55 		.word	1439316330
 925 00a4 B610AB2A 		.word	715854006
 926 00a8 345CCCB4 		.word	-1261675468
 927 00ac CEE84111 		.word	289532110
 928 00b0 AF8654A1 		.word	-1588296017
 929 00b4 93E9727C 		.word	2087905683
 930 00b8 1114EEB3 		.word	-1276242927
 931 00bc 2ABC6F63 		.word	1668267050
 932 00c0 5DC5A92B 		.word	732546397
 933 00c4 F6311874 		.word	1947742710
 934 00c8 163E5CCE 		.word	-832815594
 935 00cc 1E93879B 		.word	-1685613794
 936 00d0 33BAD6AF 		.word	-1344882125
 937 00d4 5CCF246C 		.word	1814351708
 938 00d8 8153327A 		.word	2050118529
 939 00dc 77869528 		.word	680887927
 940 00e0 98488F3B 		.word	999245976
 941 00e4 AFB94B6B 		.word	1800124847
 942 00e8 1BE8BFC4 		.word	-994056165
 943 00ec 93212866 		.word	1713906067
 944 00f0 CC09D861 		.word	1641548236
 945 00f4 91A921FB 		.word	-81679983
 946 00f8 60AC7C48 		.word	1216130144
 947 00fc 3280EC5D 		.word	1575780402
 948 0100 5D5D84EF 		.word	-276538019
 949 0104 B17585E9 		.word	-377129551
 950 0108 022326DC 		.word	-601480446
 951 010c 881B65EB 		.word	-345695352
 952 0110 813E8923 		.word	596196993
 953 0114 C5AC96D3 		.word	-745100091
 954 0118 F36F6D0F 		.word	258830323
 955 011c 3942F483 		.word	-2081144263
 956 0120 82440B2E 		.word	772490370
 957 0124 042084A4 		.word	-1534844924
 958 0128 4AF0C869 		.word	1774776394
 959 012c 5E9B1F9E 		.word	-1642095778
 960 0130 4268C621 		.word	566650946
 961 0134 9A6CE9F6 		.word	-152474470
 962 0138 619C0C67 		.word	1728879713
ARM GAS  C:\Users\jo\AppData\Local\Temp\ccx91ntw.s 			page 18


 963 013c F088D3AB 		.word	-1412200208
 964 0140 D2A0516A 		.word	1783734482
 965 0144 682F54D8 		.word	-665571480
 966 0148 28A70F96 		.word	-1777359064
 967 014c A33351AB 		.word	-1420741725
 968 0150 6C0BEF6E 		.word	1861159788
 969 0154 E43B7A13 		.word	326777828
 970 0158 50F03BBA 		.word	-1170476976
 971 015c 982AFB7E 		.word	2130389656
 972 0160 1D65F1A1 		.word	-1578015459
 973 0164 7601AF39 		.word	967770486
 974 0168 3E59CA66 		.word	1724537150
 975 016c 880E4382 		.word	-2109534584
 976 0170 1986EE8C 		.word	-1930525159
 977 0174 B49F6F45 		.word	1164943284
 978 0178 C3A5847D 		.word	2105845187
 979 017c BE5E8B3B 		.word	998989502
 980 0180 D8756FE0 		.word	-529566248
 981 0184 7320C185 		.word	-2050940813
 982 0188 9F441A40 		.word	1075463327
 983 018c A66AC156 		.word	1455516326
 984 0190 62AAD34E 		.word	1322494562
 985 0194 06773F36 		.word	910128902
 986 0198 72DFFE1B 		.word	469688178
 987 019c 3D029B42 		.word	1117454909
 988 01a0 24D7D037 		.word	936433444
 989 01a4 48120AD0 		.word	-804646328
 990 01a8 D3EA0FDB 		.word	-619713837
 991 01ac 9BC0F149 		.word	1240580251
 992 01b0 C9725307 		.word	122909385
 993 01b4 7B1B9980 		.word	-2137449605
 994 01b8 D879D425 		.word	634681816
 995 01bc F7DEE8F6 		.word	-152510729
 996 01c0 1A50FEE3 		.word	-469872614
 997 01c4 3B4C79B6 		.word	-1233564613
 998 01c8 BDE06C97 		.word	-1754472259
 999 01cc BA06C004 		.word	79693498
 1000 01d0 B64FA9C1 		.word	-1045868618
 1001 01d4 C4609F40 		.word	1084186820
 1002 01d8 C29E5C5E 		.word	1583128258
 1003 01dc 63246A19 		.word	426386531
 1004 01e0 AF6FFB68 		.word	1761308591
 1005 01e4 B5536C3E 		.word	1047286709
 1006 01e8 EBB23913 		.word	322548459
 1007 01ec 6FEC523B 		.word	995290223
 1008 01f0 1F51FC6D 		.word	1845252383
 1009 01f4 2C95309B 		.word	-1691314900
 1010 01f8 444581CC 		.word	-863943356
 1011 01fc 09BD5EAF 		.word	-1352745719
 1012 0200 04D0E3BE 		.word	-1092366332
 1013 0204 FD4A33DE 		.word	-567063811
 1014 0208 07280F66 		.word	1712269319
 1015 020c B34B2E19 		.word	422464435
 1016 0210 57A8CBC0 		.word	-1060394921
 1017 0214 0F74C845 		.word	1170764815
 1018 0218 395F0BD2 		.word	-771006663
 1019 021c DBFBD3B9 		.word	-1177289765
ARM GAS  C:\Users\jo\AppData\Local\Temp\ccx91ntw.s 			page 19


 1020 0220 BDC07955 		.word	1434042557
 1021 0224 0A32601A 		.word	442511882
 1022 0228 C600A1D6 		.word	-694091578
 1023 022c 79722C40 		.word	1076654713
 1024 0230 FE259F67 		.word	1738483198
 1025 0234 CCA31FFB 		.word	-81812532
 1026 0238 F8E9A58E 		.word	-1901729288
 1027 023c F82232DB 		.word	-617471240
 1028 0240 DF16753C 		.word	1014306527
 1029 0244 156B61FD 		.word	-43947243
 1030 0248 C81E502F 		.word	793779912
 1031 024c AB5205AD 		.word	-1392160085
 1032 0250 FAB53D32 		.word	842905082
 1033 0254 608723FD 		.word	-48003232
 1034 0258 487B3153 		.word	1395751752
 1035 025c 82DF003E 		.word	1040244610
 1036 0260 BB575C9E 		.word	-1638115397
 1037 0264 A08C6FCA 		.word	-898659168
 1038 0268 2E56871A 		.word	445077038
 1039 026c DB6917DF 		.word	-552113701
 1040 0270 F6A842D5 		.word	-717051658
 1041 0274 C3FF7E28 		.word	679411651
 1042 0278 C63267AC 		.word	-1402522938
 1043 027c 73554F8C 		.word	-1940957837
 1044 0280 B0275B69 		.word	1767581616
 1045 0284 C858CABB 		.word	-1144366904
 1046 0288 5DA3FFE1 		.word	-503340195
 1047 028c A011F0B8 		.word	-1192226400
 1048 0290 983DFA10 		.word	284835224
 1049 0294 B88321FD 		.word	-48135240
 1050 0298 6CB5FC4A 		.word	1258075500
 1051 029c 5BD3D12D 		.word	768725851
 1052 02a0 79E4539A 		.word	-1705778055
 1053 02a4 6545F8B6 		.word	-1225243291
 1054 02a8 BC498ED2 		.word	-762426948
 1055 02ac 9097FB4B 		.word	1274779536
 1056 02b0 DAF2DDE1 		.word	-505548070
 1057 02b4 337ECBA4 		.word	-1530167757
 1058 02b8 4113FB62 		.word	1660621633
 1059 02bc E8C6E4CE 		.word	-823867672
 1060 02c0 DACA20EF 		.word	-283063590
 1061 02c4 014C7736 		.word	913787905
 1062 02c8 FE9E7ED0 		.word	-797008130
 1063 02cc B41FF12B 		.word	737222580
 1064 02d0 4DDADB95 		.word	-1780753843
 1065 02d4 989190AE 		.word	-1366257256
 1066 02d8 718EADEA 		.word	-357724559
 1067 02dc A0D5936B 		.word	1804850592
 1068 02e0 D0D18ED0 		.word	-795946544
 1069 02e4 E025C7AF 		.word	-1345903136
 1070 02e8 2F5B3C8E 		.word	-1908647121
 1071 02ec B794758E 		.word	-1904896841
 1072 02f0 FBE2F68F 		.word	-1879645445
 1073 02f4 642B12F2 		.word	-233690268
 1074 02f8 12B88888 		.word	-2004305902
 1075 02fc 1CF00D90 		.word	-1878134756
 1076 0300 A05EAD4F 		.word	1336762016
ARM GAS  C:\Users\jo\AppData\Local\Temp\ccx91ntw.s 			page 20


 1077 0304 1CC38F68 		.word	1754252060
 1078 0308 91F1CFD1 		.word	-774901359
 1079 030c ADC1A8B3 		.word	-1280786003
 1080 0310 18222F2F 		.word	791618072
 1081 0314 77170EBE 		.word	-1106372745
 1082 0318 FE2D75EA 		.word	-361419266
 1083 031c A11F028B 		.word	-1962795103
 1084 0320 0FCCA0E5 		.word	-442446833
 1085 0324 E8746FB5 		.word	-1250986776
 1086 0328 D6F3AC18 		.word	413987798
 1087 032c 99E289CE 		.word	-829824359
 1088 0330 E04FA8B4 		.word	-1264037920
 1089 0334 B7E013FD 		.word	-49028937
 1090 0338 813BC47C 		.word	2093235073
 1091 033c D9A8ADD2 		.word	-760370983
 1092 0340 66A25F16 		.word	375366246
 1093 0344 05779580 		.word	-2137688315
 1094 0348 1473CC93 		.word	-1815317740
 1095 034c 77141A21 		.word	555357303
 1096 0350 6520ADE6 		.word	-424861595
 1097 0354 86FAB577 		.word	2008414854
 1098 0358 F54254C7 		.word	-950779147
 1099 035c CF359DFB 		.word	-73583153
 1100 0360 0CAFCDEB 		.word	-338841844
 1101 0364 A0893E7B 		.word	2067696032
 1102 0368 D31B41D6 		.word	-700376109
 1103 036c 497E1EAE 		.word	-1373733303
 1104 0370 2D0E2500 		.word	2428461
 1105 0374 5EB37120 		.word	544322398
 1106 0378 BB006822 		.word	577241275
 1107 037c AFE0B857 		.word	1471733935
 1108 0380 9B366424 		.word	610547355
 1109 0384 1EB909F0 		.word	-267798242
 1110 0388 1D916355 		.word	1432588573
 1111 038c AAA6DF59 		.word	1507829418
 1112 0390 8943C178 		.word	2025931657
 1113 0394 7F535AD9 		.word	-648391809
 1114 0398 A25B7D20 		.word	545086370
 1115 039c C5B9E502 		.word	48609733
 1116 03a0 76032683 		.word	-2094660746
 1117 03a4 A9CF9562 		.word	1653985193
 1118 03a8 6819C811 		.word	298326376
 1119 03ac 414A734E 		.word	1316178497
 1120 03b0 CA2D47B3 		.word	-1287180854
 1121 03b4 4AA9147B 		.word	2064951626
 1122 03b8 5200511B 		.word	458293330
 1123 03bc 1529539A 		.word	-1705826027
 1124 03c0 3F570FD6 		.word	-703637697
 1125 03c4 E4C69BBC 		.word	-1130641692
 1126 03c8 76A4602B 		.word	727753846
 1127 03cc 0074E681 		.word	-2115603456
 1128 03d0 B56FBA08 		.word	146436021
 1129 03d4 1FE91B57 		.word	1461446943
 1130 03d8 6BEC96F2 		.word	-224990101
 1131 03dc 15D90D2A 		.word	705550613
 1132 03e0 216563B6 		.word	-1235000031
 1133 03e4 B6F9B9E7 		.word	-407242314
ARM GAS  C:\Users\jo\AppData\Local\Temp\ccx91ntw.s 			page 21


 1134 03e8 2E0534FF 		.word	-13368018
 1135 03ec 645685C5 		.word	-981117340
 1136 03f0 5D2DB053 		.word	1404054877
 1137 03f4 A18F9FA9 		.word	-1449160799
 1138 03f8 9947BA08 		.word	146425753
 1139 03fc 6A07856E 		.word	1854211946
 1140 0400 E9707A4B 		.word	1266315497
 1141 0404 4429B3B5 		.word	-1246549692
 1142 0408 2E0975DB 		.word	-613086930
 1143 040c 232619C4 		.word	-1004984797
 1144 0410 B0A66EAD 		.word	-1385257296
 1145 0414 7DDFA749 		.word	1235738493
 1146 0418 B860EE9C 		.word	-1662099272
 1147 041c 66B2ED8F 		.word	-1880247706
 1148 0420 718CAAEC 		.word	-324367247
 1149 0424 FF179A69 		.word	1771706367
 1150 0428 6C526456 		.word	1449415276
 1151 042c E19EB1C2 		.word	-1028546847
 1152 0430 A5023619 		.word	422970021
 1153 0434 294C0975 		.word	1963543593
 1154 0438 401359A0 		.word	-1604775104
 1155 043c 3E3A18E4 		.word	-468174274
 1156 0440 9A98543F 		.word	1062508698
 1157 0444 659D425B 		.word	1531092325
 1158 0448 D6E48F6B 		.word	1804592342
 1159 044c D63FF799 		.word	-1711849514
 1160 0450 079CD2A1 		.word	-1580033017
 1161 0454 F530E8EF 		.word	-269995787
 1162 0458 E6382D4D 		.word	1294809318
 1163 045c C15D25F0 		.word	-265986623
 1164 0460 8620DD4C 		.word	1289560198
 1165 0464 26EB7084 		.word	-2072974554
 1166 0468 C6E98263 		.word	1669523910
 1167 046c 5ECC1E02 		.word	35572830
 1168 0470 3F6B6809 		.word	157838143
 1169 0474 C9EFBA3E 		.word	1052438473
 1170 0478 1418973C 		.word	1016535060
 1171 047c A1706A6B 		.word	1802137761
 1172 0480 84357F68 		.word	1753167236
 1173 0484 86E2A052 		.word	1386275462
 1174 0488 05539CB7 		.word	-1214491899
 1175 048c 370750AA 		.word	-1437595849
 1176 0490 1C84073E 		.word	1040679964
 1177 0494 5CAEDE7F 		.word	2145300060
 1178 0498 EC447D8E 		.word	-1904392980
 1179 049c B8F21657 		.word	1461121720
 1180 04a0 37DA3AB0 		.word	-1338320329
 1181 04a4 0D0C50F0 		.word	-263189491
 1182 04a8 041F1CF0 		.word	-266592508
 1183 04ac FFB30002 		.word	33600511
 1184 04b0 1AF50CAE 		.word	-1374882534
 1185 04b4 B274B53C 		.word	1018524850
 1186 04b8 587A8325 		.word	629373528
 1187 04bc BD2109DC 		.word	-603381315
 1188 04c0 F91391D1 		.word	-779021319
 1189 04c4 F62FA97C 		.word	2091462646
 1190 04c8 73473294 		.word	-1808644237
ARM GAS  C:\Users\jo\AppData\Local\Temp\ccx91ntw.s 			page 22


 1191 04cc 0147F522 		.word	586499841
 1192 04d0 81E5E53A 		.word	988145025
 1193 04d4 DCDAC237 		.word	935516892
 1194 04d8 3476B5C8 		.word	-927631820
 1195 04dc A7DDF39A 		.word	-1695294041
 1196 04e0 466144A9 		.word	-1455136442
 1197 04e4 0E03D00F 		.word	265290510
 1198 04e8 3EC7C8EC 		.word	-322386114
 1199 04ec 411E75A4 		.word	-1535828415
 1200 04f0 99CD38E2 		.word	-499593831
 1201 04f4 2F0EEA3B 		.word	1005194799
 1202 04f8 A1BB8032 		.word	847297441
 1203 04fc 31B33E18 		.word	406762289
 1204 0500 388B544E 		.word	1314163512
 1205 0504 08B96D4F 		.word	1332590856
 1206 0508 030D426F 		.word	1866599683
 1207 050c BF040AF6 		.word	-167115585
 1208 0510 9012B82C 		.word	750260880
 1209 0514 797C9724 		.word	613907577
 1210 0518 72B07956 		.word	1450815602
 1211 051c AF89AFBC 		.word	-1129346641
 1212 0520 1F779ADE 		.word	-560302305
 1213 0524 100893D9 		.word	-644675568
 1214 0528 12AE8BB3 		.word	-1282691566
 1215 052c 2E3FCFDC 		.word	-590397650
 1216 0530 1F721255 		.word	1427272223
 1217 0534 24716B2E 		.word	778793252
 1218 0538 E6DD1A50 		.word	1343938022
 1219 053c 87CD849F 		.word	-1618686585
 1220 0540 1847587A 		.word	2052605720
 1221 0544 17DA0874 		.word	1946737175
 1222 0548 BC9A9FBC 		.word	-1130390852
 1223 054c 8C7D4BE9 		.word	-380928628
 1224 0550 3AEC7AEC 		.word	-327488454
 1225 0554 FA1D85DB 		.word	-612033030
 1226 0558 66430963 		.word	1661551462
 1227 055c D2C364C4 		.word	-1000029230
 1228 0560 47181CEF 		.word	-283371449
 1229 0564 08D91532 		.word	840292616
 1230 0568 373B43DD 		.word	-582796489
 1231 056c 16BAC224 		.word	616741398
 1232 0570 434DA112 		.word	312560963
 1233 0574 51C4652A 		.word	711312465
 1234 0578 02009450 		.word	1351876610
 1235 057c DDE43A13 		.word	322626781
 1236 0580 9EF8DF71 		.word	1910503582
 1237 0584 554E3110 		.word	271666773
 1238 0588 D677AC81 		.word	-2119403562
 1239 058c 9B19115F 		.word	1594956187
 1240 0590 F1563504 		.word	70604529
 1241 0594 6BC7A3D7 		.word	-677132437
 1242 0598 3B18113C 		.word	1007753275
 1243 059c 09A52459 		.word	1495573769
 1244 05a0 EDE68FF2 		.word	-225450259
 1245 05a4 FAFBF197 		.word	-1745748998
 1246 05a8 2CBFBA9E 		.word	-1631928532
 1247 05ac 6E3C151E 		.word	504708206
ARM GAS  C:\Users\jo\AppData\Local\Temp\ccx91ntw.s 			page 23


 1248 05b0 7045E386 		.word	-2031925904
 1249 05b4 B16FE9EA 		.word	-353800271
 1250 05b8 0A5E0E86 		.word	-2045878774
 1251 05bc B32A3E5A 		.word	1514023603
 1252 05c0 1CE71F77 		.word	1998579484
 1253 05c4 FA063D4E 		.word	1312622330
 1254 05c8 B9DC6529 		.word	694541497
 1255 05cc 0F1DE799 		.word	-1712906993
 1256 05d0 D6893E80 		.word	-2143385130
 1257 05d4 25C86652 		.word	1382467621
 1258 05d8 78C94C2E 		.word	776784248
 1259 05dc 6AB3109C 		.word	-1676627094
 1260 05e0 BA0E15C6 		.word	-971698502
 1261 05e4 78EAE294 		.word	-1797068168
 1262 05e8 533CFCA5 		.word	-1510196141
 1263 05ec F42D0A1E 		.word	503983604
 1264 05f0 A74EF7F2 		.word	-218673497
 1265 05f4 3D2B1D36 		.word	907881277
 1266 05f8 0F263919 		.word	423175695
 1267 05fc 6079C219 		.word	432175456
 1268 0600 08A72352 		.word	1378068232
 1269 0604 B61213F7 		.word	-149744970
 1270 0608 6EFEADEB 		.word	-340918674
 1271 060c 661FC3EA 		.word	-356311194
 1272 0610 9545BCE3 		.word	-474200683
 1273 0614 83C87BA6 		.word	-1501837181
 1274 0618 D1377FB1 		.word	-1317062703
 1275 061c 28FF8C01 		.word	26017576
 1276 0620 EFDD32C3 		.word	-1020076561
 1277 0624 A55A6CBE 		.word	-1100195163
 1278 0628 85215865 		.word	1700274565
 1279 062c 0298AB68 		.word	1756076034
 1280 0630 0FA5CEEE 		.word	-288447217
 1281 0634 3B952FDB 		.word	-617638597
 1282 0638 AD7DEF2A 		.word	720338349
 1283 063c 842F6E5B 		.word	1533947780
 1284 0640 28B62115 		.word	354530856
 1285 0644 70610729 		.word	688349552
 1286 0648 7547DDEC 		.word	-321042571
 1287 064c 10159F61 		.word	1637815568
 1288 0650 30A8CC13 		.word	332179504
 1289 0654 96BD61EB 		.word	-345916010
 1290 0658 1EFE3403 		.word	53804574
 1291 065c CF6303AA 		.word	-1442618417
 1292 0660 905C73B5 		.word	-1250730864
 1293 0664 39A2704C 		.word	1282449977
 1294 0668 0B9E9ED5 		.word	-711025141
 1295 066c 14DEAACB 		.word	-877994476
 1296 0670 BC86CCEE 		.word	-288586052
 1297 0674 A72C6260 		.word	1617046695
 1298 0678 AB5CAB9C 		.word	-1666491221
 1299 067c 6E84F3B2 		.word	-1292663698
 1300 0680 AF1E8B64 		.word	1686838959
 1301 0684 CAF0BD19 		.word	431878346
 1302 0688 B96923A0 		.word	-1608291911
 1303 068c 50BB5A65 		.word	1700445008
 1304 0690 325A6840 		.word	1080580658
ARM GAS  C:\Users\jo\AppData\Local\Temp\ccx91ntw.s 			page 24


 1305 0694 B3B42A3C 		.word	1009431731
 1306 0698 D5E99E31 		.word	832498133
 1307 069c F7B821C0 		.word	-1071531785
 1308 06a0 190B549B 		.word	-1688990951
 1309 06a4 99A05F87 		.word	-2023776103
 1310 06a8 7E99F795 		.word	-1778935426
 1311 06ac A87D3D62 		.word	1648197032
 1312 06b0 9A8837F8 		.word	-130578278
 1313 06b4 772DE397 		.word	-1746719369
 1314 06b8 5F93ED11 		.word	300782431
 1315 06bc 81126816 		.word	375919233
 1316 06c0 2988350E 		.word	238389289
 1317 06c4 D61FE6C7 		.word	-941219882
 1318 06c8 A1DFDE96 		.word	-1763778655
 1319 06cc 99BA5878 		.word	2019080857
 1320 06d0 A584F557 		.word	1475708069
 1321 06d4 6372221B 		.word	455242339
 1322 06d8 FFC3839B 		.word	-1685863425
 1323 06dc 9646C21A 		.word	448939670
 1324 06e0 EB0AB3CD 		.word	-843904277
 1325 06e4 54302E53 		.word	1395535956
 1326 06e8 E448D98F 		.word	-1881585436
 1327 06ec 2831BC6D 		.word	1841049896
 1328 06f0 EFF2EB58 		.word	1491858159
 1329 06f4 EAFFC634 		.word	885456874
 1330 06f8 61ED28FE 		.word	-30872223
 1331 06fc 733C7CEE 		.word	-293847949
 1332 0700 D9144A5D 		.word	1565136089
 1333 0704 E3B764E8 		.word	-396052509
 1334 0708 145D1042 		.word	1108368660
 1335 070c E0133E20 		.word	540939232
 1336 0710 B6E2EE45 		.word	1173283510
 1337 0714 EAABAAA3 		.word	-1549095958
 1338 0718 154F6CDB 		.word	-613658859
 1339 071c D04FCBFA 		.word	-87339056
 1340 0720 42F442C7 		.word	-951913406
 1341 0724 B5BB6AEF 		.word	-278217803
 1342 0728 1D3B4F65 		.word	1699691293
 1343 072c 0521CD41 		.word	1103962373
 1344 0730 9E791ED8 		.word	-669091426
 1345 0734 C74D8586 		.word	-2038084153
 1346 0738 6A474BE4 		.word	-464828566
 1347 073c 5062813D 		.word	1031889488
 1348 0740 F2A162CF 		.word	-815619598
 1349 0744 46268D5B 		.word	1535977030
 1350 0748 A08388FC 		.word	-58162272
 1351 074c A3B6C7C1 		.word	-1043876189
 1352 0750 C324157F 		.word	2132092099
 1353 0754 9274CB69 		.word	1774941330
 1354 0758 0B8A8447 		.word	1199868427
 1355 075c 85B29256 		.word	1452454533
 1356 0760 00BF5B09 		.word	157007616
 1357 0764 9D4819AD 		.word	-1390851939
 1358 0768 74B16214 		.word	342012276
 1359 076c 000E8223 		.word	595725824
 1360 0770 2A8D4258 		.word	1480756522
 1361 0774 EAF5550C 		.word	206960106
ARM GAS  C:\Users\jo\AppData\Local\Temp\ccx91ntw.s 			page 25


 1362 0778 3EF4AD1D 		.word	497939518
 1363 077c 61703F23 		.word	591360097
 1364 0780 92F07233 		.word	863170706
 1365 0784 417E938D 		.word	-1919713727
 1366 0788 F1EC5FD6 		.word	-698356495
 1367 078c DB3B226C 		.word	1814182875
 1368 0790 5937DE7C 		.word	2094937945
 1369 0794 6074EECB 		.word	-873565088
 1370 0798 A7F28540 		.word	1082520231
 1371 079c 6E3277CE 		.word	-831049106
 1372 07a0 848007A6 		.word	-1509457788
 1373 07a4 9E50F819 		.word	435703966
 1374 07a8 55D8EFE8 		.word	-386934699
 1375 07ac 3597D961 		.word	1641649973
 1376 07b0 AAA769A9 		.word	-1452693590
 1377 07b4 C2060CC5 		.word	-989067582
 1378 07b8 FCAB045A 		.word	1510255612
 1379 07bc DCCA0B80 		.word	-2146710820
 1380 07c0 2E7A449E 		.word	-1639679442
 1381 07c4 843445C3 		.word	-1018874748
 1382 07c8 0567D5FD 		.word	-36346107
 1383 07cc C99E1E0E 		.word	236887753
 1384 07d0 D3DB73DB 		.word	-613164077
 1385 07d4 CD885510 		.word	274041037
 1386 07d8 79DA5F67 		.word	1734335097
 1387 07dc 404367E3 		.word	-479771840
 1388 07e0 6534C4C5 		.word	-976997275
 1389 07e4 D8383E71 		.word	1899903192
 1390 07e8 9EF8283D 		.word	1026095262
 1391 07ec 20FF6DF1 		.word	-244449504
 1392 07f0 E7213E15 		.word	356393447
 1393 07f4 4A3DB08F 		.word	-1884275382
 1394 07f8 2B9FE3E6 		.word	-421290197
 1395 07fc F7AD83DB 		.word	-612127241
 1396 0800 685A3DE9 		.word	-381855128
 1397 0804 F7408194 		.word	-1803468553
 1398 0808 1C264CF6 		.word	-162781668
 1399 080c 34296994 		.word	-1805047500
 1400 0810 F7201541 		.word	1091903735
 1401 0814 F7D40276 		.word	1979897079
 1402 0818 2E6BF4BC 		.word	-1124832466
 1403 081c 6800A2D4 		.word	-727580568
 1404 0820 712408D4 		.word	-737663887
 1405 0824 6AF42033 		.word	857797738
 1406 0828 B7D4B743 		.word	1136121015
 1407 082c AF610050 		.word	1342202287
 1408 0830 2EF6391E 		.word	507115054
 1409 0834 46452497 		.word	-1759230650
 1410 0838 744F2114 		.word	337727348
 1411 083c 40888BBF 		.word	-1081374656
 1412 0840 1DFC954D 		.word	1301675037
 1413 0844 AF91B596 		.word	-1766485585
 1414 0848 D3DDF470 		.word	1895095763
 1415 084c 452FA066 		.word	1721773893
 1416 0850 EC09BCBF 		.word	-1078195732
 1417 0854 8597BD03 		.word	62756741
 1418 0858 D06DAC7F 		.word	2142006736
ARM GAS  C:\Users\jo\AppData\Local\Temp\ccx91ntw.s 			page 26


 1419 085c 0485CB31 		.word	835421444
 1420 0860 B327EB96 		.word	-1762973773
 1421 0864 4139FD55 		.word	1442658625
 1422 0868 E64725DA 		.word	-635090970
 1423 086c 9A0ACAAB 		.word	-1412822374
 1424 0870 25785028 		.word	676362277
 1425 0874 F4290453 		.word	1392781812
 1426 0878 DA862C0A 		.word	170690266
 1427 087c FB6DB6E9 		.word	-373920261
 1428 0880 6214DC68 		.word	1759253602
 1429 0884 006948D7 		.word	-683120384
 1430 0888 A4C00E68 		.word	1745797284
 1431 088c EE8DA127 		.word	664899054
 1432 0890 A2FE3F4F 		.word	1329594018
 1433 0894 8CAD87E8 		.word	-393761396
 1434 0898 06E08CB5 		.word	-1249058810
 1435 089c B6D6F47A 		.word	2062866102
 1436 08a0 7C1ECEAA 		.word	-1429332356
 1437 08a4 EC5F37D3 		.word	-751345684
 1438 08a8 99A378CE 		.word	-830954599
 1439 08ac 422A6B40 		.word	1080764994
 1440 08b0 359EFE20 		.word	553557557
 1441 08b4 B985F3D9 		.word	-638351943
 1442 08b8 ABD739EE 		.word	-298199125
 1443 08bc 8B4E123B 		.word	991055499
 1444 08c0 F7FAC91D 		.word	499776247
 1445 08c4 56186D4B 		.word	1265440854
 1446 08c8 3166A326 		.word	648242737
 1447 08cc B297E3EA 		.word	-354183246
 1448 08d0 74FA6E3A 		.word	980351604
 1449 08d4 32435BDD 		.word	-581221582
 1450 08d8 F7E74168 		.word	1749149687
 1451 08dc FB2078CA 		.word	-898096901
 1452 08e0 4EF50AFB 		.word	-83167922
 1453 08e4 97B3FED8 		.word	-654396521
 1454 08e8 AC564045 		.word	1161844396
 1455 08ec 279548BA 		.word	-1169648345
 1456 08f0 3A3A5355 		.word	1431517754
 1457 08f4 878D8320 		.word	545492359
 1458 08f8 B7A96BFE 		.word	-26498633
 1459 08fc 4B9596D0 		.word	-795437749
 1460 0900 BC67A855 		.word	1437099964
 1461 0904 589A15A1 		.word	-1592419752
 1462 0908 6329A9CC 		.word	-861329053
 1463 090c 33DBE199 		.word	-1713251533
 1464 0910 564A2AA6 		.word	-1507177898
 1465 0914 F925313F 		.word	1060185593
 1466 0918 1C7EF45E 		.word	1593081372
 1467 091c 7C312990 		.word	-1876348548
 1468 0920 02E8F8FD 		.word	-34019326
 1469 0924 702F2704 		.word	69676912
 1470 0928 5C15BB80 		.word	-2135222948
 1471 092c E32C2805 		.word	86519011
 1472 0930 4815C195 		.word	-1782508216
 1473 0934 226DC6E4 		.word	-456757982
 1474 0938 3F13C148 		.word	1220612927
 1475 093c DC860FC7 		.word	-955283748
ARM GAS  C:\Users\jo\AppData\Local\Temp\ccx91ntw.s 			page 27


 1476 0940 EEC9F907 		.word	133810670
 1477 0944 0F1F0441 		.word	1090789135
 1478 0948 A4794740 		.word	1078426020
 1479 094c 176E885D 		.word	1569222167
 1480 0950 EB515F32 		.word	845107691
 1481 0954 D1C09BD5 		.word	-711212847
 1482 0958 8FC1BCF2 		.word	-222510705
 1483 095c 64351141 		.word	1091646820
 1484 0960 34787B25 		.word	628848692
 1485 0964 609C2A60 		.word	1613405280
 1486 0968 A3E8F8DF 		.word	-537335645
 1487 096c 1B6C631F 		.word	526609435
 1488 0970 C2B4120E 		.word	236106946
 1489 0974 9E32E102 		.word	48312990
 1490 0978 D14F66AF 		.word	-1352249391
 1491 097c 1581D1CA 		.word	-892239595
 1492 0980 E095236B 		.word	1797494240
 1493 0984 E1923E33 		.word	859738849
 1494 0988 620B243B 		.word	992217954
 1495 098c 22B9BEEE 		.word	-289490654
 1496 0990 0EA2B285 		.word	-2051890674
 1497 0994 990DBAE6 		.word	-424014439
 1498 0998 8C0C72DE 		.word	-562951028
 1499 099c 28F7A22D 		.word	765654824
 1500 09a0 457812D0 		.word	-804095931
 1501 09a4 FD94B795 		.word	-1783130883
 1502 09a8 62087D64 		.word	1685915746
 1503 09ac F0F5CCE7 		.word	-405998096
 1504 09b0 6FA34954 		.word	1414112111
 1505 09b4 FA487D87 		.word	-2021832454
 1506 09b8 27FD9DC3 		.word	-1013056217
 1507 09bc 1E8D3EF3 		.word	-214004450
 1508 09c0 4163470A 		.word	172450625
 1509 09c4 74FF2E99 		.word	-1724973196
 1510 09c8 AB6E6F3A 		.word	980381355
 1511 09cc 37FDF8F4 		.word	-185008841
 1512 09d0 60DC12A8 		.word	-1475158944
 1513 09d4 F8DDEBA1 		.word	-1578377736
 1514 09d8 4CE11B99 		.word	-1726226100
 1515 09dc 0D6B6EDB 		.word	-613520627
 1516 09e0 10557BC6 		.word	-964995824
 1517 09e4 372C676D 		.word	1835478071
 1518 09e8 3BD46527 		.word	660984891
 1519 09ec 04E8D0DC 		.word	-590288892
 1520 09f0 C70D29F1 		.word	-248967737
 1521 09f4 A3FF00CC 		.word	-872349789
 1522 09f8 920F39B5 		.word	-1254551662
 1523 09fc 0BED0F69 		.word	1762651403
 1524 0a00 FB9F7B66 		.word	1719377915
 1525 0a04 9C7DDBCE 		.word	-824476260
 1526 0a08 0BCF91A0 		.word	-1601057013
 1527 0a0c A35E15D9 		.word	-652910941
 1528 0a10 882F13BB 		.word	-1156370552
 1529 0a14 24AD5B51 		.word	1364962596
 1530 0a18 BF79947B 		.word	2073328063
 1531 0a1c EBD63B76 		.word	1983633131
 1532 0a20 B32E3937 		.word	926494387
ARM GAS  C:\Users\jo\AppData\Local\Temp\ccx91ntw.s 			page 28


 1533 0a24 795911CC 		.word	-871278215
 1534 0a28 97E22680 		.word	-2144935273
 1535 0a2c 2D312EF4 		.word	-198299347
 1536 0a30 A7AD4268 		.word	1749200295
 1537 0a34 3B2B6AC6 		.word	-966120645
 1538 0a38 CC4C7512 		.word	309677260
 1539 0a3c 1CF12E78 		.word	2016342300
 1540 0a40 3742126A 		.word	1779581495
 1541 0a44 E75192B7 		.word	-1215147545
 1542 0a48 E6BBA106 		.word	111262694
 1543 0a4c 5063FB4B 		.word	1274766160
 1544 0a50 18106B1A 		.word	443224088
 1545 0a54 FAEDCA11 		.word	298511866
 1546 0a58 D8BD253D 		.word	1025883608
 1547 0a5c C9C3E1E2 		.word	-488520759
 1548 0a60 59164244 		.word	1145181785
 1549 0a64 8613120A 		.word	168956806
 1550 0a68 6EEC0CD9 		.word	-653464466
 1551 0a6c 2AEAABD5 		.word	-710153686
 1552 0a70 4E67AF64 		.word	1689216846
 1553 0a74 5FA886DA 		.word	-628709281
 1554 0a78 88E9BFBE 		.word	-1094719096
 1555 0a7c FEC3E464 		.word	1692713982
 1556 0a80 5780BC9D 		.word	-1648590761
 1557 0a84 86C0F7F0 		.word	-252198778
 1558 0a88 F87B7860 		.word	1618508792
 1559 0a8c 4D600360 		.word	1610833997
 1560 0a90 4683FDD1 		.word	-771914938
 1561 0a94 B01F38F6 		.word	-164094032
 1562 0a98 04AE4577 		.word	2001055236
 1563 0a9c CCFC36D7 		.word	-684262196
 1564 0aa0 336B4283 		.word	-2092799181
 1565 0aa4 71AB1EF0 		.word	-266425487
 1566 0aa8 874180B0 		.word	-1333771897
 1567 0aac 5F5E003C 		.word	1006657119
 1568 0ab0 BE57A077 		.word	2006996926
 1569 0ab4 24AEE8BD 		.word	-1108824540
 1570 0ab8 99424655 		.word	1430667929
 1571 0abc 612E58BF 		.word	-1084739999
 1572 0ac0 8FF4584E 		.word	1314452623
 1573 0ac4 A2FDDDF2 		.word	-220332638
 1574 0ac8 38EF74F4 		.word	-193663176
 1575 0acc C2BD8987 		.word	-2021016126
 1576 0ad0 C3F96653 		.word	1399257539
 1577 0ad4 748EB3C8 		.word	-927756684
 1578 0ad8 55F275B4 		.word	-1267338667
 1579 0adc B9D9FC46 		.word	1190975929
 1580 0ae0 6126EB7A 		.word	2062231137
 1581 0ae4 84DF1D8B 		.word	-1960976508
 1582 0ae8 790E6A84 		.word	-2073424263
 1583 0aec E2955F91 		.word	-1856006686
 1584 0af0 8E596E46 		.word	1181637006
 1585 0af4 7057B420 		.word	548689776
 1586 0af8 9155D58C 		.word	-1932175983
 1587 0afc 4CDE02C9 		.word	-922558900
 1588 0b00 E1AC0BB9 		.word	-1190417183
 1589 0b04 D00582BB 		.word	-1149106736
ARM GAS  C:\Users\jo\AppData\Local\Temp\ccx91ntw.s 			page 29


 1590 0b08 4862A811 		.word	296247880
 1591 0b0c 9EA97475 		.word	1970579870
 1592 0b10 B6197FB7 		.word	-1216407114
 1593 0b14 09DCA9E0 		.word	-525738999
 1594 0b18 A1092D66 		.word	1714227617
 1595 0b1c 334632C4 		.word	-1003338189
 1596 0b20 021F5AE8 		.word	-396747006
 1597 0b24 8CBEF009 		.word	166772364
 1598 0b28 25A0994A 		.word	1251581989
 1599 0b2c 10FE6E1D 		.word	493813264
 1600 0b30 1D3DB91A 		.word	448347421
 1601 0b34 DFA4A50B 		.word	195405023
 1602 0b38 0FF286A1 		.word	-1584991729
 1603 0b3c 69F16828 		.word	677966185
 1604 0b40 83DAB7DC 		.word	-591930749
 1605 0b44 FE063957 		.word	1463355134
 1606 0b48 9BCEE2A1 		.word	-1578971493
 1607 0b4c 527FCD4F 		.word	1338867538
 1608 0b50 015E1150 		.word	1343315457
 1609 0b54 FA8306A7 		.word	-1492745222
 1610 0b58 C4B502A0 		.word	-1610435132
 1611 0b5c 27D0E60D 		.word	233230375
 1612 0b60 278CF89A 		.word	-1694987225
 1613 0b64 41863F77 		.word	2000651841
 1614 0b68 064C60C3 		.word	-1017099258
 1615 0b6c B506A861 		.word	1638401717
 1616 0b70 287A17F0 		.word	-266896856
 1617 0b74 E086F5C0 		.word	-1057650976
 1618 0b78 AA586000 		.word	6314154
 1619 0b7c 627DDC30 		.word	819756386
 1620 0b80 D79EE611 		.word	300326615
 1621 0b84 63EA3823 		.word	590932579
 1622 0b88 94DDC253 		.word	1405279636
 1623 0b8c 3416C2C2 		.word	-1027467724
 1624 0b90 56EECBBB 		.word	-1144263082
 1625 0b94 DEB6BC90 		.word	-1866680610
 1626 0b98 A17DFCEB 		.word	-335774303
 1627 0b9c 761D59CE 		.word	-833020554
 1628 0ba0 09E4056F 		.word	1862657033
 1629 0ba4 88017C4B 		.word	1266418056
 1630 0ba8 3D0A7239 		.word	963775037
 1631 0bac 247C927C 		.word	2089974820
 1632 0bb0 5F72E386 		.word	-2031914401
 1633 0bb4 B99D4D72 		.word	1917689273
 1634 0bb8 B45BC11A 		.word	448879540
 1635 0bbc FCB89ED3 		.word	-744572676
 1636 0bc0 785554ED 		.word	-313240200
 1637 0bc4 B5A5FC08 		.word	150775221
 1638 0bc8 D37C3DD8 		.word	-667058989
 1639 0bcc C40FAD4D 		.word	1303187396
 1640 0bd0 5EEF501E 		.word	508620638
 1641 0bd4 F8E661B1 		.word	-1318983944
 1642 0bd8 D91485A2 		.word	-1568336679
 1643 0bdc 3C13516C 		.word	1817252668
 1644 0be0 E7C7D56F 		.word	1876281319
 1645 0be4 C44EE156 		.word	1457606340
 1646 0be8 CEBF2A36 		.word	908771278
ARM GAS  C:\Users\jo\AppData\Local\Temp\ccx91ntw.s 			page 30


 1647 0bec 37C8C6DD 		.word	-574175177
 1648 0bf0 34329AD7 		.word	-677760460
 1649 0bf4 12826392 		.word	-1838972398
 1650 0bf8 8EFA0E67 		.word	1729034894
 1651 0bfc E0006040 		.word	1080033504
 1652 0c00 37CE393A 		.word	976866871
 1653 0c04 CFF5FAD3 		.word	-738527793
 1654 0c08 3777C2AB 		.word	-1413318857
 1655 0c0c 1B2DC55A 		.word	1522871579
 1656 0c10 9E67B05C 		.word	1555064734
 1657 0c14 4237A34F 		.word	1336096578
 1658 0c18 402782D3 		.word	-746444992
 1659 0c1c BE9BBC99 		.word	-1715692610
 1660 0c20 9D8E11D5 		.word	-720269667
 1661 0c24 15730FBF 		.word	-1089506539
 1662 0c28 7E1C2DD6 		.word	-701686658
 1663 0c2c 7BC400C7 		.word	-956251013
 1664 0c30 6B1B8CB7 		.word	-1215554709
 1665 0c34 4590A121 		.word	564236357
 1666 0c38 BEB16EB2 		.word	-1301368386
 1667 0c3c B46E366A 		.word	1781952180
 1668 0c40 2FAB4857 		.word	1464380207
 1669 0c44 796E94BC 		.word	-1131123079
 1670 0c48 D276A3C6 		.word	-962365742
 1671 0c4c C8C24965 		.word	1699332808
 1672 0c50 EEF80F53 		.word	1393555694
 1673 0c54 7DDE8D46 		.word	1183702653
 1674 0c58 1D0A73D5 		.word	-713881059
 1675 0c5c C64DD04C 		.word	1288719814
 1676 0c60 DBBB3929 		.word	691649499
 1677 0c64 5046BAA9 		.word	-1447410096
 1678 0c68 E82695AC 		.word	-1399511320
 1679 0c6c 04E35EBE 		.word	-1101077756
 1680 0c70 F0D5FAA1 		.word	-1577396752
 1681 0c74 9A512D6A 		.word	1781354906
 1682 0c78 E28CEF63 		.word	1676643554
 1683 0c7c 22EE869A 		.word	-1702433246
 1684 0c80 B8C289C0 		.word	-1064713544
 1685 0c84 F62E2443 		.word	1126444790
 1686 0c88 AA031EA5 		.word	-1524759638
 1687 0c8c A4D0F29C 		.word	-1661808476
 1688 0c90 BA61C083 		.word	-2084544070
 1689 0c94 4D6AE99B 		.word	-1679201715
 1690 0c98 5015E58F 		.word	-1880812208
 1691 0c9c D65B64BA 		.word	-1167828010
 1692 0ca0 F9A22628 		.word	673620729
 1693 0ca4 E13A3AA7 		.word	-1489356063
 1694 0ca8 8695A94B 		.word	1269405062
 1695 0cac E96255EF 		.word	-279616791
 1696 0cb0 D3EF2FC7 		.word	-953159725
 1697 0cb4 DAF752F7 		.word	-145557542
 1698 0cb8 696F043F 		.word	1057255273
 1699 0cbc 590AFA77 		.word	2012875353
 1700 0cc0 15A9E480 		.word	-2132498155
 1701 0cc4 0186B087 		.word	-2018474495
 1702 0cc8 ADE6099B 		.word	-1693849939
 1703 0ccc 93E53E3B 		.word	993977747
ARM GAS  C:\Users\jo\AppData\Local\Temp\ccx91ntw.s 			page 31


 1704 0cd0 5AFD90E9 		.word	-376373926
 1705 0cd4 97D7349E 		.word	-1640704105
 1706 0cd8 D9B7F02C 		.word	753973209
 1707 0cdc 518B2B02 		.word	36408145
 1708 0ce0 3AACD596 		.word	-1764381638
 1709 0ce4 7DA67D01 		.word	25011837
 1710 0ce8 D63ECFD1 		.word	-774947114
 1711 0cec 282D7D7C 		.word	2088578344
 1712 0cf0 CF259F1F 		.word	530523599
 1713 0cf4 9BB8F2AD 		.word	-1376601957
 1714 0cf8 72B4D65A 		.word	1524020338
 1715 0cfc 4CF5885A 		.word	1518925132
 1716 0d00 71AC29E0 		.word	-534139791
 1717 0d04 E6A519E0 		.word	-535190042
 1718 0d08 FDACB047 		.word	1202760957
 1719 0d0c 9BFA93ED 		.word	-309069157
 1720 0d10 8DC4D3E8 		.word	-388774771
 1721 0d14 CC573B28 		.word	674977740
 1722 0d18 2966D5F8 		.word	-120232407
 1723 0d1c 282E1379 		.word	2031300136
 1724 0d20 91015F78 		.word	2019492241
 1725 0d24 556075ED 		.word	-311074731
 1726 0d28 440E96F7 		.word	-141160892
 1727 0d2c 8C5ED3E3 		.word	-472686964
 1728 0d30 D46D0515 		.word	352677332
 1729 0d34 BA6DF488 		.word	-1997247046
 1730 0d38 2561A103 		.word	60907813
 1731 0d3c BDF06405 		.word	90501309
 1732 0d40 159EEBC3 		.word	-1007968747
 1733 0d44 A257903C 		.word	1016092578
 1734 0d48 EC1A2797 		.word	-1759044884
 1735 0d4c 2A073AA9 		.word	-1455814870
 1736 0d50 9B6D3F1B 		.word	457141659
 1737 0d54 F521631E 		.word	509813237
 1738 0d58 FB669CF5 		.word	-174299397
 1739 0d5c 19F3DC26 		.word	652014361
 1740 0d60 28D93375 		.word	1966332200
 1741 0d64 F5FD55B1 		.word	-1319764491
 1742 0d68 82345603 		.word	55981186
 1743 0d6c BB3CBA8A 		.word	-1967506245
 1744 0d70 11775128 		.word	676427537
 1745 0d74 F8D90AC2 		.word	-1039476232
 1746 0d78 6751CCAB 		.word	-1412673177
 1747 0d7c 5F92ADCC 		.word	-861040033
 1748 0d80 5117E84D 		.word	1307055953
 1749 0d84 8EDC3038 		.word	942726286
 1750 0d88 62589D37 		.word	933058658
 1751 0d8c 91F92093 		.word	-1826555503
 1752 0d90 C2907AEA 		.word	-361066302
 1753 0d94 CE7B3EFB 		.word	-79791154
 1754 0d98 64CE2151 		.word	1361170020
 1755 0d9c 32BE4F77 		.word	2001714738
 1756 0da0 7EE3B6A8 		.word	-1464409218
 1757 0da4 463D29C3 		.word	-1020707514
 1758 0da8 6953DE48 		.word	1222529897
 1759 0dac 80E61364 		.word	1679025792
 1760 0db0 1008AEA2 		.word	-1565652976
ARM GAS  C:\Users\jo\AppData\Local\Temp\ccx91ntw.s 			page 32


 1761 0db4 24B26DDD 		.word	-580013532
 1762 0db8 FD2D8569 		.word	1770335741
 1763 0dbc 66210709 		.word	151462246
 1764 0dc0 0A469AB3 		.word	-1281735158
 1765 0dc4 DDC04564 		.word	1682292957
 1766 0dc8 CFDE6C58 		.word	1483529935
 1767 0dcc AEC8201C 		.word	471910574
 1768 0dd0 DDF7BE5B 		.word	1539241949
 1769 0dd4 408D581B 		.word	458788160
 1770 0dd8 7F01D2CC 		.word	-858652289
 1771 0ddc BBE3B46B 		.word	1807016891
 1772 0de0 7E6AA2DD 		.word	-576558466
 1773 0de4 45FF593A 		.word	978976581
 1774 0de8 440A353E 		.word	1043663428
 1775 0dec D5CDB4BC 		.word	-1129001515
 1776 0df0 A8CEEA72 		.word	1927990952
 1777 0df4 BB8464FA 		.word	-94075717
 1778 0df8 AE12668D 		.word	-1922690386
 1779 0dfc 476F3CBF 		.word	-1086558393
 1780 0e00 63E49BD2 		.word	-761535389
 1781 0e04 9E5D2F54 		.word	1412390302
 1782 0e08 1B77C2AE 		.word	-1362987237
 1783 0e0c 70634EF6 		.word	-162634896
 1784 0e10 8D0D0E74 		.word	1947078029
 1785 0e14 57135BE7 		.word	-413461673
 1786 0e18 711672F8 		.word	-126740879
 1787 0e1c 5D7D53AF 		.word	-1353482915
 1788 0e20 08CB4040 		.word	1077988104
 1789 0e24 CCE2B44E 		.word	1320477388
 1790 0e28 6A46D234 		.word	886195818
 1791 0e2c 84AF1501 		.word	18198404
 1792 0e30 2804B0E1 		.word	-508558296
 1793 0e34 1D3A9895 		.word	-1785185763
 1794 0e38 B49FB806 		.word	112762804
 1795 0e3c 48A06ECE 		.word	-831610808
 1796 0e40 823B3F6F 		.word	1866414978
 1797 0e44 82AB2035 		.word	891333506
 1798 0e48 4B1D1A01 		.word	18488651
 1799 0e4c F8277227 		.word	661792760
 1800 0e50 B1601561 		.word	1628790961
 1801 0e54 DC3F93E7 		.word	-409780260
 1802 0e58 2B793ABB 		.word	-1153795797
 1803 0e5c BD254534 		.word	876946877
 1804 0e60 E13988A0 		.word	-1601685023
 1805 0e64 4B79CE51 		.word	1372485963
 1806 0e68 B7C9322F 		.word	791857591
 1807 0e6c C9BA1FA0 		.word	-1608533303
 1808 0e70 7EC81CE0 		.word	-534984578
 1809 0e74 F6D1C7BC 		.word	-1127755274
 1810 0e78 C31101CF 		.word	-822013501
 1811 0e7c C7AAE8A1 		.word	-1578587449
 1812 0e80 4987901A 		.word	445679433
 1813 0e84 9ABD4FD4 		.word	-732971622
 1814 0e88 CBDEDAD0 		.word	-790962485
 1815 0e8c 38DA0AD5 		.word	-720709064
 1816 0e90 2AC33903 		.word	54117162
 1817 0e94 673691C6 		.word	-963561881
ARM GAS  C:\Users\jo\AppData\Local\Temp\ccx91ntw.s 			page 33


 1818 0e98 7C31F98D 		.word	-1913048708
 1819 0e9c 4F2BB1E0 		.word	-525259953
 1820 0ea0 B7599EF7 		.word	-140617289
 1821 0ea4 3ABBF543 		.word	1140177722
 1822 0ea8 FF19D5F2 		.word	-220915201
 1823 0eac 9C45D927 		.word	668550556
 1824 0eb0 2C2297BF 		.word	-1080614356
 1825 0eb4 2AFCE615 		.word	367459370
 1826 0eb8 71FC910F 		.word	261225585
 1827 0ebc 2515949B 		.word	-1684794075
 1828 0ec0 6193E5FA 		.word	-85617823
 1829 0ec4 EB9CB6CE 		.word	-826893077
 1830 0ec8 5964A8C2 		.word	-1029151655
 1831 0ecc D1A8BA12 		.word	314222801
 1832 0ed0 5E07C1B6 		.word	-1228863650
 1833 0ed4 0C6A05E3 		.word	-486184436
 1834 0ed8 6550D210 		.word	282218597
 1835 0edc 42A403CB 		.word	-888953790
 1836 0ee0 0E6EECE0 		.word	-521376242
 1837 0ee4 3BDB9816 		.word	379116347
 1838 0ee8 BEA0984C 		.word	1285071038
 1839 0eec 64E97832 		.word	846784868
 1840 0ef0 32951F9F 		.word	-1625320142
 1841 0ef4 DF92D3E0 		.word	-523005217
 1842 0ef8 2B34A0D3 		.word	-744475605
 1843 0efc 1EF27189 		.word	-1989021154
 1844 0f00 41740A1B 		.word	453669953
 1845 0f04 8C34A34B 		.word	1268987020
 1846 0f08 2071BEC5 		.word	-977374944
 1847 0f0c D83276C3 		.word	-1015663912
 1848 0f10 8D9F35DF 		.word	-550133875
 1849 0f14 2E2F999B 		.word	-1684459730
 1850 0f18 476F0BE6 		.word	-435458233
 1851 0f1c 1DF1E30F 		.word	266596637
 1852 0f20 54DA4CE5 		.word	-447948204
 1853 0f24 91D8DA1E 		.word	517658769
 1854 0f28 CF7962CE 		.word	-832407089
 1855 0f2c 6F7E3ECD 		.word	-851542417
 1856 0f30 66B11816 		.word	370717030
 1857 0f34 051D2CFD 		.word	-47440635
 1858 0f38 C5D28F84 		.word	-2070949179
 1859 0f3c 9922FBF6 		.word	-151313767
 1860 0f40 57F323F5 		.word	-182193321
 1861 0f44 237632A6 		.word	-1506642397
 1862 0f48 3135A893 		.word	-1817692879
 1863 0f4c 02CDCC56 		.word	1456262402
 1864 0f50 6281F0AC 		.word	-1393524382
 1865 0f54 B5EB755A 		.word	1517677493
 1866 0f58 9736166E 		.word	1846949527
 1867 0f5c CC73D288 		.word	-1999473716
 1868 0f60 926296DE 		.word	-560569710
 1869 0f64 D049B981 		.word	-2118563376
 1870 0f68 1B90504C 		.word	1280348187
 1871 0f6c 1456C671 		.word	1908823572
 1872 0f70 BDC7C6E6 		.word	-423180355
 1873 0f74 0A147A32 		.word	846861322
 1874 0f78 06D0E145 		.word	1172426758
ARM GAS  C:\Users\jo\AppData\Local\Temp\ccx91ntw.s 			page 34


 1875 0f7c 9A7BF2C3 		.word	-1007518822
 1876 0f80 FD53AAC9 		.word	-911584259
 1877 0f84 000FA862 		.word	1655181056
 1878 0f88 E2BF25BB 		.word	-1155153950
 1879 0f8c F6D2BD35 		.word	901632758
 1880 0f90 05691271 		.word	1897031941
 1881 0f94 220204B2 		.word	-1308360158
 1882 0f98 7CCFCBB6 		.word	-1228157060
 1883 0f9c 2B9C76CD 		.word	-847864789
 1884 0fa0 C03E1153 		.word	1393639104
 1885 0fa4 D3E34016 		.word	373351379
 1886 0fa8 60BDAB38 		.word	950779232
 1887 0fac F0AD4725 		.word	625454576
 1888 0fb0 9C2038BA 		.word	-1170726756
 1889 0fb4 76CE46F7 		.word	-146354570
 1890 0fb8 C5A1AF77 		.word	2007998917
 1891 0fbc 60607520 		.word	544563296
 1892 0fc0 4EFECB85 		.word	-2050228658
 1893 0fc4 D88DE88A 		.word	-1964470824
 1894 0fc8 B0F9AA7A 		.word	2058025392
 1895 0fcc 7EAAF94C 		.word	1291430526
 1896 0fd0 5CC24819 		.word	424198748
 1897 0fd4 8C8AFB02 		.word	50039436
 1898 0fd8 E46AC301 		.word	29584100
 1899 0fdc F9E1EBD6 		.word	-689184263
 1900 0fe0 69F8D490 		.word	-1865090967
 1901 0fe4 A0DE5CA6 		.word	-1503863136
 1902 0fe8 2D25093F 		.word	1057563949
 1903 0fec 9FE608C2 		.word	-1039604065
 1904 0ff0 32614EB7 		.word	-1219600078
 1905 0ff4 5BE277CE 		.word	-831004069
 1906 0ff8 E3DF8F57 		.word	1469046755
 1907 0ffc E672C33A 		.word	985887462
 1908              		.text
 1909              	.Letext0:
 1910              		.file 2 "c:\\program files\\gnu tools arm embedded\\4.9 2014q4\\lib\\gcc\\arm-none-eabi\\4.9.3\\in
 1911              		.file 3 "c:\\program files\\gnu tools arm embedded\\4.9 2014q4\\arm-none-eabi\\include\\machine\\_
 1912              		.file 4 "c:\\program files\\gnu tools arm embedded\\4.9 2014q4\\arm-none-eabi\\include\\stdint.h"
 1913              		.file 5 "../../../demos/STM32/RT-STM32F407-DISCOVERY-uHttp/uhttp-1.1/PolarSSL/include/polarssl/blo
 1914              		.section	.debug_info,"",%progbits
 1915              	.Ldebug_info0:
 1916 0000 51070000 		.4byte	0x751
 1917 0004 0400     		.2byte	0x4
 1918 0006 00000000 		.4byte	.Ldebug_abbrev0
 1919 000a 04       		.byte	0x4
 1920 000b 01       		.uleb128 0x1
 1921 000c AD000000 		.4byte	.LASF33
 1922 0010 01       		.byte	0x1
 1923 0011 81000000 		.4byte	.LASF34
 1924 0015 00000000 		.4byte	.LASF35
 1925 0019 00000000 		.4byte	.Ldebug_ranges0+0
 1926 001d 00000000 		.4byte	0
 1927 0021 00000000 		.4byte	.Ldebug_line0
 1928 0025 02       		.uleb128 0x2
 1929 0026 04       		.byte	0x4
 1930 0027 05       		.byte	0x5
 1931 0028 696E7400 		.ascii	"int\000"
ARM GAS  C:\Users\jo\AppData\Local\Temp\ccx91ntw.s 			page 35


 1932 002c 03       		.uleb128 0x3
 1933 002d 6C000000 		.4byte	.LASF6
 1934 0031 02       		.byte	0x2
 1935 0032 D4       		.byte	0xd4
 1936 0033 37000000 		.4byte	0x37
 1937 0037 04       		.uleb128 0x4
 1938 0038 04       		.byte	0x4
 1939 0039 07       		.byte	0x7
 1940 003a 4F020000 		.4byte	.LASF0
 1941 003e 04       		.uleb128 0x4
 1942 003f 01       		.byte	0x1
 1943 0040 06       		.byte	0x6
 1944 0041 C6020000 		.4byte	.LASF1
 1945 0045 04       		.uleb128 0x4
 1946 0046 01       		.byte	0x1
 1947 0047 08       		.byte	0x8
 1948 0048 C7010000 		.4byte	.LASF2
 1949 004c 04       		.uleb128 0x4
 1950 004d 02       		.byte	0x2
 1951 004e 05       		.byte	0x5
 1952 004f AC020000 		.4byte	.LASF3
 1953 0053 04       		.uleb128 0x4
 1954 0054 02       		.byte	0x2
 1955 0055 07       		.byte	0x7
 1956 0056 E9010000 		.4byte	.LASF4
 1957 005a 04       		.uleb128 0x4
 1958 005b 04       		.byte	0x4
 1959 005c 05       		.byte	0x5
 1960 005d BD020000 		.4byte	.LASF5
 1961 0061 03       		.uleb128 0x3
 1962 0062 31020000 		.4byte	.LASF7
 1963 0066 03       		.byte	0x3
 1964 0067 41       		.byte	0x41
 1965 0068 6C000000 		.4byte	0x6c
 1966 006c 04       		.uleb128 0x4
 1967 006d 04       		.byte	0x4
 1968 006e 07       		.byte	0x7
 1969 006f 12020000 		.4byte	.LASF8
 1970 0073 04       		.uleb128 0x4
 1971 0074 08       		.byte	0x8
 1972 0075 05       		.byte	0x5
 1973 0076 86020000 		.4byte	.LASF9
 1974 007a 04       		.uleb128 0x4
 1975 007b 08       		.byte	0x8
 1976 007c 07       		.byte	0x7
 1977 007d 61020000 		.4byte	.LASF10
 1978 0081 04       		.uleb128 0x4
 1979 0082 04       		.byte	0x4
 1980 0083 07       		.byte	0x7
 1981 0084 7D020000 		.4byte	.LASF11
 1982 0088 05       		.uleb128 0x5
 1983 0089 04       		.byte	0x4
 1984 008a 45000000 		.4byte	0x45
 1985 008e 04       		.uleb128 0x4
 1986 008f 01       		.byte	0x1
 1987 0090 08       		.byte	0x8
 1988 0091 94020000 		.4byte	.LASF12
ARM GAS  C:\Users\jo\AppData\Local\Temp\ccx91ntw.s 			page 36


 1989 0095 03       		.uleb128 0x3
 1990 0096 FC010000 		.4byte	.LASF13
 1991 009a 04       		.byte	0x4
 1992 009b 2D       		.byte	0x2d
 1993 009c 61000000 		.4byte	0x61
 1994 00a0 06       		.uleb128 0x6
 1995 00a1 4810     		.2byte	0x1048
 1996 00a3 05       		.byte	0x5
 1997 00a4 3A       		.byte	0x3a
 1998 00a5 BE000000 		.4byte	0xbe
 1999 00a9 07       		.uleb128 0x7
 2000 00aa 5000     		.ascii	"P\000"
 2001 00ac 05       		.byte	0x5
 2002 00ad 3C       		.byte	0x3c
 2003 00ae BE000000 		.4byte	0xbe
 2004 00b2 00       		.byte	0
 2005 00b3 07       		.uleb128 0x7
 2006 00b4 5300     		.ascii	"S\000"
 2007 00b6 05       		.byte	0x5
 2008 00b7 3D       		.byte	0x3d
 2009 00b8 CE000000 		.4byte	0xce
 2010 00bc 48       		.byte	0x48
 2011 00bd 00       		.byte	0
 2012 00be 08       		.uleb128 0x8
 2013 00bf 95000000 		.4byte	0x95
 2014 00c3 CE000000 		.4byte	0xce
 2015 00c7 09       		.uleb128 0x9
 2016 00c8 81000000 		.4byte	0x81
 2017 00cc 11       		.byte	0x11
 2018 00cd 00       		.byte	0
 2019 00ce 08       		.uleb128 0x8
 2020 00cf 95000000 		.4byte	0x95
 2021 00d3 E4000000 		.4byte	0xe4
 2022 00d7 09       		.uleb128 0x9
 2023 00d8 81000000 		.4byte	0x81
 2024 00dc 03       		.byte	0x3
 2025 00dd 09       		.uleb128 0x9
 2026 00de 81000000 		.4byte	0x81
 2027 00e2 FF       		.byte	0xff
 2028 00e3 00       		.byte	0
 2029 00e4 03       		.uleb128 0x3
 2030 00e5 D2020000 		.4byte	.LASF14
 2031 00e9 05       		.byte	0x5
 2032 00ea 3F       		.byte	0x3f
 2033 00eb A0000000 		.4byte	0xa0
 2034 00ef 0A       		.uleb128 0xa
 2035 00f0 4600     		.ascii	"F\000"
 2036 00f2 01       		.byte	0x1
 2037 00f3 4A       		.byte	0x4a
 2038 00f4 95000000 		.4byte	0x95
 2039 00f8 01       		.byte	0x1
 2040 00f9 3F010000 		.4byte	0x13f
 2041 00fd 0B       		.uleb128 0xb
 2042 00fe 63747800 		.ascii	"ctx\000"
 2043 0102 01       		.byte	0x1
 2044 0103 4A       		.byte	0x4a
 2045 0104 3F010000 		.4byte	0x13f
ARM GAS  C:\Users\jo\AppData\Local\Temp\ccx91ntw.s 			page 37


 2046 0108 0B       		.uleb128 0xb
 2047 0109 7800     		.ascii	"x\000"
 2048 010b 01       		.byte	0x1
 2049 010c 4A       		.byte	0x4a
 2050 010d 95000000 		.4byte	0x95
 2051 0111 0C       		.uleb128 0xc
 2052 0112 6100     		.ascii	"a\000"
 2053 0114 01       		.byte	0x1
 2054 0115 4C       		.byte	0x4c
 2055 0116 53000000 		.4byte	0x53
 2056 011a 0C       		.uleb128 0xc
 2057 011b 6200     		.ascii	"b\000"
 2058 011d 01       		.byte	0x1
 2059 011e 4C       		.byte	0x4c
 2060 011f 53000000 		.4byte	0x53
 2061 0123 0C       		.uleb128 0xc
 2062 0124 6300     		.ascii	"c\000"
 2063 0126 01       		.byte	0x1
 2064 0127 4C       		.byte	0x4c
 2065 0128 53000000 		.4byte	0x53
 2066 012c 0C       		.uleb128 0xc
 2067 012d 6400     		.ascii	"d\000"
 2068 012f 01       		.byte	0x1
 2069 0130 4C       		.byte	0x4c
 2070 0131 53000000 		.4byte	0x53
 2071 0135 0C       		.uleb128 0xc
 2072 0136 7900     		.ascii	"y\000"
 2073 0138 01       		.byte	0x1
 2074 0139 4D       		.byte	0x4d
 2075 013a 95000000 		.4byte	0x95
 2076 013e 00       		.byte	0
 2077 013f 05       		.uleb128 0x5
 2078 0140 04       		.byte	0x4
 2079 0141 E4000000 		.4byte	0xe4
 2080 0145 0D       		.uleb128 0xd
 2081 0146 24020000 		.4byte	.LASF36
 2082 014a 01       		.byte	0x1
 2083 014b 5D       		.byte	0x5d
 2084 014c 00000000 		.4byte	.LFB1
 2085 0150 62000000 		.4byte	.LFE1-.LFB1
 2086 0154 01       		.uleb128 0x1
 2087 0155 9C       		.byte	0x9c
 2088 0156 13020000 		.4byte	0x213
 2089 015a 0E       		.uleb128 0xe
 2090 015b 63747800 		.ascii	"ctx\000"
 2091 015f 01       		.byte	0x1
 2092 0160 5D       		.byte	0x5d
 2093 0161 3F010000 		.4byte	0x13f
 2094 0165 00000000 		.4byte	.LLST0
 2095 0169 0F       		.uleb128 0xf
 2096 016a 786C00   		.ascii	"xl\000"
 2097 016d 01       		.byte	0x1
 2098 016e 5D       		.byte	0x5d
 2099 016f 13020000 		.4byte	0x213
 2100 0173 01       		.uleb128 0x1
 2101 0174 51       		.byte	0x51
 2102 0175 0F       		.uleb128 0xf
ARM GAS  C:\Users\jo\AppData\Local\Temp\ccx91ntw.s 			page 38


 2103 0176 787200   		.ascii	"xr\000"
 2104 0179 01       		.byte	0x1
 2105 017a 5D       		.byte	0x5d
 2106 017b 13020000 		.4byte	0x213
 2107 017f 01       		.uleb128 0x1
 2108 0180 52       		.byte	0x52
 2109 0181 10       		.uleb128 0x10
 2110 0182 586C00   		.ascii	"Xl\000"
 2111 0185 01       		.byte	0x1
 2112 0186 5F       		.byte	0x5f
 2113 0187 95000000 		.4byte	0x95
 2114 018b 20000000 		.4byte	.LLST1
 2115 018f 10       		.uleb128 0x10
 2116 0190 587200   		.ascii	"Xr\000"
 2117 0193 01       		.byte	0x1
 2118 0194 5F       		.byte	0x5f
 2119 0195 95000000 		.4byte	0x95
 2120 0199 82000000 		.4byte	.LLST2
 2121 019d 11       		.uleb128 0x11
 2122 019e 5C020000 		.4byte	.LASF15
 2123 01a2 01       		.byte	0x1
 2124 01a3 5F       		.byte	0x5f
 2125 01a4 95000000 		.4byte	0x95
 2126 01a8 AB000000 		.4byte	.LLST3
 2127 01ac 10       		.uleb128 0x10
 2128 01ad 6900     		.ascii	"i\000"
 2129 01af 01       		.byte	0x1
 2130 01b0 60       		.byte	0x60
 2131 01b1 4C000000 		.4byte	0x4c
 2132 01b5 C9000000 		.4byte	.LLST4
 2133 01b9 12       		.uleb128 0x12
 2134 01ba EF000000 		.4byte	0xef
 2135 01be 16000000 		.4byte	.LBB6
 2136 01c2 30000000 		.4byte	.LBE6-.LBB6
 2137 01c6 01       		.byte	0x1
 2138 01c7 68       		.byte	0x68
 2139 01c8 13       		.uleb128 0x13
 2140 01c9 08010000 		.4byte	0x108
 2141 01cd DD000000 		.4byte	.LLST5
 2142 01d1 13       		.uleb128 0x13
 2143 01d2 FD000000 		.4byte	0xfd
 2144 01d6 2A010000 		.4byte	.LLST6
 2145 01da 14       		.uleb128 0x14
 2146 01db 16000000 		.4byte	.LBB7
 2147 01df 30000000 		.4byte	.LBE7-.LBB7
 2148 01e3 15       		.uleb128 0x15
 2149 01e4 11010000 		.4byte	0x111
 2150 01e8 4A010000 		.4byte	.LLST7
 2151 01ec 15       		.uleb128 0x15
 2152 01ed 1A010000 		.4byte	0x11a
 2153 01f1 88010000 		.4byte	.LLST8
 2154 01f5 15       		.uleb128 0x15
 2155 01f6 23010000 		.4byte	0x123
 2156 01fa B4010000 		.4byte	.LLST9
 2157 01fe 15       		.uleb128 0x15
 2158 01ff 2C010000 		.4byte	0x12c
 2159 0203 E0010000 		.4byte	.LLST10
ARM GAS  C:\Users\jo\AppData\Local\Temp\ccx91ntw.s 			page 39


 2160 0207 15       		.uleb128 0x15
 2161 0208 35010000 		.4byte	0x135
 2162 020c 08020000 		.4byte	.LLST11
 2163 0210 00       		.byte	0
 2164 0211 00       		.byte	0
 2165 0212 00       		.byte	0
 2166 0213 05       		.uleb128 0x5
 2167 0214 04       		.byte	0x4
 2168 0215 95000000 		.4byte	0x95
 2169 0219 16       		.uleb128 0x16
 2170 021a 4E000000 		.4byte	.LASF20
 2171 021e 01       		.byte	0x1
 2172 021f 9A       		.byte	0x9a
 2173 0220 25000000 		.4byte	0x25
 2174 0224 00000000 		.4byte	.LFB3
 2175 0228 CC000000 		.4byte	.LFE3-.LFB3
 2176 022c 01       		.uleb128 0x1
 2177 022d 9C       		.byte	0x9c
 2178 022e EE020000 		.4byte	0x2ee
 2179 0232 0E       		.uleb128 0xe
 2180 0233 63747800 		.ascii	"ctx\000"
 2181 0237 01       		.byte	0x1
 2182 0238 9A       		.byte	0x9a
 2183 0239 3F010000 		.4byte	0x13f
 2184 023d D1020000 		.4byte	.LLST12
 2185 0241 0E       		.uleb128 0xe
 2186 0242 6B657900 		.ascii	"key\000"
 2187 0246 01       		.byte	0x1
 2188 0247 9A       		.byte	0x9a
 2189 0248 EE020000 		.4byte	0x2ee
 2190 024c 13030000 		.4byte	.LLST13
 2191 0250 17       		.uleb128 0x17
 2192 0251 73000000 		.4byte	.LASF16
 2193 0255 01       		.byte	0x1
 2194 0256 9A       		.byte	0x9a
 2195 0257 37000000 		.4byte	0x37
 2196 025b 3F030000 		.4byte	.LLST14
 2197 025f 10       		.uleb128 0x10
 2198 0260 6900     		.ascii	"i\000"
 2199 0262 01       		.byte	0x1
 2200 0263 9C       		.byte	0x9c
 2201 0264 37000000 		.4byte	0x37
 2202 0268 78030000 		.4byte	.LLST15
 2203 026c 10       		.uleb128 0x10
 2204 026d 6A00     		.ascii	"j\000"
 2205 026f 01       		.byte	0x1
 2206 0270 9C       		.byte	0x9c
 2207 0271 37000000 		.4byte	0x37
 2208 0275 98030000 		.4byte	.LLST16
 2209 0279 10       		.uleb128 0x10
 2210 027a 6B00     		.ascii	"k\000"
 2211 027c 01       		.byte	0x1
 2212 027d 9C       		.byte	0x9c
 2213 027e 37000000 		.4byte	0x37
 2214 0282 CE030000 		.4byte	.LLST17
 2215 0286 11       		.uleb128 0x11
 2216 0287 C2010000 		.4byte	.LASF17
ARM GAS  C:\Users\jo\AppData\Local\Temp\ccx91ntw.s 			page 40


 2217 028b 01       		.byte	0x1
 2218 028c 9D       		.byte	0x9d
 2219 028d 95000000 		.4byte	0x95
 2220 0291 00040000 		.4byte	.LLST18
 2221 0295 18       		.uleb128 0x18
 2222 0296 7B000000 		.4byte	.LASF18
 2223 029a 01       		.byte	0x1
 2224 029b 9D       		.byte	0x9d
 2225 029c 95000000 		.4byte	0x95
 2226 02a0 02       		.uleb128 0x2
 2227 02a1 91       		.byte	0x91
 2228 02a2 60       		.sleb128 -32
 2229 02a3 18       		.uleb128 0x18
 2230 02a4 87010000 		.4byte	.LASF19
 2231 02a8 01       		.byte	0x1
 2232 02a9 9D       		.byte	0x9d
 2233 02aa 95000000 		.4byte	0x95
 2234 02ae 02       		.uleb128 0x2
 2235 02af 91       		.byte	0x91
 2236 02b0 64       		.sleb128 -28
 2237 02b1 19       		.uleb128 0x19
 2238 02b2 84000000 		.4byte	.LVL30
 2239 02b6 45010000 		.4byte	0x145
 2240 02ba D1020000 		.4byte	0x2d1
 2241 02be 1A       		.uleb128 0x1a
 2242 02bf 01       		.uleb128 0x1
 2243 02c0 52       		.byte	0x52
 2244 02c1 02       		.uleb128 0x2
 2245 02c2 91       		.byte	0x91
 2246 02c3 64       		.sleb128 -28
 2247 02c4 1A       		.uleb128 0x1a
 2248 02c5 01       		.uleb128 0x1
 2249 02c6 51       		.byte	0x51
 2250 02c7 02       		.uleb128 0x2
 2251 02c8 7D       		.byte	0x7d
 2252 02c9 00       		.sleb128 0
 2253 02ca 1A       		.uleb128 0x1a
 2254 02cb 01       		.uleb128 0x1
 2255 02cc 50       		.byte	0x50
 2256 02cd 02       		.uleb128 0x2
 2257 02ce 74       		.byte	0x74
 2258 02cf 00       		.sleb128 0
 2259 02d0 00       		.byte	0
 2260 02d1 1B       		.uleb128 0x1b
 2261 02d2 A4000000 		.4byte	.LVL33
 2262 02d6 45010000 		.4byte	0x145
 2263 02da 1A       		.uleb128 0x1a
 2264 02db 01       		.uleb128 0x1
 2265 02dc 52       		.byte	0x52
 2266 02dd 02       		.uleb128 0x2
 2267 02de 91       		.byte	0x91
 2268 02df 64       		.sleb128 -28
 2269 02e0 1A       		.uleb128 0x1a
 2270 02e1 01       		.uleb128 0x1
 2271 02e2 51       		.byte	0x51
 2272 02e3 02       		.uleb128 0x2
 2273 02e4 7D       		.byte	0x7d
ARM GAS  C:\Users\jo\AppData\Local\Temp\ccx91ntw.s 			page 41


 2274 02e5 00       		.sleb128 0
 2275 02e6 1A       		.uleb128 0x1a
 2276 02e7 01       		.uleb128 0x1
 2277 02e8 50       		.byte	0x50
 2278 02e9 02       		.uleb128 0x2
 2279 02ea 75       		.byte	0x75
 2280 02eb 00       		.sleb128 0
 2281 02ec 00       		.byte	0
 2282 02ed 00       		.byte	0
 2283 02ee 05       		.uleb128 0x5
 2284 02ef 04       		.byte	0x4
 2285 02f0 F4020000 		.4byte	0x2f4
 2286 02f4 1C       		.uleb128 0x1c
 2287 02f5 45000000 		.4byte	0x45
 2288 02f9 1D       		.uleb128 0x1d
 2289 02fa B5010000 		.4byte	.LASF37
 2290 02fe 01       		.byte	0x1
 2291 02ff 7A       		.byte	0x7a
 2292 0300 01       		.byte	0x1
 2293 0301 4D030000 		.4byte	0x34d
 2294 0305 0B       		.uleb128 0xb
 2295 0306 63747800 		.ascii	"ctx\000"
 2296 030a 01       		.byte	0x1
 2297 030b 7A       		.byte	0x7a
 2298 030c 3F010000 		.4byte	0x13f
 2299 0310 0B       		.uleb128 0xb
 2300 0311 786C00   		.ascii	"xl\000"
 2301 0314 01       		.byte	0x1
 2302 0315 7A       		.byte	0x7a
 2303 0316 13020000 		.4byte	0x213
 2304 031a 0B       		.uleb128 0xb
 2305 031b 787200   		.ascii	"xr\000"
 2306 031e 01       		.byte	0x1
 2307 031f 7A       		.byte	0x7a
 2308 0320 13020000 		.4byte	0x213
 2309 0324 0C       		.uleb128 0xc
 2310 0325 586C00   		.ascii	"Xl\000"
 2311 0328 01       		.byte	0x1
 2312 0329 7C       		.byte	0x7c
 2313 032a 95000000 		.4byte	0x95
 2314 032e 0C       		.uleb128 0xc
 2315 032f 587200   		.ascii	"Xr\000"
 2316 0332 01       		.byte	0x1
 2317 0333 7C       		.byte	0x7c
 2318 0334 95000000 		.4byte	0x95
 2319 0338 1E       		.uleb128 0x1e
 2320 0339 5C020000 		.4byte	.LASF15
 2321 033d 01       		.byte	0x1
 2322 033e 7C       		.byte	0x7c
 2323 033f 95000000 		.4byte	0x95
 2324 0343 0C       		.uleb128 0xc
 2325 0344 6900     		.ascii	"i\000"
 2326 0346 01       		.byte	0x1
 2327 0347 7D       		.byte	0x7d
 2328 0348 4C000000 		.4byte	0x4c
 2329 034c 00       		.byte	0
 2330 034d 16       		.uleb128 0x16
ARM GAS  C:\Users\jo\AppData\Local\Temp\ccx91ntw.s 			page 42


 2331 034e 99020000 		.4byte	.LASF21
 2332 0352 01       		.byte	0x1
 2333 0353 D3       		.byte	0xd3
 2334 0354 25000000 		.4byte	0x25
 2335 0358 00000000 		.4byte	.LFB4
 2336 035c C8000000 		.4byte	.LFE4-.LFB4
 2337 0360 01       		.uleb128 0x1
 2338 0361 9C       		.byte	0x9c
 2339 0362 80040000 		.4byte	0x480
 2340 0366 0E       		.uleb128 0xe
 2341 0367 63747800 		.ascii	"ctx\000"
 2342 036b 01       		.byte	0x1
 2343 036c D3       		.byte	0xd3
 2344 036d 3F010000 		.4byte	0x13f
 2345 0371 1F040000 		.4byte	.LLST19
 2346 0375 17       		.uleb128 0x17
 2347 0376 78020000 		.4byte	.LASF22
 2348 037a 01       		.byte	0x1
 2349 037b D4       		.byte	0xd4
 2350 037c 25000000 		.4byte	0x25
 2351 0380 56040000 		.4byte	.LLST20
 2352 0384 17       		.uleb128 0x17
 2353 0385 D5010000 		.4byte	.LASF23
 2354 0389 01       		.byte	0x1
 2355 038a D5       		.byte	0xd5
 2356 038b EE020000 		.4byte	0x2ee
 2357 038f 90040000 		.4byte	.LLST21
 2358 0393 17       		.uleb128 0x17
 2359 0394 B6020000 		.4byte	.LASF24
 2360 0398 01       		.byte	0x1
 2361 0399 D6       		.byte	0xd6
 2362 039a 88000000 		.4byte	0x88
 2363 039e B1040000 		.4byte	.LLST22
 2364 03a2 10       		.uleb128 0x10
 2365 03a3 583000   		.ascii	"X0\000"
 2366 03a6 01       		.byte	0x1
 2367 03a7 D8       		.byte	0xd8
 2368 03a8 95000000 		.4byte	0x95
 2369 03ac CF040000 		.4byte	.LLST23
 2370 03b0 10       		.uleb128 0x10
 2371 03b1 583100   		.ascii	"X1\000"
 2372 03b4 01       		.byte	0x1
 2373 03b5 D8       		.byte	0xd8
 2374 03b6 95000000 		.4byte	0x95
 2375 03ba F2040000 		.4byte	.LLST24
 2376 03be 1F       		.uleb128 0x1f
 2377 03bf F9020000 		.4byte	0x2f9
 2378 03c3 7E000000 		.4byte	.LBB12
 2379 03c7 4A000000 		.4byte	.LBE12-.LBB12
 2380 03cb 01       		.byte	0x1
 2381 03cc DF       		.byte	0xdf
 2382 03cd 62040000 		.4byte	0x462
 2383 03d1 20       		.uleb128 0x20
 2384 03d2 1A030000 		.4byte	0x31a
 2385 03d6 20       		.uleb128 0x20
 2386 03d7 10030000 		.4byte	0x310
 2387 03db 20       		.uleb128 0x20
ARM GAS  C:\Users\jo\AppData\Local\Temp\ccx91ntw.s 			page 43


 2388 03dc 05030000 		.4byte	0x305
 2389 03e0 14       		.uleb128 0x14
 2390 03e1 7E000000 		.4byte	.LBB13
 2391 03e5 4A000000 		.4byte	.LBE13-.LBB13
 2392 03e9 15       		.uleb128 0x15
 2393 03ea 24030000 		.4byte	0x324
 2394 03ee 15050000 		.4byte	.LLST25
 2395 03f2 15       		.uleb128 0x15
 2396 03f3 2E030000 		.4byte	0x32e
 2397 03f7 6F050000 		.4byte	.LLST26
 2398 03fb 15       		.uleb128 0x15
 2399 03fc 38030000 		.4byte	0x338
 2400 0400 B3050000 		.4byte	.LLST27
 2401 0404 21       		.uleb128 0x21
 2402 0405 43030000 		.4byte	0x343
 2403 0409 12       		.uleb128 0x12
 2404 040a EF000000 		.4byte	0xef
 2405 040e 84000000 		.4byte	.LBB14
 2406 0412 30000000 		.4byte	.LBE14-.LBB14
 2407 0416 01       		.byte	0x1
 2408 0417 85       		.byte	0x85
 2409 0418 13       		.uleb128 0x13
 2410 0419 08010000 		.4byte	0x108
 2411 041d D1050000 		.4byte	.LLST28
 2412 0421 22       		.uleb128 0x22
 2413 0422 FD000000 		.4byte	0xfd
 2414 0426 01       		.uleb128 0x1
 2415 0427 55       		.byte	0x55
 2416 0428 14       		.uleb128 0x14
 2417 0429 84000000 		.4byte	.LBB15
 2418 042d 30000000 		.4byte	.LBE15-.LBB15
 2419 0431 15       		.uleb128 0x15
 2420 0432 11010000 		.4byte	0x111
 2421 0436 1E060000 		.4byte	.LLST29
 2422 043a 15       		.uleb128 0x15
 2423 043b 1A010000 		.4byte	0x11a
 2424 043f 5C060000 		.4byte	.LLST30
 2425 0443 15       		.uleb128 0x15
 2426 0444 23010000 		.4byte	0x123
 2427 0448 88060000 		.4byte	.LLST31
 2428 044c 15       		.uleb128 0x15
 2429 044d 2C010000 		.4byte	0x12c
 2430 0451 B4060000 		.4byte	.LLST32
 2431 0455 15       		.uleb128 0x15
 2432 0456 35010000 		.4byte	0x135
 2433 045a DC060000 		.4byte	.LLST33
 2434 045e 00       		.byte	0
 2435 045f 00       		.byte	0
 2436 0460 00       		.byte	0
 2437 0461 00       		.byte	0
 2438 0462 1B       		.uleb128 0x1b
 2439 0463 4C000000 		.4byte	.LVL40
 2440 0467 45010000 		.4byte	0x145
 2441 046b 1A       		.uleb128 0x1a
 2442 046c 01       		.uleb128 0x1
 2443 046d 52       		.byte	0x52
 2444 046e 02       		.uleb128 0x2
ARM GAS  C:\Users\jo\AppData\Local\Temp\ccx91ntw.s 			page 44


 2445 046f 91       		.byte	0x91
 2446 0470 5C       		.sleb128 -36
 2447 0471 1A       		.uleb128 0x1a
 2448 0472 01       		.uleb128 0x1
 2449 0473 51       		.byte	0x51
 2450 0474 02       		.uleb128 0x2
 2451 0475 7D       		.byte	0x7d
 2452 0476 00       		.sleb128 0
 2453 0477 1A       		.uleb128 0x1a
 2454 0478 01       		.uleb128 0x1
 2455 0479 50       		.byte	0x50
 2456 047a 03       		.uleb128 0x3
 2457 047b F3       		.byte	0xf3
 2458 047c 01       		.uleb128 0x1
 2459 047d 50       		.byte	0x50
 2460 047e 00       		.byte	0
 2461 047f 00       		.byte	0
 2462 0480 16       		.uleb128 0x16
 2463 0481 3C020000 		.4byte	.LASF25
 2464 0485 01       		.byte	0x1
 2465 0486 EF       		.byte	0xef
 2466 0487 25000000 		.4byte	0x25
 2467 048b 00000000 		.4byte	.LFB5
 2468 048f BE000000 		.4byte	.LFE5-.LFB5
 2469 0493 01       		.uleb128 0x1
 2470 0494 9C       		.byte	0x9c
 2471 0495 55050000 		.4byte	0x555
 2472 0499 0E       		.uleb128 0xe
 2473 049a 63747800 		.ascii	"ctx\000"
 2474 049e 01       		.byte	0x1
 2475 049f EF       		.byte	0xef
 2476 04a0 3F010000 		.4byte	0x13f
 2477 04a4 B8070000 		.4byte	.LLST34
 2478 04a8 17       		.uleb128 0x17
 2479 04a9 78020000 		.4byte	.LASF22
 2480 04ad 01       		.byte	0x1
 2481 04ae F0       		.byte	0xf0
 2482 04af 25000000 		.4byte	0x25
 2483 04b3 13080000 		.4byte	.LLST35
 2484 04b7 17       		.uleb128 0x17
 2485 04b8 E3020000 		.4byte	.LASF26
 2486 04bc 01       		.byte	0x1
 2487 04bd F1       		.byte	0xf1
 2488 04be 2C000000 		.4byte	0x2c
 2489 04c2 60080000 		.4byte	.LLST36
 2490 04c6 0E       		.uleb128 0xe
 2491 04c7 697600   		.ascii	"iv\000"
 2492 04ca 01       		.byte	0x1
 2493 04cb F2       		.byte	0xf2
 2494 04cc 88000000 		.4byte	0x88
 2495 04d0 AE080000 		.4byte	.LLST37
 2496 04d4 17       		.uleb128 0x17
 2497 04d5 D5010000 		.4byte	.LASF23
 2498 04d9 01       		.byte	0x1
 2499 04da F3       		.byte	0xf3
 2500 04db EE020000 		.4byte	0x2ee
 2501 04df FB080000 		.4byte	.LLST38
ARM GAS  C:\Users\jo\AppData\Local\Temp\ccx91ntw.s 			page 45


 2502 04e3 17       		.uleb128 0x17
 2503 04e4 B6020000 		.4byte	.LASF24
 2504 04e8 01       		.byte	0x1
 2505 04e9 F4       		.byte	0xf4
 2506 04ea 88000000 		.4byte	0x88
 2507 04ee 4D090000 		.4byte	.LLST39
 2508 04f2 10       		.uleb128 0x10
 2509 04f3 6900     		.ascii	"i\000"
 2510 04f5 01       		.byte	0x1
 2511 04f6 F6       		.byte	0xf6
 2512 04f7 25000000 		.4byte	0x25
 2513 04fb 8E090000 		.4byte	.LLST40
 2514 04ff 18       		.uleb128 0x18
 2515 0500 5C020000 		.4byte	.LASF15
 2516 0504 01       		.byte	0x1
 2517 0505 F7       		.byte	0xf7
 2518 0506 55050000 		.4byte	0x555
 2519 050a 02       		.uleb128 0x2
 2520 050b 91       		.byte	0x91
 2521 050c 58       		.sleb128 -40
 2522 050d 19       		.uleb128 0x19
 2523 050e 36000000 		.4byte	.LVL60
 2524 0512 4D030000 		.4byte	0x34d
 2525 0516 32050000 		.4byte	0x532
 2526 051a 1A       		.uleb128 0x1a
 2527 051b 01       		.uleb128 0x1
 2528 051c 53       		.byte	0x53
 2529 051d 02       		.uleb128 0x2
 2530 051e 74       		.byte	0x74
 2531 051f 00       		.sleb128 0
 2532 0520 1A       		.uleb128 0x1a
 2533 0521 01       		.uleb128 0x1
 2534 0522 52       		.byte	0x52
 2535 0523 02       		.uleb128 0x2
 2536 0524 7A       		.byte	0x7a
 2537 0525 00       		.sleb128 0
 2538 0526 1A       		.uleb128 0x1a
 2539 0527 01       		.uleb128 0x1
 2540 0528 51       		.byte	0x51
 2541 0529 01       		.uleb128 0x1
 2542 052a 30       		.byte	0x30
 2543 052b 1A       		.uleb128 0x1a
 2544 052c 01       		.uleb128 0x1
 2545 052d 50       		.byte	0x50
 2546 052e 02       		.uleb128 0x2
 2547 052f 76       		.byte	0x76
 2548 0530 00       		.sleb128 0
 2549 0531 00       		.byte	0
 2550 0532 1B       		.uleb128 0x1b
 2551 0533 A2000000 		.4byte	.LVL71
 2552 0537 4D030000 		.4byte	0x34d
 2553 053b 1A       		.uleb128 0x1a
 2554 053c 01       		.uleb128 0x1
 2555 053d 53       		.byte	0x53
 2556 053e 02       		.uleb128 0x2
 2557 053f 74       		.byte	0x74
 2558 0540 00       		.sleb128 0
ARM GAS  C:\Users\jo\AppData\Local\Temp\ccx91ntw.s 			page 46


 2559 0541 1A       		.uleb128 0x1a
 2560 0542 01       		.uleb128 0x1
 2561 0543 52       		.byte	0x52
 2562 0544 02       		.uleb128 0x2
 2563 0545 74       		.byte	0x74
 2564 0546 00       		.sleb128 0
 2565 0547 1A       		.uleb128 0x1a
 2566 0548 01       		.uleb128 0x1
 2567 0549 51       		.byte	0x51
 2568 054a 02       		.uleb128 0x2
 2569 054b 79       		.byte	0x79
 2570 054c 00       		.sleb128 0
 2571 054d 1A       		.uleb128 0x1a
 2572 054e 01       		.uleb128 0x1
 2573 054f 50       		.byte	0x50
 2574 0550 02       		.uleb128 0x2
 2575 0551 76       		.byte	0x76
 2576 0552 00       		.sleb128 0
 2577 0553 00       		.byte	0
 2578 0554 00       		.byte	0
 2579 0555 08       		.uleb128 0x8
 2580 0556 45000000 		.4byte	0x45
 2581 055a 65050000 		.4byte	0x565
 2582 055e 09       		.uleb128 0x9
 2583 055f 81000000 		.4byte	0x81
 2584 0563 07       		.byte	0x7
 2585 0564 00       		.byte	0
 2586 0565 23       		.uleb128 0x23
 2587 0566 A0010000 		.4byte	.LASF27
 2588 056a 01       		.byte	0x1
 2589 056b 2401     		.2byte	0x124
 2590 056d 25000000 		.4byte	0x25
 2591 0571 00000000 		.4byte	.LFB6
 2592 0575 7E000000 		.4byte	.LFE6-.LFB6
 2593 0579 01       		.uleb128 0x1
 2594 057a 9C       		.byte	0x9c
 2595 057b 4F060000 		.4byte	0x64f
 2596 057f 24       		.uleb128 0x24
 2597 0580 63747800 		.ascii	"ctx\000"
 2598 0584 01       		.byte	0x1
 2599 0585 2401     		.2byte	0x124
 2600 0587 3F010000 		.4byte	0x13f
 2601 058b E5090000 		.4byte	.LLST41
 2602 058f 25       		.uleb128 0x25
 2603 0590 78020000 		.4byte	.LASF22
 2604 0594 01       		.byte	0x1
 2605 0595 2501     		.2byte	0x125
 2606 0597 25000000 		.4byte	0x25
 2607 059b 190A0000 		.4byte	.LLST42
 2608 059f 25       		.uleb128 0x25
 2609 05a0 E3020000 		.4byte	.LASF26
 2610 05a4 01       		.byte	0x1
 2611 05a5 2601     		.2byte	0x126
 2612 05a7 2C000000 		.4byte	0x2c
 2613 05ab 530A0000 		.4byte	.LLST43
 2614 05af 25       		.uleb128 0x25
 2615 05b0 DB010000 		.4byte	.LASF28
ARM GAS  C:\Users\jo\AppData\Local\Temp\ccx91ntw.s 			page 47


 2616 05b4 01       		.byte	0x1
 2617 05b5 2701     		.2byte	0x127
 2618 05b7 4F060000 		.4byte	0x64f
 2619 05bb B20A0000 		.4byte	.LLST44
 2620 05bf 24       		.uleb128 0x24
 2621 05c0 697600   		.ascii	"iv\000"
 2622 05c3 01       		.byte	0x1
 2623 05c4 2801     		.2byte	0x128
 2624 05c6 88000000 		.4byte	0x88
 2625 05ca E60A0000 		.4byte	.LLST45
 2626 05ce 25       		.uleb128 0x25
 2627 05cf D5010000 		.4byte	.LASF23
 2628 05d3 01       		.byte	0x1
 2629 05d4 2901     		.2byte	0x129
 2630 05d6 EE020000 		.4byte	0x2ee
 2631 05da 120B0000 		.4byte	.LLST46
 2632 05de 25       		.uleb128 0x25
 2633 05df B6020000 		.4byte	.LASF24
 2634 05e3 01       		.byte	0x1
 2635 05e4 2A01     		.2byte	0x12a
 2636 05e6 88000000 		.4byte	0x88
 2637 05ea 790B0000 		.4byte	.LLST47
 2638 05ee 26       		.uleb128 0x26
 2639 05ef 6300     		.ascii	"c\000"
 2640 05f1 01       		.byte	0x1
 2641 05f2 2C01     		.2byte	0x12c
 2642 05f4 25000000 		.4byte	0x25
 2643 05f8 BD0B0000 		.4byte	.LLST48
 2644 05fc 27       		.uleb128 0x27
 2645 05fd 6E00     		.ascii	"n\000"
 2646 05ff 01       		.byte	0x1
 2647 0600 2D01     		.2byte	0x12d
 2648 0602 2C000000 		.4byte	0x2c
 2649 0606 01       		.uleb128 0x1
 2650 0607 54       		.byte	0x54
 2651 0608 19       		.uleb128 0x19
 2652 0609 6E000000 		.4byte	.LVL92
 2653 060d 4D030000 		.4byte	0x34d
 2654 0611 2D060000 		.4byte	0x62d
 2655 0615 1A       		.uleb128 0x1a
 2656 0616 01       		.uleb128 0x1
 2657 0617 53       		.byte	0x53
 2658 0618 02       		.uleb128 0x2
 2659 0619 76       		.byte	0x76
 2660 061a 00       		.sleb128 0
 2661 061b 1A       		.uleb128 0x1a
 2662 061c 01       		.uleb128 0x1
 2663 061d 52       		.byte	0x52
 2664 061e 02       		.uleb128 0x2
 2665 061f 76       		.byte	0x76
 2666 0620 00       		.sleb128 0
 2667 0621 1A       		.uleb128 0x1a
 2668 0622 01       		.uleb128 0x1
 2669 0623 51       		.byte	0x51
 2670 0624 01       		.uleb128 0x1
 2671 0625 31       		.byte	0x31
 2672 0626 1A       		.uleb128 0x1a
ARM GAS  C:\Users\jo\AppData\Local\Temp\ccx91ntw.s 			page 48


 2673 0627 01       		.uleb128 0x1
 2674 0628 50       		.byte	0x50
 2675 0629 02       		.uleb128 0x2
 2676 062a 77       		.byte	0x77
 2677 062b 00       		.sleb128 0
 2678 062c 00       		.byte	0
 2679 062d 1B       		.uleb128 0x1b
 2680 062e 7C000000 		.4byte	.LVL94
 2681 0632 4D030000 		.4byte	0x34d
 2682 0636 1A       		.uleb128 0x1a
 2683 0637 01       		.uleb128 0x1
 2684 0638 53       		.byte	0x53
 2685 0639 02       		.uleb128 0x2
 2686 063a 76       		.byte	0x76
 2687 063b 00       		.sleb128 0
 2688 063c 1A       		.uleb128 0x1a
 2689 063d 01       		.uleb128 0x1
 2690 063e 52       		.byte	0x52
 2691 063f 02       		.uleb128 0x2
 2692 0640 76       		.byte	0x76
 2693 0641 00       		.sleb128 0
 2694 0642 1A       		.uleb128 0x1a
 2695 0643 01       		.uleb128 0x1
 2696 0644 51       		.byte	0x51
 2697 0645 01       		.uleb128 0x1
 2698 0646 31       		.byte	0x31
 2699 0647 1A       		.uleb128 0x1a
 2700 0648 01       		.uleb128 0x1
 2701 0649 50       		.byte	0x50
 2702 064a 02       		.uleb128 0x2
 2703 064b 77       		.byte	0x77
 2704 064c 00       		.sleb128 0
 2705 064d 00       		.byte	0
 2706 064e 00       		.byte	0
 2707 064f 05       		.uleb128 0x5
 2708 0650 04       		.byte	0x4
 2709 0651 2C000000 		.4byte	0x2c
 2710 0655 23       		.uleb128 0x23
 2711 0656 8D010000 		.4byte	.LASF29
 2712 065a 01       		.byte	0x1
 2713 065b 5401     		.2byte	0x154
 2714 065d 25000000 		.4byte	0x25
 2715 0661 00000000 		.4byte	.LFB7
 2716 0665 62000000 		.4byte	.LFE7-.LFB7
 2717 0669 01       		.uleb128 0x1
 2718 066a 9C       		.byte	0x9c
 2719 066b 2B070000 		.4byte	0x72b
 2720 066f 24       		.uleb128 0x24
 2721 0670 63747800 		.ascii	"ctx\000"
 2722 0674 01       		.byte	0x1
 2723 0675 5401     		.2byte	0x154
 2724 0677 3F010000 		.4byte	0x13f
 2725 067b D50B0000 		.4byte	.LLST49
 2726 067f 25       		.uleb128 0x25
 2727 0680 E3020000 		.4byte	.LASF26
 2728 0684 01       		.byte	0x1
 2729 0685 5501     		.2byte	0x155
ARM GAS  C:\Users\jo\AppData\Local\Temp\ccx91ntw.s 			page 49


 2730 0687 2C000000 		.4byte	0x2c
 2731 068b 0C0C0000 		.4byte	.LLST50
 2732 068f 25       		.uleb128 0x25
 2733 0690 E2010000 		.4byte	.LASF30
 2734 0694 01       		.byte	0x1
 2735 0695 5601     		.2byte	0x156
 2736 0697 4F060000 		.4byte	0x64f
 2737 069b 510C0000 		.4byte	.LLST51
 2738 069f 25       		.uleb128 0x25
 2739 06a0 5E000000 		.4byte	.LASF31
 2740 06a4 01       		.byte	0x1
 2741 06a5 5701     		.2byte	0x157
 2742 06a7 88000000 		.4byte	0x88
 2743 06ab 6F0C0000 		.4byte	.LLST52
 2744 06af 25       		.uleb128 0x25
 2745 06b0 05020000 		.4byte	.LASF32
 2746 06b4 01       		.byte	0x1
 2747 06b5 5801     		.2byte	0x158
 2748 06b7 88000000 		.4byte	0x88
 2749 06bb A60C0000 		.4byte	.LLST53
 2750 06bf 25       		.uleb128 0x25
 2751 06c0 D5010000 		.4byte	.LASF23
 2752 06c4 01       		.byte	0x1
 2753 06c5 5901     		.2byte	0x159
 2754 06c7 EE020000 		.4byte	0x2ee
 2755 06cb C60C0000 		.4byte	.LLST54
 2756 06cf 25       		.uleb128 0x25
 2757 06d0 B6020000 		.4byte	.LASF24
 2758 06d4 01       		.byte	0x1
 2759 06d5 5A01     		.2byte	0x15a
 2760 06d7 88000000 		.4byte	0x88
 2761 06db FD0C0000 		.4byte	.LLST55
 2762 06df 26       		.uleb128 0x26
 2763 06e0 6300     		.ascii	"c\000"
 2764 06e2 01       		.byte	0x1
 2765 06e3 5C01     		.2byte	0x15c
 2766 06e5 25000000 		.4byte	0x25
 2767 06e9 1C0D0000 		.4byte	.LLST56
 2768 06ed 26       		.uleb128 0x26
 2769 06ee 6900     		.ascii	"i\000"
 2770 06f0 01       		.byte	0x1
 2771 06f1 5C01     		.2byte	0x15c
 2772 06f3 25000000 		.4byte	0x25
 2773 06f7 480D0000 		.4byte	.LLST57
 2774 06fb 26       		.uleb128 0x26
 2775 06fc 6E00     		.ascii	"n\000"
 2776 06fe 01       		.byte	0x1
 2777 06ff 5D01     		.2byte	0x15d
 2778 0701 2C000000 		.4byte	0x2c
 2779 0705 6C0D0000 		.4byte	.LLST58
 2780 0709 1B       		.uleb128 0x1b
 2781 070a 4A000000 		.4byte	.LVL107
 2782 070e 4D030000 		.4byte	0x34d
 2783 0712 1A       		.uleb128 0x1a
 2784 0713 01       		.uleb128 0x1
 2785 0714 53       		.byte	0x53
 2786 0715 02       		.uleb128 0x2
ARM GAS  C:\Users\jo\AppData\Local\Temp\ccx91ntw.s 			page 50


 2787 0716 7B       		.byte	0x7b
 2788 0717 00       		.sleb128 0
 2789 0718 1A       		.uleb128 0x1a
 2790 0719 01       		.uleb128 0x1
 2791 071a 52       		.byte	0x52
 2792 071b 02       		.uleb128 0x2
 2793 071c 76       		.byte	0x76
 2794 071d 00       		.sleb128 0
 2795 071e 1A       		.uleb128 0x1a
 2796 071f 01       		.uleb128 0x1
 2797 0720 51       		.byte	0x51
 2798 0721 01       		.uleb128 0x1
 2799 0722 31       		.byte	0x31
 2800 0723 1A       		.uleb128 0x1a
 2801 0724 01       		.uleb128 0x1
 2802 0725 50       		.byte	0x50
 2803 0726 02       		.uleb128 0x2
 2804 0727 79       		.byte	0x79
 2805 0728 00       		.sleb128 0
 2806 0729 00       		.byte	0
 2807 072a 00       		.byte	0
 2808 072b 28       		.uleb128 0x28
 2809 072c 5000     		.ascii	"P\000"
 2810 072e 01       		.byte	0x1
 2811 072f 3F       		.byte	0x3f
 2812 0730 3A070000 		.4byte	0x73a
 2813 0734 05       		.uleb128 0x5
 2814 0735 03       		.byte	0x3
 2815 0736 00000000 		.4byte	P
 2816 073a 1C       		.uleb128 0x1c
 2817 073b BE000000 		.4byte	0xbe
 2818 073f 27       		.uleb128 0x27
 2819 0740 5300     		.ascii	"S\000"
 2820 0742 01       		.byte	0x1
 2821 0743 7401     		.2byte	0x174
 2822 0745 4F070000 		.4byte	0x74f
 2823 0749 05       		.uleb128 0x5
 2824 074a 03       		.byte	0x3
 2825 074b 00000000 		.4byte	S
 2826 074f 1C       		.uleb128 0x1c
 2827 0750 CE000000 		.4byte	0xce
 2828 0754 00       		.byte	0
 2829              		.section	.debug_abbrev,"",%progbits
 2830              	.Ldebug_abbrev0:
 2831 0000 01       		.uleb128 0x1
 2832 0001 11       		.uleb128 0x11
 2833 0002 01       		.byte	0x1
 2834 0003 25       		.uleb128 0x25
 2835 0004 0E       		.uleb128 0xe
 2836 0005 13       		.uleb128 0x13
 2837 0006 0B       		.uleb128 0xb
 2838 0007 03       		.uleb128 0x3
 2839 0008 0E       		.uleb128 0xe
 2840 0009 1B       		.uleb128 0x1b
 2841 000a 0E       		.uleb128 0xe
 2842 000b 55       		.uleb128 0x55
 2843 000c 17       		.uleb128 0x17
ARM GAS  C:\Users\jo\AppData\Local\Temp\ccx91ntw.s 			page 51


 2844 000d 11       		.uleb128 0x11
 2845 000e 01       		.uleb128 0x1
 2846 000f 10       		.uleb128 0x10
 2847 0010 17       		.uleb128 0x17
 2848 0011 00       		.byte	0
 2849 0012 00       		.byte	0
 2850 0013 02       		.uleb128 0x2
 2851 0014 24       		.uleb128 0x24
 2852 0015 00       		.byte	0
 2853 0016 0B       		.uleb128 0xb
 2854 0017 0B       		.uleb128 0xb
 2855 0018 3E       		.uleb128 0x3e
 2856 0019 0B       		.uleb128 0xb
 2857 001a 03       		.uleb128 0x3
 2858 001b 08       		.uleb128 0x8
 2859 001c 00       		.byte	0
 2860 001d 00       		.byte	0
 2861 001e 03       		.uleb128 0x3
 2862 001f 16       		.uleb128 0x16
 2863 0020 00       		.byte	0
 2864 0021 03       		.uleb128 0x3
 2865 0022 0E       		.uleb128 0xe
 2866 0023 3A       		.uleb128 0x3a
 2867 0024 0B       		.uleb128 0xb
 2868 0025 3B       		.uleb128 0x3b
 2869 0026 0B       		.uleb128 0xb
 2870 0027 49       		.uleb128 0x49
 2871 0028 13       		.uleb128 0x13
 2872 0029 00       		.byte	0
 2873 002a 00       		.byte	0
 2874 002b 04       		.uleb128 0x4
 2875 002c 24       		.uleb128 0x24
 2876 002d 00       		.byte	0
 2877 002e 0B       		.uleb128 0xb
 2878 002f 0B       		.uleb128 0xb
 2879 0030 3E       		.uleb128 0x3e
 2880 0031 0B       		.uleb128 0xb
 2881 0032 03       		.uleb128 0x3
 2882 0033 0E       		.uleb128 0xe
 2883 0034 00       		.byte	0
 2884 0035 00       		.byte	0
 2885 0036 05       		.uleb128 0x5
 2886 0037 0F       		.uleb128 0xf
 2887 0038 00       		.byte	0
 2888 0039 0B       		.uleb128 0xb
 2889 003a 0B       		.uleb128 0xb
 2890 003b 49       		.uleb128 0x49
 2891 003c 13       		.uleb128 0x13
 2892 003d 00       		.byte	0
 2893 003e 00       		.byte	0
 2894 003f 06       		.uleb128 0x6
 2895 0040 13       		.uleb128 0x13
 2896 0041 01       		.byte	0x1
 2897 0042 0B       		.uleb128 0xb
 2898 0043 05       		.uleb128 0x5
 2899 0044 3A       		.uleb128 0x3a
 2900 0045 0B       		.uleb128 0xb
ARM GAS  C:\Users\jo\AppData\Local\Temp\ccx91ntw.s 			page 52


 2901 0046 3B       		.uleb128 0x3b
 2902 0047 0B       		.uleb128 0xb
 2903 0048 01       		.uleb128 0x1
 2904 0049 13       		.uleb128 0x13
 2905 004a 00       		.byte	0
 2906 004b 00       		.byte	0
 2907 004c 07       		.uleb128 0x7
 2908 004d 0D       		.uleb128 0xd
 2909 004e 00       		.byte	0
 2910 004f 03       		.uleb128 0x3
 2911 0050 08       		.uleb128 0x8
 2912 0051 3A       		.uleb128 0x3a
 2913 0052 0B       		.uleb128 0xb
 2914 0053 3B       		.uleb128 0x3b
 2915 0054 0B       		.uleb128 0xb
 2916 0055 49       		.uleb128 0x49
 2917 0056 13       		.uleb128 0x13
 2918 0057 38       		.uleb128 0x38
 2919 0058 0B       		.uleb128 0xb
 2920 0059 00       		.byte	0
 2921 005a 00       		.byte	0
 2922 005b 08       		.uleb128 0x8
 2923 005c 01       		.uleb128 0x1
 2924 005d 01       		.byte	0x1
 2925 005e 49       		.uleb128 0x49
 2926 005f 13       		.uleb128 0x13
 2927 0060 01       		.uleb128 0x1
 2928 0061 13       		.uleb128 0x13
 2929 0062 00       		.byte	0
 2930 0063 00       		.byte	0
 2931 0064 09       		.uleb128 0x9
 2932 0065 21       		.uleb128 0x21
 2933 0066 00       		.byte	0
 2934 0067 49       		.uleb128 0x49
 2935 0068 13       		.uleb128 0x13
 2936 0069 2F       		.uleb128 0x2f
 2937 006a 0B       		.uleb128 0xb
 2938 006b 00       		.byte	0
 2939 006c 00       		.byte	0
 2940 006d 0A       		.uleb128 0xa
 2941 006e 2E       		.uleb128 0x2e
 2942 006f 01       		.byte	0x1
 2943 0070 03       		.uleb128 0x3
 2944 0071 08       		.uleb128 0x8
 2945 0072 3A       		.uleb128 0x3a
 2946 0073 0B       		.uleb128 0xb
 2947 0074 3B       		.uleb128 0x3b
 2948 0075 0B       		.uleb128 0xb
 2949 0076 27       		.uleb128 0x27
 2950 0077 19       		.uleb128 0x19
 2951 0078 49       		.uleb128 0x49
 2952 0079 13       		.uleb128 0x13
 2953 007a 20       		.uleb128 0x20
 2954 007b 0B       		.uleb128 0xb
 2955 007c 01       		.uleb128 0x1
 2956 007d 13       		.uleb128 0x13
 2957 007e 00       		.byte	0
ARM GAS  C:\Users\jo\AppData\Local\Temp\ccx91ntw.s 			page 53


 2958 007f 00       		.byte	0
 2959 0080 0B       		.uleb128 0xb
 2960 0081 05       		.uleb128 0x5
 2961 0082 00       		.byte	0
 2962 0083 03       		.uleb128 0x3
 2963 0084 08       		.uleb128 0x8
 2964 0085 3A       		.uleb128 0x3a
 2965 0086 0B       		.uleb128 0xb
 2966 0087 3B       		.uleb128 0x3b
 2967 0088 0B       		.uleb128 0xb
 2968 0089 49       		.uleb128 0x49
 2969 008a 13       		.uleb128 0x13
 2970 008b 00       		.byte	0
 2971 008c 00       		.byte	0
 2972 008d 0C       		.uleb128 0xc
 2973 008e 34       		.uleb128 0x34
 2974 008f 00       		.byte	0
 2975 0090 03       		.uleb128 0x3
 2976 0091 08       		.uleb128 0x8
 2977 0092 3A       		.uleb128 0x3a
 2978 0093 0B       		.uleb128 0xb
 2979 0094 3B       		.uleb128 0x3b
 2980 0095 0B       		.uleb128 0xb
 2981 0096 49       		.uleb128 0x49
 2982 0097 13       		.uleb128 0x13
 2983 0098 00       		.byte	0
 2984 0099 00       		.byte	0
 2985 009a 0D       		.uleb128 0xd
 2986 009b 2E       		.uleb128 0x2e
 2987 009c 01       		.byte	0x1
 2988 009d 03       		.uleb128 0x3
 2989 009e 0E       		.uleb128 0xe
 2990 009f 3A       		.uleb128 0x3a
 2991 00a0 0B       		.uleb128 0xb
 2992 00a1 3B       		.uleb128 0x3b
 2993 00a2 0B       		.uleb128 0xb
 2994 00a3 27       		.uleb128 0x27
 2995 00a4 19       		.uleb128 0x19
 2996 00a5 11       		.uleb128 0x11
 2997 00a6 01       		.uleb128 0x1
 2998 00a7 12       		.uleb128 0x12
 2999 00a8 06       		.uleb128 0x6
 3000 00a9 40       		.uleb128 0x40
 3001 00aa 18       		.uleb128 0x18
 3002 00ab 9742     		.uleb128 0x2117
 3003 00ad 19       		.uleb128 0x19
 3004 00ae 01       		.uleb128 0x1
 3005 00af 13       		.uleb128 0x13
 3006 00b0 00       		.byte	0
 3007 00b1 00       		.byte	0
 3008 00b2 0E       		.uleb128 0xe
 3009 00b3 05       		.uleb128 0x5
 3010 00b4 00       		.byte	0
 3011 00b5 03       		.uleb128 0x3
 3012 00b6 08       		.uleb128 0x8
 3013 00b7 3A       		.uleb128 0x3a
 3014 00b8 0B       		.uleb128 0xb
ARM GAS  C:\Users\jo\AppData\Local\Temp\ccx91ntw.s 			page 54


 3015 00b9 3B       		.uleb128 0x3b
 3016 00ba 0B       		.uleb128 0xb
 3017 00bb 49       		.uleb128 0x49
 3018 00bc 13       		.uleb128 0x13
 3019 00bd 02       		.uleb128 0x2
 3020 00be 17       		.uleb128 0x17
 3021 00bf 00       		.byte	0
 3022 00c0 00       		.byte	0
 3023 00c1 0F       		.uleb128 0xf
 3024 00c2 05       		.uleb128 0x5
 3025 00c3 00       		.byte	0
 3026 00c4 03       		.uleb128 0x3
 3027 00c5 08       		.uleb128 0x8
 3028 00c6 3A       		.uleb128 0x3a
 3029 00c7 0B       		.uleb128 0xb
 3030 00c8 3B       		.uleb128 0x3b
 3031 00c9 0B       		.uleb128 0xb
 3032 00ca 49       		.uleb128 0x49
 3033 00cb 13       		.uleb128 0x13
 3034 00cc 02       		.uleb128 0x2
 3035 00cd 18       		.uleb128 0x18
 3036 00ce 00       		.byte	0
 3037 00cf 00       		.byte	0
 3038 00d0 10       		.uleb128 0x10
 3039 00d1 34       		.uleb128 0x34
 3040 00d2 00       		.byte	0
 3041 00d3 03       		.uleb128 0x3
 3042 00d4 08       		.uleb128 0x8
 3043 00d5 3A       		.uleb128 0x3a
 3044 00d6 0B       		.uleb128 0xb
 3045 00d7 3B       		.uleb128 0x3b
 3046 00d8 0B       		.uleb128 0xb
 3047 00d9 49       		.uleb128 0x49
 3048 00da 13       		.uleb128 0x13
 3049 00db 02       		.uleb128 0x2
 3050 00dc 17       		.uleb128 0x17
 3051 00dd 00       		.byte	0
 3052 00de 00       		.byte	0
 3053 00df 11       		.uleb128 0x11
 3054 00e0 34       		.uleb128 0x34
 3055 00e1 00       		.byte	0
 3056 00e2 03       		.uleb128 0x3
 3057 00e3 0E       		.uleb128 0xe
 3058 00e4 3A       		.uleb128 0x3a
 3059 00e5 0B       		.uleb128 0xb
 3060 00e6 3B       		.uleb128 0x3b
 3061 00e7 0B       		.uleb128 0xb
 3062 00e8 49       		.uleb128 0x49
 3063 00e9 13       		.uleb128 0x13
 3064 00ea 02       		.uleb128 0x2
 3065 00eb 17       		.uleb128 0x17
 3066 00ec 00       		.byte	0
 3067 00ed 00       		.byte	0
 3068 00ee 12       		.uleb128 0x12
 3069 00ef 1D       		.uleb128 0x1d
 3070 00f0 01       		.byte	0x1
 3071 00f1 31       		.uleb128 0x31
ARM GAS  C:\Users\jo\AppData\Local\Temp\ccx91ntw.s 			page 55


 3072 00f2 13       		.uleb128 0x13
 3073 00f3 11       		.uleb128 0x11
 3074 00f4 01       		.uleb128 0x1
 3075 00f5 12       		.uleb128 0x12
 3076 00f6 06       		.uleb128 0x6
 3077 00f7 58       		.uleb128 0x58
 3078 00f8 0B       		.uleb128 0xb
 3079 00f9 59       		.uleb128 0x59
 3080 00fa 0B       		.uleb128 0xb
 3081 00fb 00       		.byte	0
 3082 00fc 00       		.byte	0
 3083 00fd 13       		.uleb128 0x13
 3084 00fe 05       		.uleb128 0x5
 3085 00ff 00       		.byte	0
 3086 0100 31       		.uleb128 0x31
 3087 0101 13       		.uleb128 0x13
 3088 0102 02       		.uleb128 0x2
 3089 0103 17       		.uleb128 0x17
 3090 0104 00       		.byte	0
 3091 0105 00       		.byte	0
 3092 0106 14       		.uleb128 0x14
 3093 0107 0B       		.uleb128 0xb
 3094 0108 01       		.byte	0x1
 3095 0109 11       		.uleb128 0x11
 3096 010a 01       		.uleb128 0x1
 3097 010b 12       		.uleb128 0x12
 3098 010c 06       		.uleb128 0x6
 3099 010d 00       		.byte	0
 3100 010e 00       		.byte	0
 3101 010f 15       		.uleb128 0x15
 3102 0110 34       		.uleb128 0x34
 3103 0111 00       		.byte	0
 3104 0112 31       		.uleb128 0x31
 3105 0113 13       		.uleb128 0x13
 3106 0114 02       		.uleb128 0x2
 3107 0115 17       		.uleb128 0x17
 3108 0116 00       		.byte	0
 3109 0117 00       		.byte	0
 3110 0118 16       		.uleb128 0x16
 3111 0119 2E       		.uleb128 0x2e
 3112 011a 01       		.byte	0x1
 3113 011b 3F       		.uleb128 0x3f
 3114 011c 19       		.uleb128 0x19
 3115 011d 03       		.uleb128 0x3
 3116 011e 0E       		.uleb128 0xe
 3117 011f 3A       		.uleb128 0x3a
 3118 0120 0B       		.uleb128 0xb
 3119 0121 3B       		.uleb128 0x3b
 3120 0122 0B       		.uleb128 0xb
 3121 0123 27       		.uleb128 0x27
 3122 0124 19       		.uleb128 0x19
 3123 0125 49       		.uleb128 0x49
 3124 0126 13       		.uleb128 0x13
 3125 0127 11       		.uleb128 0x11
 3126 0128 01       		.uleb128 0x1
 3127 0129 12       		.uleb128 0x12
 3128 012a 06       		.uleb128 0x6
ARM GAS  C:\Users\jo\AppData\Local\Temp\ccx91ntw.s 			page 56


 3129 012b 40       		.uleb128 0x40
 3130 012c 18       		.uleb128 0x18
 3131 012d 9742     		.uleb128 0x2117
 3132 012f 19       		.uleb128 0x19
 3133 0130 01       		.uleb128 0x1
 3134 0131 13       		.uleb128 0x13
 3135 0132 00       		.byte	0
 3136 0133 00       		.byte	0
 3137 0134 17       		.uleb128 0x17
 3138 0135 05       		.uleb128 0x5
 3139 0136 00       		.byte	0
 3140 0137 03       		.uleb128 0x3
 3141 0138 0E       		.uleb128 0xe
 3142 0139 3A       		.uleb128 0x3a
 3143 013a 0B       		.uleb128 0xb
 3144 013b 3B       		.uleb128 0x3b
 3145 013c 0B       		.uleb128 0xb
 3146 013d 49       		.uleb128 0x49
 3147 013e 13       		.uleb128 0x13
 3148 013f 02       		.uleb128 0x2
 3149 0140 17       		.uleb128 0x17
 3150 0141 00       		.byte	0
 3151 0142 00       		.byte	0
 3152 0143 18       		.uleb128 0x18
 3153 0144 34       		.uleb128 0x34
 3154 0145 00       		.byte	0
 3155 0146 03       		.uleb128 0x3
 3156 0147 0E       		.uleb128 0xe
 3157 0148 3A       		.uleb128 0x3a
 3158 0149 0B       		.uleb128 0xb
 3159 014a 3B       		.uleb128 0x3b
 3160 014b 0B       		.uleb128 0xb
 3161 014c 49       		.uleb128 0x49
 3162 014d 13       		.uleb128 0x13
 3163 014e 02       		.uleb128 0x2
 3164 014f 18       		.uleb128 0x18
 3165 0150 00       		.byte	0
 3166 0151 00       		.byte	0
 3167 0152 19       		.uleb128 0x19
 3168 0153 898201   		.uleb128 0x4109
 3169 0156 01       		.byte	0x1
 3170 0157 11       		.uleb128 0x11
 3171 0158 01       		.uleb128 0x1
 3172 0159 31       		.uleb128 0x31
 3173 015a 13       		.uleb128 0x13
 3174 015b 01       		.uleb128 0x1
 3175 015c 13       		.uleb128 0x13
 3176 015d 00       		.byte	0
 3177 015e 00       		.byte	0
 3178 015f 1A       		.uleb128 0x1a
 3179 0160 8A8201   		.uleb128 0x410a
 3180 0163 00       		.byte	0
 3181 0164 02       		.uleb128 0x2
 3182 0165 18       		.uleb128 0x18
 3183 0166 9142     		.uleb128 0x2111
 3184 0168 18       		.uleb128 0x18
 3185 0169 00       		.byte	0
ARM GAS  C:\Users\jo\AppData\Local\Temp\ccx91ntw.s 			page 57


 3186 016a 00       		.byte	0
 3187 016b 1B       		.uleb128 0x1b
 3188 016c 898201   		.uleb128 0x4109
 3189 016f 01       		.byte	0x1
 3190 0170 11       		.uleb128 0x11
 3191 0171 01       		.uleb128 0x1
 3192 0172 31       		.uleb128 0x31
 3193 0173 13       		.uleb128 0x13
 3194 0174 00       		.byte	0
 3195 0175 00       		.byte	0
 3196 0176 1C       		.uleb128 0x1c
 3197 0177 26       		.uleb128 0x26
 3198 0178 00       		.byte	0
 3199 0179 49       		.uleb128 0x49
 3200 017a 13       		.uleb128 0x13
 3201 017b 00       		.byte	0
 3202 017c 00       		.byte	0
 3203 017d 1D       		.uleb128 0x1d
 3204 017e 2E       		.uleb128 0x2e
 3205 017f 01       		.byte	0x1
 3206 0180 03       		.uleb128 0x3
 3207 0181 0E       		.uleb128 0xe
 3208 0182 3A       		.uleb128 0x3a
 3209 0183 0B       		.uleb128 0xb
 3210 0184 3B       		.uleb128 0x3b
 3211 0185 0B       		.uleb128 0xb
 3212 0186 27       		.uleb128 0x27
 3213 0187 19       		.uleb128 0x19
 3214 0188 20       		.uleb128 0x20
 3215 0189 0B       		.uleb128 0xb
 3216 018a 01       		.uleb128 0x1
 3217 018b 13       		.uleb128 0x13
 3218 018c 00       		.byte	0
 3219 018d 00       		.byte	0
 3220 018e 1E       		.uleb128 0x1e
 3221 018f 34       		.uleb128 0x34
 3222 0190 00       		.byte	0
 3223 0191 03       		.uleb128 0x3
 3224 0192 0E       		.uleb128 0xe
 3225 0193 3A       		.uleb128 0x3a
 3226 0194 0B       		.uleb128 0xb
 3227 0195 3B       		.uleb128 0x3b
 3228 0196 0B       		.uleb128 0xb
 3229 0197 49       		.uleb128 0x49
 3230 0198 13       		.uleb128 0x13
 3231 0199 00       		.byte	0
 3232 019a 00       		.byte	0
 3233 019b 1F       		.uleb128 0x1f
 3234 019c 1D       		.uleb128 0x1d
 3235 019d 01       		.byte	0x1
 3236 019e 31       		.uleb128 0x31
 3237 019f 13       		.uleb128 0x13
 3238 01a0 11       		.uleb128 0x11
 3239 01a1 01       		.uleb128 0x1
 3240 01a2 12       		.uleb128 0x12
 3241 01a3 06       		.uleb128 0x6
 3242 01a4 58       		.uleb128 0x58
ARM GAS  C:\Users\jo\AppData\Local\Temp\ccx91ntw.s 			page 58


 3243 01a5 0B       		.uleb128 0xb
 3244 01a6 59       		.uleb128 0x59
 3245 01a7 0B       		.uleb128 0xb
 3246 01a8 01       		.uleb128 0x1
 3247 01a9 13       		.uleb128 0x13
 3248 01aa 00       		.byte	0
 3249 01ab 00       		.byte	0
 3250 01ac 20       		.uleb128 0x20
 3251 01ad 05       		.uleb128 0x5
 3252 01ae 00       		.byte	0
 3253 01af 31       		.uleb128 0x31
 3254 01b0 13       		.uleb128 0x13
 3255 01b1 00       		.byte	0
 3256 01b2 00       		.byte	0
 3257 01b3 21       		.uleb128 0x21
 3258 01b4 34       		.uleb128 0x34
 3259 01b5 00       		.byte	0
 3260 01b6 31       		.uleb128 0x31
 3261 01b7 13       		.uleb128 0x13
 3262 01b8 00       		.byte	0
 3263 01b9 00       		.byte	0
 3264 01ba 22       		.uleb128 0x22
 3265 01bb 05       		.uleb128 0x5
 3266 01bc 00       		.byte	0
 3267 01bd 31       		.uleb128 0x31
 3268 01be 13       		.uleb128 0x13
 3269 01bf 02       		.uleb128 0x2
 3270 01c0 18       		.uleb128 0x18
 3271 01c1 00       		.byte	0
 3272 01c2 00       		.byte	0
 3273 01c3 23       		.uleb128 0x23
 3274 01c4 2E       		.uleb128 0x2e
 3275 01c5 01       		.byte	0x1
 3276 01c6 3F       		.uleb128 0x3f
 3277 01c7 19       		.uleb128 0x19
 3278 01c8 03       		.uleb128 0x3
 3279 01c9 0E       		.uleb128 0xe
 3280 01ca 3A       		.uleb128 0x3a
 3281 01cb 0B       		.uleb128 0xb
 3282 01cc 3B       		.uleb128 0x3b
 3283 01cd 05       		.uleb128 0x5
 3284 01ce 27       		.uleb128 0x27
 3285 01cf 19       		.uleb128 0x19
 3286 01d0 49       		.uleb128 0x49
 3287 01d1 13       		.uleb128 0x13
 3288 01d2 11       		.uleb128 0x11
 3289 01d3 01       		.uleb128 0x1
 3290 01d4 12       		.uleb128 0x12
 3291 01d5 06       		.uleb128 0x6
 3292 01d6 40       		.uleb128 0x40
 3293 01d7 18       		.uleb128 0x18
 3294 01d8 9742     		.uleb128 0x2117
 3295 01da 19       		.uleb128 0x19
 3296 01db 01       		.uleb128 0x1
 3297 01dc 13       		.uleb128 0x13
 3298 01dd 00       		.byte	0
 3299 01de 00       		.byte	0
ARM GAS  C:\Users\jo\AppData\Local\Temp\ccx91ntw.s 			page 59


 3300 01df 24       		.uleb128 0x24
 3301 01e0 05       		.uleb128 0x5
 3302 01e1 00       		.byte	0
 3303 01e2 03       		.uleb128 0x3
 3304 01e3 08       		.uleb128 0x8
 3305 01e4 3A       		.uleb128 0x3a
 3306 01e5 0B       		.uleb128 0xb
 3307 01e6 3B       		.uleb128 0x3b
 3308 01e7 05       		.uleb128 0x5
 3309 01e8 49       		.uleb128 0x49
 3310 01e9 13       		.uleb128 0x13
 3311 01ea 02       		.uleb128 0x2
 3312 01eb 17       		.uleb128 0x17
 3313 01ec 00       		.byte	0
 3314 01ed 00       		.byte	0
 3315 01ee 25       		.uleb128 0x25
 3316 01ef 05       		.uleb128 0x5
 3317 01f0 00       		.byte	0
 3318 01f1 03       		.uleb128 0x3
 3319 01f2 0E       		.uleb128 0xe
 3320 01f3 3A       		.uleb128 0x3a
 3321 01f4 0B       		.uleb128 0xb
 3322 01f5 3B       		.uleb128 0x3b
 3323 01f6 05       		.uleb128 0x5
 3324 01f7 49       		.uleb128 0x49
 3325 01f8 13       		.uleb128 0x13
 3326 01f9 02       		.uleb128 0x2
 3327 01fa 17       		.uleb128 0x17
 3328 01fb 00       		.byte	0
 3329 01fc 00       		.byte	0
 3330 01fd 26       		.uleb128 0x26
 3331 01fe 34       		.uleb128 0x34
 3332 01ff 00       		.byte	0
 3333 0200 03       		.uleb128 0x3
 3334 0201 08       		.uleb128 0x8
 3335 0202 3A       		.uleb128 0x3a
 3336 0203 0B       		.uleb128 0xb
 3337 0204 3B       		.uleb128 0x3b
 3338 0205 05       		.uleb128 0x5
 3339 0206 49       		.uleb128 0x49
 3340 0207 13       		.uleb128 0x13
 3341 0208 02       		.uleb128 0x2
 3342 0209 17       		.uleb128 0x17
 3343 020a 00       		.byte	0
 3344 020b 00       		.byte	0
 3345 020c 27       		.uleb128 0x27
 3346 020d 34       		.uleb128 0x34
 3347 020e 00       		.byte	0
 3348 020f 03       		.uleb128 0x3
 3349 0210 08       		.uleb128 0x8
 3350 0211 3A       		.uleb128 0x3a
 3351 0212 0B       		.uleb128 0xb
 3352 0213 3B       		.uleb128 0x3b
 3353 0214 05       		.uleb128 0x5
 3354 0215 49       		.uleb128 0x49
 3355 0216 13       		.uleb128 0x13
 3356 0217 02       		.uleb128 0x2
ARM GAS  C:\Users\jo\AppData\Local\Temp\ccx91ntw.s 			page 60


 3357 0218 18       		.uleb128 0x18
 3358 0219 00       		.byte	0
 3359 021a 00       		.byte	0
 3360 021b 28       		.uleb128 0x28
 3361 021c 34       		.uleb128 0x34
 3362 021d 00       		.byte	0
 3363 021e 03       		.uleb128 0x3
 3364 021f 08       		.uleb128 0x8
 3365 0220 3A       		.uleb128 0x3a
 3366 0221 0B       		.uleb128 0xb
 3367 0222 3B       		.uleb128 0x3b
 3368 0223 0B       		.uleb128 0xb
 3369 0224 49       		.uleb128 0x49
 3370 0225 13       		.uleb128 0x13
 3371 0226 02       		.uleb128 0x2
 3372 0227 18       		.uleb128 0x18
 3373 0228 00       		.byte	0
 3374 0229 00       		.byte	0
 3375 022a 00       		.byte	0
 3376              		.section	.debug_loc,"",%progbits
 3377              	.Ldebug_loc0:
 3378              	.LLST0:
 3379 0000 00000000 		.4byte	.LVL0
 3380 0004 5A000000 		.4byte	.LVL15
 3381 0008 0100     		.2byte	0x1
 3382 000a 50       		.byte	0x50
 3383 000b 5A000000 		.4byte	.LVL15
 3384 000f 62000000 		.4byte	.LFE1
 3385 0013 0300     		.2byte	0x3
 3386 0015 7C       		.byte	0x7c
 3387 0016 44       		.sleb128 -60
 3388 0017 9F       		.byte	0x9f
 3389 0018 00000000 		.4byte	0
 3390 001c 00000000 		.4byte	0
 3391              	.LLST1:
 3392 0020 06000000 		.4byte	.LVL1
 3393 0024 16000000 		.4byte	.LVL4
 3394 0028 0100     		.2byte	0x1
 3395 002a 54       		.byte	0x54
 3396 002b 16000000 		.4byte	.LVL4
 3397 002f 4C000000 		.4byte	.LVL11
 3398 0033 0100     		.2byte	0x1
 3399 0035 53       		.byte	0x53
 3400 0036 4C000000 		.4byte	.LVL11
 3401 003a 50000000 		.4byte	.LVL12
 3402 003e 0100     		.2byte	0x1
 3403 0040 54       		.byte	0x54
 3404 0041 50000000 		.4byte	.LVL12
 3405 0045 52000000 		.4byte	.LVL13
 3406 0049 0100     		.2byte	0x1
 3407 004b 53       		.byte	0x53
 3408 004c 52000000 		.4byte	.LVL13
 3409 0050 56000000 		.4byte	.LVL14
 3410 0054 0100     		.2byte	0x1
 3411 0056 5E       		.byte	0x5e
 3412 0057 56000000 		.4byte	.LVL14
 3413 005b 5A000000 		.4byte	.LVL15
ARM GAS  C:\Users\jo\AppData\Local\Temp\ccx91ntw.s 			page 61


 3414 005f 0800     		.2byte	0x8
 3415 0061 7E       		.byte	0x7e
 3416 0062 00       		.sleb128 0
 3417 0063 70       		.byte	0x70
 3418 0064 C400     		.sleb128 68
 3419 0066 06       		.byte	0x6
 3420 0067 27       		.byte	0x27
 3421 0068 9F       		.byte	0x9f
 3422 0069 5A000000 		.4byte	.LVL15
 3423 006d 5C000000 		.4byte	.LVL16
 3424 0071 0700     		.2byte	0x7
 3425 0073 7E       		.byte	0x7e
 3426 0074 00       		.sleb128 0
 3427 0075 7C       		.byte	0x7c
 3428 0076 08       		.sleb128 8
 3429 0077 06       		.byte	0x6
 3430 0078 27       		.byte	0x27
 3431 0079 9F       		.byte	0x9f
 3432 007a 00000000 		.4byte	0
 3433 007e 00000000 		.4byte	0
 3434              	.LLST2:
 3435 0082 0A000000 		.4byte	.LVL2
 3436 0086 4C000000 		.4byte	.LVL11
 3437 008a 0100     		.2byte	0x1
 3438 008c 5E       		.byte	0x5e
 3439 008d 4C000000 		.4byte	.LVL11
 3440 0091 50000000 		.4byte	.LVL12
 3441 0095 0100     		.2byte	0x1
 3442 0097 53       		.byte	0x53
 3443 0098 50000000 		.4byte	.LVL12
 3444 009c 62000000 		.4byte	.LFE1
 3445 00a0 0100     		.2byte	0x1
 3446 00a2 54       		.byte	0x54
 3447 00a3 00000000 		.4byte	0
 3448 00a7 00000000 		.4byte	0
 3449              	.LLST3:
 3450 00ab 4C000000 		.4byte	.LVL11
 3451 00af 50000000 		.4byte	.LVL12
 3452 00b3 0100     		.2byte	0x1
 3453 00b5 53       		.byte	0x53
 3454 00b6 50000000 		.4byte	.LVL12
 3455 00ba 56000000 		.4byte	.LVL14
 3456 00be 0100     		.2byte	0x1
 3457 00c0 54       		.byte	0x54
 3458 00c1 00000000 		.4byte	0
 3459 00c5 00000000 		.4byte	0
 3460              	.LLST4:
 3461 00c9 0A000000 		.4byte	.LVL2
 3462 00cd 10000000 		.4byte	.LVL3
 3463 00d1 0200     		.2byte	0x2
 3464 00d3 30       		.byte	0x30
 3465 00d4 9F       		.byte	0x9f
 3466 00d5 00000000 		.4byte	0
 3467 00d9 00000000 		.4byte	0
 3468              	.LLST5:
 3469 00dd 16000000 		.4byte	.LVL4
 3470 00e1 18000000 		.4byte	.LVL5
ARM GAS  C:\Users\jo\AppData\Local\Temp\ccx91ntw.s 			page 62


 3471 00e5 0500     		.2byte	0x5
 3472 00e7 73       		.byte	0x73
 3473 00e8 00       		.sleb128 0
 3474 00e9 40       		.byte	0x40
 3475 00ea 25       		.byte	0x25
 3476 00eb 9F       		.byte	0x9f
 3477 00ec 18000000 		.4byte	.LVL5
 3478 00f0 1E000000 		.4byte	.LVL6
 3479 00f4 0100     		.2byte	0x1
 3480 00f6 54       		.byte	0x54
 3481 00f7 1E000000 		.4byte	.LVL6
 3482 00fb 30000000 		.4byte	.LVL7
 3483 00ff 0300     		.2byte	0x3
 3484 0101 74       		.byte	0x74
 3485 0102 6E       		.sleb128 -18
 3486 0103 9F       		.byte	0x9f
 3487 0104 30000000 		.4byte	.LVL7
 3488 0108 52000000 		.4byte	.LVL13
 3489 010c 0500     		.2byte	0x5
 3490 010e 73       		.byte	0x73
 3491 010f 00       		.sleb128 0
 3492 0110 48       		.byte	0x48
 3493 0111 25       		.byte	0x25
 3494 0112 9F       		.byte	0x9f
 3495 0113 52000000 		.4byte	.LVL13
 3496 0117 62000000 		.4byte	.LFE1
 3497 011b 0500     		.2byte	0x5
 3498 011d 7E       		.byte	0x7e
 3499 011e 00       		.sleb128 0
 3500 011f 48       		.byte	0x48
 3501 0120 25       		.byte	0x25
 3502 0121 9F       		.byte	0x9f
 3503 0122 00000000 		.4byte	0
 3504 0126 00000000 		.4byte	0
 3505              	.LLST6:
 3506 012a 16000000 		.4byte	.LVL4
 3507 012e 5A000000 		.4byte	.LVL15
 3508 0132 0100     		.2byte	0x1
 3509 0134 50       		.byte	0x50
 3510 0135 5A000000 		.4byte	.LVL15
 3511 0139 62000000 		.4byte	.LFE1
 3512 013d 0300     		.2byte	0x3
 3513 013f 7C       		.byte	0x7c
 3514 0140 44       		.sleb128 -60
 3515 0141 9F       		.byte	0x9f
 3516 0142 00000000 		.4byte	0
 3517 0146 00000000 		.4byte	0
 3518              	.LLST7:
 3519 014a 18000000 		.4byte	.LVL5
 3520 014e 1E000000 		.4byte	.LVL6
 3521 0152 0100     		.2byte	0x1
 3522 0154 54       		.byte	0x54
 3523 0155 1E000000 		.4byte	.LVL6
 3524 0159 30000000 		.4byte	.LVL7
 3525 015d 0300     		.2byte	0x3
 3526 015f 74       		.byte	0x74
 3527 0160 6E       		.sleb128 -18
ARM GAS  C:\Users\jo\AppData\Local\Temp\ccx91ntw.s 			page 63


 3528 0161 9F       		.byte	0x9f
 3529 0162 30000000 		.4byte	.LVL7
 3530 0166 52000000 		.4byte	.LVL13
 3531 016a 0500     		.2byte	0x5
 3532 016c 73       		.byte	0x73
 3533 016d 00       		.sleb128 0
 3534 016e 48       		.byte	0x48
 3535 016f 25       		.byte	0x25
 3536 0170 9F       		.byte	0x9f
 3537 0171 52000000 		.4byte	.LVL13
 3538 0175 62000000 		.4byte	.LFE1
 3539 0179 0500     		.2byte	0x5
 3540 017b 7E       		.byte	0x7e
 3541 017c 00       		.sleb128 0
 3542 017d 48       		.byte	0x48
 3543 017e 25       		.byte	0x25
 3544 017f 9F       		.byte	0x9f
 3545 0180 00000000 		.4byte	0
 3546 0184 00000000 		.4byte	0
 3547              	.LLST8:
 3548 0188 16000000 		.4byte	.LVL4
 3549 018c 52000000 		.4byte	.LVL13
 3550 0190 0800     		.2byte	0x8
 3551 0192 73       		.byte	0x73
 3552 0193 00       		.sleb128 0
 3553 0194 40       		.byte	0x40
 3554 0195 25       		.byte	0x25
 3555 0196 08       		.byte	0x8
 3556 0197 FF       		.byte	0xff
 3557 0198 1A       		.byte	0x1a
 3558 0199 9F       		.byte	0x9f
 3559 019a 52000000 		.4byte	.LVL13
 3560 019e 62000000 		.4byte	.LFE1
 3561 01a2 0800     		.2byte	0x8
 3562 01a4 7E       		.byte	0x7e
 3563 01a5 00       		.sleb128 0
 3564 01a6 40       		.byte	0x40
 3565 01a7 25       		.byte	0x25
 3566 01a8 08       		.byte	0x8
 3567 01a9 FF       		.byte	0xff
 3568 01aa 1A       		.byte	0x1a
 3569 01ab 9F       		.byte	0x9f
 3570 01ac 00000000 		.4byte	0
 3571 01b0 00000000 		.4byte	0
 3572              	.LLST9:
 3573 01b4 16000000 		.4byte	.LVL4
 3574 01b8 52000000 		.4byte	.LVL13
 3575 01bc 0800     		.2byte	0x8
 3576 01be 73       		.byte	0x73
 3577 01bf 00       		.sleb128 0
 3578 01c0 38       		.byte	0x38
 3579 01c1 25       		.byte	0x25
 3580 01c2 08       		.byte	0x8
 3581 01c3 FF       		.byte	0xff
 3582 01c4 1A       		.byte	0x1a
 3583 01c5 9F       		.byte	0x9f
 3584 01c6 52000000 		.4byte	.LVL13
ARM GAS  C:\Users\jo\AppData\Local\Temp\ccx91ntw.s 			page 64


 3585 01ca 62000000 		.4byte	.LFE1
 3586 01ce 0800     		.2byte	0x8
 3587 01d0 7E       		.byte	0x7e
 3588 01d1 00       		.sleb128 0
 3589 01d2 38       		.byte	0x38
 3590 01d3 25       		.byte	0x25
 3591 01d4 08       		.byte	0x8
 3592 01d5 FF       		.byte	0xff
 3593 01d6 1A       		.byte	0x1a
 3594 01d7 9F       		.byte	0x9f
 3595 01d8 00000000 		.4byte	0
 3596 01dc 00000000 		.4byte	0
 3597              	.LLST10:
 3598 01e0 16000000 		.4byte	.LVL4
 3599 01e4 52000000 		.4byte	.LVL13
 3600 01e8 0600     		.2byte	0x6
 3601 01ea 73       		.byte	0x73
 3602 01eb 00       		.sleb128 0
 3603 01ec 08       		.byte	0x8
 3604 01ed FF       		.byte	0xff
 3605 01ee 1A       		.byte	0x1a
 3606 01ef 9F       		.byte	0x9f
 3607 01f0 52000000 		.4byte	.LVL13
 3608 01f4 62000000 		.4byte	.LFE1
 3609 01f8 0600     		.2byte	0x6
 3610 01fa 7E       		.byte	0x7e
 3611 01fb 00       		.sleb128 0
 3612 01fc 08       		.byte	0x8
 3613 01fd FF       		.byte	0xff
 3614 01fe 1A       		.byte	0x1a
 3615 01ff 9F       		.byte	0x9f
 3616 0200 00000000 		.4byte	0
 3617 0204 00000000 		.4byte	0
 3618              	.LLST11:
 3619 0208 3E000000 		.4byte	.LVL8
 3620 020c 44000000 		.4byte	.LVL9
 3621 0210 0100     		.2byte	0x1
 3622 0212 54       		.byte	0x54
 3623 0213 44000000 		.4byte	.LVL9
 3624 0217 46000000 		.4byte	.LVL10
 3625 021b 1600     		.2byte	0x16
 3626 021d 74       		.byte	0x74
 3627 021e 00       		.sleb128 0
 3628 021f 73       		.byte	0x73
 3629 0220 00       		.sleb128 0
 3630 0221 08       		.byte	0x8
 3631 0222 FF       		.byte	0xff
 3632 0223 1A       		.byte	0x1a
 3633 0224 0A       		.byte	0xa
 3634 0225 FFFF     		.2byte	0xffff
 3635 0227 1A       		.byte	0x1a
 3636 0228 23       		.byte	0x23
 3637 0229 9206     		.uleb128 0x312
 3638 022b 32       		.byte	0x32
 3639 022c 24       		.byte	0x24
 3640 022d 70       		.byte	0x70
 3641 022e 00       		.sleb128 0
ARM GAS  C:\Users\jo\AppData\Local\Temp\ccx91ntw.s 			page 65


 3642 022f 22       		.byte	0x22
 3643 0230 06       		.byte	0x6
 3644 0231 22       		.byte	0x22
 3645 0232 9F       		.byte	0x9f
 3646 0233 46000000 		.4byte	.LVL10
 3647 0237 52000000 		.4byte	.LVL13
 3648 023b 2600     		.2byte	0x26
 3649 023d 73       		.byte	0x73
 3650 023e 00       		.sleb128 0
 3651 023f 48       		.byte	0x48
 3652 0240 25       		.byte	0x25
 3653 0241 23       		.byte	0x23
 3654 0242 12       		.uleb128 0x12
 3655 0243 32       		.byte	0x32
 3656 0244 24       		.byte	0x24
 3657 0245 70       		.byte	0x70
 3658 0246 00       		.sleb128 0
 3659 0247 22       		.byte	0x22
 3660 0248 06       		.byte	0x6
 3661 0249 78       		.byte	0x78
 3662 024a 00       		.sleb128 0
 3663 024b 22       		.byte	0x22
 3664 024c 76       		.byte	0x76
 3665 024d 00       		.sleb128 0
 3666 024e 27       		.byte	0x27
 3667 024f 73       		.byte	0x73
 3668 0250 00       		.sleb128 0
 3669 0251 08       		.byte	0x8
 3670 0252 FF       		.byte	0xff
 3671 0253 1A       		.byte	0x1a
 3672 0254 0A       		.byte	0xa
 3673 0255 FFFF     		.2byte	0xffff
 3674 0257 1A       		.byte	0x1a
 3675 0258 23       		.byte	0x23
 3676 0259 9206     		.uleb128 0x312
 3677 025b 32       		.byte	0x32
 3678 025c 24       		.byte	0x24
 3679 025d 70       		.byte	0x70
 3680 025e 00       		.sleb128 0
 3681 025f 22       		.byte	0x22
 3682 0260 06       		.byte	0x6
 3683 0261 22       		.byte	0x22
 3684 0262 9F       		.byte	0x9f
 3685 0263 52000000 		.4byte	.LVL13
 3686 0267 5A000000 		.4byte	.LVL15
 3687 026b 2600     		.2byte	0x26
 3688 026d 7E       		.byte	0x7e
 3689 026e 00       		.sleb128 0
 3690 026f 48       		.byte	0x48
 3691 0270 25       		.byte	0x25
 3692 0271 23       		.byte	0x23
 3693 0272 12       		.uleb128 0x12
 3694 0273 32       		.byte	0x32
 3695 0274 24       		.byte	0x24
 3696 0275 70       		.byte	0x70
 3697 0276 00       		.sleb128 0
 3698 0277 22       		.byte	0x22
ARM GAS  C:\Users\jo\AppData\Local\Temp\ccx91ntw.s 			page 66


 3699 0278 06       		.byte	0x6
 3700 0279 78       		.byte	0x78
 3701 027a 00       		.sleb128 0
 3702 027b 22       		.byte	0x22
 3703 027c 76       		.byte	0x76
 3704 027d 00       		.sleb128 0
 3705 027e 27       		.byte	0x27
 3706 027f 7E       		.byte	0x7e
 3707 0280 00       		.sleb128 0
 3708 0281 08       		.byte	0x8
 3709 0282 FF       		.byte	0xff
 3710 0283 1A       		.byte	0x1a
 3711 0284 0A       		.byte	0xa
 3712 0285 FFFF     		.2byte	0xffff
 3713 0287 1A       		.byte	0x1a
 3714 0288 23       		.byte	0x23
 3715 0289 9206     		.uleb128 0x312
 3716 028b 32       		.byte	0x32
 3717 028c 24       		.byte	0x24
 3718 028d 70       		.byte	0x70
 3719 028e 00       		.sleb128 0
 3720 028f 22       		.byte	0x22
 3721 0290 06       		.byte	0x6
 3722 0291 22       		.byte	0x22
 3723 0292 9F       		.byte	0x9f
 3724 0293 5A000000 		.4byte	.LVL15
 3725 0297 5C000000 		.4byte	.LVL16
 3726 029b 2C00     		.2byte	0x2c
 3727 029d 7E       		.byte	0x7e
 3728 029e 00       		.sleb128 0
 3729 029f 48       		.byte	0x48
 3730 02a0 25       		.byte	0x25
 3731 02a1 23       		.byte	0x23
 3732 02a2 12       		.uleb128 0x12
 3733 02a3 32       		.byte	0x32
 3734 02a4 24       		.byte	0x24
 3735 02a5 7C       		.byte	0x7c
 3736 02a6 00       		.sleb128 0
 3737 02a7 22       		.byte	0x22
 3738 02a8 08       		.byte	0x8
 3739 02a9 3C       		.byte	0x3c
 3740 02aa 1C       		.byte	0x1c
 3741 02ab 06       		.byte	0x6
 3742 02ac 78       		.byte	0x78
 3743 02ad 00       		.sleb128 0
 3744 02ae 22       		.byte	0x22
 3745 02af 76       		.byte	0x76
 3746 02b0 00       		.sleb128 0
 3747 02b1 27       		.byte	0x27
 3748 02b2 7E       		.byte	0x7e
 3749 02b3 00       		.sleb128 0
 3750 02b4 08       		.byte	0x8
 3751 02b5 FF       		.byte	0xff
 3752 02b6 1A       		.byte	0x1a
 3753 02b7 0A       		.byte	0xa
 3754 02b8 FFFF     		.2byte	0xffff
 3755 02ba 1A       		.byte	0x1a
ARM GAS  C:\Users\jo\AppData\Local\Temp\ccx91ntw.s 			page 67


 3756 02bb 23       		.byte	0x23
 3757 02bc 9206     		.uleb128 0x312
 3758 02be 32       		.byte	0x32
 3759 02bf 24       		.byte	0x24
 3760 02c0 7C       		.byte	0x7c
 3761 02c1 00       		.sleb128 0
 3762 02c2 22       		.byte	0x22
 3763 02c3 08       		.byte	0x8
 3764 02c4 3C       		.byte	0x3c
 3765 02c5 1C       		.byte	0x1c
 3766 02c6 06       		.byte	0x6
 3767 02c7 22       		.byte	0x22
 3768 02c8 9F       		.byte	0x9f
 3769 02c9 00000000 		.4byte	0
 3770 02cd 00000000 		.4byte	0
 3771              	.LLST12:
 3772 02d1 00000000 		.4byte	.LVL17
 3773 02d5 7A000000 		.4byte	.LVL29
 3774 02d9 0100     		.2byte	0x1
 3775 02db 50       		.byte	0x50
 3776 02dc 7A000000 		.4byte	.LVL29
 3777 02e0 96000000 		.4byte	.LVL31
 3778 02e4 0100     		.2byte	0x1
 3779 02e6 54       		.byte	0x54
 3780 02e7 96000000 		.4byte	.LVL31
 3781 02eb BC000000 		.4byte	.LVL34
 3782 02ef 0100     		.2byte	0x1
 3783 02f1 55       		.byte	0x55
 3784 02f2 BC000000 		.4byte	.LVL34
 3785 02f6 C0000000 		.4byte	.LVL35
 3786 02fa 0100     		.2byte	0x1
 3787 02fc 50       		.byte	0x50
 3788 02fd C0000000 		.4byte	.LVL35
 3789 0301 CC000000 		.4byte	.LFE3
 3790 0305 0400     		.2byte	0x4
 3791 0307 F3       		.byte	0xf3
 3792 0308 01       		.uleb128 0x1
 3793 0309 50       		.byte	0x50
 3794 030a 9F       		.byte	0x9f
 3795 030b 00000000 		.4byte	0
 3796 030f 00000000 		.4byte	0
 3797              	.LLST13:
 3798 0313 00000000 		.4byte	.LVL17
 3799 0317 7A000000 		.4byte	.LVL29
 3800 031b 0100     		.2byte	0x1
 3801 031d 51       		.byte	0x51
 3802 031e 7A000000 		.4byte	.LVL29
 3803 0322 BC000000 		.4byte	.LVL34
 3804 0326 0400     		.2byte	0x4
 3805 0328 F3       		.byte	0xf3
 3806 0329 01       		.uleb128 0x1
 3807 032a 51       		.byte	0x51
 3808 032b 9F       		.byte	0x9f
 3809 032c BC000000 		.4byte	.LVL34
 3810 0330 CC000000 		.4byte	.LFE3
 3811 0334 0100     		.2byte	0x1
 3812 0336 51       		.byte	0x51
ARM GAS  C:\Users\jo\AppData\Local\Temp\ccx91ntw.s 			page 68


 3813 0337 00000000 		.4byte	0
 3814 033b 00000000 		.4byte	0
 3815              	.LLST14:
 3816 033f 00000000 		.4byte	.LVL17
 3817 0343 1A000000 		.4byte	.LVL18
 3818 0347 0100     		.2byte	0x1
 3819 0349 52       		.byte	0x52
 3820 034a 1A000000 		.4byte	.LVL18
 3821 034e 7A000000 		.4byte	.LVL29
 3822 0352 0100     		.2byte	0x1
 3823 0354 56       		.byte	0x56
 3824 0355 7A000000 		.4byte	.LVL29
 3825 0359 BC000000 		.4byte	.LVL34
 3826 035d 0600     		.2byte	0x6
 3827 035f F3       		.byte	0xf3
 3828 0360 01       		.uleb128 0x1
 3829 0361 52       		.byte	0x52
 3830 0362 33       		.byte	0x33
 3831 0363 25       		.byte	0x25
 3832 0364 9F       		.byte	0x9f
 3833 0365 BC000000 		.4byte	.LVL34
 3834 0369 CC000000 		.4byte	.LFE3
 3835 036d 0100     		.2byte	0x1
 3836 036f 52       		.byte	0x52
 3837 0370 00000000 		.4byte	0
 3838 0374 00000000 		.4byte	0
 3839              	.LLST15:
 3840 0378 1A000000 		.4byte	.LVL18
 3841 037c 22000000 		.4byte	.LVL19
 3842 0380 0200     		.2byte	0x2
 3843 0382 30       		.byte	0x30
 3844 0383 9F       		.byte	0x9f
 3845 0384 72000000 		.4byte	.LVL28
 3846 0388 7A000000 		.4byte	.LVL29
 3847 038c 0200     		.2byte	0x2
 3848 038e 30       		.byte	0x30
 3849 038f 9F       		.byte	0x9f
 3850 0390 00000000 		.4byte	0
 3851 0394 00000000 		.4byte	0
 3852              	.LLST16:
 3853 0398 22000000 		.4byte	.LVL19
 3854 039c 28000000 		.4byte	.LVL20
 3855 03a0 0200     		.2byte	0x2
 3856 03a2 30       		.byte	0x30
 3857 03a3 9F       		.byte	0x9f
 3858 03a4 48000000 		.4byte	.LVL21
 3859 03a8 56000000 		.4byte	.LVL24
 3860 03ac 0100     		.2byte	0x1
 3861 03ae 53       		.byte	0x53
 3862 03af 5C000000 		.4byte	.LVL26
 3863 03b3 7A000000 		.4byte	.LVL29
 3864 03b7 0100     		.2byte	0x1
 3865 03b9 53       		.byte	0x53
 3866 03ba 96000000 		.4byte	.LVL31
 3867 03be 9A000000 		.4byte	.LVL32
 3868 03c2 0200     		.2byte	0x2
 3869 03c4 30       		.byte	0x30
ARM GAS  C:\Users\jo\AppData\Local\Temp\ccx91ntw.s 			page 69


 3870 03c5 9F       		.byte	0x9f
 3871 03c6 00000000 		.4byte	0
 3872 03ca 00000000 		.4byte	0
 3873              	.LLST17:
 3874 03ce 48000000 		.4byte	.LVL21
 3875 03d2 4C000000 		.4byte	.LVL22
 3876 03d6 0200     		.2byte	0x2
 3877 03d8 30       		.byte	0x30
 3878 03d9 9F       		.byte	0x9f
 3879 03da 4C000000 		.4byte	.LVL22
 3880 03de 58000000 		.4byte	.LVL25
 3881 03e2 0500     		.2byte	0x5
 3882 03e4 34       		.byte	0x34
 3883 03e5 72       		.byte	0x72
 3884 03e6 00       		.sleb128 0
 3885 03e7 1C       		.byte	0x1c
 3886 03e8 9F       		.byte	0x9f
 3887 03e9 58000000 		.4byte	.LVL25
 3888 03ed 5C000000 		.4byte	.LVL26
 3889 03f1 0500     		.2byte	0x5
 3890 03f3 33       		.byte	0x33
 3891 03f4 72       		.byte	0x72
 3892 03f5 00       		.sleb128 0
 3893 03f6 1C       		.byte	0x1c
 3894 03f7 9F       		.byte	0x9f
 3895 03f8 00000000 		.4byte	0
 3896 03fc 00000000 		.4byte	0
 3897              	.LLST18:
 3898 0400 48000000 		.4byte	.LVL21
 3899 0404 4C000000 		.4byte	.LVL22
 3900 0408 0200     		.2byte	0x2
 3901 040a 30       		.byte	0x30
 3902 040b 9F       		.byte	0x9f
 3903 040c 4C000000 		.4byte	.LVL22
 3904 0410 64000000 		.4byte	.LVL27
 3905 0414 0100     		.2byte	0x1
 3906 0416 54       		.byte	0x54
 3907 0417 00000000 		.4byte	0
 3908 041b 00000000 		.4byte	0
 3909              	.LLST19:
 3910 041f 00000000 		.4byte	.LVL36
 3911 0423 4B000000 		.4byte	.LVL40-1
 3912 0427 0100     		.2byte	0x1
 3913 0429 50       		.byte	0x50
 3914 042a 4B000000 		.4byte	.LVL40-1
 3915 042e 74000000 		.4byte	.LVL41
 3916 0432 0400     		.2byte	0x4
 3917 0434 F3       		.byte	0xf3
 3918 0435 01       		.uleb128 0x1
 3919 0436 50       		.byte	0x50
 3920 0437 9F       		.byte	0x9f
 3921 0438 74000000 		.4byte	.LVL41
 3922 043c 7E000000 		.4byte	.LVL42
 3923 0440 0100     		.2byte	0x1
 3924 0442 50       		.byte	0x50
 3925 0443 7E000000 		.4byte	.LVL42
 3926 0447 C8000000 		.4byte	.LFE4
ARM GAS  C:\Users\jo\AppData\Local\Temp\ccx91ntw.s 			page 70


 3927 044b 0100     		.2byte	0x1
 3928 044d 55       		.byte	0x55
 3929 044e 00000000 		.4byte	0
 3930 0452 00000000 		.4byte	0
 3931              	.LLST20:
 3932 0456 00000000 		.4byte	.LVL36
 3933 045a 46000000 		.4byte	.LVL39
 3934 045e 0100     		.2byte	0x1
 3935 0460 51       		.byte	0x51
 3936 0461 46000000 		.4byte	.LVL39
 3937 0465 74000000 		.4byte	.LVL41
 3938 0469 0400     		.2byte	0x4
 3939 046b F3       		.byte	0xf3
 3940 046c 01       		.uleb128 0x1
 3941 046d 51       		.byte	0x51
 3942 046e 9F       		.byte	0x9f
 3943 046f 74000000 		.4byte	.LVL41
 3944 0473 7E000000 		.4byte	.LVL42
 3945 0477 0100     		.2byte	0x1
 3946 0479 51       		.byte	0x51
 3947 047a 7E000000 		.4byte	.LVL42
 3948 047e C8000000 		.4byte	.LFE4
 3949 0482 0400     		.2byte	0x4
 3950 0484 F3       		.byte	0xf3
 3951 0485 01       		.uleb128 0x1
 3952 0486 51       		.byte	0x51
 3953 0487 9F       		.byte	0x9f
 3954 0488 00000000 		.4byte	0
 3955 048c 00000000 		.4byte	0
 3956              	.LLST21:
 3957 0490 00000000 		.4byte	.LVL36
 3958 0494 26000000 		.4byte	.LVL38
 3959 0498 0100     		.2byte	0x1
 3960 049a 52       		.byte	0x52
 3961 049b 26000000 		.4byte	.LVL38
 3962 049f C8000000 		.4byte	.LFE4
 3963 04a3 0400     		.2byte	0x4
 3964 04a5 F3       		.byte	0xf3
 3965 04a6 01       		.uleb128 0x1
 3966 04a7 52       		.byte	0x52
 3967 04a8 9F       		.byte	0x9f
 3968 04a9 00000000 		.4byte	0
 3969 04ad 00000000 		.4byte	0
 3970              	.LLST22:
 3971 04b1 00000000 		.4byte	.LVL36
 3972 04b5 1E000000 		.4byte	.LVL37
 3973 04b9 0100     		.2byte	0x1
 3974 04bb 53       		.byte	0x53
 3975 04bc 1E000000 		.4byte	.LVL37
 3976 04c0 C8000000 		.4byte	.LFE4
 3977 04c4 0100     		.2byte	0x1
 3978 04c6 56       		.byte	0x56
 3979 04c7 00000000 		.4byte	0
 3980 04cb 00000000 		.4byte	0
 3981              	.LLST23:
 3982 04cf C2000000 		.4byte	.LVL53
 3983 04d3 C6000000 		.4byte	.LVL55
ARM GAS  C:\Users\jo\AppData\Local\Temp\ccx91ntw.s 			page 71


 3984 04d7 0600     		.2byte	0x6
 3985 04d9 77       		.byte	0x77
 3986 04da 00       		.sleb128 0
 3987 04db 73       		.byte	0x73
 3988 04dc 00       		.sleb128 0
 3989 04dd 27       		.byte	0x27
 3990 04de 9F       		.byte	0x9f
 3991 04df C6000000 		.4byte	.LVL55
 3992 04e3 C8000000 		.4byte	.LFE4
 3993 04e7 0100     		.2byte	0x1
 3994 04e9 57       		.byte	0x57
 3995 04ea 00000000 		.4byte	0
 3996 04ee 00000000 		.4byte	0
 3997              	.LLST24:
 3998 04f2 C2000000 		.4byte	.LVL53
 3999 04f6 C4000000 		.4byte	.LVL54
 4000 04fa 0600     		.2byte	0x6
 4001 04fc 74       		.byte	0x74
 4002 04fd 00       		.sleb128 0
 4003 04fe 72       		.byte	0x72
 4004 04ff 00       		.sleb128 0
 4005 0500 27       		.byte	0x27
 4006 0501 9F       		.byte	0x9f
 4007 0502 C4000000 		.4byte	.LVL54
 4008 0506 C8000000 		.4byte	.LFE4
 4009 050a 0100     		.2byte	0x1
 4010 050c 54       		.byte	0x54
 4011 050d 00000000 		.4byte	0
 4012 0511 00000000 		.4byte	0
 4013              	.LLST25:
 4014 0515 7E000000 		.4byte	.LVL42
 4015 0519 84000000 		.4byte	.LVL43
 4016 051d 0100     		.2byte	0x1
 4017 051f 54       		.byte	0x54
 4018 0520 84000000 		.4byte	.LVL43
 4019 0524 BA000000 		.4byte	.LVL50
 4020 0528 0100     		.2byte	0x1
 4021 052a 52       		.byte	0x52
 4022 052b BA000000 		.4byte	.LVL50
 4023 052f BE000000 		.4byte	.LVL51
 4024 0533 0100     		.2byte	0x1
 4025 0535 54       		.byte	0x54
 4026 0536 BE000000 		.4byte	.LVL51
 4027 053a C0000000 		.4byte	.LVL52
 4028 053e 0100     		.2byte	0x1
 4029 0540 52       		.byte	0x52
 4030 0541 C0000000 		.4byte	.LVL52
 4031 0545 C2000000 		.4byte	.LVL53
 4032 0549 0100     		.2byte	0x1
 4033 054b 57       		.byte	0x57
 4034 054c C2000000 		.4byte	.LVL53
 4035 0550 C6000000 		.4byte	.LVL55
 4036 0554 0600     		.2byte	0x6
 4037 0556 77       		.byte	0x77
 4038 0557 00       		.sleb128 0
 4039 0558 73       		.byte	0x73
 4040 0559 00       		.sleb128 0
ARM GAS  C:\Users\jo\AppData\Local\Temp\ccx91ntw.s 			page 72


 4041 055a 27       		.byte	0x27
 4042 055b 9F       		.byte	0x9f
 4043 055c C6000000 		.4byte	.LVL55
 4044 0560 C8000000 		.4byte	.LFE4
 4045 0564 0100     		.2byte	0x1
 4046 0566 57       		.byte	0x57
 4047 0567 00000000 		.4byte	0
 4048 056b 00000000 		.4byte	0
 4049              	.LLST26:
 4050 056f 7E000000 		.4byte	.LVL42
 4051 0573 BA000000 		.4byte	.LVL50
 4052 0577 0100     		.2byte	0x1
 4053 0579 57       		.byte	0x57
 4054 057a BA000000 		.4byte	.LVL50
 4055 057e BE000000 		.4byte	.LVL51
 4056 0582 0100     		.2byte	0x1
 4057 0584 52       		.byte	0x52
 4058 0585 BE000000 		.4byte	.LVL51
 4059 0589 C0000000 		.4byte	.LVL52
 4060 058d 0100     		.2byte	0x1
 4061 058f 54       		.byte	0x54
 4062 0590 C0000000 		.4byte	.LVL52
 4063 0594 C4000000 		.4byte	.LVL54
 4064 0598 0600     		.2byte	0x6
 4065 059a 74       		.byte	0x74
 4066 059b 00       		.sleb128 0
 4067 059c 72       		.byte	0x72
 4068 059d 00       		.sleb128 0
 4069 059e 27       		.byte	0x27
 4070 059f 9F       		.byte	0x9f
 4071 05a0 C4000000 		.4byte	.LVL54
 4072 05a4 C8000000 		.4byte	.LFE4
 4073 05a8 0100     		.2byte	0x1
 4074 05aa 54       		.byte	0x54
 4075 05ab 00000000 		.4byte	0
 4076 05af 00000000 		.4byte	0
 4077              	.LLST27:
 4078 05b3 BA000000 		.4byte	.LVL50
 4079 05b7 BE000000 		.4byte	.LVL51
 4080 05bb 0100     		.2byte	0x1
 4081 05bd 52       		.byte	0x52
 4082 05be BE000000 		.4byte	.LVL51
 4083 05c2 C4000000 		.4byte	.LVL54
 4084 05c6 0100     		.2byte	0x1
 4085 05c8 54       		.byte	0x54
 4086 05c9 00000000 		.4byte	0
 4087 05cd 00000000 		.4byte	0
 4088              	.LLST28:
 4089 05d1 84000000 		.4byte	.LVL43
 4090 05d5 86000000 		.4byte	.LVL44
 4091 05d9 0500     		.2byte	0x5
 4092 05db 72       		.byte	0x72
 4093 05dc 00       		.sleb128 0
 4094 05dd 40       		.byte	0x40
 4095 05de 25       		.byte	0x25
 4096 05df 9F       		.byte	0x9f
 4097 05e0 86000000 		.4byte	.LVL44
ARM GAS  C:\Users\jo\AppData\Local\Temp\ccx91ntw.s 			page 73


 4098 05e4 8C000000 		.4byte	.LVL45
 4099 05e8 0100     		.2byte	0x1
 4100 05ea 53       		.byte	0x53
 4101 05eb 8C000000 		.4byte	.LVL45
 4102 05ef 9E000000 		.4byte	.LVL46
 4103 05f3 0300     		.2byte	0x3
 4104 05f5 73       		.byte	0x73
 4105 05f6 6E       		.sleb128 -18
 4106 05f7 9F       		.byte	0x9f
 4107 05f8 9E000000 		.4byte	.LVL46
 4108 05fc C0000000 		.4byte	.LVL52
 4109 0600 0500     		.2byte	0x5
 4110 0602 72       		.byte	0x72
 4111 0603 00       		.sleb128 0
 4112 0604 48       		.byte	0x48
 4113 0605 25       		.byte	0x25
 4114 0606 9F       		.byte	0x9f
 4115 0607 C0000000 		.4byte	.LVL52
 4116 060b C6000000 		.4byte	.LVL55
 4117 060f 0500     		.2byte	0x5
 4118 0611 77       		.byte	0x77
 4119 0612 00       		.sleb128 0
 4120 0613 48       		.byte	0x48
 4121 0614 25       		.byte	0x25
 4122 0615 9F       		.byte	0x9f
 4123 0616 00000000 		.4byte	0
 4124 061a 00000000 		.4byte	0
 4125              	.LLST29:
 4126 061e 86000000 		.4byte	.LVL44
 4127 0622 8C000000 		.4byte	.LVL45
 4128 0626 0100     		.2byte	0x1
 4129 0628 53       		.byte	0x53
 4130 0629 8C000000 		.4byte	.LVL45
 4131 062d 9E000000 		.4byte	.LVL46
 4132 0631 0300     		.2byte	0x3
 4133 0633 73       		.byte	0x73
 4134 0634 6E       		.sleb128 -18
 4135 0635 9F       		.byte	0x9f
 4136 0636 9E000000 		.4byte	.LVL46
 4137 063a C0000000 		.4byte	.LVL52
 4138 063e 0500     		.2byte	0x5
 4139 0640 72       		.byte	0x72
 4140 0641 00       		.sleb128 0
 4141 0642 48       		.byte	0x48
 4142 0643 25       		.byte	0x25
 4143 0644 9F       		.byte	0x9f
 4144 0645 C0000000 		.4byte	.LVL52
 4145 0649 C6000000 		.4byte	.LVL55
 4146 064d 0500     		.2byte	0x5
 4147 064f 77       		.byte	0x77
 4148 0650 00       		.sleb128 0
 4149 0651 48       		.byte	0x48
 4150 0652 25       		.byte	0x25
 4151 0653 9F       		.byte	0x9f
 4152 0654 00000000 		.4byte	0
 4153 0658 00000000 		.4byte	0
 4154              	.LLST30:
ARM GAS  C:\Users\jo\AppData\Local\Temp\ccx91ntw.s 			page 74


 4155 065c 84000000 		.4byte	.LVL43
 4156 0660 C0000000 		.4byte	.LVL52
 4157 0664 0800     		.2byte	0x8
 4158 0666 72       		.byte	0x72
 4159 0667 00       		.sleb128 0
 4160 0668 40       		.byte	0x40
 4161 0669 25       		.byte	0x25
 4162 066a 08       		.byte	0x8
 4163 066b FF       		.byte	0xff
 4164 066c 1A       		.byte	0x1a
 4165 066d 9F       		.byte	0x9f
 4166 066e C0000000 		.4byte	.LVL52
 4167 0672 C6000000 		.4byte	.LVL55
 4168 0676 0800     		.2byte	0x8
 4169 0678 77       		.byte	0x77
 4170 0679 00       		.sleb128 0
 4171 067a 40       		.byte	0x40
 4172 067b 25       		.byte	0x25
 4173 067c 08       		.byte	0x8
 4174 067d FF       		.byte	0xff
 4175 067e 1A       		.byte	0x1a
 4176 067f 9F       		.byte	0x9f
 4177 0680 00000000 		.4byte	0
 4178 0684 00000000 		.4byte	0
 4179              	.LLST31:
 4180 0688 84000000 		.4byte	.LVL43
 4181 068c C0000000 		.4byte	.LVL52
 4182 0690 0800     		.2byte	0x8
 4183 0692 72       		.byte	0x72
 4184 0693 00       		.sleb128 0
 4185 0694 38       		.byte	0x38
 4186 0695 25       		.byte	0x25
 4187 0696 08       		.byte	0x8
 4188 0697 FF       		.byte	0xff
 4189 0698 1A       		.byte	0x1a
 4190 0699 9F       		.byte	0x9f
 4191 069a C0000000 		.4byte	.LVL52
 4192 069e C6000000 		.4byte	.LVL55
 4193 06a2 0800     		.2byte	0x8
 4194 06a4 77       		.byte	0x77
 4195 06a5 00       		.sleb128 0
 4196 06a6 38       		.byte	0x38
 4197 06a7 25       		.byte	0x25
 4198 06a8 08       		.byte	0x8
 4199 06a9 FF       		.byte	0xff
 4200 06aa 1A       		.byte	0x1a
 4201 06ab 9F       		.byte	0x9f
 4202 06ac 00000000 		.4byte	0
 4203 06b0 00000000 		.4byte	0
 4204              	.LLST32:
 4205 06b4 84000000 		.4byte	.LVL43
 4206 06b8 C0000000 		.4byte	.LVL52
 4207 06bc 0600     		.2byte	0x6
 4208 06be 72       		.byte	0x72
 4209 06bf 00       		.sleb128 0
 4210 06c0 08       		.byte	0x8
 4211 06c1 FF       		.byte	0xff
ARM GAS  C:\Users\jo\AppData\Local\Temp\ccx91ntw.s 			page 75


 4212 06c2 1A       		.byte	0x1a
 4213 06c3 9F       		.byte	0x9f
 4214 06c4 C0000000 		.4byte	.LVL52
 4215 06c8 C6000000 		.4byte	.LVL55
 4216 06cc 0600     		.2byte	0x6
 4217 06ce 77       		.byte	0x77
 4218 06cf 00       		.sleb128 0
 4219 06d0 08       		.byte	0x8
 4220 06d1 FF       		.byte	0xff
 4221 06d2 1A       		.byte	0x1a
 4222 06d3 9F       		.byte	0x9f
 4223 06d4 00000000 		.4byte	0
 4224 06d8 00000000 		.4byte	0
 4225              	.LLST33:
 4226 06dc AC000000 		.4byte	.LVL47
 4227 06e0 B2000000 		.4byte	.LVL48
 4228 06e4 0100     		.2byte	0x1
 4229 06e6 54       		.byte	0x54
 4230 06e7 B2000000 		.4byte	.LVL48
 4231 06eb B4000000 		.4byte	.LVL49
 4232 06ef 1600     		.2byte	0x16
 4233 06f1 74       		.byte	0x74
 4234 06f2 00       		.sleb128 0
 4235 06f3 72       		.byte	0x72
 4236 06f4 00       		.sleb128 0
 4237 06f5 08       		.byte	0x8
 4238 06f6 FF       		.byte	0xff
 4239 06f7 1A       		.byte	0x1a
 4240 06f8 0A       		.byte	0xa
 4241 06f9 FFFF     		.2byte	0xffff
 4242 06fb 1A       		.byte	0x1a
 4243 06fc 23       		.byte	0x23
 4244 06fd 9206     		.uleb128 0x312
 4245 06ff 32       		.byte	0x32
 4246 0700 24       		.byte	0x24
 4247 0701 75       		.byte	0x75
 4248 0702 00       		.sleb128 0
 4249 0703 22       		.byte	0x22
 4250 0704 06       		.byte	0x6
 4251 0705 22       		.byte	0x22
 4252 0706 9F       		.byte	0x9f
 4253 0707 B4000000 		.4byte	.LVL49
 4254 070b C0000000 		.4byte	.LVL52
 4255 070f 2B00     		.2byte	0x2b
 4256 0711 72       		.byte	0x72
 4257 0712 00       		.sleb128 0
 4258 0713 09       		.byte	0x9
 4259 0714 EC       		.byte	0xec
 4260 0715 24       		.byte	0x24
 4261 0716 09       		.byte	0x9
 4262 0717 FC       		.byte	0xfc
 4263 0718 25       		.byte	0x25
 4264 0719 23       		.byte	0x23
 4265 071a 9202     		.uleb128 0x112
 4266 071c 32       		.byte	0x32
 4267 071d 24       		.byte	0x24
 4268 071e 75       		.byte	0x75
ARM GAS  C:\Users\jo\AppData\Local\Temp\ccx91ntw.s 			page 76


 4269 071f 00       		.sleb128 0
 4270 0720 22       		.byte	0x22
 4271 0721 06       		.byte	0x6
 4272 0722 73       		.byte	0x73
 4273 0723 00       		.sleb128 0
 4274 0724 22       		.byte	0x22
 4275 0725 70       		.byte	0x70
 4276 0726 00       		.sleb128 0
 4277 0727 27       		.byte	0x27
 4278 0728 72       		.byte	0x72
 4279 0729 00       		.sleb128 0
 4280 072a 08       		.byte	0x8
 4281 072b FF       		.byte	0xff
 4282 072c 1A       		.byte	0x1a
 4283 072d 0A       		.byte	0xa
 4284 072e FFFF     		.2byte	0xffff
 4285 0730 1A       		.byte	0x1a
 4286 0731 23       		.byte	0x23
 4287 0732 9206     		.uleb128 0x312
 4288 0734 32       		.byte	0x32
 4289 0735 24       		.byte	0x24
 4290 0736 75       		.byte	0x75
 4291 0737 00       		.sleb128 0
 4292 0738 22       		.byte	0x22
 4293 0739 06       		.byte	0x6
 4294 073a 22       		.byte	0x22
 4295 073b 9F       		.byte	0x9f
 4296 073c C0000000 		.4byte	.LVL52
 4297 0740 C2000000 		.4byte	.LVL53
 4298 0744 2B00     		.2byte	0x2b
 4299 0746 77       		.byte	0x77
 4300 0747 00       		.sleb128 0
 4301 0748 09       		.byte	0x9
 4302 0749 EC       		.byte	0xec
 4303 074a 24       		.byte	0x24
 4304 074b 09       		.byte	0x9
 4305 074c FC       		.byte	0xfc
 4306 074d 25       		.byte	0x25
 4307 074e 23       		.byte	0x23
 4308 074f 9202     		.uleb128 0x112
 4309 0751 32       		.byte	0x32
 4310 0752 24       		.byte	0x24
 4311 0753 75       		.byte	0x75
 4312 0754 00       		.sleb128 0
 4313 0755 22       		.byte	0x22
 4314 0756 06       		.byte	0x6
 4315 0757 73       		.byte	0x73
 4316 0758 00       		.sleb128 0
 4317 0759 22       		.byte	0x22
 4318 075a 70       		.byte	0x70
 4319 075b 00       		.sleb128 0
 4320 075c 27       		.byte	0x27
 4321 075d 77       		.byte	0x77
 4322 075e 00       		.sleb128 0
 4323 075f 08       		.byte	0x8
 4324 0760 FF       		.byte	0xff
 4325 0761 1A       		.byte	0x1a
ARM GAS  C:\Users\jo\AppData\Local\Temp\ccx91ntw.s 			page 77


 4326 0762 0A       		.byte	0xa
 4327 0763 FFFF     		.2byte	0xffff
 4328 0765 1A       		.byte	0x1a
 4329 0766 23       		.byte	0x23
 4330 0767 9206     		.uleb128 0x312
 4331 0769 32       		.byte	0x32
 4332 076a 24       		.byte	0x24
 4333 076b 75       		.byte	0x75
 4334 076c 00       		.sleb128 0
 4335 076d 22       		.byte	0x22
 4336 076e 06       		.byte	0x6
 4337 076f 22       		.byte	0x22
 4338 0770 9F       		.byte	0x9f
 4339 0771 C2000000 		.4byte	.LVL53
 4340 0775 C6000000 		.4byte	.LVL55
 4341 0779 3500     		.2byte	0x35
 4342 077b 77       		.byte	0x77
 4343 077c 00       		.sleb128 0
 4344 077d 09       		.byte	0x9
 4345 077e EC       		.byte	0xec
 4346 077f 24       		.byte	0x24
 4347 0780 09       		.byte	0x9
 4348 0781 FC       		.byte	0xfc
 4349 0782 25       		.byte	0x25
 4350 0783 23       		.byte	0x23
 4351 0784 9202     		.uleb128 0x112
 4352 0786 32       		.byte	0x32
 4353 0787 24       		.byte	0x24
 4354 0788 75       		.byte	0x75
 4355 0789 00       		.sleb128 0
 4356 078a 22       		.byte	0x22
 4357 078b 06       		.byte	0x6
 4358 078c 77       		.byte	0x77
 4359 078d 00       		.sleb128 0
 4360 078e 48       		.byte	0x48
 4361 078f 25       		.byte	0x25
 4362 0790 23       		.byte	0x23
 4363 0791 12       		.uleb128 0x12
 4364 0792 32       		.byte	0x32
 4365 0793 24       		.byte	0x24
 4366 0794 75       		.byte	0x75
 4367 0795 00       		.sleb128 0
 4368 0796 22       		.byte	0x22
 4369 0797 06       		.byte	0x6
 4370 0798 22       		.byte	0x22
 4371 0799 70       		.byte	0x70
 4372 079a 00       		.sleb128 0
 4373 079b 27       		.byte	0x27
 4374 079c 77       		.byte	0x77
 4375 079d 00       		.sleb128 0
 4376 079e 08       		.byte	0x8
 4377 079f FF       		.byte	0xff
 4378 07a0 1A       		.byte	0x1a
 4379 07a1 0A       		.byte	0xa
 4380 07a2 FFFF     		.2byte	0xffff
 4381 07a4 1A       		.byte	0x1a
 4382 07a5 23       		.byte	0x23
ARM GAS  C:\Users\jo\AppData\Local\Temp\ccx91ntw.s 			page 78


 4383 07a6 9206     		.uleb128 0x312
 4384 07a8 32       		.byte	0x32
 4385 07a9 24       		.byte	0x24
 4386 07aa 75       		.byte	0x75
 4387 07ab 00       		.sleb128 0
 4388 07ac 22       		.byte	0x22
 4389 07ad 06       		.byte	0x6
 4390 07ae 22       		.byte	0x22
 4391 07af 9F       		.byte	0x9f
 4392 07b0 00000000 		.4byte	0
 4393 07b4 00000000 		.4byte	0
 4394              	.LLST34:
 4395 07b8 00000000 		.4byte	.LVL56
 4396 07bc 1E000000 		.4byte	.LVL59
 4397 07c0 0100     		.2byte	0x1
 4398 07c2 50       		.byte	0x50
 4399 07c3 1E000000 		.4byte	.LVL59
 4400 07c7 6A000000 		.4byte	.LVL64
 4401 07cb 0100     		.2byte	0x1
 4402 07cd 56       		.byte	0x56
 4403 07ce 6A000000 		.4byte	.LVL64
 4404 07d2 70000000 		.4byte	.LVL65
 4405 07d6 0400     		.2byte	0x4
 4406 07d8 F3       		.byte	0xf3
 4407 07d9 01       		.uleb128 0x1
 4408 07da 50       		.byte	0x50
 4409 07db 9F       		.byte	0x9f
 4410 07dc 70000000 		.4byte	.LVL65
 4411 07e0 7A000000 		.4byte	.LVL67
 4412 07e4 0100     		.2byte	0x1
 4413 07e6 50       		.byte	0x50
 4414 07e7 7A000000 		.4byte	.LVL67
 4415 07eb B8000000 		.4byte	.LVL75
 4416 07ef 0100     		.2byte	0x1
 4417 07f1 56       		.byte	0x56
 4418 07f2 B8000000 		.4byte	.LVL75
 4419 07f6 BC000000 		.4byte	.LVL76
 4420 07fa 0100     		.2byte	0x1
 4421 07fc 50       		.byte	0x50
 4422 07fd BC000000 		.4byte	.LVL76
 4423 0801 BE000000 		.4byte	.LFE5
 4424 0805 0400     		.2byte	0x4
 4425 0807 F3       		.byte	0xf3
 4426 0808 01       		.uleb128 0x1
 4427 0809 50       		.byte	0x50
 4428 080a 9F       		.byte	0x9f
 4429 080b 00000000 		.4byte	0
 4430 080f 00000000 		.4byte	0
 4431              	.LLST35:
 4432 0813 00000000 		.4byte	.LVL56
 4433 0817 1E000000 		.4byte	.LVL59
 4434 081b 0100     		.2byte	0x1
 4435 081d 51       		.byte	0x51
 4436 081e 1E000000 		.4byte	.LVL59
 4437 0822 6A000000 		.4byte	.LVL64
 4438 0826 0100     		.2byte	0x1
 4439 0828 59       		.byte	0x59
ARM GAS  C:\Users\jo\AppData\Local\Temp\ccx91ntw.s 			page 79


 4440 0829 6A000000 		.4byte	.LVL64
 4441 082d 70000000 		.4byte	.LVL65
 4442 0831 0400     		.2byte	0x4
 4443 0833 F3       		.byte	0xf3
 4444 0834 01       		.uleb128 0x1
 4445 0835 51       		.byte	0x51
 4446 0836 9F       		.byte	0x9f
 4447 0837 70000000 		.4byte	.LVL65
 4448 083b 7A000000 		.4byte	.LVL67
 4449 083f 0100     		.2byte	0x1
 4450 0841 51       		.byte	0x51
 4451 0842 7A000000 		.4byte	.LVL67
 4452 0846 B8000000 		.4byte	.LVL75
 4453 084a 0100     		.2byte	0x1
 4454 084c 59       		.byte	0x59
 4455 084d B8000000 		.4byte	.LVL75
 4456 0851 BE000000 		.4byte	.LFE5
 4457 0855 0100     		.2byte	0x1
 4458 0857 51       		.byte	0x51
 4459 0858 00000000 		.4byte	0
 4460 085c 00000000 		.4byte	0
 4461              	.LLST36:
 4462 0860 00000000 		.4byte	.LVL56
 4463 0864 0A000000 		.4byte	.LVL57
 4464 0868 0100     		.2byte	0x1
 4465 086a 52       		.byte	0x52
 4466 086b 0A000000 		.4byte	.LVL57
 4467 086f 56000000 		.4byte	.LVL62
 4468 0873 0100     		.2byte	0x1
 4469 0875 55       		.byte	0x55
 4470 0876 56000000 		.4byte	.LVL62
 4471 087a 66000000 		.4byte	.LVL63
 4472 087e 0300     		.2byte	0x3
 4473 0880 75       		.byte	0x75
 4474 0881 08       		.sleb128 8
 4475 0882 9F       		.byte	0x9f
 4476 0883 70000000 		.4byte	.LVL65
 4477 0887 AC000000 		.4byte	.LVL73
 4478 088b 0100     		.2byte	0x1
 4479 088d 55       		.byte	0x55
 4480 088e AC000000 		.4byte	.LVL73
 4481 0892 B4000000 		.4byte	.LVL74
 4482 0896 0300     		.2byte	0x3
 4483 0898 75       		.byte	0x75
 4484 0899 08       		.sleb128 8
 4485 089a 9F       		.byte	0x9f
 4486 089b B8000000 		.4byte	.LVL75
 4487 089f BE000000 		.4byte	.LFE5
 4488 08a3 0100     		.2byte	0x1
 4489 08a5 55       		.byte	0x55
 4490 08a6 00000000 		.4byte	0
 4491 08aa 00000000 		.4byte	0
 4492              	.LLST37:
 4493 08ae 00000000 		.4byte	.LVL56
 4494 08b2 1E000000 		.4byte	.LVL59
 4495 08b6 0100     		.2byte	0x1
 4496 08b8 53       		.byte	0x53
ARM GAS  C:\Users\jo\AppData\Local\Temp\ccx91ntw.s 			page 80


 4497 08b9 1E000000 		.4byte	.LVL59
 4498 08bd 6A000000 		.4byte	.LVL64
 4499 08c1 0100     		.2byte	0x1
 4500 08c3 58       		.byte	0x58
 4501 08c4 6A000000 		.4byte	.LVL64
 4502 08c8 70000000 		.4byte	.LVL65
 4503 08cc 0400     		.2byte	0x4
 4504 08ce F3       		.byte	0xf3
 4505 08cf 01       		.uleb128 0x1
 4506 08d0 53       		.byte	0x53
 4507 08d1 9F       		.byte	0x9f
 4508 08d2 70000000 		.4byte	.LVL65
 4509 08d6 7A000000 		.4byte	.LVL67
 4510 08da 0100     		.2byte	0x1
 4511 08dc 53       		.byte	0x53
 4512 08dd 7A000000 		.4byte	.LVL67
 4513 08e1 B8000000 		.4byte	.LVL75
 4514 08e5 0100     		.2byte	0x1
 4515 08e7 58       		.byte	0x58
 4516 08e8 B8000000 		.4byte	.LVL75
 4517 08ec BE000000 		.4byte	.LFE5
 4518 08f0 0100     		.2byte	0x1
 4519 08f2 53       		.byte	0x53
 4520 08f3 00000000 		.4byte	0
 4521 08f7 00000000 		.4byte	0
 4522              	.LLST38:
 4523 08fb 00000000 		.4byte	.LVL56
 4524 08ff 1A000000 		.4byte	.LVL58
 4525 0903 0200     		.2byte	0x2
 4526 0905 91       		.byte	0x91
 4527 0906 00       		.sleb128 0
 4528 0907 1A000000 		.4byte	.LVL58
 4529 090b 1E000000 		.4byte	.LVL59
 4530 090f 0100     		.2byte	0x1
 4531 0911 5A       		.byte	0x5a
 4532 0912 70000000 		.4byte	.LVL65
 4533 0916 78000000 		.4byte	.LVL66
 4534 091a 0100     		.2byte	0x1
 4535 091c 5A       		.byte	0x5a
 4536 091d 78000000 		.4byte	.LVL66
 4537 0921 AA000000 		.4byte	.LVL72
 4538 0925 0200     		.2byte	0x2
 4539 0927 91       		.byte	0x91
 4540 0928 00       		.sleb128 0
 4541 0929 AA000000 		.4byte	.LVL72
 4542 092d B8000000 		.4byte	.LVL75
 4543 0931 0600     		.2byte	0x6
 4544 0933 91       		.byte	0x91
 4545 0934 00       		.sleb128 0
 4546 0935 06       		.byte	0x6
 4547 0936 23       		.byte	0x23
 4548 0937 08       		.uleb128 0x8
 4549 0938 9F       		.byte	0x9f
 4550 0939 B8000000 		.4byte	.LVL75
 4551 093d BE000000 		.4byte	.LFE5
 4552 0941 0200     		.2byte	0x2
 4553 0943 91       		.byte	0x91
ARM GAS  C:\Users\jo\AppData\Local\Temp\ccx91ntw.s 			page 81


 4554 0944 00       		.sleb128 0
 4555 0945 00000000 		.4byte	0
 4556 0949 00000000 		.4byte	0
 4557              	.LLST39:
 4558 094d 00000000 		.4byte	.LVL56
 4559 0951 1A000000 		.4byte	.LVL58
 4560 0955 0200     		.2byte	0x2
 4561 0957 91       		.byte	0x91
 4562 0958 04       		.sleb128 4
 4563 0959 1A000000 		.4byte	.LVL58
 4564 095d 3E000000 		.4byte	.LVL61
 4565 0961 0100     		.2byte	0x1
 4566 0963 54       		.byte	0x54
 4567 0964 66000000 		.4byte	.LVL63
 4568 0968 6A000000 		.4byte	.LVL64
 4569 096c 0100     		.2byte	0x1
 4570 096e 54       		.byte	0x54
 4571 096f 70000000 		.4byte	.LVL65
 4572 0973 B8000000 		.4byte	.LVL75
 4573 0977 0100     		.2byte	0x1
 4574 0979 54       		.byte	0x54
 4575 097a B8000000 		.4byte	.LVL75
 4576 097e BE000000 		.4byte	.LFE5
 4577 0982 0200     		.2byte	0x2
 4578 0984 91       		.byte	0x91
 4579 0985 04       		.sleb128 4
 4580 0986 00000000 		.4byte	0
 4581 098a 00000000 		.4byte	0
 4582              	.LLST40:
 4583 098e 36000000 		.4byte	.LVL60
 4584 0992 3E000000 		.4byte	.LVL61
 4585 0996 0200     		.2byte	0x2
 4586 0998 30       		.byte	0x30
 4587 0999 9F       		.byte	0x9f
 4588 099a 7A000000 		.4byte	.LVL67
 4589 099e 82000000 		.4byte	.LVL68
 4590 09a2 0200     		.2byte	0x2
 4591 09a4 30       		.byte	0x30
 4592 09a5 9F       		.byte	0x9f
 4593 09a6 82000000 		.4byte	.LVL68
 4594 09aa 86000000 		.4byte	.LVL69
 4595 09ae 0900     		.2byte	0x9
 4596 09b0 7A       		.byte	0x7a
 4597 09b1 00       		.sleb128 0
 4598 09b2 91       		.byte	0x91
 4599 09b3 00       		.sleb128 0
 4600 09b4 06       		.byte	0x6
 4601 09b5 1C       		.byte	0x1c
 4602 09b6 23       		.byte	0x23
 4603 09b7 01       		.uleb128 0x1
 4604 09b8 9F       		.byte	0x9f
 4605 09b9 86000000 		.4byte	.LVL69
 4606 09bd 94000000 		.4byte	.LVL70
 4607 09c1 0700     		.2byte	0x7
 4608 09c3 7A       		.byte	0x7a
 4609 09c4 00       		.sleb128 0
 4610 09c5 91       		.byte	0x91
ARM GAS  C:\Users\jo\AppData\Local\Temp\ccx91ntw.s 			page 82


 4611 09c6 00       		.sleb128 0
 4612 09c7 06       		.byte	0x6
 4613 09c8 1C       		.byte	0x1c
 4614 09c9 9F       		.byte	0x9f
 4615 09ca 94000000 		.4byte	.LVL70
 4616 09ce B8000000 		.4byte	.LVL75
 4617 09d2 0900     		.2byte	0x9
 4618 09d4 7A       		.byte	0x7a
 4619 09d5 00       		.sleb128 0
 4620 09d6 91       		.byte	0x91
 4621 09d7 00       		.sleb128 0
 4622 09d8 06       		.byte	0x6
 4623 09d9 1C       		.byte	0x1c
 4624 09da 23       		.byte	0x23
 4625 09db 01       		.uleb128 0x1
 4626 09dc 9F       		.byte	0x9f
 4627 09dd 00000000 		.4byte	0
 4628 09e1 00000000 		.4byte	0
 4629              	.LLST41:
 4630 09e5 00000000 		.4byte	.LVL77
 4631 09e9 1A000000 		.4byte	.LVL81
 4632 09ed 0100     		.2byte	0x1
 4633 09ef 50       		.byte	0x50
 4634 09f0 1A000000 		.4byte	.LVL81
 4635 09f4 3E000000 		.4byte	.LVL85
 4636 09f8 0100     		.2byte	0x1
 4637 09fa 57       		.byte	0x57
 4638 09fb 3E000000 		.4byte	.LVL85
 4639 09ff 46000000 		.4byte	.LVL86
 4640 0a03 0100     		.2byte	0x1
 4641 0a05 50       		.byte	0x50
 4642 0a06 46000000 		.4byte	.LVL86
 4643 0a0a 7E000000 		.4byte	.LFE6
 4644 0a0e 0100     		.2byte	0x1
 4645 0a10 57       		.byte	0x57
 4646 0a11 00000000 		.4byte	0
 4647 0a15 00000000 		.4byte	0
 4648              	.LLST42:
 4649 0a19 00000000 		.4byte	.LVL77
 4650 0a1d 1A000000 		.4byte	.LVL81
 4651 0a21 0100     		.2byte	0x1
 4652 0a23 51       		.byte	0x51
 4653 0a24 1A000000 		.4byte	.LVL81
 4654 0a28 3E000000 		.4byte	.LVL85
 4655 0a2c 0400     		.2byte	0x4
 4656 0a2e F3       		.byte	0xf3
 4657 0a2f 01       		.uleb128 0x1
 4658 0a30 51       		.byte	0x51
 4659 0a31 9F       		.byte	0x9f
 4660 0a32 3E000000 		.4byte	.LVL85
 4661 0a36 46000000 		.4byte	.LVL86
 4662 0a3a 0100     		.2byte	0x1
 4663 0a3c 51       		.byte	0x51
 4664 0a3d 46000000 		.4byte	.LVL86
 4665 0a41 7E000000 		.4byte	.LFE6
 4666 0a45 0400     		.2byte	0x4
 4667 0a47 F3       		.byte	0xf3
ARM GAS  C:\Users\jo\AppData\Local\Temp\ccx91ntw.s 			page 83


 4668 0a48 01       		.uleb128 0x1
 4669 0a49 51       		.byte	0x51
 4670 0a4a 9F       		.byte	0x9f
 4671 0a4b 00000000 		.4byte	0
 4672 0a4f 00000000 		.4byte	0
 4673              	.LLST43:
 4674 0a53 00000000 		.4byte	.LVL77
 4675 0a57 12000000 		.4byte	.LVL80
 4676 0a5b 0100     		.2byte	0x1
 4677 0a5d 52       		.byte	0x52
 4678 0a5e 12000000 		.4byte	.LVL80
 4679 0a62 1A000000 		.4byte	.LVL81
 4680 0a66 0300     		.2byte	0x3
 4681 0a68 72       		.byte	0x72
 4682 0a69 7F       		.sleb128 -1
 4683 0a6a 9F       		.byte	0x9f
 4684 0a6b 1A000000 		.4byte	.LVL81
 4685 0a6f 28000000 		.4byte	.LVL83
 4686 0a73 0300     		.2byte	0x3
 4687 0a75 75       		.byte	0x75
 4688 0a76 7F       		.sleb128 -1
 4689 0a77 9F       		.byte	0x9f
 4690 0a78 28000000 		.4byte	.LVL83
 4691 0a7c 32000000 		.4byte	.LVL84
 4692 0a80 0100     		.2byte	0x1
 4693 0a82 55       		.byte	0x55
 4694 0a83 3E000000 		.4byte	.LVL85
 4695 0a87 46000000 		.4byte	.LVL86
 4696 0a8b 0300     		.2byte	0x3
 4697 0a8d 72       		.byte	0x72
 4698 0a8e 7F       		.sleb128 -1
 4699 0a8f 9F       		.byte	0x9f
 4700 0a90 5E000000 		.4byte	.LVL90
 4701 0a94 62000000 		.4byte	.LVL91
 4702 0a98 0300     		.2byte	0x3
 4703 0a9a 75       		.byte	0x75
 4704 0a9b 7F       		.sleb128 -1
 4705 0a9c 9F       		.byte	0x9f
 4706 0a9d 70000000 		.4byte	.LVL93
 4707 0aa1 7E000000 		.4byte	.LFE6
 4708 0aa5 0300     		.2byte	0x3
 4709 0aa7 75       		.byte	0x75
 4710 0aa8 7F       		.sleb128 -1
 4711 0aa9 9F       		.byte	0x9f
 4712 0aaa 00000000 		.4byte	0
 4713 0aae 00000000 		.4byte	0
 4714              	.LLST44:
 4715 0ab2 00000000 		.4byte	.LVL77
 4716 0ab6 1A000000 		.4byte	.LVL81
 4717 0aba 0100     		.2byte	0x1
 4718 0abc 53       		.byte	0x53
 4719 0abd 1A000000 		.4byte	.LVL81
 4720 0ac1 3E000000 		.4byte	.LVL85
 4721 0ac5 0100     		.2byte	0x1
 4722 0ac7 58       		.byte	0x58
 4723 0ac8 3E000000 		.4byte	.LVL85
 4724 0acc 46000000 		.4byte	.LVL86
ARM GAS  C:\Users\jo\AppData\Local\Temp\ccx91ntw.s 			page 84


 4725 0ad0 0100     		.2byte	0x1
 4726 0ad2 53       		.byte	0x53
 4727 0ad3 46000000 		.4byte	.LVL86
 4728 0ad7 7E000000 		.4byte	.LFE6
 4729 0adb 0100     		.2byte	0x1
 4730 0add 58       		.byte	0x58
 4731 0ade 00000000 		.4byte	0
 4732 0ae2 00000000 		.4byte	0
 4733              	.LLST45:
 4734 0ae6 00000000 		.4byte	.LVL77
 4735 0aea 06000000 		.4byte	.LVL78
 4736 0aee 0200     		.2byte	0x2
 4737 0af0 91       		.byte	0x91
 4738 0af1 00       		.sleb128 0
 4739 0af2 06000000 		.4byte	.LVL78
 4740 0af6 10000000 		.4byte	.LVL79
 4741 0afa 0200     		.2byte	0x2
 4742 0afc 76       		.byte	0x76
 4743 0afd 00       		.sleb128 0
 4744 0afe 10000000 		.4byte	.LVL79
 4745 0b02 7E000000 		.4byte	.LFE6
 4746 0b06 0200     		.2byte	0x2
 4747 0b08 91       		.byte	0x91
 4748 0b09 00       		.sleb128 0
 4749 0b0a 00000000 		.4byte	0
 4750 0b0e 00000000 		.4byte	0
 4751              	.LLST46:
 4752 0b12 00000000 		.4byte	.LVL77
 4753 0b16 06000000 		.4byte	.LVL78
 4754 0b1a 0200     		.2byte	0x2
 4755 0b1c 91       		.byte	0x91
 4756 0b1d 04       		.sleb128 4
 4757 0b1e 06000000 		.4byte	.LVL78
 4758 0b22 10000000 		.4byte	.LVL79
 4759 0b26 0200     		.2byte	0x2
 4760 0b28 76       		.byte	0x76
 4761 0b29 04       		.sleb128 4
 4762 0b2a 10000000 		.4byte	.LVL79
 4763 0b2e 12000000 		.4byte	.LVL80
 4764 0b32 0200     		.2byte	0x2
 4765 0b34 91       		.byte	0x91
 4766 0b35 04       		.sleb128 4
 4767 0b36 12000000 		.4byte	.LVL80
 4768 0b3a 22000000 		.4byte	.LVL82
 4769 0b3e 0100     		.2byte	0x1
 4770 0b40 59       		.byte	0x59
 4771 0b41 22000000 		.4byte	.LVL82
 4772 0b45 32000000 		.4byte	.LVL84
 4773 0b49 0300     		.2byte	0x3
 4774 0b4b 79       		.byte	0x79
 4775 0b4c 7F       		.sleb128 -1
 4776 0b4d 9F       		.byte	0x9f
 4777 0b4e 32000000 		.4byte	.LVL84
 4778 0b52 4C000000 		.4byte	.LVL87
 4779 0b56 0100     		.2byte	0x1
 4780 0b58 59       		.byte	0x59
 4781 0b59 4C000000 		.4byte	.LVL87
ARM GAS  C:\Users\jo\AppData\Local\Temp\ccx91ntw.s 			page 85


 4782 0b5d 5C000000 		.4byte	.LVL89
 4783 0b61 0300     		.2byte	0x3
 4784 0b63 79       		.byte	0x79
 4785 0b64 7F       		.sleb128 -1
 4786 0b65 9F       		.byte	0x9f
 4787 0b66 5C000000 		.4byte	.LVL89
 4788 0b6a 7E000000 		.4byte	.LFE6
 4789 0b6e 0100     		.2byte	0x1
 4790 0b70 59       		.byte	0x59
 4791 0b71 00000000 		.4byte	0
 4792 0b75 00000000 		.4byte	0
 4793              	.LLST47:
 4794 0b79 00000000 		.4byte	.LVL77
 4795 0b7d 06000000 		.4byte	.LVL78
 4796 0b81 0200     		.2byte	0x2
 4797 0b83 91       		.byte	0x91
 4798 0b84 08       		.sleb128 8
 4799 0b85 06000000 		.4byte	.LVL78
 4800 0b89 10000000 		.4byte	.LVL79
 4801 0b8d 0200     		.2byte	0x2
 4802 0b8f 76       		.byte	0x76
 4803 0b90 08       		.sleb128 8
 4804 0b91 10000000 		.4byte	.LVL79
 4805 0b95 12000000 		.4byte	.LVL80
 4806 0b99 0200     		.2byte	0x2
 4807 0b9b 91       		.byte	0x91
 4808 0b9c 08       		.sleb128 8
 4809 0b9d 4C000000 		.4byte	.LVL87
 4810 0ba1 56000000 		.4byte	.LVL88
 4811 0ba5 0300     		.2byte	0x3
 4812 0ba7 7A       		.byte	0x7a
 4813 0ba8 01       		.sleb128 1
 4814 0ba9 9F       		.byte	0x9f
 4815 0baa 56000000 		.4byte	.LVL88
 4816 0bae 62000000 		.4byte	.LVL91
 4817 0bb2 0100     		.2byte	0x1
 4818 0bb4 5A       		.byte	0x5a
 4819 0bb5 00000000 		.4byte	0
 4820 0bb9 00000000 		.4byte	0
 4821              	.LLST48:
 4822 0bbd 4C000000 		.4byte	.LVL87
 4823 0bc1 62000000 		.4byte	.LVL91
 4824 0bc5 0600     		.2byte	0x6
 4825 0bc7 72       		.byte	0x72
 4826 0bc8 00       		.sleb128 0
 4827 0bc9 08       		.byte	0x8
 4828 0bca FF       		.byte	0xff
 4829 0bcb 1A       		.byte	0x1a
 4830 0bcc 9F       		.byte	0x9f
 4831 0bcd 00000000 		.4byte	0
 4832 0bd1 00000000 		.4byte	0
 4833              	.LLST49:
 4834 0bd5 00000000 		.4byte	.LVL95
 4835 0bd9 1A000000 		.4byte	.LVL98
 4836 0bdd 0100     		.2byte	0x1
 4837 0bdf 50       		.byte	0x50
 4838 0be0 1A000000 		.4byte	.LVL98
ARM GAS  C:\Users\jo\AppData\Local\Temp\ccx91ntw.s 			page 86


 4839 0be4 34000000 		.4byte	.LVL105
 4840 0be8 0100     		.2byte	0x1
 4841 0bea 59       		.byte	0x59
 4842 0beb 34000000 		.4byte	.LVL105
 4843 0bef 3E000000 		.4byte	.LVL106
 4844 0bf3 0400     		.2byte	0x4
 4845 0bf5 F3       		.byte	0xf3
 4846 0bf6 01       		.uleb128 0x1
 4847 0bf7 50       		.byte	0x50
 4848 0bf8 9F       		.byte	0x9f
 4849 0bf9 3E000000 		.4byte	.LVL106
 4850 0bfd 62000000 		.4byte	.LFE7
 4851 0c01 0100     		.2byte	0x1
 4852 0c03 59       		.byte	0x59
 4853 0c04 00000000 		.4byte	0
 4854 0c08 00000000 		.4byte	0
 4855              	.LLST50:
 4856 0c0c 00000000 		.4byte	.LVL95
 4857 0c10 10000000 		.4byte	.LVL97
 4858 0c14 0100     		.2byte	0x1
 4859 0c16 51       		.byte	0x51
 4860 0c17 10000000 		.4byte	.LVL97
 4861 0c1b 1A000000 		.4byte	.LVL98
 4862 0c1f 0300     		.2byte	0x3
 4863 0c21 71       		.byte	0x71
 4864 0c22 7F       		.sleb128 -1
 4865 0c23 9F       		.byte	0x9f
 4866 0c24 1A000000 		.4byte	.LVL98
 4867 0c28 2A000000 		.4byte	.LVL102
 4868 0c2c 0300     		.2byte	0x3
 4869 0c2e 75       		.byte	0x75
 4870 0c2f 7F       		.sleb128 -1
 4871 0c30 9F       		.byte	0x9f
 4872 0c31 2A000000 		.4byte	.LVL102
 4873 0c35 32000000 		.4byte	.LVL104
 4874 0c39 0100     		.2byte	0x1
 4875 0c3b 55       		.byte	0x55
 4876 0c3c 3E000000 		.4byte	.LVL106
 4877 0c40 62000000 		.4byte	.LFE7
 4878 0c44 0300     		.2byte	0x3
 4879 0c46 75       		.byte	0x75
 4880 0c47 7F       		.sleb128 -1
 4881 0c48 9F       		.byte	0x9f
 4882 0c49 00000000 		.4byte	0
 4883 0c4d 00000000 		.4byte	0
 4884              	.LLST51:
 4885 0c51 00000000 		.4byte	.LVL95
 4886 0c55 1A000000 		.4byte	.LVL98
 4887 0c59 0100     		.2byte	0x1
 4888 0c5b 52       		.byte	0x52
 4889 0c5c 1A000000 		.4byte	.LVL98
 4890 0c60 62000000 		.4byte	.LFE7
 4891 0c64 0100     		.2byte	0x1
 4892 0c66 5A       		.byte	0x5a
 4893 0c67 00000000 		.4byte	0
 4894 0c6b 00000000 		.4byte	0
 4895              	.LLST52:
ARM GAS  C:\Users\jo\AppData\Local\Temp\ccx91ntw.s 			page 87


 4896 0c6f 00000000 		.4byte	.LVL95
 4897 0c73 1A000000 		.4byte	.LVL98
 4898 0c77 0100     		.2byte	0x1
 4899 0c79 53       		.byte	0x53
 4900 0c7a 1A000000 		.4byte	.LVL98
 4901 0c7e 34000000 		.4byte	.LVL105
 4902 0c82 0100     		.2byte	0x1
 4903 0c84 56       		.byte	0x56
 4904 0c85 34000000 		.4byte	.LVL105
 4905 0c89 3E000000 		.4byte	.LVL106
 4906 0c8d 0400     		.2byte	0x4
 4907 0c8f F3       		.byte	0xf3
 4908 0c90 01       		.uleb128 0x1
 4909 0c91 53       		.byte	0x53
 4910 0c92 9F       		.byte	0x9f
 4911 0c93 3E000000 		.4byte	.LVL106
 4912 0c97 62000000 		.4byte	.LFE7
 4913 0c9b 0100     		.2byte	0x1
 4914 0c9d 56       		.byte	0x56
 4915 0c9e 00000000 		.4byte	0
 4916 0ca2 00000000 		.4byte	0
 4917              	.LLST53:
 4918 0ca6 00000000 		.4byte	.LVL95
 4919 0caa 3E000000 		.4byte	.LVL106
 4920 0cae 0200     		.2byte	0x2
 4921 0cb0 91       		.byte	0x91
 4922 0cb1 00       		.sleb128 0
 4923 0cb2 3E000000 		.4byte	.LVL106
 4924 0cb6 62000000 		.4byte	.LFE7
 4925 0cba 0200     		.2byte	0x2
 4926 0cbc 91       		.byte	0x91
 4927 0cbd 00       		.sleb128 0
 4928 0cbe 00000000 		.4byte	0
 4929 0cc2 00000000 		.4byte	0
 4930              	.LLST54:
 4931 0cc6 00000000 		.4byte	.LVL95
 4932 0cca 10000000 		.4byte	.LVL97
 4933 0cce 0200     		.2byte	0x2
 4934 0cd0 91       		.byte	0x91
 4935 0cd1 04       		.sleb128 4
 4936 0cd2 10000000 		.4byte	.LVL97
 4937 0cd6 24000000 		.4byte	.LVL100
 4938 0cda 0100     		.2byte	0x1
 4939 0cdc 57       		.byte	0x57
 4940 0cdd 24000000 		.4byte	.LVL100
 4941 0ce1 32000000 		.4byte	.LVL104
 4942 0ce5 0300     		.2byte	0x3
 4943 0ce7 77       		.byte	0x77
 4944 0ce8 7F       		.sleb128 -1
 4945 0ce9 9F       		.byte	0x9f
 4946 0cea 32000000 		.4byte	.LVL104
 4947 0cee 4E000000 		.4byte	.LVL108
 4948 0cf2 0100     		.2byte	0x1
 4949 0cf4 57       		.byte	0x57
 4950 0cf5 00000000 		.4byte	0
 4951 0cf9 00000000 		.4byte	0
 4952              	.LLST55:
ARM GAS  C:\Users\jo\AppData\Local\Temp\ccx91ntw.s 			page 88


 4953 0cfd 00000000 		.4byte	.LVL95
 4954 0d01 10000000 		.4byte	.LVL97
 4955 0d05 0200     		.2byte	0x2
 4956 0d07 91       		.byte	0x91
 4957 0d08 08       		.sleb128 8
 4958 0d09 10000000 		.4byte	.LVL97
 4959 0d0d 4E000000 		.4byte	.LVL108
 4960 0d11 0100     		.2byte	0x1
 4961 0d13 58       		.byte	0x58
 4962 0d14 00000000 		.4byte	0
 4963 0d18 00000000 		.4byte	0
 4964              	.LLST56:
 4965 0d1c 1C000000 		.4byte	.LVL99
 4966 0d20 24000000 		.4byte	.LVL100
 4967 0d24 0800     		.2byte	0x8
 4968 0d26 77       		.byte	0x77
 4969 0d27 7F       		.sleb128 -1
 4970 0d28 94       		.byte	0x94
 4971 0d29 01       		.byte	0x1
 4972 0d2a 08       		.byte	0x8
 4973 0d2b FF       		.byte	0xff
 4974 0d2c 1A       		.byte	0x1a
 4975 0d2d 9F       		.byte	0x9f
 4976 0d2e 24000000 		.4byte	.LVL100
 4977 0d32 32000000 		.4byte	.LVL104
 4978 0d36 0800     		.2byte	0x8
 4979 0d38 77       		.byte	0x77
 4980 0d39 7E       		.sleb128 -2
 4981 0d3a 94       		.byte	0x94
 4982 0d3b 01       		.byte	0x1
 4983 0d3c 08       		.byte	0x8
 4984 0d3d FF       		.byte	0xff
 4985 0d3e 1A       		.byte	0x1a
 4986 0d3f 9F       		.byte	0x9f
 4987 0d40 00000000 		.4byte	0
 4988 0d44 00000000 		.4byte	0
 4989              	.LLST57:
 4990 0d48 4A000000 		.4byte	.LVL107
 4991 0d4c 4E000000 		.4byte	.LVL108
 4992 0d50 0200     		.2byte	0x2
 4993 0d52 38       		.byte	0x38
 4994 0d53 9F       		.byte	0x9f
 4995 0d54 52000000 		.4byte	.LVL109
 4996 0d58 62000000 		.4byte	.LFE7
 4997 0d5c 0600     		.2byte	0x6
 4998 0d5e 72       		.byte	0x72
 4999 0d5f 00       		.sleb128 0
 5000 0d60 76       		.byte	0x76
 5001 0d61 00       		.sleb128 0
 5002 0d62 1C       		.byte	0x1c
 5003 0d63 9F       		.byte	0x9f
 5004 0d64 00000000 		.4byte	0
 5005 0d68 00000000 		.4byte	0
 5006              	.LLST58:
 5007 0d6c 0A000000 		.4byte	.LVL96
 5008 0d70 26000000 		.4byte	.LVL101
 5009 0d74 0100     		.2byte	0x1
ARM GAS  C:\Users\jo\AppData\Local\Temp\ccx91ntw.s 			page 89


 5010 0d76 54       		.byte	0x54
 5011 0d77 26000000 		.4byte	.LVL101
 5012 0d7b 2E000000 		.4byte	.LVL103
 5013 0d7f 0300     		.2byte	0x3
 5014 0d81 74       		.byte	0x74
 5015 0d82 7F       		.sleb128 -1
 5016 0d83 9F       		.byte	0x9f
 5017 0d84 2E000000 		.4byte	.LVL103
 5018 0d88 62000000 		.4byte	.LFE7
 5019 0d8c 0100     		.2byte	0x1
 5020 0d8e 54       		.byte	0x54
 5021 0d8f 00000000 		.4byte	0
 5022 0d93 00000000 		.4byte	0
 5023              		.section	.debug_aranges,"",%progbits
 5024 0000 44000000 		.4byte	0x44
 5025 0004 0200     		.2byte	0x2
 5026 0006 00000000 		.4byte	.Ldebug_info0
 5027 000a 04       		.byte	0x4
 5028 000b 00       		.byte	0
 5029 000c 0000     		.2byte	0
 5030 000e 0000     		.2byte	0
 5031 0010 00000000 		.4byte	.LFB1
 5032 0014 62000000 		.4byte	.LFE1-.LFB1
 5033 0018 00000000 		.4byte	.LFB3
 5034 001c CC000000 		.4byte	.LFE3-.LFB3
 5035 0020 00000000 		.4byte	.LFB4
 5036 0024 C8000000 		.4byte	.LFE4-.LFB4
 5037 0028 00000000 		.4byte	.LFB5
 5038 002c BE000000 		.4byte	.LFE5-.LFB5
 5039 0030 00000000 		.4byte	.LFB6
 5040 0034 7E000000 		.4byte	.LFE6-.LFB6
 5041 0038 00000000 		.4byte	.LFB7
 5042 003c 62000000 		.4byte	.LFE7-.LFB7
 5043 0040 00000000 		.4byte	0
 5044 0044 00000000 		.4byte	0
 5045              		.section	.debug_ranges,"",%progbits
 5046              	.Ldebug_ranges0:
 5047 0000 00000000 		.4byte	.LFB1
 5048 0004 62000000 		.4byte	.LFE1
 5049 0008 00000000 		.4byte	.LFB3
 5050 000c CC000000 		.4byte	.LFE3
 5051 0010 00000000 		.4byte	.LFB4
 5052 0014 C8000000 		.4byte	.LFE4
 5053 0018 00000000 		.4byte	.LFB5
 5054 001c BE000000 		.4byte	.LFE5
 5055 0020 00000000 		.4byte	.LFB6
 5056 0024 7E000000 		.4byte	.LFE6
 5057 0028 00000000 		.4byte	.LFB7
 5058 002c 62000000 		.4byte	.LFE7
 5059 0030 00000000 		.4byte	0
 5060 0034 00000000 		.4byte	0
 5061              		.section	.debug_line,"",%progbits
 5062              	.Ldebug_line0:
 5063 0000 C4030000 		.section	.debug_str,"MS",%progbits,1
 5063      0200C301 
 5063      00000201 
 5063      FB0E0D00 
ARM GAS  C:\Users\jo\AppData\Local\Temp\ccx91ntw.s 			page 90


 5063      01010101 
 5064              	.LASF35:
 5065 0000 433A5C55 		.ascii	"C:\\Users\\jo\\Documents\\GitHub\\ChibiOS\\demos\\S"
 5065      73657273 
 5065      5C6A6F5C 
 5065      446F6375 
 5065      6D656E74 
 5066 002c 544D3332 		.ascii	"TM32\\RT-STM32F407-DISCOVERY-uHttp\000"
 5066      5C52542D 
 5066      53544D33 
 5066      32463430 
 5066      372D4449 
 5067              	.LASF20:
 5068 004e 626C6F77 		.ascii	"blowfish_setkey\000"
 5068      66697368 
 5068      5F736574 
 5068      6B657900 
 5069              	.LASF31:
 5070 005e 6E6F6E63 		.ascii	"nonce_counter\000"
 5070      655F636F 
 5070      756E7465 
 5070      7200
 5071              	.LASF6:
 5072 006c 73697A65 		.ascii	"size_t\000"
 5072      5F7400
 5073              	.LASF16:
 5074 0073 6B657973 		.ascii	"keysize\000"
 5074      697A6500 
 5075              	.LASF18:
 5076 007b 64617461 		.ascii	"datal\000"
 5076      6C00
 5077              	.LASF34:
 5078 0081 2E2E2F2E 		.ascii	"../../../os/ext/PolarSSL/library/blowfish.c\000"
 5078      2E2F2E2E 
 5078      2F6F732F 
 5078      6578742F 
 5078      506F6C61 
 5079              	.LASF33:
 5080 00ad 474E5520 		.ascii	"GNU C 4.9.3 20141119 (release) [ARM/embedded-4_9-br"
 5080      4320342E 
 5080      392E3320 
 5080      32303134 
 5080      31313139 
 5081 00e0 616E6368 		.ascii	"anch revision 218278] -mcpu=cortex-m4 -mno-thumb-in"
 5081      20726576 
 5081      6973696F 
 5081      6E203231 
 5081      38323738 
 5082 0113 74657277 		.ascii	"terwork -mthumb -ggdb -O2 -fomit-frame-pointer -fal"
 5082      6F726B20 
 5082      2D6D7468 
 5082      756D6220 
 5082      2D676764 
 5083 0146 69676E2D 		.ascii	"ign-functions=16 -ffunction-sections -fdata-section"
 5083      66756E63 
 5083      74696F6E 
 5083      733D3136 
ARM GAS  C:\Users\jo\AppData\Local\Temp\ccx91ntw.s 			page 91


 5083      202D6666 
 5084 0179 73202D66 		.ascii	"s -fno-common\000"
 5084      6E6F2D63 
 5084      6F6D6D6F 
 5084      6E00
 5085              	.LASF19:
 5086 0187 64617461 		.ascii	"datar\000"
 5086      7200
 5087              	.LASF29:
 5088 018d 626C6F77 		.ascii	"blowfish_crypt_ctr\000"
 5088      66697368 
 5088      5F637279 
 5088      70745F63 
 5088      747200
 5089              	.LASF27:
 5090 01a0 626C6F77 		.ascii	"blowfish_crypt_cfb64\000"
 5090      66697368 
 5090      5F637279 
 5090      70745F63 
 5090      66623634 
 5091              	.LASF37:
 5092 01b5 626C6F77 		.ascii	"blowfish_dec\000"
 5092      66697368 
 5092      5F646563 
 5092      00
 5093              	.LASF17:
 5094 01c2 64617461 		.ascii	"data\000"
 5094      00
 5095              	.LASF2:
 5096 01c7 756E7369 		.ascii	"unsigned char\000"
 5096      676E6564 
 5096      20636861 
 5096      7200
 5097              	.LASF23:
 5098 01d5 696E7075 		.ascii	"input\000"
 5098      7400
 5099              	.LASF28:
 5100 01db 69765F6F 		.ascii	"iv_off\000"
 5100      666600
 5101              	.LASF30:
 5102 01e2 6E635F6F 		.ascii	"nc_off\000"
 5102      666600
 5103              	.LASF4:
 5104 01e9 73686F72 		.ascii	"short unsigned int\000"
 5104      7420756E 
 5104      7369676E 
 5104      65642069 
 5104      6E7400
 5105              	.LASF13:
 5106 01fc 75696E74 		.ascii	"uint32_t\000"
 5106      33325F74 
 5106      00
 5107              	.LASF32:
 5108 0205 73747265 		.ascii	"stream_block\000"
 5108      616D5F62 
 5108      6C6F636B 
 5108      00
ARM GAS  C:\Users\jo\AppData\Local\Temp\ccx91ntw.s 			page 92


 5109              	.LASF8:
 5110 0212 6C6F6E67 		.ascii	"long unsigned int\000"
 5110      20756E73 
 5110      69676E65 
 5110      6420696E 
 5110      7400
 5111              	.LASF36:
 5112 0224 626C6F77 		.ascii	"blowfish_enc\000"
 5112      66697368 
 5112      5F656E63 
 5112      00
 5113              	.LASF7:
 5114 0231 5F5F7569 		.ascii	"__uint32_t\000"
 5114      6E743332 
 5114      5F7400
 5115              	.LASF25:
 5116 023c 626C6F77 		.ascii	"blowfish_crypt_cbc\000"
 5116      66697368 
 5116      5F637279 
 5116      70745F63 
 5116      626300
 5117              	.LASF0:
 5118 024f 756E7369 		.ascii	"unsigned int\000"
 5118      676E6564 
 5118      20696E74 
 5118      00
 5119              	.LASF15:
 5120 025c 74656D70 		.ascii	"temp\000"
 5120      00
 5121              	.LASF10:
 5122 0261 6C6F6E67 		.ascii	"long long unsigned int\000"
 5122      206C6F6E 
 5122      6720756E 
 5122      7369676E 
 5122      65642069 
 5123              	.LASF22:
 5124 0278 6D6F6465 		.ascii	"mode\000"
 5124      00
 5125              	.LASF11:
 5126 027d 73697A65 		.ascii	"sizetype\000"
 5126      74797065 
 5126      00
 5127              	.LASF9:
 5128 0286 6C6F6E67 		.ascii	"long long int\000"
 5128      206C6F6E 
 5128      6720696E 
 5128      7400
 5129              	.LASF12:
 5130 0294 63686172 		.ascii	"char\000"
 5130      00
 5131              	.LASF21:
 5132 0299 626C6F77 		.ascii	"blowfish_crypt_ecb\000"
 5132      66697368 
 5132      5F637279 
 5132      70745F65 
 5132      636200
 5133              	.LASF3:
ARM GAS  C:\Users\jo\AppData\Local\Temp\ccx91ntw.s 			page 93


 5134 02ac 73686F72 		.ascii	"short int\000"
 5134      7420696E 
 5134      7400
 5135              	.LASF24:
 5136 02b6 6F757470 		.ascii	"output\000"
 5136      757400
 5137              	.LASF5:
 5138 02bd 6C6F6E67 		.ascii	"long int\000"
 5138      20696E74 
 5138      00
 5139              	.LASF1:
 5140 02c6 7369676E 		.ascii	"signed char\000"
 5140      65642063 
 5140      68617200 
 5141              	.LASF14:
 5142 02d2 626C6F77 		.ascii	"blowfish_context\000"
 5142      66697368 
 5142      5F636F6E 
 5142      74657874 
 5142      00
 5143              	.LASF26:
 5144 02e3 6C656E67 		.ascii	"length\000"
 5144      746800
 5145              		.ident	"GCC: (GNU Tools for ARM Embedded Processors) 4.9.3 20141119 (release) [ARM/embedded-4_9-br
ARM GAS  C:\Users\jo\AppData\Local\Temp\ccx91ntw.s 			page 94


DEFINED SYMBOLS
                            *ABS*:00000000 blowfish.c
C:\Users\jo\AppData\Local\Temp\ccx91ntw.s:19     .text.blowfish_enc:00000000 $t
C:\Users\jo\AppData\Local\Temp\ccx91ntw.s:24     .text.blowfish_enc:00000000 blowfish_enc
C:\Users\jo\AppData\Local\Temp\ccx91ntw.s:121    .text.blowfish_setkey:00000000 $t
C:\Users\jo\AppData\Local\Temp\ccx91ntw.s:127    .text.blowfish_setkey:00000000 blowfish_setkey
C:\Users\jo\AppData\Local\Temp\ccx91ntw.s:285    .text.blowfish_setkey:000000c4 $d
C:\Users\jo\AppData\Local\Temp\ccx91ntw.s:291    .text.blowfish_crypt_ecb:00000000 $t
C:\Users\jo\AppData\Local\Temp\ccx91ntw.s:297    .text.blowfish_crypt_ecb:00000000 blowfish_crypt_ecb
C:\Users\jo\AppData\Local\Temp\ccx91ntw.s:465    .text.blowfish_crypt_cbc:00000000 $t
C:\Users\jo\AppData\Local\Temp\ccx91ntw.s:471    .text.blowfish_crypt_cbc:00000000 blowfish_crypt_cbc
C:\Users\jo\AppData\Local\Temp\ccx91ntw.s:625    .text.blowfish_crypt_cfb64:00000000 $t
C:\Users\jo\AppData\Local\Temp\ccx91ntw.s:631    .text.blowfish_crypt_cfb64:00000000 blowfish_crypt_cfb64
C:\Users\jo\AppData\Local\Temp\ccx91ntw.s:754    .text.blowfish_crypt_ctr:00000000 $t
C:\Users\jo\AppData\Local\Temp\ccx91ntw.s:760    .text.blowfish_crypt_ctr:00000000 blowfish_crypt_ctr
C:\Users\jo\AppData\Local\Temp\ccx91ntw.s:855    .rodata.P:00000000 $d
C:\Users\jo\AppData\Local\Temp\ccx91ntw.s:859    .rodata.P:00000000 P
C:\Users\jo\AppData\Local\Temp\ccx91ntw.s:879    .rodata.S:00000000 $d
C:\Users\jo\AppData\Local\Temp\ccx91ntw.s:883    .rodata.S:00000000 S
                     .debug_frame:00000010 $d
C:\Users\jo\AppData\Local\Temp\ccx91ntw.s:290    .text.blowfish_setkey:000000cc $t

NO UNDEFINED SYMBOLS
