ARM GAS  C:\Users\jo\AppData\Local\Temp\ccGejNPS.s 			page 1


   1              		.syntax unified
   2              		.cpu cortex-m4
   3              		.fpu softvfp
   4              		.eabi_attribute 20, 1
   5              		.eabi_attribute 21, 1
   6              		.eabi_attribute 23, 3
   7              		.eabi_attribute 24, 1
   8              		.eabi_attribute 25, 1
   9              		.eabi_attribute 26, 1
  10              		.eabi_attribute 30, 2
  11              		.eabi_attribute 34, 1
  12              		.eabi_attribute 18, 4
  13              		.thumb
  14              		.file	"camellia.c"
  15              		.text
  16              	.Ltext0:
  17              		.cfi_sections	.debug_frame
  18              		.section	.text.camellia_feistel,"ax",%progbits
  19              		.align	2
  20              		.p2align 4,,15
  21              		.thumb
  22              		.thumb_func
  23              		.type	camellia_feistel, %function
  24              	camellia_feistel:
  25              	.LFB0:
  26              		.file 1 "../../../os/ext/PolarSSL/library/camellia.c"
  27              		.loc 1 286 0
  28              		.cfi_startproc
  29              		@ args = 0, pretend = 0, frame = 0
  30              		@ frame_needed = 0, uses_anonymous_args = 0
  31              	.LVL0:
  32 0000 2DE9F047 		push	{r4, r5, r6, r7, r8, r9, r10, lr}
  33              		.cfi_def_cfa_offset 32
  34              		.cfi_offset 4, -32
  35              		.cfi_offset 5, -28
  36              		.cfi_offset 6, -24
  37              		.cfi_offset 7, -20
  38              		.cfi_offset 8, -16
  39              		.cfi_offset 9, -12
  40              		.cfi_offset 10, -8
  41              		.cfi_offset 14, -4
  42              		.loc 1 288 0
  43 0004 D0F800E0 		ldr	lr, [r0]
  44              		.loc 1 289 0
  45 0008 4568     		ldr	r5, [r0, #4]
  46              		.loc 1 288 0
  47 000a 0E68     		ldr	r6, [r1]
  48              		.loc 1 289 0
  49 000c 4868     		ldr	r0, [r1, #4]
  50              	.LVL1:
  51              		.loc 1 291 0
  52 000e 1F4C     		ldr	r4, .L3
  53              		.loc 1 292 0
  54 0010 1F49     		ldr	r1, .L3+4
  55              	.LVL2:
  56              		.loc 1 294 0
  57 0012 204F     		ldr	r7, .L3+8
ARM GAS  C:\Users\jo\AppData\Local\Temp\ccGejNPS.s 			page 2


  58              		.loc 1 293 0
  59 0014 204B     		ldr	r3, .L3+12
  60              		.loc 1 288 0
  61 0016 8EEA0606 		eor	r6, lr, r6
  62              	.LVL3:
  63              		.loc 1 289 0
  64 001a 4540     		eors	r5, r5, r0
  65              	.LVL4:
  66              		.loc 1 291 0
  67 001c 4FEA1669 		lsr	r9, r6, #24
  68              		.loc 1 294 0
  69 0020 F0B2     		uxtb	r0, r6
  70              		.loc 1 295 0
  71 0022 4FEA1568 		lsr	r8, r5, #24
  72              		.loc 1 298 0
  73 0026 5FFA85FA 		uxtb	r10, r5
  74              		.loc 1 292 0
  75 002a C6F3074C 		ubfx	ip, r6, #16, #8
  76              		.loc 1 296 0
  77 002e C5F3074E 		ubfx	lr, r5, #16, #8
  78              		.loc 1 291 0
  79 0032 14F80990 		ldrb	r9, [r4, r9]	@ zero_extendqisi2
  80              		.loc 1 293 0
  81 0036 385C     		ldrb	r0, [r7, r0]	@ zero_extendqisi2
  82              		.loc 1 295 0
  83 0038 11F80880 		ldrb	r8, [r1, r8]	@ zero_extendqisi2
  84              		.loc 1 297 0
  85 003c 14F80A40 		ldrb	r4, [r4, r10]	@ zero_extendqisi2
  86              		.loc 1 292 0
  87 0040 11F80CC0 		ldrb	ip, [r1, ip]	@ zero_extendqisi2
  88              		.loc 1 296 0
  89 0044 13F80EE0 		ldrb	lr, [r3, lr]	@ zero_extendqisi2
  90              		.loc 1 293 0
  91 0048 C6F30726 		ubfx	r6, r6, #8, #8
  92              	.LVL5:
  93              		.loc 1 297 0
  94 004c C5F30725 		ubfx	r5, r5, #8, #8
  95              	.LVL6:
  96 0050 40EA0961 		orr	r1, r0, r9, lsl #24
  97              		.loc 1 293 0
  98 0054 9B5D     		ldrb	r3, [r3, r6]	@ zero_extendqisi2
  99              		.loc 1 297 0
 100 0056 7D5D     		ldrb	r5, [r7, r5]	@ zero_extendqisi2
 101 0058 44EA0860 		orr	r0, r4, r8, lsl #24
 102 005c 41EA0C41 		orr	r1, r1, ip, lsl #16
 103 0060 40EA0E40 		orr	r0, r0, lr, lsl #16
 104              		.loc 1 293 0
 105 0064 41EA0323 		orr	r3, r1, r3, lsl #8
 106              	.LVL7:
 107              		.loc 1 297 0
 108 0068 40EA0521 		orr	r1, r0, r5, lsl #8
 109              	.LVL8:
 110              		.loc 1 306 0
 111 006c 92E81100 		ldmia	r2, {r0, r4}
 112              		.loc 1 300 0
 113 0070 83EA3163 		eor	r3, r3, r1, ror #24
 114              	.LVL9:
ARM GAS  C:\Users\jo\AppData\Local\Temp\ccGejNPS.s 			page 3


 115              		.loc 1 301 0
 116 0074 81EA3341 		eor	r1, r1, r3, ror #16
 117              	.LVL10:
 118              		.loc 1 302 0
 119 0078 83EA3123 		eor	r3, r3, r1, ror #8
 120              	.LVL11:
 121 007c 4140     		eors	r1, r1, r0
 122              	.LVL12:
 123              		.loc 1 305 0
 124 007e 81EA3321 		eor	r1, r1, r3, ror #8
 125              		.loc 1 306 0
 126 0082 6340     		eors	r3, r3, r4
 127              	.LVL13:
 128 0084 82E80A00 		stmia	r2, {r1, r3}
 129              	.LVL14:
 130 0088 BDE8F087 		pop	{r4, r5, r6, r7, r8, r9, r10, pc}
 131              	.L4:
 132              		.align	2
 133              	.L3:
 134 008c 00000000 		.word	.LANCHOR0
 135 0090 00000000 		.word	.LANCHOR2
 136 0094 00000000 		.word	.LANCHOR1
 137 0098 00000000 		.word	.LANCHOR3
 138              		.cfi_endproc
 139              	.LFE0:
 140              		.size	camellia_feistel, .-camellia_feistel
 141 009c AFF30080 		.section	.text.camellia_setkey_enc,"ax",%progbits
 142              		.align	2
 143              		.p2align 4,,15
 144              		.global	camellia_setkey_enc
 145              		.thumb
 146              		.thumb_func
 147              		.type	camellia_setkey_enc, %function
 148              	camellia_setkey_enc:
 149              	.LFB1:
 150              		.loc 1 313 0
 151              		.cfi_startproc
 152              		@ args = 0, pretend = 0, frame = 272
 153              		@ frame_needed = 0, uses_anonymous_args = 0
 154              	.LVL15:
 155 0000 2DE9F04F 		push	{r4, r5, r6, r7, r8, r9, r10, fp, lr}
 156              		.cfi_def_cfa_offset 36
 157              		.cfi_offset 4, -36
 158              		.cfi_offset 5, -32
 159              		.cfi_offset 6, -28
 160              		.cfi_offset 7, -24
 161              		.cfi_offset 8, -20
 162              		.cfi_offset 9, -16
 163              		.cfi_offset 10, -12
 164              		.cfi_offset 11, -8
 165              		.cfi_offset 14, -4
 166 0004 C5B0     		sub	sp, sp, #276
 167              		.cfi_def_cfa_offset 312
 168              		.loc 1 313 0
 169 0006 9146     		mov	r9, r2
 170              		.loc 1 322 0
 171 0008 041D     		adds	r4, r0, #4
ARM GAS  C:\Users\jo\AppData\Local\Temp\ccGejNPS.s 			page 4


 172              	.LVL16:
 173              		.loc 1 324 0
 174 000a 4022     		movs	r2, #64
 175              	.LVL17:
 176              		.loc 1 313 0
 177 000c 0646     		mov	r6, r0
 178 000e 0D46     		mov	r5, r1
 179              		.loc 1 324 0
 180 0010 10A8     		add	r0, sp, #64
 181              	.LVL18:
 182 0012 0021     		movs	r1, #0
 183              	.LVL19:
 184 0014 FFF7FEFF 		bl	memset
 185              	.LVL20:
 186              		.loc 1 325 0
 187 0018 2046     		mov	r0, r4
 188 001a 0021     		movs	r1, #0
 189 001c 4FF48872 		mov	r2, #272
 190 0020 FFF7FEFF 		bl	memset
 191              	.LVL21:
 192              		.loc 1 327 0
 193 0024 B9F1C00F 		cmp	r9, #192
 194 0028 00F0F681 		beq	.L7
 195 002c B9F5807F 		cmp	r9, #256
 196 0030 00F0F281 		beq	.L7
 197 0034 B9F1800F 		cmp	r9, #128
 198 0038 04D0     		beq	.L95
 199              		.loc 1 332 0
 200 003a 6FF02300 		mvn	r0, #35
 201              		.loc 1 411 0
 202 003e 45B0     		add	sp, sp, #276
 203              		.cfi_remember_state
 204              		.cfi_def_cfa_offset 36
 205              		@ sp needed
 206 0040 BDE8F08F 		pop	{r4, r5, r6, r7, r8, r9, r10, fp, pc}
 207              	.LVL22:
 208              	.L95:
 209              		.cfi_restore_state
 210              		.loc 1 329 0
 211 0044 0323     		movs	r3, #3
 212 0046 3360     		str	r3, [r6]
 213              	.LVL23:
 214 0048 4FF0000A 		mov	r10, #0
 215              		.loc 1 335 0
 216 004c 1026     		movs	r6, #16
 217              	.LVL24:
 218              	.L9:
 219 004e 6A1E     		subs	r2, r5, #1
 220 0050 0DF13F01 		add	r1, sp, #63
 221              		.loc 1 329 0 discriminator 3
 222 0054 0023     		movs	r3, #0
 223              	.LVL25:
 224              	.L10:
 225              		.loc 1 335 0 discriminator 3
 226 0056 0133     		adds	r3, r3, #1
 227              	.LVL26:
 228              		.loc 1 336 0 discriminator 3
ARM GAS  C:\Users\jo\AppData\Local\Temp\ccGejNPS.s 			page 5


 229 0058 12F8010F 		ldrb	r0, [r2, #1]!	@ zero_extendqisi2
 230 005c 01F8010F 		strb	r0, [r1, #1]!
 231              		.loc 1 335 0 discriminator 3
 232 0060 9E42     		cmp	r6, r3
 233 0062 F8D8     		bhi	.L10
 234              		.loc 1 338 0
 235 0064 B9F1C00F 		cmp	r9, #192
 236 0068 00F0DD81 		beq	.L11
 237              	.LVL27:
 238              	.L14:
 239 006c B64F     		ldr	r7, .L96
 240 006e 04AE     		add	r6, sp, #16
 241 0070 3846     		mov	r0, r7
 242              		.loc 1 329 0
 243 0072 0025     		movs	r5, #0
 244              	.LVL28:
 245              	.L12:
 246              		.loc 1 347 0 discriminator 3
 247 0074 4278     		ldrb	r2, [r0, #1]	@ zero_extendqisi2
 248 0076 17F83510 		ldrb	r1, [r7, r5, lsl #3]	@ zero_extendqisi2
 249              		.loc 1 348 0 discriminator 3
 250 007a 4379     		ldrb	r3, [r0, #5]	@ zero_extendqisi2
 251 007c 90F80480 		ldrb	r8, [r0, #4]	@ zero_extendqisi2
 252              		.loc 1 347 0 discriminator 3
 253 0080 90F803E0 		ldrb	lr, [r0, #3]	@ zero_extendqisi2
 254 0084 90F802C0 		ldrb	ip, [r0, #2]	@ zero_extendqisi2
 255 0088 1204     		lsls	r2, r2, #16
 256 008a 42EA0161 		orr	r1, r2, r1, lsl #24
 257              		.loc 1 348 0 discriminator 3
 258 008e 1B04     		lsls	r3, r3, #16
 259 0090 C279     		ldrb	r2, [r0, #7]	@ zero_extendqisi2
 260 0092 43EA0863 		orr	r3, r3, r8, lsl #24
 261 0096 41EA0E01 		orr	r1, r1, lr
 262 009a 1343     		orrs	r3, r3, r2
 263              		.loc 1 347 0 discriminator 3
 264 009c 04AA     		add	r2, sp, #16
 265              		.loc 1 348 0 discriminator 3
 266 009e 90F806E0 		ldrb	lr, [r0, #6]	@ zero_extendqisi2
 267              		.loc 1 347 0 discriminator 3
 268 00a2 41EA0C21 		orr	r1, r1, ip, lsl #8
 269 00a6 42F83510 		str	r1, [r2, r5, lsl #3]
 270              		.loc 1 346 0 discriminator 3
 271 00aa 0135     		adds	r5, r5, #1
 272              	.LVL29:
 273              		.loc 1 348 0 discriminator 3
 274 00ac 43EA0E23 		orr	r3, r3, lr, lsl #8
 275              		.loc 1 346 0 discriminator 3
 276 00b0 062D     		cmp	r5, #6
 277              		.loc 1 348 0 discriminator 3
 278 00b2 7360     		str	r3, [r6, #4]
 279 00b4 00F10800 		add	r0, r0, #8
 280 00b8 06F10806 		add	r6, r6, #8
 281              		.loc 1 346 0 discriminator 3
 282 00bc DAD1     		bne	.L12
 283              		.loc 1 355 0
 284 00be 20A8     		add	r0, sp, #128
 285 00c0 0021     		movs	r1, #0
ARM GAS  C:\Users\jo\AppData\Local\Temp\ccGejNPS.s 			page 6


 286 00c2 4022     		movs	r2, #64
 287 00c4 FFF7FEFF 		bl	memset
 288              	.LVL30:
 289 00c8 0DF14105 		add	r5, sp, #65
 290 00cc 1FAE     		add	r6, sp, #124
 291 00ce 0DF16107 		add	r7, sp, #97
 292              	.LVL31:
 293              	.L15:
 294              		.loc 1 359 0 discriminator 3
 295 00d2 2978     		ldrb	r1, [r5]	@ zero_extendqisi2
 296 00d4 15F8013C 		ldrb	r3, [r5, #-1]	@ zero_extendqisi2
 297 00d8 AA78     		ldrb	r2, [r5, #2]	@ zero_extendqisi2
 298 00da 6878     		ldrb	r0, [r5, #1]	@ zero_extendqisi2
 299 00dc 0904     		lsls	r1, r1, #16
 300 00de 41EA0363 		orr	r3, r1, r3, lsl #24
 301 00e2 1343     		orrs	r3, r3, r2
 302 00e4 0435     		adds	r5, r5, #4
 303 00e6 43EA0023 		orr	r3, r3, r0, lsl #8
 304              		.loc 1 358 0 discriminator 3
 305 00ea BD42     		cmp	r5, r7
 306              		.loc 1 359 0 discriminator 3
 307 00ec 46F8043F 		str	r3, [r6, #4]!
 308              		.loc 1 358 0 discriminator 3
 309 00f0 EFD1     		bne	.L15
 310 00f2 20A9     		add	r1, sp, #128
 311 00f4 24A8     		add	r0, sp, #144
 312              	.L16:
 313              		.loc 1 363 0 discriminator 3
 314 00f6 51F8043B 		ldr	r3, [r1], #4
 315 00fa CA68     		ldr	r2, [r1, #12]
 316              		.loc 1 362 0 discriminator 3
 317 00fc 8142     		cmp	r1, r0
 318              		.loc 1 363 0 discriminator 3
 319 00fe 83EA0203 		eor	r3, r3, r2
 320 0102 CB61     		str	r3, [r1, #28]
 321              		.loc 1 362 0 discriminator 3
 322 0104 F7D1     		bne	.L16
 323              		.loc 1 365 0
 324 0106 04A9     		add	r1, sp, #16
 325 0108 28A8     		add	r0, sp, #160
 326 010a 2AAA     		add	r2, sp, #168
 327 010c FFF7FEFF 		bl	camellia_feistel
 328              	.LVL32:
 329 0110 27AD     		add	r5, sp, #156
 330              		.loc 1 366 0
 331 0112 2AA8     		add	r0, sp, #168
 332 0114 06A9     		add	r1, sp, #24
 333 0116 28AA     		add	r2, sp, #160
 334 0118 FFF7FEFF 		bl	camellia_feistel
 335              	.LVL33:
 336 011c 2946     		mov	r1, r5
 337 011e 2BA8     		add	r0, sp, #172
 338              	.LVL34:
 339              	.L17:
 340              		.loc 1 369 0 discriminator 3
 341 0120 51F8042F 		ldr	r2, [r1, #4]!
 342 0124 51F8203C 		ldr	r3, [r1, #-32]
ARM GAS  C:\Users\jo\AppData\Local\Temp\ccGejNPS.s 			page 7


 343              		.loc 1 368 0 discriminator 3
 344 0128 8142     		cmp	r1, r0
 345              		.loc 1 369 0 discriminator 3
 346 012a 83EA0203 		eor	r3, r3, r2
 347 012e 0B60     		str	r3, [r1]
 348              		.loc 1 368 0 discriminator 3
 349 0130 F6D1     		bne	.L17
 350              		.loc 1 371 0
 351 0132 28A8     		add	r0, sp, #160
 352 0134 08A9     		add	r1, sp, #32
 353 0136 2AAA     		add	r2, sp, #168
 354 0138 FFF7FEFF 		bl	camellia_feistel
 355              	.LVL35:
 356              		.loc 1 372 0
 357 013c 2AA8     		add	r0, sp, #168
 358 013e 28AA     		add	r2, sp, #160
 359 0140 0AA9     		add	r1, sp, #40
 360 0142 FFF7FEFF 		bl	camellia_feistel
 361              	.LVL36:
 362              		.loc 1 374 0
 363 0146 B9F1800F 		cmp	r9, #128
 364 014a 12D9     		bls	.L18
 365 014c 23AB     		add	r3, sp, #140
 366              	.L19:
 367 014e 0433     		adds	r3, r3, #4
 368              		.loc 1 377 0 discriminator 3
 369 0150 1969     		ldr	r1, [r3, #16]
 370 0152 1A68     		ldr	r2, [r3]
 371              		.loc 1 376 0 discriminator 3
 372 0154 AB42     		cmp	r3, r5
 373              		.loc 1 377 0 discriminator 3
 374 0156 82EA0102 		eor	r2, r2, r1
 375 015a 1A62     		str	r2, [r3, #32]
 376              		.loc 1 376 0 discriminator 3
 377 015c F7D1     		bne	.L19
 378              		.loc 1 379 0
 379 015e 2CA8     		add	r0, sp, #176
 380 0160 2EAA     		add	r2, sp, #184
 381 0162 0CA9     		add	r1, sp, #48
 382 0164 FFF7FEFF 		bl	camellia_feistel
 383              	.LVL37:
 384              		.loc 1 380 0
 385 0168 2EA8     		add	r0, sp, #184
 386 016a 2CAA     		add	r2, sp, #176
 387 016c 0EA9     		add	r1, sp, #56
 388 016e FFF7FEFF 		bl	camellia_feistel
 389              	.LVL38:
 390              	.L18:
 391              		.loc 1 388 0
 392 0172 2098     		ldr	r0, [sp, #128]
 393 0174 754D     		ldr	r5, .L96+4
 394 0176 219B     		ldr	r3, [sp, #132]
 395 0178 229A     		ldr	r2, [sp, #136]
 396 017a 2399     		ldr	r1, [sp, #140]
 397 017c 3090     		str	r0, [sp, #192]
 398 017e 0DF1C00E 		add	lr, sp, #192
 399 0182 4FEA0A10 		lsl	r0, r10, #4
ARM GAS  C:\Users\jo\AppData\Local\Temp\ccGejNPS.s 			page 8


 400 0186 2F18     		adds	r7, r5, r0
 401 0188 3193     		str	r3, [sp, #196]
 402 018a 0290     		str	r0, [sp, #8]
 403 018c 3292     		str	r2, [sp, #200]
 404 018e 3391     		str	r1, [sp, #204]
 405              	.LVL39:
 406 0190 7346     		mov	r3, lr
 407 0192 0DF58078 		add	r8, sp, #256
 408 0196 0F25     		movs	r5, #15
 409 0198 2646     		mov	r6, r4
 410              	.LVL40:
 411              	.L21:
 412              		.loc 1 388 0 is_stmt 0 discriminator 6
 413 019a 17F8010B 		ldrb	r0, [r7], #1	@ zero_extendqisi2
 414 019e 05F01F02 		and	r2, r5, #31
 415 01a2 C2F12001 		rsb	r1, r2, #32
 416 01a6 0F35     		adds	r5, r5, #15
 417 01a8 B8B1     		cbz	r0, .L20
 418              		.loc 1 388 0 discriminator 2
 419 01aa 319C     		ldr	r4, [sp, #196]
 420 01ac 3098     		ldr	r0, [sp, #192]
 421 01ae CC40     		lsrs	r4, r4, r1
 422 01b0 9040     		lsls	r0, r0, r2
 423 01b2 6040     		eors	r0, r0, r4
 424 01b4 1861     		str	r0, [r3, #16]
 425 01b6 329C     		ldr	r4, [sp, #200]
 426 01b8 3198     		ldr	r0, [sp, #196]
 427 01ba CC40     		lsrs	r4, r4, r1
 428 01bc 9040     		lsls	r0, r0, r2
 429 01be 6040     		eors	r0, r0, r4
 430 01c0 5861     		str	r0, [r3, #20]
 431 01c2 339C     		ldr	r4, [sp, #204]
 432 01c4 3298     		ldr	r0, [sp, #200]
 433 01c6 CC40     		lsrs	r4, r4, r1
 434 01c8 9040     		lsls	r0, r0, r2
 435 01ca 6040     		eors	r0, r0, r4
 436 01cc 9861     		str	r0, [r3, #24]
 437 01ce 309C     		ldr	r4, [sp, #192]
 438 01d0 3398     		ldr	r0, [sp, #204]
 439 01d2 CC40     		lsrs	r4, r4, r1
 440 01d4 9040     		lsls	r0, r0, r2
 441 01d6 6040     		eors	r0, r0, r4
 442 01d8 D861     		str	r0, [r3, #28]
 443              	.L20:
 444 01da 1033     		adds	r3, r3, #16
 445              		.loc 1 388 0 discriminator 4
 446 01dc 4345     		cmp	r3, r8
 447 01de DCD1     		bne	.L21
 448 01e0 4FEA8A03 		lsl	r3, r10, #2
 449 01e4 0393     		str	r3, [sp, #12]
 450 01e6 5344     		add	r3, r3, r10
 451 01e8 1B01     		lsls	r3, r3, #4
 452 01ea DFF868B1 		ldr	fp, .L96+12
 453 01ee 0193     		str	r3, [sp, #4]
 454 01f0 5A1E     		subs	r2, r3, #1
 455 01f2 1333     		adds	r3, r3, #19
 456 01f4 3446     		mov	r4, r6
ARM GAS  C:\Users\jo\AppData\Local\Temp\ccGejNPS.s 			page 9


 457 01f6 5A44     		add	r2, r2, fp
 458 01f8 5B44     		add	r3, r3, fp
 459              		.loc 1 388 0
 460 01fa 7146     		mov	r1, lr
 461              	.LVL41:
 462              	.L23:
 463              		.loc 1 388 0 discriminator 13
 464 01fc 12F9010F 		ldrsb	r0, [r2, #1]!
 465 0200 461C     		adds	r6, r0, #1
 466 0202 1CBF     		itt	ne
 467 0204 0D68     		ldrne	r5, [r1]
 468 0206 44F82050 		strne	r5, [r4, r0, lsl #2]
 469 020a 9A42     		cmp	r2, r3
 470 020c 01F10401 		add	r1, r1, #4
 471 0210 F4D1     		bne	.L23
 472              		.loc 1 391 0 is_stmt 1
 473 0212 B9F1800F 		cmp	r9, #128
 474 0216 00F2B680 		bhi	.L24
 475 021a 019B     		ldr	r3, [sp, #4]
 476 021c 03F1270C 		add	ip, r3, #39
 477              	.L30:
 478              		.loc 1 396 0
 479 0220 289B     		ldr	r3, [sp, #160]
 480 0222 3093     		str	r3, [sp, #192]
 481 0224 029B     		ldr	r3, [sp, #8]
 482 0226 299A     		ldr	r2, [sp, #164]
 483 0228 2A99     		ldr	r1, [sp, #168]
 484 022a 2B98     		ldr	r0, [sp, #172]
 485 022c 3192     		str	r2, [sp, #196]
 486 022e DF1D     		adds	r7, r3, #7
 487 0230 464B     		ldr	r3, .L96+4
 488 0232 3291     		str	r1, [sp, #200]
 489 0234 1F44     		add	r7, r7, r3
 490 0236 3390     		str	r0, [sp, #204]
 491              	.LVL42:
 492 0238 7346     		mov	r3, lr
 493 023a 0F25     		movs	r5, #15
 494 023c 2646     		mov	r6, r4
 495              	.LVL43:
 496              	.L25:
 497              		.loc 1 396 0 is_stmt 0 discriminator 6
 498 023e 17F8010F 		ldrb	r0, [r7, #1]!	@ zero_extendqisi2
 499 0242 05F01F02 		and	r2, r5, #31
 500 0246 C2F12001 		rsb	r1, r2, #32
 501 024a 0F35     		adds	r5, r5, #15
 502 024c B8B1     		cbz	r0, .L31
 503              		.loc 1 396 0 discriminator 2
 504 024e 319C     		ldr	r4, [sp, #196]
 505 0250 3098     		ldr	r0, [sp, #192]
 506 0252 CC40     		lsrs	r4, r4, r1
 507 0254 9040     		lsls	r0, r0, r2
 508 0256 6040     		eors	r0, r0, r4
 509 0258 1861     		str	r0, [r3, #16]
 510 025a 329C     		ldr	r4, [sp, #200]
 511 025c 3198     		ldr	r0, [sp, #196]
 512 025e CC40     		lsrs	r4, r4, r1
 513 0260 9040     		lsls	r0, r0, r2
ARM GAS  C:\Users\jo\AppData\Local\Temp\ccGejNPS.s 			page 10


 514 0262 6040     		eors	r0, r0, r4
 515 0264 5861     		str	r0, [r3, #20]
 516 0266 339C     		ldr	r4, [sp, #204]
 517 0268 3298     		ldr	r0, [sp, #200]
 518 026a CC40     		lsrs	r4, r4, r1
 519 026c 9040     		lsls	r0, r0, r2
 520 026e 6040     		eors	r0, r0, r4
 521 0270 9861     		str	r0, [r3, #24]
 522 0272 309C     		ldr	r4, [sp, #192]
 523 0274 3398     		ldr	r0, [sp, #204]
 524 0276 CC40     		lsrs	r4, r4, r1
 525 0278 9040     		lsls	r0, r0, r2
 526 027a 6040     		eors	r0, r0, r4
 527 027c D861     		str	r0, [r3, #28]
 528              	.L31:
 529 027e 1033     		adds	r3, r3, #16
 530              		.loc 1 396 0 discriminator 4
 531 0280 9845     		cmp	r8, r3
 532 0282 DCD1     		bne	.L25
 533 0284 019B     		ldr	r3, [sp, #4]
 534 0286 3B33     		adds	r3, r3, #59
 535 0288 3446     		mov	r4, r6
 536 028a DC44     		add	ip, ip, fp
 537 028c 5B44     		add	r3, r3, fp
 538              		.loc 1 396 0
 539 028e 7246     		mov	r2, lr
 540              	.LVL44:
 541              	.L33:
 542              		.loc 1 396 0 discriminator 13
 543 0290 1CF9011F 		ldrsb	r1, [ip, #1]!
 544 0294 4F1C     		adds	r7, r1, #1
 545 0296 1CBF     		itt	ne
 546 0298 1068     		ldrne	r0, [r2]
 547 029a 44F82100 		strne	r0, [r4, r1, lsl #2]
 548 029e 9C45     		cmp	ip, r3
 549 02a0 02F10402 		add	r2, r2, #4
 550 02a4 F4D1     		bne	.L33
 551              		.loc 1 399 0 is_stmt 1
 552 02a6 B9F1800F 		cmp	r9, #128
 553 02aa 45D9     		bls	.L40
 554 02ac 029A     		ldr	r2, [sp, #8]
 555              		.loc 1 400 0
 556 02ae 2F9D     		ldr	r5, [sp, #188]
 557 02b0 2D99     		ldr	r1, [sp, #180]
 558 02b2 2E98     		ldr	r0, [sp, #184]
 559 02b4 3395     		str	r5, [sp, #204]
 560              	.LVL45:
 561 02b6 02F10B0C 		add	ip, r2, #11
 562 02ba 2C9A     		ldr	r2, [sp, #176]
 563 02bc 3092     		str	r2, [sp, #192]
 564 02be 234A     		ldr	r2, .L96+4
 565 02c0 3191     		str	r1, [sp, #196]
 566 02c2 9444     		add	ip, ip, r2
 567 02c4 3290     		str	r0, [sp, #200]
 568 02c6 7246     		mov	r2, lr
 569 02c8 0F26     		movs	r6, #15
 570 02ca 2746     		mov	r7, r4
ARM GAS  C:\Users\jo\AppData\Local\Temp\ccGejNPS.s 			page 11


 571 02cc 1D46     		mov	r5, r3
 572              	.LVL46:
 573              	.L37:
 574              		.loc 1 400 0 is_stmt 0 discriminator 6
 575 02ce 1CF8011F 		ldrb	r1, [ip, #1]!	@ zero_extendqisi2
 576 02d2 06F01F03 		and	r3, r6, #31
 577 02d6 C3F12000 		rsb	r0, r3, #32
 578 02da 0F36     		adds	r6, r6, #15
 579 02dc C1B1     		cbz	r1, .L36
 580              		.loc 1 400 0 discriminator 2
 581 02de 319C     		ldr	r4, [sp, #196]
 582 02e0 3099     		ldr	r1, [sp, #192]
 583 02e2 C440     		lsrs	r4, r4, r0
 584 02e4 9940     		lsls	r1, r1, r3
 585 02e6 6140     		eors	r1, r1, r4
 586 02e8 1161     		str	r1, [r2, #16]
 587 02ea 329C     		ldr	r4, [sp, #200]
 588 02ec 3199     		ldr	r1, [sp, #196]
 589 02ee C440     		lsrs	r4, r4, r0
 590 02f0 9940     		lsls	r1, r1, r3
 591 02f2 6140     		eors	r1, r1, r4
 592 02f4 5161     		str	r1, [r2, #20]
 593 02f6 339C     		ldr	r4, [sp, #204]
 594 02f8 3299     		ldr	r1, [sp, #200]
 595 02fa C440     		lsrs	r4, r4, r0
 596 02fc 9940     		lsls	r1, r1, r3
 597 02fe 6140     		eors	r1, r1, r4
 598 0300 9161     		str	r1, [r2, #24]
 599 0302 309C     		ldr	r4, [sp, #192]
 600 0304 3399     		ldr	r1, [sp, #204]
 601 0306 C440     		lsrs	r4, r4, r0
 602 0308 9940     		lsls	r1, r1, r3
 603 030a 84EA0103 		eor	r3, r4, r1
 604 030e D361     		str	r3, [r2, #28]
 605              	.L36:
 606 0310 1032     		adds	r2, r2, #16
 607              		.loc 1 400 0 discriminator 4
 608 0312 9045     		cmp	r8, r2
 609 0314 DBD1     		bne	.L37
 610 0316 019A     		ldr	r2, [sp, #4]
 611 0318 4F32     		adds	r2, r2, #79
 612 031a 3C46     		mov	r4, r7
 613 031c 2B46     		mov	r3, r5
 614 031e 9344     		add	fp, fp, r2
 615              	.LVL47:
 616              	.L39:
 617              		.loc 1 400 0 discriminator 13
 618 0320 13F9012F 		ldrsb	r2, [r3, #1]!
 619 0324 561C     		adds	r6, r2, #1
 620 0326 1CBF     		itt	ne
 621 0328 DEF80010 		ldrne	r1, [lr]
 622 032c 44F82210 		strne	r1, [r4, r2, lsl #2]
 623 0330 5B45     		cmp	r3, fp
 624 0332 0EF1040E 		add	lr, lr, #4
 625 0336 F3D1     		bne	.L39
 626              	.L40:
 627              	.LVL48:
ARM GAS  C:\Users\jo\AppData\Local\Temp\ccGejNPS.s 			page 12


 628              		.loc 1 406 0 is_stmt 1
 629 0338 4FEA4A03 		lsl	r3, r10, #1
 630 033c 0399     		ldr	r1, [sp, #12]
 631 033e 044A     		ldr	r2, .L96+8
 632 0340 5344     		add	r3, r3, r10
 633 0342 1B01     		lsls	r3, r3, #4
 634 0344 08E0     		b	.L97
 635              	.L98:
 636 0346 00BF     		.align	2
 637              	.L96:
 638 0348 00000000 		.word	.LANCHOR4
 639 034c 00000000 		.word	.LANCHOR5
 640 0350 00000000 		.word	.LANCHOR7
 641 0354 00000000 		.word	.LANCHOR6
 642              	.L97:
 643 0358 5144     		add	r1, r1, r10
 644 035a 03F1D000 		add	r0, r3, #208
 645 035e 02EB8101 		add	r1, r2, r1, lsl #2
 646 0362 8033     		adds	r3, r3, #128
 647 0364 0139     		subs	r1, r1, #1
 648 0366 2044     		add	r0, r0, r4
 649 0368 2344     		add	r3, r3, r4
 650              	.LVL49:
 651              	.L35:
 652              		.loc 1 405 0
 653 036a 11F9012F 		ldrsb	r2, [r1, #1]!
 654 036e 551C     		adds	r5, r2, #1
 655              		.loc 1 406 0
 656 0370 1CBF     		itt	ne
 657 0372 54F82220 		ldrne	r2, [r4, r2, lsl #2]
 658 0376 1A60     		strne	r2, [r3]
 659 0378 0433     		adds	r3, r3, #4
 660              		.loc 1 404 0
 661 037a 8342     		cmp	r3, r0
 662 037c F5D1     		bne	.L35
 663              		.loc 1 410 0
 664 037e 0020     		movs	r0, #0
 665              		.loc 1 411 0
 666 0380 45B0     		add	sp, sp, #276
 667              		.cfi_remember_state
 668              		.cfi_def_cfa_offset 36
 669              		@ sp needed
 670 0382 BDE8F08F 		pop	{r4, r5, r6, r7, r8, r9, r10, fp, pc}
 671              	.LVL50:
 672              	.L24:
 673              		.cfi_restore_state
 674              		.loc 1 392 0
 675 0386 249A     		ldr	r2, [sp, #144]
 676 0388 3092     		str	r2, [sp, #192]
 677 038a 029A     		ldr	r2, [sp, #8]
 678 038c 279D     		ldr	r5, [sp, #156]
 679 038e 2599     		ldr	r1, [sp, #148]
 680 0390 2698     		ldr	r0, [sp, #152]
 681 0392 3395     		str	r5, [sp, #204]
 682              	.LVL51:
 683 0394 02F1030C 		add	ip, r2, #3
 684 0398 284A     		ldr	r2, .L99
ARM GAS  C:\Users\jo\AppData\Local\Temp\ccGejNPS.s 			page 13


 685 039a 3191     		str	r1, [sp, #196]
 686 039c 9444     		add	ip, ip, r2
 687 039e 3290     		str	r0, [sp, #200]
 688 03a0 7246     		mov	r2, lr
 689 03a2 0F27     		movs	r7, #15
 690 03a4 2646     		mov	r6, r4
 691 03a6 1D46     		mov	r5, r3
 692              	.LVL52:
 693              	.L27:
 694              		.loc 1 392 0 is_stmt 0 discriminator 6
 695 03a8 1CF8011F 		ldrb	r1, [ip, #1]!	@ zero_extendqisi2
 696 03ac 07F01F03 		and	r3, r7, #31
 697 03b0 C3F12000 		rsb	r0, r3, #32
 698 03b4 0F37     		adds	r7, r7, #15
 699 03b6 C1B1     		cbz	r1, .L26
 700              		.loc 1 392 0 discriminator 2
 701 03b8 319C     		ldr	r4, [sp, #196]
 702 03ba 3099     		ldr	r1, [sp, #192]
 703 03bc C440     		lsrs	r4, r4, r0
 704 03be 9940     		lsls	r1, r1, r3
 705 03c0 6140     		eors	r1, r1, r4
 706 03c2 1161     		str	r1, [r2, #16]
 707 03c4 329C     		ldr	r4, [sp, #200]
 708 03c6 3199     		ldr	r1, [sp, #196]
 709 03c8 C440     		lsrs	r4, r4, r0
 710 03ca 9940     		lsls	r1, r1, r3
 711 03cc 6140     		eors	r1, r1, r4
 712 03ce 5161     		str	r1, [r2, #20]
 713 03d0 339C     		ldr	r4, [sp, #204]
 714 03d2 3299     		ldr	r1, [sp, #200]
 715 03d4 C440     		lsrs	r4, r4, r0
 716 03d6 9940     		lsls	r1, r1, r3
 717 03d8 6140     		eors	r1, r1, r4
 718 03da 9161     		str	r1, [r2, #24]
 719 03dc 309C     		ldr	r4, [sp, #192]
 720 03de 3399     		ldr	r1, [sp, #204]
 721 03e0 C440     		lsrs	r4, r4, r0
 722 03e2 9940     		lsls	r1, r1, r3
 723 03e4 84EA0103 		eor	r3, r4, r1
 724 03e8 D361     		str	r3, [r2, #28]
 725              	.L26:
 726 03ea 1032     		adds	r2, r2, #16
 727              		.loc 1 392 0 discriminator 4
 728 03ec 9045     		cmp	r8, r2
 729 03ee DBD1     		bne	.L27
 730 03f0 019A     		ldr	r2, [sp, #4]
 731 03f2 02F1270C 		add	ip, r2, #39
 732 03f6 3446     		mov	r4, r6
 733 03f8 2B46     		mov	r3, r5
 734 03fa 0BEB0C00 		add	r0, fp, ip
 735              		.loc 1 392 0
 736 03fe 7246     		mov	r2, lr
 737              	.LVL53:
 738              	.L29:
 739              		.loc 1 392 0 discriminator 13
 740 0400 13F9011F 		ldrsb	r1, [r3, #1]!
 741 0404 4D1C     		adds	r5, r1, #1
ARM GAS  C:\Users\jo\AppData\Local\Temp\ccGejNPS.s 			page 14


 742 0406 1CBF     		itt	ne
 743 0408 1568     		ldrne	r5, [r2]
 744 040a 44F82150 		strne	r5, [r4, r1, lsl #2]
 745 040e 8342     		cmp	r3, r0
 746 0410 02F10402 		add	r2, r2, #4
 747 0414 F4D1     		bne	.L29
 748 0416 03E7     		b	.L30
 749              	.LVL54:
 750              	.L7:
 751              		.loc 1 331 0 is_stmt 1
 752 0418 0423     		movs	r3, #4
 753 041a 3360     		str	r3, [r6]
 754              	.LVL55:
 755 041c 4FF0010A 		mov	r10, #1
 756              		.loc 1 335 0
 757 0420 4FEAD906 		lsr	r6, r9, #3
 758              	.LVL56:
 759 0424 13E6     		b	.L9
 760              	.LVL57:
 761              	.L11:
 762 0426 0DF14F03 		add	r3, sp, #79
 763              	.LVL58:
 764 042a 0DF15701 		add	r1, sp, #87
 765              	.L13:
 766              	.LVL59:
 767              		.loc 1 340 0 discriminator 3
 768 042e 13F8012F 		ldrb	r2, [r3, #1]!	@ zero_extendqisi2
 769              	.LVL60:
 770 0432 D243     		mvns	r2, r2
 771              		.loc 1 339 0 discriminator 3
 772 0434 8B42     		cmp	r3, r1
 773              		.loc 1 340 0 discriminator 3
 774 0436 1A72     		strb	r2, [r3, #8]
 775              	.LVL61:
 776              		.loc 1 339 0 discriminator 3
 777 0438 F9D1     		bne	.L13
 778 043a 17E6     		b	.L14
 779              	.L100:
 780              		.align	2
 781              	.L99:
 782 043c 00000000 		.word	.LANCHOR5
 783              		.cfi_endproc
 784              	.LFE1:
 785              		.size	camellia_setkey_enc, .-camellia_setkey_enc
 786              		.section	.text.camellia_setkey_dec,"ax",%progbits
 787              		.align	2
 788              		.p2align 4,,15
 789              		.global	camellia_setkey_dec
 790              		.thumb
 791              		.thumb_func
 792              		.type	camellia_setkey_dec, %function
 793              	camellia_setkey_dec:
 794              	.LFB2:
 795              		.loc 1 417 0
 796              		.cfi_startproc
 797              		@ args = 0, pretend = 0, frame = 280
 798              		@ frame_needed = 0, uses_anonymous_args = 0
ARM GAS  C:\Users\jo\AppData\Local\Temp\ccGejNPS.s 			page 15


 799              	.LVL62:
 800 0000 F0B5     		push	{r4, r5, r6, r7, lr}
 801              		.cfi_def_cfa_offset 20
 802              		.cfi_offset 4, -20
 803              		.cfi_offset 5, -16
 804              		.cfi_offset 6, -12
 805              		.cfi_offset 7, -8
 806              		.cfi_offset 14, -4
 807              		.loc 1 425 0
 808 0002 C02A     		cmp	r2, #192
 809              		.loc 1 417 0
 810 0004 C7B0     		sub	sp, sp, #284
 811              		.cfi_def_cfa_offset 304
 812              		.loc 1 425 0
 813 0006 4DD0     		beq	.L103
 814 0008 B2F5807F 		cmp	r2, #256
 815 000c 4AD0     		beq	.L103
 816 000e 802A     		cmp	r2, #128
 817 0010 03D0     		beq	.L118
 818              		.loc 1 430 0
 819 0012 6FF02300 		mvn	r0, #35
 820              	.LVL63:
 821              	.L102:
 822              		.loc 1 462 0
 823 0016 47B0     		add	sp, sp, #284
 824              		.cfi_remember_state
 825              		.cfi_def_cfa_offset 20
 826              		@ sp needed
 827 0018 F0BD     		pop	{r4, r5, r6, r7, pc}
 828              	.LVL64:
 829              	.L118:
 830              		.cfi_restore_state
 831              		.loc 1 427 0
 832 001a 0323     		movs	r3, #3
 833 001c 0360     		str	r3, [r0]
 834              	.LVL65:
 835 001e 0025     		movs	r5, #0
 836              	.LVL66:
 837              	.L105:
 838 0020 0446     		mov	r4, r0
 839              	.LVL67:
 840              		.loc 1 435 0
 841 0022 01A8     		add	r0, sp, #4
 842              	.LVL68:
 843 0024 FFF7FEFF 		bl	camellia_setkey_enc
 844              	.LVL69:
 845              		.loc 1 436 0
 846 0028 0028     		cmp	r0, #0
 847 002a F4D1     		bne	.L102
 848              		.loc 1 439 0
 849 002c 2B01     		lsls	r3, r5, #4
 850 002e 01AA     		add	r2, sp, #4
 851 0030 3033     		adds	r3, r3, #48
 852 0032 02EB8303 		add	r3, r2, r3, lsl #2
 853              	.LVL70:
 854              		.loc 1 446 0
 855 0036 EE00     		lsls	r6, r5, #3
ARM GAS  C:\Users\jo\AppData\Local\Temp\ccGejNPS.s 			page 16


 856              		.loc 1 441 0
 857 0038 5A68     		ldr	r2, [r3, #4]
 858              		.loc 1 442 0
 859 003a 9D68     		ldr	r5, [r3, #8]
 860              	.LVL71:
 861              		.loc 1 443 0
 862 003c D868     		ldr	r0, [r3, #12]
 863              	.LVL72:
 864              		.loc 1 444 0
 865 003e 1969     		ldr	r1, [r3, #16]
 866              		.loc 1 442 0
 867 0040 A560     		str	r5, [r4, #8]
 868              		.loc 1 446 0
 869 0042 06F11607 		add	r7, r6, #22
 870              		.loc 1 441 0
 871 0046 6260     		str	r2, [r4, #4]
 872              	.LVL73:
 873              		.loc 1 446 0
 874 0048 A3F1040E 		sub	lr, r3, #4
 875              		.loc 1 443 0
 876 004c E060     		str	r0, [r4, #12]
 877              		.loc 1 444 0
 878 004e 2161     		str	r1, [r4, #16]
 879 0050 0C3B     		subs	r3, r3, #12
 880              	.LVL74:
 881              		.loc 1 446 0
 882 0052 3D46     		mov	r5, r7
 883              		.loc 1 444 0
 884 0054 04F1140C 		add	ip, r4, #20
 885              	.LVL75:
 886 0058 04F11C02 		add	r2, r4, #28
 887              	.LVL76:
 888              	.L106:
 889              		.loc 1 448 0 discriminator 3
 890 005c 9868     		ldr	r0, [r3, #8]
 891              		.loc 1 449 0 discriminator 3
 892 005e D968     		ldr	r1, [r3, #12]
 893              		.loc 1 446 0 discriminator 3
 894 0060 013D     		subs	r5, r5, #1
 895              	.LVL77:
 896              		.loc 1 449 0 discriminator 3
 897 0062 02E90300 		stmdb	r2, {r0, r1}
 898 0066 A3F10803 		sub	r3, r3, #8
 899              	.LVL78:
 900 006a 02F10802 		add	r2, r2, #8
 901              	.LVL79:
 902              		.loc 1 446 0 discriminator 3
 903 006e F5D1     		bne	.L106
 904 0070 7342     		negs	r3, r6
 905              	.LVL80:
 906 0072 DB00     		lsls	r3, r3, #3
 907 0074 B03B     		subs	r3, r3, #176
 908 0076 0EEB0301 		add	r1, lr, r3
 909              		.loc 1 455 0
 910 007a 11E91100 		ldmdb	r1, {r0, r4}
 911              	.LVL81:
 912 007e 0CEBC702 		add	r2, ip, r7, lsl #3
ARM GAS  C:\Users\jo\AppData\Local\Temp\ccGejNPS.s 			page 17


 913              	.LVL82:
 914              		.loc 1 456 0
 915 0082 5EF80360 		ldr	r6, [lr, r3]
 916              		.loc 1 457 0
 917 0086 4B68     		ldr	r3, [r1, #4]
 918              		.loc 1 454 0
 919 0088 4CF83700 		str	r0, [ip, r7, lsl #3]
 920              	.LVL83:
 921              		.loc 1 459 0
 922 008c 2946     		mov	r1, r5
 923              	.LVL84:
 924              		.loc 1 456 0
 925 008e 9660     		str	r6, [r2, #8]
 926              		.loc 1 455 0
 927 0090 5460     		str	r4, [r2, #4]
 928              	.LVL85:
 929              		.loc 1 457 0
 930 0092 D360     		str	r3, [r2, #12]
 931              		.loc 1 459 0
 932 0094 01A8     		add	r0, sp, #4
 933 0096 4FF48A72 		mov	r2, #276
 934              	.LVL86:
 935 009a FFF7FEFF 		bl	memset
 936              	.LVL87:
 937              		.loc 1 461 0
 938 009e 2846     		mov	r0, r5
 939              		.loc 1 462 0
 940 00a0 47B0     		add	sp, sp, #284
 941              		.cfi_remember_state
 942              		.cfi_def_cfa_offset 20
 943              		@ sp needed
 944 00a2 F0BD     		pop	{r4, r5, r6, r7, pc}
 945              	.LVL88:
 946              	.L103:
 947              		.cfi_restore_state
 948              		.loc 1 429 0
 949 00a4 0423     		movs	r3, #4
 950 00a6 0360     		str	r3, [r0]
 951              	.LVL89:
 952 00a8 0125     		movs	r5, #1
 953 00aa B9E7     		b	.L105
 954              		.cfi_endproc
 955              	.LFE2:
 956              		.size	camellia_setkey_dec, .-camellia_setkey_dec
 957 00ac AFF30080 		.section	.text.camellia_crypt_ecb,"ax",%progbits
 958              		.align	2
 959              		.p2align 4,,15
 960              		.global	camellia_crypt_ecb
 961              		.thumb
 962              		.thumb_func
 963              		.type	camellia_crypt_ecb, %function
 964              	camellia_crypt_ecb:
 965              	.LFB3:
 966              		.loc 1 471 0
 967              		.cfi_startproc
 968              		@ args = 0, pretend = 0, frame = 24
 969              		@ frame_needed = 0, uses_anonymous_args = 0
ARM GAS  C:\Users\jo\AppData\Local\Temp\ccGejNPS.s 			page 18


 970              	.LVL90:
 971 0000 2DE9F04F 		push	{r4, r5, r6, r7, r8, r9, r10, fp, lr}
 972              		.cfi_def_cfa_offset 36
 973              		.cfi_offset 4, -36
 974              		.cfi_offset 5, -32
 975              		.cfi_offset 6, -28
 976              		.cfi_offset 7, -24
 977              		.cfi_offset 8, -20
 978              		.cfi_offset 9, -16
 979              		.cfi_offset 10, -12
 980              		.cfi_offset 11, -8
 981              		.cfi_offset 14, -4
 982 0004 87B0     		sub	sp, sp, #28
 983              		.cfi_def_cfa_offset 64
 984              		.loc 1 480 0
 985 0006 5178     		ldrb	r1, [r2, #1]	@ zero_extendqisi2
 986              	.LVL91:
 987 0008 0091     		str	r1, [sp]
 988 000a D178     		ldrb	r1, [r2, #3]	@ zero_extendqisi2
 989              		.loc 1 481 0
 990 000c 5479     		ldrb	r4, [r2, #5]	@ zero_extendqisi2
 991              		.loc 1 482 0
 992 000e 92F80980 		ldrb	r8, [r2, #9]	@ zero_extendqisi2
 993              		.loc 1 483 0
 994 0012 92F80DE0 		ldrb	lr, [r2, #13]	@ zero_extendqisi2
 995              		.loc 1 480 0
 996 0016 0191     		str	r1, [sp, #4]
 997 0018 0099     		ldr	r1, [sp]
 998              		.loc 1 481 0
 999 001a 92F804B0 		ldrb	fp, [r2, #4]	@ zero_extendqisi2
 1000              		.loc 1 482 0
 1001 001e 92F808A0 		ldrb	r10, [r2, #8]	@ zero_extendqisi2
 1002              		.loc 1 483 0
 1003 0022 92F80C90 		ldrb	r9, [r2, #12]	@ zero_extendqisi2
 1004              		.loc 1 480 0
 1005 0026 92F800C0 		ldrb	ip, [r2]	@ zero_extendqisi2
 1006              		.loc 1 481 0
 1007 002a D579     		ldrb	r5, [r2, #7]	@ zero_extendqisi2
 1008              		.loc 1 482 0
 1009 002c D77A     		ldrb	r7, [r2, #11]	@ zero_extendqisi2
 1010              		.loc 1 483 0
 1011 002e D67B     		ldrb	r6, [r2, #15]	@ zero_extendqisi2
 1012              		.loc 1 482 0
 1013 0030 4FEA0848 		lsl	r8, r8, #16
 1014              		.loc 1 481 0
 1015 0034 2404     		lsls	r4, r4, #16
 1016              		.loc 1 483 0
 1017 0036 4FEA0E4E 		lsl	lr, lr, #16
 1018              		.loc 1 480 0
 1019 003a 0904     		lsls	r1, r1, #16
 1020              		.loc 1 481 0
 1021 003c 44EA0B64 		orr	r4, r4, fp, lsl #24
 1022              		.loc 1 483 0
 1023 0040 4EEA096E 		orr	lr, lr, r9, lsl #24
 1024              		.loc 1 482 0
 1025 0044 48EA0A6B 		orr	fp, r8, r10, lsl #24
 1026              		.loc 1 481 0
ARM GAS  C:\Users\jo\AppData\Local\Temp\ccGejNPS.s 			page 19


 1027 0048 92F80690 		ldrb	r9, [r2, #6]	@ zero_extendqisi2
 1028              		.loc 1 482 0
 1029 004c 92F80A80 		ldrb	r8, [r2, #10]	@ zero_extendqisi2
 1030              		.loc 1 480 0
 1031 0050 92F802A0 		ldrb	r10, [r2, #2]	@ zero_extendqisi2
 1032 0054 41EA0C61 		orr	r1, r1, ip, lsl #24
 1033              		.loc 1 483 0
 1034 0058 92F80EC0 		ldrb	ip, [r2, #14]	@ zero_extendqisi2
 1035 005c 019A     		ldr	r2, [sp, #4]
 1036              	.LVL92:
 1037 005e 1143     		orrs	r1, r1, r2
 1038              		.loc 1 488 0
 1039 0060 0269     		ldr	r2, [r0, #16]
 1040 0062 0092     		str	r2, [sp]
 1041 0064 4BEA0707 		orr	r7, fp, r7
 1042              		.loc 1 487 0
 1043 0068 C268     		ldr	r2, [r0, #12]
 1044              		.loc 1 482 0
 1045 006a 47EA0827 		orr	r7, r7, r8, lsl #8
 1046 006e 2C43     		orrs	r4, r4, r5
 1047              		.loc 1 480 0
 1048 0070 41EA0A2A 		orr	r10, r1, r10, lsl #8
 1049              		.loc 1 487 0
 1050 0074 5740     		eors	r7, r7, r2
 1051 0076 4EEA0606 		orr	r6, lr, r6
 1052              		.loc 1 485 0
 1053 007a 4568     		ldr	r5, [r0, #4]
 1054              		.loc 1 486 0
 1055 007c 8168     		ldr	r1, [r0, #8]
 1056              		.loc 1 488 0
 1057 007e 009A     		ldr	r2, [sp]
 1058              		.loc 1 487 0
 1059 0080 0497     		str	r7, [sp, #16]
 1060              		.loc 1 481 0
 1061 0082 44EA0929 		orr	r9, r4, r9, lsl #8
 1062              		.loc 1 483 0
 1063 0086 46EA0C26 		orr	r6, r6, ip, lsl #8
 1064              		.loc 1 477 0
 1065 008a 0468     		ldr	r4, [r0]
 1066              	.LVL93:
 1067              		.loc 1 486 0
 1068 008c 89EA0101 		eor	r1, r9, r1
 1069              		.loc 1 488 0
 1070 0090 7240     		eors	r2, r2, r6
 1071              		.loc 1 485 0
 1072 0092 8AEA0505 		eor	r5, r10, r5
 1073              		.loc 1 471 0
 1074 0096 9846     		mov	r8, r3
 1075              		.loc 1 486 0
 1076 0098 0391     		str	r1, [sp, #12]
 1077              		.loc 1 488 0
 1078 009a 0592     		str	r2, [sp, #20]
 1079              		.loc 1 485 0
 1080 009c 0295     		str	r5, [sp, #8]
 1081              	.LVL94:
 1082              		.loc 1 488 0
 1083 009e 00F11409 		add	r9, r0, #20
ARM GAS  C:\Users\jo\AppData\Local\Temp\ccGejNPS.s 			page 20


 1084              	.LVL95:
 1085              		.loc 1 490 0
 1086 00a2 002C     		cmp	r4, #0
 1087 00a4 47D0     		beq	.L120
 1088 00a6 4E46     		mov	r6, r9
 1089 00a8 2546     		mov	r5, r4
 1090 00aa 16E0     		b	.L122
 1091              	.LVL96:
 1092              	.L128:
 1093              		.loc 1 506 0
 1094 00ac 316B     		ldr	r1, [r6, #48]
 1095 00ae 029B     		ldr	r3, [sp, #8]
 1096 00b0 039A     		ldr	r2, [sp, #12]
 1097              		.loc 1 508 0
 1098 00b2 0598     		ldr	r0, [sp, #20]
 1099              		.loc 1 506 0
 1100 00b4 1940     		ands	r1, r1, r3
 1101 00b6 82EAF172 		eor	r2, r2, r1, ror #31
 1102 00ba 0392     		str	r2, [sp, #12]
 1103 00bc 776B     		ldr	r7, [r6, #52]
 1104 00be 1743     		orrs	r7, r7, r2
 1105 00c0 5F40     		eors	r7, r7, r3
 1106 00c2 0297     		str	r7, [sp, #8]
 1107              	.LVL97:
 1108              		.loc 1 508 0
 1109 00c4 F26B     		ldr	r2, [r6, #60]
 1110 00c6 049B     		ldr	r3, [sp, #16]
 1111 00c8 0243     		orrs	r2, r2, r0
 1112 00ca 5340     		eors	r3, r3, r2
 1113 00cc 0493     		str	r3, [sp, #16]
 1114 00ce B26B     		ldr	r2, [r6, #56]
 1115 00d0 1340     		ands	r3, r3, r2
 1116 00d2 80EAF370 		eor	r0, r0, r3, ror #31
 1117 00d6 0590     		str	r0, [sp, #20]
 1118 00d8 4036     		adds	r6, r6, #64
 1119              	.LVL98:
 1120              	.L122:
 1121              		.loc 1 492 0
 1122 00da 02A8     		add	r0, sp, #8
 1123 00dc 3146     		mov	r1, r6
 1124 00de 04AA     		add	r2, sp, #16
 1125 00e0 FFF7FEFF 		bl	camellia_feistel
 1126              	.LVL99:
 1127              		.loc 1 494 0
 1128 00e4 04A8     		add	r0, sp, #16
 1129 00e6 06F10801 		add	r1, r6, #8
 1130 00ea 02AA     		add	r2, sp, #8
 1131 00ec FFF7FEFF 		bl	camellia_feistel
 1132              	.LVL100:
 1133              		.loc 1 496 0
 1134 00f0 02A8     		add	r0, sp, #8
 1135 00f2 06F11001 		add	r1, r6, #16
 1136 00f6 04AA     		add	r2, sp, #16
 1137 00f8 FFF7FEFF 		bl	camellia_feistel
 1138              	.LVL101:
 1139              		.loc 1 498 0
 1140 00fc 04A8     		add	r0, sp, #16
ARM GAS  C:\Users\jo\AppData\Local\Temp\ccGejNPS.s 			page 21


 1141 00fe 06F11801 		add	r1, r6, #24
 1142 0102 02AA     		add	r2, sp, #8
 1143 0104 FFF7FEFF 		bl	camellia_feistel
 1144              	.LVL102:
 1145              		.loc 1 500 0
 1146 0108 02A8     		add	r0, sp, #8
 1147 010a 06F12001 		add	r1, r6, #32
 1148 010e 04AA     		add	r2, sp, #16
 1149 0110 FFF7FEFF 		bl	camellia_feistel
 1150              	.LVL103:
 1151              		.loc 1 491 0
 1152 0114 013D     		subs	r5, r5, #1
 1153              	.LVL104:
 1154              		.loc 1 502 0
 1155 0116 04A8     		add	r0, sp, #16
 1156 0118 06F12801 		add	r1, r6, #40
 1157              	.LVL105:
 1158 011c 02AA     		add	r2, sp, #8
 1159 011e FFF7FEFF 		bl	camellia_feistel
 1160              	.LVL106:
 1161              		.loc 1 505 0
 1162 0122 002D     		cmp	r5, #0
 1163 0124 C2D1     		bne	.L128
 1164 0126 09EB8410 		add	r0, r9, r4, lsl #6
 1165 012a 049F     		ldr	r7, [sp, #16]
 1166 012c 059A     		ldr	r2, [sp, #20]
 1167 012e 029D     		ldr	r5, [sp, #8]
 1168              	.LVL107:
 1169 0130 0399     		ldr	r1, [sp, #12]
 1170              		.loc 1 503 0
 1171 0132 A0F11009 		sub	r9, r0, #16
 1172              	.LVL108:
 1173              	.L120:
 1174              		.loc 1 513 0
 1175 0136 D9F80030 		ldr	r3, [r9]
 1176 013a 5F40     		eors	r7, r7, r3
 1177 013c 0497     		str	r7, [sp, #16]
 1178              	.LVL109:
 1179              		.loc 1 514 0
 1180 013e D9F80460 		ldr	r6, [r9, #4]
 1181 0142 7240     		eors	r2, r2, r6
 1182 0144 0592     		str	r2, [sp, #20]
 1183              	.LVL110:
 1184              		.loc 1 515 0
 1185 0146 D9F80830 		ldr	r3, [r9, #8]
 1186              		.loc 1 516 0
 1187 014a D9F80C40 		ldr	r4, [r9, #12]
 1188              		.loc 1 519 0
 1189 014e 88F80720 		strb	r2, [r8, #7]
 1190              		.loc 1 515 0
 1191 0152 5D40     		eors	r5, r5, r3
 1192              	.LVL111:
 1193              		.loc 1 516 0
 1194 0154 6140     		eors	r1, r1, r4
 1195              		.loc 1 519 0
 1196 0156 100C     		lsrs	r0, r2, #16
 1197              		.loc 1 520 0
ARM GAS  C:\Users\jo\AppData\Local\Temp\ccGejNPS.s 			page 22


 1198 0158 4FEA156C 		lsr	ip, r5, #24
 1199 015c 2E0C     		lsrs	r6, r5, #16
 1200 015e 4FEA152B 		lsr	fp, r5, #8
 1201              		.loc 1 521 0
 1202 0162 4FEA116A 		lsr	r10, r1, #24
 1203 0166 4FEA1149 		lsr	r9, r1, #16
 1204              	.LVL112:
 1205 016a 4FEA112E 		lsr	lr, r1, #8
 1206              		.loc 1 519 0
 1207 016e 140E     		lsrs	r4, r2, #24
 1208              		.loc 1 518 0
 1209 0170 3B0E     		lsrs	r3, r7, #24
 1210              		.loc 1 519 0
 1211 0172 120A     		lsrs	r2, r2, #8
 1212              		.loc 1 520 0
 1213 0174 88F80B50 		strb	r5, [r8, #11]
 1214              		.loc 1 521 0
 1215 0178 88F80F10 		strb	r1, [r8, #15]
 1216              		.loc 1 518 0
 1217 017c 3D0C     		lsrs	r5, r7, #16
 1218 017e 390A     		lsrs	r1, r7, #8
 1219              		.loc 1 519 0
 1220 0180 88F80500 		strb	r0, [r8, #5]
 1221              		.loc 1 524 0
 1222 0184 0020     		movs	r0, #0
 1223              		.loc 1 518 0
 1224 0186 88F80370 		strb	r7, [r8, #3]
 1225              		.loc 1 520 0
 1226 018a 88F808C0 		strb	ip, [r8, #8]
 1227 018e 88F80960 		strb	r6, [r8, #9]
 1228 0192 88F80AB0 		strb	fp, [r8, #10]
 1229              		.loc 1 521 0
 1230 0196 88F80CA0 		strb	r10, [r8, #12]
 1231 019a 88F80D90 		strb	r9, [r8, #13]
 1232 019e 88F80EE0 		strb	lr, [r8, #14]
 1233              		.loc 1 519 0
 1234 01a2 88F80440 		strb	r4, [r8, #4]
 1235 01a6 88F80620 		strb	r2, [r8, #6]
 1236              		.loc 1 518 0
 1237 01aa 88F80030 		strb	r3, [r8]
 1238 01ae 88F80150 		strb	r5, [r8, #1]
 1239 01b2 88F80210 		strb	r1, [r8, #2]
 1240              		.loc 1 524 0
 1241 01b6 07B0     		add	sp, sp, #28
 1242              		.cfi_def_cfa_offset 36
 1243              		@ sp needed
 1244 01b8 BDE8F08F 		pop	{r4, r5, r6, r7, r8, r9, r10, fp, pc}
 1245              		.cfi_endproc
 1246              	.LFE3:
 1247              		.size	camellia_crypt_ecb, .-camellia_crypt_ecb
 1248 01bc AFF30080 		.section	.text.camellia_crypt_cbc,"ax",%progbits
 1249              		.align	2
 1250              		.p2align 4,,15
 1251              		.global	camellia_crypt_cbc
 1252              		.thumb
 1253              		.thumb_func
 1254              		.type	camellia_crypt_cbc, %function
ARM GAS  C:\Users\jo\AppData\Local\Temp\ccGejNPS.s 			page 23


 1255              	camellia_crypt_cbc:
 1256              	.LFB4:
 1257              		.loc 1 535 0
 1258              		.cfi_startproc
 1259              		@ args = 8, pretend = 0, frame = 16
 1260              		@ frame_needed = 0, uses_anonymous_args = 0
 1261              	.LVL113:
 1262 0000 2DE9F047 		push	{r4, r5, r6, r7, r8, r9, r10, lr}
 1263              		.cfi_def_cfa_offset 32
 1264              		.cfi_offset 4, -32
 1265              		.cfi_offset 5, -28
 1266              		.cfi_offset 6, -24
 1267              		.cfi_offset 7, -20
 1268              		.cfi_offset 8, -16
 1269              		.cfi_offset 9, -12
 1270              		.cfi_offset 10, -8
 1271              		.cfi_offset 14, -4
 1272 0004 84B0     		sub	sp, sp, #16
 1273              		.cfi_def_cfa_offset 48
 1274              		.loc 1 539 0
 1275 0006 12F00F0F 		tst	r2, #15
 1276              		.loc 1 535 0
 1277 000a 9046     		mov	r8, r2
 1278 000c DDF830A0 		ldr	r10, [sp, #48]
 1279 0010 0D9C     		ldr	r4, [sp, #52]
 1280              		.loc 1 539 0
 1281 0012 5CD1     		bne	.L140
 1282 0014 0646     		mov	r6, r0
 1283 0016 8946     		mov	r9, r1
 1284 0018 1D46     		mov	r5, r3
 1285              		.loc 1 542 0
 1286 001a 41B3     		cbz	r1, .L147
 1287              	.LVL114:
 1288              		.loc 1 561 0
 1289 001c 1AB3     		cbz	r2, .L139
 1290 001e 0AF1FF3A 		add	r10, r10, #-1
 1291              	.LVL115:
 1292 0022 5F1E     		subs	r7, r3, #1
 1293              	.LVL116:
 1294              	.L138:
 1295 0024 3946     		mov	r1, r7
 1296 0026 621E     		subs	r2, r4, #1
 1297 0028 0AF1100E 		add	lr, r10, #16
 1298              	.LVL117:
 1299              	.L137:
 1300              		.loc 1 564 0 discriminator 3
 1301 002c 1AF8013F 		ldrb	r3, [r10, #1]!	@ zero_extendqisi2
 1302              	.LVL118:
 1303 0030 11F8010F 		ldrb	r0, [r1, #1]!	@ zero_extendqisi2
 1304              		.loc 1 563 0 discriminator 3
 1305 0034 F245     		cmp	r10, lr
 1306              		.loc 1 564 0 discriminator 3
 1307 0036 83EA0003 		eor	r3, r3, r0
 1308 003a 02F8013F 		strb	r3, [r2, #1]!
 1309              	.LVL119:
 1310              		.loc 1 563 0 discriminator 3
 1311 003e F5D1     		bne	.L137
ARM GAS  C:\Users\jo\AppData\Local\Temp\ccGejNPS.s 			page 24


 1312              		.loc 1 566 0
 1313 0040 2246     		mov	r2, r4
 1314 0042 2346     		mov	r3, r4
 1315 0044 4946     		mov	r1, r9
 1316 0046 3046     		mov	r0, r6
 1317 0048 FFF7FEFF 		bl	camellia_crypt_ecb
 1318              	.LVL120:
 1319              		.loc 1 567 0
 1320 004c 2168     		ldr	r1, [r4]	@ unaligned
 1321 004e 6268     		ldr	r2, [r4, #4]	@ unaligned
 1322 0050 A368     		ldr	r3, [r4, #8]	@ unaligned
 1323 0052 E068     		ldr	r0, [r4, #12]	@ unaligned
 1324 0054 E860     		str	r0, [r5, #12]	@ unaligned
 1325              	.LVL121:
 1326              		.loc 1 561 0
 1327 0056 B8F11008 		subs	r8, r8, #16
 1328              	.LVL122:
 1329              		.loc 1 567 0
 1330 005a 2960     		str	r1, [r5]	@ unaligned
 1331 005c 6A60     		str	r2, [r5, #4]	@ unaligned
 1332 005e AB60     		str	r3, [r5, #8]	@ unaligned
 1333              		.loc 1 570 0
 1334 0060 04F11004 		add	r4, r4, #16
 1335              	.LVL123:
 1336              		.loc 1 561 0
 1337 0064 DED1     		bne	.L138
 1338              	.LVL124:
 1339              	.L139:
 1340              		.loc 1 575 0
 1341 0066 0020     		movs	r0, #0
 1342              	.LVL125:
 1343              	.L145:
 1344              		.loc 1 576 0
 1345 0068 04B0     		add	sp, sp, #16
 1346              		.cfi_remember_state
 1347              		.cfi_def_cfa_offset 32
 1348              		@ sp needed
 1349 006a BDE8F087 		pop	{r4, r5, r6, r7, r8, r9, r10, pc}
 1350              	.LVL126:
 1351              	.L147:
 1352              		.cfi_restore_state
 1353 006e 5F1E     		subs	r7, r3, #1
 1354              	.LBB4:
 1355              	.LBB5:
 1356              		.loc 1 544 0
 1357 0070 002A     		cmp	r2, #0
 1358 0072 F8D0     		beq	.L139
 1359              	.LVL127:
 1360              	.L135:
 1361              		.loc 1 546 0
 1362 0074 DAF80000 		ldr	r0, [r10]	@ unaligned
 1363 0078 DAF80410 		ldr	r1, [r10, #4]	@ unaligned
 1364 007c DAF80820 		ldr	r2, [r10, #8]	@ unaligned
 1365 0080 DAF80C30 		ldr	r3, [r10, #12]	@ unaligned
 1366 0084 EE46     		mov	lr, sp
 1367 0086 AEE80F00 		stmia	lr!, {r0, r1, r2, r3}
 1368              		.loc 1 547 0
ARM GAS  C:\Users\jo\AppData\Local\Temp\ccGejNPS.s 			page 25


 1369 008a 0021     		movs	r1, #0
 1370 008c 2346     		mov	r3, r4
 1371 008e 3046     		mov	r0, r6
 1372 0090 5246     		mov	r2, r10
 1373 0092 FFF7FEFF 		bl	camellia_crypt_ecb
 1374              	.LVL128:
 1375 0096 631E     		subs	r3, r4, #1
 1376 0098 3946     		mov	r1, r7
 1377 009a 04F10F0E 		add	lr, r4, #15
 1378              	.LVL129:
 1379              	.L134:
 1380              		.loc 1 550 0
 1381 009e 13F8012F 		ldrb	r2, [r3, #1]!	@ zero_extendqisi2
 1382 00a2 11F8010F 		ldrb	r0, [r1, #1]!	@ zero_extendqisi2
 1383              		.loc 1 549 0
 1384 00a6 7345     		cmp	r3, lr
 1385              		.loc 1 550 0
 1386 00a8 82EA0002 		eor	r2, r2, r0
 1387 00ac 1A70     		strb	r2, [r3]
 1388              		.loc 1 549 0
 1389 00ae F6D1     		bne	.L134
 1390              		.loc 1 552 0
 1391 00b0 EE46     		mov	lr, sp
 1392 00b2 BEE80F00 		ldmia	lr!, {r0, r1, r2, r3}
 1393              		.loc 1 544 0
 1394 00b6 B8F11008 		subs	r8, r8, #16
 1395              	.LVL130:
 1396              		.loc 1 554 0
 1397 00ba 0AF1100A 		add	r10, r10, #16
 1398              		.loc 1 555 0
 1399 00be 04F11004 		add	r4, r4, #16
 1400              	.LVL131:
 1401              		.loc 1 552 0
 1402 00c2 2860     		str	r0, [r5]	@ unaligned
 1403 00c4 6960     		str	r1, [r5, #4]	@ unaligned
 1404 00c6 AA60     		str	r2, [r5, #8]	@ unaligned
 1405 00c8 EB60     		str	r3, [r5, #12]	@ unaligned
 1406              	.LVL132:
 1407              		.loc 1 544 0
 1408 00ca D3D1     		bne	.L135
 1409 00cc CBE7     		b	.L139
 1410              	.LVL133:
 1411              	.L140:
 1412              	.LBE5:
 1413              	.LBE4:
 1414              		.loc 1 540 0
 1415 00ce 6FF02500 		mvn	r0, #37
 1416              	.LVL134:
 1417 00d2 C9E7     		b	.L145
 1418              		.cfi_endproc
 1419              	.LFE4:
 1420              		.size	camellia_crypt_cbc, .-camellia_crypt_cbc
 1421 00d4 AFF30080 		.section	.text.camellia_crypt_cfb128,"ax",%progbits
 1421      AFF30080 
 1421      AFF30080 
 1422              		.align	2
 1423              		.p2align 4,,15
ARM GAS  C:\Users\jo\AppData\Local\Temp\ccGejNPS.s 			page 26


 1424              		.global	camellia_crypt_cfb128
 1425              		.thumb
 1426              		.thumb_func
 1427              		.type	camellia_crypt_cfb128, %function
 1428              	camellia_crypt_cfb128:
 1429              	.LFB5:
 1430              		.loc 1 589 0
 1431              		.cfi_startproc
 1432              		@ args = 12, pretend = 0, frame = 0
 1433              		@ frame_needed = 0, uses_anonymous_args = 0
 1434              	.LVL135:
 1435 0000 2DE9F047 		push	{r4, r5, r6, r7, r8, r9, r10, lr}
 1436              		.cfi_def_cfa_offset 32
 1437              		.cfi_offset 4, -32
 1438              		.cfi_offset 5, -28
 1439              		.cfi_offset 6, -24
 1440              		.cfi_offset 7, -20
 1441              		.cfi_offset 8, -16
 1442              		.cfi_offset 9, -12
 1443              		.cfi_offset 10, -8
 1444              		.cfi_offset 14, -4
 1445              		.loc 1 589 0
 1446 0004 08AE     		add	r6, sp, #32
 1447              	.LVL136:
 1448 0006 9846     		mov	r8, r3
 1449 0008 0746     		mov	r7, r0
 1450              		.loc 1 591 0
 1451 000a 1C68     		ldr	r4, [r3]
 1452              		.loc 1 589 0
 1453 000c 96E84006 		ldmia	r6, {r6, r9, r10}
 1454              	.LVL137:
 1455              		.loc 1 593 0
 1456 0010 A9B1     		cbz	r1, .L149
 1457              	.LVL138:
 1458              		.loc 1 609 0
 1459 0012 7AB1     		cbz	r2, .L151
 1460 0014 0AF1FF3A 		add	r10, r10, #-1
 1461 0018 1546     		mov	r5, r2
 1462              	.LVL139:
 1463              	.L155:
 1464              		.loc 1 611 0
 1465 001a 4CB3     		cbz	r4, .L163
 1466              	.L154:
 1467              		.loc 1 614 0
 1468 001c 315D     		ldrb	r1, [r6, r4]	@ zero_extendqisi2
 1469 001e 19F8013B 		ldrb	r3, [r9], #1	@ zero_extendqisi2
 1470              	.LVL140:
 1471              		.loc 1 616 0
 1472 0022 621C     		adds	r2, r4, #1
 1473              		.loc 1 614 0
 1474 0024 4B40     		eors	r3, r3, r1
 1475              		.loc 1 609 0
 1476 0026 013D     		subs	r5, r5, #1
 1477              	.LVL141:
 1478              		.loc 1 614 0
 1479 0028 0AF8013F 		strb	r3, [r10, #1]!
 1480 002c 3355     		strb	r3, [r6, r4]
ARM GAS  C:\Users\jo\AppData\Local\Temp\ccGejNPS.s 			page 27


 1481              		.loc 1 616 0
 1482 002e 02F00F04 		and	r4, r2, #15
 1483              	.LVL142:
 1484              		.loc 1 609 0
 1485 0032 F2D1     		bne	.L155
 1486              	.L151:
 1487              		.loc 1 620 0
 1488 0034 C8F80040 		str	r4, [r8]
 1489              		.loc 1 623 0
 1490 0038 0020     		movs	r0, #0
 1491 003a BDE8F087 		pop	{r4, r5, r6, r7, r8, r9, r10, pc}
 1492              	.LVL143:
 1493              	.L149:
 1494              		.loc 1 595 0
 1495 003e 002A     		cmp	r2, #0
 1496 0040 F8D0     		beq	.L151
 1497 0042 1546     		mov	r5, r2
 1498              		.loc 1 597 0
 1499 0044 6CB1     		cbz	r4, .L164
 1500              	.LVL144:
 1501              	.L152:
 1502              		.loc 1 601 0
 1503 0046 335D     		ldrb	r3, [r6, r4]	@ zero_extendqisi2
 1504              		.loc 1 600 0
 1505 0048 19F8012B 		ldrb	r2, [r9], #1	@ zero_extendqisi2
 1506              	.LVL145:
 1507              		.loc 1 604 0
 1508 004c 611C     		adds	r1, r4, #1
 1509              		.loc 1 601 0
 1510 004e 5340     		eors	r3, r3, r2
 1511              		.loc 1 595 0
 1512 0050 013D     		subs	r5, r5, #1
 1513              		.loc 1 601 0
 1514 0052 0AF8013B 		strb	r3, [r10], #1
 1515              	.LVL146:
 1516              		.loc 1 602 0
 1517 0056 3255     		strb	r2, [r6, r4]
 1518              		.loc 1 604 0
 1519 0058 01F00F04 		and	r4, r1, #15
 1520              	.LVL147:
 1521              		.loc 1 595 0
 1522 005c EAD0     		beq	.L151
 1523              	.LVL148:
 1524              		.loc 1 597 0
 1525 005e 002C     		cmp	r4, #0
 1526 0060 F1D1     		bne	.L152
 1527              	.LVL149:
 1528              	.L164:
 1529              		.loc 1 598 0
 1530 0062 3846     		mov	r0, r7
 1531 0064 0121     		movs	r1, #1
 1532 0066 3246     		mov	r2, r6
 1533 0068 3346     		mov	r3, r6
 1534 006a FFF7FEFF 		bl	camellia_crypt_ecb
 1535              	.LVL150:
 1536 006e EAE7     		b	.L152
 1537              	.LVL151:
ARM GAS  C:\Users\jo\AppData\Local\Temp\ccGejNPS.s 			page 28


 1538              	.L163:
 1539              		.loc 1 612 0
 1540 0070 3846     		mov	r0, r7
 1541 0072 0121     		movs	r1, #1
 1542 0074 3246     		mov	r2, r6
 1543 0076 3346     		mov	r3, r6
 1544 0078 FFF7FEFF 		bl	camellia_crypt_ecb
 1545              	.LVL152:
 1546 007c CEE7     		b	.L154
 1547              		.cfi_endproc
 1548              	.LFE5:
 1549              		.size	camellia_crypt_cfb128, .-camellia_crypt_cfb128
 1550 007e 00BF     		.section	.text.camellia_crypt_ctr,"ax",%progbits
 1551              		.align	2
 1552              		.p2align 4,,15
 1553              		.global	camellia_crypt_ctr
 1554              		.thumb
 1555              		.thumb_func
 1556              		.type	camellia_crypt_ctr, %function
 1557              	camellia_crypt_ctr:
 1558              	.LFB6:
 1559              		.loc 1 637 0
 1560              		.cfi_startproc
 1561              		@ args = 12, pretend = 0, frame = 0
 1562              		@ frame_needed = 0, uses_anonymous_args = 0
 1563              	.LVL153:
 1564 0000 2DE9F84F 		push	{r3, r4, r5, r6, r7, r8, r9, r10, fp, lr}
 1565              		.cfi_def_cfa_offset 40
 1566              		.cfi_offset 3, -40
 1567              		.cfi_offset 4, -36
 1568              		.cfi_offset 5, -32
 1569              		.cfi_offset 6, -28
 1570              		.cfi_offset 7, -24
 1571              		.cfi_offset 8, -20
 1572              		.cfi_offset 9, -16
 1573              		.cfi_offset 10, -12
 1574              		.cfi_offset 11, -8
 1575              		.cfi_offset 14, -4
 1576              		.loc 1 637 0
 1577 0004 DDF828B0 		ldr	fp, [sp, #40]
 1578              		.loc 1 639 0
 1579 0008 1468     		ldr	r4, [r2]
 1580              	.LVL154:
 1581              		.loc 1 637 0
 1582 000a 0B9F     		ldr	r7, [sp, #44]
 1583 000c DDF83080 		ldr	r8, [sp, #48]
 1584              	.LVL155:
 1585 0010 9246     		mov	r10, r2
 1586              		.loc 1 641 0
 1587 0012 79B1     		cbz	r1, .L166
 1588 0014 8146     		mov	r9, r0
 1589 0016 1E46     		mov	r6, r3
 1590 0018 0D46     		mov	r5, r1
 1591              	.LVL156:
 1592              	.L168:
 1593              		.loc 1 643 0
 1594 001a 84B1     		cbz	r4, .L167
ARM GAS  C:\Users\jo\AppData\Local\Temp\ccGejNPS.s 			page 29


 1595              	.LVL157:
 1596              	.L169:
 1597              		.loc 1 651 0
 1598 001c 1BF80420 		ldrb	r2, [fp, r4]	@ zero_extendqisi2
 1599 0020 17F8013B 		ldrb	r3, [r7], #1	@ zero_extendqisi2
 1600              	.LVL158:
 1601              		.loc 1 653 0
 1602 0024 0134     		adds	r4, r4, #1
 1603              	.LVL159:
 1604              		.loc 1 651 0
 1605 0026 5340     		eors	r3, r3, r2
 1606              		.loc 1 641 0
 1607 0028 013D     		subs	r5, r5, #1
 1608              	.LVL160:
 1609              		.loc 1 653 0
 1610 002a 04F00F04 		and	r4, r4, #15
 1611              	.LVL161:
 1612              		.loc 1 651 0
 1613 002e 08F8013B 		strb	r3, [r8], #1
 1614              	.LVL162:
 1615              		.loc 1 641 0
 1616 0032 F2D1     		bne	.L168
 1617              	.LVL163:
 1618              	.L166:
 1619              		.loc 1 656 0
 1620 0034 CAF80040 		str	r4, [r10]
 1621              		.loc 1 659 0
 1622 0038 0020     		movs	r0, #0
 1623 003a BDE8F88F 		pop	{r3, r4, r5, r6, r7, r8, r9, r10, fp, pc}
 1624              	.LVL164:
 1625              	.L167:
 1626              		.loc 1 644 0
 1627 003e 3246     		mov	r2, r6
 1628 0040 4846     		mov	r0, r9
 1629 0042 0121     		movs	r1, #1
 1630 0044 5B46     		mov	r3, fp
 1631 0046 FFF7FEFF 		bl	camellia_crypt_ecb
 1632              	.LVL165:
 1633 004a 06F11002 		add	r2, r6, #16
 1634              	.LVL166:
 1635              	.L170:
 1636              		.loc 1 647 0
 1637 004e 12F8013D 		ldrb	r3, [r2, #-1]!	@ zero_extendqisi2
 1638              	.LVL167:
 1639 0052 0133     		adds	r3, r3, #1
 1640 0054 DBB2     		uxtb	r3, r3
 1641 0056 1370     		strb	r3, [r2]
 1642 0058 002B     		cmp	r3, #0
 1643 005a DFD1     		bne	.L169
 1644              		.loc 1 646 0 discriminator 2
 1645 005c B242     		cmp	r2, r6
 1646 005e F6D1     		bne	.L170
 1647 0060 DCE7     		b	.L169
 1648              		.cfi_endproc
 1649              	.LFE6:
 1650              		.size	camellia_crypt_ctr, .-camellia_crypt_ctr
 1651 0062 00BFAFF3 		.section	.text.camellia_self_test,"ax",%progbits
ARM GAS  C:\Users\jo\AppData\Local\Temp\ccGejNPS.s 			page 30


 1651      0080AFF3 
 1651      0080AFF3 
 1651      0080
 1652              		.align	2
 1653              		.p2align 4,,15
 1654              		.global	camellia_self_test
 1655              		.thumb
 1656              		.thumb_func
 1657              		.type	camellia_self_test, %function
 1658              	camellia_self_test:
 1659              	.LFB7:
 1660              		.loc 1 864 0
 1661              		.cfi_startproc
 1662              		@ args = 0, pretend = 0, frame = 480
 1663              		@ frame_needed = 0, uses_anonymous_args = 0
 1664              	.LVL168:
 1665 0000 2DE9F04F 		push	{r4, r5, r6, r7, r8, r9, r10, fp, lr}
 1666              		.cfi_def_cfa_offset 36
 1667              		.cfi_offset 4, -36
 1668              		.cfi_offset 5, -32
 1669              		.cfi_offset 6, -28
 1670              		.cfi_offset 7, -24
 1671              		.cfi_offset 8, -20
 1672              		.cfi_offset 9, -16
 1673              		.cfi_offset 10, -12
 1674              		.cfi_offset 11, -8
 1675              		.cfi_offset 14, -4
 1676 0004 FDB0     		sub	sp, sp, #500
 1677              		.cfi_def_cfa_offset 536
 1678              		.loc 1 879 0
 1679 0006 0025     		movs	r5, #0
 1680 0008 1F95     		str	r5, [sp, #124]
 1681 000a 2095     		str	r5, [sp, #128]
 1682 000c 2195     		str	r5, [sp, #132]
 1683 000e 2295     		str	r5, [sp, #136]
 1684 0010 2395     		str	r5, [sp, #140]
 1685 0012 2495     		str	r5, [sp, #144]
 1686 0014 2595     		str	r5, [sp, #148]
 1687              		.loc 1 864 0
 1688 0016 0690     		str	r0, [sp, #24]
 1689              		.loc 1 879 0
 1690 0018 2695     		str	r5, [sp, #152]
 1691              	.LVL169:
 1692 001a 0DF12C0B 		add	fp, sp, #44
 1693 001e 0DF13C0A 		add	r10, sp, #60
 1694 0022 A846     		mov	r8, r5
 1695              	.LVL170:
 1696              	.L187:
 1697              		.loc 1 882 0
 1698 0024 4FEA6806 		asr	r6, r8, #1
 1699              	.LVL171:
 1700              		.loc 1 885 0
 1701 0028 069B     		ldr	r3, [sp, #24]
 1702              		.loc 1 886 0
 1703 002a B41C     		adds	r4, r6, #2
 1704              		.loc 1 883 0
 1705 002c 08F00105 		and	r5, r8, #1
ARM GAS  C:\Users\jo\AppData\Local\Temp\ccGejNPS.s 			page 31


 1706              	.LVL172:
 1707              		.loc 1 886 0
 1708 0030 4FEA8419 		lsl	r9, r4, #6
 1709              		.loc 1 885 0
 1710 0034 43B1     		cbz	r3, .L179
 1711              		.loc 1 886 0
 1712 0036 B94A     		ldr	r2, .L247
 1713 0038 B94B     		ldr	r3, .L247+4
 1714 003a BA48     		ldr	r0, .L247+8
 1715 003c 4946     		mov	r1, r9
 1716 003e 002D     		cmp	r5, #0
 1717 0040 18BF     		it	ne
 1718 0042 1A46     		movne	r2, r3
 1719 0044 FFF7FEFF 		bl	printf
 1720              	.LVL173:
 1721              	.L179:
 1722 0048 E300     		lsls	r3, r4, #3
 1723 004a 0593     		str	r3, [sp, #20]
 1724 004c B64B     		ldr	r3, .L247+12
 1725 004e 03EB8617 		add	r7, r3, r6, lsl #6
 1726 0052 B64B     		ldr	r3, .L247+16
 1727              		.loc 1 886 0 is_stmt 0 discriminator 1
 1728 0054 0024     		movs	r4, #0
 1729 0056 03EB4616 		add	r6, r3, r6, lsl #5
 1730              	.LVL174:
 1731              	.L185:
 1732              		.loc 1 890 0 is_stmt 1
 1733 005a 3946     		mov	r1, r7
 1734 005c 059A     		ldr	r2, [sp, #20]
 1735 005e 1FA8     		add	r0, sp, #124
 1736 0060 FFF7FEFF 		bl	memcpy
 1737              	.LVL175:
 1738              		.loc 1 897 0
 1739 0064 1FA9     		add	r1, sp, #124
 1740 0066 4A46     		mov	r2, r9
 1741 0068 37A8     		add	r0, sp, #220
 1742              		.loc 1 892 0
 1743 006a 002D     		cmp	r5, #0
 1744 006c 40F02E81 		bne	.L181
 1745              		.loc 1 893 0
 1746 0070 FFF7FEFF 		bl	camellia_setkey_dec
 1747              	.LVL176:
 1748              		.loc 1 895 0
 1749 0074 AE4A     		ldr	r2, .L247+20
 1750              		.loc 1 894 0
 1751 0076 3319     		adds	r3, r6, r4
 1752              		.loc 1 895 0
 1753 0078 02EB040E 		add	lr, r2, r4
 1754              	.L238:
 1755              		.loc 1 898 0
 1756 007c 1868     		ldr	r0, [r3]	@ unaligned
 1757 007e 5968     		ldr	r1, [r3, #4]	@ unaligned
 1758 0080 9A68     		ldr	r2, [r3, #8]	@ unaligned
 1759 0082 DB68     		ldr	r3, [r3, #12]	@ unaligned
 1760 0084 DC46     		mov	ip, fp
 1761 0086 ACE80F00 		stmia	ip!, {r0, r1, r2, r3}
 1762              		.loc 1 899 0
ARM GAS  C:\Users\jo\AppData\Local\Temp\ccGejNPS.s 			page 32


 1763 008a DEF80000 		ldr	r0, [lr]	@ unaligned
 1764 008e DEF80410 		ldr	r1, [lr, #4]	@ unaligned
 1765 0092 DEF80820 		ldr	r2, [lr, #8]	@ unaligned
 1766 0096 DEF80C30 		ldr	r3, [lr, #12]	@ unaligned
 1767 009a D646     		mov	lr, r10
 1768 009c AEE80F00 		stmia	lr!, {r0, r1, r2, r3}
 1769              		.loc 1 902 0
 1770 00a0 2946     		mov	r1, r5
 1771 00a2 5A46     		mov	r2, fp
 1772 00a4 27AB     		add	r3, sp, #156
 1773 00a6 37A8     		add	r0, sp, #220
 1774 00a8 FFF7FEFF 		bl	camellia_crypt_ecb
 1775              	.LVL177:
 1776              		.loc 1 904 0
 1777 00ac 27A8     		add	r0, sp, #156
 1778 00ae 5146     		mov	r1, r10
 1779 00b0 1022     		movs	r2, #16
 1780 00b2 FFF7FEFF 		bl	memcmp
 1781              	.LVL178:
 1782 00b6 1034     		adds	r4, r4, #16
 1783 00b8 2037     		adds	r7, r7, #32
 1784 00ba 0028     		cmp	r0, #0
 1785 00bc 40F0FE80 		bne	.L196
 1786              		.loc 1 889 0 discriminator 2
 1787 00c0 202C     		cmp	r4, #32
 1788 00c2 CAD1     		bne	.L185
 1789              		.loc 1 913 0
 1790 00c4 069B     		ldr	r3, [sp, #24]
 1791 00c6 002B     		cmp	r3, #0
 1792 00c8 40F02381 		bne	.L239
 1793              	.L186:
 1794              		.loc 1 881 0 discriminator 2
 1795 00cc 08F10108 		add	r8, r8, #1
 1796              	.LVL179:
 1797 00d0 B8F1060F 		cmp	r8, #6
 1798 00d4 A6D1     		bne	.L187
 1799              		.loc 1 917 0
 1800 00d6 069B     		ldr	r3, [sp, #24]
 1801 00d8 002B     		cmp	r3, #0
 1802 00da 40F05881 		bne	.L240
 1803              	.L188:
 1804              	.LVL180:
 1805              		.loc 1 886 0 discriminator 1
 1806 00de 0023     		movs	r3, #0
 1807 00e0 0993     		str	r3, [sp, #36]
 1808              	.LVL181:
 1809              	.L199:
 1810              		.loc 1 925 0
 1811 00e2 099B     		ldr	r3, [sp, #36]
 1812 00e4 5C10     		asrs	r4, r3, #1
 1813              	.LVL182:
 1814              		.loc 1 926 0
 1815 00e6 03F00103 		and	r3, r3, #1
 1816 00ea 0593     		str	r3, [sp, #20]
 1817              	.LVL183:
 1818              		.loc 1 928 0
 1819 00ec 069B     		ldr	r3, [sp, #24]
ARM GAS  C:\Users\jo\AppData\Local\Temp\ccGejNPS.s 			page 33


 1820              	.LVL184:
 1821              		.loc 1 929 0
 1822 00ee A51C     		adds	r5, r4, #2
 1823 00f0 AE01     		lsls	r6, r5, #6
 1824              		.loc 1 928 0
 1825 00f2 4BB1     		cbz	r3, .L190
 1826              		.loc 1 929 0
 1827 00f4 894A     		ldr	r2, .L247
 1828 00f6 8A4B     		ldr	r3, .L247+4
 1829 00f8 059F     		ldr	r7, [sp, #20]
 1830 00fa 8E48     		ldr	r0, .L247+24
 1831 00fc 3146     		mov	r1, r6
 1832 00fe 002F     		cmp	r7, #0
 1833 0100 18BF     		it	ne
 1834 0102 1A46     		movne	r2, r3
 1835 0104 FFF7FEFF 		bl	printf
 1836              	.LVL185:
 1837              	.L190:
 1838              		.loc 1 932 0
 1839 0108 8B4B     		ldr	r3, .L247+28
 1840 010a 0FCB     		ldmia	r3, {r0, r1, r2, r3}
 1841 010c 8BE80F00 		stmia	fp, {r0, r1, r2, r3}
 1842              		.loc 1 933 0
 1843 0110 894B     		ldr	r3, .L247+28
 1844 0112 0FCB     		ldmia	r3, {r0, r1, r2, r3}
 1845 0114 8AE80F00 		stmia	r10, {r0, r1, r2, r3}
 1846              		.loc 1 934 0
 1847 0118 884B     		ldr	r3, .L247+32
 1848 011a EA00     		lsls	r2, r5, #3
 1849 011c 03EB4411 		add	r1, r3, r4, lsl #5
 1850 0120 1FA8     		add	r0, sp, #124
 1851 0122 FFF7FEFF 		bl	memcpy
 1852              	.LVL186:
 1853              		.loc 1 936 0
 1854 0126 059B     		ldr	r3, [sp, #20]
 1855              		.loc 1 937 0
 1856 0128 3246     		mov	r2, r6
 1857 012a 37A8     		add	r0, sp, #220
 1858 012c 1FA9     		add	r1, sp, #124
 1859              		.loc 1 936 0
 1860 012e 002B     		cmp	r3, #0
 1861 0130 40F0EC80 		bne	.L192
 1862              		.loc 1 937 0
 1863 0134 FFF7FEFF 		bl	camellia_setkey_dec
 1864              	.LVL187:
 1865              	.L193:
 1866 0138 814B     		ldr	r3, .L247+36
 1867 013a 04EB4404 		add	r4, r4, r4, lsl #1
 1868              	.LVL188:
 1869 013e 03EB0413 		add	r3, r3, r4, lsl #4
 1870 0142 0893     		str	r3, [sp, #32]
 1871              		.loc 1 929 0 discriminator 1
 1872 0144 0024     		movs	r4, #0
 1873              	.LVL189:
 1874              	.L197:
 1875              		.loc 1 950 0
 1876 0146 7F4B     		ldr	r3, .L247+40
ARM GAS  C:\Users\jo\AppData\Local\Temp\ccGejNPS.s 			page 34


 1877              		.loc 1 946 0
 1878 0148 089A     		ldr	r2, [sp, #32]
 1879              		.loc 1 951 0
 1880 014a CDF81CA0 		str	r10, [sp, #28]
 1881              		.loc 1 950 0
 1882 014e 03EB040C 		add	ip, r3, r4
 1883              		.loc 1 944 0
 1884 0152 059B     		ldr	r3, [sp, #20]
 1885              		.loc 1 946 0
 1886 0154 02EB0409 		add	r9, r2, r4
 1887              		.loc 1 950 0
 1888 0158 5D46     		mov	r5, fp
 1889              		.loc 1 946 0
 1890 015a 5F46     		mov	r7, fp
 1891              		.loc 1 947 0
 1892 015c 5646     		mov	r6, r10
 1893              		.loc 1 944 0
 1894 015e 002B     		cmp	r3, #0
 1895 0160 40F0BB80 		bne	.L194
 1896              		.loc 1 945 0
 1897 0164 9BE80F00 		ldmia	fp, {r0, r1, r2, r3}
 1898 0168 13AD     		add	r5, sp, #76
 1899 016a 85E80F00 		stmia	r5, {r0, r1, r2, r3}
 1900              		.loc 1 946 0
 1901 016e D9F80000 		ldr	r0, [r9]	@ unaligned
 1902 0172 D9F80410 		ldr	r1, [r9, #4]	@ unaligned
 1903 0176 D9F80820 		ldr	r2, [r9, #8]	@ unaligned
 1904 017a D9F80C30 		ldr	r3, [r9, #12]	@ unaligned
 1905 017e 0FC7     		stmia	r7!, {r0, r1, r2, r3}
 1906              		.loc 1 947 0
 1907 0180 DCF80000 		ldr	r0, [ip]	@ unaligned
 1908 0184 DCF80410 		ldr	r1, [ip, #4]	@ unaligned
 1909 0188 DCF80820 		ldr	r2, [ip, #8]	@ unaligned
 1910 018c DCF80C30 		ldr	r3, [ip, #12]	@ unaligned
 1911 0190 0FC6     		stmia	r6!, {r0, r1, r2, r3}
 1912              	.L195:
 1913              		.loc 1 954 0
 1914 0192 27AB     		add	r3, sp, #156
 1915 0194 0193     		str	r3, [sp, #4]
 1916 0196 0599     		ldr	r1, [sp, #20]
 1917 0198 CDF800B0 		str	fp, [sp]
 1918 019c 1022     		movs	r2, #16
 1919 019e 13AB     		add	r3, sp, #76
 1920 01a0 37A8     		add	r0, sp, #220
 1921 01a2 FFF7FEFF 		bl	camellia_crypt_cbc
 1922              	.LVL190:
 1923              		.loc 1 956 0
 1924 01a6 27A8     		add	r0, sp, #156
 1925 01a8 5146     		mov	r1, r10
 1926 01aa 1022     		movs	r2, #16
 1927 01ac FFF7FEFF 		bl	memcmp
 1928              	.LVL191:
 1929 01b0 1034     		adds	r4, r4, #16
 1930 01b2 0028     		cmp	r0, #0
 1931 01b4 40F08280 		bne	.L196
 1932              		.loc 1 942 0 discriminator 2
 1933 01b8 302C     		cmp	r4, #48
ARM GAS  C:\Users\jo\AppData\Local\Temp\ccGejNPS.s 			page 35


 1934 01ba C4D1     		bne	.L197
 1935              		.loc 1 965 0
 1936 01bc 069B     		ldr	r3, [sp, #24]
 1937 01be 0546     		mov	r5, r0
 1938 01c0 002B     		cmp	r3, #0
 1939 01c2 40F0CF80 		bne	.L241
 1940              	.L198:
 1941              		.loc 1 923 0 discriminator 2
 1942 01c6 099B     		ldr	r3, [sp, #36]
 1943 01c8 0133     		adds	r3, r3, #1
 1944 01ca 062B     		cmp	r3, #6
 1945 01cc 0993     		str	r3, [sp, #36]
 1946              	.LVL192:
 1947 01ce 88D1     		bne	.L199
 1948              		.loc 1 969 0
 1949 01d0 069B     		ldr	r3, [sp, #24]
 1950              	.LVL193:
 1951 01d2 002B     		cmp	r3, #0
 1952 01d4 40F0E780 		bne	.L242
 1953              	.L200:
 1954              	.LVL194:
 1955 01d8 069B     		ldr	r3, [sp, #24]
 1956 01da DFF884B1 		ldr	fp, .L247+68
 1957 01de 0795     		str	r5, [sp, #28]
 1958              		.loc 1 929 0 discriminator 1
 1959 01e0 0027     		movs	r7, #0
 1960 01e2 0DF15C0A 		add	r10, sp, #92
 1961 01e6 0593     		str	r3, [sp, #20]
 1962              	.LVL195:
 1963 01e8 1EE0     		b	.L206
 1964              	.LVL196:
 1965              	.L245:
 1966              		.loc 1 993 0
 1967 01ea 53F82960 		ldr	r6, [r3, r9, lsl #2]
 1968              	.LVL197:
 1969              		.loc 1 994 0
 1970 01ee 3246     		mov	r2, r6
 1971 01f0 FFF7FEFF 		bl	memcpy
 1972              	.LVL198:
 1973              		.loc 1 996 0
 1974 01f4 1BAB     		add	r3, sp, #108
 1975 01f6 0093     		str	r3, [sp]
 1976 01f8 27AB     		add	r3, sp, #156
 1977 01fa 0193     		str	r3, [sp, #4]
 1978 01fc 0293     		str	r3, [sp, #8]
 1979 01fe 3146     		mov	r1, r6
 1980 0200 0AAA     		add	r2, sp, #40
 1981 0202 5346     		mov	r3, r10
 1982 0204 37A8     		add	r0, sp, #220
 1983 0206 FFF7FEFF 		bl	camellia_crypt_ctr
 1984              	.LVL199:
 1985              		.loc 1 998 0
 1986 020a 4F4B     		ldr	r3, .L247+44
 1987 020c 27A8     		add	r0, sp, #156
 1988 020e 3246     		mov	r2, r6
 1989 0210 1919     		adds	r1, r3, r4
 1990 0212 FFF7FEFF 		bl	memcmp
ARM GAS  C:\Users\jo\AppData\Local\Temp\ccGejNPS.s 			page 36


 1991              	.LVL200:
 1992 0216 0028     		cmp	r0, #0
 1993 0218 50D1     		bne	.L196
 1994              	.LVL201:
 1995              	.L204:
 1996              		.loc 1 1022 0
 1997 021a 059B     		ldr	r3, [sp, #20]
 1998 021c 002B     		cmp	r3, #0
 1999 021e 40F0A580 		bne	.L243
 2000              	.LVL202:
 2001              		.loc 1 976 0 discriminator 2
 2002 0222 062F     		cmp	r7, #6
 2003 0224 00F0A880 		beq	.L244
 2004              	.LVL203:
 2005              	.L206:
 2006              		.loc 1 982 0
 2007 0228 3D4B     		ldr	r3, .L247+4
 2008 022a 3C49     		ldr	r1, .L247
 2009 022c 4748     		ldr	r0, .L247+48
 2010              		.loc 1 979 0
 2011 022e 07F00106 		and	r6, r7, #1
 2012              		.loc 1 982 0
 2013 0232 002E     		cmp	r6, #0
 2014 0234 18BF     		it	ne
 2015 0236 1946     		movne	r1, r3
 2016              		.loc 1 981 0
 2017 0238 059B     		ldr	r3, [sp, #20]
 2018              		.loc 1 978 0
 2019 023a 4FEA6709 		asr	r9, r7, #1
 2020              	.LVL204:
 2021              		.loc 1 976 0
 2022 023e 0137     		adds	r7, r7, #1
 2023              	.LVL205:
 2024              		.loc 1 981 0
 2025 0240 0BB1     		cbz	r3, .L201
 2026              		.loc 1 982 0
 2027 0242 FFF7FEFF 		bl	printf
 2028              	.LVL206:
 2029              	.L201:
 2030              		.loc 1 985 0
 2031 0246 424B     		ldr	r3, .L247+52
 2032              		.loc 1 986 0
 2033 0248 424D     		ldr	r5, .L247+56
 2034              		.loc 1 985 0
 2035 024a 4FEA0914 		lsl	r4, r9, #4
 2036 024e 2344     		add	r3, r3, r4
 2037 0250 0FCB     		ldmia	r3, {r0, r1, r2, r3}
 2038              		.loc 1 986 0
 2039 0252 2C44     		add	r4, r4, r5
 2040              		.loc 1 985 0
 2041 0254 8AE80F00 		stmia	r10, {r0, r1, r2, r3}
 2042              		.loc 1 986 0
 2043 0258 94E80F00 		ldmia	r4, {r0, r1, r2, r3}
 2044              		.loc 1 988 0
 2045 025c 0024     		movs	r4, #0
 2046              		.loc 1 986 0
 2047 025e 1FAD     		add	r5, sp, #124
ARM GAS  C:\Users\jo\AppData\Local\Temp\ccGejNPS.s 			page 37


 2048              		.loc 1 988 0
 2049 0260 0A94     		str	r4, [sp, #40]
 2050              		.loc 1 994 0
 2051 0262 09EB4904 		add	r4, r9, r9, lsl #1
 2052              		.loc 1 986 0
 2053 0266 85E80F00 		stmia	r5, {r0, r1, r2, r3}
 2054              		.loc 1 994 0
 2055 026a 2401     		lsls	r4, r4, #4
 2056              		.loc 1 989 0
 2057 026c 2946     		mov	r1, r5
 2058 026e 37A8     		add	r0, sp, #220
 2059 0270 8022     		movs	r2, #128
 2060 0272 FFF7FEFF 		bl	camellia_setkey_enc
 2061              	.LVL207:
 2062              		.loc 1 1009 0
 2063 0276 A046     		mov	r8, r4
 2064              		.loc 1 994 0
 2065 0278 0BEB0401 		add	r1, fp, r4
 2066 027c 27A8     		add	r0, sp, #156
 2067              		.loc 1 993 0
 2068 027e 364B     		ldr	r3, .L247+60
 2069              		.loc 1 991 0
 2070 0280 002E     		cmp	r6, #0
 2071 0282 B2D0     		beq	.L245
 2072              		.loc 1 1008 0
 2073 0284 53F82940 		ldr	r4, [r3, r9, lsl #2]
 2074              	.LVL208:
 2075              		.loc 1 1009 0
 2076 0288 2F4B     		ldr	r3, .L247+44
 2077 028a 2246     		mov	r2, r4
 2078 028c 03EB0801 		add	r1, r3, r8
 2079 0290 27A8     		add	r0, sp, #156
 2080 0292 FFF7FEFF 		bl	memcpy
 2081              	.LVL209:
 2082              		.loc 1 1011 0
 2083 0296 1BAB     		add	r3, sp, #108
 2084 0298 0093     		str	r3, [sp]
 2085 029a 27AB     		add	r3, sp, #156
 2086 029c 0193     		str	r3, [sp, #4]
 2087 029e 0293     		str	r3, [sp, #8]
 2088 02a0 2146     		mov	r1, r4
 2089 02a2 0AAA     		add	r2, sp, #40
 2090 02a4 37A8     		add	r0, sp, #220
 2091 02a6 5346     		mov	r3, r10
 2092 02a8 FFF7FEFF 		bl	camellia_crypt_ctr
 2093              	.LVL210:
 2094              		.loc 1 1013 0
 2095 02ac 27A8     		add	r0, sp, #156
 2096 02ae 2246     		mov	r2, r4
 2097 02b0 0BEB0801 		add	r1, fp, r8
 2098 02b4 FFF7FEFF 		bl	memcmp
 2099              	.LVL211:
 2100 02b8 0028     		cmp	r0, #0
 2101 02ba AED0     		beq	.L204
 2102              	.LVL212:
 2103              	.L196:
 2104              		.loc 1 906 0
ARM GAS  C:\Users\jo\AppData\Local\Temp\ccGejNPS.s 			page 38


 2105 02bc 069B     		ldr	r3, [sp, #24]
 2106              		.loc 1 909 0
 2107 02be 0125     		movs	r5, #1
 2108              		.loc 1 906 0
 2109 02c0 002B     		cmp	r3, #0
 2110 02c2 68D1     		bne	.L246
 2111              	.L184:
 2112              		.loc 1 1031 0
 2113 02c4 2846     		mov	r0, r5
 2114 02c6 7DB0     		add	sp, sp, #500
 2115              		.cfi_remember_state
 2116              		.cfi_def_cfa_offset 36
 2117              		@ sp needed
 2118 02c8 BDE8F08F 		pop	{r4, r5, r6, r7, r8, r9, r10, fp, pc}
 2119              	.LVL213:
 2120              	.L181:
 2121              		.cfi_restore_state
 2122              		.loc 1 897 0
 2123 02cc FFF7FEFF 		bl	camellia_setkey_enc
 2124              	.LVL214:
 2125              		.loc 1 898 0
 2126 02d0 174B     		ldr	r3, .L247+20
 2127              		.loc 1 899 0
 2128 02d2 06EB040E 		add	lr, r6, r4
 2129              		.loc 1 898 0
 2130 02d6 2344     		add	r3, r3, r4
 2131 02d8 D0E6     		b	.L238
 2132              	.LVL215:
 2133              	.L194:
 2134              		.loc 1 949 0
 2135 02da 9AE80F00 		ldmia	r10, {r0, r1, r2, r3}
 2136 02de 13AE     		add	r6, sp, #76
 2137 02e0 86E80F00 		stmia	r6, {r0, r1, r2, r3}
 2138              		.loc 1 950 0
 2139 02e4 DCF80000 		ldr	r0, [ip]	@ unaligned
 2140 02e8 DCF80410 		ldr	r1, [ip, #4]	@ unaligned
 2141 02ec DCF80820 		ldr	r2, [ip, #8]	@ unaligned
 2142 02f0 DCF80C30 		ldr	r3, [ip, #12]	@ unaligned
 2143 02f4 0FC5     		stmia	r5!, {r0, r1, r2, r3}
 2144              		.loc 1 951 0
 2145 02f6 D9F80000 		ldr	r0, [r9]	@ unaligned
 2146 02fa D9F80410 		ldr	r1, [r9, #4]	@ unaligned
 2147 02fe D9F80820 		ldr	r2, [r9, #8]	@ unaligned
 2148 0302 D9F80C30 		ldr	r3, [r9, #12]	@ unaligned
 2149 0306 079D     		ldr	r5, [sp, #28]
 2150 0308 0FC5     		stmia	r5!, {r0, r1, r2, r3}
 2151 030a 42E7     		b	.L195
 2152              	.LVL216:
 2153              	.L192:
 2154              		.loc 1 939 0
 2155 030c FFF7FEFF 		bl	camellia_setkey_enc
 2156              	.LVL217:
 2157 0310 12E7     		b	.L193
 2158              	.LVL218:
 2159              	.L239:
 2160              		.loc 1 914 0
 2161 0312 1248     		ldr	r0, .L247+64
ARM GAS  C:\Users\jo\AppData\Local\Temp\ccGejNPS.s 			page 39


 2162 0314 FFF7FEFF 		bl	puts
 2163              	.LVL219:
 2164 0318 D8E6     		b	.L186
 2165              	.L248:
 2166 031a 00BF     		.align	2
 2167              	.L247:
 2168 031c 00000000 		.word	.LC0
 2169 0320 04000000 		.word	.LC1
 2170 0324 08000000 		.word	.LC2
 2171 0328 00000000 		.word	.LANCHOR8
 2172 032c 00000000 		.word	.LANCHOR9
 2173 0330 00000000 		.word	.LANCHOR10
 2174 0334 34000000 		.word	.LC5
 2175 0338 00000000 		.word	.LANCHOR11
 2176 033c 00000000 		.word	.LANCHOR12
 2177 0340 00000000 		.word	.LANCHOR13
 2178 0344 00000000 		.word	.LANCHOR14
 2179 0348 00000000 		.word	.LANCHOR19
 2180 034c 50000000 		.word	.LC6
 2181 0350 00000000 		.word	.LANCHOR15
 2182 0354 00000000 		.word	.LANCHOR16
 2183 0358 00000000 		.word	.LANCHOR17
 2184 035c 2C000000 		.word	.LC4
 2185 0360 00000000 		.word	.LANCHOR18
 2186              	.LVL220:
 2187              	.L241:
 2188              		.loc 1 966 0
 2189 0364 1248     		ldr	r0, .L249
 2190 0366 FFF7FEFF 		bl	puts
 2191              	.LVL221:
 2192 036a 2CE7     		b	.L198
 2193              	.LVL222:
 2194              	.L243:
 2195              		.loc 1 1023 0
 2196 036c 1048     		ldr	r0, .L249
 2197 036e FFF7FEFF 		bl	puts
 2198              	.LVL223:
 2199              		.loc 1 976 0
 2200 0372 062F     		cmp	r7, #6
 2201 0374 7FF458AF 		bne	.L206
 2202              	.L244:
 2203              		.loc 1 1026 0
 2204 0378 069B     		ldr	r3, [sp, #24]
 2205 037a 079D     		ldr	r5, [sp, #28]
 2206 037c 002B     		cmp	r3, #0
 2207 037e A1D0     		beq	.L184
 2208              		.loc 1 1027 0
 2209 0380 0A20     		movs	r0, #10
 2210 0382 FFF7FEFF 		bl	putchar
 2211              	.LVL224:
 2212              		.loc 1 1031 0
 2213 0386 2846     		mov	r0, r5
 2214 0388 7DB0     		add	sp, sp, #500
 2215              		.cfi_remember_state
 2216              		.cfi_def_cfa_offset 36
 2217              		@ sp needed
 2218 038a BDE8F08F 		pop	{r4, r5, r6, r7, r8, r9, r10, fp, pc}
ARM GAS  C:\Users\jo\AppData\Local\Temp\ccGejNPS.s 			page 40


 2219              	.LVL225:
 2220              	.L240:
 2221              		.cfi_restore_state
 2222              		.loc 1 918 0
 2223 038e 0A20     		movs	r0, #10
 2224 0390 FFF7FEFF 		bl	putchar
 2225              	.LVL226:
 2226 0394 A3E6     		b	.L188
 2227              	.LVL227:
 2228              	.L246:
 2229              		.loc 1 907 0
 2230 0396 0748     		ldr	r0, .L249+4
 2231 0398 FFF7FEFF 		bl	puts
 2232              	.LVL228:
 2233              		.loc 1 909 0
 2234 039c 0125     		movs	r5, #1
 2235              		.loc 1 1031 0
 2236 039e 2846     		mov	r0, r5
 2237 03a0 7DB0     		add	sp, sp, #500
 2238              		.cfi_remember_state
 2239              		.cfi_def_cfa_offset 36
 2240              		@ sp needed
 2241 03a2 BDE8F08F 		pop	{r4, r5, r6, r7, r8, r9, r10, fp, pc}
 2242              	.LVL229:
 2243              	.L242:
 2244              		.cfi_restore_state
 2245              		.loc 1 970 0
 2246 03a6 0A20     		movs	r0, #10
 2247 03a8 FFF7FEFF 		bl	putchar
 2248              	.LVL230:
 2249 03ac 14E7     		b	.L200
 2250              	.L250:
 2251 03ae 00BF     		.align	2
 2252              	.L249:
 2253 03b0 2C000000 		.word	.LC4
 2254 03b4 24000000 		.word	.LC3
 2255              		.cfi_endproc
 2256              	.LFE7:
 2257              		.size	camellia_self_test, .-camellia_self_test
 2258 03b8 AFF30080 		.section	.rodata.camellia_test_ecb_cipher,"a",%progbits
 2258      AFF30080 
 2259              		.align	2
 2260              		.set	.LANCHOR9,. + 0
 2261              		.type	camellia_test_ecb_cipher, %object
 2262              		.size	camellia_test_ecb_cipher, 96
 2263              	camellia_test_ecb_cipher:
 2264 0000 67       		.byte	103
 2265 0001 67       		.byte	103
 2266 0002 31       		.byte	49
 2267 0003 38       		.byte	56
 2268 0004 54       		.byte	84
 2269 0005 96       		.byte	-106
 2270 0006 69       		.byte	105
 2271 0007 73       		.byte	115
 2272 0008 08       		.byte	8
 2273 0009 57       		.byte	87
 2274 000a 06       		.byte	6
ARM GAS  C:\Users\jo\AppData\Local\Temp\ccGejNPS.s 			page 41


 2275 000b 56       		.byte	86
 2276 000c 48       		.byte	72
 2277 000d EA       		.byte	-22
 2278 000e BE       		.byte	-66
 2279 000f 43       		.byte	67
 2280 0010 38       		.byte	56
 2281 0011 3C       		.byte	60
 2282 0012 6C       		.byte	108
 2283 0013 2A       		.byte	42
 2284 0014 AB       		.byte	-85
 2285 0015 EF       		.byte	-17
 2286 0016 7F       		.byte	127
 2287 0017 DE       		.byte	-34
 2288 0018 25       		.byte	37
 2289 0019 CD       		.byte	-51
 2290 001a 47       		.byte	71
 2291 001b 0B       		.byte	11
 2292 001c F7       		.byte	-9
 2293 001d 74       		.byte	116
 2294 001e A3       		.byte	-93
 2295 001f 31       		.byte	49
 2296 0020 B4       		.byte	-76
 2297 0021 99       		.byte	-103
 2298 0022 34       		.byte	52
 2299 0023 01       		.byte	1
 2300 0024 B3       		.byte	-77
 2301 0025 E9       		.byte	-23
 2302 0026 96       		.byte	-106
 2303 0027 F8       		.byte	-8
 2304 0028 4E       		.byte	78
 2305 0029 E5       		.byte	-27
 2306 002a CE       		.byte	-50
 2307 002b E7       		.byte	-25
 2308 002c D7       		.byte	-41
 2309 002d 9B       		.byte	-101
 2310 002e 09       		.byte	9
 2311 002f B9       		.byte	-71
 2312 0030 D1       		.byte	-47
 2313 0031 76       		.byte	118
 2314 0032 3F       		.byte	63
 2315 0033 C0       		.byte	-64
 2316 0034 19       		.byte	25
 2317 0035 D7       		.byte	-41
 2318 0036 7C       		.byte	124
 2319 0037 C9       		.byte	-55
 2320 0038 30       		.byte	48
 2321 0039 BF       		.byte	-65
 2322 003a F2       		.byte	-14
 2323 003b A5       		.byte	-91
 2324 003c 6F       		.byte	111
 2325 003d 7C       		.byte	124
 2326 003e 93       		.byte	-109
 2327 003f 64       		.byte	100
 2328 0040 9A       		.byte	-102
 2329 0041 CC       		.byte	-52
 2330 0042 23       		.byte	35
 2331 0043 7D       		.byte	125
ARM GAS  C:\Users\jo\AppData\Local\Temp\ccGejNPS.s 			page 42


 2332 0044 FF       		.byte	-1
 2333 0045 16       		.byte	22
 2334 0046 D7       		.byte	-41
 2335 0047 6C       		.byte	108
 2336 0048 20       		.byte	32
 2337 0049 EF       		.byte	-17
 2338 004a 7C       		.byte	124
 2339 004b 91       		.byte	-111
 2340 004c 9E       		.byte	-98
 2341 004d 3A       		.byte	58
 2342 004e 75       		.byte	117
 2343 004f 09       		.byte	9
 2344 0050 05       		.byte	5
 2345 0051 03       		.byte	3
 2346 0052 FB       		.byte	-5
 2347 0053 10       		.byte	16
 2348 0054 AB       		.byte	-85
 2349 0055 24       		.byte	36
 2350 0056 1E       		.byte	30
 2351 0057 7C       		.byte	124
 2352 0058 F4       		.byte	-12
 2353 0059 5D       		.byte	93
 2354 005a 8C       		.byte	-116
 2355 005b DE       		.byte	-34
 2356 005c EE       		.byte	-18
 2357 005d 47       		.byte	71
 2358 005e 43       		.byte	67
 2359 005f 35       		.byte	53
 2360              		.section	.rodata.camellia_test_cbc_plain,"a",%progbits
 2361              		.align	2
 2362              		.set	.LANCHOR14,. + 0
 2363              		.type	camellia_test_cbc_plain, %object
 2364              		.size	camellia_test_cbc_plain, 48
 2365              	camellia_test_cbc_plain:
 2366 0000 6B       		.byte	107
 2367 0001 C1       		.byte	-63
 2368 0002 BE       		.byte	-66
 2369 0003 E2       		.byte	-30
 2370 0004 2E       		.byte	46
 2371 0005 40       		.byte	64
 2372 0006 9F       		.byte	-97
 2373 0007 96       		.byte	-106
 2374 0008 E9       		.byte	-23
 2375 0009 3D       		.byte	61
 2376 000a 7E       		.byte	126
 2377 000b 11       		.byte	17
 2378 000c 73       		.byte	115
 2379 000d 93       		.byte	-109
 2380 000e 17       		.byte	23
 2381 000f 2A       		.byte	42
 2382 0010 AE       		.byte	-82
 2383 0011 2D       		.byte	45
 2384 0012 8A       		.byte	-118
 2385 0013 57       		.byte	87
 2386 0014 1E       		.byte	30
 2387 0015 03       		.byte	3
 2388 0016 AC       		.byte	-84
ARM GAS  C:\Users\jo\AppData\Local\Temp\ccGejNPS.s 			page 43


 2389 0017 9C       		.byte	-100
 2390 0018 9E       		.byte	-98
 2391 0019 B7       		.byte	-73
 2392 001a 6F       		.byte	111
 2393 001b AC       		.byte	-84
 2394 001c 45       		.byte	69
 2395 001d AF       		.byte	-81
 2396 001e 8E       		.byte	-114
 2397 001f 51       		.byte	81
 2398 0020 30       		.byte	48
 2399 0021 C8       		.byte	-56
 2400 0022 1C       		.byte	28
 2401 0023 46       		.byte	70
 2402 0024 A3       		.byte	-93
 2403 0025 5C       		.byte	92
 2404 0026 E4       		.byte	-28
 2405 0027 11       		.byte	17
 2406 0028 E5       		.byte	-27
 2407 0029 FB       		.byte	-5
 2408 002a C1       		.byte	-63
 2409 002b 19       		.byte	25
 2410 002c 1A       		.byte	26
 2411 002d 0A       		.byte	10
 2412 002e 52       		.byte	82
 2413 002f EF       		.byte	-17
 2414              		.section	.rodata.camellia_test_ctr_key,"a",%progbits
 2415              		.align	2
 2416              		.set	.LANCHOR16,. + 0
 2417              		.type	camellia_test_ctr_key, %object
 2418              		.size	camellia_test_ctr_key, 48
 2419              	camellia_test_ctr_key:
 2420 0000 AE       		.byte	-82
 2421 0001 68       		.byte	104
 2422 0002 52       		.byte	82
 2423 0003 F8       		.byte	-8
 2424 0004 12       		.byte	18
 2425 0005 10       		.byte	16
 2426 0006 67       		.byte	103
 2427 0007 CC       		.byte	-52
 2428 0008 4B       		.byte	75
 2429 0009 F7       		.byte	-9
 2430 000a A5       		.byte	-91
 2431 000b 76       		.byte	118
 2432 000c 55       		.byte	85
 2433 000d 77       		.byte	119
 2434 000e F3       		.byte	-13
 2435 000f 9E       		.byte	-98
 2436 0010 7E       		.byte	126
 2437 0011 24       		.byte	36
 2438 0012 06       		.byte	6
 2439 0013 78       		.byte	120
 2440 0014 17       		.byte	23
 2441 0015 FA       		.byte	-6
 2442 0016 E0       		.byte	-32
 2443 0017 D7       		.byte	-41
 2444 0018 43       		.byte	67
 2445 0019 D6       		.byte	-42
ARM GAS  C:\Users\jo\AppData\Local\Temp\ccGejNPS.s 			page 44


 2446 001a CE       		.byte	-50
 2447 001b 1F       		.byte	31
 2448 001c 32       		.byte	50
 2449 001d 53       		.byte	83
 2450 001e 91       		.byte	-111
 2451 001f 63       		.byte	99
 2452 0020 76       		.byte	118
 2453 0021 91       		.byte	-111
 2454 0022 BE       		.byte	-66
 2455 0023 03       		.byte	3
 2456 0024 5E       		.byte	94
 2457 0025 50       		.byte	80
 2458 0026 20       		.byte	32
 2459 0027 A8       		.byte	-88
 2460 0028 AC       		.byte	-84
 2461 0029 6E       		.byte	110
 2462 002a 61       		.byte	97
 2463 002b 85       		.byte	-123
 2464 002c 29       		.byte	41
 2465 002d F9       		.byte	-7
 2466 002e A0       		.byte	-96
 2467 002f DC       		.byte	-36
 2468              		.section	.rodata.camellia_test_cbc_iv,"a",%progbits
 2469              		.align	2
 2470              		.set	.LANCHOR11,. + 0
 2471              		.type	camellia_test_cbc_iv, %object
 2472              		.size	camellia_test_cbc_iv, 16
 2473              	camellia_test_cbc_iv:
 2474 0000 00       		.byte	0
 2475 0001 01       		.byte	1
 2476 0002 02       		.byte	2
 2477 0003 03       		.byte	3
 2478 0004 04       		.byte	4
 2479 0005 05       		.byte	5
 2480 0006 06       		.byte	6
 2481 0007 07       		.byte	7
 2482 0008 08       		.byte	8
 2483 0009 09       		.byte	9
 2484 000a 0A       		.byte	10
 2485 000b 0B       		.byte	11
 2486 000c 0C       		.byte	12
 2487 000d 0D       		.byte	13
 2488 000e 0E       		.byte	14
 2489 000f 0F       		.byte	15
 2490              		.section	.rodata.FSb,"a",%progbits
 2491              		.align	2
 2492              		.set	.LANCHOR0,. + 0
 2493              		.type	FSb, %object
 2494              		.size	FSb, 256
 2495              	FSb:
 2496 0000 70       		.byte	112
 2497 0001 82       		.byte	-126
 2498 0002 2C       		.byte	44
 2499 0003 EC       		.byte	-20
 2500 0004 B3       		.byte	-77
 2501 0005 27       		.byte	39
 2502 0006 C0       		.byte	-64
ARM GAS  C:\Users\jo\AppData\Local\Temp\ccGejNPS.s 			page 45


 2503 0007 E5       		.byte	-27
 2504 0008 E4       		.byte	-28
 2505 0009 85       		.byte	-123
 2506 000a 57       		.byte	87
 2507 000b 35       		.byte	53
 2508 000c EA       		.byte	-22
 2509 000d 0C       		.byte	12
 2510 000e AE       		.byte	-82
 2511 000f 41       		.byte	65
 2512 0010 23       		.byte	35
 2513 0011 EF       		.byte	-17
 2514 0012 6B       		.byte	107
 2515 0013 93       		.byte	-109
 2516 0014 45       		.byte	69
 2517 0015 19       		.byte	25
 2518 0016 A5       		.byte	-91
 2519 0017 21       		.byte	33
 2520 0018 ED       		.byte	-19
 2521 0019 0E       		.byte	14
 2522 001a 4F       		.byte	79
 2523 001b 4E       		.byte	78
 2524 001c 1D       		.byte	29
 2525 001d 65       		.byte	101
 2526 001e 92       		.byte	-110
 2527 001f BD       		.byte	-67
 2528 0020 86       		.byte	-122
 2529 0021 B8       		.byte	-72
 2530 0022 AF       		.byte	-81
 2531 0023 8F       		.byte	-113
 2532 0024 7C       		.byte	124
 2533 0025 EB       		.byte	-21
 2534 0026 1F       		.byte	31
 2535 0027 CE       		.byte	-50
 2536 0028 3E       		.byte	62
 2537 0029 30       		.byte	48
 2538 002a DC       		.byte	-36
 2539 002b 5F       		.byte	95
 2540 002c 5E       		.byte	94
 2541 002d C5       		.byte	-59
 2542 002e 0B       		.byte	11
 2543 002f 1A       		.byte	26
 2544 0030 A6       		.byte	-90
 2545 0031 E1       		.byte	-31
 2546 0032 39       		.byte	57
 2547 0033 CA       		.byte	-54
 2548 0034 D5       		.byte	-43
 2549 0035 47       		.byte	71
 2550 0036 5D       		.byte	93
 2551 0037 3D       		.byte	61
 2552 0038 D9       		.byte	-39
 2553 0039 01       		.byte	1
 2554 003a 5A       		.byte	90
 2555 003b D6       		.byte	-42
 2556 003c 51       		.byte	81
 2557 003d 56       		.byte	86
 2558 003e 6C       		.byte	108
 2559 003f 4D       		.byte	77
ARM GAS  C:\Users\jo\AppData\Local\Temp\ccGejNPS.s 			page 46


 2560 0040 8B       		.byte	-117
 2561 0041 0D       		.byte	13
 2562 0042 9A       		.byte	-102
 2563 0043 66       		.byte	102
 2564 0044 FB       		.byte	-5
 2565 0045 CC       		.byte	-52
 2566 0046 B0       		.byte	-80
 2567 0047 2D       		.byte	45
 2568 0048 74       		.byte	116
 2569 0049 12       		.byte	18
 2570 004a 2B       		.byte	43
 2571 004b 20       		.byte	32
 2572 004c F0       		.byte	-16
 2573 004d B1       		.byte	-79
 2574 004e 84       		.byte	-124
 2575 004f 99       		.byte	-103
 2576 0050 DF       		.byte	-33
 2577 0051 4C       		.byte	76
 2578 0052 CB       		.byte	-53
 2579 0053 C2       		.byte	-62
 2580 0054 34       		.byte	52
 2581 0055 7E       		.byte	126
 2582 0056 76       		.byte	118
 2583 0057 05       		.byte	5
 2584 0058 6D       		.byte	109
 2585 0059 B7       		.byte	-73
 2586 005a A9       		.byte	-87
 2587 005b 31       		.byte	49
 2588 005c D1       		.byte	-47
 2589 005d 17       		.byte	23
 2590 005e 04       		.byte	4
 2591 005f D7       		.byte	-41
 2592 0060 14       		.byte	20
 2593 0061 58       		.byte	88
 2594 0062 3A       		.byte	58
 2595 0063 61       		.byte	97
 2596 0064 DE       		.byte	-34
 2597 0065 1B       		.byte	27
 2598 0066 11       		.byte	17
 2599 0067 1C       		.byte	28
 2600 0068 32       		.byte	50
 2601 0069 0F       		.byte	15
 2602 006a 9C       		.byte	-100
 2603 006b 16       		.byte	22
 2604 006c 53       		.byte	83
 2605 006d 18       		.byte	24
 2606 006e F2       		.byte	-14
 2607 006f 22       		.byte	34
 2608 0070 FE       		.byte	-2
 2609 0071 44       		.byte	68
 2610 0072 CF       		.byte	-49
 2611 0073 B2       		.byte	-78
 2612 0074 C3       		.byte	-61
 2613 0075 B5       		.byte	-75
 2614 0076 7A       		.byte	122
 2615 0077 91       		.byte	-111
 2616 0078 24       		.byte	36
ARM GAS  C:\Users\jo\AppData\Local\Temp\ccGejNPS.s 			page 47


 2617 0079 08       		.byte	8
 2618 007a E8       		.byte	-24
 2619 007b A8       		.byte	-88
 2620 007c 60       		.byte	96
 2621 007d FC       		.byte	-4
 2622 007e 69       		.byte	105
 2623 007f 50       		.byte	80
 2624 0080 AA       		.byte	-86
 2625 0081 D0       		.byte	-48
 2626 0082 A0       		.byte	-96
 2627 0083 7D       		.byte	125
 2628 0084 A1       		.byte	-95
 2629 0085 89       		.byte	-119
 2630 0086 62       		.byte	98
 2631 0087 97       		.byte	-105
 2632 0088 54       		.byte	84
 2633 0089 5B       		.byte	91
 2634 008a 1E       		.byte	30
 2635 008b 95       		.byte	-107
 2636 008c E0       		.byte	-32
 2637 008d FF       		.byte	-1
 2638 008e 64       		.byte	100
 2639 008f D2       		.byte	-46
 2640 0090 10       		.byte	16
 2641 0091 C4       		.byte	-60
 2642 0092 00       		.byte	0
 2643 0093 48       		.byte	72
 2644 0094 A3       		.byte	-93
 2645 0095 F7       		.byte	-9
 2646 0096 75       		.byte	117
 2647 0097 DB       		.byte	-37
 2648 0098 8A       		.byte	-118
 2649 0099 03       		.byte	3
 2650 009a E6       		.byte	-26
 2651 009b DA       		.byte	-38
 2652 009c 09       		.byte	9
 2653 009d 3F       		.byte	63
 2654 009e DD       		.byte	-35
 2655 009f 94       		.byte	-108
 2656 00a0 87       		.byte	-121
 2657 00a1 5C       		.byte	92
 2658 00a2 83       		.byte	-125
 2659 00a3 02       		.byte	2
 2660 00a4 CD       		.byte	-51
 2661 00a5 4A       		.byte	74
 2662 00a6 90       		.byte	-112
 2663 00a7 33       		.byte	51
 2664 00a8 73       		.byte	115
 2665 00a9 67       		.byte	103
 2666 00aa F6       		.byte	-10
 2667 00ab F3       		.byte	-13
 2668 00ac 9D       		.byte	-99
 2669 00ad 7F       		.byte	127
 2670 00ae BF       		.byte	-65
 2671 00af E2       		.byte	-30
 2672 00b0 52       		.byte	82
 2673 00b1 9B       		.byte	-101
ARM GAS  C:\Users\jo\AppData\Local\Temp\ccGejNPS.s 			page 48


 2674 00b2 D8       		.byte	-40
 2675 00b3 26       		.byte	38
 2676 00b4 C8       		.byte	-56
 2677 00b5 37       		.byte	55
 2678 00b6 C6       		.byte	-58
 2679 00b7 3B       		.byte	59
 2680 00b8 81       		.byte	-127
 2681 00b9 96       		.byte	-106
 2682 00ba 6F       		.byte	111
 2683 00bb 4B       		.byte	75
 2684 00bc 13       		.byte	19
 2685 00bd BE       		.byte	-66
 2686 00be 63       		.byte	99
 2687 00bf 2E       		.byte	46
 2688 00c0 E9       		.byte	-23
 2689 00c1 79       		.byte	121
 2690 00c2 A7       		.byte	-89
 2691 00c3 8C       		.byte	-116
 2692 00c4 9F       		.byte	-97
 2693 00c5 6E       		.byte	110
 2694 00c6 BC       		.byte	-68
 2695 00c7 8E       		.byte	-114
 2696 00c8 29       		.byte	41
 2697 00c9 F5       		.byte	-11
 2698 00ca F9       		.byte	-7
 2699 00cb B6       		.byte	-74
 2700 00cc 2F       		.byte	47
 2701 00cd FD       		.byte	-3
 2702 00ce B4       		.byte	-76
 2703 00cf 59       		.byte	89
 2704 00d0 78       		.byte	120
 2705 00d1 98       		.byte	-104
 2706 00d2 06       		.byte	6
 2707 00d3 6A       		.byte	106
 2708 00d4 E7       		.byte	-25
 2709 00d5 46       		.byte	70
 2710 00d6 71       		.byte	113
 2711 00d7 BA       		.byte	-70
 2712 00d8 D4       		.byte	-44
 2713 00d9 25       		.byte	37
 2714 00da AB       		.byte	-85
 2715 00db 42       		.byte	66
 2716 00dc 88       		.byte	-120
 2717 00dd A2       		.byte	-94
 2718 00de 8D       		.byte	-115
 2719 00df FA       		.byte	-6
 2720 00e0 72       		.byte	114
 2721 00e1 07       		.byte	7
 2722 00e2 B9       		.byte	-71
 2723 00e3 55       		.byte	85
 2724 00e4 F8       		.byte	-8
 2725 00e5 EE       		.byte	-18
 2726 00e6 AC       		.byte	-84
 2727 00e7 0A       		.byte	10
 2728 00e8 36       		.byte	54
 2729 00e9 49       		.byte	73
 2730 00ea 2A       		.byte	42
ARM GAS  C:\Users\jo\AppData\Local\Temp\ccGejNPS.s 			page 49


 2731 00eb 68       		.byte	104
 2732 00ec 3C       		.byte	60
 2733 00ed 38       		.byte	56
 2734 00ee F1       		.byte	-15
 2735 00ef A4       		.byte	-92
 2736 00f0 40       		.byte	64
 2737 00f1 28       		.byte	40
 2738 00f2 D3       		.byte	-45
 2739 00f3 7B       		.byte	123
 2740 00f4 BB       		.byte	-69
 2741 00f5 C9       		.byte	-55
 2742 00f6 43       		.byte	67
 2743 00f7 C1       		.byte	-63
 2744 00f8 15       		.byte	21
 2745 00f9 E3       		.byte	-29
 2746 00fa AD       		.byte	-83
 2747 00fb F4       		.byte	-12
 2748 00fc 77       		.byte	119
 2749 00fd C7       		.byte	-57
 2750 00fe 80       		.byte	-128
 2751 00ff 9E       		.byte	-98
 2752              		.section	.rodata.camellia_test_cbc_cipher,"a",%progbits
 2753              		.align	2
 2754              		.set	.LANCHOR13,. + 0
 2755              		.type	camellia_test_cbc_cipher, %object
 2756              		.size	camellia_test_cbc_cipher, 144
 2757              	camellia_test_cbc_cipher:
 2758 0000 16       		.byte	22
 2759 0001 07       		.byte	7
 2760 0002 CF       		.byte	-49
 2761 0003 49       		.byte	73
 2762 0004 4B       		.byte	75
 2763 0005 36       		.byte	54
 2764 0006 BB       		.byte	-69
 2765 0007 F0       		.byte	-16
 2766 0008 0D       		.byte	13
 2767 0009 AE       		.byte	-82
 2768 000a B0       		.byte	-80
 2769 000b B5       		.byte	-75
 2770 000c 03       		.byte	3
 2771 000d C8       		.byte	-56
 2772 000e 31       		.byte	49
 2773 000f AB       		.byte	-85
 2774 0010 A2       		.byte	-94
 2775 0011 F2       		.byte	-14
 2776 0012 CF       		.byte	-49
 2777 0013 67       		.byte	103
 2778 0014 16       		.byte	22
 2779 0015 29       		.byte	41
 2780 0016 EF       		.byte	-17
 2781 0017 78       		.byte	120
 2782 0018 40       		.byte	64
 2783 0019 C5       		.byte	-59
 2784 001a A5       		.byte	-91
 2785 001b DF       		.byte	-33
 2786 001c B5       		.byte	-75
 2787 001d 07       		.byte	7
ARM GAS  C:\Users\jo\AppData\Local\Temp\ccGejNPS.s 			page 50


 2788 001e 48       		.byte	72
 2789 001f 87       		.byte	-121
 2790 0020 0F       		.byte	15
 2791 0021 06       		.byte	6
 2792 0022 16       		.byte	22
 2793 0023 50       		.byte	80
 2794 0024 08       		.byte	8
 2795 0025 CF       		.byte	-49
 2796 0026 8B       		.byte	-117
 2797 0027 8B       		.byte	-117
 2798 0028 5A       		.byte	90
 2799 0029 63       		.byte	99
 2800 002a 58       		.byte	88
 2801 002b 63       		.byte	99
 2802 002c 62       		.byte	98
 2803 002d 54       		.byte	84
 2804 002e 3E       		.byte	62
 2805 002f 54       		.byte	84
 2806 0030 2A       		.byte	42
 2807 0031 48       		.byte	72
 2808 0032 30       		.byte	48
 2809 0033 AB       		.byte	-85
 2810 0034 5A       		.byte	90
 2811 0035 C4       		.byte	-60
 2812 0036 A1       		.byte	-95
 2813 0037 A2       		.byte	-94
 2814 0038 40       		.byte	64
 2815 0039 59       		.byte	89
 2816 003a 55       		.byte	85
 2817 003b FD       		.byte	-3
 2818 003c 21       		.byte	33
 2819 003d 95       		.byte	-107
 2820 003e CF       		.byte	-49
 2821 003f 93       		.byte	-109
 2822 0040 5D       		.byte	93
 2823 0041 5A       		.byte	90
 2824 0042 86       		.byte	-122
 2825 0043 9B       		.byte	-101
 2826 0044 D1       		.byte	-47
 2827 0045 4C       		.byte	76
 2828 0046 E5       		.byte	-27
 2829 0047 42       		.byte	66
 2830 0048 64       		.byte	100
 2831 0049 F8       		.byte	-8
 2832 004a 92       		.byte	-110
 2833 004b A6       		.byte	-90
 2834 004c DD       		.byte	-35
 2835 004d 2E       		.byte	46
 2836 004e C3       		.byte	-61
 2837 004f D5       		.byte	-43
 2838 0050 37       		.byte	55
 2839 0051 D3       		.byte	-45
 2840 0052 59       		.byte	89
 2841 0053 C3       		.byte	-61
 2842 0054 34       		.byte	52
 2843 0055 98       		.byte	-104
 2844 0056 36       		.byte	54
ARM GAS  C:\Users\jo\AppData\Local\Temp\ccGejNPS.s 			page 51


 2845 0057 D8       		.byte	-40
 2846 0058 84       		.byte	-124
 2847 0059 E3       		.byte	-29
 2848 005a 10       		.byte	16
 2849 005b AD       		.byte	-83
 2850 005c DF       		.byte	-33
 2851 005d 68       		.byte	104
 2852 005e C4       		.byte	-60
 2853 005f 49       		.byte	73
 2854 0060 E6       		.byte	-26
 2855 0061 CF       		.byte	-49
 2856 0062 A3       		.byte	-93
 2857 0063 5F       		.byte	95
 2858 0064 C0       		.byte	-64
 2859 0065 2B       		.byte	43
 2860 0066 13       		.byte	19
 2861 0067 4A       		.byte	74
 2862 0068 4D       		.byte	77
 2863 0069 2C       		.byte	44
 2864 006a 0B       		.byte	11
 2865 006b 67       		.byte	103
 2866 006c 37       		.byte	55
 2867 006d AC       		.byte	-84
 2868 006e 3E       		.byte	62
 2869 006f DA       		.byte	-38
 2870 0070 36       		.byte	54
 2871 0071 CB       		.byte	-53
 2872 0072 EB       		.byte	-21
 2873 0073 73       		.byte	115
 2874 0074 BD       		.byte	-67
 2875 0075 50       		.byte	80
 2876 0076 4B       		.byte	75
 2877 0077 40       		.byte	64
 2878 0078 70       		.byte	112
 2879 0079 B1       		.byte	-79
 2880 007a B7       		.byte	-73
 2881 007b DE       		.byte	-34
 2882 007c 2B       		.byte	43
 2883 007d 21       		.byte	33
 2884 007e EB       		.byte	-21
 2885 007f 50       		.byte	80
 2886 0080 E3       		.byte	-29
 2887 0081 1A       		.byte	26
 2888 0082 60       		.byte	96
 2889 0083 55       		.byte	85
 2890 0084 29       		.byte	41
 2891 0085 7D       		.byte	125
 2892 0086 96       		.byte	-106
 2893 0087 CA       		.byte	-54
 2894 0088 33       		.byte	51
 2895 0089 30       		.byte	48
 2896 008a CD       		.byte	-51
 2897 008b F1       		.byte	-15
 2898 008c B1       		.byte	-79
 2899 008d 86       		.byte	-122
 2900 008e 0A       		.byte	10
 2901 008f 83       		.byte	-125
ARM GAS  C:\Users\jo\AppData\Local\Temp\ccGejNPS.s 			page 52


 2902              		.section	.rodata.shifts,"a",%progbits
 2903              		.align	2
 2904              		.set	.LANCHOR5,. + 0
 2905              		.type	shifts, %object
 2906              		.size	shifts, 32
 2907              	shifts:
 2908 0000 01       		.byte	1
 2909 0001 01       		.byte	1
 2910 0002 01       		.byte	1
 2911 0003 01       		.byte	1
 2912 0004 00       		.byte	0
 2913 0005 00       		.byte	0
 2914 0006 00       		.byte	0
 2915 0007 00       		.byte	0
 2916 0008 01       		.byte	1
 2917 0009 01       		.byte	1
 2918 000a 01       		.byte	1
 2919 000b 01       		.byte	1
 2920 000c 00       		.byte	0
 2921 000d 00       		.byte	0
 2922 000e 00       		.byte	0
 2923 000f 00       		.byte	0
 2924 0010 01       		.byte	1
 2925 0011 00       		.byte	0
 2926 0012 01       		.byte	1
 2927 0013 01       		.byte	1
 2928 0014 01       		.byte	1
 2929 0015 01       		.byte	1
 2930 0016 00       		.byte	0
 2931 0017 01       		.byte	1
 2932 0018 01       		.byte	1
 2933 0019 01       		.byte	1
 2934 001a 01       		.byte	1
 2935 001b 00       		.byte	0
 2936 001c 01       		.byte	1
 2937 001d 01       		.byte	1
 2938 001e 00       		.byte	0
 2939 001f 01       		.byte	1
 2940              		.section	.rodata.camellia_test_ctr_ct,"a",%progbits
 2941              		.align	2
 2942              		.set	.LANCHOR18,. + 0
 2943              		.type	camellia_test_ctr_ct, %object
 2944              		.size	camellia_test_ctr_ct, 144
 2945              	camellia_test_ctr_ct:
 2946 0000 D0       		.byte	-48
 2947 0001 9D       		.byte	-99
 2948 0002 C2       		.byte	-62
 2949 0003 9A       		.byte	-102
 2950 0004 82       		.byte	-126
 2951 0005 14       		.byte	20
 2952 0006 61       		.byte	97
 2953 0007 9A       		.byte	-102
 2954 0008 20       		.byte	32
 2955 0009 87       		.byte	-121
 2956 000a 7C       		.byte	124
 2957 000b 76       		.byte	118
 2958 000c DB       		.byte	-37
ARM GAS  C:\Users\jo\AppData\Local\Temp\ccGejNPS.s 			page 53


 2959 000d 1F       		.byte	31
 2960 000e 0B       		.byte	11
 2961 000f 3F       		.byte	63
 2962 0010 00000000 		.space	32
 2962      00000000 
 2962      00000000 
 2962      00000000 
 2962      00000000 
 2963 0030 DB       		.byte	-37
 2964 0031 F3       		.byte	-13
 2965 0032 C7       		.byte	-57
 2966 0033 8D       		.byte	-115
 2967 0034 C0       		.byte	-64
 2968 0035 83       		.byte	-125
 2969 0036 96       		.byte	-106
 2970 0037 D4       		.byte	-44
 2971 0038 DA       		.byte	-38
 2972 0039 7C       		.byte	124
 2973 003a 90       		.byte	-112
 2974 003b 77       		.byte	119
 2975 003c 65       		.byte	101
 2976 003d BB       		.byte	-69
 2977 003e CB       		.byte	-53
 2978 003f 44       		.byte	68
 2979 0040 2B       		.byte	43
 2980 0041 8E       		.byte	-114
 2981 0042 8E       		.byte	-114
 2982 0043 0F       		.byte	15
 2983 0044 31       		.byte	49
 2984 0045 F0       		.byte	-16
 2985 0046 DC       		.byte	-36
 2986 0047 A7       		.byte	-89
 2987 0048 2C       		.byte	44
 2988 0049 74       		.byte	116
 2989 004a 17       		.byte	23
 2990 004b E3       		.byte	-29
 2991 004c 53       		.byte	83
 2992 004d 60       		.byte	96
 2993 004e E0       		.byte	-32
 2994 004f 48       		.byte	72
 2995 0050 00000000 		.space	16
 2995      00000000 
 2995      00000000 
 2995      00000000 
 2996 0060 B1       		.byte	-79
 2997 0061 9D       		.byte	-99
 2998 0062 1F       		.byte	31
 2999 0063 CD       		.byte	-51
 3000 0064 CB       		.byte	-53
 3001 0065 75       		.byte	117
 3002 0066 EB       		.byte	-21
 3003 0067 88       		.byte	-120
 3004 0068 2F       		.byte	47
 3005 0069 84       		.byte	-124
 3006 006a 9C       		.byte	-100
 3007 006b E2       		.byte	-30
 3008 006c 4D       		.byte	77
ARM GAS  C:\Users\jo\AppData\Local\Temp\ccGejNPS.s 			page 54


 3009 006d 85       		.byte	-123
 3010 006e CF       		.byte	-49
 3011 006f 73       		.byte	115
 3012 0070 9C       		.byte	-100
 3013 0071 E6       		.byte	-26
 3014 0072 4B       		.byte	75
 3015 0073 2B       		.byte	43
 3016 0074 5C       		.byte	92
 3017 0075 9D       		.byte	-99
 3018 0076 73       		.byte	115
 3019 0077 F1       		.byte	-15
 3020 0078 4F       		.byte	79
 3021 0079 2D       		.byte	45
 3022 007a 5D       		.byte	93
 3023 007b 9D       		.byte	-99
 3024 007c CE       		.byte	-50
 3025 007d 98       		.byte	-104
 3026 007e 89       		.byte	-119
 3027 007f CD       		.byte	-51
 3028 0080 DF       		.byte	-33
 3029 0081 50       		.byte	80
 3030 0082 86       		.byte	-122
 3031 0083 96       		.byte	-106
 3032 0084 00000000 		.space	12
 3032      00000000 
 3032      00000000 
 3033              		.section	.rodata.FSb2,"a",%progbits
 3034              		.align	2
 3035              		.set	.LANCHOR2,. + 0
 3036              		.type	FSb2, %object
 3037              		.size	FSb2, 256
 3038              	FSb2:
 3039 0000 E0       		.byte	-32
 3040 0001 05       		.byte	5
 3041 0002 58       		.byte	88
 3042 0003 D9       		.byte	-39
 3043 0004 67       		.byte	103
 3044 0005 4E       		.byte	78
 3045 0006 81       		.byte	-127
 3046 0007 CB       		.byte	-53
 3047 0008 C9       		.byte	-55
 3048 0009 0B       		.byte	11
 3049 000a AE       		.byte	-82
 3050 000b 6A       		.byte	106
 3051 000c D5       		.byte	-43
 3052 000d 18       		.byte	24
 3053 000e 5D       		.byte	93
 3054 000f 82       		.byte	-126
 3055 0010 46       		.byte	70
 3056 0011 DF       		.byte	-33
 3057 0012 D6       		.byte	-42
 3058 0013 27       		.byte	39
 3059 0014 8A       		.byte	-118
 3060 0015 32       		.byte	50
 3061 0016 4B       		.byte	75
 3062 0017 42       		.byte	66
 3063 0018 DB       		.byte	-37
ARM GAS  C:\Users\jo\AppData\Local\Temp\ccGejNPS.s 			page 55


 3064 0019 1C       		.byte	28
 3065 001a 9E       		.byte	-98
 3066 001b 9C       		.byte	-100
 3067 001c 3A       		.byte	58
 3068 001d CA       		.byte	-54
 3069 001e 25       		.byte	37
 3070 001f 7B       		.byte	123
 3071 0020 0D       		.byte	13
 3072 0021 71       		.byte	113
 3073 0022 5F       		.byte	95
 3074 0023 1F       		.byte	31
 3075 0024 F8       		.byte	-8
 3076 0025 D7       		.byte	-41
 3077 0026 3E       		.byte	62
 3078 0027 9D       		.byte	-99
 3079 0028 7C       		.byte	124
 3080 0029 60       		.byte	96
 3081 002a B9       		.byte	-71
 3082 002b BE       		.byte	-66
 3083 002c BC       		.byte	-68
 3084 002d 8B       		.byte	-117
 3085 002e 16       		.byte	22
 3086 002f 34       		.byte	52
 3087 0030 4D       		.byte	77
 3088 0031 C3       		.byte	-61
 3089 0032 72       		.byte	114
 3090 0033 95       		.byte	-107
 3091 0034 AB       		.byte	-85
 3092 0035 8E       		.byte	-114
 3093 0036 BA       		.byte	-70
 3094 0037 7A       		.byte	122
 3095 0038 B3       		.byte	-77
 3096 0039 02       		.byte	2
 3097 003a B4       		.byte	-76
 3098 003b AD       		.byte	-83
 3099 003c A2       		.byte	-94
 3100 003d AC       		.byte	-84
 3101 003e D8       		.byte	-40
 3102 003f 9A       		.byte	-102
 3103 0040 17       		.byte	23
 3104 0041 1A       		.byte	26
 3105 0042 35       		.byte	53
 3106 0043 CC       		.byte	-52
 3107 0044 F7       		.byte	-9
 3108 0045 99       		.byte	-103
 3109 0046 61       		.byte	97
 3110 0047 5A       		.byte	90
 3111 0048 E8       		.byte	-24
 3112 0049 24       		.byte	36
 3113 004a 56       		.byte	86
 3114 004b 40       		.byte	64
 3115 004c E1       		.byte	-31
 3116 004d 63       		.byte	99
 3117 004e 09       		.byte	9
 3118 004f 33       		.byte	51
 3119 0050 BF       		.byte	-65
 3120 0051 98       		.byte	-104
ARM GAS  C:\Users\jo\AppData\Local\Temp\ccGejNPS.s 			page 56


 3121 0052 97       		.byte	-105
 3122 0053 85       		.byte	-123
 3123 0054 68       		.byte	104
 3124 0055 FC       		.byte	-4
 3125 0056 EC       		.byte	-20
 3126 0057 0A       		.byte	10
 3127 0058 DA       		.byte	-38
 3128 0059 6F       		.byte	111
 3129 005a 53       		.byte	83
 3130 005b 62       		.byte	98
 3131 005c A3       		.byte	-93
 3132 005d 2E       		.byte	46
 3133 005e 08       		.byte	8
 3134 005f AF       		.byte	-81
 3135 0060 28       		.byte	40
 3136 0061 B0       		.byte	-80
 3137 0062 74       		.byte	116
 3138 0063 C2       		.byte	-62
 3139 0064 BD       		.byte	-67
 3140 0065 36       		.byte	54
 3141 0066 22       		.byte	34
 3142 0067 38       		.byte	56
 3143 0068 64       		.byte	100
 3144 0069 1E       		.byte	30
 3145 006a 39       		.byte	57
 3146 006b 2C       		.byte	44
 3147 006c A6       		.byte	-90
 3148 006d 30       		.byte	48
 3149 006e E5       		.byte	-27
 3150 006f 44       		.byte	68
 3151 0070 FD       		.byte	-3
 3152 0071 88       		.byte	-120
 3153 0072 9F       		.byte	-97
 3154 0073 65       		.byte	101
 3155 0074 87       		.byte	-121
 3156 0075 6B       		.byte	107
 3157 0076 F4       		.byte	-12
 3158 0077 23       		.byte	35
 3159 0078 48       		.byte	72
 3160 0079 10       		.byte	16
 3161 007a D1       		.byte	-47
 3162 007b 51       		.byte	81
 3163 007c C0       		.byte	-64
 3164 007d F9       		.byte	-7
 3165 007e D2       		.byte	-46
 3166 007f A0       		.byte	-96
 3167 0080 55       		.byte	85
 3168 0081 A1       		.byte	-95
 3169 0082 41       		.byte	65
 3170 0083 FA       		.byte	-6
 3171 0084 43       		.byte	67
 3172 0085 13       		.byte	19
 3173 0086 C4       		.byte	-60
 3174 0087 2F       		.byte	47
 3175 0088 A8       		.byte	-88
 3176 0089 B6       		.byte	-74
 3177 008a 3C       		.byte	60
ARM GAS  C:\Users\jo\AppData\Local\Temp\ccGejNPS.s 			page 57


 3178 008b 2B       		.byte	43
 3179 008c C1       		.byte	-63
 3180 008d FF       		.byte	-1
 3181 008e C8       		.byte	-56
 3182 008f A5       		.byte	-91
 3183 0090 20       		.byte	32
 3184 0091 89       		.byte	-119
 3185 0092 00       		.byte	0
 3186 0093 90       		.byte	-112
 3187 0094 47       		.byte	71
 3188 0095 EF       		.byte	-17
 3189 0096 EA       		.byte	-22
 3190 0097 B7       		.byte	-73
 3191 0098 15       		.byte	21
 3192 0099 06       		.byte	6
 3193 009a CD       		.byte	-51
 3194 009b B5       		.byte	-75
 3195 009c 12       		.byte	18
 3196 009d 7E       		.byte	126
 3197 009e BB       		.byte	-69
 3198 009f 29       		.byte	41
 3199 00a0 0F       		.byte	15
 3200 00a1 B8       		.byte	-72
 3201 00a2 07       		.byte	7
 3202 00a3 04       		.byte	4
 3203 00a4 9B       		.byte	-101
 3204 00a5 94       		.byte	-108
 3205 00a6 21       		.byte	33
 3206 00a7 66       		.byte	102
 3207 00a8 E6       		.byte	-26
 3208 00a9 CE       		.byte	-50
 3209 00aa ED       		.byte	-19
 3210 00ab E7       		.byte	-25
 3211 00ac 3B       		.byte	59
 3212 00ad FE       		.byte	-2
 3213 00ae 7F       		.byte	127
 3214 00af C5       		.byte	-59
 3215 00b0 A4       		.byte	-92
 3216 00b1 37       		.byte	55
 3217 00b2 B1       		.byte	-79
 3218 00b3 4C       		.byte	76
 3219 00b4 91       		.byte	-111
 3220 00b5 6E       		.byte	110
 3221 00b6 8D       		.byte	-115
 3222 00b7 76       		.byte	118
 3223 00b8 03       		.byte	3
 3224 00b9 2D       		.byte	45
 3225 00ba DE       		.byte	-34
 3226 00bb 96       		.byte	-106
 3227 00bc 26       		.byte	38
 3228 00bd 7D       		.byte	125
 3229 00be C6       		.byte	-58
 3230 00bf 5C       		.byte	92
 3231 00c0 D3       		.byte	-45
 3232 00c1 F2       		.byte	-14
 3233 00c2 4F       		.byte	79
 3234 00c3 19       		.byte	25
ARM GAS  C:\Users\jo\AppData\Local\Temp\ccGejNPS.s 			page 58


 3235 00c4 3F       		.byte	63
 3236 00c5 DC       		.byte	-36
 3237 00c6 79       		.byte	121
 3238 00c7 1D       		.byte	29
 3239 00c8 52       		.byte	82
 3240 00c9 EB       		.byte	-21
 3241 00ca F3       		.byte	-13
 3242 00cb 6D       		.byte	109
 3243 00cc 5E       		.byte	94
 3244 00cd FB       		.byte	-5
 3245 00ce 69       		.byte	105
 3246 00cf B2       		.byte	-78
 3247 00d0 F0       		.byte	-16
 3248 00d1 31       		.byte	49
 3249 00d2 0C       		.byte	12
 3250 00d3 D4       		.byte	-44
 3251 00d4 CF       		.byte	-49
 3252 00d5 8C       		.byte	-116
 3253 00d6 E2       		.byte	-30
 3254 00d7 75       		.byte	117
 3255 00d8 A9       		.byte	-87
 3256 00d9 4A       		.byte	74
 3257 00da 57       		.byte	87
 3258 00db 84       		.byte	-124
 3259 00dc 11       		.byte	17
 3260 00dd 45       		.byte	69
 3261 00de 1B       		.byte	27
 3262 00df F5       		.byte	-11
 3263 00e0 E4       		.byte	-28
 3264 00e1 0E       		.byte	14
 3265 00e2 73       		.byte	115
 3266 00e3 AA       		.byte	-86
 3267 00e4 F1       		.byte	-15
 3268 00e5 DD       		.byte	-35
 3269 00e6 59       		.byte	89
 3270 00e7 14       		.byte	20
 3271 00e8 6C       		.byte	108
 3272 00e9 92       		.byte	-110
 3273 00ea 54       		.byte	84
 3274 00eb D0       		.byte	-48
 3275 00ec 78       		.byte	120
 3276 00ed 70       		.byte	112
 3277 00ee E3       		.byte	-29
 3278 00ef 49       		.byte	73
 3279 00f0 80       		.byte	-128
 3280 00f1 50       		.byte	80
 3281 00f2 A7       		.byte	-89
 3282 00f3 F6       		.byte	-10
 3283 00f4 77       		.byte	119
 3284 00f5 93       		.byte	-109
 3285 00f6 86       		.byte	-122
 3286 00f7 83       		.byte	-125
 3287 00f8 2A       		.byte	42
 3288 00f9 C7       		.byte	-57
 3289 00fa 5B       		.byte	91
 3290 00fb E9       		.byte	-23
 3291 00fc EE       		.byte	-18
ARM GAS  C:\Users\jo\AppData\Local\Temp\ccGejNPS.s 			page 59


 3292 00fd 8F       		.byte	-113
 3293 00fe 01       		.byte	1
 3294 00ff 3D       		.byte	61
 3295              		.section	.rodata.FSb3,"a",%progbits
 3296              		.align	2
 3297              		.set	.LANCHOR3,. + 0
 3298              		.type	FSb3, %object
 3299              		.size	FSb3, 256
 3300              	FSb3:
 3301 0000 38       		.byte	56
 3302 0001 41       		.byte	65
 3303 0002 16       		.byte	22
 3304 0003 76       		.byte	118
 3305 0004 D9       		.byte	-39
 3306 0005 93       		.byte	-109
 3307 0006 60       		.byte	96
 3308 0007 F2       		.byte	-14
 3309 0008 72       		.byte	114
 3310 0009 C2       		.byte	-62
 3311 000a AB       		.byte	-85
 3312 000b 9A       		.byte	-102
 3313 000c 75       		.byte	117
 3314 000d 06       		.byte	6
 3315 000e 57       		.byte	87
 3316 000f A0       		.byte	-96
 3317 0010 91       		.byte	-111
 3318 0011 F7       		.byte	-9
 3319 0012 B5       		.byte	-75
 3320 0013 C9       		.byte	-55
 3321 0014 A2       		.byte	-94
 3322 0015 8C       		.byte	-116
 3323 0016 D2       		.byte	-46
 3324 0017 90       		.byte	-112
 3325 0018 F6       		.byte	-10
 3326 0019 07       		.byte	7
 3327 001a A7       		.byte	-89
 3328 001b 27       		.byte	39
 3329 001c 8E       		.byte	-114
 3330 001d B2       		.byte	-78
 3331 001e 49       		.byte	73
 3332 001f DE       		.byte	-34
 3333 0020 43       		.byte	67
 3334 0021 5C       		.byte	92
 3335 0022 D7       		.byte	-41
 3336 0023 C7       		.byte	-57
 3337 0024 3E       		.byte	62
 3338 0025 F5       		.byte	-11
 3339 0026 8F       		.byte	-113
 3340 0027 67       		.byte	103
 3341 0028 1F       		.byte	31
 3342 0029 18       		.byte	24
 3343 002a 6E       		.byte	110
 3344 002b AF       		.byte	-81
 3345 002c 2F       		.byte	47
 3346 002d E2       		.byte	-30
 3347 002e 85       		.byte	-123
 3348 002f 0D       		.byte	13
ARM GAS  C:\Users\jo\AppData\Local\Temp\ccGejNPS.s 			page 60


 3349 0030 53       		.byte	83
 3350 0031 F0       		.byte	-16
 3351 0032 9C       		.byte	-100
 3352 0033 65       		.byte	101
 3353 0034 EA       		.byte	-22
 3354 0035 A3       		.byte	-93
 3355 0036 AE       		.byte	-82
 3356 0037 9E       		.byte	-98
 3357 0038 EC       		.byte	-20
 3358 0039 80       		.byte	-128
 3359 003a 2D       		.byte	45
 3360 003b 6B       		.byte	107
 3361 003c A8       		.byte	-88
 3362 003d 2B       		.byte	43
 3363 003e 36       		.byte	54
 3364 003f A6       		.byte	-90
 3365 0040 C5       		.byte	-59
 3366 0041 86       		.byte	-122
 3367 0042 4D       		.byte	77
 3368 0043 33       		.byte	51
 3369 0044 FD       		.byte	-3
 3370 0045 66       		.byte	102
 3371 0046 58       		.byte	88
 3372 0047 96       		.byte	-106
 3373 0048 3A       		.byte	58
 3374 0049 09       		.byte	9
 3375 004a 95       		.byte	-107
 3376 004b 10       		.byte	16
 3377 004c 78       		.byte	120
 3378 004d D8       		.byte	-40
 3379 004e 42       		.byte	66
 3380 004f CC       		.byte	-52
 3381 0050 EF       		.byte	-17
 3382 0051 26       		.byte	38
 3383 0052 E5       		.byte	-27
 3384 0053 61       		.byte	97
 3385 0054 1A       		.byte	26
 3386 0055 3F       		.byte	63
 3387 0056 3B       		.byte	59
 3388 0057 82       		.byte	-126
 3389 0058 B6       		.byte	-74
 3390 0059 DB       		.byte	-37
 3391 005a D4       		.byte	-44
 3392 005b 98       		.byte	-104
 3393 005c E8       		.byte	-24
 3394 005d 8B       		.byte	-117
 3395 005e 02       		.byte	2
 3396 005f EB       		.byte	-21
 3397 0060 0A       		.byte	10
 3398 0061 2C       		.byte	44
 3399 0062 1D       		.byte	29
 3400 0063 B0       		.byte	-80
 3401 0064 6F       		.byte	111
 3402 0065 8D       		.byte	-115
 3403 0066 88       		.byte	-120
 3404 0067 0E       		.byte	14
 3405 0068 19       		.byte	25
ARM GAS  C:\Users\jo\AppData\Local\Temp\ccGejNPS.s 			page 61


 3406 0069 87       		.byte	-121
 3407 006a 4E       		.byte	78
 3408 006b 0B       		.byte	11
 3409 006c A9       		.byte	-87
 3410 006d 0C       		.byte	12
 3411 006e 79       		.byte	121
 3412 006f 11       		.byte	17
 3413 0070 7F       		.byte	127
 3414 0071 22       		.byte	34
 3415 0072 E7       		.byte	-25
 3416 0073 59       		.byte	89
 3417 0074 E1       		.byte	-31
 3418 0075 DA       		.byte	-38
 3419 0076 3D       		.byte	61
 3420 0077 C8       		.byte	-56
 3421 0078 12       		.byte	18
 3422 0079 04       		.byte	4
 3423 007a 74       		.byte	116
 3424 007b 54       		.byte	84
 3425 007c 30       		.byte	48
 3426 007d 7E       		.byte	126
 3427 007e B4       		.byte	-76
 3428 007f 28       		.byte	40
 3429 0080 55       		.byte	85
 3430 0081 68       		.byte	104
 3431 0082 50       		.byte	80
 3432 0083 BE       		.byte	-66
 3433 0084 D0       		.byte	-48
 3434 0085 C4       		.byte	-60
 3435 0086 31       		.byte	49
 3436 0087 CB       		.byte	-53
 3437 0088 2A       		.byte	42
 3438 0089 AD       		.byte	-83
 3439 008a 0F       		.byte	15
 3440 008b CA       		.byte	-54
 3441 008c 70       		.byte	112
 3442 008d FF       		.byte	-1
 3443 008e 32       		.byte	50
 3444 008f 69       		.byte	105
 3445 0090 08       		.byte	8
 3446 0091 62       		.byte	98
 3447 0092 00       		.byte	0
 3448 0093 24       		.byte	36
 3449 0094 D1       		.byte	-47
 3450 0095 FB       		.byte	-5
 3451 0096 BA       		.byte	-70
 3452 0097 ED       		.byte	-19
 3453 0098 45       		.byte	69
 3454 0099 81       		.byte	-127
 3455 009a 73       		.byte	115
 3456 009b 6D       		.byte	109
 3457 009c 84       		.byte	-124
 3458 009d 9F       		.byte	-97
 3459 009e EE       		.byte	-18
 3460 009f 4A       		.byte	74
 3461 00a0 C3       		.byte	-61
 3462 00a1 2E       		.byte	46
ARM GAS  C:\Users\jo\AppData\Local\Temp\ccGejNPS.s 			page 62


 3463 00a2 C1       		.byte	-63
 3464 00a3 01       		.byte	1
 3465 00a4 E6       		.byte	-26
 3466 00a5 25       		.byte	37
 3467 00a6 48       		.byte	72
 3468 00a7 99       		.byte	-103
 3469 00a8 B9       		.byte	-71
 3470 00a9 B3       		.byte	-77
 3471 00aa 7B       		.byte	123
 3472 00ab F9       		.byte	-7
 3473 00ac CE       		.byte	-50
 3474 00ad BF       		.byte	-65
 3475 00ae DF       		.byte	-33
 3476 00af 71       		.byte	113
 3477 00b0 29       		.byte	41
 3478 00b1 CD       		.byte	-51
 3479 00b2 6C       		.byte	108
 3480 00b3 13       		.byte	19
 3481 00b4 64       		.byte	100
 3482 00b5 9B       		.byte	-101
 3483 00b6 63       		.byte	99
 3484 00b7 9D       		.byte	-99
 3485 00b8 C0       		.byte	-64
 3486 00b9 4B       		.byte	75
 3487 00ba B7       		.byte	-73
 3488 00bb A5       		.byte	-91
 3489 00bc 89       		.byte	-119
 3490 00bd 5F       		.byte	95
 3491 00be B1       		.byte	-79
 3492 00bf 17       		.byte	23
 3493 00c0 F4       		.byte	-12
 3494 00c1 BC       		.byte	-68
 3495 00c2 D3       		.byte	-45
 3496 00c3 46       		.byte	70
 3497 00c4 CF       		.byte	-49
 3498 00c5 37       		.byte	55
 3499 00c6 5E       		.byte	94
 3500 00c7 47       		.byte	71
 3501 00c8 94       		.byte	-108
 3502 00c9 FA       		.byte	-6
 3503 00ca FC       		.byte	-4
 3504 00cb 5B       		.byte	91
 3505 00cc 97       		.byte	-105
 3506 00cd FE       		.byte	-2
 3507 00ce 5A       		.byte	90
 3508 00cf AC       		.byte	-84
 3509 00d0 3C       		.byte	60
 3510 00d1 4C       		.byte	76
 3511 00d2 03       		.byte	3
 3512 00d3 35       		.byte	53
 3513 00d4 F3       		.byte	-13
 3514 00d5 23       		.byte	35
 3515 00d6 B8       		.byte	-72
 3516 00d7 5D       		.byte	93
 3517 00d8 6A       		.byte	106
 3518 00d9 92       		.byte	-110
 3519 00da D5       		.byte	-43
ARM GAS  C:\Users\jo\AppData\Local\Temp\ccGejNPS.s 			page 63


 3520 00db 21       		.byte	33
 3521 00dc 44       		.byte	68
 3522 00dd 51       		.byte	81
 3523 00de C6       		.byte	-58
 3524 00df 7D       		.byte	125
 3525 00e0 39       		.byte	57
 3526 00e1 83       		.byte	-125
 3527 00e2 DC       		.byte	-36
 3528 00e3 AA       		.byte	-86
 3529 00e4 7C       		.byte	124
 3530 00e5 77       		.byte	119
 3531 00e6 56       		.byte	86
 3532 00e7 05       		.byte	5
 3533 00e8 1B       		.byte	27
 3534 00e9 A4       		.byte	-92
 3535 00ea 15       		.byte	21
 3536 00eb 34       		.byte	52
 3537 00ec 1E       		.byte	30
 3538 00ed 1C       		.byte	28
 3539 00ee F8       		.byte	-8
 3540 00ef 52       		.byte	82
 3541 00f0 20       		.byte	32
 3542 00f1 14       		.byte	20
 3543 00f2 E9       		.byte	-23
 3544 00f3 BD       		.byte	-67
 3545 00f4 DD       		.byte	-35
 3546 00f5 E4       		.byte	-28
 3547 00f6 A1       		.byte	-95
 3548 00f7 E0       		.byte	-32
 3549 00f8 8A       		.byte	-118
 3550 00f9 F1       		.byte	-15
 3551 00fa D6       		.byte	-42
 3552 00fb 7A       		.byte	122
 3553 00fc BB       		.byte	-69
 3554 00fd E3       		.byte	-29
 3555 00fe 40       		.byte	64
 3556 00ff 4F       		.byte	79
 3557              		.section	.rodata.FSb4,"a",%progbits
 3558              		.align	2
 3559              		.set	.LANCHOR1,. + 0
 3560              		.type	FSb4, %object
 3561              		.size	FSb4, 256
 3562              	FSb4:
 3563 0000 70       		.byte	112
 3564 0001 2C       		.byte	44
 3565 0002 B3       		.byte	-77
 3566 0003 C0       		.byte	-64
 3567 0004 E4       		.byte	-28
 3568 0005 57       		.byte	87
 3569 0006 EA       		.byte	-22
 3570 0007 AE       		.byte	-82
 3571 0008 23       		.byte	35
 3572 0009 6B       		.byte	107
 3573 000a 45       		.byte	69
 3574 000b A5       		.byte	-91
 3575 000c ED       		.byte	-19
 3576 000d 4F       		.byte	79
ARM GAS  C:\Users\jo\AppData\Local\Temp\ccGejNPS.s 			page 64


 3577 000e 1D       		.byte	29
 3578 000f 92       		.byte	-110
 3579 0010 86       		.byte	-122
 3580 0011 AF       		.byte	-81
 3581 0012 7C       		.byte	124
 3582 0013 1F       		.byte	31
 3583 0014 3E       		.byte	62
 3584 0015 DC       		.byte	-36
 3585 0016 5E       		.byte	94
 3586 0017 0B       		.byte	11
 3587 0018 A6       		.byte	-90
 3588 0019 39       		.byte	57
 3589 001a D5       		.byte	-43
 3590 001b 5D       		.byte	93
 3591 001c D9       		.byte	-39
 3592 001d 5A       		.byte	90
 3593 001e 51       		.byte	81
 3594 001f 6C       		.byte	108
 3595 0020 8B       		.byte	-117
 3596 0021 9A       		.byte	-102
 3597 0022 FB       		.byte	-5
 3598 0023 B0       		.byte	-80
 3599 0024 74       		.byte	116
 3600 0025 2B       		.byte	43
 3601 0026 F0       		.byte	-16
 3602 0027 84       		.byte	-124
 3603 0028 DF       		.byte	-33
 3604 0029 CB       		.byte	-53
 3605 002a 34       		.byte	52
 3606 002b 76       		.byte	118
 3607 002c 6D       		.byte	109
 3608 002d A9       		.byte	-87
 3609 002e D1       		.byte	-47
 3610 002f 04       		.byte	4
 3611 0030 14       		.byte	20
 3612 0031 3A       		.byte	58
 3613 0032 DE       		.byte	-34
 3614 0033 11       		.byte	17
 3615 0034 32       		.byte	50
 3616 0035 9C       		.byte	-100
 3617 0036 53       		.byte	83
 3618 0037 F2       		.byte	-14
 3619 0038 FE       		.byte	-2
 3620 0039 CF       		.byte	-49
 3621 003a C3       		.byte	-61
 3622 003b 7A       		.byte	122
 3623 003c 24       		.byte	36
 3624 003d E8       		.byte	-24
 3625 003e 60       		.byte	96
 3626 003f 69       		.byte	105
 3627 0040 AA       		.byte	-86
 3628 0041 A0       		.byte	-96
 3629 0042 A1       		.byte	-95
 3630 0043 62       		.byte	98
 3631 0044 54       		.byte	84
 3632 0045 1E       		.byte	30
 3633 0046 E0       		.byte	-32
ARM GAS  C:\Users\jo\AppData\Local\Temp\ccGejNPS.s 			page 65


 3634 0047 64       		.byte	100
 3635 0048 10       		.byte	16
 3636 0049 00       		.byte	0
 3637 004a A3       		.byte	-93
 3638 004b 75       		.byte	117
 3639 004c 8A       		.byte	-118
 3640 004d E6       		.byte	-26
 3641 004e 09       		.byte	9
 3642 004f DD       		.byte	-35
 3643 0050 87       		.byte	-121
 3644 0051 83       		.byte	-125
 3645 0052 CD       		.byte	-51
 3646 0053 90       		.byte	-112
 3647 0054 73       		.byte	115
 3648 0055 F6       		.byte	-10
 3649 0056 9D       		.byte	-99
 3650 0057 BF       		.byte	-65
 3651 0058 52       		.byte	82
 3652 0059 D8       		.byte	-40
 3653 005a C8       		.byte	-56
 3654 005b C6       		.byte	-58
 3655 005c 81       		.byte	-127
 3656 005d 6F       		.byte	111
 3657 005e 13       		.byte	19
 3658 005f 63       		.byte	99
 3659 0060 E9       		.byte	-23
 3660 0061 A7       		.byte	-89
 3661 0062 9F       		.byte	-97
 3662 0063 BC       		.byte	-68
 3663 0064 29       		.byte	41
 3664 0065 F9       		.byte	-7
 3665 0066 2F       		.byte	47
 3666 0067 B4       		.byte	-76
 3667 0068 78       		.byte	120
 3668 0069 06       		.byte	6
 3669 006a E7       		.byte	-25
 3670 006b 71       		.byte	113
 3671 006c D4       		.byte	-44
 3672 006d AB       		.byte	-85
 3673 006e 88       		.byte	-120
 3674 006f 8D       		.byte	-115
 3675 0070 72       		.byte	114
 3676 0071 B9       		.byte	-71
 3677 0072 F8       		.byte	-8
 3678 0073 AC       		.byte	-84
 3679 0074 36       		.byte	54
 3680 0075 2A       		.byte	42
 3681 0076 3C       		.byte	60
 3682 0077 F1       		.byte	-15
 3683 0078 40       		.byte	64
 3684 0079 D3       		.byte	-45
 3685 007a BB       		.byte	-69
 3686 007b 43       		.byte	67
 3687 007c 15       		.byte	21
 3688 007d AD       		.byte	-83
 3689 007e 77       		.byte	119
 3690 007f 80       		.byte	-128
ARM GAS  C:\Users\jo\AppData\Local\Temp\ccGejNPS.s 			page 66


 3691 0080 82       		.byte	-126
 3692 0081 EC       		.byte	-20
 3693 0082 27       		.byte	39
 3694 0083 E5       		.byte	-27
 3695 0084 85       		.byte	-123
 3696 0085 35       		.byte	53
 3697 0086 0C       		.byte	12
 3698 0087 41       		.byte	65
 3699 0088 EF       		.byte	-17
 3700 0089 93       		.byte	-109
 3701 008a 19       		.byte	25
 3702 008b 21       		.byte	33
 3703 008c 0E       		.byte	14
 3704 008d 4E       		.byte	78
 3705 008e 65       		.byte	101
 3706 008f BD       		.byte	-67
 3707 0090 B8       		.byte	-72
 3708 0091 8F       		.byte	-113
 3709 0092 EB       		.byte	-21
 3710 0093 CE       		.byte	-50
 3711 0094 30       		.byte	48
 3712 0095 5F       		.byte	95
 3713 0096 C5       		.byte	-59
 3714 0097 1A       		.byte	26
 3715 0098 E1       		.byte	-31
 3716 0099 CA       		.byte	-54
 3717 009a 47       		.byte	71
 3718 009b 3D       		.byte	61
 3719 009c 01       		.byte	1
 3720 009d D6       		.byte	-42
 3721 009e 56       		.byte	86
 3722 009f 4D       		.byte	77
 3723 00a0 0D       		.byte	13
 3724 00a1 66       		.byte	102
 3725 00a2 CC       		.byte	-52
 3726 00a3 2D       		.byte	45
 3727 00a4 12       		.byte	18
 3728 00a5 20       		.byte	32
 3729 00a6 B1       		.byte	-79
 3730 00a7 99       		.byte	-103
 3731 00a8 4C       		.byte	76
 3732 00a9 C2       		.byte	-62
 3733 00aa 7E       		.byte	126
 3734 00ab 05       		.byte	5
 3735 00ac B7       		.byte	-73
 3736 00ad 31       		.byte	49
 3737 00ae 17       		.byte	23
 3738 00af D7       		.byte	-41
 3739 00b0 58       		.byte	88
 3740 00b1 61       		.byte	97
 3741 00b2 1B       		.byte	27
 3742 00b3 1C       		.byte	28
 3743 00b4 0F       		.byte	15
 3744 00b5 16       		.byte	22
 3745 00b6 18       		.byte	24
 3746 00b7 22       		.byte	34
 3747 00b8 44       		.byte	68
ARM GAS  C:\Users\jo\AppData\Local\Temp\ccGejNPS.s 			page 67


 3748 00b9 B2       		.byte	-78
 3749 00ba B5       		.byte	-75
 3750 00bb 91       		.byte	-111
 3751 00bc 08       		.byte	8
 3752 00bd A8       		.byte	-88
 3753 00be FC       		.byte	-4
 3754 00bf 50       		.byte	80
 3755 00c0 D0       		.byte	-48
 3756 00c1 7D       		.byte	125
 3757 00c2 89       		.byte	-119
 3758 00c3 97       		.byte	-105
 3759 00c4 5B       		.byte	91
 3760 00c5 95       		.byte	-107
 3761 00c6 FF       		.byte	-1
 3762 00c7 D2       		.byte	-46
 3763 00c8 C4       		.byte	-60
 3764 00c9 48       		.byte	72
 3765 00ca F7       		.byte	-9
 3766 00cb DB       		.byte	-37
 3767 00cc 03       		.byte	3
 3768 00cd DA       		.byte	-38
 3769 00ce 3F       		.byte	63
 3770 00cf 94       		.byte	-108
 3771 00d0 5C       		.byte	92
 3772 00d1 02       		.byte	2
 3773 00d2 4A       		.byte	74
 3774 00d3 33       		.byte	51
 3775 00d4 67       		.byte	103
 3776 00d5 F3       		.byte	-13
 3777 00d6 7F       		.byte	127
 3778 00d7 E2       		.byte	-30
 3779 00d8 9B       		.byte	-101
 3780 00d9 26       		.byte	38
 3781 00da 37       		.byte	55
 3782 00db 3B       		.byte	59
 3783 00dc 96       		.byte	-106
 3784 00dd 4B       		.byte	75
 3785 00de BE       		.byte	-66
 3786 00df 2E       		.byte	46
 3787 00e0 79       		.byte	121
 3788 00e1 8C       		.byte	-116
 3789 00e2 6E       		.byte	110
 3790 00e3 8E       		.byte	-114
 3791 00e4 F5       		.byte	-11
 3792 00e5 B6       		.byte	-74
 3793 00e6 FD       		.byte	-3
 3794 00e7 59       		.byte	89
 3795 00e8 98       		.byte	-104
 3796 00e9 6A       		.byte	106
 3797 00ea 46       		.byte	70
 3798 00eb BA       		.byte	-70
 3799 00ec 25       		.byte	37
 3800 00ed 42       		.byte	66
 3801 00ee A2       		.byte	-94
 3802 00ef FA       		.byte	-6
 3803 00f0 07       		.byte	7
 3804 00f1 55       		.byte	85
ARM GAS  C:\Users\jo\AppData\Local\Temp\ccGejNPS.s 			page 68


 3805 00f2 EE       		.byte	-18
 3806 00f3 0A       		.byte	10
 3807 00f4 49       		.byte	73
 3808 00f5 68       		.byte	104
 3809 00f6 38       		.byte	56
 3810 00f7 A4       		.byte	-92
 3811 00f8 28       		.byte	40
 3812 00f9 7B       		.byte	123
 3813 00fa C9       		.byte	-55
 3814 00fb C1       		.byte	-63
 3815 00fc E3       		.byte	-29
 3816 00fd F4       		.byte	-12
 3817 00fe C7       		.byte	-57
 3818 00ff 9E       		.byte	-98
 3819              		.section	.rodata.SIGMA_CHARS,"a",%progbits
 3820              		.align	2
 3821              		.set	.LANCHOR4,. + 0
 3822              		.type	SIGMA_CHARS, %object
 3823              		.size	SIGMA_CHARS, 48
 3824              	SIGMA_CHARS:
 3825 0000 A0       		.byte	-96
 3826 0001 9E       		.byte	-98
 3827 0002 66       		.byte	102
 3828 0003 7F       		.byte	127
 3829 0004 3B       		.byte	59
 3830 0005 CC       		.byte	-52
 3831 0006 90       		.byte	-112
 3832 0007 8B       		.byte	-117
 3833 0008 B6       		.byte	-74
 3834 0009 7A       		.byte	122
 3835 000a E8       		.byte	-24
 3836 000b 58       		.byte	88
 3837 000c 4C       		.byte	76
 3838 000d AA       		.byte	-86
 3839 000e 73       		.byte	115
 3840 000f B2       		.byte	-78
 3841 0010 C6       		.byte	-58
 3842 0011 EF       		.byte	-17
 3843 0012 37       		.byte	55
 3844 0013 2F       		.byte	47
 3845 0014 E9       		.byte	-23
 3846 0015 4F       		.byte	79
 3847 0016 82       		.byte	-126
 3848 0017 BE       		.byte	-66
 3849 0018 54       		.byte	84
 3850 0019 FF       		.byte	-1
 3851 001a 53       		.byte	83
 3852 001b A5       		.byte	-91
 3853 001c F1       		.byte	-15
 3854 001d D3       		.byte	-45
 3855 001e 6F       		.byte	111
 3856 001f 1C       		.byte	28
 3857 0020 10       		.byte	16
 3858 0021 E5       		.byte	-27
 3859 0022 27       		.byte	39
 3860 0023 FA       		.byte	-6
 3861 0024 DE       		.byte	-34
ARM GAS  C:\Users\jo\AppData\Local\Temp\ccGejNPS.s 			page 69


 3862 0025 68       		.byte	104
 3863 0026 2D       		.byte	45
 3864 0027 1D       		.byte	29
 3865 0028 B0       		.byte	-80
 3866 0029 56       		.byte	86
 3867 002a 88       		.byte	-120
 3868 002b C2       		.byte	-62
 3869 002c B3       		.byte	-77
 3870 002d E6       		.byte	-26
 3871 002e C1       		.byte	-63
 3872 002f FD       		.byte	-3
 3873              		.section	.rodata.transposes,"a",%progbits
 3874              		.align	2
 3875              		.set	.LANCHOR7,. + 0
 3876              		.type	transposes, %object
 3877              		.size	transposes, 40
 3878              	transposes:
 3879 0000 15       		.byte	21
 3880 0001 16       		.byte	22
 3881 0002 17       		.byte	23
 3882 0003 14       		.byte	20
 3883 0004 FF       		.byte	-1
 3884 0005 FF       		.byte	-1
 3885 0006 FF       		.byte	-1
 3886 0007 FF       		.byte	-1
 3887 0008 12       		.byte	18
 3888 0009 13       		.byte	19
 3889 000a 10       		.byte	16
 3890 000b 11       		.byte	17
 3891 000c 0B       		.byte	11
 3892 000d 08       		.byte	8
 3893 000e 09       		.byte	9
 3894 000f 0A       		.byte	10
 3895 0010 0F       		.byte	15
 3896 0011 0C       		.byte	12
 3897 0012 0D       		.byte	13
 3898 0013 0E       		.byte	14
 3899 0014 19       		.byte	25
 3900 0015 1A       		.byte	26
 3901 0016 1B       		.byte	27
 3902 0017 18       		.byte	24
 3903 0018 1D       		.byte	29
 3904 0019 1E       		.byte	30
 3905 001a 1F       		.byte	31
 3906 001b 1C       		.byte	28
 3907 001c 12       		.byte	18
 3908 001d 13       		.byte	19
 3909 001e 10       		.byte	16
 3910 001f 11       		.byte	17
 3911 0020 FF       		.byte	-1
 3912 0021 FF       		.byte	-1
 3913 0022 FF       		.byte	-1
 3914 0023 FF       		.byte	-1
 3915 0024 FF       		.byte	-1
 3916 0025 FF       		.byte	-1
 3917 0026 FF       		.byte	-1
 3918 0027 FF       		.byte	-1
ARM GAS  C:\Users\jo\AppData\Local\Temp\ccGejNPS.s 			page 70


 3919              		.section	.rodata.str1.4,"aMS",%progbits,1
 3920              		.align	2
 3921              	.LC0:
 3922 0000 64656300 		.ascii	"dec\000"
 3923              	.LC1:
 3924 0004 656E6300 		.ascii	"enc\000"
 3925              	.LC2:
 3926 0008 20204341 		.ascii	"  CAMELLIA-ECB-%3d (%s): \000"
 3926      4D454C4C 
 3926      49412D45 
 3926      43422D25 
 3926      33642028 
 3927 0022 0000     		.space	2
 3928              	.LC3:
 3929 0024 6661696C 		.ascii	"failed\000"
 3929      656400
 3930 002b 00       		.space	1
 3931              	.LC4:
 3932 002c 70617373 		.ascii	"passed\000"
 3932      656400
 3933 0033 00       		.space	1
 3934              	.LC5:
 3935 0034 20204341 		.ascii	"  CAMELLIA-CBC-%3d (%s): \000"
 3935      4D454C4C 
 3935      49412D43 
 3935      42432D25 
 3935      33642028 
 3936 004e 0000     		.space	2
 3937              	.LC6:
 3938 0050 20204341 		.ascii	"  CAMELLIA-CTR-128 (%s): \000"
 3938      4D454C4C 
 3938      49412D43 
 3938      54522D31 
 3938      32382028 
 3939 006a 0000     		.section	.rodata.camellia_test_ctr_nonce_counter,"a",%progbits
 3940              		.align	2
 3941              		.set	.LANCHOR15,. + 0
 3942              		.type	camellia_test_ctr_nonce_counter, %object
 3943              		.size	camellia_test_ctr_nonce_counter, 48
 3944              	camellia_test_ctr_nonce_counter:
 3945 0000 00       		.byte	0
 3946 0001 00       		.byte	0
 3947 0002 00       		.byte	0
 3948 0003 30       		.byte	48
 3949 0004 00       		.byte	0
 3950 0005 00       		.byte	0
 3951 0006 00       		.byte	0
 3952 0007 00       		.byte	0
 3953 0008 00       		.byte	0
 3954 0009 00       		.byte	0
 3955 000a 00       		.byte	0
 3956 000b 00       		.byte	0
 3957 000c 00       		.byte	0
 3958 000d 00       		.byte	0
 3959 000e 00       		.byte	0
 3960 000f 01       		.byte	1
 3961 0010 00       		.byte	0
ARM GAS  C:\Users\jo\AppData\Local\Temp\ccGejNPS.s 			page 71


 3962 0011 6C       		.byte	108
 3963 0012 B6       		.byte	-74
 3964 0013 DB       		.byte	-37
 3965 0014 C0       		.byte	-64
 3966 0015 54       		.byte	84
 3967 0016 3B       		.byte	59
 3968 0017 59       		.byte	89
 3969 0018 DA       		.byte	-38
 3970 0019 48       		.byte	72
 3971 001a D9       		.byte	-39
 3972 001b 0B       		.byte	11
 3973 001c 00       		.byte	0
 3974 001d 00       		.byte	0
 3975 001e 00       		.byte	0
 3976 001f 01       		.byte	1
 3977 0020 00       		.byte	0
 3978 0021 E0       		.byte	-32
 3979 0022 01       		.byte	1
 3980 0023 7B       		.byte	123
 3981 0024 27       		.byte	39
 3982 0025 77       		.byte	119
 3983 0026 7F       		.byte	127
 3984 0027 3F       		.byte	63
 3985 0028 4A       		.byte	74
 3986 0029 17       		.byte	23
 3987 002a 86       		.byte	-122
 3988 002b F0       		.byte	-16
 3989 002c 00       		.byte	0
 3990 002d 00       		.byte	0
 3991 002e 00       		.byte	0
 3992 002f 01       		.byte	1
 3993              		.section	.rodata.indexes,"a",%progbits
 3994              		.align	2
 3995              		.set	.LANCHOR6,. + 0
 3996              		.type	indexes, %object
 3997              		.size	indexes, 160
 3998              	indexes:
 3999 0000 00       		.byte	0
 4000 0001 01       		.byte	1
 4001 0002 02       		.byte	2
 4002 0003 03       		.byte	3
 4003 0004 08       		.byte	8
 4004 0005 09       		.byte	9
 4005 0006 0A       		.byte	10
 4006 0007 0B       		.byte	11
 4007 0008 26       		.byte	38
 4008 0009 27       		.byte	39
 4009 000a 24       		.byte	36
 4010 000b 25       		.byte	37
 4011 000c 17       		.byte	23
 4012 000d 14       		.byte	20
 4013 000e 15       		.byte	21
 4014 000f 16       		.byte	22
 4015 0010 1B       		.byte	27
 4016 0011 FF       		.byte	-1
 4017 0012 FF       		.byte	-1
 4018 0013 1A       		.byte	26
ARM GAS  C:\Users\jo\AppData\Local\Temp\ccGejNPS.s 			page 72


 4019 0014 FF       		.byte	-1
 4020 0015 FF       		.byte	-1
 4021 0016 FF       		.byte	-1
 4022 0017 FF       		.byte	-1
 4023 0018 FF       		.byte	-1
 4024 0019 FF       		.byte	-1
 4025 001a FF       		.byte	-1
 4026 001b FF       		.byte	-1
 4027 001c FF       		.byte	-1
 4028 001d FF       		.byte	-1
 4029 001e FF       		.byte	-1
 4030 001f FF       		.byte	-1
 4031 0020 FF       		.byte	-1
 4032 0021 FF       		.byte	-1
 4033 0022 FF       		.byte	-1
 4034 0023 FF       		.byte	-1
 4035 0024 FF       		.byte	-1
 4036 0025 FF       		.byte	-1
 4037 0026 FF       		.byte	-1
 4038 0027 FF       		.byte	-1
 4039 0028 04       		.byte	4
 4040 0029 05       		.byte	5
 4041 002a 06       		.byte	6
 4042 002b 07       		.byte	7
 4043 002c 0C       		.byte	12
 4044 002d 0D       		.byte	13
 4045 002e 0E       		.byte	14
 4046 002f 0F       		.byte	15
 4047 0030 10       		.byte	16
 4048 0031 11       		.byte	17
 4049 0032 12       		.byte	18
 4050 0033 13       		.byte	19
 4051 0034 FF       		.byte	-1
 4052 0035 18       		.byte	24
 4053 0036 19       		.byte	25
 4054 0037 FF       		.byte	-1
 4055 0038 1F       		.byte	31
 4056 0039 1C       		.byte	28
 4057 003a 1D       		.byte	29
 4058 003b 1E       		.byte	30
 4059 003c FF       		.byte	-1
 4060 003d FF       		.byte	-1
 4061 003e FF       		.byte	-1
 4062 003f FF       		.byte	-1
 4063 0040 FF       		.byte	-1
 4064 0041 FF       		.byte	-1
 4065 0042 FF       		.byte	-1
 4066 0043 FF       		.byte	-1
 4067 0044 FF       		.byte	-1
 4068 0045 FF       		.byte	-1
 4069 0046 FF       		.byte	-1
 4070 0047 FF       		.byte	-1
 4071 0048 FF       		.byte	-1
 4072 0049 FF       		.byte	-1
 4073 004a FF       		.byte	-1
 4074 004b FF       		.byte	-1
 4075 004c FF       		.byte	-1
ARM GAS  C:\Users\jo\AppData\Local\Temp\ccGejNPS.s 			page 73


 4076 004d FF       		.byte	-1
 4077 004e FF       		.byte	-1
 4078 004f FF       		.byte	-1
 4079 0050 00       		.byte	0
 4080 0051 01       		.byte	1
 4081 0052 02       		.byte	2
 4082 0053 03       		.byte	3
 4083 0054 3D       		.byte	61
 4084 0055 3E       		.byte	62
 4085 0056 3F       		.byte	63
 4086 0057 3C       		.byte	60
 4087 0058 FF       		.byte	-1
 4088 0059 FF       		.byte	-1
 4089 005a FF       		.byte	-1
 4090 005b FF       		.byte	-1
 4091 005c 1B       		.byte	27
 4092 005d 18       		.byte	24
 4093 005e 19       		.byte	25
 4094 005f 1A       		.byte	26
 4095 0060 23       		.byte	35
 4096 0061 20       		.byte	32
 4097 0062 21       		.byte	33
 4098 0063 22       		.byte	34
 4099 0064 FF       		.byte	-1
 4100 0065 FF       		.byte	-1
 4101 0066 FF       		.byte	-1
 4102 0067 FF       		.byte	-1
 4103 0068 08       		.byte	8
 4104 0069 09       		.byte	9
 4105 006a 0A       		.byte	10
 4106 006b 0B       		.byte	11
 4107 006c 10       		.byte	16
 4108 006d 11       		.byte	17
 4109 006e 12       		.byte	18
 4110 006f 13       		.byte	19
 4111 0070 FF       		.byte	-1
 4112 0071 FF       		.byte	-1
 4113 0072 FF       		.byte	-1
 4114 0073 FF       		.byte	-1
 4115 0074 27       		.byte	39
 4116 0075 24       		.byte	36
 4117 0076 25       		.byte	37
 4118 0077 26       		.byte	38
 4119 0078 FF       		.byte	-1
 4120 0079 FF       		.byte	-1
 4121 007a FF       		.byte	-1
 4122 007b FF       		.byte	-1
 4123 007c 0C       		.byte	12
 4124 007d 0D       		.byte	13
 4125 007e 0E       		.byte	14
 4126 007f 0F       		.byte	15
 4127 0080 3A       		.byte	58
 4128 0081 3B       		.byte	59
 4129 0082 38       		.byte	56
 4130 0083 39       		.byte	57
 4131 0084 1F       		.byte	31
 4132 0085 1C       		.byte	28
ARM GAS  C:\Users\jo\AppData\Local\Temp\ccGejNPS.s 			page 74


 4133 0086 1D       		.byte	29
 4134 0087 1E       		.byte	30
 4135 0088 FF       		.byte	-1
 4136 0089 FF       		.byte	-1
 4137 008a FF       		.byte	-1
 4138 008b FF       		.byte	-1
 4139 008c 04       		.byte	4
 4140 008d 05       		.byte	5
 4141 008e 06       		.byte	6
 4142 008f 07       		.byte	7
 4143 0090 41       		.byte	65
 4144 0091 42       		.byte	66
 4145 0092 43       		.byte	67
 4146 0093 40       		.byte	64
 4147 0094 14       		.byte	20
 4148 0095 15       		.byte	21
 4149 0096 16       		.byte	22
 4150 0097 17       		.byte	23
 4151 0098 FF       		.byte	-1
 4152 0099 FF       		.byte	-1
 4153 009a FF       		.byte	-1
 4154 009b FF       		.byte	-1
 4155 009c 2B       		.byte	43
 4156 009d 28       		.byte	40
 4157 009e 29       		.byte	41
 4158 009f 2A       		.byte	42
 4159              		.section	.rodata.camellia_test_ecb_plain,"a",%progbits
 4160              		.align	2
 4161              		.set	.LANCHOR10,. + 0
 4162              		.type	camellia_test_ecb_plain, %object
 4163              		.size	camellia_test_ecb_plain, 32
 4164              	camellia_test_ecb_plain:
 4165 0000 01       		.byte	1
 4166 0001 23       		.byte	35
 4167 0002 45       		.byte	69
 4168 0003 67       		.byte	103
 4169 0004 89       		.byte	-119
 4170 0005 AB       		.byte	-85
 4171 0006 CD       		.byte	-51
 4172 0007 EF       		.byte	-17
 4173 0008 FE       		.byte	-2
 4174 0009 DC       		.byte	-36
 4175 000a BA       		.byte	-70
 4176 000b 98       		.byte	-104
 4177 000c 76       		.byte	118
 4178 000d 54       		.byte	84
 4179 000e 32       		.byte	50
 4180 000f 10       		.byte	16
 4181 0010 00       		.byte	0
 4182 0011 00       		.byte	0
 4183 0012 00       		.byte	0
 4184 0013 00       		.byte	0
 4185 0014 02       		.byte	2
 4186 0015 00       		.byte	0
 4187 0016 00       		.byte	0
 4188 0017 00       		.byte	0
 4189 0018 00       		.byte	0
ARM GAS  C:\Users\jo\AppData\Local\Temp\ccGejNPS.s 			page 75


 4190 0019 00       		.byte	0
 4191 001a 00       		.byte	0
 4192 001b 00       		.byte	0
 4193 001c 00       		.byte	0
 4194 001d 00       		.byte	0
 4195 001e 00       		.byte	0
 4196 001f 00       		.byte	0
 4197              		.section	.rodata.camellia_test_cbc_key,"a",%progbits
 4198              		.align	2
 4199              		.set	.LANCHOR12,. + 0
 4200              		.type	camellia_test_cbc_key, %object
 4201              		.size	camellia_test_cbc_key, 96
 4202              	camellia_test_cbc_key:
 4203 0000 2B       		.byte	43
 4204 0001 7E       		.byte	126
 4205 0002 15       		.byte	21
 4206 0003 16       		.byte	22
 4207 0004 28       		.byte	40
 4208 0005 AE       		.byte	-82
 4209 0006 D2       		.byte	-46
 4210 0007 A6       		.byte	-90
 4211 0008 AB       		.byte	-85
 4212 0009 F7       		.byte	-9
 4213 000a 15       		.byte	21
 4214 000b 88       		.byte	-120
 4215 000c 09       		.byte	9
 4216 000d CF       		.byte	-49
 4217 000e 4F       		.byte	79
 4218 000f 3C       		.byte	60
 4219 0010 00000000 		.space	16
 4219      00000000 
 4219      00000000 
 4219      00000000 
 4220 0020 8E       		.byte	-114
 4221 0021 73       		.byte	115
 4222 0022 B0       		.byte	-80
 4223 0023 F7       		.byte	-9
 4224 0024 DA       		.byte	-38
 4225 0025 0E       		.byte	14
 4226 0026 64       		.byte	100
 4227 0027 52       		.byte	82
 4228 0028 C8       		.byte	-56
 4229 0029 10       		.byte	16
 4230 002a F3       		.byte	-13
 4231 002b 2B       		.byte	43
 4232 002c 80       		.byte	-128
 4233 002d 90       		.byte	-112
 4234 002e 79       		.byte	121
 4235 002f E5       		.byte	-27
 4236 0030 62       		.byte	98
 4237 0031 F8       		.byte	-8
 4238 0032 EA       		.byte	-22
 4239 0033 D2       		.byte	-46
 4240 0034 52       		.byte	82
 4241 0035 2C       		.byte	44
 4242 0036 6B       		.byte	107
 4243 0037 7B       		.byte	123
ARM GAS  C:\Users\jo\AppData\Local\Temp\ccGejNPS.s 			page 76


 4244 0038 00000000 		.space	8
 4244      00000000 
 4245 0040 60       		.byte	96
 4246 0041 3D       		.byte	61
 4247 0042 EB       		.byte	-21
 4248 0043 10       		.byte	16
 4249 0044 15       		.byte	21
 4250 0045 CA       		.byte	-54
 4251 0046 71       		.byte	113
 4252 0047 BE       		.byte	-66
 4253 0048 2B       		.byte	43
 4254 0049 73       		.byte	115
 4255 004a AE       		.byte	-82
 4256 004b F0       		.byte	-16
 4257 004c 85       		.byte	-123
 4258 004d 7D       		.byte	125
 4259 004e 77       		.byte	119
 4260 004f 81       		.byte	-127
 4261 0050 1F       		.byte	31
 4262 0051 35       		.byte	53
 4263 0052 2C       		.byte	44
 4264 0053 07       		.byte	7
 4265 0054 3B       		.byte	59
 4266 0055 61       		.byte	97
 4267 0056 08       		.byte	8
 4268 0057 D7       		.byte	-41
 4269 0058 2D       		.byte	45
 4270 0059 98       		.byte	-104
 4271 005a 10       		.byte	16
 4272 005b A3       		.byte	-93
 4273 005c 09       		.byte	9
 4274 005d 14       		.byte	20
 4275 005e DF       		.byte	-33
 4276 005f F4       		.byte	-12
 4277              		.section	.rodata.camellia_test_ctr_len,"a",%progbits
 4278              		.align	2
 4279              		.set	.LANCHOR17,. + 0
 4280              		.type	camellia_test_ctr_len, %object
 4281              		.size	camellia_test_ctr_len, 12
 4282              	camellia_test_ctr_len:
 4283 0000 10000000 		.word	16
 4284 0004 20000000 		.word	32
 4285 0008 24000000 		.word	36
 4286              		.section	.rodata.camellia_test_ctr_pt,"a",%progbits
 4287              		.align	2
 4288              		.set	.LANCHOR19,. + 0
 4289              		.type	camellia_test_ctr_pt, %object
 4290              		.size	camellia_test_ctr_pt, 144
 4291              	camellia_test_ctr_pt:
 4292 0000 53       		.byte	83
 4293 0001 69       		.byte	105
 4294 0002 6E       		.byte	110
 4295 0003 67       		.byte	103
 4296 0004 6C       		.byte	108
 4297 0005 65       		.byte	101
 4298 0006 20       		.byte	32
 4299 0007 62       		.byte	98
ARM GAS  C:\Users\jo\AppData\Local\Temp\ccGejNPS.s 			page 77


 4300 0008 6C       		.byte	108
 4301 0009 6F       		.byte	111
 4302 000a 63       		.byte	99
 4303 000b 6B       		.byte	107
 4304 000c 20       		.byte	32
 4305 000d 6D       		.byte	109
 4306 000e 73       		.byte	115
 4307 000f 67       		.byte	103
 4308 0010 00000000 		.space	32
 4308      00000000 
 4308      00000000 
 4308      00000000 
 4308      00000000 
 4309 0030 00       		.byte	0
 4310 0031 01       		.byte	1
 4311 0032 02       		.byte	2
 4312 0033 03       		.byte	3
 4313 0034 04       		.byte	4
 4314 0035 05       		.byte	5
 4315 0036 06       		.byte	6
 4316 0037 07       		.byte	7
 4317 0038 08       		.byte	8
 4318 0039 09       		.byte	9
 4319 003a 0A       		.byte	10
 4320 003b 0B       		.byte	11
 4321 003c 0C       		.byte	12
 4322 003d 0D       		.byte	13
 4323 003e 0E       		.byte	14
 4324 003f 0F       		.byte	15
 4325 0040 10       		.byte	16
 4326 0041 11       		.byte	17
 4327 0042 12       		.byte	18
 4328 0043 13       		.byte	19
 4329 0044 14       		.byte	20
 4330 0045 15       		.byte	21
 4331 0046 16       		.byte	22
 4332 0047 17       		.byte	23
 4333 0048 18       		.byte	24
 4334 0049 19       		.byte	25
 4335 004a 1A       		.byte	26
 4336 004b 1B       		.byte	27
 4337 004c 1C       		.byte	28
 4338 004d 1D       		.byte	29
 4339 004e 1E       		.byte	30
 4340 004f 1F       		.byte	31
 4341 0050 00000000 		.space	16
 4341      00000000 
 4341      00000000 
 4341      00000000 
 4342 0060 00       		.byte	0
 4343 0061 01       		.byte	1
 4344 0062 02       		.byte	2
 4345 0063 03       		.byte	3
 4346 0064 04       		.byte	4
 4347 0065 05       		.byte	5
 4348 0066 06       		.byte	6
 4349 0067 07       		.byte	7
ARM GAS  C:\Users\jo\AppData\Local\Temp\ccGejNPS.s 			page 78


 4350 0068 08       		.byte	8
 4351 0069 09       		.byte	9
 4352 006a 0A       		.byte	10
 4353 006b 0B       		.byte	11
 4354 006c 0C       		.byte	12
 4355 006d 0D       		.byte	13
 4356 006e 0E       		.byte	14
 4357 006f 0F       		.byte	15
 4358 0070 10       		.byte	16
 4359 0071 11       		.byte	17
 4360 0072 12       		.byte	18
 4361 0073 13       		.byte	19
 4362 0074 14       		.byte	20
 4363 0075 15       		.byte	21
 4364 0076 16       		.byte	22
 4365 0077 17       		.byte	23
 4366 0078 18       		.byte	24
 4367 0079 19       		.byte	25
 4368 007a 1A       		.byte	26
 4369 007b 1B       		.byte	27
 4370 007c 1C       		.byte	28
 4371 007d 1D       		.byte	29
 4372 007e 1E       		.byte	30
 4373 007f 1F       		.byte	31
 4374 0080 20       		.byte	32
 4375 0081 21       		.byte	33
 4376 0082 22       		.byte	34
 4377 0083 23       		.byte	35
 4378 0084 00000000 		.space	12
 4378      00000000 
 4378      00000000 
 4379              		.section	.rodata.camellia_test_ecb_key,"a",%progbits
 4380              		.align	2
 4381              		.set	.LANCHOR8,. + 0
 4382              		.type	camellia_test_ecb_key, %object
 4383              		.size	camellia_test_ecb_key, 192
 4384              	camellia_test_ecb_key:
 4385 0000 01       		.byte	1
 4386 0001 23       		.byte	35
 4387 0002 45       		.byte	69
 4388 0003 67       		.byte	103
 4389 0004 89       		.byte	-119
 4390 0005 AB       		.byte	-85
 4391 0006 CD       		.byte	-51
 4392 0007 EF       		.byte	-17
 4393 0008 FE       		.byte	-2
 4394 0009 DC       		.byte	-36
 4395 000a BA       		.byte	-70
 4396 000b 98       		.byte	-104
 4397 000c 76       		.byte	118
 4398 000d 54       		.byte	84
 4399 000e 32       		.byte	50
 4400 000f 10       		.byte	16
 4401 0010 00000000 		.space	16
 4401      00000000 
 4401      00000000 
 4401      00000000 
ARM GAS  C:\Users\jo\AppData\Local\Temp\ccGejNPS.s 			page 79


 4402 0020 00       		.byte	0
 4403 0021 00       		.byte	0
 4404 0022 00       		.byte	0
 4405 0023 00       		.byte	0
 4406 0024 00       		.byte	0
 4407 0025 00       		.byte	0
 4408 0026 00       		.byte	0
 4409 0027 00       		.byte	0
 4410 0028 00       		.byte	0
 4411 0029 00       		.byte	0
 4412 002a 00       		.byte	0
 4413 002b 00       		.byte	0
 4414 002c 00       		.byte	0
 4415 002d 00       		.byte	0
 4416 002e 00       		.byte	0
 4417 002f 00       		.byte	0
 4418 0030 00000000 		.space	16
 4418      00000000 
 4418      00000000 
 4418      00000000 
 4419 0040 01       		.byte	1
 4420 0041 23       		.byte	35
 4421 0042 45       		.byte	69
 4422 0043 67       		.byte	103
 4423 0044 89       		.byte	-119
 4424 0045 AB       		.byte	-85
 4425 0046 CD       		.byte	-51
 4426 0047 EF       		.byte	-17
 4427 0048 FE       		.byte	-2
 4428 0049 DC       		.byte	-36
 4429 004a BA       		.byte	-70
 4430 004b 98       		.byte	-104
 4431 004c 76       		.byte	118
 4432 004d 54       		.byte	84
 4433 004e 32       		.byte	50
 4434 004f 10       		.byte	16
 4435 0050 00       		.byte	0
 4436 0051 11       		.byte	17
 4437 0052 22       		.byte	34
 4438 0053 33       		.byte	51
 4439 0054 44       		.byte	68
 4440 0055 55       		.byte	85
 4441 0056 66       		.byte	102
 4442 0057 77       		.byte	119
 4443 0058 00000000 		.space	8
 4443      00000000 
 4444 0060 00       		.byte	0
 4445 0061 00       		.byte	0
 4446 0062 00       		.byte	0
 4447 0063 00       		.byte	0
 4448 0064 00       		.byte	0
 4449 0065 00       		.byte	0
 4450 0066 00       		.byte	0
 4451 0067 00       		.byte	0
 4452 0068 00       		.byte	0
 4453 0069 00       		.byte	0
 4454 006a 00       		.byte	0
ARM GAS  C:\Users\jo\AppData\Local\Temp\ccGejNPS.s 			page 80


 4455 006b 00       		.byte	0
 4456 006c 00       		.byte	0
 4457 006d 00       		.byte	0
 4458 006e 00       		.byte	0
 4459 006f 00       		.byte	0
 4460 0070 00       		.byte	0
 4461 0071 00       		.byte	0
 4462 0072 00       		.byte	0
 4463 0073 00       		.byte	0
 4464 0074 00       		.byte	0
 4465 0075 00       		.byte	0
 4466 0076 00       		.byte	0
 4467 0077 00       		.byte	0
 4468 0078 00000000 		.space	8
 4468      00000000 
 4469 0080 01       		.byte	1
 4470 0081 23       		.byte	35
 4471 0082 45       		.byte	69
 4472 0083 67       		.byte	103
 4473 0084 89       		.byte	-119
 4474 0085 AB       		.byte	-85
 4475 0086 CD       		.byte	-51
 4476 0087 EF       		.byte	-17
 4477 0088 FE       		.byte	-2
 4478 0089 DC       		.byte	-36
 4479 008a BA       		.byte	-70
 4480 008b 98       		.byte	-104
 4481 008c 76       		.byte	118
 4482 008d 54       		.byte	84
 4483 008e 32       		.byte	50
 4484 008f 10       		.byte	16
 4485 0090 00       		.byte	0
 4486 0091 11       		.byte	17
 4487 0092 22       		.byte	34
 4488 0093 33       		.byte	51
 4489 0094 44       		.byte	68
 4490 0095 55       		.byte	85
 4491 0096 66       		.byte	102
 4492 0097 77       		.byte	119
 4493 0098 88       		.byte	-120
 4494 0099 99       		.byte	-103
 4495 009a AA       		.byte	-86
 4496 009b BB       		.byte	-69
 4497 009c CC       		.byte	-52
 4498 009d DD       		.byte	-35
 4499 009e EE       		.byte	-18
 4500 009f FF       		.byte	-1
 4501 00a0 00       		.byte	0
 4502 00a1 00       		.byte	0
 4503 00a2 00       		.byte	0
 4504 00a3 00       		.byte	0
 4505 00a4 00       		.byte	0
 4506 00a5 00       		.byte	0
 4507 00a6 00       		.byte	0
 4508 00a7 00       		.byte	0
 4509 00a8 00       		.byte	0
 4510 00a9 00       		.byte	0
ARM GAS  C:\Users\jo\AppData\Local\Temp\ccGejNPS.s 			page 81


 4511 00aa 00       		.byte	0
 4512 00ab 00       		.byte	0
 4513 00ac 00       		.byte	0
 4514 00ad 00       		.byte	0
 4515 00ae 00       		.byte	0
 4516 00af 00       		.byte	0
 4517 00b0 00       		.byte	0
 4518 00b1 00       		.byte	0
 4519 00b2 00       		.byte	0
 4520 00b3 00       		.byte	0
 4521 00b4 00       		.byte	0
 4522 00b5 00       		.byte	0
 4523 00b6 00       		.byte	0
 4524 00b7 00       		.byte	0
 4525 00b8 00       		.byte	0
 4526 00b9 00       		.byte	0
 4527 00ba 00       		.byte	0
 4528 00bb 00       		.byte	0
 4529 00bc 00       		.byte	0
 4530 00bd 00       		.byte	0
 4531 00be 00       		.byte	0
 4532 00bf 00       		.byte	0
 4533              		.text
 4534              	.Letext0:
 4535              		.file 2 "c:\\program files\\gnu tools arm embedded\\4.9 2014q4\\lib\\gcc\\arm-none-eabi\\4.9.3\\in
 4536              		.file 3 "c:\\program files\\gnu tools arm embedded\\4.9 2014q4\\arm-none-eabi\\include\\machine\\_
 4537              		.file 4 "c:\\program files\\gnu tools arm embedded\\4.9 2014q4\\arm-none-eabi\\include\\stdint.h"
 4538              		.file 5 "../../../demos/STM32/RT-STM32F407-DISCOVERY-uHttp/uhttp-1.1/PolarSSL/include/polarssl/cam
 4539              		.file 6 "c:\\program files\\gnu tools arm embedded\\4.9 2014q4\\arm-none-eabi\\include\\stdio.h"
 4540              		.file 7 "c:\\program files\\gnu tools arm embedded\\4.9 2014q4\\arm-none-eabi\\include\\string.h"
 4541              		.file 8 "<built-in>"