ARM GAS  C:\Users\jo\AppData\Local\Temp\ccPPMGwB.s 			page 1


   1              		.syntax unified
   2              		.cpu cortex-m4
   3              		.fpu softvfp
   4              		.eabi_attribute 20, 1
   5              		.eabi_attribute 21, 1
   6              		.eabi_attribute 23, 3
   7              		.eabi_attribute 24, 1
   8              		.eabi_attribute 25, 1
   9              		.eabi_attribute 26, 1
  10              		.eabi_attribute 30, 2
  11              		.eabi_attribute 34, 1
  12              		.eabi_attribute 18, 4
  13              		.thumb
  14              		.file	"chcore_v7m.c"
  15              		.text
  16              	.Ltext0:
  17              		.cfi_sections	.debug_frame
  18              		.section	.text.SVC_Handler,"ax",%progbits
  19              		.align	2
  20              		.p2align 4,,15
  21              		.global	SVC_Handler
  22              		.thumb
  23              		.thumb_func
  24              		.type	SVC_Handler, %function
  25              	SVC_Handler:
  26              	.LFB226:
  27              		.file 1 "../../../os/rt/ports/ARMCMx/chcore_v7m.c"
  28              		.loc 1 61 0
  29              		.cfi_startproc
  30              		@ args = 0, pretend = 0, frame = 0
  31              		@ frame_needed = 0, uses_anonymous_args = 0
  32              		@ link register save eliminated.
  33              	.LBB38:
  34              	.LBB39:
  35              		.file 2 "../../../os/ext/CMSIS/include/core_cmFunc.h"
  36              		.loc 2 428 0
  37              	@ 428 "../../../os/ext/CMSIS/include/core_cmFunc.h" 1
  38 0000 EFF30983 		MRS r3, psp
  39              	
  40              	@ 0 "" 2
  41              	.LVL0:
  42              		.thumb
  43              	.LBE39:
  44              	.LBE38:
  45              		.loc 1 74 0
  46 0004 2033     		adds	r3, r3, #32
  47              	.LVL1:
  48              	.LBB40:
  49              	.LBB41:
  50              		.loc 2 441 0
  51              	@ 441 "../../../os/ext/CMSIS/include/core_cmFunc.h" 1
  52 0006 83F30988 		MSR psp, r3
  53              	
  54              	@ 0 "" 2
  55              	.LVL2:
  56              		.thumb
  57              	.LBE41:
ARM GAS  C:\Users\jo\AppData\Local\Temp\ccPPMGwB.s 			page 2


  58              	.LBE40:
  59              	.LBB42:
  60              	.LBB43:
  61              	.LBB44:
  62              	.LBB45:
  63              		.loc 2 546 0
  64 000a 0023     		movs	r3, #0
  65              	.LVL3:
  66              	@ 546 "../../../os/ext/CMSIS/include/core_cmFunc.h" 1
  67 000c 83F31188 		MSR basepri, r3
  68              	@ 0 "" 2
  69              		.thumb
  70 0010 7047     		bx	lr
  71              	.LBE45:
  72              	.LBE44:
  73              	.LBE43:
  74              	.LBE42:
  75              		.cfi_endproc
  76              	.LFE226:
  77              		.size	SVC_Handler, .-SVC_Handler
  78 0012 00BFAFF3 		.section	.text._port_irq_epilogue,"ax",%progbits
  78      0080AFF3 
  78      0080AFF3 
  78      0080
  79              		.align	2
  80              		.p2align 4,,15
  81              		.global	_port_irq_epilogue
  82              		.thumb
  83              		.thumb_func
  84              		.type	_port_irq_epilogue, %function
  85              	_port_irq_epilogue:
  86              	.LFB227:
  87              		.loc 1 118 0
  88              		.cfi_startproc
  89              		@ args = 0, pretend = 0, frame = 0
  90              		@ frame_needed = 0, uses_anonymous_args = 0
  91              	.LVL4:
  92              	.LBB46:
  93              	.LBB47:
  94              	.LBB48:
  95              	.LBB49:
  96              		.loc 2 546 0
  97 0000 2023     		movs	r3, #32
  98              	@ 546 "../../../os/ext/CMSIS/include/core_cmFunc.h" 1
  99 0002 83F31188 		MSR basepri, r3
 100              	@ 0 "" 2
 101              		.thumb
 102              	.LBE49:
 103              	.LBE48:
 104              	.LBE47:
 105              	.LBE46:
 106              		.loc 1 121 0
 107 0006 0F4B     		ldr	r3, .L10
 108 0008 5B68     		ldr	r3, [r3, #4]
 109 000a 13F40063 		ands	r3, r3, #2048
 110 000e 02D1     		bne	.L9
 111              	.LVL5:
ARM GAS  C:\Users\jo\AppData\Local\Temp\ccPPMGwB.s 			page 3


 112              	.LBB50:
 113              	.LBB51:
 114              	.LBB52:
 115              	.LBB53:
 116              		.loc 2 546 0
 117              	@ 546 "../../../os/ext/CMSIS/include/core_cmFunc.h" 1
 118 0010 83F31188 		MSR basepri, r3
 119              	@ 0 "" 2
 120              		.thumb
 121 0014 7047     		bx	lr
 122              	.LVL6:
 123              	.L9:
 124              	.LBE53:
 125              	.LBE52:
 126              	.LBE51:
 127              	.LBE50:
 128              		.loc 1 118 0
 129 0016 10B5     		push	{r4, lr}
 130              		.cfi_def_cfa_offset 8
 131              		.cfi_offset 4, -8
 132              		.cfi_offset 14, -4
 133              	.LBB54:
 134              	.LBB55:
 135              	.LBB56:
 136              		.loc 2 428 0
 137              	@ 428 "../../../os/ext/CMSIS/include/core_cmFunc.h" 1
 138 0018 EFF30984 		MRS r4, psp
 139              	
 140              	@ 0 "" 2
 141              	.LVL7:
 142              		.thumb
 143              	.LBE56:
 144              	.LBE55:
 145              		.loc 1 137 0
 146 001c 4FF08073 		mov	r3, #16777216
 147 0020 44F8043C 		str	r3, [r4, #-4]
 148              	.LVL8:
 149              		.loc 1 134 0
 150 0024 A4F12003 		sub	r3, r4, #32
 151              	.LVL9:
 152              	.LBB57:
 153              	.LBB58:
 154              		.loc 2 441 0
 155              	@ 441 "../../../os/ext/CMSIS/include/core_cmFunc.h" 1
 156 0028 83F30988 		MSR psp, r3
 157              	
 158              	@ 0 "" 2
 159              		.thumb
 160              	.LBE58:
 161              	.LBE57:
 162              		.loc 1 147 0
 163 002c FFF7FEFF 		bl	chSchIsPreemptionRequired
 164              	.LVL10:
 165 0030 18B1     		cbz	r0, .L4
 166              		.loc 1 149 0
 167 0032 054B     		ldr	r3, .L10+4
 168 0034 44F8083C 		str	r3, [r4, #-8]
ARM GAS  C:\Users\jo\AppData\Local\Temp\ccPPMGwB.s 			page 4


 169 0038 10BD     		pop	{r4, pc}
 170              	.LVL11:
 171              	.L4:
 172              		.loc 1 154 0
 173 003a 044B     		ldr	r3, .L10+8
 174 003c 44F8083C 		str	r3, [r4, #-8]
 175 0040 10BD     		pop	{r4, pc}
 176              	.LVL12:
 177              	.L11:
 178 0042 00BF     		.align	2
 179              	.L10:
 180 0044 00ED00E0 		.word	-536810240
 181 0048 00000000 		.word	_port_switch_from_isr
 182 004c 00000000 		.word	_port_exit_from_isr
 183              	.LBE54:
 184              		.cfi_endproc
 185              	.LFE227:
 186              		.size	_port_irq_epilogue, .-_port_irq_epilogue
 187              		.text
 188              	.Letext0:
 189              		.file 3 "c:\\program files\\gnu tools arm embedded\\4.9 2014q4\\arm-none-eabi\\include\\machine\\_
 190              		.file 4 "c:\\program files\\gnu tools arm embedded\\4.9 2014q4\\arm-none-eabi\\include\\stdint.h"
 191              		.file 5 "../../../os/rt/ports/ARMCMx/compilers/GCC/chtypes.h"
 192              		.file 6 "../../../os/rt/include/chsystypes.h"
 193              		.file 7 "../../../os/rt/include/chschd.h"
 194              		.file 8 "../../../os/ext/CMSIS/include/core_cm4.h"
 195              		.file 9 "../../../os/rt/ports/ARMCMx/chcore.h"
 196              		.file 10 "../../../os/rt/ports/ARMCMx/chcore_v7m.h"
 197              		.file 11 "../../../os/rt/include/chdebug.h"
 198              		.file 12 "../../../os/rt/include/chtm.h"
 199              		.file 13 "../../../os/rt/include/chstats.h"
 200              		.file 14 "../../../os/rt/include/chmtx.h"
 201              		.section	.debug_info,"",%progbits
 202              	.Ldebug_info0:
 203 0000 840B0000 		.4byte	0xb84
 204 0004 0400     		.2byte	0x4
 205 0006 00000000 		.4byte	.Ldebug_abbrev0
 206 000a 04       		.byte	0x4
 207 000b 01       		.uleb128 0x1
 208 000c 46030000 		.4byte	.LASF153
 209 0010 01       		.byte	0x1
 210 0011 AE010000 		.4byte	.LASF154
 211 0015 FD000000 		.4byte	.LASF155
 212 0019 00000000 		.4byte	.Ldebug_ranges0+0
 213 001d 00000000 		.4byte	0
 214 0021 00000000 		.4byte	.Ldebug_line0
 215 0025 02       		.uleb128 0x2
 216 0026 04       		.byte	0x4
 217 0027 05       		.byte	0x5
 218 0028 696E7400 		.ascii	"int\000"
 219 002c 03       		.uleb128 0x3
 220 002d 04       		.byte	0x4
 221 002e 07       		.byte	0x7
 222 002f 7A020000 		.4byte	.LASF0
 223 0033 03       		.uleb128 0x3
 224 0034 01       		.byte	0x1
 225 0035 06       		.byte	0x6
ARM GAS  C:\Users\jo\AppData\Local\Temp\ccPPMGwB.s 			page 5


 226 0036 5E010000 		.4byte	.LASF1
 227 003a 04       		.uleb128 0x4
 228 003b 32000000 		.4byte	.LASF5
 229 003f 03       		.byte	0x3
 230 0040 1D       		.byte	0x1d
 231 0041 45000000 		.4byte	0x45
 232 0045 03       		.uleb128 0x3
 233 0046 01       		.byte	0x1
 234 0047 08       		.byte	0x8
 235 0048 31050000 		.4byte	.LASF2
 236 004c 03       		.uleb128 0x3
 237 004d 02       		.byte	0x2
 238 004e 05       		.byte	0x5
 239 004f 5C050000 		.4byte	.LASF3
 240 0053 03       		.uleb128 0x3
 241 0054 02       		.byte	0x2
 242 0055 07       		.byte	0x7
 243 0056 A0050000 		.4byte	.LASF4
 244 005a 04       		.uleb128 0x4
 245 005b 3C030000 		.4byte	.LASF6
 246 005f 03       		.byte	0x3
 247 0060 3F       		.byte	0x3f
 248 0061 65000000 		.4byte	0x65
 249 0065 03       		.uleb128 0x3
 250 0066 04       		.byte	0x4
 251 0067 05       		.byte	0x5
 252 0068 9C010000 		.4byte	.LASF7
 253 006c 04       		.uleb128 0x4
 254 006d 6B060000 		.4byte	.LASF8
 255 0071 03       		.byte	0x3
 256 0072 41       		.byte	0x41
 257 0073 77000000 		.4byte	0x77
 258 0077 03       		.uleb128 0x3
 259 0078 04       		.byte	0x4
 260 0079 07       		.byte	0x7
 261 007a 0C060000 		.4byte	.LASF9
 262 007e 03       		.uleb128 0x3
 263 007f 08       		.byte	0x8
 264 0080 05       		.byte	0x5
 265 0081 50010000 		.4byte	.LASF10
 266 0085 04       		.uleb128 0x4
 267 0086 C8040000 		.4byte	.LASF11
 268 008a 03       		.byte	0x3
 269 008b 5B       		.byte	0x5b
 270 008c 90000000 		.4byte	0x90
 271 0090 03       		.uleb128 0x3
 272 0091 08       		.byte	0x8
 273 0092 07       		.byte	0x7
 274 0093 8B000000 		.4byte	.LASF12
 275 0097 04       		.uleb128 0x4
 276 0098 FF060000 		.4byte	.LASF13
 277 009c 04       		.byte	0x4
 278 009d 15       		.byte	0x15
 279 009e 3A000000 		.4byte	0x3a
 280 00a2 04       		.uleb128 0x4
 281 00a3 29050000 		.4byte	.LASF14
 282 00a7 04       		.byte	0x4
ARM GAS  C:\Users\jo\AppData\Local\Temp\ccPPMGwB.s 			page 6


 283 00a8 2C       		.byte	0x2c
 284 00a9 5A000000 		.4byte	0x5a
 285 00ad 04       		.uleb128 0x4
 286 00ae E2050000 		.4byte	.LASF15
 287 00b2 04       		.byte	0x4
 288 00b3 2D       		.byte	0x2d
 289 00b4 6C000000 		.4byte	0x6c
 290 00b8 04       		.uleb128 0x4
 291 00b9 1C000000 		.4byte	.LASF16
 292 00bd 04       		.byte	0x4
 293 00be 39       		.byte	0x39
 294 00bf 85000000 		.4byte	0x85
 295 00c3 05       		.uleb128 0x5
 296 00c4 A2000000 		.4byte	0xa2
 297 00c8 05       		.uleb128 0x5
 298 00c9 AD000000 		.4byte	0xad
 299 00cd 04       		.uleb128 0x4
 300 00ce A9060000 		.4byte	.LASF17
 301 00d2 05       		.byte	0x5
 302 00d3 45       		.byte	0x45
 303 00d4 AD000000 		.4byte	0xad
 304 00d8 04       		.uleb128 0x4
 305 00d9 ED000000 		.4byte	.LASF18
 306 00dd 05       		.byte	0x5
 307 00de 46       		.byte	0x46
 308 00df B8000000 		.4byte	0xb8
 309 00e3 04       		.uleb128 0x4
 310 00e4 88050000 		.4byte	.LASF19
 311 00e8 05       		.byte	0x5
 312 00e9 48       		.byte	0x48
 313 00ea 97000000 		.4byte	0x97
 314 00ee 04       		.uleb128 0x4
 315 00ef A5010000 		.4byte	.LASF20
 316 00f3 05       		.byte	0x5
 317 00f4 49       		.byte	0x49
 318 00f5 97000000 		.4byte	0x97
 319 00f9 04       		.uleb128 0x4
 320 00fa DE040000 		.4byte	.LASF21
 321 00fe 05       		.byte	0x5
 322 00ff 4A       		.byte	0x4a
 323 0100 97000000 		.4byte	0x97
 324 0104 04       		.uleb128 0x4
 325 0105 0C050000 		.4byte	.LASF22
 326 0109 05       		.byte	0x5
 327 010a 4C       		.byte	0x4c
 328 010b AD000000 		.4byte	0xad
 329 010f 04       		.uleb128 0x4
 330 0110 CD020000 		.4byte	.LASF23
 331 0114 05       		.byte	0x5
 332 0115 4D       		.byte	0x4d
 333 0116 A2000000 		.4byte	0xa2
 334 011a 04       		.uleb128 0x4
 335 011b 21030000 		.4byte	.LASF24
 336 011f 05       		.byte	0x5
 337 0120 4F       		.byte	0x4f
 338 0121 AD000000 		.4byte	0xad
 339 0125 04       		.uleb128 0x4
ARM GAS  C:\Users\jo\AppData\Local\Temp\ccPPMGwB.s 			page 7


 340 0126 69020000 		.4byte	.LASF25
 341 012a 05       		.byte	0x5
 342 012b 51       		.byte	0x51
 343 012c A2000000 		.4byte	0xa2
 344 0130 04       		.uleb128 0x4
 345 0131 DE020000 		.4byte	.LASF26
 346 0135 05       		.byte	0x5
 347 0136 52       		.byte	0x52
 348 0137 AD000000 		.4byte	0xad
 349 013b 04       		.uleb128 0x4
 350 013c 4D060000 		.4byte	.LASF27
 351 0140 06       		.byte	0x6
 352 0141 33       		.byte	0x33
 353 0142 AD000000 		.4byte	0xad
 354 0146 04       		.uleb128 0x4
 355 0147 38060000 		.4byte	.LASF28
 356 014b 06       		.byte	0x6
 357 014c 3F       		.byte	0x3f
 358 014d 51010000 		.4byte	0x151
 359 0151 06       		.uleb128 0x6
 360 0152 BE020000 		.4byte	.LASF49
 361 0156 60       		.byte	0x60
 362 0157 07       		.byte	0x7
 363 0158 BE       		.byte	0xbe
 364 0159 57020000 		.4byte	0x257
 365 015d 07       		.uleb128 0x7
 366 015e 81050000 		.4byte	.LASF29
 367 0162 07       		.byte	0x7
 368 0163 BF       		.byte	0xbf
 369 0164 96070000 		.4byte	0x796
 370 0168 00       		.byte	0
 371 0169 07       		.uleb128 0x7
 372 016a 05050000 		.4byte	.LASF30
 373 016e 07       		.byte	0x7
 374 016f C1       		.byte	0xc1
 375 0170 96070000 		.4byte	0x796
 376 0174 04       		.byte	0x4
 377 0175 07       		.uleb128 0x7
 378 0176 F6000000 		.4byte	.LASF31
 379 017a 07       		.byte	0x7
 380 017b C3       		.byte	0xc3
 381 017c 04010000 		.4byte	0x104
 382 0180 08       		.byte	0x8
 383 0181 07       		.uleb128 0x7
 384 0182 57070000 		.4byte	.LASF32
 385 0186 07       		.byte	0x7
 386 0187 C4       		.byte	0xc4
 387 0188 49060000 		.4byte	0x649
 388 018c 0C       		.byte	0xc
 389 018d 07       		.uleb128 0x7
 390 018e F7010000 		.4byte	.LASF33
 391 0192 07       		.byte	0x7
 392 0193 C6       		.byte	0xc6
 393 0194 96070000 		.4byte	0x796
 394 0198 10       		.byte	0x10
 395 0199 07       		.uleb128 0x7
 396 019a 8B040000 		.4byte	.LASF34
ARM GAS  C:\Users\jo\AppData\Local\Temp\ccPPMGwB.s 			page 8


 397 019e 07       		.byte	0x7
 398 019f C7       		.byte	0xc7
 399 01a0 96070000 		.4byte	0x796
 400 01a4 14       		.byte	0x14
 401 01a5 07       		.uleb128 0x7
 402 01a6 0E070000 		.4byte	.LASF35
 403 01aa 07       		.byte	0x7
 404 01ab CE       		.byte	0xce
 405 01ac 52070000 		.4byte	0x752
 406 01b0 18       		.byte	0x18
 407 01b1 07       		.uleb128 0x7
 408 01b2 6F020000 		.4byte	.LASF36
 409 01b6 07       		.byte	0x7
 410 01b7 D4       		.byte	0xd4
 411 01b8 E0080000 		.4byte	0x8e0
 412 01bc 1C       		.byte	0x1c
 413 01bd 07       		.uleb128 0x7
 414 01be 66050000 		.4byte	.LASF37
 415 01c2 07       		.byte	0x7
 416 01c3 D9       		.byte	0xd9
 417 01c4 EE000000 		.4byte	0xee
 418 01c8 20       		.byte	0x20
 419 01c9 07       		.uleb128 0x7
 420 01ca 90050000 		.4byte	.LASF38
 421 01ce 07       		.byte	0x7
 422 01cf DD       		.byte	0xdd
 423 01d0 E3000000 		.4byte	0xe3
 424 01d4 21       		.byte	0x21
 425 01d5 07       		.uleb128 0x7
 426 01d6 E5060000 		.4byte	.LASF39
 427 01da 07       		.byte	0x7
 428 01db E2       		.byte	0xe2
 429 01dc F9000000 		.4byte	0xf9
 430 01e0 22       		.byte	0x22
 431 01e1 08       		.uleb128 0x8
 432 01e2 705F7500 		.ascii	"p_u\000"
 433 01e6 07       		.byte	0x7
 434 01e7 1401     		.2byte	0x114
 435 01e9 A8080000 		.4byte	0x8a8
 436 01ed 24       		.byte	0x24
 437 01ee 09       		.uleb128 0x9
 438 01ef 3A040000 		.4byte	.LASF40
 439 01f3 07       		.byte	0x7
 440 01f4 1901     		.2byte	0x119
 441 01f6 57020000 		.4byte	0x257
 442 01fa 28       		.byte	0x28
 443 01fb 09       		.uleb128 0x9
 444 01fc 99020000 		.4byte	.LASF41
 445 0200 07       		.byte	0x7
 446 0201 1F01     		.2byte	0x11f
 447 0203 7B020000 		.4byte	0x27b
 448 0207 2C       		.byte	0x2c
 449 0208 09       		.uleb128 0x9
 450 0209 22070000 		.4byte	.LASF42
 451 020d 07       		.byte	0x7
 452 020e 2301     		.2byte	0x123
 453 0210 0F010000 		.4byte	0x10f
ARM GAS  C:\Users\jo\AppData\Local\Temp\ccPPMGwB.s 			page 9


 454 0214 34       		.byte	0x34
 455 0215 09       		.uleb128 0x9
 456 0216 D7050000 		.4byte	.LASF43
 457 021a 07       		.byte	0x7
 458 021b 2901     		.2byte	0x129
 459 021d 1A010000 		.4byte	0x11a
 460 0221 38       		.byte	0x38
 461 0222 09       		.uleb128 0x9
 462 0223 52050000 		.4byte	.LASF44
 463 0227 07       		.byte	0x7
 464 0228 3001     		.2byte	0x130
 465 022a 17090000 		.4byte	0x917
 466 022e 3C       		.byte	0x3c
 467 022f 09       		.uleb128 0x9
 468 0230 57060000 		.4byte	.LASF45
 469 0234 07       		.byte	0x7
 470 0235 3401     		.2byte	0x134
 471 0237 04010000 		.4byte	0x104
 472 023b 40       		.byte	0x40
 473 023c 09       		.uleb128 0x9
 474 023d 6A010000 		.4byte	.LASF46
 475 0241 07       		.byte	0x7
 476 0242 3A01     		.2byte	0x13a
 477 0244 2E030000 		.4byte	0x32e
 478 0248 44       		.byte	0x44
 479 0249 09       		.uleb128 0x9
 480 024a 98050000 		.4byte	.LASF47
 481 024e 07       		.byte	0x7
 482 024f 4001     		.2byte	0x140
 483 0251 59080000 		.4byte	0x859
 484 0255 48       		.byte	0x48
 485 0256 00       		.byte	0
 486 0257 04       		.uleb128 0x4
 487 0258 2B040000 		.4byte	.LASF48
 488 025c 06       		.byte	0x6
 489 025d 44       		.byte	0x44
 490 025e 62020000 		.4byte	0x262
 491 0262 06       		.uleb128 0x6
 492 0263 FC050000 		.4byte	.LASF50
 493 0267 04       		.byte	0x4
 494 0268 07       		.byte	0x7
 495 0269 AC       		.byte	0xac
 496 026a 7B020000 		.4byte	0x27b
 497 026e 07       		.uleb128 0x7
 498 026f 81050000 		.4byte	.LASF29
 499 0273 07       		.byte	0x7
 500 0274 AD       		.byte	0xad
 501 0275 96070000 		.4byte	0x796
 502 0279 00       		.byte	0
 503 027a 00       		.byte	0
 504 027b 04       		.uleb128 0x4
 505 027c D5060000 		.4byte	.LASF51
 506 0280 06       		.byte	0x6
 507 0281 4B       		.byte	0x4b
 508 0282 86020000 		.4byte	0x286
 509 0286 06       		.uleb128 0x6
 510 0287 48000000 		.4byte	.LASF52
ARM GAS  C:\Users\jo\AppData\Local\Temp\ccPPMGwB.s 			page 10


 511 028b 08       		.byte	0x8
 512 028c 07       		.byte	0x7
 513 028d B3       		.byte	0xb3
 514 028e AB020000 		.4byte	0x2ab
 515 0292 07       		.uleb128 0x7
 516 0293 81050000 		.4byte	.LASF29
 517 0297 07       		.byte	0x7
 518 0298 B4       		.byte	0xb4
 519 0299 96070000 		.4byte	0x796
 520 029d 00       		.byte	0
 521 029e 07       		.uleb128 0x7
 522 029f 05050000 		.4byte	.LASF30
 523 02a3 07       		.byte	0x7
 524 02a4 B5       		.byte	0xb5
 525 02a5 96070000 		.4byte	0x796
 526 02a9 04       		.byte	0x4
 527 02aa 00       		.byte	0
 528 02ab 04       		.uleb128 0x4
 529 02ac 00000000 		.4byte	.LASF53
 530 02b0 06       		.byte	0x6
 531 02b1 52       		.byte	0x52
 532 02b2 B6020000 		.4byte	0x2b6
 533 02b6 0A       		.uleb128 0xa
 534 02b7 13030000 		.4byte	.LASF54
 535 02bb 1C       		.byte	0x1c
 536 02bc 07       		.byte	0x7
 537 02bd 7201     		.2byte	0x172
 538 02bf 12030000 		.4byte	0x312
 539 02c3 09       		.uleb128 0x9
 540 02c4 EB050000 		.4byte	.LASF55
 541 02c8 07       		.byte	0x7
 542 02c9 7301     		.2byte	0x173
 543 02cb 7B020000 		.4byte	0x27b
 544 02cf 00       		.byte	0
 545 02d0 09       		.uleb128 0x9
 546 02d1 73050000 		.4byte	.LASF56
 547 02d5 07       		.byte	0x7
 548 02d6 7401     		.2byte	0x174
 549 02d8 04010000 		.4byte	0x104
 550 02dc 08       		.byte	0x8
 551 02dd 09       		.uleb128 0x9
 552 02de 93040000 		.4byte	.LASF57
 553 02e2 07       		.byte	0x7
 554 02e3 7601     		.2byte	0x176
 555 02e5 49060000 		.4byte	0x649
 556 02e9 0C       		.byte	0xc
 557 02ea 09       		.uleb128 0x9
 558 02eb 11020000 		.4byte	.LASF58
 559 02ef 07       		.byte	0x7
 560 02f0 7901     		.2byte	0x179
 561 02f2 96070000 		.4byte	0x796
 562 02f6 10       		.byte	0x10
 563 02f7 09       		.uleb128 0x9
 564 02f8 C0040000 		.4byte	.LASF59
 565 02fc 07       		.byte	0x7
 566 02fd 7A01     		.2byte	0x17a
 567 02ff 96070000 		.4byte	0x796
ARM GAS  C:\Users\jo\AppData\Local\Temp\ccPPMGwB.s 			page 11


 568 0303 14       		.byte	0x14
 569 0304 09       		.uleb128 0x9
 570 0305 B6040000 		.4byte	.LASF60
 571 0309 07       		.byte	0x7
 572 030a 7D01     		.2byte	0x17d
 573 030c 96070000 		.4byte	0x796
 574 0310 18       		.byte	0x18
 575 0311 00       		.byte	0
 576 0312 04       		.uleb128 0x4
 577 0313 62060000 		.4byte	.LASF61
 578 0317 06       		.byte	0x6
 579 0318 57       		.byte	0x57
 580 0319 1D030000 		.4byte	0x31d
 581 031d 0B       		.uleb128 0xb
 582 031e 04       		.byte	0x4
 583 031f 23030000 		.4byte	0x323
 584 0323 0C       		.uleb128 0xc
 585 0324 2E030000 		.4byte	0x32e
 586 0328 0D       		.uleb128 0xd
 587 0329 2E030000 		.4byte	0x32e
 588 032d 00       		.byte	0
 589 032e 0E       		.uleb128 0xe
 590 032f 04       		.byte	0x4
 591 0330 04       		.uleb128 0x4
 592 0331 F5040000 		.4byte	.LASF62
 593 0335 06       		.byte	0x6
 594 0336 5C       		.byte	0x5c
 595 0337 3B030000 		.4byte	0x33b
 596 033b 0A       		.uleb128 0xa
 597 033c C6050000 		.4byte	.LASF63
 598 0340 14       		.byte	0x14
 599 0341 07       		.byte	0x7
 600 0342 4D01     		.2byte	0x14d
 601 0344 8A030000 		.4byte	0x38a
 602 0348 09       		.uleb128 0x9
 603 0349 91020000 		.4byte	.LASF64
 604 034d 07       		.byte	0x7
 605 034e 4E01     		.2byte	0x14e
 606 0350 1D090000 		.4byte	0x91d
 607 0354 00       		.byte	0
 608 0355 09       		.uleb128 0x9
 609 0356 22020000 		.4byte	.LASF65
 610 035a 07       		.byte	0x7
 611 035b 4F01     		.2byte	0x14f
 612 035d 1D090000 		.4byte	0x91d
 613 0361 04       		.byte	0x4
 614 0362 09       		.uleb128 0x9
 615 0363 F3050000 		.4byte	.LASF66
 616 0367 07       		.byte	0x7
 617 0368 5001     		.2byte	0x150
 618 036a 3B010000 		.4byte	0x13b
 619 036e 08       		.byte	0x8
 620 036f 09       		.uleb128 0x9
 621 0370 5D070000 		.4byte	.LASF67
 622 0374 07       		.byte	0x7
 623 0375 5101     		.2byte	0x151
 624 0377 12030000 		.4byte	0x312
ARM GAS  C:\Users\jo\AppData\Local\Temp\ccPPMGwB.s 			page 12


 625 037b 0C       		.byte	0xc
 626 037c 09       		.uleb128 0x9
 627 037d CE060000 		.4byte	.LASF68
 628 0381 07       		.byte	0x7
 629 0382 5301     		.2byte	0x153
 630 0384 2E030000 		.4byte	0x32e
 631 0388 10       		.byte	0x10
 632 0389 00       		.byte	0
 633 038a 04       		.uleb128 0x4
 634 038b D1000000 		.4byte	.LASF69
 635 038f 06       		.byte	0x6
 636 0390 61       		.byte	0x61
 637 0391 95030000 		.4byte	0x395
 638 0395 0A       		.uleb128 0xa
 639 0396 4D040000 		.4byte	.LASF70
 640 039a 10       		.byte	0x10
 641 039b 07       		.byte	0x7
 642 039c 5D01     		.2byte	0x15d
 643 039e D7030000 		.4byte	0x3d7
 644 03a2 09       		.uleb128 0x9
 645 03a3 91020000 		.4byte	.LASF64
 646 03a7 07       		.byte	0x7
 647 03a8 5E01     		.2byte	0x15e
 648 03aa 1D090000 		.4byte	0x91d
 649 03ae 00       		.byte	0
 650 03af 09       		.uleb128 0x9
 651 03b0 22020000 		.4byte	.LASF65
 652 03b4 07       		.byte	0x7
 653 03b5 6001     		.2byte	0x160
 654 03b7 1D090000 		.4byte	0x91d
 655 03bb 04       		.byte	0x4
 656 03bc 09       		.uleb128 0x9
 657 03bd F3050000 		.4byte	.LASF66
 658 03c1 07       		.byte	0x7
 659 03c2 6201     		.2byte	0x162
 660 03c4 3B010000 		.4byte	0x13b
 661 03c8 08       		.byte	0x8
 662 03c9 09       		.uleb128 0x9
 663 03ca 7F040000 		.4byte	.LASF71
 664 03ce 07       		.byte	0x7
 665 03cf 6A01     		.2byte	0x16a
 666 03d1 3B010000 		.4byte	0x13b
 667 03d5 0C       		.byte	0xc
 668 03d6 00       		.byte	0
 669 03d7 04       		.uleb128 0x4
 670 03d8 59000000 		.4byte	.LASF72
 671 03dc 06       		.byte	0x6
 672 03dd 66       		.byte	0x66
 673 03de E2030000 		.4byte	0x3e2
 674 03e2 0F       		.uleb128 0xf
 675 03e3 33020000 		.4byte	.LASF73
 676 03e7 1404     		.2byte	0x414
 677 03e9 07       		.byte	0x7
 678 03ea 8401     		.2byte	0x184
 679 03ec 25040000 		.4byte	0x425
 680 03f0 09       		.uleb128 0x9
 681 03f1 84060000 		.4byte	.LASF74
ARM GAS  C:\Users\jo\AppData\Local\Temp\ccPPMGwB.s 			page 13


 682 03f5 07       		.byte	0x7
 683 03f6 8C01     		.2byte	0x18c
 684 03f8 23090000 		.4byte	0x923
 685 03fc 00       		.byte	0
 686 03fd 09       		.uleb128 0x9
 687 03fe EC060000 		.4byte	.LASF75
 688 0402 07       		.byte	0x7
 689 0403 9101     		.2byte	0x191
 690 0405 25010000 		.4byte	0x125
 691 0409 04       		.byte	0x4
 692 040a 09       		.uleb128 0x9
 693 040b 51020000 		.4byte	.LASF76
 694 040f 07       		.byte	0x7
 695 0410 9501     		.2byte	0x195
 696 0412 25010000 		.4byte	0x125
 697 0416 08       		.byte	0x8
 698 0417 09       		.uleb128 0x9
 699 0418 15070000 		.4byte	.LASF77
 700 041c 07       		.byte	0x7
 701 041d 9B01     		.2byte	0x19b
 702 041f EB070000 		.4byte	0x7eb
 703 0423 0C       		.byte	0xc
 704 0424 00       		.byte	0
 705 0425 04       		.uleb128 0x4
 706 0426 9D060000 		.4byte	.LASF78
 707 042a 06       		.byte	0x6
 708 042b 6B       		.byte	0x6b
 709 042c 30040000 		.4byte	0x430
 710 0430 0F       		.uleb128 0xf
 711 0431 92010000 		.4byte	.LASF79
 712 0435 D805     		.2byte	0x5d8
 713 0437 07       		.byte	0x7
 714 0438 A401     		.2byte	0x1a4
 715 043a 9D040000 		.4byte	0x49d
 716 043e 09       		.uleb128 0x9
 717 043f F9060000 		.4byte	.LASF80
 718 0443 07       		.byte	0x7
 719 0444 A801     		.2byte	0x1a8
 720 0446 AB020000 		.4byte	0x2ab
 721 044a 00       		.byte	0
 722 044b 09       		.uleb128 0x9
 723 044c 7A010000 		.4byte	.LASF81
 724 0450 07       		.byte	0x7
 725 0451 AC01     		.2byte	0x1ac
 726 0453 8A030000 		.4byte	0x38a
 727 0457 1C       		.byte	0x1c
 728 0458 08       		.uleb128 0x8
 729 0459 64626700 		.ascii	"dbg\000"
 730 045d 07       		.byte	0x7
 731 045e B001     		.2byte	0x1b0
 732 0460 D7030000 		.4byte	0x3d7
 733 0464 2C       		.byte	0x2c
 734 0465 10       		.uleb128 0x10
 735 0466 C6000000 		.4byte	.LASF82
 736 046a 07       		.byte	0x7
 737 046b B401     		.2byte	0x1b4
 738 046d 46010000 		.4byte	0x146
ARM GAS  C:\Users\jo\AppData\Local\Temp\ccPPMGwB.s 			page 14


 739 0471 4004     		.2byte	0x440
 740 0473 11       		.uleb128 0x11
 741 0474 746D00   		.ascii	"tm\000"
 742 0477 07       		.byte	0x7
 743 0478 B901     		.2byte	0x1b9
 744 047a 0B080000 		.4byte	0x80b
 745 047e A004     		.2byte	0x4a0
 746 0480 10       		.uleb128 0x10
 747 0481 25000000 		.4byte	.LASF83
 748 0485 07       		.byte	0x7
 749 0486 BF01     		.2byte	0x1bf
 750 0488 9D080000 		.4byte	0x89d
 751 048c A804     		.2byte	0x4a8
 752 048e 10       		.uleb128 0x10
 753 048f 5A020000 		.4byte	.LASF84
 754 0493 07       		.byte	0x7
 755 0494 C501     		.2byte	0x1c5
 756 0496 28090000 		.4byte	0x928
 757 049a E004     		.2byte	0x4e0
 758 049c 00       		.byte	0
 759 049d 03       		.uleb128 0x3
 760 049e 04       		.byte	0x4
 761 049f 07       		.byte	0x7
 762 04a0 44040000 		.4byte	.LASF85
 763 04a4 12       		.uleb128 0x12
 764 04a5 8C       		.byte	0x8c
 765 04a6 08       		.byte	0x8
 766 04a7 7001     		.2byte	0x170
 767 04a9 BF050000 		.4byte	0x5bf
 768 04ad 09       		.uleb128 0x9
 769 04ae E7000000 		.4byte	.LASF86
 770 04b2 08       		.byte	0x8
 771 04b3 7201     		.2byte	0x172
 772 04b5 BF050000 		.4byte	0x5bf
 773 04b9 00       		.byte	0
 774 04ba 09       		.uleb128 0x9
 775 04bb C8020000 		.4byte	.LASF87
 776 04bf 08       		.byte	0x8
 777 04c0 7301     		.2byte	0x173
 778 04c2 C8000000 		.4byte	0xc8
 779 04c6 04       		.byte	0x4
 780 04c7 09       		.uleb128 0x9
 781 04c8 AA020000 		.4byte	.LASF88
 782 04cc 08       		.byte	0x8
 783 04cd 7401     		.2byte	0x174
 784 04cf C8000000 		.4byte	0xc8
 785 04d3 08       		.byte	0x8
 786 04d4 09       		.uleb128 0x9
 787 04d5 D3020000 		.4byte	.LASF89
 788 04d9 08       		.byte	0x8
 789 04da 7501     		.2byte	0x175
 790 04dc C8000000 		.4byte	0xc8
 791 04e0 0C       		.byte	0xc
 792 04e1 08       		.uleb128 0x8
 793 04e2 53435200 		.ascii	"SCR\000"
 794 04e6 08       		.byte	0x8
 795 04e7 7601     		.2byte	0x176
ARM GAS  C:\Users\jo\AppData\Local\Temp\ccPPMGwB.s 			page 15


 796 04e9 C8000000 		.4byte	0xc8
 797 04ed 10       		.byte	0x10
 798 04ee 08       		.uleb128 0x8
 799 04ef 43435200 		.ascii	"CCR\000"
 800 04f3 08       		.byte	0x8
 801 04f4 7701     		.2byte	0x177
 802 04f6 C8000000 		.4byte	0xc8
 803 04fa 14       		.byte	0x14
 804 04fb 08       		.uleb128 0x8
 805 04fc 53485000 		.ascii	"SHP\000"
 806 0500 08       		.byte	0x8
 807 0501 7801     		.2byte	0x178
 808 0503 D4050000 		.4byte	0x5d4
 809 0507 18       		.byte	0x18
 810 0508 09       		.uleb128 0x9
 811 0509 3F050000 		.4byte	.LASF90
 812 050d 08       		.byte	0x8
 813 050e 7901     		.2byte	0x179
 814 0510 C8000000 		.4byte	0xc8
 815 0514 24       		.byte	0x24
 816 0515 09       		.uleb128 0x9
 817 0516 64040000 		.4byte	.LASF91
 818 051a 08       		.byte	0x8
 819 051b 7A01     		.2byte	0x17a
 820 051d C8000000 		.4byte	0xc8
 821 0521 28       		.byte	0x28
 822 0522 09       		.uleb128 0x9
 823 0523 2E070000 		.4byte	.LASF92
 824 0527 08       		.byte	0x8
 825 0528 7B01     		.2byte	0x17b
 826 052a C8000000 		.4byte	0xc8
 827 052e 2C       		.byte	0x2c
 828 052f 09       		.uleb128 0x9
 829 0530 D9020000 		.4byte	.LASF93
 830 0534 08       		.byte	0x8
 831 0535 7C01     		.2byte	0x17c
 832 0537 C8000000 		.4byte	0xc8
 833 053b 30       		.byte	0x30
 834 053c 09       		.uleb128 0x9
 835 053d E5020000 		.4byte	.LASF94
 836 0541 08       		.byte	0x8
 837 0542 7D01     		.2byte	0x17d
 838 0544 C8000000 		.4byte	0xc8
 839 0548 34       		.byte	0x34
 840 0549 09       		.uleb128 0x9
 841 054a FF010000 		.4byte	.LASF95
 842 054e 08       		.byte	0x8
 843 054f 7E01     		.2byte	0x17e
 844 0551 C8000000 		.4byte	0xc8
 845 0555 38       		.byte	0x38
 846 0556 09       		.uleb128 0x9
 847 0557 0C020000 		.4byte	.LASF96
 848 055b 08       		.byte	0x8
 849 055c 7F01     		.2byte	0x17f
 850 055e C8000000 		.4byte	0xc8
 851 0562 3C       		.byte	0x3c
 852 0563 08       		.uleb128 0x8
ARM GAS  C:\Users\jo\AppData\Local\Temp\ccPPMGwB.s 			page 16


 853 0564 50465200 		.ascii	"PFR\000"
 854 0568 08       		.byte	0x8
 855 0569 8001     		.2byte	0x180
 856 056b E9050000 		.4byte	0x5e9
 857 056f 40       		.byte	0x40
 858 0570 08       		.uleb128 0x8
 859 0571 44465200 		.ascii	"DFR\000"
 860 0575 08       		.byte	0x8
 861 0576 8101     		.2byte	0x181
 862 0578 BF050000 		.4byte	0x5bf
 863 057c 48       		.byte	0x48
 864 057d 08       		.uleb128 0x8
 865 057e 41445200 		.ascii	"ADR\000"
 866 0582 08       		.byte	0x8
 867 0583 8201     		.2byte	0x182
 868 0585 BF050000 		.4byte	0x5bf
 869 0589 4C       		.byte	0x4c
 870 058a 09       		.uleb128 0x9
 871 058b F4060000 		.4byte	.LASF97
 872 058f 08       		.byte	0x8
 873 0590 8301     		.2byte	0x183
 874 0592 03060000 		.4byte	0x603
 875 0596 50       		.byte	0x50
 876 0597 09       		.uleb128 0x9
 877 0598 4B010000 		.4byte	.LASF98
 878 059c 08       		.byte	0x8
 879 059d 8401     		.2byte	0x184
 880 059f 1D060000 		.4byte	0x61d
 881 05a3 60       		.byte	0x60
 882 05a4 09       		.uleb128 0x9
 883 05a5 E6040000 		.4byte	.LASF99
 884 05a9 08       		.byte	0x8
 885 05aa 8501     		.2byte	0x185
 886 05ac 0D060000 		.4byte	0x60d
 887 05b0 74       		.byte	0x74
 888 05b1 09       		.uleb128 0x9
 889 05b2 28070000 		.4byte	.LASF100
 890 05b6 08       		.byte	0x8
 891 05b7 8601     		.2byte	0x186
 892 05b9 C8000000 		.4byte	0xc8
 893 05bd 88       		.byte	0x88
 894 05be 00       		.byte	0
 895 05bf 13       		.uleb128 0x13
 896 05c0 C8000000 		.4byte	0xc8
 897 05c4 14       		.uleb128 0x14
 898 05c5 97000000 		.4byte	0x97
 899 05c9 D4050000 		.4byte	0x5d4
 900 05cd 15       		.uleb128 0x15
 901 05ce 9D040000 		.4byte	0x49d
 902 05d2 0B       		.byte	0xb
 903 05d3 00       		.byte	0
 904 05d4 05       		.uleb128 0x5
 905 05d5 C4050000 		.4byte	0x5c4
 906 05d9 14       		.uleb128 0x14
 907 05da AD000000 		.4byte	0xad
 908 05de E9050000 		.4byte	0x5e9
 909 05e2 15       		.uleb128 0x15
ARM GAS  C:\Users\jo\AppData\Local\Temp\ccPPMGwB.s 			page 17


 910 05e3 9D040000 		.4byte	0x49d
 911 05e7 01       		.byte	0x1
 912 05e8 00       		.byte	0
 913 05e9 13       		.uleb128 0x13
 914 05ea EE050000 		.4byte	0x5ee
 915 05ee 05       		.uleb128 0x5
 916 05ef D9050000 		.4byte	0x5d9
 917 05f3 14       		.uleb128 0x14
 918 05f4 AD000000 		.4byte	0xad
 919 05f8 03060000 		.4byte	0x603
 920 05fc 15       		.uleb128 0x15
 921 05fd 9D040000 		.4byte	0x49d
 922 0601 03       		.byte	0x3
 923 0602 00       		.byte	0
 924 0603 13       		.uleb128 0x13
 925 0604 08060000 		.4byte	0x608
 926 0608 05       		.uleb128 0x5
 927 0609 F3050000 		.4byte	0x5f3
 928 060d 14       		.uleb128 0x14
 929 060e AD000000 		.4byte	0xad
 930 0612 1D060000 		.4byte	0x61d
 931 0616 15       		.uleb128 0x15
 932 0617 9D040000 		.4byte	0x49d
 933 061b 04       		.byte	0x4
 934 061c 00       		.byte	0
 935 061d 13       		.uleb128 0x13
 936 061e 22060000 		.4byte	0x622
 937 0622 05       		.uleb128 0x5
 938 0623 0D060000 		.4byte	0x60d
 939 0627 16       		.uleb128 0x16
 940 0628 2A020000 		.4byte	.LASF101
 941 062c 08       		.byte	0x8
 942 062d 8701     		.2byte	0x187
 943 062f A4040000 		.4byte	0x4a4
 944 0633 04       		.uleb128 0x4
 945 0634 19020000 		.4byte	.LASF102
 946 0638 09       		.byte	0x9
 947 0639 85       		.byte	0x85
 948 063a 2E030000 		.4byte	0x32e
 949 063e 04       		.uleb128 0x4
 950 063f 20040000 		.4byte	.LASF103
 951 0643 09       		.byte	0x9
 952 0644 8D       		.byte	0x8d
 953 0645 B8000000 		.4byte	0xb8
 954 0649 06       		.uleb128 0x6
 955 064a 95060000 		.4byte	.LASF104
 956 064e 04       		.byte	0x4
 957 064f 09       		.byte	0x9
 958 0650 A9       		.byte	0xa9
 959 0651 62060000 		.4byte	0x662
 960 0655 17       		.uleb128 0x17
 961 0656 72313300 		.ascii	"r13\000"
 962 065a 09       		.byte	0x9
 963 065b AA       		.byte	0xaa
 964 065c DD060000 		.4byte	0x6dd
 965 0660 00       		.byte	0
 966 0661 00       		.byte	0
ARM GAS  C:\Users\jo\AppData\Local\Temp\ccPPMGwB.s 			page 18


 967 0662 06       		.uleb128 0x6
 968 0663 3C000000 		.4byte	.LASF105
 969 0667 24       		.byte	0x24
 970 0668 0A       		.byte	0xa
 971 0669 F4       		.byte	0xf4
 972 066a DD060000 		.4byte	0x6dd
 973 066e 08       		.uleb128 0x8
 974 066f 723400   		.ascii	"r4\000"
 975 0672 0A       		.byte	0xa
 976 0673 0701     		.2byte	0x107
 977 0675 33060000 		.4byte	0x633
 978 0679 00       		.byte	0
 979 067a 08       		.uleb128 0x8
 980 067b 723500   		.ascii	"r5\000"
 981 067e 0A       		.byte	0xa
 982 067f 0801     		.2byte	0x108
 983 0681 33060000 		.4byte	0x633
 984 0685 04       		.byte	0x4
 985 0686 08       		.uleb128 0x8
 986 0687 723600   		.ascii	"r6\000"
 987 068a 0A       		.byte	0xa
 988 068b 0901     		.2byte	0x109
 989 068d 33060000 		.4byte	0x633
 990 0691 08       		.byte	0x8
 991 0692 08       		.uleb128 0x8
 992 0693 723700   		.ascii	"r7\000"
 993 0696 0A       		.byte	0xa
 994 0697 0A01     		.2byte	0x10a
 995 0699 33060000 		.4byte	0x633
 996 069d 0C       		.byte	0xc
 997 069e 08       		.uleb128 0x8
 998 069f 723800   		.ascii	"r8\000"
 999 06a2 0A       		.byte	0xa
 1000 06a3 0B01     		.2byte	0x10b
 1001 06a5 33060000 		.4byte	0x633
 1002 06a9 10       		.byte	0x10
 1003 06aa 08       		.uleb128 0x8
 1004 06ab 723900   		.ascii	"r9\000"
 1005 06ae 0A       		.byte	0xa
 1006 06af 0C01     		.2byte	0x10c
 1007 06b1 33060000 		.4byte	0x633
 1008 06b5 14       		.byte	0x14
 1009 06b6 08       		.uleb128 0x8
 1010 06b7 72313000 		.ascii	"r10\000"
 1011 06bb 0A       		.byte	0xa
 1012 06bc 0D01     		.2byte	0x10d
 1013 06be 33060000 		.4byte	0x633
 1014 06c2 18       		.byte	0x18
 1015 06c3 08       		.uleb128 0x8
 1016 06c4 72313100 		.ascii	"r11\000"
 1017 06c8 0A       		.byte	0xa
 1018 06c9 0E01     		.2byte	0x10e
 1019 06cb 33060000 		.4byte	0x633
 1020 06cf 1C       		.byte	0x1c
 1021 06d0 08       		.uleb128 0x8
 1022 06d1 6C7200   		.ascii	"lr\000"
 1023 06d4 0A       		.byte	0xa
ARM GAS  C:\Users\jo\AppData\Local\Temp\ccPPMGwB.s 			page 19


 1024 06d5 0F01     		.2byte	0x10f
 1025 06d7 33060000 		.4byte	0x633
 1026 06db 20       		.byte	0x20
 1027 06dc 00       		.byte	0
 1028 06dd 0B       		.uleb128 0xb
 1029 06de 04       		.byte	0x4
 1030 06df 62060000 		.4byte	0x662
 1031 06e3 06       		.uleb128 0x6
 1032 06e4 99040000 		.4byte	.LASF106
 1033 06e8 20       		.byte	0x20
 1034 06e9 0A       		.byte	0xa
 1035 06ea D5       		.byte	0xd5
 1036 06eb 4B070000 		.4byte	0x74b
 1037 06ef 17       		.uleb128 0x17
 1038 06f0 723000   		.ascii	"r0\000"
 1039 06f3 0A       		.byte	0xa
 1040 06f4 D6       		.byte	0xd6
 1041 06f5 33060000 		.4byte	0x633
 1042 06f9 00       		.byte	0
 1043 06fa 17       		.uleb128 0x17
 1044 06fb 723100   		.ascii	"r1\000"
 1045 06fe 0A       		.byte	0xa
 1046 06ff D7       		.byte	0xd7
 1047 0700 33060000 		.4byte	0x633
 1048 0704 04       		.byte	0x4
 1049 0705 17       		.uleb128 0x17
 1050 0706 723200   		.ascii	"r2\000"
 1051 0709 0A       		.byte	0xa
 1052 070a D8       		.byte	0xd8
 1053 070b 33060000 		.4byte	0x633
 1054 070f 08       		.byte	0x8
 1055 0710 17       		.uleb128 0x17
 1056 0711 723300   		.ascii	"r3\000"
 1057 0714 0A       		.byte	0xa
 1058 0715 D9       		.byte	0xd9
 1059 0716 33060000 		.4byte	0x633
 1060 071a 0C       		.byte	0xc
 1061 071b 17       		.uleb128 0x17
 1062 071c 72313200 		.ascii	"r12\000"
 1063 0720 0A       		.byte	0xa
 1064 0721 DA       		.byte	0xda
 1065 0722 33060000 		.4byte	0x633
 1066 0726 10       		.byte	0x10
 1067 0727 07       		.uleb128 0x7
 1068 0728 B3050000 		.4byte	.LASF107
 1069 072c 0A       		.byte	0xa
 1070 072d DB       		.byte	0xdb
 1071 072e 33060000 		.4byte	0x633
 1072 0732 14       		.byte	0x14
 1073 0733 17       		.uleb128 0x17
 1074 0734 706300   		.ascii	"pc\000"
 1075 0737 0A       		.byte	0xa
 1076 0738 DC       		.byte	0xdc
 1077 0739 33060000 		.4byte	0x633
 1078 073d 18       		.byte	0x18
 1079 073e 07       		.uleb128 0x7
 1080 073f 6E050000 		.4byte	.LASF108
ARM GAS  C:\Users\jo\AppData\Local\Temp\ccPPMGwB.s 			page 20


 1081 0743 0A       		.byte	0xa
 1082 0744 DD       		.byte	0xdd
 1083 0745 33060000 		.4byte	0x633
 1084 0749 1C       		.byte	0x1c
 1085 074a 00       		.byte	0
 1086 074b 03       		.uleb128 0x3
 1087 074c 01       		.byte	0x1
 1088 074d 08       		.byte	0x8
 1089 074e 1E060000 		.4byte	.LASF109
 1090 0752 0B       		.uleb128 0xb
 1091 0753 04       		.byte	0x4
 1092 0754 58070000 		.4byte	0x758
 1093 0758 13       		.uleb128 0x13
 1094 0759 4B070000 		.4byte	0x74b
 1095 075d 18       		.uleb128 0x18
 1096 075e 10       		.byte	0x10
 1097 075f 0B       		.byte	0xb
 1098 0760 57       		.byte	0x57
 1099 0761 96070000 		.4byte	0x796
 1100 0765 07       		.uleb128 0x7
 1101 0766 0D000000 		.4byte	.LASF110
 1102 076a 0B       		.byte	0xb
 1103 076b 5B       		.byte	0x5b
 1104 076c 3B010000 		.4byte	0x13b
 1105 0770 00       		.byte	0
 1106 0771 07       		.uleb128 0x7
 1107 0772 D7010000 		.4byte	.LASF111
 1108 0776 0B       		.byte	0xb
 1109 0777 5F       		.byte	0x5f
 1110 0778 96070000 		.4byte	0x796
 1111 077c 04       		.byte	0x4
 1112 077d 07       		.uleb128 0x7
 1113 077e 4D070000 		.4byte	.LASF112
 1114 0782 0B       		.byte	0xb
 1115 0783 63       		.byte	0x63
 1116 0784 2E030000 		.4byte	0x32e
 1117 0788 08       		.byte	0x8
 1118 0789 07       		.uleb128 0x7
 1119 078a B4000000 		.4byte	.LASF113
 1120 078e 0B       		.byte	0xb
 1121 078f 67       		.byte	0x67
 1122 0790 97000000 		.4byte	0x97
 1123 0794 0C       		.byte	0xc
 1124 0795 00       		.byte	0
 1125 0796 0B       		.uleb128 0xb
 1126 0797 04       		.byte	0x4
 1127 0798 46010000 		.4byte	0x146
 1128 079c 04       		.uleb128 0x4
 1129 079d 70040000 		.4byte	.LASF114
 1130 07a1 0B       		.byte	0xb
 1131 07a2 68       		.byte	0x68
 1132 07a3 5D070000 		.4byte	0x75d
 1133 07a7 19       		.uleb128 0x19
 1134 07a8 0804     		.2byte	0x408
 1135 07aa 0B       		.byte	0xb
 1136 07ab 6D       		.byte	0x6d
 1137 07ac D5070000 		.4byte	0x7d5
ARM GAS  C:\Users\jo\AppData\Local\Temp\ccPPMGwB.s 			page 21


 1138 07b0 07       		.uleb128 0x7
 1139 07b1 04020000 		.4byte	.LASF115
 1140 07b5 0B       		.byte	0xb
 1141 07b6 71       		.byte	0x71
 1142 07b7 2C000000 		.4byte	0x2c
 1143 07bb 00       		.byte	0
 1144 07bc 07       		.uleb128 0x7
 1145 07bd 69040000 		.4byte	.LASF116
 1146 07c1 0B       		.byte	0xb
 1147 07c2 75       		.byte	0x75
 1148 07c3 D5070000 		.4byte	0x7d5
 1149 07c7 04       		.byte	0x4
 1150 07c8 07       		.uleb128 0x7
 1151 07c9 FE020000 		.4byte	.LASF117
 1152 07cd 0B       		.byte	0xb
 1153 07ce 79       		.byte	0x79
 1154 07cf DB070000 		.4byte	0x7db
 1155 07d3 08       		.byte	0x8
 1156 07d4 00       		.byte	0
 1157 07d5 0B       		.uleb128 0xb
 1158 07d6 04       		.byte	0x4
 1159 07d7 9C070000 		.4byte	0x79c
 1160 07db 14       		.uleb128 0x14
 1161 07dc 9C070000 		.4byte	0x79c
 1162 07e0 EB070000 		.4byte	0x7eb
 1163 07e4 15       		.uleb128 0x15
 1164 07e5 9D040000 		.4byte	0x49d
 1165 07e9 3F       		.byte	0x3f
 1166 07ea 00       		.byte	0
 1167 07eb 04       		.uleb128 0x4
 1168 07ec A2000000 		.4byte	.LASF118
 1169 07f0 0B       		.byte	0xb
 1170 07f1 7A       		.byte	0x7a
 1171 07f2 A7070000 		.4byte	0x7a7
 1172 07f6 18       		.uleb128 0x18
 1173 07f7 04       		.byte	0x4
 1174 07f8 0C       		.byte	0xc
 1175 07f9 38       		.byte	0x38
 1176 07fa 0B080000 		.4byte	0x80b
 1177 07fe 07       		.uleb128 0x7
 1178 07ff 8E060000 		.4byte	.LASF119
 1179 0803 0C       		.byte	0xc
 1180 0804 3C       		.byte	0x3c
 1181 0805 CD000000 		.4byte	0xcd
 1182 0809 00       		.byte	0
 1183 080a 00       		.byte	0
 1184 080b 04       		.uleb128 0x4
 1185 080c A5040000 		.4byte	.LASF120
 1186 0810 0C       		.byte	0xc
 1187 0811 3D       		.byte	0x3d
 1188 0812 F6070000 		.4byte	0x7f6
 1189 0816 18       		.uleb128 0x18
 1190 0817 18       		.byte	0x18
 1191 0818 0C       		.byte	0xc
 1192 0819 48       		.byte	0x48
 1193 081a 59080000 		.4byte	0x859
 1194 081e 07       		.uleb128 0x7
ARM GAS  C:\Users\jo\AppData\Local\Temp\ccPPMGwB.s 			page 22


 1195 081f 41060000 		.4byte	.LASF121
 1196 0823 0C       		.byte	0xc
 1197 0824 49       		.byte	0x49
 1198 0825 CD000000 		.4byte	0xcd
 1199 0829 00       		.byte	0
 1200 082a 07       		.uleb128 0x7
 1201 082b 72000000 		.4byte	.LASF122
 1202 082f 0C       		.byte	0xc
 1203 0830 4A       		.byte	0x4a
 1204 0831 CD000000 		.4byte	0xcd
 1205 0835 04       		.byte	0x4
 1206 0836 07       		.uleb128 0x7
 1207 0837 8D010000 		.4byte	.LASF123
 1208 083b 0C       		.byte	0xc
 1209 083c 4B       		.byte	0x4b
 1210 083d CD000000 		.4byte	0xcd
 1211 0841 08       		.byte	0x8
 1212 0842 17       		.uleb128 0x17
 1213 0843 6E00     		.ascii	"n\000"
 1214 0845 0C       		.byte	0xc
 1215 0846 4C       		.byte	0x4c
 1216 0847 30010000 		.4byte	0x130
 1217 084b 0C       		.byte	0xc
 1218 084c 07       		.uleb128 0x7
 1219 084d D3040000 		.4byte	.LASF124
 1220 0851 0C       		.byte	0xc
 1221 0852 4D       		.byte	0x4d
 1222 0853 D8000000 		.4byte	0xd8
 1223 0857 10       		.byte	0x10
 1224 0858 00       		.byte	0
 1225 0859 04       		.uleb128 0x4
 1226 085a 78000000 		.4byte	.LASF125
 1227 085e 0C       		.byte	0xc
 1228 085f 4E       		.byte	0x4e
 1229 0860 16080000 		.4byte	0x816
 1230 0864 18       		.uleb128 0x18
 1231 0865 38       		.byte	0x38
 1232 0866 0D       		.byte	0xd
 1233 0867 38       		.byte	0x38
 1234 0868 9D080000 		.4byte	0x89d
 1235 086c 07       		.uleb128 0x7
 1236 086d A4020000 		.4byte	.LASF126
 1237 0871 0D       		.byte	0xd
 1238 0872 39       		.byte	0x39
 1239 0873 30010000 		.4byte	0x130
 1240 0877 00       		.byte	0
 1241 0878 07       		.uleb128 0x7
 1242 0879 1A050000 		.4byte	.LASF127
 1243 087d 0D       		.byte	0xd
 1244 087e 3A       		.byte	0x3a
 1245 087f 30010000 		.4byte	0x130
 1246 0883 04       		.byte	0x4
 1247 0884 07       		.uleb128 0x7
 1248 0885 33070000 		.4byte	.LASF128
 1249 0889 0D       		.byte	0xd
 1250 088a 3B       		.byte	0x3b
 1251 088b 59080000 		.4byte	0x859
ARM GAS  C:\Users\jo\AppData\Local\Temp\ccPPMGwB.s 			page 23


 1252 088f 08       		.byte	0x8
 1253 0890 07       		.uleb128 0x7
 1254 0891 08030000 		.4byte	.LASF129
 1255 0895 0D       		.byte	0xd
 1256 0896 3D       		.byte	0x3d
 1257 0897 59080000 		.4byte	0x859
 1258 089b 20       		.byte	0x20
 1259 089c 00       		.byte	0
 1260 089d 04       		.uleb128 0x4
 1261 089e AF020000 		.4byte	.LASF130
 1262 08a2 0D       		.byte	0xd
 1263 08a3 3F       		.byte	0x3f
 1264 08a4 64080000 		.4byte	0x864
 1265 08a8 1A       		.uleb128 0x1a
 1266 08a9 04       		.byte	0x4
 1267 08aa 07       		.byte	0x7
 1268 08ab F6       		.byte	0xf6
 1269 08ac E0080000 		.4byte	0x8e0
 1270 08b0 1B       		.uleb128 0x1b
 1271 08b1 15000000 		.4byte	.LASF131
 1272 08b5 07       		.byte	0x7
 1273 08b6 FD       		.byte	0xfd
 1274 08b7 0F010000 		.4byte	0x10f
 1275 08bb 1C       		.uleb128 0x1c
 1276 08bc BD000000 		.4byte	.LASF132
 1277 08c0 07       		.byte	0x7
 1278 08c1 0401     		.2byte	0x104
 1279 08c3 0F010000 		.4byte	0x10f
 1280 08c7 1C       		.uleb128 0x1c
 1281 08c8 07070000 		.4byte	.LASF133
 1282 08cc 07       		.byte	0x7
 1283 08cd 0B01     		.2byte	0x10b
 1284 08cf 2E030000 		.4byte	0x32e
 1285 08d3 1C       		.uleb128 0x1c
 1286 08d4 7A050000 		.4byte	.LASF134
 1287 08d8 07       		.byte	0x7
 1288 08d9 1201     		.2byte	0x112
 1289 08db 1A010000 		.4byte	0x11a
 1290 08df 00       		.byte	0
 1291 08e0 0B       		.uleb128 0xb
 1292 08e1 04       		.byte	0x4
 1293 08e2 3E060000 		.4byte	0x63e
 1294 08e6 06       		.uleb128 0x6
 1295 08e7 14050000 		.4byte	.LASF135
 1296 08eb 10       		.byte	0x10
 1297 08ec 0E       		.byte	0xe
 1298 08ed 39       		.byte	0x39
 1299 08ee 17090000 		.4byte	0x917
 1300 08f2 07       		.uleb128 0x7
 1301 08f3 72010000 		.4byte	.LASF136
 1302 08f7 0E       		.byte	0xe
 1303 08f8 3A       		.byte	0x3a
 1304 08f9 7B020000 		.4byte	0x27b
 1305 08fd 00       		.byte	0
 1306 08fe 07       		.uleb128 0x7
 1307 08ff 3E070000 		.4byte	.LASF137
 1308 0903 0E       		.byte	0xe
ARM GAS  C:\Users\jo\AppData\Local\Temp\ccPPMGwB.s 			page 24


 1309 0904 3C       		.byte	0x3c
 1310 0905 96070000 		.4byte	0x796
 1311 0909 08       		.byte	0x8
 1312 090a 07       		.uleb128 0x7
 1313 090b 46060000 		.4byte	.LASF138
 1314 090f 0E       		.byte	0xe
 1315 0910 3E       		.byte	0x3e
 1316 0911 43090000 		.4byte	0x943
 1317 0915 0C       		.byte	0xc
 1318 0916 00       		.byte	0
 1319 0917 0B       		.uleb128 0xb
 1320 0918 04       		.byte	0x4
 1321 0919 E6080000 		.4byte	0x8e6
 1322 091d 0B       		.uleb128 0xb
 1323 091e 04       		.byte	0x4
 1324 091f 30030000 		.4byte	0x330
 1325 0923 05       		.uleb128 0x5
 1326 0924 52070000 		.4byte	0x752
 1327 0928 14       		.uleb128 0x14
 1328 0929 3E060000 		.4byte	0x63e
 1329 092d 38090000 		.4byte	0x938
 1330 0931 15       		.uleb128 0x15
 1331 0932 9D040000 		.4byte	0x49d
 1332 0936 1E       		.byte	0x1e
 1333 0937 00       		.byte	0
 1334 0938 04       		.uleb128 0x4
 1335 0939 43020000 		.4byte	.LASF139
 1336 093d 0E       		.byte	0xe
 1337 093e 34       		.byte	0x34
 1338 093f E6080000 		.4byte	0x8e6
 1339 0943 0B       		.uleb128 0xb
 1340 0944 04       		.byte	0x4
 1341 0945 38090000 		.4byte	0x938
 1342 0949 1D       		.uleb128 0x1d
 1343 094a 76060000 		.4byte	.LASF142
 1344 094e 02       		.byte	0x2
 1345 094f 2002     		.2byte	0x220
 1346 0951 03       		.byte	0x3
 1347 0952 63090000 		.4byte	0x963
 1348 0956 1E       		.uleb128 0x1e
 1349 0957 4B020000 		.4byte	.LASF144
 1350 095b 02       		.byte	0x2
 1351 095c 2002     		.2byte	0x220
 1352 095e AD000000 		.4byte	0xad
 1353 0962 00       		.byte	0
 1354 0963 1F       		.uleb128 0x1f
 1355 0964 68000000 		.4byte	.LASF140
 1356 0968 0A       		.byte	0xa
 1357 0969 BB01     		.2byte	0x1bb
 1358 096b 03       		.byte	0x3
 1359 096c 1F       		.uleb128 0x1f
 1360 096d 81010000 		.4byte	.LASF141
 1361 0971 0A       		.byte	0xa
 1362 0972 C901     		.2byte	0x1c9
 1363 0974 03       		.byte	0x3
 1364 0975 20       		.uleb128 0x20
 1365 0976 C4060000 		.4byte	.LASF156
ARM GAS  C:\Users\jo\AppData\Local\Temp\ccPPMGwB.s 			page 25


 1366 097a 02       		.byte	0x2
 1367 097b A801     		.2byte	0x1a8
 1368 097d AD000000 		.4byte	0xad
 1369 0981 03       		.byte	0x3
 1370 0982 93090000 		.4byte	0x993
 1371 0986 21       		.uleb128 0x21
 1372 0987 46070000 		.4byte	.LASF157
 1373 098b 02       		.byte	0x2
 1374 098c AA01     		.2byte	0x1aa
 1375 098e AD000000 		.4byte	0xad
 1376 0992 00       		.byte	0
 1377 0993 1D       		.uleb128 0x1d
 1378 0994 87020000 		.4byte	.LASF143
 1379 0998 02       		.byte	0x2
 1380 0999 B701     		.2byte	0x1b7
 1381 099b 03       		.byte	0x3
 1382 099c AD090000 		.4byte	0x9ad
 1383 09a0 1E       		.uleb128 0x1e
 1384 09a1 2D030000 		.4byte	.LASF145
 1385 09a5 02       		.byte	0x2
 1386 09a6 B701     		.2byte	0x1b7
 1387 09a8 AD000000 		.4byte	0xad
 1388 09ac 00       		.byte	0
 1389 09ad 1F       		.uleb128 0x1f
 1390 09ae 23060000 		.4byte	.LASF146
 1391 09b2 0A       		.byte	0xa
 1392 09b3 E301     		.2byte	0x1e3
 1393 09b5 03       		.byte	0x3
 1394 09b6 1F       		.uleb128 0x1f
 1395 09b7 B1060000 		.4byte	.LASF147
 1396 09bb 0A       		.byte	0xa
 1397 09bc D801     		.2byte	0x1d8
 1398 09be 03       		.byte	0x3
 1399 09bf 22       		.uleb128 0x22
 1400 09c0 BA050000 		.4byte	.LASF148
 1401 09c4 01       		.byte	0x1
 1402 09c5 3D       		.byte	0x3d
 1403 09c6 00000000 		.4byte	.LFB226
 1404 09ca 12000000 		.4byte	.LFE226-.LFB226
 1405 09ce 01       		.uleb128 0x1
 1406 09cf 9C       		.byte	0x9c
 1407 09d0 600A0000 		.4byte	0xa60
 1408 09d4 23       		.uleb128 0x23
 1409 09d5 F0040000 		.4byte	.LASF150
 1410 09d9 01       		.byte	0x1
 1411 09da 3E       		.byte	0x3e
 1412 09db 600A0000 		.4byte	0xa60
 1413 09df 00000000 		.4byte	.LLST0
 1414 09e3 24       		.uleb128 0x24
 1415 09e4 75090000 		.4byte	0x975
 1416 09e8 00000000 		.4byte	.LBB38
 1417 09ec 04000000 		.4byte	.LBE38-.LBB38
 1418 09f0 01       		.byte	0x1
 1419 09f1 46       		.byte	0x46
 1420 09f2 0A0A0000 		.4byte	0xa0a
 1421 09f6 25       		.uleb128 0x25
 1422 09f7 00000000 		.4byte	.LBB39
ARM GAS  C:\Users\jo\AppData\Local\Temp\ccPPMGwB.s 			page 26


 1423 09fb 04000000 		.4byte	.LBE39-.LBB39
 1424 09ff 26       		.uleb128 0x26
 1425 0a00 86090000 		.4byte	0x986
 1426 0a04 20000000 		.4byte	.LLST1
 1427 0a08 00       		.byte	0
 1428 0a09 00       		.byte	0
 1429 0a0a 24       		.uleb128 0x24
 1430 0a0b 93090000 		.4byte	0x993
 1431 0a0f 06000000 		.4byte	.LBB40
 1432 0a13 04000000 		.4byte	.LBE40-.LBB40
 1433 0a17 01       		.byte	0x1
 1434 0a18 4D       		.byte	0x4d
 1435 0a19 270A0000 		.4byte	0xa27
 1436 0a1d 27       		.uleb128 0x27
 1437 0a1e A0090000 		.4byte	0x9a0
 1438 0a22 00000000 		.4byte	.LLST0
 1439 0a26 00       		.byte	0
 1440 0a27 28       		.uleb128 0x28
 1441 0a28 AD090000 		.4byte	0x9ad
 1442 0a2c 0A000000 		.4byte	.LBB42
 1443 0a30 08000000 		.4byte	.LBE42-.LBB42
 1444 0a34 01       		.byte	0x1
 1445 0a35 50       		.byte	0x50
 1446 0a36 29       		.uleb128 0x29
 1447 0a37 6C090000 		.4byte	0x96c
 1448 0a3b 0A000000 		.4byte	.LBB43
 1449 0a3f 08000000 		.4byte	.LBE43-.LBB43
 1450 0a43 0A       		.byte	0xa
 1451 0a44 E501     		.2byte	0x1e5
 1452 0a46 29       		.uleb128 0x29
 1453 0a47 49090000 		.4byte	0x949
 1454 0a4b 0A000000 		.4byte	.LBB44
 1455 0a4f 08000000 		.4byte	.LBE44-.LBB44
 1456 0a53 0A       		.byte	0xa
 1457 0a54 CC01     		.2byte	0x1cc
 1458 0a56 2A       		.uleb128 0x2a
 1459 0a57 56090000 		.4byte	0x956
 1460 0a5b 00       		.byte	0
 1461 0a5c 00       		.byte	0
 1462 0a5d 00       		.byte	0
 1463 0a5e 00       		.byte	0
 1464 0a5f 00       		.byte	0
 1465 0a60 0B       		.uleb128 0xb
 1466 0a61 04       		.byte	0x4
 1467 0a62 E3060000 		.4byte	0x6e3
 1468 0a66 22       		.uleb128 0x22
 1469 0a67 EB020000 		.4byte	.LASF149
 1470 0a6b 01       		.byte	0x1
 1471 0a6c 76       		.byte	0x76
 1472 0a6d 00000000 		.4byte	.LFB227
 1473 0a71 50000000 		.4byte	.LFE227-.LFB227
 1474 0a75 01       		.uleb128 0x1
 1475 0a76 9C       		.byte	0x9c
 1476 0a77 5D0B0000 		.4byte	0xb5d
 1477 0a7b 24       		.uleb128 0x24
 1478 0a7c B6090000 		.4byte	0x9b6
 1479 0a80 00000000 		.4byte	.LBB46
ARM GAS  C:\Users\jo\AppData\Local\Temp\ccPPMGwB.s 			page 27


 1480 0a84 06000000 		.4byte	.LBE46-.LBB46
 1481 0a88 01       		.byte	0x1
 1482 0a89 78       		.byte	0x78
 1483 0a8a B70A0000 		.4byte	0xab7
 1484 0a8e 29       		.uleb128 0x29
 1485 0a8f 63090000 		.4byte	0x963
 1486 0a93 00000000 		.4byte	.LBB47
 1487 0a97 06000000 		.4byte	.LBE47-.LBB47
 1488 0a9b 0A       		.byte	0xa
 1489 0a9c DA01     		.2byte	0x1da
 1490 0a9e 29       		.uleb128 0x29
 1491 0a9f 49090000 		.4byte	0x949
 1492 0aa3 00000000 		.4byte	.LBB48
 1493 0aa7 06000000 		.4byte	.LBE48-.LBB48
 1494 0aab 0A       		.byte	0xa
 1495 0aac BE01     		.2byte	0x1be
 1496 0aae 2A       		.uleb128 0x2a
 1497 0aaf 56090000 		.4byte	0x956
 1498 0ab3 20       		.byte	0x20
 1499 0ab4 00       		.byte	0
 1500 0ab5 00       		.byte	0
 1501 0ab6 00       		.byte	0
 1502 0ab7 24       		.uleb128 0x24
 1503 0ab8 AD090000 		.4byte	0x9ad
 1504 0abc 10000000 		.4byte	.LBB50
 1505 0ac0 06000000 		.4byte	.LBE50-.LBB50
 1506 0ac4 01       		.byte	0x1
 1507 0ac5 A1       		.byte	0xa1
 1508 0ac6 F60A0000 		.4byte	0xaf6
 1509 0aca 29       		.uleb128 0x29
 1510 0acb 6C090000 		.4byte	0x96c
 1511 0acf 10000000 		.4byte	.LBB51
 1512 0ad3 06000000 		.4byte	.LBE51-.LBB51
 1513 0ad7 0A       		.byte	0xa
 1514 0ad8 E501     		.2byte	0x1e5
 1515 0ada 29       		.uleb128 0x29
 1516 0adb 49090000 		.4byte	0x949
 1517 0adf 10000000 		.4byte	.LBB52
 1518 0ae3 06000000 		.4byte	.LBE52-.LBB52
 1519 0ae7 0A       		.byte	0xa
 1520 0ae8 CC01     		.2byte	0x1cc
 1521 0aea 27       		.uleb128 0x27
 1522 0aeb 56090000 		.4byte	0x956
 1523 0aef 40000000 		.4byte	.LLST3
 1524 0af3 00       		.byte	0
 1525 0af4 00       		.byte	0
 1526 0af5 00       		.byte	0
 1527 0af6 25       		.uleb128 0x25
 1528 0af7 18000000 		.4byte	.LBB54
 1529 0afb 38000000 		.4byte	.LBE54-.LBB54
 1530 0aff 23       		.uleb128 0x23
 1531 0b00 F0040000 		.4byte	.LASF150
 1532 0b04 01       		.byte	0x1
 1533 0b05 7A       		.byte	0x7a
 1534 0b06 600A0000 		.4byte	0xa60
 1535 0b0a 54000000 		.4byte	.LLST4
 1536 0b0e 24       		.uleb128 0x24
ARM GAS  C:\Users\jo\AppData\Local\Temp\ccPPMGwB.s 			page 28


 1537 0b0f 75090000 		.4byte	0x975
 1538 0b13 18000000 		.4byte	.LBB55
 1539 0b17 04000000 		.4byte	.LBE55-.LBB55
 1540 0b1b 01       		.byte	0x1
 1541 0b1c 82       		.byte	0x82
 1542 0b1d 350B0000 		.4byte	0xb35
 1543 0b21 25       		.uleb128 0x25
 1544 0b22 18000000 		.4byte	.LBB56
 1545 0b26 04000000 		.4byte	.LBE56-.LBB56
 1546 0b2a 26       		.uleb128 0x26
 1547 0b2b 86090000 		.4byte	0x986
 1548 0b2f 81000000 		.4byte	.LLST5
 1549 0b33 00       		.byte	0
 1550 0b34 00       		.byte	0
 1551 0b35 24       		.uleb128 0x24
 1552 0b36 93090000 		.4byte	0x993
 1553 0b3a 28000000 		.4byte	.LBB57
 1554 0b3e 04000000 		.4byte	.LBE57-.LBB57
 1555 0b42 01       		.byte	0x1
 1556 0b43 8F       		.byte	0x8f
 1557 0b44 520B0000 		.4byte	0xb52
 1558 0b48 27       		.uleb128 0x27
 1559 0b49 A0090000 		.4byte	0x9a0
 1560 0b4d 94000000 		.4byte	.LLST6
 1561 0b51 00       		.byte	0
 1562 0b52 2B       		.uleb128 0x2b
 1563 0b53 30000000 		.4byte	.LVL10
 1564 0b57 740B0000 		.4byte	0xb74
 1565 0b5b 00       		.byte	0
 1566 0b5c 00       		.byte	0
 1567 0b5d 2C       		.uleb128 0x2c
 1568 0b5e 45050000 		.4byte	.LASF151
 1569 0b62 08       		.byte	0x8
 1570 0b63 A706     		.2byte	0x6a7
 1571 0b65 C3000000 		.4byte	0xc3
 1572 0b69 2D       		.uleb128 0x2d
 1573 0b6a 636800   		.ascii	"ch\000"
 1574 0b6d 07       		.byte	0x7
 1575 0b6e EB01     		.2byte	0x1eb
 1576 0b70 25040000 		.4byte	0x425
 1577 0b74 2E       		.uleb128 0x2e
 1578 0b75 DD010000 		.4byte	.LASF158
 1579 0b79 07       		.byte	0x7
 1580 0b7a FA01     		.2byte	0x1fa
 1581 0b7c 800B0000 		.4byte	0xb80
 1582 0b80 03       		.uleb128 0x3
 1583 0b81 01       		.byte	0x1
 1584 0b82 02       		.byte	0x2
 1585 0b83 23050000 		.4byte	.LASF152
 1586 0b87 00       		.byte	0
 1587              		.section	.debug_abbrev,"",%progbits
 1588              	.Ldebug_abbrev0:
 1589 0000 01       		.uleb128 0x1
 1590 0001 11       		.uleb128 0x11
 1591 0002 01       		.byte	0x1
 1592 0003 25       		.uleb128 0x25
 1593 0004 0E       		.uleb128 0xe
ARM GAS  C:\Users\jo\AppData\Local\Temp\ccPPMGwB.s 			page 29


 1594 0005 13       		.uleb128 0x13
 1595 0006 0B       		.uleb128 0xb
 1596 0007 03       		.uleb128 0x3
 1597 0008 0E       		.uleb128 0xe
 1598 0009 1B       		.uleb128 0x1b
 1599 000a 0E       		.uleb128 0xe
 1600 000b 55       		.uleb128 0x55
 1601 000c 17       		.uleb128 0x17
 1602 000d 11       		.uleb128 0x11
 1603 000e 01       		.uleb128 0x1
 1604 000f 10       		.uleb128 0x10
 1605 0010 17       		.uleb128 0x17
 1606 0011 00       		.byte	0
 1607 0012 00       		.byte	0
 1608 0013 02       		.uleb128 0x2
 1609 0014 24       		.uleb128 0x24
 1610 0015 00       		.byte	0
 1611 0016 0B       		.uleb128 0xb
 1612 0017 0B       		.uleb128 0xb
 1613 0018 3E       		.uleb128 0x3e
 1614 0019 0B       		.uleb128 0xb
 1615 001a 03       		.uleb128 0x3
 1616 001b 08       		.uleb128 0x8
 1617 001c 00       		.byte	0
 1618 001d 00       		.byte	0
 1619 001e 03       		.uleb128 0x3
 1620 001f 24       		.uleb128 0x24
 1621 0020 00       		.byte	0
 1622 0021 0B       		.uleb128 0xb
 1623 0022 0B       		.uleb128 0xb
 1624 0023 3E       		.uleb128 0x3e
 1625 0024 0B       		.uleb128 0xb
 1626 0025 03       		.uleb128 0x3
 1627 0026 0E       		.uleb128 0xe
 1628 0027 00       		.byte	0
 1629 0028 00       		.byte	0
 1630 0029 04       		.uleb128 0x4
 1631 002a 16       		.uleb128 0x16
 1632 002b 00       		.byte	0
 1633 002c 03       		.uleb128 0x3
 1634 002d 0E       		.uleb128 0xe
 1635 002e 3A       		.uleb128 0x3a
 1636 002f 0B       		.uleb128 0xb
 1637 0030 3B       		.uleb128 0x3b
 1638 0031 0B       		.uleb128 0xb
 1639 0032 49       		.uleb128 0x49
 1640 0033 13       		.uleb128 0x13
 1641 0034 00       		.byte	0
 1642 0035 00       		.byte	0
 1643 0036 05       		.uleb128 0x5
 1644 0037 35       		.uleb128 0x35
 1645 0038 00       		.byte	0
 1646 0039 49       		.uleb128 0x49
 1647 003a 13       		.uleb128 0x13
 1648 003b 00       		.byte	0
 1649 003c 00       		.byte	0
 1650 003d 06       		.uleb128 0x6
ARM GAS  C:\Users\jo\AppData\Local\Temp\ccPPMGwB.s 			page 30


 1651 003e 13       		.uleb128 0x13
 1652 003f 01       		.byte	0x1
 1653 0040 03       		.uleb128 0x3
 1654 0041 0E       		.uleb128 0xe
 1655 0042 0B       		.uleb128 0xb
 1656 0043 0B       		.uleb128 0xb
 1657 0044 3A       		.uleb128 0x3a
 1658 0045 0B       		.uleb128 0xb
 1659 0046 3B       		.uleb128 0x3b
 1660 0047 0B       		.uleb128 0xb
 1661 0048 01       		.uleb128 0x1
 1662 0049 13       		.uleb128 0x13
 1663 004a 00       		.byte	0
 1664 004b 00       		.byte	0
 1665 004c 07       		.uleb128 0x7
 1666 004d 0D       		.uleb128 0xd
 1667 004e 00       		.byte	0
 1668 004f 03       		.uleb128 0x3
 1669 0050 0E       		.uleb128 0xe
 1670 0051 3A       		.uleb128 0x3a
 1671 0052 0B       		.uleb128 0xb
 1672 0053 3B       		.uleb128 0x3b
 1673 0054 0B       		.uleb128 0xb
 1674 0055 49       		.uleb128 0x49
 1675 0056 13       		.uleb128 0x13
 1676 0057 38       		.uleb128 0x38
 1677 0058 0B       		.uleb128 0xb
 1678 0059 00       		.byte	0
 1679 005a 00       		.byte	0
 1680 005b 08       		.uleb128 0x8
 1681 005c 0D       		.uleb128 0xd
 1682 005d 00       		.byte	0
 1683 005e 03       		.uleb128 0x3
 1684 005f 08       		.uleb128 0x8
 1685 0060 3A       		.uleb128 0x3a
 1686 0061 0B       		.uleb128 0xb
 1687 0062 3B       		.uleb128 0x3b
 1688 0063 05       		.uleb128 0x5
 1689 0064 49       		.uleb128 0x49
 1690 0065 13       		.uleb128 0x13
 1691 0066 38       		.uleb128 0x38
 1692 0067 0B       		.uleb128 0xb
 1693 0068 00       		.byte	0
 1694 0069 00       		.byte	0
 1695 006a 09       		.uleb128 0x9
 1696 006b 0D       		.uleb128 0xd
 1697 006c 00       		.byte	0
 1698 006d 03       		.uleb128 0x3
 1699 006e 0E       		.uleb128 0xe
 1700 006f 3A       		.uleb128 0x3a
 1701 0070 0B       		.uleb128 0xb
 1702 0071 3B       		.uleb128 0x3b
 1703 0072 05       		.uleb128 0x5
 1704 0073 49       		.uleb128 0x49
 1705 0074 13       		.uleb128 0x13
 1706 0075 38       		.uleb128 0x38
 1707 0076 0B       		.uleb128 0xb
ARM GAS  C:\Users\jo\AppData\Local\Temp\ccPPMGwB.s 			page 31


 1708 0077 00       		.byte	0
 1709 0078 00       		.byte	0
 1710 0079 0A       		.uleb128 0xa
 1711 007a 13       		.uleb128 0x13
 1712 007b 01       		.byte	0x1
 1713 007c 03       		.uleb128 0x3
 1714 007d 0E       		.uleb128 0xe
 1715 007e 0B       		.uleb128 0xb
 1716 007f 0B       		.uleb128 0xb
 1717 0080 3A       		.uleb128 0x3a
 1718 0081 0B       		.uleb128 0xb
 1719 0082 3B       		.uleb128 0x3b
 1720 0083 05       		.uleb128 0x5
 1721 0084 01       		.uleb128 0x1
 1722 0085 13       		.uleb128 0x13
 1723 0086 00       		.byte	0
 1724 0087 00       		.byte	0
 1725 0088 0B       		.uleb128 0xb
 1726 0089 0F       		.uleb128 0xf
 1727 008a 00       		.byte	0
 1728 008b 0B       		.uleb128 0xb
 1729 008c 0B       		.uleb128 0xb
 1730 008d 49       		.uleb128 0x49
 1731 008e 13       		.uleb128 0x13
 1732 008f 00       		.byte	0
 1733 0090 00       		.byte	0
 1734 0091 0C       		.uleb128 0xc
 1735 0092 15       		.uleb128 0x15
 1736 0093 01       		.byte	0x1
 1737 0094 27       		.uleb128 0x27
 1738 0095 19       		.uleb128 0x19
 1739 0096 01       		.uleb128 0x1
 1740 0097 13       		.uleb128 0x13
 1741 0098 00       		.byte	0
 1742 0099 00       		.byte	0
 1743 009a 0D       		.uleb128 0xd
 1744 009b 05       		.uleb128 0x5
 1745 009c 00       		.byte	0
 1746 009d 49       		.uleb128 0x49
 1747 009e 13       		.uleb128 0x13
 1748 009f 00       		.byte	0
 1749 00a0 00       		.byte	0
 1750 00a1 0E       		.uleb128 0xe
 1751 00a2 0F       		.uleb128 0xf
 1752 00a3 00       		.byte	0
 1753 00a4 0B       		.uleb128 0xb
 1754 00a5 0B       		.uleb128 0xb
 1755 00a6 00       		.byte	0
 1756 00a7 00       		.byte	0
 1757 00a8 0F       		.uleb128 0xf
 1758 00a9 13       		.uleb128 0x13
 1759 00aa 01       		.byte	0x1
 1760 00ab 03       		.uleb128 0x3
 1761 00ac 0E       		.uleb128 0xe
 1762 00ad 0B       		.uleb128 0xb
 1763 00ae 05       		.uleb128 0x5
 1764 00af 3A       		.uleb128 0x3a
ARM GAS  C:\Users\jo\AppData\Local\Temp\ccPPMGwB.s 			page 32


 1765 00b0 0B       		.uleb128 0xb
 1766 00b1 3B       		.uleb128 0x3b
 1767 00b2 05       		.uleb128 0x5
 1768 00b3 01       		.uleb128 0x1
 1769 00b4 13       		.uleb128 0x13
 1770 00b5 00       		.byte	0
 1771 00b6 00       		.byte	0
 1772 00b7 10       		.uleb128 0x10
 1773 00b8 0D       		.uleb128 0xd
 1774 00b9 00       		.byte	0
 1775 00ba 03       		.uleb128 0x3
 1776 00bb 0E       		.uleb128 0xe
 1777 00bc 3A       		.uleb128 0x3a
 1778 00bd 0B       		.uleb128 0xb
 1779 00be 3B       		.uleb128 0x3b
 1780 00bf 05       		.uleb128 0x5
 1781 00c0 49       		.uleb128 0x49
 1782 00c1 13       		.uleb128 0x13
 1783 00c2 38       		.uleb128 0x38
 1784 00c3 05       		.uleb128 0x5
 1785 00c4 00       		.byte	0
 1786 00c5 00       		.byte	0
 1787 00c6 11       		.uleb128 0x11
 1788 00c7 0D       		.uleb128 0xd
 1789 00c8 00       		.byte	0
 1790 00c9 03       		.uleb128 0x3
 1791 00ca 08       		.uleb128 0x8
 1792 00cb 3A       		.uleb128 0x3a
 1793 00cc 0B       		.uleb128 0xb
 1794 00cd 3B       		.uleb128 0x3b
 1795 00ce 05       		.uleb128 0x5
 1796 00cf 49       		.uleb128 0x49
 1797 00d0 13       		.uleb128 0x13
 1798 00d1 38       		.uleb128 0x38
 1799 00d2 05       		.uleb128 0x5
 1800 00d3 00       		.byte	0
 1801 00d4 00       		.byte	0
 1802 00d5 12       		.uleb128 0x12
 1803 00d6 13       		.uleb128 0x13
 1804 00d7 01       		.byte	0x1
 1805 00d8 0B       		.uleb128 0xb
 1806 00d9 0B       		.uleb128 0xb
 1807 00da 3A       		.uleb128 0x3a
 1808 00db 0B       		.uleb128 0xb
 1809 00dc 3B       		.uleb128 0x3b
 1810 00dd 05       		.uleb128 0x5
 1811 00de 01       		.uleb128 0x1
 1812 00df 13       		.uleb128 0x13
 1813 00e0 00       		.byte	0
 1814 00e1 00       		.byte	0
 1815 00e2 13       		.uleb128 0x13
 1816 00e3 26       		.uleb128 0x26
 1817 00e4 00       		.byte	0
 1818 00e5 49       		.uleb128 0x49
 1819 00e6 13       		.uleb128 0x13
 1820 00e7 00       		.byte	0
 1821 00e8 00       		.byte	0
ARM GAS  C:\Users\jo\AppData\Local\Temp\ccPPMGwB.s 			page 33


 1822 00e9 14       		.uleb128 0x14
 1823 00ea 01       		.uleb128 0x1
 1824 00eb 01       		.byte	0x1
 1825 00ec 49       		.uleb128 0x49
 1826 00ed 13       		.uleb128 0x13
 1827 00ee 01       		.uleb128 0x1
 1828 00ef 13       		.uleb128 0x13
 1829 00f0 00       		.byte	0
 1830 00f1 00       		.byte	0
 1831 00f2 15       		.uleb128 0x15
 1832 00f3 21       		.uleb128 0x21
 1833 00f4 00       		.byte	0
 1834 00f5 49       		.uleb128 0x49
 1835 00f6 13       		.uleb128 0x13
 1836 00f7 2F       		.uleb128 0x2f
 1837 00f8 0B       		.uleb128 0xb
 1838 00f9 00       		.byte	0
 1839 00fa 00       		.byte	0
 1840 00fb 16       		.uleb128 0x16
 1841 00fc 16       		.uleb128 0x16
 1842 00fd 00       		.byte	0
 1843 00fe 03       		.uleb128 0x3
 1844 00ff 0E       		.uleb128 0xe
 1845 0100 3A       		.uleb128 0x3a
 1846 0101 0B       		.uleb128 0xb
 1847 0102 3B       		.uleb128 0x3b
 1848 0103 05       		.uleb128 0x5
 1849 0104 49       		.uleb128 0x49
 1850 0105 13       		.uleb128 0x13
 1851 0106 00       		.byte	0
 1852 0107 00       		.byte	0
 1853 0108 17       		.uleb128 0x17
 1854 0109 0D       		.uleb128 0xd
 1855 010a 00       		.byte	0
 1856 010b 03       		.uleb128 0x3
 1857 010c 08       		.uleb128 0x8
 1858 010d 3A       		.uleb128 0x3a
 1859 010e 0B       		.uleb128 0xb
 1860 010f 3B       		.uleb128 0x3b
 1861 0110 0B       		.uleb128 0xb
 1862 0111 49       		.uleb128 0x49
 1863 0112 13       		.uleb128 0x13
 1864 0113 38       		.uleb128 0x38
 1865 0114 0B       		.uleb128 0xb
 1866 0115 00       		.byte	0
 1867 0116 00       		.byte	0
 1868 0117 18       		.uleb128 0x18
 1869 0118 13       		.uleb128 0x13
 1870 0119 01       		.byte	0x1
 1871 011a 0B       		.uleb128 0xb
 1872 011b 0B       		.uleb128 0xb
 1873 011c 3A       		.uleb128 0x3a
 1874 011d 0B       		.uleb128 0xb
 1875 011e 3B       		.uleb128 0x3b
 1876 011f 0B       		.uleb128 0xb
 1877 0120 01       		.uleb128 0x1
 1878 0121 13       		.uleb128 0x13
ARM GAS  C:\Users\jo\AppData\Local\Temp\ccPPMGwB.s 			page 34


 1879 0122 00       		.byte	0
 1880 0123 00       		.byte	0
 1881 0124 19       		.uleb128 0x19
 1882 0125 13       		.uleb128 0x13
 1883 0126 01       		.byte	0x1
 1884 0127 0B       		.uleb128 0xb
 1885 0128 05       		.uleb128 0x5
 1886 0129 3A       		.uleb128 0x3a
 1887 012a 0B       		.uleb128 0xb
 1888 012b 3B       		.uleb128 0x3b
 1889 012c 0B       		.uleb128 0xb
 1890 012d 01       		.uleb128 0x1
 1891 012e 13       		.uleb128 0x13
 1892 012f 00       		.byte	0
 1893 0130 00       		.byte	0
 1894 0131 1A       		.uleb128 0x1a
 1895 0132 17       		.uleb128 0x17
 1896 0133 01       		.byte	0x1
 1897 0134 0B       		.uleb128 0xb
 1898 0135 0B       		.uleb128 0xb
 1899 0136 3A       		.uleb128 0x3a
 1900 0137 0B       		.uleb128 0xb
 1901 0138 3B       		.uleb128 0x3b
 1902 0139 0B       		.uleb128 0xb
 1903 013a 01       		.uleb128 0x1
 1904 013b 13       		.uleb128 0x13
 1905 013c 00       		.byte	0
 1906 013d 00       		.byte	0
 1907 013e 1B       		.uleb128 0x1b
 1908 013f 0D       		.uleb128 0xd
 1909 0140 00       		.byte	0
 1910 0141 03       		.uleb128 0x3
 1911 0142 0E       		.uleb128 0xe
 1912 0143 3A       		.uleb128 0x3a
 1913 0144 0B       		.uleb128 0xb
 1914 0145 3B       		.uleb128 0x3b
 1915 0146 0B       		.uleb128 0xb
 1916 0147 49       		.uleb128 0x49
 1917 0148 13       		.uleb128 0x13
 1918 0149 00       		.byte	0
 1919 014a 00       		.byte	0
 1920 014b 1C       		.uleb128 0x1c
 1921 014c 0D       		.uleb128 0xd
 1922 014d 00       		.byte	0
 1923 014e 03       		.uleb128 0x3
 1924 014f 0E       		.uleb128 0xe
 1925 0150 3A       		.uleb128 0x3a
 1926 0151 0B       		.uleb128 0xb
 1927 0152 3B       		.uleb128 0x3b
 1928 0153 05       		.uleb128 0x5
 1929 0154 49       		.uleb128 0x49
 1930 0155 13       		.uleb128 0x13
 1931 0156 00       		.byte	0
 1932 0157 00       		.byte	0
 1933 0158 1D       		.uleb128 0x1d
 1934 0159 2E       		.uleb128 0x2e
 1935 015a 01       		.byte	0x1
ARM GAS  C:\Users\jo\AppData\Local\Temp\ccPPMGwB.s 			page 35


 1936 015b 03       		.uleb128 0x3
 1937 015c 0E       		.uleb128 0xe
 1938 015d 3A       		.uleb128 0x3a
 1939 015e 0B       		.uleb128 0xb
 1940 015f 3B       		.uleb128 0x3b
 1941 0160 05       		.uleb128 0x5
 1942 0161 27       		.uleb128 0x27
 1943 0162 19       		.uleb128 0x19
 1944 0163 20       		.uleb128 0x20
 1945 0164 0B       		.uleb128 0xb
 1946 0165 01       		.uleb128 0x1
 1947 0166 13       		.uleb128 0x13
 1948 0167 00       		.byte	0
 1949 0168 00       		.byte	0
 1950 0169 1E       		.uleb128 0x1e
 1951 016a 05       		.uleb128 0x5
 1952 016b 00       		.byte	0
 1953 016c 03       		.uleb128 0x3
 1954 016d 0E       		.uleb128 0xe
 1955 016e 3A       		.uleb128 0x3a
 1956 016f 0B       		.uleb128 0xb
 1957 0170 3B       		.uleb128 0x3b
 1958 0171 05       		.uleb128 0x5
 1959 0172 49       		.uleb128 0x49
 1960 0173 13       		.uleb128 0x13
 1961 0174 00       		.byte	0
 1962 0175 00       		.byte	0
 1963 0176 1F       		.uleb128 0x1f
 1964 0177 2E       		.uleb128 0x2e
 1965 0178 00       		.byte	0
 1966 0179 03       		.uleb128 0x3
 1967 017a 0E       		.uleb128 0xe
 1968 017b 3A       		.uleb128 0x3a
 1969 017c 0B       		.uleb128 0xb
 1970 017d 3B       		.uleb128 0x3b
 1971 017e 05       		.uleb128 0x5
 1972 017f 27       		.uleb128 0x27
 1973 0180 19       		.uleb128 0x19
 1974 0181 20       		.uleb128 0x20
 1975 0182 0B       		.uleb128 0xb
 1976 0183 00       		.byte	0
 1977 0184 00       		.byte	0
 1978 0185 20       		.uleb128 0x20
 1979 0186 2E       		.uleb128 0x2e
 1980 0187 01       		.byte	0x1
 1981 0188 03       		.uleb128 0x3
 1982 0189 0E       		.uleb128 0xe
 1983 018a 3A       		.uleb128 0x3a
 1984 018b 0B       		.uleb128 0xb
 1985 018c 3B       		.uleb128 0x3b
 1986 018d 05       		.uleb128 0x5
 1987 018e 27       		.uleb128 0x27
 1988 018f 19       		.uleb128 0x19
 1989 0190 49       		.uleb128 0x49
 1990 0191 13       		.uleb128 0x13
 1991 0192 20       		.uleb128 0x20
 1992 0193 0B       		.uleb128 0xb
ARM GAS  C:\Users\jo\AppData\Local\Temp\ccPPMGwB.s 			page 36


 1993 0194 01       		.uleb128 0x1
 1994 0195 13       		.uleb128 0x13
 1995 0196 00       		.byte	0
 1996 0197 00       		.byte	0
 1997 0198 21       		.uleb128 0x21
 1998 0199 34       		.uleb128 0x34
 1999 019a 00       		.byte	0
 2000 019b 03       		.uleb128 0x3
 2001 019c 0E       		.uleb128 0xe
 2002 019d 3A       		.uleb128 0x3a
 2003 019e 0B       		.uleb128 0xb
 2004 019f 3B       		.uleb128 0x3b
 2005 01a0 05       		.uleb128 0x5
 2006 01a1 49       		.uleb128 0x49
 2007 01a2 13       		.uleb128 0x13
 2008 01a3 00       		.byte	0
 2009 01a4 00       		.byte	0
 2010 01a5 22       		.uleb128 0x22
 2011 01a6 2E       		.uleb128 0x2e
 2012 01a7 01       		.byte	0x1
 2013 01a8 3F       		.uleb128 0x3f
 2014 01a9 19       		.uleb128 0x19
 2015 01aa 03       		.uleb128 0x3
 2016 01ab 0E       		.uleb128 0xe
 2017 01ac 3A       		.uleb128 0x3a
 2018 01ad 0B       		.uleb128 0xb
 2019 01ae 3B       		.uleb128 0x3b
 2020 01af 0B       		.uleb128 0xb
 2021 01b0 27       		.uleb128 0x27
 2022 01b1 19       		.uleb128 0x19
 2023 01b2 11       		.uleb128 0x11
 2024 01b3 01       		.uleb128 0x1
 2025 01b4 12       		.uleb128 0x12
 2026 01b5 06       		.uleb128 0x6
 2027 01b6 40       		.uleb128 0x40
 2028 01b7 18       		.uleb128 0x18
 2029 01b8 9742     		.uleb128 0x2117
 2030 01ba 19       		.uleb128 0x19
 2031 01bb 01       		.uleb128 0x1
 2032 01bc 13       		.uleb128 0x13
 2033 01bd 00       		.byte	0
 2034 01be 00       		.byte	0
 2035 01bf 23       		.uleb128 0x23
 2036 01c0 34       		.uleb128 0x34
 2037 01c1 00       		.byte	0
 2038 01c2 03       		.uleb128 0x3
 2039 01c3 0E       		.uleb128 0xe
 2040 01c4 3A       		.uleb128 0x3a
 2041 01c5 0B       		.uleb128 0xb
 2042 01c6 3B       		.uleb128 0x3b
 2043 01c7 0B       		.uleb128 0xb
 2044 01c8 49       		.uleb128 0x49
 2045 01c9 13       		.uleb128 0x13
 2046 01ca 02       		.uleb128 0x2
 2047 01cb 17       		.uleb128 0x17
 2048 01cc 00       		.byte	0
 2049 01cd 00       		.byte	0
ARM GAS  C:\Users\jo\AppData\Local\Temp\ccPPMGwB.s 			page 37


 2050 01ce 24       		.uleb128 0x24
 2051 01cf 1D       		.uleb128 0x1d
 2052 01d0 01       		.byte	0x1
 2053 01d1 31       		.uleb128 0x31
 2054 01d2 13       		.uleb128 0x13
 2055 01d3 11       		.uleb128 0x11
 2056 01d4 01       		.uleb128 0x1
 2057 01d5 12       		.uleb128 0x12
 2058 01d6 06       		.uleb128 0x6
 2059 01d7 58       		.uleb128 0x58
 2060 01d8 0B       		.uleb128 0xb
 2061 01d9 59       		.uleb128 0x59
 2062 01da 0B       		.uleb128 0xb
 2063 01db 01       		.uleb128 0x1
 2064 01dc 13       		.uleb128 0x13
 2065 01dd 00       		.byte	0
 2066 01de 00       		.byte	0
 2067 01df 25       		.uleb128 0x25
 2068 01e0 0B       		.uleb128 0xb
 2069 01e1 01       		.byte	0x1
 2070 01e2 11       		.uleb128 0x11
 2071 01e3 01       		.uleb128 0x1
 2072 01e4 12       		.uleb128 0x12
 2073 01e5 06       		.uleb128 0x6
 2074 01e6 00       		.byte	0
 2075 01e7 00       		.byte	0
 2076 01e8 26       		.uleb128 0x26
 2077 01e9 34       		.uleb128 0x34
 2078 01ea 00       		.byte	0
 2079 01eb 31       		.uleb128 0x31
 2080 01ec 13       		.uleb128 0x13
 2081 01ed 02       		.uleb128 0x2
 2082 01ee 17       		.uleb128 0x17
 2083 01ef 00       		.byte	0
 2084 01f0 00       		.byte	0
 2085 01f1 27       		.uleb128 0x27
 2086 01f2 05       		.uleb128 0x5
 2087 01f3 00       		.byte	0
 2088 01f4 31       		.uleb128 0x31
 2089 01f5 13       		.uleb128 0x13
 2090 01f6 02       		.uleb128 0x2
 2091 01f7 17       		.uleb128 0x17
 2092 01f8 00       		.byte	0
 2093 01f9 00       		.byte	0
 2094 01fa 28       		.uleb128 0x28
 2095 01fb 1D       		.uleb128 0x1d
 2096 01fc 01       		.byte	0x1
 2097 01fd 31       		.uleb128 0x31
 2098 01fe 13       		.uleb128 0x13
 2099 01ff 11       		.uleb128 0x11
 2100 0200 01       		.uleb128 0x1
 2101 0201 12       		.uleb128 0x12
 2102 0202 06       		.uleb128 0x6
 2103 0203 58       		.uleb128 0x58
 2104 0204 0B       		.uleb128 0xb
 2105 0205 59       		.uleb128 0x59
 2106 0206 0B       		.uleb128 0xb
ARM GAS  C:\Users\jo\AppData\Local\Temp\ccPPMGwB.s 			page 38


 2107 0207 00       		.byte	0
 2108 0208 00       		.byte	0
 2109 0209 29       		.uleb128 0x29
 2110 020a 1D       		.uleb128 0x1d
 2111 020b 01       		.byte	0x1
 2112 020c 31       		.uleb128 0x31
 2113 020d 13       		.uleb128 0x13
 2114 020e 11       		.uleb128 0x11
 2115 020f 01       		.uleb128 0x1
 2116 0210 12       		.uleb128 0x12
 2117 0211 06       		.uleb128 0x6
 2118 0212 58       		.uleb128 0x58
 2119 0213 0B       		.uleb128 0xb
 2120 0214 59       		.uleb128 0x59
 2121 0215 05       		.uleb128 0x5
 2122 0216 00       		.byte	0
 2123 0217 00       		.byte	0
 2124 0218 2A       		.uleb128 0x2a
 2125 0219 05       		.uleb128 0x5
 2126 021a 00       		.byte	0
 2127 021b 31       		.uleb128 0x31
 2128 021c 13       		.uleb128 0x13
 2129 021d 1C       		.uleb128 0x1c
 2130 021e 0B       		.uleb128 0xb
 2131 021f 00       		.byte	0
 2132 0220 00       		.byte	0
 2133 0221 2B       		.uleb128 0x2b
 2134 0222 898201   		.uleb128 0x4109
 2135 0225 00       		.byte	0
 2136 0226 11       		.uleb128 0x11
 2137 0227 01       		.uleb128 0x1
 2138 0228 31       		.uleb128 0x31
 2139 0229 13       		.uleb128 0x13
 2140 022a 00       		.byte	0
 2141 022b 00       		.byte	0
 2142 022c 2C       		.uleb128 0x2c
 2143 022d 34       		.uleb128 0x34
 2144 022e 00       		.byte	0
 2145 022f 03       		.uleb128 0x3
 2146 0230 0E       		.uleb128 0xe
 2147 0231 3A       		.uleb128 0x3a
 2148 0232 0B       		.uleb128 0xb
 2149 0233 3B       		.uleb128 0x3b
 2150 0234 05       		.uleb128 0x5
 2151 0235 49       		.uleb128 0x49
 2152 0236 13       		.uleb128 0x13
 2153 0237 3F       		.uleb128 0x3f
 2154 0238 19       		.uleb128 0x19
 2155 0239 3C       		.uleb128 0x3c
 2156 023a 19       		.uleb128 0x19
 2157 023b 00       		.byte	0
 2158 023c 00       		.byte	0
 2159 023d 2D       		.uleb128 0x2d
 2160 023e 34       		.uleb128 0x34
 2161 023f 00       		.byte	0
 2162 0240 03       		.uleb128 0x3
 2163 0241 08       		.uleb128 0x8
ARM GAS  C:\Users\jo\AppData\Local\Temp\ccPPMGwB.s 			page 39


 2164 0242 3A       		.uleb128 0x3a
 2165 0243 0B       		.uleb128 0xb
 2166 0244 3B       		.uleb128 0x3b
 2167 0245 05       		.uleb128 0x5
 2168 0246 49       		.uleb128 0x49
 2169 0247 13       		.uleb128 0x13
 2170 0248 3F       		.uleb128 0x3f
 2171 0249 19       		.uleb128 0x19
 2172 024a 3C       		.uleb128 0x3c
 2173 024b 19       		.uleb128 0x19
 2174 024c 00       		.byte	0
 2175 024d 00       		.byte	0
 2176 024e 2E       		.uleb128 0x2e
 2177 024f 2E       		.uleb128 0x2e
 2178 0250 00       		.byte	0
 2179 0251 3F       		.uleb128 0x3f
 2180 0252 19       		.uleb128 0x19
 2181 0253 03       		.uleb128 0x3
 2182 0254 0E       		.uleb128 0xe
 2183 0255 3A       		.uleb128 0x3a
 2184 0256 0B       		.uleb128 0xb
 2185 0257 3B       		.uleb128 0x3b
 2186 0258 05       		.uleb128 0x5
 2187 0259 27       		.uleb128 0x27
 2188 025a 19       		.uleb128 0x19
 2189 025b 49       		.uleb128 0x49
 2190 025c 13       		.uleb128 0x13
 2191 025d 3C       		.uleb128 0x3c
 2192 025e 19       		.uleb128 0x19
 2193 025f 00       		.byte	0
 2194 0260 00       		.byte	0
 2195 0261 00       		.byte	0
 2196              		.section	.debug_loc,"",%progbits
 2197              	.Ldebug_loc0:
 2198              	.LLST0:
 2199 0000 04000000 		.4byte	.LVL0
 2200 0004 06000000 		.4byte	.LVL1
 2201 0008 0300     		.2byte	0x3
 2202 000a 73       		.byte	0x73
 2203 000b 20       		.sleb128 32
 2204 000c 9F       		.byte	0x9f
 2205 000d 06000000 		.4byte	.LVL1
 2206 0011 0C000000 		.4byte	.LVL3
 2207 0015 0100     		.2byte	0x1
 2208 0017 53       		.byte	0x53
 2209 0018 00000000 		.4byte	0
 2210 001c 00000000 		.4byte	0
 2211              	.LLST1:
 2212 0020 04000000 		.4byte	.LVL0
 2213 0024 06000000 		.4byte	.LVL1
 2214 0028 0100     		.2byte	0x1
 2215 002a 53       		.byte	0x53
 2216 002b 06000000 		.4byte	.LVL1
 2217 002f 0C000000 		.4byte	.LVL3
 2218 0033 0300     		.2byte	0x3
 2219 0035 73       		.byte	0x73
 2220 0036 60       		.sleb128 -32
ARM GAS  C:\Users\jo\AppData\Local\Temp\ccPPMGwB.s 			page 40


 2221 0037 9F       		.byte	0x9f
 2222 0038 00000000 		.4byte	0
 2223 003c 00000000 		.4byte	0
 2224              	.LLST3:
 2225 0040 10000000 		.4byte	.LVL5
 2226 0044 16000000 		.4byte	.LVL6
 2227 0048 0200     		.2byte	0x2
 2228 004a 30       		.byte	0x30
 2229 004b 9F       		.byte	0x9f
 2230 004c 00000000 		.4byte	0
 2231 0050 00000000 		.4byte	0
 2232              	.LLST4:
 2233 0054 1C000000 		.4byte	.LVL7
 2234 0058 28000000 		.4byte	.LVL9
 2235 005c 0300     		.2byte	0x3
 2236 005e 74       		.byte	0x74
 2237 005f 60       		.sleb128 -32
 2238 0060 9F       		.byte	0x9f
 2239 0061 28000000 		.4byte	.LVL9
 2240 0065 2F000000 		.4byte	.LVL10-1
 2241 0069 0100     		.2byte	0x1
 2242 006b 53       		.byte	0x53
 2243 006c 2F000000 		.4byte	.LVL10-1
 2244 0070 42000000 		.4byte	.LVL12
 2245 0074 0300     		.2byte	0x3
 2246 0076 74       		.byte	0x74
 2247 0077 60       		.sleb128 -32
 2248 0078 9F       		.byte	0x9f
 2249 0079 00000000 		.4byte	0
 2250 007d 00000000 		.4byte	0
 2251              	.LLST5:
 2252 0081 1C000000 		.4byte	.LVL7
 2253 0085 42000000 		.4byte	.LVL12
 2254 0089 0100     		.2byte	0x1
 2255 008b 54       		.byte	0x54
 2256 008c 00000000 		.4byte	0
 2257 0090 00000000 		.4byte	0
 2258              	.LLST6:
 2259 0094 24000000 		.4byte	.LVL8
 2260 0098 28000000 		.4byte	.LVL9
 2261 009c 0300     		.2byte	0x3
 2262 009e 74       		.byte	0x74
 2263 009f 60       		.sleb128 -32
 2264 00a0 9F       		.byte	0x9f
 2265 00a1 28000000 		.4byte	.LVL9
 2266 00a5 2F000000 		.4byte	.LVL10-1
 2267 00a9 0100     		.2byte	0x1
 2268 00ab 53       		.byte	0x53
 2269 00ac 2F000000 		.4byte	.LVL10-1
 2270 00b0 42000000 		.4byte	.LVL12
 2271 00b4 0300     		.2byte	0x3
 2272 00b6 74       		.byte	0x74
 2273 00b7 60       		.sleb128 -32
 2274 00b8 9F       		.byte	0x9f
 2275 00b9 00000000 		.4byte	0
 2276 00bd 00000000 		.4byte	0
 2277              		.section	.debug_aranges,"",%progbits
ARM GAS  C:\Users\jo\AppData\Local\Temp\ccPPMGwB.s 			page 41


 2278 0000 24000000 		.4byte	0x24
 2279 0004 0200     		.2byte	0x2
 2280 0006 00000000 		.4byte	.Ldebug_info0
 2281 000a 04       		.byte	0x4
 2282 000b 00       		.byte	0
 2283 000c 0000     		.2byte	0
 2284 000e 0000     		.2byte	0
 2285 0010 00000000 		.4byte	.LFB226
 2286 0014 12000000 		.4byte	.LFE226-.LFB226
 2287 0018 00000000 		.4byte	.LFB227
 2288 001c 50000000 		.4byte	.LFE227-.LFB227
 2289 0020 00000000 		.4byte	0
 2290 0024 00000000 		.4byte	0
 2291              		.section	.debug_ranges,"",%progbits
 2292              	.Ldebug_ranges0:
 2293 0000 00000000 		.4byte	.LFB226
 2294 0004 12000000 		.4byte	.LFE226
 2295 0008 00000000 		.4byte	.LFB227
 2296 000c 50000000 		.4byte	.LFE227
 2297 0010 00000000 		.4byte	0
 2298 0014 00000000 		.4byte	0
 2299              		.section	.debug_line,"",%progbits
 2300              	.Ldebug_line0:
 2301 0000 59020000 		.section	.debug_str,"MS",%progbits,1
 2301      0200EB01 
 2301      00000201 
 2301      FB0E0D00 
 2301      01010101 
 2302              	.LASF53:
 2303 0000 72656164 		.ascii	"ready_list_t\000"
 2303      795F6C69 
 2303      73745F74 
 2303      00
 2304              	.LASF110:
 2305 000d 73655F74 		.ascii	"se_time\000"
 2305      696D6500 
 2306              	.LASF131:
 2307 0015 7264796D 		.ascii	"rdymsg\000"
 2307      736700
 2308              	.LASF16:
 2309 001c 75696E74 		.ascii	"uint64_t\000"
 2309      36345F74 
 2309      00
 2310              	.LASF83:
 2311 0025 6B65726E 		.ascii	"kernel_stats\000"
 2311      656C5F73 
 2311      74617473 
 2311      00
 2312              	.LASF5:
 2313 0032 5F5F7569 		.ascii	"__uint8_t\000"
 2313      6E74385F 
 2313      7400
 2314              	.LASF105:
 2315 003c 706F7274 		.ascii	"port_intctx\000"
 2315      5F696E74 
 2315      63747800 
 2316              	.LASF52:
ARM GAS  C:\Users\jo\AppData\Local\Temp\ccPPMGwB.s 			page 42


 2317 0048 63685F74 		.ascii	"ch_threads_queue\000"
 2317      68726561 
 2317      64735F71 
 2317      75657565 
 2317      00
 2318              	.LASF72:
 2319 0059 73797374 		.ascii	"system_debug_t\000"
 2319      656D5F64 
 2319      65627567 
 2319      5F7400
 2320              	.LASF140:
 2321 0068 706F7274 		.ascii	"port_lock\000"
 2321      5F6C6F63 
 2321      6B00
 2322              	.LASF122:
 2323 0072 776F7273 		.ascii	"worst\000"
 2323      7400
 2324              	.LASF125:
 2325 0078 74696D65 		.ascii	"time_measurement_t\000"
 2325      5F6D6561 
 2325      73757265 
 2325      6D656E74 
 2325      5F7400
 2326              	.LASF12:
 2327 008b 6C6F6E67 		.ascii	"long long unsigned int\000"
 2327      206C6F6E 
 2327      6720756E 
 2327      7369676E 
 2327      65642069 
 2328              	.LASF118:
 2329 00a2 63685F74 		.ascii	"ch_trace_buffer_t\000"
 2329      72616365 
 2329      5F627566 
 2329      6665725F 
 2329      7400
 2330              	.LASF113:
 2331 00b4 73655F73 		.ascii	"se_state\000"
 2331      74617465 
 2331      00
 2332              	.LASF132:
 2333 00bd 65786974 		.ascii	"exitcode\000"
 2333      636F6465 
 2333      00
 2334              	.LASF82:
 2335 00c6 6D61696E 		.ascii	"mainthread\000"
 2335      74687265 
 2335      616400
 2336              	.LASF69:
 2337 00d1 76697274 		.ascii	"virtual_timers_list_t\000"
 2337      75616C5F 
 2337      74696D65 
 2337      72735F6C 
 2337      6973745F 
 2338              	.LASF86:
 2339 00e7 43505549 		.ascii	"CPUID\000"
 2339      4400
 2340              	.LASF18:
ARM GAS  C:\Users\jo\AppData\Local\Temp\ccPPMGwB.s 			page 43


 2341 00ed 72747469 		.ascii	"rttime_t\000"
 2341      6D655F74 
 2341      00
 2342              	.LASF31:
 2343 00f6 705F7072 		.ascii	"p_prio\000"
 2343      696F00
 2344              	.LASF155:
 2345 00fd 433A5C55 		.ascii	"C:\\Users\\jo\\Documents\\GitHub\\ChibiOS\\demos\\S"
 2345      73657273 
 2345      5C6A6F5C 
 2345      446F6375 
 2345      6D656E74 
 2346 0129 544D3332 		.ascii	"TM32\\RT-STM32F407-DISCOVERY-uHttp\000"
 2346      5C52542D 
 2346      53544D33 
 2346      32463430 
 2346      372D4449 
 2347              	.LASF98:
 2348 014b 49534152 		.ascii	"ISAR\000"
 2348      00
 2349              	.LASF10:
 2350 0150 6C6F6E67 		.ascii	"long long int\000"
 2350      206C6F6E 
 2350      6720696E 
 2350      7400
 2351              	.LASF1:
 2352 015e 7369676E 		.ascii	"signed char\000"
 2352      65642063 
 2352      68617200 
 2353              	.LASF46:
 2354 016a 705F6D70 		.ascii	"p_mpool\000"
 2354      6F6F6C00 
 2355              	.LASF136:
 2356 0172 6D5F7175 		.ascii	"m_queue\000"
 2356      65756500 
 2357              	.LASF81:
 2358 017a 76746C69 		.ascii	"vtlist\000"
 2358      737400
 2359              	.LASF141:
 2360 0181 706F7274 		.ascii	"port_unlock\000"
 2360      5F756E6C 
 2360      6F636B00 
 2361              	.LASF123:
 2362 018d 6C617374 		.ascii	"last\000"
 2362      00
 2363              	.LASF79:
 2364 0192 63685F73 		.ascii	"ch_system\000"
 2364      79737465 
 2364      6D00
 2365              	.LASF7:
 2366 019c 6C6F6E67 		.ascii	"long int\000"
 2366      20696E74 
 2366      00
 2367              	.LASF20:
 2368 01a5 74737461 		.ascii	"tstate_t\000"
 2368      74655F74 
 2368      00
ARM GAS  C:\Users\jo\AppData\Local\Temp\ccPPMGwB.s 			page 44


 2369              	.LASF154:
 2370 01ae 2E2E2F2E 		.ascii	"../../../os/rt/ports/ARMCMx/chcore_v7m.c\000"
 2370      2E2F2E2E 
 2370      2F6F732F 
 2370      72742F70 
 2370      6F727473 
 2371              	.LASF111:
 2372 01d7 73655F74 		.ascii	"se_tp\000"
 2372      7000
 2373              	.LASF158:
 2374 01dd 63685363 		.ascii	"chSchIsPreemptionRequired\000"
 2374      68497350 
 2374      7265656D 
 2374      7074696F 
 2374      6E526571 
 2375              	.LASF33:
 2376 01f7 705F6E65 		.ascii	"p_newer\000"
 2376      77657200 
 2377              	.LASF95:
 2378 01ff 42464152 		.ascii	"BFAR\000"
 2378      00
 2379              	.LASF115:
 2380 0204 74625F73 		.ascii	"tb_size\000"
 2380      697A6500 
 2381              	.LASF96:
 2382 020c 41465352 		.ascii	"AFSR\000"
 2382      00
 2383              	.LASF58:
 2384 0211 725F6E65 		.ascii	"r_newer\000"
 2384      77657200 
 2385              	.LASF102:
 2386 0219 72656761 		.ascii	"regarm_t\000"
 2386      726D5F74 
 2386      00
 2387              	.LASF65:
 2388 0222 76745F70 		.ascii	"vt_prev\000"
 2388      72657600 
 2389              	.LASF101:
 2390 022a 5343425F 		.ascii	"SCB_Type\000"
 2390      54797065 
 2390      00
 2391              	.LASF73:
 2392 0233 63685F73 		.ascii	"ch_system_debug\000"
 2392      79737465 
 2392      6D5F6465 
 2392      62756700 
 2393              	.LASF139:
 2394 0243 6D757465 		.ascii	"mutex_t\000"
 2394      785F7400 
 2395              	.LASF144:
 2396 024b 76616C75 		.ascii	"value\000"
 2396      6500
 2397              	.LASF76:
 2398 0251 6C6F636B 		.ascii	"lock_cnt\000"
 2398      5F636E74 
 2398      00
 2399              	.LASF84:
ARM GAS  C:\Users\jo\AppData\Local\Temp\ccPPMGwB.s 			page 45


 2400 025a 69646C65 		.ascii	"idle_thread_wa\000"
 2400      5F746872 
 2400      6561645F 
 2400      776100
 2401              	.LASF25:
 2402 0269 636E745F 		.ascii	"cnt_t\000"
 2402      7400
 2403              	.LASF36:
 2404 026f 705F7374 		.ascii	"p_stklimit\000"
 2404      6B6C696D 
 2404      697400
 2405              	.LASF0:
 2406 027a 756E7369 		.ascii	"unsigned int\000"
 2406      676E6564 
 2406      20696E74 
 2406      00
 2407              	.LASF143:
 2408 0287 5F5F7365 		.ascii	"__set_PSP\000"
 2408      745F5053 
 2408      5000
 2409              	.LASF64:
 2410 0291 76745F6E 		.ascii	"vt_next\000"
 2410      65787400 
 2411              	.LASF41:
 2412 0299 705F6D73 		.ascii	"p_msgqueue\000"
 2412      67717565 
 2412      756500
 2413              	.LASF126:
 2414 02a4 6E5F6972 		.ascii	"n_irq\000"
 2414      7100
 2415              	.LASF88:
 2416 02aa 56544F52 		.ascii	"VTOR\000"
 2416      00
 2417              	.LASF130:
 2418 02af 6B65726E 		.ascii	"kernel_stats_t\000"
 2418      656C5F73 
 2418      74617473 
 2418      5F7400
 2419              	.LASF49:
 2420 02be 63685F74 		.ascii	"ch_thread\000"
 2420      68726561 
 2420      6400
 2421              	.LASF87:
 2422 02c8 49435352 		.ascii	"ICSR\000"
 2422      00
 2423              	.LASF23:
 2424 02cd 6D73675F 		.ascii	"msg_t\000"
 2424      7400
 2425              	.LASF89:
 2426 02d3 41495243 		.ascii	"AIRCR\000"
 2426      5200
 2427              	.LASF93:
 2428 02d9 44465352 		.ascii	"DFSR\000"
 2428      00
 2429              	.LASF26:
 2430 02de 75636E74 		.ascii	"ucnt_t\000"
 2430      5F7400
ARM GAS  C:\Users\jo\AppData\Local\Temp\ccPPMGwB.s 			page 46


 2431              	.LASF94:
 2432 02e5 4D4D4641 		.ascii	"MMFAR\000"
 2432      5200
 2433              	.LASF149:
 2434 02eb 5F706F72 		.ascii	"_port_irq_epilogue\000"
 2434      745F6972 
 2434      715F6570 
 2434      696C6F67 
 2434      756500
 2435              	.LASF117:
 2436 02fe 74625F62 		.ascii	"tb_buffer\000"
 2436      75666665 
 2436      7200
 2437              	.LASF129:
 2438 0308 6D5F6372 		.ascii	"m_crit_isr\000"
 2438      69745F69 
 2438      737200
 2439              	.LASF54:
 2440 0313 63685F72 		.ascii	"ch_ready_list\000"
 2440      65616479 
 2440      5F6C6973 
 2440      7400
 2441              	.LASF24:
 2442 0321 6576656E 		.ascii	"eventmask_t\000"
 2442      746D6173 
 2442      6B5F7400 
 2443              	.LASF145:
 2444 032d 746F704F 		.ascii	"topOfProcStack\000"
 2444      6650726F 
 2444      63537461 
 2444      636B00
 2445              	.LASF6:
 2446 033c 5F5F696E 		.ascii	"__int32_t\000"
 2446      7433325F 
 2446      7400
 2447              	.LASF153:
 2448 0346 474E5520 		.ascii	"GNU C 4.9.3 20141119 (release) [ARM/embedded-4_9-br"
 2448      4320342E 
 2448      392E3320 
 2448      32303134 
 2448      31313139 
 2449 0379 616E6368 		.ascii	"anch revision 218278] -mcpu=cortex-m4 -mno-thumb-in"
 2449      20726576 
 2449      6973696F 
 2449      6E203231 
 2449      38323738 
 2450 03ac 74657277 		.ascii	"terwork -mthumb -ggdb -O2 -fomit-frame-pointer -fal"
 2450      6F726B20 
 2450      2D6D7468 
 2450      756D6220 
 2450      2D676764 
 2451 03df 69676E2D 		.ascii	"ign-functions=16 -ffunction-sections -fdata-section"
 2451      66756E63 
 2451      74696F6E 
 2451      733D3136 
 2451      202D6666 
 2452 0412 73202D66 		.ascii	"s -fno-common\000"
ARM GAS  C:\Users\jo\AppData\Local\Temp\ccPPMGwB.s 			page 47


 2452      6E6F2D63 
 2452      6F6D6D6F 
 2452      6E00
 2453              	.LASF103:
 2454 0420 73746B61 		.ascii	"stkalign_t\000"
 2454      6C69676E 
 2454      5F7400
 2455              	.LASF48:
 2456 042b 74687265 		.ascii	"threads_list_t\000"
 2456      6164735F 
 2456      6C697374 
 2456      5F7400
 2457              	.LASF40:
 2458 043a 705F7761 		.ascii	"p_waiting\000"
 2458      6974696E 
 2458      6700
 2459              	.LASF85:
 2460 0444 73697A65 		.ascii	"sizetype\000"
 2460      74797065 
 2460      00
 2461              	.LASF70:
 2462 044d 63685F76 		.ascii	"ch_virtual_timers_list\000"
 2462      69727475 
 2462      616C5F74 
 2462      696D6572 
 2462      735F6C69 
 2463              	.LASF91:
 2464 0464 43465352 		.ascii	"CFSR\000"
 2464      00
 2465              	.LASF116:
 2466 0469 74625F70 		.ascii	"tb_ptr\000"
 2466      747200
 2467              	.LASF114:
 2468 0470 63685F73 		.ascii	"ch_swc_event_t\000"
 2468      77635F65 
 2468      76656E74 
 2468      5F7400
 2469              	.LASF71:
 2470 047f 76745F6C 		.ascii	"vt_lasttime\000"
 2470      61737474 
 2470      696D6500 
 2471              	.LASF34:
 2472 048b 705F6F6C 		.ascii	"p_older\000"
 2472      64657200 
 2473              	.LASF57:
 2474 0493 725F6374 		.ascii	"r_ctx\000"
 2474      7800
 2475              	.LASF106:
 2476 0499 706F7274 		.ascii	"port_extctx\000"
 2476      5F657874 
 2476      63747800 
 2477              	.LASF120:
 2478 04a5 746D5F63 		.ascii	"tm_calibration_t\000"
 2478      616C6962 
 2478      72617469 
 2478      6F6E5F74 
 2478      00
ARM GAS  C:\Users\jo\AppData\Local\Temp\ccPPMGwB.s 			page 48


 2479              	.LASF60:
 2480 04b6 725F6375 		.ascii	"r_current\000"
 2480      7272656E 
 2480      7400
 2481              	.LASF59:
 2482 04c0 725F6F6C 		.ascii	"r_older\000"
 2482      64657200 
 2483              	.LASF11:
 2484 04c8 5F5F7569 		.ascii	"__uint64_t\000"
 2484      6E743634 
 2484      5F7400
 2485              	.LASF124:
 2486 04d3 63756D75 		.ascii	"cumulative\000"
 2486      6C617469 
 2486      766500
 2487              	.LASF21:
 2488 04de 74726566 		.ascii	"trefs_t\000"
 2488      735F7400 
 2489              	.LASF99:
 2490 04e6 52455345 		.ascii	"RESERVED0\000"
 2490      52564544 
 2490      3000
 2491              	.LASF150:
 2492 04f0 63747870 		.ascii	"ctxp\000"
 2492      00
 2493              	.LASF62:
 2494 04f5 76697274 		.ascii	"virtual_timer_t\000"
 2494      75616C5F 
 2494      74696D65 
 2494      725F7400 
 2495              	.LASF30:
 2496 0505 705F7072 		.ascii	"p_prev\000"
 2496      657600
 2497              	.LASF22:
 2498 050c 74707269 		.ascii	"tprio_t\000"
 2498      6F5F7400 
 2499              	.LASF135:
 2500 0514 6D757465 		.ascii	"mutex\000"
 2500      7800
 2501              	.LASF127:
 2502 051a 6E5F6374 		.ascii	"n_ctxswc\000"
 2502      78737763 
 2502      00
 2503              	.LASF152:
 2504 0523 5F426F6F 		.ascii	"_Bool\000"
 2504      6C00
 2505              	.LASF14:
 2506 0529 696E7433 		.ascii	"int32_t\000"
 2506      325F7400 
 2507              	.LASF2:
 2508 0531 756E7369 		.ascii	"unsigned char\000"
 2508      676E6564 
 2508      20636861 
 2508      7200
 2509              	.LASF90:
 2510 053f 53484353 		.ascii	"SHCSR\000"
 2510      5200
ARM GAS  C:\Users\jo\AppData\Local\Temp\ccPPMGwB.s 			page 49


 2511              	.LASF151:
 2512 0545 49544D5F 		.ascii	"ITM_RxBuffer\000"
 2512      52784275 
 2512      66666572 
 2512      00
 2513              	.LASF44:
 2514 0552 705F6D74 		.ascii	"p_mtxlist\000"
 2514      786C6973 
 2514      7400
 2515              	.LASF3:
 2516 055c 73686F72 		.ascii	"short int\000"
 2516      7420696E 
 2516      7400
 2517              	.LASF37:
 2518 0566 705F7374 		.ascii	"p_state\000"
 2518      61746500 
 2519              	.LASF108:
 2520 056e 78707372 		.ascii	"xpsr\000"
 2520      00
 2521              	.LASF56:
 2522 0573 725F7072 		.ascii	"r_prio\000"
 2522      696F00
 2523              	.LASF134:
 2524 057a 65776D61 		.ascii	"ewmask\000"
 2524      736B00
 2525              	.LASF29:
 2526 0581 705F6E65 		.ascii	"p_next\000"
 2526      787400
 2527              	.LASF19:
 2528 0588 746D6F64 		.ascii	"tmode_t\000"
 2528      655F7400 
 2529              	.LASF38:
 2530 0590 705F666C 		.ascii	"p_flags\000"
 2530      61677300 
 2531              	.LASF47:
 2532 0598 705F7374 		.ascii	"p_stats\000"
 2532      61747300 
 2533              	.LASF4:
 2534 05a0 73686F72 		.ascii	"short unsigned int\000"
 2534      7420756E 
 2534      7369676E 
 2534      65642069 
 2534      6E7400
 2535              	.LASF107:
 2536 05b3 6C725F74 		.ascii	"lr_thd\000"
 2536      686400
 2537              	.LASF148:
 2538 05ba 5356435F 		.ascii	"SVC_Handler\000"
 2538      48616E64 
 2538      6C657200 
 2539              	.LASF63:
 2540 05c6 63685F76 		.ascii	"ch_virtual_timer\000"
 2540      69727475 
 2540      616C5F74 
 2540      696D6572 
 2540      00
 2541              	.LASF43:
ARM GAS  C:\Users\jo\AppData\Local\Temp\ccPPMGwB.s 			page 50


 2542 05d7 705F6570 		.ascii	"p_epending\000"
 2542      656E6469 
 2542      6E6700
 2543              	.LASF15:
 2544 05e2 75696E74 		.ascii	"uint32_t\000"
 2544      33325F74 
 2544      00
 2545              	.LASF55:
 2546 05eb 725F7175 		.ascii	"r_queue\000"
 2546      65756500 
 2547              	.LASF66:
 2548 05f3 76745F64 		.ascii	"vt_delta\000"
 2548      656C7461 
 2548      00
 2549              	.LASF50:
 2550 05fc 63685F74 		.ascii	"ch_threads_list\000"
 2550      68726561 
 2550      64735F6C 
 2550      69737400 
 2551              	.LASF9:
 2552 060c 6C6F6E67 		.ascii	"long unsigned int\000"
 2552      20756E73 
 2552      69676E65 
 2552      6420696E 
 2552      7400
 2553              	.LASF109:
 2554 061e 63686172 		.ascii	"char\000"
 2554      00
 2555              	.LASF146:
 2556 0623 706F7274 		.ascii	"port_unlock_from_isr\000"
 2556      5F756E6C 
 2556      6F636B5F 
 2556      66726F6D 
 2556      5F697372 
 2557              	.LASF28:
 2558 0638 74687265 		.ascii	"thread_t\000"
 2558      61645F74 
 2558      00
 2559              	.LASF121:
 2560 0641 62657374 		.ascii	"best\000"
 2560      00
 2561              	.LASF138:
 2562 0646 6D5F6E65 		.ascii	"m_next\000"
 2562      787400
 2563              	.LASF27:
 2564 064d 73797374 		.ascii	"systime_t\000"
 2564      696D655F 
 2564      7400
 2565              	.LASF45:
 2566 0657 705F7265 		.ascii	"p_realprio\000"
 2566      616C7072 
 2566      696F00
 2567              	.LASF61:
 2568 0662 76746675 		.ascii	"vtfunc_t\000"
 2568      6E635F74 
 2568      00
 2569              	.LASF8:
ARM GAS  C:\Users\jo\AppData\Local\Temp\ccPPMGwB.s 			page 51


 2570 066b 5F5F7569 		.ascii	"__uint32_t\000"
 2570      6E743332 
 2570      5F7400
 2571              	.LASF142:
 2572 0676 5F5F7365 		.ascii	"__set_BASEPRI\000"
 2572      745F4241 
 2572      53455052 
 2572      4900
 2573              	.LASF74:
 2574 0684 70616E69 		.ascii	"panic_msg\000"
 2574      635F6D73 
 2574      6700
 2575              	.LASF119:
 2576 068e 6F666673 		.ascii	"offset\000"
 2576      657400
 2577              	.LASF104:
 2578 0695 636F6E74 		.ascii	"context\000"
 2578      65787400 
 2579              	.LASF78:
 2580 069d 63685F73 		.ascii	"ch_system_t\000"
 2580      79737465 
 2580      6D5F7400 
 2581              	.LASF17:
 2582 06a9 7274636E 		.ascii	"rtcnt_t\000"
 2582      745F7400 
 2583              	.LASF147:
 2584 06b1 706F7274 		.ascii	"port_lock_from_isr\000"
 2584      5F6C6F63 
 2584      6B5F6672 
 2584      6F6D5F69 
 2584      737200
 2585              	.LASF156:
 2586 06c4 5F5F6765 		.ascii	"__get_PSP\000"
 2586      745F5053 
 2586      5000
 2587              	.LASF68:
 2588 06ce 76745F70 		.ascii	"vt_par\000"
 2588      617200
 2589              	.LASF51:
 2590 06d5 74687265 		.ascii	"threads_queue_t\000"
 2590      6164735F 
 2590      71756575 
 2590      655F7400 
 2591              	.LASF39:
 2592 06e5 705F7265 		.ascii	"p_refs\000"
 2592      667300
 2593              	.LASF75:
 2594 06ec 6973725F 		.ascii	"isr_cnt\000"
 2594      636E7400 
 2595              	.LASF97:
 2596 06f4 4D4D4652 		.ascii	"MMFR\000"
 2596      00
 2597              	.LASF80:
 2598 06f9 726C6973 		.ascii	"rlist\000"
 2598      7400
 2599              	.LASF13:
 2600 06ff 75696E74 		.ascii	"uint8_t\000"
ARM GAS  C:\Users\jo\AppData\Local\Temp\ccPPMGwB.s 			page 52


 2600      385F7400 
 2601              	.LASF133:
 2602 0707 77746F62 		.ascii	"wtobjp\000"
 2602      6A7000
 2603              	.LASF35:
 2604 070e 705F6E61 		.ascii	"p_name\000"
 2604      6D6500
 2605              	.LASF77:
 2606 0715 74726163 		.ascii	"trace_buffer\000"
 2606      655F6275 
 2606      66666572 
 2606      00
 2607              	.LASF42:
 2608 0722 705F6D73 		.ascii	"p_msg\000"
 2608      6700
 2609              	.LASF100:
 2610 0728 43504143 		.ascii	"CPACR\000"
 2610      5200
 2611              	.LASF92:
 2612 072e 48465352 		.ascii	"HFSR\000"
 2612      00
 2613              	.LASF128:
 2614 0733 6D5F6372 		.ascii	"m_crit_thd\000"
 2614      69745F74 
 2614      686400
 2615              	.LASF137:
 2616 073e 6D5F6F77 		.ascii	"m_owner\000"
 2616      6E657200 
 2617              	.LASF157:
 2618 0746 72657375 		.ascii	"result\000"
 2618      6C7400
 2619              	.LASF112:
 2620 074d 73655F77 		.ascii	"se_wtobjp\000"
 2620      746F626A 
 2620      7000
 2621              	.LASF32:
 2622 0757 705F6374 		.ascii	"p_ctx\000"
 2622      7800
 2623              	.LASF67:
 2624 075d 76745F66 		.ascii	"vt_func\000"
 2624      756E6300 
 2625              		.ident	"GCC: (GNU Tools for ARM Embedded Processors) 4.9.3 20141119 (release) [ARM/embedded-4_9-br
ARM GAS  C:\Users\jo\AppData\Local\Temp\ccPPMGwB.s 			page 53


DEFINED SYMBOLS
                            *ABS*:00000000 chcore_v7m.c
C:\Users\jo\AppData\Local\Temp\ccPPMGwB.s:19     .text.SVC_Handler:00000000 $t
C:\Users\jo\AppData\Local\Temp\ccPPMGwB.s:25     .text.SVC_Handler:00000000 SVC_Handler
C:\Users\jo\AppData\Local\Temp\ccPPMGwB.s:79     .text._port_irq_epilogue:00000000 $t
C:\Users\jo\AppData\Local\Temp\ccPPMGwB.s:85     .text._port_irq_epilogue:00000000 _port_irq_epilogue
C:\Users\jo\AppData\Local\Temp\ccPPMGwB.s:180    .text._port_irq_epilogue:00000044 $d
                     .debug_frame:00000010 $d

UNDEFINED SYMBOLS
chSchIsPreemptionRequired
_port_switch_from_isr
_port_exit_from_isr
