ARM GAS  C:\Users\jo\AppData\Local\Temp\ccy41mya.s 			page 1


   1              		.syntax unified
   2              		.cpu cortex-m4
   3              		.fpu softvfp
   4              		.eabi_attribute 20, 1
   5              		.eabi_attribute 21, 1
   6              		.eabi_attribute 23, 3
   7              		.eabi_attribute 24, 1
   8              		.eabi_attribute 25, 1
   9              		.eabi_attribute 26, 1
  10              		.eabi_attribute 30, 2
  11              		.eabi_attribute 34, 1
  12              		.eabi_attribute 18, 4
  13              		.thumb
  14              		.file	"chdebug.c"
  15              		.text
  16              	.Ltext0:
  17              		.cfi_sections	.debug_frame
  18              		.section	.text._dbg_check_disable,"ax",%progbits
  19              		.align	2
  20              		.p2align 4,,15
  21              		.global	_dbg_check_disable
  22              		.thumb
  23              		.thumb_func
  24              		.type	_dbg_check_disable, %function
  25              	_dbg_check_disable:
  26              	.LFB226:
  27              		.file 1 "../../../os/rt/src/chdebug.c"
  28              		.loc 1 114 0
  29              		.cfi_startproc
  30              		@ args = 0, pretend = 0, frame = 0
  31              		@ frame_needed = 0, uses_anonymous_args = 0
  32              		@ link register save eliminated.
  33              		.loc 1 116 0
  34 0000 044B     		ldr	r3, .L5
  35 0002 1A6B     		ldr	r2, [r3, #48]
  36 0004 0AB9     		cbnz	r2, .L2
  37              		.loc 1 116 0 is_stmt 0 discriminator 1
  38 0006 5B6B     		ldr	r3, [r3, #52]
  39 0008 13B1     		cbz	r3, .L1
  40              	.L2:
  41              		.loc 1 117 0 is_stmt 1
  42 000a 0348     		ldr	r0, .L5+4
  43 000c FFF7FEBF 		b	chSysHalt
  44              	.LVL0:
  45              	.L1:
  46 0010 7047     		bx	lr
  47              	.L6:
  48 0012 00BF     		.align	2
  49              	.L5:
  50 0014 00000000 		.word	ch
  51 0018 00000000 		.word	.LC0
  52              		.cfi_endproc
  53              	.LFE226:
  54              		.size	_dbg_check_disable, .-_dbg_check_disable
  55 001c AFF30080 		.section	.text._dbg_check_suspend,"ax",%progbits
  56              		.align	2
  57              		.p2align 4,,15
ARM GAS  C:\Users\jo\AppData\Local\Temp\ccy41mya.s 			page 2


  58              		.global	_dbg_check_suspend
  59              		.thumb
  60              		.thumb_func
  61              		.type	_dbg_check_suspend, %function
  62              	_dbg_check_suspend:
  63              	.LFB227:
  64              		.loc 1 126 0
  65              		.cfi_startproc
  66              		@ args = 0, pretend = 0, frame = 0
  67              		@ frame_needed = 0, uses_anonymous_args = 0
  68              		@ link register save eliminated.
  69              		.loc 1 128 0
  70 0000 044B     		ldr	r3, .L10
  71 0002 1A6B     		ldr	r2, [r3, #48]
  72 0004 0AB9     		cbnz	r2, .L8
  73              		.loc 1 128 0 is_stmt 0 discriminator 1
  74 0006 5B6B     		ldr	r3, [r3, #52]
  75 0008 13B1     		cbz	r3, .L7
  76              	.L8:
  77              		.loc 1 129 0 is_stmt 1
  78 000a 0348     		ldr	r0, .L10+4
  79 000c FFF7FEBF 		b	chSysHalt
  80              	.LVL1:
  81              	.L7:
  82 0010 7047     		bx	lr
  83              	.L11:
  84 0012 00BF     		.align	2
  85              	.L10:
  86 0014 00000000 		.word	ch
  87 0018 08000000 		.word	.LC1
  88              		.cfi_endproc
  89              	.LFE227:
  90              		.size	_dbg_check_suspend, .-_dbg_check_suspend
  91 001c AFF30080 		.section	.text._dbg_check_enable,"ax",%progbits
  92              		.align	2
  93              		.p2align 4,,15
  94              		.global	_dbg_check_enable
  95              		.thumb
  96              		.thumb_func
  97              		.type	_dbg_check_enable, %function
  98              	_dbg_check_enable:
  99              	.LFB228:
 100              		.loc 1 138 0
 101              		.cfi_startproc
 102              		@ args = 0, pretend = 0, frame = 0
 103              		@ frame_needed = 0, uses_anonymous_args = 0
 104              		@ link register save eliminated.
 105              		.loc 1 140 0
 106 0000 044B     		ldr	r3, .L15
 107 0002 1A6B     		ldr	r2, [r3, #48]
 108 0004 0AB9     		cbnz	r2, .L13
 109              		.loc 1 140 0 is_stmt 0 discriminator 1
 110 0006 5B6B     		ldr	r3, [r3, #52]
 111 0008 13B1     		cbz	r3, .L12
 112              	.L13:
 113              		.loc 1 141 0 is_stmt 1
 114 000a 0348     		ldr	r0, .L15+4
ARM GAS  C:\Users\jo\AppData\Local\Temp\ccy41mya.s 			page 3


 115 000c FFF7FEBF 		b	chSysHalt
 116              	.LVL2:
 117              	.L12:
 118 0010 7047     		bx	lr
 119              	.L16:
 120 0012 00BF     		.align	2
 121              	.L15:
 122 0014 00000000 		.word	ch
 123 0018 10000000 		.word	.LC2
 124              		.cfi_endproc
 125              	.LFE228:
 126              		.size	_dbg_check_enable, .-_dbg_check_enable
 127 001c AFF30080 		.section	.text._dbg_check_lock,"ax",%progbits
 128              		.align	2
 129              		.p2align 4,,15
 130              		.global	_dbg_check_lock
 131              		.thumb
 132              		.thumb_func
 133              		.type	_dbg_check_lock, %function
 134              	_dbg_check_lock:
 135              	.LFB229:
 136              		.loc 1 150 0
 137              		.cfi_startproc
 138              		@ args = 0, pretend = 0, frame = 0
 139              		@ frame_needed = 0, uses_anonymous_args = 0
 140 0000 10B5     		push	{r4, lr}
 141              		.cfi_def_cfa_offset 8
 142              		.cfi_offset 4, -8
 143              		.cfi_offset 14, -4
 144              		.loc 1 152 0
 145 0002 054C     		ldr	r4, .L24
 146 0004 236B     		ldr	r3, [r4, #48]
 147 0006 0BB9     		cbnz	r3, .L18
 148              		.loc 1 152 0 is_stmt 0 discriminator 1
 149 0008 636B     		ldr	r3, [r4, #52]
 150 000a 13B1     		cbz	r3, .L19
 151              	.L18:
 152              		.loc 1 153 0 is_stmt 1
 153 000c 0348     		ldr	r0, .L24+4
 154 000e FFF7FEFF 		bl	chSysHalt
 155              	.LVL3:
 156              	.L19:
 157              		.loc 1 155 0
 158 0012 0123     		movs	r3, #1
 159 0014 6363     		str	r3, [r4, #52]
 160 0016 10BD     		pop	{r4, pc}
 161              	.L25:
 162              		.align	2
 163              	.L24:
 164 0018 00000000 		.word	ch
 165 001c 18000000 		.word	.LC3
 166              		.cfi_endproc
 167              	.LFE229:
 168              		.size	_dbg_check_lock, .-_dbg_check_lock
 169              		.section	.text._dbg_check_unlock,"ax",%progbits
 170              		.align	2
 171              		.p2align 4,,15
ARM GAS  C:\Users\jo\AppData\Local\Temp\ccy41mya.s 			page 4


 172              		.global	_dbg_check_unlock
 173              		.thumb
 174              		.thumb_func
 175              		.type	_dbg_check_unlock, %function
 176              	_dbg_check_unlock:
 177              	.LFB230:
 178              		.loc 1 163 0
 179              		.cfi_startproc
 180              		@ args = 0, pretend = 0, frame = 0
 181              		@ frame_needed = 0, uses_anonymous_args = 0
 182 0000 10B5     		push	{r4, lr}
 183              		.cfi_def_cfa_offset 8
 184              		.cfi_offset 4, -8
 185              		.cfi_offset 14, -4
 186              		.loc 1 165 0
 187 0002 074C     		ldr	r4, .L30
 188 0004 236B     		ldr	r3, [r4, #48]
 189 0006 2BB9     		cbnz	r3, .L27
 190              		.loc 1 165 0 is_stmt 0 discriminator 1
 191 0008 636B     		ldr	r3, [r4, #52]
 192 000a 002B     		cmp	r3, #0
 193 000c 02DD     		ble	.L27
 194              		.loc 1 168 0 is_stmt 1
 195 000e 0023     		movs	r3, #0
 196 0010 6363     		str	r3, [r4, #52]
 197 0012 10BD     		pop	{r4, pc}
 198              	.L27:
 199              		.loc 1 166 0
 200 0014 0348     		ldr	r0, .L30+4
 201 0016 FFF7FEFF 		bl	chSysHalt
 202              	.LVL4:
 203              		.loc 1 168 0
 204 001a 0023     		movs	r3, #0
 205 001c 6363     		str	r3, [r4, #52]
 206 001e 10BD     		pop	{r4, pc}
 207              	.L31:
 208              		.align	2
 209              	.L30:
 210 0020 00000000 		.word	ch
 211 0024 20000000 		.word	.LC4
 212              		.cfi_endproc
 213              	.LFE230:
 214              		.size	_dbg_check_unlock, .-_dbg_check_unlock
 215 0028 AFF30080 		.section	.text._dbg_check_lock_from_isr,"ax",%progbits
 215      AFF30080 
 216              		.align	2
 217              		.p2align 4,,15
 218              		.global	_dbg_check_lock_from_isr
 219              		.thumb
 220              		.thumb_func
 221              		.type	_dbg_check_lock_from_isr, %function
 222              	_dbg_check_lock_from_isr:
 223              	.LFB231:
 224              		.loc 1 176 0
 225              		.cfi_startproc
 226              		@ args = 0, pretend = 0, frame = 0
 227              		@ frame_needed = 0, uses_anonymous_args = 0
ARM GAS  C:\Users\jo\AppData\Local\Temp\ccy41mya.s 			page 5


 228 0000 10B5     		push	{r4, lr}
 229              		.cfi_def_cfa_offset 8
 230              		.cfi_offset 4, -8
 231              		.cfi_offset 14, -4
 232              		.loc 1 178 0
 233 0002 064C     		ldr	r4, .L39
 234 0004 236B     		ldr	r3, [r4, #48]
 235 0006 002B     		cmp	r3, #0
 236 0008 01DD     		ble	.L33
 237              		.loc 1 178 0 is_stmt 0 discriminator 1
 238 000a 636B     		ldr	r3, [r4, #52]
 239 000c 13B1     		cbz	r3, .L34
 240              	.L33:
 241              		.loc 1 179 0 is_stmt 1
 242 000e 0448     		ldr	r0, .L39+4
 243 0010 FFF7FEFF 		bl	chSysHalt
 244              	.LVL5:
 245              	.L34:
 246              		.loc 1 181 0
 247 0014 0123     		movs	r3, #1
 248 0016 6363     		str	r3, [r4, #52]
 249 0018 10BD     		pop	{r4, pc}
 250              	.L40:
 251 001a 00BF     		.align	2
 252              	.L39:
 253 001c 00000000 		.word	ch
 254 0020 28000000 		.word	.LC5
 255              		.cfi_endproc
 256              	.LFE231:
 257              		.size	_dbg_check_lock_from_isr, .-_dbg_check_lock_from_isr
 258 0024 AFF30080 		.section	.text._dbg_check_unlock_from_isr,"ax",%progbits
 258      AFF30080 
 258      AFF30080 
 259              		.align	2
 260              		.p2align 4,,15
 261              		.global	_dbg_check_unlock_from_isr
 262              		.thumb
 263              		.thumb_func
 264              		.type	_dbg_check_unlock_from_isr, %function
 265              	_dbg_check_unlock_from_isr:
 266              	.LFB232:
 267              		.loc 1 189 0
 268              		.cfi_startproc
 269              		@ args = 0, pretend = 0, frame = 0
 270              		@ frame_needed = 0, uses_anonymous_args = 0
 271 0000 10B5     		push	{r4, lr}
 272              		.cfi_def_cfa_offset 8
 273              		.cfi_offset 4, -8
 274              		.cfi_offset 14, -4
 275              		.loc 1 191 0
 276 0002 084C     		ldr	r4, .L45
 277 0004 236B     		ldr	r3, [r4, #48]
 278 0006 002B     		cmp	r3, #0
 279 0008 05DD     		ble	.L42
 280              		.loc 1 191 0 is_stmt 0 discriminator 1
 281 000a 636B     		ldr	r3, [r4, #52]
 282 000c 002B     		cmp	r3, #0
ARM GAS  C:\Users\jo\AppData\Local\Temp\ccy41mya.s 			page 6


 283 000e 02DD     		ble	.L42
 284              		.loc 1 194 0 is_stmt 1
 285 0010 0023     		movs	r3, #0
 286 0012 6363     		str	r3, [r4, #52]
 287 0014 10BD     		pop	{r4, pc}
 288              	.L42:
 289              		.loc 1 192 0
 290 0016 0448     		ldr	r0, .L45+4
 291 0018 FFF7FEFF 		bl	chSysHalt
 292              	.LVL6:
 293              		.loc 1 194 0
 294 001c 0023     		movs	r3, #0
 295 001e 6363     		str	r3, [r4, #52]
 296 0020 10BD     		pop	{r4, pc}
 297              	.L46:
 298 0022 00BF     		.align	2
 299              	.L45:
 300 0024 00000000 		.word	ch
 301 0028 30000000 		.word	.LC6
 302              		.cfi_endproc
 303              	.LFE232:
 304              		.size	_dbg_check_unlock_from_isr, .-_dbg_check_unlock_from_isr
 305 002c AFF30080 		.section	.text._dbg_check_enter_isr,"ax",%progbits
 306              		.align	2
 307              		.p2align 4,,15
 308              		.global	_dbg_check_enter_isr
 309              		.thumb
 310              		.thumb_func
 311              		.type	_dbg_check_enter_isr, %function
 312              	_dbg_check_enter_isr:
 313              	.LFB233:
 314              		.loc 1 202 0
 315              		.cfi_startproc
 316              		@ args = 0, pretend = 0, frame = 0
 317              		@ frame_needed = 0, uses_anonymous_args = 0
 318              	.LVL7:
 319 0000 10B5     		push	{r4, lr}
 320              		.cfi_def_cfa_offset 8
 321              		.cfi_offset 4, -8
 322              		.cfi_offset 14, -4
 323              	.LBB45:
 324              	.LBB46:
 325              	.LBB47:
 326              	.LBB48:
 327              		.file 2 "../../../os/ext/CMSIS/include/core_cmFunc.h"
 328              		.loc 2 546 0
 329 0002 2023     		movs	r3, #32
 330              	@ 546 "../../../os/ext/CMSIS/include/core_cmFunc.h" 1
 331 0004 83F31188 		MSR basepri, r3
 332              	@ 0 "" 2
 333              		.thumb
 334              	.LBE48:
 335              	.LBE47:
 336              	.LBE46:
 337              	.LBE45:
 338              		.loc 1 205 0
 339 0008 074C     		ldr	r4, .L54
ARM GAS  C:\Users\jo\AppData\Local\Temp\ccy41mya.s 			page 7


 340 000a 236B     		ldr	r3, [r4, #48]
 341 000c 002B     		cmp	r3, #0
 342 000e 01DB     		blt	.L48
 343              		.loc 1 205 0 is_stmt 0 discriminator 1
 344 0010 626B     		ldr	r2, [r4, #52]
 345 0012 1AB1     		cbz	r2, .L49
 346              	.L48:
 347              		.loc 1 206 0 is_stmt 1
 348 0014 0548     		ldr	r0, .L54+4
 349 0016 FFF7FEFF 		bl	chSysHalt
 350              	.LVL8:
 351 001a 236B     		ldr	r3, [r4, #48]
 352              	.L49:
 353              		.loc 1 208 0
 354 001c 0133     		adds	r3, r3, #1
 355 001e 2363     		str	r3, [r4, #48]
 356              	.LVL9:
 357              	.LBB49:
 358              	.LBB50:
 359              	.LBB51:
 360              	.LBB52:
 361              		.loc 2 546 0
 362 0020 0023     		movs	r3, #0
 363              	@ 546 "../../../os/ext/CMSIS/include/core_cmFunc.h" 1
 364 0022 83F31188 		MSR basepri, r3
 365              	@ 0 "" 2
 366              		.thumb
 367 0026 10BD     		pop	{r4, pc}
 368              	.L55:
 369              		.align	2
 370              	.L54:
 371 0028 00000000 		.word	ch
 372 002c 38000000 		.word	.LC7
 373              	.LBE52:
 374              	.LBE51:
 375              	.LBE50:
 376              	.LBE49:
 377              		.cfi_endproc
 378              	.LFE233:
 379              		.size	_dbg_check_enter_isr, .-_dbg_check_enter_isr
 380              		.section	.text._dbg_check_leave_isr,"ax",%progbits
 381              		.align	2
 382              		.p2align 4,,15
 383              		.global	_dbg_check_leave_isr
 384              		.thumb
 385              		.thumb_func
 386              		.type	_dbg_check_leave_isr, %function
 387              	_dbg_check_leave_isr:
 388              	.LFB234:
 389              		.loc 1 217 0
 390              		.cfi_startproc
 391              		@ args = 0, pretend = 0, frame = 0
 392              		@ frame_needed = 0, uses_anonymous_args = 0
 393              	.LVL10:
 394 0000 10B5     		push	{r4, lr}
 395              		.cfi_def_cfa_offset 8
 396              		.cfi_offset 4, -8
ARM GAS  C:\Users\jo\AppData\Local\Temp\ccy41mya.s 			page 8


 397              		.cfi_offset 14, -4
 398              	.LBB53:
 399              	.LBB54:
 400              	.LBB55:
 401              	.LBB56:
 402              		.loc 2 546 0
 403 0002 2023     		movs	r3, #32
 404              	@ 546 "../../../os/ext/CMSIS/include/core_cmFunc.h" 1
 405 0004 83F31188 		MSR basepri, r3
 406              	@ 0 "" 2
 407              		.thumb
 408              	.LBE56:
 409              	.LBE55:
 410              	.LBE54:
 411              	.LBE53:
 412              		.loc 1 220 0
 413 0008 074C     		ldr	r4, .L63
 414 000a 236B     		ldr	r3, [r4, #48]
 415 000c 002B     		cmp	r3, #0
 416 000e 01DD     		ble	.L57
 417              		.loc 1 220 0 is_stmt 0 discriminator 1
 418 0010 626B     		ldr	r2, [r4, #52]
 419 0012 1AB1     		cbz	r2, .L58
 420              	.L57:
 421              		.loc 1 221 0 is_stmt 1
 422 0014 0548     		ldr	r0, .L63+4
 423 0016 FFF7FEFF 		bl	chSysHalt
 424              	.LVL11:
 425 001a 236B     		ldr	r3, [r4, #48]
 426              	.L58:
 427              		.loc 1 223 0
 428 001c 013B     		subs	r3, r3, #1
 429 001e 2363     		str	r3, [r4, #48]
 430              	.LVL12:
 431              	.LBB57:
 432              	.LBB58:
 433              	.LBB59:
 434              	.LBB60:
 435              		.loc 2 546 0
 436 0020 0023     		movs	r3, #0
 437              	@ 546 "../../../os/ext/CMSIS/include/core_cmFunc.h" 1
 438 0022 83F31188 		MSR basepri, r3
 439              	@ 0 "" 2
 440              		.thumb
 441 0026 10BD     		pop	{r4, pc}
 442              	.L64:
 443              		.align	2
 444              	.L63:
 445 0028 00000000 		.word	ch
 446 002c 40000000 		.word	.LC8
 447              	.LBE60:
 448              	.LBE59:
 449              	.LBE58:
 450              	.LBE57:
 451              		.cfi_endproc
 452              	.LFE234:
 453              		.size	_dbg_check_leave_isr, .-_dbg_check_leave_isr
ARM GAS  C:\Users\jo\AppData\Local\Temp\ccy41mya.s 			page 9


 454              		.section	.text.chDbgCheckClassI,"ax",%progbits
 455              		.align	2
 456              		.p2align 4,,15
 457              		.global	chDbgCheckClassI
 458              		.thumb
 459              		.thumb_func
 460              		.type	chDbgCheckClassI, %function
 461              	chDbgCheckClassI:
 462              	.LFB235:
 463              		.loc 1 235 0
 464              		.cfi_startproc
 465              		@ args = 0, pretend = 0, frame = 0
 466              		@ frame_needed = 0, uses_anonymous_args = 0
 467              		@ link register save eliminated.
 468              		.loc 1 237 0
 469 0000 054B     		ldr	r3, .L68
 470 0002 1A6B     		ldr	r2, [r3, #48]
 471 0004 002A     		cmp	r2, #0
 472 0006 03DB     		blt	.L66
 473              		.loc 1 237 0 is_stmt 0 discriminator 1
 474 0008 5B6B     		ldr	r3, [r3, #52]
 475 000a 002B     		cmp	r3, #0
 476 000c 00DD     		ble	.L66
 477 000e 7047     		bx	lr
 478              	.L66:
 479              		.loc 1 238 0 is_stmt 1
 480 0010 0248     		ldr	r0, .L68+4
 481 0012 FFF7FEBF 		b	chSysHalt
 482              	.LVL13:
 483              	.L69:
 484 0016 00BF     		.align	2
 485              	.L68:
 486 0018 00000000 		.word	ch
 487 001c 48000000 		.word	.LC9
 488              		.cfi_endproc
 489              	.LFE235:
 490              		.size	chDbgCheckClassI, .-chDbgCheckClassI
 491              		.section	.text.chDbgCheckClassS,"ax",%progbits
 492              		.align	2
 493              		.p2align 4,,15
 494              		.global	chDbgCheckClassS
 495              		.thumb
 496              		.thumb_func
 497              		.type	chDbgCheckClassS, %function
 498              	chDbgCheckClassS:
 499              	.LFB236:
 500              		.loc 1 250 0
 501              		.cfi_startproc
 502              		@ args = 0, pretend = 0, frame = 0
 503              		@ frame_needed = 0, uses_anonymous_args = 0
 504              		@ link register save eliminated.
 505              		.loc 1 252 0
 506 0000 044B     		ldr	r3, .L73
 507 0002 1A6B     		ldr	r2, [r3, #48]
 508 0004 1AB9     		cbnz	r2, .L71
 509              		.loc 1 252 0 is_stmt 0 discriminator 1
 510 0006 5B6B     		ldr	r3, [r3, #52]
ARM GAS  C:\Users\jo\AppData\Local\Temp\ccy41mya.s 			page 10


 511 0008 002B     		cmp	r3, #0
 512 000a 00DD     		ble	.L71
 513 000c 7047     		bx	lr
 514              	.L71:
 515              		.loc 1 253 0 is_stmt 1
 516 000e 0248     		ldr	r0, .L73+4
 517 0010 FFF7FEBF 		b	chSysHalt
 518              	.LVL14:
 519              	.L74:
 520              		.align	2
 521              	.L73:
 522 0014 00000000 		.word	ch
 523 0018 50000000 		.word	.LC10
 524              		.cfi_endproc
 525              	.LFE236:
 526              		.size	chDbgCheckClassS, .-chDbgCheckClassS
 527 001c AFF30080 		.section	.text._dbg_trace_init,"ax",%progbits
 528              		.align	2
 529              		.p2align 4,,15
 530              		.global	_dbg_trace_init
 531              		.thumb
 532              		.thumb_func
 533              		.type	_dbg_trace_init, %function
 534              	_dbg_trace_init:
 535              	.LFB237:
 536              		.loc 1 264 0
 537              		.cfi_startproc
 538              		@ args = 0, pretend = 0, frame = 0
 539              		@ frame_needed = 0, uses_anonymous_args = 0
 540              		@ link register save eliminated.
 541              		.loc 1 266 0
 542 0000 024B     		ldr	r3, .L76
 543 0002 4021     		movs	r1, #64
 544              		.loc 1 267 0
 545 0004 5A18     		adds	r2, r3, r1
 546              		.loc 1 266 0
 547 0006 9963     		str	r1, [r3, #56]
 548              		.loc 1 267 0
 549 0008 DA63     		str	r2, [r3, #60]
 550 000a 7047     		bx	lr
 551              	.L77:
 552              		.align	2
 553              	.L76:
 554 000c 00000000 		.word	ch
 555              		.cfi_endproc
 556              	.LFE237:
 557              		.size	_dbg_trace_init, .-_dbg_trace_init
 558              		.section	.text._dbg_trace,"ax",%progbits
 559              		.align	2
 560              		.p2align 4,,15
 561              		.global	_dbg_trace
 562              		.thumb
 563              		.thumb_func
 564              		.type	_dbg_trace, %function
 565              	_dbg_trace:
 566              	.LFB238:
 567              		.loc 1 277 0
ARM GAS  C:\Users\jo\AppData\Local\Temp\ccy41mya.s 			page 11


 568              		.cfi_startproc
 569              		@ args = 0, pretend = 0, frame = 0
 570              		@ frame_needed = 0, uses_anonymous_args = 0
 571              		@ link register save eliminated.
 572              	.LVL15:
 573              		.loc 1 279 0
 574 0000 0C4A     		ldr	r2, .L83
 575              	.LBB61:
 576              	.LBB62:
 577              	.LBB63:
 578              	.LBB64:
 579              		.file 3 "../../../os/hal/ports/STM32/LLD/TIMv1/st_lld.h"
 580              		.loc 3 128 0
 581 0002 4FF08041 		mov	r1, #1073741824
 582              	.LBE64:
 583              	.LBE63:
 584              	.LBE62:
 585              	.LBE61:
 586              		.loc 1 279 0
 587 0006 D36B     		ldr	r3, [r2, #60]
 588              		.loc 1 277 0
 589 0008 10B4     		push	{r4}
 590              		.cfi_def_cfa_offset 4
 591              		.cfi_offset 4, -4
 592              	.LBB68:
 593              	.LBB67:
 594              	.LBB66:
 595              	.LBB65:
 596              		.loc 3 128 0
 597 000a 4C6A     		ldr	r4, [r1, #36]
 598              	.LBE65:
 599              	.LBE66:
 600              	.LBE67:
 601              	.LBE68:
 602              		.loc 1 280 0
 603 000c 9169     		ldr	r1, [r2, #24]
 604 000e 5960     		str	r1, [r3, #4]
 605              		.loc 1 279 0
 606 0010 1C60     		str	r4, [r3]
 607              		.loc 1 281 0
 608 0012 416A     		ldr	r1, [r0, #36]
 609 0014 9960     		str	r1, [r3, #8]
 610              		.loc 1 282 0
 611 0016 90F82010 		ldrb	r1, [r0, #32]	@ zero_extendqisi2
 612 001a 1973     		strb	r1, [r3, #12]
 613              		.loc 1 283 0
 614 001c 1033     		adds	r3, r3, #16
 615 001e 02F58861 		add	r1, r2, #1088
 616 0022 8B42     		cmp	r3, r1
 617              		.loc 1 285 0
 618 0024 28BF     		it	cs
 619 0026 02F14003 		addcs	r3, r2, #64
 620 002a D363     		str	r3, [r2, #60]
 621              		.loc 1 287 0
 622 002c 5DF8044B 		ldr	r4, [sp], #4
 623              		.cfi_restore 4
 624              		.cfi_def_cfa_offset 0
ARM GAS  C:\Users\jo\AppData\Local\Temp\ccy41mya.s 			page 12


 625 0030 7047     		bx	lr
 626              	.L84:
 627 0032 00BF     		.align	2
 628              	.L83:
 629 0034 00000000 		.word	ch
 630              		.cfi_endproc
 631              	.LFE238:
 632              		.size	_dbg_trace, .-_dbg_trace
 633 0038 AFF30080 		.section	.rodata.str1.4,"aMS",%progbits,1
 633      AFF30080 
 634              		.align	2
 635              	.LC0:
 636 0000 53562331 		.ascii	"SV#1\000"
 636      00
 637 0005 000000   		.space	3
 638              	.LC1:
 639 0008 53562332 		.ascii	"SV#2\000"
 639      00
 640 000d 000000   		.space	3
 641              	.LC2:
 642 0010 53562333 		.ascii	"SV#3\000"
 642      00
 643 0015 000000   		.space	3
 644              	.LC3:
 645 0018 53562334 		.ascii	"SV#4\000"
 645      00
 646 001d 000000   		.space	3
 647              	.LC4:
 648 0020 53562335 		.ascii	"SV#5\000"
 648      00
 649 0025 000000   		.space	3
 650              	.LC5:
 651 0028 53562336 		.ascii	"SV#6\000"
 651      00
 652 002d 000000   		.space	3
 653              	.LC6:
 654 0030 53562337 		.ascii	"SV#7\000"
 654      00
 655 0035 000000   		.space	3
 656              	.LC7:
 657 0038 53562338 		.ascii	"SV#8\000"
 657      00
 658 003d 000000   		.space	3
 659              	.LC8:
 660 0040 53562339 		.ascii	"SV#9\000"
 660      00
 661 0045 000000   		.space	3
 662              	.LC9:
 663 0048 53562331 		.ascii	"SV#10\000"
 663      3000
 664 004e 0000     		.space	2
 665              	.LC10:
 666 0050 53562331 		.ascii	"SV#11\000"
 666      3100
 667 0056 0000     		.text
 668              	.Letext0:
 669              		.file 4 "c:\\program files\\gnu tools arm embedded\\4.9 2014q4\\arm-none-eabi\\include\\machine\\_
ARM GAS  C:\Users\jo\AppData\Local\Temp\ccy41mya.s 			page 13


 670              		.file 5 "c:\\program files\\gnu tools arm embedded\\4.9 2014q4\\arm-none-eabi\\include\\stdint.h"
 671              		.file 6 "../../../os/rt/ports/ARMCMx/compilers/GCC/chtypes.h"
 672              		.file 7 "../../../os/rt/include/chsystypes.h"
 673              		.file 8 "../../../os/rt/include/chschd.h"
 674              		.file 9 "../../../os/rt/ports/ARMCMx/chcore.h"
 675              		.file 10 "../../../os/rt/ports/ARMCMx/chcore_v7m.h"
 676              		.file 11 "../../../os/hal/ports/STM32/LLD/TIMv1/stm32_tim.h"
 677              		.file 12 "../../../os/rt/include/chdebug.h"
 678              		.file 13 "../../../os/rt/include/chtm.h"
 679              		.file 14 "../../../os/rt/include/chstats.h"
 680              		.file 15 "../../../os/rt/include/chmtx.h"
 681              		.file 16 "../../../os/rt/ports/ARMCMx/chcore_timer.h"
 682              		.file 17 "../../../os/rt/include/chvt.h"
 683              		.file 18 "../../../os/ext/CMSIS/include/core_cm4.h"
 684              		.file 19 "../../../os/rt/include/chsys.h"
 685              		.section	.debug_info,"",%progbits
 686              	.Ldebug_info0:
 687 0000 310C0000 		.4byte	0xc31
 688 0004 0400     		.2byte	0x4
 689 0006 00000000 		.4byte	.Ldebug_abbrev0
 690 000a 04       		.byte	0x4
 691 000b 01       		.uleb128 0x1
 692 000c 6B030000 		.4byte	.LASF151
 693 0010 01       		.byte	0x1
 694 0011 29030000 		.4byte	.LASF152
 695 0015 17010000 		.4byte	.LASF153
 696 0019 18000000 		.4byte	.Ldebug_ranges0+0x18
 697 001d 00000000 		.4byte	0
 698 0021 00000000 		.4byte	.Ldebug_line0
 699 0025 02       		.uleb128 0x2
 700 0026 04       		.byte	0x4
 701 0027 05       		.byte	0x5
 702 0028 696E7400 		.ascii	"int\000"
 703 002c 03       		.uleb128 0x3
 704 002d 04       		.byte	0x4
 705 002e 07       		.byte	0x7
 706 002f 95020000 		.4byte	.LASF0
 707 0033 03       		.uleb128 0x3
 708 0034 01       		.byte	0x1
 709 0035 06       		.byte	0x6
 710 0036 77010000 		.4byte	.LASF1
 711 003a 04       		.uleb128 0x4
 712 003b 36000000 		.4byte	.LASF5
 713 003f 04       		.byte	0x4
 714 0040 1D       		.byte	0x1d
 715 0041 45000000 		.4byte	0x45
 716 0045 03       		.uleb128 0x3
 717 0046 01       		.byte	0x1
 718 0047 08       		.byte	0x8
 719 0048 80050000 		.4byte	.LASF2
 720 004c 03       		.uleb128 0x3
 721 004d 02       		.byte	0x2
 722 004e 05       		.byte	0x5
 723 004f A8050000 		.4byte	.LASF3
 724 0053 03       		.uleb128 0x3
 725 0054 02       		.byte	0x2
 726 0055 07       		.byte	0x7
ARM GAS  C:\Users\jo\AppData\Local\Temp\ccy41mya.s 			page 14


 727 0056 F5010000 		.4byte	.LASF4
 728 005a 04       		.uleb128 0x4
 729 005b D5000000 		.4byte	.LASF6
 730 005f 04       		.byte	0x4
 731 0060 3F       		.byte	0x3f
 732 0061 65000000 		.4byte	0x65
 733 0065 03       		.uleb128 0x3
 734 0066 04       		.byte	0x4
 735 0067 05       		.byte	0x5
 736 0068 C2010000 		.4byte	.LASF7
 737 006c 04       		.uleb128 0x4
 738 006d BA060000 		.4byte	.LASF8
 739 0071 04       		.byte	0x4
 740 0072 41       		.byte	0x41
 741 0073 77000000 		.4byte	0x77
 742 0077 03       		.uleb128 0x3
 743 0078 04       		.byte	0x4
 744 0079 07       		.byte	0x7
 745 007a 56060000 		.4byte	.LASF9
 746 007e 03       		.uleb128 0x3
 747 007f 08       		.byte	0x8
 748 0080 05       		.byte	0x5
 749 0081 DF010000 		.4byte	.LASF10
 750 0085 04       		.uleb128 0x4
 751 0086 0F050000 		.4byte	.LASF11
 752 008a 04       		.byte	0x4
 753 008b 5B       		.byte	0x5b
 754 008c 90000000 		.4byte	0x90
 755 0090 03       		.uleb128 0x3
 756 0091 08       		.byte	0x8
 757 0092 07       		.byte	0x7
 758 0093 8F000000 		.4byte	.LASF12
 759 0097 04       		.uleb128 0x4
 760 0098 6D070000 		.4byte	.LASF13
 761 009c 05       		.byte	0x5
 762 009d 15       		.byte	0x15
 763 009e 3A000000 		.4byte	0x3a
 764 00a2 04       		.uleb128 0x4
 765 00a3 78050000 		.4byte	.LASF14
 766 00a7 05       		.byte	0x5
 767 00a8 2C       		.byte	0x2c
 768 00a9 5A000000 		.4byte	0x5a
 769 00ad 04       		.uleb128 0x4
 770 00ae 2C060000 		.4byte	.LASF15
 771 00b2 05       		.byte	0x5
 772 00b3 2D       		.byte	0x2d
 773 00b4 6C000000 		.4byte	0x6c
 774 00b8 04       		.uleb128 0x4
 775 00b9 20000000 		.4byte	.LASF16
 776 00bd 05       		.byte	0x5
 777 00be 39       		.byte	0x39
 778 00bf 85000000 		.4byte	0x85
 779 00c3 05       		.uleb128 0x5
 780 00c4 A2000000 		.4byte	0xa2
 781 00c8 05       		.uleb128 0x5
 782 00c9 AD000000 		.4byte	0xad
 783 00cd 04       		.uleb128 0x4
ARM GAS  C:\Users\jo\AppData\Local\Temp\ccy41mya.s 			page 15


 784 00ce 0B070000 		.4byte	.LASF17
 785 00d2 06       		.byte	0x6
 786 00d3 45       		.byte	0x45
 787 00d4 AD000000 		.4byte	0xad
 788 00d8 04       		.uleb128 0x4
 789 00d9 07010000 		.4byte	.LASF18
 790 00dd 06       		.byte	0x6
 791 00de 46       		.byte	0x46
 792 00df B8000000 		.4byte	0xb8
 793 00e3 04       		.uleb128 0x4
 794 00e4 A4070000 		.4byte	.LASF19
 795 00e8 06       		.byte	0x6
 796 00e9 48       		.byte	0x48
 797 00ea 97000000 		.4byte	0x97
 798 00ee 04       		.uleb128 0x4
 799 00ef CB010000 		.4byte	.LASF20
 800 00f3 06       		.byte	0x6
 801 00f4 49       		.byte	0x49
 802 00f5 97000000 		.4byte	0x97
 803 00f9 04       		.uleb128 0x4
 804 00fa 25050000 		.4byte	.LASF21
 805 00fe 06       		.byte	0x6
 806 00ff 4A       		.byte	0x4a
 807 0100 97000000 		.4byte	0x97
 808 0104 04       		.uleb128 0x4
 809 0105 61050000 		.4byte	.LASF22
 810 0109 06       		.byte	0x6
 811 010a 4C       		.byte	0x4c
 812 010b AD000000 		.4byte	0xad
 813 010f 04       		.uleb128 0x4
 814 0110 EE020000 		.4byte	.LASF23
 815 0114 06       		.byte	0x6
 816 0115 4D       		.byte	0x4d
 817 0116 A2000000 		.4byte	0xa2
 818 011a 04       		.uleb128 0x4
 819 011b 5F030000 		.4byte	.LASF24
 820 011f 06       		.byte	0x6
 821 0120 4F       		.byte	0x4f
 822 0121 AD000000 		.4byte	0xad
 823 0125 04       		.uleb128 0x4
 824 0126 71020000 		.4byte	.LASF25
 825 012a 06       		.byte	0x6
 826 012b 51       		.byte	0x51
 827 012c A2000000 		.4byte	0xa2
 828 0130 04       		.uleb128 0x4
 829 0131 F9020000 		.4byte	.LASF26
 830 0135 06       		.byte	0x6
 831 0136 52       		.byte	0x52
 832 0137 AD000000 		.4byte	0xad
 833 013b 04       		.uleb128 0x4
 834 013c 9C060000 		.4byte	.LASF27
 835 0140 07       		.byte	0x7
 836 0141 33       		.byte	0x33
 837 0142 AD000000 		.4byte	0xad
 838 0146 04       		.uleb128 0x4
 839 0147 87060000 		.4byte	.LASF28
 840 014b 07       		.byte	0x7
ARM GAS  C:\Users\jo\AppData\Local\Temp\ccy41mya.s 			page 16


 841 014c 3F       		.byte	0x3f
 842 014d 51010000 		.4byte	0x151
 843 0151 06       		.uleb128 0x6
 844 0152 E4020000 		.4byte	.LASF49
 845 0156 60       		.byte	0x60
 846 0157 08       		.byte	0x8
 847 0158 BE       		.byte	0xbe
 848 0159 57020000 		.4byte	0x257
 849 015d 07       		.uleb128 0x7
 850 015e D0050000 		.4byte	.LASF29
 851 0162 08       		.byte	0x8
 852 0163 BF       		.byte	0xbf
 853 0164 E1060000 		.4byte	0x6e1
 854 0168 00       		.byte	0
 855 0169 07       		.uleb128 0x7
 856 016a 5A050000 		.4byte	.LASF30
 857 016e 08       		.byte	0x8
 858 016f C1       		.byte	0xc1
 859 0170 E1060000 		.4byte	0x6e1
 860 0174 04       		.byte	0x4
 861 0175 07       		.uleb128 0x7
 862 0176 10010000 		.4byte	.LASF31
 863 017a 08       		.byte	0x8
 864 017b C3       		.byte	0xc3
 865 017c 04010000 		.4byte	0x104
 866 0180 08       		.byte	0x8
 867 0181 07       		.uleb128 0x7
 868 0182 DC070000 		.4byte	.LASF32
 869 0186 08       		.byte	0x8
 870 0187 C4       		.byte	0xc4
 871 0188 DA040000 		.4byte	0x4da
 872 018c 0C       		.byte	0xc
 873 018d 07       		.uleb128 0x7
 874 018e ED010000 		.4byte	.LASF33
 875 0192 08       		.byte	0x8
 876 0193 C6       		.byte	0xc6
 877 0194 E1060000 		.4byte	0x6e1
 878 0198 10       		.byte	0x10
 879 0199 07       		.uleb128 0x7
 880 019a BA050000 		.4byte	.LASF34
 881 019e 08       		.byte	0x8
 882 019f C7       		.byte	0xc7
 883 01a0 E1060000 		.4byte	0x6e1
 884 01a4 14       		.byte	0x14
 885 01a5 07       		.uleb128 0x7
 886 01a6 8E070000 		.4byte	.LASF35
 887 01aa 08       		.byte	0x8
 888 01ab CE       		.byte	0xce
 889 01ac 9D060000 		.4byte	0x69d
 890 01b0 18       		.byte	0x18
 891 01b1 07       		.uleb128 0x7
 892 01b2 8A020000 		.4byte	.LASF36
 893 01b6 08       		.byte	0x8
 894 01b7 D4       		.byte	0xd4
 895 01b8 2B080000 		.4byte	0x82b
 896 01bc 1C       		.byte	0x1c
 897 01bd 07       		.uleb128 0x7
ARM GAS  C:\Users\jo\AppData\Local\Temp\ccy41mya.s 			page 17


 898 01be B2050000 		.4byte	.LASF37
 899 01c2 08       		.byte	0x8
 900 01c3 D9       		.byte	0xd9
 901 01c4 EE000000 		.4byte	0xee
 902 01c8 20       		.byte	0x20
 903 01c9 07       		.uleb128 0x7
 904 01ca D7050000 		.4byte	.LASF38
 905 01ce 08       		.byte	0x8
 906 01cf DD       		.byte	0xdd
 907 01d0 E3000000 		.4byte	0xe3
 908 01d4 21       		.byte	0x21
 909 01d5 07       		.uleb128 0x7
 910 01d6 58070000 		.4byte	.LASF39
 911 01da 08       		.byte	0x8
 912 01db E2       		.byte	0xe2
 913 01dc F9000000 		.4byte	0xf9
 914 01e0 22       		.byte	0x22
 915 01e1 08       		.uleb128 0x8
 916 01e2 705F7500 		.ascii	"p_u\000"
 917 01e6 08       		.byte	0x8
 918 01e7 1401     		.2byte	0x114
 919 01e9 F3070000 		.4byte	0x7f3
 920 01ed 24       		.byte	0x24
 921 01ee 09       		.uleb128 0x9
 922 01ef 63040000 		.4byte	.LASF40
 923 01f3 08       		.byte	0x8
 924 01f4 1901     		.2byte	0x119
 925 01f6 57020000 		.4byte	0x257
 926 01fa 28       		.byte	0x28
 927 01fb 09       		.uleb128 0x9
 928 01fc BF020000 		.4byte	.LASF41
 929 0200 08       		.byte	0x8
 930 0201 1F01     		.2byte	0x11f
 931 0203 7B020000 		.4byte	0x27b
 932 0207 2C       		.byte	0x2c
 933 0208 09       		.uleb128 0x9
 934 0209 B9070000 		.4byte	.LASF42
 935 020d 08       		.byte	0x8
 936 020e 2301     		.2byte	0x123
 937 0210 0F010000 		.4byte	0x10f
 938 0214 34       		.byte	0x34
 939 0215 09       		.uleb128 0x9
 940 0216 FD050000 		.4byte	.LASF43
 941 021a 08       		.byte	0x8
 942 021b 2901     		.2byte	0x129
 943 021d 1A010000 		.4byte	0x11a
 944 0221 38       		.byte	0x38
 945 0222 09       		.uleb128 0x9
 946 0223 9E050000 		.4byte	.LASF44
 947 0227 08       		.byte	0x8
 948 0228 3001     		.2byte	0x130
 949 022a 62080000 		.4byte	0x862
 950 022e 3C       		.byte	0x3c
 951 022f 09       		.uleb128 0x9
 952 0230 A6060000 		.4byte	.LASF45
 953 0234 08       		.byte	0x8
 954 0235 3401     		.2byte	0x134
ARM GAS  C:\Users\jo\AppData\Local\Temp\ccy41mya.s 			page 18


 955 0237 04010000 		.4byte	0x104
 956 023b 40       		.byte	0x40
 957 023c 09       		.uleb128 0x9
 958 023d 18020000 		.4byte	.LASF46
 959 0241 08       		.byte	0x8
 960 0242 3A01     		.2byte	0x13a
 961 0244 2E030000 		.4byte	0x32e
 962 0248 44       		.byte	0x44
 963 0249 09       		.uleb128 0x9
 964 024a DF050000 		.4byte	.LASF47
 965 024e 08       		.byte	0x8
 966 024f 4001     		.2byte	0x140
 967 0251 A4070000 		.4byte	0x7a4
 968 0255 48       		.byte	0x48
 969 0256 00       		.byte	0
 970 0257 04       		.uleb128 0x4
 971 0258 95070000 		.4byte	.LASF48
 972 025c 07       		.byte	0x7
 973 025d 44       		.byte	0x44
 974 025e 62020000 		.4byte	0x262
 975 0262 06       		.uleb128 0x6
 976 0263 46060000 		.4byte	.LASF50
 977 0267 04       		.byte	0x4
 978 0268 08       		.byte	0x8
 979 0269 AC       		.byte	0xac
 980 026a 7B020000 		.4byte	0x27b
 981 026e 07       		.uleb128 0x7
 982 026f D0050000 		.4byte	.LASF29
 983 0273 08       		.byte	0x8
 984 0274 AD       		.byte	0xad
 985 0275 E1060000 		.4byte	0x6e1
 986 0279 00       		.byte	0
 987 027a 00       		.byte	0
 988 027b 04       		.uleb128 0x4
 989 027c 48070000 		.4byte	.LASF51
 990 0280 07       		.byte	0x7
 991 0281 4B       		.byte	0x4b
 992 0282 86020000 		.4byte	0x286
 993 0286 06       		.uleb128 0x6
 994 0287 4C000000 		.4byte	.LASF52
 995 028b 08       		.byte	0x8
 996 028c 08       		.byte	0x8
 997 028d B3       		.byte	0xb3
 998 028e AB020000 		.4byte	0x2ab
 999 0292 07       		.uleb128 0x7
 1000 0293 D0050000 		.4byte	.LASF29
 1001 0297 08       		.byte	0x8
 1002 0298 B4       		.byte	0xb4
 1003 0299 E1060000 		.4byte	0x6e1
 1004 029d 00       		.byte	0
 1005 029e 07       		.uleb128 0x7
 1006 029f 5A050000 		.4byte	.LASF30
 1007 02a3 08       		.byte	0x8
 1008 02a4 B5       		.byte	0xb5
 1009 02a5 E1060000 		.4byte	0x6e1
 1010 02a9 04       		.byte	0x4
 1011 02aa 00       		.byte	0
ARM GAS  C:\Users\jo\AppData\Local\Temp\ccy41mya.s 			page 19


 1012 02ab 04       		.uleb128 0x4
 1013 02ac 07000000 		.4byte	.LASF53
 1014 02b0 07       		.byte	0x7
 1015 02b1 52       		.byte	0x52
 1016 02b2 B6020000 		.4byte	0x2b6
 1017 02b6 0A       		.uleb128 0xa
 1018 02b7 51030000 		.4byte	.LASF54
 1019 02bb 1C       		.byte	0x1c
 1020 02bc 08       		.byte	0x8
 1021 02bd 7201     		.2byte	0x172
 1022 02bf 12030000 		.4byte	0x312
 1023 02c3 09       		.uleb128 0x9
 1024 02c4 35060000 		.4byte	.LASF55
 1025 02c8 08       		.byte	0x8
 1026 02c9 7301     		.2byte	0x173
 1027 02cb 7B020000 		.4byte	0x27b
 1028 02cf 00       		.byte	0
 1029 02d0 09       		.uleb128 0x9
 1030 02d1 C2050000 		.4byte	.LASF56
 1031 02d5 08       		.byte	0x8
 1032 02d6 7401     		.2byte	0x174
 1033 02d8 04010000 		.4byte	0x104
 1034 02dc 08       		.byte	0x8
 1035 02dd 09       		.uleb128 0x9
 1036 02de CD040000 		.4byte	.LASF57
 1037 02e2 08       		.byte	0x8
 1038 02e3 7601     		.2byte	0x176
 1039 02e5 DA040000 		.4byte	0x4da
 1040 02e9 0C       		.byte	0xc
 1041 02ea 09       		.uleb128 0x9
 1042 02eb 10020000 		.4byte	.LASF58
 1043 02ef 08       		.byte	0x8
 1044 02f0 7901     		.2byte	0x179
 1045 02f2 E1060000 		.4byte	0x6e1
 1046 02f6 10       		.byte	0x10
 1047 02f7 09       		.uleb128 0x9
 1048 02f8 EE040000 		.4byte	.LASF59
 1049 02fc 08       		.byte	0x8
 1050 02fd 7A01     		.2byte	0x17a
 1051 02ff E1060000 		.4byte	0x6e1
 1052 0303 14       		.byte	0x14
 1053 0304 09       		.uleb128 0x9
 1054 0305 E4040000 		.4byte	.LASF60
 1055 0309 08       		.byte	0x8
 1056 030a 7D01     		.2byte	0x17d
 1057 030c E1060000 		.4byte	0x6e1
 1058 0310 18       		.byte	0x18
 1059 0311 00       		.byte	0
 1060 0312 04       		.uleb128 0x4
 1061 0313 B1060000 		.4byte	.LASF61
 1062 0317 07       		.byte	0x7
 1063 0318 57       		.byte	0x57
 1064 0319 1D030000 		.4byte	0x31d
 1065 031d 0B       		.uleb128 0xb
 1066 031e 04       		.byte	0x4
 1067 031f 23030000 		.4byte	0x323
 1068 0323 0C       		.uleb128 0xc
ARM GAS  C:\Users\jo\AppData\Local\Temp\ccy41mya.s 			page 20


 1069 0324 2E030000 		.4byte	0x32e
 1070 0328 0D       		.uleb128 0xd
 1071 0329 2E030000 		.4byte	0x32e
 1072 032d 00       		.byte	0
 1073 032e 0E       		.uleb128 0xe
 1074 032f 04       		.byte	0x4
 1075 0330 04       		.uleb128 0x4
 1076 0331 4A050000 		.4byte	.LASF62
 1077 0335 07       		.byte	0x7
 1078 0336 5C       		.byte	0x5c
 1079 0337 3B030000 		.4byte	0x33b
 1080 033b 0A       		.uleb128 0xa
 1081 033c E7050000 		.4byte	.LASF63
 1082 0340 14       		.byte	0x14
 1083 0341 08       		.byte	0x8
 1084 0342 4D01     		.2byte	0x14d
 1085 0344 8A030000 		.4byte	0x38a
 1086 0348 09       		.uleb128 0x9
 1087 0349 A2020000 		.4byte	.LASF64
 1088 034d 08       		.byte	0x8
 1089 034e 4E01     		.2byte	0x14e
 1090 0350 68080000 		.4byte	0x868
 1091 0354 00       		.byte	0
 1092 0355 09       		.uleb128 0x9
 1093 0356 29020000 		.4byte	.LASF65
 1094 035a 08       		.byte	0x8
 1095 035b 4F01     		.2byte	0x14f
 1096 035d 68080000 		.4byte	0x868
 1097 0361 04       		.byte	0x4
 1098 0362 09       		.uleb128 0x9
 1099 0363 3D060000 		.4byte	.LASF66
 1100 0367 08       		.byte	0x8
 1101 0368 5001     		.2byte	0x150
 1102 036a 3B010000 		.4byte	0x13b
 1103 036e 08       		.byte	0x8
 1104 036f 09       		.uleb128 0x9
 1105 0370 E2070000 		.4byte	.LASF67
 1106 0374 08       		.byte	0x8
 1107 0375 5101     		.2byte	0x151
 1108 0377 12030000 		.4byte	0x312
 1109 037b 0C       		.byte	0xc
 1110 037c 09       		.uleb128 0x9
 1111 037d 26070000 		.4byte	.LASF68
 1112 0381 08       		.byte	0x8
 1113 0382 5301     		.2byte	0x153
 1114 0384 2E030000 		.4byte	0x32e
 1115 0388 10       		.byte	0x10
 1116 0389 00       		.byte	0
 1117 038a 04       		.uleb128 0x4
 1118 038b DF000000 		.4byte	.LASF69
 1119 038f 07       		.byte	0x7
 1120 0390 61       		.byte	0x61
 1121 0391 95030000 		.4byte	0x395
 1122 0395 0A       		.uleb128 0xa
 1123 0396 86040000 		.4byte	.LASF70
 1124 039a 10       		.byte	0x10
 1125 039b 08       		.byte	0x8
ARM GAS  C:\Users\jo\AppData\Local\Temp\ccy41mya.s 			page 21


 1126 039c 5D01     		.2byte	0x15d
 1127 039e D7030000 		.4byte	0x3d7
 1128 03a2 09       		.uleb128 0x9
 1129 03a3 A2020000 		.4byte	.LASF64
 1130 03a7 08       		.byte	0x8
 1131 03a8 5E01     		.2byte	0x15e
 1132 03aa 68080000 		.4byte	0x868
 1133 03ae 00       		.byte	0
 1134 03af 09       		.uleb128 0x9
 1135 03b0 29020000 		.4byte	.LASF65
 1136 03b4 08       		.byte	0x8
 1137 03b5 6001     		.2byte	0x160
 1138 03b7 68080000 		.4byte	0x868
 1139 03bb 04       		.byte	0x4
 1140 03bc 09       		.uleb128 0x9
 1141 03bd 3D060000 		.4byte	.LASF66
 1142 03c1 08       		.byte	0x8
 1143 03c2 6201     		.2byte	0x162
 1144 03c4 3B010000 		.4byte	0x13b
 1145 03c8 08       		.byte	0x8
 1146 03c9 09       		.uleb128 0x9
 1147 03ca AC040000 		.4byte	.LASF71
 1148 03ce 08       		.byte	0x8
 1149 03cf 6A01     		.2byte	0x16a
 1150 03d1 3B010000 		.4byte	0x13b
 1151 03d5 0C       		.byte	0xc
 1152 03d6 00       		.byte	0
 1153 03d7 04       		.uleb128 0x4
 1154 03d8 5D000000 		.4byte	.LASF72
 1155 03dc 07       		.byte	0x7
 1156 03dd 66       		.byte	0x66
 1157 03de E2030000 		.4byte	0x3e2
 1158 03e2 0F       		.uleb128 0xf
 1159 03e3 3B020000 		.4byte	.LASF73
 1160 03e7 1404     		.2byte	0x414
 1161 03e9 08       		.byte	0x8
 1162 03ea 8401     		.2byte	0x184
 1163 03ec 25040000 		.4byte	0x425
 1164 03f0 09       		.uleb128 0x9
 1165 03f1 D3060000 		.4byte	.LASF74
 1166 03f5 08       		.byte	0x8
 1167 03f6 8C01     		.2byte	0x18c
 1168 03f8 6E080000 		.4byte	0x86e
 1169 03fc 00       		.byte	0
 1170 03fd 09       		.uleb128 0x9
 1171 03fe 5F070000 		.4byte	.LASF75
 1172 0402 08       		.byte	0x8
 1173 0403 9101     		.2byte	0x191
 1174 0405 25010000 		.4byte	0x125
 1175 0409 04       		.byte	0x4
 1176 040a 09       		.uleb128 0x9
 1177 040b 59020000 		.4byte	.LASF76
 1178 040f 08       		.byte	0x8
 1179 0410 9501     		.2byte	0x195
 1180 0412 25010000 		.4byte	0x125
 1181 0416 08       		.byte	0x8
 1182 0417 09       		.uleb128 0x9
ARM GAS  C:\Users\jo\AppData\Local\Temp\ccy41mya.s 			page 22


 1183 0418 AC070000 		.4byte	.LASF77
 1184 041c 08       		.byte	0x8
 1185 041d 9B01     		.2byte	0x19b
 1186 041f 36070000 		.4byte	0x736
 1187 0423 0C       		.byte	0xc
 1188 0424 00       		.byte	0
 1189 0425 04       		.uleb128 0x4
 1190 0426 11030000 		.4byte	.LASF78
 1191 042a 07       		.byte	0x7
 1192 042b 6B       		.byte	0x6b
 1193 042c 30040000 		.4byte	0x430
 1194 0430 0F       		.uleb128 0xf
 1195 0431 B8010000 		.4byte	.LASF79
 1196 0435 D805     		.2byte	0x5d8
 1197 0437 08       		.byte	0x8
 1198 0438 A401     		.2byte	0x1a4
 1199 043a 9D040000 		.4byte	0x49d
 1200 043e 09       		.uleb128 0x9
 1201 043f 67070000 		.4byte	.LASF80
 1202 0443 08       		.byte	0x8
 1203 0444 A801     		.2byte	0x1a8
 1204 0446 AB020000 		.4byte	0x2ab
 1205 044a 00       		.byte	0
 1206 044b 09       		.uleb128 0x9
 1207 044c 93010000 		.4byte	.LASF81
 1208 0450 08       		.byte	0x8
 1209 0451 AC01     		.2byte	0x1ac
 1210 0453 8A030000 		.4byte	0x38a
 1211 0457 1C       		.byte	0x1c
 1212 0458 08       		.uleb128 0x8
 1213 0459 64626700 		.ascii	"dbg\000"
 1214 045d 08       		.byte	0x8
 1215 045e B001     		.2byte	0x1b0
 1216 0460 D7030000 		.4byte	0x3d7
 1217 0464 2C       		.byte	0x2c
 1218 0465 10       		.uleb128 0x10
 1219 0466 CA000000 		.4byte	.LASF82
 1220 046a 08       		.byte	0x8
 1221 046b B401     		.2byte	0x1b4
 1222 046d 46010000 		.4byte	0x146
 1223 0471 4004     		.2byte	0x440
 1224 0473 11       		.uleb128 0x11
 1225 0474 746D00   		.ascii	"tm\000"
 1226 0477 08       		.byte	0x8
 1227 0478 B901     		.2byte	0x1b9
 1228 047a 56070000 		.4byte	0x756
 1229 047e A004     		.2byte	0x4a0
 1230 0480 10       		.uleb128 0x10
 1231 0481 29000000 		.4byte	.LASF83
 1232 0485 08       		.byte	0x8
 1233 0486 BF01     		.2byte	0x1bf
 1234 0488 E8070000 		.4byte	0x7e8
 1235 048c A804     		.2byte	0x4a8
 1236 048e 10       		.uleb128 0x10
 1237 048f 62020000 		.4byte	.LASF84
 1238 0493 08       		.byte	0x8
 1239 0494 C501     		.2byte	0x1c5
ARM GAS  C:\Users\jo\AppData\Local\Temp\ccy41mya.s 			page 23


 1240 0496 73080000 		.4byte	0x873
 1241 049a E004     		.2byte	0x4e0
 1242 049c 00       		.byte	0
 1243 049d 03       		.uleb128 0x3
 1244 049e 04       		.byte	0x4
 1245 049f 07       		.byte	0x7
 1246 04a0 6D040000 		.4byte	.LASF85
 1247 04a4 12       		.uleb128 0x12
 1248 04a5 AD000000 		.4byte	0xad
 1249 04a9 B4040000 		.4byte	0x4b4
 1250 04ad 13       		.uleb128 0x13
 1251 04ae 9D040000 		.4byte	0x49d
 1252 04b2 01       		.byte	0x1
 1253 04b3 00       		.byte	0
 1254 04b4 12       		.uleb128 0x12
 1255 04b5 AD000000 		.4byte	0xad
 1256 04b9 C4040000 		.4byte	0x4c4
 1257 04bd 13       		.uleb128 0x13
 1258 04be 9D040000 		.4byte	0x49d
 1259 04c2 03       		.byte	0x3
 1260 04c3 00       		.byte	0
 1261 04c4 04       		.uleb128 0x4
 1262 04c5 20020000 		.4byte	.LASF86
 1263 04c9 09       		.byte	0x9
 1264 04ca 85       		.byte	0x85
 1265 04cb 2E030000 		.4byte	0x32e
 1266 04cf 04       		.uleb128 0x4
 1267 04d0 45040000 		.4byte	.LASF87
 1268 04d4 09       		.byte	0x9
 1269 04d5 8D       		.byte	0x8d
 1270 04d6 B8000000 		.4byte	0xb8
 1271 04da 06       		.uleb128 0x6
 1272 04db E4060000 		.4byte	.LASF88
 1273 04df 04       		.byte	0x4
 1274 04e0 09       		.byte	0x9
 1275 04e1 A9       		.byte	0xa9
 1276 04e2 F3040000 		.4byte	0x4f3
 1277 04e6 14       		.uleb128 0x14
 1278 04e7 72313300 		.ascii	"r13\000"
 1279 04eb 09       		.byte	0x9
 1280 04ec AA       		.byte	0xaa
 1281 04ed 6E050000 		.4byte	0x56e
 1282 04f1 00       		.byte	0
 1283 04f2 00       		.byte	0
 1284 04f3 06       		.uleb128 0x6
 1285 04f4 40000000 		.4byte	.LASF89
 1286 04f8 24       		.byte	0x24
 1287 04f9 0A       		.byte	0xa
 1288 04fa F4       		.byte	0xf4
 1289 04fb 6E050000 		.4byte	0x56e
 1290 04ff 08       		.uleb128 0x8
 1291 0500 723400   		.ascii	"r4\000"
 1292 0503 0A       		.byte	0xa
 1293 0504 0701     		.2byte	0x107
 1294 0506 C4040000 		.4byte	0x4c4
 1295 050a 00       		.byte	0
 1296 050b 08       		.uleb128 0x8
ARM GAS  C:\Users\jo\AppData\Local\Temp\ccy41mya.s 			page 24


 1297 050c 723500   		.ascii	"r5\000"
 1298 050f 0A       		.byte	0xa
 1299 0510 0801     		.2byte	0x108
 1300 0512 C4040000 		.4byte	0x4c4
 1301 0516 04       		.byte	0x4
 1302 0517 08       		.uleb128 0x8
 1303 0518 723600   		.ascii	"r6\000"
 1304 051b 0A       		.byte	0xa
 1305 051c 0901     		.2byte	0x109
 1306 051e C4040000 		.4byte	0x4c4
 1307 0522 08       		.byte	0x8
 1308 0523 08       		.uleb128 0x8
 1309 0524 723700   		.ascii	"r7\000"
 1310 0527 0A       		.byte	0xa
 1311 0528 0A01     		.2byte	0x10a
 1312 052a C4040000 		.4byte	0x4c4
 1313 052e 0C       		.byte	0xc
 1314 052f 08       		.uleb128 0x8
 1315 0530 723800   		.ascii	"r8\000"
 1316 0533 0A       		.byte	0xa
 1317 0534 0B01     		.2byte	0x10b
 1318 0536 C4040000 		.4byte	0x4c4
 1319 053a 10       		.byte	0x10
 1320 053b 08       		.uleb128 0x8
 1321 053c 723900   		.ascii	"r9\000"
 1322 053f 0A       		.byte	0xa
 1323 0540 0C01     		.2byte	0x10c
 1324 0542 C4040000 		.4byte	0x4c4
 1325 0546 14       		.byte	0x14
 1326 0547 08       		.uleb128 0x8
 1327 0548 72313000 		.ascii	"r10\000"
 1328 054c 0A       		.byte	0xa
 1329 054d 0D01     		.2byte	0x10d
 1330 054f C4040000 		.4byte	0x4c4
 1331 0553 18       		.byte	0x18
 1332 0554 08       		.uleb128 0x8
 1333 0555 72313100 		.ascii	"r11\000"
 1334 0559 0A       		.byte	0xa
 1335 055a 0E01     		.2byte	0x10e
 1336 055c C4040000 		.4byte	0x4c4
 1337 0560 1C       		.byte	0x1c
 1338 0561 08       		.uleb128 0x8
 1339 0562 6C7200   		.ascii	"lr\000"
 1340 0565 0A       		.byte	0xa
 1341 0566 0F01     		.2byte	0x10f
 1342 0568 C4040000 		.4byte	0x4c4
 1343 056c 20       		.byte	0x20
 1344 056d 00       		.byte	0
 1345 056e 0B       		.uleb128 0xb
 1346 056f 04       		.byte	0x4
 1347 0570 F3040000 		.4byte	0x4f3
 1348 0574 15       		.uleb128 0x15
 1349 0575 60       		.byte	0x60
 1350 0576 0B       		.byte	0xb
 1351 0577 9E01     		.2byte	0x19e
 1352 0579 80060000 		.4byte	0x680
 1353 057d 08       		.uleb128 0x8
ARM GAS  C:\Users\jo\AppData\Local\Temp\ccy41mya.s 			page 25


 1354 057e 43523100 		.ascii	"CR1\000"
 1355 0582 0B       		.byte	0xb
 1356 0583 9F01     		.2byte	0x19f
 1357 0585 C8000000 		.4byte	0xc8
 1358 0589 00       		.byte	0
 1359 058a 08       		.uleb128 0x8
 1360 058b 43523200 		.ascii	"CR2\000"
 1361 058f 0B       		.byte	0xb
 1362 0590 A001     		.2byte	0x1a0
 1363 0592 C8000000 		.4byte	0xc8
 1364 0596 04       		.byte	0x4
 1365 0597 09       		.uleb128 0x9
 1366 0598 D0020000 		.4byte	.LASF90
 1367 059c 0B       		.byte	0xb
 1368 059d A101     		.2byte	0x1a1
 1369 059f C8000000 		.4byte	0xc8
 1370 05a3 08       		.byte	0x8
 1371 05a4 09       		.uleb128 0x9
 1372 05a5 14000000 		.4byte	.LASF91
 1373 05a9 0B       		.byte	0xb
 1374 05aa A201     		.2byte	0x1a2
 1375 05ac C8000000 		.4byte	0xc8
 1376 05b0 0C       		.byte	0xc
 1377 05b1 08       		.uleb128 0x8
 1378 05b2 535200   		.ascii	"SR\000"
 1379 05b5 0B       		.byte	0xb
 1380 05b6 A301     		.2byte	0x1a3
 1381 05b8 C8000000 		.4byte	0xc8
 1382 05bc 10       		.byte	0x10
 1383 05bd 08       		.uleb128 0x8
 1384 05be 45475200 		.ascii	"EGR\000"
 1385 05c2 0B       		.byte	0xb
 1386 05c3 A401     		.2byte	0x1a4
 1387 05c5 C8000000 		.4byte	0xc8
 1388 05c9 14       		.byte	0x14
 1389 05ca 09       		.uleb128 0x9
 1390 05cb 65010000 		.4byte	.LASF92
 1391 05cf 0B       		.byte	0xb
 1392 05d0 A501     		.2byte	0x1a5
 1393 05d2 C8000000 		.4byte	0xc8
 1394 05d6 18       		.byte	0x18
 1395 05d7 09       		.uleb128 0x9
 1396 05d8 6B010000 		.4byte	.LASF93
 1397 05dc 0B       		.byte	0xb
 1398 05dd A601     		.2byte	0x1a6
 1399 05df C8000000 		.4byte	0xc8
 1400 05e3 1C       		.byte	0x1c
 1401 05e4 09       		.uleb128 0x9
 1402 05e5 D4010000 		.4byte	.LASF94
 1403 05e9 0B       		.byte	0xb
 1404 05ea A701     		.2byte	0x1a7
 1405 05ec C8000000 		.4byte	0xc8
 1406 05f0 20       		.byte	0x20
 1407 05f1 08       		.uleb128 0x8
 1408 05f2 434E5400 		.ascii	"CNT\000"
 1409 05f6 0B       		.byte	0xb
 1410 05f7 A801     		.2byte	0x1a8
ARM GAS  C:\Users\jo\AppData\Local\Temp\ccy41mya.s 			page 26


 1411 05f9 C8000000 		.4byte	0xc8
 1412 05fd 24       		.byte	0x24
 1413 05fe 08       		.uleb128 0x8
 1414 05ff 50534300 		.ascii	"PSC\000"
 1415 0603 0B       		.byte	0xb
 1416 0604 A901     		.2byte	0x1a9
 1417 0606 C8000000 		.4byte	0xc8
 1418 060a 28       		.byte	0x28
 1419 060b 08       		.uleb128 0x8
 1420 060c 41525200 		.ascii	"ARR\000"
 1421 0610 0B       		.byte	0xb
 1422 0611 AA01     		.2byte	0x1aa
 1423 0613 C8000000 		.4byte	0xc8
 1424 0617 2C       		.byte	0x2c
 1425 0618 08       		.uleb128 0x8
 1426 0619 52435200 		.ascii	"RCR\000"
 1427 061d 0B       		.byte	0xb
 1428 061e AB01     		.2byte	0x1ab
 1429 0620 C8000000 		.4byte	0xc8
 1430 0624 30       		.byte	0x30
 1431 0625 08       		.uleb128 0x8
 1432 0626 43435200 		.ascii	"CCR\000"
 1433 062a 0B       		.byte	0xb
 1434 062b AC01     		.2byte	0x1ac
 1435 062d 80060000 		.4byte	0x680
 1436 0631 34       		.byte	0x34
 1437 0632 09       		.uleb128 0x9
 1438 0633 02010000 		.4byte	.LASF95
 1439 0637 0B       		.byte	0xb
 1440 0638 AD01     		.2byte	0x1ad
 1441 063a C8000000 		.4byte	0xc8
 1442 063e 44       		.byte	0x44
 1443 063f 08       		.uleb128 0x8
 1444 0640 44435200 		.ascii	"DCR\000"
 1445 0644 0B       		.byte	0xb
 1446 0645 AE01     		.2byte	0x1ae
 1447 0647 C8000000 		.4byte	0xc8
 1448 064b 48       		.byte	0x48
 1449 064c 09       		.uleb128 0x9
 1450 064d 6D060000 		.4byte	.LASF96
 1451 0651 0B       		.byte	0xb
 1452 0652 AF01     		.2byte	0x1af
 1453 0654 C8000000 		.4byte	0xc8
 1454 0658 4C       		.byte	0x4c
 1455 0659 08       		.uleb128 0x8
 1456 065a 4F5200   		.ascii	"OR\000"
 1457 065d 0B       		.byte	0xb
 1458 065e B001     		.2byte	0x1b0
 1459 0660 C8000000 		.4byte	0xc8
 1460 0664 50       		.byte	0x50
 1461 0665 09       		.uleb128 0x9
 1462 0666 71010000 		.4byte	.LASF97
 1463 066a 0B       		.byte	0xb
 1464 066b B101     		.2byte	0x1b1
 1465 066d C8000000 		.4byte	0xc8
 1466 0671 54       		.byte	0x54
 1467 0672 09       		.uleb128 0x9
ARM GAS  C:\Users\jo\AppData\Local\Temp\ccy41mya.s 			page 27


 1468 0673 F8050000 		.4byte	.LASF98
 1469 0677 0B       		.byte	0xb
 1470 0678 B201     		.2byte	0x1b2
 1471 067a 85060000 		.4byte	0x685
 1472 067e 58       		.byte	0x58
 1473 067f 00       		.byte	0
 1474 0680 05       		.uleb128 0x5
 1475 0681 B4040000 		.4byte	0x4b4
 1476 0685 05       		.uleb128 0x5
 1477 0686 A4040000 		.4byte	0x4a4
 1478 068a 16       		.uleb128 0x16
 1479 068b 1D030000 		.4byte	.LASF99
 1480 068f 0B       		.byte	0xb
 1481 0690 B301     		.2byte	0x1b3
 1482 0692 74050000 		.4byte	0x574
 1483 0696 03       		.uleb128 0x3
 1484 0697 01       		.byte	0x1
 1485 0698 08       		.byte	0x8
 1486 0699 68060000 		.4byte	.LASF100
 1487 069d 0B       		.uleb128 0xb
 1488 069e 04       		.byte	0x4
 1489 069f A3060000 		.4byte	0x6a3
 1490 06a3 17       		.uleb128 0x17
 1491 06a4 96060000 		.4byte	0x696
 1492 06a8 18       		.uleb128 0x18
 1493 06a9 10       		.byte	0x10
 1494 06aa 0C       		.byte	0xc
 1495 06ab 57       		.byte	0x57
 1496 06ac E1060000 		.4byte	0x6e1
 1497 06b0 07       		.uleb128 0x7
 1498 06b1 83010000 		.4byte	.LASF101
 1499 06b5 0C       		.byte	0xc
 1500 06b6 5B       		.byte	0x5b
 1501 06b7 3B010000 		.4byte	0x13b
 1502 06bb 00       		.byte	0
 1503 06bc 07       		.uleb128 0x7
 1504 06bd D9010000 		.4byte	.LASF102
 1505 06c1 0C       		.byte	0xc
 1506 06c2 5F       		.byte	0x5f
 1507 06c3 E1060000 		.4byte	0x6e1
 1508 06c7 04       		.byte	0x4
 1509 06c8 07       		.uleb128 0x7
 1510 06c9 D2070000 		.4byte	.LASF103
 1511 06cd 0C       		.byte	0xc
 1512 06ce 63       		.byte	0x63
 1513 06cf 2E030000 		.4byte	0x32e
 1514 06d3 08       		.byte	0x8
 1515 06d4 07       		.uleb128 0x7
 1516 06d5 B8000000 		.4byte	.LASF104
 1517 06d9 0C       		.byte	0xc
 1518 06da 67       		.byte	0x67
 1519 06db 97000000 		.4byte	0x97
 1520 06df 0C       		.byte	0xc
 1521 06e0 00       		.byte	0
 1522 06e1 0B       		.uleb128 0xb
 1523 06e2 04       		.byte	0x4
 1524 06e3 46010000 		.4byte	0x146
ARM GAS  C:\Users\jo\AppData\Local\Temp\ccy41mya.s 			page 28


 1525 06e7 04       		.uleb128 0x4
 1526 06e8 9D040000 		.4byte	.LASF105
 1527 06ec 0C       		.byte	0xc
 1528 06ed 68       		.byte	0x68
 1529 06ee A8060000 		.4byte	0x6a8
 1530 06f2 19       		.uleb128 0x19
 1531 06f3 0804     		.2byte	0x408
 1532 06f5 0C       		.byte	0xc
 1533 06f6 6D       		.byte	0x6d
 1534 06f7 20070000 		.4byte	0x720
 1535 06fb 07       		.uleb128 0x7
 1536 06fc 08020000 		.4byte	.LASF106
 1537 0700 0C       		.byte	0xc
 1538 0701 71       		.byte	0x71
 1539 0702 2C000000 		.4byte	0x2c
 1540 0706 00       		.byte	0
 1541 0707 07       		.uleb128 0x7
 1542 0708 00000000 		.4byte	.LASF107
 1543 070c 0C       		.byte	0xc
 1544 070d 75       		.byte	0x75
 1545 070e 20070000 		.4byte	0x720
 1546 0712 04       		.byte	0x4
 1547 0713 07       		.uleb128 0x7
 1548 0714 2D050000 		.4byte	.LASF108
 1549 0718 0C       		.byte	0xc
 1550 0719 79       		.byte	0x79
 1551 071a 26070000 		.4byte	0x726
 1552 071e 08       		.byte	0x8
 1553 071f 00       		.byte	0
 1554 0720 0B       		.uleb128 0xb
 1555 0721 04       		.byte	0x4
 1556 0722 E7060000 		.4byte	0x6e7
 1557 0726 12       		.uleb128 0x12
 1558 0727 E7060000 		.4byte	0x6e7
 1559 072b 36070000 		.4byte	0x736
 1560 072f 13       		.uleb128 0x13
 1561 0730 9D040000 		.4byte	0x49d
 1562 0734 3F       		.byte	0x3f
 1563 0735 00       		.byte	0
 1564 0736 04       		.uleb128 0x4
 1565 0737 A6000000 		.4byte	.LASF109
 1566 073b 0C       		.byte	0xc
 1567 073c 7A       		.byte	0x7a
 1568 073d F2060000 		.4byte	0x6f2
 1569 0741 18       		.uleb128 0x18
 1570 0742 04       		.byte	0x4
 1571 0743 0D       		.byte	0xd
 1572 0744 38       		.byte	0x38
 1573 0745 56070000 		.4byte	0x756
 1574 0749 07       		.uleb128 0x7
 1575 074a DD060000 		.4byte	.LASF110
 1576 074e 0D       		.byte	0xd
 1577 074f 3C       		.byte	0x3c
 1578 0750 CD000000 		.4byte	0xcd
 1579 0754 00       		.byte	0
 1580 0755 00       		.byte	0
 1581 0756 04       		.uleb128 0x4
ARM GAS  C:\Users\jo\AppData\Local\Temp\ccy41mya.s 			page 29


 1582 0757 D3040000 		.4byte	.LASF111
 1583 075b 0D       		.byte	0xd
 1584 075c 3D       		.byte	0x3d
 1585 075d 41070000 		.4byte	0x741
 1586 0761 18       		.uleb128 0x18
 1587 0762 18       		.byte	0x18
 1588 0763 0D       		.byte	0xd
 1589 0764 48       		.byte	0x48
 1590 0765 A4070000 		.4byte	0x7a4
 1591 0769 07       		.uleb128 0x7
 1592 076a 90060000 		.4byte	.LASF112
 1593 076e 0D       		.byte	0xd
 1594 076f 49       		.byte	0x49
 1595 0770 CD000000 		.4byte	0xcd
 1596 0774 00       		.byte	0
 1597 0775 07       		.uleb128 0x7
 1598 0776 76000000 		.4byte	.LASF113
 1599 077a 0D       		.byte	0xd
 1600 077b 4A       		.byte	0x4a
 1601 077c CD000000 		.4byte	0xcd
 1602 0780 04       		.byte	0x4
 1603 0781 07       		.uleb128 0x7
 1604 0782 F4020000 		.4byte	.LASF114
 1605 0786 0D       		.byte	0xd
 1606 0787 4B       		.byte	0x4b
 1607 0788 CD000000 		.4byte	0xcd
 1608 078c 08       		.byte	0x8
 1609 078d 14       		.uleb128 0x14
 1610 078e 6E00     		.ascii	"n\000"
 1611 0790 0D       		.byte	0xd
 1612 0791 4C       		.byte	0x4c
 1613 0792 30010000 		.4byte	0x130
 1614 0796 0C       		.byte	0xc
 1615 0797 07       		.uleb128 0x7
 1616 0798 1A050000 		.4byte	.LASF115
 1617 079c 0D       		.byte	0xd
 1618 079d 4D       		.byte	0x4d
 1619 079e D8000000 		.4byte	0xd8
 1620 07a2 10       		.byte	0x10
 1621 07a3 00       		.byte	0
 1622 07a4 04       		.uleb128 0x4
 1623 07a5 7C000000 		.4byte	.LASF116
 1624 07a9 0D       		.byte	0xd
 1625 07aa 4E       		.byte	0x4e
 1626 07ab 61070000 		.4byte	0x761
 1627 07af 18       		.uleb128 0x18
 1628 07b0 38       		.byte	0x38
 1629 07b1 0E       		.byte	0xe
 1630 07b2 38       		.byte	0x38
 1631 07b3 E8070000 		.4byte	0x7e8
 1632 07b7 07       		.uleb128 0x7
 1633 07b8 CA020000 		.4byte	.LASF117
 1634 07bc 0E       		.byte	0xe
 1635 07bd 39       		.byte	0x39
 1636 07be 30010000 		.4byte	0x130
 1637 07c2 00       		.byte	0
 1638 07c3 07       		.uleb128 0x7
ARM GAS  C:\Users\jo\AppData\Local\Temp\ccy41mya.s 			page 30


 1639 07c4 6F050000 		.4byte	.LASF118
 1640 07c8 0E       		.byte	0xe
 1641 07c9 3A       		.byte	0x3a
 1642 07ca 30010000 		.4byte	0x130
 1643 07ce 04       		.byte	0x4
 1644 07cf 07       		.uleb128 0x7
 1645 07d0 BF070000 		.4byte	.LASF119
 1646 07d4 0E       		.byte	0xe
 1647 07d5 3B       		.byte	0x3b
 1648 07d6 A4070000 		.4byte	0x7a4
 1649 07da 08       		.byte	0x8
 1650 07db 07       		.uleb128 0x7
 1651 07dc 46030000 		.4byte	.LASF120
 1652 07e0 0E       		.byte	0xe
 1653 07e1 3D       		.byte	0x3d
 1654 07e2 A4070000 		.4byte	0x7a4
 1655 07e6 20       		.byte	0x20
 1656 07e7 00       		.byte	0
 1657 07e8 04       		.uleb128 0x4
 1658 07e9 D5020000 		.4byte	.LASF121
 1659 07ed 0E       		.byte	0xe
 1660 07ee 3F       		.byte	0x3f
 1661 07ef AF070000 		.4byte	0x7af
 1662 07f3 1A       		.uleb128 0x1a
 1663 07f4 04       		.byte	0x4
 1664 07f5 08       		.byte	0x8
 1665 07f6 F6       		.byte	0xf6
 1666 07f7 2B080000 		.4byte	0x82b
 1667 07fb 1B       		.uleb128 0x1b
 1668 07fc 19000000 		.4byte	.LASF122
 1669 0800 08       		.byte	0x8
 1670 0801 FD       		.byte	0xfd
 1671 0802 0F010000 		.4byte	0x10f
 1672 0806 1C       		.uleb128 0x1c
 1673 0807 C1000000 		.4byte	.LASF123
 1674 080b 08       		.byte	0x8
 1675 080c 0401     		.2byte	0x104
 1676 080e 0F010000 		.4byte	0x10f
 1677 0812 1C       		.uleb128 0x1c
 1678 0813 87070000 		.4byte	.LASF124
 1679 0817 08       		.byte	0x8
 1680 0818 0B01     		.2byte	0x10b
 1681 081a 2E030000 		.4byte	0x32e
 1682 081e 1C       		.uleb128 0x1c
 1683 081f C9050000 		.4byte	.LASF125
 1684 0823 08       		.byte	0x8
 1685 0824 1201     		.2byte	0x112
 1686 0826 1A010000 		.4byte	0x11a
 1687 082a 00       		.byte	0
 1688 082b 0B       		.uleb128 0xb
 1689 082c 04       		.byte	0x4
 1690 082d CF040000 		.4byte	0x4cf
 1691 0831 06       		.uleb128 0x6
 1692 0832 69050000 		.4byte	.LASF126
 1693 0836 10       		.byte	0x10
 1694 0837 0F       		.byte	0xf
 1695 0838 39       		.byte	0x39
ARM GAS  C:\Users\jo\AppData\Local\Temp\ccy41mya.s 			page 31


 1696 0839 62080000 		.4byte	0x862
 1697 083d 07       		.uleb128 0x7
 1698 083e 8B010000 		.4byte	.LASF127
 1699 0842 0F       		.byte	0xf
 1700 0843 3A       		.byte	0x3a
 1701 0844 7B020000 		.4byte	0x27b
 1702 0848 00       		.byte	0
 1703 0849 07       		.uleb128 0x7
 1704 084a CA070000 		.4byte	.LASF128
 1705 084e 0F       		.byte	0xf
 1706 084f 3C       		.byte	0x3c
 1707 0850 E1060000 		.4byte	0x6e1
 1708 0854 08       		.byte	0x8
 1709 0855 07       		.uleb128 0x7
 1710 0856 95060000 		.4byte	.LASF129
 1711 085a 0F       		.byte	0xf
 1712 085b 3E       		.byte	0x3e
 1713 085c 8E080000 		.4byte	0x88e
 1714 0860 0C       		.byte	0xc
 1715 0861 00       		.byte	0
 1716 0862 0B       		.uleb128 0xb
 1717 0863 04       		.byte	0x4
 1718 0864 31080000 		.4byte	0x831
 1719 0868 0B       		.uleb128 0xb
 1720 0869 04       		.byte	0x4
 1721 086a 30030000 		.4byte	0x330
 1722 086e 05       		.uleb128 0x5
 1723 086f 9D060000 		.4byte	0x69d
 1724 0873 12       		.uleb128 0x12
 1725 0874 CF040000 		.4byte	0x4cf
 1726 0878 83080000 		.4byte	0x883
 1727 087c 13       		.uleb128 0x13
 1728 087d 9D040000 		.4byte	0x49d
 1729 0881 1E       		.byte	0x1e
 1730 0882 00       		.byte	0
 1731 0883 04       		.uleb128 0x4
 1732 0884 4B020000 		.4byte	.LASF130
 1733 0888 0F       		.byte	0xf
 1734 0889 34       		.byte	0x34
 1735 088a 31080000 		.4byte	0x831
 1736 088e 0B       		.uleb128 0xb
 1737 088f 04       		.byte	0x4
 1738 0890 83080000 		.4byte	0x883
 1739 0894 1D       		.uleb128 0x1d
 1740 0895 C5060000 		.4byte	.LASF154
 1741 0899 02       		.byte	0x2
 1742 089a 2002     		.2byte	0x220
 1743 089c 03       		.byte	0x3
 1744 089d AE080000 		.4byte	0x8ae
 1745 08a1 1E       		.uleb128 0x1e
 1746 08a2 53020000 		.4byte	.LASF155
 1747 08a6 02       		.byte	0x2
 1748 08a7 2002     		.2byte	0x220
 1749 08a9 AD000000 		.4byte	0xad
 1750 08ad 00       		.byte	0
 1751 08ae 1F       		.uleb128 0x1f
 1752 08af 6C000000 		.4byte	.LASF131
ARM GAS  C:\Users\jo\AppData\Local\Temp\ccy41mya.s 			page 32


 1753 08b3 0A       		.byte	0xa
 1754 08b4 BB01     		.2byte	0x1bb
 1755 08b6 03       		.byte	0x3
 1756 08b7 1F       		.uleb128 0x1f
 1757 08b8 9A010000 		.4byte	.LASF132
 1758 08bc 0A       		.byte	0xa
 1759 08bd C901     		.2byte	0x1c9
 1760 08bf 03       		.byte	0x3
 1761 08c0 20       		.uleb128 0x20
 1762 08c1 08060000 		.4byte	.LASF133
 1763 08c5 03       		.byte	0x3
 1764 08c6 7E       		.byte	0x7e
 1765 08c7 3B010000 		.4byte	0x13b
 1766 08cb 03       		.byte	0x3
 1767 08cc 20       		.uleb128 0x20
 1768 08cd F7060000 		.4byte	.LASF134
 1769 08d1 10       		.byte	0x10
 1770 08d2 69       		.byte	0x69
 1771 08d3 3B010000 		.4byte	0x13b
 1772 08d7 03       		.byte	0x3
 1773 08d8 1F       		.uleb128 0x1f
 1774 08d9 13070000 		.4byte	.LASF135
 1775 08dd 0A       		.byte	0xa
 1776 08de D801     		.2byte	0x1d8
 1777 08e0 03       		.byte	0x3
 1778 08e1 1F       		.uleb128 0x1f
 1779 08e2 72060000 		.4byte	.LASF136
 1780 08e6 0A       		.byte	0xa
 1781 08e7 E301     		.2byte	0x1e3
 1782 08e9 03       		.byte	0x3
 1783 08ea 20       		.uleb128 0x20
 1784 08eb 77020000 		.4byte	.LASF137
 1785 08ef 11       		.byte	0x11
 1786 08f0 E2       		.byte	0xe2
 1787 08f1 3B010000 		.4byte	0x13b
 1788 08f5 03       		.byte	0x3
 1789 08f6 21       		.uleb128 0x21
 1790 08f7 37050000 		.4byte	.LASF138
 1791 08fb 01       		.byte	0x1
 1792 08fc 72       		.byte	0x72
 1793 08fd 00000000 		.4byte	.LFB226
 1794 0901 1C000000 		.4byte	.LFE226-.LFB226
 1795 0905 01       		.uleb128 0x1
 1796 0906 9C       		.byte	0x9c
 1797 0907 1F090000 		.4byte	0x91f
 1798 090b 22       		.uleb128 0x22
 1799 090c 10000000 		.4byte	.LVL0
 1800 0910 270C0000 		.4byte	0xc27
 1801 0914 23       		.uleb128 0x23
 1802 0915 01       		.uleb128 0x1
 1803 0916 50       		.byte	0x50
 1804 0917 05       		.uleb128 0x5
 1805 0918 03       		.byte	0x3
 1806 0919 00000000 		.4byte	.LC0
 1807 091d 00       		.byte	0
 1808 091e 00       		.byte	0
 1809 091f 21       		.uleb128 0x21
ARM GAS  C:\Users\jo\AppData\Local\Temp\ccy41mya.s 			page 33


 1810 0920 50040000 		.4byte	.LASF139
 1811 0924 01       		.byte	0x1
 1812 0925 7E       		.byte	0x7e
 1813 0926 00000000 		.4byte	.LFB227
 1814 092a 1C000000 		.4byte	.LFE227-.LFB227
 1815 092e 01       		.uleb128 0x1
 1816 092f 9C       		.byte	0x9c
 1817 0930 48090000 		.4byte	0x948
 1818 0934 22       		.uleb128 0x22
 1819 0935 10000000 		.4byte	.LVL1
 1820 0939 270C0000 		.4byte	0xc27
 1821 093d 23       		.uleb128 0x23
 1822 093e 01       		.uleb128 0x1
 1823 093f 50       		.byte	0x50
 1824 0940 05       		.uleb128 0x5
 1825 0941 03       		.byte	0x3
 1826 0942 08000000 		.4byte	.LC1
 1827 0946 00       		.byte	0
 1828 0947 00       		.byte	0
 1829 0948 21       		.uleb128 0x21
 1830 0949 A6010000 		.4byte	.LASF140
 1831 094d 01       		.byte	0x1
 1832 094e 8A       		.byte	0x8a
 1833 094f 00000000 		.4byte	.LFB228
 1834 0953 1C000000 		.4byte	.LFE228-.LFB228
 1835 0957 01       		.uleb128 0x1
 1836 0958 9C       		.byte	0x9c
 1837 0959 71090000 		.4byte	0x971
 1838 095d 22       		.uleb128 0x22
 1839 095e 10000000 		.4byte	.LVL2
 1840 0962 270C0000 		.4byte	0xc27
 1841 0966 23       		.uleb128 0x23
 1842 0967 01       		.uleb128 0x1
 1843 0968 50       		.byte	0x50
 1844 0969 05       		.uleb128 0x5
 1845 096a 03       		.byte	0x3
 1846 096b 10000000 		.4byte	.LC2
 1847 096f 00       		.byte	0
 1848 0970 00       		.byte	0
 1849 0971 21       		.uleb128 0x21
 1850 0972 76040000 		.4byte	.LASF141
 1851 0976 01       		.byte	0x1
 1852 0977 96       		.byte	0x96
 1853 0978 00000000 		.4byte	.LFB229
 1854 097c 20000000 		.4byte	.LFE229-.LFB229
 1855 0980 01       		.uleb128 0x1
 1856 0981 9C       		.byte	0x9c
 1857 0982 9A090000 		.4byte	0x99a
 1858 0986 24       		.uleb128 0x24
 1859 0987 12000000 		.4byte	.LVL3
 1860 098b 270C0000 		.4byte	0xc27
 1861 098f 23       		.uleb128 0x23
 1862 0990 01       		.uleb128 0x1
 1863 0991 50       		.byte	0x50
 1864 0992 05       		.uleb128 0x5
 1865 0993 03       		.byte	0x3
 1866 0994 18000000 		.4byte	.LC3
ARM GAS  C:\Users\jo\AppData\Local\Temp\ccy41mya.s 			page 34


 1867 0998 00       		.byte	0
 1868 0999 00       		.byte	0
 1869 099a 21       		.uleb128 0x21
 1870 099b 75070000 		.4byte	.LASF142
 1871 099f 01       		.byte	0x1
 1872 09a0 A3       		.byte	0xa3
 1873 09a1 00000000 		.4byte	.LFB230
 1874 09a5 28000000 		.4byte	.LFE230-.LFB230
 1875 09a9 01       		.uleb128 0x1
 1876 09aa 9C       		.byte	0x9c
 1877 09ab C3090000 		.4byte	0x9c3
 1878 09af 24       		.uleb128 0x24
 1879 09b0 1A000000 		.4byte	.LVL4
 1880 09b4 270C0000 		.4byte	0xc27
 1881 09b8 23       		.uleb128 0x23
 1882 09b9 01       		.uleb128 0x1
 1883 09ba 50       		.byte	0x50
 1884 09bb 05       		.uleb128 0x5
 1885 09bc 03       		.byte	0x3
 1886 09bd 20000000 		.4byte	.LC4
 1887 09c1 00       		.byte	0
 1888 09c2 00       		.byte	0
 1889 09c3 21       		.uleb128 0x21
 1890 09c4 F6040000 		.4byte	.LASF143
 1891 09c8 01       		.byte	0x1
 1892 09c9 B0       		.byte	0xb0
 1893 09ca 00000000 		.4byte	.LFB231
 1894 09ce 24000000 		.4byte	.LFE231-.LFB231
 1895 09d2 01       		.uleb128 0x1
 1896 09d3 9C       		.byte	0x9c
 1897 09d4 EC090000 		.4byte	0x9ec
 1898 09d8 24       		.uleb128 0x24
 1899 09d9 14000000 		.4byte	.LVL5
 1900 09dd 270C0000 		.4byte	0xc27
 1901 09e1 23       		.uleb128 0x23
 1902 09e2 01       		.uleb128 0x1
 1903 09e3 50       		.byte	0x50
 1904 09e4 05       		.uleb128 0x5
 1905 09e5 03       		.byte	0x3
 1906 09e6 28000000 		.4byte	.LC5
 1907 09ea 00       		.byte	0
 1908 09eb 00       		.byte	0
 1909 09ec 21       		.uleb128 0x21
 1910 09ed 2D070000 		.4byte	.LASF144
 1911 09f1 01       		.byte	0x1
 1912 09f2 BD       		.byte	0xbd
 1913 09f3 00000000 		.4byte	.LFB232
 1914 09f7 2C000000 		.4byte	.LFE232-.LFB232
 1915 09fb 01       		.uleb128 0x1
 1916 09fc 9C       		.byte	0x9c
 1917 09fd 150A0000 		.4byte	0xa15
 1918 0a01 24       		.uleb128 0x24
 1919 0a02 1C000000 		.4byte	.LVL6
 1920 0a06 270C0000 		.4byte	0xc27
 1921 0a0a 23       		.uleb128 0x23
 1922 0a0b 01       		.uleb128 0x1
 1923 0a0c 50       		.byte	0x50
ARM GAS  C:\Users\jo\AppData\Local\Temp\ccy41mya.s 			page 35


 1924 0a0d 05       		.uleb128 0x5
 1925 0a0e 03       		.byte	0x3
 1926 0a0f 30000000 		.4byte	.LC6
 1927 0a13 00       		.byte	0
 1928 0a14 00       		.byte	0
 1929 0a15 21       		.uleb128 0x21
 1930 0a16 B8040000 		.4byte	.LASF145
 1931 0a1a 01       		.byte	0x1
 1932 0a1b CA       		.byte	0xca
 1933 0a1c 00000000 		.4byte	.LFB233
 1934 0a20 30000000 		.4byte	.LFE233-.LFB233
 1935 0a24 01       		.uleb128 0x1
 1936 0a25 9C       		.byte	0x9c
 1937 0a26 B60A0000 		.4byte	0xab6
 1938 0a2a 25       		.uleb128 0x25
 1939 0a2b D8080000 		.4byte	0x8d8
 1940 0a2f 02000000 		.4byte	.LBB45
 1941 0a33 06000000 		.4byte	.LBE45-.LBB45
 1942 0a37 01       		.byte	0x1
 1943 0a38 CC       		.byte	0xcc
 1944 0a39 660A0000 		.4byte	0xa66
 1945 0a3d 26       		.uleb128 0x26
 1946 0a3e AE080000 		.4byte	0x8ae
 1947 0a42 02000000 		.4byte	.LBB46
 1948 0a46 06000000 		.4byte	.LBE46-.LBB46
 1949 0a4a 0A       		.byte	0xa
 1950 0a4b DA01     		.2byte	0x1da
 1951 0a4d 26       		.uleb128 0x26
 1952 0a4e 94080000 		.4byte	0x894
 1953 0a52 02000000 		.4byte	.LBB47
 1954 0a56 06000000 		.4byte	.LBE47-.LBB47
 1955 0a5a 0A       		.byte	0xa
 1956 0a5b BE01     		.2byte	0x1be
 1957 0a5d 27       		.uleb128 0x27
 1958 0a5e A1080000 		.4byte	0x8a1
 1959 0a62 20       		.byte	0x20
 1960 0a63 00       		.byte	0
 1961 0a64 00       		.byte	0
 1962 0a65 00       		.byte	0
 1963 0a66 25       		.uleb128 0x25
 1964 0a67 E1080000 		.4byte	0x8e1
 1965 0a6b 20000000 		.4byte	.LBB49
 1966 0a6f 10000000 		.4byte	.LBE49-.LBB49
 1967 0a73 01       		.byte	0x1
 1968 0a74 D1       		.byte	0xd1
 1969 0a75 A20A0000 		.4byte	0xaa2
 1970 0a79 26       		.uleb128 0x26
 1971 0a7a B7080000 		.4byte	0x8b7
 1972 0a7e 20000000 		.4byte	.LBB50
 1973 0a82 10000000 		.4byte	.LBE50-.LBB50
 1974 0a86 0A       		.byte	0xa
 1975 0a87 E501     		.2byte	0x1e5
 1976 0a89 26       		.uleb128 0x26
 1977 0a8a 94080000 		.4byte	0x894
 1978 0a8e 20000000 		.4byte	.LBB51
 1979 0a92 10000000 		.4byte	.LBE51-.LBB51
 1980 0a96 0A       		.byte	0xa
ARM GAS  C:\Users\jo\AppData\Local\Temp\ccy41mya.s 			page 36


 1981 0a97 CC01     		.2byte	0x1cc
 1982 0a99 27       		.uleb128 0x27
 1983 0a9a A1080000 		.4byte	0x8a1
 1984 0a9e 00       		.byte	0
 1985 0a9f 00       		.byte	0
 1986 0aa0 00       		.byte	0
 1987 0aa1 00       		.byte	0
 1988 0aa2 24       		.uleb128 0x24
 1989 0aa3 1A000000 		.4byte	.LVL8
 1990 0aa7 270C0000 		.4byte	0xc27
 1991 0aab 23       		.uleb128 0x23
 1992 0aac 01       		.uleb128 0x1
 1993 0aad 50       		.byte	0x50
 1994 0aae 05       		.uleb128 0x5
 1995 0aaf 03       		.byte	0x3
 1996 0ab0 38000000 		.4byte	.LC7
 1997 0ab4 00       		.byte	0
 1998 0ab5 00       		.byte	0
 1999 0ab6 21       		.uleb128 0x21
 2000 0ab7 AA020000 		.4byte	.LASF146
 2001 0abb 01       		.byte	0x1
 2002 0abc D9       		.byte	0xd9
 2003 0abd 00000000 		.4byte	.LFB234
 2004 0ac1 30000000 		.4byte	.LFE234-.LFB234
 2005 0ac5 01       		.uleb128 0x1
 2006 0ac6 9C       		.byte	0x9c
 2007 0ac7 570B0000 		.4byte	0xb57
 2008 0acb 25       		.uleb128 0x25
 2009 0acc D8080000 		.4byte	0x8d8
 2010 0ad0 02000000 		.4byte	.LBB53
 2011 0ad4 06000000 		.4byte	.LBE53-.LBB53
 2012 0ad8 01       		.byte	0x1
 2013 0ad9 DB       		.byte	0xdb
 2014 0ada 070B0000 		.4byte	0xb07
 2015 0ade 26       		.uleb128 0x26
 2016 0adf AE080000 		.4byte	0x8ae
 2017 0ae3 02000000 		.4byte	.LBB54
 2018 0ae7 06000000 		.4byte	.LBE54-.LBB54
 2019 0aeb 0A       		.byte	0xa
 2020 0aec DA01     		.2byte	0x1da
 2021 0aee 26       		.uleb128 0x26
 2022 0aef 94080000 		.4byte	0x894
 2023 0af3 02000000 		.4byte	.LBB55
 2024 0af7 06000000 		.4byte	.LBE55-.LBB55
 2025 0afb 0A       		.byte	0xa
 2026 0afc BE01     		.2byte	0x1be
 2027 0afe 27       		.uleb128 0x27
 2028 0aff A1080000 		.4byte	0x8a1
 2029 0b03 20       		.byte	0x20
 2030 0b04 00       		.byte	0
 2031 0b05 00       		.byte	0
 2032 0b06 00       		.byte	0
 2033 0b07 25       		.uleb128 0x25
 2034 0b08 E1080000 		.4byte	0x8e1
 2035 0b0c 20000000 		.4byte	.LBB57
 2036 0b10 10000000 		.4byte	.LBE57-.LBB57
 2037 0b14 01       		.byte	0x1
ARM GAS  C:\Users\jo\AppData\Local\Temp\ccy41mya.s 			page 37


 2038 0b15 E0       		.byte	0xe0
 2039 0b16 430B0000 		.4byte	0xb43
 2040 0b1a 26       		.uleb128 0x26
 2041 0b1b B7080000 		.4byte	0x8b7
 2042 0b1f 20000000 		.4byte	.LBB58
 2043 0b23 10000000 		.4byte	.LBE58-.LBB58
 2044 0b27 0A       		.byte	0xa
 2045 0b28 E501     		.2byte	0x1e5
 2046 0b2a 26       		.uleb128 0x26
 2047 0b2b 94080000 		.4byte	0x894
 2048 0b2f 20000000 		.4byte	.LBB59
 2049 0b33 10000000 		.4byte	.LBE59-.LBB59
 2050 0b37 0A       		.byte	0xa
 2051 0b38 CC01     		.2byte	0x1cc
 2052 0b3a 27       		.uleb128 0x27
 2053 0b3b A1080000 		.4byte	0x8a1
 2054 0b3f 00       		.byte	0
 2055 0b40 00       		.byte	0
 2056 0b41 00       		.byte	0
 2057 0b42 00       		.byte	0
 2058 0b43 24       		.uleb128 0x24
 2059 0b44 1A000000 		.4byte	.LVL11
 2060 0b48 270C0000 		.4byte	0xc27
 2061 0b4c 23       		.uleb128 0x23
 2062 0b4d 01       		.uleb128 0x1
 2063 0b4e 50       		.byte	0x50
 2064 0b4f 05       		.uleb128 0x5
 2065 0b50 03       		.byte	0x3
 2066 0b51 40000000 		.4byte	.LC8
 2067 0b55 00       		.byte	0
 2068 0b56 00       		.byte	0
 2069 0b57 21       		.uleb128 0x21
 2070 0b58 00030000 		.4byte	.LASF147
 2071 0b5c 01       		.byte	0x1
 2072 0b5d EB       		.byte	0xeb
 2073 0b5e 00000000 		.4byte	.LFB235
 2074 0b62 20000000 		.4byte	.LFE235-.LFB235
 2075 0b66 01       		.uleb128 0x1
 2076 0b67 9C       		.byte	0x9c
 2077 0b68 800B0000 		.4byte	0xb80
 2078 0b6c 22       		.uleb128 0x22
 2079 0b6d 16000000 		.4byte	.LVL13
 2080 0b71 270C0000 		.4byte	0xc27
 2081 0b75 23       		.uleb128 0x23
 2082 0b76 01       		.uleb128 0x1
 2083 0b77 50       		.byte	0x50
 2084 0b78 05       		.uleb128 0x5
 2085 0b79 03       		.byte	0x3
 2086 0b7a 48000000 		.4byte	.LC9
 2087 0b7e 00       		.byte	0
 2088 0b7f 00       		.byte	0
 2089 0b80 21       		.uleb128 0x21
 2090 0b81 1B060000 		.4byte	.LASF148
 2091 0b85 01       		.byte	0x1
 2092 0b86 FA       		.byte	0xfa
 2093 0b87 00000000 		.4byte	.LFB236
 2094 0b8b 1C000000 		.4byte	.LFE236-.LFB236
ARM GAS  C:\Users\jo\AppData\Local\Temp\ccy41mya.s 			page 38


 2095 0b8f 01       		.uleb128 0x1
 2096 0b90 9C       		.byte	0x9c
 2097 0b91 A90B0000 		.4byte	0xba9
 2098 0b95 22       		.uleb128 0x22
 2099 0b96 14000000 		.4byte	.LVL14
 2100 0b9a 270C0000 		.4byte	0xc27
 2101 0b9e 23       		.uleb128 0x23
 2102 0b9f 01       		.uleb128 0x1
 2103 0ba0 50       		.byte	0x50
 2104 0ba1 05       		.uleb128 0x5
 2105 0ba2 03       		.byte	0x3
 2106 0ba3 50000000 		.4byte	.LC10
 2107 0ba7 00       		.byte	0
 2108 0ba8 00       		.byte	0
 2109 0ba9 28       		.uleb128 0x28
 2110 0baa 8E050000 		.4byte	.LASF156
 2111 0bae 01       		.byte	0x1
 2112 0baf 0801     		.2byte	0x108
 2113 0bb1 00000000 		.4byte	.LFB237
 2114 0bb5 10000000 		.4byte	.LFE237-.LFB237
 2115 0bb9 01       		.uleb128 0x1
 2116 0bba 9C       		.byte	0x9c
 2117 0bbb 29       		.uleb128 0x29
 2118 0bbc EC060000 		.4byte	.LASF149
 2119 0bc0 01       		.byte	0x1
 2120 0bc1 1501     		.2byte	0x115
 2121 0bc3 00000000 		.4byte	.LFB238
 2122 0bc7 38000000 		.4byte	.LFE238-.LFB238
 2123 0bcb 01       		.uleb128 0x1
 2124 0bcc 9C       		.byte	0x9c
 2125 0bcd 100C0000 		.4byte	0xc10
 2126 0bd1 2A       		.uleb128 0x2a
 2127 0bd2 6F747000 		.ascii	"otp\000"
 2128 0bd6 01       		.byte	0x1
 2129 0bd7 1501     		.2byte	0x115
 2130 0bd9 E1060000 		.4byte	0x6e1
 2131 0bdd 01       		.uleb128 0x1
 2132 0bde 50       		.byte	0x50
 2133 0bdf 2B       		.uleb128 0x2b
 2134 0be0 EA080000 		.4byte	0x8ea
 2135 0be4 02000000 		.4byte	.LBB61
 2136 0be8 00000000 		.4byte	.Ldebug_ranges0+0
 2137 0bec 01       		.byte	0x1
 2138 0bed 1701     		.2byte	0x117
 2139 0bef 2C       		.uleb128 0x2c
 2140 0bf0 CC080000 		.4byte	0x8cc
 2141 0bf4 02000000 		.4byte	.LBB62
 2142 0bf8 00000000 		.4byte	.Ldebug_ranges0+0
 2143 0bfc 11       		.byte	0x11
 2144 0bfd E7       		.byte	0xe7
 2145 0bfe 2D       		.uleb128 0x2d
 2146 0bff C0080000 		.4byte	0x8c0
 2147 0c03 02000000 		.4byte	.LBB63
 2148 0c07 00000000 		.4byte	.Ldebug_ranges0+0
 2149 0c0b 10       		.byte	0x10
 2150 0c0c 6B       		.byte	0x6b
 2151 0c0d 00       		.byte	0
ARM GAS  C:\Users\jo\AppData\Local\Temp\ccy41mya.s 			page 39


 2152 0c0e 00       		.byte	0
 2153 0c0f 00       		.byte	0
 2154 0c10 2E       		.uleb128 0x2e
 2155 0c11 F5000000 		.4byte	.LASF150
 2156 0c15 12       		.byte	0x12
 2157 0c16 A706     		.2byte	0x6a7
 2158 0c18 C3000000 		.4byte	0xc3
 2159 0c1c 2F       		.uleb128 0x2f
 2160 0c1d 636800   		.ascii	"ch\000"
 2161 0c20 08       		.byte	0x8
 2162 0c21 EB01     		.2byte	0x1eb
 2163 0c23 25040000 		.4byte	0x425
 2164 0c27 30       		.uleb128 0x30
 2165 0c28 31020000 		.4byte	.LASF157
 2166 0c2c 13       		.byte	0x13
 2167 0c2d E6       		.byte	0xe6
 2168 0c2e 0D       		.uleb128 0xd
 2169 0c2f 9D060000 		.4byte	0x69d
 2170 0c33 00       		.byte	0
 2171 0c34 00       		.byte	0
 2172              		.section	.debug_abbrev,"",%progbits
 2173              	.Ldebug_abbrev0:
 2174 0000 01       		.uleb128 0x1
 2175 0001 11       		.uleb128 0x11
 2176 0002 01       		.byte	0x1
 2177 0003 25       		.uleb128 0x25
 2178 0004 0E       		.uleb128 0xe
 2179 0005 13       		.uleb128 0x13
 2180 0006 0B       		.uleb128 0xb
 2181 0007 03       		.uleb128 0x3
 2182 0008 0E       		.uleb128 0xe
 2183 0009 1B       		.uleb128 0x1b
 2184 000a 0E       		.uleb128 0xe
 2185 000b 55       		.uleb128 0x55
 2186 000c 17       		.uleb128 0x17
 2187 000d 11       		.uleb128 0x11
 2188 000e 01       		.uleb128 0x1
 2189 000f 10       		.uleb128 0x10
 2190 0010 17       		.uleb128 0x17
 2191 0011 00       		.byte	0
 2192 0012 00       		.byte	0
 2193 0013 02       		.uleb128 0x2
 2194 0014 24       		.uleb128 0x24
 2195 0015 00       		.byte	0
 2196 0016 0B       		.uleb128 0xb
 2197 0017 0B       		.uleb128 0xb
 2198 0018 3E       		.uleb128 0x3e
 2199 0019 0B       		.uleb128 0xb
 2200 001a 03       		.uleb128 0x3
 2201 001b 08       		.uleb128 0x8
 2202 001c 00       		.byte	0
 2203 001d 00       		.byte	0
 2204 001e 03       		.uleb128 0x3
 2205 001f 24       		.uleb128 0x24
 2206 0020 00       		.byte	0
 2207 0021 0B       		.uleb128 0xb
 2208 0022 0B       		.uleb128 0xb
ARM GAS  C:\Users\jo\AppData\Local\Temp\ccy41mya.s 			page 40


 2209 0023 3E       		.uleb128 0x3e
 2210 0024 0B       		.uleb128 0xb
 2211 0025 03       		.uleb128 0x3
 2212 0026 0E       		.uleb128 0xe
 2213 0027 00       		.byte	0
 2214 0028 00       		.byte	0
 2215 0029 04       		.uleb128 0x4
 2216 002a 16       		.uleb128 0x16
 2217 002b 00       		.byte	0
 2218 002c 03       		.uleb128 0x3
 2219 002d 0E       		.uleb128 0xe
 2220 002e 3A       		.uleb128 0x3a
 2221 002f 0B       		.uleb128 0xb
 2222 0030 3B       		.uleb128 0x3b
 2223 0031 0B       		.uleb128 0xb
 2224 0032 49       		.uleb128 0x49
 2225 0033 13       		.uleb128 0x13
 2226 0034 00       		.byte	0
 2227 0035 00       		.byte	0
 2228 0036 05       		.uleb128 0x5
 2229 0037 35       		.uleb128 0x35
 2230 0038 00       		.byte	0
 2231 0039 49       		.uleb128 0x49
 2232 003a 13       		.uleb128 0x13
 2233 003b 00       		.byte	0
 2234 003c 00       		.byte	0
 2235 003d 06       		.uleb128 0x6
 2236 003e 13       		.uleb128 0x13
 2237 003f 01       		.byte	0x1
 2238 0040 03       		.uleb128 0x3
 2239 0041 0E       		.uleb128 0xe
 2240 0042 0B       		.uleb128 0xb
 2241 0043 0B       		.uleb128 0xb
 2242 0044 3A       		.uleb128 0x3a
 2243 0045 0B       		.uleb128 0xb
 2244 0046 3B       		.uleb128 0x3b
 2245 0047 0B       		.uleb128 0xb
 2246 0048 01       		.uleb128 0x1
 2247 0049 13       		.uleb128 0x13
 2248 004a 00       		.byte	0
 2249 004b 00       		.byte	0
 2250 004c 07       		.uleb128 0x7
 2251 004d 0D       		.uleb128 0xd
 2252 004e 00       		.byte	0
 2253 004f 03       		.uleb128 0x3
 2254 0050 0E       		.uleb128 0xe
 2255 0051 3A       		.uleb128 0x3a
 2256 0052 0B       		.uleb128 0xb
 2257 0053 3B       		.uleb128 0x3b
 2258 0054 0B       		.uleb128 0xb
 2259 0055 49       		.uleb128 0x49
 2260 0056 13       		.uleb128 0x13
 2261 0057 38       		.uleb128 0x38
 2262 0058 0B       		.uleb128 0xb
 2263 0059 00       		.byte	0
 2264 005a 00       		.byte	0
 2265 005b 08       		.uleb128 0x8
ARM GAS  C:\Users\jo\AppData\Local\Temp\ccy41mya.s 			page 41


 2266 005c 0D       		.uleb128 0xd
 2267 005d 00       		.byte	0
 2268 005e 03       		.uleb128 0x3
 2269 005f 08       		.uleb128 0x8
 2270 0060 3A       		.uleb128 0x3a
 2271 0061 0B       		.uleb128 0xb
 2272 0062 3B       		.uleb128 0x3b
 2273 0063 05       		.uleb128 0x5
 2274 0064 49       		.uleb128 0x49
 2275 0065 13       		.uleb128 0x13
 2276 0066 38       		.uleb128 0x38
 2277 0067 0B       		.uleb128 0xb
 2278 0068 00       		.byte	0
 2279 0069 00       		.byte	0
 2280 006a 09       		.uleb128 0x9
 2281 006b 0D       		.uleb128 0xd
 2282 006c 00       		.byte	0
 2283 006d 03       		.uleb128 0x3
 2284 006e 0E       		.uleb128 0xe
 2285 006f 3A       		.uleb128 0x3a
 2286 0070 0B       		.uleb128 0xb
 2287 0071 3B       		.uleb128 0x3b
 2288 0072 05       		.uleb128 0x5
 2289 0073 49       		.uleb128 0x49
 2290 0074 13       		.uleb128 0x13
 2291 0075 38       		.uleb128 0x38
 2292 0076 0B       		.uleb128 0xb
 2293 0077 00       		.byte	0
 2294 0078 00       		.byte	0
 2295 0079 0A       		.uleb128 0xa
 2296 007a 13       		.uleb128 0x13
 2297 007b 01       		.byte	0x1
 2298 007c 03       		.uleb128 0x3
 2299 007d 0E       		.uleb128 0xe
 2300 007e 0B       		.uleb128 0xb
 2301 007f 0B       		.uleb128 0xb
 2302 0080 3A       		.uleb128 0x3a
 2303 0081 0B       		.uleb128 0xb
 2304 0082 3B       		.uleb128 0x3b
 2305 0083 05       		.uleb128 0x5
 2306 0084 01       		.uleb128 0x1
 2307 0085 13       		.uleb128 0x13
 2308 0086 00       		.byte	0
 2309 0087 00       		.byte	0
 2310 0088 0B       		.uleb128 0xb
 2311 0089 0F       		.uleb128 0xf
 2312 008a 00       		.byte	0
 2313 008b 0B       		.uleb128 0xb
 2314 008c 0B       		.uleb128 0xb
 2315 008d 49       		.uleb128 0x49
 2316 008e 13       		.uleb128 0x13
 2317 008f 00       		.byte	0
 2318 0090 00       		.byte	0
 2319 0091 0C       		.uleb128 0xc
 2320 0092 15       		.uleb128 0x15
 2321 0093 01       		.byte	0x1
 2322 0094 27       		.uleb128 0x27
ARM GAS  C:\Users\jo\AppData\Local\Temp\ccy41mya.s 			page 42


 2323 0095 19       		.uleb128 0x19
 2324 0096 01       		.uleb128 0x1
 2325 0097 13       		.uleb128 0x13
 2326 0098 00       		.byte	0
 2327 0099 00       		.byte	0
 2328 009a 0D       		.uleb128 0xd
 2329 009b 05       		.uleb128 0x5
 2330 009c 00       		.byte	0
 2331 009d 49       		.uleb128 0x49
 2332 009e 13       		.uleb128 0x13
 2333 009f 00       		.byte	0
 2334 00a0 00       		.byte	0
 2335 00a1 0E       		.uleb128 0xe
 2336 00a2 0F       		.uleb128 0xf
 2337 00a3 00       		.byte	0
 2338 00a4 0B       		.uleb128 0xb
 2339 00a5 0B       		.uleb128 0xb
 2340 00a6 00       		.byte	0
 2341 00a7 00       		.byte	0
 2342 00a8 0F       		.uleb128 0xf
 2343 00a9 13       		.uleb128 0x13
 2344 00aa 01       		.byte	0x1
 2345 00ab 03       		.uleb128 0x3
 2346 00ac 0E       		.uleb128 0xe
 2347 00ad 0B       		.uleb128 0xb
 2348 00ae 05       		.uleb128 0x5
 2349 00af 3A       		.uleb128 0x3a
 2350 00b0 0B       		.uleb128 0xb
 2351 00b1 3B       		.uleb128 0x3b
 2352 00b2 05       		.uleb128 0x5
 2353 00b3 01       		.uleb128 0x1
 2354 00b4 13       		.uleb128 0x13
 2355 00b5 00       		.byte	0
 2356 00b6 00       		.byte	0
 2357 00b7 10       		.uleb128 0x10
 2358 00b8 0D       		.uleb128 0xd
 2359 00b9 00       		.byte	0
 2360 00ba 03       		.uleb128 0x3
 2361 00bb 0E       		.uleb128 0xe
 2362 00bc 3A       		.uleb128 0x3a
 2363 00bd 0B       		.uleb128 0xb
 2364 00be 3B       		.uleb128 0x3b
 2365 00bf 05       		.uleb128 0x5
 2366 00c0 49       		.uleb128 0x49
 2367 00c1 13       		.uleb128 0x13
 2368 00c2 38       		.uleb128 0x38
 2369 00c3 05       		.uleb128 0x5
 2370 00c4 00       		.byte	0
 2371 00c5 00       		.byte	0
 2372 00c6 11       		.uleb128 0x11
 2373 00c7 0D       		.uleb128 0xd
 2374 00c8 00       		.byte	0
 2375 00c9 03       		.uleb128 0x3
 2376 00ca 08       		.uleb128 0x8
 2377 00cb 3A       		.uleb128 0x3a
 2378 00cc 0B       		.uleb128 0xb
 2379 00cd 3B       		.uleb128 0x3b
ARM GAS  C:\Users\jo\AppData\Local\Temp\ccy41mya.s 			page 43


 2380 00ce 05       		.uleb128 0x5
 2381 00cf 49       		.uleb128 0x49
 2382 00d0 13       		.uleb128 0x13
 2383 00d1 38       		.uleb128 0x38
 2384 00d2 05       		.uleb128 0x5
 2385 00d3 00       		.byte	0
 2386 00d4 00       		.byte	0
 2387 00d5 12       		.uleb128 0x12
 2388 00d6 01       		.uleb128 0x1
 2389 00d7 01       		.byte	0x1
 2390 00d8 49       		.uleb128 0x49
 2391 00d9 13       		.uleb128 0x13
 2392 00da 01       		.uleb128 0x1
 2393 00db 13       		.uleb128 0x13
 2394 00dc 00       		.byte	0
 2395 00dd 00       		.byte	0
 2396 00de 13       		.uleb128 0x13
 2397 00df 21       		.uleb128 0x21
 2398 00e0 00       		.byte	0
 2399 00e1 49       		.uleb128 0x49
 2400 00e2 13       		.uleb128 0x13
 2401 00e3 2F       		.uleb128 0x2f
 2402 00e4 0B       		.uleb128 0xb
 2403 00e5 00       		.byte	0
 2404 00e6 00       		.byte	0
 2405 00e7 14       		.uleb128 0x14
 2406 00e8 0D       		.uleb128 0xd
 2407 00e9 00       		.byte	0
 2408 00ea 03       		.uleb128 0x3
 2409 00eb 08       		.uleb128 0x8
 2410 00ec 3A       		.uleb128 0x3a
 2411 00ed 0B       		.uleb128 0xb
 2412 00ee 3B       		.uleb128 0x3b
 2413 00ef 0B       		.uleb128 0xb
 2414 00f0 49       		.uleb128 0x49
 2415 00f1 13       		.uleb128 0x13
 2416 00f2 38       		.uleb128 0x38
 2417 00f3 0B       		.uleb128 0xb
 2418 00f4 00       		.byte	0
 2419 00f5 00       		.byte	0
 2420 00f6 15       		.uleb128 0x15
 2421 00f7 13       		.uleb128 0x13
 2422 00f8 01       		.byte	0x1
 2423 00f9 0B       		.uleb128 0xb
 2424 00fa 0B       		.uleb128 0xb
 2425 00fb 3A       		.uleb128 0x3a
 2426 00fc 0B       		.uleb128 0xb
 2427 00fd 3B       		.uleb128 0x3b
 2428 00fe 05       		.uleb128 0x5
 2429 00ff 01       		.uleb128 0x1
 2430 0100 13       		.uleb128 0x13
 2431 0101 00       		.byte	0
 2432 0102 00       		.byte	0
 2433 0103 16       		.uleb128 0x16
 2434 0104 16       		.uleb128 0x16
 2435 0105 00       		.byte	0
 2436 0106 03       		.uleb128 0x3
ARM GAS  C:\Users\jo\AppData\Local\Temp\ccy41mya.s 			page 44


 2437 0107 0E       		.uleb128 0xe
 2438 0108 3A       		.uleb128 0x3a
 2439 0109 0B       		.uleb128 0xb
 2440 010a 3B       		.uleb128 0x3b
 2441 010b 05       		.uleb128 0x5
 2442 010c 49       		.uleb128 0x49
 2443 010d 13       		.uleb128 0x13
 2444 010e 00       		.byte	0
 2445 010f 00       		.byte	0
 2446 0110 17       		.uleb128 0x17
 2447 0111 26       		.uleb128 0x26
 2448 0112 00       		.byte	0
 2449 0113 49       		.uleb128 0x49
 2450 0114 13       		.uleb128 0x13
 2451 0115 00       		.byte	0
 2452 0116 00       		.byte	0
 2453 0117 18       		.uleb128 0x18
 2454 0118 13       		.uleb128 0x13
 2455 0119 01       		.byte	0x1
 2456 011a 0B       		.uleb128 0xb
 2457 011b 0B       		.uleb128 0xb
 2458 011c 3A       		.uleb128 0x3a
 2459 011d 0B       		.uleb128 0xb
 2460 011e 3B       		.uleb128 0x3b
 2461 011f 0B       		.uleb128 0xb
 2462 0120 01       		.uleb128 0x1
 2463 0121 13       		.uleb128 0x13
 2464 0122 00       		.byte	0
 2465 0123 00       		.byte	0
 2466 0124 19       		.uleb128 0x19
 2467 0125 13       		.uleb128 0x13
 2468 0126 01       		.byte	0x1
 2469 0127 0B       		.uleb128 0xb
 2470 0128 05       		.uleb128 0x5
 2471 0129 3A       		.uleb128 0x3a
 2472 012a 0B       		.uleb128 0xb
 2473 012b 3B       		.uleb128 0x3b
 2474 012c 0B       		.uleb128 0xb
 2475 012d 01       		.uleb128 0x1
 2476 012e 13       		.uleb128 0x13
 2477 012f 00       		.byte	0
 2478 0130 00       		.byte	0
 2479 0131 1A       		.uleb128 0x1a
 2480 0132 17       		.uleb128 0x17
 2481 0133 01       		.byte	0x1
 2482 0134 0B       		.uleb128 0xb
 2483 0135 0B       		.uleb128 0xb
 2484 0136 3A       		.uleb128 0x3a
 2485 0137 0B       		.uleb128 0xb
 2486 0138 3B       		.uleb128 0x3b
 2487 0139 0B       		.uleb128 0xb
 2488 013a 01       		.uleb128 0x1
 2489 013b 13       		.uleb128 0x13
 2490 013c 00       		.byte	0
 2491 013d 00       		.byte	0
 2492 013e 1B       		.uleb128 0x1b
 2493 013f 0D       		.uleb128 0xd
ARM GAS  C:\Users\jo\AppData\Local\Temp\ccy41mya.s 			page 45


 2494 0140 00       		.byte	0
 2495 0141 03       		.uleb128 0x3
 2496 0142 0E       		.uleb128 0xe
 2497 0143 3A       		.uleb128 0x3a
 2498 0144 0B       		.uleb128 0xb
 2499 0145 3B       		.uleb128 0x3b
 2500 0146 0B       		.uleb128 0xb
 2501 0147 49       		.uleb128 0x49
 2502 0148 13       		.uleb128 0x13
 2503 0149 00       		.byte	0
 2504 014a 00       		.byte	0
 2505 014b 1C       		.uleb128 0x1c
 2506 014c 0D       		.uleb128 0xd
 2507 014d 00       		.byte	0
 2508 014e 03       		.uleb128 0x3
 2509 014f 0E       		.uleb128 0xe
 2510 0150 3A       		.uleb128 0x3a
 2511 0151 0B       		.uleb128 0xb
 2512 0152 3B       		.uleb128 0x3b
 2513 0153 05       		.uleb128 0x5
 2514 0154 49       		.uleb128 0x49
 2515 0155 13       		.uleb128 0x13
 2516 0156 00       		.byte	0
 2517 0157 00       		.byte	0
 2518 0158 1D       		.uleb128 0x1d
 2519 0159 2E       		.uleb128 0x2e
 2520 015a 01       		.byte	0x1
 2521 015b 03       		.uleb128 0x3
 2522 015c 0E       		.uleb128 0xe
 2523 015d 3A       		.uleb128 0x3a
 2524 015e 0B       		.uleb128 0xb
 2525 015f 3B       		.uleb128 0x3b
 2526 0160 05       		.uleb128 0x5
 2527 0161 27       		.uleb128 0x27
 2528 0162 19       		.uleb128 0x19
 2529 0163 20       		.uleb128 0x20
 2530 0164 0B       		.uleb128 0xb
 2531 0165 01       		.uleb128 0x1
 2532 0166 13       		.uleb128 0x13
 2533 0167 00       		.byte	0
 2534 0168 00       		.byte	0
 2535 0169 1E       		.uleb128 0x1e
 2536 016a 05       		.uleb128 0x5
 2537 016b 00       		.byte	0
 2538 016c 03       		.uleb128 0x3
 2539 016d 0E       		.uleb128 0xe
 2540 016e 3A       		.uleb128 0x3a
 2541 016f 0B       		.uleb128 0xb
 2542 0170 3B       		.uleb128 0x3b
 2543 0171 05       		.uleb128 0x5
 2544 0172 49       		.uleb128 0x49
 2545 0173 13       		.uleb128 0x13
 2546 0174 00       		.byte	0
 2547 0175 00       		.byte	0
 2548 0176 1F       		.uleb128 0x1f
 2549 0177 2E       		.uleb128 0x2e
 2550 0178 00       		.byte	0
ARM GAS  C:\Users\jo\AppData\Local\Temp\ccy41mya.s 			page 46


 2551 0179 03       		.uleb128 0x3
 2552 017a 0E       		.uleb128 0xe
 2553 017b 3A       		.uleb128 0x3a
 2554 017c 0B       		.uleb128 0xb
 2555 017d 3B       		.uleb128 0x3b
 2556 017e 05       		.uleb128 0x5
 2557 017f 27       		.uleb128 0x27
 2558 0180 19       		.uleb128 0x19
 2559 0181 20       		.uleb128 0x20
 2560 0182 0B       		.uleb128 0xb
 2561 0183 00       		.byte	0
 2562 0184 00       		.byte	0
 2563 0185 20       		.uleb128 0x20
 2564 0186 2E       		.uleb128 0x2e
 2565 0187 00       		.byte	0
 2566 0188 03       		.uleb128 0x3
 2567 0189 0E       		.uleb128 0xe
 2568 018a 3A       		.uleb128 0x3a
 2569 018b 0B       		.uleb128 0xb
 2570 018c 3B       		.uleb128 0x3b
 2571 018d 0B       		.uleb128 0xb
 2572 018e 27       		.uleb128 0x27
 2573 018f 19       		.uleb128 0x19
 2574 0190 49       		.uleb128 0x49
 2575 0191 13       		.uleb128 0x13
 2576 0192 20       		.uleb128 0x20
 2577 0193 0B       		.uleb128 0xb
 2578 0194 00       		.byte	0
 2579 0195 00       		.byte	0
 2580 0196 21       		.uleb128 0x21
 2581 0197 2E       		.uleb128 0x2e
 2582 0198 01       		.byte	0x1
 2583 0199 3F       		.uleb128 0x3f
 2584 019a 19       		.uleb128 0x19
 2585 019b 03       		.uleb128 0x3
 2586 019c 0E       		.uleb128 0xe
 2587 019d 3A       		.uleb128 0x3a
 2588 019e 0B       		.uleb128 0xb
 2589 019f 3B       		.uleb128 0x3b
 2590 01a0 0B       		.uleb128 0xb
 2591 01a1 27       		.uleb128 0x27
 2592 01a2 19       		.uleb128 0x19
 2593 01a3 11       		.uleb128 0x11
 2594 01a4 01       		.uleb128 0x1
 2595 01a5 12       		.uleb128 0x12
 2596 01a6 06       		.uleb128 0x6
 2597 01a7 40       		.uleb128 0x40
 2598 01a8 18       		.uleb128 0x18
 2599 01a9 9742     		.uleb128 0x2117
 2600 01ab 19       		.uleb128 0x19
 2601 01ac 01       		.uleb128 0x1
 2602 01ad 13       		.uleb128 0x13
 2603 01ae 00       		.byte	0
 2604 01af 00       		.byte	0
 2605 01b0 22       		.uleb128 0x22
 2606 01b1 898201   		.uleb128 0x4109
 2607 01b4 01       		.byte	0x1
ARM GAS  C:\Users\jo\AppData\Local\Temp\ccy41mya.s 			page 47


 2608 01b5 11       		.uleb128 0x11
 2609 01b6 01       		.uleb128 0x1
 2610 01b7 9542     		.uleb128 0x2115
 2611 01b9 19       		.uleb128 0x19
 2612 01ba 31       		.uleb128 0x31
 2613 01bb 13       		.uleb128 0x13
 2614 01bc 00       		.byte	0
 2615 01bd 00       		.byte	0
 2616 01be 23       		.uleb128 0x23
 2617 01bf 8A8201   		.uleb128 0x410a
 2618 01c2 00       		.byte	0
 2619 01c3 02       		.uleb128 0x2
 2620 01c4 18       		.uleb128 0x18
 2621 01c5 9142     		.uleb128 0x2111
 2622 01c7 18       		.uleb128 0x18
 2623 01c8 00       		.byte	0
 2624 01c9 00       		.byte	0
 2625 01ca 24       		.uleb128 0x24
 2626 01cb 898201   		.uleb128 0x4109
 2627 01ce 01       		.byte	0x1
 2628 01cf 11       		.uleb128 0x11
 2629 01d0 01       		.uleb128 0x1
 2630 01d1 31       		.uleb128 0x31
 2631 01d2 13       		.uleb128 0x13
 2632 01d3 00       		.byte	0
 2633 01d4 00       		.byte	0
 2634 01d5 25       		.uleb128 0x25
 2635 01d6 1D       		.uleb128 0x1d
 2636 01d7 01       		.byte	0x1
 2637 01d8 31       		.uleb128 0x31
 2638 01d9 13       		.uleb128 0x13
 2639 01da 11       		.uleb128 0x11
 2640 01db 01       		.uleb128 0x1
 2641 01dc 12       		.uleb128 0x12
 2642 01dd 06       		.uleb128 0x6
 2643 01de 58       		.uleb128 0x58
 2644 01df 0B       		.uleb128 0xb
 2645 01e0 59       		.uleb128 0x59
 2646 01e1 0B       		.uleb128 0xb
 2647 01e2 01       		.uleb128 0x1
 2648 01e3 13       		.uleb128 0x13
 2649 01e4 00       		.byte	0
 2650 01e5 00       		.byte	0
 2651 01e6 26       		.uleb128 0x26
 2652 01e7 1D       		.uleb128 0x1d
 2653 01e8 01       		.byte	0x1
 2654 01e9 31       		.uleb128 0x31
 2655 01ea 13       		.uleb128 0x13
 2656 01eb 11       		.uleb128 0x11
 2657 01ec 01       		.uleb128 0x1
 2658 01ed 12       		.uleb128 0x12
 2659 01ee 06       		.uleb128 0x6
 2660 01ef 58       		.uleb128 0x58
 2661 01f0 0B       		.uleb128 0xb
 2662 01f1 59       		.uleb128 0x59
 2663 01f2 05       		.uleb128 0x5
 2664 01f3 00       		.byte	0
ARM GAS  C:\Users\jo\AppData\Local\Temp\ccy41mya.s 			page 48


 2665 01f4 00       		.byte	0
 2666 01f5 27       		.uleb128 0x27
 2667 01f6 05       		.uleb128 0x5
 2668 01f7 00       		.byte	0
 2669 01f8 31       		.uleb128 0x31
 2670 01f9 13       		.uleb128 0x13
 2671 01fa 1C       		.uleb128 0x1c
 2672 01fb 0B       		.uleb128 0xb
 2673 01fc 00       		.byte	0
 2674 01fd 00       		.byte	0
 2675 01fe 28       		.uleb128 0x28
 2676 01ff 2E       		.uleb128 0x2e
 2677 0200 00       		.byte	0
 2678 0201 3F       		.uleb128 0x3f
 2679 0202 19       		.uleb128 0x19
 2680 0203 03       		.uleb128 0x3
 2681 0204 0E       		.uleb128 0xe
 2682 0205 3A       		.uleb128 0x3a
 2683 0206 0B       		.uleb128 0xb
 2684 0207 3B       		.uleb128 0x3b
 2685 0208 05       		.uleb128 0x5
 2686 0209 27       		.uleb128 0x27
 2687 020a 19       		.uleb128 0x19
 2688 020b 11       		.uleb128 0x11
 2689 020c 01       		.uleb128 0x1
 2690 020d 12       		.uleb128 0x12
 2691 020e 06       		.uleb128 0x6
 2692 020f 40       		.uleb128 0x40
 2693 0210 18       		.uleb128 0x18
 2694 0211 9742     		.uleb128 0x2117
 2695 0213 19       		.uleb128 0x19
 2696 0214 00       		.byte	0
 2697 0215 00       		.byte	0
 2698 0216 29       		.uleb128 0x29
 2699 0217 2E       		.uleb128 0x2e
 2700 0218 01       		.byte	0x1
 2701 0219 3F       		.uleb128 0x3f
 2702 021a 19       		.uleb128 0x19
 2703 021b 03       		.uleb128 0x3
 2704 021c 0E       		.uleb128 0xe
 2705 021d 3A       		.uleb128 0x3a
 2706 021e 0B       		.uleb128 0xb
 2707 021f 3B       		.uleb128 0x3b
 2708 0220 05       		.uleb128 0x5
 2709 0221 27       		.uleb128 0x27
 2710 0222 19       		.uleb128 0x19
 2711 0223 11       		.uleb128 0x11
 2712 0224 01       		.uleb128 0x1
 2713 0225 12       		.uleb128 0x12
 2714 0226 06       		.uleb128 0x6
 2715 0227 40       		.uleb128 0x40
 2716 0228 18       		.uleb128 0x18
 2717 0229 9742     		.uleb128 0x2117
 2718 022b 19       		.uleb128 0x19
 2719 022c 01       		.uleb128 0x1
 2720 022d 13       		.uleb128 0x13
 2721 022e 00       		.byte	0
ARM GAS  C:\Users\jo\AppData\Local\Temp\ccy41mya.s 			page 49


 2722 022f 00       		.byte	0
 2723 0230 2A       		.uleb128 0x2a
 2724 0231 05       		.uleb128 0x5
 2725 0232 00       		.byte	0
 2726 0233 03       		.uleb128 0x3
 2727 0234 08       		.uleb128 0x8
 2728 0235 3A       		.uleb128 0x3a
 2729 0236 0B       		.uleb128 0xb
 2730 0237 3B       		.uleb128 0x3b
 2731 0238 05       		.uleb128 0x5
 2732 0239 49       		.uleb128 0x49
 2733 023a 13       		.uleb128 0x13
 2734 023b 02       		.uleb128 0x2
 2735 023c 18       		.uleb128 0x18
 2736 023d 00       		.byte	0
 2737 023e 00       		.byte	0
 2738 023f 2B       		.uleb128 0x2b
 2739 0240 1D       		.uleb128 0x1d
 2740 0241 01       		.byte	0x1
 2741 0242 31       		.uleb128 0x31
 2742 0243 13       		.uleb128 0x13
 2743 0244 52       		.uleb128 0x52
 2744 0245 01       		.uleb128 0x1
 2745 0246 55       		.uleb128 0x55
 2746 0247 17       		.uleb128 0x17
 2747 0248 58       		.uleb128 0x58
 2748 0249 0B       		.uleb128 0xb
 2749 024a 59       		.uleb128 0x59
 2750 024b 05       		.uleb128 0x5
 2751 024c 00       		.byte	0
 2752 024d 00       		.byte	0
 2753 024e 2C       		.uleb128 0x2c
 2754 024f 1D       		.uleb128 0x1d
 2755 0250 01       		.byte	0x1
 2756 0251 31       		.uleb128 0x31
 2757 0252 13       		.uleb128 0x13
 2758 0253 52       		.uleb128 0x52
 2759 0254 01       		.uleb128 0x1
 2760 0255 55       		.uleb128 0x55
 2761 0256 17       		.uleb128 0x17
 2762 0257 58       		.uleb128 0x58
 2763 0258 0B       		.uleb128 0xb
 2764 0259 59       		.uleb128 0x59
 2765 025a 0B       		.uleb128 0xb
 2766 025b 00       		.byte	0
 2767 025c 00       		.byte	0
 2768 025d 2D       		.uleb128 0x2d
 2769 025e 1D       		.uleb128 0x1d
 2770 025f 00       		.byte	0
 2771 0260 31       		.uleb128 0x31
 2772 0261 13       		.uleb128 0x13
 2773 0262 52       		.uleb128 0x52
 2774 0263 01       		.uleb128 0x1
 2775 0264 55       		.uleb128 0x55
 2776 0265 17       		.uleb128 0x17
 2777 0266 58       		.uleb128 0x58
 2778 0267 0B       		.uleb128 0xb
ARM GAS  C:\Users\jo\AppData\Local\Temp\ccy41mya.s 			page 50


 2779 0268 59       		.uleb128 0x59
 2780 0269 0B       		.uleb128 0xb
 2781 026a 00       		.byte	0
 2782 026b 00       		.byte	0
 2783 026c 2E       		.uleb128 0x2e
 2784 026d 34       		.uleb128 0x34
 2785 026e 00       		.byte	0
 2786 026f 03       		.uleb128 0x3
 2787 0270 0E       		.uleb128 0xe
 2788 0271 3A       		.uleb128 0x3a
 2789 0272 0B       		.uleb128 0xb
 2790 0273 3B       		.uleb128 0x3b
 2791 0274 05       		.uleb128 0x5
 2792 0275 49       		.uleb128 0x49
 2793 0276 13       		.uleb128 0x13
 2794 0277 3F       		.uleb128 0x3f
 2795 0278 19       		.uleb128 0x19
 2796 0279 3C       		.uleb128 0x3c
 2797 027a 19       		.uleb128 0x19
 2798 027b 00       		.byte	0
 2799 027c 00       		.byte	0
 2800 027d 2F       		.uleb128 0x2f
 2801 027e 34       		.uleb128 0x34
 2802 027f 00       		.byte	0
 2803 0280 03       		.uleb128 0x3
 2804 0281 08       		.uleb128 0x8
 2805 0282 3A       		.uleb128 0x3a
 2806 0283 0B       		.uleb128 0xb
 2807 0284 3B       		.uleb128 0x3b
 2808 0285 05       		.uleb128 0x5
 2809 0286 49       		.uleb128 0x49
 2810 0287 13       		.uleb128 0x13
 2811 0288 3F       		.uleb128 0x3f
 2812 0289 19       		.uleb128 0x19
 2813 028a 3C       		.uleb128 0x3c
 2814 028b 19       		.uleb128 0x19
 2815 028c 00       		.byte	0
 2816 028d 00       		.byte	0
 2817 028e 30       		.uleb128 0x30
 2818 028f 2E       		.uleb128 0x2e
 2819 0290 01       		.byte	0x1
 2820 0291 3F       		.uleb128 0x3f
 2821 0292 19       		.uleb128 0x19
 2822 0293 03       		.uleb128 0x3
 2823 0294 0E       		.uleb128 0xe
 2824 0295 3A       		.uleb128 0x3a
 2825 0296 0B       		.uleb128 0xb
 2826 0297 3B       		.uleb128 0x3b
 2827 0298 0B       		.uleb128 0xb
 2828 0299 27       		.uleb128 0x27
 2829 029a 19       		.uleb128 0x19
 2830 029b 3C       		.uleb128 0x3c
 2831 029c 19       		.uleb128 0x19
 2832 029d 00       		.byte	0
 2833 029e 00       		.byte	0
 2834 029f 00       		.byte	0
 2835              		.section	.debug_aranges,"",%progbits
ARM GAS  C:\Users\jo\AppData\Local\Temp\ccy41mya.s 			page 51


 2836 0000 7C000000 		.4byte	0x7c
 2837 0004 0200     		.2byte	0x2
 2838 0006 00000000 		.4byte	.Ldebug_info0
 2839 000a 04       		.byte	0x4
 2840 000b 00       		.byte	0
 2841 000c 0000     		.2byte	0
 2842 000e 0000     		.2byte	0
 2843 0010 00000000 		.4byte	.LFB226
 2844 0014 1C000000 		.4byte	.LFE226-.LFB226
 2845 0018 00000000 		.4byte	.LFB227
 2846 001c 1C000000 		.4byte	.LFE227-.LFB227
 2847 0020 00000000 		.4byte	.LFB228
 2848 0024 1C000000 		.4byte	.LFE228-.LFB228
 2849 0028 00000000 		.4byte	.LFB229
 2850 002c 20000000 		.4byte	.LFE229-.LFB229
 2851 0030 00000000 		.4byte	.LFB230
 2852 0034 28000000 		.4byte	.LFE230-.LFB230
 2853 0038 00000000 		.4byte	.LFB231
 2854 003c 24000000 		.4byte	.LFE231-.LFB231
 2855 0040 00000000 		.4byte	.LFB232
 2856 0044 2C000000 		.4byte	.LFE232-.LFB232
 2857 0048 00000000 		.4byte	.LFB233
 2858 004c 30000000 		.4byte	.LFE233-.LFB233
 2859 0050 00000000 		.4byte	.LFB234
 2860 0054 30000000 		.4byte	.LFE234-.LFB234
 2861 0058 00000000 		.4byte	.LFB235
 2862 005c 20000000 		.4byte	.LFE235-.LFB235
 2863 0060 00000000 		.4byte	.LFB236
 2864 0064 1C000000 		.4byte	.LFE236-.LFB236
 2865 0068 00000000 		.4byte	.LFB237
 2866 006c 10000000 		.4byte	.LFE237-.LFB237
 2867 0070 00000000 		.4byte	.LFB238
 2868 0074 38000000 		.4byte	.LFE238-.LFB238
 2869 0078 00000000 		.4byte	0
 2870 007c 00000000 		.4byte	0
 2871              		.section	.debug_ranges,"",%progbits
 2872              	.Ldebug_ranges0:
 2873 0000 02000000 		.4byte	.LBB61
 2874 0004 06000000 		.4byte	.LBE61
 2875 0008 0A000000 		.4byte	.LBB68
 2876 000c 0C000000 		.4byte	.LBE68
 2877 0010 00000000 		.4byte	0
 2878 0014 00000000 		.4byte	0
 2879 0018 00000000 		.4byte	.LFB226
 2880 001c 1C000000 		.4byte	.LFE226
 2881 0020 00000000 		.4byte	.LFB227
 2882 0024 1C000000 		.4byte	.LFE227
 2883 0028 00000000 		.4byte	.LFB228
 2884 002c 1C000000 		.4byte	.LFE228
 2885 0030 00000000 		.4byte	.LFB229
 2886 0034 20000000 		.4byte	.LFE229
 2887 0038 00000000 		.4byte	.LFB230
 2888 003c 28000000 		.4byte	.LFE230
 2889 0040 00000000 		.4byte	.LFB231
 2890 0044 24000000 		.4byte	.LFE231
 2891 0048 00000000 		.4byte	.LFB232
 2892 004c 2C000000 		.4byte	.LFE232
ARM GAS  C:\Users\jo\AppData\Local\Temp\ccy41mya.s 			page 52


 2893 0050 00000000 		.4byte	.LFB233
 2894 0054 30000000 		.4byte	.LFE233
 2895 0058 00000000 		.4byte	.LFB234
 2896 005c 30000000 		.4byte	.LFE234
 2897 0060 00000000 		.4byte	.LFB235
 2898 0064 20000000 		.4byte	.LFE235
 2899 0068 00000000 		.4byte	.LFB236
 2900 006c 1C000000 		.4byte	.LFE236
 2901 0070 00000000 		.4byte	.LFB237
 2902 0074 10000000 		.4byte	.LFE237
 2903 0078 00000000 		.4byte	.LFB238
 2904 007c 38000000 		.4byte	.LFE238
 2905 0080 00000000 		.4byte	0
 2906 0084 00000000 		.4byte	0
 2907              		.section	.debug_line,"",%progbits
 2908              	.Ldebug_line0:
 2909 0000 EA030000 		.section	.debug_str,"MS",%progbits,1
 2909      02006302 
 2909      00000201 
 2909      FB0E0D00 
 2909      01010101 
 2910              	.LASF107:
 2911 0000 74625F70 		.ascii	"tb_ptr\000"
 2911      747200
 2912              	.LASF53:
 2913 0007 72656164 		.ascii	"ready_list_t\000"
 2913      795F6C69 
 2913      73745F74 
 2913      00
 2914              	.LASF91:
 2915 0014 44494552 		.ascii	"DIER\000"
 2915      00
 2916              	.LASF122:
 2917 0019 7264796D 		.ascii	"rdymsg\000"
 2917      736700
 2918              	.LASF16:
 2919 0020 75696E74 		.ascii	"uint64_t\000"
 2919      36345F74 
 2919      00
 2920              	.LASF83:
 2921 0029 6B65726E 		.ascii	"kernel_stats\000"
 2921      656C5F73 
 2921      74617473 
 2921      00
 2922              	.LASF5:
 2923 0036 5F5F7569 		.ascii	"__uint8_t\000"
 2923      6E74385F 
 2923      7400
 2924              	.LASF89:
 2925 0040 706F7274 		.ascii	"port_intctx\000"
 2925      5F696E74 
 2925      63747800 
 2926              	.LASF52:
 2927 004c 63685F74 		.ascii	"ch_threads_queue\000"
 2927      68726561 
 2927      64735F71 
 2927      75657565 
ARM GAS  C:\Users\jo\AppData\Local\Temp\ccy41mya.s 			page 53


 2927      00
 2928              	.LASF72:
 2929 005d 73797374 		.ascii	"system_debug_t\000"
 2929      656D5F64 
 2929      65627567 
 2929      5F7400
 2930              	.LASF131:
 2931 006c 706F7274 		.ascii	"port_lock\000"
 2931      5F6C6F63 
 2931      6B00
 2932              	.LASF113:
 2933 0076 776F7273 		.ascii	"worst\000"
 2933      7400
 2934              	.LASF116:
 2935 007c 74696D65 		.ascii	"time_measurement_t\000"
 2935      5F6D6561 
 2935      73757265 
 2935      6D656E74 
 2935      5F7400
 2936              	.LASF12:
 2937 008f 6C6F6E67 		.ascii	"long long unsigned int\000"
 2937      206C6F6E 
 2937      6720756E 
 2937      7369676E 
 2937      65642069 
 2938              	.LASF109:
 2939 00a6 63685F74 		.ascii	"ch_trace_buffer_t\000"
 2939      72616365 
 2939      5F627566 
 2939      6665725F 
 2939      7400
 2940              	.LASF104:
 2941 00b8 73655F73 		.ascii	"se_state\000"
 2941      74617465 
 2941      00
 2942              	.LASF123:
 2943 00c1 65786974 		.ascii	"exitcode\000"
 2943      636F6465 
 2943      00
 2944              	.LASF82:
 2945 00ca 6D61696E 		.ascii	"mainthread\000"
 2945      74687265 
 2945      616400
 2946              	.LASF6:
 2947 00d5 5F5F696E 		.ascii	"__int32_t\000"
 2947      7433325F 
 2947      7400
 2948              	.LASF69:
 2949 00df 76697274 		.ascii	"virtual_timers_list_t\000"
 2949      75616C5F 
 2949      74696D65 
 2949      72735F6C 
 2949      6973745F 
 2950              	.LASF150:
 2951 00f5 49544D5F 		.ascii	"ITM_RxBuffer\000"
 2951      52784275 
 2951      66666572 
ARM GAS  C:\Users\jo\AppData\Local\Temp\ccy41mya.s 			page 54


 2951      00
 2952              	.LASF95:
 2953 0102 42445452 		.ascii	"BDTR\000"
 2953      00
 2954              	.LASF18:
 2955 0107 72747469 		.ascii	"rttime_t\000"
 2955      6D655F74 
 2955      00
 2956              	.LASF31:
 2957 0110 705F7072 		.ascii	"p_prio\000"
 2957      696F00
 2958              	.LASF153:
 2959 0117 433A5C55 		.ascii	"C:\\Users\\jo\\Documents\\GitHub\\ChibiOS\\demos\\S"
 2959      73657273 
 2959      5C6A6F5C 
 2959      446F6375 
 2959      6D656E74 
 2960 0143 544D3332 		.ascii	"TM32\\RT-STM32F407-DISCOVERY-uHttp\000"
 2960      5C52542D 
 2960      53544D33 
 2960      32463430 
 2960      372D4449 
 2961              	.LASF92:
 2962 0165 43434D52 		.ascii	"CCMR1\000"
 2962      3100
 2963              	.LASF93:
 2964 016b 43434D52 		.ascii	"CCMR2\000"
 2964      3200
 2965              	.LASF97:
 2966 0171 43434D52 		.ascii	"CCMR3\000"
 2966      3300
 2967              	.LASF1:
 2968 0177 7369676E 		.ascii	"signed char\000"
 2968      65642063 
 2968      68617200 
 2969              	.LASF101:
 2970 0183 73655F74 		.ascii	"se_time\000"
 2970      696D6500 
 2971              	.LASF127:
 2972 018b 6D5F7175 		.ascii	"m_queue\000"
 2972      65756500 
 2973              	.LASF81:
 2974 0193 76746C69 		.ascii	"vtlist\000"
 2974      737400
 2975              	.LASF132:
 2976 019a 706F7274 		.ascii	"port_unlock\000"
 2976      5F756E6C 
 2976      6F636B00 
 2977              	.LASF140:
 2978 01a6 5F646267 		.ascii	"_dbg_check_enable\000"
 2978      5F636865 
 2978      636B5F65 
 2978      6E61626C 
 2978      6500
 2979              	.LASF79:
 2980 01b8 63685F73 		.ascii	"ch_system\000"
 2980      79737465 
ARM GAS  C:\Users\jo\AppData\Local\Temp\ccy41mya.s 			page 55


 2980      6D00
 2981              	.LASF7:
 2982 01c2 6C6F6E67 		.ascii	"long int\000"
 2982      20696E74 
 2982      00
 2983              	.LASF20:
 2984 01cb 74737461 		.ascii	"tstate_t\000"
 2984      74655F74 
 2984      00
 2985              	.LASF94:
 2986 01d4 43434552 		.ascii	"CCER\000"
 2986      00
 2987              	.LASF102:
 2988 01d9 73655F74 		.ascii	"se_tp\000"
 2988      7000
 2989              	.LASF10:
 2990 01df 6C6F6E67 		.ascii	"long long int\000"
 2990      206C6F6E 
 2990      6720696E 
 2990      7400
 2991              	.LASF33:
 2992 01ed 705F6E65 		.ascii	"p_newer\000"
 2992      77657200 
 2993              	.LASF4:
 2994 01f5 73686F72 		.ascii	"short unsigned int\000"
 2994      7420756E 
 2994      7369676E 
 2994      65642069 
 2994      6E7400
 2995              	.LASF106:
 2996 0208 74625F73 		.ascii	"tb_size\000"
 2996      697A6500 
 2997              	.LASF58:
 2998 0210 725F6E65 		.ascii	"r_newer\000"
 2998      77657200 
 2999              	.LASF46:
 3000 0218 705F6D70 		.ascii	"p_mpool\000"
 3000      6F6F6C00 
 3001              	.LASF86:
 3002 0220 72656761 		.ascii	"regarm_t\000"
 3002      726D5F74 
 3002      00
 3003              	.LASF65:
 3004 0229 76745F70 		.ascii	"vt_prev\000"
 3004      72657600 
 3005              	.LASF157:
 3006 0231 63685379 		.ascii	"chSysHalt\000"
 3006      7348616C 
 3006      7400
 3007              	.LASF73:
 3008 023b 63685F73 		.ascii	"ch_system_debug\000"
 3008      79737465 
 3008      6D5F6465 
 3008      62756700 
 3009              	.LASF130:
 3010 024b 6D757465 		.ascii	"mutex_t\000"
 3010      785F7400 
ARM GAS  C:\Users\jo\AppData\Local\Temp\ccy41mya.s 			page 56


 3011              	.LASF155:
 3012 0253 76616C75 		.ascii	"value\000"
 3012      6500
 3013              	.LASF76:
 3014 0259 6C6F636B 		.ascii	"lock_cnt\000"
 3014      5F636E74 
 3014      00
 3015              	.LASF84:
 3016 0262 69646C65 		.ascii	"idle_thread_wa\000"
 3016      5F746872 
 3016      6561645F 
 3016      776100
 3017              	.LASF25:
 3018 0271 636E745F 		.ascii	"cnt_t\000"
 3018      7400
 3019              	.LASF137:
 3020 0277 63685654 		.ascii	"chVTGetSystemTimeX\000"
 3020      47657453 
 3020      79737465 
 3020      6D54696D 
 3020      655800
 3021              	.LASF36:
 3022 028a 705F7374 		.ascii	"p_stklimit\000"
 3022      6B6C696D 
 3022      697400
 3023              	.LASF0:
 3024 0295 756E7369 		.ascii	"unsigned int\000"
 3024      676E6564 
 3024      20696E74 
 3024      00
 3025              	.LASF64:
 3026 02a2 76745F6E 		.ascii	"vt_next\000"
 3026      65787400 
 3027              	.LASF146:
 3028 02aa 5F646267 		.ascii	"_dbg_check_leave_isr\000"
 3028      5F636865 
 3028      636B5F6C 
 3028      65617665 
 3028      5F697372 
 3029              	.LASF41:
 3030 02bf 705F6D73 		.ascii	"p_msgqueue\000"
 3030      67717565 
 3030      756500
 3031              	.LASF117:
 3032 02ca 6E5F6972 		.ascii	"n_irq\000"
 3032      7100
 3033              	.LASF90:
 3034 02d0 534D4352 		.ascii	"SMCR\000"
 3034      00
 3035              	.LASF121:
 3036 02d5 6B65726E 		.ascii	"kernel_stats_t\000"
 3036      656C5F73 
 3036      74617473 
 3036      5F7400
 3037              	.LASF49:
 3038 02e4 63685F74 		.ascii	"ch_thread\000"
 3038      68726561 
ARM GAS  C:\Users\jo\AppData\Local\Temp\ccy41mya.s 			page 57


 3038      6400
 3039              	.LASF23:
 3040 02ee 6D73675F 		.ascii	"msg_t\000"
 3040      7400
 3041              	.LASF114:
 3042 02f4 6C617374 		.ascii	"last\000"
 3042      00
 3043              	.LASF26:
 3044 02f9 75636E74 		.ascii	"ucnt_t\000"
 3044      5F7400
 3045              	.LASF147:
 3046 0300 63684462 		.ascii	"chDbgCheckClassI\000"
 3046      67436865 
 3046      636B436C 
 3046      61737349 
 3046      00
 3047              	.LASF78:
 3048 0311 63685F73 		.ascii	"ch_system_t\000"
 3048      79737465 
 3048      6D5F7400 
 3049              	.LASF99:
 3050 031d 73746D33 		.ascii	"stm32_tim_t\000"
 3050      325F7469 
 3050      6D5F7400 
 3051              	.LASF152:
 3052 0329 2E2E2F2E 		.ascii	"../../../os/rt/src/chdebug.c\000"
 3052      2E2F2E2E 
 3052      2F6F732F 
 3052      72742F73 
 3052      72632F63 
 3053              	.LASF120:
 3054 0346 6D5F6372 		.ascii	"m_crit_isr\000"
 3054      69745F69 
 3054      737200
 3055              	.LASF54:
 3056 0351 63685F72 		.ascii	"ch_ready_list\000"
 3056      65616479 
 3056      5F6C6973 
 3056      7400
 3057              	.LASF24:
 3058 035f 6576656E 		.ascii	"eventmask_t\000"
 3058      746D6173 
 3058      6B5F7400 
 3059              	.LASF151:
 3060 036b 474E5520 		.ascii	"GNU C 4.9.3 20141119 (release) [ARM/embedded-4_9-br"
 3060      4320342E 
 3060      392E3320 
 3060      32303134 
 3060      31313139 
 3061 039e 616E6368 		.ascii	"anch revision 218278] -mcpu=cortex-m4 -mno-thumb-in"
 3061      20726576 
 3061      6973696F 
 3061      6E203231 
 3061      38323738 
 3062 03d1 74657277 		.ascii	"terwork -mthumb -ggdb -O2 -fomit-frame-pointer -fal"
 3062      6F726B20 
 3062      2D6D7468 
ARM GAS  C:\Users\jo\AppData\Local\Temp\ccy41mya.s 			page 58


 3062      756D6220 
 3062      2D676764 
 3063 0404 69676E2D 		.ascii	"ign-functions=16 -ffunction-sections -fdata-section"
 3063      66756E63 
 3063      74696F6E 
 3063      733D3136 
 3063      202D6666 
 3064 0437 73202D66 		.ascii	"s -fno-common\000"
 3064      6E6F2D63 
 3064      6F6D6D6F 
 3064      6E00
 3065              	.LASF87:
 3066 0445 73746B61 		.ascii	"stkalign_t\000"
 3066      6C69676E 
 3066      5F7400
 3067              	.LASF139:
 3068 0450 5F646267 		.ascii	"_dbg_check_suspend\000"
 3068      5F636865 
 3068      636B5F73 
 3068      75737065 
 3068      6E6400
 3069              	.LASF40:
 3070 0463 705F7761 		.ascii	"p_waiting\000"
 3070      6974696E 
 3070      6700
 3071              	.LASF85:
 3072 046d 73697A65 		.ascii	"sizetype\000"
 3072      74797065 
 3072      00
 3073              	.LASF141:
 3074 0476 5F646267 		.ascii	"_dbg_check_lock\000"
 3074      5F636865 
 3074      636B5F6C 
 3074      6F636B00 
 3075              	.LASF70:
 3076 0486 63685F76 		.ascii	"ch_virtual_timers_list\000"
 3076      69727475 
 3076      616C5F74 
 3076      696D6572 
 3076      735F6C69 
 3077              	.LASF105:
 3078 049d 63685F73 		.ascii	"ch_swc_event_t\000"
 3078      77635F65 
 3078      76656E74 
 3078      5F7400
 3079              	.LASF71:
 3080 04ac 76745F6C 		.ascii	"vt_lasttime\000"
 3080      61737474 
 3080      696D6500 
 3081              	.LASF145:
 3082 04b8 5F646267 		.ascii	"_dbg_check_enter_isr\000"
 3082      5F636865 
 3082      636B5F65 
 3082      6E746572 
 3082      5F697372 
 3083              	.LASF57:
 3084 04cd 725F6374 		.ascii	"r_ctx\000"
ARM GAS  C:\Users\jo\AppData\Local\Temp\ccy41mya.s 			page 59


 3084      7800
 3085              	.LASF111:
 3086 04d3 746D5F63 		.ascii	"tm_calibration_t\000"
 3086      616C6962 
 3086      72617469 
 3086      6F6E5F74 
 3086      00
 3087              	.LASF60:
 3088 04e4 725F6375 		.ascii	"r_current\000"
 3088      7272656E 
 3088      7400
 3089              	.LASF59:
 3090 04ee 725F6F6C 		.ascii	"r_older\000"
 3090      64657200 
 3091              	.LASF143:
 3092 04f6 5F646267 		.ascii	"_dbg_check_lock_from_isr\000"
 3092      5F636865 
 3092      636B5F6C 
 3092      6F636B5F 
 3092      66726F6D 
 3093              	.LASF11:
 3094 050f 5F5F7569 		.ascii	"__uint64_t\000"
 3094      6E743634 
 3094      5F7400
 3095              	.LASF115:
 3096 051a 63756D75 		.ascii	"cumulative\000"
 3096      6C617469 
 3096      766500
 3097              	.LASF21:
 3098 0525 74726566 		.ascii	"trefs_t\000"
 3098      735F7400 
 3099              	.LASF108:
 3100 052d 74625F62 		.ascii	"tb_buffer\000"
 3100      75666665 
 3100      7200
 3101              	.LASF138:
 3102 0537 5F646267 		.ascii	"_dbg_check_disable\000"
 3102      5F636865 
 3102      636B5F64 
 3102      69736162 
 3102      6C6500
 3103              	.LASF62:
 3104 054a 76697274 		.ascii	"virtual_timer_t\000"
 3104      75616C5F 
 3104      74696D65 
 3104      725F7400 
 3105              	.LASF30:
 3106 055a 705F7072 		.ascii	"p_prev\000"
 3106      657600
 3107              	.LASF22:
 3108 0561 74707269 		.ascii	"tprio_t\000"
 3108      6F5F7400 
 3109              	.LASF126:
 3110 0569 6D757465 		.ascii	"mutex\000"
 3110      7800
 3111              	.LASF118:
 3112 056f 6E5F6374 		.ascii	"n_ctxswc\000"
ARM GAS  C:\Users\jo\AppData\Local\Temp\ccy41mya.s 			page 60


 3112      78737763 
 3112      00
 3113              	.LASF14:
 3114 0578 696E7433 		.ascii	"int32_t\000"
 3114      325F7400 
 3115              	.LASF2:
 3116 0580 756E7369 		.ascii	"unsigned char\000"
 3116      676E6564 
 3116      20636861 
 3116      7200
 3117              	.LASF156:
 3118 058e 5F646267 		.ascii	"_dbg_trace_init\000"
 3118      5F747261 
 3118      63655F69 
 3118      6E697400 
 3119              	.LASF44:
 3120 059e 705F6D74 		.ascii	"p_mtxlist\000"
 3120      786C6973 
 3120      7400
 3121              	.LASF3:
 3122 05a8 73686F72 		.ascii	"short int\000"
 3122      7420696E 
 3122      7400
 3123              	.LASF37:
 3124 05b2 705F7374 		.ascii	"p_state\000"
 3124      61746500 
 3125              	.LASF34:
 3126 05ba 705F6F6C 		.ascii	"p_older\000"
 3126      64657200 
 3127              	.LASF56:
 3128 05c2 725F7072 		.ascii	"r_prio\000"
 3128      696F00
 3129              	.LASF125:
 3130 05c9 65776D61 		.ascii	"ewmask\000"
 3130      736B00
 3131              	.LASF29:
 3132 05d0 705F6E65 		.ascii	"p_next\000"
 3132      787400
 3133              	.LASF38:
 3134 05d7 705F666C 		.ascii	"p_flags\000"
 3134      61677300 
 3135              	.LASF47:
 3136 05df 705F7374 		.ascii	"p_stats\000"
 3136      61747300 
 3137              	.LASF63:
 3138 05e7 63685F76 		.ascii	"ch_virtual_timer\000"
 3138      69727475 
 3138      616C5F74 
 3138      696D6572 
 3138      00
 3139              	.LASF98:
 3140 05f8 43435852 		.ascii	"CCXR\000"
 3140      00
 3141              	.LASF43:
 3142 05fd 705F6570 		.ascii	"p_epending\000"
 3142      656E6469 
 3142      6E6700
ARM GAS  C:\Users\jo\AppData\Local\Temp\ccy41mya.s 			page 61


 3143              	.LASF133:
 3144 0608 73745F6C 		.ascii	"st_lld_get_counter\000"
 3144      6C645F67 
 3144      65745F63 
 3144      6F756E74 
 3144      657200
 3145              	.LASF148:
 3146 061b 63684462 		.ascii	"chDbgCheckClassS\000"
 3146      67436865 
 3146      636B436C 
 3146      61737353 
 3146      00
 3147              	.LASF15:
 3148 062c 75696E74 		.ascii	"uint32_t\000"
 3148      33325F74 
 3148      00
 3149              	.LASF55:
 3150 0635 725F7175 		.ascii	"r_queue\000"
 3150      65756500 
 3151              	.LASF66:
 3152 063d 76745F64 		.ascii	"vt_delta\000"
 3152      656C7461 
 3152      00
 3153              	.LASF50:
 3154 0646 63685F74 		.ascii	"ch_threads_list\000"
 3154      68726561 
 3154      64735F6C 
 3154      69737400 
 3155              	.LASF9:
 3156 0656 6C6F6E67 		.ascii	"long unsigned int\000"
 3156      20756E73 
 3156      69676E65 
 3156      6420696E 
 3156      7400
 3157              	.LASF100:
 3158 0668 63686172 		.ascii	"char\000"
 3158      00
 3159              	.LASF96:
 3160 066d 444D4152 		.ascii	"DMAR\000"
 3160      00
 3161              	.LASF136:
 3162 0672 706F7274 		.ascii	"port_unlock_from_isr\000"
 3162      5F756E6C 
 3162      6F636B5F 
 3162      66726F6D 
 3162      5F697372 
 3163              	.LASF28:
 3164 0687 74687265 		.ascii	"thread_t\000"
 3164      61645F74 
 3164      00
 3165              	.LASF112:
 3166 0690 62657374 		.ascii	"best\000"
 3166      00
 3167              	.LASF129:
 3168 0695 6D5F6E65 		.ascii	"m_next\000"
 3168      787400
 3169              	.LASF27:
ARM GAS  C:\Users\jo\AppData\Local\Temp\ccy41mya.s 			page 62


 3170 069c 73797374 		.ascii	"systime_t\000"
 3170      696D655F 
 3170      7400
 3171              	.LASF45:
 3172 06a6 705F7265 		.ascii	"p_realprio\000"
 3172      616C7072 
 3172      696F00
 3173              	.LASF61:
 3174 06b1 76746675 		.ascii	"vtfunc_t\000"
 3174      6E635F74 
 3174      00
 3175              	.LASF8:
 3176 06ba 5F5F7569 		.ascii	"__uint32_t\000"
 3176      6E743332 
 3176      5F7400
 3177              	.LASF154:
 3178 06c5 5F5F7365 		.ascii	"__set_BASEPRI\000"
 3178      745F4241 
 3178      53455052 
 3178      4900
 3179              	.LASF74:
 3180 06d3 70616E69 		.ascii	"panic_msg\000"
 3180      635F6D73 
 3180      6700
 3181              	.LASF110:
 3182 06dd 6F666673 		.ascii	"offset\000"
 3182      657400
 3183              	.LASF88:
 3184 06e4 636F6E74 		.ascii	"context\000"
 3184      65787400 
 3185              	.LASF149:
 3186 06ec 5F646267 		.ascii	"_dbg_trace\000"
 3186      5F747261 
 3186      636500
 3187              	.LASF134:
 3188 06f7 706F7274 		.ascii	"port_timer_get_time\000"
 3188      5F74696D 
 3188      65725F67 
 3188      65745F74 
 3188      696D6500 
 3189              	.LASF17:
 3190 070b 7274636E 		.ascii	"rtcnt_t\000"
 3190      745F7400 
 3191              	.LASF135:
 3192 0713 706F7274 		.ascii	"port_lock_from_isr\000"
 3192      5F6C6F63 
 3192      6B5F6672 
 3192      6F6D5F69 
 3192      737200
 3193              	.LASF68:
 3194 0726 76745F70 		.ascii	"vt_par\000"
 3194      617200
 3195              	.LASF144:
 3196 072d 5F646267 		.ascii	"_dbg_check_unlock_from_isr\000"
 3196      5F636865 
 3196      636B5F75 
 3196      6E6C6F63 
ARM GAS  C:\Users\jo\AppData\Local\Temp\ccy41mya.s 			page 63


 3196      6B5F6672 
 3197              	.LASF51:
 3198 0748 74687265 		.ascii	"threads_queue_t\000"
 3198      6164735F 
 3198      71756575 
 3198      655F7400 
 3199              	.LASF39:
 3200 0758 705F7265 		.ascii	"p_refs\000"
 3200      667300
 3201              	.LASF75:
 3202 075f 6973725F 		.ascii	"isr_cnt\000"
 3202      636E7400 
 3203              	.LASF80:
 3204 0767 726C6973 		.ascii	"rlist\000"
 3204      7400
 3205              	.LASF13:
 3206 076d 75696E74 		.ascii	"uint8_t\000"
 3206      385F7400 
 3207              	.LASF142:
 3208 0775 5F646267 		.ascii	"_dbg_check_unlock\000"
 3208      5F636865 
 3208      636B5F75 
 3208      6E6C6F63 
 3208      6B00
 3209              	.LASF124:
 3210 0787 77746F62 		.ascii	"wtobjp\000"
 3210      6A7000
 3211              	.LASF35:
 3212 078e 705F6E61 		.ascii	"p_name\000"
 3212      6D6500
 3213              	.LASF48:
 3214 0795 74687265 		.ascii	"threads_list_t\000"
 3214      6164735F 
 3214      6C697374 
 3214      5F7400
 3215              	.LASF19:
 3216 07a4 746D6F64 		.ascii	"tmode_t\000"
 3216      655F7400 
 3217              	.LASF77:
 3218 07ac 74726163 		.ascii	"trace_buffer\000"
 3218      655F6275 
 3218      66666572 
 3218      00
 3219              	.LASF42:
 3220 07b9 705F6D73 		.ascii	"p_msg\000"
 3220      6700
 3221              	.LASF119:
 3222 07bf 6D5F6372 		.ascii	"m_crit_thd\000"
 3222      69745F74 
 3222      686400
 3223              	.LASF128:
 3224 07ca 6D5F6F77 		.ascii	"m_owner\000"
 3224      6E657200 
 3225              	.LASF103:
 3226 07d2 73655F77 		.ascii	"se_wtobjp\000"
 3226      746F626A 
 3226      7000
ARM GAS  C:\Users\jo\AppData\Local\Temp\ccy41mya.s 			page 64


 3227              	.LASF32:
 3228 07dc 705F6374 		.ascii	"p_ctx\000"
 3228      7800
 3229              	.LASF67:
 3230 07e2 76745F66 		.ascii	"vt_func\000"
 3230      756E6300 
 3231              		.ident	"GCC: (GNU Tools for ARM Embedded Processors) 4.9.3 20141119 (release) [ARM/embedded-4_9-br
ARM GAS  C:\Users\jo\AppData\Local\Temp\ccy41mya.s 			page 65


DEFINED SYMBOLS
                            *ABS*:00000000 chdebug.c
C:\Users\jo\AppData\Local\Temp\ccy41mya.s:19     .text._dbg_check_disable:00000000 $t
C:\Users\jo\AppData\Local\Temp\ccy41mya.s:25     .text._dbg_check_disable:00000000 _dbg_check_disable
C:\Users\jo\AppData\Local\Temp\ccy41mya.s:50     .text._dbg_check_disable:00000014 $d
C:\Users\jo\AppData\Local\Temp\ccy41mya.s:56     .text._dbg_check_suspend:00000000 $t
C:\Users\jo\AppData\Local\Temp\ccy41mya.s:62     .text._dbg_check_suspend:00000000 _dbg_check_suspend
C:\Users\jo\AppData\Local\Temp\ccy41mya.s:86     .text._dbg_check_suspend:00000014 $d
C:\Users\jo\AppData\Local\Temp\ccy41mya.s:92     .text._dbg_check_enable:00000000 $t
C:\Users\jo\AppData\Local\Temp\ccy41mya.s:98     .text._dbg_check_enable:00000000 _dbg_check_enable
C:\Users\jo\AppData\Local\Temp\ccy41mya.s:122    .text._dbg_check_enable:00000014 $d
C:\Users\jo\AppData\Local\Temp\ccy41mya.s:128    .text._dbg_check_lock:00000000 $t
C:\Users\jo\AppData\Local\Temp\ccy41mya.s:134    .text._dbg_check_lock:00000000 _dbg_check_lock
C:\Users\jo\AppData\Local\Temp\ccy41mya.s:164    .text._dbg_check_lock:00000018 $d
C:\Users\jo\AppData\Local\Temp\ccy41mya.s:170    .text._dbg_check_unlock:00000000 $t
C:\Users\jo\AppData\Local\Temp\ccy41mya.s:176    .text._dbg_check_unlock:00000000 _dbg_check_unlock
C:\Users\jo\AppData\Local\Temp\ccy41mya.s:210    .text._dbg_check_unlock:00000020 $d
C:\Users\jo\AppData\Local\Temp\ccy41mya.s:216    .text._dbg_check_lock_from_isr:00000000 $t
C:\Users\jo\AppData\Local\Temp\ccy41mya.s:222    .text._dbg_check_lock_from_isr:00000000 _dbg_check_lock_from_isr
C:\Users\jo\AppData\Local\Temp\ccy41mya.s:253    .text._dbg_check_lock_from_isr:0000001c $d
C:\Users\jo\AppData\Local\Temp\ccy41mya.s:259    .text._dbg_check_unlock_from_isr:00000000 $t
C:\Users\jo\AppData\Local\Temp\ccy41mya.s:265    .text._dbg_check_unlock_from_isr:00000000 _dbg_check_unlock_from_isr
C:\Users\jo\AppData\Local\Temp\ccy41mya.s:300    .text._dbg_check_unlock_from_isr:00000024 $d
C:\Users\jo\AppData\Local\Temp\ccy41mya.s:306    .text._dbg_check_enter_isr:00000000 $t
C:\Users\jo\AppData\Local\Temp\ccy41mya.s:312    .text._dbg_check_enter_isr:00000000 _dbg_check_enter_isr
C:\Users\jo\AppData\Local\Temp\ccy41mya.s:371    .text._dbg_check_enter_isr:00000028 $d
C:\Users\jo\AppData\Local\Temp\ccy41mya.s:381    .text._dbg_check_leave_isr:00000000 $t
C:\Users\jo\AppData\Local\Temp\ccy41mya.s:387    .text._dbg_check_leave_isr:00000000 _dbg_check_leave_isr
C:\Users\jo\AppData\Local\Temp\ccy41mya.s:445    .text._dbg_check_leave_isr:00000028 $d
C:\Users\jo\AppData\Local\Temp\ccy41mya.s:455    .text.chDbgCheckClassI:00000000 $t
C:\Users\jo\AppData\Local\Temp\ccy41mya.s:461    .text.chDbgCheckClassI:00000000 chDbgCheckClassI
C:\Users\jo\AppData\Local\Temp\ccy41mya.s:486    .text.chDbgCheckClassI:00000018 $d
C:\Users\jo\AppData\Local\Temp\ccy41mya.s:492    .text.chDbgCheckClassS:00000000 $t
C:\Users\jo\AppData\Local\Temp\ccy41mya.s:498    .text.chDbgCheckClassS:00000000 chDbgCheckClassS
C:\Users\jo\AppData\Local\Temp\ccy41mya.s:522    .text.chDbgCheckClassS:00000014 $d
C:\Users\jo\AppData\Local\Temp\ccy41mya.s:528    .text._dbg_trace_init:00000000 $t
C:\Users\jo\AppData\Local\Temp\ccy41mya.s:534    .text._dbg_trace_init:00000000 _dbg_trace_init
C:\Users\jo\AppData\Local\Temp\ccy41mya.s:554    .text._dbg_trace_init:0000000c $d
C:\Users\jo\AppData\Local\Temp\ccy41mya.s:559    .text._dbg_trace:00000000 $t
C:\Users\jo\AppData\Local\Temp\ccy41mya.s:565    .text._dbg_trace:00000000 _dbg_trace
C:\Users\jo\AppData\Local\Temp\ccy41mya.s:629    .text._dbg_trace:00000034 $d
C:\Users\jo\AppData\Local\Temp\ccy41mya.s:634    .rodata.str1.4:00000000 $d
                     .debug_frame:00000010 $d
C:\Users\jo\AppData\Local\Temp\ccy41mya.s:55     .text._dbg_check_disable:0000001c $t
C:\Users\jo\AppData\Local\Temp\ccy41mya.s:91     .text._dbg_check_suspend:0000001c $t
C:\Users\jo\AppData\Local\Temp\ccy41mya.s:127    .text._dbg_check_enable:0000001c $t
C:\Users\jo\AppData\Local\Temp\ccy41mya.s:215    .text._dbg_check_unlock:00000028 $t
C:\Users\jo\AppData\Local\Temp\ccy41mya.s:258    .text._dbg_check_lock_from_isr:00000024 $t
C:\Users\jo\AppData\Local\Temp\ccy41mya.s:305    .text._dbg_check_unlock_from_isr:0000002c $t
C:\Users\jo\AppData\Local\Temp\ccy41mya.s:527    .text.chDbgCheckClassS:0000001c $t
C:\Users\jo\AppData\Local\Temp\ccy41mya.s:633    .text._dbg_trace:00000038 $t

UNDEFINED SYMBOLS
chSysHalt
ch
