ARM GAS  C:\Users\jo\AppData\Local\Temp\cc9QcATg.s 			page 1


   1              		.syntax unified
   2              		.cpu cortex-m4
   3              		.fpu softvfp
   4              		.eabi_attribute 20, 1
   5              		.eabi_attribute 21, 1
   6              		.eabi_attribute 23, 3
   7              		.eabi_attribute 24, 1
   8              		.eabi_attribute 25, 1
   9              		.eabi_attribute 26, 1
  10              		.eabi_attribute 30, 2
  11              		.eabi_attribute 34, 1
  12              		.eabi_attribute 18, 4
  13              		.thumb
  14              		.file	"chdynamic.c"
  15              		.text
  16              	.Ltext0:
  17              		.cfi_sections	.debug_frame
  18              		.section	.text.chThdAddRef,"ax",%progbits
  19              		.align	2
  20              		.p2align 4,,15
  21              		.global	chThdAddRef
  22              		.thumb
  23              		.thumb_func
  24              		.type	chThdAddRef, %function
  25              	chThdAddRef:
  26              	.LFB226:
  27              		.file 1 "../../../os/rt/src/chdynamic.c"
  28              		.loc 1 68 0
  29              		.cfi_startproc
  30              		@ args = 0, pretend = 0, frame = 0
  31              		@ frame_needed = 0, uses_anonymous_args = 0
  32              	.LVL0:
  33 0000 10B5     		push	{r4, lr}
  34              		.cfi_def_cfa_offset 8
  35              		.cfi_offset 4, -8
  36              		.cfi_offset 14, -4
  37              	.LBB44:
  38              	.LBB45:
  39              	.LBB46:
  40              	.LBB47:
  41              	.LBB48:
  42              		.file 2 "../../../os/ext/CMSIS/include/core_cmFunc.h"
  43              		.loc 2 546 0
  44 0002 2023     		movs	r3, #32
  45              	.LBE48:
  46              	.LBE47:
  47              	.LBE46:
  48              	.LBE45:
  49              	.LBE44:
  50              		.loc 1 68 0
  51 0004 0446     		mov	r4, r0
  52              	.LBB53:
  53              	.LBB52:
  54              	.LBB51:
  55              	.LBB50:
  56              	.LBB49:
  57              		.loc 2 546 0
ARM GAS  C:\Users\jo\AppData\Local\Temp\cc9QcATg.s 			page 2


  58              	@ 546 "../../../os/ext/CMSIS/include/core_cmFunc.h" 1
  59 0006 83F31188 		MSR basepri, r3
  60              	@ 0 "" 2
  61              		.thumb
  62              	.LBE49:
  63              	.LBE50:
  64              	.LBE51:
  65              		.file 3 "../../../os/rt/include/chsys.h"
  66              		.loc 3 300 0
  67 000a FFF7FEFF 		bl	_stats_start_measure_crit_thd
  68              	.LVL1:
  69              		.loc 3 301 0
  70 000e FFF7FEFF 		bl	_dbg_check_lock
  71              	.LVL2:
  72              	.LBE52:
  73              	.LBE53:
  74              		.loc 1 71 0
  75 0012 94F82230 		ldrb	r3, [r4, #34]	@ zero_extendqisi2
  76 0016 FF2B     		cmp	r3, #255
  77 0018 19D0     		beq	.L6
  78              	.L2:
  79              		.loc 1 72 0
  80 001a 0133     		adds	r3, r3, #1
  81 001c 84F82230 		strb	r3, [r4, #34]
  82              	.LBB54:
  83              	.LBB55:
  84              		.loc 3 311 0
  85 0020 FFF7FEFF 		bl	_dbg_check_unlock
  86              	.LVL3:
  87              		.loc 3 312 0
  88 0024 FFF7FEFF 		bl	_stats_stop_measure_crit_thd
  89              	.LVL4:
  90              		.loc 3 318 0
  91 0028 0E4B     		ldr	r3, .L7
  92 002a 9A69     		ldr	r2, [r3, #24]
  93 002c 1B68     		ldr	r3, [r3]
  94 002e 9268     		ldr	r2, [r2, #8]
  95 0030 9B68     		ldr	r3, [r3, #8]
  96 0032 9A42     		cmp	r2, r3
  97 0034 06D2     		bcs	.L3
  98 0036 0C48     		ldr	r0, .L7+4
  99 0038 FFF7FEFF 		bl	puts
 100              	.LVL5:
 101              	@ 318 "../../../os/rt/include/chsys.h" 1
 102 003c 00BE     		BKPT #0
 103              	
 104              	@ 0 "" 2
 105              		.thumb
 106 003e 0B48     		ldr	r0, .L7+8
 107 0040 FFF7FEFF 		bl	chSysHalt
 108              	.LVL6:
 109              	.L3:
 110              	.LBB56:
 111              	.LBB57:
 112              	.LBB58:
 113              		.loc 2 546 0
 114 0044 0023     		movs	r3, #0
ARM GAS  C:\Users\jo\AppData\Local\Temp\cc9QcATg.s 			page 3


 115              	@ 546 "../../../os/ext/CMSIS/include/core_cmFunc.h" 1
 116 0046 83F31188 		MSR basepri, r3
 117              	@ 0 "" 2
 118              		.thumb
 119              	.LBE58:
 120              	.LBE57:
 121              	.LBE56:
 122              	.LBE55:
 123              	.LBE54:
 124              		.loc 1 75 0
 125 004a 2046     		mov	r0, r4
 126 004c 10BD     		pop	{r4, pc}
 127              	.LVL7:
 128              	.L6:
 129              		.loc 1 71 0 discriminator 1
 130 004e 0848     		ldr	r0, .L7+12
 131 0050 FFF7FEFF 		bl	puts
 132              	.LVL8:
 133              	@ 71 "../../../os/rt/src/chdynamic.c" 1
 134 0054 00BE     		BKPT #0
 135              	
 136              	@ 0 "" 2
 137              		.thumb
 138 0056 0748     		ldr	r0, .L7+16
 139 0058 FFF7FEFF 		bl	chSysHalt
 140              	.LVL9:
 141 005c 94F82230 		ldrb	r3, [r4, #34]	@ zero_extendqisi2
 142 0060 DBE7     		b	.L2
 143              	.L8:
 144 0062 00BF     		.align	2
 145              	.L7:
 146 0064 00000000 		.word	ch
 147 0068 14000000 		.word	.LC1
 148 006c 00000000 		.word	.LANCHOR1
 149 0070 00000000 		.word	.LC0
 150 0074 00000000 		.word	.LANCHOR0
 151              		.cfi_endproc
 152              	.LFE226:
 153              		.size	chThdAddRef, .-chThdAddRef
 154 0078 AFF30080 		.section	.text.chThdRelease,"ax",%progbits
 154      AFF30080 
 155              		.align	2
 156              		.p2align 4,,15
 157              		.global	chThdRelease
 158              		.thumb
 159              		.thumb_func
 160              		.type	chThdRelease, %function
 161              	chThdRelease:
 162              	.LFB227:
 163              		.loc 1 90 0
 164              		.cfi_startproc
 165              		@ args = 0, pretend = 0, frame = 0
 166              		@ frame_needed = 0, uses_anonymous_args = 0
 167              	.LVL10:
 168 0000 38B5     		push	{r3, r4, r5, lr}
 169              		.cfi_def_cfa_offset 16
 170              		.cfi_offset 3, -16
ARM GAS  C:\Users\jo\AppData\Local\Temp\cc9QcATg.s 			page 4


 171              		.cfi_offset 4, -12
 172              		.cfi_offset 5, -8
 173              		.cfi_offset 14, -4
 174              		.loc 1 90 0
 175 0002 0546     		mov	r5, r0
 176              	.LBB69:
 177              	.LBB70:
 178              	.LBB71:
 179              	.LBB72:
 180              	.LBB73:
 181              		.loc 2 546 0
 182 0004 2023     		movs	r3, #32
 183              	@ 546 "../../../os/ext/CMSIS/include/core_cmFunc.h" 1
 184 0006 83F31188 		MSR basepri, r3
 185              	@ 0 "" 2
 186              		.thumb
 187              	.LBE73:
 188              	.LBE72:
 189              	.LBE71:
 190              		.loc 3 300 0
 191 000a FFF7FEFF 		bl	_stats_start_measure_crit_thd
 192              	.LVL11:
 193              		.loc 3 301 0
 194 000e FFF7FEFF 		bl	_dbg_check_lock
 195              	.LVL12:
 196              	.LBE70:
 197              	.LBE69:
 198              		.loc 1 94 0
 199 0012 95F82230 		ldrb	r3, [r5, #34]	@ zero_extendqisi2
 200 0016 3BB3     		cbz	r3, .L16
 201              	.L10:
 202              		.loc 1 95 0
 203 0018 013B     		subs	r3, r3, #1
 204 001a DCB2     		uxtb	r4, r3
 205 001c 85F82240 		strb	r4, [r5, #34]
 206              	.LVL13:
 207              	.LBB74:
 208              	.LBB75:
 209              		.loc 3 311 0
 210 0020 FFF7FEFF 		bl	_dbg_check_unlock
 211              	.LVL14:
 212              		.loc 3 312 0
 213 0024 FFF7FEFF 		bl	_stats_stop_measure_crit_thd
 214              	.LVL15:
 215              		.loc 3 318 0
 216 0028 1F4B     		ldr	r3, .L18
 217 002a 9A69     		ldr	r2, [r3, #24]
 218 002c 1B68     		ldr	r3, [r3]
 219 002e 9268     		ldr	r2, [r2, #8]
 220 0030 9B68     		ldr	r3, [r3, #8]
 221 0032 9A42     		cmp	r2, r3
 222 0034 06D2     		bcs	.L11
 223 0036 1D48     		ldr	r0, .L18+4
 224 0038 FFF7FEFF 		bl	puts
 225              	.LVL16:
 226              	@ 318 "../../../os/rt/include/chsys.h" 1
 227 003c 00BE     		BKPT #0
ARM GAS  C:\Users\jo\AppData\Local\Temp\cc9QcATg.s 			page 5


 228              	
 229              	@ 0 "" 2
 230              		.thumb
 231 003e 1C48     		ldr	r0, .L18+8
 232 0040 FFF7FEFF 		bl	chSysHalt
 233              	.LVL17:
 234              	.L11:
 235              	.LBB76:
 236              	.LBB77:
 237              	.LBB78:
 238              		.loc 2 546 0
 239 0044 0023     		movs	r3, #0
 240              	@ 546 "../../../os/ext/CMSIS/include/core_cmFunc.h" 1
 241 0046 83F31188 		MSR basepri, r3
 242              	@ 0 "" 2
 243              		.thumb
 244              	.LBE78:
 245              	.LBE77:
 246              	.LBE76:
 247              	.LBE75:
 248              	.LBE74:
 249              		.loc 1 101 0
 250 004a 1CB9     		cbnz	r4, .L9
 251              		.loc 1 101 0 is_stmt 0 discriminator 1
 252 004c 95F82030 		ldrb	r3, [r5, #32]	@ zero_extendqisi2
 253 0050 0F2B     		cmp	r3, #15
 254 0052 00D0     		beq	.L17
 255              	.L9:
 256 0054 38BD     		pop	{r3, r4, r5, pc}
 257              	.LVL18:
 258              	.L17:
 259              		.loc 1 102 0 is_stmt 1
 260 0056 95F82130 		ldrb	r3, [r5, #33]	@ zero_extendqisi2
 261 005a 03F00303 		and	r3, r3, #3
 262 005e 012B     		cmp	r3, #1
 263 0060 0CD0     		beq	.L13
 264 0062 022B     		cmp	r3, #2
 265 0064 14D0     		beq	.L14
 266 0066 38BD     		pop	{r3, r4, r5, pc}
 267              	.LVL19:
 268              	.L16:
 269              		.loc 1 94 0 discriminator 1
 270 0068 1248     		ldr	r0, .L18+12
 271 006a FFF7FEFF 		bl	puts
 272              	.LVL20:
 273              	@ 94 "../../../os/rt/src/chdynamic.c" 1
 274 006e 00BE     		BKPT #0
 275              	
 276              	@ 0 "" 2
 277              		.thumb
 278 0070 1148     		ldr	r0, .L18+16
 279 0072 FFF7FEFF 		bl	chSysHalt
 280              	.LVL21:
 281 0076 95F82230 		ldrb	r3, [r5, #34]	@ zero_extendqisi2
 282 007a CDE7     		b	.L10
 283              	.LVL22:
 284              	.L13:
ARM GAS  C:\Users\jo\AppData\Local\Temp\cc9QcATg.s 			page 6


 285              		.loc 1 106 0
 286 007c 6B69     		ldr	r3, [r5, #20]
 287 007e 2A69     		ldr	r2, [r5, #16]
 288 0080 1A61     		str	r2, [r3, #16]
 289 0082 2A69     		ldr	r2, [r5, #16]
 290              		.loc 1 108 0
 291 0084 2846     		mov	r0, r5
 292              		.loc 1 106 0
 293 0086 5361     		str	r3, [r2, #20]
 294              		.loc 1 121 0
 295 0088 BDE83840 		pop	{r3, r4, r5, lr}
 296              		.cfi_remember_state
 297              		.cfi_restore 14
 298              		.cfi_restore 5
 299              		.cfi_restore 4
 300              		.cfi_restore 3
 301              		.cfi_def_cfa_offset 0
 302              	.LVL23:
 303              		.loc 1 108 0
 304 008c FFF7FEBF 		b	chHeapFree
 305              	.LVL24:
 306              	.L14:
 307              		.cfi_restore_state
 308              		.loc 1 114 0
 309 0090 6B69     		ldr	r3, [r5, #20]
 310 0092 2A69     		ldr	r2, [r5, #16]
 311 0094 1A61     		str	r2, [r3, #16]
 312 0096 2A69     		ldr	r2, [r5, #16]
 313              		.loc 1 116 0
 314 0098 686C     		ldr	r0, [r5, #68]
 315              		.loc 1 114 0
 316 009a 5361     		str	r3, [r2, #20]
 317              		.loc 1 116 0
 318 009c 2946     		mov	r1, r5
 319              		.loc 1 121 0
 320 009e BDE83840 		pop	{r3, r4, r5, lr}
 321              		.cfi_restore 14
 322              		.cfi_restore 5
 323              		.cfi_restore 4
 324              		.cfi_restore 3
 325              		.cfi_def_cfa_offset 0
 326              	.LVL25:
 327              		.loc 1 116 0
 328 00a2 FFF7FEBF 		b	chPoolFree
 329              	.LVL26:
 330              	.L19:
 331 00a6 00BF     		.align	2
 332              	.L18:
 333 00a8 00000000 		.word	ch
 334 00ac 14000000 		.word	.LC1
 335 00b0 00000000 		.word	.LANCHOR1
 336 00b4 3C000000 		.word	.LC2
 337 00b8 00000000 		.word	.LANCHOR2
 338              		.cfi_endproc
 339              	.LFE227:
 340              		.size	chThdRelease, .-chThdRelease
 341              		.section	.text.chThdCreateFromHeap,"ax",%progbits
ARM GAS  C:\Users\jo\AppData\Local\Temp\cc9QcATg.s 			page 7


 342              		.align	2
 343              		.p2align 4,,15
 344              		.global	chThdCreateFromHeap
 345              		.thumb
 346              		.thumb_func
 347              		.type	chThdCreateFromHeap, %function
 348              	chThdCreateFromHeap:
 349              	.LFB228:
 350              		.loc 1 147 0
 351              		.cfi_startproc
 352              		@ args = 4, pretend = 0, frame = 0
 353              		@ frame_needed = 0, uses_anonymous_args = 0
 354              	.LVL27:
 355 0000 2DE9F041 		push	{r4, r5, r6, r7, r8, lr}
 356              		.cfi_def_cfa_offset 24
 357              		.cfi_offset 4, -24
 358              		.cfi_offset 5, -20
 359              		.cfi_offset 6, -16
 360              		.cfi_offset 7, -12
 361              		.cfi_offset 8, -8
 362              		.cfi_offset 14, -4
 363 0004 82B0     		sub	sp, sp, #8
 364              		.cfi_def_cfa_offset 32
 365              		.loc 1 147 0
 366 0006 9046     		mov	r8, r2
 367 0008 1F46     		mov	r7, r3
 368 000a 0D46     		mov	r5, r1
 369              		.loc 1 151 0
 370 000c FFF7FEFF 		bl	chHeapAlloc
 371              	.LVL28:
 372              		.loc 1 152 0
 373 0010 0446     		mov	r4, r0
 374 0012 0028     		cmp	r0, #0
 375 0014 36D0     		beq	.L21
 376              		.loc 1 157 0
 377 0016 00F16006 		add	r6, r0, #96
 378 001a 3146     		mov	r1, r6
 379 001c FF22     		movs	r2, #255
 380 001e FFF7FEFF 		bl	_thread_memfill
 381              	.LVL29:
 382              		.loc 1 160 0
 383 0022 3046     		mov	r0, r6
 384 0024 6119     		adds	r1, r4, r5
 385 0026 5522     		movs	r2, #85
 386 0028 FFF7FEFF 		bl	_thread_memfill
 387              	.LVL30:
 388              	.LBB89:
 389              	.LBB90:
 390              	.LBB91:
 391              	.LBB92:
 392              	.LBB93:
 393              		.loc 2 546 0
 394 002c 2023     		movs	r3, #32
 395              	@ 546 "../../../os/ext/CMSIS/include/core_cmFunc.h" 1
 396 002e 83F31188 		MSR basepri, r3
 397              	@ 0 "" 2
 398              		.thumb
ARM GAS  C:\Users\jo\AppData\Local\Temp\cc9QcATg.s 			page 8


 399              	.LBE93:
 400              	.LBE92:
 401              	.LBE91:
 402              		.loc 3 300 0
 403 0032 FFF7FEFF 		bl	_stats_start_measure_crit_thd
 404              	.LVL31:
 405              		.loc 3 301 0
 406 0036 FFF7FEFF 		bl	_dbg_check_lock
 407              	.LVL32:
 408              	.LBE90:
 409              	.LBE89:
 410              		.loc 1 166 0
 411 003a 089B     		ldr	r3, [sp, #32]
 412 003c 0093     		str	r3, [sp]
 413 003e 4246     		mov	r2, r8
 414 0040 2046     		mov	r0, r4
 415 0042 2946     		mov	r1, r5
 416 0044 3B46     		mov	r3, r7
 417 0046 FFF7FEFF 		bl	chThdCreateI
 418              	.LVL33:
 419              		.loc 1 167 0
 420 004a 0123     		movs	r3, #1
 421 004c 80F82130 		strb	r3, [r0, #33]
 422              		.loc 1 168 0
 423 0050 0021     		movs	r1, #0
 424              		.loc 1 166 0
 425 0052 0446     		mov	r4, r0
 426              	.LVL34:
 427              		.loc 1 168 0
 428 0054 FFF7FEFF 		bl	chSchWakeupS
 429              	.LVL35:
 430              	.LBB94:
 431              	.LBB95:
 432              		.loc 3 311 0
 433 0058 FFF7FEFF 		bl	_dbg_check_unlock
 434              	.LVL36:
 435              		.loc 3 312 0
 436 005c FFF7FEFF 		bl	_stats_stop_measure_crit_thd
 437              	.LVL37:
 438              		.loc 3 318 0
 439 0060 0A4B     		ldr	r3, .L25
 440 0062 9A69     		ldr	r2, [r3, #24]
 441 0064 1B68     		ldr	r3, [r3]
 442 0066 9268     		ldr	r2, [r2, #8]
 443 0068 9B68     		ldr	r3, [r3, #8]
 444 006a 9A42     		cmp	r2, r3
 445 006c 06D2     		bcs	.L22
 446 006e 0848     		ldr	r0, .L25+4
 447 0070 FFF7FEFF 		bl	puts
 448              	.LVL38:
 449              	@ 318 "../../../os/rt/include/chsys.h" 1
 450 0074 00BE     		BKPT #0
 451              	
 452              	@ 0 "" 2
 453              		.thumb
 454 0076 0748     		ldr	r0, .L25+8
 455 0078 FFF7FEFF 		bl	chSysHalt
ARM GAS  C:\Users\jo\AppData\Local\Temp\cc9QcATg.s 			page 9


 456              	.LVL39:
 457              	.L22:
 458              	.LBB96:
 459              	.LBB97:
 460              	.LBB98:
 461              		.loc 2 546 0
 462 007c 0023     		movs	r3, #0
 463              	@ 546 "../../../os/ext/CMSIS/include/core_cmFunc.h" 1
 464 007e 83F31188 		MSR basepri, r3
 465              	@ 0 "" 2
 466              		.thumb
 467 0082 2046     		mov	r0, r4
 468              	.LVL40:
 469              	.L21:
 470              	.LBE98:
 471              	.LBE97:
 472              	.LBE96:
 473              	.LBE95:
 474              	.LBE94:
 475              		.loc 1 172 0
 476 0084 02B0     		add	sp, sp, #8
 477              		.cfi_def_cfa_offset 24
 478              		@ sp needed
 479 0086 BDE8F081 		pop	{r4, r5, r6, r7, r8, pc}
 480              	.LVL41:
 481              	.L26:
 482 008a 00BF     		.align	2
 483              	.L25:
 484 008c 00000000 		.word	ch
 485 0090 14000000 		.word	.LC1
 486 0094 00000000 		.word	.LANCHOR1
 487              		.cfi_endproc
 488              	.LFE228:
 489              		.size	chThdCreateFromHeap, .-chThdCreateFromHeap
 490 0098 AFF30080 		.section	.text.chThdCreateFromMemoryPool,"ax",%progbits
 490      AFF30080 
 491              		.align	2
 492              		.p2align 4,,15
 493              		.global	chThdCreateFromMemoryPool
 494              		.thumb
 495              		.thumb_func
 496              		.type	chThdCreateFromMemoryPool, %function
 497              	chThdCreateFromMemoryPool:
 498              	.LFB229:
 499              		.loc 1 199 0
 500              		.cfi_startproc
 501              		@ args = 0, pretend = 0, frame = 0
 502              		@ frame_needed = 0, uses_anonymous_args = 0
 503              	.LVL42:
 504 0000 2DE9F043 		push	{r4, r5, r6, r7, r8, r9, lr}
 505              		.cfi_def_cfa_offset 28
 506              		.cfi_offset 4, -28
 507              		.cfi_offset 5, -24
 508              		.cfi_offset 6, -20
 509              		.cfi_offset 7, -16
 510              		.cfi_offset 8, -12
 511              		.cfi_offset 9, -8
ARM GAS  C:\Users\jo\AppData\Local\Temp\cc9QcATg.s 			page 10


 512              		.cfi_offset 14, -4
 513 0004 8846     		mov	r8, r1
 514 0006 83B0     		sub	sp, sp, #12
 515              		.cfi_def_cfa_offset 40
 516              		.loc 1 199 0
 517 0008 1746     		mov	r7, r2
 518 000a 9946     		mov	r9, r3
 519              		.loc 1 203 0
 520 000c 0546     		mov	r5, r0
 521 000e 0028     		cmp	r0, #0
 522 0010 41D0     		beq	.L33
 523              	.LVL43:
 524              	.L28:
 525              		.loc 1 205 0
 526 0012 2846     		mov	r0, r5
 527 0014 FFF7FEFF 		bl	chPoolAlloc
 528              	.LVL44:
 529              		.loc 1 206 0
 530 0018 0446     		mov	r4, r0
 531 001a 0028     		cmp	r0, #0
 532 001c 38D0     		beq	.L29
 533              		.loc 1 211 0
 534 001e 00F16006 		add	r6, r0, #96
 535 0022 3146     		mov	r1, r6
 536 0024 FF22     		movs	r2, #255
 537 0026 FFF7FEFF 		bl	_thread_memfill
 538              	.LVL45:
 539              		.loc 1 214 0
 540 002a 6968     		ldr	r1, [r5, #4]
 541 002c 3046     		mov	r0, r6
 542 002e 2144     		add	r1, r1, r4
 543 0030 5522     		movs	r2, #85
 544 0032 FFF7FEFF 		bl	_thread_memfill
 545              	.LVL46:
 546              	.LBB109:
 547              	.LBB110:
 548              	.LBB111:
 549              	.LBB112:
 550              	.LBB113:
 551              		.loc 2 546 0
 552 0036 2023     		movs	r3, #32
 553              	@ 546 "../../../os/ext/CMSIS/include/core_cmFunc.h" 1
 554 0038 83F31188 		MSR basepri, r3
 555              	@ 0 "" 2
 556              		.thumb
 557              	.LBE113:
 558              	.LBE112:
 559              	.LBE111:
 560              		.loc 3 300 0
 561 003c FFF7FEFF 		bl	_stats_start_measure_crit_thd
 562              	.LVL47:
 563              		.loc 3 301 0
 564 0040 FFF7FEFF 		bl	_dbg_check_lock
 565              	.LVL48:
 566              	.LBE110:
 567              	.LBE109:
 568              		.loc 1 220 0
ARM GAS  C:\Users\jo\AppData\Local\Temp\cc9QcATg.s 			page 11


 569 0044 4246     		mov	r2, r8
 570 0046 6968     		ldr	r1, [r5, #4]
 571 0048 CDF80090 		str	r9, [sp]
 572 004c 2046     		mov	r0, r4
 573 004e 3B46     		mov	r3, r7
 574 0050 FFF7FEFF 		bl	chThdCreateI
 575              	.LVL49:
 576              		.loc 1 221 0
 577 0054 0223     		movs	r3, #2
 578 0056 80F82130 		strb	r3, [r0, #33]
 579              		.loc 1 222 0
 580 005a 4564     		str	r5, [r0, #68]
 581              		.loc 1 223 0
 582 005c 0021     		movs	r1, #0
 583              		.loc 1 220 0
 584 005e 0446     		mov	r4, r0
 585              	.LVL50:
 586              		.loc 1 223 0
 587 0060 FFF7FEFF 		bl	chSchWakeupS
 588              	.LVL51:
 589              	.LBB114:
 590              	.LBB115:
 591              		.loc 3 311 0
 592 0064 FFF7FEFF 		bl	_dbg_check_unlock
 593              	.LVL52:
 594              		.loc 3 312 0
 595 0068 FFF7FEFF 		bl	_stats_stop_measure_crit_thd
 596              	.LVL53:
 597              		.loc 3 318 0
 598 006c 0C4B     		ldr	r3, .L34
 599 006e 9A69     		ldr	r2, [r3, #24]
 600 0070 1B68     		ldr	r3, [r3]
 601 0072 9268     		ldr	r2, [r2, #8]
 602 0074 9B68     		ldr	r3, [r3, #8]
 603 0076 9A42     		cmp	r2, r3
 604 0078 06D2     		bcs	.L30
 605 007a 0A48     		ldr	r0, .L34+4
 606 007c FFF7FEFF 		bl	puts
 607              	.LVL54:
 608              	@ 318 "../../../os/rt/include/chsys.h" 1
 609 0080 00BE     		BKPT #0
 610              	
 611              	@ 0 "" 2
 612              		.thumb
 613 0082 0948     		ldr	r0, .L34+8
 614 0084 FFF7FEFF 		bl	chSysHalt
 615              	.LVL55:
 616              	.L30:
 617              	.LBB116:
 618              	.LBB117:
 619              	.LBB118:
 620              		.loc 2 546 0
 621 0088 0023     		movs	r3, #0
 622              	@ 546 "../../../os/ext/CMSIS/include/core_cmFunc.h" 1
 623 008a 83F31188 		MSR basepri, r3
 624              	@ 0 "" 2
 625              		.thumb
ARM GAS  C:\Users\jo\AppData\Local\Temp\cc9QcATg.s 			page 12


 626 008e 2046     		mov	r0, r4
 627              	.LVL56:
 628              	.L29:
 629              	.LBE118:
 630              	.LBE117:
 631              	.LBE116:
 632              	.LBE115:
 633              	.LBE114:
 634              		.loc 1 227 0
 635 0090 03B0     		add	sp, sp, #12
 636              		.cfi_remember_state
 637              		.cfi_def_cfa_offset 28
 638              		@ sp needed
 639 0092 BDE8F083 		pop	{r4, r5, r6, r7, r8, r9, pc}
 640              	.LVL57:
 641              	.L33:
 642              		.cfi_restore_state
 643              		.loc 1 203 0 discriminator 1
 644 0096 0548     		ldr	r0, .L34+12
 645              	.LVL58:
 646 0098 FFF7FEFF 		bl	chSysHalt
 647              	.LVL59:
 648 009c B9E7     		b	.L28
 649              	.L35:
 650 009e 00BF     		.align	2
 651              	.L34:
 652 00a0 00000000 		.word	ch
 653 00a4 14000000 		.word	.LC1
 654 00a8 00000000 		.word	.LANCHOR1
 655 00ac 00000000 		.word	.LANCHOR3
 656              		.cfi_endproc
 657              	.LFE229:
 658              		.size	chThdCreateFromMemoryPool, .-chThdCreateFromMemoryPool
 659              		.section	.rodata.__func__.7435,"a",%progbits
 660              		.align	2
 661              		.set	.LANCHOR0,. + 0
 662              		.type	__func__.7435, %object
 663              		.size	__func__.7435, 12
 664              	__func__.7435:
 665 0000 63685468 		.ascii	"chThdAddRef\000"
 665      64416464 
 665      52656600 
 666              		.section	.rodata.__func__.7461,"a",%progbits
 667              		.align	2
 668              		.set	.LANCHOR3,. + 0
 669              		.type	__func__.7461, %object
 670              		.size	__func__.7461, 26
 671              	__func__.7461:
 672 0000 63685468 		.ascii	"chThdCreateFromMemoryPool\000"
 672      64437265 
 672      61746546 
 672      726F6D4D 
 672      656D6F72 
 673 001a 0000     		.section	.rodata.str1.4,"aMS",%progbits,1
 674              		.align	2
 675              	.LC0:
 676 0000 746F6F20 		.ascii	"too many references\000"
ARM GAS  C:\Users\jo\AppData\Local\Temp\cc9QcATg.s 			page 13


 676      6D616E79 
 676      20726566 
 676      6572656E 
 676      63657300 
 677              	.LC1:
 678 0014 7072696F 		.ascii	"priority violation, missing reschedule\000"
 678      72697479 
 678      2076696F 
 678      6C617469 
 678      6F6E2C20 
 679 003b 00       		.space	1
 680              	.LC2:
 681 003c 6E6F7420 		.ascii	"not referenced\000"
 681      72656665 
 681      72656E63 
 681      656400
 682 004b 00       		.section	.rodata.__func__.6751,"a",%progbits
 683              		.align	2
 684              		.set	.LANCHOR1,. + 0
 685              		.type	__func__.6751, %object
 686              		.size	__func__.6751, 12
 687              	__func__.6751:
 688 0000 63685379 		.ascii	"chSysUnlock\000"
 688      73556E6C 
 688      6F636B00 
 689              		.section	.rodata.__func__.7440,"a",%progbits
 690              		.align	2
 691              		.set	.LANCHOR2,. + 0
 692              		.type	__func__.7440, %object
 693              		.size	__func__.7440, 13
 694              	__func__.7440:
 695 0000 63685468 		.ascii	"chThdRelease\000"
 695      6452656C 
 695      65617365 
 695      00
 696 000d 000000   		.text
 697              	.Letext0:
 698              		.file 4 "c:\\program files\\gnu tools arm embedded\\4.9 2014q4\\lib\\gcc\\arm-none-eabi\\4.9.3\\in
 699              		.file 5 "c:\\program files\\gnu tools arm embedded\\4.9 2014q4\\arm-none-eabi\\include\\machine\\_
 700              		.file 6 "c:\\program files\\gnu tools arm embedded\\4.9 2014q4\\arm-none-eabi\\include\\stdint.h"
 701              		.file 7 "../../../os/rt/ports/ARMCMx/compilers/GCC/chtypes.h"
 702              		.file 8 "../../../os/rt/include/chsystypes.h"
 703              		.file 9 "../../../os/rt/include/chschd.h"
 704              		.file 10 "../../../os/rt/ports/ARMCMx/chcore.h"
 705              		.file 11 "../../../os/rt/ports/ARMCMx/chcore_v7m.h"
 706              		.file 12 "../../../os/rt/include/chdebug.h"
 707              		.file 13 "../../../os/rt/include/chtm.h"
 708              		.file 14 "../../../os/rt/include/chstats.h"
 709              		.file 15 "../../../os/rt/include/chmtx.h"
 710              		.file 16 "../../../os/rt/include/chthreads.h"
 711              		.file 17 "../../../os/rt/include/chmemcore.h"
 712              		.file 18 "../../../os/rt/include/chheap.h"
 713              		.file 19 "../../../os/rt/include/chmempools.h"
 714              		.file 20 "../../../os/ext/CMSIS/include/core_cm4.h"
 715              		.file 21 "<built-in>"