ARM GAS  C:\Users\jo\AppData\Local\Temp\cc1ND8fX.s 			page 1


   1              		.syntax unified
   2              		.cpu cortex-m4
   3              		.fpu softvfp
   4              		.eabi_attribute 20, 1
   5              		.eabi_attribute 21, 1
   6              		.eabi_attribute 23, 3
   7              		.eabi_attribute 24, 1
   8              		.eabi_attribute 25, 1
   9              		.eabi_attribute 26, 1
  10              		.eabi_attribute 30, 2
  11              		.eabi_attribute 34, 1
  12              		.eabi_attribute 18, 4
  13              		.thumb
  14              		.file	"chevents.c"
  15              		.text
  16              	.Ltext0:
  17              		.cfi_sections	.debug_frame
  18              		.section	.text.chEvtRegisterMaskWithFlags,"ax",%progbits
  19              		.align	2
  20              		.p2align 4,,15
  21              		.global	chEvtRegisterMaskWithFlags
  22              		.thumb
  23              		.thumb_func
  24              		.type	chEvtRegisterMaskWithFlags, %function
  25              	chEvtRegisterMaskWithFlags:
  26              	.LFB226:
  27              		.file 1 "../../../os/rt/src/chevents.c"
  28              		.loc 1 106 0
  29              		.cfi_startproc
  30              		@ args = 0, pretend = 0, frame = 0
  31              		@ frame_needed = 0, uses_anonymous_args = 0
  32              	.LVL0:
  33 0000 2DE9F041 		push	{r4, r5, r6, r7, r8, lr}
  34              		.cfi_def_cfa_offset 24
  35              		.cfi_offset 4, -24
  36              		.cfi_offset 5, -20
  37              		.cfi_offset 6, -16
  38              		.cfi_offset 7, -12
  39              		.cfi_offset 8, -8
  40              		.cfi_offset 14, -4
  41              		.loc 1 106 0
  42 0004 0C46     		mov	r4, r1
  43 0006 9046     		mov	r8, r2
  44 0008 1F46     		mov	r7, r3
  45              		.loc 1 108 0
  46 000a 0646     		mov	r6, r0
  47 000c 40B3     		cbz	r0, .L2
  48              		.loc 1 108 0 is_stmt 0 discriminator 2
  49 000e 39B3     		cbz	r1, .L2
  50              	.LVL1:
  51              	.L3:
  52              	.LBB89:
  53              	.LBB90:
  54              	.LBB91:
  55              	.LBB92:
  56              	.LBB93:
  57              		.file 2 "../../../os/ext/CMSIS/include/core_cmFunc.h"
ARM GAS  C:\Users\jo\AppData\Local\Temp\cc1ND8fX.s 			page 2


  58              		.loc 2 546 0 is_stmt 1
  59 0010 2023     		movs	r3, #32
  60              	@ 546 "../../../os/ext/CMSIS/include/core_cmFunc.h" 1
  61 0012 83F31188 		MSR basepri, r3
  62              	@ 0 "" 2
  63              		.thumb
  64              	.LBE93:
  65              	.LBE92:
  66              	.LBE91:
  67              	.LBE90:
  68              	.LBE89:
  69              		.loc 1 113 0
  70 0016 144D     		ldr	r5, .L10
  71              	.LBB95:
  72              	.LBB94:
  73              		.file 3 "../../../os/rt/include/chsys.h"
  74              		.loc 3 300 0
  75 0018 FFF7FEFF 		bl	_stats_start_measure_crit_thd
  76              	.LVL2:
  77              		.loc 3 301 0
  78 001c FFF7FEFF 		bl	_dbg_check_lock
  79              	.LVL3:
  80              	.LBE94:
  81              	.LBE95:
  82              		.loc 1 111 0
  83 0020 3368     		ldr	r3, [r6]
  84              		.loc 1 113 0
  85 0022 AA69     		ldr	r2, [r5, #24]
  86              		.loc 1 111 0
  87 0024 2360     		str	r3, [r4]
  88              		.loc 1 115 0
  89 0026 0023     		movs	r3, #0
  90              		.loc 1 112 0
  91 0028 3460     		str	r4, [r6]
  92              		.loc 1 113 0
  93 002a 6260     		str	r2, [r4, #4]
  94              		.loc 1 115 0
  95 002c E360     		str	r3, [r4, #12]
  96              		.loc 1 114 0
  97 002e C4F80880 		str	r8, [r4, #8]
  98              		.loc 1 116 0
  99 0032 2761     		str	r7, [r4, #16]
 100              	.LBB96:
 101              	.LBB97:
 102              		.loc 3 311 0
 103 0034 FFF7FEFF 		bl	_dbg_check_unlock
 104              	.LVL4:
 105              		.loc 3 312 0
 106 0038 FFF7FEFF 		bl	_stats_stop_measure_crit_thd
 107              	.LVL5:
 108              		.loc 3 318 0
 109 003c AA69     		ldr	r2, [r5, #24]
 110 003e 2B68     		ldr	r3, [r5]
 111 0040 9268     		ldr	r2, [r2, #8]
 112 0042 9B68     		ldr	r3, [r3, #8]
 113 0044 9A42     		cmp	r2, r3
 114 0046 06D2     		bcs	.L4
ARM GAS  C:\Users\jo\AppData\Local\Temp\cc1ND8fX.s 			page 3


 115 0048 0848     		ldr	r0, .L10+4
 116 004a FFF7FEFF 		bl	puts
 117              	.LVL6:
 118              	@ 318 "../../../os/rt/include/chsys.h" 1
 119 004e 00BE     		BKPT #0
 120              	
 121              	@ 0 "" 2
 122              		.thumb
 123 0050 0748     		ldr	r0, .L10+8
 124 0052 FFF7FEFF 		bl	chSysHalt
 125              	.LVL7:
 126              	.L4:
 127              	.LBB98:
 128              	.LBB99:
 129              	.LBB100:
 130              		.loc 2 546 0
 131 0056 0023     		movs	r3, #0
 132              	@ 546 "../../../os/ext/CMSIS/include/core_cmFunc.h" 1
 133 0058 83F31188 		MSR basepri, r3
 134              	@ 0 "" 2
 135              		.thumb
 136 005c BDE8F081 		pop	{r4, r5, r6, r7, r8, pc}
 137              	.LVL8:
 138              	.L2:
 139              	.LBE100:
 140              	.LBE99:
 141              	.LBE98:
 142              	.LBE97:
 143              	.LBE96:
 144              		.loc 1 108 0 discriminator 3
 145 0060 0448     		ldr	r0, .L10+12
 146              	.LVL9:
 147 0062 FFF7FEFF 		bl	chSysHalt
 148              	.LVL10:
 149 0066 D3E7     		b	.L3
 150              	.L11:
 151              		.align	2
 152              	.L10:
 153 0068 00000000 		.word	ch
 154 006c 00000000 		.word	.LC0
 155 0070 00000000 		.word	.LANCHOR1
 156 0074 00000000 		.word	.LANCHOR0
 157              		.cfi_endproc
 158              	.LFE226:
 159              		.size	chEvtRegisterMaskWithFlags, .-chEvtRegisterMaskWithFlags
 160 0078 AFF30080 		.section	.text.chEvtUnregister,"ax",%progbits
 160      AFF30080 
 161              		.align	2
 162              		.p2align 4,,15
 163              		.global	chEvtUnregister
 164              		.thumb
 165              		.thumb_func
 166              		.type	chEvtUnregister, %function
 167              	chEvtUnregister:
 168              	.LFB227:
 169              		.loc 1 133 0
 170              		.cfi_startproc
ARM GAS  C:\Users\jo\AppData\Local\Temp\cc1ND8fX.s 			page 4


 171              		@ args = 0, pretend = 0, frame = 0
 172              		@ frame_needed = 0, uses_anonymous_args = 0
 173              	.LVL11:
 174 0000 38B5     		push	{r3, r4, r5, lr}
 175              		.cfi_def_cfa_offset 16
 176              		.cfi_offset 3, -16
 177              		.cfi_offset 4, -12
 178              		.cfi_offset 5, -8
 179              		.cfi_offset 14, -4
 180              		.loc 1 133 0
 181 0002 0D46     		mov	r5, r1
 182              		.loc 1 136 0
 183 0004 0446     		mov	r4, r0
 184 0006 40B3     		cbz	r0, .L13
 185              		.loc 1 136 0 is_stmt 0 discriminator 2
 186 0008 39B3     		cbz	r1, .L13
 187              	.LVL12:
 188              	.L14:
 189              	.LBB111:
 190              	.LBB112:
 191              	.LBB113:
 192              	.LBB114:
 193              	.LBB115:
 194              		.loc 2 546 0 is_stmt 1
 195 000a 2023     		movs	r3, #32
 196              	@ 546 "../../../os/ext/CMSIS/include/core_cmFunc.h" 1
 197 000c 83F31188 		MSR basepri, r3
 198              	@ 0 "" 2
 199              		.thumb
 200              	.LBE115:
 201              	.LBE114:
 202              	.LBE113:
 203              		.loc 3 300 0
 204 0010 FFF7FEFF 		bl	_stats_start_measure_crit_thd
 205              	.LVL13:
 206              		.loc 3 301 0
 207 0014 FFF7FEFF 		bl	_dbg_check_lock
 208              	.LVL14:
 209 0018 2246     		mov	r2, r4
 210 001a 02E0     		b	.L15
 211              	.LVL15:
 212              	.L17:
 213              	.LBE112:
 214              	.LBE111:
 215              		.loc 1 141 0
 216 001c 9D42     		cmp	r5, r3
 217 001e 19D0     		beq	.L24
 218 0020 1A46     		mov	r2, r3
 219              	.LVL16:
 220              	.L15:
 221              		.loc 1 140 0
 222 0022 1368     		ldr	r3, [r2]
 223 0024 A342     		cmp	r3, r4
 224 0026 F9D1     		bne	.L17
 225              	.L16:
 226              	.LBB116:
 227              	.LBB117:
ARM GAS  C:\Users\jo\AppData\Local\Temp\cc1ND8fX.s 			page 5


 228              		.loc 3 311 0
 229 0028 FFF7FEFF 		bl	_dbg_check_unlock
 230              	.LVL17:
 231              		.loc 3 312 0
 232 002c FFF7FEFF 		bl	_stats_stop_measure_crit_thd
 233              	.LVL18:
 234              		.loc 3 318 0
 235 0030 0C4B     		ldr	r3, .L25
 236 0032 9A69     		ldr	r2, [r3, #24]
 237 0034 1B68     		ldr	r3, [r3]
 238 0036 9268     		ldr	r2, [r2, #8]
 239 0038 9B68     		ldr	r3, [r3, #8]
 240 003a 9A42     		cmp	r2, r3
 241 003c 06D2     		bcs	.L18
 242 003e 0A48     		ldr	r0, .L25+4
 243 0040 FFF7FEFF 		bl	puts
 244              	.LVL19:
 245              	@ 318 "../../../os/rt/include/chsys.h" 1
 246 0044 00BE     		BKPT #0
 247              	
 248              	@ 0 "" 2
 249              		.thumb
 250 0046 0948     		ldr	r0, .L25+8
 251 0048 FFF7FEFF 		bl	chSysHalt
 252              	.LVL20:
 253              	.L18:
 254              	.LBB118:
 255              	.LBB119:
 256              	.LBB120:
 257              		.loc 2 546 0
 258 004c 0023     		movs	r3, #0
 259              	@ 546 "../../../os/ext/CMSIS/include/core_cmFunc.h" 1
 260 004e 83F31188 		MSR basepri, r3
 261              	@ 0 "" 2
 262              		.thumb
 263 0052 38BD     		pop	{r3, r4, r5, pc}
 264              	.LVL21:
 265              	.L24:
 266              	.LBE120:
 267              	.LBE119:
 268              	.LBE118:
 269              	.LBE117:
 270              	.LBE116:
 271              		.loc 1 142 0
 272 0054 2B68     		ldr	r3, [r5]
 273 0056 1360     		str	r3, [r2]
 274              		.loc 1 143 0
 275 0058 E6E7     		b	.L16
 276              	.LVL22:
 277              	.L13:
 278              		.loc 1 136 0 discriminator 3
 279 005a 0548     		ldr	r0, .L25+12
 280              	.LVL23:
 281 005c FFF7FEFF 		bl	chSysHalt
 282              	.LVL24:
 283 0060 D3E7     		b	.L14
 284              	.L26:
ARM GAS  C:\Users\jo\AppData\Local\Temp\cc1ND8fX.s 			page 6


 285 0062 00BF     		.align	2
 286              	.L25:
 287 0064 00000000 		.word	ch
 288 0068 00000000 		.word	.LC0
 289 006c 00000000 		.word	.LANCHOR1
 290 0070 00000000 		.word	.LANCHOR2
 291              		.cfi_endproc
 292              	.LFE227:
 293              		.size	chEvtUnregister, .-chEvtUnregister
 294 0074 AFF30080 		.section	.text.chEvtGetAndClearEvents,"ax",%progbits
 294      AFF30080 
 294      AFF30080 
 295              		.align	2
 296              		.p2align 4,,15
 297              		.global	chEvtGetAndClearEvents
 298              		.thumb
 299              		.thumb_func
 300              		.type	chEvtGetAndClearEvents, %function
 301              	chEvtGetAndClearEvents:
 302              	.LFB228:
 303              		.loc 1 158 0
 304              		.cfi_startproc
 305              		@ args = 0, pretend = 0, frame = 0
 306              		@ frame_needed = 0, uses_anonymous_args = 0
 307              	.LVL25:
 308 0000 38B5     		push	{r3, r4, r5, lr}
 309              		.cfi_def_cfa_offset 16
 310              		.cfi_offset 3, -16
 311              		.cfi_offset 4, -12
 312              		.cfi_offset 5, -8
 313              		.cfi_offset 14, -4
 314              		.loc 1 158 0
 315 0002 0446     		mov	r4, r0
 316              	.LBB131:
 317              	.LBB132:
 318              	.LBB133:
 319              	.LBB134:
 320              	.LBB135:
 321              		.loc 2 546 0
 322 0004 2023     		movs	r3, #32
 323              	@ 546 "../../../os/ext/CMSIS/include/core_cmFunc.h" 1
 324 0006 83F31188 		MSR basepri, r3
 325              	@ 0 "" 2
 326              		.thumb
 327              	.LBE135:
 328              	.LBE134:
 329              	.LBE133:
 330              	.LBE132:
 331              	.LBE131:
 332              		.loc 1 162 0
 333 000a 104D     		ldr	r5, .L30
 334              	.LBB137:
 335              	.LBB136:
 336              		.loc 3 300 0
 337 000c FFF7FEFF 		bl	_stats_start_measure_crit_thd
 338              	.LVL26:
 339              		.loc 3 301 0
ARM GAS  C:\Users\jo\AppData\Local\Temp\cc1ND8fX.s 			page 7


 340 0010 FFF7FEFF 		bl	_dbg_check_lock
 341              	.LVL27:
 342              	.LBE136:
 343              	.LBE137:
 344              		.loc 1 162 0
 345 0014 AA69     		ldr	r2, [r5, #24]
 346 0016 936B     		ldr	r3, [r2, #56]
 347              		.loc 1 163 0
 348 0018 23EA0401 		bic	r1, r3, r4
 349 001c 9163     		str	r1, [r2, #56]
 350              		.loc 1 162 0
 351 001e 1C40     		ands	r4, r4, r3
 352              	.LVL28:
 353              	.LBB138:
 354              	.LBB139:
 355              		.loc 3 311 0
 356 0020 FFF7FEFF 		bl	_dbg_check_unlock
 357              	.LVL29:
 358              		.loc 3 312 0
 359 0024 FFF7FEFF 		bl	_stats_stop_measure_crit_thd
 360              	.LVL30:
 361              		.loc 3 318 0
 362 0028 AA69     		ldr	r2, [r5, #24]
 363 002a 2B68     		ldr	r3, [r5]
 364 002c 9268     		ldr	r2, [r2, #8]
 365 002e 9B68     		ldr	r3, [r3, #8]
 366 0030 9A42     		cmp	r2, r3
 367 0032 06D2     		bcs	.L28
 368 0034 0648     		ldr	r0, .L30+4
 369 0036 FFF7FEFF 		bl	puts
 370              	.LVL31:
 371              	@ 318 "../../../os/rt/include/chsys.h" 1
 372 003a 00BE     		BKPT #0
 373              	
 374              	@ 0 "" 2
 375              		.thumb
 376 003c 0548     		ldr	r0, .L30+8
 377 003e FFF7FEFF 		bl	chSysHalt
 378              	.LVL32:
 379              	.L28:
 380              	.LBB140:
 381              	.LBB141:
 382              	.LBB142:
 383              		.loc 2 546 0
 384 0042 0023     		movs	r3, #0
 385              	@ 546 "../../../os/ext/CMSIS/include/core_cmFunc.h" 1
 386 0044 83F31188 		MSR basepri, r3
 387              	@ 0 "" 2
 388              		.thumb
 389              	.LBE142:
 390              	.LBE141:
 391              	.LBE140:
 392              	.LBE139:
 393              	.LBE138:
 394              		.loc 1 167 0
 395 0048 2046     		mov	r0, r4
 396 004a 38BD     		pop	{r3, r4, r5, pc}
ARM GAS  C:\Users\jo\AppData\Local\Temp\cc1ND8fX.s 			page 8


 397              	.LVL33:
 398              	.L31:
 399              		.align	2
 400              	.L30:
 401 004c 00000000 		.word	ch
 402 0050 00000000 		.word	.LC0
 403 0054 00000000 		.word	.LANCHOR1
 404              		.cfi_endproc
 405              	.LFE228:
 406              		.size	chEvtGetAndClearEvents, .-chEvtGetAndClearEvents
 407 0058 AFF30080 		.section	.text.chEvtAddEvents,"ax",%progbits
 407      AFF30080 
 408              		.align	2
 409              		.p2align 4,,15
 410              		.global	chEvtAddEvents
 411              		.thumb
 412              		.thumb_func
 413              		.type	chEvtAddEvents, %function
 414              	chEvtAddEvents:
 415              	.LFB229:
 416              		.loc 1 178 0
 417              		.cfi_startproc
 418              		@ args = 0, pretend = 0, frame = 0
 419              		@ frame_needed = 0, uses_anonymous_args = 0
 420              	.LVL34:
 421 0000 38B5     		push	{r3, r4, r5, lr}
 422              		.cfi_def_cfa_offset 16
 423              		.cfi_offset 3, -16
 424              		.cfi_offset 4, -12
 425              		.cfi_offset 5, -8
 426              		.cfi_offset 14, -4
 427              		.loc 1 178 0
 428 0002 0446     		mov	r4, r0
 429              	.LBB153:
 430              	.LBB154:
 431              	.LBB155:
 432              	.LBB156:
 433              	.LBB157:
 434              		.loc 2 546 0
 435 0004 2023     		movs	r3, #32
 436              	@ 546 "../../../os/ext/CMSIS/include/core_cmFunc.h" 1
 437 0006 83F31188 		MSR basepri, r3
 438              	@ 0 "" 2
 439              		.thumb
 440              	.LBE157:
 441              	.LBE156:
 442              	.LBE155:
 443              	.LBE154:
 444              	.LBE153:
 445              		.loc 1 181 0
 446 000a 0F4D     		ldr	r5, .L35
 447              	.LBB159:
 448              	.LBB158:
 449              		.loc 3 300 0
 450 000c FFF7FEFF 		bl	_stats_start_measure_crit_thd
 451              	.LVL35:
 452              		.loc 3 301 0
ARM GAS  C:\Users\jo\AppData\Local\Temp\cc1ND8fX.s 			page 9


 453 0010 FFF7FEFF 		bl	_dbg_check_lock
 454              	.LVL36:
 455              	.LBE158:
 456              	.LBE159:
 457              		.loc 1 181 0
 458 0014 AA69     		ldr	r2, [r5, #24]
 459 0016 936B     		ldr	r3, [r2, #56]
 460 0018 1C43     		orrs	r4, r4, r3
 461              	.LVL37:
 462 001a 9463     		str	r4, [r2, #56]
 463              	.LVL38:
 464              	.LBB160:
 465              	.LBB161:
 466              		.loc 3 311 0
 467 001c FFF7FEFF 		bl	_dbg_check_unlock
 468              	.LVL39:
 469              		.loc 3 312 0
 470 0020 FFF7FEFF 		bl	_stats_stop_measure_crit_thd
 471              	.LVL40:
 472              		.loc 3 318 0
 473 0024 AA69     		ldr	r2, [r5, #24]
 474 0026 2B68     		ldr	r3, [r5]
 475 0028 9268     		ldr	r2, [r2, #8]
 476 002a 9B68     		ldr	r3, [r3, #8]
 477 002c 9A42     		cmp	r2, r3
 478 002e 06D2     		bcs	.L33
 479 0030 0648     		ldr	r0, .L35+4
 480 0032 FFF7FEFF 		bl	puts
 481              	.LVL41:
 482              	@ 318 "../../../os/rt/include/chsys.h" 1
 483 0036 00BE     		BKPT #0
 484              	
 485              	@ 0 "" 2
 486              		.thumb
 487 0038 0548     		ldr	r0, .L35+8
 488 003a FFF7FEFF 		bl	chSysHalt
 489              	.LVL42:
 490              	.L33:
 491              	.LBB162:
 492              	.LBB163:
 493              	.LBB164:
 494              		.loc 2 546 0
 495 003e 0023     		movs	r3, #0
 496              	@ 546 "../../../os/ext/CMSIS/include/core_cmFunc.h" 1
 497 0040 83F31188 		MSR basepri, r3
 498              	@ 0 "" 2
 499              		.thumb
 500              	.LBE164:
 501              	.LBE163:
 502              	.LBE162:
 503              	.LBE161:
 504              	.LBE160:
 505              		.loc 1 185 0
 506 0044 2046     		mov	r0, r4
 507 0046 38BD     		pop	{r3, r4, r5, pc}
 508              	.LVL43:
 509              	.L36:
ARM GAS  C:\Users\jo\AppData\Local\Temp\cc1ND8fX.s 			page 10


 510              		.align	2
 511              	.L35:
 512 0048 00000000 		.word	ch
 513 004c 00000000 		.word	.LC0
 514 0050 00000000 		.word	.LANCHOR1
 515              		.cfi_endproc
 516              	.LFE229:
 517              		.size	chEvtAddEvents, .-chEvtAddEvents
 518 0054 AFF30080 		.section	.text.chEvtGetAndClearFlags,"ax",%progbits
 518      AFF30080 
 518      AFF30080 
 519              		.align	2
 520              		.p2align 4,,15
 521              		.global	chEvtGetAndClearFlags
 522              		.thumb
 523              		.thumb_func
 524              		.type	chEvtGetAndClearFlags, %function
 525              	chEvtGetAndClearFlags:
 526              	.LFB231:
 527              		.loc 1 233 0
 528              		.cfi_startproc
 529              		@ args = 0, pretend = 0, frame = 0
 530              		@ frame_needed = 0, uses_anonymous_args = 0
 531              	.LVL44:
 532 0000 38B5     		push	{r3, r4, r5, lr}
 533              		.cfi_def_cfa_offset 16
 534              		.cfi_offset 3, -16
 535              		.cfi_offset 4, -12
 536              		.cfi_offset 5, -8
 537              		.cfi_offset 14, -4
 538              		.loc 1 233 0
 539 0002 0446     		mov	r4, r0
 540              	.LBB175:
 541              	.LBB176:
 542              	.LBB177:
 543              	.LBB178:
 544              	.LBB179:
 545              		.loc 2 546 0
 546 0004 2023     		movs	r3, #32
 547              	@ 546 "../../../os/ext/CMSIS/include/core_cmFunc.h" 1
 548 0006 83F31188 		MSR basepri, r3
 549              	@ 0 "" 2
 550              		.thumb
 551              	.LBE179:
 552              	.LBE178:
 553              	.LBE177:
 554              		.loc 3 300 0
 555 000a FFF7FEFF 		bl	_stats_start_measure_crit_thd
 556              	.LVL45:
 557              		.loc 3 301 0
 558 000e FFF7FEFF 		bl	_dbg_check_lock
 559              	.LVL46:
 560              	.LBE176:
 561              	.LBE175:
 562              		.loc 1 238 0
 563 0012 0023     		movs	r3, #0
 564              		.loc 1 237 0
ARM GAS  C:\Users\jo\AppData\Local\Temp\cc1ND8fX.s 			page 11


 565 0014 E568     		ldr	r5, [r4, #12]
 566              	.LVL47:
 567              		.loc 1 238 0
 568 0016 E360     		str	r3, [r4, #12]
 569              	.LBB180:
 570              	.LBB181:
 571              		.loc 3 311 0
 572 0018 FFF7FEFF 		bl	_dbg_check_unlock
 573              	.LVL48:
 574              		.loc 3 312 0
 575 001c FFF7FEFF 		bl	_stats_stop_measure_crit_thd
 576              	.LVL49:
 577              		.loc 3 318 0
 578 0020 094B     		ldr	r3, .L40
 579 0022 9A69     		ldr	r2, [r3, #24]
 580 0024 1B68     		ldr	r3, [r3]
 581 0026 9268     		ldr	r2, [r2, #8]
 582 0028 9B68     		ldr	r3, [r3, #8]
 583 002a 9A42     		cmp	r2, r3
 584 002c 06D2     		bcs	.L38
 585 002e 0748     		ldr	r0, .L40+4
 586 0030 FFF7FEFF 		bl	puts
 587              	.LVL50:
 588              	@ 318 "../../../os/rt/include/chsys.h" 1
 589 0034 00BE     		BKPT #0
 590              	
 591              	@ 0 "" 2
 592              		.thumb
 593 0036 0648     		ldr	r0, .L40+8
 594 0038 FFF7FEFF 		bl	chSysHalt
 595              	.LVL51:
 596              	.L38:
 597              	.LBB182:
 598              	.LBB183:
 599              	.LBB184:
 600              		.loc 2 546 0
 601 003c 0023     		movs	r3, #0
 602              	@ 546 "../../../os/ext/CMSIS/include/core_cmFunc.h" 1
 603 003e 83F31188 		MSR basepri, r3
 604              	@ 0 "" 2
 605              		.thumb
 606              	.LBE184:
 607              	.LBE183:
 608              	.LBE182:
 609              	.LBE181:
 610              	.LBE180:
 611              		.loc 1 242 0
 612 0042 2846     		mov	r0, r5
 613 0044 38BD     		pop	{r3, r4, r5, pc}
 614              	.LVL52:
 615              	.L41:
 616 0046 00BF     		.align	2
 617              	.L40:
 618 0048 00000000 		.word	ch
 619 004c 00000000 		.word	.LC0
 620 0050 00000000 		.word	.LANCHOR1
 621              		.cfi_endproc
ARM GAS  C:\Users\jo\AppData\Local\Temp\cc1ND8fX.s 			page 12


 622              	.LFE231:
 623              		.size	chEvtGetAndClearFlags, .-chEvtGetAndClearFlags
 624 0054 AFF30080 		.section	.text.chEvtSignalI,"ax",%progbits
 624      AFF30080 
 624      AFF30080 
 625              		.align	2
 626              		.p2align 4,,15
 627              		.global	chEvtSignalI
 628              		.thumb
 629              		.thumb_func
 630              		.type	chEvtSignalI, %function
 631              	chEvtSignalI:
 632              	.LFB233:
 633              		.loc 1 274 0
 634              		.cfi_startproc
 635              		@ args = 0, pretend = 0, frame = 0
 636              		@ frame_needed = 0, uses_anonymous_args = 0
 637              	.LVL53:
 638 0000 38B5     		push	{r3, r4, r5, lr}
 639              		.cfi_def_cfa_offset 16
 640              		.cfi_offset 3, -16
 641              		.cfi_offset 4, -12
 642              		.cfi_offset 5, -8
 643              		.cfi_offset 14, -4
 644              		.loc 1 274 0
 645 0002 0446     		mov	r4, r0
 646 0004 0D46     		mov	r5, r1
 647              		.loc 1 276 0
 648 0006 FFF7FEFF 		bl	chDbgCheckClassI
 649              	.LVL54:
 650              		.loc 1 277 0
 651 000a CCB1     		cbz	r4, .L48
 652              	.L43:
 653              		.loc 1 279 0
 654 000c A36B     		ldr	r3, [r4, #56]
 655              		.loc 1 281 0
 656 000e 94F82020 		ldrb	r2, [r4, #32]	@ zero_extendqisi2
 657              		.loc 1 279 0
 658 0012 45EA0301 		orr	r1, r5, r3
 659              		.loc 1 281 0
 660 0016 0A2A     		cmp	r2, #10
 661              		.loc 1 279 0
 662 0018 A163     		str	r1, [r4, #56]
 663              		.loc 1 281 0
 664 001a 0DD0     		beq	.L49
 665              		.loc 1 282 0
 666 001c 0B2A     		cmp	r2, #11
 667 001e 00D0     		beq	.L50
 668              	.L42:
 669 0020 38BD     		pop	{r3, r4, r5, pc}
 670              	.LVL55:
 671              	.L50:
 672              		.loc 1 284 0
 673 0022 636A     		ldr	r3, [r4, #36]
 674 0024 1940     		ands	r1, r1, r3
 675              		.loc 1 283 0
 676 0026 8B42     		cmp	r3, r1
ARM GAS  C:\Users\jo\AppData\Local\Temp\cc1ND8fX.s 			page 13


 677 0028 FAD1     		bne	.L42
 678              	.L45:
 679              		.loc 1 285 0
 680 002a 0023     		movs	r3, #0
 681 002c 6362     		str	r3, [r4, #36]
 682              		.loc 1 286 0
 683 002e 2046     		mov	r0, r4
 684              		.loc 1 288 0
 685 0030 BDE83840 		pop	{r3, r4, r5, lr}
 686              		.cfi_remember_state
 687              		.cfi_restore 14
 688              		.cfi_restore 5
 689              		.cfi_restore 4
 690              		.cfi_restore 3
 691              		.cfi_def_cfa_offset 0
 692              	.LVL56:
 693              		.loc 1 286 0
 694 0034 FFF7FEBF 		b	chSchReadyI
 695              	.LVL57:
 696              	.L49:
 697              		.cfi_restore_state
 698              		.loc 1 282 0 discriminator 1
 699 0038 636A     		ldr	r3, [r4, #36]
 700              		.loc 1 281 0 discriminator 1
 701 003a 1942     		tst	r1, r3
 702 003c F5D1     		bne	.L45
 703 003e 38BD     		pop	{r3, r4, r5, pc}
 704              	.LVL58:
 705              	.L48:
 706              		.loc 1 277 0 discriminator 1
 707 0040 0148     		ldr	r0, .L51
 708 0042 FFF7FEFF 		bl	chSysHalt
 709              	.LVL59:
 710 0046 E1E7     		b	.L43
 711              	.L52:
 712              		.align	2
 713              	.L51:
 714 0048 00000000 		.word	.LANCHOR3
 715              		.cfi_endproc
 716              	.LFE233:
 717              		.size	chEvtSignalI, .-chEvtSignalI
 718 004c AFF30080 		.section	.text.chEvtBroadcastFlagsI,"ax",%progbits
 719              		.align	2
 720              		.p2align 4,,15
 721              		.global	chEvtBroadcastFlagsI
 722              		.thumb
 723              		.thumb_func
 724              		.type	chEvtBroadcastFlagsI, %function
 725              	chEvtBroadcastFlagsI:
 726              	.LFB230:
 727              		.loc 1 204 0
 728              		.cfi_startproc
 729              		@ args = 0, pretend = 0, frame = 0
 730              		@ frame_needed = 0, uses_anonymous_args = 0
 731              	.LVL60:
 732 0000 70B5     		push	{r4, r5, r6, lr}
 733              		.cfi_def_cfa_offset 16
ARM GAS  C:\Users\jo\AppData\Local\Temp\cc1ND8fX.s 			page 14


 734              		.cfi_offset 4, -16
 735              		.cfi_offset 5, -12
 736              		.cfi_offset 6, -8
 737              		.cfi_offset 14, -4
 738              		.loc 1 204 0
 739 0002 0646     		mov	r6, r0
 740 0004 0D46     		mov	r5, r1
 741              		.loc 1 207 0
 742 0006 FFF7FEFF 		bl	chDbgCheckClassI
 743              	.LVL61:
 744              		.loc 1 208 0
 745 000a 8EB1     		cbz	r6, .L68
 746              	.L54:
 747              		.loc 1 210 0
 748 000c 3468     		ldr	r4, [r6]
 749              	.LVL62:
 750              		.loc 1 211 0
 751 000e A642     		cmp	r6, r4
 752 0010 0DD0     		beq	.L53
 753              	.L58:
 754              		.loc 1 212 0
 755 0012 E368     		ldr	r3, [r4, #12]
 756 0014 2B43     		orrs	r3, r3, r5
 757 0016 E360     		str	r3, [r4, #12]
 758              		.loc 1 215 0
 759 0018 15B1     		cbz	r5, .L56
 760              		.loc 1 215 0 is_stmt 0 discriminator 1
 761 001a 2269     		ldr	r2, [r4, #16]
 762 001c 1342     		tst	r3, r2
 763 001e 03D0     		beq	.L57
 764              	.L56:
 765              		.loc 1 216 0 is_stmt 1
 766 0020 6068     		ldr	r0, [r4, #4]
 767 0022 A168     		ldr	r1, [r4, #8]
 768 0024 FFF7FEFF 		bl	chEvtSignalI
 769              	.LVL63:
 770              	.L57:
 771              		.loc 1 218 0
 772 0028 2468     		ldr	r4, [r4]
 773              	.LVL64:
 774              		.loc 1 211 0
 775 002a A642     		cmp	r6, r4
 776 002c F1D1     		bne	.L58
 777              	.L53:
 778 002e 70BD     		pop	{r4, r5, r6, pc}
 779              	.LVL65:
 780              	.L68:
 781              		.loc 1 208 0 discriminator 1
 782 0030 0148     		ldr	r0, .L69
 783 0032 FFF7FEFF 		bl	chSysHalt
 784              	.LVL66:
 785 0036 E9E7     		b	.L54
 786              	.L70:
 787              		.align	2
 788              	.L69:
 789 0038 00000000 		.word	.LANCHOR4
 790              		.cfi_endproc
ARM GAS  C:\Users\jo\AppData\Local\Temp\cc1ND8fX.s 			page 15


 791              	.LFE230:
 792              		.size	chEvtBroadcastFlagsI, .-chEvtBroadcastFlagsI
 793 003c AFF30080 		.section	.text.chEvtSignal,"ax",%progbits
 794              		.align	2
 795              		.p2align 4,,15
 796              		.global	chEvtSignal
 797              		.thumb
 798              		.thumb_func
 799              		.type	chEvtSignal, %function
 800              	chEvtSignal:
 801              	.LFB232:
 802              		.loc 1 252 0
 803              		.cfi_startproc
 804              		@ args = 0, pretend = 0, frame = 0
 805              		@ frame_needed = 0, uses_anonymous_args = 0
 806              	.LVL67:
 807 0000 38B5     		push	{r3, r4, r5, lr}
 808              		.cfi_def_cfa_offset 16
 809              		.cfi_offset 3, -16
 810              		.cfi_offset 4, -12
 811              		.cfi_offset 5, -8
 812              		.cfi_offset 14, -4
 813              		.loc 1 252 0
 814 0002 0D46     		mov	r5, r1
 815              		.loc 1 254 0
 816 0004 0446     		mov	r4, r0
 817 0006 10B3     		cbz	r0, .L75
 818              	.LVL68:
 819              	.L72:
 820              	.LBB195:
 821              	.LBB196:
 822              	.LBB197:
 823              	.LBB198:
 824              	.LBB199:
 825              		.loc 2 546 0
 826 0008 2023     		movs	r3, #32
 827              	@ 546 "../../../os/ext/CMSIS/include/core_cmFunc.h" 1
 828 000a 83F31188 		MSR basepri, r3
 829              	@ 0 "" 2
 830              		.thumb
 831              	.LBE199:
 832              	.LBE198:
 833              	.LBE197:
 834              		.loc 3 300 0
 835 000e FFF7FEFF 		bl	_stats_start_measure_crit_thd
 836              	.LVL69:
 837              		.loc 3 301 0
 838 0012 FFF7FEFF 		bl	_dbg_check_lock
 839              	.LVL70:
 840              	.LBE196:
 841              	.LBE195:
 842              		.loc 1 257 0
 843 0016 2046     		mov	r0, r4
 844 0018 2946     		mov	r1, r5
 845 001a FFF7FEFF 		bl	chEvtSignalI
 846              	.LVL71:
 847              		.loc 1 258 0
ARM GAS  C:\Users\jo\AppData\Local\Temp\cc1ND8fX.s 			page 16


 848 001e FFF7FEFF 		bl	chSchRescheduleS
 849              	.LVL72:
 850              	.LBB200:
 851              	.LBB201:
 852              		.loc 3 311 0
 853 0022 FFF7FEFF 		bl	_dbg_check_unlock
 854              	.LVL73:
 855              		.loc 3 312 0
 856 0026 FFF7FEFF 		bl	_stats_stop_measure_crit_thd
 857              	.LVL74:
 858              		.loc 3 318 0
 859 002a 0B4B     		ldr	r3, .L76
 860 002c 9A69     		ldr	r2, [r3, #24]
 861 002e 1B68     		ldr	r3, [r3]
 862 0030 9268     		ldr	r2, [r2, #8]
 863 0032 9B68     		ldr	r3, [r3, #8]
 864 0034 9A42     		cmp	r2, r3
 865 0036 06D2     		bcs	.L73
 866 0038 0848     		ldr	r0, .L76+4
 867 003a FFF7FEFF 		bl	puts
 868              	.LVL75:
 869              	@ 318 "../../../os/rt/include/chsys.h" 1
 870 003e 00BE     		BKPT #0
 871              	
 872              	@ 0 "" 2
 873              		.thumb
 874 0040 0748     		ldr	r0, .L76+8
 875 0042 FFF7FEFF 		bl	chSysHalt
 876              	.LVL76:
 877              	.L73:
 878              	.LBB202:
 879              	.LBB203:
 880              	.LBB204:
 881              		.loc 2 546 0
 882 0046 0023     		movs	r3, #0
 883              	@ 546 "../../../os/ext/CMSIS/include/core_cmFunc.h" 1
 884 0048 83F31188 		MSR basepri, r3
 885              	@ 0 "" 2
 886              		.thumb
 887 004c 38BD     		pop	{r3, r4, r5, pc}
 888              	.LVL77:
 889              	.L75:
 890              	.LBE204:
 891              	.LBE203:
 892              	.LBE202:
 893              	.LBE201:
 894              	.LBE200:
 895              		.loc 1 254 0 discriminator 1
 896 004e 0548     		ldr	r0, .L76+12
 897              	.LVL78:
 898 0050 FFF7FEFF 		bl	chSysHalt
 899              	.LVL79:
 900 0054 D8E7     		b	.L72
 901              	.L77:
 902 0056 00BF     		.align	2
 903              	.L76:
 904 0058 00000000 		.word	ch
ARM GAS  C:\Users\jo\AppData\Local\Temp\cc1ND8fX.s 			page 17


 905 005c 00000000 		.word	.LC0
 906 0060 00000000 		.word	.LANCHOR1
 907 0064 00000000 		.word	.LANCHOR5
 908              		.cfi_endproc
 909              	.LFE232:
 910              		.size	chEvtSignal, .-chEvtSignal
 911 0068 AFF30080 		.section	.text.chEvtBroadcastFlags,"ax",%progbits
 911      AFF30080 
 912              		.align	2
 913              		.p2align 4,,15
 914              		.global	chEvtBroadcastFlags
 915              		.thumb
 916              		.thumb_func
 917              		.type	chEvtBroadcastFlags, %function
 918              	chEvtBroadcastFlags:
 919              	.LFB234:
 920              		.loc 1 303 0
 921              		.cfi_startproc
 922              		@ args = 0, pretend = 0, frame = 0
 923              		@ frame_needed = 0, uses_anonymous_args = 0
 924              	.LVL80:
 925 0000 38B5     		push	{r3, r4, r5, lr}
 926              		.cfi_def_cfa_offset 16
 927              		.cfi_offset 3, -16
 928              		.cfi_offset 4, -12
 929              		.cfi_offset 5, -8
 930              		.cfi_offset 14, -4
 931              		.loc 1 303 0
 932 0002 0546     		mov	r5, r0
 933 0004 0C46     		mov	r4, r1
 934              	.LBB215:
 935              	.LBB216:
 936              	.LBB217:
 937              	.LBB218:
 938              	.LBB219:
 939              		.loc 2 546 0
 940 0006 2023     		movs	r3, #32
 941              	@ 546 "../../../os/ext/CMSIS/include/core_cmFunc.h" 1
 942 0008 83F31188 		MSR basepri, r3
 943              	@ 0 "" 2
 944              		.thumb
 945              	.LBE219:
 946              	.LBE218:
 947              	.LBE217:
 948              		.loc 3 300 0
 949 000c FFF7FEFF 		bl	_stats_start_measure_crit_thd
 950              	.LVL81:
 951              		.loc 3 301 0
 952 0010 FFF7FEFF 		bl	_dbg_check_lock
 953              	.LVL82:
 954              	.LBE216:
 955              	.LBE215:
 956              		.loc 1 306 0
 957 0014 2846     		mov	r0, r5
 958 0016 2146     		mov	r1, r4
 959 0018 FFF7FEFF 		bl	chEvtBroadcastFlagsI
 960              	.LVL83:
ARM GAS  C:\Users\jo\AppData\Local\Temp\cc1ND8fX.s 			page 18


 961              		.loc 1 307 0
 962 001c FFF7FEFF 		bl	chSchRescheduleS
 963              	.LVL84:
 964              	.LBB220:
 965              	.LBB221:
 966              		.loc 3 311 0
 967 0020 FFF7FEFF 		bl	_dbg_check_unlock
 968              	.LVL85:
 969              		.loc 3 312 0
 970 0024 FFF7FEFF 		bl	_stats_stop_measure_crit_thd
 971              	.LVL86:
 972              		.loc 3 318 0
 973 0028 084B     		ldr	r3, .L81
 974 002a 9A69     		ldr	r2, [r3, #24]
 975 002c 1B68     		ldr	r3, [r3]
 976 002e 9268     		ldr	r2, [r2, #8]
 977 0030 9B68     		ldr	r3, [r3, #8]
 978 0032 9A42     		cmp	r2, r3
 979 0034 06D2     		bcs	.L79
 980 0036 0648     		ldr	r0, .L81+4
 981 0038 FFF7FEFF 		bl	puts
 982              	.LVL87:
 983              	@ 318 "../../../os/rt/include/chsys.h" 1
 984 003c 00BE     		BKPT #0
 985              	
 986              	@ 0 "" 2
 987              		.thumb
 988 003e 0548     		ldr	r0, .L81+8
 989 0040 FFF7FEFF 		bl	chSysHalt
 990              	.LVL88:
 991              	.L79:
 992              	.LBB222:
 993              	.LBB223:
 994              	.LBB224:
 995              		.loc 2 546 0
 996 0044 0023     		movs	r3, #0
 997              	@ 546 "../../../os/ext/CMSIS/include/core_cmFunc.h" 1
 998 0046 83F31188 		MSR basepri, r3
 999              	@ 0 "" 2
 1000              		.thumb
 1001 004a 38BD     		pop	{r3, r4, r5, pc}
 1002              	.LVL89:
 1003              	.L82:
 1004              		.align	2
 1005              	.L81:
 1006 004c 00000000 		.word	ch
 1007 0050 00000000 		.word	.LC0
 1008 0054 00000000 		.word	.LANCHOR1
 1009              	.LBE224:
 1010              	.LBE223:
 1011              	.LBE222:
 1012              	.LBE221:
 1013              	.LBE220:
 1014              		.cfi_endproc
 1015              	.LFE234:
 1016              		.size	chEvtBroadcastFlags, .-chEvtBroadcastFlags
 1017 0058 AFF30080 		.section	.text.chEvtGetAndClearFlagsI,"ax",%progbits
ARM GAS  C:\Users\jo\AppData\Local\Temp\cc1ND8fX.s 			page 19


 1017      AFF30080 
 1018              		.align	2
 1019              		.p2align 4,,15
 1020              		.global	chEvtGetAndClearFlagsI
 1021              		.thumb
 1022              		.thumb_func
 1023              		.type	chEvtGetAndClearFlagsI, %function
 1024              	chEvtGetAndClearFlagsI:
 1025              	.LFB235:
 1026              		.loc 1 322 0
 1027              		.cfi_startproc
 1028              		@ args = 0, pretend = 0, frame = 0
 1029              		@ frame_needed = 0, uses_anonymous_args = 0
 1030              		@ link register save eliminated.
 1031              	.LVL90:
 1032              		.loc 1 322 0
 1033 0000 0346     		mov	r3, r0
 1034              		.loc 1 326 0
 1035 0002 0022     		movs	r2, #0
 1036              		.loc 1 325 0
 1037 0004 C068     		ldr	r0, [r0, #12]
 1038              	.LVL91:
 1039              		.loc 1 326 0
 1040 0006 DA60     		str	r2, [r3, #12]
 1041              		.loc 1 329 0
 1042 0008 7047     		bx	lr
 1043              		.cfi_endproc
 1044              	.LFE235:
 1045              		.size	chEvtGetAndClearFlagsI, .-chEvtGetAndClearFlagsI
 1046 000a 00BFAFF3 		.section	.text.chEvtDispatch,"ax",%progbits
 1046      0080
 1047              		.align	2
 1048              		.p2align 4,,15
 1049              		.global	chEvtDispatch
 1050              		.thumb
 1051              		.thumb_func
 1052              		.type	chEvtDispatch, %function
 1053              	chEvtDispatch:
 1054              	.LFB236:
 1055              		.loc 1 340 0
 1056              		.cfi_startproc
 1057              		@ args = 0, pretend = 0, frame = 0
 1058              		@ frame_needed = 0, uses_anonymous_args = 0
 1059              	.LVL92:
 1060 0000 2DE9F041 		push	{r4, r5, r6, r7, r8, lr}
 1061              		.cfi_def_cfa_offset 24
 1062              		.cfi_offset 4, -24
 1063              		.cfi_offset 5, -20
 1064              		.cfi_offset 6, -16
 1065              		.cfi_offset 7, -12
 1066              		.cfi_offset 8, -8
 1067              		.cfi_offset 14, -4
 1068              		.loc 1 340 0
 1069 0004 0E46     		mov	r6, r1
 1070              		.loc 1 343 0
 1071 0006 0546     		mov	r5, r0
 1072 0008 08B3     		cbz	r0, .L94
ARM GAS  C:\Users\jo\AppData\Local\Temp\cc1ND8fX.s 			page 20


 1073              	.LVL93:
 1074              	.L85:
 1075              		.loc 1 346 0
 1076 000a AEB1     		cbz	r6, .L84
 1077 000c 0024     		movs	r4, #0
 1078              		.loc 1 347 0
 1079 000e 4FF00108 		mov	r8, #1
 1080              	.LVL94:
 1081              	.L87:
 1082 0012 08FA04F7 		lsl	r7, r8, r4
 1083 0016 3742     		tst	r7, r6
 1084 0018 0BD0     		beq	.L88
 1085              		.loc 1 348 0
 1086 001a 2B68     		ldr	r3, [r5]
 1087 001c 73B1     		cbz	r3, .L95
 1088              	.L89:
 1089              		.loc 1 350 0
 1090 001e 2046     		mov	r0, r4
 1091              		.loc 1 349 0
 1092 0020 26EA0706 		bic	r6, r6, r7
 1093              	.LVL95:
 1094 0024 0435     		adds	r5, r5, #4
 1095              		.loc 1 350 0
 1096 0026 9847     		blx	r3
 1097              	.LVL96:
 1098              		.loc 1 352 0
 1099 0028 0134     		adds	r4, r4, #1
 1100              	.LVL97:
 1101              		.loc 1 346 0
 1102 002a 002E     		cmp	r6, #0
 1103 002c F1D1     		bne	.L87
 1104 002e BDE8F081 		pop	{r4, r5, r6, r7, r8, pc}
 1105              	.LVL98:
 1106              	.L88:
 1107              		.loc 1 352 0
 1108 0032 0134     		adds	r4, r4, #1
 1109              	.LVL99:
 1110 0034 0435     		adds	r5, r5, #4
 1111 0036 ECE7     		b	.L87
 1112              	.LVL100:
 1113              	.L84:
 1114 0038 BDE8F081 		pop	{r4, r5, r6, r7, r8, pc}
 1115              	.LVL101:
 1116              	.L95:
 1117              		.loc 1 348 0 discriminator 1
 1118 003c 0648     		ldr	r0, .L96
 1119 003e FFF7FEFF 		bl	puts
 1120              	.LVL102:
 1121              	@ 348 "../../../os/rt/src/chevents.c" 1
 1122 0042 00BE     		BKPT #0
 1123              	
 1124              	@ 0 "" 2
 1125              		.thumb
 1126 0044 0548     		ldr	r0, .L96+4
 1127 0046 FFF7FEFF 		bl	chSysHalt
 1128              	.LVL103:
 1129 004a 2B68     		ldr	r3, [r5]
ARM GAS  C:\Users\jo\AppData\Local\Temp\cc1ND8fX.s 			page 21


 1130 004c E7E7     		b	.L89
 1131              	.LVL104:
 1132              	.L94:
 1133              		.loc 1 343 0 discriminator 1
 1134 004e 0348     		ldr	r0, .L96+4
 1135              	.LVL105:
 1136 0050 FFF7FEFF 		bl	chSysHalt
 1137              	.LVL106:
 1138 0054 D9E7     		b	.L85
 1139              	.L97:
 1140 0056 00BF     		.align	2
 1141              	.L96:
 1142 0058 28000000 		.word	.LC1
 1143 005c 00000000 		.word	.LANCHOR6
 1144              		.cfi_endproc
 1145              	.LFE236:
 1146              		.size	chEvtDispatch, .-chEvtDispatch
 1147              		.section	.text.chEvtWaitOne,"ax",%progbits
 1148              		.align	2
 1149              		.p2align 4,,15
 1150              		.global	chEvtWaitOne
 1151              		.thumb
 1152              		.thumb_func
 1153              		.type	chEvtWaitOne, %function
 1154              	chEvtWaitOne:
 1155              	.LFB237:
 1156              		.loc 1 373 0
 1157              		.cfi_startproc
 1158              		@ args = 0, pretend = 0, frame = 0
 1159              		@ frame_needed = 0, uses_anonymous_args = 0
 1160              	.LVL107:
 1161 0000 70B5     		push	{r4, r5, r6, lr}
 1162              		.cfi_def_cfa_offset 16
 1163              		.cfi_offset 4, -16
 1164              		.cfi_offset 5, -12
 1165              		.cfi_offset 6, -8
 1166              		.cfi_offset 14, -4
 1167              		.loc 1 374 0
 1168 0002 184D     		ldr	r5, .L102
 1169              		.loc 1 373 0
 1170 0004 0446     		mov	r4, r0
 1171              		.loc 1 374 0
 1172 0006 AE69     		ldr	r6, [r5, #24]
 1173              	.LVL108:
 1174              	.LBB235:
 1175              	.LBB236:
 1176              	.LBB237:
 1177              	.LBB238:
 1178              	.LBB239:
 1179              		.loc 2 546 0
 1180 0008 2023     		movs	r3, #32
 1181              	@ 546 "../../../os/ext/CMSIS/include/core_cmFunc.h" 1
 1182 000a 83F31188 		MSR basepri, r3
 1183              	@ 0 "" 2
 1184              		.thumb
 1185              	.LBE239:
 1186              	.LBE238:
ARM GAS  C:\Users\jo\AppData\Local\Temp\cc1ND8fX.s 			page 22


 1187              	.LBE237:
 1188              		.loc 3 300 0
 1189 000e FFF7FEFF 		bl	_stats_start_measure_crit_thd
 1190              	.LVL109:
 1191              		.loc 3 301 0
 1192 0012 FFF7FEFF 		bl	_dbg_check_lock
 1193              	.LVL110:
 1194              	.LBE236:
 1195              	.LBE235:
 1196              		.loc 1 378 0
 1197 0016 B36B     		ldr	r3, [r6, #56]
 1198              	.LVL111:
 1199 0018 14EA0302 		ands	r2, r4, r3
 1200              	.LVL112:
 1201 001c 06D1     		bne	.L99
 1202              		.loc 1 379 0
 1203 001e 7462     		str	r4, [r6, #36]
 1204              		.loc 1 380 0
 1205 0020 0A20     		movs	r0, #10
 1206 0022 FFF7FEFF 		bl	chSchGoSleepS
 1207              	.LVL113:
 1208              		.loc 1 381 0
 1209 0026 B36B     		ldr	r3, [r6, #56]
 1210 0028 04EA0302 		and	r2, r4, r3
 1211              	.LVL114:
 1212              	.L99:
 1213              		.loc 1 383 0
 1214 002c 5442     		negs	r4, r2
 1215              	.LVL115:
 1216 002e 1440     		ands	r4, r4, r2
 1217              	.LVL116:
 1218              		.loc 1 384 0
 1219 0030 23EA0403 		bic	r3, r3, r4
 1220 0034 B363     		str	r3, [r6, #56]
 1221              	.LBB240:
 1222              	.LBB241:
 1223              		.loc 3 311 0
 1224 0036 FFF7FEFF 		bl	_dbg_check_unlock
 1225              	.LVL117:
 1226              		.loc 3 312 0
 1227 003a FFF7FEFF 		bl	_stats_stop_measure_crit_thd
 1228              	.LVL118:
 1229              		.loc 3 318 0
 1230 003e AA69     		ldr	r2, [r5, #24]
 1231 0040 2B68     		ldr	r3, [r5]
 1232 0042 9268     		ldr	r2, [r2, #8]
 1233 0044 9B68     		ldr	r3, [r3, #8]
 1234 0046 9A42     		cmp	r2, r3
 1235 0048 06D2     		bcs	.L100
 1236 004a 0748     		ldr	r0, .L102+4
 1237 004c FFF7FEFF 		bl	puts
 1238              	.LVL119:
 1239              	@ 318 "../../../os/rt/include/chsys.h" 1
 1240 0050 00BE     		BKPT #0
 1241              	
 1242              	@ 0 "" 2
 1243              		.thumb
ARM GAS  C:\Users\jo\AppData\Local\Temp\cc1ND8fX.s 			page 23


 1244 0052 0648     		ldr	r0, .L102+8
 1245 0054 FFF7FEFF 		bl	chSysHalt
 1246              	.LVL120:
 1247              	.L100:
 1248              	.LBB242:
 1249              	.LBB243:
 1250              	.LBB244:
 1251              		.loc 2 546 0
 1252 0058 0023     		movs	r3, #0
 1253              	@ 546 "../../../os/ext/CMSIS/include/core_cmFunc.h" 1
 1254 005a 83F31188 		MSR basepri, r3
 1255              	@ 0 "" 2
 1256              		.thumb
 1257              	.LBE244:
 1258              	.LBE243:
 1259              	.LBE242:
 1260              	.LBE241:
 1261              	.LBE240:
 1262              		.loc 1 388 0
 1263 005e 2046     		mov	r0, r4
 1264 0060 70BD     		pop	{r4, r5, r6, pc}
 1265              	.LVL121:
 1266              	.L103:
 1267 0062 00BF     		.align	2
 1268              	.L102:
 1269 0064 00000000 		.word	ch
 1270 0068 00000000 		.word	.LC0
 1271 006c 00000000 		.word	.LANCHOR1
 1272              		.cfi_endproc
 1273              	.LFE237:
 1274              		.size	chEvtWaitOne, .-chEvtWaitOne
 1275              		.section	.text.chEvtWaitAny,"ax",%progbits
 1276              		.align	2
 1277              		.p2align 4,,15
 1278              		.global	chEvtWaitAny
 1279              		.thumb
 1280              		.thumb_func
 1281              		.type	chEvtWaitAny, %function
 1282              	chEvtWaitAny:
 1283              	.LFB238:
 1284              		.loc 1 402 0
 1285              		.cfi_startproc
 1286              		@ args = 0, pretend = 0, frame = 0
 1287              		@ frame_needed = 0, uses_anonymous_args = 0
 1288              	.LVL122:
 1289 0000 F8B5     		push	{r3, r4, r5, r6, r7, lr}
 1290              		.cfi_def_cfa_offset 24
 1291              		.cfi_offset 3, -24
 1292              		.cfi_offset 4, -20
 1293              		.cfi_offset 5, -16
 1294              		.cfi_offset 6, -12
 1295              		.cfi_offset 7, -8
 1296              		.cfi_offset 14, -4
 1297              		.loc 1 403 0
 1298 0002 174C     		ldr	r4, .L108
 1299              		.loc 1 402 0
 1300 0004 0646     		mov	r6, r0
ARM GAS  C:\Users\jo\AppData\Local\Temp\cc1ND8fX.s 			page 24


 1301              		.loc 1 403 0
 1302 0006 A569     		ldr	r5, [r4, #24]
 1303              	.LVL123:
 1304              	.LBB255:
 1305              	.LBB256:
 1306              	.LBB257:
 1307              	.LBB258:
 1308              	.LBB259:
 1309              		.loc 2 546 0
 1310 0008 2023     		movs	r3, #32
 1311              	@ 546 "../../../os/ext/CMSIS/include/core_cmFunc.h" 1
 1312 000a 83F31188 		MSR basepri, r3
 1313              	@ 0 "" 2
 1314              		.thumb
 1315              	.LBE259:
 1316              	.LBE258:
 1317              	.LBE257:
 1318              		.loc 3 300 0
 1319 000e FFF7FEFF 		bl	_stats_start_measure_crit_thd
 1320              	.LVL124:
 1321              		.loc 3 301 0
 1322 0012 FFF7FEFF 		bl	_dbg_check_lock
 1323              	.LVL125:
 1324              	.LBE256:
 1325              	.LBE255:
 1326              		.loc 1 407 0
 1327 0016 AB6B     		ldr	r3, [r5, #56]
 1328              	.LVL126:
 1329 0018 16EA0307 		ands	r7, r6, r3
 1330              	.LVL127:
 1331 001c 06D1     		bne	.L105
 1332              		.loc 1 408 0
 1333 001e 6E62     		str	r6, [r5, #36]
 1334              		.loc 1 409 0
 1335 0020 0A20     		movs	r0, #10
 1336 0022 FFF7FEFF 		bl	chSchGoSleepS
 1337              	.LVL128:
 1338              		.loc 1 410 0
 1339 0026 AB6B     		ldr	r3, [r5, #56]
 1340 0028 06EA0307 		and	r7, r6, r3
 1341              	.LVL129:
 1342              	.L105:
 1343              		.loc 1 412 0
 1344 002c 23EA0703 		bic	r3, r3, r7
 1345 0030 AB63     		str	r3, [r5, #56]
 1346              	.LBB260:
 1347              	.LBB261:
 1348              		.loc 3 311 0
 1349 0032 FFF7FEFF 		bl	_dbg_check_unlock
 1350              	.LVL130:
 1351              		.loc 3 312 0
 1352 0036 FFF7FEFF 		bl	_stats_stop_measure_crit_thd
 1353              	.LVL131:
 1354              		.loc 3 318 0
 1355 003a A269     		ldr	r2, [r4, #24]
 1356 003c 2368     		ldr	r3, [r4]
 1357 003e 9268     		ldr	r2, [r2, #8]
ARM GAS  C:\Users\jo\AppData\Local\Temp\cc1ND8fX.s 			page 25


 1358 0040 9B68     		ldr	r3, [r3, #8]
 1359 0042 9A42     		cmp	r2, r3
 1360 0044 06D2     		bcs	.L106
 1361 0046 0748     		ldr	r0, .L108+4
 1362 0048 FFF7FEFF 		bl	puts
 1363              	.LVL132:
 1364              	@ 318 "../../../os/rt/include/chsys.h" 1
 1365 004c 00BE     		BKPT #0
 1366              	
 1367              	@ 0 "" 2
 1368              		.thumb
 1369 004e 0648     		ldr	r0, .L108+8
 1370 0050 FFF7FEFF 		bl	chSysHalt
 1371              	.LVL133:
 1372              	.L106:
 1373              	.LBB262:
 1374              	.LBB263:
 1375              	.LBB264:
 1376              		.loc 2 546 0
 1377 0054 0023     		movs	r3, #0
 1378              	@ 546 "../../../os/ext/CMSIS/include/core_cmFunc.h" 1
 1379 0056 83F31188 		MSR basepri, r3
 1380              	@ 0 "" 2
 1381              		.thumb
 1382              	.LBE264:
 1383              	.LBE263:
 1384              	.LBE262:
 1385              	.LBE261:
 1386              	.LBE260:
 1387              		.loc 1 416 0
 1388 005a 3846     		mov	r0, r7
 1389 005c F8BD     		pop	{r3, r4, r5, r6, r7, pc}
 1390              	.LVL134:
 1391              	.L109:
 1392 005e 00BF     		.align	2
 1393              	.L108:
 1394 0060 00000000 		.word	ch
 1395 0064 00000000 		.word	.LC0
 1396 0068 00000000 		.word	.LANCHOR1
 1397              		.cfi_endproc
 1398              	.LFE238:
 1399              		.size	chEvtWaitAny, .-chEvtWaitAny
 1400 006c AFF30080 		.section	.text.chEvtWaitAll,"ax",%progbits
 1401              		.align	2
 1402              		.p2align 4,,15
 1403              		.global	chEvtWaitAll
 1404              		.thumb
 1405              		.thumb_func
 1406              		.type	chEvtWaitAll, %function
 1407              	chEvtWaitAll:
 1408              	.LFB239:
 1409              		.loc 1 429 0
 1410              		.cfi_startproc
 1411              		@ args = 0, pretend = 0, frame = 0
 1412              		@ frame_needed = 0, uses_anonymous_args = 0
 1413              	.LVL135:
 1414 0000 70B5     		push	{r4, r5, r6, lr}
ARM GAS  C:\Users\jo\AppData\Local\Temp\cc1ND8fX.s 			page 26


 1415              		.cfi_def_cfa_offset 16
 1416              		.cfi_offset 4, -16
 1417              		.cfi_offset 5, -12
 1418              		.cfi_offset 6, -8
 1419              		.cfi_offset 14, -4
 1420              		.loc 1 430 0
 1421 0002 164E     		ldr	r6, .L114
 1422              		.loc 1 429 0
 1423 0004 0446     		mov	r4, r0
 1424              		.loc 1 430 0
 1425 0006 B569     		ldr	r5, [r6, #24]
 1426              	.LVL136:
 1427              	.LBB275:
 1428              	.LBB276:
 1429              	.LBB277:
 1430              	.LBB278:
 1431              	.LBB279:
 1432              		.loc 2 546 0
 1433 0008 2023     		movs	r3, #32
 1434              	@ 546 "../../../os/ext/CMSIS/include/core_cmFunc.h" 1
 1435 000a 83F31188 		MSR basepri, r3
 1436              	@ 0 "" 2
 1437              		.thumb
 1438              	.LBE279:
 1439              	.LBE278:
 1440              	.LBE277:
 1441              		.loc 3 300 0
 1442 000e FFF7FEFF 		bl	_stats_start_measure_crit_thd
 1443              	.LVL137:
 1444              		.loc 3 301 0
 1445 0012 FFF7FEFF 		bl	_dbg_check_lock
 1446              	.LVL138:
 1447              	.LBE276:
 1448              	.LBE275:
 1449              		.loc 1 433 0
 1450 0016 AB6B     		ldr	r3, [r5, #56]
 1451 0018 04EA0302 		and	r2, r4, r3
 1452 001c A242     		cmp	r2, r4
 1453 001e 04D0     		beq	.L111
 1454              		.loc 1 434 0
 1455 0020 6C62     		str	r4, [r5, #36]
 1456              		.loc 1 435 0
 1457 0022 0B20     		movs	r0, #11
 1458 0024 FFF7FEFF 		bl	chSchGoSleepS
 1459              	.LVL139:
 1460 0028 AB6B     		ldr	r3, [r5, #56]
 1461              	.L111:
 1462              		.loc 1 437 0
 1463 002a 23EA0403 		bic	r3, r3, r4
 1464 002e AB63     		str	r3, [r5, #56]
 1465              	.LBB280:
 1466              	.LBB281:
 1467              		.loc 3 311 0
 1468 0030 FFF7FEFF 		bl	_dbg_check_unlock
 1469              	.LVL140:
 1470              		.loc 3 312 0
 1471 0034 FFF7FEFF 		bl	_stats_stop_measure_crit_thd
ARM GAS  C:\Users\jo\AppData\Local\Temp\cc1ND8fX.s 			page 27


 1472              	.LVL141:
 1473              		.loc 3 318 0
 1474 0038 B269     		ldr	r2, [r6, #24]
 1475 003a 3368     		ldr	r3, [r6]
 1476 003c 9268     		ldr	r2, [r2, #8]
 1477 003e 9B68     		ldr	r3, [r3, #8]
 1478 0040 9A42     		cmp	r2, r3
 1479 0042 06D2     		bcs	.L112
 1480 0044 0648     		ldr	r0, .L114+4
 1481 0046 FFF7FEFF 		bl	puts
 1482              	.LVL142:
 1483              	@ 318 "../../../os/rt/include/chsys.h" 1
 1484 004a 00BE     		BKPT #0
 1485              	
 1486              	@ 0 "" 2
 1487              		.thumb
 1488 004c 0548     		ldr	r0, .L114+8
 1489 004e FFF7FEFF 		bl	chSysHalt
 1490              	.LVL143:
 1491              	.L112:
 1492              	.LBB282:
 1493              	.LBB283:
 1494              	.LBB284:
 1495              		.loc 2 546 0
 1496 0052 0023     		movs	r3, #0
 1497              	@ 546 "../../../os/ext/CMSIS/include/core_cmFunc.h" 1
 1498 0054 83F31188 		MSR basepri, r3
 1499              	@ 0 "" 2
 1500              		.thumb
 1501              	.LBE284:
 1502              	.LBE283:
 1503              	.LBE282:
 1504              	.LBE281:
 1505              	.LBE280:
 1506              		.loc 1 441 0
 1507 0058 2046     		mov	r0, r4
 1508 005a 70BD     		pop	{r4, r5, r6, pc}
 1509              	.LVL144:
 1510              	.L115:
 1511              		.align	2
 1512              	.L114:
 1513 005c 00000000 		.word	ch
 1514 0060 00000000 		.word	.LC0
 1515 0064 00000000 		.word	.LANCHOR1
 1516              		.cfi_endproc
 1517              	.LFE239:
 1518              		.size	chEvtWaitAll, .-chEvtWaitAll
 1519 0068 AFF30080 		.section	.text.chEvtWaitOneTimeout,"ax",%progbits
 1519      AFF30080 
 1520              		.align	2
 1521              		.p2align 4,,15
 1522              		.global	chEvtWaitOneTimeout
 1523              		.thumb
 1524              		.thumb_func
 1525              		.type	chEvtWaitOneTimeout, %function
 1526              	chEvtWaitOneTimeout:
 1527              	.LFB240:
ARM GAS  C:\Users\jo\AppData\Local\Temp\cc1ND8fX.s 			page 28


 1528              		.loc 1 467 0
 1529              		.cfi_startproc
 1530              		@ args = 0, pretend = 0, frame = 0
 1531              		@ frame_needed = 0, uses_anonymous_args = 0
 1532              	.LVL145:
 1533 0000 F8B5     		push	{r3, r4, r5, r6, r7, lr}
 1534              		.cfi_def_cfa_offset 24
 1535              		.cfi_offset 3, -24
 1536              		.cfi_offset 4, -20
 1537              		.cfi_offset 5, -16
 1538              		.cfi_offset 6, -12
 1539              		.cfi_offset 7, -8
 1540              		.cfi_offset 14, -4
 1541              		.loc 1 468 0
 1542 0002 294D     		ldr	r5, .L130
 1543              		.loc 1 467 0
 1544 0004 0446     		mov	r4, r0
 1545 0006 0F46     		mov	r7, r1
 1546              		.loc 1 468 0
 1547 0008 AE69     		ldr	r6, [r5, #24]
 1548              	.LVL146:
 1549              	.LBB305:
 1550              	.LBB306:
 1551              	.LBB307:
 1552              	.LBB308:
 1553              	.LBB309:
 1554              		.loc 2 546 0
 1555 000a 2023     		movs	r3, #32
 1556              	@ 546 "../../../os/ext/CMSIS/include/core_cmFunc.h" 1
 1557 000c 83F31188 		MSR basepri, r3
 1558              	@ 0 "" 2
 1559              		.thumb
 1560              	.LBE309:
 1561              	.LBE308:
 1562              	.LBE307:
 1563              		.loc 3 300 0
 1564 0010 FFF7FEFF 		bl	_stats_start_measure_crit_thd
 1565              	.LVL147:
 1566              		.loc 3 301 0
 1567 0014 FFF7FEFF 		bl	_dbg_check_lock
 1568              	.LVL148:
 1569              	.LBE306:
 1570              	.LBE305:
 1571              		.loc 1 472 0
 1572 0018 B26B     		ldr	r2, [r6, #56]
 1573              	.LVL149:
 1574 001a 14EA0203 		ands	r3, r4, r2
 1575              	.LVL150:
 1576 001e 0AD1     		bne	.L117
 1577              		.loc 1 473 0
 1578 0020 EFB1     		cbz	r7, .L127
 1579              		.loc 1 477 0
 1580 0022 7462     		str	r4, [r6, #36]
 1581              		.loc 1 478 0
 1582 0024 3946     		mov	r1, r7
 1583 0026 0A20     		movs	r0, #10
 1584 0028 FFF7FEFF 		bl	chSchGoSleepTimeoutS
ARM GAS  C:\Users\jo\AppData\Local\Temp\cc1ND8fX.s 			page 29


 1585              	.LVL151:
 1586 002c 0028     		cmp	r0, #0
 1587 002e 16DB     		blt	.L127
 1588              		.loc 1 482 0
 1589 0030 B26B     		ldr	r2, [r6, #56]
 1590 0032 04EA0203 		and	r3, r4, r2
 1591              	.LVL152:
 1592              	.L117:
 1593              		.loc 1 484 0
 1594 0036 5C42     		negs	r4, r3
 1595              	.LVL153:
 1596 0038 1C40     		ands	r4, r4, r3
 1597              	.LVL154:
 1598              		.loc 1 485 0
 1599 003a 22EA0402 		bic	r2, r2, r4
 1600 003e B263     		str	r2, [r6, #56]
 1601              	.LBB310:
 1602              	.LBB311:
 1603              		.loc 3 311 0
 1604 0040 FFF7FEFF 		bl	_dbg_check_unlock
 1605              	.LVL155:
 1606              		.loc 3 312 0
 1607 0044 FFF7FEFF 		bl	_stats_stop_measure_crit_thd
 1608              	.LVL156:
 1609              		.loc 3 318 0
 1610 0048 AA69     		ldr	r2, [r5, #24]
 1611 004a 2B68     		ldr	r3, [r5]
 1612 004c 9268     		ldr	r2, [r2, #8]
 1613 004e 9B68     		ldr	r3, [r3, #8]
 1614 0050 9A42     		cmp	r2, r3
 1615 0052 12D3     		bcc	.L128
 1616              	.LVL157:
 1617              	.LBB312:
 1618              	.LBB313:
 1619              	.LBB314:
 1620              		.loc 2 546 0
 1621 0054 0023     		movs	r3, #0
 1622              	@ 546 "../../../os/ext/CMSIS/include/core_cmFunc.h" 1
 1623 0056 83F31188 		MSR basepri, r3
 1624              	@ 0 "" 2
 1625              		.thumb
 1626              	.LBE314:
 1627              	.LBE313:
 1628              	.LBE312:
 1629              	.LBE311:
 1630              	.LBE310:
 1631              		.loc 1 488 0
 1632 005a 2046     		mov	r0, r4
 1633              		.loc 1 489 0
 1634 005c F8BD     		pop	{r3, r4, r5, r6, r7, pc}
 1635              	.LVL158:
 1636              	.L127:
 1637              	.LBB319:
 1638              	.LBB320:
 1639              		.loc 3 311 0
 1640 005e FFF7FEFF 		bl	_dbg_check_unlock
 1641              	.LVL159:
ARM GAS  C:\Users\jo\AppData\Local\Temp\cc1ND8fX.s 			page 30


 1642              		.loc 3 312 0
 1643 0062 FFF7FEFF 		bl	_stats_stop_measure_crit_thd
 1644              	.LVL160:
 1645              		.loc 3 318 0
 1646 0066 AA69     		ldr	r2, [r5, #24]
 1647 0068 2B68     		ldr	r3, [r5]
 1648 006a 9268     		ldr	r2, [r2, #8]
 1649 006c 9B68     		ldr	r3, [r3, #8]
 1650 006e 9A42     		cmp	r2, r3
 1651 0070 0FD3     		bcc	.L129
 1652              	.LVL161:
 1653              	.LBB321:
 1654              	.LBB322:
 1655              	.LBB323:
 1656              		.loc 2 546 0
 1657 0072 0020     		movs	r0, #0
 1658              	@ 546 "../../../os/ext/CMSIS/include/core_cmFunc.h" 1
 1659 0074 80F31188 		MSR basepri, r0
 1660              	@ 0 "" 2
 1661              		.thumb
 1662 0078 F8BD     		pop	{r3, r4, r5, r6, r7, pc}
 1663              	.LVL162:
 1664              	.L128:
 1665              	.LBE323:
 1666              	.LBE322:
 1667              	.LBE321:
 1668              	.LBE320:
 1669              	.LBE319:
 1670              	.LBB328:
 1671              	.LBB318:
 1672              		.loc 3 318 0
 1673 007a 0C48     		ldr	r0, .L130+4
 1674 007c FFF7FEFF 		bl	puts
 1675              	.LVL163:
 1676              	@ 318 "../../../os/rt/include/chsys.h" 1
 1677 0080 00BE     		BKPT #0
 1678              	
 1679              	@ 0 "" 2
 1680              		.thumb
 1681 0082 0B48     		ldr	r0, .L130+8
 1682 0084 FFF7FEFF 		bl	chSysHalt
 1683              	.LVL164:
 1684              	.LBB317:
 1685              	.LBB316:
 1686              	.LBB315:
 1687              		.loc 2 546 0
 1688 0088 0023     		movs	r3, #0
 1689              	@ 546 "../../../os/ext/CMSIS/include/core_cmFunc.h" 1
 1690 008a 83F31188 		MSR basepri, r3
 1691              	@ 0 "" 2
 1692              		.thumb
 1693              	.LBE315:
 1694              	.LBE316:
 1695              	.LBE317:
 1696              	.LBE318:
 1697              	.LBE328:
 1698              		.loc 1 488 0
ARM GAS  C:\Users\jo\AppData\Local\Temp\cc1ND8fX.s 			page 31


 1699 008e 2046     		mov	r0, r4
 1700              		.loc 1 489 0
 1701 0090 F8BD     		pop	{r3, r4, r5, r6, r7, pc}
 1702              	.LVL165:
 1703              	.L129:
 1704              	.LBB329:
 1705              	.LBB327:
 1706              		.loc 3 318 0
 1707 0092 0648     		ldr	r0, .L130+4
 1708 0094 FFF7FEFF 		bl	puts
 1709              	.LVL166:
 1710              	@ 318 "../../../os/rt/include/chsys.h" 1
 1711 0098 00BE     		BKPT #0
 1712              	
 1713              	@ 0 "" 2
 1714              		.thumb
 1715 009a 0548     		ldr	r0, .L130+8
 1716 009c FFF7FEFF 		bl	chSysHalt
 1717              	.LVL167:
 1718              	.LBB326:
 1719              	.LBB325:
 1720              	.LBB324:
 1721              		.loc 2 546 0
 1722 00a0 0020     		movs	r0, #0
 1723              	@ 546 "../../../os/ext/CMSIS/include/core_cmFunc.h" 1
 1724 00a2 80F31188 		MSR basepri, r0
 1725              	@ 0 "" 2
 1726              		.thumb
 1727 00a6 F8BD     		pop	{r3, r4, r5, r6, r7, pc}
 1728              	.LVL168:
 1729              	.L131:
 1730              		.align	2
 1731              	.L130:
 1732 00a8 00000000 		.word	ch
 1733 00ac 00000000 		.word	.LC0
 1734 00b0 00000000 		.word	.LANCHOR1
 1735              	.LBE324:
 1736              	.LBE325:
 1737              	.LBE326:
 1738              	.LBE327:
 1739              	.LBE329:
 1740              		.cfi_endproc
 1741              	.LFE240:
 1742              		.size	chEvtWaitOneTimeout, .-chEvtWaitOneTimeout
 1743 00b4 AFF30080 		.section	.text.chEvtWaitAnyTimeout,"ax",%progbits
 1743      AFF30080 
 1743      AFF30080 
 1744              		.align	2
 1745              		.p2align 4,,15
 1746              		.global	chEvtWaitAnyTimeout
 1747              		.thumb
 1748              		.thumb_func
 1749              		.type	chEvtWaitAnyTimeout, %function
 1750              	chEvtWaitAnyTimeout:
 1751              	.LFB241:
 1752              		.loc 1 509 0
 1753              		.cfi_startproc
ARM GAS  C:\Users\jo\AppData\Local\Temp\cc1ND8fX.s 			page 32


 1754              		@ args = 0, pretend = 0, frame = 0
 1755              		@ frame_needed = 0, uses_anonymous_args = 0
 1756              	.LVL169:
 1757 0000 2DE9F041 		push	{r4, r5, r6, r7, r8, lr}
 1758              		.cfi_def_cfa_offset 24
 1759              		.cfi_offset 4, -24
 1760              		.cfi_offset 5, -20
 1761              		.cfi_offset 6, -16
 1762              		.cfi_offset 7, -12
 1763              		.cfi_offset 8, -8
 1764              		.cfi_offset 14, -4
 1765              		.loc 1 510 0
 1766 0004 2B4D     		ldr	r5, .L146
 1767              		.loc 1 509 0
 1768 0006 0646     		mov	r6, r0
 1769 0008 8846     		mov	r8, r1
 1770              		.loc 1 510 0
 1771 000a AF69     		ldr	r7, [r5, #24]
 1772              	.LVL170:
 1773              	.LBB350:
 1774              	.LBB351:
 1775              	.LBB352:
 1776              	.LBB353:
 1777              	.LBB354:
 1778              		.loc 2 546 0
 1779 000c 2023     		movs	r3, #32
 1780              	@ 546 "../../../os/ext/CMSIS/include/core_cmFunc.h" 1
 1781 000e 83F31188 		MSR basepri, r3
 1782              	@ 0 "" 2
 1783              		.thumb
 1784              	.LBE354:
 1785              	.LBE353:
 1786              	.LBE352:
 1787              		.loc 3 300 0
 1788 0012 FFF7FEFF 		bl	_stats_start_measure_crit_thd
 1789              	.LVL171:
 1790              		.loc 3 301 0
 1791 0016 FFF7FEFF 		bl	_dbg_check_lock
 1792              	.LVL172:
 1793              	.LBE351:
 1794              	.LBE350:
 1795              		.loc 1 514 0
 1796 001a BB6B     		ldr	r3, [r7, #56]
 1797              	.LVL173:
 1798 001c 16EA0304 		ands	r4, r6, r3
 1799              	.LVL174:
 1800 0020 0CD1     		bne	.L133
 1801              		.loc 1 515 0
 1802 0022 B8F1000F 		cmp	r8, #0
 1803 0026 1CD0     		beq	.L143
 1804              		.loc 1 519 0
 1805 0028 7E62     		str	r6, [r7, #36]
 1806              		.loc 1 520 0
 1807 002a 4146     		mov	r1, r8
 1808 002c 0A20     		movs	r0, #10
 1809 002e FFF7FEFF 		bl	chSchGoSleepTimeoutS
 1810              	.LVL175:
ARM GAS  C:\Users\jo\AppData\Local\Temp\cc1ND8fX.s 			page 33


 1811 0032 0028     		cmp	r0, #0
 1812 0034 15DB     		blt	.L143
 1813              		.loc 1 524 0
 1814 0036 BB6B     		ldr	r3, [r7, #56]
 1815 0038 06EA0304 		and	r4, r6, r3
 1816              	.LVL176:
 1817              	.L133:
 1818              		.loc 1 526 0
 1819 003c 23EA0403 		bic	r3, r3, r4
 1820 0040 BB63     		str	r3, [r7, #56]
 1821              	.LBB355:
 1822              	.LBB356:
 1823              		.loc 3 311 0
 1824 0042 FFF7FEFF 		bl	_dbg_check_unlock
 1825              	.LVL177:
 1826              		.loc 3 312 0
 1827 0046 FFF7FEFF 		bl	_stats_stop_measure_crit_thd
 1828              	.LVL178:
 1829              		.loc 3 318 0
 1830 004a AA69     		ldr	r2, [r5, #24]
 1831 004c 2B68     		ldr	r3, [r5]
 1832 004e 9268     		ldr	r2, [r2, #8]
 1833 0050 9B68     		ldr	r3, [r3, #8]
 1834 0052 9A42     		cmp	r2, r3
 1835 0054 14D3     		bcc	.L144
 1836              	.LVL179:
 1837              	.LBB357:
 1838              	.LBB358:
 1839              	.LBB359:
 1840              		.loc 2 546 0
 1841 0056 0023     		movs	r3, #0
 1842              	@ 546 "../../../os/ext/CMSIS/include/core_cmFunc.h" 1
 1843 0058 83F31188 		MSR basepri, r3
 1844              	@ 0 "" 2
 1845              		.thumb
 1846              	.LBE359:
 1847              	.LBE358:
 1848              	.LBE357:
 1849              	.LBE356:
 1850              	.LBE355:
 1851              		.loc 1 529 0
 1852 005c 2046     		mov	r0, r4
 1853              		.loc 1 530 0
 1854 005e BDE8F081 		pop	{r4, r5, r6, r7, r8, pc}
 1855              	.LVL180:
 1856              	.L143:
 1857              	.LBB364:
 1858              	.LBB365:
 1859              		.loc 3 311 0
 1860 0062 FFF7FEFF 		bl	_dbg_check_unlock
 1861              	.LVL181:
 1862              		.loc 3 312 0
 1863 0066 FFF7FEFF 		bl	_stats_stop_measure_crit_thd
 1864              	.LVL182:
 1865              		.loc 3 318 0
 1866 006a AA69     		ldr	r2, [r5, #24]
 1867 006c 2B68     		ldr	r3, [r5]
ARM GAS  C:\Users\jo\AppData\Local\Temp\cc1ND8fX.s 			page 34


 1868 006e 9268     		ldr	r2, [r2, #8]
 1869 0070 9B68     		ldr	r3, [r3, #8]
 1870 0072 9A42     		cmp	r2, r3
 1871 0074 11D3     		bcc	.L145
 1872              	.LVL183:
 1873              	.LBB366:
 1874              	.LBB367:
 1875              	.LBB368:
 1876              		.loc 2 546 0
 1877 0076 0020     		movs	r0, #0
 1878              	@ 546 "../../../os/ext/CMSIS/include/core_cmFunc.h" 1
 1879 0078 80F31188 		MSR basepri, r0
 1880              	@ 0 "" 2
 1881              		.thumb
 1882 007c BDE8F081 		pop	{r4, r5, r6, r7, r8, pc}
 1883              	.LVL184:
 1884              	.L144:
 1885              	.LBE368:
 1886              	.LBE367:
 1887              	.LBE366:
 1888              	.LBE365:
 1889              	.LBE364:
 1890              	.LBB373:
 1891              	.LBB363:
 1892              		.loc 3 318 0
 1893 0080 0D48     		ldr	r0, .L146+4
 1894 0082 FFF7FEFF 		bl	puts
 1895              	.LVL185:
 1896              	@ 318 "../../../os/rt/include/chsys.h" 1
 1897 0086 00BE     		BKPT #0
 1898              	
 1899              	@ 0 "" 2
 1900              		.thumb
 1901 0088 0C48     		ldr	r0, .L146+8
 1902 008a FFF7FEFF 		bl	chSysHalt
 1903              	.LVL186:
 1904              	.LBB362:
 1905              	.LBB361:
 1906              	.LBB360:
 1907              		.loc 2 546 0
 1908 008e 0023     		movs	r3, #0
 1909              	@ 546 "../../../os/ext/CMSIS/include/core_cmFunc.h" 1
 1910 0090 83F31188 		MSR basepri, r3
 1911              	@ 0 "" 2
 1912              		.thumb
 1913              	.LBE360:
 1914              	.LBE361:
 1915              	.LBE362:
 1916              	.LBE363:
 1917              	.LBE373:
 1918              		.loc 1 529 0
 1919 0094 2046     		mov	r0, r4
 1920              		.loc 1 530 0
 1921 0096 BDE8F081 		pop	{r4, r5, r6, r7, r8, pc}
 1922              	.LVL187:
 1923              	.L145:
 1924              	.LBB374:
ARM GAS  C:\Users\jo\AppData\Local\Temp\cc1ND8fX.s 			page 35


 1925              	.LBB372:
 1926              		.loc 3 318 0
 1927 009a 0748     		ldr	r0, .L146+4
 1928 009c FFF7FEFF 		bl	puts
 1929              	.LVL188:
 1930              	@ 318 "../../../os/rt/include/chsys.h" 1
 1931 00a0 00BE     		BKPT #0
 1932              	
 1933              	@ 0 "" 2
 1934              		.thumb
 1935 00a2 0648     		ldr	r0, .L146+8
 1936 00a4 FFF7FEFF 		bl	chSysHalt
 1937              	.LVL189:
 1938              	.LBB371:
 1939              	.LBB370:
 1940              	.LBB369:
 1941              		.loc 2 546 0
 1942 00a8 0020     		movs	r0, #0
 1943              	@ 546 "../../../os/ext/CMSIS/include/core_cmFunc.h" 1
 1944 00aa 80F31188 		MSR basepri, r0
 1945              	@ 0 "" 2
 1946              		.thumb
 1947 00ae BDE8F081 		pop	{r4, r5, r6, r7, r8, pc}
 1948              	.LVL190:
 1949              	.L147:
 1950 00b2 00BF     		.align	2
 1951              	.L146:
 1952 00b4 00000000 		.word	ch
 1953 00b8 00000000 		.word	.LC0
 1954 00bc 00000000 		.word	.LANCHOR1
 1955              	.LBE369:
 1956              	.LBE370:
 1957              	.LBE371:
 1958              	.LBE372:
 1959              	.LBE374:
 1960              		.cfi_endproc
 1961              	.LFE241:
 1962              		.size	chEvtWaitAnyTimeout, .-chEvtWaitAnyTimeout
 1963              		.section	.text.chEvtWaitAllTimeout,"ax",%progbits
 1964              		.align	2
 1965              		.p2align 4,,15
 1966              		.global	chEvtWaitAllTimeout
 1967              		.thumb
 1968              		.thumb_func
 1969              		.type	chEvtWaitAllTimeout, %function
 1970              	chEvtWaitAllTimeout:
 1971              	.LFB242:
 1972              		.loc 1 549 0
 1973              		.cfi_startproc
 1974              		@ args = 0, pretend = 0, frame = 0
 1975              		@ frame_needed = 0, uses_anonymous_args = 0
 1976              	.LVL191:
 1977 0000 F8B5     		push	{r3, r4, r5, r6, r7, lr}
 1978              		.cfi_def_cfa_offset 24
 1979              		.cfi_offset 3, -24
 1980              		.cfi_offset 4, -20
 1981              		.cfi_offset 5, -16
ARM GAS  C:\Users\jo\AppData\Local\Temp\cc1ND8fX.s 			page 36


 1982              		.cfi_offset 6, -12
 1983              		.cfi_offset 7, -8
 1984              		.cfi_offset 14, -4
 1985              		.loc 1 550 0
 1986 0002 264D     		ldr	r5, .L160
 1987              		.loc 1 549 0
 1988 0004 0446     		mov	r4, r0
 1989 0006 0F46     		mov	r7, r1
 1990              		.loc 1 550 0
 1991 0008 AE69     		ldr	r6, [r5, #24]
 1992              	.LVL192:
 1993              	.LBB395:
 1994              	.LBB396:
 1995              	.LBB397:
 1996              	.LBB398:
 1997              	.LBB399:
 1998              		.loc 2 546 0
 1999 000a 2023     		movs	r3, #32
 2000              	@ 546 "../../../os/ext/CMSIS/include/core_cmFunc.h" 1
 2001 000c 83F31188 		MSR basepri, r3
 2002              	@ 0 "" 2
 2003              		.thumb
 2004              	.LBE399:
 2005              	.LBE398:
 2006              	.LBE397:
 2007              		.loc 3 300 0
 2008 0010 FFF7FEFF 		bl	_stats_start_measure_crit_thd
 2009              	.LVL193:
 2010              		.loc 3 301 0
 2011 0014 FFF7FEFF 		bl	_dbg_check_lock
 2012              	.LVL194:
 2013              	.LBE396:
 2014              	.LBE395:
 2015              		.loc 1 553 0
 2016 0018 B36B     		ldr	r3, [r6, #56]
 2017 001a 04EA0302 		and	r2, r4, r3
 2018 001e A242     		cmp	r2, r4
 2019 0020 08D0     		beq	.L149
 2020              		.loc 1 554 0
 2021 0022 2FB3     		cbz	r7, .L153
 2022              		.loc 1 558 0
 2023 0024 7462     		str	r4, [r6, #36]
 2024              		.loc 1 559 0
 2025 0026 3946     		mov	r1, r7
 2026 0028 0B20     		movs	r0, #11
 2027 002a FFF7FEFF 		bl	chSchGoSleepTimeoutS
 2028              	.LVL195:
 2029 002e 0028     		cmp	r0, #0
 2030 0030 1EDB     		blt	.L153
 2031 0032 B36B     		ldr	r3, [r6, #56]
 2032              	.L149:
 2033              		.loc 1 564 0
 2034 0034 23EA0403 		bic	r3, r3, r4
 2035 0038 B363     		str	r3, [r6, #56]
 2036              	.LBB400:
 2037              	.LBB401:
 2038              		.loc 3 311 0
ARM GAS  C:\Users\jo\AppData\Local\Temp\cc1ND8fX.s 			page 37


 2039 003a FFF7FEFF 		bl	_dbg_check_unlock
 2040              	.LVL196:
 2041              		.loc 3 312 0
 2042 003e FFF7FEFF 		bl	_stats_stop_measure_crit_thd
 2043              	.LVL197:
 2044              		.loc 3 318 0
 2045 0042 AA69     		ldr	r2, [r5, #24]
 2046 0044 2B68     		ldr	r3, [r5]
 2047 0046 9268     		ldr	r2, [r2, #8]
 2048 0048 9B68     		ldr	r3, [r3, #8]
 2049 004a 9A42     		cmp	r2, r3
 2050 004c 04D3     		bcc	.L159
 2051              	.LVL198:
 2052              	.LBB402:
 2053              	.LBB403:
 2054              	.LBB404:
 2055              		.loc 2 546 0
 2056 004e 0023     		movs	r3, #0
 2057              	@ 546 "../../../os/ext/CMSIS/include/core_cmFunc.h" 1
 2058 0050 83F31188 		MSR basepri, r3
 2059              	@ 0 "" 2
 2060              		.thumb
 2061 0054 2046     		mov	r0, r4
 2062              	.LBE404:
 2063              	.LBE403:
 2064              	.LBE402:
 2065              	.LBE401:
 2066              	.LBE400:
 2067              		.loc 1 568 0
 2068 0056 F8BD     		pop	{r3, r4, r5, r6, r7, pc}
 2069              	.LVL199:
 2070              	.L159:
 2071              	.LBB409:
 2072              	.LBB408:
 2073              		.loc 3 318 0
 2074 0058 1148     		ldr	r0, .L160+4
 2075 005a FFF7FEFF 		bl	puts
 2076              	.LVL200:
 2077              	@ 318 "../../../os/rt/include/chsys.h" 1
 2078 005e 00BE     		BKPT #0
 2079              	
 2080              	@ 0 "" 2
 2081              		.thumb
 2082 0060 1048     		ldr	r0, .L160+8
 2083 0062 FFF7FEFF 		bl	chSysHalt
 2084              	.LVL201:
 2085              	.LBB407:
 2086              	.LBB406:
 2087              	.LBB405:
 2088              		.loc 2 546 0
 2089 0066 0023     		movs	r3, #0
 2090              	@ 546 "../../../os/ext/CMSIS/include/core_cmFunc.h" 1
 2091 0068 83F31188 		MSR basepri, r3
 2092              	@ 0 "" 2
 2093              		.thumb
 2094 006c 2046     		mov	r0, r4
 2095              	.LBE405:
ARM GAS  C:\Users\jo\AppData\Local\Temp\cc1ND8fX.s 			page 38


 2096              	.LBE406:
 2097              	.LBE407:
 2098              	.LBE408:
 2099              	.LBE409:
 2100              		.loc 1 568 0
 2101 006e F8BD     		pop	{r3, r4, r5, r6, r7, pc}
 2102              	.LVL202:
 2103              	.L153:
 2104              	.LBB410:
 2105              	.LBB411:
 2106              		.loc 3 311 0
 2107 0070 FFF7FEFF 		bl	_dbg_check_unlock
 2108              	.LVL203:
 2109              		.loc 3 312 0
 2110 0074 FFF7FEFF 		bl	_stats_stop_measure_crit_thd
 2111              	.LVL204:
 2112              		.loc 3 318 0
 2113 0078 AA69     		ldr	r2, [r5, #24]
 2114 007a 2B68     		ldr	r3, [r5]
 2115 007c 9268     		ldr	r2, [r2, #8]
 2116 007e 9B68     		ldr	r3, [r3, #8]
 2117 0080 9A42     		cmp	r2, r3
 2118 0082 06D2     		bcs	.L154
 2119 0084 0648     		ldr	r0, .L160+4
 2120 0086 FFF7FEFF 		bl	puts
 2121              	.LVL205:
 2122              	@ 318 "../../../os/rt/include/chsys.h" 1
 2123 008a 00BE     		BKPT #0
 2124              	
 2125              	@ 0 "" 2
 2126              		.thumb
 2127 008c 0548     		ldr	r0, .L160+8
 2128 008e FFF7FEFF 		bl	chSysHalt
 2129              	.LVL206:
 2130              	.L154:
 2131              	.LBB412:
 2132              	.LBB413:
 2133              	.LBB414:
 2134              		.loc 2 546 0
 2135 0092 0020     		movs	r0, #0
 2136              	@ 546 "../../../os/ext/CMSIS/include/core_cmFunc.h" 1
 2137 0094 80F31188 		MSR basepri, r0
 2138              	@ 0 "" 2
 2139              		.thumb
 2140 0098 F8BD     		pop	{r3, r4, r5, r6, r7, pc}
 2141              	.LVL207:
 2142              	.L161:
 2143 009a 00BF     		.align	2
 2144              	.L160:
 2145 009c 00000000 		.word	ch
 2146 00a0 00000000 		.word	.LC0
 2147 00a4 00000000 		.word	.LANCHOR1
 2148              	.LBE414:
 2149              	.LBE413:
 2150              	.LBE412:
 2151              	.LBE411:
 2152              	.LBE410:
ARM GAS  C:\Users\jo\AppData\Local\Temp\cc1ND8fX.s 			page 39


 2153              		.cfi_endproc
 2154              	.LFE242:
 2155              		.size	chEvtWaitAllTimeout, .-chEvtWaitAllTimeout
 2156 00a8 AFF30080 		.section	.rodata.__func__.7491,"a",%progbits
 2156      AFF30080 
 2157              		.align	2
 2158              		.set	.LANCHOR6,. + 0
 2159              		.type	__func__.7491, %object
 2160              		.size	__func__.7491, 14
 2161              	__func__.7491:
 2162 0000 63684576 		.ascii	"chEvtDispatch\000"
 2162      74446973 
 2162      70617463 
 2162      6800
 2163 000e 0000     		.section	.rodata.__func__.7438,"a",%progbits
 2164              		.align	2
 2165              		.set	.LANCHOR0,. + 0
 2166              		.type	__func__.7438, %object
 2167              		.size	__func__.7438, 27
 2168              	__func__.7438:
 2169 0000 63684576 		.ascii	"chEvtRegisterMaskWithFlags\000"
 2169      74526567 
 2169      69737465 
 2169      724D6173 
 2169      6B576974 
 2170 001b 00       		.section	.rodata.__func__.7444,"a",%progbits
 2171              		.align	2
 2172              		.set	.LANCHOR2,. + 0
 2173              		.type	__func__.7444, %object
 2174              		.size	__func__.7444, 16
 2175              	__func__.7444:
 2176 0000 63684576 		.ascii	"chEvtUnregister\000"
 2176      74556E72 
 2176      65676973 
 2176      74657200 
 2177              		.section	.rodata.__func__.7460,"a",%progbits
 2178              		.align	2
 2179              		.set	.LANCHOR4,. + 0
 2180              		.type	__func__.7460, %object
 2181              		.size	__func__.7460, 21
 2182              	__func__.7460:
 2183 0000 63684576 		.ascii	"chEvtBroadcastFlagsI\000"
 2183      7442726F 
 2183      61646361 
 2183      7374466C 
 2183      61677349 
 2184 0015 000000   		.section	.rodata.str1.4,"aMS",%progbits,1
 2185              		.align	2
 2186              	.LC0:
 2187 0000 7072696F 		.ascii	"priority violation, missing reschedule\000"
 2187      72697479 
 2187      2076696F 
 2187      6C617469 
 2187      6F6E2C20 
 2188 0027 00       		.space	1
 2189              	.LC1:
 2190 0028 6E756C6C 		.ascii	"null handler\000"
ARM GAS  C:\Users\jo\AppData\Local\Temp\cc1ND8fX.s 			page 40


 2190      2068616E 
 2190      646C6572 
 2190      00
 2191 0035 000000   		.section	.rodata.__func__.7472,"a",%progbits
 2192              		.align	2
 2193              		.set	.LANCHOR5,. + 0
 2194              		.type	__func__.7472, %object
 2195              		.size	__func__.7472, 12
 2196              	__func__.7472:
 2197 0000 63684576 		.ascii	"chEvtSignal\000"
 2197      74536967 
 2197      6E616C00 
 2198              		.section	.rodata.__func__.6751,"a",%progbits
 2199              		.align	2
 2200              		.set	.LANCHOR1,. + 0
 2201              		.type	__func__.6751, %object
 2202              		.size	__func__.6751, 12
 2203              	__func__.6751:
 2204 0000 63685379 		.ascii	"chSysUnlock\000"
 2204      73556E6C 
 2204      6F636B00 
 2205              		.section	.rodata.__func__.7477,"a",%progbits
 2206              		.align	2
 2207              		.set	.LANCHOR3,. + 0
 2208              		.type	__func__.7477, %object
 2209              		.size	__func__.7477, 13
 2210              	__func__.7477:
 2211 0000 63684576 		.ascii	"chEvtSignalI\000"
 2211      74536967 
 2211      6E616C49 
 2211      00
 2212 000d 000000   		.text
 2213              	.Letext0:
 2214              		.file 4 "c:\\program files\\gnu tools arm embedded\\4.9 2014q4\\arm-none-eabi\\include\\machine\\_
 2215              		.file 5 "c:\\program files\\gnu tools arm embedded\\4.9 2014q4\\arm-none-eabi\\include\\stdint.h"
 2216              		.file 6 "../../../os/rt/ports/ARMCMx/compilers/GCC/chtypes.h"
 2217              		.file 7 "../../../os/rt/include/chsystypes.h"
 2218              		.file 8 "../../../os/rt/include/chschd.h"
 2219              		.file 9 "../../../os/rt/ports/ARMCMx/chcore.h"
 2220              		.file 10 "../../../os/rt/ports/ARMCMx/chcore_v7m.h"
 2221              		.file 11 "../../../os/rt/include/chdebug.h"
 2222              		.file 12 "../../../os/rt/include/chtm.h"
 2223              		.file 13 "../../../os/rt/include/chstats.h"
 2224              		.file 14 "../../../os/rt/include/chmtx.h"
 2225              		.file 15 "../../../os/rt/include/chevents.h"
 2226              		.file 16 "../../../os/ext/CMSIS/include/core_cm4.h"
 2227              		.file 17 "<built-in>"