ARM GAS  C:\Users\jo\AppData\Local\Temp\ccX2cSFE.s 			page 1


   1              		.syntax unified
   2              		.cpu cortex-m4
   3              		.fpu softvfp
   4              		.eabi_attribute 20, 1
   5              		.eabi_attribute 21, 1
   6              		.eabi_attribute 23, 3
   7              		.eabi_attribute 24, 1
   8              		.eabi_attribute 25, 1
   9              		.eabi_attribute 26, 1
  10              		.eabi_attribute 30, 2
  11              		.eabi_attribute 34, 1
  12              		.eabi_attribute 18, 4
  13              		.thumb
  14              		.file	"chheap.c"
  15              		.text
  16              	.Ltext0:
  17              		.cfi_sections	.debug_frame
  18              		.section	.text._heap_init,"ax",%progbits
  19              		.align	2
  20              		.p2align 4,,15
  21              		.global	_heap_init
  22              		.thumb
  23              		.thumb_func
  24              		.type	_heap_init, %function
  25              	_heap_init:
  26              	.LFB227:
  27              		.file 1 "../../../os/rt/src/chheap.c"
  28              		.loc 1 89 0
  29              		.cfi_startproc
  30              		@ args = 0, pretend = 0, frame = 0
  31              		@ frame_needed = 0, uses_anonymous_args = 0
  32              		@ link register save eliminated.
  33              		.loc 1 91 0
  34 0000 044B     		ldr	r3, .L2
  35 0002 054A     		ldr	r2, .L2+4
  36 0004 1A60     		str	r2, [r3]
  37              		.loc 1 95 0
  38 0006 03F11000 		add	r0, r3, #16
  39              		.loc 1 92 0
  40 000a 0022     		movs	r2, #0
  41 000c 9A60     		str	r2, [r3, #8]
  42              		.loc 1 93 0
  43 000e DA60     		str	r2, [r3, #12]
  44              		.loc 1 95 0
  45 0010 FFF7FEBF 		b	chMtxObjectInit
  46              	.LVL0:
  47              	.L3:
  48              		.align	2
  49              	.L2:
  50 0014 00000000 		.word	.LANCHOR0
  51 0018 00000000 		.word	chCoreAlloc
  52              		.cfi_endproc
  53              	.LFE227:
  54              		.size	_heap_init, .-_heap_init
  55 001c AFF30080 		.section	.text.chHeapObjectInit,"ax",%progbits
  56              		.align	2
  57              		.p2align 4,,15
ARM GAS  C:\Users\jo\AppData\Local\Temp\ccX2cSFE.s 			page 2


  58              		.global	chHeapObjectInit
  59              		.thumb
  60              		.thumb_func
  61              		.type	chHeapObjectInit, %function
  62              	chHeapObjectInit:
  63              	.LFB228:
  64              		.loc 1 112 0
  65              		.cfi_startproc
  66              		@ args = 0, pretend = 0, frame = 0
  67              		@ frame_needed = 0, uses_anonymous_args = 0
  68              	.LVL1:
  69 0000 70B5     		push	{r4, r5, r6, lr}
  70              		.cfi_def_cfa_offset 16
  71              		.cfi_offset 4, -16
  72              		.cfi_offset 5, -12
  73              		.cfi_offset 6, -8
  74              		.cfi_offset 14, -4
  75              		.loc 1 112 0
  76 0002 1646     		mov	r6, r2
  77              		.loc 1 115 0
  78 0004 4A07     		lsls	r2, r1, #29
  79              	.LVL2:
  80              		.loc 1 112 0
  81 0006 0C46     		mov	r4, r1
  82 0008 0546     		mov	r5, r0
  83              		.loc 1 115 0
  84 000a 01D1     		bne	.L5
  85              		.loc 1 115 0 is_stmt 0 discriminator 2
  86 000c 7307     		lsls	r3, r6, #29
  87 000e 02D0     		beq	.L6
  88              	.L5:
  89              		.loc 1 115 0 discriminator 3
  90 0010 0748     		ldr	r0, .L12
  91              	.LVL3:
  92 0012 FFF7FEFF 		bl	chSysHalt
  93              	.LVL4:
  94              	.L6:
  95              		.loc 1 117 0 is_stmt 1
  96 0016 0023     		movs	r3, #0
  97              		.loc 1 121 0
  98 0018 083E     		subs	r6, r6, #8
  99              	.LVL5:
 100              		.loc 1 118 0
 101 001a AC60     		str	r4, [r5, #8]
 102              		.loc 1 117 0
 103 001c 2B60     		str	r3, [r5]
 104              	.LVL6:
 105              		.loc 1 119 0
 106 001e EB60     		str	r3, [r5, #12]
 107              		.loc 1 120 0
 108 0020 84E84800 		stmia	r4, {r3, r6}
 109              	.LVL7:
 110              		.loc 1 123 0
 111 0024 05F11000 		add	r0, r5, #16
 112              		.loc 1 127 0
 113 0028 BDE87040 		pop	{r4, r5, r6, lr}
 114              		.cfi_restore 14
ARM GAS  C:\Users\jo\AppData\Local\Temp\ccX2cSFE.s 			page 3


 115              		.cfi_restore 6
 116              		.cfi_restore 5
 117              		.cfi_restore 4
 118              		.cfi_def_cfa_offset 0
 119              	.LVL8:
 120              		.loc 1 123 0
 121 002c FFF7FEBF 		b	chMtxObjectInit
 122              	.LVL9:
 123              	.L13:
 124              		.align	2
 125              	.L12:
 126 0030 00000000 		.word	.LANCHOR1
 127              		.cfi_endproc
 128              	.LFE228:
 129              		.size	chHeapObjectInit, .-chHeapObjectInit
 130 0034 AFF30080 		.section	.text.chHeapAlloc,"ax",%progbits
 130      AFF30080 
 130      AFF30080 
 131              		.align	2
 132              		.p2align 4,,15
 133              		.global	chHeapAlloc
 134              		.thumb
 135              		.thumb_func
 136              		.type	chHeapAlloc, %function
 137              	chHeapAlloc:
 138              	.LFB229:
 139              		.loc 1 145 0
 140              		.cfi_startproc
 141              		@ args = 0, pretend = 0, frame = 0
 142              		@ frame_needed = 0, uses_anonymous_args = 0
 143              	.LVL10:
 144 0000 F8B5     		push	{r3, r4, r5, r6, r7, lr}
 145              		.cfi_def_cfa_offset 24
 146              		.cfi_offset 3, -24
 147              		.cfi_offset 4, -20
 148              		.cfi_offset 5, -16
 149              		.cfi_offset 6, -12
 150              		.cfi_offset 7, -8
 151              		.cfi_offset 14, -4
 152              		.loc 1 149 0
 153 0002 214E     		ldr	r6, .L29
 154 0004 0028     		cmp	r0, #0
 155 0006 18BF     		it	ne
 156 0008 0646     		movne	r6, r0
 157              	.LVL11:
 158              		.loc 1 155 0
 159 000a 06F11007 		add	r7, r6, #16
 160              		.loc 1 151 0
 161 000e 0731     		adds	r1, r1, #7
 162              	.LVL12:
 163              		.loc 1 155 0
 164 0010 3846     		mov	r0, r7
 165              		.loc 1 151 0
 166 0012 21F00705 		bic	r5, r1, #7
 167              	.LVL13:
 168              		.loc 1 153 0
 169 0016 06F10804 		add	r4, r6, #8
ARM GAS  C:\Users\jo\AppData\Local\Temp\ccX2cSFE.s 			page 4


 170              	.LVL14:
 171              		.loc 1 155 0
 172 001a FFF7FEFF 		bl	chMtxLock
 173              	.LVL15:
 174              		.loc 1 157 0
 175 001e 03E0     		b	.L16
 176              	.LVL16:
 177              	.L20:
 178              		.loc 1 160 0
 179 0020 4368     		ldr	r3, [r0, #4]
 180 0022 9D42     		cmp	r5, r3
 181 0024 12D9     		bls	.L28
 182 0026 0446     		mov	r4, r0
 183              	.LVL17:
 184              	.L16:
 185              		.loc 1 157 0
 186 0028 2068     		ldr	r0, [r4]
 187              	.LVL18:
 188 002a 0028     		cmp	r0, #0
 189 002c F8D1     		bne	.L20
 190              		.loc 1 183 0
 191 002e 3846     		mov	r0, r7
 192              	.LVL19:
 193 0030 FFF7FEFF 		bl	chMtxUnlock
 194              	.LVL20:
 195              		.loc 1 188 0
 196 0034 3368     		ldr	r3, [r6]
 197 0036 2BB3     		cbz	r3, .L22
 198              		.loc 1 189 0
 199 0038 05F10800 		add	r0, r5, #8
 200 003c 9847     		blx	r3
 201              	.LVL21:
 202              		.loc 1 190 0
 203 003e 08B3     		cbz	r0, .L22
 204              		.loc 1 191 0
 205 0040 0660     		str	r6, [r0]
 206              		.loc 1 192 0
 207 0042 4560     		str	r5, [r0, #4]
 208              		.loc 1 193 0
 209 0044 00F10804 		add	r4, r0, #8
 210              	.LVL22:
 211              	.L19:
 212              		.loc 1 200 0
 213 0048 2046     		mov	r0, r4
 214 004a F8BD     		pop	{r3, r4, r5, r6, r7, pc}
 215              	.LVL23:
 216              	.L28:
 217              		.loc 1 161 0
 218 004c 05F10802 		add	r2, r5, #8
 219 0050 9A42     		cmp	r2, r3
 220 0052 09D9     		bls	.L17
 221              		.loc 1 165 0
 222 0054 0368     		ldr	r3, [r0]
 223 0056 2360     		str	r3, [r4]
 224              	.L18:
 225              		.loc 1 175 0
 226 0058 0446     		mov	r4, r0
ARM GAS  C:\Users\jo\AppData\Local\Temp\ccX2cSFE.s 			page 5


 227              	.LVL24:
 228              		.loc 1 176 0
 229 005a 3846     		mov	r0, r7
 230              	.LVL25:
 231              		.loc 1 175 0
 232 005c 44F8086B 		str	r6, [r4], #8
 233              	.LVL26:
 234              		.loc 1 176 0
 235 0060 FFF7FEFF 		bl	chMtxUnlock
 236              	.LVL27:
 237              		.loc 1 200 0
 238 0064 2046     		mov	r0, r4
 239 0066 F8BD     		pop	{r3, r4, r5, r6, r7, pc}
 240              	.LVL28:
 241              	.L17:
 242 0068 6FF00701 		mvn	r1, #7
 243 006c 491B     		subs	r1, r1, r5
 244              		.loc 1 169 0
 245 006e 00EB020E 		add	lr, r0, r2
 246              	.LVL29:
 247              		.loc 1 171 0
 248 0072 0B44     		add	r3, r3, r1
 249              		.loc 1 170 0
 250 0074 0168     		ldr	r1, [r0]
 251 0076 8150     		str	r1, [r0, r2]
 252              		.loc 1 171 0
 253 0078 CEF80430 		str	r3, [lr, #4]
 254              		.loc 1 172 0
 255 007c C4F800E0 		str	lr, [r4]
 256              		.loc 1 173 0
 257 0080 4560     		str	r5, [r0, #4]
 258 0082 E9E7     		b	.L18
 259              	.LVL30:
 260              	.L22:
 261              		.loc 1 199 0
 262 0084 0024     		movs	r4, #0
 263              	.LVL31:
 264 0086 DFE7     		b	.L19
 265              	.L30:
 266              		.align	2
 267              	.L29:
 268 0088 00000000 		.word	.LANCHOR0
 269              		.cfi_endproc
 270              	.LFE229:
 271              		.size	chHeapAlloc, .-chHeapAlloc
 272 008c AFF30080 		.section	.text.chHeapFree,"ax",%progbits
 273              		.align	2
 274              		.p2align 4,,15
 275              		.global	chHeapFree
 276              		.thumb
 277              		.thumb_func
 278              		.type	chHeapFree, %function
 279              	chHeapFree:
 280              	.LFB230:
 281              		.loc 1 213 0
 282              		.cfi_startproc
 283              		@ args = 0, pretend = 0, frame = 0
ARM GAS  C:\Users\jo\AppData\Local\Temp\ccX2cSFE.s 			page 6


 284              		@ frame_needed = 0, uses_anonymous_args = 0
 285              	.LVL32:
 286 0000 2DE9F041 		push	{r4, r5, r6, r7, r8, lr}
 287              		.cfi_def_cfa_offset 24
 288              		.cfi_offset 4, -24
 289              		.cfi_offset 5, -20
 290              		.cfi_offset 6, -16
 291              		.cfi_offset 7, -12
 292              		.cfi_offset 8, -8
 293              		.cfi_offset 14, -4
 294              		.loc 1 217 0
 295 0004 8046     		mov	r8, r0
 296 0006 0028     		cmp	r0, #0
 297 0008 5CD0     		beq	.L46
 298              	.LVL33:
 299              	.L32:
 300              		.loc 1 220 0
 301 000a 58F8086C 		ldr	r6, [r8, #-8]
 302              		.loc 1 223 0
 303 000e 06F11007 		add	r7, r6, #16
 304 0012 3846     		mov	r0, r7
 305 0014 FFF7FEFF 		bl	chMtxLock
 306              	.LVL34:
 307              		.loc 1 221 0
 308 0018 0836     		adds	r6, r6, #8
 309 001a 3446     		mov	r4, r6
 310              		.loc 1 219 0
 311 001c A8F10805 		sub	r5, r8, #8
 312              	.LVL35:
 313              	.L40:
 314              		.loc 1 225 0
 315 0020 AC42     		cmp	r4, r5
 316 0022 04D8     		bhi	.L33
 317              		.loc 1 225 0 is_stmt 0 discriminator 1
 318 0024 6368     		ldr	r3, [r4, #4]
 319 0026 0833     		adds	r3, r3, #8
 320 0028 2344     		add	r3, r3, r4
 321 002a 9D42     		cmp	r5, r3
 322 002c 0BD3     		bcc	.L47
 323              	.L33:
 324              		.loc 1 227 0 is_stmt 1
 325 002e B442     		cmp	r4, r6
 326 0030 12D0     		beq	.L34
 327              	.L48:
 328              		.loc 1 227 0 is_stmt 0 discriminator 2
 329 0032 AC42     		cmp	r4, r5
 330 0034 10D3     		bcc	.L34
 331 0036 2468     		ldr	r4, [r4]
 332              	.LVL36:
 333              		.loc 1 225 0 is_stmt 1
 334 0038 AC42     		cmp	r4, r5
 335 003a F8D8     		bhi	.L33
 336 003c 6368     		ldr	r3, [r4, #4]
 337 003e 0833     		adds	r3, r3, #8
 338 0040 2344     		add	r3, r3, r4
 339 0042 9D42     		cmp	r5, r3
 340 0044 F3D2     		bcs	.L33
ARM GAS  C:\Users\jo\AppData\Local\Temp\ccX2cSFE.s 			page 7


 341              	.L47:
 342              		.loc 1 225 0 is_stmt 0 discriminator 2
 343 0046 2148     		ldr	r0, .L51
 344 0048 FFF7FEFF 		bl	puts
 345              	.LVL37:
 346              	@ 225 "../../../os/rt/src/chheap.c" 1
 347 004c 00BE     		BKPT #0
 348              	
 349              	@ 0 "" 2
 350              		.thumb
 351 004e 2048     		ldr	r0, .L51+4
 352 0050 FFF7FEFF 		bl	chSysHalt
 353              	.LVL38:
 354              		.loc 1 227 0 is_stmt 1 discriminator 2
 355 0054 B442     		cmp	r4, r6
 356 0056 ECD1     		bne	.L48
 357              	.L34:
 358              		.loc 1 228 0 discriminator 3
 359 0058 2368     		ldr	r3, [r4]
 360              		.loc 1 227 0 discriminator 3
 361 005a 1BB1     		cbz	r3, .L36
 362              		.loc 1 228 0
 363 005c 9D42     		cmp	r5, r3
 364 005e 01D3     		bcc	.L36
 365 0060 1C46     		mov	r4, r3
 366              	.LVL39:
 367              		.loc 1 246 0
 368 0062 DDE7     		b	.L40
 369              	.LVL40:
 370              	.L36:
 371              		.loc 1 233 0
 372 0064 58F8042C 		ldr	r2, [r8, #-4]
 373              		.loc 1 230 0
 374 0068 48F8083C 		str	r3, [r8, #-8]
 375              		.loc 1 231 0
 376 006c 2560     		str	r5, [r4]
 377              		.loc 1 233 0
 378 006e 02F10803 		add	r3, r2, #8
 379 0072 58F8080C 		ldr	r0, [r8, #-8]
 380 0076 E918     		adds	r1, r5, r3
 381 0078 8142     		cmp	r1, r0
 382 007a 0AD0     		beq	.L49
 383              		.loc 1 238 0
 384 007c 6268     		ldr	r2, [r4, #4]
 385 007e 02F10803 		add	r3, r2, #8
 386 0082 2344     		add	r3, r3, r4
 387 0084 9D42     		cmp	r5, r3
 388 0086 12D0     		beq	.L50
 389              	.L39:
 390              		.loc 1 247 0
 391 0088 3846     		mov	r0, r7
 392              		.loc 1 250 0
 393 008a BDE8F041 		pop	{r4, r5, r6, r7, r8, lr}
 394              		.cfi_remember_state
 395              		.cfi_restore 14
 396              		.cfi_restore 8
 397              		.cfi_restore 7
ARM GAS  C:\Users\jo\AppData\Local\Temp\ccX2cSFE.s 			page 8


 398              		.cfi_restore 6
 399              		.cfi_restore 5
 400              		.cfi_restore 4
 401              		.cfi_def_cfa_offset 0
 402              	.LVL41:
 403              		.loc 1 247 0
 404 008e FFF7FEBF 		b	chMtxUnlock
 405              	.LVL42:
 406              	.L49:
 407              		.cfi_restore_state
 408              		.loc 1 235 0
 409 0092 4968     		ldr	r1, [r1, #4]
 410              		.loc 1 236 0
 411 0094 EB58     		ldr	r3, [r5, r3]
 412 0096 48F8083C 		str	r3, [r8, #-8]
 413              		.loc 1 235 0
 414 009a 5318     		adds	r3, r2, r1
 415 009c 0833     		adds	r3, r3, #8
 416 009e 48F8043C 		str	r3, [r8, #-4]
 417              		.loc 1 238 0
 418 00a2 6268     		ldr	r2, [r4, #4]
 419 00a4 02F10803 		add	r3, r2, #8
 420 00a8 2344     		add	r3, r3, r4
 421 00aa 9D42     		cmp	r5, r3
 422 00ac ECD1     		bne	.L39
 423              	.L50:
 424              		.loc 1 241 0
 425 00ae 18E90A00 		ldmdb	r8, {r1, r3}
 426              		.loc 1 240 0
 427 00b2 1344     		add	r3, r3, r2
 428 00b4 0833     		adds	r3, r3, #8
 429              		.loc 1 241 0
 430 00b6 2160     		str	r1, [r4]
 431              		.loc 1 240 0
 432 00b8 6360     		str	r3, [r4, #4]
 433              		.loc 1 247 0
 434 00ba 3846     		mov	r0, r7
 435              		.loc 1 250 0
 436 00bc BDE8F041 		pop	{r4, r5, r6, r7, r8, lr}
 437              		.cfi_remember_state
 438              		.cfi_restore 4
 439              		.cfi_restore 5
 440              		.cfi_restore 6
 441              		.cfi_restore 7
 442              		.cfi_restore 8
 443              		.cfi_restore 14
 444              		.cfi_def_cfa_offset 0
 445              	.LVL43:
 446              		.loc 1 247 0
 447 00c0 FFF7FEBF 		b	chMtxUnlock
 448              	.LVL44:
 449              	.L46:
 450              		.cfi_restore_state
 451              		.loc 1 217 0 discriminator 1
 452 00c4 0248     		ldr	r0, .L51+4
 453              	.LVL45:
 454 00c6 FFF7FEFF 		bl	chSysHalt
ARM GAS  C:\Users\jo\AppData\Local\Temp\ccX2cSFE.s 			page 9


 455              	.LVL46:
 456 00ca 9EE7     		b	.L32
 457              	.L52:
 458              		.align	2
 459              	.L51:
 460 00cc 00000000 		.word	.LC0
 461 00d0 00000000 		.word	.LANCHOR2
 462              		.cfi_endproc
 463              	.LFE230:
 464              		.size	chHeapFree, .-chHeapFree
 465 00d4 AFF30080 		.section	.text.chHeapStatus,"ax",%progbits
 465      AFF30080 
 465      AFF30080 
 466              		.align	2
 467              		.p2align 4,,15
 468              		.global	chHeapStatus
 469              		.thumb
 470              		.thumb_func
 471              		.type	chHeapStatus, %function
 472              	chHeapStatus:
 473              	.LFB231:
 474              		.loc 1 265 0
 475              		.cfi_startproc
 476              		@ args = 0, pretend = 0, frame = 0
 477              		@ frame_needed = 0, uses_anonymous_args = 0
 478              	.LVL47:
 479 0000 70B5     		push	{r4, r5, r6, lr}
 480              		.cfi_def_cfa_offset 16
 481              		.cfi_offset 4, -16
 482              		.cfi_offset 5, -12
 483              		.cfi_offset 6, -8
 484              		.cfi_offset 14, -4
 485              		.loc 1 270 0
 486 0002 0F4C     		ldr	r4, .L64
 487 0004 0028     		cmp	r0, #0
 488 0006 18BF     		it	ne
 489 0008 0446     		movne	r4, r0
 490              	.LVL48:
 491              		.loc 1 273 0
 492 000a 04F11005 		add	r5, r4, #16
 493 000e 2846     		mov	r0, r5
 494              		.loc 1 265 0
 495 0010 0E46     		mov	r6, r1
 496              		.loc 1 273 0
 497 0012 FFF7FEFF 		bl	chMtxLock
 498              	.LVL49:
 499              		.loc 1 275 0
 500 0016 A368     		ldr	r3, [r4, #8]
 501 0018 73B1     		cbz	r3, .L58
 502              		.loc 1 275 0 is_stmt 0 discriminator 3
 503 001a 0022     		movs	r2, #0
 504 001c 1446     		mov	r4, r2
 505              	.LVL50:
 506              	.L56:
 507              		.loc 1 276 0 is_stmt 1 discriminator 3
 508 001e 5868     		ldr	r0, [r3, #4]
 509              		.loc 1 275 0 discriminator 3
ARM GAS  C:\Users\jo\AppData\Local\Temp\ccX2cSFE.s 			page 10


 510 0020 1B68     		ldr	r3, [r3]
 511 0022 0134     		adds	r4, r4, #1
 512              	.LVL51:
 513              		.loc 1 276 0 discriminator 3
 514 0024 0244     		add	r2, r2, r0
 515              	.LVL52:
 516              		.loc 1 275 0 discriminator 3
 517 0026 002B     		cmp	r3, #0
 518 0028 F9D1     		bne	.L56
 519              	.LVL53:
 520              	.L55:
 521              		.loc 1 278 0
 522 002a 06B1     		cbz	r6, .L57
 523              		.loc 1 279 0
 524 002c 3260     		str	r2, [r6]
 525              	.L57:
 526              		.loc 1 281 0
 527 002e 2846     		mov	r0, r5
 528 0030 FFF7FEFF 		bl	chMtxUnlock
 529              	.LVL54:
 530              		.loc 1 284 0
 531 0034 2046     		mov	r0, r4
 532 0036 70BD     		pop	{r4, r5, r6, pc}
 533              	.LVL55:
 534              	.L58:
 535              		.loc 1 274 0
 536 0038 1A46     		mov	r2, r3
 537              		.loc 1 275 0
 538 003a 1C46     		mov	r4, r3
 539              	.LVL56:
 540 003c F5E7     		b	.L55
 541              	.L65:
 542 003e 00BF     		.align	2
 543              	.L64:
 544 0040 00000000 		.word	.LANCHOR0
 545              		.cfi_endproc
 546              	.LFE231:
 547              		.size	chHeapStatus, .-chHeapStatus
 548 0044 AFF30080 		.section	.rodata.__func__.7494,"a",%progbits
 548      AFF30080 
 548      AFF30080 
 549              		.align	2
 550              		.set	.LANCHOR2,. + 0
 551              		.type	__func__.7494, %object
 552              		.size	__func__.7494, 11
 553              	__func__.7494:
 554 0000 63684865 		.ascii	"chHeapFree\000"
 554      61704672 
 554      656500
 555 000b 00       		.section	.rodata.str1.4,"aMS",%progbits,1
 556              		.align	2
 557              	.LC0:
 558 0000 77697468 		.ascii	"within free block\000"
 558      696E2066 
 558      72656520 
 558      626C6F63 
 558      6B00
ARM GAS  C:\Users\jo\AppData\Local\Temp\ccX2cSFE.s 			page 11


 559 0012 0000     		.section	.bss.default_heap,"aw",%nobits
 560              		.align	3
 561              		.set	.LANCHOR0,. + 0
 562              		.type	default_heap, %object
 563              		.size	default_heap, 32
 564              	default_heap:
 565 0000 00000000 		.space	32
 565      00000000 
 565      00000000 
 565      00000000 
 565      00000000 
 566              		.section	.rodata.__func__.7477,"a",%progbits
 567              		.align	2
 568              		.set	.LANCHOR1,. + 0
 569              		.type	__func__.7477, %object
 570              		.size	__func__.7477, 17
 571              	__func__.7477:
 572 0000 63684865 		.ascii	"chHeapObjectInit\000"
 572      61704F62 
 572      6A656374 
 572      496E6974 
 572      00
 573 0011 000000   		.text
 574              	.Letext0:
 575              		.file 2 "c:\\program files\\gnu tools arm embedded\\4.9 2014q4\\lib\\gcc\\arm-none-eabi\\4.9.3\\in
 576              		.file 3 "c:\\program files\\gnu tools arm embedded\\4.9 2014q4\\arm-none-eabi\\include\\machine\\_
 577              		.file 4 "c:\\program files\\gnu tools arm embedded\\4.9 2014q4\\arm-none-eabi\\include\\stdint.h"
 578              		.file 5 "../../../os/rt/ports/ARMCMx/compilers/GCC/chtypes.h"
 579              		.file 6 "../../../os/rt/include/chsystypes.h"
 580              		.file 7 "../../../os/rt/include/chschd.h"
 581              		.file 8 "../../../os/rt/ports/ARMCMx/chcore.h"
 582              		.file 9 "../../../os/rt/ports/ARMCMx/chcore_v7m.h"
 583              		.file 10 "../../../os/rt/include/chdebug.h"
 584              		.file 11 "../../../os/rt/include/chtm.h"
 585              		.file 12 "../../../os/rt/include/chstats.h"
 586              		.file 13 "../../../os/rt/include/chmtx.h"
 587              		.file 14 "../../../os/rt/include/chmemcore.h"
 588              		.file 15 "../../../os/rt/include/chheap.h"
 589              		.file 16 "../../../os/rt/include/chsys.h"
 590              		.file 17 "../../../os/ext/CMSIS/include/core_cm4.h"
 591              		.file 18 "<built-in>"