ARM GAS  C:\Users\jo\AppData\Local\Temp\ccsBQzJD.s 			page 1


   1              		.syntax unified
   2              		.cpu cortex-m4
   3              		.fpu softvfp
   4              		.eabi_attribute 20, 1
   5              		.eabi_attribute 21, 1
   6              		.eabi_attribute 23, 3
   7              		.eabi_attribute 24, 1
   8              		.eabi_attribute 25, 1
   9              		.eabi_attribute 26, 1
  10              		.eabi_attribute 30, 2
  11              		.eabi_attribute 34, 1
  12              		.eabi_attribute 18, 4
  13              		.thumb
  14              		.file	"chmboxes.c"
  15              		.text
  16              	.Ltext0:
  17              		.cfi_sections	.debug_frame
  18              		.section	.text.chMBObjectInit,"ax",%progbits
  19              		.align	2
  20              		.p2align 4,,15
  21              		.global	chMBObjectInit
  22              		.thumb
  23              		.thumb_func
  24              		.type	chMBObjectInit, %function
  25              	chMBObjectInit:
  26              	.LFB226:
  27              		.file 1 "../../../os/rt/src/chmboxes.c"
  28              		.loc 1 86 0
  29              		.cfi_startproc
  30              		@ args = 0, pretend = 0, frame = 0
  31              		@ frame_needed = 0, uses_anonymous_args = 0
  32              	.LVL0:
  33 0000 70B5     		push	{r4, r5, r6, lr}
  34              		.cfi_def_cfa_offset 16
  35              		.cfi_offset 4, -16
  36              		.cfi_offset 5, -12
  37              		.cfi_offset 6, -8
  38              		.cfi_offset 14, -4
  39              		.loc 1 86 0
  40 0002 0D46     		mov	r5, r1
  41 0004 1646     		mov	r6, r2
  42              		.loc 1 88 0
  43 0006 0446     		mov	r4, r0
  44 0008 A0B1     		cbz	r0, .L2
  45              		.loc 1 88 0 is_stmt 0 discriminator 2
  46 000a 99B1     		cbz	r1, .L2
  47              		.loc 1 88 0 discriminator 4
  48 000c 002A     		cmp	r2, #0
  49 000e 11DD     		ble	.L2
  50              	.LVL1:
  51              	.L3:
  52              		.loc 1 91 0 is_stmt 1
  53 0010 05EB8603 		add	r3, r5, r6, lsl #2
  54              		.loc 1 92 0
  55 0014 3146     		mov	r1, r6
  56 0016 04F11C00 		add	r0, r4, #28
  57              		.loc 1 90 0
ARM GAS  C:\Users\jo\AppData\Local\Temp\ccsBQzJD.s 			page 2


  58 001a E560     		str	r5, [r4, #12]
  59 001c A560     		str	r5, [r4, #8]
  60 001e 2560     		str	r5, [r4]
  61              		.loc 1 91 0
  62 0020 6360     		str	r3, [r4, #4]
  63              		.loc 1 92 0
  64 0022 FFF7FEFF 		bl	chSemObjectInit
  65              	.LVL2:
  66              		.loc 1 93 0
  67 0026 04F11000 		add	r0, r4, #16
  68 002a 0021     		movs	r1, #0
  69              		.loc 1 94 0
  70 002c BDE87040 		pop	{r4, r5, r6, lr}
  71              		.cfi_remember_state
  72              		.cfi_restore 14
  73              		.cfi_restore 6
  74              		.cfi_restore 5
  75              		.cfi_restore 4
  76              		.cfi_def_cfa_offset 0
  77              	.LVL3:
  78              		.loc 1 93 0
  79 0030 FFF7FEBF 		b	chSemObjectInit
  80              	.LVL4:
  81              	.L2:
  82              		.cfi_restore_state
  83              		.loc 1 88 0 discriminator 5
  84 0034 0148     		ldr	r0, .L12
  85              	.LVL5:
  86 0036 FFF7FEFF 		bl	chSysHalt
  87              	.LVL6:
  88 003a E9E7     		b	.L3
  89              	.L13:
  90              		.align	2
  91              	.L12:
  92 003c 00000000 		.word	.LANCHOR0
  93              		.cfi_endproc
  94              	.LFE226:
  95              		.size	chMBObjectInit, .-chMBObjectInit
  96              		.section	.text.chMBResetI,"ax",%progbits
  97              		.align	2
  98              		.p2align 4,,15
  99              		.global	chMBResetI
 100              		.thumb
 101              		.thumb_func
 102              		.type	chMBResetI, %function
 103              	chMBResetI:
 104              	.LFB228:
 105              		.loc 1 122 0
 106              		.cfi_startproc
 107              		@ args = 0, pretend = 0, frame = 0
 108              		@ frame_needed = 0, uses_anonymous_args = 0
 109              	.LVL7:
 110 0000 10B5     		push	{r4, lr}
 111              		.cfi_def_cfa_offset 8
 112              		.cfi_offset 4, -8
 113              		.cfi_offset 14, -4
 114              		.loc 1 122 0
ARM GAS  C:\Users\jo\AppData\Local\Temp\ccsBQzJD.s 			page 3


 115 0002 0446     		mov	r4, r0
 116              		.loc 1 124 0
 117 0004 FFF7FEFF 		bl	chDbgCheckClassI
 118              	.LVL8:
 119              		.loc 1 125 0
 120 0008 84B1     		cbz	r4, .L17
 121              	.L15:
 122              		.loc 1 127 0
 123 000a 2368     		ldr	r3, [r4]
 124              		.loc 1 128 0
 125 000c 6168     		ldr	r1, [r4, #4]
 126              		.loc 1 127 0
 127 000e E360     		str	r3, [r4, #12]
 128              		.loc 1 128 0
 129 0010 C91A     		subs	r1, r1, r3
 130 0012 04F11C00 		add	r0, r4, #28
 131              		.loc 1 127 0
 132 0016 A360     		str	r3, [r4, #8]
 133              		.loc 1 128 0
 134 0018 8910     		asrs	r1, r1, #2
 135 001a FFF7FEFF 		bl	chSemResetI
 136              	.LVL9:
 137              		.loc 1 129 0
 138 001e 04F11000 		add	r0, r4, #16
 139 0022 0021     		movs	r1, #0
 140              		.loc 1 130 0
 141 0024 BDE81040 		pop	{r4, lr}
 142              		.cfi_remember_state
 143              		.cfi_restore 14
 144              		.cfi_restore 4
 145              		.cfi_def_cfa_offset 0
 146              	.LVL10:
 147              		.loc 1 129 0
 148 0028 FFF7FEBF 		b	chSemResetI
 149              	.LVL11:
 150              	.L17:
 151              		.cfi_restore_state
 152              		.loc 1 125 0 discriminator 1
 153 002c 0148     		ldr	r0, .L18
 154 002e FFF7FEFF 		bl	chSysHalt
 155              	.LVL12:
 156 0032 EAE7     		b	.L15
 157              	.L19:
 158              		.align	2
 159              	.L18:
 160 0034 00000000 		.word	.LANCHOR1
 161              		.cfi_endproc
 162              	.LFE228:
 163              		.size	chMBResetI, .-chMBResetI
 164 0038 AFF30080 		.section	.text.chMBReset,"ax",%progbits
 164      AFF30080 
 165              		.align	2
 166              		.p2align 4,,15
 167              		.global	chMBReset
 168              		.thumb
 169              		.thumb_func
 170              		.type	chMBReset, %function
ARM GAS  C:\Users\jo\AppData\Local\Temp\ccsBQzJD.s 			page 4


 171              	chMBReset:
 172              	.LFB227:
 173              		.loc 1 105 0
 174              		.cfi_startproc
 175              		@ args = 0, pretend = 0, frame = 0
 176              		@ frame_needed = 0, uses_anonymous_args = 0
 177              	.LVL13:
 178 0000 10B5     		push	{r4, lr}
 179              		.cfi_def_cfa_offset 8
 180              		.cfi_offset 4, -8
 181              		.cfi_offset 14, -4
 182              	.LBB56:
 183              	.LBB57:
 184              	.LBB58:
 185              	.LBB59:
 186              	.LBB60:
 187              		.file 2 "../../../os/ext/CMSIS/include/core_cmFunc.h"
 188              		.loc 2 546 0
 189 0002 2023     		movs	r3, #32
 190              	.LBE60:
 191              	.LBE59:
 192              	.LBE58:
 193              	.LBE57:
 194              	.LBE56:
 195              		.loc 1 105 0
 196 0004 0446     		mov	r4, r0
 197              	.LBB65:
 198              	.LBB64:
 199              	.LBB63:
 200              	.LBB62:
 201              	.LBB61:
 202              		.loc 2 546 0
 203              	@ 546 "../../../os/ext/CMSIS/include/core_cmFunc.h" 1
 204 0006 83F31188 		MSR basepri, r3
 205              	@ 0 "" 2
 206              		.thumb
 207              	.LBE61:
 208              	.LBE62:
 209              	.LBE63:
 210              		.file 3 "../../../os/rt/include/chsys.h"
 211              		.loc 3 300 0
 212 000a FFF7FEFF 		bl	_stats_start_measure_crit_thd
 213              	.LVL14:
 214              		.loc 3 301 0
 215 000e FFF7FEFF 		bl	_dbg_check_lock
 216              	.LVL15:
 217              	.LBE64:
 218              	.LBE65:
 219              		.loc 1 108 0
 220 0012 2046     		mov	r0, r4
 221 0014 FFF7FEFF 		bl	chMBResetI
 222              	.LVL16:
 223              		.loc 1 109 0
 224 0018 FFF7FEFF 		bl	chSchRescheduleS
 225              	.LVL17:
 226              	.LBB66:
 227              	.LBB67:
ARM GAS  C:\Users\jo\AppData\Local\Temp\ccsBQzJD.s 			page 5


 228              		.loc 3 311 0
 229 001c FFF7FEFF 		bl	_dbg_check_unlock
 230              	.LVL18:
 231              		.loc 3 312 0
 232 0020 FFF7FEFF 		bl	_stats_stop_measure_crit_thd
 233              	.LVL19:
 234              		.loc 3 318 0
 235 0024 084B     		ldr	r3, .L23
 236 0026 9A69     		ldr	r2, [r3, #24]
 237 0028 1B68     		ldr	r3, [r3]
 238 002a 9268     		ldr	r2, [r2, #8]
 239 002c 9B68     		ldr	r3, [r3, #8]
 240 002e 9A42     		cmp	r2, r3
 241 0030 06D2     		bcs	.L21
 242 0032 0648     		ldr	r0, .L23+4
 243 0034 FFF7FEFF 		bl	puts
 244              	.LVL20:
 245              	@ 318 "../../../os/rt/include/chsys.h" 1
 246 0038 00BE     		BKPT #0
 247              	
 248              	@ 0 "" 2
 249              		.thumb
 250 003a 0548     		ldr	r0, .L23+8
 251 003c FFF7FEFF 		bl	chSysHalt
 252              	.LVL21:
 253              	.L21:
 254              	.LBB68:
 255              	.LBB69:
 256              	.LBB70:
 257              		.loc 2 546 0
 258 0040 0023     		movs	r3, #0
 259              	@ 546 "../../../os/ext/CMSIS/include/core_cmFunc.h" 1
 260 0042 83F31188 		MSR basepri, r3
 261              	@ 0 "" 2
 262              		.thumb
 263 0046 10BD     		pop	{r4, pc}
 264              	.LVL22:
 265              	.L24:
 266              		.align	2
 267              	.L23:
 268 0048 00000000 		.word	ch
 269 004c 00000000 		.word	.LC0
 270 0050 00000000 		.word	.LANCHOR2
 271              	.LBE70:
 272              	.LBE69:
 273              	.LBE68:
 274              	.LBE67:
 275              	.LBE66:
 276              		.cfi_endproc
 277              	.LFE227:
 278              		.size	chMBReset, .-chMBReset
 279 0054 AFF30080 		.section	.text.chMBPostS,"ax",%progbits
 279      AFF30080 
 279      AFF30080 
 280              		.align	2
 281              		.p2align 4,,15
 282              		.global	chMBPostS
ARM GAS  C:\Users\jo\AppData\Local\Temp\ccsBQzJD.s 			page 6


 283              		.thumb
 284              		.thumb_func
 285              		.type	chMBPostS, %function
 286              	chMBPostS:
 287              	.LFB230:
 288              		.loc 1 180 0
 289              		.cfi_startproc
 290              		@ args = 0, pretend = 0, frame = 0
 291              		@ frame_needed = 0, uses_anonymous_args = 0
 292              	.LVL23:
 293 0000 70B5     		push	{r4, r5, r6, lr}
 294              		.cfi_def_cfa_offset 16
 295              		.cfi_offset 4, -16
 296              		.cfi_offset 5, -12
 297              		.cfi_offset 6, -8
 298              		.cfi_offset 14, -4
 299              		.loc 1 180 0
 300 0002 0446     		mov	r4, r0
 301 0004 0E46     		mov	r6, r1
 302 0006 1546     		mov	r5, r2
 303              		.loc 1 183 0
 304 0008 FFF7FEFF 		bl	chDbgCheckClassS
 305              	.LVL24:
 306              		.loc 1 184 0
 307 000c C4B1     		cbz	r4, .L30
 308              	.L26:
 309              		.loc 1 186 0
 310 000e 2946     		mov	r1, r5
 311 0010 04F11C00 		add	r0, r4, #28
 312 0014 FFF7FEFF 		bl	chSemWaitTimeoutS
 313              	.LVL25:
 314              		.loc 1 187 0
 315 0018 0546     		mov	r5, r0
 316              	.LVL26:
 317 001a 78B9     		cbnz	r0, .L27
 318              	.LVL27:
 319              	.LBB73:
 320              	.LBB74:
 321              		.loc 1 188 0
 322 001c A268     		ldr	r2, [r4, #8]
 323              		.loc 1 189 0
 324 001e 6168     		ldr	r1, [r4, #4]
 325              		.loc 1 188 0
 326 0020 131D     		adds	r3, r2, #4
 327              		.loc 1 189 0
 328 0022 8B42     		cmp	r3, r1
 329              		.loc 1 188 0
 330 0024 A360     		str	r3, [r4, #8]
 331              		.loc 1 190 0
 332 0026 28BF     		it	cs
 333 0028 2368     		ldrcs	r3, [r4]
 334              		.loc 1 188 0
 335 002a 1660     		str	r6, [r2]
 336              		.loc 1 192 0
 337 002c 04F11000 		add	r0, r4, #16
 338              	.LVL28:
 339              		.loc 1 190 0
ARM GAS  C:\Users\jo\AppData\Local\Temp\ccsBQzJD.s 			page 7


 340 0030 28BF     		it	cs
 341 0032 A360     		strcs	r3, [r4, #8]
 342              		.loc 1 192 0
 343 0034 FFF7FEFF 		bl	chSemSignalI
 344              	.LVL29:
 345              		.loc 1 193 0
 346 0038 FFF7FEFF 		bl	chSchRescheduleS
 347              	.LVL30:
 348              	.L27:
 349              	.LBE74:
 350              	.LBE73:
 351              		.loc 1 197 0
 352 003c 2846     		mov	r0, r5
 353 003e 70BD     		pop	{r4, r5, r6, pc}
 354              	.LVL31:
 355              	.L30:
 356              		.loc 1 184 0 discriminator 1
 357 0040 0148     		ldr	r0, .L31
 358 0042 FFF7FEFF 		bl	chSysHalt
 359              	.LVL32:
 360 0046 E2E7     		b	.L26
 361              	.L32:
 362              		.align	2
 363              	.L31:
 364 0048 00000000 		.word	.LANCHOR3
 365              		.cfi_endproc
 366              	.LFE230:
 367              		.size	chMBPostS, .-chMBPostS
 368 004c AFF30080 		.section	.text.chMBPost,"ax",%progbits
 369              		.align	2
 370              		.p2align 4,,15
 371              		.global	chMBPost
 372              		.thumb
 373              		.thumb_func
 374              		.type	chMBPost, %function
 375              	chMBPost:
 376              	.LFB229:
 377              		.loc 1 151 0
 378              		.cfi_startproc
 379              		@ args = 0, pretend = 0, frame = 0
 380              		@ frame_needed = 0, uses_anonymous_args = 0
 381              	.LVL33:
 382 0000 70B5     		push	{r4, r5, r6, lr}
 383              		.cfi_def_cfa_offset 16
 384              		.cfi_offset 4, -16
 385              		.cfi_offset 5, -12
 386              		.cfi_offset 6, -8
 387              		.cfi_offset 14, -4
 388              	.LBB85:
 389              	.LBB86:
 390              	.LBB87:
 391              	.LBB88:
 392              	.LBB89:
 393              		.loc 2 546 0
 394 0002 2023     		movs	r3, #32
 395              	.LBE89:
 396              	.LBE88:
ARM GAS  C:\Users\jo\AppData\Local\Temp\ccsBQzJD.s 			page 8


 397              	.LBE87:
 398              	.LBE86:
 399              	.LBE85:
 400              		.loc 1 151 0
 401 0004 0646     		mov	r6, r0
 402 0006 0D46     		mov	r5, r1
 403 0008 1446     		mov	r4, r2
 404              	.LBB94:
 405              	.LBB93:
 406              	.LBB92:
 407              	.LBB91:
 408              	.LBB90:
 409              		.loc 2 546 0
 410              	@ 546 "../../../os/ext/CMSIS/include/core_cmFunc.h" 1
 411 000a 83F31188 		MSR basepri, r3
 412              	@ 0 "" 2
 413              		.thumb
 414              	.LBE90:
 415              	.LBE91:
 416              	.LBE92:
 417              		.loc 3 300 0
 418 000e FFF7FEFF 		bl	_stats_start_measure_crit_thd
 419              	.LVL34:
 420              		.loc 3 301 0
 421 0012 FFF7FEFF 		bl	_dbg_check_lock
 422              	.LVL35:
 423              	.LBE93:
 424              	.LBE94:
 425              		.loc 1 155 0
 426 0016 2246     		mov	r2, r4
 427 0018 2946     		mov	r1, r5
 428 001a 3046     		mov	r0, r6
 429 001c FFF7FEFF 		bl	chMBPostS
 430              	.LVL36:
 431 0020 0446     		mov	r4, r0
 432              	.LVL37:
 433              	.LBB95:
 434              	.LBB96:
 435              		.loc 3 311 0
 436 0022 FFF7FEFF 		bl	_dbg_check_unlock
 437              	.LVL38:
 438              		.loc 3 312 0
 439 0026 FFF7FEFF 		bl	_stats_stop_measure_crit_thd
 440              	.LVL39:
 441              		.loc 3 318 0
 442 002a 094B     		ldr	r3, .L36
 443 002c 9A69     		ldr	r2, [r3, #24]
 444 002e 1B68     		ldr	r3, [r3]
 445 0030 9268     		ldr	r2, [r2, #8]
 446 0032 9B68     		ldr	r3, [r3, #8]
 447 0034 9A42     		cmp	r2, r3
 448 0036 06D2     		bcs	.L34
 449 0038 0648     		ldr	r0, .L36+4
 450 003a FFF7FEFF 		bl	puts
 451              	.LVL40:
 452              	@ 318 "../../../os/rt/include/chsys.h" 1
 453 003e 00BE     		BKPT #0
ARM GAS  C:\Users\jo\AppData\Local\Temp\ccsBQzJD.s 			page 9


 454              	
 455              	@ 0 "" 2
 456              		.thumb
 457 0040 0548     		ldr	r0, .L36+8
 458 0042 FFF7FEFF 		bl	chSysHalt
 459              	.LVL41:
 460              	.L34:
 461              	.LBB97:
 462              	.LBB98:
 463              	.LBB99:
 464              		.loc 2 546 0
 465 0046 0023     		movs	r3, #0
 466              	@ 546 "../../../os/ext/CMSIS/include/core_cmFunc.h" 1
 467 0048 83F31188 		MSR basepri, r3
 468              	@ 0 "" 2
 469              		.thumb
 470              	.LBE99:
 471              	.LBE98:
 472              	.LBE97:
 473              	.LBE96:
 474              	.LBE95:
 475              		.loc 1 159 0
 476 004c 2046     		mov	r0, r4
 477 004e 70BD     		pop	{r4, r5, r6, pc}
 478              	.LVL42:
 479              	.L37:
 480              		.align	2
 481              	.L36:
 482 0050 00000000 		.word	ch
 483 0054 00000000 		.word	.LC0
 484 0058 00000000 		.word	.LANCHOR2
 485              		.cfi_endproc
 486              	.LFE229:
 487              		.size	chMBPost, .-chMBPost
 488 005c AFF30080 		.section	.text.chMBPostI,"ax",%progbits
 489              		.align	2
 490              		.p2align 4,,15
 491              		.global	chMBPostI
 492              		.thumb
 493              		.thumb_func
 494              		.type	chMBPostI, %function
 495              	chMBPostI:
 496              	.LFB231:
 497              		.loc 1 213 0
 498              		.cfi_startproc
 499              		@ args = 0, pretend = 0, frame = 0
 500              		@ frame_needed = 0, uses_anonymous_args = 0
 501              	.LVL43:
 502 0000 38B5     		push	{r3, r4, r5, lr}
 503              		.cfi_def_cfa_offset 16
 504              		.cfi_offset 3, -16
 505              		.cfi_offset 4, -12
 506              		.cfi_offset 5, -8
 507              		.cfi_offset 14, -4
 508              		.loc 1 213 0
 509 0002 0446     		mov	r4, r0
 510 0004 0D46     		mov	r5, r1
ARM GAS  C:\Users\jo\AppData\Local\Temp\ccsBQzJD.s 			page 10


 511              		.loc 1 215 0
 512 0006 FFF7FEFF 		bl	chDbgCheckClassI
 513              	.LVL44:
 514              		.loc 1 216 0
 515 000a CCB1     		cbz	r4, .L44
 516              	.L39:
 517              	.LVL45:
 518              	.LBB100:
 519              	.LBB101:
 520              		.file 4 "../../../os/rt/include/chsem.h"
 521              		.loc 4 151 0
 522 000c FFF7FEFF 		bl	chDbgCheckClassI
 523              	.LVL46:
 524              	.LBE101:
 525              	.LBE100:
 526              		.loc 1 218 0
 527 0010 636A     		ldr	r3, [r4, #36]
 528 0012 002B     		cmp	r3, #0
 529 0014 18DD     		ble	.L42
 530              	.LVL47:
 531              	.LBB102:
 532              	.LBB103:
 533              		.loc 4 120 0
 534 0016 FFF7FEFF 		bl	chDbgCheckClassI
 535              	.LVL48:
 536              	.LBE103:
 537              	.LBE102:
 538              		.loc 1 223 0
 539 001a A168     		ldr	r1, [r4, #8]
 540              	.LBB107:
 541              	.LBB104:
 542              		.loc 4 122 0
 543 001c 636A     		ldr	r3, [r4, #36]
 544              	.LBE104:
 545              	.LBE107:
 546              		.loc 1 224 0
 547 001e 6068     		ldr	r0, [r4, #4]
 548              		.loc 1 223 0
 549 0020 0A1D     		adds	r2, r1, #4
 550              	.LBB108:
 551              	.LBB105:
 552              		.loc 4 122 0
 553 0022 013B     		subs	r3, r3, #1
 554              	.LBE105:
 555              	.LBE108:
 556              		.loc 1 224 0
 557 0024 8242     		cmp	r2, r0
 558              	.LBB109:
 559              	.LBB106:
 560              		.loc 4 122 0
 561 0026 6362     		str	r3, [r4, #36]
 562              	.LBE106:
 563              	.LBE109:
 564              		.loc 1 225 0
 565 0028 28BF     		it	cs
 566 002a 2368     		ldrcs	r3, [r4]
 567              		.loc 1 223 0
ARM GAS  C:\Users\jo\AppData\Local\Temp\ccsBQzJD.s 			page 11


 568 002c A260     		str	r2, [r4, #8]
 569              		.loc 1 227 0
 570 002e 04F11000 		add	r0, r4, #16
 571              		.loc 1 223 0
 572 0032 0D60     		str	r5, [r1]
 573              		.loc 1 225 0
 574 0034 28BF     		it	cs
 575 0036 A360     		strcs	r3, [r4, #8]
 576              		.loc 1 227 0
 577 0038 FFF7FEFF 		bl	chSemSignalI
 578              	.LVL49:
 579              		.loc 1 229 0
 580 003c 0020     		movs	r0, #0
 581 003e 38BD     		pop	{r3, r4, r5, pc}
 582              	.LVL50:
 583              	.L44:
 584              		.loc 1 216 0 discriminator 1
 585 0040 0348     		ldr	r0, .L45
 586 0042 FFF7FEFF 		bl	chSysHalt
 587              	.LVL51:
 588 0046 E1E7     		b	.L39
 589              	.LVL52:
 590              	.L42:
 591              		.loc 1 219 0
 592 0048 4FF0FF30 		mov	r0, #-1
 593              		.loc 1 230 0
 594 004c 38BD     		pop	{r3, r4, r5, pc}
 595              	.LVL53:
 596              	.L46:
 597 004e 00BF     		.align	2
 598              	.L45:
 599 0050 00000000 		.word	.LANCHOR4
 600              		.cfi_endproc
 601              	.LFE231:
 602              		.size	chMBPostI, .-chMBPostI
 603 0054 AFF30080 		.section	.text.chMBPostAheadS,"ax",%progbits
 603      AFF30080 
 603      AFF30080 
 604              		.align	2
 605              		.p2align 4,,15
 606              		.global	chMBPostAheadS
 607              		.thumb
 608              		.thumb_func
 609              		.type	chMBPostAheadS, %function
 610              	chMBPostAheadS:
 611              	.LFB233:
 612              		.loc 1 280 0
 613              		.cfi_startproc
 614              		@ args = 0, pretend = 0, frame = 0
 615              		@ frame_needed = 0, uses_anonymous_args = 0
 616              	.LVL54:
 617 0000 70B5     		push	{r4, r5, r6, lr}
 618              		.cfi_def_cfa_offset 16
 619              		.cfi_offset 4, -16
 620              		.cfi_offset 5, -12
 621              		.cfi_offset 6, -8
 622              		.cfi_offset 14, -4
ARM GAS  C:\Users\jo\AppData\Local\Temp\ccsBQzJD.s 			page 12


 623              		.loc 1 280 0
 624 0002 0446     		mov	r4, r0
 625 0004 0E46     		mov	r6, r1
 626 0006 1546     		mov	r5, r2
 627              		.loc 1 283 0
 628 0008 FFF7FEFF 		bl	chDbgCheckClassS
 629              	.LVL55:
 630              		.loc 1 284 0
 631 000c CCB1     		cbz	r4, .L52
 632              	.L48:
 633              		.loc 1 286 0
 634 000e 2946     		mov	r1, r5
 635 0010 04F11C00 		add	r0, r4, #28
 636 0014 FFF7FEFF 		bl	chSemWaitTimeoutS
 637              	.LVL56:
 638              		.loc 1 287 0
 639 0018 0546     		mov	r5, r0
 640              	.LVL57:
 641 001a 60B9     		cbnz	r0, .L49
 642              	.LVL58:
 643              	.LBB112:
 644              	.LBB113:
 645              		.loc 1 288 0
 646 001c E368     		ldr	r3, [r4, #12]
 647 001e 2268     		ldr	r2, [r4]
 648 0020 043B     		subs	r3, r3, #4
 649 0022 9342     		cmp	r3, r2
 650 0024 E360     		str	r3, [r4, #12]
 651 0026 08D3     		bcc	.L53
 652              	.L50:
 653              		.loc 1 291 0
 654 0028 1E60     		str	r6, [r3]
 655              		.loc 1 292 0
 656 002a 04F11000 		add	r0, r4, #16
 657              	.LVL59:
 658 002e FFF7FEFF 		bl	chSemSignalI
 659              	.LVL60:
 660              		.loc 1 293 0
 661 0032 FFF7FEFF 		bl	chSchRescheduleS
 662              	.LVL61:
 663              	.L49:
 664              	.LBE113:
 665              	.LBE112:
 666              		.loc 1 297 0
 667 0036 2846     		mov	r0, r5
 668 0038 70BD     		pop	{r4, r5, r6, pc}
 669              	.LVL62:
 670              	.L53:
 671              	.LBB115:
 672              	.LBB114:
 673              		.loc 1 289 0
 674 003a 6368     		ldr	r3, [r4, #4]
 675 003c 043B     		subs	r3, r3, #4
 676 003e E360     		str	r3, [r4, #12]
 677 0040 F2E7     		b	.L50
 678              	.LVL63:
 679              	.L52:
ARM GAS  C:\Users\jo\AppData\Local\Temp\ccsBQzJD.s 			page 13


 680              	.LBE114:
 681              	.LBE115:
 682              		.loc 1 284 0 discriminator 1
 683 0042 0248     		ldr	r0, .L54
 684 0044 FFF7FEFF 		bl	chSysHalt
 685              	.LVL64:
 686 0048 E1E7     		b	.L48
 687              	.L55:
 688 004a 00BF     		.align	2
 689              	.L54:
 690 004c 00000000 		.word	.LANCHOR5
 691              		.cfi_endproc
 692              	.LFE233:
 693              		.size	chMBPostAheadS, .-chMBPostAheadS
 694              		.section	.text.chMBPostAhead,"ax",%progbits
 695              		.align	2
 696              		.p2align 4,,15
 697              		.global	chMBPostAhead
 698              		.thumb
 699              		.thumb_func
 700              		.type	chMBPostAhead, %function
 701              	chMBPostAhead:
 702              	.LFB232:
 703              		.loc 1 251 0
 704              		.cfi_startproc
 705              		@ args = 0, pretend = 0, frame = 0
 706              		@ frame_needed = 0, uses_anonymous_args = 0
 707              	.LVL65:
 708 0000 70B5     		push	{r4, r5, r6, lr}
 709              		.cfi_def_cfa_offset 16
 710              		.cfi_offset 4, -16
 711              		.cfi_offset 5, -12
 712              		.cfi_offset 6, -8
 713              		.cfi_offset 14, -4
 714              	.LBB126:
 715              	.LBB127:
 716              	.LBB128:
 717              	.LBB129:
 718              	.LBB130:
 719              		.loc 2 546 0
 720 0002 2023     		movs	r3, #32
 721              	.LBE130:
 722              	.LBE129:
 723              	.LBE128:
 724              	.LBE127:
 725              	.LBE126:
 726              		.loc 1 251 0
 727 0004 0646     		mov	r6, r0
 728 0006 0D46     		mov	r5, r1
 729 0008 1446     		mov	r4, r2
 730              	.LBB135:
 731              	.LBB134:
 732              	.LBB133:
 733              	.LBB132:
 734              	.LBB131:
 735              		.loc 2 546 0
 736              	@ 546 "../../../os/ext/CMSIS/include/core_cmFunc.h" 1
ARM GAS  C:\Users\jo\AppData\Local\Temp\ccsBQzJD.s 			page 14


 737 000a 83F31188 		MSR basepri, r3
 738              	@ 0 "" 2
 739              		.thumb
 740              	.LBE131:
 741              	.LBE132:
 742              	.LBE133:
 743              		.loc 3 300 0
 744 000e FFF7FEFF 		bl	_stats_start_measure_crit_thd
 745              	.LVL66:
 746              		.loc 3 301 0
 747 0012 FFF7FEFF 		bl	_dbg_check_lock
 748              	.LVL67:
 749              	.LBE134:
 750              	.LBE135:
 751              		.loc 1 255 0
 752 0016 2246     		mov	r2, r4
 753 0018 2946     		mov	r1, r5
 754 001a 3046     		mov	r0, r6
 755 001c FFF7FEFF 		bl	chMBPostAheadS
 756              	.LVL68:
 757 0020 0446     		mov	r4, r0
 758              	.LVL69:
 759              	.LBB136:
 760              	.LBB137:
 761              		.loc 3 311 0
 762 0022 FFF7FEFF 		bl	_dbg_check_unlock
 763              	.LVL70:
 764              		.loc 3 312 0
 765 0026 FFF7FEFF 		bl	_stats_stop_measure_crit_thd
 766              	.LVL71:
 767              		.loc 3 318 0
 768 002a 094B     		ldr	r3, .L59
 769 002c 9A69     		ldr	r2, [r3, #24]
 770 002e 1B68     		ldr	r3, [r3]
 771 0030 9268     		ldr	r2, [r2, #8]
 772 0032 9B68     		ldr	r3, [r3, #8]
 773 0034 9A42     		cmp	r2, r3
 774 0036 06D2     		bcs	.L57
 775 0038 0648     		ldr	r0, .L59+4
 776 003a FFF7FEFF 		bl	puts
 777              	.LVL72:
 778              	@ 318 "../../../os/rt/include/chsys.h" 1
 779 003e 00BE     		BKPT #0
 780              	
 781              	@ 0 "" 2
 782              		.thumb
 783 0040 0548     		ldr	r0, .L59+8
 784 0042 FFF7FEFF 		bl	chSysHalt
 785              	.LVL73:
 786              	.L57:
 787              	.LBB138:
 788              	.LBB139:
 789              	.LBB140:
 790              		.loc 2 546 0
 791 0046 0023     		movs	r3, #0
 792              	@ 546 "../../../os/ext/CMSIS/include/core_cmFunc.h" 1
 793 0048 83F31188 		MSR basepri, r3
ARM GAS  C:\Users\jo\AppData\Local\Temp\ccsBQzJD.s 			page 15


 794              	@ 0 "" 2
 795              		.thumb
 796              	.LBE140:
 797              	.LBE139:
 798              	.LBE138:
 799              	.LBE137:
 800              	.LBE136:
 801              		.loc 1 259 0
 802 004c 2046     		mov	r0, r4
 803 004e 70BD     		pop	{r4, r5, r6, pc}
 804              	.LVL74:
 805              	.L60:
 806              		.align	2
 807              	.L59:
 808 0050 00000000 		.word	ch
 809 0054 00000000 		.word	.LC0
 810 0058 00000000 		.word	.LANCHOR2
 811              		.cfi_endproc
 812              	.LFE232:
 813              		.size	chMBPostAhead, .-chMBPostAhead
 814 005c AFF30080 		.section	.text.chMBPostAheadI,"ax",%progbits
 815              		.align	2
 816              		.p2align 4,,15
 817              		.global	chMBPostAheadI
 818              		.thumb
 819              		.thumb_func
 820              		.type	chMBPostAheadI, %function
 821              	chMBPostAheadI:
 822              	.LFB234:
 823              		.loc 1 313 0
 824              		.cfi_startproc
 825              		@ args = 0, pretend = 0, frame = 0
 826              		@ frame_needed = 0, uses_anonymous_args = 0
 827              	.LVL75:
 828 0000 38B5     		push	{r3, r4, r5, lr}
 829              		.cfi_def_cfa_offset 16
 830              		.cfi_offset 3, -16
 831              		.cfi_offset 4, -12
 832              		.cfi_offset 5, -8
 833              		.cfi_offset 14, -4
 834              		.loc 1 313 0
 835 0002 0446     		mov	r4, r0
 836 0004 0D46     		mov	r5, r1
 837              		.loc 1 315 0
 838 0006 FFF7FEFF 		bl	chDbgCheckClassI
 839              	.LVL76:
 840              		.loc 1 316 0
 841 000a CCB1     		cbz	r4, .L67
 842              	.L62:
 843              	.LVL77:
 844              	.LBB141:
 845              	.LBB142:
 846              		.loc 4 151 0
 847 000c FFF7FEFF 		bl	chDbgCheckClassI
 848              	.LVL78:
 849              	.LBE142:
 850              	.LBE141:
ARM GAS  C:\Users\jo\AppData\Local\Temp\ccsBQzJD.s 			page 16


 851              		.loc 1 318 0
 852 0010 636A     		ldr	r3, [r4, #36]
 853 0012 002B     		cmp	r3, #0
 854 0014 18DD     		ble	.L65
 855              	.LVL79:
 856              	.LBB143:
 857              	.LBB144:
 858              		.loc 4 120 0
 859 0016 FFF7FEFF 		bl	chDbgCheckClassI
 860              	.LVL80:
 861              	.LBE144:
 862              	.LBE143:
 863              		.loc 1 322 0
 864 001a E368     		ldr	r3, [r4, #12]
 865              	.LBB148:
 866              	.LBB145:
 867              		.loc 4 122 0
 868 001c 626A     		ldr	r2, [r4, #36]
 869              	.LBE145:
 870              	.LBE148:
 871              		.loc 1 322 0
 872 001e 2168     		ldr	r1, [r4]
 873 0020 043B     		subs	r3, r3, #4
 874              	.LBB149:
 875              	.LBB146:
 876              		.loc 4 122 0
 877 0022 013A     		subs	r2, r2, #1
 878              	.LBE146:
 879              	.LBE149:
 880              		.loc 1 322 0
 881 0024 8B42     		cmp	r3, r1
 882              	.LBB150:
 883              	.LBB147:
 884              		.loc 4 122 0
 885 0026 6262     		str	r2, [r4, #36]
 886              	.LBE147:
 887              	.LBE150:
 888              		.loc 1 322 0
 889 0028 E360     		str	r3, [r4, #12]
 890 002a 02D2     		bcs	.L64
 891              		.loc 1 323 0
 892 002c 6368     		ldr	r3, [r4, #4]
 893 002e 043B     		subs	r3, r3, #4
 894 0030 E360     		str	r3, [r4, #12]
 895              	.L64:
 896              		.loc 1 326 0
 897 0032 04F11000 		add	r0, r4, #16
 898              		.loc 1 325 0
 899 0036 1D60     		str	r5, [r3]
 900              		.loc 1 326 0
 901 0038 FFF7FEFF 		bl	chSemSignalI
 902              	.LVL81:
 903              		.loc 1 328 0
 904 003c 0020     		movs	r0, #0
 905 003e 38BD     		pop	{r3, r4, r5, pc}
 906              	.LVL82:
 907              	.L67:
ARM GAS  C:\Users\jo\AppData\Local\Temp\ccsBQzJD.s 			page 17


 908              		.loc 1 316 0 discriminator 1
 909 0040 0348     		ldr	r0, .L68
 910 0042 FFF7FEFF 		bl	chSysHalt
 911              	.LVL83:
 912 0046 E1E7     		b	.L62
 913              	.LVL84:
 914              	.L65:
 915              		.loc 1 319 0
 916 0048 4FF0FF30 		mov	r0, #-1
 917              		.loc 1 329 0
 918 004c 38BD     		pop	{r3, r4, r5, pc}
 919              	.LVL85:
 920              	.L69:
 921 004e 00BF     		.align	2
 922              	.L68:
 923 0050 00000000 		.word	.LANCHOR6
 924              		.cfi_endproc
 925              	.LFE234:
 926              		.size	chMBPostAheadI, .-chMBPostAheadI
 927              		.section	.text.chMBFetchS,"ax",%progbits
 928              		.align	2
 929              		.p2align 4,,15
 930              		.global	chMBFetchS
 931              		.thumb
 932              		.thumb_func
 933              		.type	chMBFetchS, %function
 934              	chMBFetchS:
 935              	.LFB236:
 936              		.loc 1 379 0
 937              		.cfi_startproc
 938              		@ args = 0, pretend = 0, frame = 0
 939              		@ frame_needed = 0, uses_anonymous_args = 0
 940              	.LVL86:
 941 0000 70B5     		push	{r4, r5, r6, lr}
 942              		.cfi_def_cfa_offset 16
 943              		.cfi_offset 4, -16
 944              		.cfi_offset 5, -12
 945              		.cfi_offset 6, -8
 946              		.cfi_offset 14, -4
 947              		.loc 1 379 0
 948 0002 0446     		mov	r4, r0
 949 0004 0E46     		mov	r6, r1
 950 0006 1546     		mov	r5, r2
 951              		.loc 1 382 0
 952 0008 FFF7FEFF 		bl	chDbgCheckClassS
 953              	.LVL87:
 954              		.loc 1 383 0
 955 000c D4B1     		cbz	r4, .L71
 956              		.loc 1 383 0 is_stmt 0 discriminator 2
 957 000e CEB1     		cbz	r6, .L71
 958              	.L72:
 959              		.loc 1 385 0 is_stmt 1
 960 0010 2946     		mov	r1, r5
 961 0012 04F11000 		add	r0, r4, #16
 962 0016 FFF7FEFF 		bl	chSemWaitTimeoutS
 963              	.LVL88:
 964              		.loc 1 386 0
ARM GAS  C:\Users\jo\AppData\Local\Temp\ccsBQzJD.s 			page 18


 965 001a 0546     		mov	r5, r0
 966              	.LVL89:
 967 001c 80B9     		cbnz	r0, .L73
 968              	.LVL90:
 969              	.LBB153:
 970              	.LBB154:
 971              		.loc 1 387 0
 972 001e E368     		ldr	r3, [r4, #12]
 973              		.loc 1 388 0
 974 0020 6268     		ldr	r2, [r4, #4]
 975              		.loc 1 387 0
 976 0022 1968     		ldr	r1, [r3]
 977 0024 0433     		adds	r3, r3, #4
 978              		.loc 1 388 0
 979 0026 9342     		cmp	r3, r2
 980              		.loc 1 387 0
 981 0028 E360     		str	r3, [r4, #12]
 982              		.loc 1 389 0
 983 002a 28BF     		it	cs
 984 002c 2368     		ldrcs	r3, [r4]
 985              		.loc 1 387 0
 986 002e 3160     		str	r1, [r6]
 987              		.loc 1 391 0
 988 0030 04F11C00 		add	r0, r4, #28
 989              	.LVL91:
 990              		.loc 1 389 0
 991 0034 28BF     		it	cs
 992 0036 E360     		strcs	r3, [r4, #12]
 993              		.loc 1 391 0
 994 0038 FFF7FEFF 		bl	chSemSignalI
 995              	.LVL92:
 996              		.loc 1 392 0
 997 003c FFF7FEFF 		bl	chSchRescheduleS
 998              	.LVL93:
 999              	.L73:
 1000              	.LBE154:
 1001              	.LBE153:
 1002              		.loc 1 396 0
 1003 0040 2846     		mov	r0, r5
 1004 0042 70BD     		pop	{r4, r5, r6, pc}
 1005              	.LVL94:
 1006              	.L71:
 1007              		.loc 1 383 0 discriminator 3
 1008 0044 0148     		ldr	r0, .L79
 1009 0046 FFF7FEFF 		bl	chSysHalt
 1010              	.LVL95:
 1011 004a E1E7     		b	.L72
 1012              	.L80:
 1013              		.align	2
 1014              	.L79:
 1015 004c 00000000 		.word	.LANCHOR7
 1016              		.cfi_endproc
 1017              	.LFE236:
 1018              		.size	chMBFetchS, .-chMBFetchS
 1019              		.section	.text.chMBFetch,"ax",%progbits
 1020              		.align	2
 1021              		.p2align 4,,15
ARM GAS  C:\Users\jo\AppData\Local\Temp\ccsBQzJD.s 			page 19


 1022              		.global	chMBFetch
 1023              		.thumb
 1024              		.thumb_func
 1025              		.type	chMBFetch, %function
 1026              	chMBFetch:
 1027              	.LFB235:
 1028              		.loc 1 350 0
 1029              		.cfi_startproc
 1030              		@ args = 0, pretend = 0, frame = 0
 1031              		@ frame_needed = 0, uses_anonymous_args = 0
 1032              	.LVL96:
 1033 0000 70B5     		push	{r4, r5, r6, lr}
 1034              		.cfi_def_cfa_offset 16
 1035              		.cfi_offset 4, -16
 1036              		.cfi_offset 5, -12
 1037              		.cfi_offset 6, -8
 1038              		.cfi_offset 14, -4
 1039              	.LBB165:
 1040              	.LBB166:
 1041              	.LBB167:
 1042              	.LBB168:
 1043              	.LBB169:
 1044              		.loc 2 546 0
 1045 0002 2023     		movs	r3, #32
 1046              	.LBE169:
 1047              	.LBE168:
 1048              	.LBE167:
 1049              	.LBE166:
 1050              	.LBE165:
 1051              		.loc 1 350 0
 1052 0004 0646     		mov	r6, r0
 1053 0006 0D46     		mov	r5, r1
 1054 0008 1446     		mov	r4, r2
 1055              	.LBB174:
 1056              	.LBB173:
 1057              	.LBB172:
 1058              	.LBB171:
 1059              	.LBB170:
 1060              		.loc 2 546 0
 1061              	@ 546 "../../../os/ext/CMSIS/include/core_cmFunc.h" 1
 1062 000a 83F31188 		MSR basepri, r3
 1063              	@ 0 "" 2
 1064              		.thumb
 1065              	.LBE170:
 1066              	.LBE171:
 1067              	.LBE172:
 1068              		.loc 3 300 0
 1069 000e FFF7FEFF 		bl	_stats_start_measure_crit_thd
 1070              	.LVL97:
 1071              		.loc 3 301 0
 1072 0012 FFF7FEFF 		bl	_dbg_check_lock
 1073              	.LVL98:
 1074              	.LBE173:
 1075              	.LBE174:
 1076              		.loc 1 354 0
 1077 0016 2246     		mov	r2, r4
 1078 0018 2946     		mov	r1, r5
ARM GAS  C:\Users\jo\AppData\Local\Temp\ccsBQzJD.s 			page 20


 1079 001a 3046     		mov	r0, r6
 1080 001c FFF7FEFF 		bl	chMBFetchS
 1081              	.LVL99:
 1082 0020 0446     		mov	r4, r0
 1083              	.LVL100:
 1084              	.LBB175:
 1085              	.LBB176:
 1086              		.loc 3 311 0
 1087 0022 FFF7FEFF 		bl	_dbg_check_unlock
 1088              	.LVL101:
 1089              		.loc 3 312 0
 1090 0026 FFF7FEFF 		bl	_stats_stop_measure_crit_thd
 1091              	.LVL102:
 1092              		.loc 3 318 0
 1093 002a 094B     		ldr	r3, .L84
 1094 002c 9A69     		ldr	r2, [r3, #24]
 1095 002e 1B68     		ldr	r3, [r3]
 1096 0030 9268     		ldr	r2, [r2, #8]
 1097 0032 9B68     		ldr	r3, [r3, #8]
 1098 0034 9A42     		cmp	r2, r3
 1099 0036 06D2     		bcs	.L82
 1100 0038 0648     		ldr	r0, .L84+4
 1101 003a FFF7FEFF 		bl	puts
 1102              	.LVL103:
 1103              	@ 318 "../../../os/rt/include/chsys.h" 1
 1104 003e 00BE     		BKPT #0
 1105              	
 1106              	@ 0 "" 2
 1107              		.thumb
 1108 0040 0548     		ldr	r0, .L84+8
 1109 0042 FFF7FEFF 		bl	chSysHalt
 1110              	.LVL104:
 1111              	.L82:
 1112              	.LBB177:
 1113              	.LBB178:
 1114              	.LBB179:
 1115              		.loc 2 546 0
 1116 0046 0023     		movs	r3, #0
 1117              	@ 546 "../../../os/ext/CMSIS/include/core_cmFunc.h" 1
 1118 0048 83F31188 		MSR basepri, r3
 1119              	@ 0 "" 2
 1120              		.thumb
 1121              	.LBE179:
 1122              	.LBE178:
 1123              	.LBE177:
 1124              	.LBE176:
 1125              	.LBE175:
 1126              		.loc 1 358 0
 1127 004c 2046     		mov	r0, r4
 1128 004e 70BD     		pop	{r4, r5, r6, pc}
 1129              	.LVL105:
 1130              	.L85:
 1131              		.align	2
 1132              	.L84:
 1133 0050 00000000 		.word	ch
 1134 0054 00000000 		.word	.LC0
 1135 0058 00000000 		.word	.LANCHOR2
ARM GAS  C:\Users\jo\AppData\Local\Temp\ccsBQzJD.s 			page 21


 1136              		.cfi_endproc
 1137              	.LFE235:
 1138              		.size	chMBFetch, .-chMBFetch
 1139 005c AFF30080 		.section	.text.chMBFetchI,"ax",%progbits
 1140              		.align	2
 1141              		.p2align 4,,15
 1142              		.global	chMBFetchI
 1143              		.thumb
 1144              		.thumb_func
 1145              		.type	chMBFetchI, %function
 1146              	chMBFetchI:
 1147              	.LFB237:
 1148              		.loc 1 412 0
 1149              		.cfi_startproc
 1150              		@ args = 0, pretend = 0, frame = 0
 1151              		@ frame_needed = 0, uses_anonymous_args = 0
 1152              	.LVL106:
 1153 0000 38B5     		push	{r3, r4, r5, lr}
 1154              		.cfi_def_cfa_offset 16
 1155              		.cfi_offset 3, -16
 1156              		.cfi_offset 4, -12
 1157              		.cfi_offset 5, -8
 1158              		.cfi_offset 14, -4
 1159              		.loc 1 412 0
 1160 0002 0446     		mov	r4, r0
 1161 0004 0D46     		mov	r5, r1
 1162              		.loc 1 414 0
 1163 0006 FFF7FEFF 		bl	chDbgCheckClassI
 1164              	.LVL107:
 1165              		.loc 1 415 0
 1166 000a DCB1     		cbz	r4, .L87
 1167              		.loc 1 415 0 is_stmt 0 discriminator 2
 1168 000c D5B1     		cbz	r5, .L87
 1169              	.L88:
 1170              	.LVL108:
 1171              	.LBB180:
 1172              	.LBB181:
 1173              		.loc 4 151 0 is_stmt 1
 1174 000e FFF7FEFF 		bl	chDbgCheckClassI
 1175              	.LVL109:
 1176              	.LBE181:
 1177              	.LBE180:
 1178              		.loc 1 417 0
 1179 0012 A369     		ldr	r3, [r4, #24]
 1180 0014 002B     		cmp	r3, #0
 1181 0016 19DD     		ble	.L91
 1182              	.LVL110:
 1183              	.LBB182:
 1184              	.LBB183:
 1185              		.loc 4 120 0
 1186 0018 FFF7FEFF 		bl	chDbgCheckClassI
 1187              	.LVL111:
 1188              		.loc 4 122 0
 1189 001c A269     		ldr	r2, [r4, #24]
 1190              	.LBE183:
 1191              	.LBE182:
 1192              		.loc 1 421 0
ARM GAS  C:\Users\jo\AppData\Local\Temp\ccsBQzJD.s 			page 22


 1193 001e E368     		ldr	r3, [r4, #12]
 1194              		.loc 1 422 0
 1195 0020 6168     		ldr	r1, [r4, #4]
 1196              	.LBB185:
 1197              	.LBB184:
 1198              		.loc 4 122 0
 1199 0022 013A     		subs	r2, r2, #1
 1200 0024 A261     		str	r2, [r4, #24]
 1201              	.LBE184:
 1202              	.LBE185:
 1203              		.loc 1 421 0
 1204 0026 1A68     		ldr	r2, [r3]
 1205 0028 0433     		adds	r3, r3, #4
 1206              		.loc 1 422 0
 1207 002a 8B42     		cmp	r3, r1
 1208              		.loc 1 421 0
 1209 002c E360     		str	r3, [r4, #12]
 1210              		.loc 1 423 0
 1211 002e 28BF     		it	cs
 1212 0030 2368     		ldrcs	r3, [r4]
 1213              		.loc 1 421 0
 1214 0032 2A60     		str	r2, [r5]
 1215              		.loc 1 425 0
 1216 0034 04F11C00 		add	r0, r4, #28
 1217              		.loc 1 423 0
 1218 0038 28BF     		it	cs
 1219 003a E360     		strcs	r3, [r4, #12]
 1220              		.loc 1 425 0
 1221 003c FFF7FEFF 		bl	chSemSignalI
 1222              	.LVL112:
 1223              		.loc 1 427 0
 1224 0040 0020     		movs	r0, #0
 1225 0042 38BD     		pop	{r3, r4, r5, pc}
 1226              	.LVL113:
 1227              	.L87:
 1228              		.loc 1 415 0 discriminator 3
 1229 0044 0348     		ldr	r0, .L96
 1230 0046 FFF7FEFF 		bl	chSysHalt
 1231              	.LVL114:
 1232 004a E0E7     		b	.L88
 1233              	.LVL115:
 1234              	.L91:
 1235              		.loc 1 418 0
 1236 004c 4FF0FF30 		mov	r0, #-1
 1237              		.loc 1 428 0
 1238 0050 38BD     		pop	{r3, r4, r5, pc}
 1239              	.LVL116:
 1240              	.L97:
 1241 0052 00BF     		.align	2
 1242              	.L96:
 1243 0054 00000000 		.word	.LANCHOR8
 1244              		.cfi_endproc
 1245              	.LFE237:
 1246              		.size	chMBFetchI, .-chMBFetchI
 1247 0058 AFF30080 		.section	.rodata.__func__.7493,"a",%progbits
 1247      AFF30080 
 1248              		.align	2
ARM GAS  C:\Users\jo\AppData\Local\Temp\ccsBQzJD.s 			page 23


 1249              		.set	.LANCHOR7,. + 0
 1250              		.type	__func__.7493, %object
 1251              		.size	__func__.7493, 11
 1252              	__func__.7493:
 1253 0000 63684D42 		.ascii	"chMBFetchS\000"
 1253      46657463 
 1253      685300
 1254 000b 00       		.section	.rodata.__func__.7437,"a",%progbits
 1255              		.align	2
 1256              		.set	.LANCHOR0,. + 0
 1257              		.type	__func__.7437, %object
 1258              		.size	__func__.7437, 15
 1259              	__func__.7437:
 1260 0000 63684D42 		.ascii	"chMBObjectInit\000"
 1260      4F626A65 
 1260      6374496E 
 1260      697400
 1261 000f 00       		.section	.rodata.__func__.7444,"a",%progbits
 1262              		.align	2
 1263              		.set	.LANCHOR1,. + 0
 1264              		.type	__func__.7444, %object
 1265              		.size	__func__.7444, 11
 1266              	__func__.7444:
 1267 0000 63684D42 		.ascii	"chMBResetI\000"
 1267      52657365 
 1267      744900
 1268 000b 00       		.section	.rodata.str1.4,"aMS",%progbits,1
 1269              		.align	2
 1270              	.LC0:
 1271 0000 7072696F 		.ascii	"priority violation, missing reschedule\000"
 1271      72697479 
 1271      2076696F 
 1271      6C617469 
 1271      6F6E2C20 
 1272 0027 00       		.section	.rodata.__func__.7480,"a",%progbits
 1273              		.align	2
 1274              		.set	.LANCHOR6,. + 0
 1275              		.type	__func__.7480, %object
 1276              		.size	__func__.7480, 15
 1277              	__func__.7480:
 1278 0000 63684D42 		.ascii	"chMBPostAheadI\000"
 1278      506F7374 
 1278      41686561 
 1278      644900
 1279 000f 00       		.section	.rodata.__func__.7498,"a",%progbits
 1280              		.align	2
 1281              		.set	.LANCHOR8,. + 0
 1282              		.type	__func__.7498, %object
 1283              		.size	__func__.7498, 11
 1284              	__func__.7498:
 1285 0000 63684D42 		.ascii	"chMBFetchI\000"
 1285      46657463 
 1285      684900
 1286 000b 00       		.section	.rodata.__func__.6751,"a",%progbits
 1287              		.align	2
 1288              		.set	.LANCHOR2,. + 0
 1289              		.type	__func__.6751, %object
ARM GAS  C:\Users\jo\AppData\Local\Temp\ccsBQzJD.s 			page 24


 1290              		.size	__func__.6751, 12
 1291              	__func__.6751:
 1292 0000 63685379 		.ascii	"chSysUnlock\000"
 1292      73556E6C 
 1292      6F636B00 
 1293              		.section	.rodata.__func__.7475,"a",%progbits
 1294              		.align	2
 1295              		.set	.LANCHOR5,. + 0
 1296              		.type	__func__.7475, %object
 1297              		.size	__func__.7475, 15
 1298              	__func__.7475:
 1299 0000 63684D42 		.ascii	"chMBPostAheadS\000"
 1299      506F7374 
 1299      41686561 
 1299      645300
 1300 000f 00       		.section	.rodata.__func__.7462,"a",%progbits
 1301              		.align	2
 1302              		.set	.LANCHOR4,. + 0
 1303              		.type	__func__.7462, %object
 1304              		.size	__func__.7462, 10
 1305              	__func__.7462:
 1306 0000 63684D42 		.ascii	"chMBPostI\000"
 1306      506F7374 
 1306      4900
 1307 000a 0000     		.section	.rodata.__func__.7457,"a",%progbits
 1308              		.align	2
 1309              		.set	.LANCHOR3,. + 0
 1310              		.type	__func__.7457, %object
 1311              		.size	__func__.7457, 10
 1312              	__func__.7457:
 1313 0000 63684D42 		.ascii	"chMBPostS\000"
 1313      506F7374 
 1313      5300
 1314 000a 0000     		.text
 1315              	.Letext0:
 1316              		.file 5 "c:\\program files\\gnu tools arm embedded\\4.9 2014q4\\arm-none-eabi\\include\\machine\\_
 1317              		.file 6 "c:\\program files\\gnu tools arm embedded\\4.9 2014q4\\arm-none-eabi\\include\\stdint.h"
 1318              		.file 7 "../../../os/rt/ports/ARMCMx/compilers/GCC/chtypes.h"
 1319              		.file 8 "../../../os/rt/include/chsystypes.h"
 1320              		.file 9 "../../../os/rt/include/chschd.h"
 1321              		.file 10 "../../../os/rt/ports/ARMCMx/chcore.h"
 1322              		.file 11 "../../../os/rt/ports/ARMCMx/chcore_v7m.h"
 1323              		.file 12 "../../../os/rt/include/chdebug.h"
 1324              		.file 13 "../../../os/rt/include/chtm.h"
 1325              		.file 14 "../../../os/rt/include/chstats.h"
 1326              		.file 15 "../../../os/rt/include/chmtx.h"
 1327              		.file 16 "../../../os/rt/include/chmboxes.h"
 1328              		.file 17 "../../../os/ext/CMSIS/include/core_cm4.h"
 1329              		.file 18 "<built-in>"