ARM GAS  C:\Users\jo\AppData\Local\Temp\ccz0dpyn.s 			page 1


   1              		.syntax unified
   2              		.cpu cortex-m4
   3              		.fpu softvfp
   4              		.eabi_attribute 20, 1
   5              		.eabi_attribute 21, 1
   6              		.eabi_attribute 23, 3
   7              		.eabi_attribute 24, 1
   8              		.eabi_attribute 25, 1
   9              		.eabi_attribute 26, 1
  10              		.eabi_attribute 30, 2
  11              		.eabi_attribute 34, 1
  12              		.eabi_attribute 18, 4
  13              		.thumb
  14              		.file	"chmemcore.c"
  15              		.text
  16              	.Ltext0:
  17              		.cfi_sections	.debug_frame
  18              		.section	.text._core_init,"ax",%progbits
  19              		.align	2
  20              		.p2align 4,,15
  21              		.global	_core_init
  22              		.thumb
  23              		.thumb_func
  24              		.type	_core_init, %function
  25              	_core_init:
  26              	.LFB226:
  27              		.file 1 "../../../os/rt/src/chmemcore.c"
  28              		.loc 1 78 0
  29              		.cfi_startproc
  30              		@ args = 0, pretend = 0, frame = 0
  31              		@ frame_needed = 0, uses_anonymous_args = 0
  32              		@ link register save eliminated.
  33              		.loc 1 83 0
  34 0000 054A     		ldr	r2, .L2
  35              		.loc 1 84 0
  36 0002 064B     		ldr	r3, .L2+4
  37              		.loc 1 83 0
  38 0004 0648     		ldr	r0, .L2+8
  39              		.loc 1 84 0
  40 0006 0749     		ldr	r1, .L2+12
  41              		.loc 1 83 0
  42 0008 22F00702 		bic	r2, r2, #7
  43              		.loc 1 84 0
  44 000c 23F00703 		bic	r3, r3, #7
  45              		.loc 1 83 0
  46 0010 0260     		str	r2, [r0]
  47              		.loc 1 84 0
  48 0012 0B60     		str	r3, [r1]
  49 0014 7047     		bx	lr
  50              	.L3:
  51 0016 00BF     		.align	2
  52              	.L2:
  53 0018 07000000 		.word	__heap_base__+7
  54 001c 00000000 		.word	__heap_end__
  55 0020 00000000 		.word	.LANCHOR0
  56 0024 00000000 		.word	.LANCHOR1
  57              		.cfi_endproc
ARM GAS  C:\Users\jo\AppData\Local\Temp\ccz0dpyn.s 			page 2


  58              	.LFE226:
  59              		.size	_core_init, .-_core_init
  60 0028 AFF30080 		.section	.text.chCoreAllocI,"ax",%progbits
  60      AFF30080 
  61              		.align	2
  62              		.p2align 4,,15
  63              		.global	chCoreAllocI
  64              		.thumb
  65              		.thumb_func
  66              		.type	chCoreAllocI, %function
  67              	chCoreAllocI:
  68              	.LFB228:
  69              		.loc 1 127 0
  70              		.cfi_startproc
  71              		@ args = 0, pretend = 0, frame = 0
  72              		@ frame_needed = 0, uses_anonymous_args = 0
  73              	.LVL0:
  74 0000 10B5     		push	{r4, lr}
  75              		.cfi_def_cfa_offset 8
  76              		.cfi_offset 4, -8
  77              		.cfi_offset 14, -4
  78              		.loc 1 127 0
  79 0002 0446     		mov	r4, r0
  80              		.loc 1 130 0
  81 0004 FFF7FEFF 		bl	chDbgCheckClassI
  82              	.LVL1:
  83              		.loc 1 133 0
  84 0008 0649     		ldr	r1, .L8
  85 000a 074B     		ldr	r3, .L8+4
  86 000c 0868     		ldr	r0, [r1]
  87 000e 1A68     		ldr	r2, [r3]
  88              		.loc 1 132 0
  89 0010 E31D     		adds	r3, r4, #7
  90 0012 23F00703 		bic	r3, r3, #7
  91              	.LVL2:
  92              		.loc 1 133 0
  93 0016 121A     		subs	r2, r2, r0
  94 0018 9342     		cmp	r3, r2
  95              	.LVL3:
  96              		.loc 1 137 0
  97 001a 9ABF     		itte	ls
  98 001c 1B18     		addls	r3, r3, r0
  99              	.LVL4:
 100 001e 0B60     		strls	r3, [r1]
 101              		.loc 1 134 0
 102 0020 0020     		movhi	r0, #0
 103              	.LVL5:
 104              		.loc 1 140 0
 105 0022 10BD     		pop	{r4, pc}
 106              	.LVL6:
 107              	.L9:
 108              		.align	2
 109              	.L8:
 110 0024 00000000 		.word	.LANCHOR0
 111 0028 00000000 		.word	.LANCHOR1
 112              		.cfi_endproc
 113              	.LFE228:
ARM GAS  C:\Users\jo\AppData\Local\Temp\ccz0dpyn.s 			page 3


 114              		.size	chCoreAllocI, .-chCoreAllocI
 115 002c AFF30080 		.section	.text.chCoreAlloc,"ax",%progbits
 116              		.align	2
 117              		.p2align 4,,15
 118              		.global	chCoreAlloc
 119              		.thumb
 120              		.thumb_func
 121              		.type	chCoreAlloc, %function
 122              	chCoreAlloc:
 123              	.LFB227:
 124              		.loc 1 105 0
 125              		.cfi_startproc
 126              		@ args = 0, pretend = 0, frame = 0
 127              		@ frame_needed = 0, uses_anonymous_args = 0
 128              	.LVL7:
 129 0000 10B5     		push	{r4, lr}
 130              		.cfi_def_cfa_offset 8
 131              		.cfi_offset 4, -8
 132              		.cfi_offset 14, -4
 133              	.LBB29:
 134              	.LBB30:
 135              	.LBB31:
 136              	.LBB32:
 137              	.LBB33:
 138              		.file 2 "../../../os/ext/CMSIS/include/core_cmFunc.h"
 139              		.loc 2 546 0
 140 0002 2023     		movs	r3, #32
 141              	.LBE33:
 142              	.LBE32:
 143              	.LBE31:
 144              	.LBE30:
 145              	.LBE29:
 146              		.loc 1 105 0
 147 0004 0446     		mov	r4, r0
 148              	.LBB38:
 149              	.LBB37:
 150              	.LBB36:
 151              	.LBB35:
 152              	.LBB34:
 153              		.loc 2 546 0
 154              	@ 546 "../../../os/ext/CMSIS/include/core_cmFunc.h" 1
 155 0006 83F31188 		MSR basepri, r3
 156              	@ 0 "" 2
 157              		.thumb
 158              	.LBE34:
 159              	.LBE35:
 160              	.LBE36:
 161              		.file 3 "../../../os/rt/include/chsys.h"
 162              		.loc 3 300 0
 163 000a FFF7FEFF 		bl	_stats_start_measure_crit_thd
 164              	.LVL8:
 165              		.loc 3 301 0
 166 000e FFF7FEFF 		bl	_dbg_check_lock
 167              	.LVL9:
 168              	.LBE37:
 169              	.LBE38:
 170              		.loc 1 109 0
ARM GAS  C:\Users\jo\AppData\Local\Temp\ccz0dpyn.s 			page 4


 171 0012 2046     		mov	r0, r4
 172 0014 FFF7FEFF 		bl	chCoreAllocI
 173              	.LVL10:
 174 0018 0446     		mov	r4, r0
 175              	.LVL11:
 176              	.LBB39:
 177              	.LBB40:
 178              		.loc 3 311 0
 179 001a FFF7FEFF 		bl	_dbg_check_unlock
 180              	.LVL12:
 181              		.loc 3 312 0
 182 001e FFF7FEFF 		bl	_stats_stop_measure_crit_thd
 183              	.LVL13:
 184              		.loc 3 318 0
 185 0022 094B     		ldr	r3, .L14
 186 0024 9A69     		ldr	r2, [r3, #24]
 187 0026 1B68     		ldr	r3, [r3]
 188 0028 9268     		ldr	r2, [r2, #8]
 189 002a 9B68     		ldr	r3, [r3, #8]
 190 002c 9A42     		cmp	r2, r3
 191 002e 06D2     		bcs	.L11
 192 0030 0648     		ldr	r0, .L14+4
 193 0032 FFF7FEFF 		bl	puts
 194              	.LVL14:
 195              	@ 318 "../../../os/rt/include/chsys.h" 1
 196 0036 00BE     		BKPT #0
 197              	
 198              	@ 0 "" 2
 199              		.thumb
 200 0038 0548     		ldr	r0, .L14+8
 201 003a FFF7FEFF 		bl	chSysHalt
 202              	.LVL15:
 203              	.L11:
 204              	.LBB41:
 205              	.LBB42:
 206              	.LBB43:
 207              		.loc 2 546 0
 208 003e 0023     		movs	r3, #0
 209              	@ 546 "../../../os/ext/CMSIS/include/core_cmFunc.h" 1
 210 0040 83F31188 		MSR basepri, r3
 211              	@ 0 "" 2
 212              		.thumb
 213              	.LBE43:
 214              	.LBE42:
 215              	.LBE41:
 216              	.LBE40:
 217              	.LBE39:
 218              		.loc 1 113 0
 219 0044 2046     		mov	r0, r4
 220 0046 10BD     		pop	{r4, pc}
 221              	.LVL16:
 222              	.L15:
 223              		.align	2
 224              	.L14:
 225 0048 00000000 		.word	ch
 226 004c 00000000 		.word	.LC0
 227 0050 00000000 		.word	.LANCHOR2
ARM GAS  C:\Users\jo\AppData\Local\Temp\ccz0dpyn.s 			page 5


 228              		.cfi_endproc
 229              	.LFE227:
 230              		.size	chCoreAlloc, .-chCoreAlloc
 231 0054 AFF30080 		.section	.text.chCoreGetStatusX,"ax",%progbits
 231      AFF30080 
 231      AFF30080 
 232              		.align	2
 233              		.p2align 4,,15
 234              		.global	chCoreGetStatusX
 235              		.thumb
 236              		.thumb_func
 237              		.type	chCoreGetStatusX, %function
 238              	chCoreGetStatusX:
 239              	.LFB229:
 240              		.loc 1 149 0
 241              		.cfi_startproc
 242              		@ args = 0, pretend = 0, frame = 0
 243              		@ frame_needed = 0, uses_anonymous_args = 0
 244              		@ link register save eliminated.
 245              		.loc 1 151 0
 246 0000 024A     		ldr	r2, .L17
 247 0002 034B     		ldr	r3, .L17+4
 248 0004 1068     		ldr	r0, [r2]
 249 0006 1B68     		ldr	r3, [r3]
 250              		.loc 1 152 0
 251 0008 C01A     		subs	r0, r0, r3
 252 000a 7047     		bx	lr
 253              	.L18:
 254              		.align	2
 255              	.L17:
 256 000c 00000000 		.word	.LANCHOR1
 257 0010 00000000 		.word	.LANCHOR0
 258              		.cfi_endproc
 259              	.LFE229:
 260              		.size	chCoreGetStatusX, .-chCoreGetStatusX
 261 0014 AFF30080 		.section	.bss.endmem,"aw",%nobits
 261      AFF30080 
 261      AFF30080 
 262              		.align	2
 263              		.set	.LANCHOR1,. + 0
 264              		.type	endmem, %object
 265              		.size	endmem, 4
 266              	endmem:
 267 0000 00000000 		.space	4
 268              		.section	.rodata.str1.4,"aMS",%progbits,1
 269              		.align	2
 270              	.LC0:
 271 0000 7072696F 		.ascii	"priority violation, missing reschedule\000"
 271      72697479 
 271      2076696F 
 271      6C617469 
 271      6F6E2C20 
 272 0027 00       		.section	.bss.nextmem,"aw",%nobits
 273              		.align	2
 274              		.set	.LANCHOR0,. + 0
 275              		.type	nextmem, %object
 276              		.size	nextmem, 4
ARM GAS  C:\Users\jo\AppData\Local\Temp\ccz0dpyn.s 			page 6


 277              	nextmem:
 278 0000 00000000 		.space	4
 279              		.section	.rodata.__func__.6751,"a",%progbits
 280              		.align	2
 281              		.set	.LANCHOR2,. + 0
 282              		.type	__func__.6751, %object
 283              		.size	__func__.6751, 12
 284              	__func__.6751:
 285 0000 63685379 		.ascii	"chSysUnlock\000"
 285      73556E6C 
 285      6F636B00 
 286              		.text
 287              	.Letext0:
 288              		.file 4 "c:\\program files\\gnu tools arm embedded\\4.9 2014q4\\lib\\gcc\\arm-none-eabi\\4.9.3\\in
 289              		.file 5 "c:\\program files\\gnu tools arm embedded\\4.9 2014q4\\arm-none-eabi\\include\\machine\\_
 290              		.file 6 "c:\\program files\\gnu tools arm embedded\\4.9 2014q4\\arm-none-eabi\\include\\stdint.h"
 291              		.file 7 "../../../os/rt/ports/ARMCMx/compilers/GCC/chtypes.h"
 292              		.file 8 "../../../os/rt/include/chsystypes.h"
 293              		.file 9 "../../../os/rt/include/chschd.h"
 294              		.file 10 "../../../os/rt/ports/ARMCMx/chcore.h"
 295              		.file 11 "../../../os/rt/ports/ARMCMx/chcore_v7m.h"
 296              		.file 12 "../../../os/rt/include/chdebug.h"
 297              		.file 13 "../../../os/rt/include/chtm.h"
 298              		.file 14 "../../../os/rt/include/chstats.h"
 299              		.file 15 "../../../os/rt/include/chmtx.h"
 300              		.file 16 "../../../os/ext/CMSIS/include/core_cm4.h"
 301              		.file 17 "<built-in>"