ARM GAS  C:\Users\jo\AppData\Local\Temp\cceZtr7h.s 			page 1


   1              		.syntax unified
   2              		.cpu cortex-m4
   3              		.fpu softvfp
   4              		.eabi_attribute 20, 1
   5              		.eabi_attribute 21, 1
   6              		.eabi_attribute 23, 3
   7              		.eabi_attribute 24, 1
   8              		.eabi_attribute 25, 1
   9              		.eabi_attribute 26, 1
  10              		.eabi_attribute 30, 2
  11              		.eabi_attribute 34, 1
  12              		.eabi_attribute 18, 4
  13              		.thumb
  14              		.file	"chmtx.c"
  15              		.text
  16              	.Ltext0:
  17              		.cfi_sections	.debug_frame
  18              		.section	.text.chMtxObjectInit,"ax",%progbits
  19              		.align	2
  20              		.p2align 4,,15
  21              		.global	chMtxObjectInit
  22              		.thumb
  23              		.thumb_func
  24              		.type	chMtxObjectInit, %function
  25              	chMtxObjectInit:
  26              	.LFB226:
  27              		.file 1 "../../../os/rt/src/chmtx.c"
  28              		.loc 1 103 0
  29              		.cfi_startproc
  30              		@ args = 0, pretend = 0, frame = 0
  31              		@ frame_needed = 0, uses_anonymous_args = 0
  32              	.LVL0:
  33 0000 10B5     		push	{r4, lr}
  34              		.cfi_def_cfa_offset 8
  35              		.cfi_offset 4, -8
  36              		.cfi_offset 14, -4
  37              		.loc 1 105 0
  38 0002 0446     		mov	r4, r0
  39 0004 20B1     		cbz	r0, .L5
  40              	.LVL1:
  41              	.L2:
  42              		.loc 1 108 0
  43 0006 0023     		movs	r3, #0
  44              	.LBB81:
  45              	.LBB82:
  46              		.file 2 "../../../os/rt/include/chschd.h"
  47              		.loc 2 574 0
  48 0008 6460     		str	r4, [r4, #4]
  49 000a 2460     		str	r4, [r4]
  50              	.LBE82:
  51              	.LBE81:
  52              		.loc 1 108 0
  53 000c A360     		str	r3, [r4, #8]
  54 000e 10BD     		pop	{r4, pc}
  55              	.LVL2:
  56              	.L5:
  57              		.loc 1 105 0 discriminator 1
ARM GAS  C:\Users\jo\AppData\Local\Temp\cceZtr7h.s 			page 2


  58 0010 0148     		ldr	r0, .L6
  59              	.LVL3:
  60 0012 FFF7FEFF 		bl	chSysHalt
  61              	.LVL4:
  62 0016 F6E7     		b	.L2
  63              	.L7:
  64              		.align	2
  65              	.L6:
  66 0018 00000000 		.word	.LANCHOR0
  67              		.cfi_endproc
  68              	.LFE226:
  69              		.size	chMtxObjectInit, .-chMtxObjectInit
  70 001c AFF30080 		.section	.text.chMtxLockS,"ax",%progbits
  71              		.align	2
  72              		.p2align 4,,15
  73              		.global	chMtxLockS
  74              		.thumb
  75              		.thumb_func
  76              		.type	chMtxLockS, %function
  77              	chMtxLockS:
  78              	.LFB228:
  79              		.loc 1 139 0
  80              		.cfi_startproc
  81              		@ args = 0, pretend = 0, frame = 0
  82              		@ frame_needed = 0, uses_anonymous_args = 0
  83              	.LVL5:
  84              		.loc 1 140 0
  85 0000 3F4B     		ldr	r3, .L38
  86              		.loc 1 139 0
  87 0002 70B5     		push	{r4, r5, r6, lr}
  88              		.cfi_def_cfa_offset 16
  89              		.cfi_offset 4, -16
  90              		.cfi_offset 5, -12
  91              		.cfi_offset 6, -8
  92              		.cfi_offset 14, -4
  93              		.loc 1 139 0
  94 0004 0546     		mov	r5, r0
  95              		.loc 1 140 0
  96 0006 9C69     		ldr	r4, [r3, #24]
  97              	.LVL6:
  98              		.loc 1 142 0
  99 0008 FFF7FEFF 		bl	chDbgCheckClassS
 100              	.LVL7:
 101              		.loc 1 143 0
 102 000c 002D     		cmp	r5, #0
 103 000e 73D0     		beq	.L36
 104              	.L9:
 105              		.loc 1 146 0
 106 0010 A868     		ldr	r0, [r5, #8]
 107 0012 0028     		cmp	r0, #0
 108 0014 3ED0     		beq	.L10
 109              	.LVL8:
 110              	.LBB83:
 111              		.loc 1 165 0
 112 0016 A268     		ldr	r2, [r4, #8]
 113 0018 8368     		ldr	r3, [r0, #8]
 114 001a 9A42     		cmp	r2, r3
ARM GAS  C:\Users\jo\AppData\Local\Temp\cceZtr7h.s 			page 3


 115 001c 07D9     		bls	.L12
 116              	.L17:
 117              		.loc 1 170 0
 118 001e 90F82030 		ldrb	r3, [r0, #32]	@ zero_extendqisi2
 119              		.loc 1 167 0
 120 0022 8260     		str	r2, [r0, #8]
 121              		.loc 1 170 0
 122 0024 062B     		cmp	r3, #6
 123 0026 4ED0     		beq	.L13
 124 0028 072B     		cmp	r3, #7
 125 002a 38D0     		beq	.L14
 126 002c 3BB3     		cbz	r3, .L37
 127              	.LVL9:
 128              	.L12:
 129              	.LBB84:
 130              	.LBB85:
 131              		.loc 2 622 0
 132 002e 2B46     		mov	r3, r5
 133 0030 03E0     		b	.L27
 134              	.LVL10:
 135              	.L24:
 136              		.loc 2 625 0
 137 0032 9968     		ldr	r1, [r3, #8]
 138 0034 A268     		ldr	r2, [r4, #8]
 139 0036 9142     		cmp	r1, r2
 140 0038 02D3     		bcc	.L28
 141              	.L27:
 142              		.loc 2 624 0
 143 003a 1B68     		ldr	r3, [r3]
 144              	.LVL11:
 145              		.loc 2 625 0
 146 003c 9D42     		cmp	r5, r3
 147 003e F8D1     		bne	.L24
 148              	.L28:
 149              		.loc 2 627 0
 150 0040 5A68     		ldr	r2, [r3, #4]
 151 0042 6260     		str	r2, [r4, #4]
 152              		.loc 2 626 0
 153 0044 2360     		str	r3, [r4]
 154              	.LBE85:
 155              	.LBE84:
 156              		.loc 1 209 0
 157 0046 0620     		movs	r0, #6
 158              	.LBB87:
 159              	.LBB86:
 160              		.loc 2 628 0
 161 0048 5C60     		str	r4, [r3, #4]
 162 004a 1460     		str	r4, [r2]
 163              	.LBE86:
 164              	.LBE87:
 165              		.loc 1 208 0
 166 004c 6562     		str	r5, [r4, #36]
 167              		.loc 1 209 0
 168 004e FFF7FEFF 		bl	chSchGoSleepS
 169              	.LVL12:
 170              		.loc 1 213 0
 171 0052 AB68     		ldr	r3, [r5, #8]
ARM GAS  C:\Users\jo\AppData\Local\Temp\cceZtr7h.s 			page 4


 172 0054 A342     		cmp	r3, r4
 173 0056 06D0     		beq	.L26
 174              		.loc 1 213 0 is_stmt 0 discriminator 1
 175 0058 2A48     		ldr	r0, .L38+4
 176 005a FFF7FEFF 		bl	puts
 177              	.LVL13:
 178              	@ 213 "../../../os/rt/src/chmtx.c" 1
 179 005e 00BE     		BKPT #0
 180              	
 181              	@ 0 "" 2
 182              		.thumb
 183 0060 2948     		ldr	r0, .L38+8
 184 0062 FFF7FEFF 		bl	chSysHalt
 185              	.LVL14:
 186              	.L26:
 187              		.loc 1 214 0 is_stmt 1
 188 0066 E36B     		ldr	r3, [r4, #60]
 189 0068 AB42     		cmp	r3, r5
 190 006a 17D0     		beq	.L8
 191              		.loc 1 214 0 is_stmt 0 discriminator 1
 192 006c 2748     		ldr	r0, .L38+12
 193 006e FFF7FEFF 		bl	puts
 194              	.LVL15:
 195              	@ 214 "../../../os/rt/src/chmtx.c" 1
 196 0072 00BE     		BKPT #0
 197              	
 198              	@ 0 "" 2
 199              		.thumb
 200 0074 2448     		ldr	r0, .L38+8
 201              	.LBE83:
 202              		.loc 1 231 0 is_stmt 1 discriminator 1
 203 0076 BDE87040 		pop	{r4, r5, r6, lr}
 204              		.cfi_remember_state
 205              		.cfi_restore 14
 206              		.cfi_restore 6
 207              		.cfi_restore 5
 208              		.cfi_restore 4
 209              		.cfi_def_cfa_offset 0
 210              	.LVL16:
 211              	.LBB104:
 212              		.loc 1 214 0 discriminator 1
 213 007a FFF7FEBF 		b	chSysHalt
 214              	.LVL17:
 215              	.L37:
 216              		.cfi_restore_state
 217              	.LBB88:
 218              	.LBB89:
 219              		.loc 2 656 0
 220 007e 90E80C00 		ldmia	r0, {r2, r3}
 221              	.LBE89:
 222              	.LBE88:
 223              		.loc 1 197 0
 224 0082 0121     		movs	r1, #1
 225 0084 80F82010 		strb	r1, [r0, #32]
 226              	.LVL18:
 227              	.LBB91:
 228              	.LBB90:
ARM GAS  C:\Users\jo\AppData\Local\Temp\cceZtr7h.s 			page 5


 229              		.loc 2 656 0
 230 0088 1A60     		str	r2, [r3]
 231              		.loc 2 657 0
 232 008a 0268     		ldr	r2, [r0]
 233 008c 5360     		str	r3, [r2, #4]
 234              	.LBE90:
 235              	.LBE91:
 236              		.loc 1 200 0
 237 008e FFF7FEFF 		bl	chSchReadyI
 238              	.LVL19:
 239              		.loc 1 201 0
 240 0092 CCE7     		b	.L12
 241              	.L10:
 242              	.LBE104:
 243              		.loc 1 228 0
 244 0094 E36B     		ldr	r3, [r4, #60]
 245 0096 EB60     		str	r3, [r5, #12]
 246              		.loc 1 227 0
 247 0098 AC60     		str	r4, [r5, #8]
 248              		.loc 1 229 0
 249 009a E563     		str	r5, [r4, #60]
 250              	.L8:
 251 009c 70BD     		pop	{r4, r5, r6, pc}
 252              	.LVL20:
 253              	.L14:
 254              	.LBB105:
 255              	.LBB92:
 256              	.LBB93:
 257              		.loc 2 656 0
 258 009e 90E80A00 		ldmia	r0, {r1, r3}
 259 00a2 1960     		str	r1, [r3]
 260              	.LBE93:
 261              	.LBE92:
 262              		.loc 1 191 0
 263 00a4 466A     		ldr	r6, [r0, #36]
 264              	.LVL21:
 265              	.LBB95:
 266              	.LBB94:
 267              		.loc 2 657 0
 268 00a6 0168     		ldr	r1, [r0]
 269 00a8 4B60     		str	r3, [r1, #4]
 270              	.LBE94:
 271              	.LBE95:
 272              	.LBB96:
 273              	.LBB97:
 274              		.loc 2 622 0
 275 00aa 3346     		mov	r3, r6
 276 00ac 02E0     		b	.L22
 277              	.LVL22:
 278              	.L21:
 279              		.loc 2 625 0
 280 00ae 9968     		ldr	r1, [r3, #8]
 281 00b0 9142     		cmp	r1, r2
 282 00b2 02D3     		bcc	.L23
 283              	.L22:
 284              		.loc 2 624 0
 285 00b4 1B68     		ldr	r3, [r3]
ARM GAS  C:\Users\jo\AppData\Local\Temp\cceZtr7h.s 			page 6


 286              	.LVL23:
 287              		.loc 2 625 0
 288 00b6 9E42     		cmp	r6, r3
 289 00b8 F9D1     		bne	.L21
 290              	.L23:
 291              		.loc 2 627 0
 292 00ba 5A68     		ldr	r2, [r3, #4]
 293 00bc 4260     		str	r2, [r0, #4]
 294              		.loc 2 626 0
 295 00be 0360     		str	r3, [r0]
 296              		.loc 2 628 0
 297 00c0 5860     		str	r0, [r3, #4]
 298 00c2 1060     		str	r0, [r2]
 299 00c4 B3E7     		b	.L12
 300              	.LVL24:
 301              	.L13:
 302              	.LBE97:
 303              	.LBE96:
 304              	.LBB98:
 305              	.LBB99:
 306              		.loc 2 656 0
 307 00c6 90E80A00 		ldmia	r0, {r1, r3}
 308 00ca 1960     		str	r1, [r3]
 309              	.LBE99:
 310              	.LBE98:
 311              		.loc 1 174 0
 312 00cc 466A     		ldr	r6, [r0, #36]
 313              	.LVL25:
 314              	.LBB101:
 315              	.LBB100:
 316              		.loc 2 657 0
 317 00ce 0168     		ldr	r1, [r0]
 318 00d0 4B60     		str	r3, [r1, #4]
 319              	.LBE100:
 320              	.LBE101:
 321              		.loc 1 174 0
 322 00d2 3346     		mov	r3, r6
 323 00d4 02E0     		b	.L19
 324              	.LVL26:
 325              	.L16:
 326              	.LBB102:
 327              	.LBB103:
 328              		.loc 2 625 0
 329 00d6 9968     		ldr	r1, [r3, #8]
 330 00d8 9142     		cmp	r1, r2
 331 00da 02D3     		bcc	.L20
 332              	.L19:
 333              		.loc 2 624 0
 334 00dc 1B68     		ldr	r3, [r3]
 335              	.LVL27:
 336              		.loc 2 625 0
 337 00de 9E42     		cmp	r6, r3
 338 00e0 F9D1     		bne	.L16
 339              	.L20:
 340              		.loc 2 627 0
 341 00e2 5A68     		ldr	r2, [r3, #4]
 342 00e4 4260     		str	r2, [r0, #4]
ARM GAS  C:\Users\jo\AppData\Local\Temp\cceZtr7h.s 			page 7


 343              		.loc 2 626 0
 344 00e6 0360     		str	r3, [r0]
 345              		.loc 2 628 0
 346 00e8 5860     		str	r0, [r3, #4]
 347 00ea 1060     		str	r0, [r2]
 348              	.LBE103:
 349              	.LBE102:
 350              		.loc 1 175 0
 351 00ec B068     		ldr	r0, [r6, #8]
 352              	.LVL28:
 353              		.loc 1 165 0
 354 00ee A268     		ldr	r2, [r4, #8]
 355 00f0 8368     		ldr	r3, [r0, #8]
 356              	.LVL29:
 357 00f2 9342     		cmp	r3, r2
 358 00f4 93D3     		bcc	.L17
 359 00f6 9AE7     		b	.L12
 360              	.LVL30:
 361              	.L36:
 362              	.LBE105:
 363              		.loc 1 143 0 discriminator 1
 364 00f8 0348     		ldr	r0, .L38+8
 365 00fa FFF7FEFF 		bl	chSysHalt
 366              	.LVL31:
 367 00fe 87E7     		b	.L9
 368              	.L39:
 369              		.align	2
 370              	.L38:
 371 0100 00000000 		.word	ch
 372 0104 00000000 		.word	.LC0
 373 0108 00000000 		.word	.LANCHOR1
 374 010c 0C000000 		.word	.LC1
 375              		.cfi_endproc
 376              	.LFE228:
 377              		.size	chMtxLockS, .-chMtxLockS
 378              		.section	.text.chMtxLock,"ax",%progbits
 379              		.align	2
 380              		.p2align 4,,15
 381              		.global	chMtxLock
 382              		.thumb
 383              		.thumb_func
 384              		.type	chMtxLock, %function
 385              	chMtxLock:
 386              	.LFB227:
 387              		.loc 1 123 0
 388              		.cfi_startproc
 389              		@ args = 0, pretend = 0, frame = 0
 390              		@ frame_needed = 0, uses_anonymous_args = 0
 391              	.LVL32:
 392 0000 10B5     		push	{r4, lr}
 393              		.cfi_def_cfa_offset 8
 394              		.cfi_offset 4, -8
 395              		.cfi_offset 14, -4
 396              	.LBB116:
 397              	.LBB117:
 398              	.LBB118:
 399              	.LBB119:
ARM GAS  C:\Users\jo\AppData\Local\Temp\cceZtr7h.s 			page 8


 400              	.LBB120:
 401              		.file 3 "../../../os/ext/CMSIS/include/core_cmFunc.h"
 402              		.loc 3 546 0
 403 0002 2023     		movs	r3, #32
 404              	.LBE120:
 405              	.LBE119:
 406              	.LBE118:
 407              	.LBE117:
 408              	.LBE116:
 409              		.loc 1 123 0
 410 0004 0446     		mov	r4, r0
 411              	.LBB125:
 412              	.LBB124:
 413              	.LBB123:
 414              	.LBB122:
 415              	.LBB121:
 416              		.loc 3 546 0
 417              	@ 546 "../../../os/ext/CMSIS/include/core_cmFunc.h" 1
 418 0006 83F31188 		MSR basepri, r3
 419              	@ 0 "" 2
 420              		.thumb
 421              	.LBE121:
 422              	.LBE122:
 423              	.LBE123:
 424              		.file 4 "../../../os/rt/include/chsys.h"
 425              		.loc 4 300 0
 426 000a FFF7FEFF 		bl	_stats_start_measure_crit_thd
 427              	.LVL33:
 428              		.loc 4 301 0
 429 000e FFF7FEFF 		bl	_dbg_check_lock
 430              	.LVL34:
 431              	.LBE124:
 432              	.LBE125:
 433              		.loc 1 126 0
 434 0012 2046     		mov	r0, r4
 435 0014 FFF7FEFF 		bl	chMtxLockS
 436              	.LVL35:
 437              	.LBB126:
 438              	.LBB127:
 439              		.loc 4 311 0
 440 0018 FFF7FEFF 		bl	_dbg_check_unlock
 441              	.LVL36:
 442              		.loc 4 312 0
 443 001c FFF7FEFF 		bl	_stats_stop_measure_crit_thd
 444              	.LVL37:
 445              		.loc 4 318 0
 446 0020 084B     		ldr	r3, .L43
 447 0022 9A69     		ldr	r2, [r3, #24]
 448 0024 1B68     		ldr	r3, [r3]
 449 0026 9268     		ldr	r2, [r2, #8]
 450 0028 9B68     		ldr	r3, [r3, #8]
 451 002a 9A42     		cmp	r2, r3
 452 002c 06D2     		bcs	.L41
 453 002e 0648     		ldr	r0, .L43+4
 454 0030 FFF7FEFF 		bl	puts
 455              	.LVL38:
 456              	@ 318 "../../../os/rt/include/chsys.h" 1
ARM GAS  C:\Users\jo\AppData\Local\Temp\cceZtr7h.s 			page 9


 457 0034 00BE     		BKPT #0
 458              	
 459              	@ 0 "" 2
 460              		.thumb
 461 0036 0548     		ldr	r0, .L43+8
 462 0038 FFF7FEFF 		bl	chSysHalt
 463              	.LVL39:
 464              	.L41:
 465              	.LBB128:
 466              	.LBB129:
 467              	.LBB130:
 468              		.loc 3 546 0
 469 003c 0023     		movs	r3, #0
 470              	@ 546 "../../../os/ext/CMSIS/include/core_cmFunc.h" 1
 471 003e 83F31188 		MSR basepri, r3
 472              	@ 0 "" 2
 473              		.thumb
 474 0042 10BD     		pop	{r4, pc}
 475              	.LVL40:
 476              	.L44:
 477              		.align	2
 478              	.L43:
 479 0044 00000000 		.word	ch
 480 0048 18000000 		.word	.LC2
 481 004c 00000000 		.word	.LANCHOR2
 482              	.LBE130:
 483              	.LBE129:
 484              	.LBE128:
 485              	.LBE127:
 486              	.LBE126:
 487              		.cfi_endproc
 488              	.LFE227:
 489              		.size	chMtxLock, .-chMtxLock
 490              		.section	.text.chMtxTryLockS,"ax",%progbits
 491              		.align	2
 492              		.p2align 4,,15
 493              		.global	chMtxTryLockS
 494              		.thumb
 495              		.thumb_func
 496              		.type	chMtxTryLockS, %function
 497              	chMtxTryLockS:
 498              	.LFB230:
 499              		.loc 1 277 0
 500              		.cfi_startproc
 501              		@ args = 0, pretend = 0, frame = 0
 502              		@ frame_needed = 0, uses_anonymous_args = 0
 503              	.LVL41:
 504 0000 10B5     		push	{r4, lr}
 505              		.cfi_def_cfa_offset 8
 506              		.cfi_offset 4, -8
 507              		.cfi_offset 14, -4
 508              		.loc 1 277 0
 509 0002 0446     		mov	r4, r0
 510              		.loc 1 279 0
 511 0004 FFF7FEFF 		bl	chDbgCheckClassS
 512              	.LVL42:
 513              		.loc 1 280 0
ARM GAS  C:\Users\jo\AppData\Local\Temp\cceZtr7h.s 			page 10


 514 0008 5CB1     		cbz	r4, .L50
 515              	.L46:
 516              		.loc 1 282 0
 517 000a A368     		ldr	r3, [r4, #8]
 518 000c 0BB1     		cbz	r3, .L51
 519              		.loc 1 292 0
 520 000e 0020     		movs	r0, #0
 521              		.loc 1 304 0
 522 0010 10BD     		pop	{r4, pc}
 523              	.LVL43:
 524              	.L51:
 525              	.LBB133:
 526              	.LBB134:
 527              		.loc 1 300 0
 528 0012 064B     		ldr	r3, .L52
 529 0014 9B69     		ldr	r3, [r3, #24]
 530 0016 A360     		str	r3, [r4, #8]
 531              		.loc 1 301 0
 532 0018 DA6B     		ldr	r2, [r3, #60]
 533 001a E260     		str	r2, [r4, #12]
 534              		.loc 1 302 0
 535 001c 0120     		movs	r0, #1
 536 001e DC63     		str	r4, [r3, #60]
 537 0020 10BD     		pop	{r4, pc}
 538              	.LVL44:
 539              	.L50:
 540              	.LBE134:
 541              	.LBE133:
 542              		.loc 1 280 0 discriminator 1
 543 0022 0348     		ldr	r0, .L52+4
 544 0024 FFF7FEFF 		bl	chSysHalt
 545              	.LVL45:
 546 0028 EFE7     		b	.L46
 547              	.L53:
 548 002a 00BF     		.align	2
 549              	.L52:
 550 002c 00000000 		.word	ch
 551 0030 00000000 		.word	.LANCHOR3
 552              		.cfi_endproc
 553              	.LFE230:
 554              		.size	chMtxTryLockS, .-chMtxTryLockS
 555 0034 AFF30080 		.section	.text.chMtxTryLock,"ax",%progbits
 555      AFF30080 
 555      AFF30080 
 556              		.align	2
 557              		.p2align 4,,15
 558              		.global	chMtxTryLock
 559              		.thumb
 560              		.thumb_func
 561              		.type	chMtxTryLock, %function
 562              	chMtxTryLock:
 563              	.LFB229:
 564              		.loc 1 250 0
 565              		.cfi_startproc
 566              		@ args = 0, pretend = 0, frame = 0
 567              		@ frame_needed = 0, uses_anonymous_args = 0
 568              	.LVL46:
ARM GAS  C:\Users\jo\AppData\Local\Temp\cceZtr7h.s 			page 11


 569 0000 10B5     		push	{r4, lr}
 570              		.cfi_def_cfa_offset 8
 571              		.cfi_offset 4, -8
 572              		.cfi_offset 14, -4
 573              	.LBB145:
 574              	.LBB146:
 575              	.LBB147:
 576              	.LBB148:
 577              	.LBB149:
 578              		.loc 3 546 0
 579 0002 2023     		movs	r3, #32
 580              	.LBE149:
 581              	.LBE148:
 582              	.LBE147:
 583              	.LBE146:
 584              	.LBE145:
 585              		.loc 1 250 0
 586 0004 0446     		mov	r4, r0
 587              	.LBB154:
 588              	.LBB153:
 589              	.LBB152:
 590              	.LBB151:
 591              	.LBB150:
 592              		.loc 3 546 0
 593              	@ 546 "../../../os/ext/CMSIS/include/core_cmFunc.h" 1
 594 0006 83F31188 		MSR basepri, r3
 595              	@ 0 "" 2
 596              		.thumb
 597              	.LBE150:
 598              	.LBE151:
 599              	.LBE152:
 600              		.loc 4 300 0
 601 000a FFF7FEFF 		bl	_stats_start_measure_crit_thd
 602              	.LVL47:
 603              		.loc 4 301 0
 604 000e FFF7FEFF 		bl	_dbg_check_lock
 605              	.LVL48:
 606              	.LBE153:
 607              	.LBE154:
 608              		.loc 1 254 0
 609 0012 2046     		mov	r0, r4
 610 0014 FFF7FEFF 		bl	chMtxTryLockS
 611              	.LVL49:
 612 0018 0446     		mov	r4, r0
 613              	.LVL50:
 614              	.LBB155:
 615              	.LBB156:
 616              		.loc 4 311 0
 617 001a FFF7FEFF 		bl	_dbg_check_unlock
 618              	.LVL51:
 619              		.loc 4 312 0
 620 001e FFF7FEFF 		bl	_stats_stop_measure_crit_thd
 621              	.LVL52:
 622              		.loc 4 318 0
 623 0022 094B     		ldr	r3, .L57
 624 0024 9A69     		ldr	r2, [r3, #24]
 625 0026 1B68     		ldr	r3, [r3]
ARM GAS  C:\Users\jo\AppData\Local\Temp\cceZtr7h.s 			page 12


 626 0028 9268     		ldr	r2, [r2, #8]
 627 002a 9B68     		ldr	r3, [r3, #8]
 628 002c 9A42     		cmp	r2, r3
 629 002e 06D2     		bcs	.L55
 630 0030 0648     		ldr	r0, .L57+4
 631 0032 FFF7FEFF 		bl	puts
 632              	.LVL53:
 633              	@ 318 "../../../os/rt/include/chsys.h" 1
 634 0036 00BE     		BKPT #0
 635              	
 636              	@ 0 "" 2
 637              		.thumb
 638 0038 0548     		ldr	r0, .L57+8
 639 003a FFF7FEFF 		bl	chSysHalt
 640              	.LVL54:
 641              	.L55:
 642              	.LBB157:
 643              	.LBB158:
 644              	.LBB159:
 645              		.loc 3 546 0
 646 003e 0023     		movs	r3, #0
 647              	@ 546 "../../../os/ext/CMSIS/include/core_cmFunc.h" 1
 648 0040 83F31188 		MSR basepri, r3
 649              	@ 0 "" 2
 650              		.thumb
 651              	.LBE159:
 652              	.LBE158:
 653              	.LBE157:
 654              	.LBE156:
 655              	.LBE155:
 656              		.loc 1 258 0
 657 0044 2046     		mov	r0, r4
 658 0046 10BD     		pop	{r4, pc}
 659              	.LVL55:
 660              	.L58:
 661              		.align	2
 662              	.L57:
 663 0048 00000000 		.word	ch
 664 004c 18000000 		.word	.LC2
 665 0050 00000000 		.word	.LANCHOR2
 666              		.cfi_endproc
 667              	.LFE229:
 668              		.size	chMtxTryLock, .-chMtxTryLock
 669 0054 AFF30080 		.section	.text.chMtxUnlock,"ax",%progbits
 669      AFF30080 
 669      AFF30080 
 670              		.align	2
 671              		.p2align 4,,15
 672              		.global	chMtxUnlock
 673              		.thumb
 674              		.thumb_func
 675              		.type	chMtxUnlock, %function
 676              	chMtxUnlock:
 677              	.LFB231:
 678              		.loc 1 318 0
 679              		.cfi_startproc
 680              		@ args = 0, pretend = 0, frame = 0
ARM GAS  C:\Users\jo\AppData\Local\Temp\cceZtr7h.s 			page 13


 681              		@ frame_needed = 0, uses_anonymous_args = 0
 682              	.LVL56:
 683 0000 2DE9F041 		push	{r4, r5, r6, r7, r8, lr}
 684              		.cfi_def_cfa_offset 24
 685              		.cfi_offset 4, -24
 686              		.cfi_offset 5, -20
 687              		.cfi_offset 6, -16
 688              		.cfi_offset 7, -12
 689              		.cfi_offset 8, -8
 690              		.cfi_offset 14, -4
 691              		.loc 1 319 0
 692 0004 DFF8F480 		ldr	r8, .L77+24
 693              		.loc 1 322 0
 694 0008 0646     		mov	r6, r0
 695              		.loc 1 319 0
 696 000a D8F81870 		ldr	r7, [r8, #24]
 697              	.LVL57:
 698              		.loc 1 322 0
 699 000e 0028     		cmp	r0, #0
 700 0010 5BD0     		beq	.L75
 701              	.LVL58:
 702              	.L60:
 703              	.LBB181:
 704              	.LBB182:
 705              	.LBB183:
 706              	.LBB184:
 707              	.LBB185:
 708              		.loc 3 546 0
 709 0012 2023     		movs	r3, #32
 710              	@ 546 "../../../os/ext/CMSIS/include/core_cmFunc.h" 1
 711 0014 83F31188 		MSR basepri, r3
 712              	@ 0 "" 2
 713              		.thumb
 714              	.LBE185:
 715              	.LBE184:
 716              	.LBE183:
 717              		.loc 4 300 0
 718 0018 FFF7FEFF 		bl	_stats_start_measure_crit_thd
 719              	.LVL59:
 720              		.loc 4 301 0
 721 001c FFF7FEFF 		bl	_dbg_check_lock
 722              	.LVL60:
 723              	.LBE182:
 724              	.LBE181:
 725              		.loc 1 326 0
 726 0020 FB6B     		ldr	r3, [r7, #60]
 727 0022 002B     		cmp	r3, #0
 728 0024 55D0     		beq	.L76
 729              	.L61:
 730              		.loc 1 327 0
 731 0026 9A68     		ldr	r2, [r3, #8]
 732 0028 BA42     		cmp	r2, r7
 733 002a 07D0     		beq	.L62
 734              		.loc 1 327 0 is_stmt 0 discriminator 1
 735 002c 2D48     		ldr	r0, .L77
 736 002e FFF7FEFF 		bl	puts
 737              	.LVL61:
ARM GAS  C:\Users\jo\AppData\Local\Temp\cceZtr7h.s 			page 14


 738              	@ 327 "../../../os/rt/src/chmtx.c" 1
 739 0032 00BE     		BKPT #0
 740              	
 741              	@ 0 "" 2
 742              		.thumb
 743 0034 2C48     		ldr	r0, .L77+4
 744 0036 FFF7FEFF 		bl	chSysHalt
 745              	.LVL62:
 746 003a FB6B     		ldr	r3, [r7, #60]
 747              	.L62:
 748              		.loc 1 334 0 is_stmt 1
 749 003c 9E42     		cmp	r6, r3
 750 003e 06D0     		beq	.L63
 751              		.loc 1 334 0 is_stmt 0 discriminator 1
 752 0040 2A48     		ldr	r0, .L77+8
 753 0042 FFF7FEFF 		bl	puts
 754              	.LVL63:
 755              	@ 334 "../../../os/rt/src/chmtx.c" 1
 756 0046 00BE     		BKPT #0
 757              	
 758              	@ 0 "" 2
 759              		.thumb
 760 0048 2748     		ldr	r0, .L77+4
 761 004a FFF7FEFF 		bl	chSysHalt
 762              	.LVL64:
 763              	.L63:
 764              		.loc 1 339 0 is_stmt 1
 765 004e F368     		ldr	r3, [r6, #12]
 766 0050 FB63     		str	r3, [r7, #60]
 767              	.LVL65:
 768              	.LBB186:
 769              	.LBB187:
 770              		.file 5 "../../../os/rt/include/chmtx.h"
 771              		.loc 5 131 0
 772 0052 FFF7FEFF 		bl	chDbgCheckClassS
 773              	.LVL66:
 774              	.LBB188:
 775              	.LBB189:
 776              		.loc 2 600 0
 777 0056 3368     		ldr	r3, [r6]
 778              	.LBE189:
 779              	.LBE188:
 780              	.LBE187:
 781              	.LBE186:
 782              		.loc 1 342 0
 783 0058 9E42     		cmp	r6, r3
 784 005a 33D0     		beq	.L64
 785              	.LBB190:
 786              		.loc 1 348 0
 787 005c FC6B     		ldr	r4, [r7, #60]
 788              		.loc 1 347 0
 789 005e 3D6C     		ldr	r5, [r7, #64]
 790              	.LVL67:
 791              		.loc 1 349 0
 792 0060 64B1     		cbz	r4, .L65
 793              	.L67:
 794              	.LVL68:
ARM GAS  C:\Users\jo\AppData\Local\Temp\cceZtr7h.s 			page 15


 795              	.LBB191:
 796              	.LBB192:
 797              		.loc 5 131 0
 798 0062 FFF7FEFF 		bl	chDbgCheckClassS
 799              	.LVL69:
 800              	.LBB193:
 801              	.LBB194:
 802              		.loc 2 600 0
 803 0066 2368     		ldr	r3, [r4]
 804              	.LBE194:
 805              	.LBE193:
 806              	.LBE192:
 807              	.LBE191:
 808              		.loc 1 353 0
 809 0068 9C42     		cmp	r4, r3
 810 006a 03D0     		beq	.L66
 811              		.loc 1 354 0 discriminator 1
 812 006c 9B68     		ldr	r3, [r3, #8]
 813 006e 9D42     		cmp	r5, r3
 814 0070 38BF     		it	cc
 815 0072 1D46     		movcc	r5, r3
 816              	.LVL70:
 817              	.L66:
 818              		.loc 1 357 0
 819 0074 E468     		ldr	r4, [r4, #12]
 820              	.LVL71:
 821              		.loc 1 349 0
 822 0076 002C     		cmp	r4, #0
 823 0078 F3D1     		bne	.L67
 824 007a 3368     		ldr	r3, [r6]
 825              	.L65:
 826              	.LBB195:
 827              	.LBB196:
 828              		.loc 2 641 0
 829 007c 1A68     		ldr	r2, [r3]
 830              	.LBE196:
 831              	.LBE195:
 832              		.loc 1 371 0
 833 007e DC6B     		ldr	r4, [r3, #60]
 834              	.LVL72:
 835              		.loc 1 362 0
 836 0080 BD60     		str	r5, [r7, #8]
 837              	.LVL73:
 838              		.loc 1 373 0
 839 0082 1846     		mov	r0, r3
 840              	.LBB199:
 841              	.LBB197:
 842              		.loc 2 641 0
 843 0084 3260     		str	r2, [r6]
 844              	.LBE197:
 845              	.LBE199:
 846              		.loc 1 373 0
 847 0086 0021     		movs	r1, #0
 848              	.LBB200:
 849              	.LBB198:
 850              		.loc 2 641 0
 851 0088 5660     		str	r6, [r2, #4]
ARM GAS  C:\Users\jo\AppData\Local\Temp\cceZtr7h.s 			page 16


 852              	.LBE198:
 853              	.LBE200:
 854              		.loc 1 370 0
 855 008a B360     		str	r3, [r6, #8]
 856              		.loc 1 371 0
 857 008c F460     		str	r4, [r6, #12]
 858              		.loc 1 372 0
 859 008e DE63     		str	r6, [r3, #60]
 860              		.loc 1 373 0
 861 0090 FFF7FEFF 		bl	chSchWakeupS
 862              	.LVL74:
 863              	.L68:
 864              	.LBE190:
 865              	.LBB201:
 866              	.LBB202:
 867              		.loc 4 311 0
 868 0094 FFF7FEFF 		bl	_dbg_check_unlock
 869              	.LVL75:
 870              		.loc 4 312 0
 871 0098 FFF7FEFF 		bl	_stats_stop_measure_crit_thd
 872              	.LVL76:
 873              		.loc 4 318 0
 874 009c D8F81820 		ldr	r2, [r8, #24]
 875 00a0 D8F80030 		ldr	r3, [r8]
 876 00a4 9268     		ldr	r2, [r2, #8]
 877 00a6 9B68     		ldr	r3, [r3, #8]
 878 00a8 9A42     		cmp	r2, r3
 879 00aa 06D2     		bcs	.L69
 880 00ac 1048     		ldr	r0, .L77+12
 881 00ae FFF7FEFF 		bl	puts
 882              	.LVL77:
 883              	@ 318 "../../../os/rt/include/chsys.h" 1
 884 00b2 00BE     		BKPT #0
 885              	
 886              	@ 0 "" 2
 887              		.thumb
 888 00b4 0F48     		ldr	r0, .L77+16
 889 00b6 FFF7FEFF 		bl	chSysHalt
 890              	.LVL78:
 891              	.L69:
 892              	.LBB203:
 893              	.LBB204:
 894              	.LBB205:
 895              		.loc 3 546 0
 896 00ba 0023     		movs	r3, #0
 897              	@ 546 "../../../os/ext/CMSIS/include/core_cmFunc.h" 1
 898 00bc 83F31188 		MSR basepri, r3
 899              	@ 0 "" 2
 900              		.thumb
 901 00c0 BDE8F081 		pop	{r4, r5, r6, r7, r8, pc}
 902              	.LVL79:
 903              	.L64:
 904              	.LBE205:
 905              	.LBE204:
 906              	.LBE203:
 907              	.LBE202:
 908              	.LBE201:
ARM GAS  C:\Users\jo\AppData\Local\Temp\cceZtr7h.s 			page 17


 909              		.loc 1 376 0
 910 00c4 0023     		movs	r3, #0
 911 00c6 B360     		str	r3, [r6, #8]
 912 00c8 E4E7     		b	.L68
 913              	.LVL80:
 914              	.L75:
 915              		.loc 1 322 0 discriminator 1
 916 00ca 0748     		ldr	r0, .L77+4
 917              	.LVL81:
 918 00cc FFF7FEFF 		bl	chSysHalt
 919              	.LVL82:
 920 00d0 9FE7     		b	.L60
 921              	.LVL83:
 922              	.L76:
 923              		.loc 1 326 0 discriminator 1
 924 00d2 0948     		ldr	r0, .L77+20
 925 00d4 FFF7FEFF 		bl	puts
 926              	.LVL84:
 927              	@ 326 "../../../os/rt/src/chmtx.c" 1
 928 00d8 00BE     		BKPT #0
 929              	
 930              	@ 0 "" 2
 931              		.thumb
 932 00da 0348     		ldr	r0, .L77+4
 933 00dc FFF7FEFF 		bl	chSysHalt
 934              	.LVL85:
 935 00e0 FB6B     		ldr	r3, [r7, #60]
 936 00e2 A0E7     		b	.L61
 937              	.L78:
 938              		.align	2
 939              	.L77:
 940 00e4 5C000000 		.word	.LC4
 941 00e8 00000000 		.word	.LANCHOR4
 942 00ec 70000000 		.word	.LC5
 943 00f0 18000000 		.word	.LC2
 944 00f4 00000000 		.word	.LANCHOR2
 945 00f8 40000000 		.word	.LC3
 946 00fc 00000000 		.word	ch
 947              		.cfi_endproc
 948              	.LFE231:
 949              		.size	chMtxUnlock, .-chMtxUnlock
 950              		.section	.text.chMtxUnlockS,"ax",%progbits
 951              		.align	2
 952              		.p2align 4,,15
 953              		.global	chMtxUnlockS
 954              		.thumb
 955              		.thumb_func
 956              		.type	chMtxUnlockS, %function
 957              	chMtxUnlockS:
 958              	.LFB232:
 959              		.loc 1 399 0
 960              		.cfi_startproc
 961              		@ args = 0, pretend = 0, frame = 0
 962              		@ frame_needed = 0, uses_anonymous_args = 0
 963              	.LVL86:
 964 0000 F8B5     		push	{r3, r4, r5, r6, r7, lr}
 965              		.cfi_def_cfa_offset 24
ARM GAS  C:\Users\jo\AppData\Local\Temp\cceZtr7h.s 			page 18


 966              		.cfi_offset 3, -24
 967              		.cfi_offset 4, -20
 968              		.cfi_offset 5, -16
 969              		.cfi_offset 6, -12
 970              		.cfi_offset 7, -8
 971              		.cfi_offset 14, -4
 972              		.loc 1 400 0
 973 0002 294B     		ldr	r3, .L95
 974              		.loc 1 399 0
 975 0004 0646     		mov	r6, r0
 976              		.loc 1 400 0
 977 0006 9F69     		ldr	r7, [r3, #24]
 978              	.LVL87:
 979              		.loc 1 403 0
 980 0008 FFF7FEFF 		bl	chDbgCheckClassS
 981              	.LVL88:
 982              		.loc 1 404 0
 983 000c 002E     		cmp	r6, #0
 984 000e 3DD0     		beq	.L93
 985              	.L80:
 986              		.loc 1 406 0
 987 0010 FB6B     		ldr	r3, [r7, #60]
 988 0012 002B     		cmp	r3, #0
 989 0014 3ED0     		beq	.L94
 990              	.L81:
 991              		.loc 1 407 0
 992 0016 9A68     		ldr	r2, [r3, #8]
 993 0018 BA42     		cmp	r2, r7
 994 001a 07D0     		beq	.L82
 995              		.loc 1 407 0 is_stmt 0 discriminator 1
 996 001c 2348     		ldr	r0, .L95+4
 997 001e FFF7FEFF 		bl	puts
 998              	.LVL89:
 999              	@ 407 "../../../os/rt/src/chmtx.c" 1
 1000 0022 00BE     		BKPT #0
 1001              	
 1002              	@ 0 "" 2
 1003              		.thumb
 1004 0024 2248     		ldr	r0, .L95+8
 1005 0026 FFF7FEFF 		bl	chSysHalt
 1006              	.LVL90:
 1007 002a FB6B     		ldr	r3, [r7, #60]
 1008              	.L82:
 1009              		.loc 1 414 0 is_stmt 1
 1010 002c 9E42     		cmp	r6, r3
 1011 002e 06D0     		beq	.L83
 1012              		.loc 1 414 0 is_stmt 0 discriminator 1
 1013 0030 2048     		ldr	r0, .L95+12
 1014 0032 FFF7FEFF 		bl	puts
 1015              	.LVL91:
 1016              	@ 414 "../../../os/rt/src/chmtx.c" 1
 1017 0036 00BE     		BKPT #0
 1018              	
 1019              	@ 0 "" 2
 1020              		.thumb
 1021 0038 1D48     		ldr	r0, .L95+8
 1022 003a FFF7FEFF 		bl	chSysHalt
ARM GAS  C:\Users\jo\AppData\Local\Temp\cceZtr7h.s 			page 19


 1023              	.LVL92:
 1024              	.L83:
 1025              		.loc 1 419 0 is_stmt 1
 1026 003e F368     		ldr	r3, [r6, #12]
 1027 0040 FB63     		str	r3, [r7, #60]
 1028              	.LVL93:
 1029              	.LBB206:
 1030              	.LBB207:
 1031              		.loc 5 131 0
 1032 0042 FFF7FEFF 		bl	chDbgCheckClassS
 1033              	.LVL94:
 1034              	.LBB208:
 1035              	.LBB209:
 1036              		.loc 2 600 0
 1037 0046 3368     		ldr	r3, [r6]
 1038              	.LBE209:
 1039              	.LBE208:
 1040              	.LBE207:
 1041              	.LBE206:
 1042              		.loc 1 422 0
 1043 0048 9E42     		cmp	r6, r3
 1044 004a 1CD0     		beq	.L84
 1045              	.LBB210:
 1046              		.loc 1 428 0
 1047 004c FC6B     		ldr	r4, [r7, #60]
 1048              		.loc 1 427 0
 1049 004e 3D6C     		ldr	r5, [r7, #64]
 1050              	.LVL95:
 1051              		.loc 1 429 0
 1052 0050 64B1     		cbz	r4, .L85
 1053              	.L87:
 1054              	.LVL96:
 1055              	.LBB211:
 1056              	.LBB212:
 1057              		.loc 5 131 0
 1058 0052 FFF7FEFF 		bl	chDbgCheckClassS
 1059              	.LVL97:
 1060              	.LBB213:
 1061              	.LBB214:
 1062              		.loc 2 600 0
 1063 0056 2368     		ldr	r3, [r4]
 1064              	.LBE214:
 1065              	.LBE213:
 1066              	.LBE212:
 1067              	.LBE211:
 1068              		.loc 1 433 0
 1069 0058 9C42     		cmp	r4, r3
 1070 005a 03D0     		beq	.L86
 1071              		.loc 1 434 0 discriminator 1
 1072 005c 9B68     		ldr	r3, [r3, #8]
 1073 005e 9D42     		cmp	r5, r3
 1074 0060 38BF     		it	cc
 1075 0062 1D46     		movcc	r5, r3
 1076              	.LVL98:
 1077              	.L86:
 1078              		.loc 1 437 0
 1079 0064 E468     		ldr	r4, [r4, #12]
ARM GAS  C:\Users\jo\AppData\Local\Temp\cceZtr7h.s 			page 20


 1080              	.LVL99:
 1081              		.loc 1 429 0
 1082 0066 002C     		cmp	r4, #0
 1083 0068 F3D1     		bne	.L87
 1084 006a 3368     		ldr	r3, [r6]
 1085              	.L85:
 1086              	.LBB215:
 1087              	.LBB216:
 1088              		.loc 2 641 0
 1089 006c 1A68     		ldr	r2, [r3]
 1090              	.LBE216:
 1091              	.LBE215:
 1092              		.loc 1 451 0
 1093 006e D96B     		ldr	r1, [r3, #60]
 1094              		.loc 1 442 0
 1095 0070 BD60     		str	r5, [r7, #8]
 1096              	.LVL100:
 1097              		.loc 1 453 0
 1098 0072 1846     		mov	r0, r3
 1099              	.LBB218:
 1100              	.LBB217:
 1101              		.loc 2 641 0
 1102 0074 3260     		str	r2, [r6]
 1103 0076 5660     		str	r6, [r2, #4]
 1104              	.LBE217:
 1105              	.LBE218:
 1106              		.loc 1 450 0
 1107 0078 B360     		str	r3, [r6, #8]
 1108              		.loc 1 451 0
 1109 007a F160     		str	r1, [r6, #12]
 1110              		.loc 1 452 0
 1111 007c DE63     		str	r6, [r3, #60]
 1112              	.LBE210:
 1113              		.loc 1 461 0
 1114 007e BDE8F840 		pop	{r3, r4, r5, r6, r7, lr}
 1115              		.cfi_remember_state
 1116              		.cfi_restore 14
 1117              		.cfi_restore 7
 1118              		.cfi_restore 6
 1119              		.cfi_restore 5
 1120              		.cfi_restore 4
 1121              		.cfi_restore 3
 1122              		.cfi_def_cfa_offset 0
 1123              	.LVL101:
 1124              	.LBB219:
 1125              		.loc 1 453 0
 1126 0082 FFF7FEBF 		b	chSchReadyI
 1127              	.LVL102:
 1128              	.L84:
 1129              		.cfi_restore_state
 1130              	.LBE219:
 1131              		.loc 1 456 0
 1132 0086 0023     		movs	r3, #0
 1133 0088 B360     		str	r3, [r6, #8]
 1134 008a F8BD     		pop	{r3, r4, r5, r6, r7, pc}
 1135              	.LVL103:
 1136              	.L93:
ARM GAS  C:\Users\jo\AppData\Local\Temp\cceZtr7h.s 			page 21


 1137              		.loc 1 404 0 discriminator 1
 1138 008c 0848     		ldr	r0, .L95+8
 1139 008e FFF7FEFF 		bl	chSysHalt
 1140              	.LVL104:
 1141 0092 BDE7     		b	.L80
 1142              	.L94:
 1143              		.loc 1 406 0 discriminator 1
 1144 0094 0848     		ldr	r0, .L95+16
 1145 0096 FFF7FEFF 		bl	puts
 1146              	.LVL105:
 1147              	@ 406 "../../../os/rt/src/chmtx.c" 1
 1148 009a 00BE     		BKPT #0
 1149              	
 1150              	@ 0 "" 2
 1151              		.thumb
 1152 009c 0448     		ldr	r0, .L95+8
 1153 009e FFF7FEFF 		bl	chSysHalt
 1154              	.LVL106:
 1155 00a2 FB6B     		ldr	r3, [r7, #60]
 1156 00a4 B7E7     		b	.L81
 1157              	.L96:
 1158 00a6 00BF     		.align	2
 1159              	.L95:
 1160 00a8 00000000 		.word	ch
 1161 00ac 5C000000 		.word	.LC4
 1162 00b0 00000000 		.word	.LANCHOR5
 1163 00b4 70000000 		.word	.LC5
 1164 00b8 40000000 		.word	.LC3
 1165              		.cfi_endproc
 1166              	.LFE232:
 1167              		.size	chMtxUnlockS, .-chMtxUnlockS
 1168 00bc AFF30080 		.section	.text.chMtxUnlockAll,"ax",%progbits
 1169              		.align	2
 1170              		.p2align 4,,15
 1171              		.global	chMtxUnlockAll
 1172              		.thumb
 1173              		.thumb_func
 1174              		.type	chMtxUnlockAll, %function
 1175              	chMtxUnlockAll:
 1176              	.LFB233:
 1177              		.loc 1 474 0
 1178              		.cfi_startproc
 1179              		@ args = 0, pretend = 0, frame = 0
 1180              		@ frame_needed = 0, uses_anonymous_args = 0
 1181 0000 F8B5     		push	{r3, r4, r5, r6, r7, lr}
 1182              		.cfi_def_cfa_offset 24
 1183              		.cfi_offset 3, -24
 1184              		.cfi_offset 4, -20
 1185              		.cfi_offset 5, -16
 1186              		.cfi_offset 6, -12
 1187              		.cfi_offset 7, -8
 1188              		.cfi_offset 14, -4
 1189              		.loc 1 475 0
 1190 0002 1E4E     		ldr	r6, .L110
 1191              	.LBB238:
 1192              	.LBB239:
 1193              	.LBB240:
ARM GAS  C:\Users\jo\AppData\Local\Temp\cceZtr7h.s 			page 22


 1194              	.LBB241:
 1195              	.LBB242:
 1196              		.loc 3 546 0
 1197 0004 2023     		movs	r3, #32
 1198              	.LBE242:
 1199              	.LBE241:
 1200              	.LBE240:
 1201              	.LBE239:
 1202              	.LBE238:
 1203              		.loc 1 475 0
 1204 0006 B569     		ldr	r5, [r6, #24]
 1205              	.LVL107:
 1206              	.LBB247:
 1207              	.LBB246:
 1208              	.LBB245:
 1209              	.LBB244:
 1210              	.LBB243:
 1211              		.loc 3 546 0
 1212              	@ 546 "../../../os/ext/CMSIS/include/core_cmFunc.h" 1
 1213 0008 83F31188 		MSR basepri, r3
 1214              	@ 0 "" 2
 1215              		.thumb
 1216              	.LBE243:
 1217              	.LBE244:
 1218              	.LBE245:
 1219              		.loc 4 300 0
 1220 000c FFF7FEFF 		bl	_stats_start_measure_crit_thd
 1221              	.LVL108:
 1222              		.loc 4 301 0
 1223 0010 FFF7FEFF 		bl	_dbg_check_lock
 1224              	.LVL109:
 1225              	.LBE246:
 1226              	.LBE247:
 1227              		.loc 1 478 0
 1228 0014 EC6B     		ldr	r4, [r5, #60]
 1229 0016 E4B1     		cbz	r4, .L98
 1230              	.LBB248:
 1231              		.loc 1 496 0
 1232 0018 0027     		movs	r7, #0
 1233 001a 0AE0     		b	.L101
 1234              	.LVL110:
 1235              	.L109:
 1236              	.LBB249:
 1237              	.LBB250:
 1238              	.LBB251:
 1239              		.loc 2 641 0
 1240 001c 1A68     		ldr	r2, [r3]
 1241              	.LBE251:
 1242              	.LBE250:
 1243              		.loc 1 488 0
 1244 001e D96B     		ldr	r1, [r3, #60]
 1245              	.LBB253:
 1246              	.LBB252:
 1247              		.loc 2 641 0
 1248 0020 2260     		str	r2, [r4]
 1249 0022 5460     		str	r4, [r2, #4]
 1250              	.LBE252:
ARM GAS  C:\Users\jo\AppData\Local\Temp\cceZtr7h.s 			page 23


 1251              	.LBE253:
 1252              		.loc 1 487 0
 1253 0024 A360     		str	r3, [r4, #8]
 1254              		.loc 1 488 0
 1255 0026 E160     		str	r1, [r4, #12]
 1256              		.loc 1 489 0
 1257 0028 DC63     		str	r4, [r3, #60]
 1258              		.loc 1 490 0
 1259 002a FFF7FEFF 		bl	chSchReadyI
 1260              	.LVL111:
 1261              	.LBE249:
 1262              	.LBE248:
 1263              		.loc 1 498 0
 1264 002e EC6B     		ldr	r4, [r5, #60]
 1265              	.LVL112:
 1266 0030 5CB1     		cbz	r4, .L108
 1267              	.L101:
 1268              	.LVL113:
 1269              	.LBB259:
 1270              		.loc 1 481 0
 1271 0032 E368     		ldr	r3, [r4, #12]
 1272 0034 EB63     		str	r3, [r5, #60]
 1273              	.LVL114:
 1274              	.LBB254:
 1275              	.LBB255:
 1276              		.loc 5 131 0
 1277 0036 FFF7FEFF 		bl	chDbgCheckClassS
 1278              	.LVL115:
 1279              	.LBB256:
 1280              	.LBB257:
 1281              		.loc 2 600 0
 1282 003a 2368     		ldr	r3, [r4]
 1283              	.LVL116:
 1284              	.LBE257:
 1285              	.LBE256:
 1286              	.LBE255:
 1287              	.LBE254:
 1288              		.loc 1 482 0
 1289 003c 9C42     		cmp	r4, r3
 1290              	.LBB258:
 1291              		.loc 1 490 0
 1292 003e 1846     		mov	r0, r3
 1293              	.LBE258:
 1294              		.loc 1 482 0
 1295 0040 ECD1     		bne	.L109
 1296              		.loc 1 496 0
 1297 0042 A760     		str	r7, [r4, #8]
 1298              	.LBE259:
 1299              		.loc 1 498 0
 1300 0044 EC6B     		ldr	r4, [r5, #60]
 1301              	.LVL117:
 1302 0046 002C     		cmp	r4, #0
 1303 0048 F3D1     		bne	.L101
 1304              	.LVL118:
 1305              	.L108:
 1306              		.loc 1 499 0
 1307 004a 2B6C     		ldr	r3, [r5, #64]
ARM GAS  C:\Users\jo\AppData\Local\Temp\cceZtr7h.s 			page 24


 1308 004c AB60     		str	r3, [r5, #8]
 1309              		.loc 1 500 0
 1310 004e FFF7FEFF 		bl	chSchRescheduleS
 1311              	.LVL119:
 1312              	.L98:
 1313              	.LBB260:
 1314              	.LBB261:
 1315              		.loc 4 311 0
 1316 0052 FFF7FEFF 		bl	_dbg_check_unlock
 1317              	.LVL120:
 1318              		.loc 4 312 0
 1319 0056 FFF7FEFF 		bl	_stats_stop_measure_crit_thd
 1320              	.LVL121:
 1321              		.loc 4 318 0
 1322 005a B269     		ldr	r2, [r6, #24]
 1323 005c 3368     		ldr	r3, [r6]
 1324 005e 9268     		ldr	r2, [r2, #8]
 1325 0060 9B68     		ldr	r3, [r3, #8]
 1326 0062 9A42     		cmp	r2, r3
 1327 0064 06D2     		bcs	.L102
 1328 0066 0648     		ldr	r0, .L110+4
 1329 0068 FFF7FEFF 		bl	puts
 1330              	.LVL122:
 1331              	@ 318 "../../../os/rt/include/chsys.h" 1
 1332 006c 00BE     		BKPT #0
 1333              	
 1334              	@ 0 "" 2
 1335              		.thumb
 1336 006e 0548     		ldr	r0, .L110+8
 1337 0070 FFF7FEFF 		bl	chSysHalt
 1338              	.LVL123:
 1339              	.L102:
 1340              	.LBB262:
 1341              	.LBB263:
 1342              	.LBB264:
 1343              		.loc 3 546 0
 1344 0074 0023     		movs	r3, #0
 1345              	@ 546 "../../../os/ext/CMSIS/include/core_cmFunc.h" 1
 1346 0076 83F31188 		MSR basepri, r3
 1347              	@ 0 "" 2
 1348              		.thumb
 1349 007a F8BD     		pop	{r3, r4, r5, r6, r7, pc}
 1350              	.LVL124:
 1351              	.L111:
 1352              		.align	2
 1353              	.L110:
 1354 007c 00000000 		.word	ch
 1355 0080 18000000 		.word	.LC2
 1356 0084 00000000 		.word	.LANCHOR2
 1357              	.LBE264:
 1358              	.LBE263:
 1359              	.LBE262:
 1360              	.LBE261:
 1361              	.LBE260:
 1362              		.cfi_endproc
 1363              	.LFE233:
 1364              		.size	chMtxUnlockAll, .-chMtxUnlockAll
ARM GAS  C:\Users\jo\AppData\Local\Temp\cceZtr7h.s 			page 25


 1365 0088 AFF30080 		.section	.rodata.__func__.7435,"a",%progbits
 1365      AFF30080 
 1366              		.align	2
 1367              		.set	.LANCHOR0,. + 0
 1368              		.type	__func__.7435, %object
 1369              		.size	__func__.7435, 16
 1370              	__func__.7435:
 1371 0000 63684D74 		.ascii	"chMtxObjectInit\000"
 1371      784F626A 
 1371      65637449 
 1371      6E697400 
 1372              		.section	.rodata.__func__.7443,"a",%progbits
 1373              		.align	2
 1374              		.set	.LANCHOR1,. + 0
 1375              		.type	__func__.7443, %object
 1376              		.size	__func__.7443, 11
 1377              	__func__.7443:
 1378 0000 63684D74 		.ascii	"chMtxLockS\000"
 1378      784C6F63 
 1378      6B5300
 1379 000b 00       		.section	.rodata.str1.4,"aMS",%progbits,1
 1380              		.align	2
 1381              	.LC0:
 1382 0000 6E6F7420 		.ascii	"not owner\000"
 1382      6F776E65 
 1382      7200
 1383 000a 0000     		.space	2
 1384              	.LC1:
 1385 000c 6E6F7420 		.ascii	"not owned\000"
 1385      6F776E65 
 1385      6400
 1386 0016 0000     		.space	2
 1387              	.LC2:
 1388 0018 7072696F 		.ascii	"priority violation, missing reschedule\000"
 1388      72697479 
 1388      2076696F 
 1388      6C617469 
 1388      6F6E2C20 
 1389 003f 00       		.space	1
 1390              	.LC3:
 1391 0040 6F776E65 		.ascii	"owned mutexes list empty\000"
 1391      64206D75 
 1391      74657865 
 1391      73206C69 
 1391      73742065 
 1392 0059 000000   		.space	3
 1393              	.LC4:
 1394 005c 6F776E65 		.ascii	"ownership failure\000"
 1394      72736869 
 1394      70206661 
 1394      696C7572 
 1394      6500
 1395 006e 0000     		.space	2
 1396              	.LC5:
 1397 0070 6E6F7420 		.ascii	"not next in list\000"
 1397      6E657874 
 1397      20696E20 
ARM GAS  C:\Users\jo\AppData\Local\Temp\cceZtr7h.s 			page 26


 1397      6C697374 
 1397      00
 1398 0081 000000   		.section	.rodata.__func__.7459,"a",%progbits
 1399              		.align	2
 1400              		.set	.LANCHOR3,. + 0
 1401              		.type	__func__.7459, %object
 1402              		.size	__func__.7459, 14
 1403              	__func__.7459:
 1404 0000 63684D74 		.ascii	"chMtxTryLockS\000"
 1404      78547279 
 1404      4C6F636B 
 1404      5300
 1405 000e 0000     		.section	.rodata.__func__.7465,"a",%progbits
 1406              		.align	2
 1407              		.set	.LANCHOR4,. + 0
 1408              		.type	__func__.7465, %object
 1409              		.size	__func__.7465, 12
 1410              	__func__.7465:
 1411 0000 63684D74 		.ascii	"chMtxUnlock\000"
 1411      78556E6C 
 1411      6F636B00 
 1412              		.section	.rodata.__func__.6751,"a",%progbits
 1413              		.align	2
 1414              		.set	.LANCHOR2,. + 0
 1415              		.type	__func__.6751, %object
 1416              		.size	__func__.6751, 12
 1417              	__func__.6751:
 1418 0000 63685379 		.ascii	"chSysUnlock\000"
 1418      73556E6C 
 1418      6F636B00 
 1419              		.section	.rodata.__func__.7476,"a",%progbits
 1420              		.align	2
 1421              		.set	.LANCHOR5,. + 0
 1422              		.type	__func__.7476, %object
 1423              		.size	__func__.7476, 13
 1424              	__func__.7476:
 1425 0000 63684D74 		.ascii	"chMtxUnlockS\000"
 1425      78556E6C 
 1425      6F636B53 
 1425      00
 1426 000d 000000   		.text
 1427              	.Letext0:
 1428              		.file 6 "c:\\program files\\gnu tools arm embedded\\4.9 2014q4\\arm-none-eabi\\include\\machine\\_
 1429              		.file 7 "c:\\program files\\gnu tools arm embedded\\4.9 2014q4\\arm-none-eabi\\include\\stdint.h"
 1430              		.file 8 "../../../os/rt/ports/ARMCMx/compilers/GCC/chtypes.h"
 1431              		.file 9 "../../../os/rt/include/chsystypes.h"
 1432              		.file 10 "../../../os/rt/ports/ARMCMx/chcore.h"
 1433              		.file 11 "../../../os/rt/ports/ARMCMx/chcore_v7m.h"
 1434              		.file 12 "../../../os/rt/include/chdebug.h"
 1435              		.file 13 "../../../os/rt/include/chtm.h"
 1436              		.file 14 "../../../os/rt/include/chstats.h"
 1437              		.file 15 "../../../os/ext/CMSIS/include/core_cm4.h"
 1438              		.file 16 "<built-in>"