ARM GAS  C:\Users\jo\AppData\Local\Temp\ccmoKYg3.s 			page 1


   1              		.syntax unified
   2              		.cpu cortex-m4
   3              		.fpu softvfp
   4              		.eabi_attribute 20, 1
   5              		.eabi_attribute 21, 1
   6              		.eabi_attribute 23, 3
   7              		.eabi_attribute 24, 1
   8              		.eabi_attribute 25, 1
   9              		.eabi_attribute 26, 1
  10              		.eabi_attribute 30, 2
  11              		.eabi_attribute 34, 1
  12              		.eabi_attribute 18, 4
  13              		.thumb
  14              		.file	"chqueues.c"
  15              		.text
  16              	.Ltext0:
  17              		.cfi_sections	.debug_frame
  18              		.section	.text.chIQObjectInit,"ax",%progbits
  19              		.align	2
  20              		.p2align 4,,15
  21              		.global	chIQObjectInit
  22              		.thumb
  23              		.thumb_func
  24              		.type	chIQObjectInit, %function
  25              	chIQObjectInit:
  26              	.LFB226:
  27              		.file 1 "../../../os/rt/src/chqueues.c"
  28              		.loc 1 88 0
  29              		.cfi_startproc
  30              		@ args = 4, pretend = 0, frame = 0
  31              		@ frame_needed = 0, uses_anonymous_args = 0
  32              		@ link register save eliminated.
  33              	.LVL0:
  34 0000 30B4     		push	{r4, r5}
  35              		.cfi_def_cfa_offset 8
  36              		.cfi_offset 4, -8
  37              		.cfi_offset 5, -4
  38              		.loc 1 88 0
  39 0002 029C     		ldr	r4, [sp, #8]
  40              		.loc 1 95 0
  41 0004 0462     		str	r4, [r0, #32]
  42              		.loc 1 91 0
  43 0006 0025     		movs	r5, #0
  44              		.loc 1 93 0
  45 0008 0A44     		add	r2, r2, r1
  46              	.LVL1:
  47              		.loc 1 91 0
  48 000a 8560     		str	r5, [r0, #8]
  49              		.loc 1 93 0
  50 000c 0261     		str	r2, [r0, #16]
  51              	.LBB68:
  52              	.LBB69:
  53              	.LBB70:
  54              		.file 2 "../../../os/rt/include/chschd.h"
  55              		.loc 2 574 0
  56 000e 4060     		str	r0, [r0, #4]
  57 0010 0060     		str	r0, [r0]
ARM GAS  C:\Users\jo\AppData\Local\Temp\ccmoKYg3.s 			page 2


  58              	.LBE70:
  59              	.LBE69:
  60              	.LBE68:
  61              		.loc 1 92 0
  62 0012 4161     		str	r1, [r0, #20]
  63 0014 8161     		str	r1, [r0, #24]
  64 0016 C160     		str	r1, [r0, #12]
  65              		.loc 1 94 0
  66 0018 C361     		str	r3, [r0, #28]
  67              		.loc 1 96 0
  68 001a 30BC     		pop	{r4, r5}
  69              		.cfi_restore 5
  70              		.cfi_restore 4
  71              		.cfi_def_cfa_offset 0
  72              	.LVL2:
  73 001c 7047     		bx	lr
  74              		.cfi_endproc
  75              	.LFE226:
  76              		.size	chIQObjectInit, .-chIQObjectInit
  77 001e 00BF     		.section	.text.chIQResetI,"ax",%progbits
  78              		.align	2
  79              		.p2align 4,,15
  80              		.global	chIQResetI
  81              		.thumb
  82              		.thumb_func
  83              		.type	chIQResetI, %function
  84              	chIQResetI:
  85              	.LFB227:
  86              		.loc 1 109 0
  87              		.cfi_startproc
  88              		@ args = 0, pretend = 0, frame = 0
  89              		@ frame_needed = 0, uses_anonymous_args = 0
  90              	.LVL3:
  91 0000 10B5     		push	{r4, lr}
  92              		.cfi_def_cfa_offset 8
  93              		.cfi_offset 4, -8
  94              		.cfi_offset 14, -4
  95              		.loc 1 109 0
  96 0002 0446     		mov	r4, r0
  97              		.loc 1 111 0
  98 0004 FFF7FEFF 		bl	chDbgCheckClassI
  99              	.LVL4:
 100              		.loc 1 113 0
 101 0008 E368     		ldr	r3, [r4, #12]
 102 000a 6361     		str	r3, [r4, #20]
 103              		.loc 1 114 0
 104 000c 0022     		movs	r2, #0
 105 000e A260     		str	r2, [r4, #8]
 106              		.loc 1 113 0
 107 0010 A361     		str	r3, [r4, #24]
 108              		.loc 1 115 0
 109 0012 2046     		mov	r0, r4
 110 0014 6FF00101 		mvn	r1, #1
 111              		.loc 1 116 0
 112 0018 BDE81040 		pop	{r4, lr}
 113              		.cfi_restore 14
 114              		.cfi_restore 4
ARM GAS  C:\Users\jo\AppData\Local\Temp\ccmoKYg3.s 			page 3


 115              		.cfi_def_cfa_offset 0
 116              	.LVL5:
 117              		.loc 1 115 0
 118 001c FFF7FEBF 		b	chThdDequeueAllI
 119              	.LVL6:
 120              		.cfi_endproc
 121              	.LFE227:
 122              		.size	chIQResetI, .-chIQResetI
 123              		.section	.text.chIQPutI,"ax",%progbits
 124              		.align	2
 125              		.p2align 4,,15
 126              		.global	chIQPutI
 127              		.thumb
 128              		.thumb_func
 129              		.type	chIQPutI, %function
 130              	chIQPutI:
 131              	.LFB228:
 132              		.loc 1 131 0
 133              		.cfi_startproc
 134              		@ args = 0, pretend = 0, frame = 0
 135              		@ frame_needed = 0, uses_anonymous_args = 0
 136              	.LVL7:
 137 0000 38B5     		push	{r3, r4, r5, lr}
 138              		.cfi_def_cfa_offset 16
 139              		.cfi_offset 3, -16
 140              		.cfi_offset 4, -12
 141              		.cfi_offset 5, -8
 142              		.cfi_offset 14, -4
 143              		.loc 1 131 0
 144 0002 0446     		mov	r4, r0
 145 0004 0D46     		mov	r5, r1
 146              		.loc 1 133 0
 147 0006 FFF7FEFF 		bl	chDbgCheckClassI
 148              	.LVL8:
 149              	.LBB71:
 150              	.LBB72:
 151              		.file 3 "../../../os/rt/include/chqueues.h"
 152              		.loc 3 319 0
 153 000a FFF7FEFF 		bl	chDbgCheckClassI
 154              	.LVL9:
 155              		.loc 3 321 0
 156 000e A369     		ldr	r3, [r4, #24]
 157 0010 6269     		ldr	r2, [r4, #20]
 158 0012 9A42     		cmp	r2, r3
 159 0014 A368     		ldr	r3, [r4, #8]
 160 0016 10D0     		beq	.L15
 161              	.L8:
 162              	.LBE72:
 163              	.LBE71:
 164              		.loc 1 139 0
 165 0018 0133     		adds	r3, r3, #1
 166              		.loc 1 140 0
 167 001a 511C     		adds	r1, r2, #1
 168              		.loc 1 139 0
 169 001c A360     		str	r3, [r4, #8]
 170              		.loc 1 140 0
 171 001e 6161     		str	r1, [r4, #20]
ARM GAS  C:\Users\jo\AppData\Local\Temp\ccmoKYg3.s 			page 4


 172 0020 1570     		strb	r5, [r2]
 173              		.loc 1 141 0
 174 0022 6269     		ldr	r2, [r4, #20]
 175 0024 2369     		ldr	r3, [r4, #16]
 176 0026 9A42     		cmp	r2, r3
 177 0028 01D3     		bcc	.L10
 178              		.loc 1 142 0
 179 002a E368     		ldr	r3, [r4, #12]
 180 002c 6361     		str	r3, [r4, #20]
 181              	.L10:
 182              		.loc 1 145 0
 183 002e 2046     		mov	r0, r4
 184 0030 0021     		movs	r1, #0
 185 0032 FFF7FEFF 		bl	chThdDequeueNextI
 186              	.LVL10:
 187              		.loc 1 147 0
 188 0036 0020     		movs	r0, #0
 189 0038 38BD     		pop	{r3, r4, r5, pc}
 190              	.LVL11:
 191              	.L15:
 192              	.LBB74:
 193              	.LBB73:
 194              		.loc 3 321 0
 195 003a 002B     		cmp	r3, #0
 196 003c ECD0     		beq	.L8
 197              	.LBE73:
 198              	.LBE74:
 199              		.loc 1 136 0
 200 003e 6FF00300 		mvn	r0, #3
 201 0042 38BD     		pop	{r3, r4, r5, pc}
 202              		.cfi_endproc
 203              	.LFE228:
 204              		.size	chIQPutI, .-chIQPutI
 205 0044 AFF30080 		.section	.text.chIQGetTimeout,"ax",%progbits
 205      AFF30080 
 205      AFF30080 
 206              		.align	2
 207              		.p2align 4,,15
 208              		.global	chIQGetTimeout
 209              		.thumb
 210              		.thumb_func
 211              		.type	chIQGetTimeout, %function
 212              	chIQGetTimeout:
 213              	.LFB229:
 214              		.loc 1 170 0
 215              		.cfi_startproc
 216              		@ args = 0, pretend = 0, frame = 0
 217              		@ frame_needed = 0, uses_anonymous_args = 0
 218              	.LVL12:
 219 0000 70B5     		push	{r4, r5, r6, lr}
 220              		.cfi_def_cfa_offset 16
 221              		.cfi_offset 4, -16
 222              		.cfi_offset 5, -12
 223              		.cfi_offset 6, -8
 224              		.cfi_offset 14, -4
 225              	.LBB93:
 226              	.LBB94:
ARM GAS  C:\Users\jo\AppData\Local\Temp\ccmoKYg3.s 			page 5


 227              	.LBB95:
 228              	.LBB96:
 229              	.LBB97:
 230              		.file 4 "../../../os/ext/CMSIS/include/core_cmFunc.h"
 231              		.loc 4 546 0
 232 0002 2023     		movs	r3, #32
 233              	.LBE97:
 234              	.LBE96:
 235              	.LBE95:
 236              	.LBE94:
 237              	.LBE93:
 238              		.loc 1 170 0
 239 0004 0446     		mov	r4, r0
 240 0006 0E46     		mov	r6, r1
 241              	.LBB102:
 242              	.LBB101:
 243              	.LBB100:
 244              	.LBB99:
 245              	.LBB98:
 246              		.loc 4 546 0
 247              	@ 546 "../../../os/ext/CMSIS/include/core_cmFunc.h" 1
 248 0008 83F31188 		MSR basepri, r3
 249              	@ 0 "" 2
 250              		.thumb
 251              	.LBE98:
 252              	.LBE99:
 253              	.LBE100:
 254              		.file 5 "../../../os/rt/include/chsys.h"
 255              		.loc 5 300 0
 256 000c FFF7FEFF 		bl	_stats_start_measure_crit_thd
 257              	.LVL13:
 258              		.loc 5 301 0
 259 0010 FFF7FEFF 		bl	_dbg_check_lock
 260              	.LVL14:
 261              	.LBE101:
 262              	.LBE102:
 263              		.loc 1 174 0
 264 0014 E369     		ldr	r3, [r4, #28]
 265 0016 33B1     		cbz	r3, .L18
 266              		.loc 1 175 0
 267 0018 2046     		mov	r0, r4
 268 001a 9847     		blx	r3
 269              	.LVL15:
 270 001c 03E0     		b	.L18
 271              	.LVL16:
 272              	.L21:
 273              	.LBB103:
 274              		.loc 1 180 0
 275 001e FFF7FEFF 		bl	chThdEnqueueTimeoutS
 276              	.LVL17:
 277 0022 051E     		subs	r5, r0, #0
 278 0024 12DB     		blt	.L22
 279              	.LVL18:
 280              	.L18:
 281              	.LBE103:
 282              	.LBB104:
 283              	.LBB105:
ARM GAS  C:\Users\jo\AppData\Local\Temp\ccmoKYg3.s 			page 6


 284              		.loc 3 302 0
 285 0026 FFF7FEFF 		bl	chDbgCheckClassI
 286              	.LVL19:
 287              		.loc 3 304 0
 288 002a A368     		ldr	r3, [r4, #8]
 289              	.LBE105:
 290              	.LBE104:
 291              	.LBB106:
 292              		.loc 1 180 0
 293 002c 2046     		mov	r0, r4
 294 002e 3146     		mov	r1, r6
 295              	.LBE106:
 296              		.loc 1 178 0
 297 0030 002B     		cmp	r3, #0
 298 0032 F4D0     		beq	.L21
 299              	.LVL20:
 300              		.loc 1 187 0
 301 0034 A169     		ldr	r1, [r4, #24]
 302              	.LVL21:
 303              		.loc 1 188 0
 304 0036 2069     		ldr	r0, [r4, #16]
 305              	.LVL22:
 306              		.loc 1 187 0
 307 0038 4A1C     		adds	r2, r1, #1
 308              		.loc 1 186 0
 309 003a 013B     		subs	r3, r3, #1
 310              		.loc 1 188 0
 311 003c 8242     		cmp	r2, r0
 312              		.loc 1 186 0
 313 003e A360     		str	r3, [r4, #8]
 314              		.loc 1 187 0
 315 0040 A261     		str	r2, [r4, #24]
 316              		.loc 1 189 0
 317 0042 28BF     		it	cs
 318 0044 E368     		ldrcs	r3, [r4, #12]
 319              		.loc 1 187 0
 320 0046 0D78     		ldrb	r5, [r1]	@ zero_extendqisi2
 321              	.LVL23:
 322              		.loc 1 189 0
 323 0048 28BF     		it	cs
 324 004a A361     		strcs	r3, [r4, #24]
 325              	.LVL24:
 326              	.L22:
 327              	.LBB107:
 328              	.LBB108:
 329              		.loc 5 311 0
 330 004c FFF7FEFF 		bl	_dbg_check_unlock
 331              	.LVL25:
 332              		.loc 5 312 0
 333 0050 FFF7FEFF 		bl	_stats_stop_measure_crit_thd
 334              	.LVL26:
 335              		.loc 5 318 0
 336 0054 094B     		ldr	r3, .L31
 337 0056 9A69     		ldr	r2, [r3, #24]
 338 0058 1B68     		ldr	r3, [r3]
 339 005a 9268     		ldr	r2, [r2, #8]
 340 005c 9B68     		ldr	r3, [r3, #8]
ARM GAS  C:\Users\jo\AppData\Local\Temp\ccmoKYg3.s 			page 7


 341 005e 9A42     		cmp	r2, r3
 342 0060 06D2     		bcs	.L23
 343 0062 0748     		ldr	r0, .L31+4
 344 0064 FFF7FEFF 		bl	puts
 345              	.LVL27:
 346              	@ 318 "../../../os/rt/include/chsys.h" 1
 347 0068 00BE     		BKPT #0
 348              	
 349              	@ 0 "" 2
 350              		.thumb
 351 006a 0648     		ldr	r0, .L31+8
 352 006c FFF7FEFF 		bl	chSysHalt
 353              	.LVL28:
 354              	.L23:
 355              	.LBB109:
 356              	.LBB110:
 357              	.LBB111:
 358              		.loc 4 546 0
 359 0070 0023     		movs	r3, #0
 360              	@ 546 "../../../os/ext/CMSIS/include/core_cmFunc.h" 1
 361 0072 83F31188 		MSR basepri, r3
 362              	@ 0 "" 2
 363              		.thumb
 364              	.LBE111:
 365              	.LBE110:
 366              	.LBE109:
 367              	.LBE108:
 368              	.LBE107:
 369              		.loc 1 193 0
 370 0076 2846     		mov	r0, r5
 371              		.loc 1 194 0
 372 0078 70BD     		pop	{r4, r5, r6, pc}
 373              	.LVL29:
 374              	.L32:
 375 007a 00BF     		.align	2
 376              	.L31:
 377 007c 00000000 		.word	ch
 378 0080 00000000 		.word	.LC0
 379 0084 00000000 		.word	.LANCHOR0
 380              		.cfi_endproc
 381              	.LFE229:
 382              		.size	chIQGetTimeout, .-chIQGetTimeout
 383 0088 AFF30080 		.section	.text.chIQReadTimeout,"ax",%progbits
 383      AFF30080 
 384              		.align	2
 385              		.p2align 4,,15
 386              		.global	chIQReadTimeout
 387              		.thumb
 388              		.thumb_func
 389              		.type	chIQReadTimeout, %function
 390              	chIQReadTimeout:
 391              	.LFB230:
 392              		.loc 1 221 0
 393              		.cfi_startproc
 394              		@ args = 0, pretend = 0, frame = 0
 395              		@ frame_needed = 0, uses_anonymous_args = 0
 396              	.LVL30:
ARM GAS  C:\Users\jo\AppData\Local\Temp\ccmoKYg3.s 			page 8


 397 0000 2DE9F84F 		push	{r3, r4, r5, r6, r7, r8, r9, r10, fp, lr}
 398              		.cfi_def_cfa_offset 40
 399              		.cfi_offset 3, -40
 400              		.cfi_offset 4, -36
 401              		.cfi_offset 5, -32
 402              		.cfi_offset 6, -28
 403              		.cfi_offset 7, -24
 404              		.cfi_offset 8, -20
 405              		.cfi_offset 9, -16
 406              		.cfi_offset 10, -12
 407              		.cfi_offset 11, -8
 408              		.cfi_offset 14, -4
 409              		.loc 1 221 0
 410 0004 0446     		mov	r4, r0
 411 0006 8946     		mov	r9, r1
 412 0008 1D46     		mov	r5, r3
 413              		.loc 1 222 0
 414 000a D0F81C80 		ldr	r8, [r0, #28]
 415              	.LVL31:
 416              		.loc 1 225 0
 417 000e 9246     		mov	r10, r2
 418 0010 002A     		cmp	r2, #0
 419 0012 5DD0     		beq	.L49
 420              	.LVL32:
 421              	.L34:
 422              	.LBB134:
 423              	.LBB135:
 424              	.LBB136:
 425              	.LBB137:
 426              	.LBB138:
 427              		.loc 4 546 0
 428 0014 2023     		movs	r3, #32
 429              	@ 546 "../../../os/ext/CMSIS/include/core_cmFunc.h" 1
 430 0016 83F31188 		MSR basepri, r3
 431              	@ 0 "" 2
 432              		.thumb
 433              	.LBE138:
 434              	.LBE137:
 435              	.LBE136:
 436              		.loc 5 300 0
 437 001a FFF7FEFF 		bl	_stats_start_measure_crit_thd
 438              	.LVL33:
 439              		.loc 5 301 0
 440 001e FFF7FEFF 		bl	_dbg_check_lock
 441              	.LVL34:
 442              	.LBE135:
 443              	.LBE134:
 444              		.loc 1 223 0
 445 0022 0026     		movs	r6, #0
 446 0024 2C4F     		ldr	r7, .L51
 447              	.LBB139:
 448              	.LBB140:
 449              	.LBB141:
 450              	.LBB142:
 451              	.LBB143:
 452              		.loc 4 546 0
 453 0026 B346     		mov	fp, r6
ARM GAS  C:\Users\jo\AppData\Local\Temp\ccmoKYg3.s 			page 9


 454              	.LVL35:
 455              	.L42:
 456              	.LBE143:
 457              	.LBE142:
 458              	.LBE141:
 459              	.LBE140:
 460              	.LBE139:
 461              		.loc 1 229 0
 462 0028 B8F1000F 		cmp	r8, #0
 463 002c 06D0     		beq	.L36
 464              		.loc 1 230 0
 465 002e 2046     		mov	r0, r4
 466 0030 C047     		blx	r8
 467              	.LVL36:
 468 0032 03E0     		b	.L36
 469              	.LVL37:
 470              	.L39:
 471              		.loc 1 234 0
 472 0034 FFF7FEFF 		bl	chThdEnqueueTimeoutS
 473              	.LVL38:
 474 0038 0028     		cmp	r0, #0
 475 003a 32D1     		bne	.L50
 476              	.LVL39:
 477              	.L36:
 478              	.LBB148:
 479              	.LBB149:
 480              		.loc 3 302 0
 481 003c FFF7FEFF 		bl	chDbgCheckClassI
 482              	.LVL40:
 483              		.loc 3 304 0
 484 0040 A368     		ldr	r3, [r4, #8]
 485              	.LBE149:
 486              	.LBE148:
 487              		.loc 1 234 0
 488 0042 2046     		mov	r0, r4
 489 0044 2946     		mov	r1, r5
 490              		.loc 1 233 0
 491 0046 002B     		cmp	r3, #0
 492 0048 F4D0     		beq	.L39
 493              	.LVL41:
 494              		.loc 1 241 0
 495 004a A269     		ldr	r2, [r4, #24]
 496              		.loc 1 240 0
 497 004c 013B     		subs	r3, r3, #1
 498              		.loc 1 241 0
 499 004e 511C     		adds	r1, r2, #1
 500              	.LVL42:
 501 0050 A161     		str	r1, [r4, #24]
 502              		.loc 1 240 0
 503 0052 A360     		str	r3, [r4, #8]
 504              		.loc 1 241 0
 505 0054 1378     		ldrb	r3, [r2]	@ zero_extendqisi2
 506 0056 09F8013B 		strb	r3, [r9], #1
 507              	.LVL43:
 508              		.loc 1 242 0
 509 005a 2369     		ldr	r3, [r4, #16]
 510 005c A269     		ldr	r2, [r4, #24]
ARM GAS  C:\Users\jo\AppData\Local\Temp\ccmoKYg3.s 			page 10


 511 005e 9A42     		cmp	r2, r3
 512              		.loc 1 243 0
 513 0060 24BF     		itt	cs
 514 0062 E368     		ldrcs	r3, [r4, #12]
 515 0064 A361     		strcs	r3, [r4, #24]
 516              	.LBB150:
 517              	.LBB147:
 518              		.loc 5 311 0
 519 0066 FFF7FEFF 		bl	_dbg_check_unlock
 520              	.LVL44:
 521              		.loc 5 312 0
 522 006a FFF7FEFF 		bl	_stats_stop_measure_crit_thd
 523              	.LVL45:
 524              		.loc 5 318 0
 525 006e BA69     		ldr	r2, [r7, #24]
 526 0070 3B68     		ldr	r3, [r7]
 527 0072 9268     		ldr	r2, [r2, #8]
 528 0074 9B68     		ldr	r3, [r3, #8]
 529 0076 9A42     		cmp	r2, r3
 530 0078 06D2     		bcs	.L41
 531 007a 1848     		ldr	r0, .L51+4
 532 007c FFF7FEFF 		bl	puts
 533              	.LVL46:
 534              	@ 318 "../../../os/rt/include/chsys.h" 1
 535 0080 00BE     		BKPT #0
 536              	
 537              	@ 0 "" 2
 538              		.thumb
 539 0082 1748     		ldr	r0, .L51+8
 540 0084 FFF7FEFF 		bl	chSysHalt
 541              	.LVL47:
 542              	.L41:
 543              	.LBB146:
 544              	.LBB145:
 545              	.LBB144:
 546              		.loc 4 546 0
 547              	@ 546 "../../../os/ext/CMSIS/include/core_cmFunc.h" 1
 548 0088 8BF31188 		MSR basepri, fp
 549              	@ 0 "" 2
 550              		.thumb
 551              	.LBE144:
 552              	.LBE145:
 553              	.LBE146:
 554              	.LBE147:
 555              	.LBE150:
 556              		.loc 1 246 0
 557 008c 0136     		adds	r6, r6, #1
 558              	.LVL48:
 559              		.loc 1 247 0
 560 008e B245     		cmp	r10, r6
 561 0090 1BD0     		beq	.L38
 562              	.LVL49:
 563              	.LBB151:
 564              	.LBB152:
 565              	.LBB153:
 566              	.LBB154:
 567              	.LBB155:
ARM GAS  C:\Users\jo\AppData\Local\Temp\ccmoKYg3.s 			page 11


 568              		.loc 4 546 0
 569 0092 2023     		movs	r3, #32
 570              	@ 546 "../../../os/ext/CMSIS/include/core_cmFunc.h" 1
 571 0094 83F31188 		MSR basepri, r3
 572              	@ 0 "" 2
 573              		.thumb
 574              	.LBE155:
 575              	.LBE154:
 576              	.LBE153:
 577              		.loc 5 300 0
 578 0098 FFF7FEFF 		bl	_stats_start_measure_crit_thd
 579              	.LVL50:
 580              		.loc 5 301 0
 581 009c FFF7FEFF 		bl	_dbg_check_lock
 582              	.LVL51:
 583 00a0 C2E7     		b	.L42
 584              	.LVL52:
 585              	.L50:
 586              	.LBE152:
 587              	.LBE151:
 588              	.LBB156:
 589              	.LBB157:
 590              		.loc 5 311 0
 591 00a2 FFF7FEFF 		bl	_dbg_check_unlock
 592              	.LVL53:
 593              		.loc 5 312 0
 594 00a6 FFF7FEFF 		bl	_stats_stop_measure_crit_thd
 595              	.LVL54:
 596              		.loc 5 318 0
 597 00aa BA69     		ldr	r2, [r7, #24]
 598 00ac 3B68     		ldr	r3, [r7]
 599 00ae 9268     		ldr	r2, [r2, #8]
 600 00b0 9B68     		ldr	r3, [r3, #8]
 601 00b2 9A42     		cmp	r2, r3
 602 00b4 06D2     		bcs	.L37
 603 00b6 0948     		ldr	r0, .L51+4
 604 00b8 FFF7FEFF 		bl	puts
 605              	.LVL55:
 606              	@ 318 "../../../os/rt/include/chsys.h" 1
 607 00bc 00BE     		BKPT #0
 608              	
 609              	@ 0 "" 2
 610              		.thumb
 611 00be 0848     		ldr	r0, .L51+8
 612 00c0 FFF7FEFF 		bl	chSysHalt
 613              	.LVL56:
 614              	.L37:
 615              	.LBB158:
 616              	.LBB159:
 617              	.LBB160:
 618              		.loc 4 546 0
 619 00c4 0023     		movs	r3, #0
 620              	@ 546 "../../../os/ext/CMSIS/include/core_cmFunc.h" 1
 621 00c6 83F31188 		MSR basepri, r3
 622              	@ 0 "" 2
 623              	.LVL57:
 624              		.thumb
ARM GAS  C:\Users\jo\AppData\Local\Temp\ccmoKYg3.s 			page 12


 625              	.L38:
 626              	.LBE160:
 627              	.LBE159:
 628              	.LBE158:
 629              	.LBE157:
 630              	.LBE156:
 631              		.loc 1 253 0
 632 00ca 3046     		mov	r0, r6
 633 00cc BDE8F88F 		pop	{r3, r4, r5, r6, r7, r8, r9, r10, fp, pc}
 634              	.LVL58:
 635              	.L49:
 636              		.loc 1 225 0 discriminator 1
 637 00d0 0448     		ldr	r0, .L51+12
 638              	.LVL59:
 639 00d2 FFF7FEFF 		bl	chSysHalt
 640              	.LVL60:
 641 00d6 9DE7     		b	.L34
 642              	.L52:
 643              		.align	2
 644              	.L51:
 645 00d8 00000000 		.word	ch
 646 00dc 00000000 		.word	.LC0
 647 00e0 00000000 		.word	.LANCHOR0
 648 00e4 00000000 		.word	.LANCHOR1
 649              		.cfi_endproc
 650              	.LFE230:
 651              		.size	chIQReadTimeout, .-chIQReadTimeout
 652 00e8 AFF30080 		.section	.text.chOQObjectInit,"ax",%progbits
 652      AFF30080 
 653              		.align	2
 654              		.p2align 4,,15
 655              		.global	chOQObjectInit
 656              		.thumb
 657              		.thumb_func
 658              		.type	chOQObjectInit, %function
 659              	chOQObjectInit:
 660              	.LFB231:
 661              		.loc 1 272 0
 662              		.cfi_startproc
 663              		@ args = 4, pretend = 0, frame = 0
 664              		@ frame_needed = 0, uses_anonymous_args = 0
 665              		@ link register save eliminated.
 666              	.LVL61:
 667 0000 30B4     		push	{r4, r5}
 668              		.cfi_def_cfa_offset 8
 669              		.cfi_offset 4, -8
 670              		.cfi_offset 5, -4
 671              		.loc 1 272 0
 672 0002 029C     		ldr	r4, [sp, #8]
 673              		.loc 1 279 0
 674 0004 0462     		str	r4, [r0, #32]
 675              		.loc 1 277 0
 676 0006 8D18     		adds	r5, r1, r2
 677 0008 0561     		str	r5, [r0, #16]
 678              	.LBB161:
 679              	.LBB162:
 680              	.LBB163:
ARM GAS  C:\Users\jo\AppData\Local\Temp\ccmoKYg3.s 			page 13


 681              		.loc 2 574 0
 682 000a 4060     		str	r0, [r0, #4]
 683 000c 0060     		str	r0, [r0]
 684              	.LBE163:
 685              	.LBE162:
 686              	.LBE161:
 687              		.loc 1 275 0
 688 000e 8260     		str	r2, [r0, #8]
 689              		.loc 1 276 0
 690 0010 4161     		str	r1, [r0, #20]
 691 0012 8161     		str	r1, [r0, #24]
 692 0014 C160     		str	r1, [r0, #12]
 693              		.loc 1 278 0
 694 0016 C361     		str	r3, [r0, #28]
 695              		.loc 1 280 0
 696 0018 30BC     		pop	{r4, r5}
 697              		.cfi_restore 5
 698              		.cfi_restore 4
 699              		.cfi_def_cfa_offset 0
 700              	.LVL62:
 701 001a 7047     		bx	lr
 702              		.cfi_endproc
 703              	.LFE231:
 704              		.size	chOQObjectInit, .-chOQObjectInit
 705 001c AFF30080 		.section	.text.chOQResetI,"ax",%progbits
 706              		.align	2
 707              		.p2align 4,,15
 708              		.global	chOQResetI
 709              		.thumb
 710              		.thumb_func
 711              		.type	chOQResetI, %function
 712              	chOQResetI:
 713              	.LFB232:
 714              		.loc 1 293 0
 715              		.cfi_startproc
 716              		@ args = 0, pretend = 0, frame = 0
 717              		@ frame_needed = 0, uses_anonymous_args = 0
 718              	.LVL63:
 719 0000 10B5     		push	{r4, lr}
 720              		.cfi_def_cfa_offset 8
 721              		.cfi_offset 4, -8
 722              		.cfi_offset 14, -4
 723              		.loc 1 293 0
 724 0002 0446     		mov	r4, r0
 725              		.loc 1 295 0
 726 0004 FFF7FEFF 		bl	chDbgCheckClassI
 727              	.LVL64:
 728              		.loc 1 297 0
 729 0008 E268     		ldr	r2, [r4, #12]
 730              		.loc 1 298 0
 731 000a 2369     		ldr	r3, [r4, #16]
 732              		.loc 1 297 0
 733 000c 6261     		str	r2, [r4, #20]
 734              		.loc 1 298 0
 735 000e 9B1A     		subs	r3, r3, r2
 736              		.loc 1 297 0
 737 0010 A261     		str	r2, [r4, #24]
ARM GAS  C:\Users\jo\AppData\Local\Temp\ccmoKYg3.s 			page 14


 738              		.loc 1 298 0
 739 0012 A360     		str	r3, [r4, #8]
 740              		.loc 1 299 0
 741 0014 2046     		mov	r0, r4
 742 0016 6FF00101 		mvn	r1, #1
 743              		.loc 1 300 0
 744 001a BDE81040 		pop	{r4, lr}
 745              		.cfi_restore 14
 746              		.cfi_restore 4
 747              		.cfi_def_cfa_offset 0
 748              	.LVL65:
 749              		.loc 1 299 0
 750 001e FFF7FEBF 		b	chThdDequeueAllI
 751              	.LVL66:
 752              		.cfi_endproc
 753              	.LFE232:
 754              		.size	chOQResetI, .-chOQResetI
 755 0022 00BFAFF3 		.section	.text.chOQPutTimeout,"ax",%progbits
 755      0080AFF3 
 755      0080AFF3 
 755      0080
 756              		.align	2
 757              		.p2align 4,,15
 758              		.global	chOQPutTimeout
 759              		.thumb
 760              		.thumb_func
 761              		.type	chOQPutTimeout, %function
 762              	chOQPutTimeout:
 763              	.LFB233:
 764              		.loc 1 324 0
 765              		.cfi_startproc
 766              		@ args = 0, pretend = 0, frame = 0
 767              		@ frame_needed = 0, uses_anonymous_args = 0
 768              	.LVL67:
 769 0000 F8B5     		push	{r3, r4, r5, r6, r7, lr}
 770              		.cfi_def_cfa_offset 24
 771              		.cfi_offset 3, -24
 772              		.cfi_offset 4, -20
 773              		.cfi_offset 5, -16
 774              		.cfi_offset 6, -12
 775              		.cfi_offset 7, -8
 776              		.cfi_offset 14, -4
 777              		.loc 1 324 0
 778 0002 0446     		mov	r4, r0
 779 0004 0F46     		mov	r7, r1
 780 0006 1646     		mov	r6, r2
 781              	.LBB182:
 782              	.LBB183:
 783              	.LBB184:
 784              	.LBB185:
 785              	.LBB186:
 786              		.loc 4 546 0
 787 0008 2023     		movs	r3, #32
 788              	@ 546 "../../../os/ext/CMSIS/include/core_cmFunc.h" 1
 789 000a 83F31188 		MSR basepri, r3
 790              	@ 0 "" 2
 791              		.thumb
ARM GAS  C:\Users\jo\AppData\Local\Temp\ccmoKYg3.s 			page 15


 792              	.LBE186:
 793              	.LBE185:
 794              	.LBE184:
 795              		.loc 5 300 0
 796 000e FFF7FEFF 		bl	_stats_start_measure_crit_thd
 797              	.LVL68:
 798              		.loc 5 301 0
 799 0012 FFF7FEFF 		bl	_dbg_check_lock
 800              	.LVL69:
 801 0016 03E0     		b	.L58
 802              	.LVL70:
 803              	.L61:
 804              	.LBE183:
 805              	.LBE182:
 806              	.LBB187:
 807              		.loc 1 330 0
 808 0018 FFF7FEFF 		bl	chThdEnqueueTimeoutS
 809              	.LVL71:
 810 001c 051E     		subs	r5, r0, #0
 811 001e 25DB     		blt	.L70
 812              	.LVL72:
 813              	.L58:
 814              	.LBE187:
 815              	.LBB193:
 816              	.LBB194:
 817              		.loc 3 402 0
 818 0020 FFF7FEFF 		bl	chDbgCheckClassI
 819              	.LVL73:
 820              		.loc 3 404 0
 821 0024 A368     		ldr	r3, [r4, #8]
 822              	.LBE194:
 823              	.LBE193:
 824              	.LBB195:
 825              		.loc 1 330 0
 826 0026 2046     		mov	r0, r4
 827 0028 3146     		mov	r1, r6
 828              	.LBE195:
 829              		.loc 1 327 0
 830 002a 002B     		cmp	r3, #0
 831 002c F4D0     		beq	.L61
 832              	.LVL74:
 833              		.loc 1 337 0
 834 002e 6269     		ldr	r2, [r4, #20]
 835              		.loc 1 336 0
 836 0030 013B     		subs	r3, r3, #1
 837              		.loc 1 337 0
 838 0032 511C     		adds	r1, r2, #1
 839              	.LVL75:
 840 0034 6161     		str	r1, [r4, #20]
 841              		.loc 1 336 0
 842 0036 A360     		str	r3, [r4, #8]
 843              		.loc 1 337 0
 844 0038 1770     		strb	r7, [r2]
 845              		.loc 1 338 0
 846 003a 2369     		ldr	r3, [r4, #16]
 847 003c 6269     		ldr	r2, [r4, #20]
 848 003e 9A42     		cmp	r2, r3
ARM GAS  C:\Users\jo\AppData\Local\Temp\ccmoKYg3.s 			page 16


 849              		.loc 1 339 0
 850 0040 24BF     		itt	cs
 851 0042 E368     		ldrcs	r3, [r4, #12]
 852 0044 6361     		strcs	r3, [r4, #20]
 853              		.loc 1 342 0
 854 0046 E369     		ldr	r3, [r4, #28]
 855 0048 0BB1     		cbz	r3, .L63
 856              		.loc 1 343 0
 857 004a 2046     		mov	r0, r4
 858              	.LVL76:
 859 004c 9847     		blx	r3
 860              	.LVL77:
 861              	.L63:
 862              	.LBB196:
 863              	.LBB197:
 864              		.loc 5 311 0
 865 004e FFF7FEFF 		bl	_dbg_check_unlock
 866              	.LVL78:
 867              		.loc 5 312 0
 868 0052 FFF7FEFF 		bl	_stats_stop_measure_crit_thd
 869              	.LVL79:
 870              		.loc 5 318 0
 871 0056 164B     		ldr	r3, .L72
 872 0058 9A69     		ldr	r2, [r3, #24]
 873 005a 1B68     		ldr	r3, [r3]
 874 005c 9268     		ldr	r2, [r2, #8]
 875 005e 9B68     		ldr	r3, [r3, #8]
 876 0060 9A42     		cmp	r2, r3
 877 0062 1AD3     		bcc	.L71
 878              	.LVL80:
 879              	.LBB198:
 880              	.LBB199:
 881              	.LBB200:
 882              		.loc 4 546 0
 883 0064 0020     		movs	r0, #0
 884              	@ 546 "../../../os/ext/CMSIS/include/core_cmFunc.h" 1
 885 0066 80F31188 		MSR basepri, r0
 886              	@ 0 "" 2
 887              		.thumb
 888              	.LBE200:
 889              	.LBE199:
 890              	.LBE198:
 891              	.LBE197:
 892              	.LBE196:
 893              		.loc 1 348 0
 894 006a F8BD     		pop	{r3, r4, r5, r6, r7, pc}
 895              	.LVL81:
 896              	.L70:
 897              	.LBB205:
 898              	.LBB188:
 899              	.LBB189:
 900              		.loc 5 311 0
 901 006c FFF7FEFF 		bl	_dbg_check_unlock
 902              	.LVL82:
 903              		.loc 5 312 0
 904 0070 FFF7FEFF 		bl	_stats_stop_measure_crit_thd
 905              	.LVL83:
ARM GAS  C:\Users\jo\AppData\Local\Temp\ccmoKYg3.s 			page 17


 906              		.loc 5 318 0
 907 0074 0E4B     		ldr	r3, .L72
 908 0076 9A69     		ldr	r2, [r3, #24]
 909 0078 1B68     		ldr	r3, [r3]
 910 007a 9268     		ldr	r2, [r2, #8]
 911 007c 9B68     		ldr	r3, [r3, #8]
 912 007e 9A42     		cmp	r2, r3
 913 0080 06D2     		bcs	.L59
 914 0082 0C48     		ldr	r0, .L72+4
 915 0084 FFF7FEFF 		bl	puts
 916              	.LVL84:
 917              	@ 318 "../../../os/rt/include/chsys.h" 1
 918 0088 00BE     		BKPT #0
 919              	
 920              	@ 0 "" 2
 921              		.thumb
 922 008a 0B48     		ldr	r0, .L72+8
 923 008c FFF7FEFF 		bl	chSysHalt
 924              	.LVL85:
 925              	.L59:
 926              	.LBB190:
 927              	.LBB191:
 928              	.LBB192:
 929              		.loc 4 546 0
 930 0090 0023     		movs	r3, #0
 931              	@ 546 "../../../os/ext/CMSIS/include/core_cmFunc.h" 1
 932 0092 83F31188 		MSR basepri, r3
 933              	@ 0 "" 2
 934              		.thumb
 935              	.LBE192:
 936              	.LBE191:
 937              	.LBE190:
 938              	.LBE189:
 939              	.LBE188:
 940              		.loc 1 330 0
 941 0096 2846     		mov	r0, r5
 942              		.loc 1 332 0
 943 0098 F8BD     		pop	{r3, r4, r5, r6, r7, pc}
 944              	.LVL86:
 945              	.L71:
 946              	.LBE205:
 947              	.LBB206:
 948              	.LBB204:
 949              		.loc 5 318 0
 950 009a 0648     		ldr	r0, .L72+4
 951 009c FFF7FEFF 		bl	puts
 952              	.LVL87:
 953              	@ 318 "../../../os/rt/include/chsys.h" 1
 954 00a0 00BE     		BKPT #0
 955              	
 956              	@ 0 "" 2
 957              		.thumb
 958 00a2 0548     		ldr	r0, .L72+8
 959 00a4 FFF7FEFF 		bl	chSysHalt
 960              	.LVL88:
 961              	.LBB203:
 962              	.LBB202:
ARM GAS  C:\Users\jo\AppData\Local\Temp\ccmoKYg3.s 			page 18


 963              	.LBB201:
 964              		.loc 4 546 0
 965 00a8 0020     		movs	r0, #0
 966              	@ 546 "../../../os/ext/CMSIS/include/core_cmFunc.h" 1
 967 00aa 80F31188 		MSR basepri, r0
 968              	@ 0 "" 2
 969              		.thumb
 970              	.LBE201:
 971              	.LBE202:
 972              	.LBE203:
 973              	.LBE204:
 974              	.LBE206:
 975              		.loc 1 348 0
 976 00ae F8BD     		pop	{r3, r4, r5, r6, r7, pc}
 977              	.LVL89:
 978              	.L73:
 979              		.align	2
 980              	.L72:
 981 00b0 00000000 		.word	ch
 982 00b4 00000000 		.word	.LC0
 983 00b8 00000000 		.word	.LANCHOR0
 984              		.cfi_endproc
 985              	.LFE233:
 986              		.size	chOQPutTimeout, .-chOQPutTimeout
 987 00bc AFF30080 		.section	.text.chOQGetI,"ax",%progbits
 988              		.align	2
 989              		.p2align 4,,15
 990              		.global	chOQGetI
 991              		.thumb
 992              		.thumb_func
 993              		.type	chOQGetI, %function
 994              	chOQGetI:
 995              	.LFB234:
 996              		.loc 1 360 0
 997              		.cfi_startproc
 998              		@ args = 0, pretend = 0, frame = 0
 999              		@ frame_needed = 0, uses_anonymous_args = 0
 1000              	.LVL90:
 1001 0000 38B5     		push	{r3, r4, r5, lr}
 1002              		.cfi_def_cfa_offset 16
 1003              		.cfi_offset 3, -16
 1004              		.cfi_offset 4, -12
 1005              		.cfi_offset 5, -8
 1006              		.cfi_offset 14, -4
 1007              		.loc 1 360 0
 1008 0002 0446     		mov	r4, r0
 1009              		.loc 1 363 0
 1010 0004 FFF7FEFF 		bl	chDbgCheckClassI
 1011              	.LVL91:
 1012              	.LBB207:
 1013              	.LBB208:
 1014              		.loc 3 385 0
 1015 0008 FFF7FEFF 		bl	chDbgCheckClassI
 1016              	.LVL92:
 1017              		.loc 3 387 0
 1018 000c 6369     		ldr	r3, [r4, #20]
 1019 000e A269     		ldr	r2, [r4, #24]
ARM GAS  C:\Users\jo\AppData\Local\Temp\ccmoKYg3.s 			page 19


 1020 0010 9342     		cmp	r3, r2
 1021 0012 A368     		ldr	r3, [r4, #8]
 1022 0014 0FD0     		beq	.L83
 1023              	.L77:
 1024              	.LBE208:
 1025              	.LBE207:
 1026              		.loc 1 371 0
 1027 0016 2069     		ldr	r0, [r4, #16]
 1028              		.loc 1 370 0
 1029 0018 511C     		adds	r1, r2, #1
 1030              		.loc 1 369 0
 1031 001a 0133     		adds	r3, r3, #1
 1032 001c A360     		str	r3, [r4, #8]
 1033              		.loc 1 370 0
 1034 001e A161     		str	r1, [r4, #24]
 1035              		.loc 1 371 0
 1036 0020 8142     		cmp	r1, r0
 1037              		.loc 1 370 0
 1038 0022 1578     		ldrb	r5, [r2]	@ zero_extendqisi2
 1039              	.LVL93:
 1040              		.loc 1 371 0
 1041 0024 01D3     		bcc	.L79
 1042              		.loc 1 372 0
 1043 0026 E368     		ldr	r3, [r4, #12]
 1044 0028 A361     		str	r3, [r4, #24]
 1045              	.L79:
 1046              		.loc 1 375 0
 1047 002a 2046     		mov	r0, r4
 1048 002c 0021     		movs	r1, #0
 1049 002e FFF7FEFF 		bl	chThdDequeueNextI
 1050              	.LVL94:
 1051              		.loc 1 377 0
 1052 0032 2846     		mov	r0, r5
 1053 0034 38BD     		pop	{r3, r4, r5, pc}
 1054              	.LVL95:
 1055              	.L83:
 1056              	.LBB210:
 1057              	.LBB209:
 1058              		.loc 3 387 0
 1059 0036 002B     		cmp	r3, #0
 1060 0038 EDD0     		beq	.L77
 1061              	.LBE209:
 1062              	.LBE210:
 1063              		.loc 1 366 0
 1064 003a 6FF00200 		mvn	r0, #2
 1065 003e 38BD     		pop	{r3, r4, r5, pc}
 1066              		.cfi_endproc
 1067              	.LFE234:
 1068              		.size	chOQGetI, .-chOQGetI
 1069              		.section	.text.chOQWriteTimeout,"ax",%progbits
 1070              		.align	2
 1071              		.p2align 4,,15
 1072              		.global	chOQWriteTimeout
 1073              		.thumb
 1074              		.thumb_func
 1075              		.type	chOQWriteTimeout, %function
 1076              	chOQWriteTimeout:
ARM GAS  C:\Users\jo\AppData\Local\Temp\ccmoKYg3.s 			page 20


 1077              	.LFB235:
 1078              		.loc 1 405 0
 1079              		.cfi_startproc
 1080              		@ args = 0, pretend = 0, frame = 8
 1081              		@ frame_needed = 0, uses_anonymous_args = 0
 1082              	.LVL96:
 1083 0000 2DE9F04F 		push	{r4, r5, r6, r7, r8, r9, r10, fp, lr}
 1084              		.cfi_def_cfa_offset 36
 1085              		.cfi_offset 4, -36
 1086              		.cfi_offset 5, -32
 1087              		.cfi_offset 6, -28
 1088              		.cfi_offset 7, -24
 1089              		.cfi_offset 8, -20
 1090              		.cfi_offset 9, -16
 1091              		.cfi_offset 10, -12
 1092              		.cfi_offset 11, -8
 1093              		.cfi_offset 14, -4
 1094 0004 83B0     		sub	sp, sp, #12
 1095              		.cfi_def_cfa_offset 48
 1096              		.loc 1 405 0
 1097 0006 8346     		mov	fp, r0
 1098 0008 0C46     		mov	r4, r1
 1099 000a 0193     		str	r3, [sp, #4]
 1100              		.loc 1 406 0
 1101 000c D0F81C90 		ldr	r9, [r0, #28]
 1102              	.LVL97:
 1103              		.loc 1 409 0
 1104 0010 1546     		mov	r5, r2
 1105 0012 002A     		cmp	r2, #0
 1106 0014 66D0     		beq	.L104
 1107              	.LVL98:
 1108              	.L85:
 1109              	.LBB233:
 1110              	.LBB234:
 1111              	.LBB235:
 1112              	.LBB236:
 1113              	.LBB237:
 1114              		.loc 4 546 0
 1115 0016 2023     		movs	r3, #32
 1116              	@ 546 "../../../os/ext/CMSIS/include/core_cmFunc.h" 1
 1117 0018 83F31188 		MSR basepri, r3
 1118              	@ 0 "" 2
 1119              		.thumb
 1120              	.LBE237:
 1121              	.LBE236:
 1122              	.LBE235:
 1123              		.loc 5 300 0
 1124 001c FFF7FEFF 		bl	_stats_start_measure_crit_thd
 1125              	.LVL99:
 1126              		.loc 5 301 0
 1127 0020 FFF7FEFF 		bl	_dbg_check_lock
 1128              	.LVL100:
 1129              	.LBE234:
 1130              	.LBE233:
 1131              		.loc 1 407 0
 1132 0024 0027     		movs	r7, #0
 1133 0026 DFF8E880 		ldr	r8, .L106+12
ARM GAS  C:\Users\jo\AppData\Local\Temp\ccmoKYg3.s 			page 21


 1134              	.LBB238:
 1135              	.LBB239:
 1136              	.LBB240:
 1137              	.LBB241:
 1138              	.LBB242:
 1139              		.loc 4 546 0
 1140 002a BA46     		mov	r10, r7
 1141              	.LVL101:
 1142              	.L86:
 1143              	.LBE242:
 1144              	.LBE241:
 1145              	.LBE240:
 1146              	.LBE239:
 1147              	.LBE238:
 1148              	.LBB247:
 1149              	.LBB248:
 1150              		.loc 3 402 0
 1151 002c FFF7FEFF 		bl	chDbgCheckClassI
 1152              	.LVL102:
 1153              		.loc 3 404 0
 1154 0030 DBF80830 		ldr	r3, [fp, #8]
 1155              	.LBE248:
 1156              	.LBE247:
 1157              		.loc 1 420 0
 1158 0034 661C     		adds	r6, r4, #1
 1159              	.LVL103:
 1160              		.loc 1 419 0
 1161 0036 5A1E     		subs	r2, r3, #1
 1162              		.loc 1 426 0
 1163 0038 5846     		mov	r0, fp
 1164              		.loc 1 413 0
 1165 003a 002B     		cmp	r3, #0
 1166 003c 39D0     		beq	.L90
 1167              	.LVL104:
 1168              		.loc 1 420 0
 1169 003e DBF81430 		ldr	r3, [fp, #20]
 1170              		.loc 1 419 0
 1171 0042 CBF80820 		str	r2, [fp, #8]
 1172              		.loc 1 420 0
 1173 0046 5A1C     		adds	r2, r3, #1
 1174 0048 CBF81420 		str	r2, [fp, #20]
 1175 004c 2278     		ldrb	r2, [r4]	@ zero_extendqisi2
 1176 004e 1A70     		strb	r2, [r3]
 1177              		.loc 1 421 0
 1178 0050 DBF81030 		ldr	r3, [fp, #16]
 1179 0054 DBF81420 		ldr	r2, [fp, #20]
 1180 0058 9A42     		cmp	r2, r3
 1181              		.loc 1 422 0
 1182 005a 24BF     		itt	cs
 1183 005c DBF80C30 		ldrcs	r3, [fp, #12]
 1184 0060 CBF81430 		strcs	r3, [fp, #20]
 1185              		.loc 1 425 0
 1186 0064 B9F1000F 		cmp	r9, #0
 1187 0068 00D0     		beq	.L92
 1188              		.loc 1 426 0
 1189 006a C847     		blx	r9
 1190              	.LVL105:
ARM GAS  C:\Users\jo\AppData\Local\Temp\ccmoKYg3.s 			page 22


 1191              	.L92:
 1192              	.LBB249:
 1193              	.LBB246:
 1194              		.loc 5 311 0
 1195 006c FFF7FEFF 		bl	_dbg_check_unlock
 1196              	.LVL106:
 1197              		.loc 5 312 0
 1198 0070 FFF7FEFF 		bl	_stats_stop_measure_crit_thd
 1199              	.LVL107:
 1200              		.loc 5 318 0
 1201 0074 D8F81820 		ldr	r2, [r8, #24]
 1202 0078 D8F80030 		ldr	r3, [r8]
 1203 007c 9268     		ldr	r2, [r2, #8]
 1204 007e 9B68     		ldr	r3, [r3, #8]
 1205 0080 9A42     		cmp	r2, r3
 1206 0082 06D2     		bcs	.L93
 1207 0084 1F48     		ldr	r0, .L106
 1208 0086 FFF7FEFF 		bl	puts
 1209              	.LVL108:
 1210              	@ 318 "../../../os/rt/include/chsys.h" 1
 1211 008a 00BE     		BKPT #0
 1212              	
 1213              	@ 0 "" 2
 1214              		.thumb
 1215 008c 1E48     		ldr	r0, .L106+4
 1216 008e FFF7FEFF 		bl	chSysHalt
 1217              	.LVL109:
 1218              	.L93:
 1219              	.LBB245:
 1220              	.LBB244:
 1221              	.LBB243:
 1222              		.loc 4 546 0
 1223              	@ 546 "../../../os/ext/CMSIS/include/core_cmFunc.h" 1
 1224 0092 8AF31188 		MSR basepri, r10
 1225              	@ 0 "" 2
 1226              	.LVL110:
 1227              		.thumb
 1228              	.LBE243:
 1229              	.LBE244:
 1230              	.LBE245:
 1231              	.LBE246:
 1232              	.LBE249:
 1233              		.loc 1 431 0
 1234 0096 013D     		subs	r5, r5, #1
 1235              	.LVL111:
 1236              		.loc 1 430 0
 1237 0098 07F10107 		add	r7, r7, #1
 1238              	.LVL112:
 1239              	.LBB250:
 1240              	.LBB251:
 1241              	.LBB252:
 1242              	.LBB253:
 1243              	.LBB254:
 1244              		.loc 4 546 0
 1245 009c 4FF02003 		mov	r3, #32
 1246              	.LBE254:
 1247              	.LBE253:
ARM GAS  C:\Users\jo\AppData\Local\Temp\ccmoKYg3.s 			page 23


 1248              	.LBE252:
 1249              	.LBE251:
 1250              	.LBE250:
 1251              		.loc 1 431 0
 1252 00a0 1CD0     		beq	.L89
 1253              	.LBB260:
 1254              	.LBB258:
 1255              	.LBB257:
 1256              	.LBB256:
 1257              	.LBB255:
 1258              		.loc 4 546 0
 1259              	@ 546 "../../../os/ext/CMSIS/include/core_cmFunc.h" 1
 1260 00a2 83F31188 		MSR basepri, r3
 1261              	@ 0 "" 2
 1262              		.thumb
 1263              	.LBE255:
 1264              	.LBE256:
 1265              	.LBE257:
 1266              		.loc 5 300 0
 1267 00a6 FFF7FEFF 		bl	_stats_start_measure_crit_thd
 1268              	.LVL113:
 1269              	.LBE258:
 1270              	.LBE260:
 1271              		.loc 1 420 0
 1272 00aa 3446     		mov	r4, r6
 1273              	.LBB261:
 1274              	.LBB259:
 1275              		.loc 5 301 0
 1276 00ac FFF7FEFF 		bl	_dbg_check_lock
 1277              	.LVL114:
 1278 00b0 BCE7     		b	.L86
 1279              	.LVL115:
 1280              	.L90:
 1281              	.LBE259:
 1282              	.LBE261:
 1283              		.loc 1 414 0
 1284 00b2 5846     		mov	r0, fp
 1285              	.LVL116:
 1286 00b4 0199     		ldr	r1, [sp, #4]
 1287 00b6 FFF7FEFF 		bl	chThdEnqueueTimeoutS
 1288              	.LVL117:
 1289 00ba 0028     		cmp	r0, #0
 1290 00bc B6D0     		beq	.L86
 1291              	.LBB262:
 1292              	.LBB263:
 1293              		.loc 5 311 0
 1294 00be FFF7FEFF 		bl	_dbg_check_unlock
 1295              	.LVL118:
 1296              		.loc 5 312 0
 1297 00c2 FFF7FEFF 		bl	_stats_stop_measure_crit_thd
 1298              	.LVL119:
 1299              		.loc 5 318 0
 1300 00c6 D8F81820 		ldr	r2, [r8, #24]
 1301 00ca D8F80030 		ldr	r3, [r8]
 1302 00ce 9268     		ldr	r2, [r2, #8]
 1303 00d0 9B68     		ldr	r3, [r3, #8]
 1304 00d2 9A42     		cmp	r2, r3
ARM GAS  C:\Users\jo\AppData\Local\Temp\ccmoKYg3.s 			page 24


 1305 00d4 0AD3     		bcc	.L105
 1306              	.LVL120:
 1307              	.LBB264:
 1308              	.LBB265:
 1309              	.LBB266:
 1310              		.loc 4 546 0
 1311 00d6 0023     		movs	r3, #0
 1312              	@ 546 "../../../os/ext/CMSIS/include/core_cmFunc.h" 1
 1313 00d8 83F31188 		MSR basepri, r3
 1314              	@ 0 "" 2
 1315              	.LVL121:
 1316              		.thumb
 1317              	.L89:
 1318              	.LBE266:
 1319              	.LBE265:
 1320              	.LBE264:
 1321              	.LBE263:
 1322              	.LBE262:
 1323              		.loc 1 436 0
 1324 00dc 3846     		mov	r0, r7
 1325 00de 03B0     		add	sp, sp, #12
 1326              		.cfi_remember_state
 1327              		.cfi_def_cfa_offset 36
 1328              		@ sp needed
 1329 00e0 BDE8F08F 		pop	{r4, r5, r6, r7, r8, r9, r10, fp, pc}
 1330              	.LVL122:
 1331              	.L104:
 1332              		.cfi_restore_state
 1333              		.loc 1 409 0 discriminator 1
 1334 00e4 0948     		ldr	r0, .L106+8
 1335              	.LVL123:
 1336 00e6 FFF7FEFF 		bl	chSysHalt
 1337              	.LVL124:
 1338 00ea 94E7     		b	.L85
 1339              	.LVL125:
 1340              	.L105:
 1341              	.LBB271:
 1342              	.LBB270:
 1343              		.loc 5 318 0
 1344 00ec 0548     		ldr	r0, .L106
 1345 00ee FFF7FEFF 		bl	puts
 1346              	.LVL126:
 1347              	@ 318 "../../../os/rt/include/chsys.h" 1
 1348 00f2 00BE     		BKPT #0
 1349              	
 1350              	@ 0 "" 2
 1351              		.thumb
 1352 00f4 0448     		ldr	r0, .L106+4
 1353 00f6 FFF7FEFF 		bl	chSysHalt
 1354              	.LVL127:
 1355              	.LBB269:
 1356              	.LBB268:
 1357              	.LBB267:
 1358              		.loc 4 546 0
 1359 00fa 0023     		movs	r3, #0
 1360              	@ 546 "../../../os/ext/CMSIS/include/core_cmFunc.h" 1
 1361 00fc 83F31188 		MSR basepri, r3
ARM GAS  C:\Users\jo\AppData\Local\Temp\ccmoKYg3.s 			page 25


 1362              	@ 0 "" 2
 1363              		.thumb
 1364 0100 ECE7     		b	.L89
 1365              	.L107:
 1366 0102 00BF     		.align	2
 1367              	.L106:
 1368 0104 00000000 		.word	.LC0
 1369 0108 00000000 		.word	.LANCHOR0
 1370 010c 00000000 		.word	.LANCHOR2
 1371 0110 00000000 		.word	ch
 1372              	.LBE267:
 1373              	.LBE268:
 1374              	.LBE269:
 1375              	.LBE270:
 1376              	.LBE271:
 1377              		.cfi_endproc
 1378              	.LFE235:
 1379              		.size	chOQWriteTimeout, .-chOQWriteTimeout
 1380 0114 AFF30080 		.section	.rodata.__func__.7499,"a",%progbits
 1380      AFF30080 
 1380      AFF30080 
 1381              		.align	2
 1382              		.set	.LANCHOR2,. + 0
 1383              		.type	__func__.7499, %object
 1384              		.size	__func__.7499, 17
 1385              	__func__.7499:
 1386 0000 63684F51 		.ascii	"chOQWriteTimeout\000"
 1386      57726974 
 1386      6554696D 
 1386      656F7574 
 1386      00
 1387 0011 000000   		.section	.rodata.str1.4,"aMS",%progbits,1
 1388              		.align	2
 1389              	.LC0:
 1390 0000 7072696F 		.ascii	"priority violation, missing reschedule\000"
 1390      72697479 
 1390      2076696F 
 1390      6C617469 
 1390      6F6E2C20 
 1391 0027 00       		.section	.rodata.__func__.7463,"a",%progbits
 1392              		.align	2
 1393              		.set	.LANCHOR1,. + 0
 1394              		.type	__func__.7463, %object
 1395              		.size	__func__.7463, 16
 1396              	__func__.7463:
 1397 0000 63684951 		.ascii	"chIQReadTimeout\000"
 1397      52656164 
 1397      54696D65 
 1397      6F757400 
 1398              		.section	.rodata.__func__.6751,"a",%progbits
 1399              		.align	2
 1400              		.set	.LANCHOR0,. + 0
 1401              		.type	__func__.6751, %object
 1402              		.size	__func__.6751, 12
 1403              	__func__.6751:
 1404 0000 63685379 		.ascii	"chSysUnlock\000"
 1404      73556E6C 
ARM GAS  C:\Users\jo\AppData\Local\Temp\ccmoKYg3.s 			page 26


 1404      6F636B00 
 1405              		.text
 1406              	.Letext0:
 1407              		.file 6 "c:\\program files\\gnu tools arm embedded\\4.9 2014q4\\lib\\gcc\\arm-none-eabi\\4.9.3\\in
 1408              		.file 7 "c:\\program files\\gnu tools arm embedded\\4.9 2014q4\\arm-none-eabi\\include\\machine\\_
 1409              		.file 8 "c:\\program files\\gnu tools arm embedded\\4.9 2014q4\\arm-none-eabi\\include\\stdint.h"
 1410              		.file 9 "../../../os/rt/ports/ARMCMx/compilers/GCC/chtypes.h"
 1411              		.file 10 "../../../os/rt/include/chsystypes.h"
 1412              		.file 11 "../../../os/rt/ports/ARMCMx/chcore.h"
 1413              		.file 12 "../../../os/rt/ports/ARMCMx/chcore_v7m.h"
 1414              		.file 13 "../../../os/rt/include/chdebug.h"
 1415              		.file 14 "../../../os/rt/include/chtm.h"
 1416              		.file 15 "../../../os/rt/include/chstats.h"
 1417              		.file 16 "../../../os/rt/include/chmtx.h"
 1418              		.file 17 "../../../os/rt/include/chthreads.h"
 1419              		.file 18 "../../../os/ext/CMSIS/include/core_cm4.h"
 1420              		.file 19 "<built-in>"