ARM GAS  C:\Users\jo\AppData\Local\Temp\ccEQV1Et.s 			page 1


   1              		.syntax unified
   2              		.cpu cortex-m4
   3              		.fpu softvfp
   4              		.eabi_attribute 20, 1
   5              		.eabi_attribute 21, 1
   6              		.eabi_attribute 23, 3
   7              		.eabi_attribute 24, 1
   8              		.eabi_attribute 25, 1
   9              		.eabi_attribute 26, 1
  10              		.eabi_attribute 30, 2
  11              		.eabi_attribute 34, 1
  12              		.eabi_attribute 18, 4
  13              		.thumb
  14              		.file	"chregistry.c"
  15              		.text
  16              	.Ltext0:
  17              		.cfi_sections	.debug_frame
  18              		.section	.text.chRegFirstThread,"ax",%progbits
  19              		.align	2
  20              		.p2align 4,,15
  21              		.global	chRegFirstThread
  22              		.thumb
  23              		.thumb_func
  24              		.type	chRegFirstThread, %function
  25              	chRegFirstThread:
  26              	.LFB226:
  27              		.file 1 "../../../os/rt/src/chregistry.c"
  28              		.loc 1 128 0
  29              		.cfi_startproc
  30              		@ args = 0, pretend = 0, frame = 0
  31              		@ frame_needed = 0, uses_anonymous_args = 0
  32              	.LVL0:
  33 0000 38B5     		push	{r3, r4, r5, lr}
  34              		.cfi_def_cfa_offset 16
  35              		.cfi_offset 3, -16
  36              		.cfi_offset 4, -12
  37              		.cfi_offset 5, -8
  38              		.cfi_offset 14, -4
  39              	.LBB34:
  40              	.LBB35:
  41              	.LBB36:
  42              	.LBB37:
  43              	.LBB38:
  44              		.file 2 "../../../os/ext/CMSIS/include/core_cmFunc.h"
  45              		.loc 2 546 0
  46 0002 2023     		movs	r3, #32
  47              	@ 546 "../../../os/ext/CMSIS/include/core_cmFunc.h" 1
  48 0004 83F31188 		MSR basepri, r3
  49              	@ 0 "" 2
  50              		.thumb
  51              	.LBE38:
  52              	.LBE37:
  53              	.LBE36:
  54              	.LBE35:
  55              	.LBE34:
  56              		.loc 1 132 0
  57 0008 104D     		ldr	r5, .L5
ARM GAS  C:\Users\jo\AppData\Local\Temp\ccEQV1Et.s 			page 2


  58              	.LBB40:
  59              	.LBB39:
  60              		.file 3 "../../../os/rt/include/chsys.h"
  61              		.loc 3 300 0
  62 000a FFF7FEFF 		bl	_stats_start_measure_crit_thd
  63              	.LVL1:
  64              		.loc 3 301 0
  65 000e FFF7FEFF 		bl	_dbg_check_lock
  66              	.LVL2:
  67              	.LBE39:
  68              	.LBE40:
  69              		.loc 1 132 0
  70 0012 2C69     		ldr	r4, [r5, #16]
  71              	.LVL3:
  72              		.loc 1 134 0
  73 0014 94F82230 		ldrb	r3, [r4, #34]	@ zero_extendqisi2
  74 0018 0133     		adds	r3, r3, #1
  75 001a 84F82230 		strb	r3, [r4, #34]
  76              	.LBB41:
  77              	.LBB42:
  78              		.loc 3 311 0
  79 001e FFF7FEFF 		bl	_dbg_check_unlock
  80              	.LVL4:
  81              		.loc 3 312 0
  82 0022 FFF7FEFF 		bl	_stats_stop_measure_crit_thd
  83              	.LVL5:
  84              		.loc 3 318 0
  85 0026 AA69     		ldr	r2, [r5, #24]
  86 0028 2B68     		ldr	r3, [r5]
  87 002a 9268     		ldr	r2, [r2, #8]
  88 002c 9B68     		ldr	r3, [r3, #8]
  89 002e 9A42     		cmp	r2, r3
  90 0030 06D2     		bcs	.L2
  91 0032 0748     		ldr	r0, .L5+4
  92 0034 FFF7FEFF 		bl	puts
  93              	.LVL6:
  94              	@ 318 "../../../os/rt/include/chsys.h" 1
  95 0038 00BE     		BKPT #0
  96              	
  97              	@ 0 "" 2
  98              		.thumb
  99 003a 0648     		ldr	r0, .L5+8
 100 003c FFF7FEFF 		bl	chSysHalt
 101              	.LVL7:
 102              	.L2:
 103              	.LBB43:
 104              	.LBB44:
 105              	.LBB45:
 106              		.loc 2 546 0
 107 0040 0023     		movs	r3, #0
 108              	@ 546 "../../../os/ext/CMSIS/include/core_cmFunc.h" 1
 109 0042 83F31188 		MSR basepri, r3
 110              	@ 0 "" 2
 111              		.thumb
 112              	.LBE45:
 113              	.LBE44:
 114              	.LBE43:
ARM GAS  C:\Users\jo\AppData\Local\Temp\ccEQV1Et.s 			page 3


 115              	.LBE42:
 116              	.LBE41:
 117              		.loc 1 139 0
 118 0046 2046     		mov	r0, r4
 119 0048 38BD     		pop	{r3, r4, r5, pc}
 120              	.LVL8:
 121              	.L6:
 122 004a 00BF     		.align	2
 123              	.L5:
 124 004c 00000000 		.word	ch
 125 0050 00000000 		.word	.LC0
 126 0054 00000000 		.word	.LANCHOR0
 127              		.cfi_endproc
 128              	.LFE226:
 129              		.size	chRegFirstThread, .-chRegFirstThread
 130 0058 AFF30080 		.section	.text.chRegNextThread,"ax",%progbits
 130      AFF30080 
 131              		.align	2
 132              		.p2align 4,,15
 133              		.global	chRegNextThread
 134              		.thumb
 135              		.thumb_func
 136              		.type	chRegNextThread, %function
 137              	chRegNextThread:
 138              	.LFB227:
 139              		.loc 1 152 0
 140              		.cfi_startproc
 141              		@ args = 0, pretend = 0, frame = 0
 142              		@ frame_needed = 0, uses_anonymous_args = 0
 143              	.LVL9:
 144 0000 70B5     		push	{r4, r5, r6, lr}
 145              		.cfi_def_cfa_offset 16
 146              		.cfi_offset 4, -16
 147              		.cfi_offset 5, -12
 148              		.cfi_offset 6, -8
 149              		.cfi_offset 14, -4
 150              	.LBB56:
 151              	.LBB57:
 152              	.LBB58:
 153              	.LBB59:
 154              	.LBB60:
 155              		.loc 2 546 0
 156 0002 2023     		movs	r3, #32
 157              	.LBE60:
 158              	.LBE59:
 159              	.LBE58:
 160              	.LBE57:
 161              	.LBE56:
 162              		.loc 1 152 0
 163 0004 0646     		mov	r6, r0
 164              	.LBB66:
 165              	.LBB64:
 166              	.LBB63:
 167              	.LBB62:
 168              	.LBB61:
 169              		.loc 2 546 0
 170              	@ 546 "../../../os/ext/CMSIS/include/core_cmFunc.h" 1
ARM GAS  C:\Users\jo\AppData\Local\Temp\ccEQV1Et.s 			page 4


 171 0006 83F31188 		MSR basepri, r3
 172              	@ 0 "" 2
 173              		.thumb
 174              	.LBE61:
 175              	.LBE62:
 176              	.LBE63:
 177              		.loc 3 300 0
 178 000a FFF7FEFF 		bl	_stats_start_measure_crit_thd
 179              	.LVL10:
 180              	.LBE64:
 181              	.LBE66:
 182              		.loc 1 157 0
 183 000e 194D     		ldr	r5, .L14
 184              	.LBB67:
 185              	.LBB65:
 186              		.loc 3 301 0
 187 0010 FFF7FEFF 		bl	_dbg_check_lock
 188              	.LVL11:
 189              	.LBE65:
 190              	.LBE67:
 191              		.loc 1 156 0
 192 0014 3469     		ldr	r4, [r6, #16]
 193              	.LVL12:
 194              		.loc 1 157 0
 195 0016 AC42     		cmp	r4, r5
 196 0018 29D0     		beq	.L11
 197              		.loc 1 162 0
 198 001a 94F82230 		ldrb	r3, [r4, #34]	@ zero_extendqisi2
 199 001e FF2B     		cmp	r3, #255
 200 0020 1BD0     		beq	.L13
 201              	.L9:
 202              		.loc 1 163 0
 203 0022 0133     		adds	r3, r3, #1
 204 0024 84F82230 		strb	r3, [r4, #34]
 205              	.LVL13:
 206              	.L8:
 207              	.LBB68:
 208              	.LBB69:
 209              		.loc 3 311 0
 210 0028 FFF7FEFF 		bl	_dbg_check_unlock
 211              	.LVL14:
 212              		.loc 3 312 0
 213 002c FFF7FEFF 		bl	_stats_stop_measure_crit_thd
 214              	.LVL15:
 215              		.loc 3 318 0
 216 0030 AA69     		ldr	r2, [r5, #24]
 217 0032 2B68     		ldr	r3, [r5]
 218 0034 9268     		ldr	r2, [r2, #8]
 219 0036 9B68     		ldr	r3, [r3, #8]
 220 0038 9A42     		cmp	r2, r3
 221 003a 06D2     		bcs	.L10
 222 003c 0E48     		ldr	r0, .L14+4
 223 003e FFF7FEFF 		bl	puts
 224              	.LVL16:
 225              	@ 318 "../../../os/rt/include/chsys.h" 1
 226 0042 00BE     		BKPT #0
 227              	
ARM GAS  C:\Users\jo\AppData\Local\Temp\ccEQV1Et.s 			page 5


 228              	@ 0 "" 2
 229              		.thumb
 230 0044 0D48     		ldr	r0, .L14+8
 231 0046 FFF7FEFF 		bl	chSysHalt
 232              	.LVL17:
 233              	.L10:
 234              	.LBB70:
 235              	.LBB71:
 236              	.LBB72:
 237              		.loc 2 546 0
 238 004a 0023     		movs	r3, #0
 239              	@ 546 "../../../os/ext/CMSIS/include/core_cmFunc.h" 1
 240 004c 83F31188 		MSR basepri, r3
 241              	@ 0 "" 2
 242              		.thumb
 243              	.LBE72:
 244              	.LBE71:
 245              	.LBE70:
 246              	.LBE69:
 247              	.LBE68:
 248              		.loc 1 168 0
 249 0050 3046     		mov	r0, r6
 250 0052 FFF7FEFF 		bl	chThdRelease
 251              	.LVL18:
 252              		.loc 1 172 0
 253 0056 2046     		mov	r0, r4
 254 0058 70BD     		pop	{r4, r5, r6, pc}
 255              	.LVL19:
 256              	.L13:
 257              		.loc 1 162 0 discriminator 1
 258 005a 0948     		ldr	r0, .L14+12
 259 005c FFF7FEFF 		bl	puts
 260              	.LVL20:
 261              	@ 162 "../../../os/rt/src/chregistry.c" 1
 262 0060 00BE     		BKPT #0
 263              	
 264              	@ 0 "" 2
 265              		.thumb
 266 0062 0848     		ldr	r0, .L14+16
 267 0064 FFF7FEFF 		bl	chSysHalt
 268              	.LVL21:
 269 0068 94F82230 		ldrb	r3, [r4, #34]	@ zero_extendqisi2
 270 006c D9E7     		b	.L9
 271              	.L11:
 272              		.loc 1 158 0
 273 006e 0024     		movs	r4, #0
 274              	.LVL22:
 275 0070 DAE7     		b	.L8
 276              	.L15:
 277 0072 00BF     		.align	2
 278              	.L14:
 279 0074 00000000 		.word	ch
 280 0078 00000000 		.word	.LC0
 281 007c 00000000 		.word	.LANCHOR0
 282 0080 28000000 		.word	.LC1
 283 0084 00000000 		.word	.LANCHOR1
 284              		.cfi_endproc
ARM GAS  C:\Users\jo\AppData\Local\Temp\ccEQV1Et.s 			page 6


 285              	.LFE227:
 286              		.size	chRegNextThread, .-chRegNextThread
 287              		.global	ch_debug
 288 0088 AFF30080 		.section	.rodata.ch_debug,"a",%progbits
 288      AFF30080 
 289              		.align	2
 290              		.type	ch_debug, %object
 291              		.size	ch_debug, 22
 292              	ch_debug:
 293 0000 6D61696E 		.ascii	"main"
 294 0004 00       		.byte	0
 295 0005 16       		.byte	22
 296 0006 0018     		.short	6144
 297 0008 04       		.byte	4
 298 0009 04       		.byte	4
 299 000a 60       		.byte	96
 300 000b 08       		.byte	8
 301 000c 0C       		.byte	12
 302 000d 10       		.byte	16
 303 000e 14       		.byte	20
 304 000f 18       		.byte	24
 305 0010 1C       		.byte	28
 306 0011 20       		.byte	32
 307 0012 21       		.byte	33
 308 0013 22       		.byte	34
 309 0014 00       		.byte	0
 310 0015 00       		.byte	0
 311 0016 0000     		.section	.rodata.__func__.7441,"a",%progbits
 312              		.align	2
 313              		.set	.LANCHOR1,. + 0
 314              		.type	__func__.7441, %object
 315              		.size	__func__.7441, 16
 316              	__func__.7441:
 317 0000 63685265 		.ascii	"chRegNextThread\000"
 317      674E6578 
 317      74546872 
 317      65616400 
 318              		.section	.rodata.str1.4,"aMS",%progbits,1
 319              		.align	2
 320              	.LC0:
 321 0000 7072696F 		.ascii	"priority violation, missing reschedule\000"
 321      72697479 
 321      2076696F 
 321      6C617469 
 321      6F6E2C20 
 322 0027 00       		.space	1
 323              	.LC1:
 324 0028 746F6F20 		.ascii	"too many references\000"
 324      6D616E79 
 324      20726566 
 324      6572656E 
 324      63657300 
 325              		.section	.rodata.__func__.6751,"a",%progbits
 326              		.align	2
 327              		.set	.LANCHOR0,. + 0
 328              		.type	__func__.6751, %object
 329              		.size	__func__.6751, 12
ARM GAS  C:\Users\jo\AppData\Local\Temp\ccEQV1Et.s 			page 7


 330              	__func__.6751:
 331 0000 63685379 		.ascii	"chSysUnlock\000"
 331      73556E6C 
 331      6F636B00 
 332              		.text
 333              	.Letext0:
 334              		.file 4 "c:\\program files\\gnu tools arm embedded\\4.9 2014q4\\lib\\gcc\\arm-none-eabi\\4.9.3\\in
 335              		.file 5 "c:\\program files\\gnu tools arm embedded\\4.9 2014q4\\arm-none-eabi\\include\\machine\\_
 336              		.file 6 "c:\\program files\\gnu tools arm embedded\\4.9 2014q4\\arm-none-eabi\\include\\stdint.h"
 337              		.file 7 "../../../os/rt/ports/ARMCMx/compilers/GCC/chtypes.h"
 338              		.file 8 "../../../os/rt/include/chsystypes.h"
 339              		.file 9 "../../../os/rt/include/chschd.h"
 340              		.file 10 "../../../os/rt/ports/ARMCMx/chcore.h"
 341              		.file 11 "../../../os/rt/ports/ARMCMx/chcore_v7m.h"
 342              		.file 12 "../../../os/rt/include/chdebug.h"
 343              		.file 13 "../../../os/rt/include/chtm.h"
 344              		.file 14 "../../../os/rt/include/chstats.h"
 345              		.file 15 "../../../os/rt/include/chmtx.h"
 346              		.file 16 "../../../os/rt/include/chregistry.h"
 347              		.file 17 "../../../os/ext/CMSIS/include/core_cm4.h"
 348              		.file 18 "<built-in>"
 349              		.file 19 "../../../os/rt/include/chdynamic.h"