ARM GAS  C:\Users\jo\AppData\Local\Temp\ccE6GZHP.s 			page 1


   1              		.syntax unified
   2              		.cpu cortex-m4
   3              		.fpu softvfp
   4              		.eabi_attribute 20, 1
   5              		.eabi_attribute 21, 1
   6              		.eabi_attribute 23, 3
   7              		.eabi_attribute 24, 1
   8              		.eabi_attribute 25, 1
   9              		.eabi_attribute 26, 1
  10              		.eabi_attribute 30, 2
  11              		.eabi_attribute 34, 1
  12              		.eabi_attribute 18, 4
  13              		.thumb
  14              		.file	"chsem.c"
  15              		.text
  16              	.Ltext0:
  17              		.cfi_sections	.debug_frame
  18              		.section	.text.chSemObjectInit,"ax",%progbits
  19              		.align	2
  20              		.p2align 4,,15
  21              		.global	chSemObjectInit
  22              		.thumb
  23              		.thumb_func
  24              		.type	chSemObjectInit, %function
  25              	chSemObjectInit:
  26              	.LFB226:
  27              		.file 1 "../../../os/rt/src/chsem.c"
  28              		.loc 1 97 0
  29              		.cfi_startproc
  30              		@ args = 0, pretend = 0, frame = 0
  31              		@ frame_needed = 0, uses_anonymous_args = 0
  32              	.LVL0:
  33 0000 38B5     		push	{r3, r4, r5, lr}
  34              		.cfi_def_cfa_offset 16
  35              		.cfi_offset 3, -16
  36              		.cfi_offset 4, -12
  37              		.cfi_offset 5, -8
  38              		.cfi_offset 14, -4
  39              		.loc 1 97 0
  40 0002 0D46     		mov	r5, r1
  41              		.loc 1 99 0
  42 0004 0446     		mov	r4, r0
  43 0006 28B1     		cbz	r0, .L2
  44              		.loc 1 99 0 is_stmt 0 discriminator 2
  45 0008 0029     		cmp	r1, #0
  46 000a 03DB     		blt	.L2
  47              	.LVL1:
  48              	.LBB103:
  49              	.LBB104:
  50              		.file 2 "../../../os/rt/include/chschd.h"
  51              		.loc 2 574 0 is_stmt 1
  52 000c 6460     		str	r4, [r4, #4]
  53 000e 2460     		str	r4, [r4]
  54              	.LBE104:
  55              	.LBE103:
  56              		.loc 1 102 0
  57 0010 A560     		str	r5, [r4, #8]
ARM GAS  C:\Users\jo\AppData\Local\Temp\ccE6GZHP.s 			page 2


  58 0012 38BD     		pop	{r3, r4, r5, pc}
  59              	.LVL2:
  60              	.L2:
  61              		.loc 1 99 0 discriminator 3
  62 0014 0348     		ldr	r0, .L9
  63              	.LVL3:
  64 0016 FFF7FEFF 		bl	chSysHalt
  65              	.LVL4:
  66              	.LBB106:
  67              	.LBB105:
  68              		.loc 2 574 0 discriminator 3
  69 001a 6460     		str	r4, [r4, #4]
  70 001c 2460     		str	r4, [r4]
  71              	.LBE105:
  72              	.LBE106:
  73              		.loc 1 102 0 discriminator 3
  74 001e A560     		str	r5, [r4, #8]
  75 0020 38BD     		pop	{r3, r4, r5, pc}
  76              	.LVL5:
  77              	.L10:
  78 0022 00BF     		.align	2
  79              	.L9:
  80 0024 00000000 		.word	.LANCHOR0
  81              		.cfi_endproc
  82              	.LFE226:
  83              		.size	chSemObjectInit, .-chSemObjectInit
  84 0028 AFF30080 		.section	.text.chSemResetI,"ax",%progbits
  84      AFF30080 
  85              		.align	2
  86              		.p2align 4,,15
  87              		.global	chSemResetI
  88              		.thumb
  89              		.thumb_func
  90              		.type	chSemResetI, %function
  91              	chSemResetI:
  92              	.LFB228:
  93              		.loc 1 147 0
  94              		.cfi_startproc
  95              		@ args = 0, pretend = 0, frame = 0
  96              		@ frame_needed = 0, uses_anonymous_args = 0
  97              	.LVL6:
  98 0000 70B5     		push	{r4, r5, r6, lr}
  99              		.cfi_def_cfa_offset 16
 100              		.cfi_offset 4, -16
 101              		.cfi_offset 5, -12
 102              		.cfi_offset 6, -8
 103              		.cfi_offset 14, -4
 104              		.loc 1 147 0
 105 0002 0446     		mov	r4, r0
 106 0004 0E46     		mov	r6, r1
 107              		.loc 1 150 0
 108 0006 FFF7FEFF 		bl	chDbgCheckClassI
 109              	.LVL7:
 110              		.loc 1 151 0
 111 000a 1CB3     		cbz	r4, .L12
 112              		.loc 1 151 0 is_stmt 0 discriminator 2
 113 000c 002E     		cmp	r6, #0
ARM GAS  C:\Users\jo\AppData\Local\Temp\ccE6GZHP.s 			page 3


 114 000e 21DB     		blt	.L12
 115              	.L13:
 116              		.loc 1 152 0 is_stmt 1
 117 0010 A568     		ldr	r5, [r4, #8]
 118 0012 2368     		ldr	r3, [r4]
 119 0014 002D     		cmp	r5, #0
 120 0016 1ADB     		blt	.L14
 121              	.LVL8:
 122              		.loc 1 152 0 is_stmt 0 discriminator 2
 123 0018 9C42     		cmp	r4, r3
 124 001a 07D0     		beq	.L16
 125              	.LVL9:
 126              	.L15:
 127              		.loc 1 152 0 discriminator 6
 128 001c 0F48     		ldr	r0, .L25
 129 001e FFF7FEFF 		bl	puts
 130              	.LVL10:
 131              	@ 152 "../../../os/rt/src/chsem.c" 1
 132 0022 00BE     		BKPT #0
 133              	
 134              	@ 0 "" 2
 135              		.thumb
 136 0024 0E48     		ldr	r0, .L25+4
 137 0026 FFF7FEFF 		bl	chSysHalt
 138              	.LVL11:
 139 002a A568     		ldr	r5, [r4, #8]
 140              	.L16:
 141              	.LVL12:
 142              		.loc 1 157 0 is_stmt 1
 143 002c A660     		str	r6, [r4, #8]
 144              		.loc 1 158 0
 145 002e 0135     		adds	r5, r5, #1
 146              	.LVL13:
 147 0030 002D     		cmp	r5, #0
 148 0032 0BDC     		bgt	.L11
 149              		.loc 1 159 0
 150 0034 6FF00106 		mvn	r6, #1
 151              	.LVL14:
 152              	.L18:
 153              	.LBB107:
 154              	.LBB108:
 155              		.loc 2 647 0
 156 0038 6068     		ldr	r0, [r4, #4]
 157              	.LVL15:
 158              		.loc 2 649 0
 159 003a 4368     		ldr	r3, [r0, #4]
 160 003c 6360     		str	r3, [r4, #4]
 161 003e 1C60     		str	r4, [r3]
 162              	.LBE108:
 163              	.LBE107:
 164              		.loc 1 159 0
 165 0040 FFF7FEFF 		bl	chSchReadyI
 166              	.LVL16:
 167              		.loc 1 158 0
 168 0044 0135     		adds	r5, r5, #1
 169              	.LVL17:
 170 0046 012D     		cmp	r5, #1
ARM GAS  C:\Users\jo\AppData\Local\Temp\ccE6GZHP.s 			page 4


 171              		.loc 1 159 0
 172 0048 4662     		str	r6, [r0, #36]
 173              	.LVL18:
 174              		.loc 1 158 0
 175 004a F5D1     		bne	.L18
 176              	.LVL19:
 177              	.L11:
 178 004c 70BD     		pop	{r4, r5, r6, pc}
 179              	.LVL20:
 180              	.L14:
 181              		.loc 1 152 0 discriminator 5
 182 004e 9C42     		cmp	r4, r3
 183 0050 ECD1     		bne	.L16
 184 0052 E3E7     		b	.L15
 185              	.LVL21:
 186              	.L12:
 187              		.loc 1 151 0 discriminator 3
 188 0054 0248     		ldr	r0, .L25+4
 189 0056 FFF7FEFF 		bl	chSysHalt
 190              	.LVL22:
 191 005a D9E7     		b	.L13
 192              	.L26:
 193              		.align	2
 194              	.L25:
 195 005c 00000000 		.word	.LC0
 196 0060 00000000 		.word	.LANCHOR1
 197              		.cfi_endproc
 198              	.LFE228:
 199              		.size	chSemResetI, .-chSemResetI
 200 0064 AFF30080 		.section	.text.chSemReset,"ax",%progbits
 200      AFF30080 
 200      AFF30080 
 201              		.align	2
 202              		.p2align 4,,15
 203              		.global	chSemReset
 204              		.thumb
 205              		.thumb_func
 206              		.type	chSemReset, %function
 207              	chSemReset:
 208              	.LFB227:
 209              		.loc 1 120 0
 210              		.cfi_startproc
 211              		@ args = 0, pretend = 0, frame = 0
 212              		@ frame_needed = 0, uses_anonymous_args = 0
 213              	.LVL23:
 214 0000 38B5     		push	{r3, r4, r5, lr}
 215              		.cfi_def_cfa_offset 16
 216              		.cfi_offset 3, -16
 217              		.cfi_offset 4, -12
 218              		.cfi_offset 5, -8
 219              		.cfi_offset 14, -4
 220              		.loc 1 120 0
 221 0002 0546     		mov	r5, r0
 222 0004 0C46     		mov	r4, r1
 223              	.LBB119:
 224              	.LBB120:
 225              	.LBB121:
ARM GAS  C:\Users\jo\AppData\Local\Temp\ccE6GZHP.s 			page 5


 226              	.LBB122:
 227              	.LBB123:
 228              		.file 3 "../../../os/ext/CMSIS/include/core_cmFunc.h"
 229              		.loc 3 546 0
 230 0006 2023     		movs	r3, #32
 231              	@ 546 "../../../os/ext/CMSIS/include/core_cmFunc.h" 1
 232 0008 83F31188 		MSR basepri, r3
 233              	@ 0 "" 2
 234              		.thumb
 235              	.LBE123:
 236              	.LBE122:
 237              	.LBE121:
 238              		.file 4 "../../../os/rt/include/chsys.h"
 239              		.loc 4 300 0
 240 000c FFF7FEFF 		bl	_stats_start_measure_crit_thd
 241              	.LVL24:
 242              		.loc 4 301 0
 243 0010 FFF7FEFF 		bl	_dbg_check_lock
 244              	.LVL25:
 245              	.LBE120:
 246              	.LBE119:
 247              		.loc 1 123 0
 248 0014 2846     		mov	r0, r5
 249 0016 2146     		mov	r1, r4
 250 0018 FFF7FEFF 		bl	chSemResetI
 251              	.LVL26:
 252              		.loc 1 124 0
 253 001c FFF7FEFF 		bl	chSchRescheduleS
 254              	.LVL27:
 255              	.LBB124:
 256              	.LBB125:
 257              		.loc 4 311 0
 258 0020 FFF7FEFF 		bl	_dbg_check_unlock
 259              	.LVL28:
 260              		.loc 4 312 0
 261 0024 FFF7FEFF 		bl	_stats_stop_measure_crit_thd
 262              	.LVL29:
 263              		.loc 4 318 0
 264 0028 084B     		ldr	r3, .L30
 265 002a 9A69     		ldr	r2, [r3, #24]
 266 002c 1B68     		ldr	r3, [r3]
 267 002e 9268     		ldr	r2, [r2, #8]
 268 0030 9B68     		ldr	r3, [r3, #8]
 269 0032 9A42     		cmp	r2, r3
 270 0034 06D2     		bcs	.L28
 271 0036 0648     		ldr	r0, .L30+4
 272 0038 FFF7FEFF 		bl	puts
 273              	.LVL30:
 274              	@ 318 "../../../os/rt/include/chsys.h" 1
 275 003c 00BE     		BKPT #0
 276              	
 277              	@ 0 "" 2
 278              		.thumb
 279 003e 0548     		ldr	r0, .L30+8
 280 0040 FFF7FEFF 		bl	chSysHalt
 281              	.LVL31:
 282              	.L28:
ARM GAS  C:\Users\jo\AppData\Local\Temp\ccE6GZHP.s 			page 6


 283              	.LBB126:
 284              	.LBB127:
 285              	.LBB128:
 286              		.loc 3 546 0
 287 0044 0023     		movs	r3, #0
 288              	@ 546 "../../../os/ext/CMSIS/include/core_cmFunc.h" 1
 289 0046 83F31188 		MSR basepri, r3
 290              	@ 0 "" 2
 291              		.thumb
 292 004a 38BD     		pop	{r3, r4, r5, pc}
 293              	.LVL32:
 294              	.L31:
 295              		.align	2
 296              	.L30:
 297 004c 00000000 		.word	ch
 298 0050 18000000 		.word	.LC1
 299 0054 00000000 		.word	.LANCHOR2
 300              	.LBE128:
 301              	.LBE127:
 302              	.LBE126:
 303              	.LBE125:
 304              	.LBE124:
 305              		.cfi_endproc
 306              	.LFE227:
 307              		.size	chSemReset, .-chSemReset
 308 0058 AFF30080 		.section	.text.chSemWaitS,"ax",%progbits
 308      AFF30080 
 309              		.align	2
 310              		.p2align 4,,15
 311              		.global	chSemWaitS
 312              		.thumb
 313              		.thumb_func
 314              		.type	chSemWaitS, %function
 315              	chSemWaitS:
 316              	.LFB230:
 317              		.loc 1 197 0
 318              		.cfi_startproc
 319              		@ args = 0, pretend = 0, frame = 0
 320              		@ frame_needed = 0, uses_anonymous_args = 0
 321              	.LVL33:
 322 0000 38B5     		push	{r3, r4, r5, lr}
 323              		.cfi_def_cfa_offset 16
 324              		.cfi_offset 3, -16
 325              		.cfi_offset 4, -12
 326              		.cfi_offset 5, -8
 327              		.cfi_offset 14, -4
 328              		.loc 1 197 0
 329 0002 0446     		mov	r4, r0
 330              		.loc 1 199 0
 331 0004 FFF7FEFF 		bl	chDbgCheckClassS
 332              	.LVL34:
 333              		.loc 1 200 0
 334 0008 3CB3     		cbz	r4, .L41
 335              	.L33:
 336              		.loc 1 201 0
 337 000a A368     		ldr	r3, [r4, #8]
 338 000c 2268     		ldr	r2, [r4]
ARM GAS  C:\Users\jo\AppData\Local\Temp\ccE6GZHP.s 			page 7


 339 000e 002B     		cmp	r3, #0
 340 0010 0FDB     		blt	.L34
 341              	.LVL35:
 342              		.loc 1 201 0 is_stmt 0 discriminator 2
 343 0012 9442     		cmp	r4, r2
 344 0014 07D0     		beq	.L36
 345              	.LVL36:
 346              	.L35:
 347              		.loc 1 201 0 discriminator 6
 348 0016 1348     		ldr	r0, .L43
 349 0018 FFF7FEFF 		bl	puts
 350              	.LVL37:
 351              	@ 201 "../../../os/rt/src/chsem.c" 1
 352 001c 00BE     		BKPT #0
 353              	
 354              	@ 0 "" 2
 355              		.thumb
 356 001e 1248     		ldr	r0, .L43+4
 357 0020 FFF7FEFF 		bl	chSysHalt
 358              	.LVL38:
 359 0024 A368     		ldr	r3, [r4, #8]
 360              	.L36:
 361              		.loc 1 205 0 is_stmt 1
 362 0026 013B     		subs	r3, r3, #1
 363 0028 002B     		cmp	r3, #0
 364 002a A360     		str	r3, [r4, #8]
 365 002c 07DB     		blt	.L42
 366              	.L38:
 367              		.loc 1 213 0
 368 002e 0020     		movs	r0, #0
 369              		.loc 1 214 0
 370 0030 38BD     		pop	{r3, r4, r5, pc}
 371              	.LVL39:
 372              	.L34:
 373              		.loc 1 201 0 discriminator 5
 374 0032 9442     		cmp	r4, r2
 375 0034 EFD0     		beq	.L35
 376              		.loc 1 205 0
 377 0036 013B     		subs	r3, r3, #1
 378 0038 002B     		cmp	r3, #0
 379 003a A360     		str	r3, [r4, #8]
 380 003c F7DA     		bge	.L38
 381              	.LVL40:
 382              	.L42:
 383              	.LBB141:
 384              	.LBB142:
 385              		.loc 1 206 0
 386 003e 0B4D     		ldr	r5, .L43+8
 387 0040 AB69     		ldr	r3, [r5, #24]
 388 0042 5C62     		str	r4, [r3, #36]
 389              	.LVL41:
 390              	.LBB143:
 391              	.LBB144:
 392              		.loc 2 634 0
 393 0044 6268     		ldr	r2, [r4, #4]
 394 0046 5A60     		str	r2, [r3, #4]
 395              		.loc 2 633 0
ARM GAS  C:\Users\jo\AppData\Local\Temp\ccE6GZHP.s 			page 8


 396 0048 1C60     		str	r4, [r3]
 397              	.LBE144:
 398              	.LBE143:
 399              		.loc 1 208 0
 400 004a 0520     		movs	r0, #5
 401              	.LBB146:
 402              	.LBB145:
 403              		.loc 2 635 0
 404 004c 6360     		str	r3, [r4, #4]
 405 004e 1360     		str	r3, [r2]
 406              	.LBE145:
 407              	.LBE146:
 408              		.loc 1 208 0
 409 0050 FFF7FEFF 		bl	chSchGoSleepS
 410              	.LVL42:
 411              		.loc 1 210 0
 412 0054 AB69     		ldr	r3, [r5, #24]
 413 0056 586A     		ldr	r0, [r3, #36]
 414 0058 38BD     		pop	{r3, r4, r5, pc}
 415              	.LVL43:
 416              	.L41:
 417              	.LBE142:
 418              	.LBE141:
 419              		.loc 1 200 0 discriminator 1
 420 005a 0348     		ldr	r0, .L43+4
 421 005c FFF7FEFF 		bl	chSysHalt
 422              	.LVL44:
 423 0060 D3E7     		b	.L33
 424              	.L44:
 425 0062 00BF     		.align	2
 426              	.L43:
 427 0064 00000000 		.word	.LC0
 428 0068 00000000 		.word	.LANCHOR3
 429 006c 00000000 		.word	ch
 430              		.cfi_endproc
 431              	.LFE230:
 432              		.size	chSemWaitS, .-chSemWaitS
 433              		.section	.text.chSemWait,"ax",%progbits
 434              		.align	2
 435              		.p2align 4,,15
 436              		.global	chSemWait
 437              		.thumb
 438              		.thumb_func
 439              		.type	chSemWait, %function
 440              	chSemWait:
 441              	.LFB229:
 442              		.loc 1 175 0
 443              		.cfi_startproc
 444              		@ args = 0, pretend = 0, frame = 0
 445              		@ frame_needed = 0, uses_anonymous_args = 0
 446              	.LVL45:
 447 0000 10B5     		push	{r4, lr}
 448              		.cfi_def_cfa_offset 8
 449              		.cfi_offset 4, -8
 450              		.cfi_offset 14, -4
 451              	.LBB157:
 452              	.LBB158:
ARM GAS  C:\Users\jo\AppData\Local\Temp\ccE6GZHP.s 			page 9


 453              	.LBB159:
 454              	.LBB160:
 455              	.LBB161:
 456              		.loc 3 546 0
 457 0002 2023     		movs	r3, #32
 458              	.LBE161:
 459              	.LBE160:
 460              	.LBE159:
 461              	.LBE158:
 462              	.LBE157:
 463              		.loc 1 175 0
 464 0004 0446     		mov	r4, r0
 465              	.LBB166:
 466              	.LBB165:
 467              	.LBB164:
 468              	.LBB163:
 469              	.LBB162:
 470              		.loc 3 546 0
 471              	@ 546 "../../../os/ext/CMSIS/include/core_cmFunc.h" 1
 472 0006 83F31188 		MSR basepri, r3
 473              	@ 0 "" 2
 474              		.thumb
 475              	.LBE162:
 476              	.LBE163:
 477              	.LBE164:
 478              		.loc 4 300 0
 479 000a FFF7FEFF 		bl	_stats_start_measure_crit_thd
 480              	.LVL46:
 481              		.loc 4 301 0
 482 000e FFF7FEFF 		bl	_dbg_check_lock
 483              	.LVL47:
 484              	.LBE165:
 485              	.LBE166:
 486              		.loc 1 179 0
 487 0012 2046     		mov	r0, r4
 488 0014 FFF7FEFF 		bl	chSemWaitS
 489              	.LVL48:
 490 0018 0446     		mov	r4, r0
 491              	.LVL49:
 492              	.LBB167:
 493              	.LBB168:
 494              		.loc 4 311 0
 495 001a FFF7FEFF 		bl	_dbg_check_unlock
 496              	.LVL50:
 497              		.loc 4 312 0
 498 001e FFF7FEFF 		bl	_stats_stop_measure_crit_thd
 499              	.LVL51:
 500              		.loc 4 318 0
 501 0022 094B     		ldr	r3, .L48
 502 0024 9A69     		ldr	r2, [r3, #24]
 503 0026 1B68     		ldr	r3, [r3]
 504 0028 9268     		ldr	r2, [r2, #8]
 505 002a 9B68     		ldr	r3, [r3, #8]
 506 002c 9A42     		cmp	r2, r3
 507 002e 06D2     		bcs	.L46
 508 0030 0648     		ldr	r0, .L48+4
 509 0032 FFF7FEFF 		bl	puts
ARM GAS  C:\Users\jo\AppData\Local\Temp\ccE6GZHP.s 			page 10


 510              	.LVL52:
 511              	@ 318 "../../../os/rt/include/chsys.h" 1
 512 0036 00BE     		BKPT #0
 513              	
 514              	@ 0 "" 2
 515              		.thumb
 516 0038 0548     		ldr	r0, .L48+8
 517 003a FFF7FEFF 		bl	chSysHalt
 518              	.LVL53:
 519              	.L46:
 520              	.LBB169:
 521              	.LBB170:
 522              	.LBB171:
 523              		.loc 3 546 0
 524 003e 0023     		movs	r3, #0
 525              	@ 546 "../../../os/ext/CMSIS/include/core_cmFunc.h" 1
 526 0040 83F31188 		MSR basepri, r3
 527              	@ 0 "" 2
 528              		.thumb
 529              	.LBE171:
 530              	.LBE170:
 531              	.LBE169:
 532              	.LBE168:
 533              	.LBE167:
 534              		.loc 1 183 0
 535 0044 2046     		mov	r0, r4
 536 0046 10BD     		pop	{r4, pc}
 537              	.LVL54:
 538              	.L49:
 539              		.align	2
 540              	.L48:
 541 0048 00000000 		.word	ch
 542 004c 18000000 		.word	.LC1
 543 0050 00000000 		.word	.LANCHOR2
 544              		.cfi_endproc
 545              	.LFE229:
 546              		.size	chSemWait, .-chSemWait
 547 0054 AFF30080 		.section	.text.chSemWaitTimeoutS,"ax",%progbits
 547      AFF30080 
 547      AFF30080 
 548              		.align	2
 549              		.p2align 4,,15
 550              		.global	chSemWaitTimeoutS
 551              		.thumb
 552              		.thumb_func
 553              		.type	chSemWaitTimeoutS, %function
 554              	chSemWaitTimeoutS:
 555              	.LFB232:
 556              		.loc 1 264 0
 557              		.cfi_startproc
 558              		@ args = 0, pretend = 0, frame = 0
 559              		@ frame_needed = 0, uses_anonymous_args = 0
 560              	.LVL55:
 561 0000 38B5     		push	{r3, r4, r5, lr}
 562              		.cfi_def_cfa_offset 16
 563              		.cfi_offset 3, -16
 564              		.cfi_offset 4, -12
ARM GAS  C:\Users\jo\AppData\Local\Temp\ccE6GZHP.s 			page 11


 565              		.cfi_offset 5, -8
 566              		.cfi_offset 14, -4
 567              		.loc 1 264 0
 568 0002 0446     		mov	r4, r0
 569 0004 0D46     		mov	r5, r1
 570              		.loc 1 266 0
 571 0006 FFF7FEFF 		bl	chDbgCheckClassS
 572              	.LVL56:
 573              		.loc 1 267 0
 574 000a 44B3     		cbz	r4, .L60
 575              	.L51:
 576              		.loc 1 268 0
 577 000c A368     		ldr	r3, [r4, #8]
 578 000e 2268     		ldr	r2, [r4]
 579 0010 002B     		cmp	r3, #0
 580 0012 0FDB     		blt	.L52
 581              	.LVL57:
 582              		.loc 1 268 0 is_stmt 0 discriminator 2
 583 0014 9442     		cmp	r4, r2
 584 0016 07D0     		beq	.L54
 585              	.LVL58:
 586              	.L53:
 587              		.loc 1 268 0 discriminator 6
 588 0018 1548     		ldr	r0, .L63
 589 001a FFF7FEFF 		bl	puts
 590              	.LVL59:
 591              	@ 268 "../../../os/rt/src/chsem.c" 1
 592 001e 00BE     		BKPT #0
 593              	
 594              	@ 0 "" 2
 595              		.thumb
 596 0020 1448     		ldr	r0, .L63+4
 597 0022 FFF7FEFF 		bl	chSysHalt
 598              	.LVL60:
 599 0026 A368     		ldr	r3, [r4, #8]
 600              	.L54:
 601              		.loc 1 272 0 is_stmt 1
 602 0028 5A1E     		subs	r2, r3, #1
 603 002a 002A     		cmp	r2, #0
 604 002c A260     		str	r2, [r4, #8]
 605 002e 07DB     		blt	.L61
 606              	.L57:
 607              		.loc 1 284 0
 608 0030 0020     		movs	r0, #0
 609              		.loc 1 285 0
 610 0032 38BD     		pop	{r3, r4, r5, pc}
 611              	.LVL61:
 612              	.L52:
 613              		.loc 1 268 0 discriminator 5
 614 0034 9442     		cmp	r4, r2
 615 0036 EFD0     		beq	.L53
 616              		.loc 1 272 0
 617 0038 5A1E     		subs	r2, r3, #1
 618 003a 002A     		cmp	r2, #0
 619 003c A260     		str	r2, [r4, #8]
 620 003e F7DA     		bge	.L57
 621              	.LVL62:
ARM GAS  C:\Users\jo\AppData\Local\Temp\ccE6GZHP.s 			page 12


 622              	.L61:
 623              		.loc 1 273 0
 624 0040 8DB1     		cbz	r5, .L62
 625              	.LVL63:
 626              	.LBB184:
 627              	.LBB185:
 628              		.loc 1 278 0
 629 0042 0D4B     		ldr	r3, .L63+8
 630 0044 9B69     		ldr	r3, [r3, #24]
 631 0046 5C62     		str	r4, [r3, #36]
 632              	.LVL64:
 633              	.LBB186:
 634              	.LBB187:
 635              		.loc 2 634 0
 636 0048 6268     		ldr	r2, [r4, #4]
 637 004a 5A60     		str	r2, [r3, #4]
 638              		.loc 2 633 0
 639 004c 1C60     		str	r4, [r3]
 640              	.LBE187:
 641              	.LBE186:
 642              		.loc 1 281 0
 643 004e 2946     		mov	r1, r5
 644              	.LBB190:
 645              	.LBB188:
 646              		.loc 2 635 0
 647 0050 6360     		str	r3, [r4, #4]
 648              	.LBE188:
 649              	.LBE190:
 650              		.loc 1 281 0
 651 0052 0520     		movs	r0, #5
 652              	.LBB191:
 653              	.LBB189:
 654              		.loc 2 635 0
 655 0054 1360     		str	r3, [r2]
 656              	.LBE189:
 657              	.LBE191:
 658              	.LBE185:
 659              	.LBE184:
 660              		.loc 1 285 0
 661 0056 BDE83840 		pop	{r3, r4, r5, lr}
 662              		.cfi_remember_state
 663              		.cfi_restore 14
 664              		.cfi_restore 5
 665              		.cfi_restore 4
 666              		.cfi_restore 3
 667              		.cfi_def_cfa_offset 0
 668              	.LVL65:
 669              	.LBB193:
 670              	.LBB192:
 671              		.loc 1 281 0
 672 005a FFF7FEBF 		b	chSchGoSleepTimeoutS
 673              	.LVL66:
 674              	.L60:
 675              		.cfi_restore_state
 676              	.LBE192:
 677              	.LBE193:
 678              		.loc 1 267 0 discriminator 1
ARM GAS  C:\Users\jo\AppData\Local\Temp\ccE6GZHP.s 			page 13


 679 005e 0548     		ldr	r0, .L63+4
 680 0060 FFF7FEFF 		bl	chSysHalt
 681              	.LVL67:
 682 0064 D2E7     		b	.L51
 683              	.L62:
 684              		.loc 1 274 0
 685 0066 A360     		str	r3, [r4, #8]
 686              		.loc 1 276 0
 687 0068 4FF0FF30 		mov	r0, #-1
 688 006c 38BD     		pop	{r3, r4, r5, pc}
 689              	.LVL68:
 690              	.L64:
 691 006e 00BF     		.align	2
 692              	.L63:
 693 0070 00000000 		.word	.LC0
 694 0074 00000000 		.word	.LANCHOR4
 695 0078 00000000 		.word	ch
 696              		.cfi_endproc
 697              	.LFE232:
 698              		.size	chSemWaitTimeoutS, .-chSemWaitTimeoutS
 699 007c AFF30080 		.section	.text.chSemWaitTimeout,"ax",%progbits
 700              		.align	2
 701              		.p2align 4,,15
 702              		.global	chSemWaitTimeout
 703              		.thumb
 704              		.thumb_func
 705              		.type	chSemWaitTimeout, %function
 706              	chSemWaitTimeout:
 707              	.LFB231:
 708              		.loc 1 235 0
 709              		.cfi_startproc
 710              		@ args = 0, pretend = 0, frame = 0
 711              		@ frame_needed = 0, uses_anonymous_args = 0
 712              	.LVL69:
 713 0000 38B5     		push	{r3, r4, r5, lr}
 714              		.cfi_def_cfa_offset 16
 715              		.cfi_offset 3, -16
 716              		.cfi_offset 4, -12
 717              		.cfi_offset 5, -8
 718              		.cfi_offset 14, -4
 719              		.loc 1 235 0
 720 0002 0546     		mov	r5, r0
 721 0004 0C46     		mov	r4, r1
 722              	.LBB204:
 723              	.LBB205:
 724              	.LBB206:
 725              	.LBB207:
 726              	.LBB208:
 727              		.loc 3 546 0
 728 0006 2023     		movs	r3, #32
 729              	@ 546 "../../../os/ext/CMSIS/include/core_cmFunc.h" 1
 730 0008 83F31188 		MSR basepri, r3
 731              	@ 0 "" 2
 732              		.thumb
 733              	.LBE208:
 734              	.LBE207:
 735              	.LBE206:
ARM GAS  C:\Users\jo\AppData\Local\Temp\ccE6GZHP.s 			page 14


 736              		.loc 4 300 0
 737 000c FFF7FEFF 		bl	_stats_start_measure_crit_thd
 738              	.LVL70:
 739              		.loc 4 301 0
 740 0010 FFF7FEFF 		bl	_dbg_check_lock
 741              	.LVL71:
 742              	.LBE205:
 743              	.LBE204:
 744              		.loc 1 239 0
 745 0014 2146     		mov	r1, r4
 746 0016 2846     		mov	r0, r5
 747 0018 FFF7FEFF 		bl	chSemWaitTimeoutS
 748              	.LVL72:
 749 001c 0446     		mov	r4, r0
 750              	.LVL73:
 751              	.LBB209:
 752              	.LBB210:
 753              		.loc 4 311 0
 754 001e FFF7FEFF 		bl	_dbg_check_unlock
 755              	.LVL74:
 756              		.loc 4 312 0
 757 0022 FFF7FEFF 		bl	_stats_stop_measure_crit_thd
 758              	.LVL75:
 759              		.loc 4 318 0
 760 0026 094B     		ldr	r3, .L68
 761 0028 9A69     		ldr	r2, [r3, #24]
 762 002a 1B68     		ldr	r3, [r3]
 763 002c 9268     		ldr	r2, [r2, #8]
 764 002e 9B68     		ldr	r3, [r3, #8]
 765 0030 9A42     		cmp	r2, r3
 766 0032 06D2     		bcs	.L66
 767 0034 0648     		ldr	r0, .L68+4
 768 0036 FFF7FEFF 		bl	puts
 769              	.LVL76:
 770              	@ 318 "../../../os/rt/include/chsys.h" 1
 771 003a 00BE     		BKPT #0
 772              	
 773              	@ 0 "" 2
 774              		.thumb
 775 003c 0548     		ldr	r0, .L68+8
 776 003e FFF7FEFF 		bl	chSysHalt
 777              	.LVL77:
 778              	.L66:
 779              	.LBB211:
 780              	.LBB212:
 781              	.LBB213:
 782              		.loc 3 546 0
 783 0042 0023     		movs	r3, #0
 784              	@ 546 "../../../os/ext/CMSIS/include/core_cmFunc.h" 1
 785 0044 83F31188 		MSR basepri, r3
 786              	@ 0 "" 2
 787              		.thumb
 788              	.LBE213:
 789              	.LBE212:
 790              	.LBE211:
 791              	.LBE210:
 792              	.LBE209:
ARM GAS  C:\Users\jo\AppData\Local\Temp\ccE6GZHP.s 			page 15


 793              		.loc 1 243 0
 794 0048 2046     		mov	r0, r4
 795 004a 38BD     		pop	{r3, r4, r5, pc}
 796              	.LVL78:
 797              	.L69:
 798              		.align	2
 799              	.L68:
 800 004c 00000000 		.word	ch
 801 0050 18000000 		.word	.LC1
 802 0054 00000000 		.word	.LANCHOR2
 803              		.cfi_endproc
 804              	.LFE231:
 805              		.size	chSemWaitTimeout, .-chSemWaitTimeout
 806 0058 AFF30080 		.section	.text.chSemSignal,"ax",%progbits
 806      AFF30080 
 807              		.align	2
 808              		.p2align 4,,15
 809              		.global	chSemSignal
 810              		.thumb
 811              		.thumb_func
 812              		.type	chSemSignal, %function
 813              	chSemSignal:
 814              	.LFB233:
 815              		.loc 1 294 0
 816              		.cfi_startproc
 817              		@ args = 0, pretend = 0, frame = 0
 818              		@ frame_needed = 0, uses_anonymous_args = 0
 819              	.LVL79:
 820 0000 10B5     		push	{r4, lr}
 821              		.cfi_def_cfa_offset 8
 822              		.cfi_offset 4, -8
 823              		.cfi_offset 14, -4
 824              		.loc 1 296 0
 825 0002 0446     		mov	r4, r0
 826 0004 0028     		cmp	r0, #0
 827 0006 39D0     		beq	.L78
 828              	.LVL80:
 829              	.L71:
 830              		.loc 1 297 0
 831 0008 A368     		ldr	r3, [r4, #8]
 832 000a 002B     		cmp	r3, #0
 833 000c 2368     		ldr	r3, [r4]
 834 000e 2ADB     		blt	.L72
 835              	.LVL81:
 836              		.loc 1 297 0 is_stmt 0 discriminator 2
 837 0010 9C42     		cmp	r4, r3
 838 0012 06D0     		beq	.L74
 839              	.LVL82:
 840              	.L73:
 841              		.loc 1 297 0 discriminator 6
 842 0014 1B48     		ldr	r0, .L80
 843 0016 FFF7FEFF 		bl	puts
 844              	.LVL83:
 845              	@ 297 "../../../os/rt/src/chsem.c" 1
 846 001a 00BE     		BKPT #0
 847              	
 848              	@ 0 "" 2
ARM GAS  C:\Users\jo\AppData\Local\Temp\ccE6GZHP.s 			page 16


 849              		.thumb
 850 001c 1A48     		ldr	r0, .L80+4
 851 001e FFF7FEFF 		bl	chSysHalt
 852              	.LVL84:
 853              	.L74:
 854              	.LBB230:
 855              	.LBB231:
 856              	.LBB232:
 857              	.LBB233:
 858              	.LBB234:
 859              		.loc 3 546 0 is_stmt 1
 860 0022 2023     		movs	r3, #32
 861              	@ 546 "../../../os/ext/CMSIS/include/core_cmFunc.h" 1
 862 0024 83F31188 		MSR basepri, r3
 863              	@ 0 "" 2
 864              		.thumb
 865              	.LBE234:
 866              	.LBE233:
 867              	.LBE232:
 868              		.loc 4 300 0
 869 0028 FFF7FEFF 		bl	_stats_start_measure_crit_thd
 870              	.LVL85:
 871              		.loc 4 301 0
 872 002c FFF7FEFF 		bl	_dbg_check_lock
 873              	.LVL86:
 874              	.LBE231:
 875              	.LBE230:
 876              		.loc 1 302 0
 877 0030 A368     		ldr	r3, [r4, #8]
 878 0032 0133     		adds	r3, r3, #1
 879 0034 002B     		cmp	r3, #0
 880 0036 A360     		str	r3, [r4, #8]
 881 0038 18DD     		ble	.L79
 882              	.L75:
 883              	.LBB235:
 884              	.LBB236:
 885              		.loc 4 311 0
 886 003a FFF7FEFF 		bl	_dbg_check_unlock
 887              	.LVL87:
 888              		.loc 4 312 0
 889 003e FFF7FEFF 		bl	_stats_stop_measure_crit_thd
 890              	.LVL88:
 891              		.loc 4 318 0
 892 0042 124B     		ldr	r3, .L80+8
 893 0044 9A69     		ldr	r2, [r3, #24]
 894 0046 1B68     		ldr	r3, [r3]
 895 0048 9268     		ldr	r2, [r2, #8]
 896 004a 9B68     		ldr	r3, [r3, #8]
 897 004c 9A42     		cmp	r2, r3
 898 004e 06D2     		bcs	.L76
 899 0050 0F48     		ldr	r0, .L80+12
 900 0052 FFF7FEFF 		bl	puts
 901              	.LVL89:
 902              	@ 318 "../../../os/rt/include/chsys.h" 1
 903 0056 00BE     		BKPT #0
 904              	
 905              	@ 0 "" 2
ARM GAS  C:\Users\jo\AppData\Local\Temp\ccE6GZHP.s 			page 17


 906              		.thumb
 907 0058 0E48     		ldr	r0, .L80+16
 908 005a FFF7FEFF 		bl	chSysHalt
 909              	.LVL90:
 910              	.L76:
 911              	.LBB237:
 912              	.LBB238:
 913              	.LBB239:
 914              		.loc 3 546 0
 915 005e 0023     		movs	r3, #0
 916              	@ 546 "../../../os/ext/CMSIS/include/core_cmFunc.h" 1
 917 0060 83F31188 		MSR basepri, r3
 918              	@ 0 "" 2
 919              		.thumb
 920 0064 10BD     		pop	{r4, pc}
 921              	.LVL91:
 922              	.L72:
 923              	.LBE239:
 924              	.LBE238:
 925              	.LBE237:
 926              	.LBE236:
 927              	.LBE235:
 928              		.loc 1 297 0 discriminator 5
 929 0066 9C42     		cmp	r4, r3
 930 0068 DBD1     		bne	.L74
 931 006a D3E7     		b	.L73
 932              	.LVL92:
 933              	.L79:
 934              	.LBB240:
 935              	.LBB241:
 936              		.loc 2 639 0
 937 006c 2068     		ldr	r0, [r4]
 938              	.LVL93:
 939              		.loc 2 641 0
 940 006e 0368     		ldr	r3, [r0]
 941 0070 2360     		str	r3, [r4]
 942              	.LBE241:
 943              	.LBE240:
 944              		.loc 1 303 0
 945 0072 0021     		movs	r1, #0
 946              	.LBB243:
 947              	.LBB242:
 948              		.loc 2 641 0
 949 0074 5C60     		str	r4, [r3, #4]
 950              	.LBE242:
 951              	.LBE243:
 952              		.loc 1 303 0
 953 0076 FFF7FEFF 		bl	chSchWakeupS
 954              	.LVL94:
 955 007a DEE7     		b	.L75
 956              	.LVL95:
 957              	.L78:
 958              		.loc 1 296 0 discriminator 1
 959 007c 0248     		ldr	r0, .L80+4
 960              	.LVL96:
 961 007e FFF7FEFF 		bl	chSysHalt
 962              	.LVL97:
ARM GAS  C:\Users\jo\AppData\Local\Temp\ccE6GZHP.s 			page 18


 963 0082 C1E7     		b	.L71
 964              	.L81:
 965              		.align	2
 966              	.L80:
 967 0084 00000000 		.word	.LC0
 968 0088 00000000 		.word	.LANCHOR5
 969 008c 00000000 		.word	ch
 970 0090 18000000 		.word	.LC1
 971 0094 00000000 		.word	.LANCHOR2
 972              		.cfi_endproc
 973              	.LFE233:
 974              		.size	chSemSignal, .-chSemSignal
 975 0098 AFF30080 		.section	.text.chSemSignalI,"ax",%progbits
 975      AFF30080 
 976              		.align	2
 977              		.p2align 4,,15
 978              		.global	chSemSignalI
 979              		.thumb
 980              		.thumb_func
 981              		.type	chSemSignalI, %function
 982              	chSemSignalI:
 983              	.LFB234:
 984              		.loc 1 319 0
 985              		.cfi_startproc
 986              		@ args = 0, pretend = 0, frame = 0
 987              		@ frame_needed = 0, uses_anonymous_args = 0
 988              	.LVL98:
 989 0000 10B5     		push	{r4, lr}
 990              		.cfi_def_cfa_offset 8
 991              		.cfi_offset 4, -8
 992              		.cfi_offset 14, -4
 993              		.loc 1 319 0
 994 0002 0446     		mov	r4, r0
 995              		.loc 1 321 0
 996 0004 FFF7FEFF 		bl	chDbgCheckClassI
 997              	.LVL99:
 998              		.loc 1 322 0
 999 0008 1CB3     		cbz	r4, .L90
 1000              	.L83:
 1001              		.loc 1 323 0
 1002 000a A368     		ldr	r3, [r4, #8]
 1003 000c 2268     		ldr	r2, [r4]
 1004 000e 002B     		cmp	r3, #0
 1005 0010 0EDB     		blt	.L84
 1006              	.LVL100:
 1007              		.loc 1 323 0 is_stmt 0 discriminator 2
 1008 0012 9442     		cmp	r4, r2
 1009 0014 07D0     		beq	.L86
 1010              	.LVL101:
 1011              	.L85:
 1012              		.loc 1 323 0 discriminator 6
 1013 0016 1148     		ldr	r0, .L92
 1014 0018 FFF7FEFF 		bl	puts
 1015              	.LVL102:
 1016              	@ 323 "../../../os/rt/src/chsem.c" 1
 1017 001c 00BE     		BKPT #0
 1018              	
ARM GAS  C:\Users\jo\AppData\Local\Temp\ccE6GZHP.s 			page 19


 1019              	@ 0 "" 2
 1020              		.thumb
 1021 001e 1048     		ldr	r0, .L92+4
 1022 0020 FFF7FEFF 		bl	chSysHalt
 1023              	.LVL103:
 1024 0024 A368     		ldr	r3, [r4, #8]
 1025              	.L86:
 1026              		.loc 1 327 0 is_stmt 1
 1027 0026 0133     		adds	r3, r3, #1
 1028 0028 002B     		cmp	r3, #0
 1029 002a A360     		str	r3, [r4, #8]
 1030 002c 06DD     		ble	.L91
 1031              	.L82:
 1032 002e 10BD     		pop	{r4, pc}
 1033              	.LVL104:
 1034              	.L84:
 1035              		.loc 1 323 0 discriminator 5
 1036 0030 9442     		cmp	r4, r2
 1037 0032 F0D0     		beq	.L85
 1038              		.loc 1 327 0
 1039 0034 0133     		adds	r3, r3, #1
 1040 0036 002B     		cmp	r3, #0
 1041 0038 A360     		str	r3, [r4, #8]
 1042 003a F8DC     		bgt	.L82
 1043              	.LVL105:
 1044              	.L91:
 1045              	.LBB244:
 1046              	.LBB245:
 1047              	.LBB246:
 1048              		.loc 2 639 0
 1049 003c 2368     		ldr	r3, [r4]
 1050              	.LVL106:
 1051              		.loc 2 641 0
 1052 003e 1A68     		ldr	r2, [r3]
 1053 0040 2260     		str	r2, [r4]
 1054              	.LBE246:
 1055              	.LBE245:
 1056              		.loc 1 331 0
 1057 0042 0021     		movs	r1, #0
 1058              	.LBB248:
 1059              	.LBB247:
 1060              		.loc 2 641 0
 1061 0044 5460     		str	r4, [r2, #4]
 1062              	.LBE247:
 1063              	.LBE248:
 1064              		.loc 1 331 0
 1065 0046 5962     		str	r1, [r3, #36]
 1066              		.loc 1 332 0
 1067 0048 1846     		mov	r0, r3
 1068              	.LBE244:
 1069              		.loc 1 334 0
 1070 004a BDE81040 		pop	{r4, lr}
 1071              		.cfi_remember_state
 1072              		.cfi_restore 14
 1073              		.cfi_restore 4
 1074              		.cfi_def_cfa_offset 0
 1075              	.LVL107:
ARM GAS  C:\Users\jo\AppData\Local\Temp\ccE6GZHP.s 			page 20


 1076              	.LBB249:
 1077              		.loc 1 332 0
 1078 004e FFF7FEBF 		b	chSchReadyI
 1079              	.LVL108:
 1080              	.L90:
 1081              		.cfi_restore_state
 1082              	.LBE249:
 1083              		.loc 1 322 0 discriminator 1
 1084 0052 0348     		ldr	r0, .L92+4
 1085 0054 FFF7FEFF 		bl	chSysHalt
 1086              	.LVL109:
 1087 0058 D7E7     		b	.L83
 1088              	.L93:
 1089 005a 00BF     		.align	2
 1090              	.L92:
 1091 005c 00000000 		.word	.LC0
 1092 0060 00000000 		.word	.LANCHOR6
 1093              		.cfi_endproc
 1094              	.LFE234:
 1095              		.size	chSemSignalI, .-chSemSignalI
 1096 0064 AFF30080 		.section	.text.chSemAddCounterI,"ax",%progbits
 1096      AFF30080 
 1096      AFF30080 
 1097              		.align	2
 1098              		.p2align 4,,15
 1099              		.global	chSemAddCounterI
 1100              		.thumb
 1101              		.thumb_func
 1102              		.type	chSemAddCounterI, %function
 1103              	chSemAddCounterI:
 1104              	.LFB235:
 1105              		.loc 1 349 0
 1106              		.cfi_startproc
 1107              		@ args = 0, pretend = 0, frame = 0
 1108              		@ frame_needed = 0, uses_anonymous_args = 0
 1109              	.LVL110:
 1110 0000 70B5     		push	{r4, r5, r6, lr}
 1111              		.cfi_def_cfa_offset 16
 1112              		.cfi_offset 4, -16
 1113              		.cfi_offset 5, -12
 1114              		.cfi_offset 6, -8
 1115              		.cfi_offset 14, -4
 1116              		.loc 1 349 0
 1117 0002 0546     		mov	r5, r0
 1118 0004 0C46     		mov	r4, r1
 1119              		.loc 1 351 0
 1120 0006 FFF7FEFF 		bl	chDbgCheckClassI
 1121              	.LVL111:
 1122              		.loc 1 352 0
 1123 000a 35B3     		cbz	r5, .L95
 1124              		.loc 1 352 0 is_stmt 0 discriminator 2
 1125 000c 002C     		cmp	r4, #0
 1126 000e 24DD     		ble	.L95
 1127              	.L96:
 1128              		.loc 1 353 0 is_stmt 1
 1129 0010 AB68     		ldr	r3, [r5, #8]
 1130 0012 002B     		cmp	r3, #0
ARM GAS  C:\Users\jo\AppData\Local\Temp\ccE6GZHP.s 			page 21


 1131 0014 2B68     		ldr	r3, [r5]
 1132 0016 1DDB     		blt	.L97
 1133              	.LVL112:
 1134              		.loc 1 353 0 is_stmt 0 discriminator 2
 1135 0018 9D42     		cmp	r5, r3
 1136 001a 06D0     		beq	.L99
 1137              	.LVL113:
 1138              	.L98:
 1139              		.loc 1 353 0 discriminator 6
 1140 001c 1148     		ldr	r0, .L109
 1141 001e FFF7FEFF 		bl	puts
 1142              	.LVL114:
 1143              	@ 353 "../../../os/rt/src/chsem.c" 1
 1144 0022 00BE     		BKPT #0
 1145              	
 1146              	@ 0 "" 2
 1147              		.thumb
 1148 0024 1048     		ldr	r0, .L109+4
 1149 0026 FFF7FEFF 		bl	chSysHalt
 1150              	.LVL115:
 1151              	.L99:
 1152              		.loc 1 357 0 is_stmt 1
 1153 002a 002C     		cmp	r4, #0
 1154 002c 11DD     		ble	.L94
 1155              		.loc 1 359 0
 1156 002e 0026     		movs	r6, #0
 1157 0030 01E0     		b	.L102
 1158              	.L101:
 1159              	.LVL116:
 1160              		.loc 1 357 0
 1161 0032 013C     		subs	r4, r4, #1
 1162              	.LVL117:
 1163 0034 0DD0     		beq	.L94
 1164              	.LVL118:
 1165              	.L102:
 1166              		.loc 1 358 0
 1167 0036 AB68     		ldr	r3, [r5, #8]
 1168 0038 0133     		adds	r3, r3, #1
 1169 003a 002B     		cmp	r3, #0
 1170 003c AB60     		str	r3, [r5, #8]
 1171 003e F8DC     		bgt	.L101
 1172              	.LVL119:
 1173              	.LBB250:
 1174              	.LBB251:
 1175              		.loc 2 639 0
 1176 0040 2868     		ldr	r0, [r5]
 1177              	.LVL120:
 1178              		.loc 2 641 0
 1179 0042 0368     		ldr	r3, [r0]
 1180 0044 2B60     		str	r3, [r5]
 1181 0046 5D60     		str	r5, [r3, #4]
 1182              	.LBE251:
 1183              	.LBE250:
 1184              		.loc 1 359 0
 1185 0048 FFF7FEFF 		bl	chSchReadyI
 1186              	.LVL121:
 1187              		.loc 1 357 0
ARM GAS  C:\Users\jo\AppData\Local\Temp\ccE6GZHP.s 			page 22


 1188 004c 013C     		subs	r4, r4, #1
 1189              	.LVL122:
 1190              		.loc 1 359 0
 1191 004e 4662     		str	r6, [r0, #36]
 1192              	.LVL123:
 1193              		.loc 1 357 0
 1194 0050 F1D1     		bne	.L102
 1195              	.LVL124:
 1196              	.L94:
 1197 0052 70BD     		pop	{r4, r5, r6, pc}
 1198              	.LVL125:
 1199              	.L97:
 1200              		.loc 1 353 0 discriminator 5
 1201 0054 9D42     		cmp	r5, r3
 1202 0056 E8D1     		bne	.L99
 1203 0058 E0E7     		b	.L98
 1204              	.LVL126:
 1205              	.L95:
 1206              		.loc 1 352 0 discriminator 3
 1207 005a 0348     		ldr	r0, .L109+4
 1208 005c FFF7FEFF 		bl	chSysHalt
 1209              	.LVL127:
 1210 0060 D6E7     		b	.L96
 1211              	.L110:
 1212 0062 00BF     		.align	2
 1213              	.L109:
 1214 0064 00000000 		.word	.LC0
 1215 0068 00000000 		.word	.LANCHOR7
 1216              		.cfi_endproc
 1217              	.LFE235:
 1218              		.size	chSemAddCounterI, .-chSemAddCounterI
 1219 006c AFF30080 		.section	.text.chSemSignalWait,"ax",%progbits
 1220              		.align	2
 1221              		.p2align 4,,15
 1222              		.global	chSemSignalWait
 1223              		.thumb
 1224              		.thumb_func
 1225              		.type	chSemSignalWait, %function
 1226              	chSemSignalWait:
 1227              	.LFB236:
 1228              		.loc 1 378 0
 1229              		.cfi_startproc
 1230              		@ args = 0, pretend = 0, frame = 0
 1231              		@ frame_needed = 0, uses_anonymous_args = 0
 1232              	.LVL128:
 1233 0000 70B5     		push	{r4, r5, r6, lr}
 1234              		.cfi_def_cfa_offset 16
 1235              		.cfi_offset 4, -16
 1236              		.cfi_offset 5, -12
 1237              		.cfi_offset 6, -8
 1238              		.cfi_offset 14, -4
 1239              		.loc 1 378 0
 1240 0002 0C46     		mov	r4, r1
 1241              		.loc 1 381 0
 1242 0004 0546     		mov	r5, r0
 1243 0006 0028     		cmp	r0, #0
 1244 0008 4CD0     		beq	.L112
ARM GAS  C:\Users\jo\AppData\Local\Temp\ccE6GZHP.s 			page 23


 1245              		.loc 1 381 0 is_stmt 0 discriminator 2
 1246 000a 0029     		cmp	r1, #0
 1247 000c 4AD0     		beq	.L112
 1248              	.LVL129:
 1249              	.L113:
 1250              		.loc 1 382 0 is_stmt 1
 1251 000e AB68     		ldr	r3, [r5, #8]
 1252 0010 002B     		cmp	r3, #0
 1253 0012 2B68     		ldr	r3, [r5]
 1254 0014 43DB     		blt	.L114
 1255              	.LVL130:
 1256              		.loc 1 382 0 is_stmt 0 discriminator 2
 1257 0016 9D42     		cmp	r5, r3
 1258 0018 06D0     		beq	.L116
 1259              	.LVL131:
 1260              	.L115:
 1261              		.loc 1 382 0 discriminator 6
 1262 001a 2F48     		ldr	r0, .L130
 1263 001c FFF7FEFF 		bl	puts
 1264              	.LVL132:
 1265              	@ 382 "../../../os/rt/src/chsem.c" 1
 1266 0020 00BE     		BKPT #0
 1267              	
 1268              	@ 0 "" 2
 1269              		.thumb
 1270 0022 2E48     		ldr	r0, .L130+4
 1271 0024 FFF7FEFF 		bl	chSysHalt
 1272              	.LVL133:
 1273              	.L116:
 1274              		.loc 1 385 0 is_stmt 1
 1275 0028 A368     		ldr	r3, [r4, #8]
 1276 002a 002B     		cmp	r3, #0
 1277 002c 2368     		ldr	r3, [r4]
 1278 002e 33DB     		blt	.L117
 1279              	.LVL134:
 1280              		.loc 1 385 0 is_stmt 0 discriminator 2
 1281 0030 9C42     		cmp	r4, r3
 1282 0032 06D0     		beq	.L119
 1283              	.LVL135:
 1284              	.L118:
 1285              		.loc 1 385 0 discriminator 6
 1286 0034 2848     		ldr	r0, .L130
 1287 0036 FFF7FEFF 		bl	puts
 1288              	.LVL136:
 1289              	@ 385 "../../../os/rt/src/chsem.c" 1
 1290 003a 00BE     		BKPT #0
 1291              	
 1292              	@ 0 "" 2
 1293              		.thumb
 1294 003c 2748     		ldr	r0, .L130+4
 1295 003e FFF7FEFF 		bl	chSysHalt
 1296              	.LVL137:
 1297              	.L119:
 1298              	.LBB275:
 1299              	.LBB276:
 1300              	.LBB277:
 1301              	.LBB278:
ARM GAS  C:\Users\jo\AppData\Local\Temp\ccE6GZHP.s 			page 24


 1302              	.LBB279:
 1303              		.loc 3 546 0 is_stmt 1
 1304 0042 2023     		movs	r3, #32
 1305              	@ 546 "../../../os/ext/CMSIS/include/core_cmFunc.h" 1
 1306 0044 83F31188 		MSR basepri, r3
 1307              	@ 0 "" 2
 1308              		.thumb
 1309              	.LBE279:
 1310              	.LBE278:
 1311              	.LBE277:
 1312              		.loc 4 300 0
 1313 0048 FFF7FEFF 		bl	_stats_start_measure_crit_thd
 1314              	.LVL138:
 1315              		.loc 4 301 0
 1316 004c FFF7FEFF 		bl	_dbg_check_lock
 1317              	.LVL139:
 1318              	.LBE276:
 1319              	.LBE275:
 1320              		.loc 1 390 0
 1321 0050 AB68     		ldr	r3, [r5, #8]
 1322 0052 0133     		adds	r3, r3, #1
 1323 0054 002B     		cmp	r3, #0
 1324 0056 AB60     		str	r3, [r5, #8]
 1325 0058 35DD     		ble	.L128
 1326              	.L120:
 1327              		.loc 1 393 0
 1328 005a A368     		ldr	r3, [r4, #8]
 1329 005c 013B     		subs	r3, r3, #1
 1330 005e 002B     		cmp	r3, #0
 1331 0060 A360     		str	r3, [r4, #8]
 1332 0062 23DB     		blt	.L129
 1333              		.loc 1 401 0
 1334 0064 FFF7FEFF 		bl	chSchRescheduleS
 1335              	.LVL140:
 1336 0068 1D4D     		ldr	r5, .L130+8
 1337              	.LVL141:
 1338              		.loc 1 402 0
 1339 006a 0024     		movs	r4, #0
 1340              	.LVL142:
 1341              	.L122:
 1342              	.LBB280:
 1343              	.LBB281:
 1344              		.loc 4 311 0
 1345 006c FFF7FEFF 		bl	_dbg_check_unlock
 1346              	.LVL143:
 1347              		.loc 4 312 0
 1348 0070 FFF7FEFF 		bl	_stats_stop_measure_crit_thd
 1349              	.LVL144:
 1350              		.loc 4 318 0
 1351 0074 AA69     		ldr	r2, [r5, #24]
 1352 0076 2B68     		ldr	r3, [r5]
 1353 0078 9268     		ldr	r2, [r2, #8]
 1354 007a 9B68     		ldr	r3, [r3, #8]
 1355 007c 9A42     		cmp	r2, r3
 1356 007e 06D2     		bcs	.L123
 1357 0080 1848     		ldr	r0, .L130+12
 1358 0082 FFF7FEFF 		bl	puts
ARM GAS  C:\Users\jo\AppData\Local\Temp\ccE6GZHP.s 			page 25


 1359              	.LVL145:
 1360              	@ 318 "../../../os/rt/include/chsys.h" 1
 1361 0086 00BE     		BKPT #0
 1362              	
 1363              	@ 0 "" 2
 1364              		.thumb
 1365 0088 1748     		ldr	r0, .L130+16
 1366 008a FFF7FEFF 		bl	chSysHalt
 1367              	.LVL146:
 1368              	.L123:
 1369              	.LBB282:
 1370              	.LBB283:
 1371              	.LBB284:
 1372              		.loc 3 546 0
 1373 008e 0023     		movs	r3, #0
 1374              	@ 546 "../../../os/ext/CMSIS/include/core_cmFunc.h" 1
 1375 0090 83F31188 		MSR basepri, r3
 1376              	@ 0 "" 2
 1377              		.thumb
 1378              	.LBE284:
 1379              	.LBE283:
 1380              	.LBE282:
 1381              	.LBE281:
 1382              	.LBE280:
 1383              		.loc 1 407 0
 1384 0094 2046     		mov	r0, r4
 1385 0096 70BD     		pop	{r4, r5, r6, pc}
 1386              	.LVL147:
 1387              	.L117:
 1388              		.loc 1 385 0 discriminator 5
 1389 0098 9C42     		cmp	r4, r3
 1390 009a D2D1     		bne	.L119
 1391 009c CAE7     		b	.L118
 1392              	.LVL148:
 1393              	.L114:
 1394              		.loc 1 382 0 discriminator 5
 1395 009e 9D42     		cmp	r5, r3
 1396 00a0 C2D1     		bne	.L116
 1397 00a2 BAE7     		b	.L115
 1398              	.LVL149:
 1399              	.L112:
 1400              		.loc 1 381 0 discriminator 3
 1401 00a4 0D48     		ldr	r0, .L130+4
 1402              	.LVL150:
 1403 00a6 FFF7FEFF 		bl	chSysHalt
 1404              	.LVL151:
 1405 00aa B0E7     		b	.L113
 1406              	.LVL152:
 1407              	.L129:
 1408              	.LBB285:
 1409              		.loc 1 394 0
 1410 00ac 0C4D     		ldr	r5, .L130+8
 1411              	.LVL153:
 1412              	.LBB286:
 1413              	.LBB287:
 1414              		.loc 2 634 0
 1415 00ae 6368     		ldr	r3, [r4, #4]
ARM GAS  C:\Users\jo\AppData\Local\Temp\ccE6GZHP.s 			page 26


 1416              	.LBE287:
 1417              	.LBE286:
 1418              		.loc 1 394 0
 1419 00b0 AE69     		ldr	r6, [r5, #24]
 1420              	.LVL154:
 1421              		.loc 1 397 0
 1422 00b2 0520     		movs	r0, #5
 1423              	.LBB289:
 1424              	.LBB288:
 1425              		.loc 2 633 0
 1426 00b4 3460     		str	r4, [r6]
 1427              		.loc 2 634 0
 1428 00b6 7360     		str	r3, [r6, #4]
 1429              		.loc 2 635 0
 1430 00b8 6660     		str	r6, [r4, #4]
 1431 00ba 1E60     		str	r6, [r3]
 1432              	.LBE288:
 1433              	.LBE289:
 1434              		.loc 1 396 0
 1435 00bc 7462     		str	r4, [r6, #36]
 1436              		.loc 1 397 0
 1437 00be FFF7FEFF 		bl	chSchGoSleepS
 1438              	.LVL155:
 1439              		.loc 1 398 0
 1440 00c2 746A     		ldr	r4, [r6, #36]
 1441              	.LVL156:
 1442              	.LBE285:
 1443 00c4 D2E7     		b	.L122
 1444              	.LVL157:
 1445              	.L128:
 1446              	.LBB290:
 1447              	.LBB291:
 1448              		.loc 2 639 0
 1449 00c6 2868     		ldr	r0, [r5]
 1450              	.LVL158:
 1451              		.loc 2 641 0
 1452 00c8 0368     		ldr	r3, [r0]
 1453 00ca 2B60     		str	r3, [r5]
 1454 00cc 5D60     		str	r5, [r3, #4]
 1455              	.LBE291:
 1456              	.LBE290:
 1457              		.loc 1 391 0
 1458 00ce FFF7FEFF 		bl	chSchReadyI
 1459              	.LVL159:
 1460 00d2 0023     		movs	r3, #0
 1461 00d4 4362     		str	r3, [r0, #36]
 1462 00d6 C0E7     		b	.L120
 1463              	.L131:
 1464              		.align	2
 1465              	.L130:
 1466 00d8 00000000 		.word	.LC0
 1467 00dc 00000000 		.word	.LANCHOR8
 1468 00e0 00000000 		.word	ch
 1469 00e4 18000000 		.word	.LC1
 1470 00e8 00000000 		.word	.LANCHOR2
 1471              		.cfi_endproc
 1472              	.LFE236:
ARM GAS  C:\Users\jo\AppData\Local\Temp\ccE6GZHP.s 			page 27


 1473              		.size	chSemSignalWait, .-chSemSignalWait
 1474 00ec AFF30080 		.section	.rodata.__func__.7436,"a",%progbits
 1475              		.align	2
 1476              		.set	.LANCHOR0,. + 0
 1477              		.type	__func__.7436, %object
 1478              		.size	__func__.7436, 16
 1479              	__func__.7436:
 1480 0000 63685365 		.ascii	"chSemObjectInit\000"
 1480      6D4F626A 
 1480      65637449 
 1480      6E697400 
 1481              		.section	.rodata.__func__.7446,"a",%progbits
 1482              		.align	2
 1483              		.set	.LANCHOR1,. + 0
 1484              		.type	__func__.7446, %object
 1485              		.size	__func__.7446, 12
 1486              	__func__.7446:
 1487 0000 63685365 		.ascii	"chSemResetI\000"
 1487      6D526573 
 1487      65744900 
 1488              		.section	.rodata.str1.4,"aMS",%progbits,1
 1489              		.align	2
 1490              	.LC0:
 1491 0000 696E636F 		.ascii	"inconsistent semaphore\000"
 1491      6E736973 
 1491      74656E74 
 1491      2073656D 
 1491      6170686F 
 1492 0017 00       		.space	1
 1493              	.LC1:
 1494 0018 7072696F 		.ascii	"priority violation, missing reschedule\000"
 1494      72697479 
 1494      2076696F 
 1494      6C617469 
 1494      6F6E2C20 
 1495 003f 00       		.section	.rodata.__func__.7471,"a",%progbits
 1496              		.align	2
 1497              		.set	.LANCHOR5,. + 0
 1498              		.type	__func__.7471, %object
 1499              		.size	__func__.7471, 12
 1500              	__func__.7471:
 1501 0000 63685365 		.ascii	"chSemSignal\000"
 1501      6D536967 
 1501      6E616C00 
 1502              		.section	.rodata.__func__.7467,"a",%progbits
 1503              		.align	2
 1504              		.set	.LANCHOR4,. + 0
 1505              		.type	__func__.7467, %object
 1506              		.size	__func__.7467, 18
 1507              	__func__.7467:
 1508 0000 63685365 		.ascii	"chSemWaitTimeoutS\000"
 1508      6D576169 
 1508      7454696D 
 1508      656F7574 
 1508      5300
 1509 0012 0000     		.section	.rodata.__func__.6751,"a",%progbits
 1510              		.align	2
ARM GAS  C:\Users\jo\AppData\Local\Temp\ccE6GZHP.s 			page 28


 1511              		.set	.LANCHOR2,. + 0
 1512              		.type	__func__.6751, %object
 1513              		.size	__func__.6751, 12
 1514              	__func__.6751:
 1515 0000 63685379 		.ascii	"chSysUnlock\000"
 1515      73556E6C 
 1515      6F636B00 
 1516              		.section	.rodata.__func__.7475,"a",%progbits
 1517              		.align	2
 1518              		.set	.LANCHOR6,. + 0
 1519              		.type	__func__.7475, %object
 1520              		.size	__func__.7475, 13
 1521              	__func__.7475:
 1522 0000 63685365 		.ascii	"chSemSignalI\000"
 1522      6D536967 
 1522      6E616C49 
 1522      00
 1523 000d 000000   		.section	.rodata.__func__.7481,"a",%progbits
 1524              		.align	2
 1525              		.set	.LANCHOR7,. + 0
 1526              		.type	__func__.7481, %object
 1527              		.size	__func__.7481, 17
 1528              	__func__.7481:
 1529 0000 63685365 		.ascii	"chSemAddCounterI\000"
 1529      6D416464 
 1529      436F756E 
 1529      74657249 
 1529      00
 1530 0011 000000   		.section	.rodata.__func__.7457,"a",%progbits
 1531              		.align	2
 1532              		.set	.LANCHOR3,. + 0
 1533              		.type	__func__.7457, %object
 1534              		.size	__func__.7457, 11
 1535              	__func__.7457:
 1536 0000 63685365 		.ascii	"chSemWaitS\000"
 1536      6D576169 
 1536      745300
 1537 000b 00       		.section	.rodata.__func__.7490,"a",%progbits
 1538              		.align	2
 1539              		.set	.LANCHOR8,. + 0
 1540              		.type	__func__.7490, %object
 1541              		.size	__func__.7490, 16
 1542              	__func__.7490:
 1543 0000 63685365 		.ascii	"chSemSignalWait\000"
 1543      6D536967 
 1543      6E616C57 
 1543      61697400 
 1544              		.text
 1545              	.Letext0:
 1546              		.file 5 "c:\\program files\\gnu tools arm embedded\\4.9 2014q4\\arm-none-eabi\\include\\machine\\_
 1547              		.file 6 "c:\\program files\\gnu tools arm embedded\\4.9 2014q4\\arm-none-eabi\\include\\stdint.h"
 1548              		.file 7 "../../../os/rt/ports/ARMCMx/compilers/GCC/chtypes.h"
 1549              		.file 8 "../../../os/rt/include/chsystypes.h"
 1550              		.file 9 "../../../os/rt/ports/ARMCMx/chcore.h"
 1551              		.file 10 "../../../os/rt/ports/ARMCMx/chcore_v7m.h"
 1552              		.file 11 "../../../os/rt/include/chdebug.h"
 1553              		.file 12 "../../../os/rt/include/chtm.h"
ARM GAS  C:\Users\jo\AppData\Local\Temp\ccE6GZHP.s 			page 29


 1554              		.file 13 "../../../os/rt/include/chstats.h"
 1555              		.file 14 "../../../os/rt/include/chmtx.h"
 1556              		.file 15 "../../../os/rt/include/chsem.h"
 1557              		.file 16 "../../../os/ext/CMSIS/include/core_cm4.h"
 1558              		.file 17 "<built-in>"