ARM GAS  C:\Users\jo\AppData\Local\Temp\ccewwl0R.s 			page 1


   1              		.syntax unified
   2              		.cpu cortex-m4
   3              		.fpu softvfp
   4              		.eabi_attribute 20, 1
   5              		.eabi_attribute 21, 1
   6              		.eabi_attribute 23, 3
   7              		.eabi_attribute 24, 1
   8              		.eabi_attribute 25, 1
   9              		.eabi_attribute 26, 1
  10              		.eabi_attribute 30, 2
  11              		.eabi_attribute 34, 1
  12              		.eabi_attribute 18, 4
  13              		.thumb
  14              		.file	"chstats.c"
  15              		.text
  16              	.Ltext0:
  17              		.cfi_sections	.debug_frame
  18              		.section	.text._stats_init,"ax",%progbits
  19              		.align	2
  20              		.p2align 4,,15
  21              		.global	_stats_init
  22              		.thumb
  23              		.thumb_func
  24              		.type	_stats_init, %function
  25              	_stats_init:
  26              	.LFB226:
  27              		.file 1 "../../../os/rt/src/chstats.c"
  28              		.loc 1 62 0
  29              		.cfi_startproc
  30              		@ args = 0, pretend = 0, frame = 0
  31              		@ frame_needed = 0, uses_anonymous_args = 0
  32 0000 10B5     		push	{r4, lr}
  33              		.cfi_def_cfa_offset 8
  34              		.cfi_offset 4, -8
  35              		.cfi_offset 14, -4
  36              		.loc 1 64 0
  37 0002 084C     		ldr	r4, .L3
  38 0004 0023     		movs	r3, #0
  39              		.loc 1 66 0
  40 0006 04F59660 		add	r0, r4, #1200
  41              		.loc 1 64 0
  42 000a C4F8A834 		str	r3, [r4, #1192]
  43              		.loc 1 65 0
  44 000e C4F8AC34 		str	r3, [r4, #1196]
  45              		.loc 1 66 0
  46 0012 FFF7FEFF 		bl	chTMObjectInit
  47              	.LVL0:
  48              		.loc 1 67 0
  49 0016 04F59960 		add	r0, r4, #1224
  50              		.loc 1 68 0
  51 001a BDE81040 		pop	{r4, lr}
  52              		.cfi_restore 14
  53              		.cfi_restore 4
  54              		.cfi_def_cfa_offset 0
  55              		.loc 1 67 0
  56 001e FFF7FEBF 		b	chTMObjectInit
  57              	.LVL1:
ARM GAS  C:\Users\jo\AppData\Local\Temp\ccewwl0R.s 			page 2


  58              	.L4:
  59 0022 00BF     		.align	2
  60              	.L3:
  61 0024 00000000 		.word	ch
  62              		.cfi_endproc
  63              	.LFE226:
  64              		.size	_stats_init, .-_stats_init
  65 0028 AFF30080 		.section	.text._stats_increase_irq,"ax",%progbits
  65      AFF30080 
  66              		.align	2
  67              		.p2align 4,,15
  68              		.global	_stats_increase_irq
  69              		.thumb
  70              		.thumb_func
  71              		.type	_stats_increase_irq, %function
  72              	_stats_increase_irq:
  73              	.LFB227:
  74              		.loc 1 73 0
  75              		.cfi_startproc
  76              		@ args = 0, pretend = 0, frame = 0
  77              		@ frame_needed = 0, uses_anonymous_args = 0
  78              		@ link register save eliminated.
  79              		.loc 1 75 0
  80 0000 034A     		ldr	r2, .L6
  81 0002 D2F8A834 		ldr	r3, [r2, #1192]
  82 0006 0133     		adds	r3, r3, #1
  83 0008 C2F8A834 		str	r3, [r2, #1192]
  84 000c 7047     		bx	lr
  85              	.L7:
  86 000e 00BF     		.align	2
  87              	.L6:
  88 0010 00000000 		.word	ch
  89              		.cfi_endproc
  90              	.LFE227:
  91              		.size	_stats_increase_irq, .-_stats_increase_irq
  92 0014 AFF30080 		.section	.text._stats_ctxswc,"ax",%progbits
  92      AFF30080 
  92      AFF30080 
  93              		.align	2
  94              		.p2align 4,,15
  95              		.global	_stats_ctxswc
  96              		.thumb
  97              		.thumb_func
  98              		.type	_stats_ctxswc, %function
  99              	_stats_ctxswc:
 100              	.LFB228:
 101              		.loc 1 84 0
 102              		.cfi_startproc
 103              		@ args = 0, pretend = 0, frame = 0
 104              		@ frame_needed = 0, uses_anonymous_args = 0
 105              		@ link register save eliminated.
 106              	.LVL2:
 107              		.loc 1 86 0
 108 0000 074A     		ldr	r2, .L10
 109 0002 D2F8AC34 		ldr	r3, [r2, #1196]
 110              		.loc 1 84 0
 111 0006 10B4     		push	{r4}
ARM GAS  C:\Users\jo\AppData\Local\Temp\ccewwl0R.s 			page 3


 112              		.cfi_def_cfa_offset 4
 113              		.cfi_offset 4, -4
 114              		.loc 1 87 0
 115 0008 00F14804 		add	r4, r0, #72
 116              		.loc 1 86 0
 117 000c 0133     		adds	r3, r3, #1
 118              		.loc 1 87 0
 119 000e 01F14800 		add	r0, r1, #72
 120              	.LVL3:
 121 0012 2146     		mov	r1, r4
 122              	.LVL4:
 123              		.loc 1 88 0
 124 0014 5DF8044B 		ldr	r4, [sp], #4
 125              		.cfi_restore 4
 126              		.cfi_def_cfa_offset 0
 127              	.LVL5:
 128              		.loc 1 86 0
 129 0018 C2F8AC34 		str	r3, [r2, #1196]
 130              		.loc 1 87 0
 131 001c FFF7FEBF 		b	chTMChainMeasurementToX
 132              	.LVL6:
 133              	.L11:
 134              		.align	2
 135              	.L10:
 136 0020 00000000 		.word	ch
 137              		.cfi_endproc
 138              	.LFE228:
 139              		.size	_stats_ctxswc, .-_stats_ctxswc
 140 0024 AFF30080 		.section	.text._stats_start_measure_crit_thd,"ax",%progbits
 140      AFF30080 
 140      AFF30080 
 141              		.align	2
 142              		.p2align 4,,15
 143              		.global	_stats_start_measure_crit_thd
 144              		.thumb
 145              		.thumb_func
 146              		.type	_stats_start_measure_crit_thd, %function
 147              	_stats_start_measure_crit_thd:
 148              	.LFB229:
 149              		.loc 1 93 0
 150              		.cfi_startproc
 151              		@ args = 0, pretend = 0, frame = 0
 152              		@ frame_needed = 0, uses_anonymous_args = 0
 153              		@ link register save eliminated.
 154              		.loc 1 95 0
 155 0000 0148     		ldr	r0, .L13
 156 0002 FFF7FEBF 		b	chTMStartMeasurementX
 157              	.LVL7:
 158              	.L14:
 159 0006 00BF     		.align	2
 160              	.L13:
 161 0008 B0040000 		.word	ch+1200
 162              		.cfi_endproc
 163              	.LFE229:
 164              		.size	_stats_start_measure_crit_thd, .-_stats_start_measure_crit_thd
 165 000c AFF30080 		.section	.text._stats_stop_measure_crit_thd,"ax",%progbits
 166              		.align	2
ARM GAS  C:\Users\jo\AppData\Local\Temp\ccewwl0R.s 			page 4


 167              		.p2align 4,,15
 168              		.global	_stats_stop_measure_crit_thd
 169              		.thumb
 170              		.thumb_func
 171              		.type	_stats_stop_measure_crit_thd, %function
 172              	_stats_stop_measure_crit_thd:
 173              	.LFB230:
 174              		.loc 1 101 0
 175              		.cfi_startproc
 176              		@ args = 0, pretend = 0, frame = 0
 177              		@ frame_needed = 0, uses_anonymous_args = 0
 178              		@ link register save eliminated.
 179              		.loc 1 103 0
 180 0000 0148     		ldr	r0, .L16
 181 0002 FFF7FEBF 		b	chTMStopMeasurementX
 182              	.LVL8:
 183              	.L17:
 184 0006 00BF     		.align	2
 185              	.L16:
 186 0008 B0040000 		.word	ch+1200
 187              		.cfi_endproc
 188              	.LFE230:
 189              		.size	_stats_stop_measure_crit_thd, .-_stats_stop_measure_crit_thd
 190 000c AFF30080 		.section	.text._stats_start_measure_crit_isr,"ax",%progbits
 191              		.align	2
 192              		.p2align 4,,15
 193              		.global	_stats_start_measure_crit_isr
 194              		.thumb
 195              		.thumb_func
 196              		.type	_stats_start_measure_crit_isr, %function
 197              	_stats_start_measure_crit_isr:
 198              	.LFB231:
 199              		.loc 1 109 0
 200              		.cfi_startproc
 201              		@ args = 0, pretend = 0, frame = 0
 202              		@ frame_needed = 0, uses_anonymous_args = 0
 203              		@ link register save eliminated.
 204              		.loc 1 111 0
 205 0000 0148     		ldr	r0, .L19
 206 0002 FFF7FEBF 		b	chTMStartMeasurementX
 207              	.LVL9:
 208              	.L20:
 209 0006 00BF     		.align	2
 210              	.L19:
 211 0008 C8040000 		.word	ch+1224
 212              		.cfi_endproc
 213              	.LFE231:
 214              		.size	_stats_start_measure_crit_isr, .-_stats_start_measure_crit_isr
 215 000c AFF30080 		.section	.text._stats_stop_measure_crit_isr,"ax",%progbits
 216              		.align	2
 217              		.p2align 4,,15
 218              		.global	_stats_stop_measure_crit_isr
 219              		.thumb
 220              		.thumb_func
 221              		.type	_stats_stop_measure_crit_isr, %function
 222              	_stats_stop_measure_crit_isr:
 223              	.LFB232:
ARM GAS  C:\Users\jo\AppData\Local\Temp\ccewwl0R.s 			page 5


 224              		.loc 1 117 0
 225              		.cfi_startproc
 226              		@ args = 0, pretend = 0, frame = 0
 227              		@ frame_needed = 0, uses_anonymous_args = 0
 228              		@ link register save eliminated.
 229              		.loc 1 119 0
 230 0000 0148     		ldr	r0, .L22
 231 0002 FFF7FEBF 		b	chTMStopMeasurementX
 232              	.LVL10:
 233              	.L23:
 234 0006 00BF     		.align	2
 235              	.L22:
 236 0008 C8040000 		.word	ch+1224
 237              		.cfi_endproc
 238              	.LFE232:
 239              		.size	_stats_stop_measure_crit_isr, .-_stats_stop_measure_crit_isr
 240 000c AFF30080 		.text
 241              	.Letext0:
 242              		.file 2 "c:\\program files\\gnu tools arm embedded\\4.9 2014q4\\arm-none-eabi\\include\\machine\\_
 243              		.file 3 "c:\\program files\\gnu tools arm embedded\\4.9 2014q4\\arm-none-eabi\\include\\stdint.h"
 244              		.file 4 "../../../os/rt/ports/ARMCMx/compilers/GCC/chtypes.h"
 245              		.file 5 "../../../os/rt/include/chsystypes.h"
 246              		.file 6 "../../../os/rt/include/chschd.h"
 247              		.file 7 "../../../os/rt/ports/ARMCMx/chcore.h"
 248              		.file 8 "../../../os/rt/ports/ARMCMx/chcore_v7m.h"
 249              		.file 9 "../../../os/rt/include/chdebug.h"
 250              		.file 10 "../../../os/rt/include/chtm.h"
 251              		.file 11 "../../../os/rt/include/chstats.h"
 252              		.file 12 "../../../os/rt/include/chmtx.h"
 253              		.file 13 "../../../os/ext/CMSIS/include/core_cm4.h"
 254              		.section	.debug_info,"",%progbits
 255              	.Ldebug_info0:
 256 0000 BD080000 		.4byte	0x8bd
 257 0004 0400     		.2byte	0x4
 258 0006 00000000 		.4byte	.Ldebug_abbrev0
 259 000a 04       		.byte	0x4
 260 000b 01       		.uleb128 0x1
 261 000c 2B030000 		.4byte	.LASF131
 262 0010 01       		.byte	0x1
 263 0011 1F060000 		.4byte	.LASF132
 264 0015 21010000 		.4byte	.LASF133
 265 0019 00000000 		.4byte	.Ldebug_ranges0+0
 266 001d 00000000 		.4byte	0
 267 0021 00000000 		.4byte	.Ldebug_line0
 268 0025 02       		.uleb128 0x2
 269 0026 04       		.byte	0x4
 270 0027 05       		.byte	0x5
 271 0028 696E7400 		.ascii	"int\000"
 272 002c 03       		.uleb128 0x3
 273 002d 04       		.byte	0x4
 274 002e 07       		.byte	0x7
 275 002f 4D020000 		.4byte	.LASF0
 276 0033 03       		.uleb128 0x3
 277 0034 01       		.byte	0x1
 278 0035 06       		.byte	0x6
 279 0036 7D010000 		.4byte	.LASF1
 280 003a 04       		.uleb128 0x4
ARM GAS  C:\Users\jo\AppData\Local\Temp\ccewwl0R.s 			page 6


 281 003b 39000000 		.4byte	.LASF5
 282 003f 02       		.byte	0x2
 283 0040 1D       		.byte	0x1d
 284 0041 45000000 		.4byte	0x45
 285 0045 03       		.uleb128 0x3
 286 0046 01       		.byte	0x1
 287 0047 08       		.byte	0x8
 288 0048 F6040000 		.4byte	.LASF2
 289 004c 03       		.uleb128 0x3
 290 004d 02       		.byte	0x2
 291 004e 05       		.byte	0x5
 292 004f 1B050000 		.4byte	.LASF3
 293 0053 03       		.uleb128 0x3
 294 0054 02       		.byte	0x2
 295 0055 07       		.byte	0x7
 296 0056 73020000 		.4byte	.LASF4
 297 005a 04       		.uleb128 0x4
 298 005b CD050000 		.4byte	.LASF6
 299 005f 02       		.byte	0x2
 300 0060 3F       		.byte	0x3f
 301 0061 65000000 		.4byte	0x65
 302 0065 03       		.uleb128 0x3
 303 0066 04       		.byte	0x4
 304 0067 05       		.byte	0x5
 305 0068 CB010000 		.4byte	.LASF7
 306 006c 04       		.uleb128 0x4
 307 006d 0A060000 		.4byte	.LASF8
 308 0071 02       		.byte	0x2
 309 0072 41       		.byte	0x41
 310 0073 77000000 		.4byte	0x77
 311 0077 03       		.uleb128 0x3
 312 0078 04       		.byte	0x4
 313 0079 07       		.byte	0x7
 314 007a B6050000 		.4byte	.LASF9
 315 007e 03       		.uleb128 0x3
 316 007f 08       		.byte	0x8
 317 0080 05       		.byte	0x5
 318 0081 6F010000 		.4byte	.LASF10
 319 0085 04       		.uleb128 0x4
 320 0086 98040000 		.4byte	.LASF11
 321 008a 02       		.byte	0x2
 322 008b 5B       		.byte	0x5b
 323 008c 90000000 		.4byte	0x90
 324 0090 03       		.uleb128 0x3
 325 0091 08       		.byte	0x8
 326 0092 07       		.byte	0x7
 327 0093 88000000 		.4byte	.LASF12
 328 0097 04       		.uleb128 0x4
 329 0098 7F060000 		.4byte	.LASF13
 330 009c 03       		.byte	0x3
 331 009d 15       		.byte	0x15
 332 009e 3A000000 		.4byte	0x3a
 333 00a2 04       		.uleb128 0x4
 334 00a3 EE040000 		.4byte	.LASF14
 335 00a7 03       		.byte	0x3
 336 00a8 2C       		.byte	0x2c
 337 00a9 5A000000 		.4byte	0x5a
ARM GAS  C:\Users\jo\AppData\Local\Temp\ccewwl0R.s 			page 7


 338 00ad 04       		.uleb128 0x4
 339 00ae 78050000 		.4byte	.LASF15
 340 00b2 03       		.byte	0x3
 341 00b3 2D       		.byte	0x2d
 342 00b4 6C000000 		.4byte	0x6c
 343 00b8 04       		.uleb128 0x4
 344 00b9 23000000 		.4byte	.LASF16
 345 00bd 03       		.byte	0x3
 346 00be 39       		.byte	0x39
 347 00bf 85000000 		.4byte	0x85
 348 00c3 05       		.uleb128 0x5
 349 00c4 A2000000 		.4byte	0xa2
 350 00c8 04       		.uleb128 0x4
 351 00c9 4B060000 		.4byte	.LASF17
 352 00cd 04       		.byte	0x4
 353 00ce 45       		.byte	0x45
 354 00cf AD000000 		.4byte	0xad
 355 00d3 04       		.uleb128 0x4
 356 00d4 11010000 		.4byte	.LASF18
 357 00d8 04       		.byte	0x4
 358 00d9 46       		.byte	0x46
 359 00da B8000000 		.4byte	0xb8
 360 00de 04       		.uleb128 0x4
 361 00df BD020000 		.4byte	.LASF19
 362 00e3 04       		.byte	0x4
 363 00e4 48       		.byte	0x48
 364 00e5 97000000 		.4byte	0x97
 365 00e9 04       		.uleb128 0x4
 366 00ea D4010000 		.4byte	.LASF20
 367 00ee 04       		.byte	0x4
 368 00ef 49       		.byte	0x49
 369 00f0 97000000 		.4byte	0x97
 370 00f4 04       		.uleb128 0x4
 371 00f5 AE040000 		.4byte	.LASF21
 372 00f9 04       		.byte	0x4
 373 00fa 4A       		.byte	0x4a
 374 00fb 97000000 		.4byte	0x97
 375 00ff 04       		.uleb128 0x4
 376 0100 D7040000 		.4byte	.LASF22
 377 0104 04       		.byte	0x4
 378 0105 4C       		.byte	0x4c
 379 0106 AD000000 		.4byte	0xad
 380 010a 04       		.uleb128 0x4
 381 010b 9F020000 		.4byte	.LASF23
 382 010f 04       		.byte	0x4
 383 0110 4D       		.byte	0x4d
 384 0111 A2000000 		.4byte	0xa2
 385 0115 04       		.uleb128 0x4
 386 0116 DE020000 		.4byte	.LASF24
 387 011a 04       		.byte	0x4
 388 011b 4F       		.byte	0x4f
 389 011c AD000000 		.4byte	0xad
 390 0120 04       		.uleb128 0x4
 391 0121 3C020000 		.4byte	.LASF25
 392 0125 04       		.byte	0x4
 393 0126 51       		.byte	0x51
 394 0127 A2000000 		.4byte	0xa2
ARM GAS  C:\Users\jo\AppData\Local\Temp\ccewwl0R.s 			page 8


 395 012b 04       		.uleb128 0x4
 396 012c AA020000 		.4byte	.LASF26
 397 0130 04       		.byte	0x4
 398 0131 52       		.byte	0x52
 399 0132 AD000000 		.4byte	0xad
 400 0136 04       		.uleb128 0x4
 401 0137 EC050000 		.4byte	.LASF27
 402 013b 05       		.byte	0x5
 403 013c 33       		.byte	0x33
 404 013d AD000000 		.4byte	0xad
 405 0141 04       		.uleb128 0x4
 406 0142 D7050000 		.4byte	.LASF28
 407 0146 05       		.byte	0x5
 408 0147 3F       		.byte	0x3f
 409 0148 4C010000 		.4byte	0x14c
 410 014c 06       		.uleb128 0x6
 411 014d 95020000 		.4byte	.LASF49
 412 0151 60       		.byte	0x60
 413 0152 06       		.byte	0x6
 414 0153 BE       		.byte	0xbe
 415 0154 52020000 		.4byte	0x252
 416 0158 07       		.uleb128 0x7
 417 0159 3B050000 		.4byte	.LASF29
 418 015d 06       		.byte	0x6
 419 015e BF       		.byte	0xbf
 420 015f 9A050000 		.4byte	0x59a
 421 0163 00       		.byte	0
 422 0164 07       		.uleb128 0x7
 423 0165 D0040000 		.4byte	.LASF30
 424 0169 06       		.byte	0x6
 425 016a C1       		.byte	0xc1
 426 016b 9A050000 		.4byte	0x59a
 427 016f 04       		.byte	0x4
 428 0170 07       		.uleb128 0x7
 429 0171 1A010000 		.4byte	.LASF31
 430 0175 06       		.byte	0x6
 431 0176 C3       		.byte	0xc3
 432 0177 FF000000 		.4byte	0xff
 433 017b 08       		.byte	0x8
 434 017c 07       		.uleb128 0x7
 435 017d 0B070000 		.4byte	.LASF32
 436 0181 06       		.byte	0x6
 437 0182 C4       		.byte	0xc4
 438 0183 B5040000 		.4byte	0x4b5
 439 0187 0C       		.byte	0xc
 440 0188 07       		.uleb128 0x7
 441 0189 E3010000 		.4byte	.LASF33
 442 018d 06       		.byte	0x6
 443 018e C6       		.byte	0xc6
 444 018f 9A050000 		.4byte	0x59a
 445 0193 10       		.byte	0x10
 446 0194 07       		.uleb128 0x7
 447 0195 67040000 		.4byte	.LASF34
 448 0199 06       		.byte	0x6
 449 019a C7       		.byte	0xc7
 450 019b 9A050000 		.4byte	0x59a
 451 019f 14       		.byte	0x14
ARM GAS  C:\Users\jo\AppData\Local\Temp\ccewwl0R.s 			page 9


 452 01a0 07       		.uleb128 0x7
 453 01a1 9C060000 		.4byte	.LASF35
 454 01a5 06       		.byte	0x6
 455 01a6 CE       		.byte	0xce
 456 01a7 56050000 		.4byte	0x556
 457 01ab 18       		.byte	0x18
 458 01ac 07       		.uleb128 0x7
 459 01ad 42020000 		.4byte	.LASF36
 460 01b1 06       		.byte	0x6
 461 01b2 D4       		.byte	0xd4
 462 01b3 E4060000 		.4byte	0x6e4
 463 01b7 1C       		.byte	0x1c
 464 01b8 07       		.uleb128 0x7
 465 01b9 25050000 		.4byte	.LASF37
 466 01bd 06       		.byte	0x6
 467 01be D9       		.byte	0xd9
 468 01bf E9000000 		.4byte	0xe9
 469 01c3 20       		.byte	0x20
 470 01c4 07       		.uleb128 0x7
 471 01c5 42050000 		.4byte	.LASF38
 472 01c9 06       		.byte	0x6
 473 01ca DD       		.byte	0xdd
 474 01cb DE000000 		.4byte	0xde
 475 01cf 21       		.byte	0x21
 476 01d0 07       		.uleb128 0x7
 477 01d1 6A060000 		.4byte	.LASF39
 478 01d5 06       		.byte	0x6
 479 01d6 E2       		.byte	0xe2
 480 01d7 F4000000 		.4byte	0xf4
 481 01db 22       		.byte	0x22
 482 01dc 08       		.uleb128 0x8
 483 01dd 705F7500 		.ascii	"p_u\000"
 484 01e1 06       		.byte	0x6
 485 01e2 1401     		.2byte	0x114
 486 01e4 AC060000 		.4byte	0x6ac
 487 01e8 24       		.byte	0x24
 488 01e9 09       		.uleb128 0x9
 489 01ea 05040000 		.4byte	.LASF40
 490 01ee 06       		.byte	0x6
 491 01ef 1901     		.2byte	0x119
 492 01f1 52020000 		.4byte	0x252
 493 01f5 28       		.byte	0x28
 494 01f6 09       		.uleb128 0x9
 495 01f7 62020000 		.4byte	.LASF41
 496 01fb 06       		.byte	0x6
 497 01fc 1F01     		.2byte	0x11f
 498 01fe 76020000 		.4byte	0x276
 499 0202 2C       		.byte	0x2c
 500 0203 09       		.uleb128 0x9
 501 0204 BF060000 		.4byte	.LASF42
 502 0208 06       		.byte	0x6
 503 0209 2301     		.2byte	0x123
 504 020b 0A010000 		.4byte	0x10a
 505 020f 34       		.byte	0x34
 506 0210 09       		.uleb128 0x9
 507 0211 6D050000 		.4byte	.LASF43
 508 0215 06       		.byte	0x6
ARM GAS  C:\Users\jo\AppData\Local\Temp\ccewwl0R.s 			page 10


 509 0216 2901     		.2byte	0x129
 510 0218 15010000 		.4byte	0x115
 511 021c 38       		.byte	0x38
 512 021d 09       		.uleb128 0x9
 513 021e 11050000 		.4byte	.LASF44
 514 0222 06       		.byte	0x6
 515 0223 3001     		.2byte	0x130
 516 0225 1B070000 		.4byte	0x71b
 517 0229 3C       		.byte	0x3c
 518 022a 09       		.uleb128 0x9
 519 022b F6050000 		.4byte	.LASF45
 520 022f 06       		.byte	0x6
 521 0230 3401     		.2byte	0x134
 522 0232 FF000000 		.4byte	0xff
 523 0236 40       		.byte	0x40
 524 0237 09       		.uleb128 0x9
 525 0238 89010000 		.4byte	.LASF46
 526 023c 06       		.byte	0x6
 527 023d 3A01     		.2byte	0x13a
 528 023f 29030000 		.4byte	0x329
 529 0243 44       		.byte	0x44
 530 0244 09       		.uleb128 0x9
 531 0245 4A050000 		.4byte	.LASF47
 532 0249 06       		.byte	0x6
 533 024a 4001     		.2byte	0x140
 534 024c 5D060000 		.4byte	0x65d
 535 0250 48       		.byte	0x48
 536 0251 00       		.byte	0
 537 0252 04       		.uleb128 0x4
 538 0253 A3060000 		.4byte	.LASF48
 539 0257 05       		.byte	0x5
 540 0258 44       		.byte	0x44
 541 0259 5D020000 		.4byte	0x25d
 542 025d 06       		.uleb128 0x6
 543 025e A6050000 		.4byte	.LASF50
 544 0262 04       		.byte	0x4
 545 0263 06       		.byte	0x6
 546 0264 AC       		.byte	0xac
 547 0265 76020000 		.4byte	0x276
 548 0269 07       		.uleb128 0x7
 549 026a 3B050000 		.4byte	.LASF29
 550 026e 06       		.byte	0x6
 551 026f AD       		.byte	0xad
 552 0270 9A050000 		.4byte	0x59a
 553 0274 00       		.byte	0
 554 0275 00       		.byte	0
 555 0276 04       		.uleb128 0x4
 556 0277 5A060000 		.4byte	.LASF51
 557 027b 05       		.byte	0x5
 558 027c 4B       		.byte	0x4b
 559 027d 81020000 		.4byte	0x281
 560 0281 06       		.uleb128 0x6
 561 0282 4F000000 		.4byte	.LASF52
 562 0286 08       		.byte	0x8
 563 0287 06       		.byte	0x6
 564 0288 B3       		.byte	0xb3
 565 0289 A6020000 		.4byte	0x2a6
ARM GAS  C:\Users\jo\AppData\Local\Temp\ccewwl0R.s 			page 11


 566 028d 07       		.uleb128 0x7
 567 028e 3B050000 		.4byte	.LASF29
 568 0292 06       		.byte	0x6
 569 0293 B4       		.byte	0xb4
 570 0294 9A050000 		.4byte	0x59a
 571 0298 00       		.byte	0
 572 0299 07       		.uleb128 0x7
 573 029a D0040000 		.4byte	.LASF30
 574 029e 06       		.byte	0x6
 575 029f B5       		.byte	0xb5
 576 02a0 9A050000 		.4byte	0x59a
 577 02a4 04       		.byte	0x4
 578 02a5 00       		.byte	0
 579 02a6 04       		.uleb128 0x4
 580 02a7 07000000 		.4byte	.LASF53
 581 02ab 05       		.byte	0x5
 582 02ac 52       		.byte	0x52
 583 02ad B1020000 		.4byte	0x2b1
 584 02b1 0A       		.uleb128 0xa
 585 02b2 D0020000 		.4byte	.LASF54
 586 02b6 1C       		.byte	0x1c
 587 02b7 06       		.byte	0x6
 588 02b8 7201     		.2byte	0x172
 589 02ba 0D030000 		.4byte	0x30d
 590 02be 09       		.uleb128 0x9
 591 02bf 95050000 		.4byte	.LASF55
 592 02c3 06       		.byte	0x6
 593 02c4 7301     		.2byte	0x173
 594 02c6 76020000 		.4byte	0x276
 595 02ca 00       		.byte	0
 596 02cb 09       		.uleb128 0x9
 597 02cc 2D050000 		.4byte	.LASF56
 598 02d0 06       		.byte	0x6
 599 02d1 7401     		.2byte	0x174
 600 02d3 FF000000 		.4byte	0xff
 601 02d7 08       		.byte	0x8
 602 02d8 09       		.uleb128 0x9
 603 02d9 6F040000 		.4byte	.LASF57
 604 02dd 06       		.byte	0x6
 605 02de 7601     		.2byte	0x176
 606 02e0 B5040000 		.4byte	0x4b5
 607 02e4 0C       		.byte	0xc
 608 02e5 09       		.uleb128 0x9
 609 02e6 F3010000 		.4byte	.LASF58
 610 02ea 06       		.byte	0x6
 611 02eb 7901     		.2byte	0x179
 612 02ed 9A050000 		.4byte	0x59a
 613 02f1 10       		.byte	0x10
 614 02f2 09       		.uleb128 0x9
 615 02f3 90040000 		.4byte	.LASF59
 616 02f7 06       		.byte	0x6
 617 02f8 7A01     		.2byte	0x17a
 618 02fa 9A050000 		.4byte	0x59a
 619 02fe 14       		.byte	0x14
 620 02ff 09       		.uleb128 0x9
 621 0300 86040000 		.4byte	.LASF60
 622 0304 06       		.byte	0x6
ARM GAS  C:\Users\jo\AppData\Local\Temp\ccewwl0R.s 			page 12


 623 0305 7D01     		.2byte	0x17d
 624 0307 9A050000 		.4byte	0x59a
 625 030b 18       		.byte	0x18
 626 030c 00       		.byte	0
 627 030d 04       		.uleb128 0x4
 628 030e 01060000 		.4byte	.LASF61
 629 0312 05       		.byte	0x5
 630 0313 57       		.byte	0x57
 631 0314 18030000 		.4byte	0x318
 632 0318 0B       		.uleb128 0xb
 633 0319 04       		.byte	0x4
 634 031a 1E030000 		.4byte	0x31e
 635 031e 0C       		.uleb128 0xc
 636 031f 29030000 		.4byte	0x329
 637 0323 0D       		.uleb128 0xd
 638 0324 29030000 		.4byte	0x329
 639 0328 00       		.byte	0
 640 0329 0E       		.uleb128 0xe
 641 032a 04       		.byte	0x4
 642 032b 04       		.uleb128 0x4
 643 032c C0040000 		.4byte	.LASF62
 644 0330 05       		.byte	0x5
 645 0331 5C       		.byte	0x5c
 646 0332 36030000 		.4byte	0x336
 647 0336 0A       		.uleb128 0xa
 648 0337 5C050000 		.4byte	.LASF63
 649 033b 14       		.byte	0x14
 650 033c 06       		.byte	0x6
 651 033d 4D01     		.2byte	0x14d
 652 033f 85030000 		.4byte	0x385
 653 0343 09       		.uleb128 0x9
 654 0344 5A020000 		.4byte	.LASF64
 655 0348 06       		.byte	0x6
 656 0349 4E01     		.2byte	0x14e
 657 034b 21070000 		.4byte	0x721
 658 034f 00       		.byte	0
 659 0350 09       		.uleb128 0x9
 660 0351 04020000 		.4byte	.LASF65
 661 0355 06       		.byte	0x6
 662 0356 4F01     		.2byte	0x14f
 663 0358 21070000 		.4byte	0x721
 664 035c 04       		.byte	0x4
 665 035d 09       		.uleb128 0x9
 666 035e 9D050000 		.4byte	.LASF66
 667 0362 06       		.byte	0x6
 668 0363 5001     		.2byte	0x150
 669 0365 36010000 		.4byte	0x136
 670 0369 08       		.byte	0x8
 671 036a 09       		.uleb128 0x9
 672 036b 11070000 		.4byte	.LASF67
 673 036f 06       		.byte	0x6
 674 0370 5101     		.2byte	0x151
 675 0372 0D030000 		.4byte	0x30d
 676 0376 0C       		.byte	0xc
 677 0377 09       		.uleb128 0x9
 678 0378 53060000 		.4byte	.LASF68
 679 037c 06       		.byte	0x6
ARM GAS  C:\Users\jo\AppData\Local\Temp\ccewwl0R.s 			page 13


 680 037d 5301     		.2byte	0x153
 681 037f 29030000 		.4byte	0x329
 682 0383 10       		.byte	0x10
 683 0384 00       		.byte	0
 684 0385 04       		.uleb128 0x4
 685 0386 EC000000 		.4byte	.LASF69
 686 038a 05       		.byte	0x5
 687 038b 61       		.byte	0x61
 688 038c 90030000 		.4byte	0x390
 689 0390 0A       		.uleb128 0xa
 690 0391 35040000 		.4byte	.LASF70
 691 0395 10       		.byte	0x10
 692 0396 06       		.byte	0x6
 693 0397 5D01     		.2byte	0x15d
 694 0399 D2030000 		.4byte	0x3d2
 695 039d 09       		.uleb128 0x9
 696 039e 5A020000 		.4byte	.LASF64
 697 03a2 06       		.byte	0x6
 698 03a3 5E01     		.2byte	0x15e
 699 03a5 21070000 		.4byte	0x721
 700 03a9 00       		.byte	0
 701 03aa 09       		.uleb128 0x9
 702 03ab 04020000 		.4byte	.LASF65
 703 03af 06       		.byte	0x6
 704 03b0 6001     		.2byte	0x160
 705 03b2 21070000 		.4byte	0x721
 706 03b6 04       		.byte	0x4
 707 03b7 09       		.uleb128 0x9
 708 03b8 9D050000 		.4byte	.LASF66
 709 03bc 06       		.byte	0x6
 710 03bd 6201     		.2byte	0x162
 711 03bf 36010000 		.4byte	0x136
 712 03c3 08       		.byte	0x8
 713 03c4 09       		.uleb128 0x9
 714 03c5 5B040000 		.4byte	.LASF71
 715 03c9 06       		.byte	0x6
 716 03ca 6A01     		.2byte	0x16a
 717 03cc 36010000 		.4byte	0x136
 718 03d0 0C       		.byte	0xc
 719 03d1 00       		.byte	0
 720 03d2 04       		.uleb128 0x4
 721 03d3 60000000 		.4byte	.LASF72
 722 03d7 05       		.byte	0x5
 723 03d8 66       		.byte	0x66
 724 03d9 DD030000 		.4byte	0x3dd
 725 03dd 0F       		.uleb128 0xf
 726 03de 0C020000 		.4byte	.LASF73
 727 03e2 1404     		.2byte	0x414
 728 03e4 06       		.byte	0x6
 729 03e5 8401     		.2byte	0x184
 730 03e7 20040000 		.4byte	0x420
 731 03eb 09       		.uleb128 0x9
 732 03ec 15060000 		.4byte	.LASF74
 733 03f0 06       		.byte	0x6
 734 03f1 8C01     		.2byte	0x18c
 735 03f3 27070000 		.4byte	0x727
 736 03f7 00       		.byte	0
ARM GAS  C:\Users\jo\AppData\Local\Temp\ccewwl0R.s 			page 14


 737 03f8 09       		.uleb128 0x9
 738 03f9 71060000 		.4byte	.LASF75
 739 03fd 06       		.byte	0x6
 740 03fe 9101     		.2byte	0x191
 741 0400 20010000 		.4byte	0x120
 742 0404 04       		.byte	0x4
 743 0405 09       		.uleb128 0x9
 744 0406 24020000 		.4byte	.LASF76
 745 040a 06       		.byte	0x6
 746 040b 9501     		.2byte	0x195
 747 040d 20010000 		.4byte	0x120
 748 0411 08       		.byte	0x8
 749 0412 09       		.uleb128 0x9
 750 0413 B2060000 		.4byte	.LASF77
 751 0417 06       		.byte	0x6
 752 0418 9B01     		.2byte	0x19b
 753 041a EF050000 		.4byte	0x5ef
 754 041e 0C       		.byte	0xc
 755 041f 00       		.byte	0
 756 0420 04       		.uleb128 0x4
 757 0421 B1020000 		.4byte	.LASF78
 758 0425 05       		.byte	0x5
 759 0426 6B       		.byte	0x6b
 760 0427 2B040000 		.4byte	0x42b
 761 042b 0F       		.uleb128 0xf
 762 042c 52050000 		.4byte	.LASF79
 763 0430 D805     		.2byte	0x5d8
 764 0432 06       		.byte	0x6
 765 0433 A401     		.2byte	0x1a4
 766 0435 98040000 		.4byte	0x498
 767 0439 09       		.uleb128 0x9
 768 043a 79060000 		.4byte	.LASF80
 769 043e 06       		.byte	0x6
 770 043f A801     		.2byte	0x1a8
 771 0441 A6020000 		.4byte	0x2a6
 772 0445 00       		.byte	0
 773 0446 09       		.uleb128 0x9
 774 0447 99010000 		.4byte	.LASF81
 775 044b 06       		.byte	0x6
 776 044c AC01     		.2byte	0x1ac
 777 044e 85030000 		.4byte	0x385
 778 0452 1C       		.byte	0x1c
 779 0453 08       		.uleb128 0x8
 780 0454 64626700 		.ascii	"dbg\000"
 781 0458 06       		.byte	0x6
 782 0459 B001     		.2byte	0x1b0
 783 045b D2030000 		.4byte	0x3d2
 784 045f 2C       		.byte	0x2c
 785 0460 10       		.uleb128 0x10
 786 0461 C3000000 		.4byte	.LASF82
 787 0465 06       		.byte	0x6
 788 0466 B401     		.2byte	0x1b4
 789 0468 41010000 		.4byte	0x141
 790 046c 4004     		.2byte	0x440
 791 046e 11       		.uleb128 0x11
 792 046f 746D00   		.ascii	"tm\000"
 793 0472 06       		.byte	0x6
ARM GAS  C:\Users\jo\AppData\Local\Temp\ccewwl0R.s 			page 15


 794 0473 B901     		.2byte	0x1b9
 795 0475 0F060000 		.4byte	0x60f
 796 0479 A004     		.2byte	0x4a0
 797 047b 10       		.uleb128 0x10
 798 047c 2C000000 		.4byte	.LASF83
 799 0480 06       		.byte	0x6
 800 0481 BF01     		.2byte	0x1bf
 801 0483 A1060000 		.4byte	0x6a1
 802 0487 A804     		.2byte	0x4a8
 803 0489 10       		.uleb128 0x10
 804 048a 2D020000 		.4byte	.LASF84
 805 048e 06       		.byte	0x6
 806 048f C501     		.2byte	0x1c5
 807 0491 2C070000 		.4byte	0x72c
 808 0495 E004     		.2byte	0x4e0
 809 0497 00       		.byte	0
 810 0498 03       		.uleb128 0x3
 811 0499 04       		.byte	0x4
 812 049a 07       		.byte	0x7
 813 049b 2C040000 		.4byte	.LASF85
 814 049f 04       		.uleb128 0x4
 815 04a0 FB010000 		.4byte	.LASF86
 816 04a4 07       		.byte	0x7
 817 04a5 85       		.byte	0x85
 818 04a6 29030000 		.4byte	0x329
 819 04aa 04       		.uleb128 0x4
 820 04ab 20030000 		.4byte	.LASF87
 821 04af 07       		.byte	0x7
 822 04b0 8D       		.byte	0x8d
 823 04b1 B8000000 		.4byte	0xb8
 824 04b5 06       		.uleb128 0x6
 825 04b6 43060000 		.4byte	.LASF88
 826 04ba 04       		.byte	0x4
 827 04bb 07       		.byte	0x7
 828 04bc A9       		.byte	0xa9
 829 04bd CE040000 		.4byte	0x4ce
 830 04c1 12       		.uleb128 0x12
 831 04c2 72313300 		.ascii	"r13\000"
 832 04c6 07       		.byte	0x7
 833 04c7 AA       		.byte	0xaa
 834 04c8 49050000 		.4byte	0x549
 835 04cc 00       		.byte	0
 836 04cd 00       		.byte	0
 837 04ce 06       		.uleb128 0x6
 838 04cf 43000000 		.4byte	.LASF89
 839 04d3 24       		.byte	0x24
 840 04d4 08       		.byte	0x8
 841 04d5 F4       		.byte	0xf4
 842 04d6 49050000 		.4byte	0x549
 843 04da 08       		.uleb128 0x8
 844 04db 723400   		.ascii	"r4\000"
 845 04de 08       		.byte	0x8
 846 04df 0701     		.2byte	0x107
 847 04e1 9F040000 		.4byte	0x49f
 848 04e5 00       		.byte	0
 849 04e6 08       		.uleb128 0x8
 850 04e7 723500   		.ascii	"r5\000"
ARM GAS  C:\Users\jo\AppData\Local\Temp\ccewwl0R.s 			page 16


 851 04ea 08       		.byte	0x8
 852 04eb 0801     		.2byte	0x108
 853 04ed 9F040000 		.4byte	0x49f
 854 04f1 04       		.byte	0x4
 855 04f2 08       		.uleb128 0x8
 856 04f3 723600   		.ascii	"r6\000"
 857 04f6 08       		.byte	0x8
 858 04f7 0901     		.2byte	0x109
 859 04f9 9F040000 		.4byte	0x49f
 860 04fd 08       		.byte	0x8
 861 04fe 08       		.uleb128 0x8
 862 04ff 723700   		.ascii	"r7\000"
 863 0502 08       		.byte	0x8
 864 0503 0A01     		.2byte	0x10a
 865 0505 9F040000 		.4byte	0x49f
 866 0509 0C       		.byte	0xc
 867 050a 08       		.uleb128 0x8
 868 050b 723800   		.ascii	"r8\000"
 869 050e 08       		.byte	0x8
 870 050f 0B01     		.2byte	0x10b
 871 0511 9F040000 		.4byte	0x49f
 872 0515 10       		.byte	0x10
 873 0516 08       		.uleb128 0x8
 874 0517 723900   		.ascii	"r9\000"
 875 051a 08       		.byte	0x8
 876 051b 0C01     		.2byte	0x10c
 877 051d 9F040000 		.4byte	0x49f
 878 0521 14       		.byte	0x14
 879 0522 08       		.uleb128 0x8
 880 0523 72313000 		.ascii	"r10\000"
 881 0527 08       		.byte	0x8
 882 0528 0D01     		.2byte	0x10d
 883 052a 9F040000 		.4byte	0x49f
 884 052e 18       		.byte	0x18
 885 052f 08       		.uleb128 0x8
 886 0530 72313100 		.ascii	"r11\000"
 887 0534 08       		.byte	0x8
 888 0535 0E01     		.2byte	0x10e
 889 0537 9F040000 		.4byte	0x49f
 890 053b 1C       		.byte	0x1c
 891 053c 08       		.uleb128 0x8
 892 053d 6C7200   		.ascii	"lr\000"
 893 0540 08       		.byte	0x8
 894 0541 0F01     		.2byte	0x10f
 895 0543 9F040000 		.4byte	0x49f
 896 0547 20       		.byte	0x20
 897 0548 00       		.byte	0
 898 0549 0B       		.uleb128 0xb
 899 054a 04       		.byte	0x4
 900 054b CE040000 		.4byte	0x4ce
 901 054f 03       		.uleb128 0x3
 902 0550 01       		.byte	0x1
 903 0551 08       		.byte	0x8
 904 0552 C8050000 		.4byte	.LASF90
 905 0556 0B       		.uleb128 0xb
 906 0557 04       		.byte	0x4
 907 0558 5C050000 		.4byte	0x55c
ARM GAS  C:\Users\jo\AppData\Local\Temp\ccewwl0R.s 			page 17


 908 055c 13       		.uleb128 0x13
 909 055d 4F050000 		.4byte	0x54f
 910 0561 14       		.uleb128 0x14
 911 0562 10       		.byte	0x10
 912 0563 09       		.byte	0x9
 913 0564 57       		.byte	0x57
 914 0565 9A050000 		.4byte	0x59a
 915 0569 07       		.uleb128 0x7
 916 056a 14000000 		.4byte	.LASF91
 917 056e 09       		.byte	0x9
 918 056f 5B       		.byte	0x5b
 919 0570 36010000 		.4byte	0x136
 920 0574 00       		.byte	0
 921 0575 07       		.uleb128 0x7
 922 0576 DD010000 		.4byte	.LASF92
 923 057a 09       		.byte	0x9
 924 057b 5F       		.byte	0x5f
 925 057c 9A050000 		.4byte	0x59a
 926 0580 04       		.byte	0x4
 927 0581 07       		.uleb128 0x7
 928 0582 01070000 		.4byte	.LASF93
 929 0586 09       		.byte	0x9
 930 0587 63       		.byte	0x63
 931 0588 29030000 		.4byte	0x329
 932 058c 08       		.byte	0x8
 933 058d 07       		.uleb128 0x7
 934 058e B1000000 		.4byte	.LASF94
 935 0592 09       		.byte	0x9
 936 0593 67       		.byte	0x67
 937 0594 97000000 		.4byte	0x97
 938 0598 0C       		.byte	0xc
 939 0599 00       		.byte	0
 940 059a 0B       		.uleb128 0xb
 941 059b 04       		.byte	0x4
 942 059c 41010000 		.4byte	0x141
 943 05a0 04       		.uleb128 0x4
 944 05a1 4C040000 		.4byte	.LASF95
 945 05a5 09       		.byte	0x9
 946 05a6 68       		.byte	0x68
 947 05a7 61050000 		.4byte	0x561
 948 05ab 15       		.uleb128 0x15
 949 05ac 0804     		.2byte	0x408
 950 05ae 09       		.byte	0x9
 951 05af 6D       		.byte	0x6d
 952 05b0 D9050000 		.4byte	0x5d9
 953 05b4 07       		.uleb128 0x7
 954 05b5 EB010000 		.4byte	.LASF96
 955 05b9 09       		.byte	0x9
 956 05ba 71       		.byte	0x71
 957 05bb 2C000000 		.4byte	0x2c
 958 05bf 00       		.byte	0
 959 05c0 07       		.uleb128 0x7
 960 05c1 00000000 		.4byte	.LASF97
 961 05c5 09       		.byte	0x9
 962 05c6 75       		.byte	0x75
 963 05c7 D9050000 		.4byte	0x5d9
 964 05cb 04       		.byte	0x4
ARM GAS  C:\Users\jo\AppData\Local\Temp\ccewwl0R.s 			page 18


 965 05cc 07       		.uleb128 0x7
 966 05cd B6040000 		.4byte	.LASF98
 967 05d1 09       		.byte	0x9
 968 05d2 79       		.byte	0x79
 969 05d3 DF050000 		.4byte	0x5df
 970 05d7 08       		.byte	0x8
 971 05d8 00       		.byte	0
 972 05d9 0B       		.uleb128 0xb
 973 05da 04       		.byte	0x4
 974 05db A0050000 		.4byte	0x5a0
 975 05df 16       		.uleb128 0x16
 976 05e0 A0050000 		.4byte	0x5a0
 977 05e4 EF050000 		.4byte	0x5ef
 978 05e8 17       		.uleb128 0x17
 979 05e9 98040000 		.4byte	0x498
 980 05ed 3F       		.byte	0x3f
 981 05ee 00       		.byte	0
 982 05ef 04       		.uleb128 0x4
 983 05f0 9F000000 		.4byte	.LASF99
 984 05f4 09       		.byte	0x9
 985 05f5 7A       		.byte	0x7a
 986 05f6 AB050000 		.4byte	0x5ab
 987 05fa 14       		.uleb128 0x14
 988 05fb 04       		.byte	0x4
 989 05fc 0A       		.byte	0xa
 990 05fd 38       		.byte	0x38
 991 05fe 0F060000 		.4byte	0x60f
 992 0602 07       		.uleb128 0x7
 993 0603 3C060000 		.4byte	.LASF100
 994 0607 0A       		.byte	0xa
 995 0608 3C       		.byte	0x3c
 996 0609 C8000000 		.4byte	0xc8
 997 060d 00       		.byte	0
 998 060e 00       		.byte	0
 999 060f 04       		.uleb128 0x4
 1000 0610 75040000 		.4byte	.LASF101
 1001 0614 0A       		.byte	0xa
 1002 0615 3D       		.byte	0x3d
 1003 0616 FA050000 		.4byte	0x5fa
 1004 061a 14       		.uleb128 0x14
 1005 061b 18       		.byte	0x18
 1006 061c 0A       		.byte	0xa
 1007 061d 48       		.byte	0x48
 1008 061e 5D060000 		.4byte	0x65d
 1009 0622 07       		.uleb128 0x7
 1010 0623 E0050000 		.4byte	.LASF102
 1011 0627 0A       		.byte	0xa
 1012 0628 49       		.byte	0x49
 1013 0629 C8000000 		.4byte	0xc8
 1014 062d 00       		.byte	0
 1015 062e 07       		.uleb128 0x7
 1016 062f 6F000000 		.4byte	.LASF103
 1017 0633 0A       		.byte	0xa
 1018 0634 4A       		.byte	0x4a
 1019 0635 C8000000 		.4byte	0xc8
 1020 0639 04       		.byte	0x4
 1021 063a 07       		.uleb128 0x7
ARM GAS  C:\Users\jo\AppData\Local\Temp\ccewwl0R.s 			page 19


 1022 063b A5020000 		.4byte	.LASF104
 1023 063f 0A       		.byte	0xa
 1024 0640 4B       		.byte	0x4b
 1025 0641 C8000000 		.4byte	0xc8
 1026 0645 08       		.byte	0x8
 1027 0646 12       		.uleb128 0x12
 1028 0647 6E00     		.ascii	"n\000"
 1029 0649 0A       		.byte	0xa
 1030 064a 4C       		.byte	0x4c
 1031 064b 2B010000 		.4byte	0x12b
 1032 064f 0C       		.byte	0xc
 1033 0650 07       		.uleb128 0x7
 1034 0651 A3040000 		.4byte	.LASF105
 1035 0655 0A       		.byte	0xa
 1036 0656 4D       		.byte	0x4d
 1037 0657 D3000000 		.4byte	0xd3
 1038 065b 10       		.byte	0x10
 1039 065c 00       		.byte	0
 1040 065d 04       		.uleb128 0x4
 1041 065e 75000000 		.4byte	.LASF106
 1042 0662 0A       		.byte	0xa
 1043 0663 4E       		.byte	0x4e
 1044 0664 1A060000 		.4byte	0x61a
 1045 0668 14       		.uleb128 0x14
 1046 0669 38       		.byte	0x38
 1047 066a 0B       		.byte	0xb
 1048 066b 38       		.byte	0x38
 1049 066c A1060000 		.4byte	0x6a1
 1050 0670 07       		.uleb128 0x7
 1051 0671 6D020000 		.4byte	.LASF107
 1052 0675 0B       		.byte	0xb
 1053 0676 39       		.byte	0x39
 1054 0677 2B010000 		.4byte	0x12b
 1055 067b 00       		.byte	0
 1056 067c 07       		.uleb128 0x7
 1057 067d E5040000 		.4byte	.LASF108
 1058 0681 0B       		.byte	0xb
 1059 0682 3A       		.byte	0x3a
 1060 0683 2B010000 		.4byte	0x12b
 1061 0687 04       		.byte	0x4
 1062 0688 07       		.uleb128 0x7
 1063 0689 EE060000 		.4byte	.LASF109
 1064 068d 0B       		.byte	0xb
 1065 068e 3B       		.byte	0x3b
 1066 068f 5D060000 		.4byte	0x65d
 1067 0693 08       		.byte	0x8
 1068 0694 07       		.uleb128 0x7
 1069 0695 C5020000 		.4byte	.LASF110
 1070 0699 0B       		.byte	0xb
 1071 069a 3D       		.byte	0x3d
 1072 069b 5D060000 		.4byte	0x65d
 1073 069f 20       		.byte	0x20
 1074 06a0 00       		.byte	0
 1075 06a1 04       		.uleb128 0x4
 1076 06a2 86020000 		.4byte	.LASF111
 1077 06a6 0B       		.byte	0xb
 1078 06a7 3F       		.byte	0x3f
ARM GAS  C:\Users\jo\AppData\Local\Temp\ccewwl0R.s 			page 20


 1079 06a8 68060000 		.4byte	0x668
 1080 06ac 18       		.uleb128 0x18
 1081 06ad 04       		.byte	0x4
 1082 06ae 06       		.byte	0x6
 1083 06af F6       		.byte	0xf6
 1084 06b0 E4060000 		.4byte	0x6e4
 1085 06b4 19       		.uleb128 0x19
 1086 06b5 1C000000 		.4byte	.LASF112
 1087 06b9 06       		.byte	0x6
 1088 06ba FD       		.byte	0xfd
 1089 06bb 0A010000 		.4byte	0x10a
 1090 06bf 1A       		.uleb128 0x1a
 1091 06c0 BA000000 		.4byte	.LASF113
 1092 06c4 06       		.byte	0x6
 1093 06c5 0401     		.2byte	0x104
 1094 06c7 0A010000 		.4byte	0x10a
 1095 06cb 1A       		.uleb128 0x1a
 1096 06cc 95060000 		.4byte	.LASF114
 1097 06d0 06       		.byte	0x6
 1098 06d1 0B01     		.2byte	0x10b
 1099 06d3 29030000 		.4byte	0x329
 1100 06d7 1A       		.uleb128 0x1a
 1101 06d8 34050000 		.4byte	.LASF115
 1102 06dc 06       		.byte	0x6
 1103 06dd 1201     		.2byte	0x112
 1104 06df 15010000 		.4byte	0x115
 1105 06e3 00       		.byte	0
 1106 06e4 0B       		.uleb128 0xb
 1107 06e5 04       		.byte	0x4
 1108 06e6 AA040000 		.4byte	0x4aa
 1109 06ea 06       		.uleb128 0x6
 1110 06eb DF040000 		.4byte	.LASF116
 1111 06ef 10       		.byte	0x10
 1112 06f0 0C       		.byte	0xc
 1113 06f1 39       		.byte	0x39
 1114 06f2 1B070000 		.4byte	0x71b
 1115 06f6 07       		.uleb128 0x7
 1116 06f7 91010000 		.4byte	.LASF117
 1117 06fb 0C       		.byte	0xc
 1118 06fc 3A       		.byte	0x3a
 1119 06fd 76020000 		.4byte	0x276
 1120 0701 00       		.byte	0
 1121 0702 07       		.uleb128 0x7
 1122 0703 F9060000 		.4byte	.LASF118
 1123 0707 0C       		.byte	0xc
 1124 0708 3C       		.byte	0x3c
 1125 0709 9A050000 		.4byte	0x59a
 1126 070d 08       		.byte	0x8
 1127 070e 07       		.uleb128 0x7
 1128 070f E5050000 		.4byte	.LASF119
 1129 0713 0C       		.byte	0xc
 1130 0714 3E       		.byte	0x3e
 1131 0715 47070000 		.4byte	0x747
 1132 0719 0C       		.byte	0xc
 1133 071a 00       		.byte	0
 1134 071b 0B       		.uleb128 0xb
 1135 071c 04       		.byte	0x4
ARM GAS  C:\Users\jo\AppData\Local\Temp\ccewwl0R.s 			page 21


 1136 071d EA060000 		.4byte	0x6ea
 1137 0721 0B       		.uleb128 0xb
 1138 0722 04       		.byte	0x4
 1139 0723 2B030000 		.4byte	0x32b
 1140 0727 05       		.uleb128 0x5
 1141 0728 56050000 		.4byte	0x556
 1142 072c 16       		.uleb128 0x16
 1143 072d AA040000 		.4byte	0x4aa
 1144 0731 3C070000 		.4byte	0x73c
 1145 0735 17       		.uleb128 0x17
 1146 0736 98040000 		.4byte	0x498
 1147 073a 1E       		.byte	0x1e
 1148 073b 00       		.byte	0
 1149 073c 04       		.uleb128 0x4
 1150 073d 1C020000 		.4byte	.LASF120
 1151 0741 0C       		.byte	0xc
 1152 0742 34       		.byte	0x34
 1153 0743 EA060000 		.4byte	0x6ea
 1154 0747 0B       		.uleb128 0xb
 1155 0748 04       		.byte	0x4
 1156 0749 3C070000 		.4byte	0x73c
 1157 074d 1B       		.uleb128 0x1b
 1158 074e C5060000 		.4byte	.LASF121
 1159 0752 01       		.byte	0x1
 1160 0753 3E       		.byte	0x3e
 1161 0754 00000000 		.4byte	.LFB226
 1162 0758 28000000 		.4byte	.LFE226-.LFB226
 1163 075c 01       		.uleb128 0x1
 1164 075d 9C       		.byte	0x9c
 1165 075e 81070000 		.4byte	0x781
 1166 0762 1C       		.uleb128 0x1c
 1167 0763 16000000 		.4byte	.LVL0
 1168 0767 75080000 		.4byte	0x875
 1169 076b 77070000 		.4byte	0x777
 1170 076f 1D       		.uleb128 0x1d
 1171 0770 01       		.uleb128 0x1
 1172 0771 50       		.byte	0x50
 1173 0772 03       		.uleb128 0x3
 1174 0773 74       		.byte	0x74
 1175 0774 B009     		.sleb128 1200
 1176 0776 00       		.byte	0
 1177 0777 1E       		.uleb128 0x1e
 1178 0778 22000000 		.4byte	.LVL1
 1179 077c 75080000 		.4byte	0x875
 1180 0780 00       		.byte	0
 1181 0781 1F       		.uleb128 0x1f
 1182 0782 81050000 		.4byte	.LASF134
 1183 0786 01       		.byte	0x1
 1184 0787 49       		.byte	0x49
 1185 0788 00000000 		.4byte	.LFB227
 1186 078c 14000000 		.4byte	.LFE227-.LFB227
 1187 0790 01       		.uleb128 0x1
 1188 0791 9C       		.byte	0x9c
 1189 0792 1B       		.uleb128 0x1b
 1190 0793 87060000 		.4byte	.LASF122
 1191 0797 01       		.byte	0x1
 1192 0798 54       		.byte	0x54
ARM GAS  C:\Users\jo\AppData\Local\Temp\ccewwl0R.s 			page 22


 1193 0799 00000000 		.4byte	.LFB228
 1194 079d 24000000 		.4byte	.LFE228-.LFB228
 1195 07a1 01       		.uleb128 0x1
 1196 07a2 9C       		.byte	0x9c
 1197 07a3 E2070000 		.4byte	0x7e2
 1198 07a7 20       		.uleb128 0x20
 1199 07a8 6E747000 		.ascii	"ntp\000"
 1200 07ac 01       		.byte	0x1
 1201 07ad 54       		.byte	0x54
 1202 07ae 9A050000 		.4byte	0x59a
 1203 07b2 00000000 		.4byte	.LLST0
 1204 07b6 20       		.uleb128 0x20
 1205 07b7 6F747000 		.ascii	"otp\000"
 1206 07bb 01       		.byte	0x1
 1207 07bc 54       		.byte	0x54
 1208 07bd 9A050000 		.4byte	0x59a
 1209 07c1 3D000000 		.4byte	.LLST1
 1210 07c5 21       		.uleb128 0x21
 1211 07c6 20000000 		.4byte	.LVL6
 1212 07ca 8C080000 		.4byte	0x88c
 1213 07ce 1D       		.uleb128 0x1d
 1214 07cf 01       		.uleb128 0x1
 1215 07d0 51       		.byte	0x51
 1216 07d1 05       		.uleb128 0x5
 1217 07d2 F3       		.byte	0xf3
 1218 07d3 01       		.uleb128 0x1
 1219 07d4 50       		.byte	0x50
 1220 07d5 23       		.byte	0x23
 1221 07d6 48       		.uleb128 0x48
 1222 07d7 1D       		.uleb128 0x1d
 1223 07d8 01       		.uleb128 0x1
 1224 07d9 50       		.byte	0x50
 1225 07da 05       		.uleb128 0x5
 1226 07db F3       		.byte	0xf3
 1227 07dc 01       		.uleb128 0x1
 1228 07dd 51       		.byte	0x51
 1229 07de 23       		.byte	0x23
 1230 07df 48       		.uleb128 0x48
 1231 07e0 00       		.byte	0
 1232 07e1 00       		.byte	0
 1233 07e2 1B       		.uleb128 0x1b
 1234 07e3 CE000000 		.4byte	.LASF123
 1235 07e7 01       		.byte	0x1
 1236 07e8 5D       		.byte	0x5d
 1237 07e9 00000000 		.4byte	.LFB229
 1238 07ed 0C000000 		.4byte	.LFE229-.LFB229
 1239 07f1 01       		.uleb128 0x1
 1240 07f2 9C       		.byte	0x9c
 1241 07f3 01080000 		.4byte	0x801
 1242 07f7 1E       		.uleb128 0x1e
 1243 07f8 06000000 		.4byte	.LVL7
 1244 07fc A2080000 		.4byte	0x8a2
 1245 0800 00       		.byte	0
 1246 0801 1B       		.uleb128 0x1b
 1247 0802 0F040000 		.4byte	.LASF124
 1248 0806 01       		.byte	0x1
 1249 0807 65       		.byte	0x65
ARM GAS  C:\Users\jo\AppData\Local\Temp\ccewwl0R.s 			page 23


 1250 0808 00000000 		.4byte	.LFB230
 1251 080c 0C000000 		.4byte	.LFE230-.LFB230
 1252 0810 01       		.uleb128 0x1
 1253 0811 9C       		.byte	0x9c
 1254 0812 20080000 		.4byte	0x820
 1255 0816 1E       		.uleb128 0x1e
 1256 0817 06000000 		.4byte	.LVL8
 1257 081b B3080000 		.4byte	0x8b3
 1258 081f 00       		.byte	0
 1259 0820 1B       		.uleb128 0x1b
 1260 0821 02030000 		.4byte	.LASF125
 1261 0825 01       		.byte	0x1
 1262 0826 6D       		.byte	0x6d
 1263 0827 00000000 		.4byte	.LFB231
 1264 082b 0C000000 		.4byte	.LFE231-.LFB231
 1265 082f 01       		.uleb128 0x1
 1266 0830 9C       		.byte	0x9c
 1267 0831 3F080000 		.4byte	0x83f
 1268 0835 1E       		.uleb128 0x1e
 1269 0836 06000000 		.4byte	.LVL9
 1270 083a A2080000 		.4byte	0x8a2
 1271 083e 00       		.byte	0
 1272 083f 1B       		.uleb128 0x1b
 1273 0840 D1060000 		.4byte	.LASF126
 1274 0844 01       		.byte	0x1
 1275 0845 75       		.byte	0x75
 1276 0846 00000000 		.4byte	.LFB232
 1277 084a 0C000000 		.4byte	.LFE232-.LFB232
 1278 084e 01       		.uleb128 0x1
 1279 084f 9C       		.byte	0x9c
 1280 0850 5E080000 		.4byte	0x85e
 1281 0854 1E       		.uleb128 0x1e
 1282 0855 06000000 		.4byte	.LVL10
 1283 0859 B3080000 		.4byte	0x8b3
 1284 085d 00       		.byte	0
 1285 085e 22       		.uleb128 0x22
 1286 085f 04050000 		.4byte	.LASF127
 1287 0863 0D       		.byte	0xd
 1288 0864 A706     		.2byte	0x6a7
 1289 0866 C3000000 		.4byte	0xc3
 1290 086a 23       		.uleb128 0x23
 1291 086b 636800   		.ascii	"ch\000"
 1292 086e 06       		.byte	0x6
 1293 086f EB01     		.2byte	0x1eb
 1294 0871 20040000 		.4byte	0x420
 1295 0875 24       		.uleb128 0x24
 1296 0876 02010000 		.4byte	.LASF128
 1297 087a 0A       		.byte	0xa
 1298 087b 5C       		.byte	0x5c
 1299 087c 86080000 		.4byte	0x886
 1300 0880 0D       		.uleb128 0xd
 1301 0881 86080000 		.4byte	0x886
 1302 0885 00       		.byte	0
 1303 0886 0B       		.uleb128 0xb
 1304 0887 04       		.byte	0x4
 1305 0888 5D060000 		.4byte	0x65d
 1306 088c 24       		.uleb128 0x24
ARM GAS  C:\Users\jo\AppData\Local\Temp\ccewwl0R.s 			page 24


 1307 088d EA020000 		.4byte	.LASF129
 1308 0891 0A       		.byte	0xa
 1309 0892 5F       		.byte	0x5f
 1310 0893 A2080000 		.4byte	0x8a2
 1311 0897 0D       		.uleb128 0xd
 1312 0898 86080000 		.4byte	0x886
 1313 089c 0D       		.uleb128 0xd
 1314 089d 86080000 		.4byte	0x886
 1315 08a1 00       		.byte	0
 1316 08a2 24       		.uleb128 0x24
 1317 08a3 A0010000 		.4byte	.LASF130
 1318 08a7 0A       		.byte	0xa
 1319 08a8 5D       		.byte	0x5d
 1320 08a9 B3080000 		.4byte	0x8b3
 1321 08ad 0D       		.uleb128 0xd
 1322 08ae 86080000 		.4byte	0x886
 1323 08b2 00       		.byte	0
 1324 08b3 25       		.uleb128 0x25
 1325 08b4 B6010000 		.4byte	.LASF135
 1326 08b8 0A       		.byte	0xa
 1327 08b9 5E       		.byte	0x5e
 1328 08ba 0D       		.uleb128 0xd
 1329 08bb 86080000 		.4byte	0x886
 1330 08bf 00       		.byte	0
 1331 08c0 00       		.byte	0
 1332              		.section	.debug_abbrev,"",%progbits
 1333              	.Ldebug_abbrev0:
 1334 0000 01       		.uleb128 0x1
 1335 0001 11       		.uleb128 0x11
 1336 0002 01       		.byte	0x1
 1337 0003 25       		.uleb128 0x25
 1338 0004 0E       		.uleb128 0xe
 1339 0005 13       		.uleb128 0x13
 1340 0006 0B       		.uleb128 0xb
 1341 0007 03       		.uleb128 0x3
 1342 0008 0E       		.uleb128 0xe
 1343 0009 1B       		.uleb128 0x1b
 1344 000a 0E       		.uleb128 0xe
 1345 000b 55       		.uleb128 0x55
 1346 000c 17       		.uleb128 0x17
 1347 000d 11       		.uleb128 0x11
 1348 000e 01       		.uleb128 0x1
 1349 000f 10       		.uleb128 0x10
 1350 0010 17       		.uleb128 0x17
 1351 0011 00       		.byte	0
 1352 0012 00       		.byte	0
 1353 0013 02       		.uleb128 0x2
 1354 0014 24       		.uleb128 0x24
 1355 0015 00       		.byte	0
 1356 0016 0B       		.uleb128 0xb
 1357 0017 0B       		.uleb128 0xb
 1358 0018 3E       		.uleb128 0x3e
 1359 0019 0B       		.uleb128 0xb
 1360 001a 03       		.uleb128 0x3
 1361 001b 08       		.uleb128 0x8
 1362 001c 00       		.byte	0
 1363 001d 00       		.byte	0
ARM GAS  C:\Users\jo\AppData\Local\Temp\ccewwl0R.s 			page 25


 1364 001e 03       		.uleb128 0x3
 1365 001f 24       		.uleb128 0x24
 1366 0020 00       		.byte	0
 1367 0021 0B       		.uleb128 0xb
 1368 0022 0B       		.uleb128 0xb
 1369 0023 3E       		.uleb128 0x3e
 1370 0024 0B       		.uleb128 0xb
 1371 0025 03       		.uleb128 0x3
 1372 0026 0E       		.uleb128 0xe
 1373 0027 00       		.byte	0
 1374 0028 00       		.byte	0
 1375 0029 04       		.uleb128 0x4
 1376 002a 16       		.uleb128 0x16
 1377 002b 00       		.byte	0
 1378 002c 03       		.uleb128 0x3
 1379 002d 0E       		.uleb128 0xe
 1380 002e 3A       		.uleb128 0x3a
 1381 002f 0B       		.uleb128 0xb
 1382 0030 3B       		.uleb128 0x3b
 1383 0031 0B       		.uleb128 0xb
 1384 0032 49       		.uleb128 0x49
 1385 0033 13       		.uleb128 0x13
 1386 0034 00       		.byte	0
 1387 0035 00       		.byte	0
 1388 0036 05       		.uleb128 0x5
 1389 0037 35       		.uleb128 0x35
 1390 0038 00       		.byte	0
 1391 0039 49       		.uleb128 0x49
 1392 003a 13       		.uleb128 0x13
 1393 003b 00       		.byte	0
 1394 003c 00       		.byte	0
 1395 003d 06       		.uleb128 0x6
 1396 003e 13       		.uleb128 0x13
 1397 003f 01       		.byte	0x1
 1398 0040 03       		.uleb128 0x3
 1399 0041 0E       		.uleb128 0xe
 1400 0042 0B       		.uleb128 0xb
 1401 0043 0B       		.uleb128 0xb
 1402 0044 3A       		.uleb128 0x3a
 1403 0045 0B       		.uleb128 0xb
 1404 0046 3B       		.uleb128 0x3b
 1405 0047 0B       		.uleb128 0xb
 1406 0048 01       		.uleb128 0x1
 1407 0049 13       		.uleb128 0x13
 1408 004a 00       		.byte	0
 1409 004b 00       		.byte	0
 1410 004c 07       		.uleb128 0x7
 1411 004d 0D       		.uleb128 0xd
 1412 004e 00       		.byte	0
 1413 004f 03       		.uleb128 0x3
 1414 0050 0E       		.uleb128 0xe
 1415 0051 3A       		.uleb128 0x3a
 1416 0052 0B       		.uleb128 0xb
 1417 0053 3B       		.uleb128 0x3b
 1418 0054 0B       		.uleb128 0xb
 1419 0055 49       		.uleb128 0x49
 1420 0056 13       		.uleb128 0x13
ARM GAS  C:\Users\jo\AppData\Local\Temp\ccewwl0R.s 			page 26


 1421 0057 38       		.uleb128 0x38
 1422 0058 0B       		.uleb128 0xb
 1423 0059 00       		.byte	0
 1424 005a 00       		.byte	0
 1425 005b 08       		.uleb128 0x8
 1426 005c 0D       		.uleb128 0xd
 1427 005d 00       		.byte	0
 1428 005e 03       		.uleb128 0x3
 1429 005f 08       		.uleb128 0x8
 1430 0060 3A       		.uleb128 0x3a
 1431 0061 0B       		.uleb128 0xb
 1432 0062 3B       		.uleb128 0x3b
 1433 0063 05       		.uleb128 0x5
 1434 0064 49       		.uleb128 0x49
 1435 0065 13       		.uleb128 0x13
 1436 0066 38       		.uleb128 0x38
 1437 0067 0B       		.uleb128 0xb
 1438 0068 00       		.byte	0
 1439 0069 00       		.byte	0
 1440 006a 09       		.uleb128 0x9
 1441 006b 0D       		.uleb128 0xd
 1442 006c 00       		.byte	0
 1443 006d 03       		.uleb128 0x3
 1444 006e 0E       		.uleb128 0xe
 1445 006f 3A       		.uleb128 0x3a
 1446 0070 0B       		.uleb128 0xb
 1447 0071 3B       		.uleb128 0x3b
 1448 0072 05       		.uleb128 0x5
 1449 0073 49       		.uleb128 0x49
 1450 0074 13       		.uleb128 0x13
 1451 0075 38       		.uleb128 0x38
 1452 0076 0B       		.uleb128 0xb
 1453 0077 00       		.byte	0
 1454 0078 00       		.byte	0
 1455 0079 0A       		.uleb128 0xa
 1456 007a 13       		.uleb128 0x13
 1457 007b 01       		.byte	0x1
 1458 007c 03       		.uleb128 0x3
 1459 007d 0E       		.uleb128 0xe
 1460 007e 0B       		.uleb128 0xb
 1461 007f 0B       		.uleb128 0xb
 1462 0080 3A       		.uleb128 0x3a
 1463 0081 0B       		.uleb128 0xb
 1464 0082 3B       		.uleb128 0x3b
 1465 0083 05       		.uleb128 0x5
 1466 0084 01       		.uleb128 0x1
 1467 0085 13       		.uleb128 0x13
 1468 0086 00       		.byte	0
 1469 0087 00       		.byte	0
 1470 0088 0B       		.uleb128 0xb
 1471 0089 0F       		.uleb128 0xf
 1472 008a 00       		.byte	0
 1473 008b 0B       		.uleb128 0xb
 1474 008c 0B       		.uleb128 0xb
 1475 008d 49       		.uleb128 0x49
 1476 008e 13       		.uleb128 0x13
 1477 008f 00       		.byte	0
ARM GAS  C:\Users\jo\AppData\Local\Temp\ccewwl0R.s 			page 27


 1478 0090 00       		.byte	0
 1479 0091 0C       		.uleb128 0xc
 1480 0092 15       		.uleb128 0x15
 1481 0093 01       		.byte	0x1
 1482 0094 27       		.uleb128 0x27
 1483 0095 19       		.uleb128 0x19
 1484 0096 01       		.uleb128 0x1
 1485 0097 13       		.uleb128 0x13
 1486 0098 00       		.byte	0
 1487 0099 00       		.byte	0
 1488 009a 0D       		.uleb128 0xd
 1489 009b 05       		.uleb128 0x5
 1490 009c 00       		.byte	0
 1491 009d 49       		.uleb128 0x49
 1492 009e 13       		.uleb128 0x13
 1493 009f 00       		.byte	0
 1494 00a0 00       		.byte	0
 1495 00a1 0E       		.uleb128 0xe
 1496 00a2 0F       		.uleb128 0xf
 1497 00a3 00       		.byte	0
 1498 00a4 0B       		.uleb128 0xb
 1499 00a5 0B       		.uleb128 0xb
 1500 00a6 00       		.byte	0
 1501 00a7 00       		.byte	0
 1502 00a8 0F       		.uleb128 0xf
 1503 00a9 13       		.uleb128 0x13
 1504 00aa 01       		.byte	0x1
 1505 00ab 03       		.uleb128 0x3
 1506 00ac 0E       		.uleb128 0xe
 1507 00ad 0B       		.uleb128 0xb
 1508 00ae 05       		.uleb128 0x5
 1509 00af 3A       		.uleb128 0x3a
 1510 00b0 0B       		.uleb128 0xb
 1511 00b1 3B       		.uleb128 0x3b
 1512 00b2 05       		.uleb128 0x5
 1513 00b3 01       		.uleb128 0x1
 1514 00b4 13       		.uleb128 0x13
 1515 00b5 00       		.byte	0
 1516 00b6 00       		.byte	0
 1517 00b7 10       		.uleb128 0x10
 1518 00b8 0D       		.uleb128 0xd
 1519 00b9 00       		.byte	0
 1520 00ba 03       		.uleb128 0x3
 1521 00bb 0E       		.uleb128 0xe
 1522 00bc 3A       		.uleb128 0x3a
 1523 00bd 0B       		.uleb128 0xb
 1524 00be 3B       		.uleb128 0x3b
 1525 00bf 05       		.uleb128 0x5
 1526 00c0 49       		.uleb128 0x49
 1527 00c1 13       		.uleb128 0x13
 1528 00c2 38       		.uleb128 0x38
 1529 00c3 05       		.uleb128 0x5
 1530 00c4 00       		.byte	0
 1531 00c5 00       		.byte	0
 1532 00c6 11       		.uleb128 0x11
 1533 00c7 0D       		.uleb128 0xd
 1534 00c8 00       		.byte	0
ARM GAS  C:\Users\jo\AppData\Local\Temp\ccewwl0R.s 			page 28


 1535 00c9 03       		.uleb128 0x3
 1536 00ca 08       		.uleb128 0x8
 1537 00cb 3A       		.uleb128 0x3a
 1538 00cc 0B       		.uleb128 0xb
 1539 00cd 3B       		.uleb128 0x3b
 1540 00ce 05       		.uleb128 0x5
 1541 00cf 49       		.uleb128 0x49
 1542 00d0 13       		.uleb128 0x13
 1543 00d1 38       		.uleb128 0x38
 1544 00d2 05       		.uleb128 0x5
 1545 00d3 00       		.byte	0
 1546 00d4 00       		.byte	0
 1547 00d5 12       		.uleb128 0x12
 1548 00d6 0D       		.uleb128 0xd
 1549 00d7 00       		.byte	0
 1550 00d8 03       		.uleb128 0x3
 1551 00d9 08       		.uleb128 0x8
 1552 00da 3A       		.uleb128 0x3a
 1553 00db 0B       		.uleb128 0xb
 1554 00dc 3B       		.uleb128 0x3b
 1555 00dd 0B       		.uleb128 0xb
 1556 00de 49       		.uleb128 0x49
 1557 00df 13       		.uleb128 0x13
 1558 00e0 38       		.uleb128 0x38
 1559 00e1 0B       		.uleb128 0xb
 1560 00e2 00       		.byte	0
 1561 00e3 00       		.byte	0
 1562 00e4 13       		.uleb128 0x13
 1563 00e5 26       		.uleb128 0x26
 1564 00e6 00       		.byte	0
 1565 00e7 49       		.uleb128 0x49
 1566 00e8 13       		.uleb128 0x13
 1567 00e9 00       		.byte	0
 1568 00ea 00       		.byte	0
 1569 00eb 14       		.uleb128 0x14
 1570 00ec 13       		.uleb128 0x13
 1571 00ed 01       		.byte	0x1
 1572 00ee 0B       		.uleb128 0xb
 1573 00ef 0B       		.uleb128 0xb
 1574 00f0 3A       		.uleb128 0x3a
 1575 00f1 0B       		.uleb128 0xb
 1576 00f2 3B       		.uleb128 0x3b
 1577 00f3 0B       		.uleb128 0xb
 1578 00f4 01       		.uleb128 0x1
 1579 00f5 13       		.uleb128 0x13
 1580 00f6 00       		.byte	0
 1581 00f7 00       		.byte	0
 1582 00f8 15       		.uleb128 0x15
 1583 00f9 13       		.uleb128 0x13
 1584 00fa 01       		.byte	0x1
 1585 00fb 0B       		.uleb128 0xb
 1586 00fc 05       		.uleb128 0x5
 1587 00fd 3A       		.uleb128 0x3a
 1588 00fe 0B       		.uleb128 0xb
 1589 00ff 3B       		.uleb128 0x3b
 1590 0100 0B       		.uleb128 0xb
 1591 0101 01       		.uleb128 0x1
ARM GAS  C:\Users\jo\AppData\Local\Temp\ccewwl0R.s 			page 29


 1592 0102 13       		.uleb128 0x13
 1593 0103 00       		.byte	0
 1594 0104 00       		.byte	0
 1595 0105 16       		.uleb128 0x16
 1596 0106 01       		.uleb128 0x1
 1597 0107 01       		.byte	0x1
 1598 0108 49       		.uleb128 0x49
 1599 0109 13       		.uleb128 0x13
 1600 010a 01       		.uleb128 0x1
 1601 010b 13       		.uleb128 0x13
 1602 010c 00       		.byte	0
 1603 010d 00       		.byte	0
 1604 010e 17       		.uleb128 0x17
 1605 010f 21       		.uleb128 0x21
 1606 0110 00       		.byte	0
 1607 0111 49       		.uleb128 0x49
 1608 0112 13       		.uleb128 0x13
 1609 0113 2F       		.uleb128 0x2f
 1610 0114 0B       		.uleb128 0xb
 1611 0115 00       		.byte	0
 1612 0116 00       		.byte	0
 1613 0117 18       		.uleb128 0x18
 1614 0118 17       		.uleb128 0x17
 1615 0119 01       		.byte	0x1
 1616 011a 0B       		.uleb128 0xb
 1617 011b 0B       		.uleb128 0xb
 1618 011c 3A       		.uleb128 0x3a
 1619 011d 0B       		.uleb128 0xb
 1620 011e 3B       		.uleb128 0x3b
 1621 011f 0B       		.uleb128 0xb
 1622 0120 01       		.uleb128 0x1
 1623 0121 13       		.uleb128 0x13
 1624 0122 00       		.byte	0
 1625 0123 00       		.byte	0
 1626 0124 19       		.uleb128 0x19
 1627 0125 0D       		.uleb128 0xd
 1628 0126 00       		.byte	0
 1629 0127 03       		.uleb128 0x3
 1630 0128 0E       		.uleb128 0xe
 1631 0129 3A       		.uleb128 0x3a
 1632 012a 0B       		.uleb128 0xb
 1633 012b 3B       		.uleb128 0x3b
 1634 012c 0B       		.uleb128 0xb
 1635 012d 49       		.uleb128 0x49
 1636 012e 13       		.uleb128 0x13
 1637 012f 00       		.byte	0
 1638 0130 00       		.byte	0
 1639 0131 1A       		.uleb128 0x1a
 1640 0132 0D       		.uleb128 0xd
 1641 0133 00       		.byte	0
 1642 0134 03       		.uleb128 0x3
 1643 0135 0E       		.uleb128 0xe
 1644 0136 3A       		.uleb128 0x3a
 1645 0137 0B       		.uleb128 0xb
 1646 0138 3B       		.uleb128 0x3b
 1647 0139 05       		.uleb128 0x5
 1648 013a 49       		.uleb128 0x49
ARM GAS  C:\Users\jo\AppData\Local\Temp\ccewwl0R.s 			page 30


 1649 013b 13       		.uleb128 0x13
 1650 013c 00       		.byte	0
 1651 013d 00       		.byte	0
 1652 013e 1B       		.uleb128 0x1b
 1653 013f 2E       		.uleb128 0x2e
 1654 0140 01       		.byte	0x1
 1655 0141 3F       		.uleb128 0x3f
 1656 0142 19       		.uleb128 0x19
 1657 0143 03       		.uleb128 0x3
 1658 0144 0E       		.uleb128 0xe
 1659 0145 3A       		.uleb128 0x3a
 1660 0146 0B       		.uleb128 0xb
 1661 0147 3B       		.uleb128 0x3b
 1662 0148 0B       		.uleb128 0xb
 1663 0149 27       		.uleb128 0x27
 1664 014a 19       		.uleb128 0x19
 1665 014b 11       		.uleb128 0x11
 1666 014c 01       		.uleb128 0x1
 1667 014d 12       		.uleb128 0x12
 1668 014e 06       		.uleb128 0x6
 1669 014f 40       		.uleb128 0x40
 1670 0150 18       		.uleb128 0x18
 1671 0151 9742     		.uleb128 0x2117
 1672 0153 19       		.uleb128 0x19
 1673 0154 01       		.uleb128 0x1
 1674 0155 13       		.uleb128 0x13
 1675 0156 00       		.byte	0
 1676 0157 00       		.byte	0
 1677 0158 1C       		.uleb128 0x1c
 1678 0159 898201   		.uleb128 0x4109
 1679 015c 01       		.byte	0x1
 1680 015d 11       		.uleb128 0x11
 1681 015e 01       		.uleb128 0x1
 1682 015f 31       		.uleb128 0x31
 1683 0160 13       		.uleb128 0x13
 1684 0161 01       		.uleb128 0x1
 1685 0162 13       		.uleb128 0x13
 1686 0163 00       		.byte	0
 1687 0164 00       		.byte	0
 1688 0165 1D       		.uleb128 0x1d
 1689 0166 8A8201   		.uleb128 0x410a
 1690 0169 00       		.byte	0
 1691 016a 02       		.uleb128 0x2
 1692 016b 18       		.uleb128 0x18
 1693 016c 9142     		.uleb128 0x2111
 1694 016e 18       		.uleb128 0x18
 1695 016f 00       		.byte	0
 1696 0170 00       		.byte	0
 1697 0171 1E       		.uleb128 0x1e
 1698 0172 898201   		.uleb128 0x4109
 1699 0175 00       		.byte	0
 1700 0176 11       		.uleb128 0x11
 1701 0177 01       		.uleb128 0x1
 1702 0178 9542     		.uleb128 0x2115
 1703 017a 19       		.uleb128 0x19
 1704 017b 31       		.uleb128 0x31
 1705 017c 13       		.uleb128 0x13
ARM GAS  C:\Users\jo\AppData\Local\Temp\ccewwl0R.s 			page 31


 1706 017d 00       		.byte	0
 1707 017e 00       		.byte	0
 1708 017f 1F       		.uleb128 0x1f
 1709 0180 2E       		.uleb128 0x2e
 1710 0181 00       		.byte	0
 1711 0182 3F       		.uleb128 0x3f
 1712 0183 19       		.uleb128 0x19
 1713 0184 03       		.uleb128 0x3
 1714 0185 0E       		.uleb128 0xe
 1715 0186 3A       		.uleb128 0x3a
 1716 0187 0B       		.uleb128 0xb
 1717 0188 3B       		.uleb128 0x3b
 1718 0189 0B       		.uleb128 0xb
 1719 018a 27       		.uleb128 0x27
 1720 018b 19       		.uleb128 0x19
 1721 018c 11       		.uleb128 0x11
 1722 018d 01       		.uleb128 0x1
 1723 018e 12       		.uleb128 0x12
 1724 018f 06       		.uleb128 0x6
 1725 0190 40       		.uleb128 0x40
 1726 0191 18       		.uleb128 0x18
 1727 0192 9742     		.uleb128 0x2117
 1728 0194 19       		.uleb128 0x19
 1729 0195 00       		.byte	0
 1730 0196 00       		.byte	0
 1731 0197 20       		.uleb128 0x20
 1732 0198 05       		.uleb128 0x5
 1733 0199 00       		.byte	0
 1734 019a 03       		.uleb128 0x3
 1735 019b 08       		.uleb128 0x8
 1736 019c 3A       		.uleb128 0x3a
 1737 019d 0B       		.uleb128 0xb
 1738 019e 3B       		.uleb128 0x3b
 1739 019f 0B       		.uleb128 0xb
 1740 01a0 49       		.uleb128 0x49
 1741 01a1 13       		.uleb128 0x13
 1742 01a2 02       		.uleb128 0x2
 1743 01a3 17       		.uleb128 0x17
 1744 01a4 00       		.byte	0
 1745 01a5 00       		.byte	0
 1746 01a6 21       		.uleb128 0x21
 1747 01a7 898201   		.uleb128 0x4109
 1748 01aa 01       		.byte	0x1
 1749 01ab 11       		.uleb128 0x11
 1750 01ac 01       		.uleb128 0x1
 1751 01ad 9542     		.uleb128 0x2115
 1752 01af 19       		.uleb128 0x19
 1753 01b0 31       		.uleb128 0x31
 1754 01b1 13       		.uleb128 0x13
 1755 01b2 00       		.byte	0
 1756 01b3 00       		.byte	0
 1757 01b4 22       		.uleb128 0x22
 1758 01b5 34       		.uleb128 0x34
 1759 01b6 00       		.byte	0
 1760 01b7 03       		.uleb128 0x3
 1761 01b8 0E       		.uleb128 0xe
 1762 01b9 3A       		.uleb128 0x3a
ARM GAS  C:\Users\jo\AppData\Local\Temp\ccewwl0R.s 			page 32


 1763 01ba 0B       		.uleb128 0xb
 1764 01bb 3B       		.uleb128 0x3b
 1765 01bc 05       		.uleb128 0x5
 1766 01bd 49       		.uleb128 0x49
 1767 01be 13       		.uleb128 0x13
 1768 01bf 3F       		.uleb128 0x3f
 1769 01c0 19       		.uleb128 0x19
 1770 01c1 3C       		.uleb128 0x3c
 1771 01c2 19       		.uleb128 0x19
 1772 01c3 00       		.byte	0
 1773 01c4 00       		.byte	0
 1774 01c5 23       		.uleb128 0x23
 1775 01c6 34       		.uleb128 0x34
 1776 01c7 00       		.byte	0
 1777 01c8 03       		.uleb128 0x3
 1778 01c9 08       		.uleb128 0x8
 1779 01ca 3A       		.uleb128 0x3a
 1780 01cb 0B       		.uleb128 0xb
 1781 01cc 3B       		.uleb128 0x3b
 1782 01cd 05       		.uleb128 0x5
 1783 01ce 49       		.uleb128 0x49
 1784 01cf 13       		.uleb128 0x13
 1785 01d0 3F       		.uleb128 0x3f
 1786 01d1 19       		.uleb128 0x19
 1787 01d2 3C       		.uleb128 0x3c
 1788 01d3 19       		.uleb128 0x19
 1789 01d4 00       		.byte	0
 1790 01d5 00       		.byte	0
 1791 01d6 24       		.uleb128 0x24
 1792 01d7 2E       		.uleb128 0x2e
 1793 01d8 01       		.byte	0x1
 1794 01d9 3F       		.uleb128 0x3f
 1795 01da 19       		.uleb128 0x19
 1796 01db 03       		.uleb128 0x3
 1797 01dc 0E       		.uleb128 0xe
 1798 01dd 3A       		.uleb128 0x3a
 1799 01de 0B       		.uleb128 0xb
 1800 01df 3B       		.uleb128 0x3b
 1801 01e0 0B       		.uleb128 0xb
 1802 01e1 27       		.uleb128 0x27
 1803 01e2 19       		.uleb128 0x19
 1804 01e3 3C       		.uleb128 0x3c
 1805 01e4 19       		.uleb128 0x19
 1806 01e5 01       		.uleb128 0x1
 1807 01e6 13       		.uleb128 0x13
 1808 01e7 00       		.byte	0
 1809 01e8 00       		.byte	0
 1810 01e9 25       		.uleb128 0x25
 1811 01ea 2E       		.uleb128 0x2e
 1812 01eb 01       		.byte	0x1
 1813 01ec 3F       		.uleb128 0x3f
 1814 01ed 19       		.uleb128 0x19
 1815 01ee 03       		.uleb128 0x3
 1816 01ef 0E       		.uleb128 0xe
 1817 01f0 3A       		.uleb128 0x3a
 1818 01f1 0B       		.uleb128 0xb
 1819 01f2 3B       		.uleb128 0x3b
ARM GAS  C:\Users\jo\AppData\Local\Temp\ccewwl0R.s 			page 33


 1820 01f3 0B       		.uleb128 0xb
 1821 01f4 27       		.uleb128 0x27
 1822 01f5 19       		.uleb128 0x19
 1823 01f6 3C       		.uleb128 0x3c
 1824 01f7 19       		.uleb128 0x19
 1825 01f8 00       		.byte	0
 1826 01f9 00       		.byte	0
 1827 01fa 00       		.byte	0
 1828              		.section	.debug_loc,"",%progbits
 1829              	.Ldebug_loc0:
 1830              	.LLST0:
 1831 0000 00000000 		.4byte	.LVL2
 1832 0004 12000000 		.4byte	.LVL3
 1833 0008 0100     		.2byte	0x1
 1834 000a 50       		.byte	0x50
 1835 000b 12000000 		.4byte	.LVL3
 1836 000f 18000000 		.4byte	.LVL5
 1837 0013 0400     		.2byte	0x4
 1838 0015 74       		.byte	0x74
 1839 0016 B87F     		.sleb128 -72
 1840 0018 9F       		.byte	0x9f
 1841 0019 18000000 		.4byte	.LVL5
 1842 001d 1F000000 		.4byte	.LVL6-1
 1843 0021 0400     		.2byte	0x4
 1844 0023 71       		.byte	0x71
 1845 0024 B87F     		.sleb128 -72
 1846 0026 9F       		.byte	0x9f
 1847 0027 1F000000 		.4byte	.LVL6-1
 1848 002b 24000000 		.4byte	.LFE228
 1849 002f 0400     		.2byte	0x4
 1850 0031 F3       		.byte	0xf3
 1851 0032 01       		.uleb128 0x1
 1852 0033 50       		.byte	0x50
 1853 0034 9F       		.byte	0x9f
 1854 0035 00000000 		.4byte	0
 1855 0039 00000000 		.4byte	0
 1856              	.LLST1:
 1857 003d 00000000 		.4byte	.LVL2
 1858 0041 14000000 		.4byte	.LVL4
 1859 0045 0100     		.2byte	0x1
 1860 0047 51       		.byte	0x51
 1861 0048 14000000 		.4byte	.LVL4
 1862 004c 1F000000 		.4byte	.LVL6-1
 1863 0050 0400     		.2byte	0x4
 1864 0052 70       		.byte	0x70
 1865 0053 B87F     		.sleb128 -72
 1866 0055 9F       		.byte	0x9f
 1867 0056 1F000000 		.4byte	.LVL6-1
 1868 005a 24000000 		.4byte	.LFE228
 1869 005e 0400     		.2byte	0x4
 1870 0060 F3       		.byte	0xf3
 1871 0061 01       		.uleb128 0x1
 1872 0062 51       		.byte	0x51
 1873 0063 9F       		.byte	0x9f
 1874 0064 00000000 		.4byte	0
 1875 0068 00000000 		.4byte	0
 1876              		.section	.debug_aranges,"",%progbits
ARM GAS  C:\Users\jo\AppData\Local\Temp\ccewwl0R.s 			page 34


 1877 0000 4C000000 		.4byte	0x4c
 1878 0004 0200     		.2byte	0x2
 1879 0006 00000000 		.4byte	.Ldebug_info0
 1880 000a 04       		.byte	0x4
 1881 000b 00       		.byte	0
 1882 000c 0000     		.2byte	0
 1883 000e 0000     		.2byte	0
 1884 0010 00000000 		.4byte	.LFB226
 1885 0014 28000000 		.4byte	.LFE226-.LFB226
 1886 0018 00000000 		.4byte	.LFB227
 1887 001c 14000000 		.4byte	.LFE227-.LFB227
 1888 0020 00000000 		.4byte	.LFB228
 1889 0024 24000000 		.4byte	.LFE228-.LFB228
 1890 0028 00000000 		.4byte	.LFB229
 1891 002c 0C000000 		.4byte	.LFE229-.LFB229
 1892 0030 00000000 		.4byte	.LFB230
 1893 0034 0C000000 		.4byte	.LFE230-.LFB230
 1894 0038 00000000 		.4byte	.LFB231
 1895 003c 0C000000 		.4byte	.LFE231-.LFB231
 1896 0040 00000000 		.4byte	.LFB232
 1897 0044 0C000000 		.4byte	.LFE232-.LFB232
 1898 0048 00000000 		.4byte	0
 1899 004c 00000000 		.4byte	0
 1900              		.section	.debug_ranges,"",%progbits
 1901              	.Ldebug_ranges0:
 1902 0000 00000000 		.4byte	.LFB226
 1903 0004 28000000 		.4byte	.LFE226
 1904 0008 00000000 		.4byte	.LFB227
 1905 000c 14000000 		.4byte	.LFE227
 1906 0010 00000000 		.4byte	.LFB228
 1907 0014 24000000 		.4byte	.LFE228
 1908 0018 00000000 		.4byte	.LFB229
 1909 001c 0C000000 		.4byte	.LFE229
 1910 0020 00000000 		.4byte	.LFB230
 1911 0024 0C000000 		.4byte	.LFE230
 1912 0028 00000000 		.4byte	.LFB231
 1913 002c 0C000000 		.4byte	.LFE231
 1914 0030 00000000 		.4byte	.LFB232
 1915 0034 0C000000 		.4byte	.LFE232
 1916 0038 00000000 		.4byte	0
 1917 003c 00000000 		.4byte	0
 1918              		.section	.debug_line,"",%progbits
 1919              	.Ldebug_line0:
 1920 0000 74020000 		.section	.debug_str,"MS",%progbits,1
 1920      0200EA01 
 1920      00000201 
 1920      FB0E0D00 
 1920      01010101 
 1921              	.LASF97:
 1922 0000 74625F70 		.ascii	"tb_ptr\000"
 1922      747200
 1923              	.LASF53:
 1924 0007 72656164 		.ascii	"ready_list_t\000"
 1924      795F6C69 
 1924      73745F74 
 1924      00
 1925              	.LASF91:
ARM GAS  C:\Users\jo\AppData\Local\Temp\ccewwl0R.s 			page 35


 1926 0014 73655F74 		.ascii	"se_time\000"
 1926      696D6500 
 1927              	.LASF112:
 1928 001c 7264796D 		.ascii	"rdymsg\000"
 1928      736700
 1929              	.LASF16:
 1930 0023 75696E74 		.ascii	"uint64_t\000"
 1930      36345F74 
 1930      00
 1931              	.LASF83:
 1932 002c 6B65726E 		.ascii	"kernel_stats\000"
 1932      656C5F73 
 1932      74617473 
 1932      00
 1933              	.LASF5:
 1934 0039 5F5F7569 		.ascii	"__uint8_t\000"
 1934      6E74385F 
 1934      7400
 1935              	.LASF89:
 1936 0043 706F7274 		.ascii	"port_intctx\000"
 1936      5F696E74 
 1936      63747800 
 1937              	.LASF52:
 1938 004f 63685F74 		.ascii	"ch_threads_queue\000"
 1938      68726561 
 1938      64735F71 
 1938      75657565 
 1938      00
 1939              	.LASF72:
 1940 0060 73797374 		.ascii	"system_debug_t\000"
 1940      656D5F64 
 1940      65627567 
 1940      5F7400
 1941              	.LASF103:
 1942 006f 776F7273 		.ascii	"worst\000"
 1942      7400
 1943              	.LASF106:
 1944 0075 74696D65 		.ascii	"time_measurement_t\000"
 1944      5F6D6561 
 1944      73757265 
 1944      6D656E74 
 1944      5F7400
 1945              	.LASF12:
 1946 0088 6C6F6E67 		.ascii	"long long unsigned int\000"
 1946      206C6F6E 
 1946      6720756E 
 1946      7369676E 
 1946      65642069 
 1947              	.LASF99:
 1948 009f 63685F74 		.ascii	"ch_trace_buffer_t\000"
 1948      72616365 
 1948      5F627566 
 1948      6665725F 
 1948      7400
 1949              	.LASF94:
 1950 00b1 73655F73 		.ascii	"se_state\000"
 1950      74617465 
ARM GAS  C:\Users\jo\AppData\Local\Temp\ccewwl0R.s 			page 36


 1950      00
 1951              	.LASF113:
 1952 00ba 65786974 		.ascii	"exitcode\000"
 1952      636F6465 
 1952      00
 1953              	.LASF82:
 1954 00c3 6D61696E 		.ascii	"mainthread\000"
 1954      74687265 
 1954      616400
 1955              	.LASF123:
 1956 00ce 5F737461 		.ascii	"_stats_start_measure_crit_thd\000"
 1956      74735F73 
 1956      74617274 
 1956      5F6D6561 
 1956      73757265 
 1957              	.LASF69:
 1958 00ec 76697274 		.ascii	"virtual_timers_list_t\000"
 1958      75616C5F 
 1958      74696D65 
 1958      72735F6C 
 1958      6973745F 
 1959              	.LASF128:
 1960 0102 6368544D 		.ascii	"chTMObjectInit\000"
 1960      4F626A65 
 1960      6374496E 
 1960      697400
 1961              	.LASF18:
 1962 0111 72747469 		.ascii	"rttime_t\000"
 1962      6D655F74 
 1962      00
 1963              	.LASF31:
 1964 011a 705F7072 		.ascii	"p_prio\000"
 1964      696F00
 1965              	.LASF133:
 1966 0121 433A5C55 		.ascii	"C:\\Users\\jo\\Documents\\GitHub\\ChibiOS\\demos\\S"
 1966      73657273 
 1966      5C6A6F5C 
 1966      446F6375 
 1966      6D656E74 
 1967 014d 544D3332 		.ascii	"TM32\\RT-STM32F407-DISCOVERY-uHttp\000"
 1967      5C52542D 
 1967      53544D33 
 1967      32463430 
 1967      372D4449 
 1968              	.LASF10:
 1969 016f 6C6F6E67 		.ascii	"long long int\000"
 1969      206C6F6E 
 1969      6720696E 
 1969      7400
 1970              	.LASF1:
 1971 017d 7369676E 		.ascii	"signed char\000"
 1971      65642063 
 1971      68617200 
 1972              	.LASF46:
 1973 0189 705F6D70 		.ascii	"p_mpool\000"
 1973      6F6F6C00 
 1974              	.LASF117:
ARM GAS  C:\Users\jo\AppData\Local\Temp\ccewwl0R.s 			page 37


 1975 0191 6D5F7175 		.ascii	"m_queue\000"
 1975      65756500 
 1976              	.LASF81:
 1977 0199 76746C69 		.ascii	"vtlist\000"
 1977      737400
 1978              	.LASF130:
 1979 01a0 6368544D 		.ascii	"chTMStartMeasurementX\000"
 1979      53746172 
 1979      744D6561 
 1979      73757265 
 1979      6D656E74 
 1980              	.LASF135:
 1981 01b6 6368544D 		.ascii	"chTMStopMeasurementX\000"
 1981      53746F70 
 1981      4D656173 
 1981      7572656D 
 1981      656E7458 
 1982              	.LASF7:
 1983 01cb 6C6F6E67 		.ascii	"long int\000"
 1983      20696E74 
 1983      00
 1984              	.LASF20:
 1985 01d4 74737461 		.ascii	"tstate_t\000"
 1985      74655F74 
 1985      00
 1986              	.LASF92:
 1987 01dd 73655F74 		.ascii	"se_tp\000"
 1987      7000
 1988              	.LASF33:
 1989 01e3 705F6E65 		.ascii	"p_newer\000"
 1989      77657200 
 1990              	.LASF96:
 1991 01eb 74625F73 		.ascii	"tb_size\000"
 1991      697A6500 
 1992              	.LASF58:
 1993 01f3 725F6E65 		.ascii	"r_newer\000"
 1993      77657200 
 1994              	.LASF86:
 1995 01fb 72656761 		.ascii	"regarm_t\000"
 1995      726D5F74 
 1995      00
 1996              	.LASF65:
 1997 0204 76745F70 		.ascii	"vt_prev\000"
 1997      72657600 
 1998              	.LASF73:
 1999 020c 63685F73 		.ascii	"ch_system_debug\000"
 1999      79737465 
 1999      6D5F6465 
 1999      62756700 
 2000              	.LASF120:
 2001 021c 6D757465 		.ascii	"mutex_t\000"
 2001      785F7400 
 2002              	.LASF76:
 2003 0224 6C6F636B 		.ascii	"lock_cnt\000"
 2003      5F636E74 
 2003      00
 2004              	.LASF84:
ARM GAS  C:\Users\jo\AppData\Local\Temp\ccewwl0R.s 			page 38


 2005 022d 69646C65 		.ascii	"idle_thread_wa\000"
 2005      5F746872 
 2005      6561645F 
 2005      776100
 2006              	.LASF25:
 2007 023c 636E745F 		.ascii	"cnt_t\000"
 2007      7400
 2008              	.LASF36:
 2009 0242 705F7374 		.ascii	"p_stklimit\000"
 2009      6B6C696D 
 2009      697400
 2010              	.LASF0:
 2011 024d 756E7369 		.ascii	"unsigned int\000"
 2011      676E6564 
 2011      20696E74 
 2011      00
 2012              	.LASF64:
 2013 025a 76745F6E 		.ascii	"vt_next\000"
 2013      65787400 
 2014              	.LASF41:
 2015 0262 705F6D73 		.ascii	"p_msgqueue\000"
 2015      67717565 
 2015      756500
 2016              	.LASF107:
 2017 026d 6E5F6972 		.ascii	"n_irq\000"
 2017      7100
 2018              	.LASF4:
 2019 0273 73686F72 		.ascii	"short unsigned int\000"
 2019      7420756E 
 2019      7369676E 
 2019      65642069 
 2019      6E7400
 2020              	.LASF111:
 2021 0286 6B65726E 		.ascii	"kernel_stats_t\000"
 2021      656C5F73 
 2021      74617473 
 2021      5F7400
 2022              	.LASF49:
 2023 0295 63685F74 		.ascii	"ch_thread\000"
 2023      68726561 
 2023      6400
 2024              	.LASF23:
 2025 029f 6D73675F 		.ascii	"msg_t\000"
 2025      7400
 2026              	.LASF104:
 2027 02a5 6C617374 		.ascii	"last\000"
 2027      00
 2028              	.LASF26:
 2029 02aa 75636E74 		.ascii	"ucnt_t\000"
 2029      5F7400
 2030              	.LASF78:
 2031 02b1 63685F73 		.ascii	"ch_system_t\000"
 2031      79737465 
 2031      6D5F7400 
 2032              	.LASF19:
 2033 02bd 746D6F64 		.ascii	"tmode_t\000"
 2033      655F7400 
ARM GAS  C:\Users\jo\AppData\Local\Temp\ccewwl0R.s 			page 39


 2034              	.LASF110:
 2035 02c5 6D5F6372 		.ascii	"m_crit_isr\000"
 2035      69745F69 
 2035      737200
 2036              	.LASF54:
 2037 02d0 63685F72 		.ascii	"ch_ready_list\000"
 2037      65616479 
 2037      5F6C6973 
 2037      7400
 2038              	.LASF24:
 2039 02de 6576656E 		.ascii	"eventmask_t\000"
 2039      746D6173 
 2039      6B5F7400 
 2040              	.LASF129:
 2041 02ea 6368544D 		.ascii	"chTMChainMeasurementToX\000"
 2041      43686169 
 2041      6E4D6561 
 2041      73757265 
 2041      6D656E74 
 2042              	.LASF125:
 2043 0302 5F737461 		.ascii	"_stats_start_measure_crit_isr\000"
 2043      74735F73 
 2043      74617274 
 2043      5F6D6561 
 2043      73757265 
 2044              	.LASF87:
 2045 0320 73746B61 		.ascii	"stkalign_t\000"
 2045      6C69676E 
 2045      5F7400
 2046              	.LASF131:
 2047 032b 474E5520 		.ascii	"GNU C 4.9.3 20141119 (release) [ARM/embedded-4_9-br"
 2047      4320342E 
 2047      392E3320 
 2047      32303134 
 2047      31313139 
 2048 035e 616E6368 		.ascii	"anch revision 218278] -mcpu=cortex-m4 -mno-thumb-in"
 2048      20726576 
 2048      6973696F 
 2048      6E203231 
 2048      38323738 
 2049 0391 74657277 		.ascii	"terwork -mthumb -ggdb -O2 -fomit-frame-pointer -fal"
 2049      6F726B20 
 2049      2D6D7468 
 2049      756D6220 
 2049      2D676764 
 2050 03c4 69676E2D 		.ascii	"ign-functions=16 -ffunction-sections -fdata-section"
 2050      66756E63 
 2050      74696F6E 
 2050      733D3136 
 2050      202D6666 
 2051 03f7 73202D66 		.ascii	"s -fno-common\000"
 2051      6E6F2D63 
 2051      6F6D6D6F 
 2051      6E00
 2052              	.LASF40:
 2053 0405 705F7761 		.ascii	"p_waiting\000"
 2053      6974696E 
ARM GAS  C:\Users\jo\AppData\Local\Temp\ccewwl0R.s 			page 40


 2053      6700
 2054              	.LASF124:
 2055 040f 5F737461 		.ascii	"_stats_stop_measure_crit_thd\000"
 2055      74735F73 
 2055      746F705F 
 2055      6D656173 
 2055      7572655F 
 2056              	.LASF85:
 2057 042c 73697A65 		.ascii	"sizetype\000"
 2057      74797065 
 2057      00
 2058              	.LASF70:
 2059 0435 63685F76 		.ascii	"ch_virtual_timers_list\000"
 2059      69727475 
 2059      616C5F74 
 2059      696D6572 
 2059      735F6C69 
 2060              	.LASF95:
 2061 044c 63685F73 		.ascii	"ch_swc_event_t\000"
 2061      77635F65 
 2061      76656E74 
 2061      5F7400
 2062              	.LASF71:
 2063 045b 76745F6C 		.ascii	"vt_lasttime\000"
 2063      61737474 
 2063      696D6500 
 2064              	.LASF34:
 2065 0467 705F6F6C 		.ascii	"p_older\000"
 2065      64657200 
 2066              	.LASF57:
 2067 046f 725F6374 		.ascii	"r_ctx\000"
 2067      7800
 2068              	.LASF101:
 2069 0475 746D5F63 		.ascii	"tm_calibration_t\000"
 2069      616C6962 
 2069      72617469 
 2069      6F6E5F74 
 2069      00
 2070              	.LASF60:
 2071 0486 725F6375 		.ascii	"r_current\000"
 2071      7272656E 
 2071      7400
 2072              	.LASF59:
 2073 0490 725F6F6C 		.ascii	"r_older\000"
 2073      64657200 
 2074              	.LASF11:
 2075 0498 5F5F7569 		.ascii	"__uint64_t\000"
 2075      6E743634 
 2075      5F7400
 2076              	.LASF105:
 2077 04a3 63756D75 		.ascii	"cumulative\000"
 2077      6C617469 
 2077      766500
 2078              	.LASF21:
 2079 04ae 74726566 		.ascii	"trefs_t\000"
 2079      735F7400 
 2080              	.LASF98:
ARM GAS  C:\Users\jo\AppData\Local\Temp\ccewwl0R.s 			page 41


 2081 04b6 74625F62 		.ascii	"tb_buffer\000"
 2081      75666665 
 2081      7200
 2082              	.LASF62:
 2083 04c0 76697274 		.ascii	"virtual_timer_t\000"
 2083      75616C5F 
 2083      74696D65 
 2083      725F7400 
 2084              	.LASF30:
 2085 04d0 705F7072 		.ascii	"p_prev\000"
 2085      657600
 2086              	.LASF22:
 2087 04d7 74707269 		.ascii	"tprio_t\000"
 2087      6F5F7400 
 2088              	.LASF116:
 2089 04df 6D757465 		.ascii	"mutex\000"
 2089      7800
 2090              	.LASF108:
 2091 04e5 6E5F6374 		.ascii	"n_ctxswc\000"
 2091      78737763 
 2091      00
 2092              	.LASF14:
 2093 04ee 696E7433 		.ascii	"int32_t\000"
 2093      325F7400 
 2094              	.LASF2:
 2095 04f6 756E7369 		.ascii	"unsigned char\000"
 2095      676E6564 
 2095      20636861 
 2095      7200
 2096              	.LASF127:
 2097 0504 49544D5F 		.ascii	"ITM_RxBuffer\000"
 2097      52784275 
 2097      66666572 
 2097      00
 2098              	.LASF44:
 2099 0511 705F6D74 		.ascii	"p_mtxlist\000"
 2099      786C6973 
 2099      7400
 2100              	.LASF3:
 2101 051b 73686F72 		.ascii	"short int\000"
 2101      7420696E 
 2101      7400
 2102              	.LASF37:
 2103 0525 705F7374 		.ascii	"p_state\000"
 2103      61746500 
 2104              	.LASF56:
 2105 052d 725F7072 		.ascii	"r_prio\000"
 2105      696F00
 2106              	.LASF115:
 2107 0534 65776D61 		.ascii	"ewmask\000"
 2107      736B00
 2108              	.LASF29:
 2109 053b 705F6E65 		.ascii	"p_next\000"
 2109      787400
 2110              	.LASF38:
 2111 0542 705F666C 		.ascii	"p_flags\000"
 2111      61677300 
ARM GAS  C:\Users\jo\AppData\Local\Temp\ccewwl0R.s 			page 42


 2112              	.LASF47:
 2113 054a 705F7374 		.ascii	"p_stats\000"
 2113      61747300 
 2114              	.LASF79:
 2115 0552 63685F73 		.ascii	"ch_system\000"
 2115      79737465 
 2115      6D00
 2116              	.LASF63:
 2117 055c 63685F76 		.ascii	"ch_virtual_timer\000"
 2117      69727475 
 2117      616C5F74 
 2117      696D6572 
 2117      00
 2118              	.LASF43:
 2119 056d 705F6570 		.ascii	"p_epending\000"
 2119      656E6469 
 2119      6E6700
 2120              	.LASF15:
 2121 0578 75696E74 		.ascii	"uint32_t\000"
 2121      33325F74 
 2121      00
 2122              	.LASF134:
 2123 0581 5F737461 		.ascii	"_stats_increase_irq\000"
 2123      74735F69 
 2123      6E637265 
 2123      6173655F 
 2123      69727100 
 2124              	.LASF55:
 2125 0595 725F7175 		.ascii	"r_queue\000"
 2125      65756500 
 2126              	.LASF66:
 2127 059d 76745F64 		.ascii	"vt_delta\000"
 2127      656C7461 
 2127      00
 2128              	.LASF50:
 2129 05a6 63685F74 		.ascii	"ch_threads_list\000"
 2129      68726561 
 2129      64735F6C 
 2129      69737400 
 2130              	.LASF9:
 2131 05b6 6C6F6E67 		.ascii	"long unsigned int\000"
 2131      20756E73 
 2131      69676E65 
 2131      6420696E 
 2131      7400
 2132              	.LASF90:
 2133 05c8 63686172 		.ascii	"char\000"
 2133      00
 2134              	.LASF6:
 2135 05cd 5F5F696E 		.ascii	"__int32_t\000"
 2135      7433325F 
 2135      7400
 2136              	.LASF28:
 2137 05d7 74687265 		.ascii	"thread_t\000"
 2137      61645F74 
 2137      00
 2138              	.LASF102:
ARM GAS  C:\Users\jo\AppData\Local\Temp\ccewwl0R.s 			page 43


 2139 05e0 62657374 		.ascii	"best\000"
 2139      00
 2140              	.LASF119:
 2141 05e5 6D5F6E65 		.ascii	"m_next\000"
 2141      787400
 2142              	.LASF27:
 2143 05ec 73797374 		.ascii	"systime_t\000"
 2143      696D655F 
 2143      7400
 2144              	.LASF45:
 2145 05f6 705F7265 		.ascii	"p_realprio\000"
 2145      616C7072 
 2145      696F00
 2146              	.LASF61:
 2147 0601 76746675 		.ascii	"vtfunc_t\000"
 2147      6E635F74 
 2147      00
 2148              	.LASF8:
 2149 060a 5F5F7569 		.ascii	"__uint32_t\000"
 2149      6E743332 
 2149      5F7400
 2150              	.LASF74:
 2151 0615 70616E69 		.ascii	"panic_msg\000"
 2151      635F6D73 
 2151      6700
 2152              	.LASF132:
 2153 061f 2E2E2F2E 		.ascii	"../../../os/rt/src/chstats.c\000"
 2153      2E2F2E2E 
 2153      2F6F732F 
 2153      72742F73 
 2153      72632F63 
 2154              	.LASF100:
 2155 063c 6F666673 		.ascii	"offset\000"
 2155      657400
 2156              	.LASF88:
 2157 0643 636F6E74 		.ascii	"context\000"
 2157      65787400 
 2158              	.LASF17:
 2159 064b 7274636E 		.ascii	"rtcnt_t\000"
 2159      745F7400 
 2160              	.LASF68:
 2161 0653 76745F70 		.ascii	"vt_par\000"
 2161      617200
 2162              	.LASF51:
 2163 065a 74687265 		.ascii	"threads_queue_t\000"
 2163      6164735F 
 2163      71756575 
 2163      655F7400 
 2164              	.LASF39:
 2165 066a 705F7265 		.ascii	"p_refs\000"
 2165      667300
 2166              	.LASF75:
 2167 0671 6973725F 		.ascii	"isr_cnt\000"
 2167      636E7400 
 2168              	.LASF80:
 2169 0679 726C6973 		.ascii	"rlist\000"
 2169      7400
ARM GAS  C:\Users\jo\AppData\Local\Temp\ccewwl0R.s 			page 44


 2170              	.LASF13:
 2171 067f 75696E74 		.ascii	"uint8_t\000"
 2171      385F7400 
 2172              	.LASF122:
 2173 0687 5F737461 		.ascii	"_stats_ctxswc\000"
 2173      74735F63 
 2173      74787377 
 2173      6300
 2174              	.LASF114:
 2175 0695 77746F62 		.ascii	"wtobjp\000"
 2175      6A7000
 2176              	.LASF35:
 2177 069c 705F6E61 		.ascii	"p_name\000"
 2177      6D6500
 2178              	.LASF48:
 2179 06a3 74687265 		.ascii	"threads_list_t\000"
 2179      6164735F 
 2179      6C697374 
 2179      5F7400
 2180              	.LASF77:
 2181 06b2 74726163 		.ascii	"trace_buffer\000"
 2181      655F6275 
 2181      66666572 
 2181      00
 2182              	.LASF42:
 2183 06bf 705F6D73 		.ascii	"p_msg\000"
 2183      6700
 2184              	.LASF121:
 2185 06c5 5F737461 		.ascii	"_stats_init\000"
 2185      74735F69 
 2185      6E697400 
 2186              	.LASF126:
 2187 06d1 5F737461 		.ascii	"_stats_stop_measure_crit_isr\000"
 2187      74735F73 
 2187      746F705F 
 2187      6D656173 
 2187      7572655F 
 2188              	.LASF109:
 2189 06ee 6D5F6372 		.ascii	"m_crit_thd\000"
 2189      69745F74 
 2189      686400
 2190              	.LASF118:
 2191 06f9 6D5F6F77 		.ascii	"m_owner\000"
 2191      6E657200 
 2192              	.LASF93:
 2193 0701 73655F77 		.ascii	"se_wtobjp\000"
 2193      746F626A 
 2193      7000
 2194              	.LASF32:
 2195 070b 705F6374 		.ascii	"p_ctx\000"
 2195      7800
 2196              	.LASF67:
 2197 0711 76745F66 		.ascii	"vt_func\000"
 2197      756E6300 
 2198              		.ident	"GCC: (GNU Tools for ARM Embedded Processors) 4.9.3 20141119 (release) [ARM/embedded-4_9-br
ARM GAS  C:\Users\jo\AppData\Local\Temp\ccewwl0R.s 			page 45


DEFINED SYMBOLS
                            *ABS*:00000000 chstats.c
C:\Users\jo\AppData\Local\Temp\ccewwl0R.s:19     .text._stats_init:00000000 $t
C:\Users\jo\AppData\Local\Temp\ccewwl0R.s:25     .text._stats_init:00000000 _stats_init
C:\Users\jo\AppData\Local\Temp\ccewwl0R.s:61     .text._stats_init:00000024 $d
C:\Users\jo\AppData\Local\Temp\ccewwl0R.s:66     .text._stats_increase_irq:00000000 $t
C:\Users\jo\AppData\Local\Temp\ccewwl0R.s:72     .text._stats_increase_irq:00000000 _stats_increase_irq
C:\Users\jo\AppData\Local\Temp\ccewwl0R.s:88     .text._stats_increase_irq:00000010 $d
C:\Users\jo\AppData\Local\Temp\ccewwl0R.s:93     .text._stats_ctxswc:00000000 $t
C:\Users\jo\AppData\Local\Temp\ccewwl0R.s:99     .text._stats_ctxswc:00000000 _stats_ctxswc
C:\Users\jo\AppData\Local\Temp\ccewwl0R.s:136    .text._stats_ctxswc:00000020 $d
C:\Users\jo\AppData\Local\Temp\ccewwl0R.s:141    .text._stats_start_measure_crit_thd:00000000 $t
C:\Users\jo\AppData\Local\Temp\ccewwl0R.s:147    .text._stats_start_measure_crit_thd:00000000 _stats_start_measure_crit_thd
C:\Users\jo\AppData\Local\Temp\ccewwl0R.s:161    .text._stats_start_measure_crit_thd:00000008 $d
C:\Users\jo\AppData\Local\Temp\ccewwl0R.s:166    .text._stats_stop_measure_crit_thd:00000000 $t
C:\Users\jo\AppData\Local\Temp\ccewwl0R.s:172    .text._stats_stop_measure_crit_thd:00000000 _stats_stop_measure_crit_thd
C:\Users\jo\AppData\Local\Temp\ccewwl0R.s:186    .text._stats_stop_measure_crit_thd:00000008 $d
C:\Users\jo\AppData\Local\Temp\ccewwl0R.s:191    .text._stats_start_measure_crit_isr:00000000 $t
C:\Users\jo\AppData\Local\Temp\ccewwl0R.s:197    .text._stats_start_measure_crit_isr:00000000 _stats_start_measure_crit_isr
C:\Users\jo\AppData\Local\Temp\ccewwl0R.s:211    .text._stats_start_measure_crit_isr:00000008 $d
C:\Users\jo\AppData\Local\Temp\ccewwl0R.s:216    .text._stats_stop_measure_crit_isr:00000000 $t
C:\Users\jo\AppData\Local\Temp\ccewwl0R.s:222    .text._stats_stop_measure_crit_isr:00000000 _stats_stop_measure_crit_isr
C:\Users\jo\AppData\Local\Temp\ccewwl0R.s:236    .text._stats_stop_measure_crit_isr:00000008 $d
                     .debug_frame:00000010 $d
C:\Users\jo\AppData\Local\Temp\ccewwl0R.s:65     .text._stats_init:00000028 $t
C:\Users\jo\AppData\Local\Temp\ccewwl0R.s:92     .text._stats_increase_irq:00000014 $t
C:\Users\jo\AppData\Local\Temp\ccewwl0R.s:140    .text._stats_ctxswc:00000024 $t
C:\Users\jo\AppData\Local\Temp\ccewwl0R.s:165    .text._stats_start_measure_crit_thd:0000000c $t
C:\Users\jo\AppData\Local\Temp\ccewwl0R.s:190    .text._stats_stop_measure_crit_thd:0000000c $t
C:\Users\jo\AppData\Local\Temp\ccewwl0R.s:215    .text._stats_start_measure_crit_isr:0000000c $t
C:\Users\jo\AppData\Local\Temp\ccewwl0R.s:240    .text._stats_stop_measure_crit_isr:0000000c $t

UNDEFINED SYMBOLS
chTMObjectInit
ch
chTMChainMeasurementToX
chTMStartMeasurementX
chTMStopMeasurementX
