ARM GAS  C:\Users\jo\AppData\Local\Temp\ccewwl0R.s 			page 1


   1              		.syntax unified
   2              		.cpu cortex-m4
   3              		.fpu softvfp
   4              		.eabi_attribute 20, 1
   5              		.eabi_attribute 21, 1
   6              		.eabi_attribute 23, 3
   7              		.eabi_attribute 24, 1
   8              		.eabi_attribute 25, 1
   9              		.eabi_attribute 26, 1
  10              		.eabi_attribute 30, 2
  11              		.eabi_attribute 34, 1
  12              		.eabi_attribute 18, 4
  13              		.thumb
  14              		.file	"chstats.c"
  15              		.text
  16              	.Ltext0:
  17              		.cfi_sections	.debug_frame
  18              		.section	.text._stats_init,"ax",%progbits
  19              		.align	2
  20              		.p2align 4,,15
  21              		.global	_stats_init
  22              		.thumb
  23              		.thumb_func
  24              		.type	_stats_init, %function
  25              	_stats_init:
  26              	.LFB226:
  27              		.file 1 "../../../os/rt/src/chstats.c"
  28              		.loc 1 62 0
  29              		.cfi_startproc
  30              		@ args = 0, pretend = 0, frame = 0
  31              		@ frame_needed = 0, uses_anonymous_args = 0
  32 0000 10B5     		push	{r4, lr}
  33              		.cfi_def_cfa_offset 8
  34              		.cfi_offset 4, -8
  35              		.cfi_offset 14, -4
  36              		.loc 1 64 0
  37 0002 084C     		ldr	r4, .L3
  38 0004 0023     		movs	r3, #0
  39              		.loc 1 66 0
  40 0006 04F59660 		add	r0, r4, #1200
  41              		.loc 1 64 0
  42 000a C4F8A834 		str	r3, [r4, #1192]
  43              		.loc 1 65 0
  44 000e C4F8AC34 		str	r3, [r4, #1196]
  45              		.loc 1 66 0
  46 0012 FFF7FEFF 		bl	chTMObjectInit
  47              	.LVL0:
  48              		.loc 1 67 0
  49 0016 04F59960 		add	r0, r4, #1224
  50              		.loc 1 68 0
  51 001a BDE81040 		pop	{r4, lr}
  52              		.cfi_restore 14
  53              		.cfi_restore 4
  54              		.cfi_def_cfa_offset 0
  55              		.loc 1 67 0
  56 001e FFF7FEBF 		b	chTMObjectInit
  57              	.LVL1:
ARM GAS  C:\Users\jo\AppData\Local\Temp\ccewwl0R.s 			page 2


  58              	.L4:
  59 0022 00BF     		.align	2
  60              	.L3:
  61 0024 00000000 		.word	ch
  62              		.cfi_endproc
  63              	.LFE226:
  64              		.size	_stats_init, .-_stats_init
  65 0028 AFF30080 		.section	.text._stats_increase_irq,"ax",%progbits
  65      AFF30080 
  66              		.align	2
  67              		.p2align 4,,15
  68              		.global	_stats_increase_irq
  69              		.thumb
  70              		.thumb_func
  71              		.type	_stats_increase_irq, %function
  72              	_stats_increase_irq:
  73              	.LFB227:
  74              		.loc 1 73 0
  75              		.cfi_startproc
  76              		@ args = 0, pretend = 0, frame = 0
  77              		@ frame_needed = 0, uses_anonymous_args = 0
  78              		@ link register save eliminated.
  79              		.loc 1 75 0
  80 0000 034A     		ldr	r2, .L6
  81 0002 D2F8A834 		ldr	r3, [r2, #1192]
  82 0006 0133     		adds	r3, r3, #1
  83 0008 C2F8A834 		str	r3, [r2, #1192]
  84 000c 7047     		bx	lr
  85              	.L7:
  86 000e 00BF     		.align	2
  87              	.L6:
  88 0010 00000000 		.word	ch
  89              		.cfi_endproc
  90              	.LFE227:
  91              		.size	_stats_increase_irq, .-_stats_increase_irq
  92 0014 AFF30080 		.section	.text._stats_ctxswc,"ax",%progbits
  92      AFF30080 
  92      AFF30080 
  93              		.align	2
  94              		.p2align 4,,15
  95              		.global	_stats_ctxswc
  96              		.thumb
  97              		.thumb_func
  98              		.type	_stats_ctxswc, %function
  99              	_stats_ctxswc:
 100              	.LFB228:
 101              		.loc 1 84 0
 102              		.cfi_startproc
 103              		@ args = 0, pretend = 0, frame = 0
 104              		@ frame_needed = 0, uses_anonymous_args = 0
 105              		@ link register save eliminated.
 106              	.LVL2:
 107              		.loc 1 86 0
 108 0000 074A     		ldr	r2, .L10
 109 0002 D2F8AC34 		ldr	r3, [r2, #1196]
 110              		.loc 1 84 0
 111 0006 10B4     		push	{r4}
ARM GAS  C:\Users\jo\AppData\Local\Temp\ccewwl0R.s 			page 3


 112              		.cfi_def_cfa_offset 4
 113              		.cfi_offset 4, -4
 114              		.loc 1 87 0
 115 0008 00F14804 		add	r4, r0, #72
 116              		.loc 1 86 0
 117 000c 0133     		adds	r3, r3, #1
 118              		.loc 1 87 0
 119 000e 01F14800 		add	r0, r1, #72
 120              	.LVL3:
 121 0012 2146     		mov	r1, r4
 122              	.LVL4:
 123              		.loc 1 88 0
 124 0014 5DF8044B 		ldr	r4, [sp], #4
 125              		.cfi_restore 4
 126              		.cfi_def_cfa_offset 0
 127              	.LVL5:
 128              		.loc 1 86 0
 129 0018 C2F8AC34 		str	r3, [r2, #1196]
 130              		.loc 1 87 0
 131 001c FFF7FEBF 		b	chTMChainMeasurementToX
 132              	.LVL6:
 133              	.L11:
 134              		.align	2
 135              	.L10:
 136 0020 00000000 		.word	ch
 137              		.cfi_endproc
 138              	.LFE228:
 139              		.size	_stats_ctxswc, .-_stats_ctxswc
 140 0024 AFF30080 		.section	.text._stats_start_measure_crit_thd,"ax",%progbits
 140      AFF30080 
 140      AFF30080 
 141              		.align	2
 142              		.p2align 4,,15
 143              		.global	_stats_start_measure_crit_thd
 144              		.thumb
 145              		.thumb_func
 146              		.type	_stats_start_measure_crit_thd, %function
 147              	_stats_start_measure_crit_thd:
 148              	.LFB229:
 149              		.loc 1 93 0
 150              		.cfi_startproc
 151              		@ args = 0, pretend = 0, frame = 0
 152              		@ frame_needed = 0, uses_anonymous_args = 0
 153              		@ link register save eliminated.
 154              		.loc 1 95 0
 155 0000 0148     		ldr	r0, .L13
 156 0002 FFF7FEBF 		b	chTMStartMeasurementX
 157              	.LVL7:
 158              	.L14:
 159 0006 00BF     		.align	2
 160              	.L13:
 161 0008 B0040000 		.word	ch+1200
 162              		.cfi_endproc
 163              	.LFE229:
 164              		.size	_stats_start_measure_crit_thd, .-_stats_start_measure_crit_thd
 165 000c AFF30080 		.section	.text._stats_stop_measure_crit_thd,"ax",%progbits
 166              		.align	2
ARM GAS  C:\Users\jo\AppData\Local\Temp\ccewwl0R.s 			page 4


 167              		.p2align 4,,15
 168              		.global	_stats_stop_measure_crit_thd
 169              		.thumb
 170              		.thumb_func
 171              		.type	_stats_stop_measure_crit_thd, %function
 172              	_stats_stop_measure_crit_thd:
 173              	.LFB230:
 174              		.loc 1 101 0
 175              		.cfi_startproc
 176              		@ args = 0, pretend = 0, frame = 0
 177              		@ frame_needed = 0, uses_anonymous_args = 0
 178              		@ link register save eliminated.
 179              		.loc 1 103 0
 180 0000 0148     		ldr	r0, .L16
 181 0002 FFF7FEBF 		b	chTMStopMeasurementX
 182              	.LVL8:
 183              	.L17:
 184 0006 00BF     		.align	2
 185              	.L16:
 186 0008 B0040000 		.word	ch+1200
 187              		.cfi_endproc
 188              	.LFE230:
 189              		.size	_stats_stop_measure_crit_thd, .-_stats_stop_measure_crit_thd
 190 000c AFF30080 		.section	.text._stats_start_measure_crit_isr,"ax",%progbits
 191              		.align	2
 192              		.p2align 4,,15
 193              		.global	_stats_start_measure_crit_isr
 194              		.thumb
 195              		.thumb_func
 196              		.type	_stats_start_measure_crit_isr, %function
 197              	_stats_start_measure_crit_isr:
 198              	.LFB231:
 199              		.loc 1 109 0
 200              		.cfi_startproc
 201              		@ args = 0, pretend = 0, frame = 0
 202              		@ frame_needed = 0, uses_anonymous_args = 0
 203              		@ link register save eliminated.
 204              		.loc 1 111 0
 205 0000 0148     		ldr	r0, .L19
 206 0002 FFF7FEBF 		b	chTMStartMeasurementX
 207              	.LVL9:
 208              	.L20:
 209 0006 00BF     		.align	2
 210              	.L19:
 211 0008 C8040000 		.word	ch+1224
 212              		.cfi_endproc
 213              	.LFE231:
 214              		.size	_stats_start_measure_crit_isr, .-_stats_start_measure_crit_isr
 215 000c AFF30080 		.section	.text._stats_stop_measure_crit_isr,"ax",%progbits
 216              		.align	2
 217              		.p2align 4,,15
 218              		.global	_stats_stop_measure_crit_isr
 219              		.thumb
 220              		.thumb_func
 221              		.type	_stats_stop_measure_crit_isr, %function
 222              	_stats_stop_measure_crit_isr:
 223              	.LFB232:
ARM GAS  C:\Users\jo\AppData\Local\Temp\ccewwl0R.s 			page 5


 224              		.loc 1 117 0
 225              		.cfi_startproc
 226              		@ args = 0, pretend = 0, frame = 0
 227              		@ frame_needed = 0, uses_anonymous_args = 0
 228              		@ link register save eliminated.
 229              		.loc 1 119 0
 230 0000 0148     		ldr	r0, .L22
 231 0002 FFF7FEBF 		b	chTMStopMeasurementX
 232              	.LVL10:
 233              	.L23:
 234 0006 00BF     		.align	2
 235              	.L22:
 236 0008 C8040000 		.word	ch+1224
 237              		.cfi_endproc
 238              	.LFE232:
 239              		.size	_stats_stop_measure_crit_isr, .-_stats_stop_measure_crit_isr
 240 000c AFF30080 		.text
 241              	.Letext0:
 242              		.file 2 "c:\\program files\\gnu tools arm embedded\\4.9 2014q4\\arm-none-eabi\\include\\machine\\_
 243              		.file 3 "c:\\program files\\gnu tools arm embedded\\4.9 2014q4\\arm-none-eabi\\include\\stdint.h"
 244              		.file 4 "../../../os/rt/ports/ARMCMx/compilers/GCC/chtypes.h"
 245              		.file 5 "../../../os/rt/include/chsystypes.h"
 246              		.file 6 "../../../os/rt/include/chschd.h"
 247              		.file 7 "../../../os/rt/ports/ARMCMx/chcore.h"
 248              		.file 8 "../../../os/rt/ports/ARMCMx/chcore_v7m.h"
 249              		.file 9 "../../../os/rt/include/chdebug.h"
 250              		.file 10 "../../../os/rt/include/chtm.h"
 251              		.file 11 "../../../os/rt/include/chstats.h"
 252              		.file 12 "../../../os/rt/include/chmtx.h"
 253              		.file 13 "../../../os/ext/CMSIS/include/core_cm4.h"