ARM GAS  C:\Users\jo\AppData\Local\Temp\cchBn17l.s 			page 1


   1              		.syntax unified
   2              		.cpu cortex-m4
   3              		.fpu softvfp
   4              		.eabi_attribute 20, 1
   5              		.eabi_attribute 21, 1
   6              		.eabi_attribute 23, 3
   7              		.eabi_attribute 24, 1
   8              		.eabi_attribute 25, 1
   9              		.eabi_attribute 26, 1
  10              		.eabi_attribute 30, 2
  11              		.eabi_attribute 34, 1
  12              		.eabi_attribute 18, 4
  13              		.thumb
  14              		.file	"chvt.c"
  15              		.text
  16              	.Ltext0:
  17              		.cfi_sections	.debug_frame
  18              		.section	.text._vt_init,"ax",%progbits
  19              		.align	2
  20              		.p2align 4,,15
  21              		.global	_vt_init
  22              		.thumb
  23              		.thumb_func
  24              		.type	_vt_init, %function
  25              	_vt_init:
  26              	.LFB226:
  27              		.file 1 "../../../os/rt/src/chvt.c"
  28              		.loc 1 61 0
  29              		.cfi_startproc
  30              		@ args = 0, pretend = 0, frame = 0
  31              		@ frame_needed = 0, uses_anonymous_args = 0
  32              		@ link register save eliminated.
  33              		.loc 1 63 0
  34 0000 054B     		ldr	r3, .L2
  35              		.loc 1 64 0
  36 0002 4FF0FF30 		mov	r0, #-1
  37              		.loc 1 63 0
  38 0006 03F11C02 		add	r2, r3, #28
  39              		.loc 1 68 0
  40 000a 0021     		movs	r1, #0
  41              		.loc 1 64 0
  42 000c 5862     		str	r0, [r3, #36]
  43              		.loc 1 68 0
  44 000e 9962     		str	r1, [r3, #40]
  45              		.loc 1 63 0
  46 0010 1A62     		str	r2, [r3, #32]
  47 0012 DA61     		str	r2, [r3, #28]
  48 0014 7047     		bx	lr
  49              	.L3:
  50 0016 00BF     		.align	2
  51              	.L2:
  52 0018 00000000 		.word	ch
  53              		.cfi_endproc
  54              	.LFE226:
  55              		.size	_vt_init, .-_vt_init
  56 001c AFF30080 		.section	.text.chVTDoSetI,"ax",%progbits
  57              		.align	2
ARM GAS  C:\Users\jo\AppData\Local\Temp\cchBn17l.s 			page 2


  58              		.p2align 4,,15
  59              		.global	chVTDoSetI
  60              		.thumb
  61              		.thumb_func
  62              		.type	chVTDoSetI, %function
  63              	chVTDoSetI:
  64              	.LFB227:
  65              		.loc 1 95 0
  66              		.cfi_startproc
  67              		@ args = 0, pretend = 0, frame = 0
  68              		@ frame_needed = 0, uses_anonymous_args = 0
  69              	.LVL0:
  70 0000 2DE9F041 		push	{r4, r5, r6, r7, r8, lr}
  71              		.cfi_def_cfa_offset 24
  72              		.cfi_offset 4, -24
  73              		.cfi_offset 5, -20
  74              		.cfi_offset 6, -16
  75              		.cfi_offset 7, -12
  76              		.cfi_offset 8, -8
  77              		.cfi_offset 14, -4
  78              		.loc 1 95 0
  79 0004 0646     		mov	r6, r0
  80 0006 0C46     		mov	r4, r1
  81 0008 9046     		mov	r8, r2
  82 000a 1D46     		mov	r5, r3
  83              		.loc 1 98 0
  84 000c FFF7FEFF 		bl	chDbgCheckClassI
  85              	.LVL1:
  86              		.loc 1 99 0
  87 0010 66B3     		cbz	r6, .L5
  88              		.loc 1 99 0 is_stmt 0 discriminator 2
  89 0012 B8F1000F 		cmp	r8, #0
  90 0016 29D0     		beq	.L5
  91              		.loc 1 99 0 discriminator 4
  92 0018 44B3     		cbz	r4, .L5
  93              	.L6:
  94              		.loc 1 103 0 is_stmt 1
  95 001a 1C4F     		ldr	r7, .L25
  96              		.loc 1 101 0
  97 001c 3561     		str	r5, [r6, #16]
  98              		.loc 1 103 0
  99 001e 3B46     		mov	r3, r7
 100              	.LBB19:
 101              		.loc 1 112 0
 102 0020 012C     		cmp	r4, #1
 103              	.LBE19:
 104              		.loc 1 103 0
 105 0022 53F81C5F 		ldr	r5, [r3, #28]!
 106              	.LVL2:
 107              		.loc 1 102 0
 108 0026 C6F80C80 		str	r8, [r6, #12]
 109              	.LBB32:
 110              	.LBB20:
 111              	.LBB21:
 112              	.LBB22:
 113              		.file 2 "../../../os/hal/ports/STM32/LLD/TIMv1/st_lld.h"
 114              		.loc 2 128 0
ARM GAS  C:\Users\jo\AppData\Local\Temp\cchBn17l.s 			page 3


 115 002a 4FF08042 		mov	r2, #1073741824
 116              	.LBE22:
 117              	.LBE21:
 118              	.LBE20:
 119              		.loc 1 112 0
 120 002e 98BF     		it	ls
 121 0030 0224     		movls	r4, #2
 122              	.LVL3:
 123              		.loc 1 115 0
 124 0032 9D42     		cmp	r5, r3
 125              	.LBB25:
 126              	.LBB24:
 127              	.LBB23:
 128              		.loc 2 128 0
 129 0034 526A     		ldr	r2, [r2, #36]
 130              	.LVL4:
 131              	.LBE23:
 132              	.LBE24:
 133              	.LBE25:
 134              		.loc 1 115 0
 135 0036 22D0     		beq	.L23
 136              		.loc 1 124 0
 137 0038 B86A     		ldr	r0, [r7, #40]
 138              		.loc 1 128 0
 139 003a AB68     		ldr	r3, [r5, #8]
 140              		.loc 1 124 0
 141 003c 121A     		subs	r2, r2, r0
 142 003e 1444     		add	r4, r4, r2
 143              	.LVL5:
 144              		.loc 1 128 0
 145 0040 9C42     		cmp	r4, r3
 146 0042 03D2     		bcs	.L21
 147 0044 16E0     		b	.L24
 148              	.LVL6:
 149              	.L12:
 150              	.LBE32:
 151              		.loc 1 139 0
 152 0046 2D68     		ldr	r5, [r5]
 153              	.LVL7:
 154              		.loc 1 138 0
 155 0048 E41A     		subs	r4, r4, r3
 156              	.LVL8:
 157              		.loc 1 137 0
 158 004a AB68     		ldr	r3, [r5, #8]
 159              	.L21:
 160 004c A342     		cmp	r3, r4
 161 004e FAD3     		bcc	.L12
 162              		.loc 1 143 0
 163 0050 6B68     		ldr	r3, [r5, #4]
 164 0052 7360     		str	r3, [r6, #4]
 165 0054 3560     		str	r5, [r6]
 166              		.loc 1 144 0
 167 0056 6E60     		str	r6, [r5, #4]
 168 0058 1E60     		str	r6, [r3]
 169              		.loc 1 145 0
 170 005a B460     		str	r4, [r6, #8]
 171              		.loc 1 149 0
ARM GAS  C:\Users\jo\AppData\Local\Temp\cchBn17l.s 			page 4


 172 005c A968     		ldr	r1, [r5, #8]
 173              		.loc 1 150 0
 174 005e 4FF0FF33 		mov	r3, #-1
 175              		.loc 1 149 0
 176 0062 091B     		subs	r1, r1, r4
 177 0064 A960     		str	r1, [r5, #8]
 178              		.loc 1 150 0
 179 0066 7B62     		str	r3, [r7, #36]
 180 0068 BDE8F081 		pop	{r4, r5, r6, r7, r8, pc}
 181              	.LVL9:
 182              	.L5:
 183              		.loc 1 99 0 discriminator 5
 184 006c 0848     		ldr	r0, .L25+4
 185 006e FFF7FEFF 		bl	chSysHalt
 186              	.LVL10:
 187 0072 D2E7     		b	.L6
 188              	.LVL11:
 189              	.L24:
 190              	.LBB33:
 191              	.LBB26:
 192              	.LBB27:
 193              		.file 3 "../../../os/rt/ports/ARMCMx/chcore_timer.h"
 194              		.loc 3 95 0
 195 0074 2044     		add	r0, r0, r4
 196              	.LVL12:
 197 0076 FFF7FEFF 		bl	stSetAlarm
 198              	.LVL13:
 199 007a AB68     		ldr	r3, [r5, #8]
 200 007c E6E7     		b	.L21
 201              	.LVL14:
 202              	.L23:
 203              	.LBE27:
 204              	.LBE26:
 205              	.LBB28:
 206              	.LBB29:
 207              		.loc 3 73 0
 208 007e A018     		adds	r0, r4, r2
 209              	.LBE29:
 210              	.LBE28:
 211              		.loc 1 118 0
 212 0080 BA62     		str	r2, [r7, #40]
 213              	.LVL15:
 214              	.LBB31:
 215              	.LBB30:
 216              		.loc 3 73 0
 217 0082 FFF7FEFF 		bl	stStartAlarm
 218              	.LVL16:
 219 0086 7B6A     		ldr	r3, [r7, #36]
 220 0088 E0E7     		b	.L21
 221              	.L26:
 222 008a 00BF     		.align	2
 223              	.L25:
 224 008c 00000000 		.word	ch
 225 0090 00000000 		.word	.LANCHOR0
 226              	.LBE30:
 227              	.LBE31:
 228              	.LBE33:
ARM GAS  C:\Users\jo\AppData\Local\Temp\cchBn17l.s 			page 5


 229              		.cfi_endproc
 230              	.LFE227:
 231              		.size	chVTDoSetI, .-chVTDoSetI
 232 0094 AFF30080 		.section	.text.chVTDoResetI,"ax",%progbits
 232      AFF30080 
 232      AFF30080 
 233              		.align	2
 234              		.p2align 4,,15
 235              		.global	chVTDoResetI
 236              		.thumb
 237              		.thumb_func
 238              		.type	chVTDoResetI, %function
 239              	chVTDoResetI:
 240              	.LFB228:
 241              		.loc 1 161 0
 242              		.cfi_startproc
 243              		@ args = 0, pretend = 0, frame = 0
 244              		@ frame_needed = 0, uses_anonymous_args = 0
 245              	.LVL17:
 246 0000 38B5     		push	{r3, r4, r5, lr}
 247              		.cfi_def_cfa_offset 16
 248              		.cfi_offset 3, -16
 249              		.cfi_offset 4, -12
 250              		.cfi_offset 5, -8
 251              		.cfi_offset 14, -4
 252              		.loc 1 161 0
 253 0002 0446     		mov	r4, r0
 254              		.loc 1 163 0
 255 0004 FFF7FEFF 		bl	chDbgCheckClassI
 256              	.LVL18:
 257              		.loc 1 164 0
 258 0008 64B3     		cbz	r4, .L33
 259              	.L28:
 260              		.loc 1 165 0
 261 000a E368     		ldr	r3, [r4, #12]
 262 000c 13B3     		cbz	r3, .L34
 263              	.L29:
 264              		.loc 1 168 0
 265 000e 2268     		ldr	r2, [r4]
 266 0010 A368     		ldr	r3, [r4, #8]
 267 0012 9168     		ldr	r1, [r2, #8]
 268              		.loc 1 175 0
 269 0014 174D     		ldr	r5, .L36
 270              		.loc 1 169 0
 271 0016 6068     		ldr	r0, [r4, #4]
 272              		.loc 1 168 0
 273 0018 1944     		add	r1, r1, r3
 274              		.loc 1 179 0
 275 001a 2B46     		mov	r3, r5
 276              		.loc 1 168 0
 277 001c 9160     		str	r1, [r2, #8]
 278              		.loc 1 169 0
 279 001e 0260     		str	r2, [r0]
 280              		.loc 1 170 0
 281 0020 2168     		ldr	r1, [r4]
 282              		.loc 1 179 0
 283 0022 53F81C2F 		ldr	r2, [r3, #28]!
ARM GAS  C:\Users\jo\AppData\Local\Temp\cchBn17l.s 			page 6


 284              		.loc 1 170 0
 285 0026 4860     		str	r0, [r1, #4]
 286              		.loc 1 179 0
 287 0028 9A42     		cmp	r2, r3
 288              		.loc 1 171 0
 289 002a 4FF00000 		mov	r0, #0
 290              		.loc 1 175 0
 291 002e 4FF0FF31 		mov	r1, #-1
 292              		.loc 1 171 0
 293 0032 E060     		str	r0, [r4, #12]
 294              		.loc 1 175 0
 295 0034 6962     		str	r1, [r5, #36]
 296              		.loc 1 179 0
 297 0036 19D0     		beq	.L35
 298              		.loc 1 186 0
 299 0038 9368     		ldr	r3, [r2, #8]
 300              		.loc 1 187 0
 301 003a A86A     		ldr	r0, [r5, #40]
 302              		.loc 1 186 0
 303 003c 012B     		cmp	r3, #1
 304 003e 04D9     		bls	.L31
 305              	.LVL19:
 306              	.LBB34:
 307              	.LBB35:
 308              		.loc 3 95 0
 309 0040 1844     		add	r0, r0, r3
 310              	.LBE35:
 311              	.LBE34:
 312              		.loc 1 197 0
 313 0042 BDE83840 		pop	{r3, r4, r5, lr}
 314              		.cfi_remember_state
 315              		.cfi_restore 14
 316              		.cfi_restore 5
 317              		.cfi_restore 4
 318              		.cfi_restore 3
 319              		.cfi_def_cfa_offset 0
 320              	.LVL20:
 321              	.LBB37:
 322              	.LBB36:
 323              		.loc 3 95 0
 324 0046 FFF7FEBF 		b	stSetAlarm
 325              	.LVL21:
 326              	.L31:
 327              		.cfi_restore_state
 328              	.LBE36:
 329              	.LBE37:
 330              	.LBB38:
 331              	.LBB39:
 332 004a 0230     		adds	r0, r0, #2
 333              	.LBE39:
 334              	.LBE38:
 335              		.loc 1 197 0
 336 004c BDE83840 		pop	{r3, r4, r5, lr}
 337              		.cfi_remember_state
 338              		.cfi_restore 14
 339              		.cfi_restore 5
 340              		.cfi_restore 4
ARM GAS  C:\Users\jo\AppData\Local\Temp\cchBn17l.s 			page 7


 341              		.cfi_restore 3
 342              		.cfi_def_cfa_offset 0
 343              	.LVL22:
 344              	.LBB41:
 345              	.LBB40:
 346              		.loc 3 95 0
 347 0050 FFF7FEBF 		b	stSetAlarm
 348              	.LVL23:
 349              	.L34:
 350              		.cfi_restore_state
 351              	.LBE40:
 352              	.LBE41:
 353              		.loc 1 165 0 discriminator 1
 354 0054 0848     		ldr	r0, .L36+4
 355 0056 FFF7FEFF 		bl	puts
 356              	.LVL24:
 357              	@ 165 "../../../os/rt/src/chvt.c" 1
 358 005a 00BE     		BKPT #0
 359              	
 360              	@ 0 "" 2
 361              		.thumb
 362 005c 0748     		ldr	r0, .L36+8
 363 005e FFF7FEFF 		bl	chSysHalt
 364              	.LVL25:
 365 0062 D4E7     		b	.L29
 366              	.L33:
 367              		.loc 1 164 0 discriminator 1
 368 0064 0548     		ldr	r0, .L36+8
 369 0066 FFF7FEFF 		bl	chSysHalt
 370              	.LVL26:
 371 006a CEE7     		b	.L28
 372              	.L35:
 373              		.loc 1 197 0
 374 006c BDE83840 		pop	{r3, r4, r5, lr}
 375              		.cfi_restore 14
 376              		.cfi_restore 5
 377              		.cfi_restore 4
 378              		.cfi_restore 3
 379              		.cfi_def_cfa_offset 0
 380              	.LVL27:
 381              	.LBB42:
 382              	.LBB43:
 383              		.loc 3 83 0
 384 0070 FFF7FEBF 		b	stStopAlarm
 385              	.LVL28:
 386              	.L37:
 387              		.align	2
 388              	.L36:
 389 0074 00000000 		.word	ch
 390 0078 00000000 		.word	.LC0
 391 007c 00000000 		.word	.LANCHOR1
 392              	.LBE43:
 393              	.LBE42:
 394              		.cfi_endproc
 395              	.LFE228:
 396              		.size	chVTDoResetI, .-chVTDoResetI
 397              		.section	.rodata.__func__.7442,"a",%progbits
ARM GAS  C:\Users\jo\AppData\Local\Temp\cchBn17l.s 			page 8


 398              		.align	2
 399              		.set	.LANCHOR0,. + 0
 400              		.type	__func__.7442, %object
 401              		.size	__func__.7442, 11
 402              	__func__.7442:
 403 0000 63685654 		.ascii	"chVTDoSetI\000"
 403      446F5365 
 403      744900
 404 000b 00       		.section	.rodata.__func__.7450,"a",%progbits
 405              		.align	2
 406              		.set	.LANCHOR1,. + 0
 407              		.type	__func__.7450, %object
 408              		.size	__func__.7450, 13
 409              	__func__.7450:
 410 0000 63685654 		.ascii	"chVTDoResetI\000"
 410      446F5265 
 410      73657449 
 410      00
 411 000d 000000   		.section	.rodata.str1.4,"aMS",%progbits,1
 412              		.align	2
 413              	.LC0:
 414 0000 74696D65 		.ascii	"timer not set or already triggered\000"
 414      72206E6F 
 414      74207365 
 414      74206F72 
 414      20616C72 
 415 0023 00       		.text
 416              	.Letext0:
 417              		.file 4 "c:\\program files\\gnu tools arm embedded\\4.9 2014q4\\arm-none-eabi\\include\\machine\\_
 418              		.file 5 "c:\\program files\\gnu tools arm embedded\\4.9 2014q4\\arm-none-eabi\\include\\stdint.h"
 419              		.file 6 "../../../os/rt/ports/ARMCMx/compilers/GCC/chtypes.h"
 420              		.file 7 "../../../os/rt/include/chsystypes.h"
 421              		.file 8 "../../../os/rt/include/chschd.h"
 422              		.file 9 "../../../os/rt/ports/ARMCMx/chcore.h"
 423              		.file 10 "../../../os/rt/ports/ARMCMx/chcore_v7m.h"
 424              		.file 11 "../../../os/hal/ports/STM32/LLD/TIMv1/stm32_tim.h"
 425              		.file 12 "../../../os/rt/include/chdebug.h"
 426              		.file 13 "../../../os/rt/include/chtm.h"
 427              		.file 14 "../../../os/rt/include/chstats.h"
 428              		.file 15 "../../../os/rt/include/chmtx.h"
 429              		.file 16 "../../../os/hal/include/st.h"
 430              		.file 17 "../../../os/rt/include/chsys.h"
 431              		.file 18 "../../../os/ext/CMSIS/include/core_cm4.h"
 432              		.file 19 "<built-in>"