ARM GAS  C:\Users\jo\AppData\Local\Temp\ccg862Ja.s 			page 1


   1              		.syntax unified
   2              		.cpu cortex-m4
   3              		.fpu softvfp
   4              		.eabi_attribute 20, 1
   5              		.eabi_attribute 21, 1
   6              		.eabi_attribute 23, 3
   7              		.eabi_attribute 24, 1
   8              		.eabi_attribute 25, 1
   9              		.eabi_attribute 26, 1
  10              		.eabi_attribute 30, 2
  11              		.eabi_attribute 34, 1
  12              		.eabi_attribute 18, 4
  13              		.thumb
  14              		.file	"cipher.c"
  15              		.text
  16              	.Ltext0:
  17              		.cfi_sections	.debug_frame
  18              		.section	.text.cipher_list,"ax",%progbits
  19              		.align	2
  20              		.p2align 4,,15
  21              		.global	cipher_list
  22              		.thumb
  23              		.thumb_func
  24              		.type	cipher_list, %function
  25              	cipher_list:
  26              	.LFB7:
  27              		.file 1 "../../../os/ext/PolarSSL/library/cipher.c"
  28              		.loc 1 110 0
  29              		.cfi_startproc
  30              		@ args = 0, pretend = 0, frame = 0
  31              		@ frame_needed = 0, uses_anonymous_args = 0
  32              		@ link register save eliminated.
  33              		.loc 1 112 0
  34 0000 0048     		ldr	r0, .L2
  35 0002 7047     		bx	lr
  36              	.L3:
  37              		.align	2
  38              	.L2:
  39 0004 00000000 		.word	.LANCHOR0
  40              		.cfi_endproc
  41              	.LFE7:
  42              		.size	cipher_list, .-cipher_list
  43 0008 AFF30080 		.section	.text.cipher_info_from_type,"ax",%progbits
  43      AFF30080 
  44              		.align	2
  45              		.p2align 4,,15
  46              		.global	cipher_info_from_type
  47              		.thumb
  48              		.thumb_func
  49              		.type	cipher_info_from_type, %function
  50              	cipher_info_from_type:
  51              	.LFB8:
  52              		.loc 1 115 0
  53              		.cfi_startproc
  54              		@ args = 0, pretend = 0, frame = 0
  55              		@ frame_needed = 0, uses_anonymous_args = 0
  56              		@ link register save eliminated.
ARM GAS  C:\Users\jo\AppData\Local\Temp\ccg862Ja.s 			page 2


  57              	.LVL0:
  58 0000 0238     		subs	r0, r0, #2
  59              	.LVL1:
  60 0002 C0B2     		uxtb	r0, r0
  61 0004 1728     		cmp	r0, #23
  62 0006 9ABF     		itte	ls
  63 0008 024B     		ldrls	r3, .L7
  64 000a 53F82000 		ldrls	r0, [r3, r0, lsl #2]
  65              		.loc 1 115 0
  66 000e 0020     		movhi	r0, #0
  67              		.loc 1 208 0
  68 0010 7047     		bx	lr
  69              	.L8:
  70 0012 00BF     		.align	2
  71              	.L7:
  72 0014 00000000 		.word	.LANCHOR1
  73              		.cfi_endproc
  74              	.LFE8:
  75              		.size	cipher_info_from_type, .-cipher_info_from_type
  76 0018 AFF30080 		.section	.text.cipher_info_from_string,"ax",%progbits
  76      AFF30080 
  77              		.align	2
  78              		.p2align 4,,15
  79              		.global	cipher_info_from_string
  80              		.thumb
  81              		.thumb_func
  82              		.type	cipher_info_from_string, %function
  83              	cipher_info_from_string:
  84              	.LFB9:
  85              		.loc 1 211 0
  86              		.cfi_startproc
  87              		@ args = 0, pretend = 0, frame = 0
  88              		@ frame_needed = 0, uses_anonymous_args = 0
  89              	.LVL2:
  90              		.loc 1 212 0
  91 0000 0028     		cmp	r0, #0
  92 0002 00F0A780 		beq	.L37
  93              		.loc 1 211 0
  94 0006 10B5     		push	{r4, lr}
  95              		.cfi_def_cfa_offset 8
  96              		.cfi_offset 4, -8
  97              		.cfi_offset 14, -4
  98 0008 0446     		mov	r4, r0
  99              		.loc 1 217 0
 100 000a 2146     		mov	r1, r4
 101 000c 6248     		ldr	r0, .L39
 102              	.LVL3:
 103 000e FFF7FEFF 		bl	strcasecmp
 104              	.LVL4:
 105 0012 0028     		cmp	r0, #0
 106 0014 00F09280 		beq	.L12
 107              		.loc 1 219 0
 108 0018 6048     		ldr	r0, .L39+4
 109 001a 2146     		mov	r1, r4
 110 001c FFF7FEFF 		bl	strcasecmp
 111              	.LVL5:
 112 0020 0028     		cmp	r0, #0
ARM GAS  C:\Users\jo\AppData\Local\Temp\ccg862Ja.s 			page 3


 113 0022 00F08980 		beq	.L13
 114              		.loc 1 221 0
 115 0026 5E48     		ldr	r0, .L39+8
 116 0028 2146     		mov	r1, r4
 117 002a FFF7FEFF 		bl	strcasecmp
 118              	.LVL6:
 119 002e 0028     		cmp	r0, #0
 120 0030 00F08880 		beq	.L14
 121              		.loc 1 225 0
 122 0034 5B48     		ldr	r0, .L39+12
 123 0036 2146     		mov	r1, r4
 124 0038 FFF7FEFF 		bl	strcasecmp
 125              	.LVL7:
 126 003c 0028     		cmp	r0, #0
 127 003e 7FD0     		beq	.L15
 128              		.loc 1 227 0
 129 0040 5948     		ldr	r0, .L39+16
 130 0042 2146     		mov	r1, r4
 131 0044 FFF7FEFF 		bl	strcasecmp
 132              	.LVL8:
 133 0048 0028     		cmp	r0, #0
 134 004a 7DD0     		beq	.L16
 135              		.loc 1 229 0
 136 004c 5748     		ldr	r0, .L39+20
 137 004e 2146     		mov	r1, r4
 138 0050 FFF7FEFF 		bl	strcasecmp
 139              	.LVL9:
 140 0054 0028     		cmp	r0, #0
 141 0056 7BD0     		beq	.L17
 142              		.loc 1 234 0
 143 0058 5548     		ldr	r0, .L39+24
 144 005a 2146     		mov	r1, r4
 145 005c FFF7FEFF 		bl	strcasecmp
 146              	.LVL10:
 147 0060 0028     		cmp	r0, #0
 148 0062 73D0     		beq	.L18
 149              		.loc 1 236 0
 150 0064 5348     		ldr	r0, .L39+28
 151 0066 2146     		mov	r1, r4
 152 0068 FFF7FEFF 		bl	strcasecmp
 153              	.LVL11:
 154 006c 0028     		cmp	r0, #0
 155 006e 72D0     		beq	.L19
 156              		.loc 1 238 0
 157 0070 5148     		ldr	r0, .L39+32
 158 0072 2146     		mov	r1, r4
 159 0074 FFF7FEFF 		bl	strcasecmp
 160              	.LVL12:
 161 0078 0028     		cmp	r0, #0
 162 007a 6ED0     		beq	.L20
 163              		.loc 1 244 0
 164 007c 4F48     		ldr	r0, .L39+36
 165 007e 2146     		mov	r1, r4
 166 0080 FFF7FEFF 		bl	strcasecmp
 167              	.LVL13:
 168 0084 0028     		cmp	r0, #0
 169 0086 6AD0     		beq	.L21
ARM GAS  C:\Users\jo\AppData\Local\Temp\ccg862Ja.s 			page 4


 170              		.loc 1 246 0
 171 0088 4D48     		ldr	r0, .L39+40
 172 008a 2146     		mov	r1, r4
 173 008c FFF7FEFF 		bl	strcasecmp
 174              	.LVL14:
 175 0090 0028     		cmp	r0, #0
 176 0092 66D0     		beq	.L22
 177              		.loc 1 248 0
 178 0094 4B48     		ldr	r0, .L39+44
 179 0096 2146     		mov	r1, r4
 180 0098 FFF7FEFF 		bl	strcasecmp
 181              	.LVL15:
 182 009c 0028     		cmp	r0, #0
 183 009e 62D0     		beq	.L23
 184              		.loc 1 252 0
 185 00a0 4948     		ldr	r0, .L39+48
 186 00a2 2146     		mov	r1, r4
 187 00a4 FFF7FEFF 		bl	strcasecmp
 188              	.LVL16:
 189 00a8 0028     		cmp	r0, #0
 190 00aa 5ED0     		beq	.L24
 191              		.loc 1 254 0
 192 00ac 4748     		ldr	r0, .L39+52
 193 00ae 2146     		mov	r1, r4
 194 00b0 FFF7FEFF 		bl	strcasecmp
 195              	.LVL17:
 196 00b4 0028     		cmp	r0, #0
 197 00b6 5AD0     		beq	.L25
 198              		.loc 1 256 0
 199 00b8 4548     		ldr	r0, .L39+56
 200 00ba 2146     		mov	r1, r4
 201 00bc FFF7FEFF 		bl	strcasecmp
 202              	.LVL18:
 203 00c0 0028     		cmp	r0, #0
 204 00c2 56D0     		beq	.L26
 205              		.loc 1 261 0
 206 00c4 4348     		ldr	r0, .L39+60
 207 00c6 2146     		mov	r1, r4
 208 00c8 FFF7FEFF 		bl	strcasecmp
 209              	.LVL19:
 210 00cc 0028     		cmp	r0, #0
 211 00ce 54D0     		beq	.L27
 212              		.loc 1 263 0
 213 00d0 4148     		ldr	r0, .L39+64
 214 00d2 2146     		mov	r1, r4
 215 00d4 FFF7FEFF 		bl	strcasecmp
 216              	.LVL20:
 217 00d8 0028     		cmp	r0, #0
 218 00da 4CD0     		beq	.L28
 219              		.loc 1 265 0
 220 00dc 3F48     		ldr	r0, .L39+68
 221 00de 2146     		mov	r1, r4
 222 00e0 FFF7FEFF 		bl	strcasecmp
 223              	.LVL21:
 224 00e4 0028     		cmp	r0, #0
 225 00e6 4AD0     		beq	.L29
 226              		.loc 1 271 0
ARM GAS  C:\Users\jo\AppData\Local\Temp\ccg862Ja.s 			page 5


 227 00e8 3D48     		ldr	r0, .L39+72
 228 00ea 2146     		mov	r1, r4
 229 00ec FFF7FEFF 		bl	strcasecmp
 230              	.LVL22:
 231 00f0 0028     		cmp	r0, #0
 232 00f2 46D0     		beq	.L30
 233              		.loc 1 273 0
 234 00f4 3B48     		ldr	r0, .L39+76
 235 00f6 2146     		mov	r1, r4
 236 00f8 FFF7FEFF 		bl	strcasecmp
 237              	.LVL23:
 238 00fc 0028     		cmp	r0, #0
 239 00fe 48D0     		beq	.L31
 240              		.loc 1 275 0
 241 0100 3948     		ldr	r0, .L39+80
 242 0102 2146     		mov	r1, r4
 243 0104 FFF7FEFF 		bl	strcasecmp
 244              	.LVL24:
 245 0108 0028     		cmp	r0, #0
 246 010a 40D0     		beq	.L32
 247              		.loc 1 280 0
 248 010c 3748     		ldr	r0, .L39+84
 249 010e 2146     		mov	r1, r4
 250 0110 FFF7FEFF 		bl	strcasecmp
 251              	.LVL25:
 252 0114 0028     		cmp	r0, #0
 253 0116 38D0     		beq	.L33
 254              		.loc 1 284 0
 255 0118 3548     		ldr	r0, .L39+88
 256 011a 2146     		mov	r1, r4
 257 011c FFF7FEFF 		bl	strcasecmp
 258              	.LVL26:
 259 0120 0028     		cmp	r0, #0
 260 0122 30D0     		beq	.L34
 261              		.loc 1 289 0
 262 0124 2146     		mov	r1, r4
 263 0126 3348     		ldr	r0, .L39+92
 264 0128 FFF7FEFF 		bl	strcasecmp
 265              	.LVL27:
 266              		.loc 1 299 0
 267 012c 324B     		ldr	r3, .L39+96
 268              		.loc 1 289 0
 269 012e 0028     		cmp	r0, #0
 270              		.loc 1 299 0
 271 0130 0CBF     		ite	eq
 272 0132 1846     		moveq	r0, r3
 273 0134 0020     		movne	r0, #0
 274 0136 10BD     		pop	{r4, pc}
 275              	.LVL28:
 276              	.L13:
 277              		.loc 1 220 0
 278 0138 3048     		ldr	r0, .L39+100
 279 013a 10BD     		pop	{r4, pc}
 280              	.LVL29:
 281              	.L12:
 282              		.loc 1 218 0
 283 013c 3048     		ldr	r0, .L39+104
ARM GAS  C:\Users\jo\AppData\Local\Temp\ccg862Ja.s 			page 6


 284 013e 10BD     		pop	{r4, pc}
 285              	.LVL30:
 286              	.L15:
 287              		.loc 1 226 0
 288 0140 3048     		ldr	r0, .L39+108
 289 0142 10BD     		pop	{r4, pc}
 290              	.LVL31:
 291              	.L14:
 292              		.loc 1 222 0
 293 0144 3048     		ldr	r0, .L39+112
 294 0146 10BD     		pop	{r4, pc}
 295              	.LVL32:
 296              	.L16:
 297              		.loc 1 228 0
 298 0148 3048     		ldr	r0, .L39+116
 299 014a 10BD     		pop	{r4, pc}
 300              	.LVL33:
 301              	.L18:
 302              		.loc 1 235 0
 303 014c 3048     		ldr	r0, .L39+120
 304 014e 10BD     		pop	{r4, pc}
 305              	.LVL34:
 306              	.L17:
 307              		.loc 1 230 0
 308 0150 3048     		ldr	r0, .L39+124
 309 0152 10BD     		pop	{r4, pc}
 310              	.LVL35:
 311              	.L37:
 312              		.cfi_def_cfa_offset 0
 313              		.cfi_restore 4
 314              		.cfi_restore 14
 315              		.loc 1 300 0
 316 0154 7047     		bx	lr
 317              	.LVL36:
 318              	.L19:
 319              		.cfi_def_cfa_offset 8
 320              		.cfi_offset 4, -8
 321              		.cfi_offset 14, -4
 322              		.loc 1 237 0
 323 0156 3048     		ldr	r0, .L39+128
 324 0158 10BD     		pop	{r4, pc}
 325              	.LVL37:
 326              	.L20:
 327              		.loc 1 239 0
 328 015a 3048     		ldr	r0, .L39+132
 329 015c 10BD     		pop	{r4, pc}
 330              	.LVL38:
 331              	.L21:
 332              		.loc 1 245 0
 333 015e 3048     		ldr	r0, .L39+136
 334 0160 10BD     		pop	{r4, pc}
 335              	.LVL39:
 336              	.L22:
 337              		.loc 1 247 0
 338 0162 3048     		ldr	r0, .L39+140
 339 0164 10BD     		pop	{r4, pc}
 340              	.LVL40:
ARM GAS  C:\Users\jo\AppData\Local\Temp\ccg862Ja.s 			page 7


 341              	.L23:
 342              		.loc 1 249 0
 343 0166 3048     		ldr	r0, .L39+144
 344 0168 10BD     		pop	{r4, pc}
 345              	.LVL41:
 346              	.L24:
 347              		.loc 1 253 0
 348 016a 3048     		ldr	r0, .L39+148
 349 016c 10BD     		pop	{r4, pc}
 350              	.LVL42:
 351              	.L25:
 352              		.loc 1 255 0
 353 016e 3048     		ldr	r0, .L39+152
 354 0170 10BD     		pop	{r4, pc}
 355              	.LVL43:
 356              	.L26:
 357              		.loc 1 257 0
 358 0172 3048     		ldr	r0, .L39+156
 359 0174 10BD     		pop	{r4, pc}
 360              	.LVL44:
 361              	.L28:
 362              		.loc 1 264 0
 363 0176 3048     		ldr	r0, .L39+160
 364 0178 10BD     		pop	{r4, pc}
 365              	.LVL45:
 366              	.L27:
 367              		.loc 1 262 0
 368 017a 3048     		ldr	r0, .L39+164
 369 017c 10BD     		pop	{r4, pc}
 370              	.LVL46:
 371              	.L29:
 372              		.loc 1 266 0
 373 017e 3048     		ldr	r0, .L39+168
 374 0180 10BD     		pop	{r4, pc}
 375              	.LVL47:
 376              	.L30:
 377              		.loc 1 272 0
 378 0182 3048     		ldr	r0, .L39+172
 379 0184 10BD     		pop	{r4, pc}
 380              	.LVL48:
 381              	.L34:
 382              		.loc 1 285 0
 383 0186 3048     		ldr	r0, .L39+176
 384              		.loc 1 300 0
 385 0188 10BD     		pop	{r4, pc}
 386              	.LVL49:
 387              	.L33:
 388              		.loc 1 281 0
 389 018a 3048     		ldr	r0, .L39+180
 390 018c 10BD     		pop	{r4, pc}
 391              	.LVL50:
 392              	.L32:
 393              		.loc 1 276 0
 394 018e 3048     		ldr	r0, .L39+184
 395 0190 10BD     		pop	{r4, pc}
 396              	.LVL51:
 397              	.L31:
ARM GAS  C:\Users\jo\AppData\Local\Temp\ccg862Ja.s 			page 8


 398              		.loc 1 274 0
 399 0192 3048     		ldr	r0, .L39+188
 400 0194 10BD     		pop	{r4, pc}
 401              	.LVL52:
 402              	.L40:
 403 0196 00BF     		.align	2
 404              	.L39:
 405 0198 00000000 		.word	.LC0
 406 019c 14000000 		.word	.LC1
 407 01a0 28000000 		.word	.LC2
 408 01a4 3C000000 		.word	.LC3
 409 01a8 50000000 		.word	.LC4
 410 01ac 64000000 		.word	.LC5
 411 01b0 78000000 		.word	.LC6
 412 01b4 8C000000 		.word	.LC7
 413 01b8 A0000000 		.word	.LC8
 414 01bc B4000000 		.word	.LC9
 415 01c0 C0000000 		.word	.LC10
 416 01c4 CC000000 		.word	.LC11
 417 01c8 D8000000 		.word	.LC12
 418 01cc E8000000 		.word	.LC13
 419 01d0 F8000000 		.word	.LC14
 420 01d4 08010000 		.word	.LC15
 421 01d8 14010000 		.word	.LC16
 422 01dc 20010000 		.word	.LC17
 423 01e0 2C010000 		.word	.LC18
 424 01e4 34010000 		.word	.LC19
 425 01e8 40010000 		.word	.LC20
 426 01ec 50010000 		.word	.LC21
 427 01f0 60010000 		.word	.LC22
 428 01f4 70010000 		.word	.LC23
 429 01f8 00000000 		.word	blowfish_ctr_info
 430 01fc 00000000 		.word	camellia_192_cbc_info
 431 0200 00000000 		.word	camellia_128_cbc_info
 432 0204 00000000 		.word	camellia_128_cfb128_info
 433 0208 00000000 		.word	camellia_256_cbc_info
 434 020c 00000000 		.word	camellia_192_cfb128_info
 435 0210 00000000 		.word	camellia_128_ctr_info
 436 0214 00000000 		.word	camellia_256_cfb128_info
 437 0218 00000000 		.word	camellia_192_ctr_info
 438 021c 00000000 		.word	camellia_256_ctr_info
 439 0220 00000000 		.word	aes_128_cbc_info
 440 0224 00000000 		.word	aes_192_cbc_info
 441 0228 00000000 		.word	aes_256_cbc_info
 442 022c 00000000 		.word	aes_128_cfb128_info
 443 0230 00000000 		.word	aes_192_cfb128_info
 444 0234 00000000 		.word	aes_256_cfb128_info
 445 0238 00000000 		.word	aes_192_ctr_info
 446 023c 00000000 		.word	aes_128_ctr_info
 447 0240 00000000 		.word	aes_256_ctr_info
 448 0244 00000000 		.word	des_cbc_info
 449 0248 00000000 		.word	blowfish_cfb64_info
 450 024c 00000000 		.word	blowfish_cbc_info
 451 0250 00000000 		.word	des_ede3_cbc_info
 452 0254 00000000 		.word	des_ede_cbc_info
 453              		.cfi_endproc
 454              	.LFE9:
ARM GAS  C:\Users\jo\AppData\Local\Temp\ccg862Ja.s 			page 9


 455              		.size	cipher_info_from_string, .-cipher_info_from_string
 456 0258 AFF30080 		.section	.text.cipher_init_ctx,"ax",%progbits
 456      AFF30080 
 457              		.align	2
 458              		.p2align 4,,15
 459              		.global	cipher_init_ctx
 460              		.thumb
 461              		.thumb_func
 462              		.type	cipher_init_ctx, %function
 463              	cipher_init_ctx:
 464              	.LFB10:
 465              		.loc 1 303 0
 466              		.cfi_startproc
 467              		@ args = 0, pretend = 0, frame = 0
 468              		@ frame_needed = 0, uses_anonymous_args = 0
 469              	.LVL53:
 470              		.loc 1 304 0
 471 0000 89B1     		cbz	r1, .L43
 472              		.loc 1 303 0 discriminator 1
 473 0002 38B5     		push	{r3, r4, r5, lr}
 474              		.cfi_def_cfa_offset 16
 475              		.cfi_offset 3, -16
 476              		.cfi_offset 4, -12
 477              		.cfi_offset 5, -8
 478              		.cfi_offset 14, -4
 479              		.loc 1 304 0 discriminator 1
 480 0004 68B1     		cbz	r0, .L44
 481 0006 0C46     		mov	r4, r1
 482              		.loc 1 307 0
 483 0008 3422     		movs	r2, #52
 484 000a 0021     		movs	r1, #0
 485              	.LVL54:
 486 000c 0546     		mov	r5, r0
 487 000e FFF7FEFF 		bl	memset
 488              	.LVL55:
 489              		.loc 1 309 0
 490 0012 6369     		ldr	r3, [r4, #20]
 491 0014 9B69     		ldr	r3, [r3, #24]
 492 0016 9847     		blx	r3
 493              	.LVL56:
 494 0018 2863     		str	r0, [r5, #48]
 495 001a 30B1     		cbz	r0, .L45
 496              		.loc 1 312 0
 497 001c 2C60     		str	r4, [r5]
 498              		.loc 1 314 0
 499 001e 0020     		movs	r0, #0
 500 0020 38BD     		pop	{r3, r4, r5, pc}
 501              	.LVL57:
 502              	.L44:
 503              		.loc 1 305 0
 504 0022 0348     		ldr	r0, .L47
 505              	.LVL58:
 506 0024 38BD     		pop	{r3, r4, r5, pc}
 507              	.LVL59:
 508              	.L43:
 509              		.cfi_def_cfa_offset 0
 510              		.cfi_restore 3
ARM GAS  C:\Users\jo\AppData\Local\Temp\ccg862Ja.s 			page 10


 511              		.cfi_restore 4
 512              		.cfi_restore 5
 513              		.cfi_restore 14
 514 0026 0248     		ldr	r0, .L47
 515              	.LVL60:
 516              		.loc 1 315 0
 517 0028 7047     		bx	lr
 518              	.LVL61:
 519              	.L45:
 520              		.cfi_def_cfa_offset 16
 521              		.cfi_offset 3, -16
 522              		.cfi_offset 4, -12
 523              		.cfi_offset 5, -8
 524              		.cfi_offset 14, -4
 525              		.loc 1 310 0
 526 002a 0248     		ldr	r0, .L47+4
 527              		.loc 1 315 0
 528 002c 38BD     		pop	{r3, r4, r5, pc}
 529              	.LVL62:
 530              	.L48:
 531 002e 00BF     		.align	2
 532              	.L47:
 533 0030 009FFFFF 		.word	-24832
 534 0034 809EFFFF 		.word	-24960
 535              		.cfi_endproc
 536              	.LFE10:
 537              		.size	cipher_init_ctx, .-cipher_init_ctx
 538 0038 AFF30080 		.section	.text.cipher_free_ctx,"ax",%progbits
 538      AFF30080 
 539              		.align	2
 540              		.p2align 4,,15
 541              		.global	cipher_free_ctx
 542              		.thumb
 543              		.thumb_func
 544              		.type	cipher_free_ctx, %function
 545              	cipher_free_ctx:
 546              	.LFB11:
 547              		.loc 1 318 0
 548              		.cfi_startproc
 549              		@ args = 0, pretend = 0, frame = 0
 550              		@ frame_needed = 0, uses_anonymous_args = 0
 551              	.LVL63:
 552              		.loc 1 319 0
 553 0000 50B1     		cbz	r0, .L51
 554              		.loc 1 318 0 discriminator 1
 555 0002 08B5     		push	{r3, lr}
 556              		.cfi_def_cfa_offset 8
 557              		.cfi_offset 3, -8
 558              		.cfi_offset 14, -4
 559              		.loc 1 319 0 discriminator 1
 560 0004 0368     		ldr	r3, [r0]
 561 0006 2BB1     		cbz	r3, .L52
 562              		.loc 1 322 0
 563 0008 5B69     		ldr	r3, [r3, #20]
 564 000a 006B     		ldr	r0, [r0, #48]
 565              	.LVL64:
 566 000c DB69     		ldr	r3, [r3, #28]
ARM GAS  C:\Users\jo\AppData\Local\Temp\ccg862Ja.s 			page 11


 567 000e 9847     		blx	r3
 568              	.LVL65:
 569              		.loc 1 324 0
 570 0010 0020     		movs	r0, #0
 571 0012 08BD     		pop	{r3, pc}
 572              	.LVL66:
 573              	.L52:
 574              		.loc 1 320 0
 575 0014 0148     		ldr	r0, .L54
 576              	.LVL67:
 577              		.loc 1 325 0
 578 0016 08BD     		pop	{r3, pc}
 579              	.LVL68:
 580              	.L51:
 581              		.cfi_def_cfa_offset 0
 582              		.cfi_restore 3
 583              		.cfi_restore 14
 584              		.loc 1 320 0
 585 0018 0048     		ldr	r0, .L54
 586              	.LVL69:
 587              		.loc 1 325 0
 588 001a 7047     		bx	lr
 589              	.L55:
 590              		.align	2
 591              	.L54:
 592 001c 009FFFFF 		.word	-24832
 593              		.cfi_endproc
 594              	.LFE11:
 595              		.size	cipher_free_ctx, .-cipher_free_ctx
 596              		.section	.text.cipher_setkey,"ax",%progbits
 597              		.align	2
 598              		.p2align 4,,15
 599              		.global	cipher_setkey
 600              		.thumb
 601              		.thumb_func
 602              		.type	cipher_setkey, %function
 603              	cipher_setkey:
 604              	.LFB12:
 605              		.loc 1 329 0
 606              		.cfi_startproc
 607              		@ args = 0, pretend = 0, frame = 0
 608              		@ frame_needed = 0, uses_anonymous_args = 0
 609              		@ link register save eliminated.
 610              	.LVL70:
 611              		.loc 1 330 0
 612 0000 E8B1     		cbz	r0, .L72
 613              		.loc 1 329 0 discriminator 1
 614 0002 F0B4     		push	{r4, r5, r6, r7}
 615              		.cfi_def_cfa_offset 16
 616              		.cfi_offset 4, -16
 617              		.cfi_offset 5, -12
 618              		.cfi_offset 6, -8
 619              		.cfi_offset 7, -4
 620              		.loc 1 330 0 discriminator 1
 621 0004 0468     		ldr	r4, [r0]
 622 0006 BCB1     		cbz	r4, .L58
 623              		.loc 1 344 0
ARM GAS  C:\Users\jo\AppData\Local\Temp\ccg862Ja.s 			page 12


 624 0008 012B     		cmp	r3, #1
 625 000a 0F46     		mov	r7, r1
 626 000c 1646     		mov	r6, r2
 627              		.loc 1 333 0
 628 000e 4260     		str	r2, [r0, #4]
 629              		.loc 1 334 0
 630 0010 0372     		strb	r3, [r0, #8]
 631              		.loc 1 344 0
 632 0012 0AD0     		beq	.L60
 633              		.loc 1 345 0 discriminator 1
 634 0014 6578     		ldrb	r5, [r4, #1]	@ zero_extendqisi2
 635              		.loc 1 344 0 discriminator 1
 636 0016 032D     		cmp	r5, #3
 637 0018 07D0     		beq	.L60
 638              		.loc 1 345 0
 639 001a 052D     		cmp	r5, #5
 640 001c 05D0     		beq	.L60
 641              		.loc 1 352 0
 642 001e 5BB9     		cbnz	r3, .L58
 643              		.loc 1 353 0
 644 0020 6369     		ldr	r3, [r4, #20]
 645              	.LVL71:
 646 0022 006B     		ldr	r0, [r0, #48]
 647              	.LVL72:
 648 0024 5B69     		ldr	r3, [r3, #20]
 649              		.loc 1 357 0
 650 0026 F0BC     		pop	{r4, r5, r6, r7}
 651              		.cfi_remember_state
 652              		.cfi_restore 7
 653              		.cfi_restore 6
 654              		.cfi_restore 5
 655              		.cfi_restore 4
 656              		.cfi_def_cfa_offset 0
 657              		.loc 1 353 0
 658 0028 1847     		bx	r3
 659              	.LVL73:
 660              	.L60:
 661              		.cfi_restore_state
 662              		.loc 1 348 0
 663 002a 6369     		ldr	r3, [r4, #20]
 664              	.LVL74:
 665 002c 006B     		ldr	r0, [r0, #48]
 666              	.LVL75:
 667 002e 1B69     		ldr	r3, [r3, #16]
 668 0030 3946     		mov	r1, r7
 669              	.LVL76:
 670 0032 3246     		mov	r2, r6
 671              	.LVL77:
 672              		.loc 1 357 0
 673 0034 F0BC     		pop	{r4, r5, r6, r7}
 674              		.cfi_remember_state
 675              		.cfi_restore 7
 676              		.cfi_restore 6
 677              		.cfi_restore 5
 678              		.cfi_restore 4
 679              		.cfi_def_cfa_offset 0
 680              	.LVL78:
ARM GAS  C:\Users\jo\AppData\Local\Temp\ccg862Ja.s 			page 13


 681              		.loc 1 348 0
 682 0036 1847     		bx	r3
 683              	.LVL79:
 684              	.L58:
 685              		.cfi_restore_state
 686              		.loc 1 357 0
 687 0038 0248     		ldr	r0, .L73
 688              	.LVL80:
 689 003a F0BC     		pop	{r4, r5, r6, r7}
 690              		.cfi_restore 7
 691              		.cfi_restore 6
 692              		.cfi_restore 5
 693              		.cfi_restore 4
 694              		.cfi_def_cfa_offset 0
 695 003c 7047     		bx	lr
 696              	.LVL81:
 697              	.L72:
 698 003e 0148     		ldr	r0, .L73
 699              	.LVL82:
 700 0040 7047     		bx	lr
 701              	.L74:
 702 0042 00BF     		.align	2
 703              	.L73:
 704 0044 009FFFFF 		.word	-24832
 705              		.cfi_endproc
 706              	.LFE12:
 707              		.size	cipher_setkey, .-cipher_setkey
 708 0048 AFF30080 		.section	.text.cipher_reset,"ax",%progbits
 708      AFF30080 
 709              		.align	2
 710              		.p2align 4,,15
 711              		.global	cipher_reset
 712              		.thumb
 713              		.thumb_func
 714              		.type	cipher_reset, %function
 715              	cipher_reset:
 716              	.LFB13:
 717              		.loc 1 360 0
 718              		.cfi_startproc
 719              		@ args = 0, pretend = 0, frame = 0
 720              		@ frame_needed = 0, uses_anonymous_args = 0
 721              	.LVL83:
 722              		.loc 1 361 0
 723 0000 58B1     		cbz	r0, .L79
 724              		.loc 1 361 0 is_stmt 0 discriminator 1
 725 0002 0368     		ldr	r3, [r0]
 726 0004 4BB1     		cbz	r3, .L79
 727              		.loc 1 361 0 discriminator 2
 728 0006 41B1     		cbz	r1, .L79
 729              		.loc 1 360 0 is_stmt 1
 730 0008 10B5     		push	{r4, lr}
 731              		.cfi_def_cfa_offset 8
 732              		.cfi_offset 4, -8
 733              		.cfi_offset 14, -4
 734              		.loc 1 364 0
 735 000a 0024     		movs	r4, #0
 736              		.loc 1 366 0
ARM GAS  C:\Users\jo\AppData\Local\Temp\ccg862Ja.s 			page 14


 737 000c DA68     		ldr	r2, [r3, #12]
 738              		.loc 1 364 0
 739 000e C461     		str	r4, [r0, #28]
 740              	.LVL84:
 741              		.loc 1 366 0
 742 0010 2030     		adds	r0, r0, #32
 743              	.LVL85:
 744 0012 FFF7FEFF 		bl	memcpy
 745              	.LVL86:
 746              		.loc 1 368 0
 747 0016 2046     		mov	r0, r4
 748 0018 10BD     		pop	{r4, pc}
 749              	.LVL87:
 750              	.L79:
 751              		.cfi_def_cfa_offset 0
 752              		.cfi_restore 4
 753              		.cfi_restore 14
 754              		.loc 1 362 0
 755 001a 0148     		ldr	r0, .L82
 756              	.LVL88:
 757 001c 7047     		bx	lr
 758              	.L83:
 759 001e 00BF     		.align	2
 760              	.L82:
 761 0020 009FFFFF 		.word	-24832
 762              		.cfi_endproc
 763              	.LFE13:
 764              		.size	cipher_reset, .-cipher_reset
 765 0024 AFF30080 		.section	.text.cipher_update,"ax",%progbits
 765      AFF30080 
 765      AFF30080 
 766              		.align	2
 767              		.p2align 4,,15
 768              		.global	cipher_update
 769              		.thumb
 770              		.thumb_func
 771              		.type	cipher_update, %function
 772              	cipher_update:
 773              	.LFB14:
 774              		.loc 1 373 0
 775              		.cfi_startproc
 776              		@ args = 4, pretend = 0, frame = 0
 777              		@ frame_needed = 0, uses_anonymous_args = 0
 778              	.LVL89:
 779 0000 2DE9F047 		push	{r4, r5, r6, r7, r8, r9, r10, lr}
 780              		.cfi_def_cfa_offset 32
 781              		.cfi_offset 4, -32
 782              		.cfi_offset 5, -28
 783              		.cfi_offset 6, -24
 784              		.cfi_offset 7, -20
 785              		.cfi_offset 8, -16
 786              		.cfi_offset 9, -12
 787              		.cfi_offset 10, -8
 788              		.cfi_offset 14, -4
 789 0004 84B0     		sub	sp, sp, #16
 790              		.cfi_def_cfa_offset 48
 791              		.loc 1 377 0
ARM GAS  C:\Users\jo\AppData\Local\Temp\ccg862Ja.s 			page 15


 792 0006 0446     		mov	r4, r0
 793              		.loc 1 373 0
 794 0008 0C9E     		ldr	r6, [sp, #48]
 795              		.loc 1 377 0
 796 000a 0028     		cmp	r0, #0
 797 000c 00F0C380 		beq	.L107
 798              		.loc 1 377 0 is_stmt 0 discriminator 1
 799 0010 0568     		ldr	r5, [r0]
 800 0012 002D     		cmp	r5, #0
 801 0014 00F0BF80 		beq	.L107
 802              		.loc 1 377 0 discriminator 2
 803 0018 002E     		cmp	r6, #0
 804 001a 00F0BC80 		beq	.L107
 805              		.loc 1 377 0 discriminator 3
 806 001e 9942     		cmp	r1, r3
 807 0020 8846     		mov	r8, r1
 808 0022 9946     		mov	r9, r3
 809 0024 00F0B780 		beq	.L107
 810              		.loc 1 394 0 is_stmt 1
 811 0028 6B78     		ldrb	r3, [r5, #1]	@ zero_extendqisi2
 812              	.LVL90:
 813              		.loc 1 383 0
 814 002a 0021     		movs	r1, #0
 815              	.LVL91:
 816              		.loc 1 394 0
 817 002c 022B     		cmp	r3, #2
 818 002e 1746     		mov	r7, r2
 819              		.loc 1 383 0
 820 0030 3160     		str	r1, [r6]
 821              		.loc 1 394 0
 822 0032 1AD0     		beq	.L134
 823              		.loc 1 468 0
 824 0034 032B     		cmp	r3, #3
 825 0036 00F09580 		beq	.L135
 826              		.loc 1 482 0
 827 003a 052B     		cmp	r3, #5
 828 003c 40F08180 		bne	.L113
 829              		.loc 1 484 0
 830 0040 6B69     		ldr	r3, [r5, #20]
 831 0042 006B     		ldr	r0, [r0, #48]
 832              	.LVL92:
 833 0044 CDF80480 		str	r8, [sp, #4]
 834              		.loc 1 486 0
 835 0048 04F10902 		add	r2, r4, #9
 836              	.LVL93:
 837              		.loc 1 484 0
 838 004c 0092     		str	r2, [sp]
 839 004e CDF80890 		str	r9, [sp, #8]
 840 0052 DD68     		ldr	r5, [r3, #12]
 841 0054 3946     		mov	r1, r7
 842 0056 04F11C02 		add	r2, r4, #28
 843 005a 04F12003 		add	r3, r4, #32
 844 005e A847     		blx	r5
 845              	.LVL94:
 846 0060 00B9     		cbnz	r0, .L126
 847              	.L131:
 848              		.loc 1 491 0
ARM GAS  C:\Users\jo\AppData\Local\Temp\ccg862Ja.s 			page 16


 849 0062 3760     		str	r7, [r6]
 850              	.LVL95:
 851              	.L126:
 852              		.loc 1 497 0
 853 0064 04B0     		add	sp, sp, #16
 854              		.cfi_remember_state
 855              		.cfi_def_cfa_offset 32
 856              		@ sp needed
 857 0066 BDE8F087 		pop	{r4, r5, r6, r7, r8, r9, r10, pc}
 858              	.LVL96:
 859              	.L134:
 860              		.cfi_restore_state
 861              		.loc 1 399 0
 862 006a 037A     		ldrb	r3, [r0, #8]	@ zero_extendqisi2
 863              		.loc 1 400 0
 864 006c C069     		ldr	r0, [r0, #28]
 865              	.LVL97:
 866              		.loc 1 399 0
 867 006e 002B     		cmp	r3, #0
 868 0070 5ED1     		bne	.L87
 869              	.LVL98:
 870              		.loc 1 399 0 is_stmt 0 discriminator 1
 871 0072 2B69     		ldr	r3, [r5, #16]
 872              		.loc 1 400 0 is_stmt 1 discriminator 1
 873 0074 0244     		add	r2, r2, r0
 874              	.LVL99:
 875              		.loc 1 399 0 discriminator 1
 876 0076 9A42     		cmp	r2, r3
 877 0078 67D9     		bls	.L95
 878              	.LVL100:
 879              	.L88:
 880              		.loc 1 414 0
 881 007a 38B3     		cbz	r0, .L89
 882 007c 2B69     		ldr	r3, [r5, #16]
 883              	.L98:
 884              	.LVL101:
 885              		.loc 1 416 0
 886 007e C0EB030A 		rsb	r10, r0, r3
 887              	.LVL102:
 888              		.loc 1 418 0
 889 0082 2044     		add	r0, r0, r4
 890 0084 5246     		mov	r2, r10
 891 0086 4146     		mov	r1, r8
 892 0088 0930     		adds	r0, r0, #9
 893 008a FFF7FEFF 		bl	memcpy
 894              	.LVL103:
 895              		.loc 1 421 0
 896 008e 2368     		ldr	r3, [r4]
 897              	.LVL104:
 898 0090 206B     		ldr	r0, [r4, #48]
 899 0092 5D69     		ldr	r5, [r3, #20]
 900 0094 1A69     		ldr	r2, [r3, #16]
 901 0096 94F90810 		ldrsb	r1, [r4, #8]
 902 009a CDF80490 		str	r9, [sp, #4]
 903              		.loc 1 423 0
 904 009e 04F10903 		add	r3, r4, #9
 905              		.loc 1 421 0
ARM GAS  C:\Users\jo\AppData\Local\Temp\ccg862Ja.s 			page 17


 906 00a2 0093     		str	r3, [sp]
 907 00a4 6D68     		ldr	r5, [r5, #4]
 908 00a6 04F12003 		add	r3, r4, #32
 909 00aa A847     		blx	r5
 910              	.LVL105:
 911 00ac 0028     		cmp	r0, #0
 912 00ae D9D1     		bne	.L126
 913              	.LVL106:
 914              	.LBB80:
 915              	.LBB81:
 916              		.file 2 "../../../demos/STM32/RT-STM32F407-DISCOVERY-uHttp/uhttp-1.1/PolarSSL/include/polarssl/cip
 917              		.loc 2 273 0
 918 00b0 2568     		ldr	r5, [r4]
 919 00b2 002D     		cmp	r5, #0
 920 00b4 6DD0     		beq	.L90
 921              	.LBE81:
 922              	.LBE80:
 923              		.loc 1 428 0
 924 00b6 3268     		ldr	r2, [r6]
 925 00b8 2B69     		ldr	r3, [r5, #16]
 926 00ba 1344     		add	r3, r3, r2
 927 00bc 3360     		str	r3, [r6]
 928              	.LVL107:
 929              	.LBB82:
 930              	.LBB83:
 931              		.loc 2 276 0
 932 00be 2A69     		ldr	r2, [r5, #16]
 933              	.L102:
 934              	.LBE83:
 935              	.LBE82:
 936              		.loc 1 430 0
 937 00c0 0023     		movs	r3, #0
 938              		.loc 1 429 0
 939 00c2 9144     		add	r9, r9, r2
 940              	.LVL108:
 941              		.loc 1 432 0
 942 00c4 D044     		add	r8, r8, r10
 943              	.LVL109:
 944              		.loc 1 433 0
 945 00c6 CAEB0707 		rsb	r7, r10, r7
 946              	.LVL110:
 947              		.loc 1 430 0
 948 00ca E361     		str	r3, [r4, #28]
 949              	.LVL111:
 950              	.L89:
 951              		.loc 1 439 0
 952 00cc 002F     		cmp	r7, #0
 953 00ce 45D0     		beq	.L130
 954              	.LVL112:
 955              	.LBB85:
 956              	.LBB86:
 957              		.loc 2 274 0
 958 00d0 2A46     		mov	r2, r5
 959              		.loc 2 273 0
 960 00d2 002D     		cmp	r5, #0
 961 00d4 5BD1     		bne	.L91
 962              	.L101:
ARM GAS  C:\Users\jo\AppData\Local\Temp\ccg862Ja.s 			page 18


 963              	.LBE86:
 964              	.LBE85:
 965              		.loc 1 441 0
 966 00d6 B7FBF2F3 		udiv	r3, r7, r2
 967 00da 02FB137A 		mls	r10, r2, r3, r7
 968              	.LVL113:
 969              		.loc 1 442 0
 970 00de BAF1000F 		cmp	r10, #0
 971 00e2 07D1     		bne	.L92
 972              		.loc 1 442 0 is_stmt 0 discriminator 1
 973 00e4 94F90830 		ldrsb	r3, [r4, #8]
 974              	.LVL114:
 975 00e8 002B     		cmp	r3, #0
 976 00ea 56D1     		bne	.L93
 977              	.LVL115:
 978              	.LBB88:
 979              	.LBB89:
 980              		.loc 2 273 0 is_stmt 1
 981 00ec 002D     		cmp	r5, #0
 982 00ee 54D0     		beq	.L93
 983              	.LVL116:
 984              		.loc 2 276 0
 985 00f0 D5F810A0 		ldr	r10, [r5, #16]
 986              	.LVL117:
 987              	.L92:
 988              	.LBE89:
 989              	.LBE88:
 990              		.loc 1 445 0
 991 00f4 CAEB0707 		rsb	r7, r10, r7
 992              	.LVL118:
 993 00f8 08EB0701 		add	r1, r8, r7
 994 00fc 04F10900 		add	r0, r4, #9
 995 0100 5246     		mov	r2, r10
 996 0102 FFF7FEFF 		bl	memcpy
 997              	.LVL119:
 998              		.loc 1 448 0
 999 0106 E369     		ldr	r3, [r4, #28]
 1000 0108 5344     		add	r3, r3, r10
 1001 010a E361     		str	r3, [r4, #28]
 1002              	.LVL120:
 1003              		.loc 1 455 0
 1004 010c 37B3     		cbz	r7, .L130
 1005              	.LVL121:
 1006              	.L103:
 1007              		.loc 1 457 0
 1008 010e 6B69     		ldr	r3, [r5, #20]
 1009 0110 206B     		ldr	r0, [r4, #48]
 1010 0112 94F90810 		ldrsb	r1, [r4, #8]
 1011 0116 8DE80003 		stmia	sp, {r8, r9}
 1012 011a 3A46     		mov	r2, r7
 1013 011c 5D68     		ldr	r5, [r3, #4]
 1014 011e 04F12003 		add	r3, r4, #32
 1015 0122 A847     		blx	r5
 1016              	.LVL122:
 1017 0124 0028     		cmp	r0, #0
 1018 0126 9DD1     		bne	.L126
 1019              		.loc 1 462 0
ARM GAS  C:\Users\jo\AppData\Local\Temp\ccg862Ja.s 			page 19


 1020 0128 3368     		ldr	r3, [r6]
 1021 012a 1F44     		add	r7, r7, r3
 1022              	.LVL123:
 1023 012c 3760     		str	r7, [r6]
 1024 012e 99E7     		b	.L126
 1025              	.LVL124:
 1026              	.L87:
 1027              		.loc 1 400 0
 1028 0130 012B     		cmp	r3, #1
 1029 0132 A2D1     		bne	.L88
 1030              	.LVL125:
 1031              	.LBB90:
 1032              	.LBB91:
 1033              		.loc 2 276 0
 1034 0134 2A69     		ldr	r2, [r5, #16]
 1035              	.LVL126:
 1036              	.LBE91:
 1037              	.LBE90:
 1038              		.loc 1 402 0
 1039 0136 3B18     		adds	r3, r7, r0
 1040              		.loc 1 401 0
 1041 0138 9A42     		cmp	r2, r3
 1042 013a 06D8     		bhi	.L95
 1043              		.loc 1 414 0
 1044 013c 28B3     		cbz	r0, .L136
 1045 013e 1346     		mov	r3, r2
 1046 0140 9DE7     		b	.L98
 1047              	.LVL127:
 1048              	.L113:
 1049              		.loc 1 496 0
 1050 0142 1A48     		ldr	r0, .L137
 1051              	.LVL128:
 1052              		.loc 1 497 0
 1053 0144 04B0     		add	sp, sp, #16
 1054              		.cfi_remember_state
 1055              		.cfi_def_cfa_offset 32
 1056              		@ sp needed
 1057 0146 BDE8F087 		pop	{r4, r5, r6, r7, r8, r9, r10, pc}
 1058              	.LVL129:
 1059              	.L95:
 1060              		.cfi_restore_state
 1061              		.loc 1 404 0
 1062 014a 2044     		add	r0, r0, r4
 1063 014c 0930     		adds	r0, r0, #9
 1064 014e 4146     		mov	r1, r8
 1065 0150 3A46     		mov	r2, r7
 1066 0152 FFF7FEFF 		bl	memcpy
 1067              	.LVL130:
 1068              		.loc 1 407 0
 1069 0156 E069     		ldr	r0, [r4, #28]
 1070 0158 3844     		add	r0, r0, r7
 1071 015a E061     		str	r0, [r4, #28]
 1072              	.LVL131:
 1073              	.L130:
 1074              		.loc 1 408 0
 1075 015c 0020     		movs	r0, #0
 1076              		.loc 1 497 0
ARM GAS  C:\Users\jo\AppData\Local\Temp\ccg862Ja.s 			page 20


 1077 015e 04B0     		add	sp, sp, #16
 1078              		.cfi_remember_state
 1079              		.cfi_def_cfa_offset 32
 1080              		@ sp needed
 1081 0160 BDE8F087 		pop	{r4, r5, r6, r7, r8, r9, r10, pc}
 1082              	.LVL132:
 1083              	.L135:
 1084              		.cfi_restore_state
 1085              		.loc 1 470 0
 1086 0164 6B69     		ldr	r3, [r5, #20]
 1087 0166 006B     		ldr	r0, [r0, #48]
 1088              	.LVL133:
 1089 0168 94F90810 		ldrsb	r1, [r4, #8]
 1090 016c CDF80480 		str	r8, [sp, #4]
 1091              		.loc 1 471 0
 1092 0170 04F12005 		add	r5, r4, #32
 1093              		.loc 1 470 0
 1094 0174 CDF80890 		str	r9, [sp, #8]
 1095 0178 0095     		str	r5, [sp]
 1096 017a 9D68     		ldr	r5, [r3, #8]
 1097 017c 04F11C03 		add	r3, r4, #28
 1098 0180 A847     		blx	r5
 1099              	.LVL134:
 1100 0182 0028     		cmp	r0, #0
 1101 0184 7FF46EAF 		bne	.L126
 1102 0188 6BE7     		b	.L131
 1103              	.LVL135:
 1104              	.L136:
 1105              		.loc 1 439 0
 1106 018a 002F     		cmp	r7, #0
 1107 018c E6D0     		beq	.L130
 1108              	.LVL136:
 1109              	.L91:
 1110              	.LBB92:
 1111              	.LBB87:
 1112              		.loc 2 276 0
 1113 018e 2A69     		ldr	r2, [r5, #16]
 1114 0190 A1E7     		b	.L101
 1115              	.LVL137:
 1116              	.L90:
 1117              	.LBE87:
 1118              	.LBE92:
 1119              	.LBB93:
 1120              	.LBB84:
 1121              		.loc 2 274 0
 1122 0192 2A46     		mov	r2, r5
 1123 0194 94E7     		b	.L102
 1124              	.LVL138:
 1125              	.L107:
 1126              	.LBE84:
 1127              	.LBE93:
 1128              		.loc 1 380 0
 1129 0196 0648     		ldr	r0, .L137+4
 1130              	.LVL139:
 1131 0198 64E7     		b	.L126
 1132              	.LVL140:
 1133              	.L93:
ARM GAS  C:\Users\jo\AppData\Local\Temp\ccg862Ja.s 			page 21


 1134              		.loc 1 445 0
 1135 019a 08EB0701 		add	r1, r8, r7
 1136 019e 04F10900 		add	r0, r4, #9
 1137 01a2 0022     		movs	r2, #0
 1138              	.LVL141:
 1139 01a4 FFF7FEFF 		bl	memcpy
 1140              	.LVL142:
 1141 01a8 B1E7     		b	.L103
 1142              	.L138:
 1143 01aa 00BF     		.align	2
 1144              	.L137:
 1145 01ac 809FFFFF 		.word	-24704
 1146 01b0 009FFFFF 		.word	-24832
 1147              		.cfi_endproc
 1148              	.LFE14:
 1149              		.size	cipher_update, .-cipher_update
 1150 01b4 AFF30080 		.section	.text.cipher_finish,"ax",%progbits
 1150      AFF30080 
 1150      AFF30080 
 1151              		.align	2
 1152              		.p2align 4,,15
 1153              		.global	cipher_finish
 1154              		.thumb
 1155              		.thumb_func
 1156              		.type	cipher_finish, %function
 1157              	cipher_finish:
 1158              	.LFB17:
 1159              		.loc 1 532 0
 1160              		.cfi_startproc
 1161              		@ args = 0, pretend = 0, frame = 0
 1162              		@ frame_needed = 0, uses_anonymous_args = 0
 1163              	.LVL143:
 1164              		.loc 1 535 0
 1165 0000 0028     		cmp	r0, #0
 1166 0002 74D0     		beq	.L187
 1167              		.loc 1 532 0 discriminator 1
 1168 0004 2DE9F041 		push	{r4, r5, r6, r7, r8, lr}
 1169              		.cfi_def_cfa_offset 24
 1170              		.cfi_offset 4, -24
 1171              		.cfi_offset 5, -20
 1172              		.cfi_offset 6, -16
 1173              		.cfi_offset 7, -12
 1174              		.cfi_offset 8, -8
 1175              		.cfi_offset 14, -4
 1176              		.loc 1 535 0 discriminator 1
 1177 0008 0668     		ldr	r6, [r0]
 1178              		.loc 1 532 0 discriminator 1
 1179 000a 82B0     		sub	sp, sp, #8
 1180              		.cfi_def_cfa_offset 32
 1181              		.loc 1 535 0 discriminator 1
 1182 000c 002E     		cmp	r6, #0
 1183 000e 6CD0     		beq	.L142
 1184              		.loc 1 535 0 is_stmt 0 discriminator 2
 1185 0010 002A     		cmp	r2, #0
 1186 0012 6AD0     		beq	.L142
 1187              		.loc 1 540 0 is_stmt 1
 1188 0014 7478     		ldrb	r4, [r6, #1]	@ zero_extendqisi2
ARM GAS  C:\Users\jo\AppData\Local\Temp\ccg862Ja.s 			page 22


 1189              		.loc 1 538 0
 1190 0016 0023     		movs	r3, #0
 1191              		.loc 1 540 0
 1192 0018 052C     		cmp	r4, #5
 1193              		.loc 1 538 0
 1194 001a 1360     		str	r3, [r2]
 1195              		.loc 1 540 0
 1196 001c 28D0     		beq	.L184
 1197              		.loc 1 541 0
 1198 001e 04F0FD05 		and	r5, r4, #253
 1199 0022 012D     		cmp	r5, #1
 1200 0024 24D0     		beq	.L184
 1201              		.loc 1 547 0
 1202 0026 022C     		cmp	r4, #2
 1203 0028 5BD1     		bne	.L157
 1204              		.loc 1 549 0
 1205 002a 90F90880 		ldrsb	r8, [r0, #8]
 1206 002e B8F1010F 		cmp	r8, #1
 1207 0032 3CD0     		beq	.L188
 1208              	.LVL144:
 1209              		.loc 1 554 0
 1210 0034 3469     		ldr	r4, [r6, #16]
 1211 0036 C369     		ldr	r3, [r0, #28]
 1212 0038 9C42     		cmp	r4, r3
 1213 003a 54D1     		bne	.L189
 1214              		.loc 1 561 0
 1215 003c 7469     		ldr	r4, [r6, #20]
 1216 003e 036B     		ldr	r3, [r0, #48]
 1217              	.LVL145:
 1218 0040 D4F804C0 		ldr	ip, [r4, #4]
 1219 0044 00F1090E 		add	lr, r0, #9
 1220              	.LVL146:
 1221              	.L153:
 1222 0048 0546     		mov	r5, r0
 1223              	.LVL147:
 1224 004a 1746     		mov	r7, r2
 1225 004c 0C46     		mov	r4, r1
 1226 004e 3269     		ldr	r2, [r6, #16]
 1227              	.LVL148:
 1228 0050 0191     		str	r1, [sp, #4]
 1229 0052 1846     		mov	r0, r3
 1230              	.LVL149:
 1231 0054 CDF800E0 		str	lr, [sp]
 1232 0058 4146     		mov	r1, r8
 1233              	.LVL150:
 1234 005a 05F12003 		add	r3, r5, #32
 1235 005e E047     		blx	ip
 1236              	.LVL151:
 1237 0060 38B9     		cbnz	r0, .L178
 1238              		.loc 1 569 0
 1239 0062 95F90830 		ldrsb	r3, [r5, #8]
 1240 0066 3BB1     		cbz	r3, .L190
 1241              	.LVL152:
 1242              	.LBB108:
 1243              	.LBB109:
 1244              		.loc 2 273 0
 1245 0068 2B68     		ldr	r3, [r5]
ARM GAS  C:\Users\jo\AppData\Local\Temp\ccg862Ja.s 			page 23


 1246 006a 03B1     		cbz	r3, .L152
 1247              		.loc 2 276 0
 1248 006c 1B69     		ldr	r3, [r3, #16]
 1249              	.L152:
 1250              	.LBE109:
 1251              	.LBE108:
 1252              		.loc 1 573 0
 1253 006e 3B60     		str	r3, [r7]
 1254              	.LVL153:
 1255              	.L184:
 1256              		.loc 1 574 0
 1257 0070 0020     		movs	r0, #0
 1258              	.L178:
 1259              		.loc 1 578 0
 1260 0072 02B0     		add	sp, sp, #8
 1261              		.cfi_remember_state
 1262              		.cfi_def_cfa_offset 24
 1263              		@ sp needed
 1264 0074 BDE8F081 		pop	{r4, r5, r6, r7, r8, pc}
 1265              	.LVL154:
 1266              	.L190:
 1267              		.cfi_restore_state
 1268              	.LBB110:
 1269              	.LBB111:
 1270              		.loc 2 273 0
 1271 0078 2B68     		ldr	r3, [r5]
 1272 007a 03B1     		cbz	r3, .L148
 1273              		.loc 2 276 0
 1274 007c 1B69     		ldr	r3, [r3, #16]
 1275              	.L148:
 1276              	.LVL155:
 1277              	.LBE111:
 1278              	.LBE110:
 1279              	.LBB112:
 1280              	.LBB113:
 1281              		.loc 1 514 0
 1282 007e 002C     		cmp	r4, #0
 1283 0080 33D0     		beq	.L142
 1284              		.loc 1 517 0
 1285 0082 5A1E     		subs	r2, r3, #1
 1286 0084 A018     		adds	r0, r4, r2
 1287              	.LVL156:
 1288 0086 A25C     		ldrb	r2, [r4, r2]	@ zero_extendqisi2
 1289              	.LVL157:
 1290              		.loc 1 519 0
 1291 0088 9A42     		cmp	r2, r3
 1292 008a 28D8     		bhi	.L163
 1293              		.loc 1 522 0
 1294 008c 9D1A     		subs	r5, r3, r2
 1295              	.LVL158:
 1296 008e 9D42     		cmp	r5, r3
 1297 0090 0BD2     		bcs	.L149
 1298              		.loc 1 523 0
 1299 0092 635D     		ldrb	r3, [r4, r5]	@ zero_extendqisi2
 1300              	.LVL159:
 1301 0094 9A42     		cmp	r2, r3
 1302 0096 04EB0501 		add	r1, r4, r5
ARM GAS  C:\Users\jo\AppData\Local\Temp\ccg862Ja.s 			page 24


 1303 009a 04D0     		beq	.L150
 1304 009c 1FE0     		b	.L163
 1305              	.LVL160:
 1306              	.L151:
 1307 009e 11F8013F 		ldrb	r3, [r1, #1]!	@ zero_extendqisi2
 1308              	.LVL161:
 1309 00a2 9A42     		cmp	r2, r3
 1310 00a4 1BD1     		bne	.L163
 1311              	.LVL162:
 1312              	.L150:
 1313              		.loc 1 522 0
 1314 00a6 8142     		cmp	r1, r0
 1315 00a8 F9D1     		bne	.L151
 1316              	.LVL163:
 1317              	.L149:
 1318              		.loc 1 526 0
 1319 00aa 3D60     		str	r5, [r7]
 1320 00ac E0E7     		b	.L184
 1321              	.LVL164:
 1322              	.L188:
 1323              	.LBE113:
 1324              	.LBE112:
 1325              		.loc 1 551 0
 1326 00ae C469     		ldr	r4, [r0, #28]
 1327              	.LBB115:
 1328              	.LBB116:
 1329              		.loc 1 502 0
 1330 00b0 F568     		ldr	r5, [r6, #12]
 1331              		.loc 1 505 0
 1332 00b2 2D1B     		subs	r5, r5, r4
 1333              	.LBE116:
 1334              	.LBE115:
 1335              		.loc 1 551 0
 1336 00b4 00F1090E 		add	lr, r0, #9
 1337              	.LVL165:
 1338              	.LBB118:
 1339              	.LBB117:
 1340              		.loc 1 505 0
 1341 00b8 0CD0     		beq	.L144
 1342 00ba 0EEB0406 		add	r6, lr, r4
 1343              	.LVL166:
 1344 00be EFB2     		uxtb	r7, r5
 1345 00c0 1C46     		mov	r4, r3
 1346              	.LVL167:
 1347              	.L145:
 1348 00c2 0133     		adds	r3, r3, #1
 1349              	.LVL168:
 1350 00c4 DBB2     		uxtb	r3, r3
 1351              	.LVL169:
 1352 00c6 9D42     		cmp	r5, r3
 1353              		.loc 1 506 0
 1354 00c8 3755     		strb	r7, [r6, r4]
 1355              		.loc 1 505 0
 1356 00ca 1C46     		mov	r4, r3
 1357 00cc F9D8     		bhi	.L145
 1358 00ce 0668     		ldr	r6, [r0]
 1359 00d0 90F90880 		ldrsb	r8, [r0, #8]
ARM GAS  C:\Users\jo\AppData\Local\Temp\ccg862Ja.s 			page 25


 1360              	.LVL170:
 1361              	.L144:
 1362              	.LBE117:
 1363              	.LBE118:
 1364              		.loc 1 561 0
 1365 00d4 7469     		ldr	r4, [r6, #20]
 1366 00d6 036B     		ldr	r3, [r0, #48]
 1367              	.LVL171:
 1368 00d8 D4F804C0 		ldr	ip, [r4, #4]
 1369 00dc B4E7     		b	.L153
 1370              	.LVL172:
 1371              	.L163:
 1372              	.LBB119:
 1373              	.LBB114:
 1374              		.loc 1 520 0
 1375 00de 0548     		ldr	r0, .L191
 1376 00e0 C7E7     		b	.L178
 1377              	.LVL173:
 1378              	.L157:
 1379              	.LBE114:
 1380              	.LBE119:
 1381              		.loc 1 577 0
 1382 00e2 0548     		ldr	r0, .L191+4
 1383              	.LVL174:
 1384 00e4 C5E7     		b	.L178
 1385              	.LVL175:
 1386              	.L189:
 1387              		.loc 1 557 0
 1388 00e6 0548     		ldr	r0, .L191+8
 1389              	.LVL176:
 1390 00e8 C3E7     		b	.L178
 1391              	.LVL177:
 1392              	.L142:
 1393              		.loc 1 536 0
 1394 00ea 0548     		ldr	r0, .L191+12
 1395 00ec C1E7     		b	.L178
 1396              	.LVL178:
 1397              	.L187:
 1398              		.cfi_def_cfa_offset 0
 1399              		.cfi_restore 4
 1400              		.cfi_restore 5
 1401              		.cfi_restore 6
 1402              		.cfi_restore 7
 1403              		.cfi_restore 8
 1404              		.cfi_restore 14
 1405 00ee 0448     		ldr	r0, .L191+12
 1406              	.LVL179:
 1407              		.loc 1 578 0
 1408 00f0 7047     		bx	lr
 1409              	.L192:
 1410 00f2 00BF     		.align	2
 1411              	.L191:
 1412 00f4 009EFFFF 		.word	-25088
 1413 00f8 809FFFFF 		.word	-24704
 1414 00fc 809DFFFF 		.word	-25216
 1415 0100 009FFFFF 		.word	-24832
 1416              		.cfi_endproc
ARM GAS  C:\Users\jo\AppData\Local\Temp\ccg862Ja.s 			page 26


 1417              	.LFE17:
 1418              		.size	cipher_finish, .-cipher_finish
 1419 0104 AFF30080 		.section	.text.cipher_self_test,"ax",%progbits
 1419      AFF30080 
 1419      AFF30080 
 1420              		.align	2
 1421              		.p2align 4,,15
 1422              		.global	cipher_self_test
 1423              		.thumb
 1424              		.thumb_func
 1425              		.type	cipher_self_test, %function
 1426              	cipher_self_test:
 1427              	.LFB18:
 1428              		.loc 1 593 0
 1429              		.cfi_startproc
 1430              		@ args = 0, pretend = 0, frame = 0
 1431              		@ frame_needed = 0, uses_anonymous_args = 0
 1432              		@ link register save eliminated.
 1433              	.LVL180:
 1434              		.loc 1 597 0
 1435 0000 0020     		movs	r0, #0
 1436              	.LVL181:
 1437 0002 7047     		bx	lr
 1438              		.cfi_endproc
 1439              	.LFE18:
 1440              		.size	cipher_self_test, .-cipher_self_test
 1441 0004 AFF30080 		.section	.rodata.supported_ciphers,"a",%progbits
 1441      AFF30080 
 1441      AFF30080 
 1442              		.align	2
 1443              		.set	.LANCHOR0,. + 0
 1444              		.type	supported_ciphers, %object
 1445              		.size	supported_ciphers, 100
 1446              	supported_ciphers:
 1447 0000 02000000 		.word	2
 1448 0004 03000000 		.word	3
 1449 0008 04000000 		.word	4
 1450 000c 05000000 		.word	5
 1451 0010 06000000 		.word	6
 1452 0014 07000000 		.word	7
 1453 0018 08000000 		.word	8
 1454 001c 09000000 		.word	9
 1455 0020 0A000000 		.word	10
 1456 0024 0B000000 		.word	11
 1457 0028 0C000000 		.word	12
 1458 002c 0D000000 		.word	13
 1459 0030 0E000000 		.word	14
 1460 0034 0F000000 		.word	15
 1461 0038 10000000 		.word	16
 1462 003c 11000000 		.word	17
 1463 0040 12000000 		.word	18
 1464 0044 13000000 		.word	19
 1465 0048 14000000 		.word	20
 1466 004c 15000000 		.word	21
 1467 0050 16000000 		.word	22
 1468 0054 17000000 		.word	23
 1469 0058 18000000 		.word	24
ARM GAS  C:\Users\jo\AppData\Local\Temp\ccg862Ja.s 			page 27


 1470 005c 19000000 		.word	25
 1471 0060 00000000 		.word	0
 1472              		.section	.rodata.CSWTCH.7,"a",%progbits
 1473              		.align	2
 1474              		.set	.LANCHOR1,. + 0
 1475              		.type	CSWTCH.7, %object
 1476              		.size	CSWTCH.7, 96
 1477              	CSWTCH.7:
 1478 0000 00000000 		.word	aes_128_cbc_info
 1479 0004 00000000 		.word	aes_192_cbc_info
 1480 0008 00000000 		.word	aes_256_cbc_info
 1481 000c 00000000 		.word	aes_128_cfb128_info
 1482 0010 00000000 		.word	aes_192_cfb128_info
 1483 0014 00000000 		.word	aes_256_cfb128_info
 1484 0018 00000000 		.word	aes_128_ctr_info
 1485 001c 00000000 		.word	aes_192_ctr_info
 1486 0020 00000000 		.word	aes_256_ctr_info
 1487 0024 00000000 		.word	camellia_128_cbc_info
 1488 0028 00000000 		.word	camellia_192_cbc_info
 1489 002c 00000000 		.word	camellia_256_cbc_info
 1490 0030 00000000 		.word	camellia_128_cfb128_info
 1491 0034 00000000 		.word	camellia_192_cfb128_info
 1492 0038 00000000 		.word	camellia_256_cfb128_info
 1493 003c 00000000 		.word	camellia_128_ctr_info
 1494 0040 00000000 		.word	camellia_192_ctr_info
 1495 0044 00000000 		.word	camellia_256_ctr_info
 1496 0048 00000000 		.word	des_cbc_info
 1497 004c 00000000 		.word	des_ede_cbc_info
 1498 0050 00000000 		.word	des_ede3_cbc_info
 1499 0054 00000000 		.word	blowfish_cbc_info
 1500 0058 00000000 		.word	blowfish_cfb64_info
 1501 005c 00000000 		.word	blowfish_ctr_info
 1502              		.section	.rodata.str1.4,"aMS",%progbits,1
 1503              		.align	2
 1504              	.LC0:
 1505 0000 43414D45 		.ascii	"CAMELLIA-128-CBC\000"
 1505      4C4C4941 
 1505      2D313238 
 1505      2D434243 
 1505      00
 1506 0011 000000   		.space	3
 1507              	.LC1:
 1508 0014 43414D45 		.ascii	"CAMELLIA-192-CBC\000"
 1508      4C4C4941 
 1508      2D313932 
 1508      2D434243 
 1508      00
 1509 0025 000000   		.space	3
 1510              	.LC2:
 1511 0028 43414D45 		.ascii	"CAMELLIA-256-CBC\000"
 1511      4C4C4941 
 1511      2D323536 
 1511      2D434243 
 1511      00
 1512 0039 000000   		.space	3
 1513              	.LC3:
 1514 003c 43414D45 		.ascii	"CAMELLIA-128-CFB128\000"
ARM GAS  C:\Users\jo\AppData\Local\Temp\ccg862Ja.s 			page 28


 1514      4C4C4941 
 1514      2D313238 
 1514      2D434642 
 1514      31323800 
 1515              	.LC4:
 1516 0050 43414D45 		.ascii	"CAMELLIA-192-CFB128\000"
 1516      4C4C4941 
 1516      2D313932 
 1516      2D434642 
 1516      31323800 
 1517              	.LC5:
 1518 0064 43414D45 		.ascii	"CAMELLIA-256-CFB128\000"
 1518      4C4C4941 
 1518      2D323536 
 1518      2D434642 
 1518      31323800 
 1519              	.LC6:
 1520 0078 43414D45 		.ascii	"CAMELLIA-128-CTR\000"
 1520      4C4C4941 
 1520      2D313238 
 1520      2D435452 
 1520      00
 1521 0089 000000   		.space	3
 1522              	.LC7:
 1523 008c 43414D45 		.ascii	"CAMELLIA-192-CTR\000"
 1523      4C4C4941 
 1523      2D313932 
 1523      2D435452 
 1523      00
 1524 009d 000000   		.space	3
 1525              	.LC8:
 1526 00a0 43414D45 		.ascii	"CAMELLIA-256-CTR\000"
 1526      4C4C4941 
 1526      2D323536 
 1526      2D435452 
 1526      00
 1527 00b1 000000   		.space	3
 1528              	.LC9:
 1529 00b4 4145532D 		.ascii	"AES-128-CBC\000"
 1529      3132382D 
 1529      43424300 
 1530              	.LC10:
 1531 00c0 4145532D 		.ascii	"AES-192-CBC\000"
 1531      3139322D 
 1531      43424300 
 1532              	.LC11:
 1533 00cc 4145532D 		.ascii	"AES-256-CBC\000"
 1533      3235362D 
 1533      43424300 
 1534              	.LC12:
 1535 00d8 4145532D 		.ascii	"AES-128-CFB128\000"
 1535      3132382D 
 1535      43464231 
 1535      323800
 1536 00e7 00       		.space	1
 1537              	.LC13:
 1538 00e8 4145532D 		.ascii	"AES-192-CFB128\000"
ARM GAS  C:\Users\jo\AppData\Local\Temp\ccg862Ja.s 			page 29


 1538      3139322D 
 1538      43464231 
 1538      323800
 1539 00f7 00       		.space	1
 1540              	.LC14:
 1541 00f8 4145532D 		.ascii	"AES-256-CFB128\000"
 1541      3235362D 
 1541      43464231 
 1541      323800
 1542 0107 00       		.space	1
 1543              	.LC15:
 1544 0108 4145532D 		.ascii	"AES-128-CTR\000"
 1544      3132382D 
 1544      43545200 
 1545              	.LC16:
 1546 0114 4145532D 		.ascii	"AES-192-CTR\000"
 1546      3139322D 
 1546      43545200 
 1547              	.LC17:
 1548 0120 4145532D 		.ascii	"AES-256-CTR\000"
 1548      3235362D 
 1548      43545200 
 1549              	.LC18:
 1550 012c 4445532D 		.ascii	"DES-CBC\000"
 1550      43424300 
 1551              	.LC19:
 1552 0134 4445532D 		.ascii	"DES-EDE-CBC\000"
 1552      4544452D 
 1552      43424300 
 1553              	.LC20:
 1554 0140 4445532D 		.ascii	"DES-EDE3-CBC\000"
 1554      45444533 
 1554      2D434243 
 1554      00
 1555 014d 000000   		.space	3
 1556              	.LC21:
 1557 0150 424C4F57 		.ascii	"BLOWFISH-CBC\000"
 1557      46495348 
 1557      2D434243 
 1557      00
 1558 015d 000000   		.space	3
 1559              	.LC22:
 1560 0160 424C4F57 		.ascii	"BLOWFISH-CFB64\000"
 1560      46495348 
 1560      2D434642 
 1560      363400
 1561 016f 00       		.space	1
 1562              	.LC23:
 1563 0170 424C4F57 		.ascii	"BLOWFISH-CTR\000"
 1563      46495348 
 1563      2D435452 
 1563      00
 1564 017d 000000   		.text
 1565              	.Letext0:
 1566              		.file 3 "c:\\program files\\gnu tools arm embedded\\4.9 2014q4\\lib\\gcc\\arm-none-eabi\\4.9.3\\in
 1567              		.file 4 "../../../demos/STM32/RT-STM32F407-DISCOVERY-uHttp/uhttp-1.1/PolarSSL/include/polarssl/cip
 1568              		.file 5 "c:\\program files\\gnu tools arm embedded\\4.9 2014q4\\arm-none-eabi\\include\\string.h"
ARM GAS  C:\Users\jo\AppData\Local\Temp\ccg862Ja.s 			page 30

