ARM GAS  C:\Users\jo\AppData\Local\Temp\ccK3rCVc.s 			page 1


   1              		.syntax unified
   2              		.cpu cortex-m4
   3              		.fpu softvfp
   4              		.eabi_attribute 20, 1
   5              		.eabi_attribute 21, 1
   6              		.eabi_attribute 23, 3
   7              		.eabi_attribute 24, 1
   8              		.eabi_attribute 25, 1
   9              		.eabi_attribute 26, 1
  10              		.eabi_attribute 30, 2
  11              		.eabi_attribute 34, 1
  12              		.eabi_attribute 18, 4
  13              		.thumb
  14              		.file	"cipher_wrap.c"
  15              		.text
  16              	.Ltext0:
  17              		.cfi_sections	.debug_frame
  18              		.section	.text.des_crypt_cfb128_wrap,"ax",%progbits
  19              		.align	2
  20              		.p2align 4,,15
  21              		.global	des_crypt_cfb128_wrap
  22              		.thumb
  23              		.thumb_func
  24              		.type	des_crypt_cfb128_wrap, %function
  25              	des_crypt_cfb128_wrap:
  26              	.LFB23:
  27              		.file 1 "../../../os/ext/PolarSSL/library/cipher_wrap.c"
  28              		.loc 1 416 0
  29              		.cfi_startproc
  30              		@ args = 12, pretend = 0, frame = 0
  31              		@ frame_needed = 0, uses_anonymous_args = 0
  32              		@ link register save eliminated.
  33              	.LVL0:
  34              		.loc 1 426 0
  35 0000 0048     		ldr	r0, .L2
  36              	.LVL1:
  37 0002 7047     		bx	lr
  38              	.L3:
  39              		.align	2
  40              	.L2:
  41 0004 809FFFFF 		.word	-24704
  42              		.cfi_endproc
  43              	.LFE23:
  44              		.size	des_crypt_cfb128_wrap, .-des_crypt_cfb128_wrap
  45 0008 AFF30080 		.section	.text.des_crypt_ctr_wrap,"ax",%progbits
  45      AFF30080 
  46              		.align	2
  47              		.p2align 4,,15
  48              		.global	des_crypt_ctr_wrap
  49              		.thumb
  50              		.thumb_func
  51              		.type	des_crypt_ctr_wrap, %function
  52              	des_crypt_ctr_wrap:
  53              	.LFB24:
  54              		.loc 1 431 0
  55              		.cfi_startproc
  56              		@ args = 12, pretend = 0, frame = 0
ARM GAS  C:\Users\jo\AppData\Local\Temp\ccK3rCVc.s 			page 2


  57              		@ frame_needed = 0, uses_anonymous_args = 0
  58              		@ link register save eliminated.
  59              	.LVL2:
  60              		.loc 1 441 0
  61 0000 0048     		ldr	r0, .L5
  62              	.LVL3:
  63 0002 7047     		bx	lr
  64              	.L6:
  65              		.align	2
  66              	.L5:
  67 0004 809FFFFF 		.word	-24704
  68              		.cfi_endproc
  69              	.LFE24:
  70              		.size	des_crypt_ctr_wrap, .-des_crypt_ctr_wrap
  71 0008 AFF30080 		.section	.text.aes_crypt_cbc_wrap,"ax",%progbits
  71      AFF30080 
  72              		.align	2
  73              		.p2align 4,,15
  74              		.global	aes_crypt_cbc_wrap
  75              		.thumb
  76              		.thumb_func
  77              		.type	aes_crypt_cbc_wrap, %function
  78              	aes_crypt_cbc_wrap:
  79              	.LFB7:
  80              		.loc 1 58 0
  81              		.cfi_startproc
  82              		@ args = 8, pretend = 0, frame = 0
  83              		@ frame_needed = 0, uses_anonymous_args = 0
  84              		@ link register save eliminated.
  85              	.LVL4:
  86 0000 10B4     		push	{r4}
  87              		.cfi_def_cfa_offset 4
  88              		.cfi_offset 4, -4
  89              		.loc 1 60 0
  90 0002 5DF8044B 		ldr	r4, [sp], #4
  91              		.cfi_restore 4
  92              		.cfi_def_cfa_offset 0
  93              	.LVL5:
  94              		.loc 1 59 0
  95 0006 FFF7FEBF 		b	aes_crypt_cbc
  96              	.LVL6:
  97              		.cfi_endproc
  98              	.LFE7:
  99              		.size	aes_crypt_cbc_wrap, .-aes_crypt_cbc_wrap
 100 000a 00BFAFF3 		.section	.text.aes_crypt_cfb128_wrap,"ax",%progbits
 100      0080
 101              		.align	2
 102              		.p2align 4,,15
 103              		.global	aes_crypt_cfb128_wrap
 104              		.thumb
 105              		.thumb_func
 106              		.type	aes_crypt_cfb128_wrap, %function
 107              	aes_crypt_cfb128_wrap:
 108              	.LFB8:
 109              		.loc 1 64 0
 110              		.cfi_startproc
 111              		@ args = 12, pretend = 0, frame = 0
ARM GAS  C:\Users\jo\AppData\Local\Temp\ccK3rCVc.s 			page 3


 112              		@ frame_needed = 0, uses_anonymous_args = 0
 113              		@ link register save eliminated.
 114              	.LVL7:
 115 0000 30B4     		push	{r4, r5}
 116              		.cfi_def_cfa_offset 8
 117              		.cfi_offset 4, -8
 118              		.cfi_offset 5, -4
 119              		.loc 1 78 0
 120 0002 30BC     		pop	{r4, r5}
 121              		.cfi_restore 5
 122              		.cfi_restore 4
 123              		.cfi_def_cfa_offset 0
 124              	.LVL8:
 125              		.loc 1 66 0
 126 0004 FFF7FEBF 		b	aes_crypt_cfb128
 127              	.LVL9:
 128              		.cfi_endproc
 129              	.LFE8:
 130              		.size	aes_crypt_cfb128_wrap, .-aes_crypt_cfb128_wrap
 131 0008 AFF30080 		.section	.text.aes_crypt_ctr_wrap,"ax",%progbits
 131      AFF30080 
 132              		.align	2
 133              		.p2align 4,,15
 134              		.global	aes_crypt_ctr_wrap
 135              		.thumb
 136              		.thumb_func
 137              		.type	aes_crypt_ctr_wrap, %function
 138              	aes_crypt_ctr_wrap:
 139              	.LFB9:
 140              		.loc 1 83 0
 141              		.cfi_startproc
 142              		@ args = 12, pretend = 0, frame = 0
 143              		@ frame_needed = 0, uses_anonymous_args = 0
 144              		@ link register save eliminated.
 145              	.LVL10:
 146 0000 30B4     		push	{r4, r5}
 147              		.cfi_def_cfa_offset 8
 148              		.cfi_offset 4, -8
 149              		.cfi_offset 5, -4
 150              		.loc 1 98 0
 151 0002 30BC     		pop	{r4, r5}
 152              		.cfi_restore 5
 153              		.cfi_restore 4
 154              		.cfi_def_cfa_offset 0
 155              	.LVL11:
 156              		.loc 1 85 0
 157 0004 FFF7FEBF 		b	aes_crypt_ctr
 158              	.LVL12:
 159              		.cfi_endproc
 160              	.LFE9:
 161              		.size	aes_crypt_ctr_wrap, .-aes_crypt_ctr_wrap
 162 0008 AFF30080 		.section	.text.aes_setkey_dec_wrap,"ax",%progbits
 162      AFF30080 
 163              		.align	2
 164              		.p2align 4,,15
 165              		.global	aes_setkey_dec_wrap
 166              		.thumb
ARM GAS  C:\Users\jo\AppData\Local\Temp\ccK3rCVc.s 			page 4


 167              		.thumb_func
 168              		.type	aes_setkey_dec_wrap, %function
 169              	aes_setkey_dec_wrap:
 170              	.LFB10:
 171              		.loc 1 101 0
 172              		.cfi_startproc
 173              		@ args = 0, pretend = 0, frame = 0
 174              		@ frame_needed = 0, uses_anonymous_args = 0
 175              		@ link register save eliminated.
 176              	.LVL13:
 177              		.loc 1 102 0
 178 0000 FFF7FEBF 		b	aes_setkey_dec
 179              	.LVL14:
 180              		.cfi_endproc
 181              	.LFE10:
 182              		.size	aes_setkey_dec_wrap, .-aes_setkey_dec_wrap
 183 0004 AFF30080 		.section	.text.aes_setkey_enc_wrap,"ax",%progbits
 183      AFF30080 
 183      AFF30080 
 184              		.align	2
 185              		.p2align 4,,15
 186              		.global	aes_setkey_enc_wrap
 187              		.thumb
 188              		.thumb_func
 189              		.type	aes_setkey_enc_wrap, %function
 190              	aes_setkey_enc_wrap:
 191              	.LFB11:
 192              		.loc 1 106 0
 193              		.cfi_startproc
 194              		@ args = 0, pretend = 0, frame = 0
 195              		@ frame_needed = 0, uses_anonymous_args = 0
 196              		@ link register save eliminated.
 197              	.LVL15:
 198              		.loc 1 107 0
 199 0000 FFF7FEBF 		b	aes_setkey_enc
 200              	.LVL16:
 201              		.cfi_endproc
 202              	.LFE11:
 203              		.size	aes_setkey_enc_wrap, .-aes_setkey_enc_wrap
 204 0004 AFF30080 		.section	.text.aes_ctx_free,"ax",%progbits
 204      AFF30080 
 204      AFF30080 
 205              		.align	2
 206              		.p2align 4,,15
 207              		.thumb
 208              		.thumb_func
 209              		.type	aes_ctx_free, %function
 210              	aes_ctx_free:
 211              	.LFB13:
 212              		.loc 1 116 0
 213              		.cfi_startproc
 214              		@ args = 0, pretend = 0, frame = 0
 215              		@ frame_needed = 0, uses_anonymous_args = 0
 216              		@ link register save eliminated.
 217              	.LVL17:
 218              		.loc 1 117 0
 219 0000 FFF7FEBF 		b	free
ARM GAS  C:\Users\jo\AppData\Local\Temp\ccK3rCVc.s 			page 5


 220              	.LVL18:
 221              		.cfi_endproc
 222              	.LFE13:
 223              		.size	aes_ctx_free, .-aes_ctx_free
 224 0004 AFF30080 		.section	.text.camellia_ctx_free,"ax",%progbits
 224      AFF30080 
 224      AFF30080 
 225              		.align	2
 226              		.p2align 4,,15
 227              		.thumb
 228              		.thumb_func
 229              		.type	camellia_ctx_free, %function
 230              	camellia_ctx_free:
 231              	.LFB20:
 232              		.loc 1 289 0
 233              		.cfi_startproc
 234              		@ args = 0, pretend = 0, frame = 0
 235              		@ frame_needed = 0, uses_anonymous_args = 0
 236              		@ link register save eliminated.
 237              	.LVL19:
 238              		.loc 1 290 0
 239 0000 FFF7FEBF 		b	free
 240              	.LVL20:
 241              		.cfi_endproc
 242              	.LFE20:
 243              		.size	camellia_ctx_free, .-camellia_ctx_free
 244 0004 AFF30080 		.section	.text.des_ctx_free,"ax",%progbits
 244      AFF30080 
 244      AFF30080 
 245              		.align	2
 246              		.p2align 4,,15
 247              		.thumb
 248              		.thumb_func
 249              		.type	des_ctx_free, %function
 250              	des_ctx_free:
 251              	.LFB33:
 252              		.loc 1 497 0
 253              		.cfi_startproc
 254              		@ args = 0, pretend = 0, frame = 0
 255              		@ frame_needed = 0, uses_anonymous_args = 0
 256              		@ link register save eliminated.
 257              	.LVL21:
 258              		.loc 1 498 0
 259 0000 FFF7FEBF 		b	free
 260              	.LVL22:
 261              		.cfi_endproc
 262              	.LFE33:
 263              		.size	des_ctx_free, .-des_ctx_free
 264 0004 AFF30080 		.section	.text.blowfish_ctx_free,"ax",%progbits
 264      AFF30080 
 264      AFF30080 
 265              		.align	2
 266              		.p2align 4,,15
 267              		.thumb
 268              		.thumb_func
 269              		.type	blowfish_ctx_free, %function
 270              	blowfish_ctx_free:
ARM GAS  C:\Users\jo\AppData\Local\Temp\ccK3rCVc.s 			page 6


 271              	.LFB40:
 272              		.loc 1 627 0
 273              		.cfi_startproc
 274              		@ args = 0, pretend = 0, frame = 0
 275              		@ frame_needed = 0, uses_anonymous_args = 0
 276              		@ link register save eliminated.
 277              	.LVL23:
 278              		.loc 1 628 0
 279 0000 FFF7FEBF 		b	free
 280              	.LVL24:
 281              		.cfi_endproc
 282              	.LFE40:
 283              		.size	blowfish_ctx_free, .-blowfish_ctx_free
 284 0004 AFF30080 		.section	.text.aes_ctx_alloc,"ax",%progbits
 284      AFF30080 
 284      AFF30080 
 285              		.align	2
 286              		.p2align 4,,15
 287              		.thumb
 288              		.thumb_func
 289              		.type	aes_ctx_alloc, %function
 290              	aes_ctx_alloc:
 291              	.LFB12:
 292              		.loc 1 111 0
 293              		.cfi_startproc
 294              		@ args = 0, pretend = 0, frame = 0
 295              		@ frame_needed = 0, uses_anonymous_args = 0
 296              		@ link register save eliminated.
 297              		.loc 1 112 0
 298 0000 4FF48C70 		mov	r0, #280
 299 0004 FFF7FEBF 		b	malloc
 300              	.LVL25:
 301              		.cfi_endproc
 302              	.LFE12:
 303              		.size	aes_ctx_alloc, .-aes_ctx_alloc
 304 0008 AFF30080 		.section	.text.camellia_ctx_alloc,"ax",%progbits
 304      AFF30080 
 305              		.align	2
 306              		.p2align 4,,15
 307              		.thumb
 308              		.thumb_func
 309              		.type	camellia_ctx_alloc, %function
 310              	camellia_ctx_alloc:
 311              	.LFB19:
 312              		.loc 1 284 0
 313              		.cfi_startproc
 314              		@ args = 0, pretend = 0, frame = 0
 315              		@ frame_needed = 0, uses_anonymous_args = 0
 316              		@ link register save eliminated.
 317              		.loc 1 285 0
 318 0000 4FF48A70 		mov	r0, #276
 319 0004 FFF7FEBF 		b	malloc
 320              	.LVL26:
 321              		.cfi_endproc
 322              	.LFE19:
 323              		.size	camellia_ctx_alloc, .-camellia_ctx_alloc
 324 0008 AFF30080 		.section	.text.des_ctx_alloc,"ax",%progbits
ARM GAS  C:\Users\jo\AppData\Local\Temp\ccK3rCVc.s 			page 7


 324      AFF30080 
 325              		.align	2
 326              		.p2align 4,,15
 327              		.thumb
 328              		.thumb_func
 329              		.type	des_ctx_alloc, %function
 330              	des_ctx_alloc:
 331              	.LFB31:
 332              		.loc 1 487 0
 333              		.cfi_startproc
 334              		@ args = 0, pretend = 0, frame = 0
 335              		@ frame_needed = 0, uses_anonymous_args = 0
 336              		@ link register save eliminated.
 337              		.loc 1 488 0
 338 0000 8420     		movs	r0, #132
 339 0002 FFF7FEBF 		b	malloc
 340              	.LVL27:
 341              		.cfi_endproc
 342              	.LFE31:
 343              		.size	des_ctx_alloc, .-des_ctx_alloc
 344 0006 00BFAFF3 		.section	.text.des3_ctx_alloc,"ax",%progbits
 344      0080AFF3 
 344      0080
 345              		.align	2
 346              		.p2align 4,,15
 347              		.thumb
 348              		.thumb_func
 349              		.type	des3_ctx_alloc, %function
 350              	des3_ctx_alloc:
 351              	.LFB32:
 352              		.loc 1 492 0
 353              		.cfi_startproc
 354              		@ args = 0, pretend = 0, frame = 0
 355              		@ frame_needed = 0, uses_anonymous_args = 0
 356              		@ link register save eliminated.
 357              		.loc 1 493 0
 358 0000 4FF4C270 		mov	r0, #388
 359 0004 FFF7FEBF 		b	malloc
 360              	.LVL28:
 361              		.cfi_endproc
 362              	.LFE32:
 363              		.size	des3_ctx_alloc, .-des3_ctx_alloc
 364 0008 AFF30080 		.section	.text.blowfish_ctx_alloc,"ax",%progbits
 364      AFF30080 
 365              		.align	2
 366              		.p2align 4,,15
 367              		.thumb
 368              		.thumb_func
 369              		.type	blowfish_ctx_alloc, %function
 370              	blowfish_ctx_alloc:
 371              	.LFB39:
 372              		.loc 1 622 0
 373              		.cfi_startproc
 374              		@ args = 0, pretend = 0, frame = 0
 375              		@ frame_needed = 0, uses_anonymous_args = 0
 376              		@ link register save eliminated.
 377              		.loc 1 623 0
ARM GAS  C:\Users\jo\AppData\Local\Temp\ccK3rCVc.s 			page 8


 378 0000 41F24800 		movw	r0, #4168
 379 0004 FFF7FEBF 		b	malloc
 380              	.LVL29:
 381              		.cfi_endproc
 382              	.LFE39:
 383              		.size	blowfish_ctx_alloc, .-blowfish_ctx_alloc
 384 0008 AFF30080 		.section	.text.camellia_crypt_cbc_wrap,"ax",%progbits
 384      AFF30080 
 385              		.align	2
 386              		.p2align 4,,15
 387              		.global	camellia_crypt_cbc_wrap
 388              		.thumb
 389              		.thumb_func
 390              		.type	camellia_crypt_cbc_wrap, %function
 391              	camellia_crypt_cbc_wrap:
 392              	.LFB14:
 393              		.loc 1 231 0
 394              		.cfi_startproc
 395              		@ args = 8, pretend = 0, frame = 0
 396              		@ frame_needed = 0, uses_anonymous_args = 0
 397              		@ link register save eliminated.
 398              	.LVL30:
 399 0000 10B4     		push	{r4}
 400              		.cfi_def_cfa_offset 4
 401              		.cfi_offset 4, -4
 402              		.loc 1 233 0
 403 0002 5DF8044B 		ldr	r4, [sp], #4
 404              		.cfi_restore 4
 405              		.cfi_def_cfa_offset 0
 406              	.LVL31:
 407              		.loc 1 232 0
 408 0006 FFF7FEBF 		b	camellia_crypt_cbc
 409              	.LVL32:
 410              		.cfi_endproc
 411              	.LFE14:
 412              		.size	camellia_crypt_cbc_wrap, .-camellia_crypt_cbc_wrap
 413 000a 00BFAFF3 		.section	.text.camellia_crypt_cfb128_wrap,"ax",%progbits
 413      0080
 414              		.align	2
 415              		.p2align 4,,15
 416              		.global	camellia_crypt_cfb128_wrap
 417              		.thumb
 418              		.thumb_func
 419              		.type	camellia_crypt_cfb128_wrap, %function
 420              	camellia_crypt_cfb128_wrap:
 421              	.LFB15:
 422              		.loc 1 237 0
 423              		.cfi_startproc
 424              		@ args = 12, pretend = 0, frame = 0
 425              		@ frame_needed = 0, uses_anonymous_args = 0
 426              		@ link register save eliminated.
 427              	.LVL33:
 428 0000 30B4     		push	{r4, r5}
 429              		.cfi_def_cfa_offset 8
 430              		.cfi_offset 4, -8
 431              		.cfi_offset 5, -4
 432              		.loc 1 251 0
ARM GAS  C:\Users\jo\AppData\Local\Temp\ccK3rCVc.s 			page 9


 433 0002 30BC     		pop	{r4, r5}
 434              		.cfi_restore 5
 435              		.cfi_restore 4
 436              		.cfi_def_cfa_offset 0
 437              	.LVL34:
 438              		.loc 1 239 0
 439 0004 FFF7FEBF 		b	camellia_crypt_cfb128
 440              	.LVL35:
 441              		.cfi_endproc
 442              	.LFE15:
 443              		.size	camellia_crypt_cfb128_wrap, .-camellia_crypt_cfb128_wrap
 444 0008 AFF30080 		.section	.text.camellia_crypt_ctr_wrap,"ax",%progbits
 444      AFF30080 
 445              		.align	2
 446              		.p2align 4,,15
 447              		.global	camellia_crypt_ctr_wrap
 448              		.thumb
 449              		.thumb_func
 450              		.type	camellia_crypt_ctr_wrap, %function
 451              	camellia_crypt_ctr_wrap:
 452              	.LFB16:
 453              		.loc 1 256 0
 454              		.cfi_startproc
 455              		@ args = 12, pretend = 0, frame = 0
 456              		@ frame_needed = 0, uses_anonymous_args = 0
 457              		@ link register save eliminated.
 458              	.LVL36:
 459 0000 30B4     		push	{r4, r5}
 460              		.cfi_def_cfa_offset 8
 461              		.cfi_offset 4, -8
 462              		.cfi_offset 5, -4
 463              		.loc 1 271 0
 464 0002 30BC     		pop	{r4, r5}
 465              		.cfi_restore 5
 466              		.cfi_restore 4
 467              		.cfi_def_cfa_offset 0
 468              	.LVL37:
 469              		.loc 1 258 0
 470 0004 FFF7FEBF 		b	camellia_crypt_ctr
 471              	.LVL38:
 472              		.cfi_endproc
 473              	.LFE16:
 474              		.size	camellia_crypt_ctr_wrap, .-camellia_crypt_ctr_wrap
 475 0008 AFF30080 		.section	.text.camellia_setkey_dec_wrap,"ax",%progbits
 475      AFF30080 
 476              		.align	2
 477              		.p2align 4,,15
 478              		.global	camellia_setkey_dec_wrap
 479              		.thumb
 480              		.thumb_func
 481              		.type	camellia_setkey_dec_wrap, %function
 482              	camellia_setkey_dec_wrap:
 483              	.LFB17:
 484              		.loc 1 274 0
 485              		.cfi_startproc
 486              		@ args = 0, pretend = 0, frame = 0
 487              		@ frame_needed = 0, uses_anonymous_args = 0
ARM GAS  C:\Users\jo\AppData\Local\Temp\ccK3rCVc.s 			page 10


 488              		@ link register save eliminated.
 489              	.LVL39:
 490              		.loc 1 275 0
 491 0000 FFF7FEBF 		b	camellia_setkey_dec
 492              	.LVL40:
 493              		.cfi_endproc
 494              	.LFE17:
 495              		.size	camellia_setkey_dec_wrap, .-camellia_setkey_dec_wrap
 496 0004 AFF30080 		.section	.text.camellia_setkey_enc_wrap,"ax",%progbits
 496      AFF30080 
 496      AFF30080 
 497              		.align	2
 498              		.p2align 4,,15
 499              		.global	camellia_setkey_enc_wrap
 500              		.thumb
 501              		.thumb_func
 502              		.type	camellia_setkey_enc_wrap, %function
 503              	camellia_setkey_enc_wrap:
 504              	.LFB18:
 505              		.loc 1 279 0
 506              		.cfi_startproc
 507              		@ args = 0, pretend = 0, frame = 0
 508              		@ frame_needed = 0, uses_anonymous_args = 0
 509              		@ link register save eliminated.
 510              	.LVL41:
 511              		.loc 1 280 0
 512 0000 FFF7FEBF 		b	camellia_setkey_enc
 513              	.LVL42:
 514              		.cfi_endproc
 515              	.LFE18:
 516              		.size	camellia_setkey_enc_wrap, .-camellia_setkey_enc_wrap
 517 0004 AFF30080 		.section	.text.des_crypt_cbc_wrap,"ax",%progbits
 517      AFF30080 
 517      AFF30080 
 518              		.align	2
 519              		.p2align 4,,15
 520              		.global	des_crypt_cbc_wrap
 521              		.thumb
 522              		.thumb_func
 523              		.type	des_crypt_cbc_wrap, %function
 524              	des_crypt_cbc_wrap:
 525              	.LFB21:
 526              		.loc 1 404 0
 527              		.cfi_startproc
 528              		@ args = 8, pretend = 0, frame = 0
 529              		@ frame_needed = 0, uses_anonymous_args = 0
 530              		@ link register save eliminated.
 531              	.LVL43:
 532 0000 10B4     		push	{r4}
 533              		.cfi_def_cfa_offset 4
 534              		.cfi_offset 4, -4
 535              		.loc 1 406 0
 536 0002 5DF8044B 		ldr	r4, [sp], #4
 537              		.cfi_restore 4
 538              		.cfi_def_cfa_offset 0
 539              	.LVL44:
 540              		.loc 1 405 0
ARM GAS  C:\Users\jo\AppData\Local\Temp\ccK3rCVc.s 			page 11


 541 0006 FFF7FEBF 		b	des_crypt_cbc
 542              	.LVL45:
 543              		.cfi_endproc
 544              	.LFE21:
 545              		.size	des_crypt_cbc_wrap, .-des_crypt_cbc_wrap
 546 000a 00BFAFF3 		.section	.text.des3_crypt_cbc_wrap,"ax",%progbits
 546      0080
 547              		.align	2
 548              		.p2align 4,,15
 549              		.global	des3_crypt_cbc_wrap
 550              		.thumb
 551              		.thumb_func
 552              		.type	des3_crypt_cbc_wrap, %function
 553              	des3_crypt_cbc_wrap:
 554              	.LFB22:
 555              		.loc 1 410 0
 556              		.cfi_startproc
 557              		@ args = 8, pretend = 0, frame = 0
 558              		@ frame_needed = 0, uses_anonymous_args = 0
 559              		@ link register save eliminated.
 560              	.LVL46:
 561 0000 10B4     		push	{r4}
 562              		.cfi_def_cfa_offset 4
 563              		.cfi_offset 4, -4
 564              		.loc 1 412 0
 565 0002 5DF8044B 		ldr	r4, [sp], #4
 566              		.cfi_restore 4
 567              		.cfi_def_cfa_offset 0
 568              	.LVL47:
 569              		.loc 1 411 0
 570 0006 FFF7FEBF 		b	des3_crypt_cbc
 571              	.LVL48:
 572              		.cfi_endproc
 573              	.LFE22:
 574              		.size	des3_crypt_cbc_wrap, .-des3_crypt_cbc_wrap
 575 000a 00BFAFF3 		.section	.text.des_setkey_dec_wrap,"ax",%progbits
 575      0080
 576              		.align	2
 577              		.p2align 4,,15
 578              		.global	des_setkey_dec_wrap
 579              		.thumb
 580              		.thumb_func
 581              		.type	des_setkey_dec_wrap, %function
 582              	des_setkey_dec_wrap:
 583              	.LFB25:
 584              		.loc 1 445 0
 585              		.cfi_startproc
 586              		@ args = 0, pretend = 0, frame = 0
 587              		@ frame_needed = 0, uses_anonymous_args = 0
 588              		@ link register save eliminated.
 589              	.LVL49:
 590              		.loc 1 448 0
 591 0000 FFF7FEBF 		b	des_setkey_dec
 592              	.LVL50:
 593              		.cfi_endproc
 594              	.LFE25:
 595              		.size	des_setkey_dec_wrap, .-des_setkey_dec_wrap
ARM GAS  C:\Users\jo\AppData\Local\Temp\ccK3rCVc.s 			page 12


 596 0004 AFF30080 		.section	.text.des_setkey_enc_wrap,"ax",%progbits
 596      AFF30080 
 596      AFF30080 
 597              		.align	2
 598              		.p2align 4,,15
 599              		.global	des_setkey_enc_wrap
 600              		.thumb
 601              		.thumb_func
 602              		.type	des_setkey_enc_wrap, %function
 603              	des_setkey_enc_wrap:
 604              	.LFB26:
 605              		.loc 1 452 0
 606              		.cfi_startproc
 607              		@ args = 0, pretend = 0, frame = 0
 608              		@ frame_needed = 0, uses_anonymous_args = 0
 609              		@ link register save eliminated.
 610              	.LVL51:
 611              		.loc 1 455 0
 612 0000 FFF7FEBF 		b	des_setkey_enc
 613              	.LVL52:
 614              		.cfi_endproc
 615              	.LFE26:
 616              		.size	des_setkey_enc_wrap, .-des_setkey_enc_wrap
 617 0004 AFF30080 		.section	.text.des3_set2key_dec_wrap,"ax",%progbits
 617      AFF30080 
 617      AFF30080 
 618              		.align	2
 619              		.p2align 4,,15
 620              		.global	des3_set2key_dec_wrap
 621              		.thumb
 622              		.thumb_func
 623              		.type	des3_set2key_dec_wrap, %function
 624              	des3_set2key_dec_wrap:
 625              	.LFB27:
 626              		.loc 1 459 0
 627              		.cfi_startproc
 628              		@ args = 0, pretend = 0, frame = 0
 629              		@ frame_needed = 0, uses_anonymous_args = 0
 630              		@ link register save eliminated.
 631              	.LVL53:
 632              		.loc 1 462 0
 633 0000 FFF7FEBF 		b	des3_set2key_dec
 634              	.LVL54:
 635              		.cfi_endproc
 636              	.LFE27:
 637              		.size	des3_set2key_dec_wrap, .-des3_set2key_dec_wrap
 638 0004 AFF30080 		.section	.text.des3_set2key_enc_wrap,"ax",%progbits
 638      AFF30080 
 638      AFF30080 
 639              		.align	2
 640              		.p2align 4,,15
 641              		.global	des3_set2key_enc_wrap
 642              		.thumb
 643              		.thumb_func
 644              		.type	des3_set2key_enc_wrap, %function
 645              	des3_set2key_enc_wrap:
 646              	.LFB28:
ARM GAS  C:\Users\jo\AppData\Local\Temp\ccK3rCVc.s 			page 13


 647              		.loc 1 466 0
 648              		.cfi_startproc
 649              		@ args = 0, pretend = 0, frame = 0
 650              		@ frame_needed = 0, uses_anonymous_args = 0
 651              		@ link register save eliminated.
 652              	.LVL55:
 653              		.loc 1 469 0
 654 0000 FFF7FEBF 		b	des3_set2key_enc
 655              	.LVL56:
 656              		.cfi_endproc
 657              	.LFE28:
 658              		.size	des3_set2key_enc_wrap, .-des3_set2key_enc_wrap
 659 0004 AFF30080 		.section	.text.des3_set3key_dec_wrap,"ax",%progbits
 659      AFF30080 
 659      AFF30080 
 660              		.align	2
 661              		.p2align 4,,15
 662              		.global	des3_set3key_dec_wrap
 663              		.thumb
 664              		.thumb_func
 665              		.type	des3_set3key_dec_wrap, %function
 666              	des3_set3key_dec_wrap:
 667              	.LFB29:
 668              		.loc 1 473 0
 669              		.cfi_startproc
 670              		@ args = 0, pretend = 0, frame = 0
 671              		@ frame_needed = 0, uses_anonymous_args = 0
 672              		@ link register save eliminated.
 673              	.LVL57:
 674              		.loc 1 476 0
 675 0000 FFF7FEBF 		b	des3_set3key_dec
 676              	.LVL58:
 677              		.cfi_endproc
 678              	.LFE29:
 679              		.size	des3_set3key_dec_wrap, .-des3_set3key_dec_wrap
 680 0004 AFF30080 		.section	.text.des3_set3key_enc_wrap,"ax",%progbits
 680      AFF30080 
 680      AFF30080 
 681              		.align	2
 682              		.p2align 4,,15
 683              		.global	des3_set3key_enc_wrap
 684              		.thumb
 685              		.thumb_func
 686              		.type	des3_set3key_enc_wrap, %function
 687              	des3_set3key_enc_wrap:
 688              	.LFB30:
 689              		.loc 1 480 0
 690              		.cfi_startproc
 691              		@ args = 0, pretend = 0, frame = 0
 692              		@ frame_needed = 0, uses_anonymous_args = 0
 693              		@ link register save eliminated.
 694              	.LVL59:
 695              		.loc 1 483 0
 696 0000 FFF7FEBF 		b	des3_set3key_enc
 697              	.LVL60:
 698              		.cfi_endproc
 699              	.LFE30:
ARM GAS  C:\Users\jo\AppData\Local\Temp\ccK3rCVc.s 			page 14


 700              		.size	des3_set3key_enc_wrap, .-des3_set3key_enc_wrap
 701 0004 AFF30080 		.section	.text.blowfish_crypt_cbc_wrap,"ax",%progbits
 701      AFF30080 
 701      AFF30080 
 702              		.align	2
 703              		.p2align 4,,15
 704              		.global	blowfish_crypt_cbc_wrap
 705              		.thumb
 706              		.thumb_func
 707              		.type	blowfish_crypt_cbc_wrap, %function
 708              	blowfish_crypt_cbc_wrap:
 709              	.LFB34:
 710              		.loc 1 569 0
 711              		.cfi_startproc
 712              		@ args = 8, pretend = 0, frame = 0
 713              		@ frame_needed = 0, uses_anonymous_args = 0
 714              		@ link register save eliminated.
 715              	.LVL61:
 716 0000 10B4     		push	{r4}
 717              		.cfi_def_cfa_offset 4
 718              		.cfi_offset 4, -4
 719              		.loc 1 571 0
 720 0002 5DF8044B 		ldr	r4, [sp], #4
 721              		.cfi_restore 4
 722              		.cfi_def_cfa_offset 0
 723              	.LVL62:
 724              		.loc 1 570 0
 725 0006 FFF7FEBF 		b	blowfish_crypt_cbc
 726              	.LVL63:
 727              		.cfi_endproc
 728              	.LFE34:
 729              		.size	blowfish_crypt_cbc_wrap, .-blowfish_crypt_cbc_wrap
 730 000a 00BFAFF3 		.section	.text.blowfish_crypt_cfb64_wrap,"ax",%progbits
 730      0080
 731              		.align	2
 732              		.p2align 4,,15
 733              		.global	blowfish_crypt_cfb64_wrap
 734              		.thumb
 735              		.thumb_func
 736              		.type	blowfish_crypt_cfb64_wrap, %function
 737              	blowfish_crypt_cfb64_wrap:
 738              	.LFB35:
 739              		.loc 1 575 0
 740              		.cfi_startproc
 741              		@ args = 12, pretend = 0, frame = 0
 742              		@ frame_needed = 0, uses_anonymous_args = 0
 743              		@ link register save eliminated.
 744              	.LVL64:
 745 0000 30B4     		push	{r4, r5}
 746              		.cfi_def_cfa_offset 8
 747              		.cfi_offset 4, -8
 748              		.cfi_offset 5, -4
 749              		.loc 1 589 0
 750 0002 30BC     		pop	{r4, r5}
 751              		.cfi_restore 5
 752              		.cfi_restore 4
 753              		.cfi_def_cfa_offset 0
ARM GAS  C:\Users\jo\AppData\Local\Temp\ccK3rCVc.s 			page 15


 754              	.LVL65:
 755              		.loc 1 577 0
 756 0004 FFF7FEBF 		b	blowfish_crypt_cfb64
 757              	.LVL66:
 758              		.cfi_endproc
 759              	.LFE35:
 760              		.size	blowfish_crypt_cfb64_wrap, .-blowfish_crypt_cfb64_wrap
 761 0008 AFF30080 		.section	.text.blowfish_crypt_ctr_wrap,"ax",%progbits
 761      AFF30080 
 762              		.align	2
 763              		.p2align 4,,15
 764              		.global	blowfish_crypt_ctr_wrap
 765              		.thumb
 766              		.thumb_func
 767              		.type	blowfish_crypt_ctr_wrap, %function
 768              	blowfish_crypt_ctr_wrap:
 769              	.LFB36:
 770              		.loc 1 594 0
 771              		.cfi_startproc
 772              		@ args = 12, pretend = 0, frame = 0
 773              		@ frame_needed = 0, uses_anonymous_args = 0
 774              		@ link register save eliminated.
 775              	.LVL67:
 776 0000 30B4     		push	{r4, r5}
 777              		.cfi_def_cfa_offset 8
 778              		.cfi_offset 4, -8
 779              		.cfi_offset 5, -4
 780              		.loc 1 609 0
 781 0002 30BC     		pop	{r4, r5}
 782              		.cfi_restore 5
 783              		.cfi_restore 4
 784              		.cfi_def_cfa_offset 0
 785              	.LVL68:
 786              		.loc 1 596 0
 787 0004 FFF7FEBF 		b	blowfish_crypt_ctr
 788              	.LVL69:
 789              		.cfi_endproc
 790              	.LFE36:
 791              		.size	blowfish_crypt_ctr_wrap, .-blowfish_crypt_ctr_wrap
 792 0008 AFF30080 		.section	.text.blowfish_setkey_dec_wrap,"ax",%progbits
 792      AFF30080 
 793              		.align	2
 794              		.p2align 4,,15
 795              		.global	blowfish_setkey_dec_wrap
 796              		.thumb
 797              		.thumb_func
 798              		.type	blowfish_setkey_dec_wrap, %function
 799              	blowfish_setkey_dec_wrap:
 800              	.LFB37:
 801              		.loc 1 612 0
 802              		.cfi_startproc
 803              		@ args = 0, pretend = 0, frame = 0
 804              		@ frame_needed = 0, uses_anonymous_args = 0
 805              		@ link register save eliminated.
 806              	.LVL70:
 807              		.loc 1 613 0
 808 0000 FFF7FEBF 		b	blowfish_setkey
ARM GAS  C:\Users\jo\AppData\Local\Temp\ccK3rCVc.s 			page 16


 809              	.LVL71:
 810              		.cfi_endproc
 811              	.LFE37:
 812              		.size	blowfish_setkey_dec_wrap, .-blowfish_setkey_dec_wrap
 813 0004 AFF30080 		.section	.text.blowfish_setkey_enc_wrap,"ax",%progbits
 813      AFF30080 
 813      AFF30080 
 814              		.align	2
 815              		.p2align 4,,15
 816              		.global	blowfish_setkey_enc_wrap
 817              		.thumb
 818              		.thumb_func
 819              		.type	blowfish_setkey_enc_wrap, %function
 820              	blowfish_setkey_enc_wrap:
 821              	.LFB38:
 822              		.loc 1 617 0
 823              		.cfi_startproc
 824              		@ args = 0, pretend = 0, frame = 0
 825              		@ frame_needed = 0, uses_anonymous_args = 0
 826              		@ link register save eliminated.
 827              	.LVL72:
 828              		.loc 1 618 0
 829 0000 FFF7FEBF 		b	blowfish_setkey
 830              	.LVL73:
 831              		.cfi_endproc
 832              	.LFE38:
 833              		.size	blowfish_setkey_enc_wrap, .-blowfish_setkey_enc_wrap
 834              		.global	blowfish_ctr_info
 835              		.global	blowfish_cfb64_info
 836              		.global	blowfish_cbc_info
 837              		.global	blowfish_info
 838              		.global	des_ede3_cbc_info
 839              		.global	des_ede3_info
 840              		.global	des_ede_cbc_info
 841              		.global	des_ede_info
 842              		.global	des_cbc_info
 843              		.global	des_info
 844              		.global	camellia_256_ctr_info
 845              		.global	camellia_192_ctr_info
 846              		.global	camellia_128_ctr_info
 847              		.global	camellia_256_cfb128_info
 848              		.global	camellia_192_cfb128_info
 849              		.global	camellia_128_cfb128_info
 850              		.global	camellia_256_cbc_info
 851              		.global	camellia_192_cbc_info
 852              		.global	camellia_128_cbc_info
 853              		.global	camellia_info
 854              		.global	aes_256_ctr_info
 855              		.global	aes_192_ctr_info
 856              		.global	aes_128_ctr_info
 857              		.global	aes_256_cfb128_info
 858              		.global	aes_192_cfb128_info
 859              		.global	aes_128_cfb128_info
 860              		.global	aes_256_cbc_info
 861              		.global	aes_192_cbc_info
 862              		.global	aes_128_cbc_info
 863              		.global	aes_info
ARM GAS  C:\Users\jo\AppData\Local\Temp\ccK3rCVc.s 			page 17


 864 0004 AFF30080 		.section	.rodata.des_info,"a",%progbits
 864      AFF30080 
 864      AFF30080 
 865              		.align	2
 866              		.type	des_info, %object
 867              		.size	des_info, 32
 868              	des_info:
 869 0000 03       		.byte	3
 870 0001 000000   		.space	3
 871 0004 00000000 		.word	des_crypt_cbc_wrap
 872 0008 00000000 		.word	des_crypt_cfb128_wrap
 873 000c 00000000 		.word	des_crypt_ctr_wrap
 874 0010 00000000 		.word	des_setkey_enc_wrap
 875 0014 00000000 		.word	des_setkey_dec_wrap
 876 0018 00000000 		.word	des_ctx_alloc
 877 001c 00000000 		.word	des_ctx_free
 878              		.section	.rodata.des_cbc_info,"a",%progbits
 879              		.align	2
 880              		.type	des_cbc_info, %object
 881              		.size	des_cbc_info, 24
 882              	des_cbc_info:
 883 0000 14       		.byte	20
 884 0001 02       		.byte	2
 885 0002 0000     		.space	2
 886 0004 40000000 		.word	64
 887 0008 4C000000 		.word	.LC5
 888 000c 08000000 		.word	8
 889 0010 08000000 		.word	8
 890 0014 00000000 		.word	des_info
 891              		.section	.rodata.camellia_192_cbc_info,"a",%progbits
 892              		.align	2
 893              		.type	camellia_192_cbc_info, %object
 894              		.size	camellia_192_cbc_info, 24
 895              	camellia_192_cbc_info:
 896 0000 0C       		.byte	12
 897 0001 02       		.byte	2
 898 0002 0000     		.space	2
 899 0004 C0000000 		.word	192
 900 0008 E0000000 		.word	.LC13
 901 000c 10000000 		.word	16
 902 0010 10000000 		.word	16
 903 0014 00000000 		.word	camellia_info
 904              		.section	.rodata.aes_info,"a",%progbits
 905              		.align	2
 906              		.type	aes_info, %object
 907              		.size	aes_info, 32
 908              	aes_info:
 909 0000 02       		.byte	2
 910 0001 000000   		.space	3
 911 0004 00000000 		.word	aes_crypt_cbc_wrap
 912 0008 00000000 		.word	aes_crypt_cfb128_wrap
 913 000c 00000000 		.word	aes_crypt_ctr_wrap
 914 0010 00000000 		.word	aes_setkey_enc_wrap
 915 0014 00000000 		.word	aes_setkey_dec_wrap
 916 0018 00000000 		.word	aes_ctx_alloc
 917 001c 00000000 		.word	aes_ctx_free
 918              		.section	.rodata.aes_256_cfb128_info,"a",%progbits
ARM GAS  C:\Users\jo\AppData\Local\Temp\ccK3rCVc.s 			page 18


 919              		.align	2
 920              		.type	aes_256_cfb128_info, %object
 921              		.size	aes_256_cfb128_info, 24
 922              	aes_256_cfb128_info:
 923 0000 07       		.byte	7
 924 0001 03       		.byte	3
 925 0002 0000     		.space	2
 926 0004 00010000 		.word	256
 927 0008 2C010000 		.word	.LC18
 928 000c 10000000 		.word	16
 929 0010 10000000 		.word	16
 930 0014 00000000 		.word	aes_info
 931              		.section	.rodata.camellia_info,"a",%progbits
 932              		.align	2
 933              		.type	camellia_info, %object
 934              		.size	camellia_info, 32
 935              	camellia_info:
 936 0000 05       		.byte	5
 937 0001 000000   		.space	3
 938 0004 00000000 		.word	camellia_crypt_cbc_wrap
 939 0008 00000000 		.word	camellia_crypt_cfb128_wrap
 940 000c 00000000 		.word	camellia_crypt_ctr_wrap
 941 0010 00000000 		.word	camellia_setkey_enc_wrap
 942 0014 00000000 		.word	camellia_setkey_dec_wrap
 943 0018 00000000 		.word	camellia_ctx_alloc
 944 001c 00000000 		.word	camellia_ctx_free
 945              		.section	.rodata.camellia_256_cbc_info,"a",%progbits
 946              		.align	2
 947              		.type	camellia_256_cbc_info, %object
 948              		.size	camellia_256_cbc_info, 24
 949              	camellia_256_cbc_info:
 950 0000 0D       		.byte	13
 951 0001 02       		.byte	2
 952 0002 0000     		.space	2
 953 0004 00010000 		.word	256
 954 0008 CC000000 		.word	.LC12
 955 000c 10000000 		.word	16
 956 0010 10000000 		.word	16
 957 0014 00000000 		.word	camellia_info
 958              		.section	.rodata.aes_192_ctr_info,"a",%progbits
 959              		.align	2
 960              		.type	aes_192_ctr_info, %object
 961              		.size	aes_192_ctr_info, 24
 962              	aes_192_ctr_info:
 963 0000 09       		.byte	9
 964 0001 05       		.byte	5
 965 0002 0000     		.space	2
 966 0004 C0000000 		.word	192
 967 0008 14010000 		.word	.LC16
 968 000c 10000000 		.word	16
 969 0010 10000000 		.word	16
 970 0014 00000000 		.word	aes_info
 971              		.section	.rodata.des_ede3_cbc_info,"a",%progbits
 972              		.align	2
 973              		.type	des_ede3_cbc_info, %object
 974              		.size	des_ede3_cbc_info, 24
 975              	des_ede3_cbc_info:
ARM GAS  C:\Users\jo\AppData\Local\Temp\ccK3rCVc.s 			page 19


 976 0000 16       		.byte	22
 977 0001 02       		.byte	2
 978 0002 0000     		.space	2
 979 0004 C0000000 		.word	192
 980 0008 30000000 		.word	.LC3
 981 000c 08000000 		.word	8
 982 0010 08000000 		.word	8
 983 0014 00000000 		.word	des_ede3_info
 984              		.section	.rodata.blowfish_info,"a",%progbits
 985              		.align	2
 986              		.type	blowfish_info, %object
 987              		.size	blowfish_info, 32
 988              	blowfish_info:
 989 0000 06       		.byte	6
 990 0001 000000   		.space	3
 991 0004 00000000 		.word	blowfish_crypt_cbc_wrap
 992 0008 00000000 		.word	blowfish_crypt_cfb64_wrap
 993 000c 00000000 		.word	blowfish_crypt_ctr_wrap
 994 0010 00000000 		.word	blowfish_setkey_enc_wrap
 995 0014 00000000 		.word	blowfish_setkey_dec_wrap
 996 0018 00000000 		.word	blowfish_ctx_alloc
 997 001c 00000000 		.word	blowfish_ctx_free
 998              		.section	.rodata.aes_256_ctr_info,"a",%progbits
 999              		.align	2
 1000              		.type	aes_256_ctr_info, %object
 1001              		.size	aes_256_ctr_info, 24
 1002              	aes_256_ctr_info:
 1003 0000 0A       		.byte	10
 1004 0001 05       		.byte	5
 1005 0002 0000     		.space	2
 1006 0004 00010000 		.word	256
 1007 0008 08010000 		.word	.LC15
 1008 000c 10000000 		.word	16
 1009 0010 10000000 		.word	16
 1010 0014 00000000 		.word	aes_info
 1011              		.section	.rodata.blowfish_cbc_info,"a",%progbits
 1012              		.align	2
 1013              		.type	blowfish_cbc_info, %object
 1014              		.size	blowfish_cbc_info, 24
 1015              	blowfish_cbc_info:
 1016 0000 17       		.byte	23
 1017 0001 02       		.byte	2
 1018 0002 0000     		.space	2
 1019 0004 80000000 		.word	128
 1020 0008 20000000 		.word	.LC2
 1021 000c 08000000 		.word	8
 1022 0010 08000000 		.word	8
 1023 0014 00000000 		.word	blowfish_info
 1024              		.section	.rodata.camellia_128_ctr_info,"a",%progbits
 1025              		.align	2
 1026              		.type	camellia_128_ctr_info, %object
 1027              		.size	camellia_128_ctr_info, 24
 1028              	camellia_128_ctr_info:
 1029 0000 11       		.byte	17
 1030 0001 05       		.byte	5
 1031 0002 0000     		.space	2
 1032 0004 80000000 		.word	128
ARM GAS  C:\Users\jo\AppData\Local\Temp\ccK3rCVc.s 			page 20


 1033 0008 7C000000 		.word	.LC8
 1034 000c 10000000 		.word	16
 1035 0010 10000000 		.word	16
 1036 0014 00000000 		.word	camellia_info
 1037              		.section	.rodata.camellia_256_cfb128_info,"a",%progbits
 1038              		.align	2
 1039              		.type	camellia_256_cfb128_info, %object
 1040              		.size	camellia_256_cfb128_info, 24
 1041              	camellia_256_cfb128_info:
 1042 0000 10       		.byte	16
 1043 0001 03       		.byte	3
 1044 0002 0000     		.space	2
 1045 0004 00010000 		.word	256
 1046 0008 90000000 		.word	.LC9
 1047 000c 10000000 		.word	16
 1048 0010 10000000 		.word	16
 1049 0014 00000000 		.word	camellia_info
 1050              		.section	.rodata.blowfish_ctr_info,"a",%progbits
 1051              		.align	2
 1052              		.type	blowfish_ctr_info, %object
 1053              		.size	blowfish_ctr_info, 24
 1054              	blowfish_ctr_info:
 1055 0000 19       		.byte	25
 1056 0001 05       		.byte	5
 1057 0002 0000     		.space	2
 1058 0004 80000000 		.word	128
 1059 0008 00000000 		.word	.LC0
 1060 000c 08000000 		.word	8
 1061 0010 08000000 		.word	8
 1062 0014 00000000 		.word	blowfish_info
 1063              		.section	.rodata.camellia_192_ctr_info,"a",%progbits
 1064              		.align	2
 1065              		.type	camellia_192_ctr_info, %object
 1066              		.size	camellia_192_ctr_info, 24
 1067              	camellia_192_ctr_info:
 1068 0000 12       		.byte	18
 1069 0001 05       		.byte	5
 1070 0002 0000     		.space	2
 1071 0004 C0000000 		.word	192
 1072 0008 68000000 		.word	.LC7
 1073 000c 10000000 		.word	16
 1074 0010 10000000 		.word	16
 1075 0014 00000000 		.word	camellia_info
 1076              		.section	.rodata.str1.4,"aMS",%progbits,1
 1077              		.align	2
 1078              	.LC0:
 1079 0000 424C4F57 		.ascii	"BLOWFISH-CTR\000"
 1079      46495348 
 1079      2D435452 
 1079      00
 1080 000d 000000   		.space	3
 1081              	.LC1:
 1082 0010 424C4F57 		.ascii	"BLOWFISH-CFB64\000"
 1082      46495348 
 1082      2D434642 
 1082      363400
 1083 001f 00       		.space	1
ARM GAS  C:\Users\jo\AppData\Local\Temp\ccK3rCVc.s 			page 21


 1084              	.LC2:
 1085 0020 424C4F57 		.ascii	"BLOWFISH-CBC\000"
 1085      46495348 
 1085      2D434243 
 1085      00
 1086 002d 000000   		.space	3
 1087              	.LC3:
 1088 0030 4445532D 		.ascii	"DES-EDE3-CBC\000"
 1088      45444533 
 1088      2D434243 
 1088      00
 1089 003d 000000   		.space	3
 1090              	.LC4:
 1091 0040 4445532D 		.ascii	"DES-EDE-CBC\000"
 1091      4544452D 
 1091      43424300 
 1092              	.LC5:
 1093 004c 4445532D 		.ascii	"DES-CBC\000"
 1093      43424300 
 1094              	.LC6:
 1095 0054 43414D45 		.ascii	"CAMELLIA-256-CTR\000"
 1095      4C4C4941 
 1095      2D323536 
 1095      2D435452 
 1095      00
 1096 0065 000000   		.space	3
 1097              	.LC7:
 1098 0068 43414D45 		.ascii	"CAMELLIA-192-CTR\000"
 1098      4C4C4941 
 1098      2D313932 
 1098      2D435452 
 1098      00
 1099 0079 000000   		.space	3
 1100              	.LC8:
 1101 007c 43414D45 		.ascii	"CAMELLIA-128-CTR\000"
 1101      4C4C4941 
 1101      2D313238 
 1101      2D435452 
 1101      00
 1102 008d 000000   		.space	3
 1103              	.LC9:
 1104 0090 43414D45 		.ascii	"CAMELLIA-256-CFB128\000"
 1104      4C4C4941 
 1104      2D323536 
 1104      2D434642 
 1104      31323800 
 1105              	.LC10:
 1106 00a4 43414D45 		.ascii	"CAMELLIA-192-CFB128\000"
 1106      4C4C4941 
 1106      2D313932 
 1106      2D434642 
 1106      31323800 
 1107              	.LC11:
 1108 00b8 43414D45 		.ascii	"CAMELLIA-128-CFB128\000"
 1108      4C4C4941 
 1108      2D313238 
 1108      2D434642 
ARM GAS  C:\Users\jo\AppData\Local\Temp\ccK3rCVc.s 			page 22


 1108      31323800 
 1109              	.LC12:
 1110 00cc 43414D45 		.ascii	"CAMELLIA-256-CBC\000"
 1110      4C4C4941 
 1110      2D323536 
 1110      2D434243 
 1110      00
 1111 00dd 000000   		.space	3
 1112              	.LC13:
 1113 00e0 43414D45 		.ascii	"CAMELLIA-192-CBC\000"
 1113      4C4C4941 
 1113      2D313932 
 1113      2D434243 
 1113      00
 1114 00f1 000000   		.space	3
 1115              	.LC14:
 1116 00f4 43414D45 		.ascii	"CAMELLIA-128-CBC\000"
 1116      4C4C4941 
 1116      2D313238 
 1116      2D434243 
 1116      00
 1117 0105 000000   		.space	3
 1118              	.LC15:
 1119 0108 4145532D 		.ascii	"AES-256-CTR\000"
 1119      3235362D 
 1119      43545200 
 1120              	.LC16:
 1121 0114 4145532D 		.ascii	"AES-192-CTR\000"
 1121      3139322D 
 1121      43545200 
 1122              	.LC17:
 1123 0120 4145532D 		.ascii	"AES-128-CTR\000"
 1123      3132382D 
 1123      43545200 
 1124              	.LC18:
 1125 012c 4145532D 		.ascii	"AES-256-CFB128\000"
 1125      3235362D 
 1125      43464231 
 1125      323800
 1126 013b 00       		.space	1
 1127              	.LC19:
 1128 013c 4145532D 		.ascii	"AES-192-CFB128\000"
 1128      3139322D 
 1128      43464231 
 1128      323800
 1129 014b 00       		.space	1
 1130              	.LC20:
 1131 014c 4145532D 		.ascii	"AES-128-CFB128\000"
 1131      3132382D 
 1131      43464231 
 1131      323800
 1132 015b 00       		.space	1
 1133              	.LC21:
 1134 015c 4145532D 		.ascii	"AES-256-CBC\000"
 1134      3235362D 
 1134      43424300 
 1135              	.LC22:
ARM GAS  C:\Users\jo\AppData\Local\Temp\ccK3rCVc.s 			page 23


 1136 0168 4145532D 		.ascii	"AES-192-CBC\000"
 1136      3139322D 
 1136      43424300 
 1137              	.LC23:
 1138 0174 4145532D 		.ascii	"AES-128-CBC\000"
 1138      3132382D 
 1138      43424300 
 1139              		.section	.rodata.camellia_128_cfb128_info,"a",%progbits
 1140              		.align	2
 1141              		.type	camellia_128_cfb128_info, %object
 1142              		.size	camellia_128_cfb128_info, 24
 1143              	camellia_128_cfb128_info:
 1144 0000 0E       		.byte	14
 1145 0001 03       		.byte	3
 1146 0002 0000     		.space	2
 1147 0004 80000000 		.word	128
 1148 0008 B8000000 		.word	.LC11
 1149 000c 10000000 		.word	16
 1150 0010 10000000 		.word	16
 1151 0014 00000000 		.word	camellia_info
 1152              		.section	.rodata.aes_128_cfb128_info,"a",%progbits
 1153              		.align	2
 1154              		.type	aes_128_cfb128_info, %object
 1155              		.size	aes_128_cfb128_info, 24
 1156              	aes_128_cfb128_info:
 1157 0000 05       		.byte	5
 1158 0001 03       		.byte	3
 1159 0002 0000     		.space	2
 1160 0004 80000000 		.word	128
 1161 0008 4C010000 		.word	.LC20
 1162 000c 10000000 		.word	16
 1163 0010 10000000 		.word	16
 1164 0014 00000000 		.word	aes_info
 1165              		.section	.rodata.aes_192_cbc_info,"a",%progbits
 1166              		.align	2
 1167              		.type	aes_192_cbc_info, %object
 1168              		.size	aes_192_cbc_info, 24
 1169              	aes_192_cbc_info:
 1170 0000 03       		.byte	3
 1171 0001 02       		.byte	2
 1172 0002 0000     		.space	2
 1173 0004 C0000000 		.word	192
 1174 0008 68010000 		.word	.LC22
 1175 000c 10000000 		.word	16
 1176 0010 10000000 		.word	16
 1177 0014 00000000 		.word	aes_info
 1178              		.section	.rodata.camellia_192_cfb128_info,"a",%progbits
 1179              		.align	2
 1180              		.type	camellia_192_cfb128_info, %object
 1181              		.size	camellia_192_cfb128_info, 24
 1182              	camellia_192_cfb128_info:
 1183 0000 0F       		.byte	15
 1184 0001 03       		.byte	3
 1185 0002 0000     		.space	2
 1186 0004 C0000000 		.word	192
 1187 0008 A4000000 		.word	.LC10
 1188 000c 10000000 		.word	16
ARM GAS  C:\Users\jo\AppData\Local\Temp\ccK3rCVc.s 			page 24


 1189 0010 10000000 		.word	16
 1190 0014 00000000 		.word	camellia_info
 1191              		.section	.rodata.aes_192_cfb128_info,"a",%progbits
 1192              		.align	2
 1193              		.type	aes_192_cfb128_info, %object
 1194              		.size	aes_192_cfb128_info, 24
 1195              	aes_192_cfb128_info:
 1196 0000 06       		.byte	6
 1197 0001 03       		.byte	3
 1198 0002 0000     		.space	2
 1199 0004 C0000000 		.word	192
 1200 0008 3C010000 		.word	.LC19
 1201 000c 10000000 		.word	16
 1202 0010 10000000 		.word	16
 1203 0014 00000000 		.word	aes_info
 1204              		.section	.rodata.aes_256_cbc_info,"a",%progbits
 1205              		.align	2
 1206              		.type	aes_256_cbc_info, %object
 1207              		.size	aes_256_cbc_info, 24
 1208              	aes_256_cbc_info:
 1209 0000 04       		.byte	4
 1210 0001 02       		.byte	2
 1211 0002 0000     		.space	2
 1212 0004 00010000 		.word	256
 1213 0008 5C010000 		.word	.LC21
 1214 000c 10000000 		.word	16
 1215 0010 10000000 		.word	16
 1216 0014 00000000 		.word	aes_info
 1217              		.section	.rodata.blowfish_cfb64_info,"a",%progbits
 1218              		.align	2
 1219              		.type	blowfish_cfb64_info, %object
 1220              		.size	blowfish_cfb64_info, 24
 1221              	blowfish_cfb64_info:
 1222 0000 18       		.byte	24
 1223 0001 03       		.byte	3
 1224 0002 0000     		.space	2
 1225 0004 80000000 		.word	128
 1226 0008 10000000 		.word	.LC1
 1227 000c 08000000 		.word	8
 1228 0010 08000000 		.word	8
 1229 0014 00000000 		.word	blowfish_info
 1230              		.section	.rodata.des_ede3_info,"a",%progbits
 1231              		.align	2
 1232              		.type	des_ede3_info, %object
 1233              		.size	des_ede3_info, 32
 1234              	des_ede3_info:
 1235 0000 03       		.byte	3
 1236 0001 000000   		.space	3
 1237 0004 00000000 		.word	des3_crypt_cbc_wrap
 1238 0008 00000000 		.word	des_crypt_cfb128_wrap
 1239 000c 00000000 		.word	des_crypt_ctr_wrap
 1240 0010 00000000 		.word	des3_set3key_enc_wrap
 1241 0014 00000000 		.word	des3_set3key_dec_wrap
 1242 0018 00000000 		.word	des3_ctx_alloc
 1243 001c 00000000 		.word	des_ctx_free
 1244              		.section	.rodata.camellia_128_cbc_info,"a",%progbits
 1245              		.align	2
ARM GAS  C:\Users\jo\AppData\Local\Temp\ccK3rCVc.s 			page 25


 1246              		.type	camellia_128_cbc_info, %object
 1247              		.size	camellia_128_cbc_info, 24
 1248              	camellia_128_cbc_info:
 1249 0000 0B       		.byte	11
 1250 0001 02       		.byte	2
 1251 0002 0000     		.space	2
 1252 0004 80000000 		.word	128
 1253 0008 F4000000 		.word	.LC14
 1254 000c 10000000 		.word	16
 1255 0010 10000000 		.word	16
 1256 0014 00000000 		.word	camellia_info
 1257              		.section	.rodata.des_ede_cbc_info,"a",%progbits
 1258              		.align	2
 1259              		.type	des_ede_cbc_info, %object
 1260              		.size	des_ede_cbc_info, 24
 1261              	des_ede_cbc_info:
 1262 0000 15       		.byte	21
 1263 0001 02       		.byte	2
 1264 0002 0000     		.space	2
 1265 0004 80000000 		.word	128
 1266 0008 40000000 		.word	.LC4
 1267 000c 08000000 		.word	8
 1268 0010 08000000 		.word	8
 1269 0014 00000000 		.word	des_ede_info
 1270              		.section	.rodata.des_ede_info,"a",%progbits
 1271              		.align	2
 1272              		.type	des_ede_info, %object
 1273              		.size	des_ede_info, 32
 1274              	des_ede_info:
 1275 0000 03       		.byte	3
 1276 0001 000000   		.space	3
 1277 0004 00000000 		.word	des3_crypt_cbc_wrap
 1278 0008 00000000 		.word	des_crypt_cfb128_wrap
 1279 000c 00000000 		.word	des_crypt_ctr_wrap
 1280 0010 00000000 		.word	des3_set2key_enc_wrap
 1281 0014 00000000 		.word	des3_set2key_dec_wrap
 1282 0018 00000000 		.word	des3_ctx_alloc
 1283 001c 00000000 		.word	des_ctx_free
 1284              		.section	.rodata.camellia_256_ctr_info,"a",%progbits
 1285              		.align	2
 1286              		.type	camellia_256_ctr_info, %object
 1287              		.size	camellia_256_ctr_info, 24
 1288              	camellia_256_ctr_info:
 1289 0000 13       		.byte	19
 1290 0001 05       		.byte	5
 1291 0002 0000     		.space	2
 1292 0004 00010000 		.word	256
 1293 0008 54000000 		.word	.LC6
 1294 000c 10000000 		.word	16
 1295 0010 10000000 		.word	16
 1296 0014 00000000 		.word	camellia_info
 1297              		.section	.rodata.aes_128_ctr_info,"a",%progbits
 1298              		.align	2
 1299              		.type	aes_128_ctr_info, %object
 1300              		.size	aes_128_ctr_info, 24
 1301              	aes_128_ctr_info:
 1302 0000 08       		.byte	8
ARM GAS  C:\Users\jo\AppData\Local\Temp\ccK3rCVc.s 			page 26


 1303 0001 05       		.byte	5
 1304 0002 0000     		.space	2
 1305 0004 80000000 		.word	128
 1306 0008 20010000 		.word	.LC17
 1307 000c 10000000 		.word	16
 1308 0010 10000000 		.word	16
 1309 0014 00000000 		.word	aes_info
 1310              		.section	.rodata.aes_128_cbc_info,"a",%progbits
 1311              		.align	2
 1312              		.type	aes_128_cbc_info, %object
 1313              		.size	aes_128_cbc_info, 24
 1314              	aes_128_cbc_info:
 1315 0000 02       		.byte	2
 1316 0001 02       		.byte	2
 1317 0002 0000     		.space	2
 1318 0004 80000000 		.word	128
 1319 0008 74010000 		.word	.LC23
 1320 000c 10000000 		.word	16
 1321 0010 10000000 		.word	16
 1322 0014 00000000 		.word	aes_info
 1323              		.text
 1324              	.Letext0:
 1325              		.file 2 "c:\\program files\\gnu tools arm embedded\\4.9 2014q4\\lib\\gcc\\arm-none-eabi\\4.9.3\\in
 1326              		.file 3 "c:\\program files\\gnu tools arm embedded\\4.9 2014q4\\arm-none-eabi\\include\\machine\\_
 1327              		.file 4 "../../../demos/STM32/RT-STM32F407-DISCOVERY-uHttp/uhttp-1.1/PolarSSL/include/polarssl/cip
 1328              		.file 5 "c:\\program files\\gnu tools arm embedded\\4.9 2014q4\\arm-none-eabi\\include\\stdint.h"
 1329              		.file 6 "../../../demos/STM32/RT-STM32F407-DISCOVERY-uHttp/uhttp-1.1/PolarSSL/include/polarssl/aes
 1330              		.file 7 "../../../demos/STM32/RT-STM32F407-DISCOVERY-uHttp/uhttp-1.1/PolarSSL/include/polarssl/cam
 1331              		.file 8 "../../../demos/STM32/RT-STM32F407-DISCOVERY-uHttp/uhttp-1.1/PolarSSL/include/polarssl/des
 1332              		.file 9 "../../../demos/STM32/RT-STM32F407-DISCOVERY-uHttp/uhttp-1.1/PolarSSL/include/polarssl/blo
 1333              		.file 10 "c:\\program files\\gnu tools arm embedded\\4.9 2014q4\\arm-none-eabi\\include\\stdlib.h"