ARM GAS  C:\Users\jo\AppData\Local\Temp\ccWwUjhR.s 			page 1


   1              		.syntax unified
   2              		.cpu cortex-m4
   3              		.fpu softvfp
   4              		.eabi_attribute 20, 1
   5              		.eabi_attribute 21, 1
   6              		.eabi_attribute 23, 3
   7              		.eabi_attribute 24, 1
   8              		.eabi_attribute 25, 1
   9              		.eabi_attribute 26, 1
  10              		.eabi_attribute 30, 2
  11              		.eabi_attribute 34, 1
  12              		.eabi_attribute 18, 4
  13              		.thumb
  14              		.file	"ctr_drbg.c"
  15              		.text
  16              	.Ltext0:
  17              		.cfi_sections	.debug_frame
  18              		.section	.text.ctr_drbg_self_test_entropy,"ax",%progbits
  19              		.align	2
  20              		.p2align 4,,15
  21              		.global	ctr_drbg_self_test_entropy
  22              		.thumb
  23              		.thumb_func
  24              		.type	ctr_drbg_self_test_entropy, %function
  25              	ctr_drbg_self_test_entropy:
  26              	.LFB13:
  27              		.file 1 "../../../os/ext/PolarSSL/library/ctr_drbg.c"
  28              		.loc 1 448 0
  29              		.cfi_startproc
  30              		@ args = 0, pretend = 0, frame = 0
  31              		@ frame_needed = 0, uses_anonymous_args = 0
  32              	.LVL0:
  33 0000 10B5     		push	{r4, lr}
  34              		.cfi_def_cfa_offset 8
  35              		.cfi_offset 4, -8
  36              		.cfi_offset 14, -4
  37              		.loc 1 450 0
  38 0002 064C     		ldr	r4, .L3
  39 0004 2368     		ldr	r3, [r4]
  40 0006 0344     		add	r3, r3, r0
  41 0008 0846     		mov	r0, r1
  42              	.LVL1:
  43 000a 1946     		mov	r1, r3
  44              	.LVL2:
  45 000c FFF7FEFF 		bl	memcpy
  46              	.LVL3:
  47              		.loc 1 451 0
  48 0010 2368     		ldr	r3, [r4]
  49 0012 2033     		adds	r3, r3, #32
  50 0014 2360     		str	r3, [r4]
  51              		.loc 1 453 0
  52 0016 0020     		movs	r0, #0
  53 0018 10BD     		pop	{r4, pc}
  54              	.L4:
  55 001a 00BF     		.align	2
  56              	.L3:
  57 001c 00000000 		.word	.LANCHOR0
ARM GAS  C:\Users\jo\AppData\Local\Temp\ccWwUjhR.s 			page 2


  58              		.cfi_endproc
  59              	.LFE13:
  60              		.size	ctr_drbg_self_test_entropy, .-ctr_drbg_self_test_entropy
  61              		.section	.text.ctr_drbg_set_prediction_resistance,"ax",%progbits
  62              		.align	2
  63              		.p2align 4,,15
  64              		.global	ctr_drbg_set_prediction_resistance
  65              		.thumb
  66              		.thumb_func
  67              		.type	ctr_drbg_set_prediction_resistance, %function
  68              	ctr_drbg_set_prediction_resistance:
  69              	.LFB2:
  70              		.loc 1 87 0
  71              		.cfi_startproc
  72              		@ args = 0, pretend = 0, frame = 0
  73              		@ frame_needed = 0, uses_anonymous_args = 0
  74              		@ link register save eliminated.
  75              	.LVL4:
  76              		.loc 1 88 0
  77 0000 4161     		str	r1, [r0, #20]
  78 0002 7047     		bx	lr
  79              		.cfi_endproc
  80              	.LFE2:
  81              		.size	ctr_drbg_set_prediction_resistance, .-ctr_drbg_set_prediction_resistance
  82 0004 AFF30080 		.section	.text.ctr_drbg_set_entropy_len,"ax",%progbits
  82      AFF30080 
  82      AFF30080 
  83              		.align	2
  84              		.p2align 4,,15
  85              		.global	ctr_drbg_set_entropy_len
  86              		.thumb
  87              		.thumb_func
  88              		.type	ctr_drbg_set_entropy_len, %function
  89              	ctr_drbg_set_entropy_len:
  90              	.LFB3:
  91              		.loc 1 92 0
  92              		.cfi_startproc
  93              		@ args = 0, pretend = 0, frame = 0
  94              		@ frame_needed = 0, uses_anonymous_args = 0
  95              		@ link register save eliminated.
  96              	.LVL5:
  97              		.loc 1 93 0
  98 0000 8161     		str	r1, [r0, #24]
  99 0002 7047     		bx	lr
 100              		.cfi_endproc
 101              	.LFE3:
 102              		.size	ctr_drbg_set_entropy_len, .-ctr_drbg_set_entropy_len
 103 0004 AFF30080 		.section	.text.ctr_drbg_set_reseed_interval,"ax",%progbits
 103      AFF30080 
 103      AFF30080 
 104              		.align	2
 105              		.p2align 4,,15
 106              		.global	ctr_drbg_set_reseed_interval
 107              		.thumb
 108              		.thumb_func
 109              		.type	ctr_drbg_set_reseed_interval, %function
 110              	ctr_drbg_set_reseed_interval:
ARM GAS  C:\Users\jo\AppData\Local\Temp\ccWwUjhR.s 			page 3


 111              	.LFB4:
 112              		.loc 1 97 0
 113              		.cfi_startproc
 114              		@ args = 0, pretend = 0, frame = 0
 115              		@ frame_needed = 0, uses_anonymous_args = 0
 116              		@ link register save eliminated.
 117              	.LVL6:
 118              		.loc 1 98 0
 119 0000 C161     		str	r1, [r0, #28]
 120 0002 7047     		bx	lr
 121              		.cfi_endproc
 122              	.LFE4:
 123              		.size	ctr_drbg_set_reseed_interval, .-ctr_drbg_set_reseed_interval
 124 0004 AFF30080 		.section	.text.block_cipher_df,"ax",%progbits
 124      AFF30080 
 124      AFF30080 
 125              		.align	2
 126              		.p2align 4,,15
 127              		.global	block_cipher_df
 128              		.thumb
 129              		.thumb_func
 130              		.type	block_cipher_df, %function
 131              	block_cipher_df:
 132              	.LFB5:
 133              		.loc 1 103 0
 134              		.cfi_startproc
 135              		@ args = 0, pretend = 0, frame = 792
 136              		@ frame_needed = 0, uses_anonymous_args = 0
 137              	.LVL7:
 138 0000 2DE9F04F 		push	{r4, r5, r6, r7, r8, r9, r10, fp, lr}
 139              		.cfi_def_cfa_offset 36
 140              		.cfi_offset 4, -36
 141              		.cfi_offset 5, -32
 142              		.cfi_offset 6, -28
 143              		.cfi_offset 7, -24
 144              		.cfi_offset 8, -20
 145              		.cfi_offset 9, -16
 146              		.cfi_offset 10, -12
 147              		.cfi_offset 11, -8
 148              		.cfi_offset 14, -4
 149 0004 ADF5477D 		sub	sp, sp, #796
 150              		.cfi_def_cfa_offset 832
 151              		.loc 1 103 0
 152 0008 1546     		mov	r5, r2
 153 000a 0F46     		mov	r7, r1
 154              	.LVL8:
 155              		.loc 1 129 0
 156 000c 64AC     		add	r4, sp, #400
 157              		.loc 1 113 0
 158 000e 0021     		movs	r1, #0
 159              	.LVL9:
 160 0010 4FF4D072 		mov	r2, #416
 161              	.LVL10:
 162              		.loc 1 103 0
 163 0014 0646     		mov	r6, r0
 164              		.loc 1 113 0
 165 0016 5EA8     		add	r0, sp, #376
ARM GAS  C:\Users\jo\AppData\Local\Temp\ccWwUjhR.s 			page 4


 166              	.LVL11:
 167 0018 FFF7FEFF 		bl	memset
 168              	.LVL12:
 169              		.loc 1 129 0
 170 001c 3946     		mov	r1, r7
 171              		.loc 1 128 0
 172 001e 3023     		movs	r3, #48
 173              		.loc 1 123 0
 174 0020 4FEA156C 		lsr	ip, r5, #24
 175              		.loc 1 124 0
 176 0024 4FEA154E 		lsr	lr, r5, #16
 177              		.loc 1 129 0
 178 0028 2046     		mov	r0, r4
 179              		.loc 1 125 0
 180 002a 2F0A     		lsrs	r7, r5, #8
 181              	.LVL13:
 182              		.loc 1 129 0
 183 002c 2A46     		mov	r2, r5
 184              		.loc 1 128 0
 185 002e 8DF88F31 		strb	r3, [sp, #399]
 186              		.loc 1 126 0
 187 0032 8DF88B51 		strb	r5, [sp, #395]
 188              		.loc 1 123 0
 189 0036 8DF888C1 		strb	ip, [sp, #392]
 190              	.LVL14:
 191              		.loc 1 124 0
 192 003a 8DF889E1 		strb	lr, [sp, #393]
 193              	.LVL15:
 194              		.loc 1 125 0
 195 003e 8DF88A71 		strb	r7, [sp, #394]
 196              	.LVL16:
 197              		.loc 1 129 0
 198 0042 FFF7FEFF 		bl	memcpy
 199              	.LVL17:
 200              		.loc 1 130 0
 201 0046 8023     		movs	r3, #128
 202 0048 04A9     		add	r1, sp, #16
 203 004a 6355     		strb	r3, [r4, r5]
 204              		.loc 1 132 0
 205 004c 05F1190A 		add	r10, r5, #25
 206              	.LVL18:
 207 0050 0B46     		mov	r3, r1
 208 0052 0CAC     		add	r4, sp, #48
 209              	.LVL19:
 210              	.L9:
 211 0054 5A1A     		subs	r2, r3, r1
 212              		.loc 1 135 0 discriminator 3
 213 0056 03F8012B 		strb	r2, [r3], #1
 214              	.LVL20:
 215              		.loc 1 134 0 discriminator 3
 216 005a A342     		cmp	r3, r4
 217 005c FAD1     		bne	.L9
 218              		.loc 1 137 0
 219 005e 18A8     		add	r0, sp, #96
 220 0060 4FF48072 		mov	r2, #256
 221 0064 FFF7FEFF 		bl	aes_setkey_enc
 222              	.LVL21:
ARM GAS  C:\Users\jo\AppData\Local\Temp\ccWwUjhR.s 			page 5


 223 0068 9DF87B91 		ldrb	r9, [sp, #379]	@ zero_extendqisi2
 224 006c 1835     		adds	r5, r5, #24
 225              	.LVL22:
 226 006e 45F00F05 		orr	r5, r5, #15
 227              	.LVL23:
 228 0072 09F10109 		add	r9, r9, #1
 229              		.loc 1 142 0
 230 0076 0027     		movs	r7, #0
 231 0078 5EAB     		add	r3, sp, #376
 232 007a 1D44     		add	r5, r5, r3
 233 007c 5FFA89F9 		uxtb	r9, r9
 234              		.loc 1 145 0
 235 0080 B846     		mov	r8, r7
 236              	.LVL24:
 237              	.L11:
 238              		.loc 1 148 0
 239 0082 BAF1000F 		cmp	r10, #0
 240              		.loc 1 145 0
 241 0086 CDF80080 		str	r8, [sp]
 242 008a CDF80480 		str	r8, [sp, #4]
 243 008e CDF80880 		str	r8, [sp, #8]
 244 0092 CDF80C80 		str	r8, [sp, #12]
 245              	.LVL25:
 246              		.loc 1 148 0
 247 0096 1FDD     		ble	.L14
 248 0098 0DF2771B 		addw	fp, sp, #375
 249 009c 4FF0000E 		mov	lr, #0
 250              	.LVL26:
 251              	.L15:
 252 00a0 6946     		mov	r1, sp
 253              		.loc 1 142 0
 254 00a2 5846     		mov	r0, fp
 255 00a4 0022     		movs	r2, #0
 256 00a6 01E0     		b	.L17
 257              	.LVL27:
 258              	.L13:
 259 00a8 91F800E0 		ldrb	lr, [r1]	@ zero_extendqisi2
 260              	.LVL28:
 261              	.L17:
 262              		.loc 1 151 0 discriminator 3
 263 00ac 10F8013F 		ldrb	r3, [r0, #1]!	@ zero_extendqisi2
 264              		.loc 1 150 0 discriminator 3
 265 00b0 0132     		adds	r2, r2, #1
 266              	.LVL29:
 267              		.loc 1 151 0 discriminator 3
 268 00b2 8EEA0303 		eor	r3, lr, r3
 269              		.loc 1 150 0 discriminator 3
 270 00b6 102A     		cmp	r2, #16
 271              		.loc 1 151 0 discriminator 3
 272 00b8 01F8013B 		strb	r3, [r1], #1
 273              		.loc 1 150 0 discriminator 3
 274 00bc F4D1     		bne	.L13
 275              	.LVL30:
 276 00be 0BF1100B 		add	fp, fp, #16
 277              	.LVL31:
 278              		.loc 1 155 0
 279 00c2 18A8     		add	r0, sp, #96
ARM GAS  C:\Users\jo\AppData\Local\Temp\ccWwUjhR.s 			page 6


 280 00c4 0121     		movs	r1, #1
 281 00c6 6A46     		mov	r2, sp
 282              	.LVL32:
 283 00c8 6B46     		mov	r3, sp
 284 00ca FFF7FEFF 		bl	aes_crypt_ecb
 285              	.LVL33:
 286              		.loc 1 148 0
 287 00ce AB45     		cmp	fp, r5
 288 00d0 02D0     		beq	.L14
 289 00d2 9DF800E0 		ldrb	lr, [sp]	@ zero_extendqisi2
 290 00d6 E3E7     		b	.L15
 291              	.LVL34:
 292              	.L14:
 293              		.loc 1 158 0
 294 00d8 EE46     		mov	lr, sp
 295 00da BEE80F00 		ldmia	lr!, {r0, r1, r2, r3}
 296 00de 04EB070E 		add	lr, r4, r7
 297 00e2 E051     		str	r0, [r4, r7]	@ unaligned
 298              		.loc 1 142 0
 299 00e4 1037     		adds	r7, r7, #16
 300              	.LVL35:
 301 00e6 09F10100 		add	r0, r9, #1
 302 00ea 302F     		cmp	r7, #48
 303              		.loc 1 163 0
 304 00ec 8DF87B91 		strb	r9, [sp, #379]
 305              		.loc 1 158 0
 306 00f0 CEF80410 		str	r1, [lr, #4]	@ unaligned
 307 00f4 5FFA80F9 		uxtb	r9, r0
 308 00f8 CEF80820 		str	r2, [lr, #8]	@ unaligned
 309 00fc CEF80C30 		str	r3, [lr, #12]	@ unaligned
 310              		.loc 1 142 0
 311 0100 BFD1     		bne	.L11
 312              		.loc 1 169 0
 313 0102 2146     		mov	r1, r4
 314 0104 18A8     		add	r0, sp, #96
 315 0106 4FF48072 		mov	r2, #256
 316 010a FFF7FEFF 		bl	aes_setkey_enc
 317              	.LVL36:
 318 010e 06F13005 		add	r5, r6, #48
 319              	.LVL37:
 320              	.L16:
 321              		.loc 1 175 0 discriminator 3
 322 0112 14AA     		add	r2, sp, #80
 323              	.LVL38:
 324 0114 0121     		movs	r1, #1
 325 0116 1346     		mov	r3, r2
 326 0118 18A8     		add	r0, sp, #96
 327              		.loc 1 176 0 discriminator 3
 328 011a 14AC     		add	r4, sp, #80
 329              		.loc 1 175 0 discriminator 3
 330 011c FFF7FEFF 		bl	aes_crypt_ecb
 331              	.LVL39:
 332              		.loc 1 176 0 discriminator 3
 333 0120 0FCC     		ldmia	r4!, {r0, r1, r2, r3}
 334              	.LVL40:
 335              		.loc 1 177 0 discriminator 3
 336 0122 1036     		adds	r6, r6, #16
ARM GAS  C:\Users\jo\AppData\Local\Temp\ccWwUjhR.s 			page 7


 337              	.LVL41:
 338              		.loc 1 176 0 discriminator 3
 339 0124 46F8100C 		str	r0, [r6, #-16]	@ unaligned
 340 0128 46F80C1C 		str	r1, [r6, #-12]	@ unaligned
 341 012c 46F8082C 		str	r2, [r6, #-8]	@ unaligned
 342 0130 46F8043C 		str	r3, [r6, #-4]	@ unaligned
 343              	.LVL42:
 344              		.loc 1 173 0 discriminator 3
 345 0134 AE42     		cmp	r6, r5
 346 0136 ECD1     		bne	.L16
 347              		.loc 1 181 0
 348 0138 0020     		movs	r0, #0
 349 013a 0DF5477D 		add	sp, sp, #796
 350              		.cfi_def_cfa_offset 36
 351              		@ sp needed
 352 013e BDE8F08F 		pop	{r4, r5, r6, r7, r8, r9, r10, fp, pc}
 353              		.cfi_endproc
 354              	.LFE5:
 355              		.size	block_cipher_df, .-block_cipher_df
 356 0142 00BFAFF3 		.section	.text.ctr_drbg_update_internal,"ax",%progbits
 356      0080AFF3 
 356      0080AFF3 
 356      0080
 357              		.align	2
 358              		.p2align 4,,15
 359              		.global	ctr_drbg_update_internal
 360              		.thumb
 361              		.thumb_func
 362              		.type	ctr_drbg_update_internal, %function
 363              	ctr_drbg_update_internal:
 364              	.LFB6:
 365              		.loc 1 185 0
 366              		.cfi_startproc
 367              		@ args = 0, pretend = 0, frame = 48
 368              		@ frame_needed = 0, uses_anonymous_args = 0
 369              	.LVL43:
 370 0000 2DE9F041 		push	{r4, r5, r6, r7, r8, lr}
 371              		.cfi_def_cfa_offset 24
 372              		.cfi_offset 4, -24
 373              		.cfi_offset 5, -20
 374              		.cfi_offset 6, -16
 375              		.cfi_offset 7, -12
 376              		.cfi_offset 8, -8
 377              		.cfi_offset 14, -4
 378 0004 8CB0     		sub	sp, sp, #48
 379              		.cfi_def_cfa_offset 72
 380              	.LVL44:
 381              		.loc 1 190 0
 382 0006 0023     		movs	r3, #0
 383              		.loc 1 185 0
 384 0008 0546     		mov	r5, r0
 385 000a 0E46     		mov	r6, r1
 386 000c 00F12004 		add	r4, r0, #32
 387 0010 00F11007 		add	r7, r0, #16
 388              		.loc 1 190 0
 389 0014 0093     		str	r3, [sp]
 390 0016 0193     		str	r3, [sp, #4]
ARM GAS  C:\Users\jo\AppData\Local\Temp\ccWwUjhR.s 			page 8


 391 0018 0293     		str	r3, [sp, #8]
 392 001a 0393     		str	r3, [sp, #12]
 393 001c 0493     		str	r3, [sp, #16]
 394 001e 0593     		str	r3, [sp, #20]
 395 0020 0693     		str	r3, [sp, #24]
 396 0022 0793     		str	r3, [sp, #28]
 397 0024 0893     		str	r3, [sp, #32]
 398 0026 0993     		str	r3, [sp, #36]
 399 0028 0A93     		str	r3, [sp, #40]
 400 002a 0B93     		str	r3, [sp, #44]
 401              	.LVL45:
 402              		.loc 1 192 0
 403 002c 9846     		mov	r8, r3
 404              	.LVL46:
 405              	.L28:
 406 002e 0DEB0803 		add	r3, sp, r8
 407              	.LVL47:
 408 0032 3946     		mov	r1, r7
 409              	.LVL48:
 410              	.L31:
 411              		.loc 1 198 0
 412 0034 11F8012D 		ldrb	r2, [r1, #-1]!	@ zero_extendqisi2
 413              	.LVL49:
 414 0038 0132     		adds	r2, r2, #1
 415 003a D2B2     		uxtb	r2, r2
 416 003c 0A70     		strb	r2, [r1]
 417 003e 0AB9     		cbnz	r2, .L29
 418              		.loc 1 197 0 discriminator 1
 419 0040 A942     		cmp	r1, r5
 420 0042 F7D1     		bne	.L31
 421              	.L29:
 422              		.loc 1 192 0 discriminator 2
 423 0044 08F11008 		add	r8, r8, #16
 424              	.LVL50:
 425              		.loc 1 204 0 discriminator 2
 426 0048 2046     		mov	r0, r4
 427 004a 0121     		movs	r1, #1
 428              	.LVL51:
 429 004c 2A46     		mov	r2, r5
 430 004e FFF7FEFF 		bl	aes_crypt_ecb
 431              	.LVL52:
 432              		.loc 1 192 0 discriminator 2
 433 0052 B8F1300F 		cmp	r8, #48
 434 0056 EAD1     		bne	.L28
 435 0058 711E     		subs	r1, r6, #1
 436 005a 0DF1FF33 		add	r3, sp, #-1
 437 005e 0DF12F06 		add	r6, sp, #47
 438              	.LVL53:
 439              	.L32:
 440              		.loc 1 210 0 discriminator 3
 441 0062 13F8012F 		ldrb	r2, [r3, #1]!	@ zero_extendqisi2
 442              	.LVL54:
 443 0066 11F8010F 		ldrb	r0, [r1, #1]!	@ zero_extendqisi2
 444              		.loc 1 209 0 discriminator 3
 445 006a B342     		cmp	r3, r6
 446              		.loc 1 210 0 discriminator 3
 447 006c 82EA0002 		eor	r2, r2, r0
ARM GAS  C:\Users\jo\AppData\Local\Temp\ccWwUjhR.s 			page 9


 448 0070 1A70     		strb	r2, [r3]
 449              	.LVL55:
 450              		.loc 1 209 0 discriminator 3
 451 0072 F6D1     		bne	.L32
 452              		.loc 1 215 0
 453 0074 6946     		mov	r1, sp
 454 0076 2046     		mov	r0, r4
 455 0078 4FF48072 		mov	r2, #256
 456              		.loc 1 216 0
 457 007c 08AC     		add	r4, sp, #32
 458              		.loc 1 215 0
 459 007e FFF7FEFF 		bl	aes_setkey_enc
 460              	.LVL56:
 461              		.loc 1 216 0
 462 0082 0FCC     		ldmia	r4!, {r0, r1, r2, r3}
 463 0084 2860     		str	r0, [r5]	@ unaligned
 464              		.loc 1 219 0
 465 0086 0020     		movs	r0, #0
 466              		.loc 1 216 0
 467 0088 6960     		str	r1, [r5, #4]	@ unaligned
 468 008a AA60     		str	r2, [r5, #8]	@ unaligned
 469 008c EB60     		str	r3, [r5, #12]	@ unaligned
 470              		.loc 1 219 0
 471 008e 0CB0     		add	sp, sp, #48
 472              		.cfi_def_cfa_offset 24
 473              		@ sp needed
 474 0090 BDE8F081 		pop	{r4, r5, r6, r7, r8, pc}
 475              		.cfi_endproc
 476              	.LFE6:
 477              		.size	ctr_drbg_update_internal, .-ctr_drbg_update_internal
 478 0094 AFF30080 		.section	.text.ctr_drbg_update,"ax",%progbits
 478      AFF30080 
 478      AFF30080 
 479              		.align	2
 480              		.p2align 4,,15
 481              		.global	ctr_drbg_update
 482              		.thumb
 483              		.thumb_func
 484              		.type	ctr_drbg_update, %function
 485              	ctr_drbg_update:
 486              	.LFB7:
 487              		.loc 1 223 0
 488              		.cfi_startproc
 489              		@ args = 0, pretend = 0, frame = 48
 490              		@ frame_needed = 0, uses_anonymous_args = 0
 491              	.LVL57:
 492              		.loc 1 226 0
 493 0000 02B9     		cbnz	r2, .L45
 494 0002 7047     		bx	lr
 495              	.L45:
 496              		.loc 1 223 0
 497 0004 10B5     		push	{r4, lr}
 498              		.cfi_def_cfa_offset 8
 499              		.cfi_offset 4, -8
 500              		.cfi_offset 14, -4
 501 0006 8CB0     		sub	sp, sp, #48
 502              		.cfi_def_cfa_offset 56
ARM GAS  C:\Users\jo\AppData\Local\Temp\ccWwUjhR.s 			page 10


 503 0008 0446     		mov	r4, r0
 504              	.LVL58:
 505              	.LBB18:
 506              	.LBB19:
 507              		.loc 1 228 0
 508 000a 6846     		mov	r0, sp
 509              	.LVL59:
 510 000c FFF7FEFF 		bl	block_cipher_df
 511              	.LVL60:
 512              		.loc 1 229 0
 513 0010 2046     		mov	r0, r4
 514 0012 6946     		mov	r1, sp
 515 0014 FFF7FEFF 		bl	ctr_drbg_update_internal
 516              	.LVL61:
 517              	.LBE19:
 518              	.LBE18:
 519              		.loc 1 231 0
 520 0018 0CB0     		add	sp, sp, #48
 521              		.cfi_def_cfa_offset 8
 522              		@ sp needed
 523 001a 10BD     		pop	{r4, pc}
 524              		.cfi_endproc
 525              	.LFE7:
 526              		.size	ctr_drbg_update, .-ctr_drbg_update
 527 001c AFF30080 		.section	.text.ctr_drbg_reseed,"ax",%progbits
 528              		.align	2
 529              		.p2align 4,,15
 530              		.global	ctr_drbg_reseed
 531              		.thumb
 532              		.thumb_func
 533              		.type	ctr_drbg_reseed, %function
 534              	ctr_drbg_reseed:
 535              	.LFB8:
 536              		.loc 1 235 0
 537              		.cfi_startproc
 538              		@ args = 0, pretend = 0, frame = 384
 539              		@ frame_needed = 0, uses_anonymous_args = 0
 540              	.LVL62:
 541 0000 2DE9F041 		push	{r4, r5, r6, r7, r8, lr}
 542              		.cfi_def_cfa_offset 24
 543              		.cfi_offset 4, -24
 544              		.cfi_offset 5, -20
 545              		.cfi_offset 6, -16
 546              		.cfi_offset 7, -12
 547              		.cfi_offset 8, -8
 548              		.cfi_offset 14, -4
 549              		.loc 1 239 0
 550 0004 8769     		ldr	r7, [r0, #24]
 551 0006 D319     		adds	r3, r2, r7
 552 0008 B3F5C07F 		cmp	r3, #384
 553              		.loc 1 235 0
 554 000c E0B0     		sub	sp, sp, #384
 555              		.cfi_def_cfa_offset 408
 556              		.loc 1 239 0
 557 000e 2CD8     		bhi	.L49
 558 0010 0446     		mov	r4, r0
 559 0012 0E46     		mov	r6, r1
ARM GAS  C:\Users\jo\AppData\Local\Temp\ccWwUjhR.s 			page 11


 560 0014 1546     		mov	r5, r2
 561              		.loc 1 242 0
 562 0016 0021     		movs	r1, #0
 563              	.LVL63:
 564 0018 4FF4C072 		mov	r2, #384
 565              	.LVL64:
 566 001c 6846     		mov	r0, sp
 567              	.LVL65:
 568 001e FFF7FEFF 		bl	memset
 569              	.LVL66:
 570              		.loc 1 247 0
 571 0022 3A46     		mov	r2, r7
 572 0024 6946     		mov	r1, sp
 573 0026 D4F83831 		ldr	r3, [r4, #312]
 574 002a D4F83C01 		ldr	r0, [r4, #316]
 575 002e 9847     		blx	r3
 576              	.LVL67:
 577 0030 0746     		mov	r7, r0
 578 0032 E8B9     		cbnz	r0, .L50
 579              		.loc 1 253 0
 580 0034 D4F81880 		ldr	r8, [r4, #24]
 581              	.LVL68:
 582              		.loc 1 258 0
 583 0038 06B1     		cbz	r6, .L48
 584              		.loc 1 258 0 is_stmt 0 discriminator 1
 585 003a 75B9     		cbnz	r5, .L58
 586              	.L48:
 587              		.loc 1 267 0 is_stmt 1
 588 003c 4246     		mov	r2, r8
 589 003e 6946     		mov	r1, sp
 590 0040 6846     		mov	r0, sp
 591 0042 FFF7FEFF 		bl	block_cipher_df
 592              	.LVL69:
 593              		.loc 1 272 0
 594 0046 2046     		mov	r0, r4
 595 0048 6946     		mov	r1, sp
 596 004a FFF7FEFF 		bl	ctr_drbg_update_internal
 597              	.LVL70:
 598              		.loc 1 273 0
 599 004e 0123     		movs	r3, #1
 600 0050 2361     		str	r3, [r4, #16]
 601              	.LVL71:
 602              	.L47:
 603              		.loc 1 276 0
 604 0052 3846     		mov	r0, r7
 605 0054 60B0     		add	sp, sp, #384
 606              		.cfi_remember_state
 607              		.cfi_def_cfa_offset 24
 608              		@ sp needed
 609 0056 BDE8F081 		pop	{r4, r5, r6, r7, r8, pc}
 610              	.LVL72:
 611              	.L58:
 612              		.cfi_restore_state
 613              		.loc 1 260 0
 614 005a 0DEB0800 		add	r0, sp, r8
 615 005e 3146     		mov	r1, r6
 616 0060 2A46     		mov	r2, r5
ARM GAS  C:\Users\jo\AppData\Local\Temp\ccWwUjhR.s 			page 12


 617 0062 FFF7FEFF 		bl	memcpy
 618              	.LVL73:
 619              		.loc 1 261 0
 620 0066 A844     		add	r8, r8, r5
 621              	.LVL74:
 622 0068 E8E7     		b	.L48
 623              	.LVL75:
 624              	.L49:
 625              		.loc 1 240 0
 626 006a 6FF03707 		mvn	r7, #55
 627 006e F0E7     		b	.L47
 628              	.LVL76:
 629              	.L50:
 630              		.loc 1 250 0
 631 0070 6FF03307 		mvn	r7, #51
 632 0074 EDE7     		b	.L47
 633              		.cfi_endproc
 634              	.LFE8:
 635              		.size	ctr_drbg_reseed, .-ctr_drbg_reseed
 636 0076 00BFAFF3 		.section	.text.ctr_drbg_init_entropy_len,"ax",%progbits
 636      0080AFF3 
 636      0080
 637              		.align	2
 638              		.p2align 4,,15
 639              		.global	ctr_drbg_init_entropy_len
 640              		.thumb
 641              		.thumb_func
 642              		.type	ctr_drbg_init_entropy_len, %function
 643              	ctr_drbg_init_entropy_len:
 644              	.LFB0:
 645              		.loc 1 52 0
 646              		.cfi_startproc
 647              		@ args = 8, pretend = 0, frame = 32
 648              		@ frame_needed = 0, uses_anonymous_args = 0
 649              	.LVL77:
 650 0000 F0B5     		push	{r4, r5, r6, r7, lr}
 651              		.cfi_def_cfa_offset 20
 652              		.cfi_offset 4, -20
 653              		.cfi_offset 5, -16
 654              		.cfi_offset 6, -12
 655              		.cfi_offset 7, -8
 656              		.cfi_offset 14, -4
 657 0002 89B0     		sub	sp, sp, #36
 658              		.cfi_def_cfa_offset 56
 659              		.loc 1 52 0
 660 0004 0546     		mov	r5, r0
 661 0006 0C46     		mov	r4, r1
 662 0008 1746     		mov	r7, r2
 663              		.loc 1 56 0
 664 000a 0021     		movs	r1, #0
 665              	.LVL78:
 666 000c 4FF4A072 		mov	r2, #320
 667              	.LVL79:
 668              		.loc 1 52 0
 669 0010 1E46     		mov	r6, r3
 670              		.loc 1 56 0
 671 0012 FFF7FEFF 		bl	memset
ARM GAS  C:\Users\jo\AppData\Local\Temp\ccWwUjhR.s 			page 13


 672              	.LVL80:
 673              		.loc 1 63 0
 674 0016 42F21073 		movw	r3, #10000
 675              		.loc 1 62 0
 676 001a 0F9A     		ldr	r2, [sp, #60]
 677              		.loc 1 59 0
 678 001c C5F83841 		str	r4, [r5, #312]
 679              		.loc 1 62 0
 680 0020 AA61     		str	r2, [r5, #24]
 681              		.loc 1 57 0
 682 0022 0024     		movs	r4, #0
 683              	.LVL81:
 684              		.loc 1 63 0
 685 0024 EB61     		str	r3, [r5, #28]
 686              		.loc 1 68 0
 687 0026 6946     		mov	r1, sp
 688              		.loc 1 60 0
 689 0028 C5F83C71 		str	r7, [r5, #316]
 690              		.loc 1 68 0
 691 002c 05F12000 		add	r0, r5, #32
 692 0030 4FF48072 		mov	r2, #256
 693              		.loc 1 57 0
 694 0034 0094     		str	r4, [sp]
 695 0036 0194     		str	r4, [sp, #4]
 696 0038 0294     		str	r4, [sp, #8]
 697 003a 0394     		str	r4, [sp, #12]
 698 003c 0494     		str	r4, [sp, #16]
 699 003e 0594     		str	r4, [sp, #20]
 700 0040 0694     		str	r4, [sp, #24]
 701 0042 0794     		str	r4, [sp, #28]
 702              		.loc 1 68 0
 703 0044 FFF7FEFF 		bl	aes_setkey_enc
 704              	.LVL82:
 705              		.loc 1 70 0
 706 0048 2846     		mov	r0, r5
 707 004a 3146     		mov	r1, r6
 708 004c 0E9A     		ldr	r2, [sp, #56]
 709 004e FFF7FEFF 		bl	ctr_drbg_reseed
 710              	.LVL83:
 711              		.loc 1 74 0
 712 0052 09B0     		add	sp, sp, #36
 713              		.cfi_def_cfa_offset 20
 714              		@ sp needed
 715 0054 F0BD     		pop	{r4, r5, r6, r7, pc}
 716              		.cfi_endproc
 717              	.LFE0:
 718              		.size	ctr_drbg_init_entropy_len, .-ctr_drbg_init_entropy_len
 719 0056 00BFAFF3 		.section	.text.ctr_drbg_init,"ax",%progbits
 719      0080AFF3 
 719      0080
 720              		.align	2
 721              		.p2align 4,,15
 722              		.global	ctr_drbg_init
 723              		.thumb
 724              		.thumb_func
 725              		.type	ctr_drbg_init, %function
 726              	ctr_drbg_init:
ARM GAS  C:\Users\jo\AppData\Local\Temp\ccWwUjhR.s 			page 14


 727              	.LFB1:
 728              		.loc 1 81 0
 729              		.cfi_startproc
 730              		@ args = 4, pretend = 0, frame = 0
 731              		@ frame_needed = 0, uses_anonymous_args = 0
 732              	.LVL84:
 733 0000 10B5     		push	{r4, lr}
 734              		.cfi_def_cfa_offset 8
 735              		.cfi_offset 4, -8
 736              		.cfi_offset 14, -4
 737 0002 82B0     		sub	sp, sp, #8
 738              		.cfi_def_cfa_offset 16
 739              		.loc 1 81 0
 740 0004 049C     		ldr	r4, [sp, #16]
 741              		.loc 1 82 0
 742 0006 0094     		str	r4, [sp]
 743 0008 3024     		movs	r4, #48
 744 000a 0194     		str	r4, [sp, #4]
 745 000c FFF7FEFF 		bl	ctr_drbg_init_entropy_len
 746              	.LVL85:
 747              		.loc 1 84 0
 748 0010 02B0     		add	sp, sp, #8
 749              		.cfi_def_cfa_offset 8
 750              		@ sp needed
 751 0012 10BD     		pop	{r4, pc}
 752              		.cfi_endproc
 753              	.LFE1:
 754              		.size	ctr_drbg_init, .-ctr_drbg_init
 755 0014 AFF30080 		.section	.text.ctr_drbg_random_with_add,"ax",%progbits
 755      AFF30080 
 755      AFF30080 
 756              		.align	2
 757              		.p2align 4,,15
 758              		.global	ctr_drbg_random_with_add
 759              		.thumb
 760              		.thumb_func
 761              		.type	ctr_drbg_random_with_add, %function
 762              	ctr_drbg_random_with_add:
 763              	.LFB9:
 764              		.loc 1 281 0
 765              		.cfi_startproc
 766              		@ args = 4, pretend = 0, frame = 64
 767              		@ frame_needed = 0, uses_anonymous_args = 0
 768              	.LVL86:
 769 0000 2DE9F043 		push	{r4, r5, r6, r7, r8, r9, lr}
 770              		.cfi_def_cfa_offset 28
 771              		.cfi_offset 4, -28
 772              		.cfi_offset 5, -24
 773              		.cfi_offset 6, -20
 774              		.cfi_offset 7, -16
 775              		.cfi_offset 8, -12
 776              		.cfi_offset 9, -8
 777              		.cfi_offset 14, -4
 778 0004 9046     		mov	r8, r2
 779              	.LVL87:
 780 0006 91B0     		sub	sp, sp, #68
 781              		.cfi_def_cfa_offset 96
ARM GAS  C:\Users\jo\AppData\Local\Temp\ccWwUjhR.s 			page 15


 782              		.loc 1 290 0
 783 0008 B8F5806F 		cmp	r8, #1024
 784              		.loc 1 281 0
 785 000c 189A     		ldr	r2, [sp, #96]
 786              	.LVL88:
 787              		.loc 1 290 0
 788 000e 5CD8     		bhi	.L74
 789              		.loc 1 293 0
 790 0010 B2F5807F 		cmp	r2, #256
 791 0014 56D8     		bhi	.L75
 792              		.loc 1 298 0
 793 0016 0769     		ldr	r7, [r0, #16]
 794 0018 C669     		ldr	r6, [r0, #28]
 795 001a 0446     		mov	r4, r0
 796              	.LVL89:
 797 001c B742     		cmp	r7, r6
 798              		.loc 1 296 0
 799 001e 4FF00000 		mov	r0, #0
 800              	.LVL90:
 801 0022 0D46     		mov	r5, r1
 802              	.LVL91:
 803 0024 0490     		str	r0, [sp, #16]
 804 0026 0590     		str	r0, [sp, #20]
 805 0028 0690     		str	r0, [sp, #24]
 806 002a 0790     		str	r0, [sp, #28]
 807 002c 0890     		str	r0, [sp, #32]
 808 002e 0990     		str	r0, [sp, #36]
 809 0030 0A90     		str	r0, [sp, #40]
 810 0032 0B90     		str	r0, [sp, #44]
 811 0034 0C90     		str	r0, [sp, #48]
 812 0036 0D90     		str	r0, [sp, #52]
 813 0038 0E90     		str	r0, [sp, #56]
 814 003a 0F90     		str	r0, [sp, #60]
 815              		.loc 1 298 0
 816 003c 01DC     		bgt	.L65
 817              		.loc 1 298 0 is_stmt 0 discriminator 1
 818 003e 6169     		ldr	r1, [r4, #20]
 819              	.LVL92:
 820 0040 A9B3     		cbz	r1, .L66
 821              	.L65:
 822              		.loc 1 301 0 is_stmt 1
 823 0042 1946     		mov	r1, r3
 824 0044 2046     		mov	r0, r4
 825 0046 FFF7FEFF 		bl	ctr_drbg_reseed
 826              	.LVL93:
 827 004a 68BB     		cbnz	r0, .L82
 828              	.LVL94:
 829              	.L67:
 830              		.loc 1 313 0
 831 004c B8F1000F 		cmp	r8, #0
 832 0050 22D0     		beq	.L73
 833 0052 04F12007 		add	r7, r4, #32
 834 0056 04F11006 		add	r6, r4, #16
 835              	.LVL95:
 836              	.L72:
 837 005a 3246     		mov	r2, r6
 838              	.LVL96:
ARM GAS  C:\Users\jo\AppData\Local\Temp\ccWwUjhR.s 			page 16


 839              	.L71:
 840              		.loc 1 319 0
 841 005c 12F8013D 		ldrb	r3, [r2, #-1]!	@ zero_extendqisi2
 842              	.LVL97:
 843 0060 0133     		adds	r3, r3, #1
 844 0062 DBB2     		uxtb	r3, r3
 845 0064 1370     		strb	r3, [r2]
 846 0066 0BB9     		cbnz	r3, .L70
 847              		.loc 1 318 0 discriminator 1
 848 0068 A242     		cmp	r2, r4
 849 006a F7D1     		bne	.L71
 850              	.L70:
 851              		.loc 1 327 0
 852 006c B8F1100F 		cmp	r8, #16
 853 0070 C146     		mov	r9, r8
 854              		.loc 1 325 0
 855 0072 4FF00101 		mov	r1, #1
 856              		.loc 1 327 0
 857 0076 28BF     		it	cs
 858 0078 4FF01009 		movcs	r9, #16
 859              		.loc 1 325 0
 860 007c 2246     		mov	r2, r4
 861              	.LVL98:
 862 007e 6B46     		mov	r3, sp
 863 0080 3846     		mov	r0, r7
 864 0082 FFF7FEFF 		bl	aes_crypt_ecb
 865              	.LVL99:
 866              		.loc 1 331 0
 867 0086 2846     		mov	r0, r5
 868 0088 4A46     		mov	r2, r9
 869 008a 6946     		mov	r1, sp
 870 008c FFF7FEFF 		bl	memcpy
 871              	.LVL100:
 872              		.loc 1 313 0
 873 0090 B8EB0908 		subs	r8, r8, r9
 874              	.LVL101:
 875              		.loc 1 332 0
 876 0094 4D44     		add	r5, r5, r9
 877              	.LVL102:
 878              		.loc 1 313 0
 879 0096 E0D1     		bne	.L72
 880              	.LVL103:
 881              	.L73:
 882              		.loc 1 336 0
 883 0098 04A9     		add	r1, sp, #16
 884 009a 2046     		mov	r0, r4
 885 009c FFF7FEFF 		bl	ctr_drbg_update_internal
 886              	.LVL104:
 887              		.loc 1 338 0
 888 00a0 2369     		ldr	r3, [r4, #16]
 889 00a2 0133     		adds	r3, r3, #1
 890 00a4 2361     		str	r3, [r4, #16]
 891              		.loc 1 340 0
 892 00a6 0020     		movs	r0, #0
 893              	.LVL105:
 894              	.L82:
 895              		.loc 1 341 0
ARM GAS  C:\Users\jo\AppData\Local\Temp\ccWwUjhR.s 			page 17


 896 00a8 11B0     		add	sp, sp, #68
 897              		.cfi_remember_state
 898              		.cfi_def_cfa_offset 28
 899              		@ sp needed
 900 00aa BDE8F083 		pop	{r4, r5, r6, r7, r8, r9, pc}
 901              	.LVL106:
 902              	.L66:
 903              		.cfi_restore_state
 904              		.loc 1 307 0
 905 00ae 002A     		cmp	r2, #0
 906 00b0 CCD0     		beq	.L67
 907              		.loc 1 309 0
 908 00b2 1946     		mov	r1, r3
 909 00b4 04A8     		add	r0, sp, #16
 910 00b6 FFF7FEFF 		bl	block_cipher_df
 911              	.LVL107:
 912              		.loc 1 310 0
 913 00ba 2046     		mov	r0, r4
 914 00bc 04A9     		add	r1, sp, #16
 915 00be FFF7FEFF 		bl	ctr_drbg_update_internal
 916              	.LVL108:
 917 00c2 C3E7     		b	.L67
 918              	.LVL109:
 919              	.L75:
 920              		.loc 1 294 0
 921 00c4 6FF03700 		mvn	r0, #55
 922              	.LVL110:
 923 00c8 EEE7     		b	.L82
 924              	.LVL111:
 925              	.L74:
 926              		.loc 1 291 0
 927 00ca 6FF03500 		mvn	r0, #53
 928              	.LVL112:
 929 00ce EBE7     		b	.L82
 930              		.cfi_endproc
 931              	.LFE9:
 932              		.size	ctr_drbg_random_with_add, .-ctr_drbg_random_with_add
 933              		.section	.text.ctr_drbg_random,"ax",%progbits
 934              		.align	2
 935              		.p2align 4,,15
 936              		.global	ctr_drbg_random
 937              		.thumb
 938              		.thumb_func
 939              		.type	ctr_drbg_random, %function
 940              	ctr_drbg_random:
 941              	.LFB10:
 942              		.loc 1 344 0
 943              		.cfi_startproc
 944              		@ args = 0, pretend = 0, frame = 0
 945              		@ frame_needed = 0, uses_anonymous_args = 0
 946              	.LVL113:
 947 0000 00B5     		push	{lr}
 948              		.cfi_def_cfa_offset 4
 949              		.cfi_offset 14, -4
 950 0002 83B0     		sub	sp, sp, #12
 951              		.cfi_def_cfa_offset 16
 952              		.loc 1 345 0
ARM GAS  C:\Users\jo\AppData\Local\Temp\ccWwUjhR.s 			page 18


 953 0004 0023     		movs	r3, #0
 954 0006 0093     		str	r3, [sp]
 955 0008 FFF7FEFF 		bl	ctr_drbg_random_with_add
 956              	.LVL114:
 957              		.loc 1 347 0
 958 000c 03B0     		add	sp, sp, #12
 959              		.cfi_def_cfa_offset 4
 960              		@ sp needed
 961 000e 5DF804FB 		ldr	pc, [sp], #4
 962              		.cfi_endproc
 963              	.LFE10:
 964              		.size	ctr_drbg_random, .-ctr_drbg_random
 965 0012 00BFAFF3 		.section	.text.ctr_drbg_write_seed_file,"ax",%progbits
 965      0080AFF3 
 965      0080AFF3 
 965      0080
 966              		.align	2
 967              		.p2align 4,,15
 968              		.global	ctr_drbg_write_seed_file
 969              		.thumb
 970              		.thumb_func
 971              		.type	ctr_drbg_write_seed_file, %function
 972              	ctr_drbg_write_seed_file:
 973              	.LFB11:
 974              		.loc 1 351 0
 975              		.cfi_startproc
 976              		@ args = 0, pretend = 0, frame = 256
 977              		@ frame_needed = 0, uses_anonymous_args = 0
 978              	.LVL115:
 979 0000 30B5     		push	{r4, r5, lr}
 980              		.cfi_def_cfa_offset 12
 981              		.cfi_offset 4, -12
 982              		.cfi_offset 5, -8
 983              		.cfi_offset 14, -4
 984 0002 0446     		mov	r4, r0
 985 0004 C3B0     		sub	sp, sp, #268
 986              		.cfi_def_cfa_offset 280
 987              		.loc 1 356 0
 988 0006 0846     		mov	r0, r1
 989              	.LVL116:
 990 0008 1449     		ldr	r1, .L93
 991              	.LVL117:
 992 000a FFF7FEFF 		bl	fopen
 993              	.LVL118:
 994 000e 0546     		mov	r5, r0
 995 0010 08B3     		cbz	r0, .L89
 996              	.LVL119:
 997              	.LBB20:
 998              	.LBB21:
 999              		.loc 1 345 0
 1000 0012 0023     		movs	r3, #0
 1001 0014 2046     		mov	r0, r4
 1002              	.LVL120:
 1003 0016 02A9     		add	r1, sp, #8
 1004              	.LVL121:
 1005 0018 0093     		str	r3, [sp]
 1006 001a 4FF48072 		mov	r2, #256
ARM GAS  C:\Users\jo\AppData\Local\Temp\ccWwUjhR.s 			page 19


 1007 001e FFF7FEFF 		bl	ctr_drbg_random_with_add
 1008              	.LVL122:
 1009              	.LBE21:
 1010              	.LBE20:
 1011              		.loc 1 359 0
 1012 0022 0446     		mov	r4, r0
 1013              	.LVL123:
 1014 0024 10B1     		cbz	r0, .L91
 1015              	.LVL124:
 1016              	.L87:
 1017              		.loc 1 370 0
 1018 0026 2046     		mov	r0, r4
 1019 0028 43B0     		add	sp, sp, #268
 1020              		.cfi_remember_state
 1021              		.cfi_def_cfa_offset 12
 1022              		@ sp needed
 1023 002a 30BD     		pop	{r4, r5, pc}
 1024              	.LVL125:
 1025              	.L91:
 1026              		.cfi_restore_state
 1027              		.loc 1 362 0
 1028 002c 02A8     		add	r0, sp, #8
 1029              	.LVL126:
 1030 002e 0121     		movs	r1, #1
 1031 0030 4FF48072 		mov	r2, #256
 1032 0034 2B46     		mov	r3, r5
 1033 0036 FFF7FEFF 		bl	fwrite
 1034              	.LVL127:
 1035 003a B0F5807F 		cmp	r0, #256
 1036              		.loc 1 364 0
 1037 003e 2846     		mov	r0, r5
 1038              		.loc 1 362 0
 1039 0040 04D1     		bne	.L92
 1040              	.LVL128:
 1041              		.loc 1 368 0
 1042 0042 FFF7FEFF 		bl	fclose
 1043              	.LVL129:
 1044              		.loc 1 370 0
 1045 0046 2046     		mov	r0, r4
 1046 0048 43B0     		add	sp, sp, #268
 1047              		.cfi_remember_state
 1048              		.cfi_def_cfa_offset 12
 1049              		@ sp needed
 1050 004a 30BD     		pop	{r4, r5, pc}
 1051              	.LVL130:
 1052              	.L92:
 1053              		.cfi_restore_state
 1054              		.loc 1 364 0
 1055 004c FFF7FEFF 		bl	fclose
 1056              	.LVL131:
 1057              		.loc 1 365 0
 1058 0050 6FF03904 		mvn	r4, #57
 1059 0054 E7E7     		b	.L87
 1060              	.LVL132:
 1061              	.L89:
 1062              		.loc 1 357 0
 1063 0056 6FF03904 		mvn	r4, #57
ARM GAS  C:\Users\jo\AppData\Local\Temp\ccWwUjhR.s 			page 20


 1064              	.LVL133:
 1065 005a E4E7     		b	.L87
 1066              	.L94:
 1067              		.align	2
 1068              	.L93:
 1069 005c 00000000 		.word	.LC0
 1070              		.cfi_endproc
 1071              	.LFE11:
 1072              		.size	ctr_drbg_write_seed_file, .-ctr_drbg_write_seed_file
 1073              		.section	.text.ctr_drbg_update_seed_file,"ax",%progbits
 1074              		.align	2
 1075              		.p2align 4,,15
 1076              		.global	ctr_drbg_update_seed_file
 1077              		.thumb
 1078              		.thumb_func
 1079              		.type	ctr_drbg_update_seed_file, %function
 1080              	ctr_drbg_update_seed_file:
 1081              	.LFB12:
 1082              		.loc 1 373 0
 1083              		.cfi_startproc
 1084              		@ args = 0, pretend = 0, frame = 304
 1085              		@ frame_needed = 0, uses_anonymous_args = 0
 1086              	.LVL134:
 1087 0000 F0B5     		push	{r4, r5, r6, r7, lr}
 1088              		.cfi_def_cfa_offset 20
 1089              		.cfi_offset 4, -20
 1090              		.cfi_offset 5, -16
 1091              		.cfi_offset 6, -12
 1092              		.cfi_offset 7, -8
 1093              		.cfi_offset 14, -4
 1094 0002 0E46     		mov	r6, r1
 1095 0004 CDB0     		sub	sp, sp, #308
 1096              		.cfi_def_cfa_offset 328
 1097              		.loc 1 373 0
 1098 0006 0746     		mov	r7, r0
 1099              		.loc 1 378 0
 1100 0008 1E49     		ldr	r1, .L107
 1101              	.LVL135:
 1102 000a 3046     		mov	r0, r6
 1103              	.LVL136:
 1104 000c FFF7FEFF 		bl	fopen
 1105              	.LVL137:
 1106 0010 A8B3     		cbz	r0, .L99
 1107 0012 0446     		mov	r4, r0
 1108              		.loc 1 381 0
 1109 0014 0021     		movs	r1, #0
 1110 0016 0222     		movs	r2, #2
 1111 0018 FFF7FEFF 		bl	fseek
 1112              	.LVL138:
 1113              		.loc 1 382 0
 1114 001c 2046     		mov	r0, r4
 1115 001e FFF7FEFF 		bl	ftell
 1116              	.LVL139:
 1117              		.loc 1 383 0
 1118 0022 0021     		movs	r1, #0
 1119              		.loc 1 382 0
 1120 0024 0546     		mov	r5, r0
ARM GAS  C:\Users\jo\AppData\Local\Temp\ccWwUjhR.s 			page 21


 1121              	.LVL140:
 1122              		.loc 1 383 0
 1123 0026 0A46     		mov	r2, r1
 1124 0028 2046     		mov	r0, r4
 1125              	.LVL141:
 1126 002a FFF7FEFF 		bl	fseek
 1127              	.LVL142:
 1128              		.loc 1 385 0
 1129 002e B5F5807F 		cmp	r5, #256
 1130 0032 1BD8     		bhi	.L100
 1131              		.loc 1 388 0
 1132 0034 0CA8     		add	r0, sp, #48
 1133 0036 0121     		movs	r1, #1
 1134 0038 2A46     		mov	r2, r5
 1135 003a 2346     		mov	r3, r4
 1136 003c FFF7FEFF 		bl	fread
 1137              	.LVL143:
 1138 0040 A842     		cmp	r0, r5
 1139 0042 16D1     		bne	.L105
 1140              	.LVL144:
 1141              	.LBB26:
 1142              	.LBB27:
 1143              		.loc 1 226 0
 1144 0044 40B9     		cbnz	r0, .L106
 1145              	.LVL145:
 1146              	.L98:
 1147              	.LBE27:
 1148              	.LBE26:
 1149              		.loc 1 396 0
 1150 0046 2046     		mov	r0, r4
 1151 0048 FFF7FEFF 		bl	fclose
 1152              	.LVL146:
 1153              		.loc 1 398 0
 1154 004c 3846     		mov	r0, r7
 1155 004e 3146     		mov	r1, r6
 1156 0050 FFF7FEFF 		bl	ctr_drbg_write_seed_file
 1157              	.LVL147:
 1158              	.L96:
 1159              		.loc 1 399 0
 1160 0054 4DB0     		add	sp, sp, #308
 1161              		.cfi_remember_state
 1162              		.cfi_def_cfa_offset 20
 1163              		@ sp needed
 1164 0056 F0BD     		pop	{r4, r5, r6, r7, pc}
 1165              	.LVL148:
 1166              	.L106:
 1167              		.cfi_restore_state
 1168              	.LBB31:
 1169              	.LBB30:
 1170              	.LBB28:
 1171              	.LBB29:
 1172              		.loc 1 228 0
 1173 0058 0CA9     		add	r1, sp, #48
 1174              	.LVL149:
 1175 005a 0246     		mov	r2, r0
 1176 005c 6846     		mov	r0, sp
 1177              	.LVL150:
ARM GAS  C:\Users\jo\AppData\Local\Temp\ccWwUjhR.s 			page 22


 1178 005e FFF7FEFF 		bl	block_cipher_df
 1179              	.LVL151:
 1180              		.loc 1 229 0
 1181 0062 3846     		mov	r0, r7
 1182 0064 6946     		mov	r1, sp
 1183 0066 FFF7FEFF 		bl	ctr_drbg_update_internal
 1184              	.LVL152:
 1185 006a ECE7     		b	.L98
 1186              	.LVL153:
 1187              	.L100:
 1188              	.LBE29:
 1189              	.LBE28:
 1190              	.LBE30:
 1191              	.LBE31:
 1192              		.loc 1 386 0
 1193 006c 6FF03700 		mvn	r0, #55
 1194 0070 F0E7     		b	.L96
 1195              	.L105:
 1196              		.loc 1 390 0
 1197 0072 2046     		mov	r0, r4
 1198 0074 FFF7FEFF 		bl	fclose
 1199              	.LVL154:
 1200              		.loc 1 391 0
 1201 0078 6FF03900 		mvn	r0, #57
 1202 007c EAE7     		b	.L96
 1203              	.LVL155:
 1204              	.L99:
 1205              		.loc 1 379 0
 1206 007e 6FF03900 		mvn	r0, #57
 1207              	.LVL156:
 1208 0082 E7E7     		b	.L96
 1209              	.L108:
 1210              		.align	2
 1211              	.L107:
 1212 0084 04000000 		.word	.LC1
 1213              		.cfi_endproc
 1214              	.LFE12:
 1215              		.size	ctr_drbg_update_seed_file, .-ctr_drbg_update_seed_file
 1216 0088 AFF30080 		.section	.text.ctr_drbg_self_test,"ax",%progbits
 1216      AFF30080 
 1217              		.align	2
 1218              		.p2align 4,,15
 1219              		.global	ctr_drbg_self_test
 1220              		.thumb
 1221              		.thumb_func
 1222              		.type	ctr_drbg_self_test, %function
 1223              	ctr_drbg_self_test:
 1224              	.LFB14:
 1225              		.loc 1 459 0
 1226              		.cfi_startproc
 1227              		@ args = 0, pretend = 0, frame = 336
 1228              		@ frame_needed = 0, uses_anonymous_args = 0
 1229              	.LVL157:
 1230 0000 2DE9F043 		push	{r4, r5, r6, r7, r8, r9, lr}
 1231              		.cfi_def_cfa_offset 28
 1232              		.cfi_offset 4, -28
 1233              		.cfi_offset 5, -24
ARM GAS  C:\Users\jo\AppData\Local\Temp\ccWwUjhR.s 			page 23


 1234              		.cfi_offset 6, -20
 1235              		.cfi_offset 7, -16
 1236              		.cfi_offset 8, -12
 1237              		.cfi_offset 9, -8
 1238              		.cfi_offset 14, -4
 1239              		.loc 1 466 0
 1240 0004 0446     		mov	r4, r0
 1241              		.loc 1 459 0
 1242 0006 D7B0     		sub	sp, sp, #348
 1243              		.cfi_def_cfa_offset 376
 1244              		.loc 1 466 0
 1245 0008 98B9     		cbnz	r0, .L133
 1246              		.loc 1 469 0
 1247 000a 5B4E     		ldr	r6, .L136
 1248              		.loc 1 470 0
 1249 000c 5B49     		ldr	r1, .L136+4
 1250              		.loc 1 469 0
 1251 000e 3060     		str	r0, [r6]
 1252              		.loc 1 470 0
 1253 0010 06AD     		add	r5, sp, #24
 1254 0012 1027     		movs	r7, #16
 1255 0014 4FF0200E 		mov	lr, #32
 1256 0018 594A     		ldr	r2, .L136+8
 1257 001a 5A4B     		ldr	r3, .L136+12
 1258 001c 2846     		mov	r0, r5
 1259              	.LVL158:
 1260 001e 8DE88040 		stmia	sp, {r7, lr}
 1261 0022 FFF7FEFF 		bl	ctr_drbg_init_entropy_len
 1262              	.LVL159:
 1263 0026 08B3     		cbz	r0, .L134
 1264              	.L117:
 1265              		.loc 1 484 0
 1266 0028 0125     		movs	r5, #1
 1267              	.L123:
 1268              		.loc 1 560 0
 1269 002a 2846     		mov	r0, r5
 1270 002c 57B0     		add	sp, sp, #348
 1271              		.cfi_remember_state
 1272              		.cfi_def_cfa_offset 28
 1273              		@ sp needed
 1274 002e BDE8F083 		pop	{r4, r5, r6, r7, r8, r9, pc}
 1275              	.LVL160:
 1276              	.L133:
 1277              		.cfi_restore_state
 1278              		.loc 1 467 0
 1279 0032 5548     		ldr	r0, .L136+16
 1280              	.LVL161:
 1281              		.loc 1 469 0
 1282 0034 504E     		ldr	r6, .L136
 1283              		.loc 1 467 0
 1284 0036 FFF7FEFF 		bl	printf
 1285              	.LVL162:
 1286              		.loc 1 470 0
 1287 003a 06AD     		add	r5, sp, #24
 1288 003c 2023     		movs	r3, #32
 1289 003e 1027     		movs	r7, #16
 1290              		.loc 1 469 0
ARM GAS  C:\Users\jo\AppData\Local\Temp\ccWwUjhR.s 			page 24


 1291 0040 4FF0000E 		mov	lr, #0
 1292              		.loc 1 470 0
 1293 0044 0193     		str	r3, [sp, #4]
 1294 0046 2846     		mov	r0, r5
 1295 0048 0097     		str	r7, [sp]
 1296 004a 4C49     		ldr	r1, .L136+4
 1297 004c 4C4A     		ldr	r2, .L136+8
 1298 004e 4D4B     		ldr	r3, .L136+12
 1299              		.loc 1 469 0
 1300 0050 C6F800E0 		str	lr, [r6]
 1301              		.loc 1 470 0
 1302 0054 FFF7FEFF 		bl	ctr_drbg_init_entropy_len
 1303              	.LVL163:
 1304 0058 0028     		cmp	r0, #0
 1305 005a 5ED0     		beq	.L111
 1306              	.L113:
 1307              		.loc 1 473 0
 1308 005c 4B48     		ldr	r0, .L136+20
 1309 005e FFF7FEFF 		bl	puts
 1310              	.LVL164:
 1311              		.loc 1 475 0
 1312 0062 0125     		movs	r5, #1
 1313              		.loc 1 560 0
 1314 0064 2846     		mov	r0, r5
 1315 0066 57B0     		add	sp, sp, #348
 1316              		.cfi_remember_state
 1317              		.cfi_def_cfa_offset 28
 1318              		@ sp needed
 1319 0068 BDE8F083 		pop	{r4, r5, r6, r7, r8, r9, pc}
 1320              	.LVL165:
 1321              	.L134:
 1322              		.cfi_restore_state
 1323              	.LBB32:
 1324              	.LBB33:
 1325              		.loc 1 345 0
 1326 006c 0DF10808 		add	r8, sp, #8
 1327 0070 3A46     		mov	r2, r7
 1328              	.LBE33:
 1329              	.LBE32:
 1330              	.LBB39:
 1331              	.LBB40:
 1332              		.loc 1 88 0
 1333 0072 0127     		movs	r7, #1
 1334              	.LBE40:
 1335              	.LBE39:
 1336              	.LBB44:
 1337              	.LBB34:
 1338              		.loc 1 345 0
 1339 0074 0094     		str	r4, [sp]
 1340 0076 4146     		mov	r1, r8
 1341 0078 2846     		mov	r0, r5
 1342 007a 2346     		mov	r3, r4
 1343              	.LBE34:
 1344              	.LBE44:
 1345              	.LBB45:
 1346              	.LBB41:
 1347              		.loc 1 88 0
ARM GAS  C:\Users\jo\AppData\Local\Temp\ccWwUjhR.s 			page 25


 1348 007c 6F61     		str	r7, [r5, #20]
 1349              	.LVL166:
 1350              	.LBE41:
 1351              	.LBE45:
 1352              	.LBB46:
 1353              	.LBB35:
 1354              		.loc 1 345 0
 1355 007e FFF7FEFF 		bl	ctr_drbg_random_with_add
 1356              	.LVL167:
 1357              	.LBE35:
 1358              	.LBE46:
 1359              		.loc 1 479 0
 1360 0082 0028     		cmp	r0, #0
 1361 0084 D0D1     		bne	.L117
 1362              	.L120:
 1363              	.LVL168:
 1364              	.LBB47:
 1365              	.LBB48:
 1366              		.loc 1 345 0
 1367 0086 0023     		movs	r3, #0
 1368 0088 0093     		str	r3, [sp]
 1369 008a 2846     		mov	r0, r5
 1370 008c 4146     		mov	r1, r8
 1371 008e 1022     		movs	r2, #16
 1372 0090 FFF7FEFF 		bl	ctr_drbg_random_with_add
 1373              	.LVL169:
 1374              	.LBE48:
 1375              	.LBE47:
 1376              		.loc 1 487 0
 1377 0094 0028     		cmp	r0, #0
 1378 0096 3DD1     		bne	.L114
 1379              		.loc 1 495 0
 1380 0098 4046     		mov	r0, r8
 1381 009a 3D49     		ldr	r1, .L136+24
 1382 009c 1022     		movs	r2, #16
 1383 009e FFF7FEFF 		bl	memcmp
 1384              	.LVL170:
 1385 00a2 0746     		mov	r7, r0
 1386 00a4 0028     		cmp	r0, #0
 1387 00a6 35D1     		bne	.L114
 1388              		.loc 1 503 0
 1389 00a8 002C     		cmp	r4, #0
 1390 00aa 44D1     		bne	.L135
 1391              		.loc 1 513 0
 1392 00ac 2023     		movs	r3, #32
 1393 00ae 1027     		movs	r7, #16
 1394 00b0 0193     		str	r3, [sp, #4]
 1395 00b2 0097     		str	r7, [sp]
 1396 00b4 2846     		mov	r0, r5
 1397 00b6 3149     		ldr	r1, .L136+4
 1398 00b8 364A     		ldr	r2, .L136+28
 1399 00ba 374B     		ldr	r3, .L136+32
 1400              		.loc 1 512 0
 1401 00bc 3460     		str	r4, [r6]
 1402              		.loc 1 513 0
 1403 00be FFF7FEFF 		bl	ctr_drbg_init_entropy_len
 1404              	.LVL171:
ARM GAS  C:\Users\jo\AppData\Local\Temp\ccWwUjhR.s 			page 26


 1405 00c2 0028     		cmp	r0, #0
 1406 00c4 B0D1     		bne	.L117
 1407              	.LVL172:
 1408              	.LBB49:
 1409              	.LBB50:
 1410              		.loc 1 345 0
 1411 00c6 0094     		str	r4, [sp]
 1412 00c8 3A46     		mov	r2, r7
 1413 00ca 2846     		mov	r0, r5
 1414 00cc 4146     		mov	r1, r8
 1415 00ce 2346     		mov	r3, r4
 1416 00d0 FFF7FEFF 		bl	ctr_drbg_random_with_add
 1417              	.LVL173:
 1418              	.LBE50:
 1419              	.LBE49:
 1420              		.loc 1 521 0
 1421 00d4 0028     		cmp	r0, #0
 1422 00d6 A7D1     		bne	.L117
 1423              	.L121:
 1424              		.loc 1 529 0
 1425 00d8 0021     		movs	r1, #0
 1426 00da 0A46     		mov	r2, r1
 1427 00dc 2846     		mov	r0, r5
 1428 00de FFF7FEFF 		bl	ctr_drbg_reseed
 1429              	.LVL174:
 1430 00e2 0346     		mov	r3, r0
 1431 00e4 B0B9     		cbnz	r0, .L114
 1432              	.LVL175:
 1433              	.LBB52:
 1434              	.LBB53:
 1435              		.loc 1 345 0
 1436 00e6 0090     		str	r0, [sp]
 1437 00e8 4146     		mov	r1, r8
 1438 00ea 2846     		mov	r0, r5
 1439 00ec 1022     		movs	r2, #16
 1440 00ee FFF7FEFF 		bl	ctr_drbg_random_with_add
 1441              	.LVL176:
 1442              	.LBE53:
 1443              	.LBE52:
 1444              		.loc 1 537 0
 1445 00f2 78B9     		cbnz	r0, .L114
 1446              		.loc 1 545 0
 1447 00f4 4046     		mov	r0, r8
 1448 00f6 2949     		ldr	r1, .L136+36
 1449 00f8 1022     		movs	r2, #16
 1450 00fa FFF7FEFF 		bl	memcmp
 1451              	.LVL177:
 1452 00fe 0546     		mov	r5, r0
 1453              	.LVL178:
 1454 0100 40B9     		cbnz	r0, .L114
 1455              		.loc 1 553 0
 1456 0102 002C     		cmp	r4, #0
 1457 0104 91D0     		beq	.L123
 1458              		.loc 1 554 0
 1459 0106 2648     		ldr	r0, .L136+40
 1460 0108 FFF7FEFF 		bl	puts
 1461              	.LVL179:
ARM GAS  C:\Users\jo\AppData\Local\Temp\ccWwUjhR.s 			page 27


 1462              		.loc 1 557 0
 1463 010c 0A20     		movs	r0, #10
 1464 010e FFF7FEFF 		bl	putchar
 1465              	.LVL180:
 1466 0112 8AE7     		b	.L123
 1467              	.LVL181:
 1468              	.L114:
 1469              		.loc 1 481 0
 1470 0114 002C     		cmp	r4, #0
 1471 0116 A1D1     		bne	.L113
 1472 0118 86E7     		b	.L117
 1473              	.LVL182:
 1474              	.L111:
 1475              	.LBB54:
 1476              	.LBB36:
 1477              		.loc 1 345 0
 1478 011a 0DF10808 		add	r8, sp, #8
 1479 011e 3A46     		mov	r2, r7
 1480              	.LBE36:
 1481              	.LBE54:
 1482              	.LBB55:
 1483              	.LBB42:
 1484              		.loc 1 88 0
 1485 0120 0127     		movs	r7, #1
 1486              	.LBE42:
 1487              	.LBE55:
 1488              	.LBB56:
 1489              	.LBB37:
 1490              		.loc 1 345 0
 1491 0122 0090     		str	r0, [sp]
 1492 0124 0346     		mov	r3, r0
 1493 0126 4146     		mov	r1, r8
 1494 0128 2846     		mov	r0, r5
 1495              	.LBE37:
 1496              	.LBE56:
 1497              	.LBB57:
 1498              	.LBB43:
 1499              		.loc 1 88 0
 1500 012a 6F61     		str	r7, [r5, #20]
 1501              	.LVL183:
 1502              	.LBE43:
 1503              	.LBE57:
 1504              	.LBB58:
 1505              	.LBB38:
 1506              		.loc 1 345 0
 1507 012c FFF7FEFF 		bl	ctr_drbg_random_with_add
 1508              	.LVL184:
 1509              	.LBE38:
 1510              	.LBE58:
 1511              		.loc 1 479 0
 1512 0130 0028     		cmp	r0, #0
 1513 0132 93D1     		bne	.L113
 1514 0134 A7E7     		b	.L120
 1515              	.LVL185:
 1516              	.L135:
 1517              		.loc 1 504 0
 1518 0136 1A48     		ldr	r0, .L136+40
ARM GAS  C:\Users\jo\AppData\Local\Temp\ccWwUjhR.s 			page 28


 1519 0138 FFF7FEFF 		bl	puts
 1520              	.LVL186:
 1521              		.loc 1 510 0
 1522 013c 1948     		ldr	r0, .L136+44
 1523 013e FFF7FEFF 		bl	printf
 1524              	.LVL187:
 1525              		.loc 1 513 0
 1526 0142 4FF01009 		mov	r9, #16
 1527 0146 2023     		movs	r3, #32
 1528 0148 0193     		str	r3, [sp, #4]
 1529 014a CDF80090 		str	r9, [sp]
 1530 014e 2846     		mov	r0, r5
 1531 0150 0A49     		ldr	r1, .L136+4
 1532 0152 104A     		ldr	r2, .L136+28
 1533 0154 104B     		ldr	r3, .L136+32
 1534              		.loc 1 512 0
 1535 0156 3760     		str	r7, [r6]
 1536              		.loc 1 513 0
 1537 0158 FFF7FEFF 		bl	ctr_drbg_init_entropy_len
 1538              	.LVL188:
 1539 015c 0028     		cmp	r0, #0
 1540 015e 7FF47DAF 		bne	.L113
 1541              	.LVL189:
 1542              	.LBB59:
 1543              	.LBB51:
 1544              		.loc 1 345 0
 1545 0162 0090     		str	r0, [sp]
 1546 0164 0346     		mov	r3, r0
 1547 0166 4A46     		mov	r2, r9
 1548 0168 2846     		mov	r0, r5
 1549 016a 4146     		mov	r1, r8
 1550 016c FFF7FEFF 		bl	ctr_drbg_random_with_add
 1551              	.LVL190:
 1552              	.LBE51:
 1553              	.LBE59:
 1554              		.loc 1 521 0
 1555 0170 0028     		cmp	r0, #0
 1556 0172 7FF473AF 		bne	.L113
 1557 0176 AFE7     		b	.L121
 1558              	.L137:
 1559              		.align	2
 1560              	.L136:
 1561 0178 00000000 		.word	.LANCHOR0
 1562 017c 00000000 		.word	ctr_drbg_self_test_entropy
 1563 0180 00000000 		.word	.LANCHOR1
 1564 0184 00000000 		.word	.LANCHOR2
 1565 0188 08000000 		.word	.LC2
 1566 018c 24000000 		.word	.LC3
 1567 0190 00000000 		.word	.LANCHOR3
 1568 0194 00000000 		.word	.LANCHOR4
 1569 0198 00000000 		.word	.LANCHOR5
 1570 019c 00000000 		.word	.LANCHOR6
 1571 01a0 2C000000 		.word	.LC4
 1572 01a4 34000000 		.word	.LC5
 1573              		.cfi_endproc
 1574              	.LFE14:
 1575              		.size	ctr_drbg_self_test, .-ctr_drbg_self_test
ARM GAS  C:\Users\jo\AppData\Local\Temp\ccWwUjhR.s 			page 29


 1576              		.global	test_offset
 1577              		.global	result_nopr
 1578              		.global	result_pr
 1579              		.global	nonce_pers_nopr
 1580              		.global	nonce_pers_pr
 1581              		.global	entropy_source_nopr
 1582              		.global	entropy_source_pr
 1583 01a8 AFF30080 		.section	.data.nonce_pers_nopr,"aw",%progbits
 1583      AFF30080 
 1584              		.align	2
 1585              		.set	.LANCHOR5,. + 0
 1586              		.type	nonce_pers_nopr, %object
 1587              		.size	nonce_pers_nopr, 16
 1588              	nonce_pers_nopr:
 1589 0000 1B       		.byte	27
 1590 0001 54       		.byte	84
 1591 0002 B8       		.byte	-72
 1592 0003 FF       		.byte	-1
 1593 0004 06       		.byte	6
 1594 0005 42       		.byte	66
 1595 0006 BF       		.byte	-65
 1596 0007 F5       		.byte	-11
 1597 0008 21       		.byte	33
 1598 0009 F1       		.byte	-15
 1599 000a 5C       		.byte	92
 1600 000b 1C       		.byte	28
 1601 000c 0B       		.byte	11
 1602 000d 66       		.byte	102
 1603 000e 5F       		.byte	95
 1604 000f 3F       		.byte	63
 1605              		.section	.bss.test_offset,"aw",%nobits
 1606              		.align	2
 1607              		.set	.LANCHOR0,. + 0
 1608              		.type	test_offset, %object
 1609              		.size	test_offset, 4
 1610              	test_offset:
 1611 0000 00000000 		.space	4
 1612              		.section	.data.nonce_pers_pr,"aw",%progbits
 1613              		.align	2
 1614              		.set	.LANCHOR2,. + 0
 1615              		.type	nonce_pers_pr, %object
 1616              		.size	nonce_pers_pr, 16
 1617              	nonce_pers_pr:
 1618 0000 D2       		.byte	-46
 1619 0001 54       		.byte	84
 1620 0002 FC       		.byte	-4
 1621 0003 FF       		.byte	-1
 1622 0004 02       		.byte	2
 1623 0005 1E       		.byte	30
 1624 0006 69       		.byte	105
 1625 0007 D2       		.byte	-46
 1626 0008 29       		.byte	41
 1627 0009 C9       		.byte	-55
 1628 000a CF       		.byte	-49
 1629 000b AD       		.byte	-83
 1630 000c 85       		.byte	-123
 1631 000d FA       		.byte	-6
ARM GAS  C:\Users\jo\AppData\Local\Temp\ccWwUjhR.s 			page 30


 1632 000e 48       		.byte	72
 1633 000f 6C       		.byte	108
 1634              		.section	.rodata.str1.4,"aMS",%progbits,1
 1635              		.align	2
 1636              	.LC0:
 1637 0000 776200   		.ascii	"wb\000"
 1638 0003 00       		.space	1
 1639              	.LC1:
 1640 0004 726200   		.ascii	"rb\000"
 1641 0007 00       		.space	1
 1642              	.LC2:
 1643 0008 20204354 		.ascii	"  CTR_DRBG (PR = TRUE) : \000"
 1643      525F4452 
 1643      42472028 
 1643      5052203D 
 1643      20545255 
 1644 0022 0000     		.space	2
 1645              	.LC3:
 1646 0024 6661696C 		.ascii	"failed\000"
 1646      656400
 1647 002b 00       		.space	1
 1648              	.LC4:
 1649 002c 70617373 		.ascii	"passed\000"
 1649      656400
 1650 0033 00       		.space	1
 1651              	.LC5:
 1652 0034 20204354 		.ascii	"  CTR_DRBG (PR = FALSE): \000"
 1652      525F4452 
 1652      42472028 
 1652      5052203D 
 1652      2046414C 
 1653 004e 0000     		.section	.data.entropy_source_nopr,"aw",%progbits
 1654              		.align	2
 1655              		.set	.LANCHOR4,. + 0
 1656              		.type	entropy_source_nopr, %object
 1657              		.size	entropy_source_nopr, 64
 1658              	entropy_source_nopr:
 1659 0000 5A       		.byte	90
 1660 0001 19       		.byte	25
 1661 0002 4D       		.byte	77
 1662 0003 5E       		.byte	94
 1663 0004 2B       		.byte	43
 1664 0005 31       		.byte	49
 1665 0006 58       		.byte	88
 1666 0007 14       		.byte	20
 1667 0008 54       		.byte	84
 1668 0009 DE       		.byte	-34
 1669 000a F6       		.byte	-10
 1670 000b 75       		.byte	117
 1671 000c FB       		.byte	-5
 1672 000d 79       		.byte	121
 1673 000e 58       		.byte	88
 1674 000f FE       		.byte	-2
 1675 0010 C7       		.byte	-57
 1676 0011 DB       		.byte	-37
 1677 0012 87       		.byte	-121
 1678 0013 3E       		.byte	62
ARM GAS  C:\Users\jo\AppData\Local\Temp\ccWwUjhR.s 			page 31


 1679 0014 56       		.byte	86
 1680 0015 89       		.byte	-119
 1681 0016 FC       		.byte	-4
 1682 0017 9D       		.byte	-99
 1683 0018 03       		.byte	3
 1684 0019 21       		.byte	33
 1685 001a 7C       		.byte	124
 1686 001b 68       		.byte	104
 1687 001c D8       		.byte	-40
 1688 001d 03       		.byte	3
 1689 001e 38       		.byte	56
 1690 001f 20       		.byte	32
 1691 0020 F9       		.byte	-7
 1692 0021 E6       		.byte	-26
 1693 0022 5E       		.byte	94
 1694 0023 04       		.byte	4
 1695 0024 D8       		.byte	-40
 1696 0025 56       		.byte	86
 1697 0026 F3       		.byte	-13
 1698 0027 A9       		.byte	-87
 1699 0028 C4       		.byte	-60
 1700 0029 4A       		.byte	74
 1701 002a 4C       		.byte	76
 1702 002b BD       		.byte	-67
 1703 002c C1       		.byte	-63
 1704 002d D0       		.byte	-48
 1705 002e 08       		.byte	8
 1706 002f 46       		.byte	70
 1707 0030 F5       		.byte	-11
 1708 0031 98       		.byte	-104
 1709 0032 3D       		.byte	61
 1710 0033 77       		.byte	119
 1711 0034 1C       		.byte	28
 1712 0035 1B       		.byte	27
 1713 0036 13       		.byte	19
 1714 0037 7E       		.byte	126
 1715 0038 4E       		.byte	78
 1716 0039 0F       		.byte	15
 1717 003a 9D       		.byte	-99
 1718 003b 8E       		.byte	-114
 1719 003c F4       		.byte	-12
 1720 003d 09       		.byte	9
 1721 003e F9       		.byte	-7
 1722 003f 2E       		.byte	46
 1723              		.section	.data.entropy_source_pr,"aw",%progbits
 1724              		.align	2
 1725              		.set	.LANCHOR1,. + 0
 1726              		.type	entropy_source_pr, %object
 1727              		.size	entropy_source_pr, 96
 1728              	entropy_source_pr:
 1729 0000 C1       		.byte	-63
 1730 0001 80       		.byte	-128
 1731 0002 81       		.byte	-127
 1732 0003 A6       		.byte	-90
 1733 0004 5D       		.byte	93
 1734 0005 44       		.byte	68
 1735 0006 02       		.byte	2
ARM GAS  C:\Users\jo\AppData\Local\Temp\ccWwUjhR.s 			page 32


 1736 0007 16       		.byte	22
 1737 0008 19       		.byte	25
 1738 0009 B3       		.byte	-77
 1739 000a F1       		.byte	-15
 1740 000b 80       		.byte	-128
 1741 000c B1       		.byte	-79
 1742 000d C9       		.byte	-55
 1743 000e 20       		.byte	32
 1744 000f 02       		.byte	2
 1745 0010 6A       		.byte	106
 1746 0011 54       		.byte	84
 1747 0012 6F       		.byte	111
 1748 0013 0C       		.byte	12
 1749 0014 70       		.byte	112
 1750 0015 81       		.byte	-127
 1751 0016 49       		.byte	73
 1752 0017 8B       		.byte	-117
 1753 0018 6E       		.byte	110
 1754 0019 A6       		.byte	-90
 1755 001a 62       		.byte	98
 1756 001b 52       		.byte	82
 1757 001c 6D       		.byte	109
 1758 001d 51       		.byte	81
 1759 001e B1       		.byte	-79
 1760 001f CB       		.byte	-53
 1761 0020 58       		.byte	88
 1762 0021 3B       		.byte	59
 1763 0022 FA       		.byte	-6
 1764 0023 D5       		.byte	-43
 1765 0024 37       		.byte	55
 1766 0025 5F       		.byte	95
 1767 0026 FB       		.byte	-5
 1768 0027 C9       		.byte	-55
 1769 0028 FF       		.byte	-1
 1770 0029 46       		.byte	70
 1771 002a D2       		.byte	-46
 1772 002b 19       		.byte	25
 1773 002c C7       		.byte	-57
 1774 002d 22       		.byte	34
 1775 002e 3E       		.byte	62
 1776 002f 95       		.byte	-107
 1777 0030 45       		.byte	69
 1778 0031 9D       		.byte	-99
 1779 0032 82       		.byte	-126
 1780 0033 E1       		.byte	-31
 1781 0034 E7       		.byte	-25
 1782 0035 22       		.byte	34
 1783 0036 9F       		.byte	-97
 1784 0037 63       		.byte	99
 1785 0038 31       		.byte	49
 1786 0039 69       		.byte	105
 1787 003a D2       		.byte	-46
 1788 003b 6B       		.byte	107
 1789 003c 57       		.byte	87
 1790 003d 47       		.byte	71
 1791 003e 4F       		.byte	79
 1792 003f A3       		.byte	-93
ARM GAS  C:\Users\jo\AppData\Local\Temp\ccWwUjhR.s 			page 33


 1793 0040 37       		.byte	55
 1794 0041 C9       		.byte	-55
 1795 0042 98       		.byte	-104
 1796 0043 1C       		.byte	28
 1797 0044 0B       		.byte	11
 1798 0045 FB       		.byte	-5
 1799 0046 91       		.byte	-111
 1800 0047 31       		.byte	49
 1801 0048 4D       		.byte	77
 1802 0049 55       		.byte	85
 1803 004a B9       		.byte	-71
 1804 004b E9       		.byte	-23
 1805 004c 1C       		.byte	28
 1806 004d 5A       		.byte	90
 1807 004e 5E       		.byte	94
 1808 004f E4       		.byte	-28
 1809 0050 93       		.byte	-109
 1810 0051 92       		.byte	-110
 1811 0052 CF       		.byte	-49
 1812 0053 C5       		.byte	-59
 1813 0054 23       		.byte	35
 1814 0055 12       		.byte	18
 1815 0056 D5       		.byte	-43
 1816 0057 56       		.byte	86
 1817 0058 2C       		.byte	44
 1818 0059 4A       		.byte	74
 1819 005a 6E       		.byte	110
 1820 005b FF       		.byte	-1
 1821 005c DC       		.byte	-36
 1822 005d 10       		.byte	16
 1823 005e D0       		.byte	-48
 1824 005f 68       		.byte	104
 1825              		.section	.data.result_nopr,"aw",%progbits
 1826              		.align	2
 1827              		.set	.LANCHOR6,. + 0
 1828              		.type	result_nopr, %object
 1829              		.size	result_nopr, 16
 1830              	result_nopr:
 1831 0000 A0       		.byte	-96
 1832 0001 54       		.byte	84
 1833 0002 30       		.byte	48
 1834 0003 3D       		.byte	61
 1835 0004 8A       		.byte	-118
 1836 0005 7E       		.byte	126
 1837 0006 A9       		.byte	-87
 1838 0007 88       		.byte	-120
 1839 0008 9D       		.byte	-99
 1840 0009 90       		.byte	-112
 1841 000a 3E       		.byte	62
 1842 000b 07       		.byte	7
 1843 000c 7C       		.byte	124
 1844 000d 6F       		.byte	111
 1845 000e 21       		.byte	33
 1846 000f 8F       		.byte	-113
 1847              		.section	.data.result_pr,"aw",%progbits
 1848              		.align	2
 1849              		.set	.LANCHOR3,. + 0
ARM GAS  C:\Users\jo\AppData\Local\Temp\ccWwUjhR.s 			page 34


 1850              		.type	result_pr, %object
 1851              		.size	result_pr, 16
 1852              	result_pr:
 1853 0000 34       		.byte	52
 1854 0001 01       		.byte	1
 1855 0002 16       		.byte	22
 1856 0003 56       		.byte	86
 1857 0004 B4       		.byte	-76
 1858 0005 29       		.byte	41
 1859 0006 00       		.byte	0
 1860 0007 8F       		.byte	-113
 1861 0008 35       		.byte	53
 1862 0009 63       		.byte	99
 1863 000a EC       		.byte	-20
 1864 000b B5       		.byte	-75
 1865 000c F2       		.byte	-14
 1866 000d 59       		.byte	89
 1867 000e 07       		.byte	7
 1868 000f 23       		.byte	35
 1869              		.text
 1870              	.Letext0:
 1871              		.file 2 "c:\\program files\\gnu tools arm embedded\\4.9 2014q4\\lib\\gcc\\arm-none-eabi\\4.9.3\\in
 1872              		.file 3 "c:\\program files\\gnu tools arm embedded\\4.9 2014q4\\arm-none-eabi\\include\\machine\\_
 1873              		.file 4 "c:\\program files\\gnu tools arm embedded\\4.9 2014q4\\arm-none-eabi\\include\\sys\\lock.
 1874              		.file 5 "c:\\program files\\gnu tools arm embedded\\4.9 2014q4\\arm-none-eabi\\include\\sys\\_type
 1875              		.file 6 "c:\\program files\\gnu tools arm embedded\\4.9 2014q4\\arm-none-eabi\\include\\sys\\reent
 1876              		.file 7 "c:\\program files\\gnu tools arm embedded\\4.9 2014q4\\arm-none-eabi\\include\\stdint.h"
 1877              		.file 8 "../../../demos/STM32/RT-STM32F407-DISCOVERY-uHttp/uhttp-1.1/PolarSSL/include/polarssl/aes
 1878              		.file 9 "../../../demos/STM32/RT-STM32F407-DISCOVERY-uHttp/uhttp-1.1/PolarSSL/include/polarssl/ctr
 1879              		.file 10 "c:\\program files\\gnu tools arm embedded\\4.9 2014q4\\arm-none-eabi\\include\\stdio.h"
 1880              		.file 11 "c:\\program files\\gnu tools arm embedded\\4.9 2014q4\\arm-none-eabi\\include\\string.h"
 1881              		.file 12 "<built-in>"