ARM GAS  C:\Users\jo\AppData\Local\Temp\ccDdpTff.s 			page 1


   1              		.syntax unified
   2              		.cpu cortex-m4
   3              		.fpu softvfp
   4              		.eabi_attribute 20, 1
   5              		.eabi_attribute 21, 1
   6              		.eabi_attribute 23, 3
   7              		.eabi_attribute 24, 1
   8              		.eabi_attribute 25, 1
   9              		.eabi_attribute 26, 1
  10              		.eabi_attribute 30, 2
  11              		.eabi_attribute 34, 1
  12              		.eabi_attribute 18, 4
  13              		.thumb
  14              		.file	"des.c"
  15              		.text
  16              	.Ltext0:
  17              		.cfi_sections	.debug_frame
  18              		.section	.text.des_setkey,"ax",%progbits
  19              		.align	2
  20              		.p2align 4,,15
  21              		.thumb
  22              		.thumb_func
  23              		.type	des_setkey, %function
  24              	des_setkey:
  25              	.LFB3:
  26              		.file 1 "../../../os/ext/PolarSSL/library/des.c"
  27              		.loc 1 419 0
  28              		.cfi_startproc
  29              		@ args = 0, pretend = 0, frame = 0
  30              		@ frame_needed = 0, uses_anonymous_args = 0
  31              	.LVL0:
  32 0000 2DE9F04F 		push	{r4, r5, r6, r7, r8, r9, r10, fp, lr}
  33              		.cfi_def_cfa_offset 36
  34              		.cfi_offset 4, -36
  35              		.cfi_offset 5, -32
  36              		.cfi_offset 6, -28
  37              		.cfi_offset 7, -24
  38              		.cfi_offset 8, -20
  39              		.cfi_offset 9, -16
  40              		.cfi_offset 10, -12
  41              		.cfi_offset 11, -8
  42              		.cfi_offset 14, -4
  43              		.loc 1 423 0
  44 0004 4F78     		ldrb	r7, [r1, #1]	@ zero_extendqisi2
  45              		.loc 1 424 0
  46 0006 91F805C0 		ldrb	ip, [r1, #5]	@ zero_extendqisi2
  47              		.loc 1 423 0
  48 000a 0C78     		ldrb	r4, [r1]	@ zero_extendqisi2
  49              		.loc 1 424 0
  50 000c 0B79     		ldrb	r3, [r1, #4]	@ zero_extendqisi2
  51              		.loc 1 423 0
  52 000e 91F803E0 		ldrb	lr, [r1, #3]	@ zero_extendqisi2
  53              		.loc 1 424 0
  54 0012 CA79     		ldrb	r2, [r1, #7]	@ zero_extendqisi2
  55              		.loc 1 423 0
  56 0014 91F80280 		ldrb	r8, [r1, #2]	@ zero_extendqisi2
  57              		.loc 1 424 0
ARM GAS  C:\Users\jo\AppData\Local\Temp\ccDdpTff.s 			page 2


  58 0018 8979     		ldrb	r1, [r1, #6]	@ zero_extendqisi2
  59              	.LVL1:
  60              		.loc 1 440 0
  61 001a C44D     		ldr	r5, .L12
  62              		.loc 1 435 0
  63 001c C44E     		ldr	r6, .L12+4
  64              		.loc 1 424 0
  65 001e 4FEA0C4C 		lsl	ip, ip, #16
  66              		.loc 1 423 0
  67 0022 3F04     		lsls	r7, r7, #16
  68 0024 47EA0467 		orr	r7, r7, r4, lsl #24
  69              		.loc 1 424 0
  70 0028 4CEA0363 		orr	r3, ip, r3, lsl #24
  71 002c 47EA0E07 		orr	r7, r7, lr
  72 0030 1343     		orrs	r3, r3, r2
  73 0032 43EA0124 		orr	r4, r3, r1, lsl #8
  74              		.loc 1 423 0
  75 0036 47EA0822 		orr	r2, r7, r8, lsl #8
  76              	.LVL2:
  77              		.loc 1 429 0
  78 003a 82EA1413 		eor	r3, r2, r4, lsr #4
  79 003e 03F00F33 		and	r3, r3, #252645135
  80              	.LVL3:
  81 0042 84EA0311 		eor	r1, r4, r3, lsl #4
  82 0046 5A40     		eors	r2, r2, r3
  83              	.LVL4:
  84              		.loc 1 430 0
  85 0048 81EA0203 		eor	r3, r1, r2
  86              	.LVL5:
  87 004c 03F01033 		and	r3, r3, #269488144
  88              	.LVL6:
  89 0050 5A40     		eors	r2, r2, r3
  90              	.LVL7:
  91 0052 4B40     		eors	r3, r3, r1
  92              	.LVL8:
  93              		.loc 1 432 0
  94 0054 02F00F08 		and	r8, r2, #15
  95              	.LVL9:
  96              		.loc 1 440 0
  97 0058 4FEA137C 		lsr	ip, r3, #28
  98              		.loc 1 435 0
  99 005c 4FEA527E 		lsr	lr, r2, #29
 100              		.loc 1 437 0
 101 0060 C3F34307 		ubfx	r7, r3, #1, #4
 102              	.LVL10:
 103              		.loc 1 433 0
 104 0064 C2F30364 		ubfx	r4, r2, #24, #4
 105              	.LVL11:
 106              		.loc 1 438 0
 107 0068 C3F34361 		ubfx	r1, r3, #25, #4
 108              	.LVL12:
 109              		.loc 1 432 0
 110 006c 56F82890 		ldr	r9, [r6, r8, lsl #2]
 111 0070 56F82440 		ldr	r4, [r6, r4, lsl #2]
 112              		.loc 1 440 0
 113 0074 55F82C80 		ldr	r8, [r5, ip, lsl #2]
 114              		.loc 1 435 0
ARM GAS  C:\Users\jo\AppData\Local\Temp\ccDdpTff.s 			page 3


 115 0078 56F82EC0 		ldr	ip, [r6, lr, lsl #2]
 116              		.loc 1 437 0
 117 007c 55F827E0 		ldr	lr, [r5, r7, lsl #2]
 118 0080 55F82110 		ldr	r1, [r5, r1, lsl #2]
 119              		.loc 1 432 0
 120 0084 C2F30327 		ubfx	r7, r2, #8, #4
 121              		.loc 1 437 0
 122 0088 C3F3432B 		ubfx	fp, r3, #9, #4
 123              		.loc 1 433 0
 124 008c C2F3034A 		ubfx	r10, r2, #16, #4
 125 0090 44EAC904 		orr	r4, r4, r9, lsl #3
 126              		.loc 1 432 0
 127 0094 56F82770 		ldr	r7, [r6, r7, lsl #2]
 128              		.loc 1 437 0
 129 0098 55F82BB0 		ldr	fp, [r5, fp, lsl #2]
 130              		.loc 1 433 0
 131 009c 56F82AA0 		ldr	r10, [r6, r10, lsl #2]
 132              		.loc 1 438 0
 133 00a0 C3F34349 		ubfx	r9, r3, #17, #4
 134 00a4 41EA0811 		orr	r1, r1, r8, lsl #4
 135 00a8 44EA0C14 		orr	r4, r4, ip, lsl #4
 136              		.loc 1 434 0
 137 00ac C2F34318 		ubfx	r8, r2, #5, #4
 138              		.loc 1 439 0
 139 00b0 C3F3031C 		ubfx	ip, r3, #4, #4
 140              		.loc 1 438 0
 141 00b4 55F82990 		ldr	r9, [r5, r9, lsl #2]
 142              		.loc 1 439 0
 143 00b8 55F82CC0 		ldr	ip, [r5, ip, lsl #2]
 144              		.loc 1 434 0
 145 00bc 56F82880 		ldr	r8, [r6, r8, lsl #2]
 146 00c0 41EACE01 		orr	r1, r1, lr, lsl #3
 147 00c4 44EA8704 		orr	r4, r4, r7, lsl #2
 148 00c8 C2F3433E 		ubfx	lr, r2, #13, #4
 149              		.loc 1 439 0
 150 00cc C3F30337 		ubfx	r7, r3, #12, #4
 151              		.loc 1 435 0
 152 00d0 C2F34352 		ubfx	r2, r2, #21, #4
 153              	.LVL13:
 154 00d4 41EA8B01 		orr	r1, r1, fp, lsl #2
 155              		.loc 1 440 0
 156 00d8 C3F30353 		ubfx	r3, r3, #20, #4
 157              	.LVL14:
 158              		.loc 1 439 0
 159 00dc 55F82770 		ldr	r7, [r5, r7, lsl #2]
 160              		.loc 1 434 0
 161 00e0 56F82EE0 		ldr	lr, [r6, lr, lsl #2]
 162              		.loc 1 440 0
 163 00e4 55F82330 		ldr	r3, [r5, r3, lsl #2]
 164              		.loc 1 435 0
 165 00e8 56F82220 		ldr	r2, [r6, r2, lsl #2]
 166 00ec 44EA4A04 		orr	r4, r4, r10, lsl #1
 167 00f0 41EA4909 		orr	r9, r1, r9, lsl #1
 168 00f4 44EAC818 		orr	r8, r4, r8, lsl #7
 169 00f8 49EACC1C 		orr	ip, r9, ip, lsl #7
 170 00fc 48EA8E1E 		orr	lr, r8, lr, lsl #6
 171 0100 4CEA8717 		orr	r7, ip, r7, lsl #6
ARM GAS  C:\Users\jo\AppData\Local\Temp\ccDdpTff.s 			page 4


 172              		.loc 1 432 0
 173 0104 4EEA4212 		orr	r2, lr, r2, lsl #5
 174              	.LVL15:
 175              		.loc 1 437 0
 176 0108 47EA4313 		orr	r3, r7, r3, lsl #5
 177              	.LVL16:
 178 010c 0830     		adds	r0, r0, #8
 179              	.LVL17:
 180              		.loc 1 442 0
 181 010e 22F07042 		bic	r2, r2, #-268435456
 182              	.LVL18:
 183              		.loc 1 443 0
 184 0112 23F07043 		bic	r3, r3, #-268435456
 185              	.LVL19:
 186              		.loc 1 448 0
 187 0116 0025     		movs	r5, #0
 188              	.LVL20:
 189              	.L5:
 190              		.loc 1 450 0
 191 0118 012D     		cmp	r5, #1
 192 011a 40F3FC80 		ble	.L2
 193              		.loc 1 450 0 is_stmt 0 discriminator 1
 194 011e 082D     		cmp	r5, #8
 195 0120 00F0F980 		beq	.L2
 196              		.loc 1 450 0 discriminator 2
 197 0124 0F2D     		cmp	r5, #15
 198 0126 00F0F680 		beq	.L2
 199              		.loc 1 457 0 is_stmt 1
 200 012a 9400     		lsls	r4, r2, #2
 201              		.loc 1 458 0
 202 012c 9900     		lsls	r1, r3, #2
 203              		.loc 1 457 0
 204 012e 44EA9262 		orr	r2, r4, r2, lsr #26
 205              	.LVL21:
 206              		.loc 1 458 0
 207 0132 41EA9363 		orr	r3, r1, r3, lsr #26
 208              	.LVL22:
 209              		.loc 1 457 0
 210 0136 22F07042 		bic	r2, r2, #-268435456
 211              	.LVL23:
 212              		.loc 1 458 0
 213 013a 23F07043 		bic	r3, r3, #-268435456
 214              	.LVL24:
 215              	.L4:
 216              		.loc 1 473 0 discriminator 2
 217 013e D703     		lsls	r7, r2, #15
 218              		.loc 1 461 0 discriminator 2
 219 0140 1401     		lsls	r4, r2, #4
 220 0142 1107     		lsls	r1, r2, #28
 221              		.loc 1 473 0 discriminator 2
 222 0144 5604     		lsls	r6, r2, #17
 223 0146 07F0005E 		and	lr, r7, #536870912
 224              		.loc 1 461 0 discriminator 2
 225 014a 01F08051 		and	r1, r1, #268435456
 226 014e 04F01054 		and	r4, r4, #603979776
 227              		.loc 1 473 0 discriminator 2
 228 0152 06F08056 		and	r6, r6, #268435456
ARM GAS  C:\Users\jo\AppData\Local\Temp\ccDdpTff.s 			page 5


 229              		.loc 1 461 0 discriminator 2
 230 0156 0C43     		orrs	r4, r4, r1
 231              		.loc 1 473 0 discriminator 2
 232 0158 4EEA0606 		orr	r6, lr, r6
 233              		.loc 1 464 0 discriminator 2
 234 015c 9102     		lsls	r1, r2, #10
 235              		.loc 1 481 0 discriminator 2
 236 015e 03F4007E 		and	lr, r3, #512
 237              		.loc 1 468 0 discriminator 2
 238 0162 03F48078 		and	r8, r3, #256
 239              		.loc 1 462 0 discriminator 2
 240 0166 4FEA823B 		lsl	fp, r2, #14
 241 016a 46EA0E06 		orr	r6, r6, lr
 242 016e 44EA0808 		orr	r8, r4, r8
 243 0172 0BF0006B 		and	fp, fp, #134217728
 244              		.loc 1 474 0 discriminator 2
 245 0176 01F0006C 		and	ip, r1, #134217728
 246 017a 4FEA825E 		lsl	lr, r2, #22
 247              		.loc 1 462 0 discriminator 2
 248 017e 4FEA8249 		lsl	r9, r2, #18
 249 0182 48EA0B04 		orr	r4, r8, fp
 250 0186 46EA0C0C 		orr	ip, r6, ip
 251              		.loc 1 474 0 discriminator 2
 252 018a 0EF0806B 		and	fp, lr, #67108864
 253              		.loc 1 462 0 discriminator 2
 254 018e 09F00279 		and	r9, r9, #34078720
 255              		.loc 1 463 0 discriminator 2
 256 0192 4FEA821A 		lsl	r10, r2, #6
 257              		.loc 1 475 0 discriminator 2
 258 0196 4FEA920E 		lsr	lr, r2, #2
 259 019a 4CEA0B06 		orr	r6, ip, fp
 260 019e 44EA0909 		orr	r9, r4, r9
 261              		.loc 1 463 0 discriminator 2
 262 01a2 0AF0807A 		and	r10, r10, #16777216
 263 01a6 4FEA4228 		lsl	r8, r2, #9
 264              		.loc 1 475 0 discriminator 2
 265 01aa 0EF0007E 		and	lr, lr, #33554432
 266 01ae 4FEA420C 		lsl	ip, r2, #1
 267 01b2 49EA0A0A 		orr	r10, r9, r10
 268 01b6 46EA0E0E 		orr	lr, r6, lr
 269              		.loc 1 463 0 discriminator 2
 270 01ba 08F40018 		and	r8, r8, #2097152
 271              		.loc 1 464 0 discriminator 2
 272 01be 5408     		lsrs	r4, r2, #1
 273              		.loc 1 475 0 discriminator 2
 274 01c0 0CF0807C 		and	ip, ip, #16777216
 275              		.loc 1 476 0 discriminator 2
 276 01c4 1604     		lsls	r6, r2, #16
 277 01c6 4AEA0808 		orr	r8, r10, r8
 278 01ca 4EEA0C0C 		orr	ip, lr, ip
 279 01ce 06F40016 		and	r6, r6, #2097152
 280              		.loc 1 464 0 discriminator 2
 281 01d2 04F48014 		and	r4, r4, #1048576
 282              		.loc 1 476 0 discriminator 2
 283 01d6 4FEAC22E 		lsl	lr, r2, #11
 284 01da 48EA0404 		orr	r4, r8, r4
 285              		.loc 1 464 0 discriminator 2
ARM GAS  C:\Users\jo\AppData\Local\Temp\ccDdpTff.s 			page 6


 286 01de 01F48029 		and	r9, r1, #262144
 287 01e2 4CEA060C 		orr	ip, ip, r6
 288              		.loc 1 477 0 discriminator 2
 289 01e6 4FEAC20A 		lsl	r10, r2, #3
 290              		.loc 1 465 0 discriminator 2
 291 01ea 4FEA820B 		lsl	fp, r2, #2
 292              		.loc 1 476 0 discriminator 2
 293 01ee 0EF4801E 		and	lr, lr, #1048576
 294 01f2 44EA0906 		orr	r6, r4, r9
 295 01f6 4CEA0E0E 		orr	lr, ip, lr
 296              		.loc 1 465 0 discriminator 2
 297 01fa 0BF4003B 		and	fp, fp, #131072
 298              		.loc 1 477 0 discriminator 2
 299 01fe 0AF4002C 		and	ip, r10, #524288
 300              		.loc 1 465 0 discriminator 2
 301 0202 940A     		lsrs	r4, r2, #10
 302              		.loc 1 477 0 discriminator 2
 303 0204 4FEA921A 		lsr	r10, r2, #6
 304 0208 46EA0B09 		orr	r9, r6, fp
 305 020c 4EEA0C0E 		orr	lr, lr, ip
 306 0210 0AF4802A 		and	r10, r10, #262144
 307              		.loc 1 465 0 discriminator 2
 308 0214 04F48034 		and	r4, r4, #65536
 309              		.loc 1 466 0 discriminator 2
 310 0218 5E0B     		lsrs	r6, r3, #13
 311 021a 49EA0404 		orr	r4, r9, r4
 312 021e 4EEA0A01 		orr	r1, lr, r10
 313              		.loc 1 478 0 discriminator 2
 314 0222 07F40037 		and	r7, r7, #131072
 315              		.loc 1 466 0 discriminator 2
 316 0226 06F40056 		and	r6, r6, #8192
 317 022a 4FEA1319 		lsr	r9, r3, #4
 318              		.loc 1 478 0 discriminator 2
 319 022e 4FEA1218 		lsr	r8, r2, #4
 320 0232 2643     		orrs	r6, r6, r4
 321 0234 3943     		orrs	r1, r1, r7
 322 0236 08F48038 		and	r8, r8, #65536
 323              		.loc 1 466 0 discriminator 2
 324 023a 09F48059 		and	r9, r9, #4096
 325              		.loc 1 467 0 discriminator 2
 326 023e 4FEA831C 		lsl	ip, r3, #6
 327              		.loc 1 479 0 discriminator 2
 328 0242 4FEA930E 		lsr	lr, r3, #2
 329 0246 46EA0909 		orr	r9, r6, r9
 330              		.loc 1 467 0 discriminator 2
 331 024a 0CF4006C 		and	ip, ip, #2048
 332 024e 41EA0801 		orr	r1, r1, r8
 333              		.loc 1 479 0 discriminator 2
 334 0252 0EF4005E 		and	lr, lr, #8192
 335              		.loc 1 467 0 discriminator 2
 336 0256 5E08     		lsrs	r6, r3, #1
 337              		.loc 1 479 0 discriminator 2
 338 0258 1C02     		lsls	r4, r3, #8
 339 025a 49EA0C09 		orr	r9, r9, ip
 340 025e 41EA0E01 		orr	r1, r1, lr
 341              		.loc 1 468 0 discriminator 2
 342 0262 4FEA933C 		lsr	ip, r3, #14
ARM GAS  C:\Users\jo\AppData\Local\Temp\ccDdpTff.s 			page 7


 343              		.loc 1 467 0 discriminator 2
 344 0266 06F48066 		and	r6, r6, #1024
 345              		.loc 1 479 0 discriminator 2
 346 026a 04F48054 		and	r4, r4, #4096
 347              		.loc 1 480 0 discriminator 2
 348 026e 40F6080A 		movw	r10, #2056
 349              		.loc 1 468 0 discriminator 2
 350 0272 0CF40077 		and	r7, ip, #512
 351              		.loc 1 480 0 discriminator 2
 352 0276 0CEA0A0A 		and	r10, ip, r10
 353 027a 49EA0606 		orr	r6, r9, r6
 354 027e 0C43     		orrs	r4, r4, r1
 355              		.loc 1 469 0 discriminator 2
 356 0280 4FEA5318 		lsr	r8, r3, #5
 357              		.loc 1 480 0 discriminator 2
 358 0284 4FEA532C 		lsr	ip, r3, #9
 359 0288 44EA0A01 		orr	r1, r4, r10
 360              		.loc 1 468 0 discriminator 2
 361 028c 3E43     		orrs	r6, r6, r7
 362              		.loc 1 469 0 discriminator 2
 363 028e 08F02008 		and	r8, r8, #32
 364 0292 9F0A     		lsrs	r7, r3, #10
 365              		.loc 1 480 0 discriminator 2
 366 0294 0CF4806C 		and	ip, ip, #1024
 367              		.loc 1 481 0 discriminator 2
 368 0298 4FEAC31E 		lsl	lr, r3, #7
 369              		.loc 1 469 0 discriminator 2
 370 029c 46EA0806 		orr	r6, r6, r8
 371 02a0 07F01007 		and	r7, r7, #16
 372              		.loc 1 470 0 discriminator 2
 373 02a4 4FEAD309 		lsr	r9, r3, #3
 374              		.loc 1 481 0 discriminator 2
 375 02a8 41EA0C01 		orr	r1, r1, ip
 376 02ac 0EF4807E 		and	lr, lr, #256
 377              		.loc 1 482 0 discriminator 2
 378 02b0 4FEAD31A 		lsr	r10, r3, #7
 379              		.loc 1 469 0 discriminator 2
 380 02b4 46EA0708 		orr	r8, r6, r7
 381              		.loc 1 481 0 discriminator 2
 382 02b8 41EA0E0E 		orr	lr, r1, lr
 383              		.loc 1 470 0 discriminator 2
 384 02bc 09F00806 		and	r6, r9, #8
 385 02c0 9F0C     		lsrs	r7, r3, #18
 386              		.loc 1 482 0 discriminator 2
 387 02c2 0AF0200A 		and	r10, r10, #32
 388              		.loc 1 470 0 discriminator 2
 389 02c6 48EA0608 		orr	r8, r8, r6
 390              		.loc 1 482 0 discriminator 2
 391 02ca 09F01109 		and	r9, r9, #17
 392              		.loc 1 470 0 discriminator 2
 393 02ce 07F00407 		and	r7, r7, #4
 394              		.loc 1 471 0 discriminator 2
 395 02d2 9E0E     		lsrs	r6, r3, #26
 396              		.loc 1 482 0 discriminator 2
 397 02d4 4EEA0A0E 		orr	lr, lr, r10
 398              		.loc 1 483 0 discriminator 2
 399 02d8 9C00     		lsls	r4, r3, #2
ARM GAS  C:\Users\jo\AppData\Local\Temp\ccDdpTff.s 			page 8


 400              		.loc 1 470 0 discriminator 2
 401 02da 48EA0707 		orr	r7, r8, r7
 402              		.loc 1 471 0 discriminator 2
 403 02de 06F00206 		and	r6, r6, #2
 404              		.loc 1 482 0 discriminator 2
 405 02e2 4EEA090E 		orr	lr, lr, r9
 406              		.loc 1 483 0 discriminator 2
 407 02e6 04F00404 		and	r4, r4, #4
 408 02ea 590D     		lsrs	r1, r3, #21
 409              		.loc 1 471 0 discriminator 2
 410 02ec 3E43     		orrs	r6, r6, r7
 411              		.loc 1 483 0 discriminator 2
 412 02ee 4EEA0404 		orr	r4, lr, r4
 413              		.loc 1 471 0 discriminator 2
 414 02f2 C3F30067 		ubfx	r7, r3, #24, #1
 415              		.loc 1 483 0 discriminator 2
 416 02f6 01F00201 		and	r1, r1, #2
 417              		.loc 1 448 0 discriminator 2
 418 02fa 0135     		adds	r5, r5, #1
 419              	.LVL25:
 420              		.loc 1 471 0 discriminator 2
 421 02fc 3E43     		orrs	r6, r6, r7
 422              		.loc 1 483 0 discriminator 2
 423 02fe 2143     		orrs	r1, r1, r4
 424              		.loc 1 448 0 discriminator 2
 425 0300 102D     		cmp	r5, #16
 426              		.loc 1 461 0 discriminator 2
 427 0302 40F8086C 		str	r6, [r0, #-8]
 428              	.LVL26:
 429              		.loc 1 473 0 discriminator 2
 430 0306 40F8041C 		str	r1, [r0, #-4]
 431 030a 00F10800 		add	r0, r0, #8
 432              	.LVL27:
 433              		.loc 1 448 0 discriminator 2
 434 030e 7FF403AF 		bne	.L5
 435              		.loc 1 485 0
 436 0312 BDE8F08F 		pop	{r4, r5, r6, r7, r8, r9, r10, fp, pc}
 437              	.LVL28:
 438              	.L2:
 439              		.loc 1 452 0
 440 0316 5400     		lsls	r4, r2, #1
 441              		.loc 1 453 0
 442 0318 5900     		lsls	r1, r3, #1
 443              		.loc 1 452 0
 444 031a 44EAD262 		orr	r2, r4, r2, lsr #27
 445              	.LVL29:
 446              		.loc 1 453 0
 447 031e 41EAD363 		orr	r3, r1, r3, lsr #27
 448              	.LVL30:
 449              		.loc 1 452 0
 450 0322 22F07042 		bic	r2, r2, #-268435456
 451              	.LVL31:
 452              		.loc 1 453 0
 453 0326 23F07043 		bic	r3, r3, #-268435456
 454              	.LVL32:
 455 032a 08E7     		b	.L4
 456              	.L13:
ARM GAS  C:\Users\jo\AppData\Local\Temp\ccDdpTff.s 			page 9


 457              		.align	2
 458              	.L12:
 459 032c 00000000 		.word	.LANCHOR1
 460 0330 00000000 		.word	.LANCHOR0
 461              		.cfi_endproc
 462              	.LFE3:
 463              		.size	des_setkey, .-des_setkey
 464 0334 AFF30080 		.section	.text.des3_set2key,"ax",%progbits
 464      AFF30080 
 464      AFF30080 
 465              		.align	2
 466              		.p2align 4,,15
 467              		.thumb
 468              		.thumb_func
 469              		.type	des3_set2key, %function
 470              	des3_set2key:
 471              	.LFB6:
 472              		.loc 1 527 0
 473              		.cfi_startproc
 474              		@ args = 0, pretend = 0, frame = 0
 475              		@ frame_needed = 0, uses_anonymous_args = 0
 476              	.LVL33:
 477 0000 2DE9F041 		push	{r4, r5, r6, r7, r8, lr}
 478              		.cfi_def_cfa_offset 24
 479              		.cfi_offset 4, -24
 480              		.cfi_offset 5, -20
 481              		.cfi_offset 6, -16
 482              		.cfi_offset 7, -12
 483              		.cfi_offset 8, -8
 484              		.cfi_offset 14, -4
 485              		.loc 1 527 0
 486 0004 1446     		mov	r4, r2
 487 0006 0D46     		mov	r5, r1
 488              		.loc 1 530 0
 489 0008 1146     		mov	r1, r2
 490              	.LVL34:
 491              		.loc 1 527 0
 492 000a 8046     		mov	r8, r0
 493              		.loc 1 530 0
 494 000c FFF7FEFF 		bl	des_setkey
 495              	.LVL35:
 496              		.loc 1 531 0
 497 0010 04F10801 		add	r1, r4, #8
 498 0014 05F18000 		add	r0, r5, #128
 499 0018 FFF7FEFF 		bl	des_setkey
 500              	.LVL36:
 501 001c 2C46     		mov	r4, r5
 502              	.LVL37:
 503 001e 4346     		mov	r3, r8
 504 0020 2946     		mov	r1, r5
 505 0022 4046     		mov	r0, r8
 506              		.loc 1 533 0
 507 0024 0022     		movs	r2, #0
 508              	.LVL38:
 509              	.L15:
 510              		.loc 1 535 0 discriminator 3
 511 0026 866F     		ldr	r6, [r0, #120]
ARM GAS  C:\Users\jo\AppData\Local\Temp\ccDdpTff.s 			page 10


 512 0028 45F82260 		str	r6, [r5, r2, lsl #2]
 513              		.loc 1 536 0 discriminator 3
 514 002c C66F     		ldr	r6, [r0, #124]
 515 002e 4E60     		str	r6, [r1, #4]
 516              		.loc 1 538 0 discriminator 3
 517 0030 D4F8F860 		ldr	r6, [r4, #248]
 518 0034 C3F88060 		str	r6, [r3, #128]
 519              		.loc 1 539 0 discriminator 3
 520 0038 D4F8FC60 		ldr	r6, [r4, #252]
 521 003c C3F88460 		str	r6, [r3, #132]
 522              		.loc 1 541 0 discriminator 3
 523 0040 58F82270 		ldr	r7, [r8, r2, lsl #2]
 524              		.loc 1 542 0 discriminator 3
 525 0044 5E68     		ldr	r6, [r3, #4]
 526              		.loc 1 541 0 discriminator 3
 527 0046 C3F80071 		str	r7, [r3, #256]
 528              		.loc 1 542 0 discriminator 3
 529 004a C3F80461 		str	r6, [r3, #260]
 530              		.loc 1 544 0 discriminator 3
 531 004e 55F82270 		ldr	r7, [r5, r2, lsl #2]
 532              		.loc 1 545 0 discriminator 3
 533 0052 4E68     		ldr	r6, [r1, #4]
 534              		.loc 1 544 0 discriminator 3
 535 0054 C1F80071 		str	r7, [r1, #256]
 536              		.loc 1 533 0 discriminator 3
 537 0058 0232     		adds	r2, r2, #2
 538              	.LVL39:
 539 005a 202A     		cmp	r2, #32
 540              		.loc 1 545 0 discriminator 3
 541 005c C1F80461 		str	r6, [r1, #260]
 542 0060 A0F10800 		sub	r0, r0, #8
 543 0064 A4F10804 		sub	r4, r4, #8
 544 0068 03F10803 		add	r3, r3, #8
 545 006c 01F10801 		add	r1, r1, #8
 546              		.loc 1 533 0 discriminator 3
 547 0070 D9D1     		bne	.L15
 548              		.loc 1 547 0
 549 0072 BDE8F081 		pop	{r4, r5, r6, r7, r8, pc}
 550              		.cfi_endproc
 551              	.LFE6:
 552              		.size	des3_set2key, .-des3_set2key
 553 0076 00BFAFF3 		.section	.text.des3_set3key,"ax",%progbits
 553      0080AFF3 
 553      0080
 554              		.align	2
 555              		.p2align 4,,15
 556              		.thumb
 557              		.thumb_func
 558              		.type	des3_set3key, %function
 559              	des3_set3key:
 560              	.LFB9:
 561              		.loc 1 579 0
 562              		.cfi_startproc
 563              		@ args = 0, pretend = 0, frame = 0
 564              		@ frame_needed = 0, uses_anonymous_args = 0
 565              	.LVL40:
 566 0000 70B5     		push	{r4, r5, r6, lr}
ARM GAS  C:\Users\jo\AppData\Local\Temp\ccDdpTff.s 			page 11


 567              		.cfi_def_cfa_offset 16
 568              		.cfi_offset 4, -16
 569              		.cfi_offset 5, -12
 570              		.cfi_offset 6, -8
 571              		.cfi_offset 14, -4
 572              		.loc 1 579 0
 573 0002 1646     		mov	r6, r2
 574 0004 0D46     		mov	r5, r1
 575              		.loc 1 582 0
 576 0006 1146     		mov	r1, r2
 577              	.LVL41:
 578              		.loc 1 579 0
 579 0008 0446     		mov	r4, r0
 580              		.loc 1 582 0
 581 000a FFF7FEFF 		bl	des_setkey
 582              	.LVL42:
 583              		.loc 1 583 0
 584 000e 05F18000 		add	r0, r5, #128
 585 0012 06F10801 		add	r1, r6, #8
 586 0016 FFF7FEFF 		bl	des_setkey
 587              	.LVL43:
 588              		.loc 1 584 0
 589 001a 06F11001 		add	r1, r6, #16
 590 001e 04F58070 		add	r0, r4, #256
 591 0022 FFF7FEFF 		bl	des_setkey
 592              	.LVL44:
 593 0026 2946     		mov	r1, r5
 594 0028 2046     		mov	r0, r4
 595 002a A4F18005 		sub	r5, r4, #128
 596              	.LVL45:
 597 002e 0A46     		mov	r2, r1
 598 0030 2346     		mov	r3, r4
 599              	.LVL46:
 600              	.L19:
 601              		.loc 1 588 0 discriminator 3
 602 0032 D3F87841 		ldr	r4, [r3, #376]
 603 0036 1460     		str	r4, [r2]
 604              		.loc 1 589 0 discriminator 3
 605 0038 D3F87C41 		ldr	r4, [r3, #380]
 606 003c 5460     		str	r4, [r2, #4]
 607              		.loc 1 591 0 discriminator 3
 608 003e D1F8F840 		ldr	r4, [r1, #248]
 609 0042 C0F88040 		str	r4, [r0, #128]
 610              		.loc 1 592 0 discriminator 3
 611 0046 D1F8FC40 		ldr	r4, [r1, #252]
 612 004a C0F88440 		str	r4, [r0, #132]
 613              		.loc 1 594 0 discriminator 3
 614 004e 9C6F     		ldr	r4, [r3, #120]
 615 0050 C2F80041 		str	r4, [r2, #256]
 616              		.loc 1 595 0 discriminator 3
 617 0054 DC6F     		ldr	r4, [r3, #124]
 618 0056 C2F80441 		str	r4, [r2, #260]
 619 005a 083B     		subs	r3, r3, #8
 620              		.loc 1 586 0 discriminator 3
 621 005c AB42     		cmp	r3, r5
 622 005e A1F10801 		sub	r1, r1, #8
 623 0062 00F10800 		add	r0, r0, #8
ARM GAS  C:\Users\jo\AppData\Local\Temp\ccDdpTff.s 			page 12


 624 0066 02F10802 		add	r2, r2, #8
 625 006a E2D1     		bne	.L19
 626              		.loc 1 597 0
 627 006c 70BD     		pop	{r4, r5, r6, pc}
 628              		.cfi_endproc
 629              	.LFE9:
 630              		.size	des3_set3key, .-des3_set3key
 631 006e 00BF     		.section	.text.des_key_set_parity,"ax",%progbits
 632              		.align	2
 633              		.p2align 4,,15
 634              		.global	des_key_set_parity
 635              		.thumb
 636              		.thumb_func
 637              		.type	des_key_set_parity, %function
 638              	des_key_set_parity:
 639              	.LFB0:
 640              		.loc 1 342 0
 641              		.cfi_startproc
 642              		@ args = 0, pretend = 0, frame = 0
 643              		@ frame_needed = 0, uses_anonymous_args = 0
 644              		@ link register save eliminated.
 645              	.LVL47:
 646 0000 0549     		ldr	r1, .L25
 647 0002 431E     		subs	r3, r0, #1
 648 0004 0730     		adds	r0, r0, #7
 649              	.LVL48:
 650              	.L23:
 651              		.loc 1 346 0 discriminator 3
 652 0006 13F8012F 		ldrb	r2, [r3, #1]!	@ zero_extendqisi2
 653              	.LVL49:
 654 000a 5208     		lsrs	r2, r2, #1
 655              		.loc 1 345 0 discriminator 3
 656 000c 8342     		cmp	r3, r0
 657              		.loc 1 346 0 discriminator 3
 658 000e 8A5C     		ldrb	r2, [r1, r2]	@ zero_extendqisi2
 659 0010 1A70     		strb	r2, [r3]
 660              	.LVL50:
 661              		.loc 1 345 0 discriminator 3
 662 0012 F8D1     		bne	.L23
 663              		.loc 1 347 0
 664 0014 7047     		bx	lr
 665              	.L26:
 666 0016 00BF     		.align	2
 667              	.L25:
 668 0018 00000000 		.word	.LANCHOR2
 669              		.cfi_endproc
 670              	.LFE0:
 671              		.size	des_key_set_parity, .-des_key_set_parity
 672 001c AFF30080 		.section	.text.des_key_check_key_parity,"ax",%progbits
 673              		.align	2
 674              		.p2align 4,,15
 675              		.global	des_key_check_key_parity
 676              		.thumb
 677              		.thumb_func
 678              		.type	des_key_check_key_parity, %function
 679              	des_key_check_key_parity:
 680              	.LFB1:
ARM GAS  C:\Users\jo\AppData\Local\Temp\ccDdpTff.s 			page 13


 681              		.loc 1 353 0
 682              		.cfi_startproc
 683              		@ args = 0, pretend = 0, frame = 0
 684              		@ frame_needed = 0, uses_anonymous_args = 0
 685              		@ link register save eliminated.
 686              	.LVL51:
 687 0000 10B4     		push	{r4}
 688              		.cfi_def_cfa_offset 4
 689              		.cfi_offset 4, -4
 690 0002 094C     		ldr	r4, .L33
 691 0004 431E     		subs	r3, r0, #1
 692 0006 0730     		adds	r0, r0, #7
 693              	.LVL52:
 694              	.L29:
 695              		.loc 1 357 0
 696 0008 13F8012F 		ldrb	r2, [r3, #1]!	@ zero_extendqisi2
 697              	.LVL53:
 698 000c 5108     		lsrs	r1, r2, #1
 699 000e 615C     		ldrb	r1, [r4, r1]	@ zero_extendqisi2
 700 0010 9142     		cmp	r1, r2
 701 0012 05D1     		bne	.L30
 702              		.loc 1 356 0 discriminator 2
 703 0014 8342     		cmp	r3, r0
 704 0016 F7D1     		bne	.L29
 705              		.loc 1 360 0
 706 0018 0020     		movs	r0, #0
 707              	.LVL54:
 708              		.loc 1 361 0
 709 001a 5DF8044B 		ldr	r4, [sp], #4
 710              		.cfi_remember_state
 711              		.cfi_restore 4
 712              		.cfi_def_cfa_offset 0
 713 001e 7047     		bx	lr
 714              	.L30:
 715              		.cfi_restore_state
 716              		.loc 1 358 0
 717 0020 0120     		movs	r0, #1
 718              		.loc 1 361 0
 719 0022 5DF8044B 		ldr	r4, [sp], #4
 720              		.cfi_restore 4
 721              		.cfi_def_cfa_offset 0
 722 0026 7047     		bx	lr
 723              	.L34:
 724              		.align	2
 725              	.L33:
 726 0028 00000000 		.word	.LANCHOR2
 727              		.cfi_endproc
 728              	.LFE1:
 729              		.size	des_key_check_key_parity, .-des_key_check_key_parity
 730 002c AFF30080 		.section	.text.des_key_check_weak,"ax",%progbits
 731              		.align	2
 732              		.p2align 4,,15
 733              		.global	des_key_check_weak
 734              		.thumb
 735              		.thumb_func
 736              		.type	des_key_check_weak, %function
 737              	des_key_check_weak:
ARM GAS  C:\Users\jo\AppData\Local\Temp\ccDdpTff.s 			page 14


 738              	.LFB2:
 739              		.loc 1 408 0
 740              		.cfi_startproc
 741              		@ args = 0, pretend = 0, frame = 0
 742              		@ frame_needed = 0, uses_anonymous_args = 0
 743              	.LVL55:
 744 0000 70B5     		push	{r4, r5, r6, lr}
 745              		.cfi_def_cfa_offset 16
 746              		.cfi_offset 4, -16
 747              		.cfi_offset 5, -12
 748              		.cfi_offset 6, -8
 749              		.cfi_offset 14, -4
 750 0002 084C     		ldr	r4, .L41
 751              		.loc 1 408 0
 752 0004 0546     		mov	r5, r0
 753 0006 04F18006 		add	r6, r4, #128
 754              	.LVL56:
 755              	.L37:
 756              		.loc 1 412 0
 757 000a 2046     		mov	r0, r4
 758 000c 2946     		mov	r1, r5
 759 000e 0822     		movs	r2, #8
 760 0010 FFF7FEFF 		bl	memcmp
 761              	.LVL57:
 762 0014 0834     		adds	r4, r4, #8
 763 0016 18B1     		cbz	r0, .L38
 764              		.loc 1 411 0 discriminator 2
 765 0018 B442     		cmp	r4, r6
 766 001a F6D1     		bne	.L37
 767              		.loc 1 415 0
 768 001c 0020     		movs	r0, #0
 769 001e 70BD     		pop	{r4, r5, r6, pc}
 770              	.LVL58:
 771              	.L38:
 772              		.loc 1 413 0
 773 0020 0120     		movs	r0, #1
 774              		.loc 1 416 0
 775 0022 70BD     		pop	{r4, r5, r6, pc}
 776              	.LVL59:
 777              	.L42:
 778              		.align	2
 779              	.L41:
 780 0024 00000000 		.word	.LANCHOR3
 781              		.cfi_endproc
 782              	.LFE2:
 783              		.size	des_key_check_weak, .-des_key_check_weak
 784 0028 AFF30080 		.section	.text.des_setkey_enc,"ax",%progbits
 784      AFF30080 
 785              		.align	2
 786              		.p2align 4,,15
 787              		.global	des_setkey_enc
 788              		.thumb
 789              		.thumb_func
 790              		.type	des_setkey_enc, %function
 791              	des_setkey_enc:
 792              	.LFB4:
 793              		.loc 1 491 0
ARM GAS  C:\Users\jo\AppData\Local\Temp\ccDdpTff.s 			page 15


 794              		.cfi_startproc
 795              		@ args = 0, pretend = 0, frame = 0
 796              		@ frame_needed = 0, uses_anonymous_args = 0
 797              	.LVL60:
 798 0000 08B5     		push	{r3, lr}
 799              		.cfi_def_cfa_offset 8
 800              		.cfi_offset 3, -8
 801              		.cfi_offset 14, -4
 802              		.loc 1 496 0
 803 0002 0430     		adds	r0, r0, #4
 804              	.LVL61:
 805 0004 FFF7FEFF 		bl	des_setkey
 806              	.LVL62:
 807              		.loc 1 500 0
 808 0008 0020     		movs	r0, #0
 809 000a 08BD     		pop	{r3, pc}
 810              		.cfi_endproc
 811              	.LFE4:
 812              		.size	des_setkey_enc, .-des_setkey_enc
 813 000c AFF30080 		.section	.text.des_setkey_dec,"ax",%progbits
 814              		.align	2
 815              		.p2align 4,,15
 816              		.global	des_setkey_dec
 817              		.thumb
 818              		.thumb_func
 819              		.type	des_setkey_dec, %function
 820              	des_setkey_dec:
 821              	.LFB5:
 822              		.loc 1 506 0
 823              		.cfi_startproc
 824              		@ args = 0, pretend = 0, frame = 0
 825              		@ frame_needed = 0, uses_anonymous_args = 0
 826              	.LVL63:
 827 0000 10B5     		push	{r4, lr}
 828              		.cfi_def_cfa_offset 8
 829              		.cfi_offset 4, -8
 830              		.cfi_offset 14, -4
 831              		.loc 1 506 0
 832 0002 0446     		mov	r4, r0
 833              		.loc 1 513 0
 834 0004 0430     		adds	r0, r0, #4
 835              	.LVL64:
 836 0006 FFF7FEFF 		bl	des_setkey
 837              	.LVL65:
 838 000a 2046     		mov	r0, r4
 839 000c 0346     		mov	r3, r0
 840 000e 403C     		subs	r4, r4, #64
 841              	.LVL66:
 842              	.L46:
 843              	.LBB7:
 844              		.loc 1 517 0 discriminator 3
 845 0010 D96F     		ldr	r1, [r3, #124]
 846 0012 4268     		ldr	r2, [r0, #4]
 847              	.LVL67:
 848 0014 4160     		str	r1, [r0, #4]
 849 0016 DA67     		str	r2, [r3, #124]
 850              	.LVL68:
ARM GAS  C:\Users\jo\AppData\Local\Temp\ccDdpTff.s 			page 16


 851              	.LBE7:
 852              	.LBB8:
 853              		.loc 1 518 0 discriminator 3
 854 0018 D3F88010 		ldr	r1, [r3, #128]
 855 001c 8268     		ldr	r2, [r0, #8]
 856              	.LVL69:
 857 001e 40F8081F 		str	r1, [r0, #8]!
 858 0022 083B     		subs	r3, r3, #8
 859 0024 C3F88820 		str	r2, [r3, #136]
 860              	.LVL70:
 861              	.LBE8:
 862              		.loc 1 515 0 discriminator 3
 863 0028 A342     		cmp	r3, r4
 864 002a F1D1     		bne	.L46
 865              		.loc 1 522 0
 866 002c 0020     		movs	r0, #0
 867 002e 10BD     		pop	{r4, pc}
 868              		.cfi_endproc
 869              	.LFE5:
 870              		.size	des_setkey_dec, .-des_setkey_dec
 871              		.section	.text.des3_set2key_enc,"ax",%progbits
 872              		.align	2
 873              		.p2align 4,,15
 874              		.global	des3_set2key_enc
 875              		.thumb
 876              		.thumb_func
 877              		.type	des3_set2key_enc, %function
 878              	des3_set2key_enc:
 879              	.LFB7:
 880              		.loc 1 553 0
 881              		.cfi_startproc
 882              		@ args = 0, pretend = 0, frame = 384
 883              		@ frame_needed = 0, uses_anonymous_args = 0
 884              	.LVL71:
 885 0000 00B5     		push	{lr}
 886              		.cfi_def_cfa_offset 4
 887              		.cfi_offset 14, -4
 888 0002 E1B0     		sub	sp, sp, #388
 889              		.cfi_def_cfa_offset 392
 890              		.loc 1 553 0
 891 0004 0A46     		mov	r2, r1
 892              		.loc 1 556 0
 893 0006 0430     		adds	r0, r0, #4
 894              	.LVL72:
 895 0008 6946     		mov	r1, sp
 896              	.LVL73:
 897 000a FFF7FEFF 		bl	des3_set2key
 898              	.LVL74:
 899              		.loc 1 557 0
 900 000e 6846     		mov	r0, sp
 901 0010 0021     		movs	r1, #0
 902 0012 4FF4C072 		mov	r2, #384
 903 0016 FFF7FEFF 		bl	memset
 904              	.LVL75:
 905              		.loc 1 560 0
 906 001a 0020     		movs	r0, #0
 907 001c 61B0     		add	sp, sp, #388
ARM GAS  C:\Users\jo\AppData\Local\Temp\ccDdpTff.s 			page 17


 908              		.cfi_def_cfa_offset 4
 909              		@ sp needed
 910 001e 5DF804FB 		ldr	pc, [sp], #4
 911              		.cfi_endproc
 912              	.LFE7:
 913              		.size	des3_set2key_enc, .-des3_set2key_enc
 914 0022 00BFAFF3 		.section	.text.des3_set2key_dec,"ax",%progbits
 914      0080AFF3 
 914      0080AFF3 
 914      0080
 915              		.align	2
 916              		.p2align 4,,15
 917              		.global	des3_set2key_dec
 918              		.thumb
 919              		.thumb_func
 920              		.type	des3_set2key_dec, %function
 921              	des3_set2key_dec:
 922              	.LFB8:
 923              		.loc 1 566 0
 924              		.cfi_startproc
 925              		@ args = 0, pretend = 0, frame = 384
 926              		@ frame_needed = 0, uses_anonymous_args = 0
 927              	.LVL76:
 928 0000 00B5     		push	{lr}
 929              		.cfi_def_cfa_offset 4
 930              		.cfi_offset 14, -4
 931 0002 E1B0     		sub	sp, sp, #388
 932              		.cfi_def_cfa_offset 392
 933              		.loc 1 566 0
 934 0004 0A46     		mov	r2, r1
 935              		.loc 1 569 0
 936 0006 011D     		adds	r1, r0, #4
 937              	.LVL77:
 938 0008 6846     		mov	r0, sp
 939              	.LVL78:
 940 000a FFF7FEFF 		bl	des3_set2key
 941              	.LVL79:
 942              		.loc 1 570 0
 943 000e 6846     		mov	r0, sp
 944 0010 0021     		movs	r1, #0
 945 0012 4FF4C072 		mov	r2, #384
 946 0016 FFF7FEFF 		bl	memset
 947              	.LVL80:
 948              		.loc 1 573 0
 949 001a 0020     		movs	r0, #0
 950 001c 61B0     		add	sp, sp, #388
 951              		.cfi_def_cfa_offset 4
 952              		@ sp needed
 953 001e 5DF804FB 		ldr	pc, [sp], #4
 954              		.cfi_endproc
 955              	.LFE8:
 956              		.size	des3_set2key_dec, .-des3_set2key_dec
 957 0022 00BFAFF3 		.section	.text.des3_set3key_enc,"ax",%progbits
 957      0080AFF3 
 957      0080AFF3 
 957      0080
 958              		.align	2
ARM GAS  C:\Users\jo\AppData\Local\Temp\ccDdpTff.s 			page 18


 959              		.p2align 4,,15
 960              		.global	des3_set3key_enc
 961              		.thumb
 962              		.thumb_func
 963              		.type	des3_set3key_enc, %function
 964              	des3_set3key_enc:
 965              	.LFB10:
 966              		.loc 1 604 0
 967              		.cfi_startproc
 968              		@ args = 0, pretend = 0, frame = 384
 969              		@ frame_needed = 0, uses_anonymous_args = 0
 970              	.LVL81:
 971 0000 00B5     		push	{lr}
 972              		.cfi_def_cfa_offset 4
 973              		.cfi_offset 14, -4
 974 0002 E1B0     		sub	sp, sp, #388
 975              		.cfi_def_cfa_offset 392
 976              		.loc 1 604 0
 977 0004 0A46     		mov	r2, r1
 978              		.loc 1 611 0
 979 0006 0430     		adds	r0, r0, #4
 980              	.LVL82:
 981 0008 6946     		mov	r1, sp
 982              	.LVL83:
 983 000a FFF7FEFF 		bl	des3_set3key
 984              	.LVL84:
 985              		.loc 1 612 0
 986 000e 6846     		mov	r0, sp
 987 0010 0021     		movs	r1, #0
 988 0012 4FF4C072 		mov	r2, #384
 989 0016 FFF7FEFF 		bl	memset
 990              	.LVL85:
 991              		.loc 1 616 0
 992 001a 0020     		movs	r0, #0
 993 001c 61B0     		add	sp, sp, #388
 994              		.cfi_def_cfa_offset 4
 995              		@ sp needed
 996 001e 5DF804FB 		ldr	pc, [sp], #4
 997              		.cfi_endproc
 998              	.LFE10:
 999              		.size	des3_set3key_enc, .-des3_set3key_enc
 1000 0022 00BFAFF3 		.section	.text.des3_set3key_dec,"ax",%progbits
 1000      0080AFF3 
 1000      0080AFF3 
 1000      0080
 1001              		.align	2
 1002              		.p2align 4,,15
 1003              		.global	des3_set3key_dec
 1004              		.thumb
 1005              		.thumb_func
 1006              		.type	des3_set3key_dec, %function
 1007              	des3_set3key_dec:
 1008              	.LFB11:
 1009              		.loc 1 622 0
 1010              		.cfi_startproc
 1011              		@ args = 0, pretend = 0, frame = 384
 1012              		@ frame_needed = 0, uses_anonymous_args = 0
ARM GAS  C:\Users\jo\AppData\Local\Temp\ccDdpTff.s 			page 19


 1013              	.LVL86:
 1014 0000 00B5     		push	{lr}
 1015              		.cfi_def_cfa_offset 4
 1016              		.cfi_offset 14, -4
 1017 0002 E1B0     		sub	sp, sp, #388
 1018              		.cfi_def_cfa_offset 392
 1019              		.loc 1 622 0
 1020 0004 0A46     		mov	r2, r1
 1021              		.loc 1 630 0
 1022 0006 011D     		adds	r1, r0, #4
 1023              	.LVL87:
 1024 0008 6846     		mov	r0, sp
 1025              	.LVL88:
 1026 000a FFF7FEFF 		bl	des3_set3key
 1027              	.LVL89:
 1028              		.loc 1 631 0
 1029 000e 6846     		mov	r0, sp
 1030 0010 0021     		movs	r1, #0
 1031 0012 4FF4C072 		mov	r2, #384
 1032 0016 FFF7FEFF 		bl	memset
 1033              	.LVL90:
 1034              		.loc 1 635 0
 1035 001a 0020     		movs	r0, #0
 1036 001c 61B0     		add	sp, sp, #388
 1037              		.cfi_def_cfa_offset 4
 1038              		@ sp needed
 1039 001e 5DF804FB 		ldr	pc, [sp], #4
 1040              		.cfi_endproc
 1041              	.LFE11:
 1042              		.size	des3_set3key_dec, .-des3_set3key_dec
 1043 0022 00BFAFF3 		.section	.text.des_crypt_ecb,"ax",%progbits
 1043      0080AFF3 
 1043      0080AFF3 
 1043      0080
 1044              		.align	2
 1045              		.p2align 4,,15
 1046              		.global	des_crypt_ecb
 1047              		.thumb
 1048              		.thumb_func
 1049              		.type	des_crypt_ecb, %function
 1050              	des_crypt_ecb:
 1051              	.LFB12:
 1052              		.loc 1 643 0
 1053              		.cfi_startproc
 1054              		@ args = 0, pretend = 0, frame = 8
 1055              		@ frame_needed = 0, uses_anonymous_args = 0
 1056              	.LVL91:
 1057 0000 2DE9F04F 		push	{r4, r5, r6, r7, r8, r9, r10, fp, lr}
 1058              		.cfi_def_cfa_offset 36
 1059              		.cfi_offset 4, -36
 1060              		.cfi_offset 5, -32
 1061              		.cfi_offset 6, -28
 1062              		.cfi_offset 7, -24
 1063              		.cfi_offset 8, -20
 1064              		.cfi_offset 9, -16
 1065              		.cfi_offset 10, -12
 1066              		.cfi_offset 11, -8
ARM GAS  C:\Users\jo\AppData\Local\Temp\ccDdpTff.s 			page 20


 1067              		.cfi_offset 14, -4
 1068 0004 0C46     		mov	r4, r1
 1069              	.LVL92:
 1070              		.loc 1 649 0
 1071 0006 4D78     		ldrb	r5, [r1, #1]	@ zero_extendqisi2
 1072              		.loc 1 650 0
 1073 0008 91F805B0 		ldrb	fp, [r1, #5]	@ zero_extendqisi2
 1074 000c 2379     		ldrb	r3, [r4, #4]	@ zero_extendqisi2
 1075              		.loc 1 649 0
 1076 000e 0978     		ldrb	r1, [r1]	@ zero_extendqisi2
 1077              	.LVL93:
 1078 0010 94F80390 		ldrb	r9, [r4, #3]	@ zero_extendqisi2
 1079              		.loc 1 650 0
 1080 0014 94F807A0 		ldrb	r10, [r4, #7]	@ zero_extendqisi2
 1081              		.loc 1 649 0
 1082 0018 A678     		ldrb	r6, [r4, #2]	@ zero_extendqisi2
 1083              		.loc 1 650 0
 1084 001a A479     		ldrb	r4, [r4, #6]	@ zero_extendqisi2
 1085              	.LVL94:
 1086 001c DFF80082 		ldr	r8, .L61+20
 1087 0020 DFF800C2 		ldr	ip, .L61+24
 1088 0024 DFF800E2 		ldr	lr, .L61+28
 1089 0028 784F     		ldr	r7, .L61
 1090              		.loc 1 649 0
 1091 002a 2D04     		lsls	r5, r5, #16
 1092              		.loc 1 650 0
 1093 002c 4FEA0B4B 		lsl	fp, fp, #16
 1094              		.loc 1 649 0
 1095 0030 45EA0165 		orr	r5, r5, r1, lsl #24
 1096              		.loc 1 650 0
 1097 0034 4BEA036B 		orr	fp, fp, r3, lsl #24
 1098 0038 4BEA0A01 		orr	r1, fp, r10
 1099 003c 45EA0903 		orr	r3, r5, r9
 1100              		.loc 1 649 0
 1101 0040 43EA0623 		orr	r3, r3, r6, lsl #8
 1102              	.LVL95:
 1103              		.loc 1 650 0
 1104 0044 41EA0429 		orr	r9, r1, r4, lsl #8
 1105              	.LVL96:
 1106              		.loc 1 652 0
 1107 0048 89EA1314 		eor	r4, r9, r3, lsr #4
 1108 004c 04F00F34 		and	r4, r4, #252645135
 1109              	.LVL97:
 1110 0050 83EA0416 		eor	r6, r3, r4, lsl #4
 1111 0054 84EA0909 		eor	r9, r4, r9
 1112              	.LVL98:
 1113 0058 89EA1644 		eor	r4, r9, r6, lsr #16
 1114              	.LVL99:
 1115 005c A4B2     		uxth	r4, r4
 1116              	.LVL100:
 1117 005e 84EA0909 		eor	r9, r4, r9
 1118              	.LVL101:
 1119 0062 86EA0444 		eor	r4, r6, r4, lsl #16
 1120              	.LVL102:
 1121 0066 84EA9903 		eor	r3, r4, r9, lsr #2
 1122              	.LVL103:
 1123 006a 03F03333 		and	r3, r3, #858993459
ARM GAS  C:\Users\jo\AppData\Local\Temp\ccDdpTff.s 			page 21


 1124              	.LVL104:
 1125 006e 83EA0405 		eor	r5, r3, r4
 1126              	.LVL105:
 1127 0072 89EA8303 		eor	r3, r9, r3, lsl #2
 1128              	.LVL106:
 1129 0076 85EA1324 		eor	r4, r5, r3, lsr #8
 1130              	.LVL107:
 1131 007a 04F0FF14 		and	r4, r4, #16711935
 1132              	.LVL108:
 1133 007e 83EA0423 		eor	r3, r3, r4, lsl #8
 1134              	.LVL109:
 1135 0082 4FEAF371 		ror	r1, r3, #31
 1136              	.LVL110:
 1137 0086 6C40     		eors	r4, r4, r5
 1138              	.LVL111:
 1139              		.loc 1 643 0
 1140 0088 83B0     		sub	sp, sp, #12
 1141              		.cfi_def_cfa_offset 48
 1142              		.loc 1 652 0
 1143 008a 81EA0403 		eor	r3, r1, r4
 1144 008e 03F0AA33 		and	r3, r3, #-1431655766
 1145              	.LVL112:
 1146 0092 5C40     		eors	r4, r4, r3
 1147              	.LVL113:
 1148              		.loc 1 643 0
 1149 0094 0192     		str	r2, [sp, #4]
 1150 0096 5E4E     		ldr	r6, .L61+4
 1151              	.LVL114:
 1152 0098 5E4D     		ldr	r5, .L61+8
 1153              	.LVL115:
 1154 009a 00F19402 		add	r2, r0, #148
 1155              	.LVL116:
 1156              		.loc 1 652 0
 1157 009e 4FEAF474 		ror	r4, r4, #31
 1158 00a2 4B40     		eors	r3, r3, r1
 1159              	.LVL117:
 1160 00a4 00F11409 		add	r9, r0, #20
 1161 00a8 0092     		str	r2, [sp]
 1162              	.LVL118:
 1163              	.L58:
 1164              		.loc 1 656 0 discriminator 3
 1165 00aa 59F8100C 		ldr	r0, [r9, #-16]
 1166 00ae 59F80C2C 		ldr	r2, [r9, #-12]
 1167 00b2 5840     		eors	r0, r0, r3
 1168              	.LVL119:
 1169 00b4 82EA3312 		eor	r2, r2, r3, ror #4
 1170              	.LVL120:
 1171 00b8 00F03F01 		and	r1, r0, #63
 1172              	.LVL121:
 1173 00bc 02F03F0A 		and	r10, r2, #63
 1174 00c0 C0F3052B 		ubfx	fp, r0, #8, #6
 1175 00c4 5CF82110 		ldr	r1, [ip, r1, lsl #2]
 1176              	.LVL122:
 1177 00c8 58F82AA0 		ldr	r10, [r8, r10, lsl #2]
 1178 00cc 8AEA010A 		eor	r10, r10, r1
 1179 00d0 5EF82B10 		ldr	r1, [lr, fp, lsl #2]
 1180 00d4 C0F3054B 		ubfx	fp, r0, #16, #6
ARM GAS  C:\Users\jo\AppData\Local\Temp\ccDdpTff.s 			page 22


 1181 00d8 C0F30560 		ubfx	r0, r0, #24, #6
 1182              	.LVL123:
 1183 00dc 57F82BB0 		ldr	fp, [r7, fp, lsl #2]
 1184 00e0 56F82000 		ldr	r0, [r6, r0, lsl #2]
 1185 00e4 8AEA0101 		eor	r1, r10, r1
 1186 00e8 81EA0B01 		eor	r1, r1, fp
 1187 00ec 81EA000B 		eor	fp, r1, r0
 1188 00f0 C2F3052A 		ubfx	r10, r2, #8, #6
 1189 00f4 C2F30540 		ubfx	r0, r2, #16, #6
 1190 00f8 4749     		ldr	r1, .L61+12
 1191 00fa 55F82AA0 		ldr	r10, [r5, r10, lsl #2]
 1192 00fe 51F82000 		ldr	r0, [r1, r0, lsl #2]
 1193 0102 4649     		ldr	r1, .L61+16
 1194 0104 C2F30562 		ubfx	r2, r2, #24, #6
 1195              	.LVL124:
 1196 0108 8BEA0A0A 		eor	r10, fp, r10
 1197 010c 51F82220 		ldr	r2, [r1, r2, lsl #2]
 1198              		.loc 1 657 0 discriminator 3
 1199 0110 59F8041C 		ldr	r1, [r9, #-4]
 1200 0114 8AEA000A 		eor	r10, r10, r0
 1201 0118 8AEA0202 		eor	r2, r10, r2
 1202              		.loc 1 656 0 discriminator 3
 1203 011c 5440     		eors	r4, r4, r2
 1204              	.LVL125:
 1205              		.loc 1 657 0 discriminator 3
 1206 011e 59F8082C 		ldr	r2, [r9, #-8]
 1207 0122 84EA0200 		eor	r0, r4, r2
 1208              	.LVL126:
 1209 0126 00F03F0A 		and	r10, r0, #63
 1210              	.LVL127:
 1211 012a C0F30522 		ubfx	r2, r0, #8, #6
 1212 012e 5CF82AB0 		ldr	fp, [ip, r10, lsl #2]
 1213 0132 5EF82220 		ldr	r2, [lr, r2, lsl #2]
 1214 0136 C0F3054A 		ubfx	r10, r0, #16, #6
 1215              	.LVL128:
 1216 013a C0F30560 		ubfx	r0, r0, #24, #6
 1217              	.LVL129:
 1218 013e 81EA3411 		eor	r1, r1, r4, ror #4
 1219              	.LVL130:
 1220 0142 8BEA0202 		eor	r2, fp, r2
 1221 0146 57F82AA0 		ldr	r10, [r7, r10, lsl #2]
 1222 014a 56F82000 		ldr	r0, [r6, r0, lsl #2]
 1223 014e 5A40     		eors	r2, r2, r3
 1224 0150 C1F30523 		ubfx	r3, r1, #8, #6
 1225              	.LVL131:
 1226 0154 01F03F0B 		and	fp, r1, #63
 1227 0158 82EA0A0A 		eor	r10, r2, r10
 1228 015c 8AEA000A 		eor	r10, r10, r0
 1229 0160 55F82320 		ldr	r2, [r5, r3, lsl #2]
 1230 0164 2C48     		ldr	r0, .L61+12
 1231 0166 58F82BB0 		ldr	fp, [r8, fp, lsl #2]
 1232 016a C1F30543 		ubfx	r3, r1, #16, #6
 1233 016e C1F30561 		ubfx	r1, r1, #24, #6
 1234              	.LVL132:
 1235 0172 50F82330 		ldr	r3, [r0, r3, lsl #2]
 1236 0176 2948     		ldr	r0, .L61+16
 1237 0178 8AEA0B0A 		eor	r10, r10, fp
ARM GAS  C:\Users\jo\AppData\Local\Temp\ccDdpTff.s 			page 23


 1238 017c 50F82110 		ldr	r1, [r0, r1, lsl #2]
 1239 0180 8AEA0202 		eor	r2, r10, r2
 1240 0184 5A40     		eors	r2, r2, r3
 1241 0186 82EA0103 		eor	r3, r2, r1
 1242              	.LVL133:
 1243              		.loc 1 654 0 discriminator 3
 1244 018a 009A     		ldr	r2, [sp]
 1245 018c 09F11009 		add	r9, r9, #16
 1246              	.LVL134:
 1247 0190 9145     		cmp	r9, r2
 1248 0192 8AD1     		bne	.L58
 1249              		.loc 1 660 0
 1250 0194 4FEA7303 		ror	r3, r3, #1
 1251              	.LVL135:
 1252 0198 83EA0401 		eor	r1, r3, r4
 1253 019c 01F0AA31 		and	r1, r1, #-1431655766
 1254              	.LVL136:
 1255 01a0 4C40     		eors	r4, r4, r1
 1256              	.LVL137:
 1257 01a2 4FEA7402 		ror	r2, r4, #1
 1258 01a6 5940     		eors	r1, r1, r3
 1259              	.LVL138:
 1260 01a8 81EA1223 		eor	r3, r1, r2, lsr #8
 1261 01ac 03F0FF13 		and	r3, r3, #16711935
 1262              	.LVL139:
 1263 01b0 82EA0324 		eor	r4, r2, r3, lsl #8
 1264 01b4 5940     		eors	r1, r1, r3
 1265              	.LVL140:
 1266 01b6 81EA9403 		eor	r3, r1, r4, lsr #2
 1267              	.LVL141:
 1268 01ba 03F03333 		and	r3, r3, #858993459
 1269              	.LVL142:
 1270 01be 83EA0100 		eor	r0, r3, r1
 1271              	.LVL143:
 1272 01c2 84EA8303 		eor	r3, r4, r3, lsl #2
 1273              	.LVL144:
 1274 01c6 83EA1042 		eor	r2, r3, r0, lsr #16
 1275 01ca 92B2     		uxth	r2, r2
 1276              	.LVL145:
 1277 01cc 80EA0241 		eor	r1, r0, r2, lsl #16
 1278 01d0 5340     		eors	r3, r3, r2
 1279              	.LVL146:
 1280 01d2 83EA1112 		eor	r2, r3, r1, lsr #4
 1281              	.LVL147:
 1282 01d6 02F00F32 		and	r2, r2, #252645135
 1283              	.LVL148:
 1284 01da 5340     		eors	r3, r3, r2
 1285              	.LVL149:
 1286 01dc 81EA0212 		eor	r2, r1, r2, lsl #4
 1287              	.LVL150:
 1288              		.loc 1 662 0
 1289 01e0 0199     		ldr	r1, [sp, #4]
 1290              		.loc 1 663 0
 1291 01e2 180C     		lsrs	r0, r3, #16
 1292              		.loc 1 662 0
 1293 01e4 170E     		lsrs	r7, r2, #24
 1294 01e6 160C     		lsrs	r6, r2, #16
ARM GAS  C:\Users\jo\AppData\Local\Temp\ccDdpTff.s 			page 24


 1295 01e8 150A     		lsrs	r5, r2, #8
 1296              		.loc 1 663 0
 1297 01ea 1C0E     		lsrs	r4, r3, #24
 1298 01ec 4FEA132E 		lsr	lr, r3, #8
 1299 01f0 4871     		strb	r0, [r1, #5]
 1300              		.loc 1 666 0
 1301 01f2 0020     		movs	r0, #0
 1302              		.loc 1 662 0
 1303 01f4 CA70     		strb	r2, [r1, #3]
 1304              		.loc 1 663 0
 1305 01f6 CB71     		strb	r3, [r1, #7]
 1306              		.loc 1 662 0
 1307 01f8 0F70     		strb	r7, [r1]
 1308 01fa 4E70     		strb	r6, [r1, #1]
 1309 01fc 8D70     		strb	r5, [r1, #2]
 1310              		.loc 1 663 0
 1311 01fe 0C71     		strb	r4, [r1, #4]
 1312 0200 81F806E0 		strb	lr, [r1, #6]
 1313              		.loc 1 666 0
 1314 0204 03B0     		add	sp, sp, #12
 1315              		.cfi_def_cfa_offset 36
 1316              	.LVL151:
 1317              		@ sp needed
 1318 0206 BDE8F08F 		pop	{r4, r5, r6, r7, r8, r9, r10, fp, pc}
 1319              	.LVL152:
 1320              	.L62:
 1321 020a 00BF     		.align	2
 1322              	.L61:
 1323 020c 00000000 		.word	.LANCHOR7
 1324 0210 00000000 		.word	.LANCHOR8
 1325 0214 00000000 		.word	.LANCHOR9
 1326 0218 00000000 		.word	.LANCHOR10
 1327 021c 00000000 		.word	.LANCHOR11
 1328 0220 00000000 		.word	.LANCHOR4
 1329 0224 00000000 		.word	.LANCHOR5
 1330 0228 00000000 		.word	.LANCHOR6
 1331              		.cfi_endproc
 1332              	.LFE12:
 1333              		.size	des_crypt_ecb, .-des_crypt_ecb
 1334 022c AFF30080 		.section	.text.des_crypt_cbc,"ax",%progbits
 1335              		.align	2
 1336              		.p2align 4,,15
 1337              		.global	des_crypt_cbc
 1338              		.thumb
 1339              		.thumb_func
 1340              		.type	des_crypt_cbc, %function
 1341              	des_crypt_cbc:
 1342              	.LFB13:
 1343              		.loc 1 677 0
 1344              		.cfi_startproc
 1345              		@ args = 8, pretend = 0, frame = 8
 1346              		@ frame_needed = 0, uses_anonymous_args = 0
 1347              	.LVL153:
 1348 0000 2DE9F043 		push	{r4, r5, r6, r7, r8, r9, lr}
 1349              		.cfi_def_cfa_offset 28
 1350              		.cfi_offset 4, -28
 1351              		.cfi_offset 5, -24
ARM GAS  C:\Users\jo\AppData\Local\Temp\ccDdpTff.s 			page 25


 1352              		.cfi_offset 6, -20
 1353              		.cfi_offset 7, -16
 1354              		.cfi_offset 8, -12
 1355              		.cfi_offset 9, -8
 1356              		.cfi_offset 14, -4
 1357 0004 83B0     		sub	sp, sp, #12
 1358              		.cfi_def_cfa_offset 40
 1359              		.loc 1 681 0
 1360 0006 12F0070F 		tst	r2, #7
 1361              		.loc 1 677 0
 1362 000a 9046     		mov	r8, r2
 1363 000c 0A9C     		ldr	r4, [sp, #40]
 1364 000e 0B9D     		ldr	r5, [sp, #44]
 1365              		.loc 1 681 0
 1366 0010 4FD1     		bne	.L73
 1367              		.loc 1 684 0
 1368 0012 0129     		cmp	r1, #1
 1369 0014 0646     		mov	r6, r0
 1370 0016 9946     		mov	r9, r3
 1371 0018 28D0     		beq	.L80
 1372              	.LVL154:
 1373 001a 5F1E     		subs	r7, r3, #1
 1374              		.loc 1 701 0
 1375 001c 12B3     		cbz	r2, .L68
 1376              	.LVL155:
 1377              	.L72:
 1378              		.loc 1 703 0
 1379 001e 2068     		ldr	r0, [r4]	@ unaligned
 1380 0020 6168     		ldr	r1, [r4, #4]	@ unaligned
 1381 0022 6B46     		mov	r3, sp
 1382 0024 03C3     		stmia	r3!, {r0, r1}
 1383              		.loc 1 704 0
 1384 0026 2A46     		mov	r2, r5
 1385 0028 3046     		mov	r0, r6
 1386 002a 2146     		mov	r1, r4
 1387 002c FFF7FEFF 		bl	des_crypt_ecb
 1388              	.LVL156:
 1389 0030 6A1E     		subs	r2, r5, #1
 1390 0032 3846     		mov	r0, r7
 1391 0034 05F1070E 		add	lr, r5, #7
 1392              	.LVL157:
 1393              	.L71:
 1394              		.loc 1 707 0 discriminator 3
 1395 0038 12F8011F 		ldrb	r1, [r2, #1]!	@ zero_extendqisi2
 1396 003c 10F8013F 		ldrb	r3, [r0, #1]!	@ zero_extendqisi2
 1397              		.loc 1 706 0 discriminator 3
 1398 0040 7245     		cmp	r2, lr
 1399              		.loc 1 707 0 discriminator 3
 1400 0042 81EA0301 		eor	r1, r1, r3
 1401 0046 1170     		strb	r1, [r2]
 1402              		.loc 1 706 0 discriminator 3
 1403 0048 F6D1     		bne	.L71
 1404              		.loc 1 709 0
 1405 004a 6B46     		mov	r3, sp
 1406 004c 03CB     		ldmia	r3!, {r0, r1}
 1407              		.loc 1 701 0
 1408 004e B8F10808 		subs	r8, r8, #8
ARM GAS  C:\Users\jo\AppData\Local\Temp\ccDdpTff.s 			page 26


 1409              	.LVL158:
 1410              		.loc 1 711 0
 1411 0052 04F10804 		add	r4, r4, #8
 1412              		.loc 1 712 0
 1413 0056 05F10805 		add	r5, r5, #8
 1414              		.loc 1 709 0
 1415 005a C9F80000 		str	r0, [r9]	@ unaligned
 1416 005e C9F80410 		str	r1, [r9, #4]	@ unaligned
 1417              	.LVL159:
 1418              		.loc 1 701 0
 1419 0062 DCD1     		bne	.L72
 1420              	.LVL160:
 1421              	.L68:
 1422              		.loc 1 682 0
 1423 0064 0020     		movs	r0, #0
 1424              	.LVL161:
 1425              	.L78:
 1426              		.loc 1 717 0
 1427 0066 03B0     		add	sp, sp, #12
 1428              		.cfi_remember_state
 1429              		.cfi_def_cfa_offset 28
 1430              		@ sp needed
 1431 0068 BDE8F083 		pop	{r4, r5, r6, r7, r8, r9, pc}
 1432              	.LVL162:
 1433              	.L80:
 1434              		.cfi_restore_state
 1435              	.LBB11:
 1436              	.LBB12:
 1437              		.loc 1 686 0
 1438 006c 002A     		cmp	r2, #0
 1439 006e F9D0     		beq	.L68
 1440 0070 013C     		subs	r4, r4, #1
 1441              	.LVL163:
 1442 0072 5F1E     		subs	r7, r3, #1
 1443              	.LVL164:
 1444              	.L70:
 1445 0074 3946     		mov	r1, r7
 1446 0076 6A1E     		subs	r2, r5, #1
 1447 0078 04F1080E 		add	lr, r4, #8
 1448              	.LVL165:
 1449              	.L69:
 1450              		.loc 1 689 0
 1451 007c 14F8013F 		ldrb	r3, [r4, #1]!	@ zero_extendqisi2
 1452              	.LVL166:
 1453 0080 11F8010F 		ldrb	r0, [r1, #1]!	@ zero_extendqisi2
 1454              		.loc 1 688 0
 1455 0084 A645     		cmp	lr, r4
 1456              		.loc 1 689 0
 1457 0086 83EA0003 		eor	r3, r3, r0
 1458 008a 02F8013F 		strb	r3, [r2, #1]!
 1459              	.LVL167:
 1460              		.loc 1 688 0
 1461 008e F5D1     		bne	.L69
 1462              		.loc 1 691 0
 1463 0090 2A46     		mov	r2, r5
 1464 0092 2946     		mov	r1, r5
 1465 0094 3046     		mov	r0, r6
ARM GAS  C:\Users\jo\AppData\Local\Temp\ccDdpTff.s 			page 27


 1466 0096 FFF7FEFF 		bl	des_crypt_ecb
 1467              	.LVL168:
 1468              		.loc 1 692 0
 1469 009a 2B68     		ldr	r3, [r5]	@ unaligned
 1470 009c 6A68     		ldr	r2, [r5, #4]	@ unaligned
 1471 009e C9F80420 		str	r2, [r9, #4]	@ unaligned
 1472              	.LVL169:
 1473              		.loc 1 686 0
 1474 00a2 B8F10808 		subs	r8, r8, #8
 1475              	.LVL170:
 1476              		.loc 1 692 0
 1477 00a6 C9F80030 		str	r3, [r9]	@ unaligned
 1478              		.loc 1 695 0
 1479 00aa 05F10805 		add	r5, r5, #8
 1480              	.LVL171:
 1481              		.loc 1 686 0
 1482 00ae E1D1     		bne	.L70
 1483 00b0 D8E7     		b	.L68
 1484              	.LVL172:
 1485              	.L73:
 1486              	.LBE12:
 1487              	.LBE11:
 1488              		.loc 1 682 0
 1489 00b2 6FF03100 		mvn	r0, #49
 1490              	.LVL173:
 1491 00b6 D6E7     		b	.L78
 1492              		.cfi_endproc
 1493              	.LFE13:
 1494              		.size	des_crypt_cbc, .-des_crypt_cbc
 1495 00b8 AFF30080 		.section	.text.des3_crypt_ecb,"ax",%progbits
 1495      AFF30080 
 1496              		.align	2
 1497              		.p2align 4,,15
 1498              		.global	des3_crypt_ecb
 1499              		.thumb
 1500              		.thumb_func
 1501              		.type	des3_crypt_ecb, %function
 1502              	des3_crypt_ecb:
 1503              	.LFB14:
 1504              		.loc 1 725 0
 1505              		.cfi_startproc
 1506              		@ args = 0, pretend = 0, frame = 8
 1507              		@ frame_needed = 0, uses_anonymous_args = 0
 1508              	.LVL174:
 1509 0000 2DE9F04F 		push	{r4, r5, r6, r7, r8, r9, r10, fp, lr}
 1510              		.cfi_def_cfa_offset 36
 1511              		.cfi_offset 4, -36
 1512              		.cfi_offset 5, -32
 1513              		.cfi_offset 6, -28
 1514              		.cfi_offset 7, -24
 1515              		.cfi_offset 8, -20
 1516              		.cfi_offset 9, -16
 1517              		.cfi_offset 10, -12
 1518              		.cfi_offset 11, -8
 1519              		.cfi_offset 14, -4
 1520 0004 83B0     		sub	sp, sp, #12
 1521              		.cfi_def_cfa_offset 48
ARM GAS  C:\Users\jo\AppData\Local\Temp\ccDdpTff.s 			page 28


 1522              		.loc 1 765 0
 1523 0006 4C78     		ldrb	r4, [r1, #1]	@ zero_extendqisi2
 1524              		.loc 1 766 0
 1525 0008 91F80590 		ldrb	r9, [r1, #5]	@ zero_extendqisi2
 1526              		.loc 1 765 0
 1527 000c 91F800C0 		ldrb	ip, [r1]	@ zero_extendqisi2
 1528              		.loc 1 766 0
 1529 0010 91F804E0 		ldrb	lr, [r1, #4]	@ zero_extendqisi2
 1530 0014 CB79     		ldrb	r3, [r1, #7]	@ zero_extendqisi2
 1531              		.loc 1 765 0
 1532 0016 8F78     		ldrb	r7, [r1, #2]	@ zero_extendqisi2
 1533              		.loc 1 766 0
 1534 0018 8D79     		ldrb	r5, [r1, #6]	@ zero_extendqisi2
 1535              		.loc 1 725 0
 1536 001a 0090     		str	r0, [sp]
 1537 001c 8246     		mov	r10, r0
 1538              	.LVL175:
 1539              		.loc 1 765 0
 1540 001e 2404     		lsls	r4, r4, #16
 1541 0020 C878     		ldrb	r0, [r1, #3]	@ zero_extendqisi2
 1542              	.LVL176:
 1543              		.loc 1 725 0
 1544 0022 0192     		str	r2, [sp, #4]
 1545              		.loc 1 766 0
 1546 0024 4FEA0941 		lsl	r1, r9, #16
 1547              	.LVL177:
 1548              		.loc 1 765 0
 1549 0028 44EA0C64 		orr	r4, r4, ip, lsl #24
 1550              		.loc 1 766 0
 1551 002c 41EA0E61 		orr	r1, r1, lr, lsl #24
 1552 0030 0B43     		orrs	r3, r3, r1
 1553 0032 2043     		orrs	r0, r0, r4
 1554              		.loc 1 765 0
 1555 0034 40EA0727 		orr	r7, r0, r7, lsl #8
 1556              	.LVL178:
 1557              		.loc 1 766 0
 1558 0038 43EA0525 		orr	r5, r3, r5, lsl #8
 1559              	.LVL179:
 1560              		.loc 1 768 0
 1561 003c 85EA1710 		eor	r0, r5, r7, lsr #4
 1562 0040 00F00F30 		and	r0, r0, #252645135
 1563              	.LVL180:
 1564 0044 80EA0503 		eor	r3, r0, r5
 1565              	.LVL181:
 1566 0048 87EA0010 		eor	r0, r7, r0, lsl #4
 1567              	.LVL182:
 1568 004c 83EA1047 		eor	r7, r3, r0, lsr #16
 1569              	.LVL183:
 1570 0050 BFB2     		uxth	r7, r7
 1571              	.LVL184:
 1572 0052 87EA0305 		eor	r5, r7, r3
 1573              	.LVL185:
 1574 0056 80EA0747 		eor	r7, r0, r7, lsl #16
 1575              	.LVL186:
 1576 005a 87EA9503 		eor	r3, r7, r5, lsr #2
 1577              	.LVL187:
 1578 005e 03F03333 		and	r3, r3, #858993459
ARM GAS  C:\Users\jo\AppData\Local\Temp\ccDdpTff.s 			page 29


 1579              	.LVL188:
 1580 0062 5F40     		eors	r7, r7, r3
 1581              	.LVL189:
 1582 0064 85EA8303 		eor	r3, r5, r3, lsl #2
 1583              	.LVL190:
 1584 0068 87EA1320 		eor	r0, r7, r3, lsr #8
 1585              	.LVL191:
 1586 006c 00F0FF10 		and	r0, r0, #16711935
 1587              	.LVL192:
 1588 0070 83EA0023 		eor	r3, r3, r0, lsl #8
 1589              	.LVL193:
 1590 0074 4740     		eors	r7, r7, r0
 1591              	.LVL194:
 1592 0076 4FEAF371 		ror	r1, r3, #31
 1593              	.LVL195:
 1594 007a 81EA0703 		eor	r3, r1, r7
 1595 007e 03F0AA33 		and	r3, r3, #-1431655766
 1596              	.LVL196:
 1597 0082 83EA0700 		eor	r0, r3, r7
 1598 0086 4FEAF072 		ror	r2, r0, #31
 1599              	.LVL197:
 1600 008a DFF89883 		ldr	r8, .L93+28
 1601 008e DE4E     		ldr	r6, .L93
 1602 0090 DE4F     		ldr	r7, .L93+4
 1603              	.LVL198:
 1604 0092 DF4D     		ldr	r5, .L93+8
 1605              	.LVL199:
 1606 0094 5046     		mov	r0, r10
 1607 0096 4B40     		eors	r3, r3, r1
 1608              	.LVL200:
 1609 0098 0AF1140A 		add	r10, r10, #20
 1610              	.LVL201:
 1611 009c 00F1940C 		add	ip, r0, #148
 1612              	.LVL202:
 1613              	.L82:
 1614              		.loc 1 772 0 discriminator 3
 1615 00a0 5AF8100C 		ldr	r0, [r10, #-16]
 1616 00a4 5AF80C1C 		ldr	r1, [r10, #-12]
 1617 00a8 DA4C     		ldr	r4, .L93+12
 1618 00aa 5840     		eors	r0, r0, r3
 1619              	.LVL203:
 1620 00ac 00F03F0E 		and	lr, r0, #63
 1621              	.LVL204:
 1622 00b0 81EA3311 		eor	r1, r1, r3, ror #4
 1623              	.LVL205:
 1624 00b4 54F82EE0 		ldr	lr, [r4, lr, lsl #2]
 1625              	.LVL206:
 1626 00b8 D74C     		ldr	r4, .L93+16
 1627 00ba 01F03F09 		and	r9, r1, #63
 1628 00be C0F3052B 		ubfx	fp, r0, #8, #6
 1629 00c2 54F82990 		ldr	r9, [r4, r9, lsl #2]
 1630 00c6 D54C     		ldr	r4, .L93+20
 1631 00c8 89EA0E09 		eor	r9, r9, lr
 1632 00cc 54F82BE0 		ldr	lr, [r4, fp, lsl #2]
 1633 00d0 D34C     		ldr	r4, .L93+24
 1634 00d2 C0F3054B 		ubfx	fp, r0, #16, #6
 1635 00d6 C0F30560 		ubfx	r0, r0, #24, #6
ARM GAS  C:\Users\jo\AppData\Local\Temp\ccDdpTff.s 			page 30


 1636              	.LVL207:
 1637 00da 58F82BB0 		ldr	fp, [r8, fp, lsl #2]
 1638 00de 56F82000 		ldr	r0, [r6, r0, lsl #2]
 1639 00e2 89EA0E0E 		eor	lr, r9, lr
 1640 00e6 C1F30529 		ubfx	r9, r1, #8, #6
 1641 00ea 8EEA0B0B 		eor	fp, lr, fp
 1642 00ee C1F3054E 		ubfx	lr, r1, #16, #6
 1643 00f2 57F82990 		ldr	r9, [r7, r9, lsl #2]
 1644 00f6 54F82EE0 		ldr	lr, [r4, lr, lsl #2]
 1645 00fa C84C     		ldr	r4, .L93+20
 1646 00fc C1F30561 		ubfx	r1, r1, #24, #6
 1647              	.LVL208:
 1648 0100 8BEA0000 		eor	r0, fp, r0
 1649 0104 80EA0900 		eor	r0, r0, r9
 1650 0108 55F82110 		ldr	r1, [r5, r1, lsl #2]
 1651 010c 80EA0E0E 		eor	lr, r0, lr
 1652 0110 8EEA010E 		eor	lr, lr, r1
 1653              		.loc 1 773 0 discriminator 3
 1654 0114 5AF8081C 		ldr	r1, [r10, #-8]
 1655              		.loc 1 772 0 discriminator 3
 1656 0118 82EA0E02 		eor	r2, r2, lr
 1657              	.LVL209:
 1658              		.loc 1 773 0 discriminator 3
 1659 011c 82EA010E 		eor	lr, r2, r1
 1660              	.LVL210:
 1661 0120 0EF03F09 		and	r9, lr, #63
 1662              	.LVL211:
 1663 0124 CEF30520 		ubfx	r0, lr, #8, #6
 1664 0128 BA49     		ldr	r1, .L93+12
 1665 012a 54F82000 		ldr	r0, [r4, r0, lsl #2]
 1666 012e 51F82910 		ldr	r1, [r1, r9, lsl #2]
 1667 0132 B94C     		ldr	r4, .L93+16
 1668 0134 4840     		eors	r0, r0, r1
 1669 0136 5AF8041C 		ldr	r1, [r10, #-4]
 1670 013a CEF3054B 		ubfx	fp, lr, #16, #6
 1671 013e 4FEA3219 		ror	r9, r2, #4
 1672              	.LVL212:
 1673 0142 89EA0101 		eor	r1, r9, r1
 1674              	.LVL213:
 1675 0146 CEF3056E 		ubfx	lr, lr, #24, #6
 1676              	.LVL214:
 1677 014a 4340     		eors	r3, r3, r0
 1678              	.LVL215:
 1679 014c 58F82BB0 		ldr	fp, [r8, fp, lsl #2]
 1680 0150 56F82EE0 		ldr	lr, [r6, lr, lsl #2]
 1681 0154 01F03F00 		and	r0, r1, #63
 1682 0158 83EA0B0B 		eor	fp, r3, fp
 1683 015c 54F82000 		ldr	r0, [r4, r0, lsl #2]
 1684 0160 C1F30523 		ubfx	r3, r1, #8, #6
 1685 0164 8BEA0E0B 		eor	fp, fp, lr
 1686 0168 8BEA000B 		eor	fp, fp, r0
 1687 016c C1F3054E 		ubfx	lr, r1, #16, #6
 1688 0170 AB48     		ldr	r0, .L93+24
 1689 0172 57F82330 		ldr	r3, [r7, r3, lsl #2]
 1690 0176 50F82E00 		ldr	r0, [r0, lr, lsl #2]
 1691 017a C1F30561 		ubfx	r1, r1, #24, #6
 1692              	.LVL216:
ARM GAS  C:\Users\jo\AppData\Local\Temp\ccDdpTff.s 			page 31


 1693 017e 8BEA030B 		eor	fp, fp, r3
 1694 0182 55F82110 		ldr	r1, [r5, r1, lsl #2]
 1695 0186 0AF1100A 		add	r10, r10, #16
 1696              	.LVL217:
 1697 018a 8BEA000E 		eor	lr, fp, r0
 1698              		.loc 1 770 0 discriminator 3
 1699 018e E245     		cmp	r10, ip
 1700              		.loc 1 773 0 discriminator 3
 1701 0190 8EEA0103 		eor	r3, lr, r1
 1702              	.LVL218:
 1703              		.loc 1 770 0 discriminator 3
 1704 0194 84D1     		bne	.L82
 1705 0196 0099     		ldr	r1, [sp]
 1706 0198 01F58A7E 		add	lr, r1, #276
 1707 019c 01E0     		b	.L83
 1708              	.LVL219:
 1709              	.L91:
 1710 019e 4FEA3219 		ror	r9, r2, #4
 1711              	.LVL220:
 1712              	.L83:
 1713              		.loc 1 778 0 discriminator 3
 1714 01a2 5CF8101C 		ldr	r1, [ip, #-16]
 1715 01a6 5CF80C0C 		ldr	r0, [ip, #-12]
 1716 01aa 9A4C     		ldr	r4, .L93+12
 1717 01ac 5140     		eors	r1, r1, r2
 1718              	.LVL221:
 1719 01ae 89EA0009 		eor	r9, r9, r0
 1720              	.LVL222:
 1721 01b2 01F03F00 		and	r0, r1, #63
 1722              	.LVL223:
 1723 01b6 09F03F0A 		and	r10, r9, #63
 1724 01ba 54F82000 		ldr	r0, [r4, r0, lsl #2]
 1725              	.LVL224:
 1726 01be 964C     		ldr	r4, .L93+16
 1727 01c0 54F82AA0 		ldr	r10, [r4, r10, lsl #2]
 1728 01c4 964C     		ldr	r4, .L93+24
 1729 01c6 C1F3052B 		ubfx	fp, r1, #8, #6
 1730 01ca 8AEA000A 		eor	r10, r10, r0
 1731 01ce 9348     		ldr	r0, .L93+20
 1732 01d0 50F82B00 		ldr	r0, [r0, fp, lsl #2]
 1733 01d4 C1F3054B 		ubfx	fp, r1, #16, #6
 1734 01d8 C1F30561 		ubfx	r1, r1, #24, #6
 1735              	.LVL225:
 1736 01dc 58F82BB0 		ldr	fp, [r8, fp, lsl #2]
 1737 01e0 56F82110 		ldr	r1, [r6, r1, lsl #2]
 1738 01e4 8AEA0000 		eor	r0, r10, r0
 1739 01e8 C9F3052A 		ubfx	r10, r9, #8, #6
 1740 01ec 80EA0B0B 		eor	fp, r0, fp
 1741 01f0 C9F30540 		ubfx	r0, r9, #16, #6
 1742 01f4 57F82AA0 		ldr	r10, [r7, r10, lsl #2]
 1743 01f8 54F82000 		ldr	r0, [r4, r0, lsl #2]
 1744 01fc 874C     		ldr	r4, .L93+20
 1745 01fe C9F30569 		ubfx	r9, r9, #24, #6
 1746              	.LVL226:
 1747 0202 8BEA0101 		eor	r1, fp, r1
 1748 0206 81EA0A0A 		eor	r10, r1, r10
 1749 020a 55F82910 		ldr	r1, [r5, r9, lsl #2]
ARM GAS  C:\Users\jo\AppData\Local\Temp\ccDdpTff.s 			page 32


 1750 020e 8AEA0000 		eor	r0, r10, r0
 1751 0212 4840     		eors	r0, r0, r1
 1752              		.loc 1 779 0 discriminator 3
 1753 0214 5CF8081C 		ldr	r1, [ip, #-8]
 1754              		.loc 1 778 0 discriminator 3
 1755 0218 4340     		eors	r3, r3, r0
 1756              	.LVL227:
 1757              		.loc 1 779 0 discriminator 3
 1758 021a 83EA0109 		eor	r9, r3, r1
 1759              	.LVL228:
 1760 021e 09F03F0A 		and	r10, r9, #63
 1761              	.LVL229:
 1762 0222 C9F30520 		ubfx	r0, r9, #8, #6
 1763 0226 7B49     		ldr	r1, .L93+12
 1764 0228 54F82000 		ldr	r0, [r4, r0, lsl #2]
 1765 022c 51F82A10 		ldr	r1, [r1, r10, lsl #2]
 1766 0230 794C     		ldr	r4, .L93+16
 1767 0232 4840     		eors	r0, r0, r1
 1768 0234 5CF8041C 		ldr	r1, [ip, #-4]
 1769 0238 C9F3054B 		ubfx	fp, r9, #16, #6
 1770 023c 4FEA331A 		ror	r10, r3, #4
 1771              	.LVL230:
 1772 0240 8AEA0101 		eor	r1, r10, r1
 1773              	.LVL231:
 1774 0244 C9F30569 		ubfx	r9, r9, #24, #6
 1775              	.LVL232:
 1776 0248 4240     		eors	r2, r2, r0
 1777              	.LVL233:
 1778 024a 58F82BB0 		ldr	fp, [r8, fp, lsl #2]
 1779 024e 56F82990 		ldr	r9, [r6, r9, lsl #2]
 1780 0252 01F03F00 		and	r0, r1, #63
 1781 0256 82EA0B0B 		eor	fp, r2, fp
 1782 025a 54F82000 		ldr	r0, [r4, r0, lsl #2]
 1783 025e C1F30522 		ubfx	r2, r1, #8, #6
 1784 0262 8BEA090B 		eor	fp, fp, r9
 1785 0266 8BEA000B 		eor	fp, fp, r0
 1786 026a C1F30549 		ubfx	r9, r1, #16, #6
 1787 026e 6C48     		ldr	r0, .L93+24
 1788 0270 57F82220 		ldr	r2, [r7, r2, lsl #2]
 1789 0274 50F82900 		ldr	r0, [r0, r9, lsl #2]
 1790 0278 C1F30561 		ubfx	r1, r1, #24, #6
 1791              	.LVL234:
 1792 027c 8BEA020B 		eor	fp, fp, r2
 1793 0280 55F82110 		ldr	r1, [r5, r1, lsl #2]
 1794 0284 0CF1100C 		add	ip, ip, #16
 1795              	.LVL235:
 1796 0288 8BEA0009 		eor	r9, fp, r0
 1797              		.loc 1 776 0 discriminator 3
 1798 028c F445     		cmp	ip, lr
 1799              		.loc 1 779 0 discriminator 3
 1800 028e 89EA0102 		eor	r2, r9, r1
 1801              	.LVL236:
 1802              		.loc 1 776 0 discriminator 3
 1803 0292 84D1     		bne	.L91
 1804 0294 0099     		ldr	r1, [sp]
 1805 0296 01F5CA71 		add	r1, r1, #404
 1806 029a 8C46     		mov	ip, r1
ARM GAS  C:\Users\jo\AppData\Local\Temp\ccDdpTff.s 			page 33


 1807              	.LVL237:
 1808 029c 01E0     		b	.L84
 1809              	.LVL238:
 1810              	.L92:
 1811 029e 4FEA331A 		ror	r10, r3, #4
 1812              	.LVL239:
 1813              	.L84:
 1814              		.loc 1 784 0 discriminator 3
 1815 02a2 5EF8101C 		ldr	r1, [lr, #-16]
 1816 02a6 5EF80C0C 		ldr	r0, [lr, #-12]
 1817 02aa 5A4C     		ldr	r4, .L93+12
 1818 02ac 5940     		eors	r1, r1, r3
 1819              	.LVL240:
 1820 02ae 8AEA000A 		eor	r10, r10, r0
 1821              	.LVL241:
 1822 02b2 01F03F00 		and	r0, r1, #63
 1823              	.LVL242:
 1824 02b6 0AF03F09 		and	r9, r10, #63
 1825 02ba 54F82000 		ldr	r0, [r4, r0, lsl #2]
 1826              	.LVL243:
 1827 02be 564C     		ldr	r4, .L93+16
 1828 02c0 54F82990 		ldr	r9, [r4, r9, lsl #2]
 1829 02c4 564C     		ldr	r4, .L93+24
 1830 02c6 C1F3052B 		ubfx	fp, r1, #8, #6
 1831 02ca 89EA0009 		eor	r9, r9, r0
 1832 02ce 5348     		ldr	r0, .L93+20
 1833 02d0 50F82B00 		ldr	r0, [r0, fp, lsl #2]
 1834 02d4 C1F3054B 		ubfx	fp, r1, #16, #6
 1835 02d8 C1F30561 		ubfx	r1, r1, #24, #6
 1836              	.LVL244:
 1837 02dc 58F82BB0 		ldr	fp, [r8, fp, lsl #2]
 1838 02e0 56F82110 		ldr	r1, [r6, r1, lsl #2]
 1839 02e4 89EA0000 		eor	r0, r9, r0
 1840 02e8 CAF30529 		ubfx	r9, r10, #8, #6
 1841 02ec 80EA0B0B 		eor	fp, r0, fp
 1842 02f0 CAF30540 		ubfx	r0, r10, #16, #6
 1843 02f4 57F82990 		ldr	r9, [r7, r9, lsl #2]
 1844 02f8 54F82000 		ldr	r0, [r4, r0, lsl #2]
 1845 02fc CAF3056A 		ubfx	r10, r10, #24, #6
 1846              	.LVL245:
 1847 0300 8BEA0101 		eor	r1, fp, r1
 1848 0304 81EA0909 		eor	r9, r1, r9
 1849 0308 55F82A10 		ldr	r1, [r5, r10, lsl #2]
 1850 030c 89EA0000 		eor	r0, r9, r0
 1851 0310 4840     		eors	r0, r0, r1
 1852              		.loc 1 785 0 discriminator 3
 1853 0312 5EF8081C 		ldr	r1, [lr, #-8]
 1854              		.loc 1 784 0 discriminator 3
 1855 0316 4240     		eors	r2, r2, r0
 1856              	.LVL246:
 1857              		.loc 1 785 0 discriminator 3
 1858 0318 82EA0109 		eor	r9, r2, r1
 1859              	.LVL247:
 1860 031c 09F03F0A 		and	r10, r9, #63
 1861              	.LVL248:
 1862 0320 3C49     		ldr	r1, .L93+12
 1863 0322 C9F30520 		ubfx	r0, r9, #8, #6
ARM GAS  C:\Users\jo\AppData\Local\Temp\ccDdpTff.s 			page 34


 1864 0326 51F82AB0 		ldr	fp, [r1, r10, lsl #2]
 1865 032a 3C49     		ldr	r1, .L93+20
 1866 032c C9F3054A 		ubfx	r10, r9, #16, #6
 1867              	.LVL249:
 1868 0330 51F82000 		ldr	r0, [r1, r0, lsl #2]
 1869 0334 5EF8041C 		ldr	r1, [lr, #-4]
 1870 0338 58F82AA0 		ldr	r10, [r8, r10, lsl #2]
 1871 033c 8BEA0000 		eor	r0, fp, r0
 1872 0340 81EA3211 		eor	r1, r1, r2, ror #4
 1873              	.LVL250:
 1874 0344 5840     		eors	r0, r0, r3
 1875 0346 C9F30569 		ubfx	r9, r9, #24, #6
 1876              	.LVL251:
 1877 034a 01F03F0B 		and	fp, r1, #63
 1878 034e 80EA0A0A 		eor	r10, r0, r10
 1879 0352 3148     		ldr	r0, .L93+16
 1880 0354 56F82990 		ldr	r9, [r6, r9, lsl #2]
 1881 0358 50F82B00 		ldr	r0, [r0, fp, lsl #2]
 1882 035c C1F30523 		ubfx	r3, r1, #8, #6
 1883              	.LVL252:
 1884 0360 C1F3054B 		ubfx	fp, r1, #16, #6
 1885 0364 57F82330 		ldr	r3, [r7, r3, lsl #2]
 1886 0368 8AEA090A 		eor	r10, r10, r9
 1887 036c C1F30561 		ubfx	r1, r1, #24, #6
 1888              	.LVL253:
 1889 0370 8AEA000A 		eor	r10, r10, r0
 1890 0374 54F82B00 		ldr	r0, [r4, fp, lsl #2]
 1891 0378 55F82110 		ldr	r1, [r5, r1, lsl #2]
 1892 037c 8AEA030A 		eor	r10, r10, r3
 1893 0380 0EF1100E 		add	lr, lr, #16
 1894              	.LVL254:
 1895 0384 8AEA000A 		eor	r10, r10, r0
 1896              		.loc 1 782 0 discriminator 3
 1897 0388 E645     		cmp	lr, ip
 1898              		.loc 1 785 0 discriminator 3
 1899 038a 8AEA0103 		eor	r3, r10, r1
 1900              	.LVL255:
 1901              		.loc 1 782 0 discriminator 3
 1902 038e 86D1     		bne	.L92
 1903              		.loc 1 788 0
 1904 0390 4FEA7303 		ror	r3, r3, #1
 1905              	.LVL256:
 1906 0394 83EA0201 		eor	r1, r3, r2
 1907 0398 01F0AA31 		and	r1, r1, #-1431655766
 1908              	.LVL257:
 1909 039c 4A40     		eors	r2, r2, r1
 1910              	.LVL258:
 1911 039e 4FEA7202 		ror	r2, r2, #1
 1912 03a2 5940     		eors	r1, r1, r3
 1913              	.LVL259:
 1914 03a4 81EA1223 		eor	r3, r1, r2, lsr #8
 1915 03a8 03F0FF13 		and	r3, r3, #16711935
 1916              	.LVL260:
 1917 03ac 5940     		eors	r1, r1, r3
 1918              	.LVL261:
 1919 03ae 82EA0322 		eor	r2, r2, r3, lsl #8
 1920              	.LVL262:
ARM GAS  C:\Users\jo\AppData\Local\Temp\ccDdpTff.s 			page 35


 1921 03b2 81EA9203 		eor	r3, r1, r2, lsr #2
 1922              	.LVL263:
 1923 03b6 03F03333 		and	r3, r3, #858993459
 1924              	.LVL264:
 1925 03ba 83EA0100 		eor	r0, r3, r1
 1926              	.LVL265:
 1927 03be 82EA8303 		eor	r3, r2, r3, lsl #2
 1928              	.LVL266:
 1929 03c2 83EA1042 		eor	r2, r3, r0, lsr #16
 1930              	.LVL267:
 1931 03c6 92B2     		uxth	r2, r2
 1932              	.LVL268:
 1933 03c8 80EA0241 		eor	r1, r0, r2, lsl #16
 1934 03cc 5340     		eors	r3, r3, r2
 1935              	.LVL269:
 1936 03ce 83EA1112 		eor	r2, r3, r1, lsr #4
 1937              	.LVL270:
 1938 03d2 02F00F32 		and	r2, r2, #252645135
 1939              	.LVL271:
 1940 03d6 5340     		eors	r3, r3, r2
 1941              	.LVL272:
 1942 03d8 81EA0212 		eor	r2, r1, r2, lsl #4
 1943              	.LVL273:
 1944              		.loc 1 790 0
 1945 03dc 0199     		ldr	r1, [sp, #4]
 1946              		.loc 1 791 0
 1947 03de 180C     		lsrs	r0, r3, #16
 1948              		.loc 1 790 0
 1949 03e0 170E     		lsrs	r7, r2, #24
 1950 03e2 160C     		lsrs	r6, r2, #16
 1951 03e4 150A     		lsrs	r5, r2, #8
 1952              		.loc 1 791 0
 1953 03e6 1C0E     		lsrs	r4, r3, #24
 1954 03e8 4FEA132E 		lsr	lr, r3, #8
 1955              	.LVL274:
 1956 03ec 4871     		strb	r0, [r1, #5]
 1957              		.loc 1 795 0
 1958 03ee 0020     		movs	r0, #0
 1959              		.loc 1 790 0
 1960 03f0 CA70     		strb	r2, [r1, #3]
 1961              		.loc 1 791 0
 1962 03f2 CB71     		strb	r3, [r1, #7]
 1963              		.loc 1 790 0
 1964 03f4 0F70     		strb	r7, [r1]
 1965 03f6 4E70     		strb	r6, [r1, #1]
 1966 03f8 8D70     		strb	r5, [r1, #2]
 1967              		.loc 1 791 0
 1968 03fa 0C71     		strb	r4, [r1, #4]
 1969 03fc 81F806E0 		strb	lr, [r1, #6]
 1970              		.loc 1 795 0
 1971 0400 03B0     		add	sp, sp, #12
 1972              		.cfi_def_cfa_offset 36
 1973              	.LVL275:
 1974              		@ sp needed
 1975 0402 BDE8F08F 		pop	{r4, r5, r6, r7, r8, r9, r10, fp, pc}
 1976              	.LVL276:
 1977              	.L94:
ARM GAS  C:\Users\jo\AppData\Local\Temp\ccDdpTff.s 			page 36


 1978 0406 00BF     		.align	2
 1979              	.L93:
 1980 0408 00000000 		.word	.LANCHOR8
 1981 040c 00000000 		.word	.LANCHOR9
 1982 0410 00000000 		.word	.LANCHOR11
 1983 0414 00000000 		.word	.LANCHOR5
 1984 0418 00000000 		.word	.LANCHOR4
 1985 041c 00000000 		.word	.LANCHOR6
 1986 0420 00000000 		.word	.LANCHOR10
 1987 0424 00000000 		.word	.LANCHOR7
 1988              		.cfi_endproc
 1989              	.LFE14:
 1990              		.size	des3_crypt_ecb, .-des3_crypt_ecb
 1991 0428 AFF30080 		.section	.text.des3_crypt_cbc,"ax",%progbits
 1991      AFF30080 
 1992              		.align	2
 1993              		.p2align 4,,15
 1994              		.global	des3_crypt_cbc
 1995              		.thumb
 1996              		.thumb_func
 1997              		.type	des3_crypt_cbc, %function
 1998              	des3_crypt_cbc:
 1999              	.LFB15:
 2000              		.loc 1 806 0
 2001              		.cfi_startproc
 2002              		@ args = 8, pretend = 0, frame = 8
 2003              		@ frame_needed = 0, uses_anonymous_args = 0
 2004              	.LVL277:
 2005 0000 2DE9F043 		push	{r4, r5, r6, r7, r8, r9, lr}
 2006              		.cfi_def_cfa_offset 28
 2007              		.cfi_offset 4, -28
 2008              		.cfi_offset 5, -24
 2009              		.cfi_offset 6, -20
 2010              		.cfi_offset 7, -16
 2011              		.cfi_offset 8, -12
 2012              		.cfi_offset 9, -8
 2013              		.cfi_offset 14, -4
 2014 0004 83B0     		sub	sp, sp, #12
 2015              		.cfi_def_cfa_offset 40
 2016              		.loc 1 874 0
 2017 0006 12F0070F 		tst	r2, #7
 2018              		.loc 1 806 0
 2019 000a 9046     		mov	r8, r2
 2020 000c 0A9C     		ldr	r4, [sp, #40]
 2021 000e 0B9D     		ldr	r5, [sp, #44]
 2022              		.loc 1 874 0
 2023 0010 4FD1     		bne	.L105
 2024              		.loc 1 877 0
 2025 0012 0129     		cmp	r1, #1
 2026 0014 0646     		mov	r6, r0
 2027 0016 9946     		mov	r9, r3
 2028 0018 28D0     		beq	.L112
 2029              	.LVL278:
 2030 001a 5F1E     		subs	r7, r3, #1
 2031              		.loc 1 894 0
 2032 001c 12B3     		cbz	r2, .L100
 2033              	.LVL279:
ARM GAS  C:\Users\jo\AppData\Local\Temp\ccDdpTff.s 			page 37


 2034              	.L104:
 2035              		.loc 1 896 0
 2036 001e 2068     		ldr	r0, [r4]	@ unaligned
 2037 0020 6168     		ldr	r1, [r4, #4]	@ unaligned
 2038 0022 6B46     		mov	r3, sp
 2039 0024 03C3     		stmia	r3!, {r0, r1}
 2040              		.loc 1 897 0
 2041 0026 2A46     		mov	r2, r5
 2042 0028 3046     		mov	r0, r6
 2043 002a 2146     		mov	r1, r4
 2044 002c FFF7FEFF 		bl	des3_crypt_ecb
 2045              	.LVL280:
 2046 0030 6A1E     		subs	r2, r5, #1
 2047 0032 3846     		mov	r0, r7
 2048 0034 05F1070E 		add	lr, r5, #7
 2049              	.LVL281:
 2050              	.L103:
 2051              		.loc 1 900 0 discriminator 3
 2052 0038 12F8011F 		ldrb	r1, [r2, #1]!	@ zero_extendqisi2
 2053 003c 10F8013F 		ldrb	r3, [r0, #1]!	@ zero_extendqisi2
 2054              		.loc 1 899 0 discriminator 3
 2055 0040 7245     		cmp	r2, lr
 2056              		.loc 1 900 0 discriminator 3
 2057 0042 81EA0301 		eor	r1, r1, r3
 2058 0046 1170     		strb	r1, [r2]
 2059              		.loc 1 899 0 discriminator 3
 2060 0048 F6D1     		bne	.L103
 2061              		.loc 1 902 0
 2062 004a 6B46     		mov	r3, sp
 2063 004c 03CB     		ldmia	r3!, {r0, r1}
 2064              		.loc 1 894 0
 2065 004e B8F10808 		subs	r8, r8, #8
 2066              	.LVL282:
 2067              		.loc 1 904 0
 2068 0052 04F10804 		add	r4, r4, #8
 2069              		.loc 1 905 0
 2070 0056 05F10805 		add	r5, r5, #8
 2071              		.loc 1 902 0
 2072 005a C9F80000 		str	r0, [r9]	@ unaligned
 2073 005e C9F80410 		str	r1, [r9, #4]	@ unaligned
 2074              	.LVL283:
 2075              		.loc 1 894 0
 2076 0062 DCD1     		bne	.L104
 2077              	.LVL284:
 2078              	.L100:
 2079              		.loc 1 875 0
 2080 0064 0020     		movs	r0, #0
 2081              	.LVL285:
 2082              	.L110:
 2083              		.loc 1 911 0
 2084 0066 03B0     		add	sp, sp, #12
 2085              		.cfi_remember_state
 2086              		.cfi_def_cfa_offset 28
 2087              		@ sp needed
 2088 0068 BDE8F083 		pop	{r4, r5, r6, r7, r8, r9, pc}
 2089              	.LVL286:
 2090              	.L112:
ARM GAS  C:\Users\jo\AppData\Local\Temp\ccDdpTff.s 			page 38


 2091              		.cfi_restore_state
 2092              	.LBB15:
 2093              	.LBB16:
 2094              		.loc 1 879 0
 2095 006c 002A     		cmp	r2, #0
 2096 006e F9D0     		beq	.L100
 2097 0070 013C     		subs	r4, r4, #1
 2098              	.LVL287:
 2099 0072 5F1E     		subs	r7, r3, #1
 2100              	.LVL288:
 2101              	.L102:
 2102 0074 3946     		mov	r1, r7
 2103 0076 6A1E     		subs	r2, r5, #1
 2104 0078 04F1080E 		add	lr, r4, #8
 2105              	.LVL289:
 2106              	.L101:
 2107              		.loc 1 882 0
 2108 007c 14F8013F 		ldrb	r3, [r4, #1]!	@ zero_extendqisi2
 2109              	.LVL290:
 2110 0080 11F8010F 		ldrb	r0, [r1, #1]!	@ zero_extendqisi2
 2111              		.loc 1 881 0
 2112 0084 A645     		cmp	lr, r4
 2113              		.loc 1 882 0
 2114 0086 83EA0003 		eor	r3, r3, r0
 2115 008a 02F8013F 		strb	r3, [r2, #1]!
 2116              	.LVL291:
 2117              		.loc 1 881 0
 2118 008e F5D1     		bne	.L101
 2119              		.loc 1 884 0
 2120 0090 2A46     		mov	r2, r5
 2121 0092 2946     		mov	r1, r5
 2122 0094 3046     		mov	r0, r6
 2123 0096 FFF7FEFF 		bl	des3_crypt_ecb
 2124              	.LVL292:
 2125              		.loc 1 885 0
 2126 009a 2B68     		ldr	r3, [r5]	@ unaligned
 2127 009c 6A68     		ldr	r2, [r5, #4]	@ unaligned
 2128 009e C9F80420 		str	r2, [r9, #4]	@ unaligned
 2129              	.LVL293:
 2130              		.loc 1 879 0
 2131 00a2 B8F10808 		subs	r8, r8, #8
 2132              	.LVL294:
 2133              		.loc 1 885 0
 2134 00a6 C9F80030 		str	r3, [r9]	@ unaligned
 2135              		.loc 1 888 0
 2136 00aa 05F10805 		add	r5, r5, #8
 2137              	.LVL295:
 2138              		.loc 1 879 0
 2139 00ae E1D1     		bne	.L102
 2140 00b0 D8E7     		b	.L100
 2141              	.LVL296:
 2142              	.L105:
 2143              	.LBE16:
 2144              	.LBE15:
 2145              		.loc 1 875 0
 2146 00b2 6FF03100 		mvn	r0, #49
 2147              	.LVL297:
ARM GAS  C:\Users\jo\AppData\Local\Temp\ccDdpTff.s 			page 39


 2148 00b6 D6E7     		b	.L110
 2149              		.cfi_endproc
 2150              	.LFE15:
 2151              		.size	des3_crypt_cbc, .-des3_crypt_cbc
 2152 00b8 AFF30080 		.section	.text.des_self_test,"ax",%progbits
 2152      AFF30080 
 2153              		.align	2
 2154              		.p2align 4,,15
 2155              		.global	des_self_test
 2156              		.thumb
 2157              		.thumb_func
 2158              		.type	des_self_test, %function
 2159              	des_self_test:
 2160              	.LFB16:
 2161              		.loc 1 973 0
 2162              		.cfi_startproc
 2163              		@ args = 0, pretend = 0, frame = 584
 2164              		@ frame_needed = 0, uses_anonymous_args = 0
 2165              	.LVL298:
 2166 0000 2DE9F04F 		push	{r4, r5, r6, r7, r8, r9, r10, fp, lr}
 2167              		.cfi_def_cfa_offset 36
 2168              		.cfi_offset 4, -36
 2169              		.cfi_offset 5, -32
 2170              		.cfi_offset 6, -28
 2171              		.cfi_offset 7, -24
 2172              		.cfi_offset 8, -20
 2173              		.cfi_offset 9, -16
 2174              		.cfi_offset 10, -12
 2175              		.cfi_offset 11, -8
 2176              		.cfi_offset 14, -4
 2177 0004 ADF5157D 		sub	sp, sp, #596
 2178              		.cfi_def_cfa_offset 632
 2179              		.loc 1 982 0
 2180 0008 0026     		movs	r6, #0
 2181              		.loc 1 993 0
 2182 000a DFF8ACB2 		ldr	fp, .L210+20
 2183 000e DFF8A482 		ldr	r8, .L210+16
 2184              		.loc 1 982 0
 2185 0012 0C96     		str	r6, [sp, #48]
 2186 0014 0D96     		str	r6, [sp, #52]
 2187 0016 0E96     		str	r6, [sp, #56]
 2188 0018 0F96     		str	r6, [sp, #60]
 2189 001a 1096     		str	r6, [sp, #64]
 2190              		.loc 1 973 0
 2191 001c 8146     		mov	r9, r0
 2192              		.loc 1 982 0
 2193 001e 1196     		str	r6, [sp, #68]
 2194              	.LVL299:
 2195 0020 04AC     		add	r4, sp, #16
 2196              	.LVL300:
 2197              	.L133:
 2198              		.loc 1 989 0
 2199 0022 7710     		asrs	r7, r6, #1
 2200              	.LVL301:
 2201              		.loc 1 990 0
 2202 0024 06F0010A 		and	r10, r6, #1
 2203              	.LVL302:
ARM GAS  C:\Users\jo\AppData\Local\Temp\ccDdpTff.s 			page 40


 2204              		.loc 1 992 0
 2205 0028 B9F1000F 		cmp	r9, #0
 2206 002c 0FD0     		beq	.L114
 2207              		.loc 1 994 0
 2208 002e 7A1C     		adds	r2, r7, #1
 2209              		.loc 1 993 0
 2210 0030 002F     		cmp	r7, #0
 2211 0032 C2EBC202 		rsb	r2, r2, r2, lsl #3
 2212 0036 0CBF     		ite	eq
 2213 0038 2021     		moveq	r1, #32
 2214 003a 3321     		movne	r1, #51
 2215 003c D200     		lsls	r2, r2, #3
 2216 003e 9948     		ldr	r0, .L210
 2217 0040 BAF1000F 		cmp	r10, #0
 2218 0044 0CBF     		ite	eq
 2219 0046 5B46     		moveq	r3, fp
 2220 0048 4346     		movne	r3, r8
 2221 004a FFF7FEFF 		bl	printf
 2222              	.LVL303:
 2223              	.L114:
 2224              		.loc 1 997 0
 2225 004e 964B     		ldr	r3, .L210+4
 2226 0050 93E80300 		ldmia	r3, {r0, r1}
 2227              		.loc 1 999 0
 2228 0054 731E     		subs	r3, r6, #1
 2229              		.loc 1 997 0
 2230 0056 84E80300 		stmia	r4, {r0, r1}
 2231              		.loc 1 999 0
 2232 005a 042B     		cmp	r3, #4
 2233 005c 79D8     		bhi	.L117
 2234 005e DFE813F0 		tbh	[pc, r3, lsl #1]
 2235              	.L119:
 2236 0062 7300     		.2byte	(.L118-.L119)/2
 2237 0064 6E00     		.2byte	(.L120-.L119)/2
 2238 0066 6900     		.2byte	(.L121-.L119)/2
 2239 0068 0500     		.2byte	(.L122-.L119)/2
 2240 006a 0B01     		.2byte	(.L123-.L119)/2
 2241              		.p2align 1
 2242              	.L122:
 2243              		.loc 1 1018 0
 2244 006c 33A8     		add	r0, sp, #204
 2245 006e 8F49     		ldr	r1, .L210+8
 2246 0070 FFF7FEFF 		bl	des3_set3key_dec
 2247              	.LVL304:
 2248              	.L125:
 2249              		.loc 1 993 0 discriminator 1
 2250 0074 42F21075 		movw	r5, #10000
 2251 0078 03E0     		b	.L124
 2252              	.LVL305:
 2253              	.L200:
 2254              		.loc 1 1032 0
 2255 007a FFF7FEFF 		bl	des_crypt_ecb
 2256              	.LVL306:
 2257              		.loc 1 1029 0
 2258 007e 013D     		subs	r5, r5, #1
 2259              	.LVL307:
 2260 0080 0BD0     		beq	.L199
ARM GAS  C:\Users\jo\AppData\Local\Temp\ccDdpTff.s 			page 41


 2261              	.LVL308:
 2262              	.L124:
 2263              		.loc 1 1032 0
 2264 0082 12A8     		add	r0, sp, #72
 2265 0084 2146     		mov	r1, r4
 2266 0086 2246     		mov	r2, r4
 2267              		.loc 1 1031 0
 2268 0088 002F     		cmp	r7, #0
 2269 008a F6D0     		beq	.L200
 2270              		.loc 1 1034 0
 2271 008c 33A8     		add	r0, sp, #204
 2272 008e 2146     		mov	r1, r4
 2273 0090 2246     		mov	r2, r4
 2274 0092 FFF7FEFF 		bl	des3_crypt_ecb
 2275              	.LVL309:
 2276              		.loc 1 1029 0
 2277 0096 013D     		subs	r5, r5, #1
 2278              	.LVL310:
 2279 0098 F3D1     		bne	.L124
 2280              	.LVL311:
 2281              	.L199:
 2282              		.loc 1 1037 0
 2283 009a BAF1000F 		cmp	r10, #0
 2284 009e 40F0CF80 		bne	.L128
 2285              		.loc 1 1038 0 discriminator 1
 2286 00a2 8349     		ldr	r1, .L210+12
 2287              	.L196:
 2288              		.loc 1 1040 0
 2289 00a4 2046     		mov	r0, r4
 2290 00a6 01EBC701 		add	r1, r1, r7, lsl #3
 2291 00aa 0822     		movs	r2, #8
 2292 00ac FFF7FEFF 		bl	memcmp
 2293              	.LVL312:
 2294              		.loc 1 1039 0
 2295 00b0 0028     		cmp	r0, #0
 2296 00b2 40F0D880 		bne	.L129
 2297              		.loc 1 1048 0
 2298 00b6 B9F1000F 		cmp	r9, #0
 2299 00ba 40F0C380 		bne	.L201
 2300              	.L132:
 2301              		.loc 1 987 0 discriminator 2
 2302 00be 0136     		adds	r6, r6, #1
 2303              	.LVL313:
 2304 00c0 062E     		cmp	r6, #6
 2305 00c2 AED1     		bne	.L133
 2306              		.loc 1 1052 0
 2307 00c4 B9F1000F 		cmp	r9, #0
 2308 00c8 40F0E880 		bne	.L202
 2309              	.L134:
 2310              	.LVL314:
 2311              		.loc 1 993 0 discriminator 1
 2312 00cc 4FF0000B 		mov	fp, #0
 2313 00d0 0DF12008 		add	r8, sp, #32
 2314 00d4 06AD     		add	r5, sp, #24
 2315              	.LVL315:
 2316              	.L155:
 2317              		.loc 1 1060 0
ARM GAS  C:\Users\jo\AppData\Local\Temp\ccDdpTff.s 			page 42


 2318 00d6 4FEA6B03 		asr	r3, fp, #1
 2319 00da 0393     		str	r3, [sp, #12]
 2320              	.LVL316:
 2321              		.loc 1 1061 0
 2322 00dc 0BF00106 		and	r6, fp, #1
 2323              	.LVL317:
 2324              		.loc 1 1063 0
 2325 00e0 B9F1000F 		cmp	r9, #0
 2326 00e4 10D0     		beq	.L135
 2327              		.loc 1 1064 0
 2328 00e6 002B     		cmp	r3, #0
 2329              		.loc 1 1065 0
 2330 00e8 03F10102 		add	r2, r3, #1
 2331              		.loc 1 1064 0
 2332 00ec 714F     		ldr	r7, .L210+16
 2333 00ee 724B     		ldr	r3, .L210+20
 2334              	.LVL318:
 2335 00f0 7248     		ldr	r0, .L210+24
 2336 00f2 C2EBC202 		rsb	r2, r2, r2, lsl #3
 2337 00f6 0CBF     		ite	eq
 2338 00f8 2021     		moveq	r1, #32
 2339 00fa 3321     		movne	r1, #51
 2340 00fc D200     		lsls	r2, r2, #3
 2341 00fe 002E     		cmp	r6, #0
 2342 0100 18BF     		it	ne
 2343 0102 3B46     		movne	r3, r7
 2344 0104 FFF7FEFF 		bl	printf
 2345              	.LVL319:
 2346              	.L135:
 2347              		.loc 1 1068 0
 2348 0108 6D4B     		ldr	r3, .L210+28
 2349 010a 93E80300 		ldmia	r3, {r0, r1}
 2350              		.loc 1 1070 0
 2351 010e 664B     		ldr	r3, .L210+4
 2352              		.loc 1 1068 0
 2353 0110 88E80300 		stmia	r8, {r0, r1}
 2354              		.loc 1 1069 0
 2355 0114 85E80300 		stmia	r5, {r0, r1}
 2356              		.loc 1 1070 0
 2357 0118 93E80300 		ldmia	r3, {r0, r1}
 2358              		.loc 1 1072 0
 2359 011c 0BF1FF33 		add	r3, fp, #-1
 2360              		.loc 1 1070 0
 2361 0120 84E80300 		stmia	r4, {r0, r1}
 2362              		.loc 1 1072 0
 2363 0124 042B     		cmp	r3, #4
 2364 0126 00F28180 		bhi	.L138
 2365 012a DFE803F0 		tbb	[pc, r3]
 2366              	.L140:
 2367 012e 7A       		.byte	(.L139-.L140)/2
 2368 012f 84       		.byte	(.L141-.L140)/2
 2369 0130 4F       		.byte	(.L142-.L140)/2
 2370 0131 17       		.byte	(.L143-.L140)/2
 2371 0132 AE       		.byte	(.L144-.L140)/2
 2372              	.LVL320:
 2373 0133 00       		.p2align 1
 2374              	.L121:
ARM GAS  C:\Users\jo\AppData\Local\Temp\ccDdpTff.s 			page 43


 2375              		.loc 1 1014 0
 2376 0134 33A8     		add	r0, sp, #204
 2377 0136 5D49     		ldr	r1, .L210+8
 2378 0138 FFF7FEFF 		bl	des3_set2key_enc
 2379              	.LVL321:
 2380              		.loc 1 1015 0
 2381 013c 9AE7     		b	.L125
 2382              	.L120:
 2383              		.loc 1 1010 0
 2384 013e 33A8     		add	r0, sp, #204
 2385 0140 5A49     		ldr	r1, .L210+8
 2386 0142 FFF7FEFF 		bl	des3_set2key_dec
 2387              	.LVL322:
 2388              		.loc 1 1011 0
 2389 0146 95E7     		b	.L125
 2390              	.L118:
 2391              	.LVL323:
 2392              	.LBB17:
 2393              	.LBB18:
 2394              		.loc 1 496 0
 2395 0148 13A8     		add	r0, sp, #76
 2396 014a 5849     		ldr	r1, .L210+8
 2397 014c FFF7FEFF 		bl	des_setkey
 2398              	.LVL324:
 2399 0150 90E7     		b	.L125
 2400              	.LVL325:
 2401              	.L117:
 2402              	.LBE18:
 2403              	.LBE17:
 2404              		.loc 1 1002 0
 2405 0152 12A8     		add	r0, sp, #72
 2406 0154 5549     		ldr	r1, .L210+8
 2407 0156 FFF7FEFF 		bl	des_setkey_dec
 2408              	.LVL326:
 2409              		.loc 1 1003 0
 2410 015a 8BE7     		b	.L125
 2411              	.LVL327:
 2412              	.L143:
 2413              		.loc 1 1091 0
 2414 015c 33A8     		add	r0, sp, #204
 2415 015e 5349     		ldr	r1, .L210+8
 2416 0160 FFF7FEFF 		bl	des3_set3key_dec
 2417              	.LVL328:
 2418              	.L145:
 2419              		.loc 1 1102 0
 2420 0164 002E     		cmp	r6, #0
 2421 0166 37D1     		bne	.L162
 2422              	.L207:
 2423 0168 42F21076 		movw	r6, #10000
 2424              	.LVL329:
 2425              		.loc 1 1109 0
 2426 016c 039F     		ldr	r7, [sp, #12]
 2427 016e 03E0     		b	.L149
 2428              	.LVL330:
 2429              	.L204:
 2430              		.loc 1 1107 0
 2431 0170 FFF7FEFF 		bl	des_crypt_cbc
ARM GAS  C:\Users\jo\AppData\Local\Temp\ccDdpTff.s 			page 44


 2432              	.LVL331:
 2433              		.loc 1 1104 0
 2434 0174 013E     		subs	r6, r6, #1
 2435              	.LVL332:
 2436 0176 0FD0     		beq	.L203
 2437              	.LVL333:
 2438              	.L149:
 2439              		.loc 1 1107 0
 2440 0178 12A8     		add	r0, sp, #72
 2441 017a 3946     		mov	r1, r7
 2442 017c 0822     		movs	r2, #8
 2443 017e 4346     		mov	r3, r8
 2444 0180 0094     		str	r4, [sp]
 2445 0182 0194     		str	r4, [sp, #4]
 2446              		.loc 1 1106 0
 2447 0184 002F     		cmp	r7, #0
 2448 0186 F3D0     		beq	.L204
 2449              		.loc 1 1109 0
 2450 0188 33A8     		add	r0, sp, #204
 2451 018a 0021     		movs	r1, #0
 2452 018c 0822     		movs	r2, #8
 2453 018e 4346     		mov	r3, r8
 2454 0190 FFF7FEFF 		bl	des3_crypt_cbc
 2455              	.LVL334:
 2456              		.loc 1 1104 0
 2457 0194 013E     		subs	r6, r6, #1
 2458              	.LVL335:
 2459 0196 EFD1     		bne	.L149
 2460              	.LVL336:
 2461              	.L203:
 2462              		.loc 1 1132 0
 2463 0198 4A49     		ldr	r1, .L210+32
 2464 019a 0397     		str	r7, [sp, #12]
 2465              	.LVL337:
 2466 019c 2046     		mov	r0, r4
 2467 019e 01EBC701 		add	r1, r1, r7, lsl #3
 2468 01a2 0822     		movs	r2, #8
 2469 01a4 FFF7FEFF 		bl	memcmp
 2470              	.LVL338:
 2471              		.loc 1 1131 0
 2472 01a8 0028     		cmp	r0, #0
 2473 01aa 5CD1     		bne	.L129
 2474              	.L153:
 2475              		.loc 1 1142 0
 2476 01ac B9F1000F 		cmp	r9, #0
 2477 01b0 67D1     		bne	.L205
 2478              	.L154:
 2479              		.loc 1 1058 0 discriminator 2
 2480 01b2 0BF1010B 		add	fp, fp, #1
 2481              	.LVL339:
 2482 01b6 BBF1060F 		cmp	fp, #6
 2483 01ba 8CD1     		bne	.L155
 2484              		.loc 1 1146 0
 2485 01bc B9F1000F 		cmp	r9, #0
 2486 01c0 68D1     		bne	.L206
 2487              	.L197:
 2488              		.loc 1 1149 0
ARM GAS  C:\Users\jo\AppData\Local\Temp\ccDdpTff.s 			page 45


 2489 01c2 0020     		movs	r0, #0
 2490              	.LVL340:
 2491              	.L190:
 2492              		.loc 1 1150 0
 2493 01c4 0DF5157D 		add	sp, sp, #596
 2494              		.cfi_remember_state
 2495              		.cfi_def_cfa_offset 36
 2496              		@ sp needed
 2497 01c8 BDE8F08F 		pop	{r4, r5, r6, r7, r8, r9, r10, fp, pc}
 2498              	.LVL341:
 2499              	.L142:
 2500              		.cfi_restore_state
 2501              		.loc 1 1087 0
 2502 01cc 33A8     		add	r0, sp, #204
 2503 01ce 3749     		ldr	r1, .L210+8
 2504 01d0 FFF7FEFF 		bl	des3_set2key_enc
 2505              	.LVL342:
 2506              		.loc 1 1102 0
 2507 01d4 002E     		cmp	r6, #0
 2508 01d6 C7D0     		beq	.L207
 2509              	.L162:
 2510 01d8 42F2107A 		movw	r10, #10000
 2511 01dc 0AAE     		add	r6, sp, #40
 2512              	.LVL343:
 2513              	.LBB19:
 2514              		.loc 1 1121 0
 2515 01de 039F     		ldr	r7, [sp, #12]
 2516 01e0 10E0     		b	.L146
 2517              	.LVL344:
 2518              	.L209:
 2519              		.loc 1 1119 0
 2520 01e2 FFF7FEFF 		bl	des_crypt_cbc
 2521              	.LVL345:
 2522              	.L152:
 2523              		.loc 1 1123 0 discriminator 2
 2524 01e6 95E80300 		ldmia	r5, {r0, r1}
 2525 01ea 86E80300 		stmia	r6, {r0, r1}
 2526              		.loc 1 1124 0 discriminator 2
 2527 01ee 94E80300 		ldmia	r4, {r0, r1}
 2528 01f2 85E80300 		stmia	r5, {r0, r1}
 2529              		.loc 1 1125 0 discriminator 2
 2530 01f6 96E80300 		ldmia	r6, {r0, r1}
 2531              	.LBE19:
 2532              		.loc 1 1114 0 discriminator 2
 2533 01fa BAF1010A 		subs	r10, r10, #1
 2534              	.LVL346:
 2535              	.LBB20:
 2536              		.loc 1 1125 0 discriminator 2
 2537 01fe 84E80300 		stmia	r4, {r0, r1}
 2538              	.LVL347:
 2539              	.LBE20:
 2540              		.loc 1 1114 0 discriminator 2
 2541 0202 23D0     		beq	.L208
 2542              	.L146:
 2543              	.LVL348:
 2544              	.LBB21:
 2545              		.loc 1 1119 0
ARM GAS  C:\Users\jo\AppData\Local\Temp\ccDdpTff.s 			page 46


 2546 0204 12A8     		add	r0, sp, #72
 2547 0206 0121     		movs	r1, #1
 2548 0208 0822     		movs	r2, #8
 2549 020a 4346     		mov	r3, r8
 2550 020c 0094     		str	r4, [sp]
 2551 020e 0194     		str	r4, [sp, #4]
 2552              		.loc 1 1118 0
 2553 0210 002F     		cmp	r7, #0
 2554 0212 E6D0     		beq	.L209
 2555              		.loc 1 1121 0
 2556 0214 33A8     		add	r0, sp, #204
 2557 0216 0121     		movs	r1, #1
 2558 0218 0822     		movs	r2, #8
 2559 021a 4346     		mov	r3, r8
 2560 021c FFF7FEFF 		bl	des3_crypt_cbc
 2561              	.LVL349:
 2562 0220 E1E7     		b	.L152
 2563              	.LVL350:
 2564              	.L139:
 2565              	.LBE21:
 2566              	.LBB22:
 2567              	.LBB23:
 2568              		.loc 1 496 0
 2569 0222 13A8     		add	r0, sp, #76
 2570 0224 2149     		ldr	r1, .L210+8
 2571 0226 FFF7FEFF 		bl	des_setkey
 2572              	.LVL351:
 2573 022a 9BE7     		b	.L145
 2574              	.LVL352:
 2575              	.L138:
 2576              	.LBE23:
 2577              	.LBE22:
 2578              		.loc 1 1075 0
 2579 022c 12A8     		add	r0, sp, #72
 2580 022e 1F49     		ldr	r1, .L210+8
 2581 0230 FFF7FEFF 		bl	des_setkey_dec
 2582              	.LVL353:
 2583              		.loc 1 1076 0
 2584 0234 96E7     		b	.L145
 2585              	.L141:
 2586              		.loc 1 1083 0
 2587 0236 33A8     		add	r0, sp, #204
 2588 0238 1C49     		ldr	r1, .L210+8
 2589 023a FFF7FEFF 		bl	des3_set2key_dec
 2590              	.LVL354:
 2591              		.loc 1 1084 0
 2592 023e 91E7     		b	.L145
 2593              	.LVL355:
 2594              	.L128:
 2595              		.loc 1 1040 0
 2596 0240 2149     		ldr	r1, .L210+36
 2597 0242 2FE7     		b	.L196
 2598              	.L201:
 2599              		.loc 1 1049 0
 2600 0244 2148     		ldr	r0, .L210+40
 2601 0246 FFF7FEFF 		bl	puts
 2602              	.LVL356:
ARM GAS  C:\Users\jo\AppData\Local\Temp\ccDdpTff.s 			page 47


 2603 024a 38E7     		b	.L132
 2604              	.LVL357:
 2605              	.L208:
 2606              		.loc 1 1128 0
 2607 024c 95E80300 		ldmia	r5, {r0, r1}
 2608              		.loc 1 1134 0
 2609 0250 1F4B     		ldr	r3, .L210+44
 2610              		.loc 1 1128 0
 2611 0252 84E80300 		stmia	r4, {r0, r1}
 2612              		.loc 1 1134 0
 2613 0256 0822     		movs	r2, #8
 2614 0258 03EBC701 		add	r1, r3, r7, lsl #3
 2615 025c 2046     		mov	r0, r4
 2616 025e FFF7FEFF 		bl	memcmp
 2617              	.LVL358:
 2618              		.loc 1 1133 0
 2619 0262 0028     		cmp	r0, #0
 2620 0264 A2D0     		beq	.L153
 2621              	.LVL359:
 2622              	.L129:
 2623              		.loc 1 1045 0
 2624 0266 0120     		movs	r0, #1
 2625              		.loc 1 1042 0
 2626 0268 B9F1000F 		cmp	r9, #0
 2627 026c AAD0     		beq	.L190
 2628              		.loc 1 1043 0
 2629 026e 1948     		ldr	r0, .L210+48
 2630 0270 FFF7FEFF 		bl	puts
 2631              	.LVL360:
 2632              		.loc 1 1045 0
 2633 0274 0120     		movs	r0, #1
 2634 0276 A5E7     		b	.L190
 2635              	.LVL361:
 2636              	.L123:
 2637              		.loc 1 1022 0
 2638 0278 33A8     		add	r0, sp, #204
 2639 027a 0C49     		ldr	r1, .L210+8
 2640 027c FFF7FEFF 		bl	des3_set3key_enc
 2641              	.LVL362:
 2642              		.loc 1 1023 0
 2643 0280 F8E6     		b	.L125
 2644              	.LVL363:
 2645              	.L205:
 2646              		.loc 1 1143 0
 2647 0282 1248     		ldr	r0, .L210+40
 2648 0284 FFF7FEFF 		bl	puts
 2649              	.LVL364:
 2650 0288 93E7     		b	.L154
 2651              	.LVL365:
 2652              	.L144:
 2653              		.loc 1 1095 0
 2654 028a 33A8     		add	r0, sp, #204
 2655 028c 0749     		ldr	r1, .L210+8
 2656 028e FFF7FEFF 		bl	des3_set3key_enc
 2657              	.LVL366:
 2658              		.loc 1 1096 0
 2659 0292 67E7     		b	.L145
ARM GAS  C:\Users\jo\AppData\Local\Temp\ccDdpTff.s 			page 48


 2660              	.LVL367:
 2661              	.L206:
 2662              		.loc 1 1147 0
 2663 0294 0A20     		movs	r0, #10
 2664 0296 FFF7FEFF 		bl	putchar
 2665              	.LVL368:
 2666 029a 92E7     		b	.L197
 2667              	.LVL369:
 2668              	.L202:
 2669              		.loc 1 1053 0
 2670 029c 0A20     		movs	r0, #10
 2671 029e FFF7FEFF 		bl	putchar
 2672              	.LVL370:
 2673 02a2 13E7     		b	.L134
 2674              	.L211:
 2675              		.align	2
 2676              	.L210:
 2677 02a4 08000000 		.word	.LC2
 2678 02a8 00000000 		.word	.LANCHOR12
 2679 02ac 00000000 		.word	.LANCHOR13
 2680 02b0 00000000 		.word	.LANCHOR14
 2681 02b4 04000000 		.word	.LC1
 2682 02b8 00000000 		.word	.LC0
 2683 02bc 30000000 		.word	.LC5
 2684 02c0 00000000 		.word	.LANCHOR16
 2685 02c4 00000000 		.word	.LANCHOR18
 2686 02c8 00000000 		.word	.LANCHOR15
 2687 02cc 28000000 		.word	.LC4
 2688 02d0 00000000 		.word	.LANCHOR17
 2689 02d4 20000000 		.word	.LC3
 2690              		.cfi_endproc
 2691              	.LFE16:
 2692              		.size	des_self_test, .-des_self_test
 2693 02d8 AFF30080 		.section	.rodata.des3_test_iv,"a",%progbits
 2693      AFF30080 
 2694              		.align	2
 2695              		.set	.LANCHOR16,. + 0
 2696              		.type	des3_test_iv, %object
 2697              		.size	des3_test_iv, 8
 2698              	des3_test_iv:
 2699 0000 12       		.byte	18
 2700 0001 34       		.byte	52
 2701 0002 56       		.byte	86
 2702 0003 78       		.byte	120
 2703 0004 90       		.byte	-112
 2704 0005 AB       		.byte	-85
 2705 0006 CD       		.byte	-51
 2706 0007 EF       		.byte	-17
 2707              		.section	.rodata.des3_test_ecb_dec,"a",%progbits
 2708              		.align	2
 2709              		.set	.LANCHOR14,. + 0
 2710              		.type	des3_test_ecb_dec, %object
 2711              		.size	des3_test_ecb_dec, 24
 2712              	des3_test_ecb_dec:
 2713 0000 CD       		.byte	-51
 2714 0001 D6       		.byte	-42
 2715 0002 4F       		.byte	79
ARM GAS  C:\Users\jo\AppData\Local\Temp\ccDdpTff.s 			page 49


 2716 0003 2F       		.byte	47
 2717 0004 94       		.byte	-108
 2718 0005 27       		.byte	39
 2719 0006 C1       		.byte	-63
 2720 0007 5D       		.byte	93
 2721 0008 69       		.byte	105
 2722 0009 96       		.byte	-106
 2723 000a C8       		.byte	-56
 2724 000b FA       		.byte	-6
 2725 000c 47       		.byte	71
 2726 000d A2       		.byte	-94
 2727 000e AB       		.byte	-85
 2728 000f EB       		.byte	-21
 2729 0010 83       		.byte	-125
 2730 0011 25       		.byte	37
 2731 0012 39       		.byte	57
 2732 0013 76       		.byte	118
 2733 0014 44       		.byte	68
 2734 0015 09       		.byte	9
 2735 0016 1A       		.byte	26
 2736 0017 0A       		.byte	10
 2737              		.section	.rodata.des3_test_keys,"a",%progbits
 2738              		.align	2
 2739              		.set	.LANCHOR13,. + 0
 2740              		.type	des3_test_keys, %object
 2741              		.size	des3_test_keys, 24
 2742              	des3_test_keys:
 2743 0000 01       		.byte	1
 2744 0001 23       		.byte	35
 2745 0002 45       		.byte	69
 2746 0003 67       		.byte	103
 2747 0004 89       		.byte	-119
 2748 0005 AB       		.byte	-85
 2749 0006 CD       		.byte	-51
 2750 0007 EF       		.byte	-17
 2751 0008 23       		.byte	35
 2752 0009 45       		.byte	69
 2753 000a 67       		.byte	103
 2754 000b 89       		.byte	-119
 2755 000c AB       		.byte	-85
 2756 000d CD       		.byte	-51
 2757 000e EF       		.byte	-17
 2758 000f 01       		.byte	1
 2759 0010 45       		.byte	69
 2760 0011 67       		.byte	103
 2761 0012 89       		.byte	-119
 2762 0013 AB       		.byte	-85
 2763 0014 CD       		.byte	-51
 2764 0015 EF       		.byte	-17
 2765 0016 01       		.byte	1
 2766 0017 23       		.byte	35
 2767              		.section	.rodata.des3_test_ecb_enc,"a",%progbits
 2768              		.align	2
 2769              		.set	.LANCHOR15,. + 0
 2770              		.type	des3_test_ecb_enc, %object
 2771              		.size	des3_test_ecb_enc, 24
 2772              	des3_test_ecb_enc:
ARM GAS  C:\Users\jo\AppData\Local\Temp\ccDdpTff.s 			page 50


 2773 0000 6A       		.byte	106
 2774 0001 2A       		.byte	42
 2775 0002 19       		.byte	25
 2776 0003 F4       		.byte	-12
 2777 0004 1E       		.byte	30
 2778 0005 CA       		.byte	-54
 2779 0006 85       		.byte	-123
 2780 0007 4B       		.byte	75
 2781 0008 03       		.byte	3
 2782 0009 E6       		.byte	-26
 2783 000a 9F       		.byte	-97
 2784 000b 5B       		.byte	91
 2785 000c FA       		.byte	-6
 2786 000d 58       		.byte	88
 2787 000e EB       		.byte	-21
 2788 000f 42       		.byte	66
 2789 0010 DD       		.byte	-35
 2790 0011 17       		.byte	23
 2791 0012 E8       		.byte	-24
 2792 0013 B8       		.byte	-72
 2793 0014 B4       		.byte	-76
 2794 0015 37       		.byte	55
 2795 0016 D2       		.byte	-46
 2796 0017 32       		.byte	50
 2797              		.section	.rodata.des3_test_buf,"a",%progbits
 2798              		.align	2
 2799              		.set	.LANCHOR12,. + 0
 2800              		.type	des3_test_buf, %object
 2801              		.size	des3_test_buf, 8
 2802              	des3_test_buf:
 2803 0000 4E       		.byte	78
 2804 0001 6F       		.byte	111
 2805 0002 77       		.byte	119
 2806 0003 20       		.byte	32
 2807 0004 69       		.byte	105
 2808 0005 73       		.byte	115
 2809 0006 20       		.byte	32
 2810 0007 74       		.byte	116
 2811              		.section	.rodata.SB4,"a",%progbits
 2812              		.align	2
 2813              		.set	.LANCHOR7,. + 0
 2814              		.type	SB4, %object
 2815              		.size	SB4, 256
 2816              	SB4:
 2817 0000 01208000 		.word	8396801
 2818 0004 81200000 		.word	8321
 2819 0008 81200000 		.word	8321
 2820 000c 80000000 		.word	128
 2821 0010 80208000 		.word	8396928
 2822 0014 81008000 		.word	8388737
 2823 0018 01008000 		.word	8388609
 2824 001c 01200000 		.word	8193
 2825 0020 00000000 		.word	0
 2826 0024 00208000 		.word	8396800
 2827 0028 00208000 		.word	8396800
 2828 002c 81208000 		.word	8396929
 2829 0030 81000000 		.word	129
ARM GAS  C:\Users\jo\AppData\Local\Temp\ccDdpTff.s 			page 51


 2830 0034 00000000 		.word	0
 2831 0038 80008000 		.word	8388736
 2832 003c 01008000 		.word	8388609
 2833 0040 01000000 		.word	1
 2834 0044 00200000 		.word	8192
 2835 0048 00008000 		.word	8388608
 2836 004c 01208000 		.word	8396801
 2837 0050 80000000 		.word	128
 2838 0054 00008000 		.word	8388608
 2839 0058 01200000 		.word	8193
 2840 005c 80200000 		.word	8320
 2841 0060 81008000 		.word	8388737
 2842 0064 01000000 		.word	1
 2843 0068 80200000 		.word	8320
 2844 006c 80008000 		.word	8388736
 2845 0070 00200000 		.word	8192
 2846 0074 80208000 		.word	8396928
 2847 0078 81208000 		.word	8396929
 2848 007c 81000000 		.word	129
 2849 0080 80008000 		.word	8388736
 2850 0084 01008000 		.word	8388609
 2851 0088 00208000 		.word	8396800
 2852 008c 81208000 		.word	8396929
 2853 0090 81000000 		.word	129
 2854 0094 00000000 		.word	0
 2855 0098 00000000 		.word	0
 2856 009c 00208000 		.word	8396800
 2857 00a0 80200000 		.word	8320
 2858 00a4 80008000 		.word	8388736
 2859 00a8 81008000 		.word	8388737
 2860 00ac 01000000 		.word	1
 2861 00b0 01208000 		.word	8396801
 2862 00b4 81200000 		.word	8321
 2863 00b8 81200000 		.word	8321
 2864 00bc 80000000 		.word	128
 2865 00c0 81208000 		.word	8396929
 2866 00c4 81000000 		.word	129
 2867 00c8 01000000 		.word	1
 2868 00cc 00200000 		.word	8192
 2869 00d0 01008000 		.word	8388609
 2870 00d4 01200000 		.word	8193
 2871 00d8 80208000 		.word	8396928
 2872 00dc 81008000 		.word	8388737
 2873 00e0 01200000 		.word	8193
 2874 00e4 80200000 		.word	8320
 2875 00e8 00008000 		.word	8388608
 2876 00ec 01208000 		.word	8396801
 2877 00f0 80000000 		.word	128
 2878 00f4 00008000 		.word	8388608
 2879 00f8 00200000 		.word	8192
 2880 00fc 80208000 		.word	8396928
 2881              		.section	.rodata.SB1,"a",%progbits
 2882              		.align	2
 2883              		.set	.LANCHOR11,. + 0
 2884              		.type	SB1, %object
 2885              		.size	SB1, 256
 2886              	SB1:
ARM GAS  C:\Users\jo\AppData\Local\Temp\ccDdpTff.s 			page 52


 2887 0000 00040101 		.word	16843776
 2888 0004 00000000 		.word	0
 2889 0008 00000100 		.word	65536
 2890 000c 04040101 		.word	16843780
 2891 0010 04000101 		.word	16842756
 2892 0014 04040100 		.word	66564
 2893 0018 04000000 		.word	4
 2894 001c 00000100 		.word	65536
 2895 0020 00040000 		.word	1024
 2896 0024 00040101 		.word	16843776
 2897 0028 04040101 		.word	16843780
 2898 002c 00040000 		.word	1024
 2899 0030 04040001 		.word	16778244
 2900 0034 04000101 		.word	16842756
 2901 0038 00000001 		.word	16777216
 2902 003c 04000000 		.word	4
 2903 0040 04040000 		.word	1028
 2904 0044 00040001 		.word	16778240
 2905 0048 00040001 		.word	16778240
 2906 004c 00040100 		.word	66560
 2907 0050 00040100 		.word	66560
 2908 0054 00000101 		.word	16842752
 2909 0058 00000101 		.word	16842752
 2910 005c 04040001 		.word	16778244
 2911 0060 04000100 		.word	65540
 2912 0064 04000001 		.word	16777220
 2913 0068 04000001 		.word	16777220
 2914 006c 04000100 		.word	65540
 2915 0070 00000000 		.word	0
 2916 0074 04040000 		.word	1028
 2917 0078 04040100 		.word	66564
 2918 007c 00000001 		.word	16777216
 2919 0080 00000100 		.word	65536
 2920 0084 04040101 		.word	16843780
 2921 0088 04000000 		.word	4
 2922 008c 00000101 		.word	16842752
 2923 0090 00040101 		.word	16843776
 2924 0094 00000001 		.word	16777216
 2925 0098 00000001 		.word	16777216
 2926 009c 00040000 		.word	1024
 2927 00a0 04000101 		.word	16842756
 2928 00a4 00000100 		.word	65536
 2929 00a8 00040100 		.word	66560
 2930 00ac 04000001 		.word	16777220
 2931 00b0 00040000 		.word	1024
 2932 00b4 04000000 		.word	4
 2933 00b8 04040001 		.word	16778244
 2934 00bc 04040100 		.word	66564
 2935 00c0 04040101 		.word	16843780
 2936 00c4 04000100 		.word	65540
 2937 00c8 00000101 		.word	16842752
 2938 00cc 04040001 		.word	16778244
 2939 00d0 04000001 		.word	16777220
 2940 00d4 04040000 		.word	1028
 2941 00d8 04040100 		.word	66564
 2942 00dc 00040101 		.word	16843776
 2943 00e0 04040000 		.word	1028
ARM GAS  C:\Users\jo\AppData\Local\Temp\ccDdpTff.s 			page 53


 2944 00e4 00040001 		.word	16778240
 2945 00e8 00040001 		.word	16778240
 2946 00ec 00000000 		.word	0
 2947 00f0 04000100 		.word	65540
 2948 00f4 00040100 		.word	66560
 2949 00f8 00000000 		.word	0
 2950 00fc 04000101 		.word	16842756
 2951              		.section	.rodata.SB2,"a",%progbits
 2952              		.align	2
 2953              		.set	.LANCHOR8,. + 0
 2954              		.type	SB2, %object
 2955              		.size	SB2, 256
 2956              	SB2:
 2957 0000 20801080 		.word	-2146402272
 2958 0004 00800080 		.word	-2147450880
 2959 0008 00800000 		.word	32768
 2960 000c 20801000 		.word	1081376
 2961 0010 00001000 		.word	1048576
 2962 0014 20000000 		.word	32
 2963 0018 20001080 		.word	-2146435040
 2964 001c 20800080 		.word	-2147450848
 2965 0020 20000080 		.word	-2147483616
 2966 0024 20801080 		.word	-2146402272
 2967 0028 00801080 		.word	-2146402304
 2968 002c 00000080 		.word	-2147483648
 2969 0030 00800080 		.word	-2147450880
 2970 0034 00001000 		.word	1048576
 2971 0038 20000000 		.word	32
 2972 003c 20001080 		.word	-2146435040
 2973 0040 00801000 		.word	1081344
 2974 0044 20001000 		.word	1048608
 2975 0048 20800080 		.word	-2147450848
 2976 004c 00000000 		.word	0
 2977 0050 00000080 		.word	-2147483648
 2978 0054 00800000 		.word	32768
 2979 0058 20801000 		.word	1081376
 2980 005c 00001080 		.word	-2146435072
 2981 0060 20001000 		.word	1048608
 2982 0064 20000080 		.word	-2147483616
 2983 0068 00000000 		.word	0
 2984 006c 00801000 		.word	1081344
 2985 0070 20800000 		.word	32800
 2986 0074 00801080 		.word	-2146402304
 2987 0078 00001080 		.word	-2146435072
 2988 007c 20800000 		.word	32800
 2989 0080 00000000 		.word	0
 2990 0084 20801000 		.word	1081376
 2991 0088 20001080 		.word	-2146435040
 2992 008c 00001000 		.word	1048576
 2993 0090 20800080 		.word	-2147450848
 2994 0094 00001080 		.word	-2146435072
 2995 0098 00801080 		.word	-2146402304
 2996 009c 00800000 		.word	32768
 2997 00a0 00001080 		.word	-2146435072
 2998 00a4 00800080 		.word	-2147450880
 2999 00a8 20000000 		.word	32
 3000 00ac 20801080 		.word	-2146402272
ARM GAS  C:\Users\jo\AppData\Local\Temp\ccDdpTff.s 			page 54


 3001 00b0 20801000 		.word	1081376
 3002 00b4 20000000 		.word	32
 3003 00b8 00800000 		.word	32768
 3004 00bc 00000080 		.word	-2147483648
 3005 00c0 20800000 		.word	32800
 3006 00c4 00801080 		.word	-2146402304
 3007 00c8 00001000 		.word	1048576
 3008 00cc 20000080 		.word	-2147483616
 3009 00d0 20001000 		.word	1048608
 3010 00d4 20800080 		.word	-2147450848
 3011 00d8 20000080 		.word	-2147483616
 3012 00dc 20001000 		.word	1048608
 3013 00e0 00801000 		.word	1081344
 3014 00e4 00000000 		.word	0
 3015 00e8 00800080 		.word	-2147450880
 3016 00ec 20800000 		.word	32800
 3017 00f0 00000080 		.word	-2147483648
 3018 00f4 20001080 		.word	-2146435040
 3019 00f8 20801080 		.word	-2146402272
 3020 00fc 00801000 		.word	1081344
 3021              		.section	.rodata.SB3,"a",%progbits
 3022              		.align	2
 3023              		.set	.LANCHOR10,. + 0
 3024              		.type	SB3, %object
 3025              		.size	SB3, 256
 3026              	SB3:
 3027 0000 08020000 		.word	520
 3028 0004 00020208 		.word	134349312
 3029 0008 00000000 		.word	0
 3030 000c 08000208 		.word	134348808
 3031 0010 00020008 		.word	134218240
 3032 0014 00000000 		.word	0
 3033 0018 08020200 		.word	131592
 3034 001c 00020008 		.word	134218240
 3035 0020 08000200 		.word	131080
 3036 0024 08000008 		.word	134217736
 3037 0028 08000008 		.word	134217736
 3038 002c 00000200 		.word	131072
 3039 0030 08020208 		.word	134349320
 3040 0034 08000200 		.word	131080
 3041 0038 00000208 		.word	134348800
 3042 003c 08020000 		.word	520
 3043 0040 00000008 		.word	134217728
 3044 0044 08000000 		.word	8
 3045 0048 00020208 		.word	134349312
 3046 004c 00020000 		.word	512
 3047 0050 00020200 		.word	131584
 3048 0054 00000208 		.word	134348800
 3049 0058 08000208 		.word	134348808
 3050 005c 08020200 		.word	131592
 3051 0060 08020008 		.word	134218248
 3052 0064 00020200 		.word	131584
 3053 0068 00000200 		.word	131072
 3054 006c 08020008 		.word	134218248
 3055 0070 08000000 		.word	8
 3056 0074 08020208 		.word	134349320
 3057 0078 00020000 		.word	512
ARM GAS  C:\Users\jo\AppData\Local\Temp\ccDdpTff.s 			page 55


 3058 007c 00000008 		.word	134217728
 3059 0080 00020208 		.word	134349312
 3060 0084 00000008 		.word	134217728
 3061 0088 08000200 		.word	131080
 3062 008c 08020000 		.word	520
 3063 0090 00000200 		.word	131072
 3064 0094 00020208 		.word	134349312
 3065 0098 00020008 		.word	134218240
 3066 009c 00000000 		.word	0
 3067 00a0 00020000 		.word	512
 3068 00a4 08000200 		.word	131080
 3069 00a8 08020208 		.word	134349320
 3070 00ac 00020008 		.word	134218240
 3071 00b0 08000008 		.word	134217736
 3072 00b4 00020000 		.word	512
 3073 00b8 00000000 		.word	0
 3074 00bc 08000208 		.word	134348808
 3075 00c0 08020008 		.word	134218248
 3076 00c4 00000200 		.word	131072
 3077 00c8 00000008 		.word	134217728
 3078 00cc 08020208 		.word	134349320
 3079 00d0 08000000 		.word	8
 3080 00d4 08020200 		.word	131592
 3081 00d8 00020200 		.word	131584
 3082 00dc 08000008 		.word	134217736
 3083 00e0 00000208 		.word	134348800
 3084 00e4 08020008 		.word	134218248
 3085 00e8 08020000 		.word	520
 3086 00ec 00000208 		.word	134348800
 3087 00f0 08020200 		.word	131592
 3088 00f4 08000000 		.word	8
 3089 00f8 08000208 		.word	134348808
 3090 00fc 00020200 		.word	131584
 3091              		.section	.rodata.weak_key_table,"a",%progbits
 3092              		.align	2
 3093              		.set	.LANCHOR3,. + 0
 3094              		.type	weak_key_table, %object
 3095              		.size	weak_key_table, 128
 3096              	weak_key_table:
 3097 0000 01       		.byte	1
 3098 0001 01       		.byte	1
 3099 0002 01       		.byte	1
 3100 0003 01       		.byte	1
 3101 0004 01       		.byte	1
 3102 0005 01       		.byte	1
 3103 0006 01       		.byte	1
 3104 0007 01       		.byte	1
 3105 0008 FE       		.byte	-2
 3106 0009 FE       		.byte	-2
 3107 000a FE       		.byte	-2
 3108 000b FE       		.byte	-2
 3109 000c FE       		.byte	-2
 3110 000d FE       		.byte	-2
 3111 000e FE       		.byte	-2
 3112 000f FE       		.byte	-2
 3113 0010 1F       		.byte	31
 3114 0011 1F       		.byte	31
ARM GAS  C:\Users\jo\AppData\Local\Temp\ccDdpTff.s 			page 56


 3115 0012 1F       		.byte	31
 3116 0013 1F       		.byte	31
 3117 0014 0E       		.byte	14
 3118 0015 0E       		.byte	14
 3119 0016 0E       		.byte	14
 3120 0017 0E       		.byte	14
 3121 0018 E0       		.byte	-32
 3122 0019 E0       		.byte	-32
 3123 001a E0       		.byte	-32
 3124 001b E0       		.byte	-32
 3125 001c F1       		.byte	-15
 3126 001d F1       		.byte	-15
 3127 001e F1       		.byte	-15
 3128 001f F1       		.byte	-15
 3129 0020 01       		.byte	1
 3130 0021 1F       		.byte	31
 3131 0022 01       		.byte	1
 3132 0023 1F       		.byte	31
 3133 0024 01       		.byte	1
 3134 0025 0E       		.byte	14
 3135 0026 01       		.byte	1
 3136 0027 0E       		.byte	14
 3137 0028 1F       		.byte	31
 3138 0029 01       		.byte	1
 3139 002a 1F       		.byte	31
 3140 002b 01       		.byte	1
 3141 002c 0E       		.byte	14
 3142 002d 01       		.byte	1
 3143 002e 0E       		.byte	14
 3144 002f 01       		.byte	1
 3145 0030 01       		.byte	1
 3146 0031 E0       		.byte	-32
 3147 0032 01       		.byte	1
 3148 0033 E0       		.byte	-32
 3149 0034 01       		.byte	1
 3150 0035 F1       		.byte	-15
 3151 0036 01       		.byte	1
 3152 0037 F1       		.byte	-15
 3153 0038 E0       		.byte	-32
 3154 0039 01       		.byte	1
 3155 003a E0       		.byte	-32
 3156 003b 01       		.byte	1
 3157 003c F1       		.byte	-15
 3158 003d 01       		.byte	1
 3159 003e F1       		.byte	-15
 3160 003f 01       		.byte	1
 3161 0040 01       		.byte	1
 3162 0041 FE       		.byte	-2
 3163 0042 01       		.byte	1
 3164 0043 FE       		.byte	-2
 3165 0044 01       		.byte	1
 3166 0045 FE       		.byte	-2
 3167 0046 01       		.byte	1
 3168 0047 FE       		.byte	-2
 3169 0048 FE       		.byte	-2
 3170 0049 01       		.byte	1
 3171 004a FE       		.byte	-2
ARM GAS  C:\Users\jo\AppData\Local\Temp\ccDdpTff.s 			page 57


 3172 004b 01       		.byte	1
 3173 004c FE       		.byte	-2
 3174 004d 01       		.byte	1
 3175 004e FE       		.byte	-2
 3176 004f 01       		.byte	1
 3177 0050 1F       		.byte	31
 3178 0051 E0       		.byte	-32
 3179 0052 1F       		.byte	31
 3180 0053 E0       		.byte	-32
 3181 0054 0E       		.byte	14
 3182 0055 F1       		.byte	-15
 3183 0056 0E       		.byte	14
 3184 0057 F1       		.byte	-15
 3185 0058 E0       		.byte	-32
 3186 0059 1F       		.byte	31
 3187 005a E0       		.byte	-32
 3188 005b 1F       		.byte	31
 3189 005c F1       		.byte	-15
 3190 005d 0E       		.byte	14
 3191 005e F1       		.byte	-15
 3192 005f 0E       		.byte	14
 3193 0060 1F       		.byte	31
 3194 0061 FE       		.byte	-2
 3195 0062 1F       		.byte	31
 3196 0063 FE       		.byte	-2
 3197 0064 0E       		.byte	14
 3198 0065 FE       		.byte	-2
 3199 0066 0E       		.byte	14
 3200 0067 FE       		.byte	-2
 3201 0068 FE       		.byte	-2
 3202 0069 1F       		.byte	31
 3203 006a FE       		.byte	-2
 3204 006b 1F       		.byte	31
 3205 006c FE       		.byte	-2
 3206 006d 0E       		.byte	14
 3207 006e FE       		.byte	-2
 3208 006f 0E       		.byte	14
 3209 0070 E0       		.byte	-32
 3210 0071 FE       		.byte	-2
 3211 0072 E0       		.byte	-32
 3212 0073 FE       		.byte	-2
 3213 0074 F1       		.byte	-15
 3214 0075 FE       		.byte	-2
 3215 0076 F1       		.byte	-15
 3216 0077 FE       		.byte	-2
 3217 0078 FE       		.byte	-2
 3218 0079 E0       		.byte	-32
 3219 007a FE       		.byte	-2
 3220 007b E0       		.byte	-32
 3221 007c FE       		.byte	-2
 3222 007d F1       		.byte	-15
 3223 007e FE       		.byte	-2
 3224 007f F1       		.byte	-15
 3225              		.section	.rodata.SB5,"a",%progbits
 3226              		.align	2
 3227              		.set	.LANCHOR9,. + 0
 3228              		.type	SB5, %object
ARM GAS  C:\Users\jo\AppData\Local\Temp\ccDdpTff.s 			page 58


 3229              		.size	SB5, 256
 3230              	SB5:
 3231 0000 00010000 		.word	256
 3232 0004 00010802 		.word	34078976
 3233 0008 00000802 		.word	34078720
 3234 000c 00010042 		.word	1107296512
 3235 0010 00000800 		.word	524288
 3236 0014 00010000 		.word	256
 3237 0018 00000040 		.word	1073741824
 3238 001c 00000802 		.word	34078720
 3239 0020 00010840 		.word	1074266368
 3240 0024 00000800 		.word	524288
 3241 0028 00010002 		.word	33554688
 3242 002c 00010840 		.word	1074266368
 3243 0030 00010042 		.word	1107296512
 3244 0034 00000842 		.word	1107820544
 3245 0038 00010800 		.word	524544
 3246 003c 00000040 		.word	1073741824
 3247 0040 00000002 		.word	33554432
 3248 0044 00000840 		.word	1074266112
 3249 0048 00000840 		.word	1074266112
 3250 004c 00000000 		.word	0
 3251 0050 00010040 		.word	1073742080
 3252 0054 00010842 		.word	1107820800
 3253 0058 00010842 		.word	1107820800
 3254 005c 00010002 		.word	33554688
 3255 0060 00000842 		.word	1107820544
 3256 0064 00010040 		.word	1073742080
 3257 0068 00000000 		.word	0
 3258 006c 00000042 		.word	1107296256
 3259 0070 00010802 		.word	34078976
 3260 0074 00000002 		.word	33554432
 3261 0078 00000042 		.word	1107296256
 3262 007c 00010800 		.word	524544
 3263 0080 00000800 		.word	524288
 3264 0084 00010042 		.word	1107296512
 3265 0088 00010000 		.word	256
 3266 008c 00000002 		.word	33554432
 3267 0090 00000040 		.word	1073741824
 3268 0094 00000802 		.word	34078720
 3269 0098 00010042 		.word	1107296512
 3270 009c 00010840 		.word	1074266368
 3271 00a0 00010002 		.word	33554688
 3272 00a4 00000040 		.word	1073741824
 3273 00a8 00000842 		.word	1107820544
 3274 00ac 00010802 		.word	34078976
 3275 00b0 00010840 		.word	1074266368
 3276 00b4 00010000 		.word	256
 3277 00b8 00000002 		.word	33554432
 3278 00bc 00000842 		.word	1107820544
 3279 00c0 00010842 		.word	1107820800
 3280 00c4 00010800 		.word	524544
 3281 00c8 00000042 		.word	1107296256
 3282 00cc 00010842 		.word	1107820800
 3283 00d0 00000802 		.word	34078720
 3284 00d4 00000000 		.word	0
 3285 00d8 00000840 		.word	1074266112
ARM GAS  C:\Users\jo\AppData\Local\Temp\ccDdpTff.s 			page 59


 3286 00dc 00000042 		.word	1107296256
 3287 00e0 00010800 		.word	524544
 3288 00e4 00010002 		.word	33554688
 3289 00e8 00010040 		.word	1073742080
 3290 00ec 00000800 		.word	524288
 3291 00f0 00000000 		.word	0
 3292 00f4 00000840 		.word	1074266112
 3293 00f8 00010802 		.word	34078976
 3294 00fc 00010040 		.word	1073742080
 3295              		.section	.rodata.SB6,"a",%progbits
 3296              		.align	2
 3297              		.set	.LANCHOR6,. + 0
 3298              		.type	SB6, %object
 3299              		.size	SB6, 256
 3300              	SB6:
 3301 0000 10000020 		.word	536870928
 3302 0004 00004020 		.word	541065216
 3303 0008 00400000 		.word	16384
 3304 000c 10404020 		.word	541081616
 3305 0010 00004020 		.word	541065216
 3306 0014 10000000 		.word	16
 3307 0018 10404020 		.word	541081616
 3308 001c 00004000 		.word	4194304
 3309 0020 00400020 		.word	536887296
 3310 0024 10404000 		.word	4210704
 3311 0028 00004000 		.word	4194304
 3312 002c 10000020 		.word	536870928
 3313 0030 10004000 		.word	4194320
 3314 0034 00400020 		.word	536887296
 3315 0038 00000020 		.word	536870912
 3316 003c 10400000 		.word	16400
 3317 0040 00000000 		.word	0
 3318 0044 10004000 		.word	4194320
 3319 0048 10400020 		.word	536887312
 3320 004c 00400000 		.word	16384
 3321 0050 00404000 		.word	4210688
 3322 0054 10400020 		.word	536887312
 3323 0058 10000000 		.word	16
 3324 005c 10004020 		.word	541065232
 3325 0060 10004020 		.word	541065232
 3326 0064 00000000 		.word	0
 3327 0068 10404000 		.word	4210704
 3328 006c 00404020 		.word	541081600
 3329 0070 10400000 		.word	16400
 3330 0074 00404000 		.word	4210688
 3331 0078 00404020 		.word	541081600
 3332 007c 00000020 		.word	536870912
 3333 0080 00400020 		.word	536887296
 3334 0084 10000000 		.word	16
 3335 0088 10004020 		.word	541065232
 3336 008c 00404000 		.word	4210688
 3337 0090 10404020 		.word	541081616
 3338 0094 00004000 		.word	4194304
 3339 0098 10400000 		.word	16400
 3340 009c 10000020 		.word	536870928
 3341 00a0 00004000 		.word	4194304
 3342 00a4 00400020 		.word	536887296
ARM GAS  C:\Users\jo\AppData\Local\Temp\ccDdpTff.s 			page 60


 3343 00a8 00000020 		.word	536870912
 3344 00ac 10400000 		.word	16400
 3345 00b0 10000020 		.word	536870928
 3346 00b4 10404020 		.word	541081616
 3347 00b8 00404000 		.word	4210688
 3348 00bc 00004020 		.word	541065216
 3349 00c0 10404000 		.word	4210704
 3350 00c4 00404020 		.word	541081600
 3351 00c8 00000000 		.word	0
 3352 00cc 10004020 		.word	541065232
 3353 00d0 10000000 		.word	16
 3354 00d4 00400000 		.word	16384
 3355 00d8 00004020 		.word	541065216
 3356 00dc 10404000 		.word	4210704
 3357 00e0 00400000 		.word	16384
 3358 00e4 10004000 		.word	4194320
 3359 00e8 10400020 		.word	536887312
 3360 00ec 00000000 		.word	0
 3361 00f0 00404020 		.word	541081600
 3362 00f4 00000020 		.word	536870912
 3363 00f8 10004000 		.word	4194320
 3364 00fc 10400020 		.word	536887312
 3365              		.section	.rodata.odd_parity_table,"a",%progbits
 3366              		.align	2
 3367              		.set	.LANCHOR2,. + 0
 3368              		.type	odd_parity_table, %object
 3369              		.size	odd_parity_table, 128
 3370              	odd_parity_table:
 3371 0000 01       		.byte	1
 3372 0001 02       		.byte	2
 3373 0002 04       		.byte	4
 3374 0003 07       		.byte	7
 3375 0004 08       		.byte	8
 3376 0005 0B       		.byte	11
 3377 0006 0D       		.byte	13
 3378 0007 0E       		.byte	14
 3379 0008 10       		.byte	16
 3380 0009 13       		.byte	19
 3381 000a 15       		.byte	21
 3382 000b 16       		.byte	22
 3383 000c 19       		.byte	25
 3384 000d 1A       		.byte	26
 3385 000e 1C       		.byte	28
 3386 000f 1F       		.byte	31
 3387 0010 20       		.byte	32
 3388 0011 23       		.byte	35
 3389 0012 25       		.byte	37
 3390 0013 26       		.byte	38
 3391 0014 29       		.byte	41
 3392 0015 2A       		.byte	42
 3393 0016 2C       		.byte	44
 3394 0017 2F       		.byte	47
 3395 0018 31       		.byte	49
 3396 0019 32       		.byte	50
 3397 001a 34       		.byte	52
 3398 001b 37       		.byte	55
 3399 001c 38       		.byte	56
ARM GAS  C:\Users\jo\AppData\Local\Temp\ccDdpTff.s 			page 61


 3400 001d 3B       		.byte	59
 3401 001e 3D       		.byte	61
 3402 001f 3E       		.byte	62
 3403 0020 40       		.byte	64
 3404 0021 43       		.byte	67
 3405 0022 45       		.byte	69
 3406 0023 46       		.byte	70
 3407 0024 49       		.byte	73
 3408 0025 4A       		.byte	74
 3409 0026 4C       		.byte	76
 3410 0027 4F       		.byte	79
 3411 0028 51       		.byte	81
 3412 0029 52       		.byte	82
 3413 002a 54       		.byte	84
 3414 002b 57       		.byte	87
 3415 002c 58       		.byte	88
 3416 002d 5B       		.byte	91
 3417 002e 5D       		.byte	93
 3418 002f 5E       		.byte	94
 3419 0030 61       		.byte	97
 3420 0031 62       		.byte	98
 3421 0032 64       		.byte	100
 3422 0033 67       		.byte	103
 3423 0034 68       		.byte	104
 3424 0035 6B       		.byte	107
 3425 0036 6D       		.byte	109
 3426 0037 6E       		.byte	110
 3427 0038 70       		.byte	112
 3428 0039 73       		.byte	115
 3429 003a 75       		.byte	117
 3430 003b 76       		.byte	118
 3431 003c 79       		.byte	121
 3432 003d 7A       		.byte	122
 3433 003e 7C       		.byte	124
 3434 003f 7F       		.byte	127
 3435 0040 80       		.byte	-128
 3436 0041 83       		.byte	-125
 3437 0042 85       		.byte	-123
 3438 0043 86       		.byte	-122
 3439 0044 89       		.byte	-119
 3440 0045 8A       		.byte	-118
 3441 0046 8C       		.byte	-116
 3442 0047 8F       		.byte	-113
 3443 0048 91       		.byte	-111
 3444 0049 92       		.byte	-110
 3445 004a 94       		.byte	-108
 3446 004b 97       		.byte	-105
 3447 004c 98       		.byte	-104
 3448 004d 9B       		.byte	-101
 3449 004e 9D       		.byte	-99
 3450 004f 9E       		.byte	-98
 3451 0050 A1       		.byte	-95
 3452 0051 A2       		.byte	-94
 3453 0052 A4       		.byte	-92
 3454 0053 A7       		.byte	-89
 3455 0054 A8       		.byte	-88
 3456 0055 AB       		.byte	-85
ARM GAS  C:\Users\jo\AppData\Local\Temp\ccDdpTff.s 			page 62


 3457 0056 AD       		.byte	-83
 3458 0057 AE       		.byte	-82
 3459 0058 B0       		.byte	-80
 3460 0059 B3       		.byte	-77
 3461 005a B5       		.byte	-75
 3462 005b B6       		.byte	-74
 3463 005c B9       		.byte	-71
 3464 005d BA       		.byte	-70
 3465 005e BC       		.byte	-68
 3466 005f BF       		.byte	-65
 3467 0060 C1       		.byte	-63
 3468 0061 C2       		.byte	-62
 3469 0062 C4       		.byte	-60
 3470 0063 C7       		.byte	-57
 3471 0064 C8       		.byte	-56
 3472 0065 CB       		.byte	-53
 3473 0066 CD       		.byte	-51
 3474 0067 CE       		.byte	-50
 3475 0068 D0       		.byte	-48
 3476 0069 D3       		.byte	-45
 3477 006a D5       		.byte	-43
 3478 006b D6       		.byte	-42
 3479 006c D9       		.byte	-39
 3480 006d DA       		.byte	-38
 3481 006e DC       		.byte	-36
 3482 006f DF       		.byte	-33
 3483 0070 E0       		.byte	-32
 3484 0071 E3       		.byte	-29
 3485 0072 E5       		.byte	-27
 3486 0073 E6       		.byte	-26
 3487 0074 E9       		.byte	-23
 3488 0075 EA       		.byte	-22
 3489 0076 EC       		.byte	-20
 3490 0077 EF       		.byte	-17
 3491 0078 F1       		.byte	-15
 3492 0079 F2       		.byte	-14
 3493 007a F4       		.byte	-12
 3494 007b F7       		.byte	-9
 3495 007c F8       		.byte	-8
 3496 007d FB       		.byte	-5
 3497 007e FD       		.byte	-3
 3498 007f FE       		.byte	-2
 3499              		.section	.rodata.SB7,"a",%progbits
 3500              		.align	2
 3501              		.set	.LANCHOR4,. + 0
 3502              		.type	SB7, %object
 3503              		.size	SB7, 256
 3504              	SB7:
 3505 0000 00002000 		.word	2097152
 3506 0004 02002004 		.word	69206018
 3507 0008 02080004 		.word	67110914
 3508 000c 00000000 		.word	0
 3509 0010 00080000 		.word	2048
 3510 0014 02080004 		.word	67110914
 3511 0018 02082000 		.word	2099202
 3512 001c 00082004 		.word	69208064
 3513 0020 02082004 		.word	69208066
ARM GAS  C:\Users\jo\AppData\Local\Temp\ccDdpTff.s 			page 63


 3514 0024 00002000 		.word	2097152
 3515 0028 00000000 		.word	0
 3516 002c 02000004 		.word	67108866
 3517 0030 02000000 		.word	2
 3518 0034 00000004 		.word	67108864
 3519 0038 02002004 		.word	69206018
 3520 003c 02080000 		.word	2050
 3521 0040 00080004 		.word	67110912
 3522 0044 02082000 		.word	2099202
 3523 0048 02002000 		.word	2097154
 3524 004c 00080004 		.word	67110912
 3525 0050 02000004 		.word	67108866
 3526 0054 00002004 		.word	69206016
 3527 0058 00082004 		.word	69208064
 3528 005c 02002000 		.word	2097154
 3529 0060 00002004 		.word	69206016
 3530 0064 00080000 		.word	2048
 3531 0068 02080000 		.word	2050
 3532 006c 02082004 		.word	69208066
 3533 0070 00082000 		.word	2099200
 3534 0074 02000000 		.word	2
 3535 0078 00000004 		.word	67108864
 3536 007c 00082000 		.word	2099200
 3537 0080 00000004 		.word	67108864
 3538 0084 00082000 		.word	2099200
 3539 0088 00002000 		.word	2097152
 3540 008c 02080004 		.word	67110914
 3541 0090 02080004 		.word	67110914
 3542 0094 02002004 		.word	69206018
 3543 0098 02002004 		.word	69206018
 3544 009c 02000000 		.word	2
 3545 00a0 02002000 		.word	2097154
 3546 00a4 00000004 		.word	67108864
 3547 00a8 00080004 		.word	67110912
 3548 00ac 00002000 		.word	2097152
 3549 00b0 00082004 		.word	69208064
 3550 00b4 02080000 		.word	2050
 3551 00b8 02082000 		.word	2099202
 3552 00bc 00082004 		.word	69208064
 3553 00c0 02080000 		.word	2050
 3554 00c4 02000004 		.word	67108866
 3555 00c8 02082004 		.word	69208066
 3556 00cc 00002004 		.word	69206016
 3557 00d0 00082000 		.word	2099200
 3558 00d4 00000000 		.word	0
 3559 00d8 02000000 		.word	2
 3560 00dc 02082004 		.word	69208066
 3561 00e0 00000000 		.word	0
 3562 00e4 02082000 		.word	2099202
 3563 00e8 00002004 		.word	69206016
 3564 00ec 00080000 		.word	2048
 3565 00f0 02000004 		.word	67108866
 3566 00f4 00080004 		.word	67110912
 3567 00f8 00080000 		.word	2048
 3568 00fc 02002000 		.word	2097154
 3569              		.section	.rodata.RHs,"a",%progbits
 3570              		.align	2
ARM GAS  C:\Users\jo\AppData\Local\Temp\ccDdpTff.s 			page 64


 3571              		.set	.LANCHOR1,. + 0
 3572              		.type	RHs, %object
 3573              		.size	RHs, 64
 3574              	RHs:
 3575 0000 00000000 		.word	0
 3576 0004 00000001 		.word	16777216
 3577 0008 00000100 		.word	65536
 3578 000c 00000101 		.word	16842752
 3579 0010 00010000 		.word	256
 3580 0014 00010001 		.word	16777472
 3581 0018 00010100 		.word	65792
 3582 001c 00010101 		.word	16843008
 3583 0020 01000000 		.word	1
 3584 0024 01000001 		.word	16777217
 3585 0028 01000100 		.word	65537
 3586 002c 01000101 		.word	16842753
 3587 0030 01010000 		.word	257
 3588 0034 01010001 		.word	16777473
 3589 0038 01010100 		.word	65793
 3590 003c 01010101 		.word	16843009
 3591              		.section	.rodata.str1.4,"aMS",%progbits,1
 3592              		.align	2
 3593              	.LC0:
 3594 0000 64656300 		.ascii	"dec\000"
 3595              	.LC1:
 3596 0004 656E6300 		.ascii	"enc\000"
 3597              	.LC2:
 3598 0008 20204445 		.ascii	"  DES%c-ECB-%3d (%s): \000"
 3598      5325632D 
 3598      4543422D 
 3598      25336420 
 3598      28257329 
 3599 001f 00       		.space	1
 3600              	.LC3:
 3601 0020 6661696C 		.ascii	"failed\000"
 3601      656400
 3602 0027 00       		.space	1
 3603              	.LC4:
 3604 0028 70617373 		.ascii	"passed\000"
 3604      656400
 3605 002f 00       		.space	1
 3606              	.LC5:
 3607 0030 20204445 		.ascii	"  DES%c-CBC-%3d (%s): \000"
 3607      5325632D 
 3607      4342432D 
 3607      25336420 
 3607      28257329 
 3608 0047 00       		.section	.rodata.SB8,"a",%progbits
 3609              		.align	2
 3610              		.set	.LANCHOR5,. + 0
 3611              		.type	SB8, %object
 3612              		.size	SB8, 256
 3613              	SB8:
 3614 0000 40100010 		.word	268439616
 3615 0004 00100000 		.word	4096
 3616 0008 00000400 		.word	262144
 3617 000c 40100410 		.word	268701760
ARM GAS  C:\Users\jo\AppData\Local\Temp\ccDdpTff.s 			page 65


 3618 0010 00000010 		.word	268435456
 3619 0014 40100010 		.word	268439616
 3620 0018 40000000 		.word	64
 3621 001c 00000010 		.word	268435456
 3622 0020 40000400 		.word	262208
 3623 0024 00000410 		.word	268697600
 3624 0028 40100410 		.word	268701760
 3625 002c 00100400 		.word	266240
 3626 0030 00100410 		.word	268701696
 3627 0034 40100400 		.word	266304
 3628 0038 00100000 		.word	4096
 3629 003c 40000000 		.word	64
 3630 0040 00000410 		.word	268697600
 3631 0044 40000010 		.word	268435520
 3632 0048 00100010 		.word	268439552
 3633 004c 40100000 		.word	4160
 3634 0050 00100400 		.word	266240
 3635 0054 40000400 		.word	262208
 3636 0058 40000410 		.word	268697664
 3637 005c 00100410 		.word	268701696
 3638 0060 40100000 		.word	4160
 3639 0064 00000000 		.word	0
 3640 0068 00000000 		.word	0
 3641 006c 40000410 		.word	268697664
 3642 0070 40000010 		.word	268435520
 3643 0074 00100010 		.word	268439552
 3644 0078 40100400 		.word	266304
 3645 007c 00000400 		.word	262144
 3646 0080 40100400 		.word	266304
 3647 0084 00000400 		.word	262144
 3648 0088 00100410 		.word	268701696
 3649 008c 00100000 		.word	4096
 3650 0090 40000000 		.word	64
 3651 0094 40000410 		.word	268697664
 3652 0098 00100000 		.word	4096
 3653 009c 40100400 		.word	266304
 3654 00a0 00100010 		.word	268439552
 3655 00a4 40000000 		.word	64
 3656 00a8 40000010 		.word	268435520
 3657 00ac 00000410 		.word	268697600
 3658 00b0 40000410 		.word	268697664
 3659 00b4 00000010 		.word	268435456
 3660 00b8 00000400 		.word	262144
 3661 00bc 40100010 		.word	268439616
 3662 00c0 00000000 		.word	0
 3663 00c4 40100410 		.word	268701760
 3664 00c8 40000400 		.word	262208
 3665 00cc 40000010 		.word	268435520
 3666 00d0 00000410 		.word	268697600
 3667 00d4 00100010 		.word	268439552
 3668 00d8 40100010 		.word	268439616
 3669 00dc 00000000 		.word	0
 3670 00e0 40100410 		.word	268701760
 3671 00e4 00100400 		.word	266240
 3672 00e8 00100400 		.word	266240
 3673 00ec 40100000 		.word	4160
 3674 00f0 40100000 		.word	4160
ARM GAS  C:\Users\jo\AppData\Local\Temp\ccDdpTff.s 			page 66


 3675 00f4 40000400 		.word	262208
 3676 00f8 00000010 		.word	268435456
 3677 00fc 00100410 		.word	268701696
 3678              		.section	.rodata.des3_test_cbc_enc,"a",%progbits
 3679              		.align	2
 3680              		.set	.LANCHOR17,. + 0
 3681              		.type	des3_test_cbc_enc, %object
 3682              		.size	des3_test_cbc_enc, 24
 3683              	des3_test_cbc_enc:
 3684 0000 54       		.byte	84
 3685 0001 F1       		.byte	-15
 3686 0002 5A       		.byte	90
 3687 0003 F6       		.byte	-10
 3688 0004 EB       		.byte	-21
 3689 0005 E3       		.byte	-29
 3690 0006 A4       		.byte	-92
 3691 0007 B4       		.byte	-76
 3692 0008 35       		.byte	53
 3693 0009 76       		.byte	118
 3694 000a 11       		.byte	17
 3695 000b 56       		.byte	86
 3696 000c 5F       		.byte	95
 3697 000d A1       		.byte	-95
 3698 000e 8E       		.byte	-114
 3699 000f 4D       		.byte	77
 3700 0010 CB       		.byte	-53
 3701 0011 19       		.byte	25
 3702 0012 1F       		.byte	31
 3703 0013 85       		.byte	-123
 3704 0014 D1       		.byte	-47
 3705 0015 ED       		.byte	-19
 3706 0016 84       		.byte	-124
 3707 0017 39       		.byte	57
 3708              		.section	.rodata.LHs,"a",%progbits
 3709              		.align	2
 3710              		.set	.LANCHOR0,. + 0
 3711              		.type	LHs, %object
 3712              		.size	LHs, 64
 3713              	LHs:
 3714 0000 00000000 		.word	0
 3715 0004 01000000 		.word	1
 3716 0008 00010000 		.word	256
 3717 000c 01010000 		.word	257
 3718 0010 00000100 		.word	65536
 3719 0014 01000100 		.word	65537
 3720 0018 00010100 		.word	65792
 3721 001c 01010100 		.word	65793
 3722 0020 00000001 		.word	16777216
 3723 0024 01000001 		.word	16777217
 3724 0028 00010001 		.word	16777472
 3725 002c 01010001 		.word	16777473
 3726 0030 00000101 		.word	16842752
 3727 0034 01000101 		.word	16842753
 3728 0038 00010101 		.word	16843008
 3729 003c 01010101 		.word	16843009
 3730              		.section	.rodata.des3_test_cbc_dec,"a",%progbits
 3731              		.align	2
ARM GAS  C:\Users\jo\AppData\Local\Temp\ccDdpTff.s 			page 67


 3732              		.set	.LANCHOR18,. + 0
 3733              		.type	des3_test_cbc_dec, %object
 3734              		.size	des3_test_cbc_dec, 24
 3735              	des3_test_cbc_dec:
 3736 0000 12       		.byte	18
 3737 0001 9F       		.byte	-97
 3738 0002 40       		.byte	64
 3739 0003 B9       		.byte	-71
 3740 0004 D2       		.byte	-46
 3741 0005 00       		.byte	0
 3742 0006 56       		.byte	86
 3743 0007 B3       		.byte	-77
 3744 0008 47       		.byte	71
 3745 0009 0E       		.byte	14
 3746 000a FC       		.byte	-4
 3747 000b 9A       		.byte	-102
 3748 000c 6B       		.byte	107
 3749 000d 8E       		.byte	-114
 3750 000e E3       		.byte	-29
 3751 000f 93       		.byte	-109
 3752 0010 C5       		.byte	-59
 3753 0011 CE       		.byte	-50
 3754 0012 CF       		.byte	-49
 3755 0013 63       		.byte	99
 3756 0014 EC       		.byte	-20
 3757 0015 EC       		.byte	-20
 3758 0016 51       		.byte	81
 3759 0017 4C       		.byte	76
 3760              		.text
 3761              	.Letext0:
 3762              		.file 2 "c:\\program files\\gnu tools arm embedded\\4.9 2014q4\\lib\\gcc\\arm-none-eabi\\4.9.3\\in
 3763              		.file 3 "c:\\program files\\gnu tools arm embedded\\4.9 2014q4\\arm-none-eabi\\include\\machine\\_
 3764              		.file 4 "c:\\program files\\gnu tools arm embedded\\4.9 2014q4\\arm-none-eabi\\include\\stdint.h"
 3765              		.file 5 "../../../demos/STM32/RT-STM32F407-DISCOVERY-uHttp/uhttp-1.1/PolarSSL/include/polarssl/des
 3766              		.file 6 "c:\\program files\\gnu tools arm embedded\\4.9 2014q4\\arm-none-eabi\\include\\string.h"
 3767              		.file 7 "c:\\program files\\gnu tools arm embedded\\4.9 2014q4\\arm-none-eabi\\include\\stdio.h"
 3768              		.file 8 "<built-in>"