ARM GAS  C:\Users\jo\AppData\Local\Temp\cciqgyfB.s 			page 1


   1              		.syntax unified
   2              		.cpu cortex-m4
   3              		.fpu softvfp
   4              		.eabi_attribute 20, 1
   5              		.eabi_attribute 21, 1
   6              		.eabi_attribute 23, 3
   7              		.eabi_attribute 24, 1
   8              		.eabi_attribute 25, 1
   9              		.eabi_attribute 26, 1
  10              		.eabi_attribute 30, 2
  11              		.eabi_attribute 34, 1
  12              		.eabi_attribute 18, 4
  13              		.thumb
  14              		.file	"entropy.c"
  15              		.text
  16              	.Ltext0:
  17              		.cfi_sections	.debug_frame
  18              		.section	.text.entropy_init,"ax",%progbits
  19              		.align	2
  20              		.p2align 4,,15
  21              		.global	entropy_init
  22              		.thumb
  23              		.thumb_func
  24              		.type	entropy_init, %function
  25              	entropy_init:
  26              	.LFB0:
  27              		.file 1 "../../../os/ext/PolarSSL/library/entropy.c"
  28              		.loc 1 40 0
  29              		.cfi_startproc
  30              		@ args = 0, pretend = 0, frame = 0
  31              		@ frame_needed = 0, uses_anonymous_args = 0
  32              	.LVL0:
  33 0000 10B5     		push	{r4, lr}
  34              		.cfi_def_cfa_offset 8
  35              		.cfi_offset 4, -8
  36              		.cfi_offset 14, -4
  37              		.loc 1 41 0
  38 0002 0021     		movs	r1, #0
  39              		.loc 1 40 0
  40 0004 0446     		mov	r4, r0
  41              		.loc 1 41 0
  42 0006 4FF44872 		mov	r2, #800
  43 000a FFF7FEFF 		bl	memset
  44              	.LVL1:
  45              		.loc 1 43 0
  46 000e 2046     		mov	r0, r4
  47 0010 0021     		movs	r1, #0
  48              		.loc 1 61 0
  49 0012 BDE81040 		pop	{r4, lr}
  50              		.cfi_restore 14
  51              		.cfi_restore 4
  52              		.cfi_def_cfa_offset 0
  53              	.LVL2:
  54              		.loc 1 43 0
  55 0016 FFF7FEBF 		b	sha4_starts
  56              	.LVL3:
  57              		.cfi_endproc
ARM GAS  C:\Users\jo\AppData\Local\Temp\cciqgyfB.s 			page 2


  58              	.LFE0:
  59              		.size	entropy_init, .-entropy_init
  60 001a 00BFAFF3 		.section	.text.entropy_add_source,"ax",%progbits
  60      0080
  61              		.align	2
  62              		.p2align 4,,15
  63              		.global	entropy_add_source
  64              		.thumb
  65              		.thumb_func
  66              		.type	entropy_add_source, %function
  67              	entropy_add_source:
  68              	.LFB1:
  69              		.loc 1 66 0
  70              		.cfi_startproc
  71              		@ args = 0, pretend = 0, frame = 0
  72              		@ frame_needed = 0, uses_anonymous_args = 0
  73              		@ link register save eliminated.
  74              	.LVL4:
  75 0000 70B4     		push	{r4, r5, r6}
  76              		.cfi_def_cfa_offset 12
  77              		.cfi_offset 4, -12
  78              		.cfi_offset 5, -8
  79              		.cfi_offset 6, -4
  80              		.loc 1 67 0
  81 0002 D0F8D841 		ldr	r4, [r0, #472]
  82              	.LVL5:
  83              		.loc 1 69 0
  84 0006 132C     		cmp	r4, #19
  85 0008 0FDC     		bgt	.L5
  86              		.loc 1 72 0
  87 000a 00EB0415 		add	r5, r0, r4, lsl #4
  88              		.loc 1 74 0
  89 000e 2E46     		mov	r6, r5
  90              		.loc 1 76 0
  91 0010 0134     		adds	r4, r4, #1
  92              	.LVL6:
  93              		.loc 1 73 0
  94 0012 C5F8E021 		str	r2, [r5, #480]
  95              		.loc 1 72 0
  96 0016 C5F8DC11 		str	r1, [r5, #476]
  97              		.loc 1 78 0
  98 001a 0022     		movs	r2, #0
  99              	.LVL7:
 100              		.loc 1 74 0
 101 001c C6F8E831 		str	r3, [r6, #488]
 102              		.loc 1 76 0
 103 0020 C0F8D841 		str	r4, [r0, #472]
 104              	.LVL8:
 105              	.L4:
 106              		.loc 1 79 0
 107 0024 1046     		mov	r0, r2
 108              	.LVL9:
 109 0026 70BC     		pop	{r4, r5, r6}
 110              		.cfi_remember_state
 111              		.cfi_restore 6
 112              		.cfi_restore 5
 113              		.cfi_restore 4
ARM GAS  C:\Users\jo\AppData\Local\Temp\cciqgyfB.s 			page 3


 114              		.cfi_def_cfa_offset 0
 115 0028 7047     		bx	lr
 116              	.LVL10:
 117              	.L5:
 118              		.cfi_restore_state
 119              		.loc 1 70 0
 120 002a 6FF03D02 		mvn	r2, #61
 121              	.LVL11:
 122 002e F9E7     		b	.L4
 123              		.cfi_endproc
 124              	.LFE1:
 125              		.size	entropy_add_source, .-entropy_add_source
 126              		.section	.text.entropy_update,"ax",%progbits
 127              		.align	2
 128              		.p2align 4,,15
 129              		.global	entropy_update
 130              		.thumb
 131              		.thumb_func
 132              		.type	entropy_update, %function
 133              	entropy_update:
 134              	.LFB2:
 135              		.loc 1 86 0
 136              		.cfi_startproc
 137              		@ args = 0, pretend = 0, frame = 72
 138              		@ frame_needed = 0, uses_anonymous_args = 0
 139              	.LVL12:
 140 0000 F0B5     		push	{r4, r5, r6, r7, lr}
 141              		.cfi_def_cfa_offset 20
 142              		.cfi_offset 4, -20
 143              		.cfi_offset 5, -16
 144              		.cfi_offset 6, -12
 145              		.cfi_offset 7, -8
 146              		.cfi_offset 14, -4
 147              		.loc 1 92 0
 148 0002 402B     		cmp	r3, #64
 149              		.loc 1 86 0
 150 0004 93B0     		sub	sp, sp, #76
 151              		.cfi_def_cfa_offset 96
 152              		.loc 1 86 0
 153 0006 1C46     		mov	r4, r3
 154              	.LVL13:
 155 0008 0546     		mov	r5, r0
 156 000a 0F46     		mov	r7, r1
 157 000c 1646     		mov	r6, r2
 158              	.LVL14:
 159              		.loc 1 92 0
 160 000e 11D8     		bhi	.L9
 161 0010 DBB2     		uxtb	r3, r3
 162              	.LVL15:
 163              	.L10:
 164              		.loc 1 103 0
 165 0012 2846     		mov	r0, r5
 166 0014 01A9     		add	r1, sp, #4
 167 0016 0222     		movs	r2, #2
 168              		.loc 1 101 0
 169 0018 8DF80530 		strb	r3, [sp, #5]
 170              		.loc 1 100 0
ARM GAS  C:\Users\jo\AppData\Local\Temp\cciqgyfB.s 			page 4


 171 001c 8DF80470 		strb	r7, [sp, #4]
 172              		.loc 1 103 0
 173 0020 FFF7FEFF 		bl	sha4_update
 174              	.LVL16:
 175              		.loc 1 104 0
 176 0024 2846     		mov	r0, r5
 177 0026 3146     		mov	r1, r6
 178 0028 2246     		mov	r2, r4
 179 002a FFF7FEFF 		bl	sha4_update
 180              	.LVL17:
 181              		.loc 1 107 0
 182 002e 0020     		movs	r0, #0
 183 0030 13B0     		add	sp, sp, #76
 184              		.cfi_remember_state
 185              		.cfi_def_cfa_offset 20
 186              		@ sp needed
 187 0032 F0BD     		pop	{r4, r5, r6, r7, pc}
 188              	.LVL18:
 189              	.L9:
 190              		.cfi_restore_state
 191              		.loc 1 94 0
 192 0034 1046     		mov	r0, r2
 193              	.LVL19:
 194 0036 1946     		mov	r1, r3
 195              	.LVL20:
 196 0038 02AA     		add	r2, sp, #8
 197              	.LVL21:
 198 003a 0023     		movs	r3, #0
 199              	.LVL22:
 200 003c FFF7FEFF 		bl	sha4
 201              	.LVL23:
 202 0040 4023     		movs	r3, #64
 203              		.loc 1 96 0
 204 0042 02AE     		add	r6, sp, #8
 205              	.LVL24:
 206              		.loc 1 97 0
 207 0044 1C46     		mov	r4, r3
 208              	.LVL25:
 209 0046 E4E7     		b	.L10
 210              		.cfi_endproc
 211              	.LFE2:
 212              		.size	entropy_update, .-entropy_update
 213 0048 AFF30080 		.section	.text.entropy_update_manual,"ax",%progbits
 213      AFF30080 
 214              		.align	2
 215              		.p2align 4,,15
 216              		.global	entropy_update_manual
 217              		.thumb
 218              		.thumb_func
 219              		.type	entropy_update_manual, %function
 220              	entropy_update_manual:
 221              	.LFB3:
 222              		.loc 1 111 0
 223              		.cfi_startproc
 224              		@ args = 0, pretend = 0, frame = 0
 225              		@ frame_needed = 0, uses_anonymous_args = 0
 226              		@ link register save eliminated.
ARM GAS  C:\Users\jo\AppData\Local\Temp\cciqgyfB.s 			page 5


 227              	.LVL26:
 228              		.loc 1 111 0
 229 0000 1346     		mov	r3, r2
 230              		.loc 1 112 0
 231 0002 0A46     		mov	r2, r1
 232              	.LVL27:
 233 0004 1421     		movs	r1, #20
 234              	.LVL28:
 235 0006 FFF7FEBF 		b	entropy_update
 236              	.LVL29:
 237              		.cfi_endproc
 238              	.LFE3:
 239              		.size	entropy_update_manual, .-entropy_update_manual
 240 000a 00BFAFF3 		.section	.text.entropy_gather,"ax",%progbits
 240      0080
 241              		.align	2
 242              		.p2align 4,,15
 243              		.global	entropy_gather
 244              		.thumb
 245              		.thumb_func
 246              		.type	entropy_gather, %function
 247              	entropy_gather:
 248              	.LFB4:
 249              		.loc 1 119 0
 250              		.cfi_startproc
 251              		@ args = 0, pretend = 0, frame = 136
 252              		@ frame_needed = 0, uses_anonymous_args = 0
 253              	.LVL30:
 254              		.loc 1 124 0
 255 0000 D0F8D831 		ldr	r3, [r0, #472]
 256 0004 002B     		cmp	r3, #0
 257 0006 35D0     		beq	.L19
 258              	.LVL31:
 259              		.loc 1 130 0 discriminator 1
 260 0008 32DD     		ble	.L30
 261              		.loc 1 119 0
 262 000a 2DE9F041 		push	{r4, r5, r6, r7, r8, lr}
 263              		.cfi_def_cfa_offset 24
 264              		.cfi_offset 4, -24
 265              		.cfi_offset 5, -20
 266              		.cfi_offset 6, -16
 267              		.cfi_offset 7, -12
 268              		.cfi_offset 8, -8
 269              		.cfi_offset 14, -4
 270              		.loc 1 130 0
 271 000e 0025     		movs	r5, #0
 272              		.loc 1 119 0
 273 0010 A2B0     		sub	sp, sp, #136
 274              		.cfi_def_cfa_offset 160
 275 0012 0746     		mov	r7, r0
 276              		.loc 1 132 0
 277 0014 A846     		mov	r8, r5
 278 0016 0446     		mov	r4, r0
 279 0018 06E0     		b	.L17
 280              	.LVL32:
 281              	.L16:
 282              		.loc 1 130 0 discriminator 2
ARM GAS  C:\Users\jo\AppData\Local\Temp\cciqgyfB.s 			page 6


 283 001a D7F8D831 		ldr	r3, [r7, #472]
 284 001e 0135     		adds	r5, r5, #1
 285              	.LVL33:
 286 0020 AB42     		cmp	r3, r5
 287 0022 04F11004 		add	r4, r4, #16
 288 0026 1FDD     		ble	.L31
 289              	.LVL34:
 290              	.L17:
 291              		.loc 1 132 0
 292 0028 CDF80480 		str	r8, [sp, #4]
 293              		.loc 1 133 0
 294 002c D4F8E001 		ldr	r0, [r4, #480]
 295 0030 D4F8DC61 		ldr	r6, [r4, #476]
 296 0034 02A9     		add	r1, sp, #8
 297 0036 8022     		movs	r2, #128
 298 0038 01AB     		add	r3, sp, #4
 299 003a B047     		blx	r6
 300              	.LVL35:
 301 003c A8B9     		cbnz	r0, .L14
 302              		.loc 1 142 0
 303 003e 019B     		ldr	r3, [sp, #4]
 304 0040 002B     		cmp	r3, #0
 305 0042 EAD0     		beq	.L16
 306              		.loc 1 144 0
 307 0044 E9B2     		uxtb	r1, r5
 308 0046 02AA     		add	r2, sp, #8
 309 0048 3846     		mov	r0, r7
 310              	.LVL36:
 311 004a FFF7FEFF 		bl	entropy_update
 312              	.LVL37:
 313              		.loc 1 145 0
 314 004e D4F8E421 		ldr	r2, [r4, #484]
 315 0052 019B     		ldr	r3, [sp, #4]
 316 0054 1344     		add	r3, r3, r2
 317 0056 C4F8E431 		str	r3, [r4, #484]
 318              		.loc 1 130 0
 319 005a D7F8D831 		ldr	r3, [r7, #472]
 320 005e 0135     		adds	r5, r5, #1
 321              	.LVL38:
 322 0060 AB42     		cmp	r3, r5
 323 0062 04F11004 		add	r4, r4, #16
 324 0066 DFDC     		bgt	.L17
 325              	.L31:
 326              		.loc 1 149 0
 327 0068 0020     		movs	r0, #0
 328              	.L14:
 329              		.loc 1 150 0
 330 006a 22B0     		add	sp, sp, #136
 331              		.cfi_def_cfa_offset 24
 332              		@ sp needed
 333 006c BDE8F081 		pop	{r4, r5, r6, r7, r8, pc}
 334              	.LVL39:
 335              	.L30:
 336              		.cfi_def_cfa_offset 0
 337              		.cfi_restore 4
 338              		.cfi_restore 5
 339              		.cfi_restore 6
ARM GAS  C:\Users\jo\AppData\Local\Temp\cciqgyfB.s 			page 7


 340              		.cfi_restore 7
 341              		.cfi_restore 8
 342              		.cfi_restore 14
 343              		.loc 1 149 0
 344 0070 0020     		movs	r0, #0
 345              	.LVL40:
 346              		.loc 1 150 0
 347 0072 7047     		bx	lr
 348              	.LVL41:
 349              	.L19:
 350              		.loc 1 125 0
 351 0074 6FF03F00 		mvn	r0, #63
 352              	.LVL42:
 353 0078 7047     		bx	lr
 354              		.cfi_endproc
 355              	.LFE4:
 356              		.size	entropy_gather, .-entropy_gather
 357 007a 00BFAFF3 		.section	.text.entropy_func,"ax",%progbits
 357      0080
 358              		.align	2
 359              		.p2align 4,,15
 360              		.global	entropy_func
 361              		.thumb
 362              		.thumb_func
 363              		.type	entropy_func, %function
 364              	entropy_func:
 365              	.LFB5:
 366              		.loc 1 153 0
 367              		.cfi_startproc
 368              		@ args = 0, pretend = 0, frame = 64
 369              		@ frame_needed = 0, uses_anonymous_args = 0
 370              	.LVL43:
 371              		.loc 1 158 0
 372 0000 402A     		cmp	r2, #64
 373 0002 5AD8     		bhi	.L55
 374              		.loc 1 153 0
 375 0004 2DE9F047 		push	{r4, r5, r6, r7, r8, r9, r10, lr}
 376              		.cfi_def_cfa_offset 32
 377              		.cfi_offset 4, -32
 378              		.cfi_offset 5, -28
 379              		.cfi_offset 6, -24
 380              		.cfi_offset 7, -20
 381              		.cfi_offset 8, -16
 382              		.cfi_offset 9, -12
 383              		.cfi_offset 10, -8
 384              		.cfi_offset 14, -4
 385 0008 8946     		mov	r9, r1
 386 000a 90B0     		sub	sp, sp, #64
 387              		.cfi_def_cfa_offset 96
 388 000c 8246     		mov	r10, r0
 389 000e 9046     		mov	r8, r2
 390 0010 40F20117 		movw	r7, #257
 391              	.LVL44:
 392              	.L33:
 393              		.loc 1 169 0
 394 0014 5046     		mov	r0, r10
 395 0016 FFF7FEFF 		bl	entropy_gather
ARM GAS  C:\Users\jo\AppData\Local\Temp\cciqgyfB.s 			page 8


 396              	.LVL45:
 397 001a B8B9     		cbnz	r0, .L34
 398              	.LVL46:
 399              		.loc 1 174 0 discriminator 1
 400 001c DAF8D821 		ldr	r2, [r10, #472]
 401 0020 002A     		cmp	r2, #0
 402 0022 0DDD     		ble	.L36
 403              		.loc 1 174 0 is_stmt 0
 404 0024 0446     		mov	r4, r0
 405 0026 5346     		mov	r3, r10
 406              	.LVL47:
 407              	.L38:
 408              		.loc 1 175 0 is_stmt 1
 409 0028 D3F8E461 		ldr	r6, [r3, #484]
 410 002c D3F8E851 		ldr	r5, [r3, #488]
 411              		.loc 1 174 0
 412 0030 0134     		adds	r4, r4, #1
 413              	.LVL48:
 414              		.loc 1 175 0
 415 0032 AE42     		cmp	r6, r5
 416              		.loc 1 176 0
 417 0034 28BF     		it	cs
 418 0036 0130     		addcs	r0, r0, #1
 419              	.LVL49:
 420              		.loc 1 174 0
 421 0038 9442     		cmp	r4, r2
 422 003a 03F11003 		add	r3, r3, #16
 423 003e F3D1     		bne	.L38
 424              	.LVL50:
 425              	.L36:
 426              		.loc 1 178 0
 427 0040 9042     		cmp	r0, r2
 428 0042 06D0     		beq	.L56
 429              	.LVL51:
 430              		.loc 1 166 0
 431 0044 013F     		subs	r7, r7, #1
 432              	.LVL52:
 433 0046 E5D1     		bne	.L33
 434              		.loc 1 159 0
 435 0048 6FF03B00 		mvn	r0, #59
 436              	.LVL53:
 437              	.L34:
 438              		.loc 1 202 0
 439 004c 10B0     		add	sp, sp, #64
 440              		.cfi_remember_state
 441              		.cfi_def_cfa_offset 32
 442              		@ sp needed
 443 004e BDE8F087 		pop	{r4, r5, r6, r7, r8, r9, r10, pc}
 444              	.LVL54:
 445              	.L56:
 446              		.cfi_restore_state
 447              		.loc 1 180 0
 448 0052 4022     		movs	r2, #64
 449 0054 0021     		movs	r1, #0
 450 0056 6846     		mov	r0, sp
 451 0058 FFF7FEFF 		bl	memset
 452              	.LVL55:
ARM GAS  C:\Users\jo\AppData\Local\Temp\cciqgyfB.s 			page 9


 453              		.loc 1 182 0
 454 005c 5046     		mov	r0, r10
 455 005e 6946     		mov	r1, sp
 456 0060 FFF7FEFF 		bl	sha4_finish
 457              	.LVL56:
 458              		.loc 1 187 0
 459 0064 0023     		movs	r3, #0
 460 0066 6846     		mov	r0, sp
 461 0068 6A46     		mov	r2, sp
 462 006a 4021     		movs	r1, #64
 463 006c FFF7FEFF 		bl	sha4
 464              	.LVL57:
 465              		.loc 1 192 0
 466 0070 4FF4EC72 		mov	r2, #472
 467 0074 0021     		movs	r1, #0
 468 0076 5046     		mov	r0, r10
 469 0078 FFF7FEFF 		bl	memset
 470              	.LVL58:
 471              		.loc 1 193 0
 472 007c 5046     		mov	r0, r10
 473 007e 0021     		movs	r1, #0
 474 0080 FFF7FEFF 		bl	sha4_starts
 475              	.LVL59:
 476              		.loc 1 194 0
 477 0084 4022     		movs	r2, #64
 478 0086 5046     		mov	r0, r10
 479 0088 6946     		mov	r1, sp
 480 008a FFF7FEFF 		bl	sha4_update
 481              	.LVL60:
 482              		.loc 1 196 0
 483 008e DAF8D821 		ldr	r2, [r10, #472]
 484 0092 002A     		cmp	r2, #0
 485 0094 08DD     		ble	.L42
 486 0096 0023     		movs	r3, #0
 487              		.loc 1 197 0
 488 0098 1946     		mov	r1, r3
 489              	.LVL61:
 490              	.L41:
 491              		.loc 1 196 0 discriminator 3
 492 009a 0133     		adds	r3, r3, #1
 493              	.LVL62:
 494 009c 9342     		cmp	r3, r2
 495              		.loc 1 197 0 discriminator 3
 496 009e CAF8E411 		str	r1, [r10, #484]
 497 00a2 0AF1100A 		add	r10, r10, #16
 498              		.loc 1 196 0 discriminator 3
 499 00a6 F8D1     		bne	.L41
 500              	.LVL63:
 501              	.L42:
 502              		.loc 1 199 0
 503 00a8 4846     		mov	r0, r9
 504 00aa 6946     		mov	r1, sp
 505 00ac 4246     		mov	r2, r8
 506 00ae FFF7FEFF 		bl	memcpy
 507              	.LVL64:
 508              		.loc 1 201 0
 509 00b2 0020     		movs	r0, #0
ARM GAS  C:\Users\jo\AppData\Local\Temp\cciqgyfB.s 			page 10


 510              		.loc 1 202 0
 511 00b4 10B0     		add	sp, sp, #64
 512              		.cfi_def_cfa_offset 32
 513              		@ sp needed
 514 00b6 BDE8F087 		pop	{r4, r5, r6, r7, r8, r9, r10, pc}
 515              	.LVL65:
 516              	.L55:
 517              		.cfi_def_cfa_offset 0
 518              		.cfi_restore 4
 519              		.cfi_restore 5
 520              		.cfi_restore 6
 521              		.cfi_restore 7
 522              		.cfi_restore 8
 523              		.cfi_restore 9
 524              		.cfi_restore 10
 525              		.cfi_restore 14
 526              		.loc 1 159 0
 527 00ba 6FF03B00 		mvn	r0, #59
 528              	.LVL66:
 529              		.loc 1 202 0
 530 00be 7047     		bx	lr
 531              		.cfi_endproc
 532              	.LFE5:
 533              		.size	entropy_func, .-entropy_func
 534              		.text
 535              	.Letext0:
 536              		.file 2 "c:\\program files\\gnu tools arm embedded\\4.9 2014q4\\lib\\gcc\\arm-none-eabi\\4.9.3\\in
 537              		.file 3 "c:\\program files\\gnu tools arm embedded\\4.9 2014q4\\arm-none-eabi\\include\\machine\\_
 538              		.file 4 "c:\\program files\\gnu tools arm embedded\\4.9 2014q4\\arm-none-eabi\\include\\stdint.h"
 539              		.file 5 "../../../demos/STM32/RT-STM32F407-DISCOVERY-uHttp/uhttp-1.1/PolarSSL/include/polarssl/sha
 540              		.file 6 "../../../demos/STM32/RT-STM32F407-DISCOVERY-uHttp/uhttp-1.1/PolarSSL/include/polarssl/ent