ARM GAS  C:\Users\jo\AppData\Local\Temp\cc8kMVam.s 			page 1


   1              		.syntax unified
   2              		.cpu cortex-m4
   3              		.fpu softvfp
   4              		.eabi_attribute 20, 1
   5              		.eabi_attribute 21, 1
   6              		.eabi_attribute 23, 3
   7              		.eabi_attribute 24, 1
   8              		.eabi_attribute 25, 1
   9              		.eabi_attribute 26, 1
  10              		.eabi_attribute 30, 2
  11              		.eabi_attribute 34, 1
  12              		.eabi_attribute 18, 4
  13              		.thumb
  14              		.file	"error.c"
  15              		.text
  16              	.Ltext0:
  17              		.cfi_sections	.debug_frame
  18              		.section	.text.error_strerror,"ax",%progbits
  19              		.align	2
  20              		.p2align 4,,15
  21              		.global	error_strerror
  22              		.thumb
  23              		.thumb_func
  24              		.type	error_strerror, %function
  25              	error_strerror:
  26              	.LFB11:
  27              		.file 1 "../../../os/ext/PolarSSL/library/error.c"
  28              		.loc 1 152 0
  29              		.cfi_startproc
  30              		@ args = 0, pretend = 0, frame = 0
  31              		@ frame_needed = 0, uses_anonymous_args = 0
  32              	.LVL0:
  33 0000 2DE9F041 		push	{r4, r5, r6, r7, r8, lr}
  34              		.cfi_def_cfa_offset 24
  35              		.cfi_offset 4, -24
  36              		.cfi_offset 5, -20
  37              		.cfi_offset 6, -16
  38              		.cfi_offset 7, -12
  39              		.cfi_offset 8, -8
  40              		.cfi_offset 14, -4
  41 0004 80EAE075 		eor	r5, r0, r0, asr #31
  42 0008 A5EBE075 		sub	r5, r5, r0, asr #31
  43              		.loc 1 161 0
  44 000c 4FF68074 		movw	r4, #65408
  45              		.loc 1 152 0
  46 0010 0E46     		mov	r6, r1
  47              		.loc 1 161 0
  48 0012 2C40     		ands	r4, r4, r5
  49              		.loc 1 156 0
  50 0014 0846     		mov	r0, r1
  51              	.LVL1:
  52 0016 0021     		movs	r1, #0
  53              	.LVL2:
  54              		.loc 1 152 0
  55 0018 1746     		mov	r7, r2
  56              		.loc 1 156 0
  57 001a FFF7FEFF 		bl	memset
ARM GAS  C:\Users\jo\AppData\Local\Temp\cc8kMVam.s 			page 2


  58              	.LVL3:
  59              		.loc 1 161 0
  60 001e 002C     		cmp	r4, #0
  61 0020 00F09481 		beq	.L3
  62              	.LVL4:
  63              		.loc 1 168 0
  64 0024 B4F5C14F 		cmp	r4, #24704
  65 0028 00F06482 		beq	.L163
  66              		.loc 1 170 0
  67 002c B4F5C24F 		cmp	r4, #24832
  68 0030 00F0DC83 		beq	.L164
  69              		.loc 1 172 0
  70 0034 B4F5C34F 		cmp	r4, #24960
  71 0038 00F0E483 		beq	.L165
  72              		.loc 1 174 0
  73 003c B4F5C44F 		cmp	r4, #25088
  74 0040 00F0DA83 		beq	.L166
  75              		.loc 1 176 0
  76 0044 B4F5C54F 		cmp	r4, #25216
  77 0048 00F04E82 		beq	.L167
  78              		.loc 1 181 0
  79 004c B4F5425F 		cmp	r4, #12416
  80 0050 00F0BA83 		beq	.L168
  81              		.loc 1 183 0
  82 0054 B4F5445F 		cmp	r4, #12544
  83 0058 00F0C283 		beq	.L169
  84              		.loc 1 185 0
  85 005c B4F5465F 		cmp	r4, #12672
  86 0060 00F0B883 		beq	.L170
  87              		.loc 1 187 0
  88 0064 B4F5485F 		cmp	r4, #12800
  89 0068 00F05C82 		beq	.L171
  90              		.loc 1 189 0
  91 006c B4F54A5F 		cmp	r4, #12928
  92 0070 00F05282 		beq	.L172
  93              		.loc 1 191 0
  94 0074 B4F54C5F 		cmp	r4, #13056
  95 0078 00F04882 		beq	.L173
  96              		.loc 1 196 0
  97 007c B4F5A14F 		cmp	r4, #20608
  98 0080 00F03E82 		beq	.L174
  99              		.loc 1 198 0
 100 0084 B4F5A24F 		cmp	r4, #20736
 101 0088 00F0DC82 		beq	.L175
 102              		.loc 1 200 0
 103 008c B4F5A34F 		cmp	r4, #20864
 104 0090 00F0D282 		beq	.L176
 105              		.loc 1 202 0
 106 0094 B4F5A44F 		cmp	r4, #20992
 107 0098 00F0C882 		beq	.L177
 108              		.loc 1 207 0
 109 009c B4F5845F 		cmp	r4, #4224
 110 00a0 00F0BE82 		beq	.L178
 111              		.loc 1 209 0
 112 00a4 B4F5885F 		cmp	r4, #4352
 113 00a8 00F0B482 		beq	.L179
 114              		.loc 1 211 0
ARM GAS  C:\Users\jo\AppData\Local\Temp\cc8kMVam.s 			page 3


 115 00ac B4F58C5F 		cmp	r4, #4480
 116 00b0 00F0AA82 		beq	.L180
 117              		.loc 1 213 0
 118 00b4 B4F5905F 		cmp	r4, #4608
 119 00b8 00F0A082 		beq	.L181
 120              		.loc 1 215 0
 121 00bc B4F5945F 		cmp	r4, #4736
 122 00c0 00F09682 		beq	.L182
 123              		.loc 1 217 0
 124 00c4 B4F5985F 		cmp	r4, #4864
 125 00c8 00F08C82 		beq	.L183
 126              		.loc 1 219 0
 127 00cc B4F59C5F 		cmp	r4, #4992
 128 00d0 00F08282 		beq	.L184
 129              		.loc 1 221 0
 130 00d4 B4F5A05F 		cmp	r4, #5120
 131 00d8 00F07882 		beq	.L185
 132              		.loc 1 223 0
 133 00dc B4F5A45F 		cmp	r4, #5248
 134 00e0 00F06E82 		beq	.L186
 135              		.loc 1 228 0
 136 00e4 B4F5FC5F 		cmp	r4, #8064
 137 00e8 00F06482 		beq	.L187
 138              		.loc 1 230 0
 139 00ec B4F5F85F 		cmp	r4, #7936
 140 00f0 00F05A82 		beq	.L188
 141              		.loc 1 232 0
 142 00f4 B4F5F45F 		cmp	r4, #7808
 143 00f8 00F05082 		beq	.L189
 144              		.loc 1 234 0
 145 00fc B4F5F05F 		cmp	r4, #7680
 146 0100 00F04682 		beq	.L190
 147              		.loc 1 239 0
 148 0104 B4F57E5F 		cmp	r4, #16256
 149 0108 00F03C82 		beq	.L191
 150              		.loc 1 241 0
 151 010c B4F57C5F 		cmp	r4, #16128
 152 0110 00F03282 		beq	.L192
 153              		.loc 1 243 0
 154 0114 B4F57A5F 		cmp	r4, #16000
 155 0118 00F02882 		beq	.L193
 156              		.loc 1 245 0
 157 011c B4F5785F 		cmp	r4, #15872
 158 0120 00F01E82 		beq	.L194
 159              		.loc 1 250 0
 160 0124 B4F5814F 		cmp	r4, #16512
 161 0128 00F01482 		beq	.L195
 162              		.loc 1 252 0
 163 012c B4F5824F 		cmp	r4, #16640
 164 0130 00F00A82 		beq	.L196
 165              		.loc 1 254 0
 166 0134 B4F5834F 		cmp	r4, #16768
 167 0138 00F00082 		beq	.L197
 168              		.loc 1 256 0
 169 013c B4F5844F 		cmp	r4, #16896
 170 0140 00F0F681 		beq	.L198
 171              		.loc 1 258 0
ARM GAS  C:\Users\jo\AppData\Local\Temp\cc8kMVam.s 			page 4


 172 0144 B4F5854F 		cmp	r4, #17024
 173 0148 00F02C83 		beq	.L199
 174              		.loc 1 260 0
 175 014c B4F5864F 		cmp	r4, #17152
 176 0150 00F02283 		beq	.L200
 177              		.loc 1 262 0
 178 0154 B4F5874F 		cmp	r4, #17280
 179 0158 00F01883 		beq	.L201
 180              		.loc 1 264 0
 181 015c B4F5884F 		cmp	r4, #17408
 182 0160 00F00E83 		beq	.L202
 183              		.loc 1 266 0
 184 0164 B4F5894F 		cmp	r4, #17536
 185 0168 00F00483 		beq	.L203
 186              		.loc 1 271 0
 187 016c B4F5E14F 		cmp	r4, #28800
 188 0170 00F0FA82 		beq	.L204
 189              		.loc 1 273 0
 190 0174 B4F5E24F 		cmp	r4, #28928
 191 0178 00F0F082 		beq	.L205
 192              		.loc 1 275 0
 193 017c B4F5E34F 		cmp	r4, #29056
 194 0180 00F0E682 		beq	.L206
 195              		.loc 1 277 0
 196 0184 B4F5E44F 		cmp	r4, #29184
 197 0188 00F0DC82 		beq	.L207
 198              		.loc 1 279 0
 199 018c B4F5E54F 		cmp	r4, #29312
 200 0190 00F0D282 		beq	.L208
 201              		.loc 1 281 0
 202 0194 B4F5E64F 		cmp	r4, #29440
 203 0198 00F0C882 		beq	.L209
 204              		.loc 1 283 0
 205 019c B4F5E74F 		cmp	r4, #29568
 206 01a0 00F06E82 		beq	.L210
 207              		.loc 1 285 0
 208 01a4 B4F5E84F 		cmp	r4, #29696
 209 01a8 00F06482 		beq	.L211
 210              		.loc 1 287 0
 211 01ac B4F5E94F 		cmp	r4, #29824
 212 01b0 00F05A82 		beq	.L212
 213              		.loc 1 289 0
 214 01b4 B4F5EA4F 		cmp	r4, #29952
 215 01b8 00F05082 		beq	.L213
 216              		.loc 1 291 0
 217 01bc B4F5EB4F 		cmp	r4, #30080
 218 01c0 00F04682 		beq	.L214
 219              		.loc 1 293 0
 220 01c4 B4F5EC4F 		cmp	r4, #30208
 221 01c8 00F08881 		beq	.L215
 222              		.loc 1 295 0
 223 01cc B4F5ED4F 		cmp	r4, #30336
 224 01d0 00F07E81 		beq	.L216
 225              		.loc 1 297 0
 226 01d4 B4F5EE4F 		cmp	r4, #30464
 227 01d8 00F07481 		beq	.L217
 228              		.loc 1 299 0
ARM GAS  C:\Users\jo\AppData\Local\Temp\cc8kMVam.s 			page 5


 229 01dc B4F5EF4F 		cmp	r4, #30592
 230 01e0 00F0C685 		beq	.L218
 231              		.loc 1 304 0
 232 01e4 B4F5F04F 		cmp	r4, #30720
 233 01e8 00F04883 		beq	.L219
 234              		.loc 1 306 0
 235 01ec B4F5F14F 		cmp	r4, #30848
 236 01f0 00F03E83 		beq	.L220
 237              		.loc 1 308 0
 238 01f4 B4F5F24F 		cmp	r4, #30976
 239 01f8 00F0DA82 		beq	.L221
 240              		.loc 1 310 0
 241 01fc B4F5F34F 		cmp	r4, #31104
 242 0200 00F0FC83 		beq	.L222
 243              		.loc 1 312 0
 244 0204 B4F5F44F 		cmp	r4, #31232
 245 0208 00F0F283 		beq	.L223
 246              		.loc 1 314 0
 247 020c B4F5F54F 		cmp	r4, #31360
 248 0210 00F0E883 		beq	.L224
 249              		.loc 1 316 0
 250 0214 B4F5F64F 		cmp	r4, #31488
 251 0218 00F0DE83 		beq	.L225
 252              		.loc 1 318 0
 253 021c B4F5F74F 		cmp	r4, #31616
 254 0220 00F0D483 		beq	.L226
 255              		.loc 1 320 0
 256 0224 B4F5F84F 		cmp	r4, #31744
 257 0228 00F0CA83 		beq	.L227
 258              		.loc 1 322 0
 259 022c B4F5F94F 		cmp	r4, #31872
 260 0230 00F0C083 		beq	.L228
 261              		.loc 1 324 0
 262 0234 B4F5FA4F 		cmp	r4, #32000
 263 0238 00F0B683 		beq	.L229
 264              		.loc 1 326 0
 265 023c B4F5FB4F 		cmp	r4, #32128
 266 0240 00F0AC83 		beq	.L230
 267              		.loc 1 328 0
 268 0244 B4F5FC4F 		cmp	r4, #32256
 269 0248 00F0A283 		beq	.L231
 270              		.loc 1 330 0
 271 024c B4F5FD4F 		cmp	r4, #32384
 272 0250 00F09883 		beq	.L232
 273              		.loc 1 332 0
 274 0254 B4F5FE4F 		cmp	r4, #32512
 275 0258 00F08E83 		beq	.L233
 276              		.loc 1 334 0
 277 025c B4F5FF4F 		cmp	r4, #32640
 278 0260 00F08483 		beq	.L234
 279              		.loc 1 336 0
 280 0264 B4F5DF4F 		cmp	r4, #28544
 281 0268 00F07A83 		beq	.L235
 282              		.loc 1 338 0
 283 026c B4F5DE4F 		cmp	r4, #28416
 284 0270 00F07083 		beq	.L236
 285              		.loc 1 340 0
ARM GAS  C:\Users\jo\AppData\Local\Temp\cc8kMVam.s 			page 6


 286 0274 B4F5DD4F 		cmp	r4, #28288
 287 0278 00F06683 		beq	.L237
 288              		.loc 1 345 0
 289 027c B4F5025F 		cmp	r4, #8320
 290 0280 00F05C83 		beq	.L238
 291              		.loc 1 347 0
 292 0284 B4F5045F 		cmp	r4, #8448
 293 0288 00F05283 		beq	.L239
 294              		.loc 1 349 0
 295 028c B4F5065F 		cmp	r4, #8576
 296 0290 00F04883 		beq	.L240
 297              		.loc 1 351 0
 298 0294 B4F5085F 		cmp	r4, #8704
 299 0298 00F03E83 		beq	.L241
 300              		.loc 1 353 0
 301 029c B4F50A5F 		cmp	r4, #8832
 302 02a0 00F03483 		beq	.L242
 303              		.loc 1 355 0
 304 02a4 B4F50C5F 		cmp	r4, #8960
 305 02a8 00F02A83 		beq	.L243
 306              		.loc 1 357 0
 307 02ac B4F50E5F 		cmp	r4, #9088
 308 02b0 00F02083 		beq	.L244
 309              		.loc 1 359 0
 310 02b4 B4F5105F 		cmp	r4, #9216
 311 02b8 00F01683 		beq	.L245
 312              		.loc 1 361 0
 313 02bc B4F5125F 		cmp	r4, #9344
 314 02c0 00F00C83 		beq	.L246
 315              		.loc 1 363 0
 316 02c4 B4F5145F 		cmp	r4, #9472
 317 02c8 00F00283 		beq	.L247
 318              		.loc 1 365 0
 319 02cc B4F5165F 		cmp	r4, #9600
 320 02d0 00F0F882 		beq	.L248
 321              		.loc 1 367 0
 322 02d4 B4F5185F 		cmp	r4, #9728
 323 02d8 00F0EE82 		beq	.L249
 324              		.loc 1 369 0
 325 02dc B4F51A5F 		cmp	r4, #9856
 326 02e0 00F0E482 		beq	.L250
 327              		.loc 1 371 0
 328 02e4 B4F51C5F 		cmp	r4, #9984
 329 02e8 00F0DA82 		beq	.L251
 330              		.loc 1 373 0
 331 02ec B4F51E5F 		cmp	r4, #10112
 332 02f0 00F0D082 		beq	.L252
 333              		.loc 1 375 0
 334 02f4 B4F5205F 		cmp	r4, #10240
 335 02f8 00F0C682 		beq	.L253
 336              		.loc 1 377 0
 337 02fc B4F5225F 		cmp	r4, #10368
 338 0300 00F0B082 		beq	.L254
 339              		.loc 1 379 0
 340 0304 B4F5245F 		cmp	r4, #10496
 341 0308 00F0A682 		beq	.L255
 342              		.loc 1 381 0
ARM GAS  C:\Users\jo\AppData\Local\Temp\cc8kMVam.s 			page 7


 343 030c B4F5265F 		cmp	r4, #10624
 344 0310 00F09C82 		beq	.L256
 345              		.loc 1 383 0
 346 0314 B4F5285F 		cmp	r4, #10752
 347 0318 00F09282 		beq	.L257
 348              		.loc 1 385 0
 349 031c B4F52A5F 		cmp	r4, #10880
 350 0320 00F08882 		beq	.L258
 351              		.loc 1 387 0
 352 0324 B4F52C5F 		cmp	r4, #11008
 353 0328 00F07E82 		beq	.L259
 354              		.loc 1 389 0
 355 032c B4F52E5F 		cmp	r4, #11136
 356 0330 00F07482 		beq	.L260
 357              		.loc 1 391 0
 358 0334 B4F5305F 		cmp	r4, #11264
 359 0338 00F06A82 		beq	.L261
 360              	.L102:
 361              		.loc 1 395 0
 362 033c 3378     		ldrb	r3, [r6]	@ zero_extendqisi2
 363 033e 2BB9     		cbnz	r3, .L3
 364              		.loc 1 396 0
 365 0340 2346     		mov	r3, r4
 366 0342 3046     		mov	r0, r6
 367 0344 3946     		mov	r1, r7
 368 0346 D14A     		ldr	r2, .L314
 369 0348 FFF7FEFF 		bl	snprintf
 370              	.LVL5:
 371              	.L3:
 372              		.loc 1 399 0
 373 034c 25F47F44 		bic	r4, r5, #65280
 374 0350 24F08004 		bic	r4, r4, #128
 375              	.LVL6:
 376              		.loc 1 401 0
 377 0354 002C     		cmp	r4, #0
 378 0356 00F0AA80 		beq	.L1
 379              		.loc 1 407 0
 380 035a 3046     		mov	r0, r6
 381 035c FFF7FEFF 		bl	strlen
 382              	.LVL7:
 383              		.loc 1 409 0
 384 0360 0546     		mov	r5, r0
 385              	.LVL8:
 386 0362 0028     		cmp	r0, #0
 387 0364 40F0A080 		bne	.L262
 388              	.LVL9:
 389              	.L106:
 390              		.loc 1 423 0
 391 0368 202C     		cmp	r4, #32
 392 036a 00F04D83 		beq	.L263
 393              		.loc 1 425 0
 394 036e 222C     		cmp	r4, #34
 395 0370 00F0D483 		beq	.L264
 396              		.loc 1 430 0
 397 0374 602C     		cmp	r4, #96
 398 0376 00F04D83 		beq	.L265
 399              		.loc 1 432 0
ARM GAS  C:\Users\jo\AppData\Local\Temp\cc8kMVam.s 			page 8


 400 037a 622C     		cmp	r4, #98
 401 037c 00F01E82 		beq	.L266
 402              		.loc 1 434 0
 403 0380 642C     		cmp	r4, #100
 404 0382 00F0EE84 		beq	.L267
 405              		.loc 1 436 0
 406 0386 662C     		cmp	r4, #102
 407 0388 00F0E484 		beq	.L268
 408              		.loc 1 438 0
 409 038c 682C     		cmp	r4, #104
 410 038e 00F0DA84 		beq	.L269
 411              		.loc 1 440 0
 412 0392 6A2C     		cmp	r4, #106
 413 0394 00F0D084 		beq	.L270
 414              		.loc 1 442 0
 415 0398 6C2C     		cmp	r4, #108
 416 039a 00F0C684 		beq	.L271
 417              		.loc 1 447 0
 418 039e 2A2C     		cmp	r4, #42
 419 03a0 00F0BC84 		beq	.L272
 420              		.loc 1 449 0
 421 03a4 2C2C     		cmp	r4, #44
 422 03a6 00F0B284 		beq	.L273
 423              		.loc 1 454 0
 424 03aa 022C     		cmp	r4, #2
 425 03ac 00F0A884 		beq	.L274
 426              		.loc 1 456 0
 427 03b0 042C     		cmp	r4, #4
 428 03b2 00F09E84 		beq	.L275
 429              		.loc 1 458 0
 430 03b6 062C     		cmp	r4, #6
 431 03b8 00F09484 		beq	.L276
 432              		.loc 1 460 0
 433 03bc 082C     		cmp	r4, #8
 434 03be 00F08A84 		beq	.L277
 435              		.loc 1 462 0
 436 03c2 0A2C     		cmp	r4, #10
 437 03c4 00F08084 		beq	.L278
 438              		.loc 1 464 0
 439 03c8 0C2C     		cmp	r4, #12
 440 03ca 00F07684 		beq	.L279
 441              		.loc 1 466 0
 442 03ce 0E2C     		cmp	r4, #14
 443 03d0 00F06C84 		beq	.L280
 444              		.loc 1 468 0
 445 03d4 102C     		cmp	r4, #16
 446 03d6 00F06284 		beq	.L281
 447              		.loc 1 473 0
 448 03da 162C     		cmp	r4, #22
 449 03dc 00F05884 		beq	.L282
 450              		.loc 1 475 0
 451 03e0 182C     		cmp	r4, #24
 452 03e2 00F04F84 		beq	.L283
 453              		.loc 1 480 0
 454 03e6 242C     		cmp	r4, #36
 455 03e8 00F04684 		beq	.L284
 456              		.loc 1 482 0
ARM GAS  C:\Users\jo\AppData\Local\Temp\cc8kMVam.s 			page 9


 457 03ec 262C     		cmp	r4, #38
 458 03ee 00F03D84 		beq	.L285
 459              		.loc 1 487 0
 460 03f2 342C     		cmp	r4, #52
 461 03f4 00F03484 		beq	.L286
 462              		.loc 1 489 0
 463 03f8 362C     		cmp	r4, #54
 464 03fa 00F02B84 		beq	.L287
 465              		.loc 1 491 0
 466 03fe 382C     		cmp	r4, #56
 467 0400 00F02284 		beq	.L288
 468              		.loc 1 493 0
 469 0404 3A2C     		cmp	r4, #58
 470 0406 00F01984 		beq	.L289
 471              		.loc 1 498 0
 472 040a 322C     		cmp	r4, #50
 473 040c 00F01084 		beq	.L290
 474              		.loc 1 503 0
 475 0410 3C2C     		cmp	r4, #60
 476 0412 00F00784 		beq	.L291
 477              		.loc 1 505 0
 478 0416 3E2C     		cmp	r4, #62
 479 0418 00F0FE83 		beq	.L292
 480              		.loc 1 507 0
 481 041c 402C     		cmp	r4, #64
 482 041e 00F0F583 		beq	.L293
 483              		.loc 1 512 0
 484 0422 122C     		cmp	r4, #18
 485 0424 00F0EC83 		beq	.L294
 486              		.loc 1 514 0
 487 0428 142C     		cmp	r4, #20
 488 042a 00F0E383 		beq	.L295
 489              		.loc 1 529 0
 490 042e 742C     		cmp	r4, #116
 491 0430 00F0DA83 		beq	.L296
 492              		.loc 1 534 0
 493 0434 562C     		cmp	r4, #86
 494 0436 00F0D183 		beq	.L297
 495              		.loc 1 536 0
 496 043a 422C     		cmp	r4, #66
 497 043c 00F0C883 		beq	.L298
 498              		.loc 1 538 0
 499 0440 442C     		cmp	r4, #68
 500 0442 00F0BF83 		beq	.L299
 501              		.loc 1 540 0
 502 0446 462C     		cmp	r4, #70
 503 0448 00F0B683 		beq	.L300
 504              		.loc 1 542 0
 505 044c 482C     		cmp	r4, #72
 506 044e 00F0AD83 		beq	.L301
 507              		.loc 1 544 0
 508 0452 4A2C     		cmp	r4, #74
 509 0454 00F0A483 		beq	.L302
 510              		.loc 1 546 0
 511 0458 4C2C     		cmp	r4, #76
 512 045a 00F09B83 		beq	.L303
 513              		.loc 1 548 0
ARM GAS  C:\Users\jo\AppData\Local\Temp\cc8kMVam.s 			page 10


 514 045e 4E2C     		cmp	r4, #78
 515 0460 00F09283 		beq	.L304
 516              		.loc 1 550 0
 517 0464 502C     		cmp	r4, #80
 518 0466 00F08983 		beq	.L305
 519              		.loc 1 552 0
 520 046a 522C     		cmp	r4, #82
 521 046c 00F08083 		beq	.L306
 522              		.loc 1 554 0
 523 0470 542C     		cmp	r4, #84
 524 0472 00F07783 		beq	.L307
 525              		.loc 1 559 0
 526 0476 302C     		cmp	r4, #48
 527 0478 00F06E83 		beq	.L308
 528              		.loc 1 569 0
 529 047c 762C     		cmp	r4, #118
 530 047e 00F06583 		beq	.L309
 531              		.loc 1 574 0
 532 0482 782C     		cmp	r4, #120
 533 0484 00F05C83 		beq	.L310
 534              		.loc 1 579 0
 535 0488 7A2C     		cmp	r4, #122
 536 048a 00F05383 		beq	.L311
 537              		.loc 1 584 0
 538 048e 282C     		cmp	r4, #40
 539 0490 00F04A83 		beq	.L312
 540              	.L157:
 541              		.loc 1 588 0
 542 0494 3378     		ldrb	r3, [r6]	@ zero_extendqisi2
 543 0496 53B9     		cbnz	r3, .L1
 544              		.loc 1 591 0
 545 0498 3046     		mov	r0, r6
 546 049a 3946     		mov	r1, r7
 547 049c 2346     		mov	r3, r4
 548 049e 7B4A     		ldr	r2, .L314
 549              		.loc 1 592 0
 550 04a0 BDE8F041 		pop	{r4, r5, r6, r7, r8, lr}
 551              		.cfi_remember_state
 552              		.cfi_restore 14
 553              		.cfi_restore 8
 554              		.cfi_restore 7
 555              		.cfi_restore 6
 556              		.cfi_restore 5
 557              		.cfi_restore 4
 558              		.cfi_def_cfa_offset 0
 559              	.LVL10:
 560              		.loc 1 591 0
 561 04a4 FFF7FEBF 		b	snprintf
 562              	.LVL11:
 563              	.L262:
 564              		.cfi_restore_state
 565              		.loc 1 411 0
 566 04a8 3F1A     		subs	r7, r7, r0
 567              	.LVL12:
 568 04aa 042F     		cmp	r7, #4
 569 04ac 01D8     		bhi	.L313
 570              	.LVL13:
ARM GAS  C:\Users\jo\AppData\Local\Temp\cc8kMVam.s 			page 11


 571              	.L1:
 572 04ae BDE8F081 		pop	{r4, r5, r6, r7, r8, pc}
 573              	.LVL14:
 574              	.L313:
 575              		.loc 1 414 0
 576 04b2 3018     		adds	r0, r6, r0
 577              	.LVL15:
 578 04b4 3946     		mov	r1, r7
 579 04b6 764A     		ldr	r2, .L314+4
 580              		.loc 1 416 0
 581 04b8 0335     		adds	r5, r5, #3
 582              	.LVL16:
 583              		.loc 1 414 0
 584 04ba FFF7FEFF 		bl	snprintf
 585              	.LVL17:
 586              		.loc 1 417 0
 587 04be 033F     		subs	r7, r7, #3
 588              		.loc 1 416 0
 589 04c0 2E44     		add	r6, r6, r5
 590              	.LVL18:
 591 04c2 51E7     		b	.L106
 592              	.LVL19:
 593              	.L217:
 594              		.loc 1 298 0
 595 04c4 3046     		mov	r0, r6
 596 04c6 3946     		mov	r1, r7
 597 04c8 724A     		ldr	r2, .L314+8
 598 04ca FFF7FEFF 		bl	snprintf
 599              	.LVL20:
 600 04ce 35E7     		b	.L102
 601              	.L216:
 602              		.loc 1 296 0
 603 04d0 3046     		mov	r0, r6
 604 04d2 3946     		mov	r1, r7
 605 04d4 704A     		ldr	r2, .L314+12
 606 04d6 FFF7FEFF 		bl	snprintf
 607              	.LVL21:
 608 04da 2FE7     		b	.L102
 609              	.L215:
 610              		.loc 1 294 0
 611 04dc 3046     		mov	r0, r6
 612 04de 3946     		mov	r1, r7
 613 04e0 6E4A     		ldr	r2, .L314+16
 614 04e2 FFF7FEFF 		bl	snprintf
 615              	.LVL22:
 616 04e6 29E7     		b	.L102
 617              	.L167:
 618              		.loc 1 177 0
 619 04e8 3046     		mov	r0, r6
 620 04ea 3946     		mov	r1, r7
 621 04ec 6C4A     		ldr	r2, .L314+20
 622 04ee FFF7FEFF 		bl	snprintf
 623              	.LVL23:
 624 04f2 23E7     		b	.L102
 625              	.L163:
 626              		.loc 1 169 0
 627 04f4 3046     		mov	r0, r6
ARM GAS  C:\Users\jo\AppData\Local\Temp\cc8kMVam.s 			page 12


 628 04f6 3946     		mov	r1, r7
 629 04f8 6A4A     		ldr	r2, .L314+24
 630 04fa FFF7FEFF 		bl	snprintf
 631              	.LVL24:
 632 04fe 1DE7     		b	.L102
 633              	.L174:
 634              		.loc 1 197 0
 635 0500 3046     		mov	r0, r6
 636 0502 3946     		mov	r1, r7
 637 0504 684A     		ldr	r2, .L314+28
 638 0506 FFF7FEFF 		bl	snprintf
 639              	.LVL25:
 640 050a 17E7     		b	.L102
 641              	.L173:
 642              		.loc 1 192 0
 643 050c 3046     		mov	r0, r6
 644 050e 3946     		mov	r1, r7
 645 0510 664A     		ldr	r2, .L314+32
 646 0512 FFF7FEFF 		bl	snprintf
 647              	.LVL26:
 648 0516 11E7     		b	.L102
 649              	.L172:
 650              		.loc 1 190 0
 651 0518 3046     		mov	r0, r6
 652 051a 3946     		mov	r1, r7
 653 051c 644A     		ldr	r2, .L314+36
 654 051e FFF7FEFF 		bl	snprintf
 655              	.LVL27:
 656 0522 0BE7     		b	.L102
 657              	.L171:
 658              		.loc 1 188 0
 659 0524 3046     		mov	r0, r6
 660 0526 3946     		mov	r1, r7
 661 0528 624A     		ldr	r2, .L314+40
 662 052a FFF7FEFF 		bl	snprintf
 663              	.LVL28:
 664 052e 05E7     		b	.L102
 665              	.L198:
 666              		.loc 1 257 0
 667 0530 3046     		mov	r0, r6
 668 0532 3946     		mov	r1, r7
 669 0534 604A     		ldr	r2, .L314+44
 670 0536 FFF7FEFF 		bl	snprintf
 671              	.LVL29:
 672 053a FFE6     		b	.L102
 673              	.L197:
 674              		.loc 1 255 0
 675 053c 3046     		mov	r0, r6
 676 053e 3946     		mov	r1, r7
 677 0540 5E4A     		ldr	r2, .L314+48
 678 0542 FFF7FEFF 		bl	snprintf
 679              	.LVL30:
 680 0546 F9E6     		b	.L102
 681              	.L196:
 682              		.loc 1 253 0
 683 0548 3046     		mov	r0, r6
 684 054a 3946     		mov	r1, r7
ARM GAS  C:\Users\jo\AppData\Local\Temp\cc8kMVam.s 			page 13


 685 054c 5C4A     		ldr	r2, .L314+52
 686 054e FFF7FEFF 		bl	snprintf
 687              	.LVL31:
 688 0552 F3E6     		b	.L102
 689              	.L195:
 690              		.loc 1 251 0
 691 0554 3046     		mov	r0, r6
 692 0556 3946     		mov	r1, r7
 693 0558 5A4A     		ldr	r2, .L314+56
 694 055a FFF7FEFF 		bl	snprintf
 695              	.LVL32:
 696 055e EDE6     		b	.L102
 697              	.L194:
 698              		.loc 1 246 0
 699 0560 3046     		mov	r0, r6
 700 0562 3946     		mov	r1, r7
 701 0564 584A     		ldr	r2, .L314+60
 702 0566 FFF7FEFF 		bl	snprintf
 703              	.LVL33:
 704 056a E7E6     		b	.L102
 705              	.L193:
 706              		.loc 1 244 0
 707 056c 3046     		mov	r0, r6
 708 056e 3946     		mov	r1, r7
 709 0570 564A     		ldr	r2, .L314+64
 710 0572 FFF7FEFF 		bl	snprintf
 711              	.LVL34:
 712 0576 E1E6     		b	.L102
 713              	.L192:
 714              		.loc 1 242 0
 715 0578 3046     		mov	r0, r6
 716 057a 3946     		mov	r1, r7
 717 057c 544A     		ldr	r2, .L314+68
 718 057e FFF7FEFF 		bl	snprintf
 719              	.LVL35:
 720 0582 DBE6     		b	.L102
 721              	.L191:
 722              		.loc 1 240 0
 723 0584 3046     		mov	r0, r6
 724 0586 3946     		mov	r1, r7
 725 0588 524A     		ldr	r2, .L314+72
 726 058a FFF7FEFF 		bl	snprintf
 727              	.LVL36:
 728 058e D5E6     		b	.L102
 729              	.L190:
 730              		.loc 1 235 0
 731 0590 3046     		mov	r0, r6
 732 0592 3946     		mov	r1, r7
 733 0594 504A     		ldr	r2, .L314+76
 734 0596 FFF7FEFF 		bl	snprintf
 735              	.LVL37:
 736 059a CFE6     		b	.L102
 737              	.L189:
 738              		.loc 1 233 0
 739 059c 3046     		mov	r0, r6
 740 059e 3946     		mov	r1, r7
 741 05a0 4E4A     		ldr	r2, .L314+80
ARM GAS  C:\Users\jo\AppData\Local\Temp\cc8kMVam.s 			page 14


 742 05a2 FFF7FEFF 		bl	snprintf
 743              	.LVL38:
 744 05a6 C9E6     		b	.L102
 745              	.L188:
 746              		.loc 1 231 0
 747 05a8 3046     		mov	r0, r6
 748 05aa 3946     		mov	r1, r7
 749 05ac 4C4A     		ldr	r2, .L314+84
 750 05ae FFF7FEFF 		bl	snprintf
 751              	.LVL39:
 752 05b2 C3E6     		b	.L102
 753              	.L187:
 754              		.loc 1 229 0
 755 05b4 3046     		mov	r0, r6
 756 05b6 3946     		mov	r1, r7
 757 05b8 4A4A     		ldr	r2, .L314+88
 758 05ba FFF7FEFF 		bl	snprintf
 759              	.LVL40:
 760 05be BDE6     		b	.L102
 761              	.L186:
 762              		.loc 1 224 0
 763 05c0 3046     		mov	r0, r6
 764 05c2 3946     		mov	r1, r7
 765 05c4 484A     		ldr	r2, .L314+92
 766 05c6 FFF7FEFF 		bl	snprintf
 767              	.LVL41:
 768 05ca B7E6     		b	.L102
 769              	.L185:
 770              		.loc 1 222 0
 771 05cc 3046     		mov	r0, r6
 772 05ce 3946     		mov	r1, r7
 773 05d0 464A     		ldr	r2, .L314+96
 774 05d2 FFF7FEFF 		bl	snprintf
 775              	.LVL42:
 776 05d6 B1E6     		b	.L102
 777              	.L184:
 778              		.loc 1 220 0
 779 05d8 3046     		mov	r0, r6
 780 05da 3946     		mov	r1, r7
 781 05dc 444A     		ldr	r2, .L314+100
 782 05de FFF7FEFF 		bl	snprintf
 783              	.LVL43:
 784 05e2 ABE6     		b	.L102
 785              	.L183:
 786              		.loc 1 218 0
 787 05e4 3046     		mov	r0, r6
 788 05e6 3946     		mov	r1, r7
 789 05e8 424A     		ldr	r2, .L314+104
 790 05ea FFF7FEFF 		bl	snprintf
 791              	.LVL44:
 792 05ee A5E6     		b	.L102
 793              	.L182:
 794              		.loc 1 216 0
 795 05f0 3046     		mov	r0, r6
 796 05f2 3946     		mov	r1, r7
 797 05f4 404A     		ldr	r2, .L314+108
 798 05f6 FFF7FEFF 		bl	snprintf
ARM GAS  C:\Users\jo\AppData\Local\Temp\cc8kMVam.s 			page 15


 799              	.LVL45:
 800 05fa 9FE6     		b	.L102
 801              	.L181:
 802              		.loc 1 214 0
 803 05fc 3046     		mov	r0, r6
 804 05fe 3946     		mov	r1, r7
 805 0600 3E4A     		ldr	r2, .L314+112
 806 0602 FFF7FEFF 		bl	snprintf
 807              	.LVL46:
 808 0606 99E6     		b	.L102
 809              	.L180:
 810              		.loc 1 212 0
 811 0608 3046     		mov	r0, r6
 812 060a 3946     		mov	r1, r7
 813 060c 3C4A     		ldr	r2, .L314+116
 814 060e FFF7FEFF 		bl	snprintf
 815              	.LVL47:
 816 0612 93E6     		b	.L102
 817              	.L179:
 818              		.loc 1 210 0
 819 0614 3046     		mov	r0, r6
 820 0616 3946     		mov	r1, r7
 821 0618 3A4A     		ldr	r2, .L314+120
 822 061a FFF7FEFF 		bl	snprintf
 823              	.LVL48:
 824 061e 8DE6     		b	.L102
 825              	.L178:
 826              		.loc 1 208 0
 827 0620 3046     		mov	r0, r6
 828 0622 3946     		mov	r1, r7
 829 0624 384A     		ldr	r2, .L314+124
 830 0626 FFF7FEFF 		bl	snprintf
 831              	.LVL49:
 832 062a 87E6     		b	.L102
 833              	.L177:
 834              		.loc 1 203 0
 835 062c 3046     		mov	r0, r6
 836 062e 3946     		mov	r1, r7
 837 0630 364A     		ldr	r2, .L314+128
 838 0632 FFF7FEFF 		bl	snprintf
 839              	.LVL50:
 840 0636 81E6     		b	.L102
 841              	.L176:
 842              		.loc 1 201 0
 843 0638 3046     		mov	r0, r6
 844 063a 3946     		mov	r1, r7
 845 063c 344A     		ldr	r2, .L314+132
 846 063e FFF7FEFF 		bl	snprintf
 847              	.LVL51:
 848 0642 7BE6     		b	.L102
 849              	.L175:
 850              		.loc 1 199 0
 851 0644 3046     		mov	r0, r6
 852 0646 3946     		mov	r1, r7
 853 0648 324A     		ldr	r2, .L314+136
 854 064a FFF7FEFF 		bl	snprintf
 855              	.LVL52:
ARM GAS  C:\Users\jo\AppData\Local\Temp\cc8kMVam.s 			page 16


 856 064e 75E6     		b	.L102
 857              	.L214:
 858              		.loc 1 292 0
 859 0650 3046     		mov	r0, r6
 860 0652 3946     		mov	r1, r7
 861 0654 304A     		ldr	r2, .L314+140
 862 0656 FFF7FEFF 		bl	snprintf
 863              	.LVL53:
 864 065a 6FE6     		b	.L102
 865              	.L213:
 866              		.loc 1 290 0
 867 065c 3046     		mov	r0, r6
 868 065e 3946     		mov	r1, r7
 869 0660 2E4A     		ldr	r2, .L314+144
 870 0662 FFF7FEFF 		bl	snprintf
 871              	.LVL54:
 872 0666 69E6     		b	.L102
 873              	.L212:
 874              		.loc 1 288 0
 875 0668 3046     		mov	r0, r6
 876 066a 3946     		mov	r1, r7
 877 066c 2C4A     		ldr	r2, .L314+148
 878 066e FFF7FEFF 		bl	snprintf
 879              	.LVL55:
 880 0672 63E6     		b	.L102
 881              	.L211:
 882              		.loc 1 286 0
 883 0674 3046     		mov	r0, r6
 884 0676 3946     		mov	r1, r7
 885 0678 2A4A     		ldr	r2, .L314+152
 886 067a FFF7FEFF 		bl	snprintf
 887              	.LVL56:
 888 067e 5DE6     		b	.L102
 889              	.L210:
 890              		.loc 1 284 0
 891 0680 3046     		mov	r0, r6
 892 0682 3946     		mov	r1, r7
 893 0684 284A     		ldr	r2, .L314+156
 894 0686 FFF7FEFF 		bl	snprintf
 895              	.LVL57:
 896 068a 57E6     		b	.L102
 897              	.L315:
 898              		.align	2
 899              	.L314:
 900 068c 58140000 		.word	.LC99
 901 0690 74140000 		.word	.LC100
 902 0694 280A0000 		.word	.LC54
 903 0698 F4090000 		.word	.LC53
 904 069c C0090000 		.word	.LC52
 905 06a0 C0000000 		.word	.LC4
 906 06a4 00000000 		.word	.LC0
 907 06a8 F4010000 		.word	.LC11
 908 06ac C8010000 		.word	.LC10
 909 06b0 A0010000 		.word	.LC9
 910 06b4 74010000 		.word	.LC8
 911 06b8 74060000 		.word	.LC35
 912 06bc 40060000 		.word	.LC34
ARM GAS  C:\Users\jo\AppData\Local\Temp\cc8kMVam.s 			page 17


 913 06c0 04060000 		.word	.LC33
 914 06c4 DC050000 		.word	.LC32
 915 06c8 90050000 		.word	.LC31
 916 06cc 54050000 		.word	.LC30
 917 06d0 34050000 		.word	.LC29
 918 06d4 08050000 		.word	.LC28
 919 06d8 BC040000 		.word	.LC27
 920 06dc 94040000 		.word	.LC26
 921 06e0 50040000 		.word	.LC25
 922 06e4 24040000 		.word	.LC24
 923 06e8 FC030000 		.word	.LC23
 924 06ec BC030000 		.word	.LC22
 925 06f0 74030000 		.word	.LC21
 926 06f4 48030000 		.word	.LC20
 927 06f8 1C030000 		.word	.LC19
 928 06fc F8020000 		.word	.LC18
 929 0700 D8020000 		.word	.LC17
 930 0704 B4020000 		.word	.LC16
 931 0708 90020000 		.word	.LC15
 932 070c 68020000 		.word	.LC14
 933 0710 48020000 		.word	.LC13
 934 0714 20020000 		.word	.LC12
 935 0718 80090000 		.word	.LC51
 936 071c 64090000 		.word	.LC50
 937 0720 04090000 		.word	.LC49
 938 0724 DC080000 		.word	.LC48
 939 0728 9C080000 		.word	.LC47
 940              	.L209:
 941              		.loc 1 282 0
 942 072c 3046     		mov	r0, r6
 943 072e 3946     		mov	r1, r7
 944 0730 BB4A     		ldr	r2, .L316
 945 0732 FFF7FEFF 		bl	snprintf
 946              	.LVL58:
 947 0736 01E6     		b	.L102
 948              	.L208:
 949              		.loc 1 280 0
 950 0738 3046     		mov	r0, r6
 951 073a 3946     		mov	r1, r7
 952 073c B94A     		ldr	r2, .L316+4
 953 073e FFF7FEFF 		bl	snprintf
 954              	.LVL59:
 955 0742 FBE5     		b	.L102
 956              	.L207:
 957              		.loc 1 278 0
 958 0744 3046     		mov	r0, r6
 959 0746 3946     		mov	r1, r7
 960 0748 B74A     		ldr	r2, .L316+8
 961 074a FFF7FEFF 		bl	snprintf
 962              	.LVL60:
 963 074e F5E5     		b	.L102
 964              	.L206:
 965              		.loc 1 276 0
 966 0750 3046     		mov	r0, r6
 967 0752 3946     		mov	r1, r7
 968 0754 B54A     		ldr	r2, .L316+12
 969 0756 FFF7FEFF 		bl	snprintf
ARM GAS  C:\Users\jo\AppData\Local\Temp\cc8kMVam.s 			page 18


 970              	.LVL61:
 971 075a EFE5     		b	.L102
 972              	.L205:
 973              		.loc 1 274 0
 974 075c 3046     		mov	r0, r6
 975 075e 3946     		mov	r1, r7
 976 0760 B34A     		ldr	r2, .L316+16
 977 0762 FFF7FEFF 		bl	snprintf
 978              	.LVL62:
 979 0766 E9E5     		b	.L102
 980              	.L204:
 981              		.loc 1 272 0
 982 0768 3046     		mov	r0, r6
 983 076a 3946     		mov	r1, r7
 984 076c B14A     		ldr	r2, .L316+20
 985 076e FFF7FEFF 		bl	snprintf
 986              	.LVL63:
 987 0772 E3E5     		b	.L102
 988              	.L203:
 989              		.loc 1 267 0
 990 0774 3046     		mov	r0, r6
 991 0776 3946     		mov	r1, r7
 992 0778 AF4A     		ldr	r2, .L316+24
 993 077a FFF7FEFF 		bl	snprintf
 994              	.LVL64:
 995 077e DDE5     		b	.L102
 996              	.L202:
 997              		.loc 1 265 0
 998 0780 3046     		mov	r0, r6
 999 0782 3946     		mov	r1, r7
 1000 0784 AD4A     		ldr	r2, .L316+28
 1001 0786 FFF7FEFF 		bl	snprintf
 1002              	.LVL65:
 1003 078a D7E5     		b	.L102
 1004              	.L201:
 1005              		.loc 1 263 0
 1006 078c 3046     		mov	r0, r6
 1007 078e 3946     		mov	r1, r7
 1008 0790 AB4A     		ldr	r2, .L316+32
 1009 0792 FFF7FEFF 		bl	snprintf
 1010              	.LVL66:
 1011 0796 D1E5     		b	.L102
 1012              	.L200:
 1013              		.loc 1 261 0
 1014 0798 3046     		mov	r0, r6
 1015 079a 3946     		mov	r1, r7
 1016 079c A94A     		ldr	r2, .L316+36
 1017 079e FFF7FEFF 		bl	snprintf
 1018              	.LVL67:
 1019 07a2 CBE5     		b	.L102
 1020              	.L199:
 1021              		.loc 1 259 0
 1022 07a4 3046     		mov	r0, r6
 1023 07a6 3946     		mov	r1, r7
 1024 07a8 A74A     		ldr	r2, .L316+40
 1025 07aa FFF7FEFF 		bl	snprintf
 1026              	.LVL68:
ARM GAS  C:\Users\jo\AppData\Local\Temp\cc8kMVam.s 			page 19


 1027 07ae C5E5     		b	.L102
 1028              	.L221:
 1029              		.loc 1 309 0
 1030 07b0 3046     		mov	r0, r6
 1031 07b2 3946     		mov	r1, r7
 1032 07b4 A54A     		ldr	r2, .L316+44
 1033 07b6 FFF7FEFF 		bl	snprintf
 1034              	.LVL69:
 1035 07ba BFE5     		b	.L102
 1036              	.LVL70:
 1037              	.L266:
 1038              		.loc 1 433 0
 1039 07bc 3046     		mov	r0, r6
 1040 07be 3946     		mov	r1, r7
 1041 07c0 A34A     		ldr	r2, .L316+48
 1042 07c2 FFF7FEFF 		bl	snprintf
 1043              	.LVL71:
 1044 07c6 65E6     		b	.L157
 1045              	.LVL72:
 1046              	.L168:
 1047              		.loc 1 182 0
 1048 07c8 3046     		mov	r0, r6
 1049 07ca 3946     		mov	r1, r7
 1050 07cc A14A     		ldr	r2, .L316+52
 1051 07ce FFF7FEFF 		bl	snprintf
 1052              	.LVL73:
 1053 07d2 B3E5     		b	.L102
 1054              	.L170:
 1055              		.loc 1 186 0
 1056 07d4 3046     		mov	r0, r6
 1057 07d6 3946     		mov	r1, r7
 1058 07d8 9F4A     		ldr	r2, .L316+56
 1059 07da FFF7FEFF 		bl	snprintf
 1060              	.LVL74:
 1061 07de ADE5     		b	.L102
 1062              	.L169:
 1063              		.loc 1 184 0
 1064 07e0 3046     		mov	r0, r6
 1065 07e2 3946     		mov	r1, r7
 1066 07e4 9D4A     		ldr	r2, .L316+60
 1067 07e6 FFF7FEFF 		bl	snprintf
 1068              	.LVL75:
 1069 07ea A7E5     		b	.L102
 1070              	.L164:
 1071              		.loc 1 171 0
 1072 07ec 3046     		mov	r0, r6
 1073 07ee 3946     		mov	r1, r7
 1074 07f0 9B4A     		ldr	r2, .L316+64
 1075 07f2 FFF7FEFF 		bl	snprintf
 1076              	.LVL76:
 1077 07f6 A1E5     		b	.L102
 1078              	.L166:
 1079              		.loc 1 175 0
 1080 07f8 3046     		mov	r0, r6
 1081 07fa 3946     		mov	r1, r7
 1082 07fc 994A     		ldr	r2, .L316+68
 1083 07fe FFF7FEFF 		bl	snprintf
ARM GAS  C:\Users\jo\AppData\Local\Temp\cc8kMVam.s 			page 20


 1084              	.LVL77:
 1085 0802 9BE5     		b	.L102
 1086              	.L165:
 1087              		.loc 1 173 0
 1088 0804 3046     		mov	r0, r6
 1089 0806 3946     		mov	r1, r7
 1090 0808 974A     		ldr	r2, .L316+72
 1091 080a FFF7FEFF 		bl	snprintf
 1092              	.LVL78:
 1093 080e 95E5     		b	.L102
 1094              	.L261:
 1095              		.loc 1 392 0
 1096 0810 3046     		mov	r0, r6
 1097 0812 3946     		mov	r1, r7
 1098 0814 954A     		ldr	r2, .L316+76
 1099 0816 FFF7FEFF 		bl	snprintf
 1100              	.LVL79:
 1101 081a 8FE5     		b	.L102
 1102              	.L260:
 1103              		.loc 1 390 0
 1104 081c 3046     		mov	r0, r6
 1105 081e 3946     		mov	r1, r7
 1106 0820 934A     		ldr	r2, .L316+80
 1107 0822 FFF7FEFF 		bl	snprintf
 1108              	.LVL80:
 1109 0826 89E5     		b	.L102
 1110              	.L259:
 1111              		.loc 1 388 0
 1112 0828 3046     		mov	r0, r6
 1113 082a 3946     		mov	r1, r7
 1114 082c 914A     		ldr	r2, .L316+84
 1115 082e FFF7FEFF 		bl	snprintf
 1116              	.LVL81:
 1117 0832 83E5     		b	.L102
 1118              	.L258:
 1119              		.loc 1 386 0
 1120 0834 3046     		mov	r0, r6
 1121 0836 3946     		mov	r1, r7
 1122 0838 8F4A     		ldr	r2, .L316+88
 1123 083a FFF7FEFF 		bl	snprintf
 1124              	.LVL82:
 1125 083e 7DE5     		b	.L102
 1126              	.L257:
 1127              		.loc 1 384 0
 1128 0840 3046     		mov	r0, r6
 1129 0842 3946     		mov	r1, r7
 1130 0844 8D4A     		ldr	r2, .L316+92
 1131 0846 FFF7FEFF 		bl	snprintf
 1132              	.LVL83:
 1133 084a 77E5     		b	.L102
 1134              	.L256:
 1135              		.loc 1 382 0
 1136 084c 3046     		mov	r0, r6
 1137 084e 3946     		mov	r1, r7
 1138 0850 8B4A     		ldr	r2, .L316+96
 1139 0852 FFF7FEFF 		bl	snprintf
 1140              	.LVL84:
ARM GAS  C:\Users\jo\AppData\Local\Temp\cc8kMVam.s 			page 21


 1141 0856 71E5     		b	.L102
 1142              	.L255:
 1143              		.loc 1 380 0
 1144 0858 3046     		mov	r0, r6
 1145 085a 3946     		mov	r1, r7
 1146 085c 894A     		ldr	r2, .L316+100
 1147 085e FFF7FEFF 		bl	snprintf
 1148              	.LVL85:
 1149 0862 6BE5     		b	.L102
 1150              	.L254:
 1151              		.loc 1 378 0
 1152 0864 3046     		mov	r0, r6
 1153 0866 3946     		mov	r1, r7
 1154 0868 874A     		ldr	r2, .L316+104
 1155 086a FFF7FEFF 		bl	snprintf
 1156              	.LVL86:
 1157 086e 65E5     		b	.L102
 1158              	.L220:
 1159              		.loc 1 307 0
 1160 0870 3046     		mov	r0, r6
 1161 0872 3946     		mov	r1, r7
 1162 0874 854A     		ldr	r2, .L316+108
 1163 0876 FFF7FEFF 		bl	snprintf
 1164              	.LVL87:
 1165 087a 5FE5     		b	.L102
 1166              	.L219:
 1167              		.loc 1 305 0
 1168 087c 3046     		mov	r0, r6
 1169 087e 3946     		mov	r1, r7
 1170 0880 834A     		ldr	r2, .L316+112
 1171 0882 FFF7FEFF 		bl	snprintf
 1172              	.LVL88:
 1173 0886 59E5     		b	.L102
 1174              	.L253:
 1175              		.loc 1 376 0
 1176 0888 3046     		mov	r0, r6
 1177 088a 3946     		mov	r1, r7
 1178 088c 814A     		ldr	r2, .L316+116
 1179 088e FFF7FEFF 		bl	snprintf
 1180              	.LVL89:
 1181 0892 53E5     		b	.L102
 1182              	.L252:
 1183              		.loc 1 374 0
 1184 0894 3046     		mov	r0, r6
 1185 0896 3946     		mov	r1, r7
 1186 0898 7F4A     		ldr	r2, .L316+120
 1187 089a FFF7FEFF 		bl	snprintf
 1188              	.LVL90:
 1189 089e 4DE5     		b	.L102
 1190              	.L251:
 1191              		.loc 1 372 0
 1192 08a0 3046     		mov	r0, r6
 1193 08a2 3946     		mov	r1, r7
 1194 08a4 7D4A     		ldr	r2, .L316+124
 1195 08a6 FFF7FEFF 		bl	snprintf
 1196              	.LVL91:
 1197 08aa 47E5     		b	.L102
ARM GAS  C:\Users\jo\AppData\Local\Temp\cc8kMVam.s 			page 22


 1198              	.L250:
 1199              		.loc 1 370 0
 1200 08ac 3046     		mov	r0, r6
 1201 08ae 3946     		mov	r1, r7
 1202 08b0 7B4A     		ldr	r2, .L316+128
 1203 08b2 FFF7FEFF 		bl	snprintf
 1204              	.LVL92:
 1205 08b6 41E5     		b	.L102
 1206              	.L249:
 1207              		.loc 1 368 0
 1208 08b8 3046     		mov	r0, r6
 1209 08ba 3946     		mov	r1, r7
 1210 08bc 794A     		ldr	r2, .L316+132
 1211 08be FFF7FEFF 		bl	snprintf
 1212              	.LVL93:
 1213 08c2 3BE5     		b	.L102
 1214              	.L248:
 1215              		.loc 1 366 0
 1216 08c4 3046     		mov	r0, r6
 1217 08c6 3946     		mov	r1, r7
 1218 08c8 774A     		ldr	r2, .L316+136
 1219 08ca FFF7FEFF 		bl	snprintf
 1220              	.LVL94:
 1221 08ce 35E5     		b	.L102
 1222              	.L247:
 1223              		.loc 1 364 0
 1224 08d0 3046     		mov	r0, r6
 1225 08d2 3946     		mov	r1, r7
 1226 08d4 754A     		ldr	r2, .L316+140
 1227 08d6 FFF7FEFF 		bl	snprintf
 1228              	.LVL95:
 1229 08da 2FE5     		b	.L102
 1230              	.L246:
 1231              		.loc 1 362 0
 1232 08dc 3046     		mov	r0, r6
 1233 08de 3946     		mov	r1, r7
 1234 08e0 734A     		ldr	r2, .L316+144
 1235 08e2 FFF7FEFF 		bl	snprintf
 1236              	.LVL96:
 1237 08e6 29E5     		b	.L102
 1238              	.L245:
 1239              		.loc 1 360 0
 1240 08e8 3046     		mov	r0, r6
 1241 08ea 3946     		mov	r1, r7
 1242 08ec 714A     		ldr	r2, .L316+148
 1243 08ee FFF7FEFF 		bl	snprintf
 1244              	.LVL97:
 1245 08f2 23E5     		b	.L102
 1246              	.L244:
 1247              		.loc 1 358 0
 1248 08f4 3046     		mov	r0, r6
 1249 08f6 3946     		mov	r1, r7
 1250 08f8 6F4A     		ldr	r2, .L316+152
 1251 08fa FFF7FEFF 		bl	snprintf
 1252              	.LVL98:
 1253 08fe 1DE5     		b	.L102
 1254              	.L243:
ARM GAS  C:\Users\jo\AppData\Local\Temp\cc8kMVam.s 			page 23


 1255              		.loc 1 356 0
 1256 0900 3046     		mov	r0, r6
 1257 0902 3946     		mov	r1, r7
 1258 0904 6D4A     		ldr	r2, .L316+156
 1259 0906 FFF7FEFF 		bl	snprintf
 1260              	.LVL99:
 1261 090a 17E5     		b	.L102
 1262              	.L242:
 1263              		.loc 1 354 0
 1264 090c 3046     		mov	r0, r6
 1265 090e 3946     		mov	r1, r7
 1266 0910 6B4A     		ldr	r2, .L316+160
 1267 0912 FFF7FEFF 		bl	snprintf
 1268              	.LVL100:
 1269 0916 11E5     		b	.L102
 1270              	.L241:
 1271              		.loc 1 352 0
 1272 0918 3046     		mov	r0, r6
 1273 091a 3946     		mov	r1, r7
 1274 091c 694A     		ldr	r2, .L316+164
 1275 091e FFF7FEFF 		bl	snprintf
 1276              	.LVL101:
 1277 0922 0BE5     		b	.L102
 1278              	.L240:
 1279              		.loc 1 350 0
 1280 0924 3046     		mov	r0, r6
 1281 0926 3946     		mov	r1, r7
 1282 0928 674A     		ldr	r2, .L316+168
 1283 092a FFF7FEFF 		bl	snprintf
 1284              	.LVL102:
 1285 092e 05E5     		b	.L102
 1286              	.L239:
 1287              		.loc 1 348 0
 1288 0930 3046     		mov	r0, r6
 1289 0932 3946     		mov	r1, r7
 1290 0934 654A     		ldr	r2, .L316+172
 1291 0936 FFF7FEFF 		bl	snprintf
 1292              	.LVL103:
 1293 093a FFE4     		b	.L102
 1294              	.L238:
 1295              		.loc 1 346 0
 1296 093c 3046     		mov	r0, r6
 1297 093e 3946     		mov	r1, r7
 1298 0940 634A     		ldr	r2, .L316+176
 1299 0942 FFF7FEFF 		bl	snprintf
 1300              	.LVL104:
 1301 0946 F9E4     		b	.L102
 1302              	.L237:
 1303              		.loc 1 341 0
 1304 0948 3046     		mov	r0, r6
 1305 094a 3946     		mov	r1, r7
 1306 094c 614A     		ldr	r2, .L316+180
 1307 094e FFF7FEFF 		bl	snprintf
 1308              	.LVL105:
 1309 0952 F3E4     		b	.L102
 1310              	.L236:
 1311              		.loc 1 339 0
ARM GAS  C:\Users\jo\AppData\Local\Temp\cc8kMVam.s 			page 24


 1312 0954 3046     		mov	r0, r6
 1313 0956 3946     		mov	r1, r7
 1314 0958 5F4A     		ldr	r2, .L316+184
 1315 095a FFF7FEFF 		bl	snprintf
 1316              	.LVL106:
 1317 095e EDE4     		b	.L102
 1318              	.L235:
 1319              		.loc 1 337 0
 1320 0960 3046     		mov	r0, r6
 1321 0962 3946     		mov	r1, r7
 1322 0964 5D4A     		ldr	r2, .L316+188
 1323 0966 FFF7FEFF 		bl	snprintf
 1324              	.LVL107:
 1325 096a E7E4     		b	.L102
 1326              	.L234:
 1327              		.loc 1 335 0
 1328 096c 3046     		mov	r0, r6
 1329 096e 3946     		mov	r1, r7
 1330 0970 5B4A     		ldr	r2, .L316+192
 1331 0972 FFF7FEFF 		bl	snprintf
 1332              	.LVL108:
 1333 0976 E1E4     		b	.L102
 1334              	.L233:
 1335              		.loc 1 333 0
 1336 0978 3046     		mov	r0, r6
 1337 097a 3946     		mov	r1, r7
 1338 097c 594A     		ldr	r2, .L316+196
 1339 097e FFF7FEFF 		bl	snprintf
 1340              	.LVL109:
 1341 0982 DBE4     		b	.L102
 1342              	.L232:
 1343              		.loc 1 331 0
 1344 0984 3046     		mov	r0, r6
 1345 0986 3946     		mov	r1, r7
 1346 0988 574A     		ldr	r2, .L316+200
 1347 098a FFF7FEFF 		bl	snprintf
 1348              	.LVL110:
 1349 098e D5E4     		b	.L102
 1350              	.L231:
 1351              		.loc 1 329 0
 1352 0990 3046     		mov	r0, r6
 1353 0992 3946     		mov	r1, r7
 1354 0994 554A     		ldr	r2, .L316+204
 1355 0996 FFF7FEFF 		bl	snprintf
 1356              	.LVL111:
 1357 099a CFE4     		b	.L102
 1358              	.L230:
 1359              		.loc 1 327 0
 1360 099c 3046     		mov	r0, r6
 1361 099e 3946     		mov	r1, r7
 1362 09a0 534A     		ldr	r2, .L316+208
 1363 09a2 FFF7FEFF 		bl	snprintf
 1364              	.LVL112:
 1365 09a6 C9E4     		b	.L102
 1366              	.L229:
 1367              		.loc 1 325 0
 1368 09a8 3046     		mov	r0, r6
ARM GAS  C:\Users\jo\AppData\Local\Temp\cc8kMVam.s 			page 25


 1369 09aa 3946     		mov	r1, r7
 1370 09ac 514A     		ldr	r2, .L316+212
 1371 09ae FFF7FEFF 		bl	snprintf
 1372              	.LVL113:
 1373 09b2 C3E4     		b	.L102
 1374              	.L228:
 1375              		.loc 1 323 0
 1376 09b4 3046     		mov	r0, r6
 1377 09b6 3946     		mov	r1, r7
 1378 09b8 4F4A     		ldr	r2, .L316+216
 1379 09ba FFF7FEFF 		bl	snprintf
 1380              	.LVL114:
 1381 09be BDE4     		b	.L102
 1382              	.L227:
 1383              		.loc 1 321 0
 1384 09c0 3046     		mov	r0, r6
 1385 09c2 3946     		mov	r1, r7
 1386 09c4 4D4A     		ldr	r2, .L316+220
 1387 09c6 FFF7FEFF 		bl	snprintf
 1388              	.LVL115:
 1389 09ca B7E4     		b	.L102
 1390              	.L226:
 1391              		.loc 1 319 0
 1392 09cc 3046     		mov	r0, r6
 1393 09ce 3946     		mov	r1, r7
 1394 09d0 4B4A     		ldr	r2, .L316+224
 1395 09d2 FFF7FEFF 		bl	snprintf
 1396              	.LVL116:
 1397 09d6 B1E4     		b	.L102
 1398              	.L225:
 1399              		.loc 1 317 0
 1400 09d8 3046     		mov	r0, r6
 1401 09da 3946     		mov	r1, r7
 1402 09dc 494A     		ldr	r2, .L316+228
 1403 09de FFF7FEFF 		bl	snprintf
 1404              	.LVL117:
 1405 09e2 ABE4     		b	.L102
 1406              	.L224:
 1407              		.loc 1 315 0
 1408 09e4 3046     		mov	r0, r6
 1409 09e6 3946     		mov	r1, r7
 1410 09e8 474A     		ldr	r2, .L316+232
 1411 09ea FFF7FEFF 		bl	snprintf
 1412              	.LVL118:
 1413 09ee A5E4     		b	.L102
 1414              	.L223:
 1415              		.loc 1 313 0
 1416 09f0 3046     		mov	r0, r6
 1417 09f2 3946     		mov	r1, r7
 1418 09f4 454A     		ldr	r2, .L316+236
 1419 09f6 FFF7FEFF 		bl	snprintf
 1420              	.LVL119:
 1421 09fa 9FE4     		b	.L102
 1422              	.L222:
 1423              		.loc 1 311 0
 1424 09fc 3046     		mov	r0, r6
 1425 09fe 3946     		mov	r1, r7
ARM GAS  C:\Users\jo\AppData\Local\Temp\cc8kMVam.s 			page 26


 1426 0a00 434A     		ldr	r2, .L316+240
 1427 0a02 FFF7FEFF 		bl	snprintf
 1428              	.LVL120:
 1429 0a06 99E4     		b	.L102
 1430              	.LVL121:
 1431              	.L263:
 1432              		.loc 1 424 0
 1433 0a08 3046     		mov	r0, r6
 1434 0a0a 3946     		mov	r1, r7
 1435 0a0c 414A     		ldr	r2, .L316+244
 1436 0a0e FFF7FEFF 		bl	snprintf
 1437              	.LVL122:
 1438 0a12 3FE5     		b	.L157
 1439              	.L265:
 1440              		.loc 1 431 0
 1441 0a14 3046     		mov	r0, r6
 1442 0a16 3946     		mov	r1, r7
 1443 0a18 3F4A     		ldr	r2, .L316+248
 1444 0a1a FFF7FEFF 		bl	snprintf
 1445              	.LVL123:
 1446 0a1e 39E5     		b	.L157
 1447              	.L317:
 1448              		.align	2
 1449              	.L316:
 1450 0a20 74080000 		.word	.LC46
 1451 0a24 4C080000 		.word	.LC45
 1452 0a28 20080000 		.word	.LC44
 1453 0a2c F0070000 		.word	.LC43
 1454 0a30 C8070000 		.word	.LC42
 1455 0a34 98070000 		.word	.LC41
 1456 0a38 60070000 		.word	.LC40
 1457 0a3c 24070000 		.word	.LC39
 1458 0a40 FC060000 		.word	.LC38
 1459 0a44 D4060000 		.word	.LC37
 1460 0a48 AC060000 		.word	.LC36
 1461 0a4c 080B0000 		.word	.LC58
 1462 0a50 EC140000 		.word	.LC104
 1463 0a54 F4000000 		.word	.LC5
 1464 0a58 48010000 		.word	.LC7
 1465 0a5c 1C010000 		.word	.LC6
 1466 0a60 30000000 		.word	.LC1
 1467 0a64 80000000 		.word	.LC3
 1468 0a68 5C000000 		.word	.LC2
 1469 0a6c 10140000 		.word	.LC98
 1470 0a70 E4130000 		.word	.LC97
 1471 0a74 C0130000 		.word	.LC96
 1472 0a78 9C130000 		.word	.LC95
 1473 0a7c 84130000 		.word	.LC94
 1474 0a80 58130000 		.word	.LC93
 1475 0a84 34130000 		.word	.LC92
 1476 0a88 10130000 		.word	.LC91
 1477 0a8c C00A0000 		.word	.LC57
 1478 0a90 980A0000 		.word	.LC56
 1479 0a94 C0120000 		.word	.LC90
 1480 0a98 6C120000 		.word	.LC89
 1481 0a9c 30120000 		.word	.LC88
 1482 0aa0 00120000 		.word	.LC87
ARM GAS  C:\Users\jo\AppData\Local\Temp\cc8kMVam.s 			page 27


 1483 0aa4 C4110000 		.word	.LC86
 1484 0aa8 94110000 		.word	.LC85
 1485 0aac 68110000 		.word	.LC84
 1486 0ab0 24110000 		.word	.LC83
 1487 0ab4 FC100000 		.word	.LC82
 1488 0ab8 D4100000 		.word	.LC81
 1489 0abc A4100000 		.word	.LC80
 1490 0ac0 78100000 		.word	.LC79
 1491 0ac4 44100000 		.word	.LC78
 1492 0ac8 FC0F0000 		.word	.LC77
 1493 0acc A40F0000 		.word	.LC76
 1494 0ad0 600F0000 		.word	.LC75
 1495 0ad4 280F0000 		.word	.LC74
 1496 0ad8 EC0E0000 		.word	.LC73
 1497 0adc AC0E0000 		.word	.LC72
 1498 0ae0 700E0000 		.word	.LC71
 1499 0ae4 500E0000 		.word	.LC70
 1500 0ae8 140E0000 		.word	.LC69
 1501 0aec D00D0000 		.word	.LC68
 1502 0af0 8C0D0000 		.word	.LC67
 1503 0af4 300D0000 		.word	.LC66
 1504 0af8 D80C0000 		.word	.LC65
 1505 0afc 940C0000 		.word	.LC64
 1506 0b00 500C0000 		.word	.LC63
 1507 0b04 0C0C0000 		.word	.LC62
 1508 0b08 C80B0000 		.word	.LC61
 1509 0b0c 880B0000 		.word	.LC60
 1510 0b10 480B0000 		.word	.LC59
 1511 0b14 78140000 		.word	.LC101
 1512 0b18 B4140000 		.word	.LC103
 1513              	.L264:
 1514              		.loc 1 426 0
 1515 0b1c 3046     		mov	r0, r6
 1516 0b1e 3946     		mov	r1, r7
 1517 0b20 974A     		ldr	r2, .L318
 1518 0b22 FFF7FEFF 		bl	snprintf
 1519              	.LVL124:
 1520 0b26 B5E4     		b	.L157
 1521              	.L312:
 1522              		.loc 1 585 0
 1523 0b28 3046     		mov	r0, r6
 1524 0b2a 3946     		mov	r1, r7
 1525 0b2c 954A     		ldr	r2, .L318+4
 1526 0b2e FFF7FEFF 		bl	snprintf
 1527              	.LVL125:
 1528 0b32 AFE4     		b	.L157
 1529              	.L311:
 1530              		.loc 1 580 0
 1531 0b34 3046     		mov	r0, r6
 1532 0b36 3946     		mov	r1, r7
 1533 0b38 934A     		ldr	r2, .L318+8
 1534 0b3a FFF7FEFF 		bl	snprintf
 1535              	.LVL126:
 1536 0b3e A9E4     		b	.L157
 1537              	.L310:
 1538              		.loc 1 575 0
 1539 0b40 3046     		mov	r0, r6
ARM GAS  C:\Users\jo\AppData\Local\Temp\cc8kMVam.s 			page 28


 1540 0b42 3946     		mov	r1, r7
 1541 0b44 914A     		ldr	r2, .L318+12
 1542 0b46 FFF7FEFF 		bl	snprintf
 1543              	.LVL127:
 1544 0b4a A3E4     		b	.L157
 1545              	.L309:
 1546              		.loc 1 570 0
 1547 0b4c 3046     		mov	r0, r6
 1548 0b4e 3946     		mov	r1, r7
 1549 0b50 8F4A     		ldr	r2, .L318+16
 1550 0b52 FFF7FEFF 		bl	snprintf
 1551              	.LVL128:
 1552 0b56 9DE4     		b	.L157
 1553              	.L308:
 1554              		.loc 1 560 0
 1555 0b58 3046     		mov	r0, r6
 1556 0b5a 3946     		mov	r1, r7
 1557 0b5c 8D4A     		ldr	r2, .L318+20
 1558 0b5e FFF7FEFF 		bl	snprintf
 1559              	.LVL129:
 1560 0b62 97E4     		b	.L157
 1561              	.L307:
 1562              		.loc 1 555 0
 1563 0b64 3046     		mov	r0, r6
 1564 0b66 3946     		mov	r1, r7
 1565 0b68 8B4A     		ldr	r2, .L318+24
 1566 0b6a FFF7FEFF 		bl	snprintf
 1567              	.LVL130:
 1568 0b6e 91E4     		b	.L157
 1569              	.L306:
 1570              		.loc 1 553 0
 1571 0b70 3046     		mov	r0, r6
 1572 0b72 3946     		mov	r1, r7
 1573 0b74 894A     		ldr	r2, .L318+28
 1574 0b76 FFF7FEFF 		bl	snprintf
 1575              	.LVL131:
 1576 0b7a 8BE4     		b	.L157
 1577              	.L305:
 1578              		.loc 1 551 0
 1579 0b7c 3046     		mov	r0, r6
 1580 0b7e 3946     		mov	r1, r7
 1581 0b80 874A     		ldr	r2, .L318+32
 1582 0b82 FFF7FEFF 		bl	snprintf
 1583              	.LVL132:
 1584 0b86 85E4     		b	.L157
 1585              	.L304:
 1586              		.loc 1 549 0
 1587 0b88 3046     		mov	r0, r6
 1588 0b8a 3946     		mov	r1, r7
 1589 0b8c 854A     		ldr	r2, .L318+36
 1590 0b8e FFF7FEFF 		bl	snprintf
 1591              	.LVL133:
 1592 0b92 7FE4     		b	.L157
 1593              	.L303:
 1594              		.loc 1 547 0
 1595 0b94 3046     		mov	r0, r6
 1596 0b96 3946     		mov	r1, r7
ARM GAS  C:\Users\jo\AppData\Local\Temp\cc8kMVam.s 			page 29


 1597 0b98 834A     		ldr	r2, .L318+40
 1598 0b9a FFF7FEFF 		bl	snprintf
 1599              	.LVL134:
 1600 0b9e 79E4     		b	.L157
 1601              	.L302:
 1602              		.loc 1 545 0
 1603 0ba0 3046     		mov	r0, r6
 1604 0ba2 3946     		mov	r1, r7
 1605 0ba4 814A     		ldr	r2, .L318+44
 1606 0ba6 FFF7FEFF 		bl	snprintf
 1607              	.LVL135:
 1608 0baa 73E4     		b	.L157
 1609              	.L301:
 1610              		.loc 1 543 0
 1611 0bac 3046     		mov	r0, r6
 1612 0bae 3946     		mov	r1, r7
 1613 0bb0 7F4A     		ldr	r2, .L318+48
 1614 0bb2 FFF7FEFF 		bl	snprintf
 1615              	.LVL136:
 1616 0bb6 6DE4     		b	.L157
 1617              	.L300:
 1618              		.loc 1 541 0
 1619 0bb8 3046     		mov	r0, r6
 1620 0bba 3946     		mov	r1, r7
 1621 0bbc 7D4A     		ldr	r2, .L318+52
 1622 0bbe FFF7FEFF 		bl	snprintf
 1623              	.LVL137:
 1624 0bc2 67E4     		b	.L157
 1625              	.L299:
 1626              		.loc 1 539 0
 1627 0bc4 3046     		mov	r0, r6
 1628 0bc6 3946     		mov	r1, r7
 1629 0bc8 7B4A     		ldr	r2, .L318+56
 1630 0bca FFF7FEFF 		bl	snprintf
 1631              	.LVL138:
 1632 0bce 61E4     		b	.L157
 1633              	.L298:
 1634              		.loc 1 537 0
 1635 0bd0 3046     		mov	r0, r6
 1636 0bd2 3946     		mov	r1, r7
 1637 0bd4 794A     		ldr	r2, .L318+60
 1638 0bd6 FFF7FEFF 		bl	snprintf
 1639              	.LVL139:
 1640 0bda 5BE4     		b	.L157
 1641              	.L297:
 1642              		.loc 1 535 0
 1643 0bdc 3046     		mov	r0, r6
 1644 0bde 3946     		mov	r1, r7
 1645 0be0 774A     		ldr	r2, .L318+64
 1646 0be2 FFF7FEFF 		bl	snprintf
 1647              	.LVL140:
 1648 0be6 55E4     		b	.L157
 1649              	.L296:
 1650              		.loc 1 530 0
 1651 0be8 3046     		mov	r0, r6
 1652 0bea 3946     		mov	r1, r7
 1653 0bec 754A     		ldr	r2, .L318+68
ARM GAS  C:\Users\jo\AppData\Local\Temp\cc8kMVam.s 			page 30


 1654 0bee FFF7FEFF 		bl	snprintf
 1655              	.LVL141:
 1656 0bf2 4FE4     		b	.L157
 1657              	.L295:
 1658              		.loc 1 515 0
 1659 0bf4 3046     		mov	r0, r6
 1660 0bf6 3946     		mov	r1, r7
 1661 0bf8 734A     		ldr	r2, .L318+72
 1662 0bfa FFF7FEFF 		bl	snprintf
 1663              	.LVL142:
 1664 0bfe 49E4     		b	.L157
 1665              	.L294:
 1666              		.loc 1 513 0
 1667 0c00 3046     		mov	r0, r6
 1668 0c02 3946     		mov	r1, r7
 1669 0c04 714A     		ldr	r2, .L318+76
 1670 0c06 FFF7FEFF 		bl	snprintf
 1671              	.LVL143:
 1672 0c0a 43E4     		b	.L157
 1673              	.L293:
 1674              		.loc 1 508 0
 1675 0c0c 3046     		mov	r0, r6
 1676 0c0e 3946     		mov	r1, r7
 1677 0c10 6F4A     		ldr	r2, .L318+80
 1678 0c12 FFF7FEFF 		bl	snprintf
 1679              	.LVL144:
 1680 0c16 3DE4     		b	.L157
 1681              	.L292:
 1682              		.loc 1 506 0
 1683 0c18 3046     		mov	r0, r6
 1684 0c1a 3946     		mov	r1, r7
 1685 0c1c 6D4A     		ldr	r2, .L318+84
 1686 0c1e FFF7FEFF 		bl	snprintf
 1687              	.LVL145:
 1688 0c22 37E4     		b	.L157
 1689              	.L291:
 1690              		.loc 1 504 0
 1691 0c24 3046     		mov	r0, r6
 1692 0c26 3946     		mov	r1, r7
 1693 0c28 6B4A     		ldr	r2, .L318+88
 1694 0c2a FFF7FEFF 		bl	snprintf
 1695              	.LVL146:
 1696 0c2e 31E4     		b	.L157
 1697              	.L290:
 1698              		.loc 1 499 0
 1699 0c30 3046     		mov	r0, r6
 1700 0c32 3946     		mov	r1, r7
 1701 0c34 694A     		ldr	r2, .L318+92
 1702 0c36 FFF7FEFF 		bl	snprintf
 1703              	.LVL147:
 1704 0c3a 2BE4     		b	.L157
 1705              	.L289:
 1706              		.loc 1 494 0
 1707 0c3c 3046     		mov	r0, r6
 1708 0c3e 3946     		mov	r1, r7
 1709 0c40 674A     		ldr	r2, .L318+96
 1710 0c42 FFF7FEFF 		bl	snprintf
ARM GAS  C:\Users\jo\AppData\Local\Temp\cc8kMVam.s 			page 31


 1711              	.LVL148:
 1712 0c46 25E4     		b	.L157
 1713              	.L288:
 1714              		.loc 1 492 0
 1715 0c48 3046     		mov	r0, r6
 1716 0c4a 3946     		mov	r1, r7
 1717 0c4c 654A     		ldr	r2, .L318+100
 1718 0c4e FFF7FEFF 		bl	snprintf
 1719              	.LVL149:
 1720 0c52 1FE4     		b	.L157
 1721              	.L287:
 1722              		.loc 1 490 0
 1723 0c54 3046     		mov	r0, r6
 1724 0c56 3946     		mov	r1, r7
 1725 0c58 634A     		ldr	r2, .L318+104
 1726 0c5a FFF7FEFF 		bl	snprintf
 1727              	.LVL150:
 1728 0c5e 19E4     		b	.L157
 1729              	.L286:
 1730              		.loc 1 488 0
 1731 0c60 3046     		mov	r0, r6
 1732 0c62 3946     		mov	r1, r7
 1733 0c64 614A     		ldr	r2, .L318+108
 1734 0c66 FFF7FEFF 		bl	snprintf
 1735              	.LVL151:
 1736 0c6a 13E4     		b	.L157
 1737              	.L285:
 1738              		.loc 1 483 0
 1739 0c6c 3046     		mov	r0, r6
 1740 0c6e 3946     		mov	r1, r7
 1741 0c70 5F4A     		ldr	r2, .L318+112
 1742 0c72 FFF7FEFF 		bl	snprintf
 1743              	.LVL152:
 1744 0c76 0DE4     		b	.L157
 1745              	.L284:
 1746              		.loc 1 481 0
 1747 0c78 3046     		mov	r0, r6
 1748 0c7a 3946     		mov	r1, r7
 1749 0c7c 5D4A     		ldr	r2, .L318+116
 1750 0c7e FFF7FEFF 		bl	snprintf
 1751              	.LVL153:
 1752 0c82 07E4     		b	.L157
 1753              	.L283:
 1754              		.loc 1 476 0
 1755 0c84 3046     		mov	r0, r6
 1756 0c86 3946     		mov	r1, r7
 1757 0c88 5B4A     		ldr	r2, .L318+120
 1758 0c8a FFF7FEFF 		bl	snprintf
 1759              	.LVL154:
 1760 0c8e 01E4     		b	.L157
 1761              	.L282:
 1762              		.loc 1 474 0
 1763 0c90 3046     		mov	r0, r6
 1764 0c92 3946     		mov	r1, r7
 1765 0c94 594A     		ldr	r2, .L318+124
 1766 0c96 FFF7FEFF 		bl	snprintf
 1767              	.LVL155:
ARM GAS  C:\Users\jo\AppData\Local\Temp\cc8kMVam.s 			page 32


 1768 0c9a FFF7FBBB 		b	.L157
 1769              	.L281:
 1770              		.loc 1 469 0
 1771 0c9e 3046     		mov	r0, r6
 1772 0ca0 3946     		mov	r1, r7
 1773 0ca2 574A     		ldr	r2, .L318+128
 1774 0ca4 FFF7FEFF 		bl	snprintf
 1775              	.LVL156:
 1776 0ca8 FFF7F4BB 		b	.L157
 1777              	.L280:
 1778              		.loc 1 467 0
 1779 0cac 3046     		mov	r0, r6
 1780 0cae 3946     		mov	r1, r7
 1781 0cb0 544A     		ldr	r2, .L318+132
 1782 0cb2 FFF7FEFF 		bl	snprintf
 1783              	.LVL157:
 1784 0cb6 FFF7EDBB 		b	.L157
 1785              	.L279:
 1786              		.loc 1 465 0
 1787 0cba 3046     		mov	r0, r6
 1788 0cbc 3946     		mov	r1, r7
 1789 0cbe 524A     		ldr	r2, .L318+136
 1790 0cc0 FFF7FEFF 		bl	snprintf
 1791              	.LVL158:
 1792 0cc4 FFF7E6BB 		b	.L157
 1793              	.L278:
 1794              		.loc 1 463 0
 1795 0cc8 3046     		mov	r0, r6
 1796 0cca 3946     		mov	r1, r7
 1797 0ccc 4F4A     		ldr	r2, .L318+140
 1798 0cce FFF7FEFF 		bl	snprintf
 1799              	.LVL159:
 1800 0cd2 FFF7DFBB 		b	.L157
 1801              	.L277:
 1802              		.loc 1 461 0
 1803 0cd6 3046     		mov	r0, r6
 1804 0cd8 3946     		mov	r1, r7
 1805 0cda 4D4A     		ldr	r2, .L318+144
 1806 0cdc FFF7FEFF 		bl	snprintf
 1807              	.LVL160:
 1808 0ce0 FFF7D8BB 		b	.L157
 1809              	.L276:
 1810              		.loc 1 459 0
 1811 0ce4 3046     		mov	r0, r6
 1812 0ce6 3946     		mov	r1, r7
 1813 0ce8 4A4A     		ldr	r2, .L318+148
 1814 0cea FFF7FEFF 		bl	snprintf
 1815              	.LVL161:
 1816 0cee FFF7D1BB 		b	.L157
 1817              	.L275:
 1818              		.loc 1 457 0
 1819 0cf2 3046     		mov	r0, r6
 1820 0cf4 3946     		mov	r1, r7
 1821 0cf6 484A     		ldr	r2, .L318+152
 1822 0cf8 FFF7FEFF 		bl	snprintf
 1823              	.LVL162:
 1824 0cfc FFF7CABB 		b	.L157
ARM GAS  C:\Users\jo\AppData\Local\Temp\cc8kMVam.s 			page 33


 1825              	.L274:
 1826              		.loc 1 455 0
 1827 0d00 3046     		mov	r0, r6
 1828 0d02 3946     		mov	r1, r7
 1829 0d04 454A     		ldr	r2, .L318+156
 1830 0d06 FFF7FEFF 		bl	snprintf
 1831              	.LVL163:
 1832 0d0a FFF7C3BB 		b	.L157
 1833              	.L273:
 1834              		.loc 1 450 0
 1835 0d0e 3046     		mov	r0, r6
 1836 0d10 3946     		mov	r1, r7
 1837 0d12 434A     		ldr	r2, .L318+160
 1838 0d14 FFF7FEFF 		bl	snprintf
 1839              	.LVL164:
 1840 0d18 FFF7BCBB 		b	.L157
 1841              	.L272:
 1842              		.loc 1 448 0
 1843 0d1c 3046     		mov	r0, r6
 1844 0d1e 3946     		mov	r1, r7
 1845 0d20 404A     		ldr	r2, .L318+164
 1846 0d22 FFF7FEFF 		bl	snprintf
 1847              	.LVL165:
 1848 0d26 FFF7B5BB 		b	.L157
 1849              	.L271:
 1850              		.loc 1 443 0
 1851 0d2a 3046     		mov	r0, r6
 1852 0d2c 3946     		mov	r1, r7
 1853 0d2e 3E4A     		ldr	r2, .L318+168
 1854 0d30 FFF7FEFF 		bl	snprintf
 1855              	.LVL166:
 1856 0d34 FFF7AEBB 		b	.L157
 1857              	.L270:
 1858              		.loc 1 441 0
 1859 0d38 3046     		mov	r0, r6
 1860 0d3a 3946     		mov	r1, r7
 1861 0d3c 3B4A     		ldr	r2, .L318+172
 1862 0d3e FFF7FEFF 		bl	snprintf
 1863              	.LVL167:
 1864 0d42 FFF7A7BB 		b	.L157
 1865              	.L269:
 1866              		.loc 1 439 0
 1867 0d46 3046     		mov	r0, r6
 1868 0d48 3946     		mov	r1, r7
 1869 0d4a 394A     		ldr	r2, .L318+176
 1870 0d4c FFF7FEFF 		bl	snprintf
 1871              	.LVL168:
 1872 0d50 FFF7A0BB 		b	.L157
 1873              	.L268:
 1874              		.loc 1 437 0
 1875 0d54 3046     		mov	r0, r6
 1876 0d56 3946     		mov	r1, r7
 1877 0d58 364A     		ldr	r2, .L318+180
 1878 0d5a FFF7FEFF 		bl	snprintf
 1879              	.LVL169:
 1880 0d5e FFF799BB 		b	.L157
 1881              	.L267:
ARM GAS  C:\Users\jo\AppData\Local\Temp\cc8kMVam.s 			page 34


 1882              		.loc 1 435 0
 1883 0d62 3046     		mov	r0, r6
 1884 0d64 3946     		mov	r1, r7
 1885 0d66 344A     		ldr	r2, .L318+184
 1886 0d68 FFF7FEFF 		bl	snprintf
 1887              	.LVL170:
 1888 0d6c FFF792BB 		b	.L157
 1889              	.LVL171:
 1890              	.L218:
 1891              		.loc 1 301 0
 1892 0d70 3046     		mov	r0, r6
 1893 0d72 3946     		mov	r1, r7
 1894 0d74 314A     		ldr	r2, .L318+188
 1895              		.loc 1 592 0
 1896 0d76 BDE8F041 		pop	{r4, r5, r6, r7, r8, lr}
 1897              		.cfi_restore 14
 1898              		.cfi_restore 8
 1899              		.cfi_restore 7
 1900              		.cfi_restore 6
 1901              		.cfi_restore 5
 1902              		.cfi_restore 4
 1903              		.cfi_def_cfa_offset 0
 1904              	.LVL172:
 1905              		.loc 1 301 0
 1906 0d7a FFF7FEBF 		b	snprintf
 1907              	.LVL173:
 1908              	.L319:
 1909 0d7e 00BF     		.align	2
 1910              	.L318:
 1911 0d80 94140000 		.word	.LC102
 1912 0d84 F01C0000 		.word	.LC150
 1913 0d88 D01C0000 		.word	.LC149
 1914 0d8c B01C0000 		.word	.LC148
 1915 0d90 901C0000 		.word	.LC147
 1916 0d94 681C0000 		.word	.LC146
 1917 0d98 401C0000 		.word	.LC145
 1918 0d9c 181C0000 		.word	.LC144
 1919 0da0 F41B0000 		.word	.LC143
 1920 0da4 C01B0000 		.word	.LC142
 1921 0da8 8C1B0000 		.word	.LC141
 1922 0dac 5C1B0000 		.word	.LC140
 1923 0db0 341B0000 		.word	.LC139
 1924 0db4 101B0000 		.word	.LC138
 1925 0db8 D81A0000 		.word	.LC137
 1926 0dbc B81A0000 		.word	.LC136
 1927 0dc0 7C1A0000 		.word	.LC135
 1928 0dc4 5C1A0000 		.word	.LC134
 1929 0dc8 341A0000 		.word	.LC133
 1930 0dcc 0C1A0000 		.word	.LC132
 1931 0dd0 DC190000 		.word	.LC131
 1932 0dd4 B4190000 		.word	.LC130
 1933 0dd8 88190000 		.word	.LC129
 1934 0ddc 5C190000 		.word	.LC128
 1935 0de0 38190000 		.word	.LC127
 1936 0de4 04190000 		.word	.LC126
 1937 0de8 D0180000 		.word	.LC125
 1938 0dec A8180000 		.word	.LC124
ARM GAS  C:\Users\jo\AppData\Local\Temp\cc8kMVam.s 			page 35


 1939 0df0 80180000 		.word	.LC123
 1940 0df4 60180000 		.word	.LC122
 1941 0df8 38180000 		.word	.LC121
 1942 0dfc 18180000 		.word	.LC120
 1943 0e00 F4170000 		.word	.LC119
 1944 0e04 C4170000 		.word	.LC118
 1945 0e08 7C170000 		.word	.LC117
 1946 0e0c 34170000 		.word	.LC116
 1947 0e10 04170000 		.word	.LC115
 1948 0e14 C8160000 		.word	.LC114
 1949 0e18 9C160000 		.word	.LC113
 1950 0e1c 58160000 		.word	.LC112
 1951 0e20 34160000 		.word	.LC111
 1952 0e24 10160000 		.word	.LC110
 1953 0e28 D4150000 		.word	.LC109
 1954 0e2c B4150000 		.word	.LC108
 1955 0e30 90150000 		.word	.LC107
 1956 0e34 5C150000 		.word	.LC106
 1957 0e38 18150000 		.word	.LC105
 1958 0e3c 600A0000 		.word	.LC55
 1959              		.cfi_endproc
 1960              	.LFE11:
 1961              		.size	error_strerror, .-error_strerror
 1962              		.section	.rodata.str1.4,"aMS",%progbits,1
 1963              		.align	2
 1964              	.LC0:
 1965 0000 43495048 		.ascii	"CIPHER - The selected feature is not available\000"
 1965      4552202D 
 1965      20546865 
 1965      2073656C 
 1965      65637465 
 1966 002f 00       		.space	1
 1967              	.LC1:
 1968 0030 43495048 		.ascii	"CIPHER - Bad input parameters to function\000"
 1968      4552202D 
 1968      20426164 
 1968      20696E70 
 1968      75742070 
 1969 005a 0000     		.space	2
 1970              	.LC2:
 1971 005c 43495048 		.ascii	"CIPHER - Failed to allocate memory\000"
 1971      4552202D 
 1971      20466169 
 1971      6C656420 
 1971      746F2061 
 1972 007f 00       		.space	1
 1973              	.LC3:
 1974 0080 43495048 		.ascii	"CIPHER - Input data contains invalid padding and is"
 1974      4552202D 
 1974      20496E70 
 1974      75742064 
 1974      61746120 
 1975 00b3 2072656A 		.ascii	" rejected\000"
 1975      65637465 
 1975      6400
 1976 00bd 000000   		.space	3
 1977              	.LC4:
ARM GAS  C:\Users\jo\AppData\Local\Temp\cc8kMVam.s 			page 36


 1978 00c0 43495048 		.ascii	"CIPHER - Decryption of block requires a full block\000"
 1978      4552202D 
 1978      20446563 
 1978      72797074 
 1978      696F6E20 
 1979 00f3 00       		.space	1
 1980              	.LC5:
 1981 00f4 44484D20 		.ascii	"DHM - Bad input parameters to function\000"
 1981      2D204261 
 1981      6420696E 
 1981      70757420 
 1981      70617261 
 1982 011b 00       		.space	1
 1983              	.LC6:
 1984 011c 44484D20 		.ascii	"DHM - Reading of the DHM parameters failed\000"
 1984      2D205265 
 1984      6164696E 
 1984      67206F66 
 1984      20746865 
 1985 0147 00       		.space	1
 1986              	.LC7:
 1987 0148 44484D20 		.ascii	"DHM - Making of the DHM parameters failed\000"
 1987      2D204D61 
 1987      6B696E67 
 1987      206F6620 
 1987      74686520 
 1988 0172 0000     		.space	2
 1989              	.LC8:
 1990 0174 44484D20 		.ascii	"DHM - Reading of the public values failed\000"
 1990      2D205265 
 1990      6164696E 
 1990      67206F66 
 1990      20746865 
 1991 019e 0000     		.space	2
 1992              	.LC9:
 1993 01a0 44484D20 		.ascii	"DHM - Making of the public value failed\000"
 1993      2D204D61 
 1993      6B696E67 
 1993      206F6620 
 1993      74686520 
 1994              	.LC10:
 1995 01c8 44484D20 		.ascii	"DHM - Calculation of the DHM secret failed\000"
 1995      2D204361 
 1995      6C63756C 
 1995      6174696F 
 1995      6E206F66 
 1996 01f3 00       		.space	1
 1997              	.LC11:
 1998 01f4 4D44202D 		.ascii	"MD - The selected feature is not available\000"
 1998      20546865 
 1998      2073656C 
 1998      65637465 
 1998      64206665 
 1999 021f 00       		.space	1
 2000              	.LC12:
 2001 0220 4D44202D 		.ascii	"MD - Bad input parameters to function\000"
 2001      20426164 
ARM GAS  C:\Users\jo\AppData\Local\Temp\cc8kMVam.s 			page 37


 2001      20696E70 
 2001      75742070 
 2001      6172616D 
 2002 0246 0000     		.space	2
 2003              	.LC13:
 2004 0248 4D44202D 		.ascii	"MD - Failed to allocate memory\000"
 2004      20466169 
 2004      6C656420 
 2004      746F2061 
 2004      6C6C6F63 
 2005 0267 00       		.space	1
 2006              	.LC14:
 2007 0268 4D44202D 		.ascii	"MD - Opening or reading of file failed\000"
 2007      204F7065 
 2007      6E696E67 
 2007      206F7220 
 2007      72656164 
 2008 028f 00       		.space	1
 2009              	.LC15:
 2010 0290 50454D20 		.ascii	"PEM - No PEM header or footer found\000"
 2010      2D204E6F 
 2010      2050454D 
 2010      20686561 
 2010      64657220 
 2011              	.LC16:
 2012 02b4 50454D20 		.ascii	"PEM - PEM string is not as expected\000"
 2012      2D205045 
 2012      4D207374 
 2012      72696E67 
 2012      20697320 
 2013              	.LC17:
 2014 02d8 50454D20 		.ascii	"PEM - Failed to allocate memory\000"
 2014      2D204661 
 2014      696C6564 
 2014      20746F20 
 2014      616C6C6F 
 2015              	.LC18:
 2016 02f8 50454D20 		.ascii	"PEM - RSA IV is not in hex-format\000"
 2016      2D205253 
 2016      41204956 
 2016      20697320 
 2016      6E6F7420 
 2017 031a 0000     		.space	2
 2018              	.LC19:
 2019 031c 50454D20 		.ascii	"PEM - Unsupported key encryption algorithm\000"
 2019      2D20556E 
 2019      73757070 
 2019      6F727465 
 2019      64206B65 
 2020 0347 00       		.space	1
 2021              	.LC20:
 2022 0348 50454D20 		.ascii	"PEM - Private key password can't be empty\000"
 2022      2D205072 
 2022      69766174 
 2022      65206B65 
 2022      79207061 
 2023 0372 0000     		.space	2
ARM GAS  C:\Users\jo\AppData\Local\Temp\cc8kMVam.s 			page 38


 2024              	.LC21:
 2025 0374 50454D20 		.ascii	"PEM - Given private key password does not allow for"
 2025      2D204769 
 2025      76656E20 
 2025      70726976 
 2025      61746520 
 2026 03a7 20636F72 		.ascii	" correct decryption\000"
 2026      72656374 
 2026      20646563 
 2026      72797074 
 2026      696F6E00 
 2027 03bb 00       		.space	1
 2028              	.LC22:
 2029 03bc 50454D20 		.ascii	"PEM - Unavailable feature, e.g. hashing/encryption "
 2029      2D20556E 
 2029      61766169 
 2029      6C61626C 
 2029      65206665 
 2030 03ef 636F6D62 		.ascii	"combination\000"
 2030      696E6174 
 2030      696F6E00 
 2031 03fb 00       		.space	1
 2032              	.LC23:
 2033 03fc 50454D20 		.ascii	"PEM - Bad input parameters to function\000"
 2033      2D204261 
 2033      6420696E 
 2033      70757420 
 2033      70617261 
 2034 0423 00       		.space	1
 2035              	.LC24:
 2036 0424 504B4353 		.ascii	"PKCS12 - Bad input parameters to function\000"
 2036      3132202D 
 2036      20426164 
 2036      20696E70 
 2036      75742070 
 2037 044e 0000     		.space	2
 2038              	.LC25:
 2039 0450 504B4353 		.ascii	"PKCS12 - Feature not available, e.g. unsupported en"
 2039      3132202D 
 2039      20466561 
 2039      74757265 
 2039      206E6F74 
 2040 0483 63727970 		.ascii	"cryption scheme\000"
 2040      74696F6E 
 2040      20736368 
 2040      656D6500 
 2041 0493 00       		.space	1
 2042              	.LC26:
 2043 0494 504B4353 		.ascii	"PKCS12 - PBE ASN.1 data not as expected\000"
 2043      3132202D 
 2043      20504245 
 2043      2041534E 
 2043      2E312064 
 2044              	.LC27:
 2045 04bc 504B4353 		.ascii	"PKCS12 - Given private key password does not allow "
 2045      3132202D 
 2045      20476976 
ARM GAS  C:\Users\jo\AppData\Local\Temp\cc8kMVam.s 			page 39


 2045      656E2070 
 2045      72697661 
 2046 04ef 666F7220 		.ascii	"for correct decryption\000"
 2046      636F7272 
 2046      65637420 
 2046      64656372 
 2046      79707469 
 2047 0506 0000     		.space	2
 2048              	.LC28:
 2049 0508 504B4353 		.ascii	"PKCS5 - Bad input parameters to function\000"
 2049      35202D20 
 2049      42616420 
 2049      696E7075 
 2049      74207061 
 2050 0531 000000   		.space	3
 2051              	.LC29:
 2052 0534 504B4353 		.ascii	"PKCS5 - Unexpected ASN.1 data\000"
 2052      35202D20 
 2052      556E6578 
 2052      70656374 
 2052      65642041 
 2053 0552 0000     		.space	2
 2054              	.LC30:
 2055 0554 504B4353 		.ascii	"PKCS5 - Requested encryption or digest alg not avai"
 2055      35202D20 
 2055      52657175 
 2055      65737465 
 2055      6420656E 
 2056 0587 6C61626C 		.ascii	"lable\000"
 2056      6500
 2057 058d 000000   		.space	3
 2058              	.LC31:
 2059 0590 504B4353 		.ascii	"PKCS5 - Given private key password does not allow f"
 2059      35202D20 
 2059      47697665 
 2059      6E207072 
 2059      69766174 
 2060 05c3 6F722063 		.ascii	"or correct decryption\000"
 2060      6F727265 
 2060      63742064 
 2060      65637279 
 2060      7074696F 
 2061 05d9 000000   		.space	3
 2062              	.LC32:
 2063 05dc 52534120 		.ascii	"RSA - Bad input parameters to function\000"
 2063      2D204261 
 2063      6420696E 
 2063      70757420 
 2063      70617261 
 2064 0603 00       		.space	1
 2065              	.LC33:
 2066 0604 52534120 		.ascii	"RSA - Input data contains invalid padding and is re"
 2066      2D20496E 
 2066      70757420 
 2066      64617461 
 2066      20636F6E 
 2067 0637 6A656374 		.ascii	"jected\000"
ARM GAS  C:\Users\jo\AppData\Local\Temp\cc8kMVam.s 			page 40


 2067      656400
 2068 063e 0000     		.space	2
 2069              	.LC34:
 2070 0640 52534120 		.ascii	"RSA - Something failed during generation of a key\000"
 2070      2D20536F 
 2070      6D657468 
 2070      696E6720 
 2070      6661696C 
 2071 0672 0000     		.space	2
 2072              	.LC35:
 2073 0674 52534120 		.ascii	"RSA - Key failed to pass the libraries validity che"
 2073      2D204B65 
 2073      79206661 
 2073      696C6564 
 2073      20746F20 
 2074 06a7 636B00   		.ascii	"ck\000"
 2075 06aa 0000     		.space	2
 2076              	.LC36:
 2077 06ac 52534120 		.ascii	"RSA - The public key operation failed\000"
 2077      2D205468 
 2077      65207075 
 2077      626C6963 
 2077      206B6579 
 2078 06d2 0000     		.space	2
 2079              	.LC37:
 2080 06d4 52534120 		.ascii	"RSA - The private key operation failed\000"
 2080      2D205468 
 2080      65207072 
 2080      69766174 
 2080      65206B65 
 2081 06fb 00       		.space	1
 2082              	.LC38:
 2083 06fc 52534120 		.ascii	"RSA - The PKCS#1 verification failed\000"
 2083      2D205468 
 2083      6520504B 
 2083      43532331 
 2083      20766572 
 2084 0721 000000   		.space	3
 2085              	.LC39:
 2086 0724 52534120 		.ascii	"RSA - The output buffer for decryption is not large"
 2086      2D205468 
 2086      65206F75 
 2086      74707574 
 2086      20627566 
 2087 0757 20656E6F 		.ascii	" enough\000"
 2087      75676800 
 2088 075f 00       		.space	1
 2089              	.LC40:
 2090 0760 52534120 		.ascii	"RSA - The random generator failed to generate non-z"
 2090      2D205468 
 2090      65207261 
 2090      6E646F6D 
 2090      2067656E 
 2091 0793 65726F73 		.ascii	"eros\000"
 2091      00
 2092              	.LC41:
 2093 0798 53534C20 		.ascii	"SSL - The requested feature is not available\000"
ARM GAS  C:\Users\jo\AppData\Local\Temp\cc8kMVam.s 			page 41


 2093      2D205468 
 2093      65207265 
 2093      71756573 
 2093      74656420 
 2094 07c5 000000   		.space	3
 2095              	.LC42:
 2096 07c8 53534C20 		.ascii	"SSL - Bad input parameters to function\000"
 2096      2D204261 
 2096      6420696E 
 2096      70757420 
 2096      70617261 
 2097 07ef 00       		.space	1
 2098              	.LC43:
 2099 07f0 53534C20 		.ascii	"SSL - Verification of the message MAC failed\000"
 2099      2D205665 
 2099      72696669 
 2099      63617469 
 2099      6F6E206F 
 2100 081d 000000   		.space	3
 2101              	.LC44:
 2102 0820 53534C20 		.ascii	"SSL - An invalid SSL record was received\000"
 2102      2D20416E 
 2102      20696E76 
 2102      616C6964 
 2102      2053534C 
 2103 0849 000000   		.space	3
 2104              	.LC45:
 2105 084c 53534C20 		.ascii	"SSL - The connection indicated an EOF\000"
 2105      2D205468 
 2105      6520636F 
 2105      6E6E6563 
 2105      74696F6E 
 2106 0872 0000     		.space	2
 2107              	.LC46:
 2108 0874 53534C20 		.ascii	"SSL - An unknown cipher was received\000"
 2108      2D20416E 
 2108      20756E6B 
 2108      6E6F776E 
 2108      20636970 
 2109 0899 000000   		.space	3
 2110              	.LC47:
 2111 089c 53534C20 		.ascii	"SSL - The server has no ciphersuites in common with"
 2111      2D205468 
 2111      65207365 
 2111      72766572 
 2111      20686173 
 2112 08cf 20746865 		.ascii	" the client\000"
 2112      20636C69 
 2112      656E7400 
 2113 08db 00       		.space	1
 2114              	.LC48:
 2115 08dc 53534C20 		.ascii	"SSL - No session to recover was found\000"
 2115      2D204E6F 
 2115      20736573 
 2115      73696F6E 
 2115      20746F20 
 2116 0902 0000     		.space	2
ARM GAS  C:\Users\jo\AppData\Local\Temp\cc8kMVam.s 			page 42


 2117              	.LC49:
 2118 0904 53534C20 		.ascii	"SSL - No client certification received from the cli"
 2118      2D204E6F 
 2118      20636C69 
 2118      656E7420 
 2118      63657274 
 2119 0937 656E742C 		.ascii	"ent, but required by the authentication mode\000"
 2119      20627574 
 2119      20726571 
 2119      75697265 
 2119      64206279 
 2120              	.LC50:
 2121 0964 53534C20 		.ascii	"SSL - DESCRIPTION MISSING\000"
 2121      2D204445 
 2121      53435249 
 2121      5054494F 
 2121      4E204D49 
 2122 097e 0000     		.space	2
 2123              	.LC51:
 2124 0980 53534C20 		.ascii	"SSL - The own certificate is not set, but needed by"
 2124      2D205468 
 2124      65206F77 
 2124      6E206365 
 2124      72746966 
 2125 09b3 20746865 		.ascii	" the server\000"
 2125      20736572 
 2125      76657200 
 2126 09bf 00       		.space	1
 2127              	.LC52:
 2128 09c0 53534C20 		.ascii	"SSL - The own private key is not set, but needed\000"
 2128      2D205468 
 2128      65206F77 
 2128      6E207072 
 2128      69766174 
 2129 09f1 000000   		.space	3
 2130              	.LC53:
 2131 09f4 53534C20 		.ascii	"SSL - No CA Chain is set, but required to operate\000"
 2131      2D204E6F 
 2131      20434120 
 2131      43686169 
 2131      6E206973 
 2132 0a26 0000     		.space	2
 2133              	.LC54:
 2134 0a28 53534C20 		.ascii	"SSL - An unexpected message was received from our p"
 2134      2D20416E 
 2134      20756E65 
 2134      78706563 
 2134      74656420 
 2135 0a5b 65657200 		.ascii	"eer\000"
 2136 0a5f 00       		.space	1
 2137              	.LC55:
 2138 0a60 53534C20 		.ascii	"SSL - A fatal alert message was received from our p"
 2138      2D204120 
 2138      66617461 
 2138      6C20616C 
 2138      65727420 
 2139 0a93 65657200 		.ascii	"eer\000"
ARM GAS  C:\Users\jo\AppData\Local\Temp\cc8kMVam.s 			page 43


 2140 0a97 00       		.space	1
 2141              	.LC56:
 2142 0a98 53534C20 		.ascii	"SSL - Verification of our peer failed\000"
 2142      2D205665 
 2142      72696669 
 2142      63617469 
 2142      6F6E206F 
 2143 0abe 0000     		.space	2
 2144              	.LC57:
 2145 0ac0 53534C20 		.ascii	"SSL - The peer notified us that the connection is g"
 2145      2D205468 
 2145      65207065 
 2145      6572206E 
 2145      6F746966 
 2146 0af3 6F696E67 		.ascii	"oing to be closed\000"
 2146      20746F20 
 2146      62652063 
 2146      6C6F7365 
 2146      6400
 2147 0b05 000000   		.space	3
 2148              	.LC58:
 2149 0b08 53534C20 		.ascii	"SSL - Processing of the ClientHello handshake messa"
 2149      2D205072 
 2149      6F636573 
 2149      73696E67 
 2149      206F6620 
 2150 0b3b 67652066 		.ascii	"ge failed\000"
 2150      61696C65 
 2150      6400
 2151 0b45 000000   		.space	3
 2152              	.LC59:
 2153 0b48 53534C20 		.ascii	"SSL - Processing of the ServerHello handshake messa"
 2153      2D205072 
 2153      6F636573 
 2153      73696E67 
 2153      206F6620 
 2154 0b7b 67652066 		.ascii	"ge failed\000"
 2154      61696C65 
 2154      6400
 2155 0b85 000000   		.space	3
 2156              	.LC60:
 2157 0b88 53534C20 		.ascii	"SSL - Processing of the Certificate handshake messa"
 2157      2D205072 
 2157      6F636573 
 2157      73696E67 
 2157      206F6620 
 2158 0bbb 67652066 		.ascii	"ge failed\000"
 2158      61696C65 
 2158      6400
 2159 0bc5 000000   		.space	3
 2160              	.LC61:
 2161 0bc8 53534C20 		.ascii	"SSL - Processing of the CertificateRequest handshak"
 2161      2D205072 
 2161      6F636573 
 2161      73696E67 
 2161      206F6620 
 2162 0bfb 65206D65 		.ascii	"e message failed\000"
ARM GAS  C:\Users\jo\AppData\Local\Temp\cc8kMVam.s 			page 44


 2162      73736167 
 2162      65206661 
 2162      696C6564 
 2162      00
 2163              	.LC62:
 2164 0c0c 53534C20 		.ascii	"SSL - Processing of the ServerKeyExchange handshake"
 2164      2D205072 
 2164      6F636573 
 2164      73696E67 
 2164      206F6620 
 2165 0c3f 206D6573 		.ascii	" message failed\000"
 2165      73616765 
 2165      20666169 
 2165      6C656400 
 2166 0c4f 00       		.space	1
 2167              	.LC63:
 2168 0c50 53534C20 		.ascii	"SSL - Processing of the ServerHelloDone handshake m"
 2168      2D205072 
 2168      6F636573 
 2168      73696E67 
 2168      206F6620 
 2169 0c83 65737361 		.ascii	"essage failed\000"
 2169      67652066 
 2169      61696C65 
 2169      6400
 2170 0c91 000000   		.space	3
 2171              	.LC64:
 2172 0c94 53534C20 		.ascii	"SSL - Processing of the ClientKeyExchange handshake"
 2172      2D205072 
 2172      6F636573 
 2172      73696E67 
 2172      206F6620 
 2173 0cc7 206D6573 		.ascii	" message failed\000"
 2173      73616765 
 2173      20666169 
 2173      6C656400 
 2174 0cd7 00       		.space	1
 2175              	.LC65:
 2176 0cd8 53534C20 		.ascii	"SSL - Processing of the ClientKeyExchange handshake"
 2176      2D205072 
 2176      6F636573 
 2176      73696E67 
 2176      206F6620 
 2177 0d0b 206D6573 		.ascii	" message failed in DHM Read Public\000"
 2177      73616765 
 2177      20666169 
 2177      6C656420 
 2177      696E2044 
 2178 0d2e 0000     		.space	2
 2179              	.LC66:
 2180 0d30 53534C20 		.ascii	"SSL - Processing of the ClientKeyExchange handshake"
 2180      2D205072 
 2180      6F636573 
 2180      73696E67 
 2180      206F6620 
 2181 0d63 206D6573 		.ascii	" message failed in DHM Calculate Secret\000"
 2181      73616765 
ARM GAS  C:\Users\jo\AppData\Local\Temp\cc8kMVam.s 			page 45


 2181      20666169 
 2181      6C656420 
 2181      696E2044 
 2182 0d8b 00       		.space	1
 2183              	.LC67:
 2184 0d8c 53534C20 		.ascii	"SSL - Processing of the CertificateVerify handshake"
 2184      2D205072 
 2184      6F636573 
 2184      73696E67 
 2184      206F6620 
 2185 0dbf 206D6573 		.ascii	" message failed\000"
 2185      73616765 
 2185      20666169 
 2185      6C656400 
 2186 0dcf 00       		.space	1
 2187              	.LC68:
 2188 0dd0 53534C20 		.ascii	"SSL - Processing of the ChangeCipherSpec handshake "
 2188      2D205072 
 2188      6F636573 
 2188      73696E67 
 2188      206F6620 
 2189 0e03 6D657373 		.ascii	"message failed\000"
 2189      61676520 
 2189      6661696C 
 2189      656400
 2190 0e12 0000     		.space	2
 2191              	.LC69:
 2192 0e14 53534C20 		.ascii	"SSL - Processing of the Finished handshake message "
 2192      2D205072 
 2192      6F636573 
 2192      73696E67 
 2192      206F6620 
 2193 0e47 6661696C 		.ascii	"failed\000"
 2193      656400
 2194 0e4e 0000     		.space	2
 2195              	.LC70:
 2196 0e50 53534C20 		.ascii	"SSL - Memory allocation failed\000"
 2196      2D204D65 
 2196      6D6F7279 
 2196      20616C6C 
 2196      6F636174 
 2197 0e6f 00       		.space	1
 2198              	.LC71:
 2199 0e70 53534C20 		.ascii	"SSL - Hardware acceleration function returned with "
 2199      2D204861 
 2199      72647761 
 2199      72652061 
 2199      6363656C 
 2200 0ea3 6572726F 		.ascii	"error\000"
 2200      7200
 2201 0ea9 000000   		.space	3
 2202              	.LC72:
 2203 0eac 53534C20 		.ascii	"SSL - Hardware acceleration function skipped / left"
 2203      2D204861 
 2203      72647761 
 2203      72652061 
 2203      6363656C 
ARM GAS  C:\Users\jo\AppData\Local\Temp\cc8kMVam.s 			page 46


 2204 0edf 20616C6F 		.ascii	" alone data\000"
 2204      6E652064 
 2204      61746100 
 2205 0eeb 00       		.space	1
 2206              	.LC73:
 2207 0eec 53534C20 		.ascii	"SSL - Processing of the compression / decompression"
 2207      2D205072 
 2207      6F636573 
 2207      73696E67 
 2207      206F6620 
 2208 0f1f 20666169 		.ascii	" failed\000"
 2208      6C656400 
 2209 0f27 00       		.space	1
 2210              	.LC74:
 2211 0f28 53534C20 		.ascii	"SSL - Handshake protocol not within min/max boundar"
 2211      2D204861 
 2211      6E647368 
 2211      616B6520 
 2211      70726F74 
 2212 0f5b 69657300 		.ascii	"ies\000"
 2213 0f5f 00       		.space	1
 2214              	.LC75:
 2215 0f60 58353039 		.ascii	"X509 - Unavailable feature, e.g. RSA hashing/encryp"
 2215      202D2055 
 2215      6E617661 
 2215      696C6162 
 2215      6C652066 
 2216 0f93 74696F6E 		.ascii	"tion combination\000"
 2216      20636F6D 
 2216      62696E61 
 2216      74696F6E 
 2216      00
 2217              	.LC76:
 2218 0fa4 58353039 		.ascii	"X509 - The PEM-encoded certificate contains invalid"
 2218      202D2054 
 2218      68652050 
 2218      454D2D65 
 2218      6E636F64 
 2219 0fd7 20656C65 		.ascii	" elements, e.g. invalid character\000"
 2219      6D656E74 
 2219      732C2065 
 2219      2E672E20 
 2219      696E7661 
 2220 0ff9 000000   		.space	3
 2221              	.LC77:
 2222 0ffc 58353039 		.ascii	"X509 - The certificate format is invalid, e.g. diff"
 2222      202D2054 
 2222      68652063 
 2222      65727469 
 2222      66696361 
 2223 102f 6572656E 		.ascii	"erent type expected\000"
 2223      74207479 
 2223      70652065 
 2223      78706563 
 2223      74656400 
 2224 1043 00       		.space	1
 2225              	.LC78:
ARM GAS  C:\Users\jo\AppData\Local\Temp\cc8kMVam.s 			page 47


 2226 1044 58353039 		.ascii	"X509 - The certificate version element is invalid\000"
 2226      202D2054 
 2226      68652063 
 2226      65727469 
 2226      66696361 
 2227 1076 0000     		.space	2
 2228              	.LC79:
 2229 1078 58353039 		.ascii	"X509 - The serial tag or value is invalid\000"
 2229      202D2054 
 2229      68652073 
 2229      65726961 
 2229      6C207461 
 2230 10a2 0000     		.space	2
 2231              	.LC80:
 2232 10a4 58353039 		.ascii	"X509 - The algorithm tag or value is invalid\000"
 2232      202D2054 
 2232      68652061 
 2232      6C676F72 
 2232      6974686D 
 2233 10d1 000000   		.space	3
 2234              	.LC81:
 2235 10d4 58353039 		.ascii	"X509 - The name tag or value is invalid\000"
 2235      202D2054 
 2235      6865206E 
 2235      616D6520 
 2235      74616720 
 2236              	.LC82:
 2237 10fc 58353039 		.ascii	"X509 - The date tag or value is invalid\000"
 2237      202D2054 
 2237      68652064 
 2237      61746520 
 2237      74616720 
 2238              	.LC83:
 2239 1124 58353039 		.ascii	"X509 - The pubkey tag or value is invalid (only RSA"
 2239      202D2054 
 2239      68652070 
 2239      75626B65 
 2239      79207461 
 2240 1157 20697320 		.ascii	" is supported)\000"
 2240      73757070 
 2240      6F727465 
 2240      642900
 2241 1166 0000     		.space	2
 2242              	.LC84:
 2243 1168 58353039 		.ascii	"X509 - The signature tag or value invalid\000"
 2243      202D2054 
 2243      68652073 
 2243      69676E61 
 2243      74757265 
 2244 1192 0000     		.space	2
 2245              	.LC85:
 2246 1194 58353039 		.ascii	"X509 - The extension tag or value is invalid\000"
 2246      202D2054 
 2246      68652065 
 2246      7874656E 
 2246      73696F6E 
 2247 11c1 000000   		.space	3
ARM GAS  C:\Users\jo\AppData\Local\Temp\cc8kMVam.s 			page 48


 2248              	.LC86:
 2249 11c4 58353039 		.ascii	"X509 - Certificate or CRL has an unsupported versio"
 2249      202D2043 
 2249      65727469 
 2249      66696361 
 2249      7465206F 
 2250 11f7 6E206E75 		.ascii	"n number\000"
 2250      6D626572 
 2250      00
 2251              	.LC87:
 2252 1200 58353039 		.ascii	"X509 - Signature algorithm (oid) is unsupported\000"
 2252      202D2053 
 2252      69676E61 
 2252      74757265 
 2252      20616C67 
 2253              	.LC88:
 2254 1230 58353039 		.ascii	"X509 - Key algorithm is unsupported (only RSA is su"
 2254      202D204B 
 2254      65792061 
 2254      6C676F72 
 2254      6974686D 
 2255 1263 70706F72 		.ascii	"pported)\000"
 2255      74656429 
 2255      00
 2256              	.LC89:
 2257 126c 58353039 		.ascii	"X509 - Certificate signature algorithms do not matc"
 2257      202D2043 
 2257      65727469 
 2257      66696361 
 2257      74652073 
 2258 129f 682E2028 		.ascii	"h. (see \\c ::x509_cert sig_oid)\000"
 2258      73656520 
 2258      5C63203A 
 2258      3A783530 
 2258      395F6365 
 2259 12bf 00       		.space	1
 2260              	.LC90:
 2261 12c0 58353039 		.ascii	"X509 - Certificate verification failed, e.g. CRL, C"
 2261      202D2043 
 2261      65727469 
 2261      66696361 
 2261      74652076 
 2262 12f3 41206F72 		.ascii	"A or signature check failed\000"
 2262      20736967 
 2262      6E617475 
 2262      72652063 
 2262      6865636B 
 2263 130f 00       		.space	1
 2264              	.LC91:
 2265 1310 58353039 		.ascii	"X509 - Unsupported RSA key version\000"
 2265      202D2055 
 2265      6E737570 
 2265      706F7274 
 2265      65642052 
 2266 1333 00       		.space	1
 2267              	.LC92:
 2268 1334 58353039 		.ascii	"X509 - Invalid RSA key tag or value\000"
ARM GAS  C:\Users\jo\AppData\Local\Temp\cc8kMVam.s 			page 49


 2268      202D2049 
 2268      6E76616C 
 2268      69642052 
 2268      5341206B 
 2269              	.LC93:
 2270 1358 58353039 		.ascii	"X509 - Format not recognized as DER or PEM\000"
 2270      202D2046 
 2270      6F726D61 
 2270      74206E6F 
 2270      74207265 
 2271 1383 00       		.space	1
 2272              	.LC94:
 2273 1384 58353039 		.ascii	"X509 - Input invalid\000"
 2273      202D2049 
 2273      6E707574 
 2273      20696E76 
 2273      616C6964 
 2274 1399 000000   		.space	3
 2275              	.LC95:
 2276 139c 58353039 		.ascii	"X509 - Allocation of memory failed\000"
 2276      202D2041 
 2276      6C6C6F63 
 2276      6174696F 
 2276      6E206F66 
 2277 13bf 00       		.space	1
 2278              	.LC96:
 2279 13c0 58353039 		.ascii	"X509 - Read/write of file failed\000"
 2279      202D2052 
 2279      6561642F 
 2279      77726974 
 2279      65206F66 
 2280 13e1 000000   		.space	3
 2281              	.LC97:
 2282 13e4 58353039 		.ascii	"X509 - Private key password can't be empty\000"
 2282      202D2050 
 2282      72697661 
 2282      7465206B 
 2282      65792070 
 2283 140f 00       		.space	1
 2284              	.LC98:
 2285 1410 58353039 		.ascii	"X509 - Given private key password does not allow fo"
 2285      202D2047 
 2285      6976656E 
 2285      20707269 
 2285      76617465 
 2286 1443 7220636F 		.ascii	"r correct decryption\000"
 2286      72726563 
 2286      74206465 
 2286      63727970 
 2286      74696F6E 
 2287              	.LC99:
 2288 1458 554E4B4E 		.ascii	"UNKNOWN ERROR CODE (%04X)\000"
 2288      4F574E20 
 2288      4552524F 
 2288      5220434F 
 2288      44452028 
 2289 1472 0000     		.space	2
ARM GAS  C:\Users\jo\AppData\Local\Temp\cc8kMVam.s 			page 50


 2290              	.LC100:
 2291 1474 203A2000 		.ascii	" : \000"
 2292              	.LC101:
 2293 1478 41455320 		.ascii	"AES - Invalid key length\000"
 2293      2D20496E 
 2293      76616C69 
 2293      64206B65 
 2293      79206C65 
 2294 1491 000000   		.space	3
 2295              	.LC102:
 2296 1494 41455320 		.ascii	"AES - Invalid data input length\000"
 2296      2D20496E 
 2296      76616C69 
 2296      64206461 
 2296      74612069 
 2297              	.LC103:
 2298 14b4 41534E31 		.ascii	"ASN1 - Out of data when parsing an ASN1 data struct"
 2298      202D204F 
 2298      7574206F 
 2298      66206461 
 2298      74612077 
 2299 14e7 75726500 		.ascii	"ure\000"
 2300 14eb 00       		.space	1
 2301              	.LC104:
 2302 14ec 41534E31 		.ascii	"ASN1 - ASN1 tag was of an unexpected value\000"
 2302      202D2041 
 2302      534E3120 
 2302      74616720 
 2302      77617320 
 2303 1517 00       		.space	1
 2304              	.LC105:
 2305 1518 41534E31 		.ascii	"ASN1 - Error when trying to determine the length or"
 2305      202D2045 
 2305      72726F72 
 2305      20776865 
 2305      6E207472 
 2306 154b 20696E76 		.ascii	" invalid length\000"
 2306      616C6964 
 2306      206C656E 
 2306      67746800 
 2307 155b 00       		.space	1
 2308              	.LC106:
 2309 155c 41534E31 		.ascii	"ASN1 - Actual length differs from expected length\000"
 2309      202D2041 
 2309      63747561 
 2309      6C206C65 
 2309      6E677468 
 2310 158e 0000     		.space	2
 2311              	.LC107:
 2312 1590 41534E31 		.ascii	"ASN1 - Data is invalid. (not used)\000"
 2312      202D2044 
 2312      61746120 
 2312      69732069 
 2312      6E76616C 
 2313 15b3 00       		.space	1
 2314              	.LC108:
 2315 15b4 41534E31 		.ascii	"ASN1 - Memory allocation failed\000"
ARM GAS  C:\Users\jo\AppData\Local\Temp\cc8kMVam.s 			page 51


 2315      202D204D 
 2315      656D6F72 
 2315      7920616C 
 2315      6C6F6361 
 2316              	.LC109:
 2317 15d4 41534E31 		.ascii	"ASN1 - Buffer too small when writing ASN.1 data str"
 2317      202D2042 
 2317      75666665 
 2317      7220746F 
 2317      6F20736D 
 2318 1607 75637475 		.ascii	"ucture\000"
 2318      726500
 2319 160e 0000     		.space	2
 2320              	.LC110:
 2321 1610 42415345 		.ascii	"BASE64 - Output buffer too small\000"
 2321      3634202D 
 2321      204F7574 
 2321      70757420 
 2321      62756666 
 2322 1631 000000   		.space	3
 2323              	.LC111:
 2324 1634 42415345 		.ascii	"BASE64 - Invalid character in input\000"
 2324      3634202D 
 2324      20496E76 
 2324      616C6964 
 2324      20636861 
 2325              	.LC112:
 2326 1658 4249474E 		.ascii	"BIGNUM - An error occurred while reading from or wr"
 2326      554D202D 
 2326      20416E20 
 2326      6572726F 
 2326      72206F63 
 2327 168b 6974696E 		.ascii	"iting to a file\000"
 2327      6720746F 
 2327      20612066 
 2327      696C6500 
 2328 169b 00       		.space	1
 2329              	.LC113:
 2330 169c 4249474E 		.ascii	"BIGNUM - Bad input parameters to function\000"
 2330      554D202D 
 2330      20426164 
 2330      20696E70 
 2330      75742070 
 2331 16c6 0000     		.space	2
 2332              	.LC114:
 2333 16c8 4249474E 		.ascii	"BIGNUM - There is an invalid character in the digit"
 2333      554D202D 
 2333      20546865 
 2333      72652069 
 2333      7320616E 
 2334 16fb 20737472 		.ascii	" string\000"
 2334      696E6700 
 2335 1703 00       		.space	1
 2336              	.LC115:
 2337 1704 4249474E 		.ascii	"BIGNUM - The buffer is too small to write to\000"
 2337      554D202D 
 2337      20546865 
ARM GAS  C:\Users\jo\AppData\Local\Temp\cc8kMVam.s 			page 52


 2337      20627566 
 2337      66657220 
 2338 1731 000000   		.space	3
 2339              	.LC116:
 2340 1734 4249474E 		.ascii	"BIGNUM - The input arguments are negative or result"
 2340      554D202D 
 2340      20546865 
 2340      20696E70 
 2340      75742061 
 2341 1767 20696E20 		.ascii	" in illegal output\000"
 2341      696C6C65 
 2341      67616C20 
 2341      6F757470 
 2341      757400
 2342 177a 0000     		.space	2
 2343              	.LC117:
 2344 177c 4249474E 		.ascii	"BIGNUM - The input argument for division is zero, w"
 2344      554D202D 
 2344      20546865 
 2344      20696E70 
 2344      75742061 
 2345 17af 68696368 		.ascii	"hich is not allowed\000"
 2345      20697320 
 2345      6E6F7420 
 2345      616C6C6F 
 2345      77656400 
 2346 17c3 00       		.space	1
 2347              	.LC118:
 2348 17c4 4249474E 		.ascii	"BIGNUM - The input arguments are not acceptable\000"
 2348      554D202D 
 2348      20546865 
 2348      20696E70 
 2348      75742061 
 2349              	.LC119:
 2350 17f4 4249474E 		.ascii	"BIGNUM - Memory allocation failed\000"
 2350      554D202D 
 2350      204D656D 
 2350      6F727920 
 2350      616C6C6F 
 2351 1816 0000     		.space	2
 2352              	.LC120:
 2353 1818 424C4F57 		.ascii	"BLOWFISH - Invalid key length\000"
 2353      46495348 
 2353      202D2049 
 2353      6E76616C 
 2353      6964206B 
 2354 1836 0000     		.space	2
 2355              	.LC121:
 2356 1838 424C4F57 		.ascii	"BLOWFISH - Invalid data input length\000"
 2356      46495348 
 2356      202D2049 
 2356      6E76616C 
 2356      69642064 
 2357 185d 000000   		.space	3
 2358              	.LC122:
 2359 1860 43414D45 		.ascii	"CAMELLIA - Invalid key length\000"
 2359      4C4C4941 
ARM GAS  C:\Users\jo\AppData\Local\Temp\cc8kMVam.s 			page 53


 2359      202D2049 
 2359      6E76616C 
 2359      6964206B 
 2360 187e 0000     		.space	2
 2361              	.LC123:
 2362 1880 43414D45 		.ascii	"CAMELLIA - Invalid data input length\000"
 2362      4C4C4941 
 2362      202D2049 
 2362      6E76616C 
 2362      69642064 
 2363 18a5 000000   		.space	3
 2364              	.LC124:
 2365 18a8 4354525F 		.ascii	"CTR_DRBG - The entropy source failed\000"
 2365      44524247 
 2365      202D2054 
 2365      68652065 
 2365      6E74726F 
 2366 18cd 000000   		.space	3
 2367              	.LC125:
 2368 18d0 4354525F 		.ascii	"CTR_DRBG - Too many random requested in single call"
 2368      44524247 
 2368      202D2054 
 2368      6F6F206D 
 2368      616E7920 
 2369 1903 00       		.ascii	"\000"
 2370              	.LC126:
 2371 1904 4354525F 		.ascii	"CTR_DRBG - Input too large (Entropy + additional)\000"
 2371      44524247 
 2371      202D2049 
 2371      6E707574 
 2371      20746F6F 
 2372 1936 0000     		.space	2
 2373              	.LC127:
 2374 1938 4354525F 		.ascii	"CTR_DRBG - Read/write error in file\000"
 2374      44524247 
 2374      202D2052 
 2374      6561642F 
 2374      77726974 
 2375              	.LC128:
 2376 195c 44455320 		.ascii	"DES - The data input has an invalid length\000"
 2376      2D205468 
 2376      65206461 
 2376      74612069 
 2376      6E707574 
 2377 1987 00       		.space	1
 2378              	.LC129:
 2379 1988 454E5452 		.ascii	"ENTROPY - Critical entropy source failure\000"
 2379      4F505920 
 2379      2D204372 
 2379      69746963 
 2379      616C2065 
 2380 19b2 0000     		.space	2
 2381              	.LC130:
 2382 19b4 454E5452 		.ascii	"ENTROPY - No more sources can be added\000"
 2382      4F505920 
 2382      2D204E6F 
 2382      206D6F72 
ARM GAS  C:\Users\jo\AppData\Local\Temp\cc8kMVam.s 			page 54


 2382      6520736F 
 2383 19db 00       		.space	1
 2384              	.LC131:
 2385 19dc 454E5452 		.ascii	"ENTROPY - No sources have been added to poll\000"
 2385      4F505920 
 2385      2D204E6F 
 2385      20736F75 
 2385      72636573 
 2386 1a09 000000   		.space	3
 2387              	.LC132:
 2388 1a0c 47434D20 		.ascii	"GCM - Authenticated decryption failed\000"
 2388      2D204175 
 2388      7468656E 
 2388      74696361 
 2388      74656420 
 2389 1a32 0000     		.space	2
 2390              	.LC133:
 2391 1a34 47434D20 		.ascii	"GCM - Bad input parameters to function\000"
 2391      2D204261 
 2391      6420696E 
 2391      70757420 
 2391      70617261 
 2392 1a5b 00       		.space	1
 2393              	.LC134:
 2394 1a5c 4D443520 		.ascii	"MD5 - Read/write error in file\000"
 2394      2D205265 
 2394      61642F77 
 2394      72697465 
 2394      20657272 
 2395 1a7b 00       		.space	1
 2396              	.LC135:
 2397 1a7c 4E455420 		.ascii	"NET - Failed to get an IP address for the given hos"
 2397      2D204661 
 2397      696C6564 
 2397      20746F20 
 2397      67657420 
 2398 1aaf 746E616D 		.ascii	"tname\000"
 2398      6500
 2399 1ab5 000000   		.space	3
 2400              	.LC136:
 2401 1ab8 4E455420 		.ascii	"NET - Failed to open a socket\000"
 2401      2D204661 
 2401      696C6564 
 2401      20746F20 
 2401      6F70656E 
 2402 1ad6 0000     		.space	2
 2403              	.LC137:
 2404 1ad8 4E455420 		.ascii	"NET - The connection to the given server / port fai"
 2404      2D205468 
 2404      6520636F 
 2404      6E6E6563 
 2404      74696F6E 
 2405 1b0b 6C656400 		.ascii	"led\000"
 2406 1b0f 00       		.space	1
 2407              	.LC138:
 2408 1b10 4E455420 		.ascii	"NET - Binding of the socket failed\000"
 2408      2D204269 
ARM GAS  C:\Users\jo\AppData\Local\Temp\cc8kMVam.s 			page 55


 2408      6E64696E 
 2408      67206F66 
 2408      20746865 
 2409 1b33 00       		.space	1
 2410              	.LC139:
 2411 1b34 4E455420 		.ascii	"NET - Could not listen on the socket\000"
 2411      2D20436F 
 2411      756C6420 
 2411      6E6F7420 
 2411      6C697374 
 2412 1b59 000000   		.space	3
 2413              	.LC140:
 2414 1b5c 4E455420 		.ascii	"NET - Could not accept the incoming connection\000"
 2414      2D20436F 
 2414      756C6420 
 2414      6E6F7420 
 2414      61636365 
 2415 1b8b 00       		.space	1
 2416              	.LC141:
 2417 1b8c 4E455420 		.ascii	"NET - Reading information from the socket failed\000"
 2417      2D205265 
 2417      6164696E 
 2417      6720696E 
 2417      666F726D 
 2418 1bbd 000000   		.space	3
 2419              	.LC142:
 2420 1bc0 4E455420 		.ascii	"NET - Sending information through the socket failed"
 2420      2D205365 
 2420      6E64696E 
 2420      6720696E 
 2420      666F726D 
 2421 1bf3 00       		.ascii	"\000"
 2422              	.LC143:
 2423 1bf4 4E455420 		.ascii	"NET - Connection was reset by peer\000"
 2423      2D20436F 
 2423      6E6E6563 
 2423      74696F6E 
 2423      20776173 
 2424 1c17 00       		.space	1
 2425              	.LC144:
 2426 1c18 4E455420 		.ascii	"NET - Connection requires a read call\000"
 2426      2D20436F 
 2426      6E6E6563 
 2426      74696F6E 
 2426      20726571 
 2427 1c3e 0000     		.space	2
 2428              	.LC145:
 2429 1c40 4E455420 		.ascii	"NET - Connection requires a write call\000"
 2429      2D20436F 
 2429      6E6E6563 
 2429      74696F6E 
 2429      20726571 
 2430 1c67 00       		.space	1
 2431              	.LC146:
 2432 1c68 5041444C 		.ascii	"PADLOCK - Input data should be aligned\000"
 2432      4F434B20 
 2432      2D20496E 
ARM GAS  C:\Users\jo\AppData\Local\Temp\cc8kMVam.s 			page 56


 2432      70757420 
 2432      64617461 
 2433 1c8f 00       		.space	1
 2434              	.LC147:
 2435 1c90 53484131 		.ascii	"SHA1 - Read/write error in file\000"
 2435      202D2052 
 2435      6561642F 
 2435      77726974 
 2435      65206572 
 2436              	.LC148:
 2437 1cb0 53484132 		.ascii	"SHA2 - Read/write error in file\000"
 2437      202D2052 
 2437      6561642F 
 2437      77726974 
 2437      65206572 
 2438              	.LC149:
 2439 1cd0 53484134 		.ascii	"SHA4 - Read/write error in file\000"
 2439      202D2052 
 2439      6561642F 
 2439      77726974 
 2439      65206572 
 2440              	.LC150:
 2441 1cf0 58544541 		.ascii	"XTEA - The data input has an invalid length\000"
 2441      202D2054 
 2441      68652064 
 2441      61746120 
 2441      696E7075 
 2442              		.text
 2443              	.Letext0:
 2444              		.file 2 "c:\\program files\\gnu tools arm embedded\\4.9 2014q4\\lib\\gcc\\arm-none-eabi\\4.9.3\\in
 2445              		.file 3 "../../../demos/STM32/RT-STM32F407-DISCOVERY-uHttp/uhttp-1.1/PolarSSL/include/polarssl/ssl
 2446              		.file 4 "c:\\program files\\gnu tools arm embedded\\4.9 2014q4\\arm-none-eabi\\include\\stdio.h"
 2447              		.file 5 "c:\\program files\\gnu tools arm embedded\\4.9 2014q4\\arm-none-eabi\\include\\string.h"