ARM GAS  C:\Users\jo\AppData\Local\Temp\ccNIDPVC.s 			page 1


   1              		.syntax unified
   2              		.cpu cortex-m4
   3              		.fpu softvfp
   4              		.eabi_attribute 20, 1
   5              		.eabi_attribute 21, 1
   6              		.eabi_attribute 23, 3
   7              		.eabi_attribute 24, 1
   8              		.eabi_attribute 25, 1
   9              		.eabi_attribute 26, 1
  10              		.eabi_attribute 30, 2
  11              		.eabi_attribute 34, 1
  12              		.eabi_attribute 18, 4
  13              		.thumb
  14              		.file	"etharp.c"
  15              		.text
  16              	.Ltext0:
  17              		.cfi_sections	.debug_frame
  18              		.section	.text.etharp_free_entry,"ax",%progbits
  19              		.align	2
  20              		.p2align 4,,15
  21              		.thumb
  22              		.thumb_func
  23              		.type	etharp_free_entry, %function
  24              	etharp_free_entry:
  25              	.LFB256:
  26              		.file 1 "../../../os/ext/lwip-1.4.1/src/netif/etharp.c"
  27              		.loc 1 178 0
  28              		.cfi_startproc
  29              		@ args = 0, pretend = 0, frame = 0
  30              		@ frame_needed = 0, uses_anonymous_args = 0
  31              	.LVL0:
  32 0000 F8B5     		push	{r3, r4, r5, r6, r7, lr}
  33              		.cfi_def_cfa_offset 24
  34              		.cfi_offset 3, -24
  35              		.cfi_offset 4, -20
  36              		.cfi_offset 5, -16
  37              		.cfi_offset 6, -12
  38              		.cfi_offset 7, -8
  39              		.cfi_offset 14, -4
  40              		.loc 1 182 0
  41 0002 8700     		lsls	r7, r0, #2
  42 0004 3E18     		adds	r6, r7, r0
  43 0006 B600     		lsls	r6, r6, #2
  44 0008 0C4C     		ldr	r4, .L8
  45              		.loc 1 178 0
  46 000a 0546     		mov	r5, r0
  47              		.loc 1 182 0
  48 000c A059     		ldr	r0, [r4, r6]
  49              	.LVL1:
  50 000e 18B1     		cbz	r0, .L2
  51              		.loc 1 185 0
  52 0010 FFF7FEFF 		bl	pbuf_free
  53              	.LVL2:
  54              		.loc 1 186 0
  55 0014 0023     		movs	r3, #0
  56 0016 A351     		str	r3, [r4, r6]
  57              	.L2:
ARM GAS  C:\Users\jo\AppData\Local\Temp\ccNIDPVC.s 			page 2


  58              		.loc 1 189 0
  59 0018 7819     		adds	r0, r7, r5
  60 001a 04EB8000 		add	r0, r4, r0, lsl #2
  61 001e 0023     		movs	r3, #0
  62              		.loc 1 195 0
  63 0020 0373     		strb	r3, [r0, #12]
  64 0022 4373     		strb	r3, [r0, #13]
  65              		.loc 1 189 0
  66 0024 8374     		strb	r3, [r0, #18]
  67              		.loc 1 195 0
  68 0026 8373     		strb	r3, [r0, #14]
  69              		.loc 1 192 0
  70 0028 C374     		strb	r3, [r0, #19]
  71              		.loc 1 195 0
  72 002a C373     		strb	r3, [r0, #15]
  73 002c 0374     		strb	r3, [r0, #16]
  74 002e 4374     		strb	r3, [r0, #17]
  75              		.loc 1 193 0
  76 0030 00F1080E 		add	lr, r0, #8
  77 0034 8360     		str	r3, [r0, #8]
  78              		.loc 1 194 0
  79 0036 4360     		str	r3, [r0, #4]
  80              		.loc 1 195 0
  81 0038 F8BD     		pop	{r3, r4, r5, r6, r7, pc}
  82              	.LVL3:
  83              	.L9:
  84 003a 00BF     		.align	2
  85              	.L8:
  86 003c 00000000 		.word	.LANCHOR0
  87              		.cfi_endproc
  88              	.LFE256:
  89              		.size	etharp_free_entry, .-etharp_free_entry
  90              		.section	.text.chprintf.constprop.1,"ax",%progbits
  91              		.align	2
  92              		.p2align 4,,15
  93              		.thumb
  94              		.thumb_func
  95              		.type	chprintf.constprop.1, %function
  96              	chprintf.constprop.1:
  97              	.LFB270:
  98              		.file 2 "../../../os/hal/lib/streams/chprintf.h"
  99              		.loc 2 69 0
 100              		.cfi_startproc
 101              		@ args = 4, pretend = 12, frame = 8
 102              		@ frame_needed = 0, uses_anonymous_args = 1
 103              	.LVL4:
 104 0000 0EB4     		push	{r1, r2, r3}
 105              		.cfi_def_cfa_offset 12
 106              		.cfi_offset 1, -12
 107              		.cfi_offset 2, -8
 108              		.cfi_offset 3, -4
 109 0002 00B5     		push	{lr}
 110              		.cfi_def_cfa_offset 16
 111              		.cfi_offset 14, -16
 112 0004 82B0     		sub	sp, sp, #8
 113              		.cfi_def_cfa_offset 24
 114              		.loc 2 73 0
ARM GAS  C:\Users\jo\AppData\Local\Temp\ccNIDPVC.s 			page 3


 115 0006 04AB     		add	r3, sp, #16
 116              		.loc 2 74 0
 117 0008 1A46     		mov	r2, r3
 118 000a 0549     		ldr	r1, .L12
 119 000c 0548     		ldr	r0, .L12+4
 120              	.LVL5:
 121              		.loc 2 73 0
 122 000e 0193     		str	r3, [sp, #4]
 123              		.loc 2 74 0
 124 0010 FFF7FEFF 		bl	chvprintf
 125              	.LVL6:
 126              		.loc 2 78 0
 127 0014 02B0     		add	sp, sp, #8
 128              		.cfi_def_cfa_offset 16
 129              		@ sp needed
 130 0016 5DF804EB 		ldr	lr, [sp], #4
 131              		.cfi_restore 14
 132              		.cfi_def_cfa_offset 12
 133 001a 03B0     		add	sp, sp, #12
 134              		.cfi_restore 3
 135              		.cfi_restore 2
 136              		.cfi_restore 1
 137              		.cfi_def_cfa_offset 0
 138 001c 7047     		bx	lr
 139              	.L13:
 140 001e 00BF     		.align	2
 141              	.L12:
 142 0020 00000000 		.word	.LC0
 143 0024 00000000 		.word	itm_port
 144              		.cfi_endproc
 145              	.LFE270:
 146              		.size	chprintf.constprop.1, .-chprintf.constprop.1
 147 0028 AFF30080 		.section	.text.etharp_send_ip,"ax",%progbits
 147      AFF30080 
 148              		.align	2
 149              		.p2align 4,,15
 150              		.thumb
 151              		.thumb_func
 152              		.type	etharp_send_ip, %function
 153              	etharp_send_ip:
 154              	.LFB259:
 155              		.loc 1 416 0
 156              		.cfi_startproc
 157              		@ args = 0, pretend = 0, frame = 0
 158              		@ frame_needed = 0, uses_anonymous_args = 0
 159              	.LVL7:
 160 0000 2DE9F041 		push	{r4, r5, r6, r7, r8, lr}
 161              		.cfi_def_cfa_offset 24
 162              		.cfi_offset 4, -24
 163              		.cfi_offset 5, -20
 164              		.cfi_offset 6, -16
 165              		.cfi_offset 7, -12
 166              		.cfi_offset 8, -8
 167              		.cfi_offset 14, -4
 168 0004 0E46     		mov	r6, r1
 169              		.loc 1 419 0
 170 0006 90F82210 		ldrb	r1, [r0, #34]	@ zero_extendqisi2
ARM GAS  C:\Users\jo\AppData\Local\Temp\ccNIDPVC.s 			page 4


 171              	.LVL8:
 172              		.loc 1 417 0
 173 000a 7468     		ldr	r4, [r6, #4]
 174              	.LVL9:
 175              		.loc 1 419 0
 176 000c 0629     		cmp	r1, #6
 177              		.loc 1 416 0
 178 000e 82B0     		sub	sp, sp, #8
 179              		.cfi_def_cfa_offset 32
 180              		.loc 1 416 0
 181 0010 0546     		mov	r5, r0
 182 0012 1746     		mov	r7, r2
 183 0014 9846     		mov	r8, r3
 184              		.loc 1 419 0
 185 0016 0BD0     		beq	.L15
 186              		.loc 1 419 0 is_stmt 0 discriminator 1
 187 0018 104B     		ldr	r3, .L20
 188              	.LVL10:
 189 001a 0093     		str	r3, [sp]
 190 001c 1048     		ldr	r0, .L20+4
 191              	.LVL11:
 192 001e 1149     		ldr	r1, .L20+8
 193 0020 114A     		ldr	r2, .L20+12
 194              	.LVL12:
 195 0022 4FF4D273 		mov	r3, #420
 196 0026 FFF7FEFF 		bl	chprintf.constprop.1
 197              	.LVL13:
 198              	.LBB54:
 199              	.LBB55:
 200              		.file 3 "../../../os/hal/osal/rt/osal.h"
 201              		.loc 3 414 0 is_stmt 1 discriminator 1
 202 002a 0F48     		ldr	r0, .L20+12
 203 002c FFF7FEFF 		bl	chSysHalt
 204              	.LVL14:
 205              	.L15:
 206              	.LBE55:
 207              	.LBE54:
 208              		.loc 1 421 0
 209 0030 D8F80030 		ldr	r3, [r8]	@ unaligned
 210 0034 C4F80230 		str	r3, [r4, #2]	@ unaligned
 211 0038 B8F80430 		ldrh	r3, [r8, #4]	@ unaligned
 212 003c E380     		strh	r3, [r4, #6]	@ unaligned
 213              		.loc 1 422 0
 214 003e 3B68     		ldr	r3, [r7]	@ unaligned
 215 0040 A360     		str	r3, [r4, #8]	@ unaligned
 216 0042 BB88     		ldrh	r3, [r7, #4]	@ unaligned
 217 0044 A381     		strh	r3, [r4, #12]	@ unaligned
 218              		.loc 1 426 0
 219 0046 AB69     		ldr	r3, [r5, #24]
 220              		.loc 1 423 0
 221 0048 0020     		movs	r0, #0
 222 004a 0822     		movs	r2, #8
 223 004c E073     		strb	r0, [r4, #15]
 224              		.loc 1 426 0
 225 004e 3146     		mov	r1, r6
 226 0050 2846     		mov	r0, r5
 227              		.loc 1 423 0
ARM GAS  C:\Users\jo\AppData\Local\Temp\ccNIDPVC.s 			page 5


 228 0052 A273     		strb	r2, [r4, #14]
 229              		.loc 1 427 0
 230 0054 02B0     		add	sp, sp, #8
 231              		.cfi_def_cfa_offset 24
 232              		@ sp needed
 233 0056 BDE8F041 		pop	{r4, r5, r6, r7, r8, lr}
 234              		.cfi_restore 14
 235              		.cfi_restore 8
 236              		.cfi_restore 7
 237              		.cfi_restore 6
 238              		.cfi_restore 5
 239              		.cfi_restore 4
 240              		.cfi_def_cfa_offset 0
 241              	.LVL15:
 242              		.loc 1 426 0
 243 005a 1847     		bx	r3
 244              	.LVL16:
 245              	.L21:
 246              		.align	2
 247              	.L20:
 248 005c 6C000000 		.word	.LC2
 249 0060 00000000 		.word	itm_port
 250 0064 00000000 		.word	.LC0
 251 0068 28000000 		.word	.LC1
 252              		.cfi_endproc
 253              	.LFE259:
 254              		.size	etharp_send_ip, .-etharp_send_ip
 255 006c AFF30080 		.section	.text.etharp_find_entry,"ax",%progbits
 256              		.align	2
 257              		.p2align 4,,15
 258              		.thumb
 259              		.thumb_func
 260              		.type	etharp_find_entry, %function
 261              	etharp_find_entry:
 262              	.LFB258:
 263              		.loc 1 267 0
 264              		.cfi_startproc
 265              		@ args = 0, pretend = 0, frame = 8
 266              		@ frame_needed = 0, uses_anonymous_args = 0
 267              	.LVL17:
 268 0000 2DE9F04F 		push	{r4, r5, r6, r7, r8, r9, r10, fp, lr}
 269              		.cfi_def_cfa_offset 36
 270              		.cfi_offset 4, -36
 271              		.cfi_offset 5, -32
 272              		.cfi_offset 6, -28
 273              		.cfi_offset 7, -24
 274              		.cfi_offset 8, -20
 275              		.cfi_offset 9, -16
 276              		.cfi_offset 10, -12
 277              		.cfi_offset 11, -8
 278              		.cfi_offset 14, -4
 279 0004 DFF89481 		ldr	r8, .L70+24
 280 0008 85B0     		sub	sp, sp, #20
 281              		.cfi_def_cfa_offset 56
 282              		.loc 1 267 0
 283 000a 0023     		movs	r3, #0
 284              		.loc 1 272 0
ARM GAS  C:\Users\jo\AppData\Local\Temp\ccNIDPVC.s 			page 6


 285 000c 4FF00A0E 		mov	lr, #10
 286 0010 4246     		mov	r2, r8
 287              		.loc 1 270 0
 288 0012 9C46     		mov	ip, r3
 289 0014 0393     		str	r3, [sp, #12]
 290              		.loc 1 269 0
 291 0016 7646     		mov	r6, lr
 292              		.loc 1 268 0
 293 0018 7546     		mov	r5, lr
 294 001a F346     		mov	fp, lr
 295 001c 9A46     		mov	r10, r3
 296 001e 0291     		str	r1, [sp, #8]
 297 0020 04E0     		b	.L29
 298              	.LVL18:
 299              	.L25:
 300 0022 0133     		adds	r3, r3, #1
 301              	.LVL19:
 302              		.loc 1 291 0 discriminator 2
 303 0024 0A2B     		cmp	r3, #10
 304 0026 02F11402 		add	r2, r2, #20
 305              	.LVL20:
 306 002a 18D0     		beq	.L63
 307              	.LVL21:
 308              	.L29:
 309              	.LBB56:
 310              		.loc 1 294 0
 311 002c 0A2E     		cmp	r6, #10
 312 002e DCB2     		uxtb	r4, r3
 313              	.LVL22:
 314              		.loc 1 292 0
 315 0030 977C     		ldrb	r7, [r2, #18]	@ zero_extendqisi2
 316              	.LVL23:
 317              		.loc 1 294 0
 318 0032 38D0     		beq	.L64
 319              		.loc 1 298 0
 320 0034 002F     		cmp	r7, #0
 321 0036 F4D0     		beq	.L25
 322              	.LVL24:
 323              	.L24:
 324              		.loc 1 302 0
 325 0038 28B1     		cbz	r0, .L26
 326              		.loc 1 302 0 is_stmt 0 discriminator 1
 327 003a 0168     		ldr	r1, [r0]
 328 003c 8946     		mov	r9, r1
 329 003e 5168     		ldr	r1, [r2, #4]
 330 0040 8945     		cmp	r9, r1
 331 0042 00F09880 		beq	.L65
 332              	.L26:
 333              		.loc 1 308 0 is_stmt 1
 334 0046 012F     		cmp	r7, #1
 335 0048 31D0     		beq	.L66
 336              		.loc 1 331 0
 337 004a D77C     		ldrb	r7, [r2, #19]	@ zero_extendqisi2
 338              	.LVL25:
 339 004c 0133     		adds	r3, r3, #1
 340 004e 6745     		cmp	r7, ip
 341              		.loc 1 332 0
ARM GAS  C:\Users\jo\AppData\Local\Temp\ccNIDPVC.s 			page 7


 342 0050 24BF     		itt	cs
 343 0052 2546     		movcs	r5, r4
 344              	.LVL26:
 345 0054 BC46     		movcs	ip, r7
 346              	.LVL27:
 347              	.LBE56:
 348              		.loc 1 291 0
 349 0056 0A2B     		cmp	r3, #10
 350 0058 02F11402 		add	r2, r2, #20
 351              	.LVL28:
 352 005c E6D1     		bne	.L29
 353              	.LVL29:
 354              	.L63:
 355 005e 0299     		ldr	r1, [sp, #8]
 356              		.loc 1 342 0
 357 0060 8A07     		lsls	r2, r1, #30
 358 0062 00F18D80 		bmi	.L44
 359              		.loc 1 342 0 is_stmt 0 discriminator 1
 360 0066 74B2     		sxtb	r4, r6
 361 0068 0A2C     		cmp	r4, #10
 362 006a 8146     		mov	r9, r0
 363 006c 35D0     		beq	.L67
 364              		.loc 1 360 0 is_stmt 1
 365 006e F6B2     		uxtb	r6, r6
 366              	.LVL30:
 367 0070 2746     		mov	r7, r4
 368              	.LVL31:
 369              	.L32:
 370              		.loc 1 392 0
 371 0072 BC00     		lsls	r4, r7, #2
 372 0074 E319     		adds	r3, r4, r7
 373 0076 08EB8303 		add	r3, r8, r3, lsl #2
 374 007a 9B7C     		ldrb	r3, [r3, #18]	@ zero_extendqisi2
 375 007c 03BB     		cbnz	r3, .L68
 376              	.L38:
 377              		.loc 1 396 0
 378 007e B9F1000F 		cmp	r9, #0
 379 0082 05D0     		beq	.L39
 380              		.loc 1 398 0
 381 0084 E319     		adds	r3, r4, r7
 382 0086 08EB8303 		add	r3, r8, r3, lsl #2
 383 008a D9F80020 		ldr	r2, [r9]
 384 008e 5A60     		str	r2, [r3, #4]
 385              	.L39:
 386              		.loc 1 400 0
 387 0090 3C44     		add	r4, r4, r7
 388 0092 08EB8408 		add	r8, r8, r4, lsl #2
 389 0096 0023     		movs	r3, #0
 390              		.loc 1 401 0
 391 0098 F6B2     		uxtb	r6, r6
 392              		.loc 1 400 0
 393 009a 88F81330 		strb	r3, [r8, #19]
 394              	.LVL32:
 395              	.L27:
 396 009e 70B2     		sxtb	r0, r6
 397              		.loc 1 402 0
 398 00a0 05B0     		add	sp, sp, #20
ARM GAS  C:\Users\jo\AppData\Local\Temp\ccNIDPVC.s 			page 8


 399              		.cfi_remember_state
 400              		.cfi_def_cfa_offset 36
 401              		@ sp needed
 402 00a2 BDE8F08F 		pop	{r4, r5, r6, r7, r8, r9, r10, fp, pc}
 403              	.LVL33:
 404              	.L64:
 405              		.cfi_restore_state
 406              	.LBB57:
 407              		.loc 1 294 0 discriminator 1
 408 00a6 002F     		cmp	r7, #0
 409 00a8 C6D1     		bne	.L24
 410              		.loc 1 297 0
 411 00aa 2646     		mov	r6, r4
 412              	.LVL34:
 413 00ac B9E7     		b	.L25
 414              	.LVL35:
 415              	.L66:
 416              		.loc 1 310 0
 417 00ae 1768     		ldr	r7, [r2]
 418              	.LVL36:
 419 00b0 002F     		cmp	r7, #0
 420 00b2 58D0     		beq	.L28
 421              		.loc 1 311 0
 422 00b4 D77C     		ldrb	r7, [r2, #19]	@ zero_extendqisi2
 423 00b6 5745     		cmp	r7, r10
 424 00b8 B3D3     		bcc	.L25
 425              		.loc 1 312 0
 426 00ba A646     		mov	lr, r4
 427              	.LVL37:
 428 00bc BA46     		mov	r10, r7
 429 00be B0E7     		b	.L25
 430              	.LVL38:
 431              	.L68:
 432              	.LBE57:
 433              		.loc 1 392 0 discriminator 1
 434 00c0 304B     		ldr	r3, .L70
 435 00c2 0093     		str	r3, [sp]
 436 00c4 3049     		ldr	r1, .L70+4
 437 00c6 314A     		ldr	r2, .L70+8
 438 00c8 3148     		ldr	r0, .L70+12
 439 00ca 40F28913 		movw	r3, #393
 440 00ce FFF7FEFF 		bl	chprintf.constprop.1
 441              	.LVL39:
 442              	.LBB58:
 443              	.LBB59:
 444              		.loc 3 414 0 discriminator 1
 445 00d2 2E48     		ldr	r0, .L70+8
 446 00d4 FFF7FEFF 		bl	chSysHalt
 447              	.LVL40:
 448 00d8 D1E7     		b	.L38
 449              	.LVL41:
 450              	.L67:
 451              	.LBE59:
 452              	.LBE58:
 453              		.loc 1 344 0
 454 00da CB07     		lsls	r3, r1, #31
 455 00dc 50D5     		bpl	.L44
ARM GAS  C:\Users\jo\AppData\Local\Temp\ccNIDPVC.s 			page 9


 456              		.loc 1 364 0
 457 00de 6CB2     		sxtb	r4, r5
 458 00e0 0A2C     		cmp	r4, #10
 459 00e2 16D0     		beq	.L33
 460              		.loc 1 369 0
 461 00e4 04EB8403 		add	r3, r4, r4, lsl #2
 462 00e8 2746     		mov	r7, r4
 463 00ea 58F82330 		ldr	r3, [r8, r3, lsl #2]
 464              		.loc 1 366 0
 465 00ee EEB2     		uxtb	r6, r5
 466              	.LVL42:
 467              		.loc 1 369 0
 468 00f0 5BB1     		cbz	r3, .L37
 469              		.loc 1 369 0 is_stmt 0 discriminator 1
 470 00f2 244B     		ldr	r3, .L70
 471 00f4 0093     		str	r3, [sp]
 472 00f6 2648     		ldr	r0, .L70+12
 473              	.LVL43:
 474 00f8 2349     		ldr	r1, .L70+4
 475 00fa 264A     		ldr	r2, .L70+16
 476 00fc 40F27113 		movw	r3, #369
 477 0100 FFF7FEFF 		bl	chprintf.constprop.1
 478              	.LVL44:
 479              	.LBB60:
 480              	.LBB61:
 481              		.loc 3 414 0 is_stmt 1 discriminator 1
 482 0104 2348     		ldr	r0, .L70+16
 483 0106 FFF7FEFF 		bl	chSysHalt
 484              	.LVL45:
 485              	.L37:
 486              	.LBE61:
 487              	.LBE60:
 488              		.loc 1 388 0
 489 010a 3846     		mov	r0, r7
 490 010c FFF7FEFF 		bl	etharp_free_entry
 491              	.LVL46:
 492 0110 AFE7     		b	.L32
 493              	.LVL47:
 494              	.L33:
 495              		.loc 1 371 0
 496 0112 BBF10A0F 		cmp	fp, #10
 497 0116 22D1     		bne	.L69
 498              		.loc 1 376 0
 499 0118 BEF10A0F 		cmp	lr, #10
 500 011c 30D0     		beq	.L44
 501              		.loc 1 378 0
 502 011e 5FFA8EF6 		uxtb	r6, lr
 503              	.LVL48:
 504 0122 3746     		mov	r7, r6
 505              	.L36:
 506              		.loc 1 387 0
 507 0124 092E     		cmp	r6, #9
 508 0126 F0D9     		bls	.L37
 509              		.loc 1 387 0 is_stmt 0 discriminator 1
 510 0128 164C     		ldr	r4, .L70
 511 012a 1749     		ldr	r1, .L70+4
 512 012c 1A4A     		ldr	r2, .L70+20
ARM GAS  C:\Users\jo\AppData\Local\Temp\ccNIDPVC.s 			page 10


 513 012e 0094     		str	r4, [sp]
 514 0130 40F28313 		movw	r3, #387
 515 0134 1648     		ldr	r0, .L70+12
 516              	.LVL49:
 517 0136 FFF7FEFF 		bl	chprintf.constprop.1
 518              	.LVL50:
 519              	.LBB62:
 520              	.LBB63:
 521              		.loc 3 414 0 is_stmt 1 discriminator 1
 522 013a 1748     		ldr	r0, .L70+20
 523 013c FFF7FEFF 		bl	chSysHalt
 524              	.LVL51:
 525              	.LBE63:
 526              	.LBE62:
 527              		.loc 1 388 0 discriminator 1
 528 0140 3046     		mov	r0, r6
 529 0142 FFF7FEFF 		bl	etharp_free_entry
 530              	.LVL52:
 531              		.loc 1 391 0 discriminator 1
 532 0146 0094     		str	r4, [sp]
 533 0148 0F49     		ldr	r1, .L70+4
 534 014a 134A     		ldr	r2, .L70+20
 535 014c 1048     		ldr	r0, .L70+12
 536 014e 40F28713 		movw	r3, #391
 537 0152 FFF7FEFF 		bl	chprintf.constprop.1
 538              	.LVL53:
 539              	.LBB64:
 540              	.LBB65:
 541              		.loc 3 414 0 discriminator 1
 542 0156 1048     		ldr	r0, .L70+20
 543 0158 FFF7FEFF 		bl	chSysHalt
 544              	.LVL54:
 545 015c 89E7     		b	.L32
 546              	.LVL55:
 547              	.L69:
 548              	.LBE65:
 549              	.LBE64:
 550              		.loc 1 373 0
 551 015e 5FFA8BF6 		uxtb	r6, fp
 552              	.LVL56:
 553 0162 3746     		mov	r7, r6
 554 0164 DEE7     		b	.L36
 555              	.LVL57:
 556              	.L28:
 557              	.LBB66:
 558              		.loc 1 318 0
 559 0166 D77C     		ldrb	r7, [r2, #19]	@ zero_extendqisi2
 560 0168 0399     		ldr	r1, [sp, #12]
 561 016a 8F42     		cmp	r7, r1
 562 016c FFF459AF 		bcc	.L25
 563              		.loc 1 319 0
 564 0170 A346     		mov	fp, r4
 565              	.LVL58:
 566 0172 0397     		str	r7, [sp, #12]
 567 0174 55E7     		b	.L25
 568              	.LVL59:
 569              	.L65:
ARM GAS  C:\Users\jo\AppData\Local\Temp\ccNIDPVC.s 			page 11


 570              		.loc 1 305 0
 571 0176 E6B2     		uxtb	r6, r4
 572 0178 70B2     		sxtb	r0, r6
 573              	.LVL60:
 574              	.LBE66:
 575              		.loc 1 402 0
 576 017a 05B0     		add	sp, sp, #20
 577              		.cfi_remember_state
 578              		.cfi_def_cfa_offset 36
 579              		@ sp needed
 580 017c BDE8F08F 		pop	{r4, r5, r6, r7, r8, r9, r10, fp, pc}
 581              	.LVL61:
 582              	.L44:
 583              		.cfi_restore_state
 584              		.loc 1 346 0
 585 0180 FF26     		movs	r6, #255
 586              	.LVL62:
 587 0182 8CE7     		b	.L27
 588              	.L71:
 589              		.align	2
 590              	.L70:
 591 0184 6C000000 		.word	.LC2
 592 0188 00000000 		.word	.LC0
 593 018c C8000000 		.word	.LC5
 594 0190 00000000 		.word	itm_port
 595 0194 9C000000 		.word	.LC3
 596 0198 B4000000 		.word	.LC4
 597 019c 00000000 		.word	.LANCHOR0
 598              		.cfi_endproc
 599              	.LFE258:
 600              		.size	etharp_find_entry, .-etharp_find_entry
 601              		.section	.text.etharp_tmr,"ax",%progbits
 602              		.align	2
 603              		.p2align 4,,15
 604              		.global	etharp_tmr
 605              		.thumb
 606              		.thumb_func
 607              		.type	etharp_tmr, %function
 608              	etharp_tmr:
 609              	.LFB257:
 610              		.loc 1 207 0
 611              		.cfi_startproc
 612              		@ args = 0, pretend = 0, frame = 0
 613              		@ frame_needed = 0, uses_anonymous_args = 0
 614              	.LVL63:
 615 0000 70B5     		push	{r4, r5, r6, lr}
 616              		.cfi_def_cfa_offset 16
 617              		.cfi_offset 4, -16
 618              		.cfi_offset 5, -12
 619              		.cfi_offset 6, -8
 620              		.cfi_offset 14, -4
 621 0002 124C     		ldr	r4, .L85
 622              		.loc 1 207 0
 623 0004 0025     		movs	r5, #0
 624              	.LBB67:
 625              		.loc 1 232 0
 626 0006 0226     		movs	r6, #2
ARM GAS  C:\Users\jo\AppData\Local\Temp\ccNIDPVC.s 			page 12


 627 0008 09E0     		b	.L78
 628              	.LVL64:
 629              	.L83:
 630              		.loc 1 220 0 discriminator 1
 631 000a 012A     		cmp	r2, #1
 632 000c 19D0     		beq	.L81
 633              		.loc 1 229 0
 634 000e 032A     		cmp	r2, #3
 635              		.loc 1 232 0
 636 0010 08BF     		it	eq
 637 0012 A674     		strbeq	r6, [r4, #18]
 638              	.L74:
 639              	.LVL65:
 640 0014 0135     		adds	r5, r5, #1
 641              	.LVL66:
 642              	.LBE67:
 643              		.loc 1 212 0 discriminator 2
 644 0016 0A2D     		cmp	r5, #10
 645 0018 04F11404 		add	r4, r4, #20
 646 001c 10D0     		beq	.L82
 647              	.LVL67:
 648              	.L78:
 649              	.LBB68:
 650              		.loc 1 213 0
 651 001e A27C     		ldrb	r2, [r4, #18]	@ zero_extendqisi2
 652              	.LVL68:
 653              		.loc 1 214 0
 654 0020 002A     		cmp	r2, #0
 655 0022 F7D0     		beq	.L74
 656              		.loc 1 219 0
 657 0024 E37C     		ldrb	r3, [r4, #19]	@ zero_extendqisi2
 658 0026 0133     		adds	r3, r3, #1
 659 0028 DBB2     		uxtb	r3, r3
 660              		.loc 1 220 0
 661 002a EF2B     		cmp	r3, #239
 662              		.loc 1 219 0
 663 002c E374     		strb	r3, [r4, #19]
 664              		.loc 1 227 0
 665 002e 2846     		mov	r0, r5
 666              		.loc 1 220 0
 667 0030 EBD9     		bls	.L83
 668              		.loc 1 227 0
 669 0032 FFF7FEFF 		bl	etharp_free_entry
 670              	.LVL69:
 671              	.L84:
 672 0036 0135     		adds	r5, r5, #1
 673              	.LVL70:
 674              	.LBE68:
 675              		.loc 1 212 0
 676 0038 0A2D     		cmp	r5, #10
 677 003a 04F11404 		add	r4, r4, #20
 678 003e EED1     		bne	.L78
 679              	.L82:
 680              		.loc 1 242 0
 681 0040 70BD     		pop	{r4, r5, r6, pc}
 682              	.LVL71:
 683              	.L81:
ARM GAS  C:\Users\jo\AppData\Local\Temp\ccNIDPVC.s 			page 13


 684              	.LBB69:
 685              		.loc 1 221 0
 686 0042 012B     		cmp	r3, #1
 687 0044 E6D9     		bls	.L74
 688              		.loc 1 227 0
 689 0046 FFF7FEFF 		bl	etharp_free_entry
 690              	.LVL72:
 691 004a F4E7     		b	.L84
 692              	.L86:
 693              		.align	2
 694              	.L85:
 695 004c 00000000 		.word	.LANCHOR0
 696              	.LBE69:
 697              		.cfi_endproc
 698              	.LFE257:
 699              		.size	etharp_tmr, .-etharp_tmr
 700              		.section	.text.etharp_cleanup_netif,"ax",%progbits
 701              		.align	2
 702              		.p2align 4,,15
 703              		.global	etharp_cleanup_netif
 704              		.thumb
 705              		.thumb_func
 706              		.type	etharp_cleanup_netif, %function
 707              	etharp_cleanup_netif:
 708              	.LFB261:
 709              		.loc 1 580 0
 710              		.cfi_startproc
 711              		@ args = 0, pretend = 0, frame = 0
 712              		@ frame_needed = 0, uses_anonymous_args = 0
 713              	.LVL73:
 714 0000 70B5     		push	{r4, r5, r6, lr}
 715              		.cfi_def_cfa_offset 16
 716              		.cfi_offset 4, -16
 717              		.cfi_offset 5, -12
 718              		.cfi_offset 6, -8
 719              		.cfi_offset 14, -4
 720 0002 094C     		ldr	r4, .L96
 721              		.loc 1 580 0
 722 0004 0646     		mov	r6, r0
 723 0006 0025     		movs	r5, #0
 724              	.LVL74:
 725              	.L89:
 726              	.LBB70:
 727              		.loc 1 585 0
 728 0008 A37C     		ldrb	r3, [r4, #18]	@ zero_extendqisi2
 729 000a 13B1     		cbz	r3, .L88
 730              		.loc 1 585 0 is_stmt 0 discriminator 1
 731 000c A368     		ldr	r3, [r4, #8]
 732 000e B342     		cmp	r3, r6
 733 0010 05D0     		beq	.L95
 734              	.LVL75:
 735              	.L88:
 736 0012 0135     		adds	r5, r5, #1
 737              	.LVL76:
 738              	.LBE70:
 739              		.loc 1 583 0 is_stmt 1 discriminator 2
 740 0014 0A2D     		cmp	r5, #10
ARM GAS  C:\Users\jo\AppData\Local\Temp\ccNIDPVC.s 			page 14


 741 0016 04F11404 		add	r4, r4, #20
 742 001a F5D1     		bne	.L89
 743              		.loc 1 589 0
 744 001c 70BD     		pop	{r4, r5, r6, pc}
 745              	.LVL77:
 746              	.L95:
 747              	.LBB71:
 748              		.loc 1 586 0
 749 001e 2846     		mov	r0, r5
 750 0020 FFF7FEFF 		bl	etharp_free_entry
 751              	.LVL78:
 752 0024 F5E7     		b	.L88
 753              	.L97:
 754 0026 00BF     		.align	2
 755              	.L96:
 756 0028 00000000 		.word	.LANCHOR0
 757              	.LBE71:
 758              		.cfi_endproc
 759              	.LFE261:
 760              		.size	etharp_cleanup_netif, .-etharp_cleanup_netif
 761 002c AFF30080 		.section	.text.etharp_find_addr,"ax",%progbits
 762              		.align	2
 763              		.p2align 4,,15
 764              		.global	etharp_find_addr
 765              		.thumb
 766              		.thumb_func
 767              		.type	etharp_find_addr, %function
 768              	etharp_find_addr:
 769              	.LFB262:
 770              		.loc 1 605 0
 771              		.cfi_startproc
 772              		@ args = 0, pretend = 0, frame = 0
 773              		@ frame_needed = 0, uses_anonymous_args = 0
 774              	.LVL79:
 775 0000 70B5     		push	{r4, r5, r6, lr}
 776              		.cfi_def_cfa_offset 16
 777              		.cfi_offset 4, -16
 778              		.cfi_offset 5, -12
 779              		.cfi_offset 6, -8
 780              		.cfi_offset 14, -4
 781 0002 0E46     		mov	r6, r1
 782 0004 82B0     		sub	sp, sp, #8
 783              		.cfi_def_cfa_offset 24
 784              		.loc 1 605 0
 785 0006 1C46     		mov	r4, r3
 786              		.loc 1 608 0
 787 0008 1546     		mov	r5, r2
 788 000a B2B1     		cbz	r2, .L99
 789              		.loc 1 608 0 is_stmt 0 discriminator 2
 790 000c ABB1     		cbz	r3, .L99
 791              	.LVL80:
 792              	.L100:
 793              		.loc 1 613 0 is_stmt 1
 794 000e 3046     		mov	r0, r6
 795 0010 0221     		movs	r1, #2
 796 0012 FFF7FEFF 		bl	etharp_find_entry
 797              	.LVL81:
ARM GAS  C:\Users\jo\AppData\Local\Temp\ccNIDPVC.s 			page 15


 798              		.loc 1 614 0
 799 0016 0028     		cmp	r0, #0
 800              	.LVL82:
 801 0018 1CDB     		blt	.L103
 802              		.loc 1 614 0 is_stmt 0 discriminator 1
 803 001a 00EB8003 		add	r3, r0, r0, lsl #2
 804 001e 0E49     		ldr	r1, .L108
 805 0020 9B00     		lsls	r3, r3, #2
 806 0022 CA18     		adds	r2, r1, r3
 807 0024 967C     		ldrb	r6, [r2, #18]	@ zero_extendqisi2
 808              	.LVL83:
 809 0026 012E     		cmp	r6, #1
 810 0028 14D9     		bls	.L103
 811              		.loc 1 615 0 is_stmt 1
 812 002a 1346     		mov	r3, r2
 813 002c 0C33     		adds	r3, r3, #12
 814              		.loc 1 616 0
 815 002e 0432     		adds	r2, r2, #4
 816              		.loc 1 615 0
 817 0030 2B60     		str	r3, [r5]
 818              		.loc 1 616 0
 819 0032 2260     		str	r2, [r4]
 820              	.L101:
 821              		.loc 1 620 0
 822 0034 40B2     		sxtb	r0, r0
 823 0036 02B0     		add	sp, sp, #8
 824              		.cfi_remember_state
 825              		.cfi_def_cfa_offset 16
 826              		@ sp needed
 827 0038 70BD     		pop	{r4, r5, r6, pc}
 828              	.LVL84:
 829              	.L99:
 830              		.cfi_restore_state
 831              		.loc 1 608 0 discriminator 3
 832 003a 084B     		ldr	r3, .L108+4
 833              	.LVL85:
 834 003c 0093     		str	r3, [sp]
 835 003e 0849     		ldr	r1, .L108+8
 836              	.LVL86:
 837 0040 084A     		ldr	r2, .L108+12
 838              	.LVL87:
 839 0042 0948     		ldr	r0, .L108+16
 840              	.LVL88:
 841 0044 40F26123 		movw	r3, #609
 842 0048 FFF7FEFF 		bl	chprintf.constprop.1
 843              	.LVL89:
 844              	.LBB72:
 845              	.LBB73:
 846              		.loc 3 414 0 discriminator 3
 847 004c 0548     		ldr	r0, .L108+12
 848 004e FFF7FEFF 		bl	chSysHalt
 849              	.LVL90:
 850 0052 DCE7     		b	.L100
 851              	.LVL91:
 852              	.L103:
 853              	.LBE73:
 854              	.LBE72:
ARM GAS  C:\Users\jo\AppData\Local\Temp\ccNIDPVC.s 			page 16


 855              		.loc 1 619 0
 856 0054 FF20     		movs	r0, #255
 857 0056 EDE7     		b	.L101
 858              	.L109:
 859              		.align	2
 860              	.L108:
 861 0058 00000000 		.word	.LANCHOR0
 862 005c 6C000000 		.word	.LC2
 863 0060 00000000 		.word	.LC0
 864 0064 F4000000 		.word	.LC6
 865 0068 00000000 		.word	itm_port
 866              		.cfi_endproc
 867              	.LFE262:
 868              		.size	etharp_find_addr, .-etharp_find_addr
 869 006c AFF30080 		.section	.text.etharp_request,"ax",%progbits
 870              		.align	2
 871              		.p2align 4,,15
 872              		.global	etharp_request
 873              		.thumb
 874              		.thumb_func
 875              		.type	etharp_request, %function
 876              	etharp_request:
 877              	.LFB268:
 878              		.loc 1 1260 0
 879              		.cfi_startproc
 880              		@ args = 0, pretend = 0, frame = 0
 881              		@ frame_needed = 0, uses_anonymous_args = 0
 882              	.LVL92:
 883 0000 2DE9F043 		push	{r4, r5, r6, r7, r8, r9, lr}
 884              		.cfi_def_cfa_offset 28
 885              		.cfi_offset 4, -28
 886              		.cfi_offset 5, -24
 887              		.cfi_offset 6, -20
 888              		.cfi_offset 7, -16
 889              		.cfi_offset 8, -12
 890              		.cfi_offset 9, -8
 891              		.cfi_offset 14, -4
 892 0004 0546     		mov	r5, r0
 893 0006 83B0     		sub	sp, sp, #12
 894              		.cfi_def_cfa_offset 40
 895              		.loc 1 1260 0
 896 0008 8846     		mov	r8, r1
 897              		.loc 1 1263 0
 898 000a 00F12307 		add	r7, r0, #35
 899 000e 00F10409 		add	r9, r0, #4
 900              	.LVL93:
 901              	.LBB82:
 902              	.LBB83:
 903              		.loc 1 1189 0
 904 0012 0028     		cmp	r0, #0
 905 0014 69D0     		beq	.L120
 906              	.LVL94:
 907              	.L111:
 908              		.loc 1 1192 0
 909 0016 0320     		movs	r0, #3
 910 0018 2C21     		movs	r1, #44
 911 001a 0022     		movs	r2, #0
ARM GAS  C:\Users\jo\AppData\Local\Temp\ccNIDPVC.s 			page 17


 912 001c FFF7FEFF 		bl	pbuf_alloc
 913              	.LVL95:
 914              		.loc 1 1194 0
 915 0020 0646     		mov	r6, r0
 916 0022 0028     		cmp	r0, #0
 917 0024 6ED0     		beq	.L121
 918              		.loc 1 1200 0
 919 0026 4389     		ldrh	r3, [r0, #10]
 920 0028 2B2B     		cmp	r3, #43
 921 002a 51D9     		bls	.L122
 922              	.LVL96:
 923              	.L114:
 924              		.loc 1 1206 0
 925 002c 0120     		movs	r0, #1
 926              		.loc 1 1203 0
 927 002e 7468     		ldr	r4, [r6, #4]
 928              	.LVL97:
 929              		.loc 1 1206 0
 930 0030 FFF7FEFF 		bl	lwip_htons
 931              	.LVL98:
 932 0034 E082     		strh	r0, [r4, #22]	@ unaligned
 933              		.loc 1 1208 0
 934 0036 95F82230 		ldrb	r3, [r5, #34]	@ zero_extendqisi2
 935 003a 062B     		cmp	r3, #6
 936 003c 0BD0     		beq	.L115
 937 003e 344B     		ldr	r3, .L123
 938 0040 0093     		str	r3, [sp]
 939 0042 3448     		ldr	r0, .L123+4
 940 0044 3449     		ldr	r1, .L123+8
 941 0046 354A     		ldr	r2, .L123+12
 942 0048 40F2B943 		movw	r3, #1209
 943 004c FFF7FEFF 		bl	chprintf.constprop.1
 944              	.LVL99:
 945              	.LBB84:
 946              	.LBB85:
 947              		.loc 3 414 0
 948 0050 3248     		ldr	r0, .L123+12
 949 0052 FFF7FEFF 		bl	chSysHalt
 950              	.LVL100:
 951              	.L115:
 952              	.LBE85:
 953              	.LBE84:
 954              		.loc 1 1218 0
 955 0056 324A     		ldr	r2, .L123+16
 956              		.loc 1 1217 0
 957 0058 3968     		ldr	r1, [r7]	@ unaligned
 958              		.loc 1 1223 0
 959 005a 324B     		ldr	r3, .L123+20
 960              		.loc 1 1217 0
 961 005c A161     		str	r1, [r4, #24]	@ unaligned
 962              		.loc 1 1218 0
 963 005e 1068     		ldr	r0, [r2]	@ unaligned
 964              		.loc 1 1217 0
 965 0060 B7F804E0 		ldrh	lr, [r7, #4]	@ unaligned
 966              		.loc 1 1218 0
 967 0064 9188     		ldrh	r1, [r2, #4]	@ unaligned
 968 0066 C4F82200 		str	r0, [r4, #34]	@ unaligned
ARM GAS  C:\Users\jo\AppData\Local\Temp\ccNIDPVC.s 			page 18


 969              		.loc 1 1223 0
 970 006a 9A88     		ldrh	r2, [r3, #4]	@ unaligned
 971 006c 1868     		ldr	r0, [r3]	@ unaligned
 972              		.loc 1 1217 0
 973 006e A4F81CE0 		strh	lr, [r4, #28]	@ unaligned
 974              		.loc 1 1218 0
 975 0072 E184     		strh	r1, [r4, #38]	@ unaligned
 976              		.loc 1 1223 0
 977 0074 C4F80200 		str	r0, [r4, #2]	@ unaligned
 978 0078 E280     		strh	r2, [r4, #6]	@ unaligned
 979              		.loc 1 1225 0
 980 007a 3B68     		ldr	r3, [r7]	@ unaligned
 981 007c A360     		str	r3, [r4, #8]	@ unaligned
 982 007e BB88     		ldrh	r3, [r7, #4]	@ unaligned
 983 0080 A381     		strh	r3, [r4, #12]	@ unaligned
 984              		.loc 1 1228 0
 985 0082 D9F80030 		ldr	r3, [r9]	@ unaligned
 986 0086 C4F81E30 		str	r3, [r4, #30]	@ unaligned
 987              		.loc 1 1229 0
 988 008a D8F80030 		ldr	r3, [r8]	@ unaligned
 989 008e A362     		str	r3, [r4, #40]	@ unaligned
 990              		.loc 1 1234 0
 991 0090 0621     		movs	r1, #6
 992              		.loc 1 1235 0
 993 0092 0423     		movs	r3, #4
 994              		.loc 1 1234 0
 995 0094 2175     		strb	r1, [r4, #20]
 996              		.loc 1 1235 0
 997 0096 6375     		strb	r3, [r4, #21]
 998              		.loc 1 1231 0
 999 0098 0022     		movs	r2, #0
 1000              		.loc 1 1232 0
 1001 009a 0823     		movs	r3, #8
 1002              		.loc 1 1231 0
 1003 009c 4FF0010E 		mov	lr, #1
 1004              		.loc 1 1239 0
 1005 00a0 AF69     		ldr	r7, [r5, #24]
 1006              	.LVL101:
 1007              		.loc 1 1237 0
 1008 00a2 E173     		strb	r1, [r4, #15]
 1009              		.loc 1 1231 0
 1010 00a4 2274     		strb	r2, [r4, #16]
 1011              		.loc 1 1232 0
 1012 00a6 E274     		strb	r2, [r4, #19]
 1013              		.loc 1 1231 0
 1014 00a8 84F811E0 		strb	lr, [r4, #17]
 1015              		.loc 1 1232 0
 1016 00ac A374     		strb	r3, [r4, #18]
 1017              		.loc 1 1237 0
 1018 00ae A373     		strb	r3, [r4, #14]
 1019              		.loc 1 1239 0
 1020 00b0 3146     		mov	r1, r6
 1021 00b2 2846     		mov	r0, r5
 1022 00b4 B847     		blx	r7
 1023              	.LVL102:
 1024              		.loc 1 1240 0
 1025 00b6 1C4A     		ldr	r2, .L123+24
ARM GAS  C:\Users\jo\AppData\Local\Temp\ccNIDPVC.s 			page 19


 1026 00b8 138B     		ldrh	r3, [r2, #24]
 1027              		.loc 1 1239 0
 1028 00ba 0446     		mov	r4, r0
 1029              	.LVL103:
 1030              		.loc 1 1240 0
 1031 00bc 0133     		adds	r3, r3, #1
 1032              		.loc 1 1242 0
 1033 00be 3046     		mov	r0, r6
 1034              		.loc 1 1240 0
 1035 00c0 1383     		strh	r3, [r2, #24]	@ movhi
 1036              		.loc 1 1242 0
 1037 00c2 FFF7FEFF 		bl	pbuf_free
 1038              	.LVL104:
 1039              		.loc 1 1246 0
 1040 00c6 2046     		mov	r0, r4
 1041              	.LVL105:
 1042              	.L113:
 1043              	.LBE83:
 1044              	.LBE82:
 1045              		.loc 1 1265 0
 1046 00c8 40B2     		sxtb	r0, r0
 1047 00ca 03B0     		add	sp, sp, #12
 1048              		.cfi_remember_state
 1049              		.cfi_def_cfa_offset 28
 1050              		@ sp needed
 1051 00cc BDE8F083 		pop	{r4, r5, r6, r7, r8, r9, pc}
 1052              	.LVL106:
 1053              	.L122:
 1054              		.cfi_restore_state
 1055              	.LBB91:
 1056              	.LBB90:
 1057              		.loc 1 1200 0
 1058 00d0 0F4B     		ldr	r3, .L123
 1059 00d2 0093     		str	r3, [sp]
 1060 00d4 1049     		ldr	r1, .L123+8
 1061 00d6 154A     		ldr	r2, .L123+28
 1062 00d8 0E48     		ldr	r0, .L123+4
 1063              	.LVL107:
 1064 00da 40F2B143 		movw	r3, #1201
 1065 00de FFF7FEFF 		bl	chprintf.constprop.1
 1066              	.LVL108:
 1067              	.LBB86:
 1068              	.LBB87:
 1069              		.loc 3 414 0
 1070 00e2 1248     		ldr	r0, .L123+28
 1071 00e4 FFF7FEFF 		bl	chSysHalt
 1072              	.LVL109:
 1073 00e8 A0E7     		b	.L114
 1074              	.LVL110:
 1075              	.L120:
 1076              	.LBE87:
 1077              	.LBE86:
 1078              		.loc 1 1189 0
 1079 00ea 094B     		ldr	r3, .L123
 1080 00ec 0093     		str	r3, [sp]
 1081 00ee 0A49     		ldr	r1, .L123+8
 1082              	.LVL111:
ARM GAS  C:\Users\jo\AppData\Local\Temp\ccNIDPVC.s 			page 20


 1083 00f0 0F4A     		ldr	r2, .L123+32
 1084 00f2 0848     		ldr	r0, .L123+4
 1085              	.LVL112:
 1086 00f4 40F2A543 		movw	r3, #1189
 1087 00f8 FFF7FEFF 		bl	chprintf.constprop.1
 1088              	.LVL113:
 1089              	.LBB88:
 1090              	.LBB89:
 1091              		.loc 3 414 0
 1092 00fc 0C48     		ldr	r0, .L123+32
 1093 00fe FFF7FEFF 		bl	chSysHalt
 1094              	.LVL114:
 1095 0102 88E7     		b	.L111
 1096              	.LVL115:
 1097              	.L121:
 1098              	.LBE89:
 1099              	.LBE88:
 1100              		.loc 1 1197 0
 1101 0104 084A     		ldr	r2, .L123+24
 1102 0106 938C     		ldrh	r3, [r2, #36]
 1103 0108 0133     		adds	r3, r3, #1
 1104 010a 9384     		strh	r3, [r2, #36]	@ movhi
 1105              		.loc 1 1198 0
 1106 010c FF20     		movs	r0, #255
 1107              	.LVL116:
 1108 010e DBE7     		b	.L113
 1109              	.L124:
 1110              		.align	2
 1111              	.L123:
 1112 0110 6C000000 		.word	.LC2
 1113 0114 00000000 		.word	itm_port
 1114 0118 00000000 		.word	.LC0
 1115 011c 28000000 		.word	.LC1
 1116 0120 00000000 		.word	.LANCHOR1
 1117 0124 00000000 		.word	.LANCHOR2
 1118 0128 00000000 		.word	lwip_stats
 1119 012c 28010000 		.word	.LC8
 1120 0130 18010000 		.word	.LC7
 1121              	.LBE90:
 1122              	.LBE91:
 1123              		.cfi_endproc
 1124              	.LFE268:
 1125              		.size	etharp_request, .-etharp_request
 1126 0134 AFF30080 		.section	.text.etharp_output_to_arp_index,"ax",%progbits
 1126      AFF30080 
 1126      AFF30080 
 1127              		.align	2
 1128              		.p2align 4,,15
 1129              		.thumb
 1130              		.thumb_func
 1131              		.type	etharp_output_to_arp_index, %function
 1132              	etharp_output_to_arp_index:
 1133              	.LFB264:
 1134              		.loc 1 843 0
 1135              		.cfi_startproc
 1136              		@ args = 0, pretend = 0, frame = 0
 1137              		@ frame_needed = 0, uses_anonymous_args = 0
ARM GAS  C:\Users\jo\AppData\Local\Temp\ccNIDPVC.s 			page 21


 1138              	.LVL117:
 1139 0000 2DE9F043 		push	{r4, r5, r6, r7, r8, r9, lr}
 1140              		.cfi_def_cfa_offset 28
 1141              		.cfi_offset 4, -28
 1142              		.cfi_offset 5, -24
 1143              		.cfi_offset 6, -20
 1144              		.cfi_offset 7, -16
 1145              		.cfi_offset 8, -12
 1146              		.cfi_offset 9, -8
 1147              		.cfi_offset 14, -4
 1148              		.loc 1 844 0
 1149 0004 9700     		lsls	r7, r2, #2
 1150 0006 1D4E     		ldr	r6, .L133
 1151 0008 BD18     		adds	r5, r7, r2
 1152 000a 06EB8505 		add	r5, r6, r5, lsl #2
 1153              		.loc 1 843 0
 1154 000e 83B0     		sub	sp, sp, #12
 1155              		.cfi_def_cfa_offset 40
 1156              		.loc 1 844 0
 1157 0010 AB7C     		ldrb	r3, [r5, #18]	@ zero_extendqisi2
 1158 0012 012B     		cmp	r3, #1
 1159              		.loc 1 843 0
 1160 0014 1446     		mov	r4, r2
 1161 0016 8046     		mov	r8, r0
 1162              		.loc 1 844 0
 1163 0018 05F11005 		add	r5, r5, #16
 1164              		.loc 1 843 0
 1165 001c 8946     		mov	r9, r1
 1166              		.loc 1 844 0
 1167 001e 1FD9     		bls	.L131
 1168              	.LVL118:
 1169              	.L126:
 1170              		.loc 1 849 0
 1171 0020 022B     		cmp	r3, #2
 1172 0022 0CD0     		beq	.L132
 1173              	.L128:
 1174              		.loc 1 856 0
 1175 0024 3C44     		add	r4, r4, r7
 1176 0026 06EB8403 		add	r3, r6, r4, lsl #2
 1177 002a 0C33     		adds	r3, r3, #12
 1178 002c 4946     		mov	r1, r9
 1179 002e 4046     		mov	r0, r8
 1180 0030 08F12302 		add	r2, r8, #35
 1181              		.loc 1 858 0
 1182 0034 03B0     		add	sp, sp, #12
 1183              		.cfi_remember_state
 1184              		.cfi_def_cfa_offset 28
 1185              		@ sp needed
 1186 0036 BDE8F043 		pop	{r4, r5, r6, r7, r8, r9, lr}
 1187              		.cfi_restore 14
 1188              		.cfi_restore 9
 1189              		.cfi_restore 8
 1190              		.cfi_restore 7
 1191              		.cfi_restore 6
 1192              		.cfi_restore 5
 1193              		.cfi_restore 4
 1194              		.cfi_def_cfa_offset 0
ARM GAS  C:\Users\jo\AppData\Local\Temp\ccNIDPVC.s 			page 22


 1195              	.LVL119:
 1196              		.loc 1 856 0
 1197 003a FFF7FEBF 		b	etharp_send_ip
 1198              	.LVL120:
 1199              	.L132:
 1200              		.cfi_restore_state
 1201              		.loc 1 850 0 discriminator 1
 1202 003e 3919     		adds	r1, r7, r4
 1203 0040 06EB8101 		add	r1, r6, r1, lsl #2
 1204 0044 01F11005 		add	r5, r1, #16
 1205              		.loc 1 849 0 discriminator 1
 1206 0048 CB7C     		ldrb	r3, [r1, #19]	@ zero_extendqisi2
 1207 004a E32B     		cmp	r3, #227
 1208 004c EAD9     		bls	.L128
 1209              		.loc 1 851 0
 1210 004e 0431     		adds	r1, r1, #4
 1211 0050 4046     		mov	r0, r8
 1212 0052 FFF7FEFF 		bl	etharp_request
 1213              	.LVL121:
 1214 0056 0028     		cmp	r0, #0
 1215 0058 E4D1     		bne	.L128
 1216              		.loc 1 852 0
 1217 005a 0323     		movs	r3, #3
 1218 005c AB70     		strb	r3, [r5, #2]
 1219 005e E1E7     		b	.L128
 1220              	.LVL122:
 1221              	.L131:
 1222              		.loc 1 844 0 discriminator 1
 1223 0060 074B     		ldr	r3, .L133+4
 1224 0062 0093     		str	r3, [sp]
 1225 0064 0749     		ldr	r1, .L133+8
 1226              	.LVL123:
 1227 0066 084A     		ldr	r2, .L133+12
 1228              	.LVL124:
 1229 0068 0848     		ldr	r0, .L133+16
 1230              	.LVL125:
 1231 006a 40F24D33 		movw	r3, #845
 1232 006e FFF7FEFF 		bl	chprintf.constprop.1
 1233              	.LVL126:
 1234              	.LBB92:
 1235              	.LBB93:
 1236              		.loc 3 414 0 discriminator 1
 1237 0072 0548     		ldr	r0, .L133+12
 1238 0074 FFF7FEFF 		bl	chSysHalt
 1239              	.LVL127:
 1240 0078 AB78     		ldrb	r3, [r5, #2]	@ zero_extendqisi2
 1241 007a D1E7     		b	.L126
 1242              	.L134:
 1243              		.align	2
 1244              	.L133:
 1245 007c 00000000 		.word	.LANCHOR0
 1246 0080 6C000000 		.word	.LC2
 1247 0084 00000000 		.word	.LC0
 1248 0088 5C010000 		.word	.LC9
 1249 008c 00000000 		.word	itm_port
 1250              	.LBE93:
 1251              	.LBE92:
ARM GAS  C:\Users\jo\AppData\Local\Temp\ccNIDPVC.s 			page 23


 1252              		.cfi_endproc
 1253              	.LFE264:
 1254              		.size	etharp_output_to_arp_index, .-etharp_output_to_arp_index
 1255              		.section	.text.etharp_query,"ax",%progbits
 1256              		.align	2
 1257              		.p2align 4,,15
 1258              		.global	etharp_query
 1259              		.thumb
 1260              		.thumb_func
 1261              		.type	etharp_query, %function
 1262              	etharp_query:
 1263              	.LFB266:
 1264              		.loc 1 1017 0
 1265              		.cfi_startproc
 1266              		@ args = 0, pretend = 0, frame = 0
 1267              		@ frame_needed = 0, uses_anonymous_args = 0
 1268              	.LVL128:
 1269 0000 2DE9F047 		push	{r4, r5, r6, r7, r8, r9, r10, lr}
 1270              		.cfi_def_cfa_offset 32
 1271              		.cfi_offset 4, -32
 1272              		.cfi_offset 5, -28
 1273              		.cfi_offset 6, -24
 1274              		.cfi_offset 7, -20
 1275              		.cfi_offset 8, -16
 1276              		.cfi_offset 9, -12
 1277              		.cfi_offset 10, -8
 1278              		.cfi_offset 14, -4
 1279 0004 0F46     		mov	r7, r1
 1280 0006 82B0     		sub	sp, sp, #8
 1281              		.cfi_def_cfa_offset 40
 1282              		.loc 1 1017 0
 1283 0008 0446     		mov	r4, r0
 1284              	.LVL129:
 1285              		.loc 1 1023 0
 1286 000a 0146     		mov	r1, r0
 1287              	.LVL130:
 1288 000c 3868     		ldr	r0, [r7]
 1289              	.LVL131:
 1290              		.loc 1 1017 0
 1291 000e 9046     		mov	r8, r2
 1292              		.loc 1 1023 0
 1293 0010 FFF7FEFF 		bl	ip4_addr_isbroadcast
 1294              	.LVL132:
 1295 0014 0028     		cmp	r0, #0
 1296 0016 65D1     		bne	.L156
 1297              		.loc 1 1024 0 discriminator 1
 1298 0018 3B68     		ldr	r3, [r7]
 1299 001a 03F0F002 		and	r2, r3, #240
 1300              		.loc 1 1023 0 discriminator 1
 1301 001e E02A     		cmp	r2, #224
 1302 0020 60D0     		beq	.L156
 1303              		.loc 1 1025 0
 1304 0022 002B     		cmp	r3, #0
 1305 0024 5ED0     		beq	.L156
 1306              		.loc 1 1031 0
 1307 0026 3846     		mov	r0, r7
 1308 0028 0121     		movs	r1, #1
ARM GAS  C:\Users\jo\AppData\Local\Temp\ccNIDPVC.s 			page 24


 1309 002a FFF7FEFF 		bl	etharp_find_entry
 1310              	.LVL133:
 1311              		.loc 1 1034 0
 1312 002e 061E     		subs	r6, r0, #0
 1313 0030 31DB     		blt	.L177
 1314              		.loc 1 1044 0
 1315 0032 B500     		lsls	r5, r6, #2
 1316 0034 DFF82891 		ldr	r9, .L181+20
 1317 0038 AA19     		adds	r2, r5, r6
 1318 003a 09EB8202 		add	r2, r9, r2, lsl #2
 1319 003e 1032     		adds	r2, r2, #16
 1320 0040 9378     		ldrb	r3, [r2, #2]	@ zero_extendqisi2
 1321 0042 9BB1     		cbz	r3, .L178
 1322              		.loc 1 1054 0
 1323 0044 012B     		cmp	r3, #1
 1324 0046 13D0     		beq	.L139
 1325              		.loc 1 1054 0 is_stmt 0 discriminator 1
 1326 0048 B8F1000F 		cmp	r8, #0
 1327 004c 4FD0     		beq	.L179
 1328              	.LVL134:
 1329              	.L141:
 1330              		.loc 1 1075 0 is_stmt 1
 1331 004e AB19     		adds	r3, r5, r6
 1332 0050 09EB8303 		add	r3, r9, r3, lsl #2
 1333              		.loc 1 1073 0
 1334 0054 3D4D     		ldr	r5, .L181
 1335              		.loc 1 1075 0
 1336 0056 0C33     		adds	r3, r3, #12
 1337 0058 4146     		mov	r1, r8
 1338 005a 2046     		mov	r0, r4
 1339 005c 04F12302 		add	r2, r4, #35
 1340              		.loc 1 1073 0
 1341 0060 2E70     		strb	r6, [r5]
 1342              		.loc 1 1154 0
 1343 0062 02B0     		add	sp, sp, #8
 1344              		.cfi_remember_state
 1345              		.cfi_def_cfa_offset 32
 1346              		@ sp needed
 1347 0064 BDE8F047 		pop	{r4, r5, r6, r7, r8, r9, r10, lr}
 1348              		.cfi_restore 14
 1349              		.cfi_restore 10
 1350              		.cfi_restore 9
 1351              		.cfi_restore 8
 1352              		.cfi_restore 7
 1353              		.cfi_restore 6
 1354              		.cfi_restore 5
 1355              		.cfi_restore 4
 1356              		.cfi_def_cfa_offset 0
 1357              	.LVL135:
 1358              		.loc 1 1075 0
 1359 0068 FFF7FEBF 		b	etharp_send_ip
 1360              	.LVL136:
 1361              	.L178:
 1362              		.cfi_restore_state
 1363              		.loc 1 1045 0
 1364 006c 0123     		movs	r3, #1
 1365 006e 9370     		strb	r3, [r2, #2]
ARM GAS  C:\Users\jo\AppData\Local\Temp\ccNIDPVC.s 			page 25


 1366              	.L139:
 1367              		.loc 1 1056 0
 1368 0070 3946     		mov	r1, r7
 1369 0072 2046     		mov	r0, r4
 1370              	.LVL137:
 1371 0074 FFF7FEFF 		bl	etharp_request
 1372              	.LVL138:
 1373              		.loc 1 1063 0
 1374 0078 B8F1000F 		cmp	r8, #0
 1375 007c 06D0     		beq	.L159
 1376              		.loc 1 1071 0
 1377 007e AB19     		adds	r3, r5, r6
 1378 0080 09EB8303 		add	r3, r9, r3, lsl #2
 1379 0084 9B7C     		ldrb	r3, [r3, #18]	@ zero_extendqisi2
 1380 0086 012B     		cmp	r3, #1
 1381 0088 E1D8     		bhi	.L141
 1382              		.loc 1 1077 0
 1383 008a 0FD0     		beq	.L180
 1384              	.L159:
 1385              		.loc 1 1056 0
 1386 008c 0646     		mov	r6, r0
 1387              	.LVL139:
 1388              	.L136:
 1389 008e 70B2     		sxtb	r0, r6
 1390              		.loc 1 1154 0
 1391 0090 02B0     		add	sp, sp, #8
 1392              		.cfi_remember_state
 1393              		.cfi_def_cfa_offset 32
 1394              		@ sp needed
 1395 0092 BDE8F087 		pop	{r4, r5, r6, r7, r8, r9, r10, pc}
 1396              	.LVL140:
 1397              	.L177:
 1398              		.cfi_restore_state
 1399              		.loc 1 1036 0
 1400 0096 B8F1000F 		cmp	r8, #0
 1401 009a F8D0     		beq	.L136
 1402              		.loc 1 1038 0
 1403 009c 2C4A     		ldr	r2, .L181+4
 1404 009e 938C     		ldrh	r3, [r2, #36]
 1405 00a0 70B2     		sxtb	r0, r6
 1406              	.LVL141:
 1407 00a2 0133     		adds	r3, r3, #1
 1408 00a4 9384     		strh	r3, [r2, #36]	@ movhi
 1409              		.loc 1 1154 0
 1410 00a6 02B0     		add	sp, sp, #8
 1411              		.cfi_remember_state
 1412              		.cfi_def_cfa_offset 32
 1413              		@ sp needed
 1414 00a8 BDE8F087 		pop	{r4, r5, r6, r7, r8, r9, r10, pc}
 1415              	.LVL142:
 1416              	.L180:
 1417              		.cfi_restore_state
 1418              	.LBB94:
 1419              		.loc 1 1086 0
 1420 00ac DFF8B4A0 		ldr	r10, .L181+24
 1421              	.LBE94:
 1422 00b0 4446     		mov	r4, r8
ARM GAS  C:\Users\jo\AppData\Local\Temp\ccNIDPVC.s 			page 26


 1423              	.LVL143:
 1424 00b2 04E0     		b	.L146
 1425              	.LVL144:
 1426              	.L143:
 1427              	.LBB97:
 1428              		.loc 1 1087 0
 1429 00b4 237B     		ldrb	r3, [r4, #12]	@ zero_extendqisi2
 1430 00b6 012B     		cmp	r3, #1
 1431 00b8 32D1     		bne	.L145
 1432              		.loc 1 1091 0
 1433 00ba 2468     		ldr	r4, [r4]
 1434              	.LVL145:
 1435              		.loc 1 1085 0
 1436 00bc 0CB3     		cbz	r4, .L147
 1437              	.LVL146:
 1438              	.L146:
 1439              		.loc 1 1086 0
 1440 00be 6289     		ldrh	r2, [r4, #10]
 1441 00c0 2389     		ldrh	r3, [r4, #8]
 1442 00c2 9A42     		cmp	r2, r3
 1443 00c4 F6D1     		bne	.L143
 1444              		.loc 1 1086 0 is_stmt 0 discriminator 1
 1445 00c6 2768     		ldr	r7, [r4]
 1446 00c8 2248     		ldr	r0, .L181+8
 1447 00ca 2349     		ldr	r1, .L181+12
 1448 00cc 234A     		ldr	r2, .L181+16
 1449 00ce 40F23E43 		movw	r3, #1086
 1450 00d2 9FB1     		cbz	r7, .L144
 1451              		.loc 1 1086 0 discriminator 2
 1452 00d4 CDF800A0 		str	r10, [sp]
 1453 00d8 FFF7FEFF 		bl	chprintf.constprop.1
 1454              	.LVL147:
 1455              	.LBB95:
 1456              	.LBB96:
 1457              		.loc 3 414 0 is_stmt 1 discriminator 2
 1458 00dc 1F48     		ldr	r0, .L181+16
 1459 00de FFF7FEFF 		bl	chSysHalt
 1460              	.LVL148:
 1461 00e2 E7E7     		b	.L143
 1462              	.LVL149:
 1463              	.L156:
 1464              	.LBE96:
 1465              	.LBE95:
 1466              	.LBE97:
 1467              		.loc 1 1027 0
 1468 00e4 F226     		movs	r6, #242
 1469 00e6 70B2     		sxtb	r0, r6
 1470              		.loc 1 1154 0
 1471 00e8 02B0     		add	sp, sp, #8
 1472              		.cfi_remember_state
 1473              		.cfi_def_cfa_offset 32
 1474              		@ sp needed
 1475 00ea BDE8F087 		pop	{r4, r5, r6, r7, r8, r9, r10, pc}
 1476              	.LVL150:
 1477              	.L179:
 1478              		.cfi_restore_state
 1479              		.loc 1 1056 0
ARM GAS  C:\Users\jo\AppData\Local\Temp\ccNIDPVC.s 			page 27


 1480 00ee 2046     		mov	r0, r4
 1481              	.LVL151:
 1482 00f0 3946     		mov	r1, r7
 1483              		.loc 1 1154 0
 1484 00f2 02B0     		add	sp, sp, #8
 1485              		.cfi_remember_state
 1486              		.cfi_def_cfa_offset 32
 1487              		@ sp needed
 1488 00f4 BDE8F047 		pop	{r4, r5, r6, r7, r8, r9, r10, lr}
 1489              		.cfi_restore 14
 1490              		.cfi_restore 10
 1491              		.cfi_restore 9
 1492              		.cfi_restore 8
 1493              		.cfi_restore 7
 1494              		.cfi_restore 6
 1495              		.cfi_restore 5
 1496              		.cfi_restore 4
 1497              		.cfi_def_cfa_offset 0
 1498              	.LVL152:
 1499              		.loc 1 1056 0
 1500 00f8 FFF7FEBF 		b	etharp_request
 1501              	.LVL153:
 1502              	.L144:
 1503              		.cfi_restore_state
 1504              	.LBB98:
 1505              		.loc 1 1087 0
 1506 00fc 237B     		ldrb	r3, [r4, #12]	@ zero_extendqisi2
 1507 00fe 012B     		cmp	r3, #1
 1508 0100 0ED1     		bne	.L145
 1509              	.L147:
 1510              	.LVL154:
 1511              		.loc 1 1105 0
 1512 0102 4046     		mov	r0, r8
 1513 0104 FFF7FEFF 		bl	pbuf_ref
 1514              	.LVL155:
 1515 0108 4446     		mov	r4, r8
 1516              	.LVL156:
 1517              	.L148:
 1518              		.loc 1 1139 0
 1519 010a AB19     		adds	r3, r5, r6
 1520 010c 59F82300 		ldr	r0, [r9, r3, lsl #2]
 1521 0110 08B1     		cbz	r0, .L150
 1522              		.loc 1 1141 0
 1523 0112 FFF7FEFF 		bl	pbuf_free
 1524              	.LVL157:
 1525              	.L150:
 1526              		.loc 1 1143 0
 1527 0116 3544     		add	r5, r5, r6
 1528              		.loc 1 1144 0
 1529 0118 0026     		movs	r6, #0
 1530              		.loc 1 1143 0
 1531 011a 49F82540 		str	r4, [r9, r5, lsl #2]
 1532              	.LVL158:
 1533 011e B6E7     		b	.L136
 1534              	.LVL159:
 1535              	.L145:
 1536              		.loc 1 1095 0
ARM GAS  C:\Users\jo\AppData\Local\Temp\ccNIDPVC.s 			page 28


 1537 0120 2189     		ldrh	r1, [r4, #8]
 1538 0122 0320     		movs	r0, #3
 1539 0124 0022     		movs	r2, #0
 1540 0126 FFF7FEFF 		bl	pbuf_alloc
 1541              	.LVL160:
 1542              		.loc 1 1096 0
 1543 012a 0446     		mov	r4, r0
 1544 012c 38B1     		cbz	r0, .L149
 1545              		.loc 1 1097 0
 1546 012e 4146     		mov	r1, r8
 1547 0130 FFF7FEFF 		bl	pbuf_copy
 1548              	.LVL161:
 1549 0134 0028     		cmp	r0, #0
 1550 0136 E8D0     		beq	.L148
 1551              		.loc 1 1098 0
 1552 0138 2046     		mov	r0, r4
 1553 013a FFF7FEFF 		bl	pbuf_free
 1554              	.LVL162:
 1555              	.L149:
 1556              		.loc 1 1148 0
 1557 013e 044A     		ldr	r2, .L181+4
 1558 0140 938C     		ldrh	r3, [r2, #36]
 1559 0142 0133     		adds	r3, r3, #1
 1560 0144 9384     		strh	r3, [r2, #36]	@ movhi
 1561              	.LVL163:
 1562              		.loc 1 1150 0
 1563 0146 FF26     		movs	r6, #255
 1564 0148 A1E7     		b	.L136
 1565              	.L182:
 1566 014a 00BF     		.align	2
 1567              	.L181:
 1568 014c 00000000 		.word	.LANCHOR3
 1569 0150 00000000 		.word	lwip_stats
 1570 0154 00000000 		.word	itm_port
 1571 0158 00000000 		.word	.LC0
 1572 015c 8C010000 		.word	.LC10
 1573 0160 00000000 		.word	.LANCHOR0
 1574 0164 6C000000 		.word	.LC2
 1575              	.LBE98:
 1576              		.cfi_endproc
 1577              	.LFE266:
 1578              		.size	etharp_query, .-etharp_query
 1579 0168 AFF30080 		.section	.text.etharp_output,"ax",%progbits
 1579      AFF30080 
 1580              		.align	2
 1581              		.p2align 4,,15
 1582              		.global	etharp_output
 1583              		.thumb
 1584              		.thumb_func
 1585              		.type	etharp_output, %function
 1586              	etharp_output:
 1587              	.LFB265:
 1588              		.loc 1 880 0
 1589              		.cfi_startproc
 1590              		@ args = 0, pretend = 0, frame = 8
 1591              		@ frame_needed = 0, uses_anonymous_args = 0
 1592              	.LVL164:
ARM GAS  C:\Users\jo\AppData\Local\Temp\ccNIDPVC.s 			page 29


 1593 0000 F0B5     		push	{r4, r5, r6, r7, lr}
 1594              		.cfi_def_cfa_offset 20
 1595              		.cfi_offset 4, -20
 1596              		.cfi_offset 5, -16
 1597              		.cfi_offset 6, -12
 1598              		.cfi_offset 7, -8
 1599              		.cfi_offset 14, -4
 1600 0002 0E46     		mov	r6, r1
 1601 0004 85B0     		sub	sp, sp, #20
 1602              		.cfi_def_cfa_offset 40
 1603              		.loc 1 880 0
 1604 0006 1446     		mov	r4, r2
 1605              	.LVL165:
 1606              		.loc 1 885 0
 1607 0008 0546     		mov	r5, r0
 1608 000a 0028     		cmp	r0, #0
 1609 000c 6CD0     		beq	.L203
 1610              		.loc 1 886 0
 1611 000e 002E     		cmp	r6, #0
 1612 0010 78D0     		beq	.L204
 1613              	.LVL166:
 1614              	.L185:
 1615              		.loc 1 887 0
 1616 0012 002C     		cmp	r4, #0
 1617 0014 00F09480 		beq	.L205
 1618              	.L186:
 1619              		.loc 1 890 0
 1620 0018 3046     		mov	r0, r6
 1621 001a 1021     		movs	r1, #16
 1622 001c FFF7FEFF 		bl	pbuf_header
 1623              	.LVL167:
 1624 0020 0028     		cmp	r0, #0
 1625 0022 40F08780 		bne	.L206
 1626              		.loc 1 902 0
 1627 0026 2068     		ldr	r0, [r4]
 1628 0028 2946     		mov	r1, r5
 1629 002a FFF7FEFF 		bl	ip4_addr_isbroadcast
 1630              	.LVL168:
 1631 002e 0028     		cmp	r0, #0
 1632 0030 3BD1     		bne	.L196
 1633              		.loc 1 906 0
 1634 0032 2368     		ldr	r3, [r4]
 1635 0034 03F0F002 		and	r2, r3, #240
 1636 0038 E02A     		cmp	r2, #224
 1637 003a 40D0     		beq	.L207
 1638              	.LBB99:
 1639              		.loc 1 921 0
 1640 003c 6A68     		ldr	r2, [r5, #4]
 1641 003e A968     		ldr	r1, [r5, #8]
 1642 0040 5A40     		eors	r2, r2, r3
 1643 0042 0A42     		tst	r2, r1
 1644 0044 09D0     		beq	.L191
 1645              		.loc 1 922 0 discriminator 1
 1646 0046 9BB2     		uxth	r3, r3
 1647              		.loc 1 921 0 discriminator 1
 1648 0048 4FF6A962 		movw	r2, #65193
 1649 004c 9342     		cmp	r3, r2
ARM GAS  C:\Users\jo\AppData\Local\Temp\ccNIDPVC.s 			page 30


 1650 004e 04D0     		beq	.L191
 1651              		.loc 1 934 0
 1652 0050 EB68     		ldr	r3, [r5, #12]
 1653 0052 05F10C04 		add	r4, r5, #12
 1654              	.LVL169:
 1655 0056 002B     		cmp	r3, #0
 1656 0058 7FD0     		beq	.L197
 1657              	.L191:
 1658              	.LVL170:
 1659              		.loc 1 950 0
 1660 005a DFF838E1 		ldr	lr, .L209+36
 1661 005e 444B     		ldr	r3, .L209
 1662 0060 9EF80020 		ldrb	r2, [lr]	@ zero_extendqisi2
 1663 0064 02EB8201 		add	r1, r2, r2, lsl #2
 1664 0068 03EB8103 		add	r3, r3, r1, lsl #2
 1665 006c 997C     		ldrb	r1, [r3, #18]	@ zero_extendqisi2
 1666 006e 0129     		cmp	r1, #1
 1667 0070 03D9     		bls	.L192
 1668              		.loc 1 950 0 is_stmt 0 discriminator 1
 1669 0072 5B68     		ldr	r3, [r3, #4]
 1670 0074 2168     		ldr	r1, [r4]
 1671 0076 9942     		cmp	r1, r3
 1672 0078 71D0     		beq	.L193
 1673              	.L192:
 1674 007a 3D4A     		ldr	r2, .L209
 1675              	.LBE99:
 1676              		.loc 1 880 0 is_stmt 1
 1677 007c 0023     		movs	r3, #0
 1678              	.L194:
 1679              	.LVL171:
 1680              	.LBB100:
 1681              		.loc 1 964 0
 1682 007e 917C     		ldrb	r1, [r2, #18]	@ zero_extendqisi2
 1683 0080 0129     		cmp	r1, #1
 1684 0082 DFB2     		uxtb	r7, r3
 1685              	.LVL172:
 1686 0084 03F10103 		add	r3, r3, #1
 1687 0088 03D9     		bls	.L195
 1688              		.loc 1 964 0 is_stmt 0 discriminator 1
 1689 008a 2068     		ldr	r0, [r4]
 1690 008c 5168     		ldr	r1, [r2, #4]
 1691 008e 8842     		cmp	r0, r1
 1692 0090 45D0     		beq	.L208
 1693              	.L195:
 1694              		.loc 1 963 0 is_stmt 1 discriminator 2
 1695 0092 0A2B     		cmp	r3, #10
 1696 0094 02F11402 		add	r2, r2, #20
 1697 0098 F1D1     		bne	.L194
 1698              		.loc 1 973 0
 1699 009a 2846     		mov	r0, r5
 1700 009c 2146     		mov	r1, r4
 1701 009e 3246     		mov	r2, r6
 1702 00a0 FFF7FEFF 		bl	etharp_query
 1703              	.LVL173:
 1704              	.L188:
 1705              	.LBE100:
 1706              		.loc 1 980 0
ARM GAS  C:\Users\jo\AppData\Local\Temp\ccNIDPVC.s 			page 31


 1707 00a4 40B2     		sxtb	r0, r0
 1708 00a6 05B0     		add	sp, sp, #20
 1709              		.cfi_remember_state
 1710              		.cfi_def_cfa_offset 20
 1711              		@ sp needed
 1712 00a8 F0BD     		pop	{r4, r5, r6, r7, pc}
 1713              	.LVL174:
 1714              	.L196:
 1715              		.cfi_restore_state
 1716              		.loc 1 904 0
 1717 00aa 324B     		ldr	r3, .L209+4
 1718              	.LVL175:
 1719              	.L189:
 1720              		.loc 1 979 0
 1721 00ac 3146     		mov	r1, r6
 1722 00ae 2846     		mov	r0, r5
 1723 00b0 05F12302 		add	r2, r5, #35
 1724 00b4 FFF7FEFF 		bl	etharp_send_ip
 1725              	.LVL176:
 1726              		.loc 1 980 0
 1727 00b8 40B2     		sxtb	r0, r0
 1728 00ba 05B0     		add	sp, sp, #20
 1729              		.cfi_remember_state
 1730              		.cfi_def_cfa_offset 20
 1731              		@ sp needed
 1732 00bc F0BD     		pop	{r4, r5, r6, r7, pc}
 1733              	.LVL177:
 1734              	.L207:
 1735              		.cfi_restore_state
 1736              		.loc 1 911 0
 1737 00be 6378     		ldrb	r3, [r4, #1]	@ zero_extendqisi2
 1738              		.loc 1 912 0
 1739 00c0 A178     		ldrb	r1, [r4, #2]	@ zero_extendqisi2
 1740              		.loc 1 913 0
 1741 00c2 E278     		ldrb	r2, [r4, #3]	@ zero_extendqisi2
 1742              		.loc 1 909 0
 1743 00c4 8DF80900 		strb	r0, [sp, #9]
 1744              		.loc 1 911 0
 1745 00c8 03F07F03 		and	r3, r3, #127
 1746              		.loc 1 908 0
 1747 00cc 0124     		movs	r4, #1
 1748              	.LVL178:
 1749              		.loc 1 910 0
 1750 00ce 5E20     		movs	r0, #94
 1751              		.loc 1 911 0
 1752 00d0 8DF80B30 		strb	r3, [sp, #11]
 1753              		.loc 1 908 0
 1754 00d4 8DF80840 		strb	r4, [sp, #8]
 1755              		.loc 1 910 0
 1756 00d8 8DF80A00 		strb	r0, [sp, #10]
 1757              		.loc 1 912 0
 1758 00dc 8DF80C10 		strb	r1, [sp, #12]
 1759              		.loc 1 913 0
 1760 00e0 8DF80D20 		strb	r2, [sp, #13]
 1761              	.LVL179:
 1762              		.loc 1 915 0
 1763 00e4 02AB     		add	r3, sp, #8
ARM GAS  C:\Users\jo\AppData\Local\Temp\ccNIDPVC.s 			page 32


 1764              	.LVL180:
 1765 00e6 E1E7     		b	.L189
 1766              	.LVL181:
 1767              	.L203:
 1768              		.loc 1 885 0 discriminator 1
 1769 00e8 234B     		ldr	r3, .L209+8
 1770 00ea 0093     		str	r3, [sp]
 1771 00ec 2348     		ldr	r0, .L209+12
 1772              	.LVL182:
 1773 00ee 2449     		ldr	r1, .L209+16
 1774              	.LVL183:
 1775 00f0 244A     		ldr	r2, .L209+20
 1776              	.LVL184:
 1777 00f2 40F27533 		movw	r3, #885
 1778 00f6 FFF7FEFF 		bl	chprintf.constprop.1
 1779              	.LVL185:
 1780              	.LBB101:
 1781              	.LBB102:
 1782              		.loc 3 414 0 discriminator 1
 1783 00fa 2248     		ldr	r0, .L209+20
 1784 00fc FFF7FEFF 		bl	chSysHalt
 1785              	.LVL186:
 1786              	.LBE102:
 1787              	.LBE101:
 1788              		.loc 1 886 0 discriminator 1
 1789 0100 002E     		cmp	r6, #0
 1790 0102 86D1     		bne	.L185
 1791              	.LVL187:
 1792              	.L204:
 1793 0104 1C4B     		ldr	r3, .L209+8
 1794 0106 0093     		str	r3, [sp]
 1795 0108 1D49     		ldr	r1, .L209+16
 1796 010a 1F4A     		ldr	r2, .L209+24
 1797 010c 1B48     		ldr	r0, .L209+12
 1798 010e 40F27633 		movw	r3, #886
 1799 0112 FFF7FEFF 		bl	chprintf.constprop.1
 1800              	.LVL188:
 1801              	.LBB103:
 1802              	.LBB104:
 1803              		.loc 3 414 0 discriminator 1
 1804 0116 1C48     		ldr	r0, .L209+24
 1805 0118 FFF7FEFF 		bl	chSysHalt
 1806              	.LVL189:
 1807 011c 79E7     		b	.L185
 1808              	.LVL190:
 1809              	.L208:
 1810              	.LBE104:
 1811              	.LBE103:
 1812              	.LBB105:
 1813              		.loc 1 967 0
 1814 011e FFB2     		uxtb	r7, r7
 1815              	.LVL191:
 1816              		.loc 1 968 0
 1817 0120 3A46     		mov	r2, r7
 1818 0122 2846     		mov	r0, r5
 1819 0124 3146     		mov	r1, r6
 1820              		.loc 1 967 0
ARM GAS  C:\Users\jo\AppData\Local\Temp\ccNIDPVC.s 			page 33


 1821 0126 8EF80070 		strb	r7, [lr]
 1822              		.loc 1 968 0
 1823 012a FFF7FEFF 		bl	etharp_output_to_arp_index
 1824              	.LVL192:
 1825              	.LBE105:
 1826              		.loc 1 980 0
 1827 012e 40B2     		sxtb	r0, r0
 1828 0130 05B0     		add	sp, sp, #20
 1829              		.cfi_remember_state
 1830              		.cfi_def_cfa_offset 20
 1831              		@ sp needed
 1832 0132 F0BD     		pop	{r4, r5, r6, r7, pc}
 1833              	.LVL193:
 1834              	.L206:
 1835              		.cfi_restore_state
 1836              		.loc 1 894 0
 1837 0134 154A     		ldr	r2, .L209+28
 1838 0136 5389     		ldrh	r3, [r2, #10]
 1839 0138 0133     		adds	r3, r3, #1
 1840 013a 5381     		strh	r3, [r2, #10]	@ movhi
 1841              		.loc 1 895 0
 1842 013c FE20     		movs	r0, #254
 1843 013e B1E7     		b	.L188
 1844              	.L205:
 1845              		.loc 1 887 0 discriminator 1
 1846 0140 0D4B     		ldr	r3, .L209+8
 1847 0142 0093     		str	r3, [sp]
 1848 0144 0E49     		ldr	r1, .L209+16
 1849 0146 124A     		ldr	r2, .L209+32
 1850 0148 0C48     		ldr	r0, .L209+12
 1851 014a 40F27733 		movw	r3, #887
 1852 014e FFF7FEFF 		bl	chprintf.constprop.1
 1853              	.LVL194:
 1854              	.LBB106:
 1855              	.LBB107:
 1856              		.loc 3 414 0 discriminator 1
 1857 0152 0F48     		ldr	r0, .L209+32
 1858 0154 FFF7FEFF 		bl	chSysHalt
 1859              	.LVL195:
 1860 0158 5EE7     		b	.L186
 1861              	.LVL196:
 1862              	.L197:
 1863              	.LBE107:
 1864              	.LBE106:
 1865              	.LBB108:
 1866              		.loc 1 940 0
 1867 015a FC20     		movs	r0, #252
 1868 015c A2E7     		b	.L188
 1869              	.LVL197:
 1870              	.L193:
 1871              		.loc 1 953 0
 1872 015e 0B4C     		ldr	r4, .L209+28
 1873              	.LVL198:
 1874 0160 E38D     		ldrh	r3, [r4, #46]
 1875              		.loc 1 954 0
 1876 0162 2846     		mov	r0, r5
 1877              		.loc 1 953 0
ARM GAS  C:\Users\jo\AppData\Local\Temp\ccNIDPVC.s 			page 34


 1878 0164 0133     		adds	r3, r3, #1
 1879              		.loc 1 954 0
 1880 0166 3146     		mov	r1, r6
 1881              		.loc 1 953 0
 1882 0168 E385     		strh	r3, [r4, #46]	@ movhi
 1883              		.loc 1 954 0
 1884 016a FFF7FEFF 		bl	etharp_output_to_arp_index
 1885              	.LVL199:
 1886 016e 99E7     		b	.L188
 1887              	.L210:
 1888              		.align	2
 1889              	.L209:
 1890 0170 00000000 		.word	.LANCHOR0
 1891 0174 00000000 		.word	.LANCHOR2
 1892 0178 6C000000 		.word	.LC2
 1893 017c 00000000 		.word	itm_port
 1894 0180 00000000 		.word	.LC0
 1895 0184 18010000 		.word	.LC7
 1896 0188 A8010000 		.word	.LC11
 1897 018c 00000000 		.word	lwip_stats
 1898 0190 B4010000 		.word	.LC12
 1899 0194 00000000 		.word	.LANCHOR3
 1900              	.LBE108:
 1901              		.cfi_endproc
 1902              	.LFE265:
 1903              		.size	etharp_output, .-etharp_output
 1904 0198 AFF30080 		.section	.text.ethernet_input,"ax",%progbits
 1904      AFF30080 
 1905              		.align	2
 1906              		.p2align 4,,15
 1907              		.global	ethernet_input
 1908              		.thumb
 1909              		.thumb_func
 1910              		.type	ethernet_input, %function
 1911              	ethernet_input:
 1912              	.LFB269:
 1913              		.loc 1 1278 0
 1914              		.cfi_startproc
 1915              		@ args = 0, pretend = 0, frame = 16
 1916              		@ frame_needed = 0, uses_anonymous_args = 0
 1917              	.LVL200:
 1918 0000 2DE9F04F 		push	{r4, r5, r6, r7, r8, r9, r10, fp, lr}
 1919              		.cfi_def_cfa_offset 36
 1920              		.cfi_offset 4, -36
 1921              		.cfi_offset 5, -32
 1922              		.cfi_offset 6, -28
 1923              		.cfi_offset 7, -24
 1924              		.cfi_offset 8, -20
 1925              		.cfi_offset 9, -16
 1926              		.cfi_offset 10, -12
 1927              		.cfi_offset 11, -8
 1928              		.cfi_offset 14, -4
 1929              		.loc 1 1285 0
 1930 0004 4789     		ldrh	r7, [r0, #10]
 1931 0006 102F     		cmp	r7, #16
 1932              		.loc 1 1278 0
 1933 0008 87B0     		sub	sp, sp, #28
ARM GAS  C:\Users\jo\AppData\Local\Temp\ccNIDPVC.s 			page 35


 1934              		.cfi_def_cfa_offset 64
 1935              		.loc 1 1278 0
 1936 000a 0446     		mov	r4, r0
 1937              		.loc 1 1285 0
 1938 000c 18D9     		bls	.L263
 1939              		.loc 1 1293 0
 1940 000e 4568     		ldr	r5, [r0, #4]
 1941              	.LVL201:
 1942              		.loc 1 1332 0
 1943 0010 AB78     		ldrb	r3, [r5, #2]	@ zero_extendqisi2
 1944              		.loc 1 1302 0
 1945 0012 B5F80E80 		ldrh	r8, [r5, #14]	@ unaligned
 1946              	.LVL202:
 1947 0016 0E46     		mov	r6, r1
 1948              		.loc 1 1332 0
 1949 0018 D907     		lsls	r1, r3, #31
 1950              	.LVL203:
 1951 001a 0BD5     		bpl	.L214
 1952              		.loc 1 1334 0
 1953 001c 012B     		cmp	r3, #1
 1954 001e 4CD0     		beq	.L268
 1955              		.loc 1 1340 0
 1956 0020 A81C     		adds	r0, r5, #2
 1957              	.LVL204:
 1958 0022 9149     		ldr	r1, .L271
 1959 0024 0622     		movs	r2, #6
 1960 0026 FFF7FEFF 		bl	memcmp
 1961              	.LVL205:
 1962 002a 18B9     		cbnz	r0, .L214
 1963              		.loc 1 1342 0
 1964 002c 637B     		ldrb	r3, [r4, #13]	@ zero_extendqisi2
 1965 002e 43F00803 		orr	r3, r3, #8
 1966 0032 6373     		strb	r3, [r4, #13]
 1967              	.L214:
 1968              		.loc 1 1346 0
 1969 0034 B8F1080F 		cmp	r8, #8
 1970 0038 28D0     		beq	.L217
 1971 003a B8F5C16F 		cmp	r8, #1544
 1972 003e 0DD0     		beq	.L218
 1973              	.LVL206:
 1974              	.L263:
 1975              		.loc 1 1386 0
 1976 0040 8A4B     		ldr	r3, .L271+4
 1977 0042 198D     		ldrh	r1, [r3, #40]
 1978              		.loc 1 1387 0
 1979 0044 DA8B     		ldrh	r2, [r3, #30]
 1980              		.loc 1 1386 0
 1981 0046 0131     		adds	r1, r1, #1
 1982              		.loc 1 1387 0
 1983 0048 0132     		adds	r2, r2, #1
 1984              		.loc 1 1386 0
 1985 004a 1985     		strh	r1, [r3, #40]	@ movhi
 1986              		.loc 1 1387 0
 1987 004c DA83     		strh	r2, [r3, #30]	@ movhi
 1988              	.L213:
 1989              		.loc 1 1396 0
 1990 004e 2046     		mov	r0, r4
ARM GAS  C:\Users\jo\AppData\Local\Temp\ccNIDPVC.s 			page 36


 1991 0050 FFF7FEFF 		bl	pbuf_free
 1992              	.LVL207:
 1993              	.L264:
 1994              		.loc 1 1398 0
 1995 0054 0020     		movs	r0, #0
 1996 0056 07B0     		add	sp, sp, #28
 1997              		.cfi_remember_state
 1998              		.cfi_def_cfa_offset 36
 1999              		@ sp needed
 2000 0058 BDE8F08F 		pop	{r4, r5, r6, r7, r8, r9, r10, fp, pc}
 2001              	.LVL208:
 2002              	.L218:
 2003              		.cfi_restore_state
 2004              		.loc 1 1368 0
 2005 005c 96F82930 		ldrb	r3, [r6, #41]	@ zero_extendqisi2
 2006 0060 9B06     		lsls	r3, r3, #26
 2007 0062 F4D5     		bpl	.L213
 2008              	.LVL209:
 2009              	.LBB122:
 2010              	.LBB123:
 2011              		.loc 1 703 0
 2012 0064 2B2F     		cmp	r7, #43
 2013 0066 38D9     		bls	.L269
 2014              	.LVL210:
 2015              		.loc 1 722 0
 2016 0068 2B8A     		ldrh	r3, [r5, #16]	@ unaligned
 2017 006a B3F5807F 		cmp	r3, #256
 2018 006e 02D1     		bne	.L223
 2019 0070 2B7D     		ldrb	r3, [r5, #20]	@ zero_extendqisi2
 2020 0072 062B     		cmp	r3, #6
 2021 0074 3CD0     		beq	.L270
 2022              	.L223:
 2023              		.loc 1 729 0
 2024 0076 7D4B     		ldr	r3, .L271+4
 2025 0078 198D     		ldrh	r1, [r3, #40]
 2026              		.loc 1 730 0
 2027 007a DA8B     		ldrh	r2, [r3, #30]
 2028              		.loc 1 729 0
 2029 007c 0131     		adds	r1, r1, #1
 2030              		.loc 1 730 0
 2031 007e 0132     		adds	r2, r2, #1
 2032              		.loc 1 731 0
 2033 0080 2046     		mov	r0, r4
 2034              		.loc 1 729 0
 2035 0082 1985     		strh	r1, [r3, #40]	@ movhi
 2036              		.loc 1 730 0
 2037 0084 DA83     		strh	r2, [r3, #30]	@ movhi
 2038              		.loc 1 731 0
 2039 0086 FFF7FEFF 		bl	pbuf_free
 2040              	.LVL211:
 2041 008a E3E7     		b	.L264
 2042              	.LVL212:
 2043              	.L217:
 2044              	.LBE123:
 2045              	.LBE122:
 2046              		.loc 1 1350 0
 2047 008c 96F82930 		ldrb	r3, [r6, #41]	@ zero_extendqisi2
ARM GAS  C:\Users\jo\AppData\Local\Temp\ccNIDPVC.s 			page 37


 2048 0090 9A06     		lsls	r2, r3, #26
 2049 0092 DCD5     		bpl	.L213
 2050              		.loc 1 1358 0
 2051 0094 2046     		mov	r0, r4
 2052 0096 6FF00F01 		mvn	r1, #15
 2053 009a FFF7FEFF 		bl	pbuf_header
 2054              	.LVL213:
 2055 009e B8B1     		cbz	r0, .L219
 2056              		.loc 1 1359 0 discriminator 1
 2057 00a0 734B     		ldr	r3, .L271+8
 2058 00a2 0093     		str	r3, [sp]
 2059 00a4 7349     		ldr	r1, .L271+12
 2060 00a6 744A     		ldr	r2, .L271+16
 2061 00a8 7448     		ldr	r0, .L271+20
 2062 00aa 40F24F53 		movw	r3, #1359
 2063 00ae FFF7FEFF 		bl	chprintf.constprop.1
 2064              	.LVL214:
 2065              	.LBB135:
 2066              	.LBB136:
 2067              		.loc 3 414 0 discriminator 1
 2068 00b2 7148     		ldr	r0, .L271+16
 2069 00b4 FFF7FEFF 		bl	chSysHalt
 2070              	.LVL215:
 2071 00b8 C9E7     		b	.L213
 2072              	.LVL216:
 2073              	.L268:
 2074              	.LBE136:
 2075              	.LBE135:
 2076              		.loc 1 1335 0
 2077 00ba EB78     		ldrb	r3, [r5, #3]	@ zero_extendqisi2
 2078 00bc 002B     		cmp	r3, #0
 2079 00be B9D1     		bne	.L214
 2080              		.loc 1 1335 0 is_stmt 0 discriminator 1
 2081 00c0 2B79     		ldrb	r3, [r5, #4]	@ zero_extendqisi2
 2082 00c2 5E2B     		cmp	r3, #94
 2083 00c4 B6D1     		bne	.L214
 2084              		.loc 1 1338 0 is_stmt 1
 2085 00c6 437B     		ldrb	r3, [r0, #13]	@ zero_extendqisi2
 2086 00c8 43F01003 		orr	r3, r3, #16
 2087 00cc 4373     		strb	r3, [r0, #13]
 2088              	.LVL217:
 2089 00ce B1E7     		b	.L214
 2090              	.LVL218:
 2091              	.L219:
 2092              		.loc 1 1363 0
 2093 00d0 2046     		mov	r0, r4
 2094 00d2 3146     		mov	r1, r6
 2095 00d4 FFF7FEFF 		bl	ip_input
 2096              	.LVL219:
 2097              		.loc 1 1365 0
 2098 00d8 BCE7     		b	.L264
 2099              	.LVL220:
 2100              	.L269:
 2101              	.LBB137:
 2102              	.LBB133:
 2103              		.loc 1 707 0
 2104 00da 644B     		ldr	r3, .L271+4
ARM GAS  C:\Users\jo\AppData\Local\Temp\ccNIDPVC.s 			page 38


 2105 00dc 598C     		ldrh	r1, [r3, #34]
 2106              		.loc 1 708 0
 2107 00de DA8B     		ldrh	r2, [r3, #30]
 2108              		.loc 1 707 0
 2109 00e0 0131     		adds	r1, r1, #1
 2110              		.loc 1 708 0
 2111 00e2 0132     		adds	r2, r2, #1
 2112              		.loc 1 709 0
 2113 00e4 2046     		mov	r0, r4
 2114              		.loc 1 707 0
 2115 00e6 5984     		strh	r1, [r3, #34]	@ movhi
 2116              		.loc 1 708 0
 2117 00e8 DA83     		strh	r2, [r3, #30]	@ movhi
 2118              		.loc 1 709 0
 2119 00ea FFF7FEFF 		bl	pbuf_free
 2120              	.LVL221:
 2121 00ee B1E7     		b	.L264
 2122              	.LVL222:
 2123              	.L270:
 2124              		.loc 1 723 0
 2125 00f0 6B7D     		ldrb	r3, [r5, #21]	@ zero_extendqisi2
 2126 00f2 042B     		cmp	r3, #4
 2127 00f4 BFD1     		bne	.L223
 2128              		.loc 1 724 0
 2129 00f6 6B8A     		ldrh	r3, [r5, #18]	@ unaligned
 2130 00f8 082B     		cmp	r3, #8
 2131 00fa BCD1     		bne	.L223
 2132              		.loc 1 734 0
 2133 00fc DFF86CA1 		ldr	r10, .L271+4
 2134              		.loc 1 749 0
 2135 0100 7368     		ldr	r3, [r6, #4]
 2136              		.loc 1 734 0
 2137 0102 BAF81A20 		ldrh	r2, [r10, #26]
 2138              		.loc 1 745 0
 2139 0106 AB46     		mov	fp, r5
 2140              		.loc 1 734 0
 2141 0108 0132     		adds	r2, r2, #1
 2142 010a AAF81A20 		strh	r2, [r10, #26]	@ movhi
 2143              		.loc 1 745 0
 2144 010e 5BF81E0F 		ldr	r0, [fp, #30]!	@ unaligned
 2145 0112 0490     		str	r0, [sp, #16]	@ unaligned
 2146              		.loc 1 746 0
 2147 0114 A86A     		ldr	r0, [r5, #40]	@ unaligned
 2148 0116 0590     		str	r0, [sp, #20]	@ unaligned
 2149              		.loc 1 749 0
 2150 0118 002B     		cmp	r3, #0
 2151 011a 65D0     		beq	.L225
 2152              	.LVL223:
 2153              		.loc 1 761 0
 2154 011c 059A     		ldr	r2, [sp, #20]
 2155 011e 9342     		cmp	r3, r2
 2156 0120 08BF     		it	eq
 2157 0122 4FF00108 		moveq	r8, #1
 2158 0126 05F11807 		add	r7, r5, #24
 2159              		.loc 1 753 0
 2160 012a 1ABF     		itte	ne
 2161 012c 4FF00008 		movne	r8, #0
ARM GAS  C:\Users\jo\AppData\Local\Temp\ccNIDPVC.s 			page 39


 2162              		.loc 1 761 0
 2163 0130 4FF0020C 		movne	ip, #2
 2164 0134 C446     		moveq	ip, r8
 2165              	.LVL224:
 2166              	.L226:
 2167              	.LBB124:
 2168              	.LBB125:
 2169              		.loc 1 451 0
 2170 0136 96F82230 		ldrb	r3, [r6, #34]	@ zero_extendqisi2
 2171 013a 062B     		cmp	r3, #6
 2172 013c 0FD0     		beq	.L227
 2173 013e 4C4B     		ldr	r3, .L271+8
 2174 0140 0093     		str	r3, [sp]
 2175 0142 4C49     		ldr	r1, .L271+12
 2176 0144 4E4A     		ldr	r2, .L271+24
 2177 0146 4D48     		ldr	r0, .L271+20
 2178 0148 CDF808C0 		str	ip, [sp, #8]
 2179 014c 40F2C313 		movw	r3, #451
 2180 0150 FFF7FEFF 		bl	chprintf.constprop.1
 2181              	.LVL225:
 2182              	.LBB126:
 2183              	.LBB127:
 2184              		.loc 3 414 0
 2185 0154 4A48     		ldr	r0, .L271+24
 2186 0156 FFF7FEFF 		bl	chSysHalt
 2187              	.LVL226:
 2188 015a DDF808C0 		ldr	ip, [sp, #8]
 2189              	.LVL227:
 2190              	.L227:
 2191              	.LBE127:
 2192              	.LBE126:
 2193              		.loc 1 457 0
 2194 015e 0498     		ldr	r0, [sp, #16]
 2195 0160 CDF808C0 		str	ip, [sp, #8]
 2196              	.LBE125:
 2197              	.LBE124:
 2198              	.LBE133:
 2199              	.LBE137:
 2200              		.loc 1 1372 0
 2201 0164 06F12309 		add	r9, r6, #35
 2202              	.LBB138:
 2203              	.LBB134:
 2204              	.LBB130:
 2205              	.LBB129:
 2206              		.loc 1 457 0
 2207 0168 80B3     		cbz	r0, .L229
 2208              		.loc 1 458 0
 2209 016a 3146     		mov	r1, r6
 2210 016c FFF7FEFF 		bl	ip4_addr_isbroadcast
 2211              	.LVL228:
 2212              		.loc 1 457 0
 2213 0170 0390     		str	r0, [sp, #12]
 2214 0172 58BB     		cbnz	r0, .L229
 2215              		.loc 1 459 0
 2216 0174 049B     		ldr	r3, [sp, #16]
 2217 0176 03F0F003 		and	r3, r3, #240
 2218              		.loc 1 458 0
ARM GAS  C:\Users\jo\AppData\Local\Temp\ccNIDPVC.s 			page 40


 2219 017a E02B     		cmp	r3, #224
 2220 017c 26D0     		beq	.L229
 2221              		.loc 1 464 0
 2222 017e DDF808C0 		ldr	ip, [sp, #8]
 2223 0182 04A8     		add	r0, sp, #16
 2224              	.LVL229:
 2225 0184 6146     		mov	r1, ip
 2226 0186 FFF7FEFF 		bl	etharp_find_entry
 2227              	.LVL230:
 2228              		.loc 1 466 0
 2229 018a 0028     		cmp	r0, #0
 2230              	.LVL231:
 2231 018c 1EDB     		blt	.L229
 2232              		.loc 1 478 0
 2233 018e DFF8F8E0 		ldr	lr, .L271+32
 2234 0192 1423     		movs	r3, #20
 2235 0194 03FB00F3 		mul	r3, r3, r0
 2236 0198 0EEB0301 		add	r1, lr, r3
 2237 019c 0220     		movs	r0, #2
 2238              		.loc 1 482 0
 2239 019e 8E60     		str	r6, [r1, #8]
 2240              		.loc 1 478 0
 2241 01a0 8874     		strb	r0, [r1, #18]
 2242              		.loc 1 488 0
 2243 01a2 3868     		ldr	r0, [r7]	@ unaligned
 2244 01a4 C860     		str	r0, [r1, #12]	@ unaligned
 2245              		.loc 1 504 0
 2246 01a6 5EF80320 		ldr	r2, [lr, r3]
 2247 01aa 0292     		str	r2, [sp, #8]
 2248              		.loc 1 488 0
 2249 01ac B888     		ldrh	r0, [r7, #4]	@ unaligned
 2250              		.loc 1 490 0
 2251 01ae 039A     		ldr	r2, [sp, #12]
 2252              		.loc 1 488 0
 2253 01b0 0882     		strh	r0, [r1, #16]	@ unaligned
 2254              		.loc 1 490 0
 2255 01b2 CA74     		strb	r2, [r1, #19]
 2256              		.loc 1 504 0
 2257 01b4 0299     		ldr	r1, [sp, #8]
 2258 01b6 49B1     		cbz	r1, .L229
 2259              	.LVL232:
 2260              	.LBB128:
 2261              		.loc 1 506 0
 2262 01b8 4EF80320 		str	r2, [lr, r3]
 2263              		.loc 1 509 0
 2264 01bc 3046     		mov	r0, r6
 2265 01be 4A46     		mov	r2, r9
 2266 01c0 3B46     		mov	r3, r7
 2267 01c2 FFF7FEFF 		bl	etharp_send_ip
 2268              	.LVL233:
 2269              		.loc 1 511 0
 2270 01c6 0298     		ldr	r0, [sp, #8]
 2271 01c8 FFF7FEFF 		bl	pbuf_free
 2272              	.LVL234:
 2273              	.L229:
 2274              	.LBE128:
 2275              	.LBE129:
ARM GAS  C:\Users\jo\AppData\Local\Temp\ccNIDPVC.s 			page 41


 2276              	.LBE130:
 2277              		.loc 1 765 0
 2278 01cc EB8A     		ldrh	r3, [r5, #22]	@ unaligned
 2279 01ce B3F5807F 		cmp	r3, #256
 2280 01d2 0FD0     		beq	.L232
 2281 01d4 B3F5007F 		cmp	r3, #512
 2282 01d8 3FF439AF 		beq	.L213
 2283              		.loc 1 831 0
 2284 01dc BAF82C30 		ldrh	r3, [r10, #44]
 2285 01e0 0133     		adds	r3, r3, #1
 2286 01e2 AAF82C30 		strh	r3, [r10, #44]	@ movhi
 2287 01e6 32E7     		b	.L213
 2288              	.LVL235:
 2289              	.L225:
 2290              		.loc 1 750 0
 2291 01e8 9846     		mov	r8, r3
 2292              		.loc 1 761 0
 2293 01ea 05F11807 		add	r7, r5, #24
 2294 01ee 4FF0020C 		mov	ip, #2
 2295 01f2 A0E7     		b	.L226
 2296              	.LVL236:
 2297              	.L232:
 2298              		.loc 1 774 0
 2299 01f4 B8F1000F 		cmp	r8, #0
 2300 01f8 3FF429AF 		beq	.L213
 2301              		.loc 1 780 0
 2302 01fc 0220     		movs	r0, #2
 2303 01fe FFF7FEFF 		bl	lwip_htons
 2304              	.LVL237:
 2305 0202 E882     		strh	r0, [r5, #22]	@ unaligned
 2306              		.loc 1 782 0
 2307 0204 DBF80030 		ldr	r3, [fp]	@ unaligned
 2308 0208 AB62     		str	r3, [r5, #40]	@ unaligned
 2309              		.loc 1 783 0
 2310 020a 7368     		ldr	r3, [r6, #4]	@ unaligned
 2311 020c C5F81E30 		str	r3, [r5, #30]	@ unaligned
 2312              		.loc 1 785 0
 2313 0210 96F82230 		ldrb	r3, [r6, #34]	@ zero_extendqisi2
 2314 0214 062B     		cmp	r3, #6
 2315 0216 0BD0     		beq	.L234
 2316 0218 154B     		ldr	r3, .L271+8
 2317 021a 0093     		str	r3, [sp]
 2318 021c 1748     		ldr	r0, .L271+20
 2319 021e 1549     		ldr	r1, .L271+12
 2320 0220 184A     		ldr	r2, .L271+28
 2321 0222 40F21233 		movw	r3, #786
 2322 0226 FFF7FEFF 		bl	chprintf.constprop.1
 2323              	.LVL238:
 2324              	.LBB131:
 2325              	.LBB132:
 2326              		.loc 3 414 0
 2327 022a 1648     		ldr	r0, .L271+28
 2328 022c FFF7FEFF 		bl	chSysHalt
 2329              	.LVL239:
 2330              	.L234:
 2331              	.LBE132:
 2332              	.LBE131:
ARM GAS  C:\Users\jo\AppData\Local\Temp\ccNIDPVC.s 			page 42


 2333              		.loc 1 794 0
 2334 0230 3B68     		ldr	r3, [r7]	@ unaligned
 2335 0232 C5F82230 		str	r3, [r5, #34]	@ unaligned
 2336 0236 BB88     		ldrh	r3, [r7, #4]	@ unaligned
 2337 0238 EB84     		strh	r3, [r5, #38]	@ unaligned
 2338              		.loc 1 798 0
 2339 023a 3B68     		ldr	r3, [r7]	@ unaligned
 2340 023c C5F80230 		str	r3, [r5, #2]	@ unaligned
 2341 0240 BB88     		ldrh	r3, [r7, #4]	@ unaligned
 2342 0242 EB80     		strh	r3, [r5, #6]	@ unaligned
 2343              		.loc 1 800 0
 2344 0244 D9F80030 		ldr	r3, [r9]	@ unaligned
 2345 0248 3B60     		str	r3, [r7]	@ unaligned
 2346 024a B9F80430 		ldrh	r3, [r9, #4]	@ unaligned
 2347 024e BB80     		strh	r3, [r7, #4]	@ unaligned
 2348              		.loc 1 801 0
 2349 0250 D9F80030 		ldr	r3, [r9]	@ unaligned
 2350 0254 AB60     		str	r3, [r5, #8]	@ unaligned
 2351 0256 B9F80430 		ldrh	r3, [r9, #4]	@ unaligned
 2352 025a AB81     		strh	r3, [r5, #12]	@ unaligned
 2353              		.loc 1 807 0
 2354 025c B369     		ldr	r3, [r6, #24]
 2355 025e 3046     		mov	r0, r6
 2356 0260 2146     		mov	r1, r4
 2357 0262 9847     		blx	r3
 2358              	.LVL240:
 2359 0264 F3E6     		b	.L213
 2360              	.L272:
 2361 0266 00BF     		.align	2
 2362              	.L271:
 2363 0268 00000000 		.word	.LANCHOR2
 2364 026c 00000000 		.word	lwip_stats
 2365 0270 6C000000 		.word	.LC2
 2366 0274 00000000 		.word	.LC0
 2367 0278 C4010000 		.word	.LC13
 2368 027c 00000000 		.word	itm_port
 2369 0280 E8010000 		.word	.LC14
 2370 0284 28000000 		.word	.LC1
 2371 0288 00000000 		.word	.LANCHOR0
 2372              	.LBE134:
 2373              	.LBE138:
 2374              		.cfi_endproc
 2375              	.LFE269:
 2376              		.size	ethernet_input, .-ethernet_input
 2377              		.global	ethzero
 2378              		.global	ethbroadcast
 2379 028c AFF30080 		.section	.bss.etharp_cached_entry,"aw",%nobits
 2380              		.set	.LANCHOR3,. + 0
 2381              		.type	etharp_cached_entry, %object
 2382              		.size	etharp_cached_entry, 1
 2383              	etharp_cached_entry:
 2384 0000 00       		.space	1
 2385              		.section	.bss.arp_table,"aw",%nobits
 2386              		.align	2
 2387              		.set	.LANCHOR0,. + 0
 2388              		.type	arp_table, %object
 2389              		.size	arp_table, 200
ARM GAS  C:\Users\jo\AppData\Local\Temp\ccNIDPVC.s 			page 43


 2390              	arp_table:
 2391 0000 00000000 		.space	200
 2391      00000000 
 2391      00000000 
 2391      00000000 
 2391      00000000 
 2392              		.section	.rodata.ethbroadcast,"a",%progbits
 2393              		.align	2
 2394              		.set	.LANCHOR2,. + 0
 2395              		.type	ethbroadcast, %object
 2396              		.size	ethbroadcast, 6
 2397              	ethbroadcast:
 2398 0000 FF       		.byte	-1
 2399 0001 FF       		.byte	-1
 2400 0002 FF       		.byte	-1
 2401 0003 FF       		.byte	-1
 2402 0004 FF       		.byte	-1
 2403 0005 FF       		.byte	-1
 2404 0006 0000     		.section	.rodata.str1.4,"aMS",%progbits,1
 2405              		.align	2
 2406              	.LC0:
 2407 0000 41737365 		.ascii	"Assertion \"%s\" failed at line %d in %s\012\000"
 2407      7274696F 
 2407      6E202225 
 2407      73222066 
 2407      61696C65 
 2408              	.LC1:
 2409 0028 6E657469 		.ascii	"netif->hwaddr_len must be the same as ETHARP_HWADDR"
 2409      662D3E68 
 2409      77616464 
 2409      725F6C65 
 2409      6E206D75 
 2410 005b 5F4C454E 		.ascii	"_LEN for etharp!\000"
 2410      20666F72 
 2410      20657468 
 2410      61727021 
 2410      00
 2411              	.LC2:
 2412 006c 2E2E2F2E 		.ascii	"../../../os/ext/lwip-1.4.1/src/netif/etharp.c\000"
 2412      2E2F2E2E 
 2412      2F6F732F 
 2412      6578742F 
 2412      6C776970 
 2413 009a 0000     		.space	2
 2414              	.LC3:
 2415 009c 6172705F 		.ascii	"arp_table[i].q == NULL\000"
 2415      7461626C 
 2415      655B695D 
 2415      2E71203D 
 2415      3D204E55 
 2416 00b3 00       		.space	1
 2417              	.LC4:
 2418 00b4 69203C20 		.ascii	"i < ARP_TABLE_SIZE\000"
 2418      4152505F 
 2418      5441424C 
 2418      455F5349 
 2418      5A4500
ARM GAS  C:\Users\jo\AppData\Local\Temp\ccNIDPVC.s 			page 44


 2419 00c7 00       		.space	1
 2420              	.LC5:
 2421 00c8 6172705F 		.ascii	"arp_table[i].state == ETHARP_STATE_EMPTY\000"
 2421      7461626C 
 2421      655B695D 
 2421      2E737461 
 2421      7465203D 
 2422 00f1 000000   		.space	3
 2423              	.LC6:
 2424 00f4 6574685F 		.ascii	"eth_ret != NULL && ip_ret != NULL\000"
 2424      72657420 
 2424      213D204E 
 2424      554C4C20 
 2424      26262069 
 2425 0116 0000     		.space	2
 2426              	.LC7:
 2427 0118 6E657469 		.ascii	"netif != NULL\000"
 2427      6620213D 
 2427      204E554C 
 2427      4C00
 2428 0126 0000     		.space	2
 2429              	.LC8:
 2430 0128 63686563 		.ascii	"check that first pbuf can hold struct etharp_hdr\000"
 2430      6B207468 
 2430      61742066 
 2430      69727374 
 2430      20706275 
 2431 0159 000000   		.space	3
 2432              	.LC9:
 2433 015c 6172705F 		.ascii	"arp_table[arp_idx].state >= ETHARP_STATE_STABLE\000"
 2433      7461626C 
 2433      655B6172 
 2433      705F6964 
 2433      785D2E73 
 2434              	.LC10:
 2435 018c 6E6F2070 		.ascii	"no packet queues allowed!\000"
 2435      61636B65 
 2435      74207175 
 2435      65756573 
 2435      20616C6C 
 2436 01a6 0000     		.space	2
 2437              	.LC11:
 2438 01a8 7120213D 		.ascii	"q != NULL\000"
 2438      204E554C 
 2438      4C00
 2439 01b2 0000     		.space	2
 2440              	.LC12:
 2441 01b4 69706164 		.ascii	"ipaddr != NULL\000"
 2441      64722021 
 2441      3D204E55 
 2441      4C4C00
 2442 01c3 00       		.space	1
 2443              	.LC13:
 2444 01c4 43616E27 		.ascii	"Can't move over header in packet\000"
 2444      74206D6F 
 2444      7665206F 
 2444      76657220 
ARM GAS  C:\Users\jo\AppData\Local\Temp\ccNIDPVC.s 			page 45


 2444      68656164 
 2445 01e5 000000   		.space	3
 2446              	.LC14:
 2447 01e8 6E657469 		.ascii	"netif->hwaddr_len == ETHARP_HWADDR_LEN\000"
 2447      662D3E68 
 2447      77616464 
 2447      725F6C65 
 2447      6E203D3D 
 2448 020f 00       		.section	.rodata.ethzero,"a",%progbits
 2449              		.align	2
 2450              		.set	.LANCHOR1,. + 0
 2451              		.type	ethzero, %object
 2452              		.size	ethzero, 6
 2453              	ethzero:
 2454 0000 00000000 		.space	6
 2454      0000
 2455 0006 0000     		.text
 2456              	.Letext0:
 2457              		.file 4 "c:\\program files\\gnu tools arm embedded\\4.9 2014q4\\lib\\gcc\\arm-none-eabi\\4.9.3\\in
 2458              		.file 5 "c:\\program files\\gnu tools arm embedded\\4.9 2014q4\\arm-none-eabi\\include\\machine\\_
 2459              		.file 6 "c:\\program files\\gnu tools arm embedded\\4.9 2014q4\\arm-none-eabi\\include\\stdint.h"
 2460              		.file 7 "../../../os/rt/ports/ARMCMx/compilers/GCC/chtypes.h"
 2461              		.file 8 "../../../os/rt/include/chsystypes.h"
 2462              		.file 9 "../../../os/rt/include/chschd.h"
 2463              		.file 10 "../../../os/rt/ports/ARMCMx/chcore.h"
 2464              		.file 11 "../../../os/rt/ports/ARMCMx/chcore_v7m.h"
 2465              		.file 12 "c:\\program files\\gnu tools arm embedded\\4.9 2014q4\\lib\\gcc\\arm-none-eabi\\4.9.3\\i
 2466              		.file 13 "<built-in>"
 2467              		.file 14 "../../../os/rt/include/chdebug.h"
 2468              		.file 15 "../../../os/rt/include/chtm.h"
 2469              		.file 16 "../../../os/rt/include/chstats.h"
 2470              		.file 17 "../../../os/rt/include/chmtx.h"
 2471              		.file 18 "../../../os/rt/include/chstreams.h"
 2472              		.file 19 "./ITM_trace.h"
 2473              		.file 20 "../../../os/various/lwip_bindings/arch/cc.h"
 2474              		.file 21 "../../../os/ext/lwip-1.4.1/src/include/ipv4/lwip/ip_addr.h"
 2475              		.file 22 "../../../os/ext/lwip-1.4.1/src/include/lwip/err.h"
 2476              		.file 23 "../../../os/ext/lwip-1.4.1/src/include/lwip/pbuf.h"
 2477              		.file 24 "../../../os/ext/lwip-1.4.1/src/include/lwip/netif.h"
 2478              		.file 25 "../../../os/ext/lwip-1.4.1/src/include/lwip/memp.h"
 2479              		.file 26 "../../../os/ext/lwip-1.4.1/src/include/lwip/stats.h"
 2480              		.file 27 "../../../os/ext/lwip-1.4.1/src/include/netif/etharp.h"
 2481              		.file 28 "../../../os/ext/CMSIS/include/core_cm4.h"
 2482              		.file 29 "../../../os/ext/lwip-1.4.1/src/include/lwip/def.h"
 2483              		.file 30 "../../../os/rt/include/chsys.h"
 2484              		.file 31 "c:\\program files\\gnu tools arm embedded\\4.9 2014q4\\arm-none-eabi\\include\\string.h"
 2485              		.file 32 "../../../os/ext/lwip-1.4.1/src/include/ipv4/lwip/ip.h"