ARM GAS  C:\Users\jo\AppData\Local\Temp\ccYOoiMe.s 			page 1


   1              		.syntax unified
   2              		.cpu cortex-m4
   3              		.fpu softvfp
   4              		.eabi_attribute 20, 1
   5              		.eabi_attribute 21, 1
   6              		.eabi_attribute 23, 3
   7              		.eabi_attribute 24, 1
   8              		.eabi_attribute 25, 1
   9              		.eabi_attribute 26, 1
  10              		.eabi_attribute 30, 2
  11              		.eabi_attribute 34, 1
  12              		.eabi_attribute 18, 4
  13              		.thumb
  14              		.file	"evtimer.c"
  15              		.text
  16              	.Ltext0:
  17              		.cfi_sections	.debug_frame
  18              		.section	.text.tmrcb,"ax",%progbits
  19              		.align	2
  20              		.p2align 4,,15
  21              		.thumb
  22              		.thumb_func
  23              		.type	tmrcb, %function
  24              	tmrcb:
  25              	.LFB227:
  26              		.file 1 "../../../os/various/evtimer.c"
  27              		.loc 1 48 0
  28              		.cfi_startproc
  29              		@ args = 0, pretend = 0, frame = 0
  30              		@ frame_needed = 0, uses_anonymous_args = 0
  31              	.LVL0:
  32 0000 10B5     		push	{r4, lr}
  33              		.cfi_def_cfa_offset 8
  34              		.cfi_offset 4, -8
  35              		.cfi_offset 14, -4
  36              	.LBB66:
  37              	.LBB67:
  38              	.LBB68:
  39              	.LBB69:
  40              	.LBB70:
  41              	.LBB71:
  42              		.file 2 "../../../os/ext/CMSIS/include/core_cmFunc.h"
  43              		.loc 2 546 0
  44 0002 2023     		movs	r3, #32
  45              	.LBE71:
  46              	.LBE70:
  47              	.LBE69:
  48              	.LBE68:
  49              	.LBE67:
  50              	.LBE66:
  51              		.loc 1 48 0
  52 0004 0446     		mov	r4, r0
  53              	.LVL1:
  54              	.LBB77:
  55              	.LBB76:
  56              	.LBB75:
  57              	.LBB74:
ARM GAS  C:\Users\jo\AppData\Local\Temp\ccYOoiMe.s 			page 2


  58              	.LBB73:
  59              	.LBB72:
  60              		.loc 2 546 0
  61              	@ 546 "../../../os/ext/CMSIS/include/core_cmFunc.h" 1
  62 0006 83F31188 		MSR basepri, r3
  63              	@ 0 "" 2
  64              		.thumb
  65              	.LBE72:
  66              	.LBE73:
  67              	.LBE74:
  68              	.LBE75:
  69              		.file 3 "../../../os/rt/include/chsys.h"
  70              		.loc 3 339 0
  71 000a FFF7FEFF 		bl	_stats_start_measure_crit_isr
  72              	.LVL2:
  73              		.loc 3 340 0
  74 000e FFF7FEFF 		bl	_dbg_check_lock_from_isr
  75              	.LVL3:
  76              	.LBE76:
  77              	.LBE77:
  78              	.LBB78:
  79              	.LBB79:
  80              		.file 4 "../../../os/rt/include/chevents.h"
  81              		.loc 4 256 0
  82 0012 04F11400 		add	r0, r4, #20
  83              	.LVL4:
  84 0016 0021     		movs	r1, #0
  85 0018 FFF7FEFF 		bl	chEvtBroadcastFlagsI
  86              	.LVL5:
  87              	.LBE79:
  88              	.LBE78:
  89              		.loc 1 53 0
  90 001c 2346     		mov	r3, r4
  91 001e 2046     		mov	r0, r4
  92 0020 A169     		ldr	r1, [r4, #24]
  93 0022 054A     		ldr	r2, .L3
  94 0024 FFF7FEFF 		bl	chVTDoSetI
  95              	.LVL6:
  96              	.LBB80:
  97              	.LBB81:
  98              		.loc 3 358 0
  99 0028 FFF7FEFF 		bl	_dbg_check_unlock_from_isr
 100              	.LVL7:
 101              		.loc 3 359 0
 102 002c FFF7FEFF 		bl	_stats_stop_measure_crit_isr
 103              	.LVL8:
 104              	.LBB82:
 105              	.LBB83:
 106              	.LBB84:
 107              	.LBB85:
 108              		.loc 2 546 0
 109 0030 0023     		movs	r3, #0
 110              	@ 546 "../../../os/ext/CMSIS/include/core_cmFunc.h" 1
 111 0032 83F31188 		MSR basepri, r3
 112              	@ 0 "" 2
 113              		.thumb
 114 0036 10BD     		pop	{r4, pc}
ARM GAS  C:\Users\jo\AppData\Local\Temp\ccYOoiMe.s 			page 3


 115              	.LVL9:
 116              	.L4:
 117              		.align	2
 118              	.L3:
 119 0038 00000000 		.word	tmrcb
 120              	.LBE85:
 121              	.LBE84:
 122              	.LBE83:
 123              	.LBE82:
 124              	.LBE81:
 125              	.LBE80:
 126              		.cfi_endproc
 127              	.LFE227:
 128              		.size	tmrcb, .-tmrcb
 129 003c AFF30080 		.section	.text.evtObjectInit,"ax",%progbits
 130              		.align	2
 131              		.p2align 4,,15
 132              		.global	evtObjectInit
 133              		.thumb
 134              		.thumb_func
 135              		.type	evtObjectInit, %function
 136              	evtObjectInit:
 137              	.LFB228:
 138              		.loc 1 67 0
 139              		.cfi_startproc
 140              		@ args = 0, pretend = 0, frame = 0
 141              		@ frame_needed = 0, uses_anonymous_args = 0
 142              		@ link register save eliminated.
 143              	.LVL10:
 144              		.loc 1 69 0
 145 0000 00F11402 		add	r2, r0, #20
 146              	.LVL11:
 147              	.LBB86:
 148              	.LBB87:
 149              		.file 5 "../../../os/rt/include/chvt.h"
 150              		.loc 5 210 0
 151 0004 0023     		movs	r3, #0
 152              	.LBE87:
 153              	.LBE86:
 154              		.loc 1 71 0
 155 0006 8161     		str	r1, [r0, #24]
 156              	.LBB89:
 157              	.LBB90:
 158              		.loc 4 172 0
 159 0008 4261     		str	r2, [r0, #20]
 160              	.LVL12:
 161              	.LBE90:
 162              	.LBE89:
 163              	.LBB91:
 164              	.LBB88:
 165              		.loc 5 210 0
 166 000a C360     		str	r3, [r0, #12]
 167 000c 7047     		bx	lr
 168              	.LBE88:
 169              	.LBE91:
 170              		.cfi_endproc
 171              	.LFE228:
ARM GAS  C:\Users\jo\AppData\Local\Temp\ccYOoiMe.s 			page 4


 172              		.size	evtObjectInit, .-evtObjectInit
 173 000e 00BF     		.section	.text.evtStart,"ax",%progbits
 174              		.align	2
 175              		.p2align 4,,15
 176              		.global	evtStart
 177              		.thumb
 178              		.thumb_func
 179              		.type	evtStart, %function
 180              	evtStart:
 181              	.LFB229:
 182              		.loc 1 80 0
 183              		.cfi_startproc
 184              		@ args = 0, pretend = 0, frame = 0
 185              		@ frame_needed = 0, uses_anonymous_args = 0
 186              	.LVL13:
 187 0000 38B5     		push	{r3, r4, r5, lr}
 188              		.cfi_def_cfa_offset 16
 189              		.cfi_offset 3, -16
 190              		.cfi_offset 4, -12
 191              		.cfi_offset 5, -8
 192              		.cfi_offset 14, -4
 193              		.loc 1 80 0
 194 0002 0446     		mov	r4, r0
 195              	.LBB110:
 196              	.LBB111:
 197              	.LBB112:
 198              	.LBB113:
 199              	.LBB114:
 200              	.LBB115:
 201              		.loc 2 546 0
 202 0004 2023     		movs	r3, #32
 203              	.LBE115:
 204              	.LBE114:
 205              	.LBE113:
 206              	.LBE112:
 207              	.LBE111:
 208              	.LBE110:
 209              		.loc 1 82 0
 210 0006 8569     		ldr	r5, [r0, #24]
 211              	.LVL14:
 212              	.LBB132:
 213              	.LBB120:
 214              	.LBB119:
 215              	.LBB118:
 216              	.LBB117:
 217              	.LBB116:
 218              		.loc 2 546 0
 219              	@ 546 "../../../os/ext/CMSIS/include/core_cmFunc.h" 1
 220 0008 83F31188 		MSR basepri, r3
 221              	@ 0 "" 2
 222              		.thumb
 223              	.LBE116:
 224              	.LBE117:
 225              	.LBE118:
 226              		.loc 3 300 0
 227 000c FFF7FEFF 		bl	_stats_start_measure_crit_thd
 228              	.LVL15:
ARM GAS  C:\Users\jo\AppData\Local\Temp\ccYOoiMe.s 			page 5


 229              		.loc 3 301 0
 230 0010 FFF7FEFF 		bl	_dbg_check_lock
 231              	.LVL16:
 232              	.LBE119:
 233              	.LBE120:
 234              	.LBB121:
 235              	.LBB122:
 236              	.LBB123:
 237              	.LBB124:
 238              	.LBB125:
 239              	.LBB126:
 240              		.loc 5 337 0
 241 0014 FFF7FEFF 		bl	chDbgCheckClassI
 242              	.LVL17:
 243              	.LBE126:
 244              	.LBE125:
 245              		.loc 5 354 0
 246 0018 E368     		ldr	r3, [r4, #12]
 247 001a 13B1     		cbz	r3, .L7
 248              		.loc 5 355 0
 249 001c 2046     		mov	r0, r4
 250 001e FFF7FEFF 		bl	chVTDoResetI
 251              	.LVL18:
 252              	.L7:
 253              	.LBE124:
 254              	.LBE123:
 255              		.loc 5 402 0
 256 0022 2346     		mov	r3, r4
 257 0024 0D4A     		ldr	r2, .L14
 258 0026 2946     		mov	r1, r5
 259 0028 2046     		mov	r0, r4
 260 002a FFF7FEFF 		bl	chVTDoSetI
 261              	.LVL19:
 262              	.LBE122:
 263              	.LBE121:
 264              	.LBB127:
 265              	.LBB128:
 266              		.loc 3 311 0
 267 002e FFF7FEFF 		bl	_dbg_check_unlock
 268              	.LVL20:
 269              		.loc 3 312 0
 270 0032 FFF7FEFF 		bl	_stats_stop_measure_crit_thd
 271              	.LVL21:
 272              		.loc 3 318 0
 273 0036 0A4B     		ldr	r3, .L14+4
 274 0038 9A69     		ldr	r2, [r3, #24]
 275 003a 1B68     		ldr	r3, [r3]
 276 003c 9268     		ldr	r2, [r2, #8]
 277 003e 9B68     		ldr	r3, [r3, #8]
 278 0040 9A42     		cmp	r2, r3
 279 0042 06D2     		bcs	.L8
 280 0044 0748     		ldr	r0, .L14+8
 281 0046 FFF7FEFF 		bl	puts
 282              	.LVL22:
 283              	@ 318 "../../../os/rt/include/chsys.h" 1
 284 004a 00BE     		BKPT #0
 285              	
ARM GAS  C:\Users\jo\AppData\Local\Temp\ccYOoiMe.s 			page 6


 286              	@ 0 "" 2
 287              		.thumb
 288 004c 0648     		ldr	r0, .L14+12
 289 004e FFF7FEFF 		bl	chSysHalt
 290              	.LVL23:
 291              	.L8:
 292              	.LBB129:
 293              	.LBB130:
 294              	.LBB131:
 295              		.loc 2 546 0
 296 0052 0023     		movs	r3, #0
 297              	@ 546 "../../../os/ext/CMSIS/include/core_cmFunc.h" 1
 298 0054 83F31188 		MSR basepri, r3
 299              	@ 0 "" 2
 300              		.thumb
 301 0058 38BD     		pop	{r3, r4, r5, pc}
 302              	.LVL24:
 303              	.L15:
 304 005a 00BF     		.align	2
 305              	.L14:
 306 005c 00000000 		.word	tmrcb
 307 0060 00000000 		.word	ch
 308 0064 00000000 		.word	.LC0
 309 0068 00000000 		.word	.LANCHOR0
 310              	.LBE131:
 311              	.LBE130:
 312              	.LBE129:
 313              	.LBE128:
 314              	.LBE127:
 315              	.LBE132:
 316              		.cfi_endproc
 317              	.LFE229:
 318              		.size	evtStart, .-evtStart
 319 006c AFF30080 		.section	.rodata.str1.4,"aMS",%progbits,1
 320              		.align	2
 321              	.LC0:
 322 0000 7072696F 		.ascii	"priority violation, missing reschedule\000"
 322      72697479 
 322      2076696F 
 322      6C617469 
 322      6F6E2C20 
 323 0027 00       		.section	.rodata.__func__.6751,"a",%progbits
 324              		.align	2
 325              		.set	.LANCHOR0,. + 0
 326              		.type	__func__.6751, %object
 327              		.size	__func__.6751, 12
 328              	__func__.6751:
 329 0000 63685379 		.ascii	"chSysUnlock\000"
 329      73556E6C 
 329      6F636B00 
 330              		.text
 331              	.Letext0:
 332              		.file 6 "c:\\program files\\gnu tools arm embedded\\4.9 2014q4\\arm-none-eabi\\include\\machine\\_
 333              		.file 7 "c:\\program files\\gnu tools arm embedded\\4.9 2014q4\\arm-none-eabi\\include\\stdint.h"
 334              		.file 8 "../../../os/rt/ports/ARMCMx/compilers/GCC/chtypes.h"
 335              		.file 9 "../../../os/rt/include/chsystypes.h"
 336              		.file 10 "../../../os/rt/include/chschd.h"
ARM GAS  C:\Users\jo\AppData\Local\Temp\ccYOoiMe.s 			page 7


 337              		.file 11 "../../../os/rt/ports/ARMCMx/chcore.h"
 338              		.file 12 "../../../os/rt/ports/ARMCMx/chcore_v7m.h"
 339              		.file 13 "../../../os/rt/include/chdebug.h"
 340              		.file 14 "../../../os/rt/include/chtm.h"
 341              		.file 15 "../../../os/rt/include/chstats.h"
 342              		.file 16 "../../../os/rt/include/chmtx.h"
 343              		.file 17 "../../../os/various/evtimer.h"
 344              		.file 18 "../../../os/ext/CMSIS/include/core_cm4.h"
 345              		.file 19 "<built-in>"