ARM GAS  C:\Users\jo\AppData\Local\Temp\ccZRdplO.s 			page 1


   1              		.syntax unified
   2              		.cpu cortex-m4
   3              		.fpu softvfp
   4              		.eabi_attribute 20, 1
   5              		.eabi_attribute 21, 1
   6              		.eabi_attribute 23, 3
   7              		.eabi_attribute 24, 1
   8              		.eabi_attribute 25, 1
   9              		.eabi_attribute 26, 1
  10              		.eabi_attribute 30, 2
  11              		.eabi_attribute 34, 1
  12              		.eabi_attribute 18, 4
  13              		.thumb
  14              		.file	"gcm.c"
  15              		.text
  16              	.Ltext0:
  17              		.cfi_sections	.debug_frame
  18              		.section	.text.gcm_init,"ax",%progbits
  19              		.align	2
  20              		.p2align 4,,15
  21              		.global	gcm_init
  22              		.thumb
  23              		.thumb_func
  24              		.type	gcm_init, %function
  25              	gcm_init:
  26              	.LFB1:
  27              		.file 1 "../../../os/ext/PolarSSL/library/gcm.c"
  28              		.loc 1 106 0
  29              		.cfi_startproc
  30              		@ args = 0, pretend = 0, frame = 56
  31              		@ frame_needed = 0, uses_anonymous_args = 0
  32              	.LVL0:
  33 0000 2DE9F04F 		push	{r4, r5, r6, r7, r8, r9, r10, fp, lr}
  34              		.cfi_def_cfa_offset 36
  35              		.cfi_offset 4, -36
  36              		.cfi_offset 5, -32
  37              		.cfi_offset 6, -28
  38              		.cfi_offset 7, -24
  39              		.cfi_offset 8, -20
  40              		.cfi_offset 9, -16
  41              		.cfi_offset 10, -12
  42              		.cfi_offset 11, -8
  43              		.cfi_offset 14, -4
  44 0004 8FB0     		sub	sp, sp, #60
  45              		.cfi_def_cfa_offset 96
  46              		.loc 1 106 0
  47 0006 1446     		mov	r4, r2
  48 0008 0D46     		mov	r5, r1
  49 000a 0646     		mov	r6, r0
  50              		.loc 1 109 0
  51 000c 0021     		movs	r1, #0
  52              	.LVL1:
  53 000e 4FF40672 		mov	r2, #536
  54              	.LVL2:
  55              		.loc 1 106 0
  56 0012 0290     		str	r0, [sp, #8]
  57              		.loc 1 109 0
ARM GAS  C:\Users\jo\AppData\Local\Temp\ccZRdplO.s 			page 2


  58 0014 FFF7FEFF 		bl	memset
  59              	.LVL3:
  60              		.loc 1 111 0
  61 0018 2246     		mov	r2, r4
  62 001a 3046     		mov	r0, r6
  63 001c 2946     		mov	r1, r5
  64 001e FFF7FEFF 		bl	aes_setkey_enc
  65              	.LVL4:
  66 0022 0446     		mov	r4, r0
  67              	.LVL5:
  68 0024 10B1     		cbz	r0, .L12
  69              		.loc 1 117 0
  70 0026 0FB0     		add	sp, sp, #60
  71              		.cfi_remember_state
  72              		.cfi_def_cfa_offset 36
  73              		@ sp needed
  74 0028 BDE8F08F 		pop	{r4, r5, r6, r7, r8, r9, r10, fp, pc}
  75              	.LVL6:
  76              	.L12:
  77              		.cfi_restore_state
  78              	.LBB6:
  79              	.LBB7:
  80              		.loc 1 65 0
  81 002c DDF808A0 		ldr	r10, [sp, #8]
  82              		.loc 1 64 0
  83 0030 0A94     		str	r4, [sp, #40]
  84              		.loc 1 65 0
  85 0032 0AAA     		add	r2, sp, #40
  86 0034 1346     		mov	r3, r2
  87 0036 0121     		movs	r1, #1
  88 0038 5046     		mov	r0, r10
  89              	.LVL7:
  90              		.loc 1 64 0
  91 003a 0B94     		str	r4, [sp, #44]
  92 003c 0C94     		str	r4, [sp, #48]
  93 003e 0D94     		str	r4, [sp, #52]
  94              		.loc 1 65 0
  95 0040 FFF7FEFF 		bl	aes_crypt_ecb
  96              	.LVL8:
  97              		.loc 1 74 0
  98 0044 9DF83130 		ldrb	r3, [sp, #49]	@ zero_extendqisi2
  99 0048 9DF83060 		ldrb	r6, [sp, #48]	@ zero_extendqisi2
 100              	.LVL9:
 101 004c 9DF83320 		ldrb	r2, [sp, #51]	@ zero_extendqisi2
 102 0050 0392     		str	r2, [sp, #12]
 103 0052 1B04     		lsls	r3, r3, #16
 104 0054 43EA0663 		orr	r3, r3, r6, lsl #24
 105              		.loc 1 75 0
 106 0058 9DF83470 		ldrb	r7, [sp, #52]	@ zero_extendqisi2
 107 005c 039E     		ldr	r6, [sp, #12]
 108 005e 0497     		str	r7, [sp, #16]
 109 0060 9DF83500 		ldrb	r0, [sp, #53]	@ zero_extendqisi2
 110              		.loc 1 70 0
 111 0064 9DF82B20 		ldrb	r2, [sp, #43]	@ zero_extendqisi2
 112 0068 9DF82950 		ldrb	r5, [sp, #41]	@ zero_extendqisi2
 113              	.LVL10:
 114 006c 0192     		str	r2, [sp, #4]
ARM GAS  C:\Users\jo\AppData\Local\Temp\ccZRdplO.s 			page 3


 115 006e 1E43     		orrs	r6, r6, r3
 116              		.loc 1 75 0
 117 0070 049B     		ldr	r3, [sp, #16]
 118              		.loc 1 70 0
 119 0072 9DF828E0 		ldrb	lr, [sp, #40]	@ zero_extendqisi2
 120              		.loc 1 71 0
 121 0076 9DF82DC0 		ldrb	ip, [sp, #45]	@ zero_extendqisi2
 122              		.loc 1 74 0
 123 007a 9DF83220 		ldrb	r2, [sp, #50]	@ zero_extendqisi2
 124              		.loc 1 71 0
 125 007e 9DF82C70 		ldrb	r7, [sp, #44]	@ zero_extendqisi2
 126              		.loc 1 75 0
 127 0082 9DF83710 		ldrb	r1, [sp, #55]	@ zero_extendqisi2
 128 0086 0591     		str	r1, [sp, #20]
 129 0088 0004     		lsls	r0, r0, #16
 130 008a 40EA0360 		orr	r0, r0, r3, lsl #24
 131              		.loc 1 70 0
 132 008e 2D04     		lsls	r5, r5, #16
 133 0090 019B     		ldr	r3, [sp, #4]
 134 0092 45EA0E65 		orr	r5, r5, lr, lsl #24
 135 0096 1D43     		orrs	r5, r5, r3
 136              		.loc 1 71 0
 137 0098 4FEA0C41 		lsl	r1, ip, #16
 138              		.loc 1 76 0
 139 009c 46EA0223 		orr	r3, r6, r2, lsl #8
 140              		.loc 1 71 0
 141 00a0 41EA0761 		orr	r1, r1, r7, lsl #24
 142              		.loc 1 76 0
 143 00a4 9946     		mov	r9, r3
 144              		.loc 1 75 0
 145 00a6 9DF83670 		ldrb	r7, [sp, #54]	@ zero_extendqisi2
 146 00aa 059B     		ldr	r3, [sp, #20]
 147 00ac 0197     		str	r7, [sp, #4]
 148 00ae 40EA0306 		orr	r6, r0, r3
 149              		.loc 1 70 0
 150 00b2 9DF82AE0 		ldrb	lr, [sp, #42]	@ zero_extendqisi2
 151              		.loc 1 75 0
 152 00b6 019B     		ldr	r3, [sp, #4]
 153              		.loc 1 71 0
 154 00b8 9DF82FC0 		ldrb	ip, [sp, #47]	@ zero_extendqisi2
 155 00bc 9DF82E70 		ldrb	r7, [sp, #46]	@ zero_extendqisi2
 156 00c0 41EA0C0C 		orr	ip, r1, ip
 157              		.loc 1 76 0
 158 00c4 2246     		mov	r2, r4
 159              		.loc 1 72 0
 160 00c6 45EA0E21 		orr	r1, r5, lr, lsl #8
 161              		.loc 1 75 0
 162 00ca 46EA0325 		orr	r5, r6, r3, lsl #8
 163              		.loc 1 76 0
 164 00ce 4B46     		mov	r3, r9
 165              		.loc 1 72 0
 166 00d0 2046     		mov	r0, r4
 167              		.loc 1 76 0
 168 00d2 42EA0502 		orr	r2, r2, r5
 169              		.loc 1 67 0
 170 00d6 5446     		mov	r4, r10
 171              	.LVL11:
ARM GAS  C:\Users\jo\AppData\Local\Temp\ccZRdplO.s 			page 4


 172 00d8 5546     		mov	r5, r10
 173 00da 4FF00008 		mov	r8, #0
 174 00de 4FF00009 		mov	r9, #0
 175 00e2 E5E96689 		strd	r8, [r5, #408]!
 176              		.loc 1 68 0
 177 00e6 E4E94689 		strd	r8, [r4, #280]!
 178              		.loc 1 71 0
 179 00ea 4CEA0727 		orr	r7, ip, r7, lsl #8
 180              		.loc 1 78 0
 181 00ee 0AF5AC76 		add	r6, r10, #344
 182              		.loc 1 72 0
 183 00f2 3843     		orrs	r0, r0, r7
 184              	.LVL12:
 185              		.loc 1 79 0
 186 00f4 0AF5EC77 		add	r7, r10, #472
 187              		.loc 1 78 0
 188 00f8 C6E90023 		strd	r2, [r6]
 189              		.loc 1 67 0
 190 00fc 0495     		str	r5, [sp, #16]
 191              		.loc 1 79 0
 192 00fe C7E90001 		strd	r0, [r7]
 193              		.loc 1 68 0
 194 0102 0394     		str	r4, [sp, #12]
 195              	.LVL13:
 196              		.loc 1 79 0
 197 0104 0327     		movs	r7, #3
 198              		.loc 1 81 0
 199 0106 0426     		movs	r6, #4
 200              	.LVL14:
 201              	.L3:
 202              	.LBB8:
 203              		.loc 1 83 0
 204 0108 02F00104 		and	r4, r2, #1
 205 010c 6501     		lsls	r5, r4, #5
 206 010e 641B     		subs	r4, r4, r5
 207              	.LVL15:
 208              		.loc 1 85 0
 209 0110 4FEA046B 		lsl	fp, r4, #24
 210              	.LVL16:
 211 0114 4D08     		movs	r5, r1, lsr #1
 212 0116 4FEA3004 		mov	r4, r0, rrx
 213 011a 0299     		ldr	r1, [sp, #8]
 214              		.loc 1 84 0
 215 011c 5B08     		movs	r3, r3, lsr #1
 216 011e 4FEA3202 		mov	r2, r2, rrx
 217              	.LVL17:
 218 0122 01EBC601 		add	r1, r1, r6, lsl #3
 219 0126 4FEAC079 		lsl	r9, r0, #31
 220 012a 4FF00008 		mov	r8, #0
 221              		.loc 1 87 0
 222 012e 01F58C7E 		add	lr, r1, #280
 223              		.loc 1 88 0
 224 0132 01F5CC7C 		add	ip, r1, #408
 225              		.loc 1 84 0
 226 0136 42EA0802 		orr	r2, r2, r8
 227 013a 43EA0903 		orr	r3, r3, r9
 228              	.LVL18:
ARM GAS  C:\Users\jo\AppData\Local\Temp\ccZRdplO.s 			page 5


 229              		.loc 1 85 0
 230 013e 88EA0400 		eor	r0, r8, r4
 231              	.LVL19:
 232 0142 8BEA0501 		eor	r1, fp, r5
 233              	.LVL20:
 234              	.LBE8:
 235              		.loc 1 81 0
 236 0146 013F     		subs	r7, r7, #1
 237              	.LBB9:
 238              		.loc 1 87 0
 239 0148 CEE90023 		strd	r2, [lr]
 240              	.LBE9:
 241              		.loc 1 81 0
 242 014c 4FEA6606 		asr	r6, r6, #1
 243              	.LVL21:
 244              	.LBB10:
 245              		.loc 1 88 0
 246 0150 CCE90001 		strd	r0, [ip]
 247              	.LBE10:
 248              		.loc 1 81 0
 249 0154 D8D1     		bne	.L3
 250 0156 0323     		movs	r3, #3
 251 0158 0193     		str	r3, [sp, #4]
 252              	.LVL22:
 253 015a 4FF0020C 		mov	ip, #2
 254              	.LVL23:
 255              	.L5:
 256 015e 0298     		ldr	r0, [sp, #8]
 257 0160 DDF810E0 		ldr	lr, [sp, #16]
 258 0164 00EBCC03 		add	r3, r0, ip, lsl #3
 259              	.LBB11:
 260              		.loc 1 94 0
 261 0168 03F5CC72 		add	r2, r3, #408
 262 016c D2E90089 		ldrd	r8, [r2]
 263              	.LVL24:
 264              		.loc 1 93 0
 265 0170 0CF13301 		add	r1, ip, #51
 266 0174 0CF12302 		add	r2, ip, #35
 267              		.loc 1 95 0
 268 0178 03F58C73 		add	r3, r3, #280
 269              		.loc 1 93 0
 270 017c 00EBC101 		add	r1, r0, r1, lsl #3
 271 0180 00EBC202 		add	r2, r0, r2, lsl #3
 272 0184 0398     		ldr	r0, [sp, #12]
 273              		.loc 1 95 0
 274 0186 D3E900AB 		ldrd	r10, [r3]
 275              	.LVL25:
 276              		.loc 1 96 0
 277 018a 0123     		movs	r3, #1
 278              	.LVL26:
 279              	.L4:
 280              		.loc 1 98 0
 281 018c FEE90267 		ldrd	r6, [lr, #8]!
 282 0190 88EA0604 		eor	r4, r8, r6
 283 0194 89EA0705 		eor	r5, r9, r7
 284 0198 E1E90245 		strd	r4, [r1, #8]!
 285              		.loc 1 99 0
ARM GAS  C:\Users\jo\AppData\Local\Temp\ccZRdplO.s 			page 6


 286 019c F0E90267 		ldrd	r6, [r0, #8]!
 287              		.loc 1 96 0
 288 01a0 0133     		adds	r3, r3, #1
 289              	.LVL27:
 290              		.loc 1 99 0
 291 01a2 8AEA0604 		eor	r4, r10, r6
 292 01a6 8BEA0705 		eor	r5, fp, r7
 293              		.loc 1 96 0
 294 01aa 6345     		cmp	r3, ip
 295              		.loc 1 99 0
 296 01ac E2E90245 		strd	r4, [r2, #8]!
 297              		.loc 1 96 0
 298 01b0 ECD1     		bne	.L4
 299              	.LBE11:
 300              		.loc 1 91 0
 301 01b2 4FEA430C 		lsl	ip, r3, #1
 302              	.LVL28:
 303 01b6 019B     		ldr	r3, [sp, #4]
 304              	.LVL29:
 305 01b8 013B     		subs	r3, r3, #1
 306 01ba 0193     		str	r3, [sp, #4]
 307 01bc CFD1     		bne	.L5
 308              	.LBE7:
 309              	.LBE6:
 310              		.loc 1 116 0
 311 01be 1846     		mov	r0, r3
 312              		.loc 1 117 0
 313 01c0 0FB0     		add	sp, sp, #60
 314              		.cfi_def_cfa_offset 36
 315              		@ sp needed
 316 01c2 BDE8F08F 		pop	{r4, r5, r6, r7, r8, r9, r10, fp, pc}
 317              		.cfi_endproc
 318              	.LFE1:
 319              		.size	gcm_init, .-gcm_init
 320 01c6 00BFAFF3 		.section	.text.gcm_mult,"ax",%progbits
 320      0080AFF3 
 320      0080
 321              		.align	2
 322              		.p2align 4,,15
 323              		.global	gcm_mult
 324              		.thumb
 325              		.thumb_func
 326              		.type	gcm_mult, %function
 327              	gcm_mult:
 328              	.LFB2:
 329              		.loc 1 128 0
 330              		.cfi_startproc
 331              		@ args = 0, pretend = 0, frame = 88
 332              		@ frame_needed = 0, uses_anonymous_args = 0
 333              	.LVL30:
 334 0000 2DE9F04F 		push	{r4, r5, r6, r7, r8, r9, r10, fp, lr}
 335              		.cfi_def_cfa_offset 36
 336              		.cfi_offset 4, -36
 337              		.cfi_offset 5, -32
 338              		.cfi_offset 6, -28
 339              		.cfi_offset 7, -24
 340              		.cfi_offset 8, -20
ARM GAS  C:\Users\jo\AppData\Local\Temp\ccZRdplO.s 			page 7


 341              		.cfi_offset 9, -16
 342              		.cfi_offset 10, -12
 343              		.cfi_offset 11, -8
 344              		.cfi_offset 14, -4
 345              		.loc 1 136 0
 346 0004 8E46     		mov	lr, r1
 347              		.loc 1 128 0
 348 0006 97B0     		sub	sp, sp, #92
 349              		.cfi_def_cfa_offset 128
 350              		.loc 1 136 0
 351 0008 1EF80FCF 		ldrb	ip, [lr, #15]!	@ zero_extendqisi2
 352              	.LVL31:
 353              		.loc 1 128 0
 354 000c 1192     		str	r2, [sp, #68]
 355              	.LVL32:
 356 000e 0CF00F01 		and	r1, ip, #15
 357              	.LVL33:
 358 0012 00EBC101 		add	r1, r0, r1, lsl #3
 359              		.loc 1 139 0
 360 0016 01F5CC73 		add	r3, r1, #408
 361              		.loc 1 140 0
 362 001a 01F58C71 		add	r1, r1, #280
 363 001e D1E90045 		ldrd	r4, [r1]
 364              		.loc 1 142 0
 365 0022 0F21     		movs	r1, #15
 366              		.loc 1 145 0
 367 0024 4FEA1C1C 		lsr	ip, ip, #4
 368              	.LVL34:
 369              		.loc 1 139 0
 370 0028 D3E90023 		ldrd	r2, [r3]
 371              	.LVL35:
 372 002c 0791     		str	r1, [sp, #28]
 373 002e 1090     		str	r0, [sp, #64]
 374 0030 35E0     		b	.L14
 375              	.LVL36:
 376              	.L15:
 377              		.loc 1 152 0
 378 0032 5F48     		ldr	r0, .L17
 379              		.loc 1 144 0
 380 0034 1EF801CD 		ldrb	ip, [lr, #-1]!	@ zero_extendqisi2
 381              	.LVL37:
 382              		.loc 1 152 0
 383 0038 50F83660 		ldr	r6, [r0, r6, lsl #3]
 384 003c 1098     		ldr	r0, [sp, #64]
 385              		.loc 1 150 0
 386 003e CDF828A0 		str	r10, [sp, #40]
 387 0042 0CF00F02 		and	r2, ip, #15
 388              	.LVL38:
 389 0046 00EBC202 		add	r2, r0, r2, lsl #3
 390              		.loc 1 153 0
 391 004a 02F5CC74 		add	r4, r2, #408
 392              	.LVL39:
 393              		.loc 1 150 0
 394 004e 1B09     		lsrs	r3, r3, #4
 395              		.loc 1 154 0
 396 0050 02F58C72 		add	r2, r2, #280
 397              		.loc 1 150 0
ARM GAS  C:\Users\jo\AppData\Local\Temp\ccZRdplO.s 			page 8


 398 0054 0393     		str	r3, [sp, #12]
 399              		.loc 1 154 0
 400 0056 D2E90023 		ldrd	r2, [r2]
 401 005a 1946     		mov	r1, r3
 402              		.loc 1 151 0
 403 005c 2B09     		lsrs	r3, r5, #4
 404              		.loc 1 152 0
 405 005e 3004     		lsls	r0, r6, #16
 406              		.loc 1 151 0
 407 0060 0593     		str	r3, [sp, #20]
 408 0062 D4E90067 		ldrd	r6, [r4]
 409              		.loc 1 152 0
 410 0066 0D90     		str	r0, [sp, #52]
 411              		.loc 1 154 0
 412 0068 1046     		mov	r0, r2
 413 006a DDE90423 		ldrd	r2, [sp, #16]
 414              		.loc 1 150 0
 415 006e DDE90A45 		ldrd	r4, [sp, #40]
 416 0072 7240     		eors	r2, r2, r6
 417 0074 7B40     		eors	r3, r3, r7
 418 0076 DDE90267 		ldrd	r6, [sp, #8]
 419              		.loc 1 152 0
 420 007a CDF830A0 		str	r10, [sp, #48]
 421              		.loc 1 150 0
 422 007e 3443     		orrs	r4, r4, r6
 423 0080 3D43     		orrs	r5, r5, r7
 424              		.loc 1 153 0
 425 0082 DDE90C67 		ldrd	r6, [sp, #48]
 426 0086 5640     		eors	r6, r6, r2
 427 0088 5F40     		eors	r7, r7, r3
 428 008a 3246     		mov	r2, r6
 429 008c 3B46     		mov	r3, r7
 430              		.loc 1 154 0
 431 008e 0646     		mov	r6, r0
 432 0090 0F46     		mov	r7, r1
 433 0092 6640     		eors	r6, r6, r4
 434 0094 6F40     		eors	r7, r7, r5
 435              		.loc 1 145 0
 436 0096 4FEA1C1C 		lsr	ip, ip, #4
 437              	.LVL40:
 438              		.loc 1 154 0
 439 009a 3446     		mov	r4, r6
 440              	.LVL41:
 441 009c 3D46     		mov	r5, r7
 442              	.LVL42:
 443              	.L14:
 444 009e 1098     		ldr	r0, [sp, #64]
 445              		.loc 1 161 0 discriminator 2
 446 00a0 04F00F07 		and	r7, r4, #15
 447 00a4 00EBCC0C 		add	ip, r0, ip, lsl #3
 448              	.LVL43:
 449 00a8 4148     		ldr	r0, .L17
 450              		.loc 1 159 0 discriminator 2
 451 00aa 4FEA1418 		lsr	r8, r4, #4
 452              		.loc 1 161 0 discriminator 2
 453 00ae 50F83740 		ldr	r4, [r0, r7, lsl #3]
 454              	.LVL44:
ARM GAS  C:\Users\jo\AppData\Local\Temp\ccZRdplO.s 			page 9


 455              		.loc 1 160 0 discriminator 2
 456 00b2 1009     		lsrs	r0, r2, #4
 457 00b4 40EA0370 		orr	r0, r0, r3, lsl #28
 458              		.loc 1 162 0 discriminator 2
 459 00b8 0CF5CC76 		add	r6, ip, #408
 460              		.loc 1 163 0 discriminator 2
 461 00bc 0CF58C7C 		add	ip, ip, #280
 462              		.loc 1 160 0 discriminator 2
 463 00c0 0090     		str	r0, [sp]
 464              		.loc 1 163 0 discriminator 2
 465 00c2 DCE90001 		ldrd	r0, [ip]
 466              		.loc 1 160 0 discriminator 2
 467 00c6 1B09     		lsrs	r3, r3, #4
 468 00c8 0193     		str	r3, [sp, #4]
 469 00ca D6E90067 		ldrd	r6, [r6]
 470              		.loc 1 163 0 discriminator 2
 471 00ce CDE90E01 		strd	r0, [sp, #56]
 472              		.loc 1 159 0 discriminator 2
 473 00d2 48EA0578 		orr	r8, r8, r5, lsl #28
 474              		.loc 1 161 0 discriminator 2
 475 00d6 2004     		lsls	r0, r4, #16
 476              		.loc 1 159 0 discriminator 2
 477 00d8 4FEA1519 		lsr	r9, r5, #4
 478 00dc DDE90045 		ldrd	r4, [sp]
 479 00e0 4FF0000A 		mov	r10, #0
 480              		.loc 1 161 0 discriminator 2
 481 00e4 0990     		str	r0, [sp, #36]
 482 00e6 CDF820A0 		str	r10, [sp, #32]
 483 00ea 7440     		eors	r4, r4, r6
 484 00ec 7D40     		eors	r5, r5, r7
 485              		.loc 1 162 0 discriminator 2
 486 00ee DDE90867 		ldrd	r6, [sp, #32]
 487 00f2 6640     		eors	r6, r6, r4
 488 00f4 6F40     		eors	r7, r7, r5
 489              		.loc 1 151 0 discriminator 2
 490 00f6 3009     		lsrs	r0, r6, #4
 491              		.loc 1 162 0 discriminator 2
 492 00f8 3446     		mov	r4, r6
 493 00fa 3D46     		mov	r5, r7
 494              		.loc 1 163 0 discriminator 2
 495 00fc DDE90E67 		ldrd	r6, [sp, #56]
 496              		.loc 1 142 0 discriminator 2
 497 0100 079B     		ldr	r3, [sp, #28]
 498              		.loc 1 151 0 discriminator 2
 499 0102 0490     		str	r0, [sp, #16]
 500              		.loc 1 159 0 discriminator 2
 501 0104 4FEA027B 		lsl	fp, r2, #28
 502 0108 48EA0A02 		orr	r2, r8, r10
 503              	.LVL45:
 504              		.loc 1 142 0 discriminator 2
 505 010c 013B     		subs	r3, r3, #1
 506              		.loc 1 163 0 discriminator 2
 507 010e 5640     		eors	r6, r6, r2
 508              		.loc 1 142 0 discriminator 2
 509 0110 0793     		str	r3, [sp, #28]
 510              		.loc 1 163 0 discriminator 2
 511 0112 3246     		mov	r2, r6
ARM GAS  C:\Users\jo\AppData\Local\Temp\ccZRdplO.s 			page 10


 512              		.loc 1 159 0 discriminator 2
 513 0114 49EA0B03 		orr	r3, r9, fp
 514              	.LVL46:
 515              		.loc 1 163 0 discriminator 2
 516 0118 5F40     		eors	r7, r7, r3
 517              		.loc 1 150 0 discriminator 2
 518 011a 1009     		lsrs	r0, r2, #4
 519 011c 40EA0770 		orr	r0, r0, r7, lsl #28
 520 0120 0290     		str	r0, [sp, #8]
 521 0122 2007     		lsls	r0, r4, #28
 522              		.loc 1 142 0 discriminator 2
 523 0124 0799     		ldr	r1, [sp, #28]
 524              		.loc 1 150 0 discriminator 2
 525 0126 0B90     		str	r0, [sp, #44]
 526              		.loc 1 151 0 discriminator 2
 527 0128 0498     		ldr	r0, [sp, #16]
 528              		.loc 1 142 0 discriminator 2
 529 012a 0131     		adds	r1, r1, #1
 530              		.loc 1 151 0 discriminator 2
 531 012c 40EA0570 		orr	r0, r0, r5, lsl #28
 532              		.loc 1 163 0 discriminator 2
 533 0130 3B46     		mov	r3, r7
 534              	.LVL47:
 535              		.loc 1 152 0 discriminator 2
 536 0132 06F00F06 		and	r6, r6, #15
 537              		.loc 1 151 0 discriminator 2
 538 0136 0490     		str	r0, [sp, #16]
 539              		.loc 1 142 0 discriminator 2
 540 0138 7FF47BAF 		bne	.L15
 541 013c 1046     		mov	r0, r2
 542 013e 3946     		mov	r1, r7
 543              		.loc 1 168 0
 544 0140 CDE90001 		strd	r0, [sp]
 545              		.loc 1 166 0
 546 0144 119A     		ldr	r2, [sp, #68]
 547              	.LVL48:
 548              		.loc 1 168 0
 549 0146 1E0E     		lsrs	r6, r3, #24
 550 0148 180C     		lsrs	r0, r3, #16
 551 014a 019B     		ldr	r3, [sp, #4]
 552              		.loc 1 166 0
 553 014c D570     		strb	r5, [r2, #3]
 554              		.loc 1 167 0
 555 014e D471     		strb	r4, [r2, #7]
 556              		.loc 1 166 0
 557 0150 4FEA156B 		lsr	fp, r5, #24
 558 0154 4FEA1549 		lsr	r9, r5, #16
 559 0158 4FEA1528 		lsr	r8, r5, #8
 560              		.loc 1 167 0
 561 015c 4FEA146C 		lsr	ip, r4, #24
 562 0160 4FEA144E 		lsr	lr, r4, #16
 563 0164 270A     		lsrs	r7, r4, #8
 564              		.loc 1 168 0
 565 0166 190A     		lsrs	r1, r3, #8
 566              		.loc 1 169 0
 567 0168 DDE90045 		ldrd	r4, [sp]
 568              	.LVL49:
ARM GAS  C:\Users\jo\AppData\Local\Temp\ccZRdplO.s 			page 11


 569              		.loc 1 166 0
 570 016c 1346     		mov	r3, r2
 571              		.loc 1 168 0
 572 016e 9DF80450 		ldrb	r5, [sp, #4]	@ zero_extendqisi2
 573              		.loc 1 169 0
 574 0172 009A     		ldr	r2, [sp]
 575              		.loc 1 168 0
 576 0174 DD72     		strb	r5, [r3, #11]
 577              		.loc 1 169 0
 578 0176 9DF80050 		ldrb	r5, [sp]	@ zero_extendqisi2
 579 017a DD73     		strb	r5, [r3, #15]
 580 017c 4FEA146A 		lsr	r10, r4, #24
 581 0180 120A     		lsrs	r2, r2, #8
 582 0182 240C     		lsrs	r4, r4, #16
 583              		.loc 1 166 0
 584 0184 83F800B0 		strb	fp, [r3]
 585 0188 83F80190 		strb	r9, [r3, #1]
 586 018c 83F80280 		strb	r8, [r3, #2]
 587              		.loc 1 167 0
 588 0190 83F804C0 		strb	ip, [r3, #4]
 589 0194 83F805E0 		strb	lr, [r3, #5]
 590 0198 9F71     		strb	r7, [r3, #6]
 591              		.loc 1 168 0
 592 019a 1E72     		strb	r6, [r3, #8]
 593 019c 5872     		strb	r0, [r3, #9]
 594 019e 9972     		strb	r1, [r3, #10]
 595              		.loc 1 169 0
 596 01a0 83F80CA0 		strb	r10, [r3, #12]
 597 01a4 5C73     		strb	r4, [r3, #13]
 598 01a6 9A73     		strb	r2, [r3, #14]
 599              		.loc 1 170 0
 600 01a8 17B0     		add	sp, sp, #92
 601              		.cfi_def_cfa_offset 36
 602              		@ sp needed
 603 01aa BDE8F08F 		pop	{r4, r5, r6, r7, r8, r9, r10, fp, pc}
 604              	.LVL50:
 605              	.L18:
 606 01ae 00BF     		.align	2
 607              	.L17:
 608 01b0 00000000 		.word	.LANCHOR0
 609              		.cfi_endproc
 610              	.LFE2:
 611              		.size	gcm_mult, .-gcm_mult
 612 01b4 AFF30080 		.section	.text.gcm_crypt_and_tag,"ax",%progbits
 612      AFF30080 
 612      AFF30080 
 613              		.align	2
 614              		.p2align 4,,15
 615              		.global	gcm_crypt_and_tag
 616              		.thumb
 617              		.thumb_func
 618              		.type	gcm_crypt_and_tag, %function
 619              	gcm_crypt_and_tag:
 620              	.LFB3:
 621              		.loc 1 183 0
 622              		.cfi_startproc
 623              		@ args = 28, pretend = 0, frame = 80
ARM GAS  C:\Users\jo\AppData\Local\Temp\ccZRdplO.s 			page 12


 624              		@ frame_needed = 0, uses_anonymous_args = 0
 625              	.LVL51:
 626 0000 2DE9F04F 		push	{r4, r5, r6, r7, r8, r9, r10, fp, lr}
 627              		.cfi_def_cfa_offset 36
 628              		.cfi_offset 4, -36
 629              		.cfi_offset 5, -32
 630              		.cfi_offset 6, -28
 631              		.cfi_offset 7, -24
 632              		.cfi_offset 8, -20
 633              		.cfi_offset 9, -16
 634              		.cfi_offset 10, -12
 635              		.cfi_offset 11, -8
 636              		.cfi_offset 14, -4
 637 0004 95B0     		sub	sp, sp, #84
 638              		.cfi_def_cfa_offset 120
 639              	.LVL52:
 640              		.loc 1 183 0
 641 0006 1EAD     		add	r5, sp, #120
 642              	.LVL53:
 643              		.loc 1 195 0
 644 0008 0026     		movs	r6, #0
 645              		.loc 1 183 0
 646 000a 95E82006 		ldmia	r5, {r5, r9, r10}
 647              	.LVL54:
 648 000e 9346     		mov	fp, r2
 649 0010 0192     		str	r2, [sp, #4]
 650 0012 8046     		mov	r8, r0
 651              		.loc 1 197 0
 652 0014 239A     		ldr	r2, [sp, #140]
 653              	.LVL55:
 654 0016 2498     		ldr	r0, [sp, #144]
 655              	.LVL56:
 656              		.loc 1 183 0
 657 0018 0093     		str	r3, [sp]
 658 001a 0C46     		mov	r4, r1
 659              		.loc 1 197 0
 660 001c 3146     		mov	r1, r6
 661              	.LVL57:
 662              		.loc 1 183 0
 663 001e 219F     		ldr	r7, [sp, #132]
 664              		.loc 1 195 0
 665 0020 0496     		str	r6, [sp, #16]
 666 0022 0596     		str	r6, [sp, #20]
 667 0024 0696     		str	r6, [sp, #24]
 668 0026 0796     		str	r6, [sp, #28]
 669              		.loc 1 196 0
 670 0028 1096     		str	r6, [sp, #64]
 671 002a 1196     		str	r6, [sp, #68]
 672 002c 1296     		str	r6, [sp, #72]
 673 002e 1396     		str	r6, [sp, #76]
 674              		.loc 1 197 0
 675 0030 FFF7FEFF 		bl	memset
 676              	.LVL58:
 677              		.loc 1 192 0
 678 0034 5B46     		mov	r3, fp
 679 0036 DB00     		lsls	r3, r3, #3
 680 0038 0293     		str	r3, [sp, #8]
ARM GAS  C:\Users\jo\AppData\Local\Temp\ccZRdplO.s 			page 13


 681              	.LVL59:
 682              		.loc 1 193 0
 683 003a 4FEACA03 		lsl	r3, r10, #3
 684              	.LVL60:
 685 003e 0393     		str	r3, [sp, #12]
 686              	.LVL61:
 687              		.loc 1 198 0
 688 0040 0C96     		str	r6, [sp, #48]
 689 0042 0D96     		str	r6, [sp, #52]
 690 0044 0E96     		str	r6, [sp, #56]
 691 0046 0F96     		str	r6, [sp, #60]
 692              		.loc 1 200 0
 693 0048 009B     		ldr	r3, [sp]
 694              	.LVL62:
 695 004a 229A     		ldr	r2, [sp, #136]
 696 004c 002C     		cmp	r4, #0
 697 004e 3AD1     		bne	.L20
 698              		.loc 1 200 0 is_stmt 0 discriminator 1
 699 0050 BA42     		cmp	r2, r7
 700 0052 3AD8     		bhi	.L21
 701              		.loc 1 200 0 discriminator 3
 702 0054 BA1A     		subs	r2, r7, r2
 703 0056 072A     		cmp	r2, #7
 704 0058 3CDD     		ble	.L52
 705              	.L23:
 706              		.loc 1 206 0 is_stmt 1
 707 005a 0C2D     		cmp	r5, #12
 708 005c 00F01381 		beq	.L69
 709              		.loc 1 214 0
 710 0060 EA00     		lsls	r2, r5, #3
 711 0062 110E     		lsrs	r1, r2, #24
 712 0064 100C     		lsrs	r0, r2, #16
 713 0066 8DF84F20 		strb	r2, [sp, #79]
 714              	.LVL63:
 715 006a 8DF84C10 		strb	r1, [sp, #76]
 716 006e 120A     		lsrs	r2, r2, #8
 717              		.loc 1 213 0
 718 0070 0021     		movs	r1, #0
 719              		.loc 1 214 0
 720 0072 8DF84D00 		strb	r0, [sp, #77]
 721 0076 8DF84E20 		strb	r2, [sp, #78]
 722              		.loc 1 213 0
 723 007a 1091     		str	r1, [sp, #64]
 724 007c 1191     		str	r1, [sp, #68]
 725 007e 1291     		str	r1, [sp, #72]
 726 0080 04AE     		add	r6, sp, #16
 727              		.loc 1 217 0
 728 0082 6DB3     		cbz	r5, .L26
 729 0084 0094     		str	r4, [sp]
 730              	.LVL64:
 731 0086 1C46     		mov	r4, r3
 732              	.LVL65:
 733              	.L30:
 734              		.loc 1 219 0
 735 0088 102D     		cmp	r5, #16
 736 008a AB46     		mov	fp, r5
 737 008c 28BF     		it	cs
ARM GAS  C:\Users\jo\AppData\Local\Temp\ccZRdplO.s 			page 14


 738 008e 4FF0100B 		movcs	fp, #16
 739              	.LVL66:
 740 0092 06EB0B0C 		add	ip, r6, fp
 741 0096 04F1FF3E 		add	lr, r4, #-1
 742 009a 3046     		mov	r0, r6
 743 009c 00E0     		b	.L28
 744              	.LVL67:
 745              	.L70:
 746 009e 0178     		ldrb	r1, [r0]	@ zero_extendqisi2
 747              	.L28:
 748              		.loc 1 222 0 discriminator 3
 749 00a0 1EF8013F 		ldrb	r3, [lr, #1]!	@ zero_extendqisi2
 750 00a4 5940     		eors	r1, r1, r3
 751 00a6 00F8011B 		strb	r1, [r0], #1
 752              		.loc 1 221 0 discriminator 3
 753 00aa 6045     		cmp	r0, ip
 754 00ac F7D1     		bne	.L70
 755              		.loc 1 224 0
 756 00ae 4046     		mov	r0, r8
 757 00b0 3146     		mov	r1, r6
 758 00b2 3246     		mov	r2, r6
 759 00b4 FFF7FEFF 		bl	gcm_mult
 760              	.LVL68:
 761              		.loc 1 217 0
 762 00b8 B5EB0B05 		subs	r5, r5, fp
 763              	.LVL69:
 764              		.loc 1 227 0
 765 00bc 5C44     		add	r4, r4, fp
 766              	.LVL70:
 767              		.loc 1 217 0
 768 00be 0CD0     		beq	.L71
 769 00c0 9DF81010 		ldrb	r1, [sp, #16]	@ zero_extendqisi2
 770 00c4 E0E7     		b	.L30
 771              	.LVL71:
 772              	.L20:
 773              		.loc 1 200 0 discriminator 5
 774 00c6 BA42     		cmp	r2, r7
 775 00c8 C7D9     		bls	.L23
 776              	.L21:
 777              		.loc 1 201 0
 778 00ca 229A     		ldr	r2, [sp, #136]
 779 00cc 0199     		ldr	r1, [sp, #4]
 780 00ce D21B     		subs	r2, r2, r7
 781 00d0 9142     		cmp	r1, r2
 782 00d2 C2D9     		bls	.L23
 783              	.L52:
 784              		.loc 1 203 0
 785 00d4 6FF01300 		mvn	r0, #19
 786 00d8 D2E0     		b	.L66
 787              	.LVL72:
 788              	.L71:
 789 00da 009C     		ldr	r4, [sp]
 790              	.LVL73:
 791 00dc 9DF81050 		ldrb	r5, [sp, #16]	@ zero_extendqisi2
 792              	.LVL74:
 793              	.L26:
 794              		.loc 1 217 0
ARM GAS  C:\Users\jo\AppData\Local\Temp\ccZRdplO.s 			page 15


 795 00e0 0020     		movs	r0, #0
 796 00e2 0346     		mov	r3, r0
 797 00e4 3246     		mov	r2, r6
 798 00e6 10A9     		add	r1, sp, #64
 799 00e8 02E0     		b	.L50
 800              	.LVL75:
 801              	.L31:
 802 00ea 1578     		ldrb	r5, [r2]	@ zero_extendqisi2
 803 00ec 11F8010F 		ldrb	r0, [r1, #1]!	@ zero_extendqisi2
 804              	.LVL76:
 805              	.L50:
 806              		.loc 1 230 0 discriminator 3
 807 00f0 0133     		adds	r3, r3, #1
 808              	.LVL77:
 809              		.loc 1 231 0 discriminator 3
 810 00f2 6840     		eors	r0, r0, r5
 811              		.loc 1 230 0 discriminator 3
 812 00f4 102B     		cmp	r3, #16
 813              		.loc 1 231 0 discriminator 3
 814 00f6 02F8010B 		strb	r0, [r2], #1
 815              		.loc 1 230 0 discriminator 3
 816 00fa F6D1     		bne	.L31
 817              		.loc 1 233 0
 818 00fc 4046     		mov	r0, r8
 819 00fe 3146     		mov	r1, r6
 820 0100 3246     		mov	r2, r6
 821 0102 FFF7FEFF 		bl	gcm_mult
 822              	.LVL78:
 823              	.L25:
 824              		.loc 1 236 0
 825 0106 08AB     		add	r3, sp, #32
 826 0108 0121     		movs	r1, #1
 827 010a 3246     		mov	r2, r6
 828 010c 4046     		mov	r0, r8
 829 010e FFF7FEFF 		bl	aes_crypt_ecb
 830              	.LVL79:
 831              		.loc 1 237 0
 832 0112 2498     		ldr	r0, [sp, #144]
 833 0114 239A     		ldr	r2, [sp, #140]
 834 0116 08A9     		add	r1, sp, #32
 835 0118 FFF7FEFF 		bl	memcpy
 836              	.LVL80:
 837 011c 0CAD     		add	r5, sp, #48
 838              		.loc 1 240 0
 839 011e BAF1000F 		cmp	r10, #0
 840 0122 1AD0     		beq	.L37
 841              	.L36:
 842              		.loc 1 242 0
 843 0124 BAF1100F 		cmp	r10, #16
 844 0128 D346     		mov	fp, r10
 845 012a 28BF     		it	cs
 846 012c 4FF0100B 		movcs	fp, #16
 847              	.LVL81:
 848 0130 4846     		mov	r0, r9
 849 0132 0DF12F01 		add	r1, sp, #47
 850 0136 D944     		add	r9, r9, fp
 851              	.LVL82:
ARM GAS  C:\Users\jo\AppData\Local\Temp\ccZRdplO.s 			page 16


 852              	.L35:
 853              		.loc 1 245 0 discriminator 3
 854 0138 10F8012B 		ldrb	r2, [r0], #1	@ zero_extendqisi2
 855 013c 11F8013F 		ldrb	r3, [r1, #1]!	@ zero_extendqisi2
 856              	.LVL83:
 857              		.loc 1 244 0 discriminator 3
 858 0140 4845     		cmp	r0, r9
 859              		.loc 1 245 0 discriminator 3
 860 0142 83EA0203 		eor	r3, r3, r2
 861 0146 0B70     		strb	r3, [r1]
 862              	.LVL84:
 863              		.loc 1 244 0 discriminator 3
 864 0148 F6D1     		bne	.L35
 865              		.loc 1 247 0
 866 014a 4046     		mov	r0, r8
 867 014c 2946     		mov	r1, r5
 868              	.LVL85:
 869 014e 2A46     		mov	r2, r5
 870 0150 FFF7FEFF 		bl	gcm_mult
 871              	.LVL86:
 872              		.loc 1 240 0
 873 0154 BAEB0B0A 		subs	r10, r10, fp
 874              	.LVL87:
 875 0158 E4D1     		bne	.L36
 876              	.LVL88:
 877              	.L37:
 878              		.loc 1 254 0
 879 015a 019B     		ldr	r3, [sp, #4]
 880 015c 002B     		cmp	r3, #0
 881 015e 45D0     		beq	.L34
 882 0160 DDF888A0 		ldr	r10, [sp, #136]
 883              	.LVL89:
 884 0164 CDF80080 		str	r8, [sp]
 885 0168 0CAD     		add	r5, sp, #48
 886 016a DDF80480 		ldr	r8, [sp, #4]
 887              	.LVL90:
 888 016e 0196     		str	r6, [sp, #4]
 889              	.LVL91:
 890 0170 0DF11C09 		add	r9, sp, #28
 891              	.LVL92:
 892              	.L45:
 893              		.loc 1 256 0
 894 0174 4646     		mov	r6, r8
 895 0176 102E     		cmp	r6, #16
 896 0178 28BF     		it	cs
 897 017a 1026     		movcs	r6, #16
 898              	.LVL93:
 899 017c 08AA     		add	r2, sp, #32
 900              	.LVL94:
 901              	.L41:
 902              		.loc 1 259 0
 903 017e 12F8013D 		ldrb	r3, [r2, #-1]!	@ zero_extendqisi2
 904              	.LVL95:
 905 0182 0133     		adds	r3, r3, #1
 906 0184 DBB2     		uxtb	r3, r3
 907 0186 1370     		strb	r3, [r2]
 908 0188 0BB9     		cbnz	r3, .L40
ARM GAS  C:\Users\jo\AppData\Local\Temp\ccZRdplO.s 			page 17


 909              		.loc 1 258 0 discriminator 1
 910 018a 4A45     		cmp	r2, r9
 911 018c F7D1     		bne	.L41
 912              	.L40:
 913              		.loc 1 262 0
 914 018e 0121     		movs	r1, #1
 915 0190 019A     		ldr	r2, [sp, #4]
 916              	.LVL96:
 917 0192 0098     		ldr	r0, [sp]
 918 0194 08AB     		add	r3, sp, #32
 919 0196 FFF7FEFF 		bl	aes_crypt_ecb
 920              	.LVL97:
 921 019a 06F1FF3C 		add	ip, r6, #-1
 922 019e BC44     		add	ip, ip, r7
 923 01a0 0DF11F0E 		add	lr, sp, #31
 924 01a4 791E     		subs	r1, r7, #1
 925 01a6 0AF1FF30 		add	r0, r10, #-1
 926 01aa 2A46     		mov	r2, r5
 927              	.LVL98:
 928              	.L44:
 929              		.loc 1 266 0
 930 01ac 11F801BF 		ldrb	fp, [r1, #1]!	@ zero_extendqisi2
 931 01b0 1EF8013F 		ldrb	r3, [lr, #1]!	@ zero_extendqisi2
 932              	.LVL99:
 933 01b4 8BEA0303 		eor	r3, fp, r3
 934 01b8 00F8013F 		strb	r3, [r0, #1]!
 935              		.loc 1 267 0
 936 01bc 012C     		cmp	r4, #1
 937              		.loc 1 268 0
 938 01be 92F800B0 		ldrb	fp, [r2]	@ zero_extendqisi2
 939              		.loc 1 270 0
 940 01c2 18BF     		it	ne
 941 01c4 0B78     		ldrbne	r3, [r1]	@ zero_extendqisi2
 942              		.loc 1 264 0
 943 01c6 6145     		cmp	r1, ip
 944              		.loc 1 270 0
 945 01c8 8BEA0303 		eor	r3, fp, r3
 946 01cc 1370     		strb	r3, [r2]
 947              	.LVL100:
 948 01ce 02F10102 		add	r2, r2, #1
 949              		.loc 1 264 0
 950 01d2 EBD1     		bne	.L44
 951              		.loc 1 273 0
 952 01d4 0098     		ldr	r0, [sp]
 953 01d6 2946     		mov	r1, r5
 954 01d8 2A46     		mov	r2, r5
 955 01da FFF7FEFF 		bl	gcm_mult
 956              	.LVL101:
 957              		.loc 1 254 0
 958 01de B8EB0608 		subs	r8, r8, r6
 959              	.LVL102:
 960              		.loc 1 276 0
 961 01e2 3744     		add	r7, r7, r6
 962              	.LVL103:
 963              		.loc 1 277 0
 964 01e4 B244     		add	r10, r10, r6
 965              	.LVL104:
ARM GAS  C:\Users\jo\AppData\Local\Temp\ccZRdplO.s 			page 18


 966              		.loc 1 254 0
 967 01e6 C5D1     		bne	.L45
 968 01e8 DDF80080 		ldr	r8, [sp]
 969              	.LVL105:
 970              	.L34:
 971              		.loc 1 280 0
 972 01ec 029B     		ldr	r3, [sp, #8]
 973 01ee 13B9     		cbnz	r3, .L38
 974              		.loc 1 280 0 is_stmt 0 discriminator 1
 975 01f0 039B     		ldr	r3, [sp, #12]
 976 01f2 002B     		cmp	r3, #0
 977 01f4 43D0     		beq	.L48
 978              	.L38:
 979              		.loc 1 285 0 is_stmt 1
 980 01f6 0399     		ldr	r1, [sp, #12]
 981              		.loc 1 287 0
 982 01f8 029D     		ldr	r5, [sp, #8]
 983              		.loc 1 285 0
 984 01fa 9DF80CC0 		ldrb	ip, [sp, #12]	@ zero_extendqisi2
 985 01fe 8DF847C0 		strb	ip, [sp, #71]
 986              		.loc 1 192 0
 987 0202 0020     		movs	r0, #0
 988              		.loc 1 287 0
 989 0204 2C0E     		lsrs	r4, r5, #24
 990              		.loc 1 285 0
 991 0206 4FEA116E 		lsr	lr, r1, #24
 992 020a 0F0C     		lsrs	r7, r1, #16
 993              	.LVL106:
 994 020c 0E0A     		lsrs	r6, r1, #8
 995              		.loc 1 287 0
 996 020e 2A0A     		lsrs	r2, r5, #8
 997 0210 290C     		lsrs	r1, r5, #16
 998 0212 9DF808C0 		ldrb	ip, [sp, #8]	@ zero_extendqisi2
 999 0216 8DF84C40 		strb	r4, [sp, #76]
 1000 021a 0CAD     		add	r5, sp, #48
 1001 021c 8DF84D10 		strb	r1, [sp, #77]
 1002 0220 0346     		mov	r3, r0
 1003 0222 8DF84FC0 		strb	ip, [sp, #79]
 1004              	.LVL107:
 1005              		.loc 1 282 0
 1006 0226 1090     		str	r0, [sp, #64]
 1007 0228 1290     		str	r0, [sp, #72]
 1008              		.loc 1 285 0
 1009 022a 8DF844E0 		strb	lr, [sp, #68]
 1010 022e 8DF84570 		strb	r7, [sp, #69]
 1011 0232 8DF84660 		strb	r6, [sp, #70]
 1012              		.loc 1 287 0
 1013 0236 8DF84E20 		strb	r2, [sp, #78]
 1014 023a 2946     		mov	r1, r5
 1015 023c 10AC     		add	r4, sp, #64
 1016 023e 01E0     		b	.L47
 1017              	.LVL108:
 1018              	.L72:
 1019 0240 14F8013F 		ldrb	r3, [r4, #1]!	@ zero_extendqisi2
 1020              	.LVL109:
 1021              	.L47:
 1022              		.loc 1 290 0 discriminator 3
ARM GAS  C:\Users\jo\AppData\Local\Temp\ccZRdplO.s 			page 19


 1023 0244 0A78     		ldrb	r2, [r1]	@ zero_extendqisi2
 1024              		.loc 1 289 0 discriminator 3
 1025 0246 0130     		adds	r0, r0, #1
 1026              	.LVL110:
 1027              		.loc 1 290 0 discriminator 3
 1028 0248 5340     		eors	r3, r3, r2
 1029              		.loc 1 289 0 discriminator 3
 1030 024a 1028     		cmp	r0, #16
 1031              		.loc 1 290 0 discriminator 3
 1032 024c 01F8013B 		strb	r3, [r1], #1
 1033              		.loc 1 289 0 discriminator 3
 1034 0250 F6D1     		bne	.L72
 1035              		.loc 1 292 0
 1036 0252 4046     		mov	r0, r8
 1037              	.LVL111:
 1038 0254 2946     		mov	r1, r5
 1039 0256 2A46     		mov	r2, r5
 1040 0258 FFF7FEFF 		bl	gcm_mult
 1041              	.LVL112:
 1042              		.loc 1 294 0
 1043 025c 239B     		ldr	r3, [sp, #140]
 1044 025e 73B1     		cbz	r3, .L48
 1045 0260 5C1E     		subs	r4, r3, #1
 1046 0262 249B     		ldr	r3, [sp, #144]
 1047 0264 0DF12F00 		add	r0, sp, #47
 1048 0268 1C44     		add	r4, r4, r3
 1049 026a 591E     		subs	r1, r3, #1
 1050              	.LVL113:
 1051              	.L49:
 1052              		.loc 1 295 0 discriminator 3
 1053 026c 11F8013F 		ldrb	r3, [r1, #1]!	@ zero_extendqisi2
 1054 0270 10F8012F 		ldrb	r2, [r0, #1]!	@ zero_extendqisi2
 1055              		.loc 1 294 0 discriminator 3
 1056 0274 A142     		cmp	r1, r4
 1057              		.loc 1 295 0 discriminator 3
 1058 0276 83EA0203 		eor	r3, r3, r2
 1059 027a 0B70     		strb	r3, [r1]
 1060              		.loc 1 294 0 discriminator 3
 1061 027c F6D1     		bne	.L49
 1062              	.L48:
 1063              		.loc 1 298 0
 1064 027e 0020     		movs	r0, #0
 1065              	.L66:
 1066              		.loc 1 299 0
 1067 0280 15B0     		add	sp, sp, #84
 1068              		.cfi_remember_state
 1069              		.cfi_def_cfa_offset 36
 1070              		@ sp needed
 1071 0282 BDE8F08F 		pop	{r4, r5, r6, r7, r8, r9, r10, fp, pc}
 1072              	.LVL114:
 1073              	.L69:
 1074              		.cfi_restore_state
 1075              		.loc 1 208 0
 1076 0286 1868     		ldr	r0, [r3]	@ unaligned
 1077 0288 5968     		ldr	r1, [r3, #4]	@ unaligned
 1078 028a 9A68     		ldr	r2, [r3, #8]	@ unaligned
 1079 028c 04AE     		add	r6, sp, #16
ARM GAS  C:\Users\jo\AppData\Local\Temp\ccZRdplO.s 			page 20


 1080 028e 3346     		mov	r3, r6
 1081              		.loc 1 209 0
 1082 0290 0125     		movs	r5, #1
 1083              		.loc 1 208 0
 1084 0292 07C3     		stmia	r3!, {r0, r1, r2}
 1085              		.loc 1 209 0
 1086 0294 8DF81F50 		strb	r5, [sp, #31]
 1087 0298 35E7     		b	.L25
 1088              		.cfi_endproc
 1089              	.LFE3:
 1090              		.size	gcm_crypt_and_tag, .-gcm_crypt_and_tag
 1091 029a 00BFAFF3 		.section	.text.gcm_auth_decrypt,"ax",%progbits
 1091      0080
 1092              		.align	2
 1093              		.p2align 4,,15
 1094              		.global	gcm_auth_decrypt
 1095              		.thumb
 1096              		.thumb_func
 1097              		.type	gcm_auth_decrypt, %function
 1098              	gcm_auth_decrypt:
 1099              	.LFB4:
 1100              		.loc 1 311 0
 1101              		.cfi_startproc
 1102              		@ args = 24, pretend = 0, frame = 16
 1103              		@ frame_needed = 0, uses_anonymous_args = 0
 1104              	.LVL115:
 1105 0000 2DE9F041 		push	{r4, r5, r6, r7, r8, lr}
 1106              		.cfi_def_cfa_offset 24
 1107              		.cfi_offset 4, -24
 1108              		.cfi_offset 5, -20
 1109              		.cfi_offset 6, -16
 1110              		.cfi_offset 7, -12
 1111              		.cfi_offset 8, -8
 1112              		.cfi_offset 14, -4
 1113 0004 8CB0     		sub	sp, sp, #48
 1114              		.cfi_def_cfa_offset 72
 1115              		.loc 1 311 0
 1116 0006 8846     		mov	r8, r1
 1117 0008 159C     		ldr	r4, [sp, #84]
 1118 000a 1699     		ldr	r1, [sp, #88]
 1119              	.LVL116:
 1120 000c 139F     		ldr	r7, [sp, #76]
 1121 000e 179E     		ldr	r6, [sp, #92]
 1122              		.loc 1 314 0
 1123 0010 0093     		str	r3, [sp]
 1124 0012 08AD     		add	r5, sp, #32
 1125 0014 1346     		mov	r3, r2
 1126              	.LVL117:
 1127 0016 129A     		ldr	r2, [sp, #72]
 1128              	.LVL118:
 1129 0018 0192     		str	r2, [sp, #4]
 1130 001a 0391     		str	r1, [sp, #12]
 1131 001c 4246     		mov	r2, r8
 1132 001e 0021     		movs	r1, #0
 1133 0020 0297     		str	r7, [sp, #8]
 1134 0022 0594     		str	r4, [sp, #20]
 1135 0024 0496     		str	r6, [sp, #16]
ARM GAS  C:\Users\jo\AppData\Local\Temp\ccZRdplO.s 			page 21


 1136 0026 0695     		str	r5, [sp, #24]
 1137 0028 FFF7FEFF 		bl	gcm_crypt_and_tag
 1138              	.LVL119:
 1139              		.loc 1 316 0
 1140 002c 2846     		mov	r0, r5
 1141 002e 1499     		ldr	r1, [sp, #80]
 1142 0030 2246     		mov	r2, r4
 1143 0032 FFF7FEFF 		bl	memcmp
 1144              	.LVL120:
 1145 0036 10B9     		cbnz	r0, .L79
 1146              	.L74:
 1147              		.loc 1 322 0
 1148 0038 0CB0     		add	sp, sp, #48
 1149              		.cfi_remember_state
 1150              		.cfi_def_cfa_offset 24
 1151              		@ sp needed
 1152 003a BDE8F081 		pop	{r4, r5, r6, r7, r8, pc}
 1153              	.LVL121:
 1154              	.L79:
 1155              		.cfi_restore_state
 1156              		.loc 1 319 0
 1157 003e 3046     		mov	r0, r6
 1158 0040 4246     		mov	r2, r8
 1159 0042 0021     		movs	r1, #0
 1160 0044 FFF7FEFF 		bl	memset
 1161              	.LVL122:
 1162              		.loc 1 321 0
 1163 0048 6FF01100 		mvn	r0, #17
 1164 004c F4E7     		b	.L74
 1165              		.cfi_endproc
 1166              	.LFE4:
 1167              		.size	gcm_auth_decrypt, .-gcm_auth_decrypt
 1168 004e 00BF     		.section	.text.gcm_self_test,"ax",%progbits
 1169              		.align	2
 1170              		.p2align 4,,15
 1171              		.global	gcm_self_test
 1172              		.thumb
 1173              		.thumb_func
 1174              		.type	gcm_self_test, %function
 1175              	gcm_self_test:
 1176              	.LFB5:
 1177              		.loc 1 556 0
 1178              		.cfi_startproc
 1179              		@ args = 0, pretend = 0, frame = 648
 1180              		@ frame_needed = 0, uses_anonymous_args = 0
 1181              	.LVL123:
 1182 0000 2DE9F04F 		push	{r4, r5, r6, r7, r8, r9, r10, fp, lr}
 1183              		.cfi_def_cfa_offset 36
 1184              		.cfi_offset 4, -36
 1185              		.cfi_offset 5, -32
 1186              		.cfi_offset 6, -28
 1187              		.cfi_offset 7, -24
 1188              		.cfi_offset 8, -20
 1189              		.cfi_offset 9, -16
 1190              		.cfi_offset 10, -12
 1191              		.cfi_offset 11, -8
 1192              		.cfi_offset 14, -4
ARM GAS  C:\Users\jo\AppData\Local\Temp\ccZRdplO.s 			page 22


 1193 0004 ADF52B7D 		sub	sp, sp, #684
 1194              		.cfi_def_cfa_offset 720
 1195 0008 724B     		ldr	r3, .L101
 1196 000a 0E93     		str	r3, [sp, #56]
 1197 000c DFF804B2 		ldr	fp, .L101+64
 1198 0010 714B     		ldr	r3, .L101+4
 1199 0012 DFF804A2 		ldr	r10, .L101+68
 1200 0016 714F     		ldr	r7, .L101+8
 1201 0018 0F93     		str	r3, [sp, #60]
 1202              		.loc 1 556 0
 1203 001a 0B90     		str	r0, [sp, #44]
 1204 001c 8026     		movs	r6, #128
 1205              	.LVL124:
 1206              	.L87:
 1207              	.LBB12:
 1208              		.loc 1 564 0
 1209 001e 0F9B     		ldr	r3, [sp, #60]
 1210 0020 0993     		str	r3, [sp, #36]
 1211              		.loc 1 566 0
 1212 0022 4FF00008 		mov	r8, #0
 1213              		.loc 1 564 0
 1214 0026 0E9B     		ldr	r3, [sp, #56]
 1215 0028 6D4D     		ldr	r5, .L101+12
 1216 002a 0A93     		str	r3, [sp, #40]
 1217              		.loc 1 566 0
 1218 002c C146     		mov	r9, r8
 1219              	.LVL125:
 1220              	.L86:
 1221              		.loc 1 568 0
 1222 002e 6D4B     		ldr	r3, .L101+16
 1223 0030 6D48     		ldr	r0, .L101+20
 1224              		.loc 1 571 0
 1225 0032 6E4C     		ldr	r4, .L101+24
 1226              		.loc 1 568 0
 1227 0034 3146     		mov	r1, r6
 1228 0036 4A46     		mov	r2, r9
 1229 0038 FFF7FEFF 		bl	printf
 1230              	.LVL126:
 1231              		.loc 1 569 0
 1232 003c 6C4B     		ldr	r3, .L101+28
 1233 003e 5BF82910 		ldr	r1, [fp, r9, lsl #2]
 1234 0042 3246     		mov	r2, r6
 1235 0044 03EB4111 		add	r1, r3, r1, lsl #5
 1236 0048 24A8     		add	r0, sp, #144
 1237 004a FFF7FEFF 		bl	gcm_init
 1238              	.LVL127:
 1239              		.loc 1 575 0
 1240 004e 694B     		ldr	r3, .L101+32
 1241              		.loc 1 574 0
 1242 0050 57F82900 		ldr	r0, [r7, r9, lsl #2]
 1243              		.loc 1 575 0
 1244 0054 53F82910 		ldr	r1, [r3, r9, lsl #2]
 1245              		.loc 1 573 0
 1246 0058 5AF82930 		ldr	r3, [r10, r9, lsl #2]
 1247 005c 0C93     		str	r3, [sp, #48]
 1248              		.loc 1 571 0
 1249 005e 664B     		ldr	r3, .L101+36
ARM GAS  C:\Users\jo\AppData\Local\Temp\ccZRdplO.s 			page 23


 1250 0060 54F82940 		ldr	r4, [r4, r9, lsl #2]
 1251 0064 53F82930 		ldr	r3, [r3, r9, lsl #2]
 1252 0068 0D93     		str	r3, [sp, #52]
 1253 006a 14AB     		add	r3, sp, #80
 1254 006c 0493     		str	r3, [sp, #16]
 1255              		.loc 1 574 0
 1256 006e 634B     		ldr	r3, .L101+40
 1257              		.loc 1 571 0
 1258 0070 0094     		str	r4, [sp]
 1259              		.loc 1 574 0
 1260 0072 03EB8010 		add	r0, r3, r0, lsl #6
 1261              		.loc 1 575 0
 1262 0076 624B     		ldr	r3, .L101+44
 1263              		.loc 1 571 0
 1264 0078 0190     		str	r0, [sp, #4]
 1265              		.loc 1 575 0
 1266 007a 03EB8111 		add	r1, r3, r1, lsl #6
 1267              		.loc 1 571 0
 1268 007e 10AB     		add	r3, sp, #64
 1269 0080 6048     		ldr	r0, .L101+48
 1270 0082 0693     		str	r3, [sp, #24]
 1271 0084 0C9B     		ldr	r3, [sp, #48]
 1272 0086 0391     		str	r1, [sp, #12]
 1273 0088 4FF01008 		mov	r8, #16
 1274 008c 0D99     		ldr	r1, [sp, #52]
 1275 008e 0291     		str	r1, [sp, #8]
 1276 0090 00EB8313 		add	r3, r0, r3, lsl #6
 1277 0094 2A68     		ldr	r2, [r5]
 1278 0096 CDF81480 		str	r8, [sp, #20]
 1279 009a 24A8     		add	r0, sp, #144
 1280 009c 0121     		movs	r1, #1
 1281 009e 4FEA8904 		lsl	r4, r9, #2
 1282 00a2 FFF7FEFF 		bl	gcm_crypt_and_tag
 1283              	.LVL128:
 1284              		.loc 1 577 0
 1285 00a6 0028     		cmp	r0, #0
 1286 00a8 40F08280 		bne	.L81
 1287              		.loc 1 578 0 discriminator 1
 1288 00ac 14A8     		add	r0, sp, #80
 1289              	.LVL129:
 1290 00ae 0999     		ldr	r1, [sp, #36]
 1291 00b0 2A68     		ldr	r2, [r5]
 1292 00b2 FFF7FEFF 		bl	memcmp
 1293              	.LVL130:
 1294              		.loc 1 577 0 discriminator 1
 1295 00b6 0028     		cmp	r0, #0
 1296 00b8 7AD1     		bne	.L81
 1297              		.loc 1 579 0
 1298 00ba 4246     		mov	r2, r8
 1299 00bc 10A8     		add	r0, sp, #64
 1300 00be 0A99     		ldr	r1, [sp, #40]
 1301 00c0 FFF7FEFF 		bl	memcmp
 1302              	.LVL131:
 1303              		.loc 1 578 0
 1304 00c4 0028     		cmp	r0, #0
 1305 00c6 73D1     		bne	.L81
 1306              		.loc 1 587 0
ARM GAS  C:\Users\jo\AppData\Local\Temp\ccZRdplO.s 			page 24


 1307 00c8 0B9B     		ldr	r3, [sp, #44]
 1308 00ca 002B     		cmp	r3, #0
 1309 00cc 68D1     		bne	.L98
 1310              	.L84:
 1311              		.loc 1 590 0
 1312 00ce 4E4B     		ldr	r3, .L101+52
 1313 00d0 4548     		ldr	r0, .L101+20
 1314 00d2 3146     		mov	r1, r6
 1315 00d4 4A46     		mov	r2, r9
 1316 00d6 FFF7FEFF 		bl	printf
 1317              	.LVL132:
 1318              		.loc 1 591 0
 1319 00da 454B     		ldr	r3, .L101+28
 1320 00dc 5BF80410 		ldr	r1, [fp, r4]
 1321 00e0 3246     		mov	r2, r6
 1322 00e2 03EB4111 		add	r1, r3, r1, lsl #5
 1323 00e6 24A8     		add	r0, sp, #144
 1324 00e8 FFF7FEFF 		bl	gcm_init
 1325              	.LVL133:
 1326              		.loc 1 595 0
 1327 00ec 5AF80430 		ldr	r3, [r10, r4]
 1328 00f0 0C93     		str	r3, [sp, #48]
 1329              		.loc 1 593 0
 1330 00f2 414B     		ldr	r3, .L101+36
 1331 00f4 3D48     		ldr	r0, .L101+24
 1332 00f6 1B59     		ldr	r3, [r3, r4]
 1333 00f8 0D93     		str	r3, [sp, #52]
 1334 00fa 099B     		ldr	r3, [sp, #36]
 1335              		.loc 1 596 0
 1336 00fc 3959     		ldr	r1, [r7, r4]
 1337              		.loc 1 593 0
 1338 00fe 0059     		ldr	r0, [r0, r4]
 1339 0100 0393     		str	r3, [sp, #12]
 1340              		.loc 1 596 0
 1341 0102 3E4B     		ldr	r3, .L101+40
 1342              		.loc 1 593 0
 1343 0104 0090     		str	r0, [sp]
 1344              		.loc 1 596 0
 1345 0106 03EB8111 		add	r1, r3, r1, lsl #6
 1346              		.loc 1 593 0
 1347 010a 14AB     		add	r3, sp, #80
 1348 010c 0493     		str	r3, [sp, #16]
 1349 010e 10AB     		add	r3, sp, #64
 1350 0110 0693     		str	r3, [sp, #24]
 1351 0112 0191     		str	r1, [sp, #4]
 1352 0114 3B4B     		ldr	r3, .L101+48
 1353 0116 0C99     		ldr	r1, [sp, #48]
 1354 0118 2A68     		ldr	r2, [r5]
 1355 011a 4FF01008 		mov	r8, #16
 1356 011e 03EB8113 		add	r3, r3, r1, lsl #6
 1357 0122 0D99     		ldr	r1, [sp, #52]
 1358 0124 0291     		str	r1, [sp, #8]
 1359 0126 CDF81480 		str	r8, [sp, #20]
 1360 012a 24A8     		add	r0, sp, #144
 1361 012c 0021     		movs	r1, #0
 1362 012e FFF7FEFF 		bl	gcm_crypt_and_tag
 1363              	.LVL134:
ARM GAS  C:\Users\jo\AppData\Local\Temp\ccZRdplO.s 			page 25


 1364              		.loc 1 599 0
 1365 0132 0028     		cmp	r0, #0
 1366 0134 3CD1     		bne	.L81
 1367              		.loc 1 600 0 discriminator 1
 1368 0136 2F4B     		ldr	r3, .L101+32
 1369 0138 2A68     		ldr	r2, [r5]
 1370 013a 1959     		ldr	r1, [r3, r4]
 1371 013c 304B     		ldr	r3, .L101+44
 1372 013e 14A8     		add	r0, sp, #80
 1373              	.LVL135:
 1374 0140 03EB8111 		add	r1, r3, r1, lsl #6
 1375 0144 FFF7FEFF 		bl	memcmp
 1376              	.LVL136:
 1377              		.loc 1 599 0 discriminator 1
 1378 0148 90BB     		cbnz	r0, .L81
 1379              		.loc 1 601 0
 1380 014a 4246     		mov	r2, r8
 1381 014c 10A8     		add	r0, sp, #64
 1382 014e 0A99     		ldr	r1, [sp, #40]
 1383 0150 FFF7FEFF 		bl	memcmp
 1384              	.LVL137:
 1385              		.loc 1 600 0
 1386 0154 0446     		mov	r4, r0
 1387 0156 58BB     		cbnz	r0, .L81
 1388              		.loc 1 609 0
 1389 0158 0B9B     		ldr	r3, [sp, #44]
 1390 015a 2BBB     		cbnz	r3, .L99
 1391              	.L85:
 1392 015c 0A9B     		ldr	r3, [sp, #40]
 1393 015e 1033     		adds	r3, r3, #16
 1394 0160 0A93     		str	r3, [sp, #40]
 1395 0162 099B     		ldr	r3, [sp, #36]
 1396              		.loc 1 566 0 discriminator 2
 1397 0164 09F10109 		add	r9, r9, #1
 1398              	.LVL138:
 1399 0168 4033     		adds	r3, r3, #64
 1400 016a B9F1060F 		cmp	r9, #6
 1401 016e 05F10405 		add	r5, r5, #4
 1402 0172 0993     		str	r3, [sp, #36]
 1403 0174 7FF45BAF 		bne	.L86
 1404 0178 0E9B     		ldr	r3, [sp, #56]
 1405 017a 6033     		adds	r3, r3, #96
 1406 017c 0E93     		str	r3, [sp, #56]
 1407 017e 0F9B     		ldr	r3, [sp, #60]
 1408 0180 4036     		adds	r6, r6, #64
 1409              	.LVL139:
 1410 0182 03F5C073 		add	r3, r3, #384
 1411              	.LBE12:
 1412              		.loc 1 562 0 discriminator 2
 1413 0186 B6F5A07F 		cmp	r6, #320
 1414 018a 0F93     		str	r3, [sp, #60]
 1415 018c 7FF447AF 		bne	.L87
 1416              		.loc 1 614 0
 1417 0190 0A20     		movs	r0, #10
 1418 0192 FFF7FEFF 		bl	putchar
 1419              	.LVL140:
 1420              		.loc 1 617 0
ARM GAS  C:\Users\jo\AppData\Local\Temp\ccZRdplO.s 			page 26


 1421 0196 2046     		mov	r0, r4
 1422 0198 0DF52B7D 		add	sp, sp, #684
 1423              		.cfi_remember_state
 1424              		.cfi_def_cfa_offset 36
 1425              		@ sp needed
 1426 019c BDE8F08F 		pop	{r4, r5, r6, r7, r8, r9, r10, fp, pc}
 1427              	.LVL141:
 1428              	.L98:
 1429              		.cfi_restore_state
 1430              	.LBB13:
 1431              		.loc 1 588 0
 1432 01a0 1A48     		ldr	r0, .L101+56
 1433 01a2 FFF7FEFF 		bl	puts
 1434              	.LVL142:
 1435 01a6 92E7     		b	.L84
 1436              	.L99:
 1437              		.loc 1 610 0
 1438 01a8 1848     		ldr	r0, .L101+56
 1439 01aa FFF7FEFF 		bl	puts
 1440              	.LVL143:
 1441 01ae D5E7     		b	.L85
 1442              	.L81:
 1443              		.loc 1 581 0
 1444 01b0 0B9B     		ldr	r3, [sp, #44]
 1445              		.loc 1 584 0
 1446 01b2 0124     		movs	r4, #1
 1447              		.loc 1 581 0
 1448 01b4 23B9     		cbnz	r3, .L100
 1449              	.LBE13:
 1450              		.loc 1 617 0
 1451 01b6 2046     		mov	r0, r4
 1452 01b8 0DF52B7D 		add	sp, sp, #684
 1453              		.cfi_remember_state
 1454              		.cfi_def_cfa_offset 36
 1455              		@ sp needed
 1456 01bc BDE8F08F 		pop	{r4, r5, r6, r7, r8, r9, r10, fp, pc}
 1457              	.LVL144:
 1458              	.L100:
 1459              		.cfi_restore_state
 1460              	.LBB14:
 1461              		.loc 1 582 0
 1462 01c0 1348     		ldr	r0, .L101+60
 1463 01c2 FFF7FEFF 		bl	puts
 1464              	.LVL145:
 1465              		.loc 1 584 0
 1466 01c6 0124     		movs	r4, #1
 1467              	.LBE14:
 1468              		.loc 1 617 0
 1469 01c8 2046     		mov	r0, r4
 1470 01ca 0DF52B7D 		add	sp, sp, #684
 1471              		.cfi_def_cfa_offset 36
 1472              		@ sp needed
 1473 01ce BDE8F08F 		pop	{r4, r5, r6, r7, r8, r9, r10, fp, pc}
 1474              	.LVL146:
 1475              	.L102:
 1476 01d2 00BF     		.align	2
 1477              	.L101:
ARM GAS  C:\Users\jo\AppData\Local\Temp\ccZRdplO.s 			page 27


 1478 01d4 00000000 		.word	.LANCHOR1
 1479 01d8 00000000 		.word	.LANCHOR2
 1480 01dc 00000000 		.word	.LANCHOR10
 1481 01e0 00000000 		.word	.LANCHOR3
 1482 01e4 1C000000 		.word	.LC1
 1483 01e8 00000000 		.word	.LC0
 1484 01ec 00000000 		.word	.LANCHOR8
 1485 01f0 00000000 		.word	.LANCHOR4
 1486 01f4 00000000 		.word	.LANCHOR13
 1487 01f8 00000000 		.word	.LANCHOR11
 1488 01fc 00000000 		.word	.LANCHOR9
 1489 0200 00000000 		.word	.LANCHOR12
 1490 0204 00000000 		.word	.LANCHOR6
 1491 0208 30000000 		.word	.LC4
 1492 020c 28000000 		.word	.LC3
 1493 0210 20000000 		.word	.LC2
 1494 0214 00000000 		.word	.LANCHOR5
 1495 0218 00000000 		.word	.LANCHOR7
 1496              		.cfi_endproc
 1497              	.LFE5:
 1498              		.size	gcm_self_test, .-gcm_self_test
 1499              		.global	tag
 1500              		.global	ct
 1501              		.global	pt
 1502              		.global	pt_index
 1503              		.global	pt_len
 1504              		.global	additional
 1505              		.global	add_index
 1506              		.global	add_len
 1507              		.global	iv
 1508              		.global	iv_index
 1509              		.global	iv_len
 1510              		.global	key
 1511              		.global	key_index
 1512 021c AFF30080 		.section	.data.ct,"aw",%progbits
 1513              		.align	2
 1514              		.set	.LANCHOR2,. + 0
 1515              		.type	ct, %object
 1516              		.size	ct, 1152
 1517              	ct:
 1518 0000 00       		.byte	0
 1519 0001 00000000 		.space	63
 1519      00000000 
 1519      00000000 
 1519      00000000 
 1519      00000000 
 1520 0040 03       		.byte	3
 1521 0041 88       		.byte	-120
 1522 0042 DA       		.byte	-38
 1523 0043 CE       		.byte	-50
 1524 0044 60       		.byte	96
 1525 0045 B6       		.byte	-74
 1526 0046 A3       		.byte	-93
 1527 0047 92       		.byte	-110
 1528 0048 F3       		.byte	-13
 1529 0049 28       		.byte	40
 1530 004a C2       		.byte	-62
ARM GAS  C:\Users\jo\AppData\Local\Temp\ccZRdplO.s 			page 28


 1531 004b B9       		.byte	-71
 1532 004c 71       		.byte	113
 1533 004d B2       		.byte	-78
 1534 004e FE       		.byte	-2
 1535 004f 78       		.byte	120
 1536 0050 00000000 		.space	48
 1536      00000000 
 1536      00000000 
 1536      00000000 
 1536      00000000 
 1537 0080 42       		.byte	66
 1538 0081 83       		.byte	-125
 1539 0082 1E       		.byte	30
 1540 0083 C2       		.byte	-62
 1541 0084 21       		.byte	33
 1542 0085 77       		.byte	119
 1543 0086 74       		.byte	116
 1544 0087 24       		.byte	36
 1545 0088 4B       		.byte	75
 1546 0089 72       		.byte	114
 1547 008a 21       		.byte	33
 1548 008b B7       		.byte	-73
 1549 008c 84       		.byte	-124
 1550 008d D0       		.byte	-48
 1551 008e D4       		.byte	-44
 1552 008f 9C       		.byte	-100
 1553 0090 E3       		.byte	-29
 1554 0091 AA       		.byte	-86
 1555 0092 21       		.byte	33
 1556 0093 2F       		.byte	47
 1557 0094 2C       		.byte	44
 1558 0095 02       		.byte	2
 1559 0096 A4       		.byte	-92
 1560 0097 E0       		.byte	-32
 1561 0098 35       		.byte	53
 1562 0099 C1       		.byte	-63
 1563 009a 7E       		.byte	126
 1564 009b 23       		.byte	35
 1565 009c 29       		.byte	41
 1566 009d AC       		.byte	-84
 1567 009e A1       		.byte	-95
 1568 009f 2E       		.byte	46
 1569 00a0 21       		.byte	33
 1570 00a1 D5       		.byte	-43
 1571 00a2 14       		.byte	20
 1572 00a3 B2       		.byte	-78
 1573 00a4 54       		.byte	84
 1574 00a5 66       		.byte	102
 1575 00a6 93       		.byte	-109
 1576 00a7 1C       		.byte	28
 1577 00a8 7D       		.byte	125
 1578 00a9 8F       		.byte	-113
 1579 00aa 6A       		.byte	106
 1580 00ab 5A       		.byte	90
 1581 00ac AC       		.byte	-84
 1582 00ad 84       		.byte	-124
 1583 00ae AA       		.byte	-86
ARM GAS  C:\Users\jo\AppData\Local\Temp\ccZRdplO.s 			page 29


 1584 00af 05       		.byte	5
 1585 00b0 1B       		.byte	27
 1586 00b1 A3       		.byte	-93
 1587 00b2 0B       		.byte	11
 1588 00b3 39       		.byte	57
 1589 00b4 6A       		.byte	106
 1590 00b5 0A       		.byte	10
 1591 00b6 AC       		.byte	-84
 1592 00b7 97       		.byte	-105
 1593 00b8 3D       		.byte	61
 1594 00b9 58       		.byte	88
 1595 00ba E0       		.byte	-32
 1596 00bb 91       		.byte	-111
 1597 00bc 47       		.byte	71
 1598 00bd 3F       		.byte	63
 1599 00be 59       		.byte	89
 1600 00bf 85       		.byte	-123
 1601 00c0 42       		.byte	66
 1602 00c1 83       		.byte	-125
 1603 00c2 1E       		.byte	30
 1604 00c3 C2       		.byte	-62
 1605 00c4 21       		.byte	33
 1606 00c5 77       		.byte	119
 1607 00c6 74       		.byte	116
 1608 00c7 24       		.byte	36
 1609 00c8 4B       		.byte	75
 1610 00c9 72       		.byte	114
 1611 00ca 21       		.byte	33
 1612 00cb B7       		.byte	-73
 1613 00cc 84       		.byte	-124
 1614 00cd D0       		.byte	-48
 1615 00ce D4       		.byte	-44
 1616 00cf 9C       		.byte	-100
 1617 00d0 E3       		.byte	-29
 1618 00d1 AA       		.byte	-86
 1619 00d2 21       		.byte	33
 1620 00d3 2F       		.byte	47
 1621 00d4 2C       		.byte	44
 1622 00d5 02       		.byte	2
 1623 00d6 A4       		.byte	-92
 1624 00d7 E0       		.byte	-32
 1625 00d8 35       		.byte	53
 1626 00d9 C1       		.byte	-63
 1627 00da 7E       		.byte	126
 1628 00db 23       		.byte	35
 1629 00dc 29       		.byte	41
 1630 00dd AC       		.byte	-84
 1631 00de A1       		.byte	-95
 1632 00df 2E       		.byte	46
 1633 00e0 21       		.byte	33
 1634 00e1 D5       		.byte	-43
 1635 00e2 14       		.byte	20
 1636 00e3 B2       		.byte	-78
 1637 00e4 54       		.byte	84
 1638 00e5 66       		.byte	102
 1639 00e6 93       		.byte	-109
 1640 00e7 1C       		.byte	28
ARM GAS  C:\Users\jo\AppData\Local\Temp\ccZRdplO.s 			page 30


 1641 00e8 7D       		.byte	125
 1642 00e9 8F       		.byte	-113
 1643 00ea 6A       		.byte	106
 1644 00eb 5A       		.byte	90
 1645 00ec AC       		.byte	-84
 1646 00ed 84       		.byte	-124
 1647 00ee AA       		.byte	-86
 1648 00ef 05       		.byte	5
 1649 00f0 1B       		.byte	27
 1650 00f1 A3       		.byte	-93
 1651 00f2 0B       		.byte	11
 1652 00f3 39       		.byte	57
 1653 00f4 6A       		.byte	106
 1654 00f5 0A       		.byte	10
 1655 00f6 AC       		.byte	-84
 1656 00f7 97       		.byte	-105
 1657 00f8 3D       		.byte	61
 1658 00f9 58       		.byte	88
 1659 00fa E0       		.byte	-32
 1660 00fb 91       		.byte	-111
 1661 00fc 00000000 		.space	4
 1662 0100 61       		.byte	97
 1663 0101 35       		.byte	53
 1664 0102 3B       		.byte	59
 1665 0103 4C       		.byte	76
 1666 0104 28       		.byte	40
 1667 0105 06       		.byte	6
 1668 0106 93       		.byte	-109
 1669 0107 4A       		.byte	74
 1670 0108 77       		.byte	119
 1671 0109 7F       		.byte	127
 1672 010a F5       		.byte	-11
 1673 010b 1F       		.byte	31
 1674 010c A2       		.byte	-94
 1675 010d 2A       		.byte	42
 1676 010e 47       		.byte	71
 1677 010f 55       		.byte	85
 1678 0110 69       		.byte	105
 1679 0111 9B       		.byte	-101
 1680 0112 2A       		.byte	42
 1681 0113 71       		.byte	113
 1682 0114 4F       		.byte	79
 1683 0115 CD       		.byte	-51
 1684 0116 C6       		.byte	-58
 1685 0117 F8       		.byte	-8
 1686 0118 37       		.byte	55
 1687 0119 66       		.byte	102
 1688 011a E5       		.byte	-27
 1689 011b F9       		.byte	-7
 1690 011c 7B       		.byte	123
 1691 011d 6C       		.byte	108
 1692 011e 74       		.byte	116
 1693 011f 23       		.byte	35
 1694 0120 73       		.byte	115
 1695 0121 80       		.byte	-128
 1696 0122 69       		.byte	105
 1697 0123 00       		.byte	0
ARM GAS  C:\Users\jo\AppData\Local\Temp\ccZRdplO.s 			page 31


 1698 0124 E4       		.byte	-28
 1699 0125 9F       		.byte	-97
 1700 0126 24       		.byte	36
 1701 0127 B2       		.byte	-78
 1702 0128 2B       		.byte	43
 1703 0129 09       		.byte	9
 1704 012a 75       		.byte	117
 1705 012b 44       		.byte	68
 1706 012c D4       		.byte	-44
 1707 012d 89       		.byte	-119
 1708 012e 6B       		.byte	107
 1709 012f 42       		.byte	66
 1710 0130 49       		.byte	73
 1711 0131 89       		.byte	-119
 1712 0132 B5       		.byte	-75
 1713 0133 E1       		.byte	-31
 1714 0134 EB       		.byte	-21
 1715 0135 AC       		.byte	-84
 1716 0136 0F       		.byte	15
 1717 0137 07       		.byte	7
 1718 0138 C2       		.byte	-62
 1719 0139 3F       		.byte	63
 1720 013a 45       		.byte	69
 1721 013b 98       		.byte	-104
 1722 013c 00000000 		.space	4
 1723 0140 8C       		.byte	-116
 1724 0141 E2       		.byte	-30
 1725 0142 49       		.byte	73
 1726 0143 98       		.byte	-104
 1727 0144 62       		.byte	98
 1728 0145 56       		.byte	86
 1729 0146 15       		.byte	21
 1730 0147 B6       		.byte	-74
 1731 0148 03       		.byte	3
 1732 0149 A0       		.byte	-96
 1733 014a 33       		.byte	51
 1734 014b AC       		.byte	-84
 1735 014c A1       		.byte	-95
 1736 014d 3F       		.byte	63
 1737 014e B8       		.byte	-72
 1738 014f 94       		.byte	-108
 1739 0150 BE       		.byte	-66
 1740 0151 91       		.byte	-111
 1741 0152 12       		.byte	18
 1742 0153 A5       		.byte	-91
 1743 0154 C3       		.byte	-61
 1744 0155 A2       		.byte	-94
 1745 0156 11       		.byte	17
 1746 0157 A8       		.byte	-88
 1747 0158 BA       		.byte	-70
 1748 0159 26       		.byte	38
 1749 015a 2A       		.byte	42
 1750 015b 3C       		.byte	60
 1751 015c CA       		.byte	-54
 1752 015d 7E       		.byte	126
 1753 015e 2C       		.byte	44
 1754 015f A7       		.byte	-89
ARM GAS  C:\Users\jo\AppData\Local\Temp\ccZRdplO.s 			page 32


 1755 0160 01       		.byte	1
 1756 0161 E4       		.byte	-28
 1757 0162 A9       		.byte	-87
 1758 0163 A4       		.byte	-92
 1759 0164 FB       		.byte	-5
 1760 0165 A4       		.byte	-92
 1761 0166 3C       		.byte	60
 1762 0167 90       		.byte	-112
 1763 0168 CC       		.byte	-52
 1764 0169 DC       		.byte	-36
 1765 016a B2       		.byte	-78
 1766 016b 81       		.byte	-127
 1767 016c D4       		.byte	-44
 1768 016d 8C       		.byte	-116
 1769 016e 7C       		.byte	124
 1770 016f 6F       		.byte	111
 1771 0170 D6       		.byte	-42
 1772 0171 28       		.byte	40
 1773 0172 75       		.byte	117
 1774 0173 D2       		.byte	-46
 1775 0174 AC       		.byte	-84
 1776 0175 A4       		.byte	-92
 1777 0176 17       		.byte	23
 1778 0177 03       		.byte	3
 1779 0178 4C       		.byte	76
 1780 0179 34       		.byte	52
 1781 017a AE       		.byte	-82
 1782 017b E5       		.byte	-27
 1783 017c 00000000 		.space	4
 1784 0180 00       		.byte	0
 1785 0181 00000000 		.space	63
 1785      00000000 
 1785      00000000 
 1785      00000000 
 1785      00000000 
 1786 01c0 98       		.byte	-104
 1787 01c1 E7       		.byte	-25
 1788 01c2 24       		.byte	36
 1789 01c3 7C       		.byte	124
 1790 01c4 07       		.byte	7
 1791 01c5 F0       		.byte	-16
 1792 01c6 FE       		.byte	-2
 1793 01c7 41       		.byte	65
 1794 01c8 1C       		.byte	28
 1795 01c9 26       		.byte	38
 1796 01ca 7E       		.byte	126
 1797 01cb 43       		.byte	67
 1798 01cc 84       		.byte	-124
 1799 01cd B0       		.byte	-80
 1800 01ce F6       		.byte	-10
 1801 01cf 00       		.byte	0
 1802 01d0 00000000 		.space	48
 1802      00000000 
 1802      00000000 
 1802      00000000 
 1802      00000000 
 1803 0200 39       		.byte	57
ARM GAS  C:\Users\jo\AppData\Local\Temp\ccZRdplO.s 			page 33


 1804 0201 80       		.byte	-128
 1805 0202 CA       		.byte	-54
 1806 0203 0B       		.byte	11
 1807 0204 3C       		.byte	60
 1808 0205 00       		.byte	0
 1809 0206 E8       		.byte	-24
 1810 0207 41       		.byte	65
 1811 0208 EB       		.byte	-21
 1812 0209 06       		.byte	6
 1813 020a FA       		.byte	-6
 1814 020b C4       		.byte	-60
 1815 020c 87       		.byte	-121
 1816 020d 2A       		.byte	42
 1817 020e 27       		.byte	39
 1818 020f 57       		.byte	87
 1819 0210 85       		.byte	-123
 1820 0211 9E       		.byte	-98
 1821 0212 1C       		.byte	28
 1822 0213 EA       		.byte	-22
 1823 0214 A6       		.byte	-90
 1824 0215 EF       		.byte	-17
 1825 0216 D9       		.byte	-39
 1826 0217 84       		.byte	-124
 1827 0218 62       		.byte	98
 1828 0219 85       		.byte	-123
 1829 021a 93       		.byte	-109
 1830 021b B4       		.byte	-76
 1831 021c 0C       		.byte	12
 1832 021d A1       		.byte	-95
 1833 021e E1       		.byte	-31
 1834 021f 9C       		.byte	-100
 1835 0220 7D       		.byte	125
 1836 0221 77       		.byte	119
 1837 0222 3D       		.byte	61
 1838 0223 00       		.byte	0
 1839 0224 C1       		.byte	-63
 1840 0225 44       		.byte	68
 1841 0226 C5       		.byte	-59
 1842 0227 25       		.byte	37
 1843 0228 AC       		.byte	-84
 1844 0229 61       		.byte	97
 1845 022a 9D       		.byte	-99
 1846 022b 18       		.byte	24
 1847 022c C8       		.byte	-56
 1848 022d 4A       		.byte	74
 1849 022e 3F       		.byte	63
 1850 022f 47       		.byte	71
 1851 0230 18       		.byte	24
 1852 0231 E2       		.byte	-30
 1853 0232 44       		.byte	68
 1854 0233 8B       		.byte	-117
 1855 0234 2F       		.byte	47
 1856 0235 E3       		.byte	-29
 1857 0236 24       		.byte	36
 1858 0237 D9       		.byte	-39
 1859 0238 CC       		.byte	-52
 1860 0239 DA       		.byte	-38
ARM GAS  C:\Users\jo\AppData\Local\Temp\ccZRdplO.s 			page 34


 1861 023a 27       		.byte	39
 1862 023b 10       		.byte	16
 1863 023c AC       		.byte	-84
 1864 023d AD       		.byte	-83
 1865 023e E2       		.byte	-30
 1866 023f 56       		.byte	86
 1867 0240 39       		.byte	57
 1868 0241 80       		.byte	-128
 1869 0242 CA       		.byte	-54
 1870 0243 0B       		.byte	11
 1871 0244 3C       		.byte	60
 1872 0245 00       		.byte	0
 1873 0246 E8       		.byte	-24
 1874 0247 41       		.byte	65
 1875 0248 EB       		.byte	-21
 1876 0249 06       		.byte	6
 1877 024a FA       		.byte	-6
 1878 024b C4       		.byte	-60
 1879 024c 87       		.byte	-121
 1880 024d 2A       		.byte	42
 1881 024e 27       		.byte	39
 1882 024f 57       		.byte	87
 1883 0250 85       		.byte	-123
 1884 0251 9E       		.byte	-98
 1885 0252 1C       		.byte	28
 1886 0253 EA       		.byte	-22
 1887 0254 A6       		.byte	-90
 1888 0255 EF       		.byte	-17
 1889 0256 D9       		.byte	-39
 1890 0257 84       		.byte	-124
 1891 0258 62       		.byte	98
 1892 0259 85       		.byte	-123
 1893 025a 93       		.byte	-109
 1894 025b B4       		.byte	-76
 1895 025c 0C       		.byte	12
 1896 025d A1       		.byte	-95
 1897 025e E1       		.byte	-31
 1898 025f 9C       		.byte	-100
 1899 0260 7D       		.byte	125
 1900 0261 77       		.byte	119
 1901 0262 3D       		.byte	61
 1902 0263 00       		.byte	0
 1903 0264 C1       		.byte	-63
 1904 0265 44       		.byte	68
 1905 0266 C5       		.byte	-59
 1906 0267 25       		.byte	37
 1907 0268 AC       		.byte	-84
 1908 0269 61       		.byte	97
 1909 026a 9D       		.byte	-99
 1910 026b 18       		.byte	24
 1911 026c C8       		.byte	-56
 1912 026d 4A       		.byte	74
 1913 026e 3F       		.byte	63
 1914 026f 47       		.byte	71
 1915 0270 18       		.byte	24
 1916 0271 E2       		.byte	-30
 1917 0272 44       		.byte	68
ARM GAS  C:\Users\jo\AppData\Local\Temp\ccZRdplO.s 			page 35


 1918 0273 8B       		.byte	-117
 1919 0274 2F       		.byte	47
 1920 0275 E3       		.byte	-29
 1921 0276 24       		.byte	36
 1922 0277 D9       		.byte	-39
 1923 0278 CC       		.byte	-52
 1924 0279 DA       		.byte	-38
 1925 027a 27       		.byte	39
 1926 027b 10       		.byte	16
 1927 027c 00000000 		.space	4
 1928 0280 0F       		.byte	15
 1929 0281 10       		.byte	16
 1930 0282 F5       		.byte	-11
 1931 0283 99       		.byte	-103
 1932 0284 AE       		.byte	-82
 1933 0285 14       		.byte	20
 1934 0286 A1       		.byte	-95
 1935 0287 54       		.byte	84
 1936 0288 ED       		.byte	-19
 1937 0289 24       		.byte	36
 1938 028a B3       		.byte	-77
 1939 028b 6E       		.byte	110
 1940 028c 25       		.byte	37
 1941 028d 32       		.byte	50
 1942 028e 4D       		.byte	77
 1943 028f B8       		.byte	-72
 1944 0290 C5       		.byte	-59
 1945 0291 66       		.byte	102
 1946 0292 63       		.byte	99
 1947 0293 2E       		.byte	46
 1948 0294 F2       		.byte	-14
 1949 0295 BB       		.byte	-69
 1950 0296 B3       		.byte	-77
 1951 0297 4F       		.byte	79
 1952 0298 83       		.byte	-125
 1953 0299 47       		.byte	71
 1954 029a 28       		.byte	40
 1955 029b 0F       		.byte	15
 1956 029c C4       		.byte	-60
 1957 029d 50       		.byte	80
 1958 029e 70       		.byte	112
 1959 029f 57       		.byte	87
 1960 02a0 FD       		.byte	-3
 1961 02a1 DC       		.byte	-36
 1962 02a2 29       		.byte	41
 1963 02a3 DF       		.byte	-33
 1964 02a4 9A       		.byte	-102
 1965 02a5 47       		.byte	71
 1966 02a6 1F       		.byte	31
 1967 02a7 75       		.byte	117
 1968 02a8 C6       		.byte	-58
 1969 02a9 65       		.byte	101
 1970 02aa 41       		.byte	65
 1971 02ab D4       		.byte	-44
 1972 02ac D4       		.byte	-44
 1973 02ad DA       		.byte	-38
 1974 02ae D1       		.byte	-47
ARM GAS  C:\Users\jo\AppData\Local\Temp\ccZRdplO.s 			page 36


 1975 02af C9       		.byte	-55
 1976 02b0 E9       		.byte	-23
 1977 02b1 3A       		.byte	58
 1978 02b2 19       		.byte	25
 1979 02b3 A5       		.byte	-91
 1980 02b4 8E       		.byte	-114
 1981 02b5 8B       		.byte	-117
 1982 02b6 47       		.byte	71
 1983 02b7 3F       		.byte	63
 1984 02b8 A0       		.byte	-96
 1985 02b9 F0       		.byte	-16
 1986 02ba 62       		.byte	98
 1987 02bb F7       		.byte	-9
 1988 02bc 00000000 		.space	4
 1989 02c0 D2       		.byte	-46
 1990 02c1 7E       		.byte	126
 1991 02c2 88       		.byte	-120
 1992 02c3 68       		.byte	104
 1993 02c4 1C       		.byte	28
 1994 02c5 E3       		.byte	-29
 1995 02c6 24       		.byte	36
 1996 02c7 3C       		.byte	60
 1997 02c8 48       		.byte	72
 1998 02c9 30       		.byte	48
 1999 02ca 16       		.byte	22
 2000 02cb 5A       		.byte	90
 2001 02cc 8F       		.byte	-113
 2002 02cd DC       		.byte	-36
 2003 02ce F9       		.byte	-7
 2004 02cf FF       		.byte	-1
 2005 02d0 1D       		.byte	29
 2006 02d1 E9       		.byte	-23
 2007 02d2 A1       		.byte	-95
 2008 02d3 D8       		.byte	-40
 2009 02d4 E6       		.byte	-26
 2010 02d5 B4       		.byte	-76
 2011 02d6 47       		.byte	71
 2012 02d7 EF       		.byte	-17
 2013 02d8 6E       		.byte	110
 2014 02d9 F7       		.byte	-9
 2015 02da B7       		.byte	-73
 2016 02db 98       		.byte	-104
 2017 02dc 28       		.byte	40
 2018 02dd 66       		.byte	102
 2019 02de 6E       		.byte	110
 2020 02df 45       		.byte	69
 2021 02e0 81       		.byte	-127
 2022 02e1 E7       		.byte	-25
 2023 02e2 90       		.byte	-112
 2024 02e3 12       		.byte	18
 2025 02e4 AF       		.byte	-81
 2026 02e5 34       		.byte	52
 2027 02e6 DD       		.byte	-35
 2028 02e7 D9       		.byte	-39
 2029 02e8 E2       		.byte	-30
 2030 02e9 F0       		.byte	-16
 2031 02ea 37       		.byte	55
ARM GAS  C:\Users\jo\AppData\Local\Temp\ccZRdplO.s 			page 37


 2032 02eb 58       		.byte	88
 2033 02ec 9B       		.byte	-101
 2034 02ed 29       		.byte	41
 2035 02ee 2D       		.byte	45
 2036 02ef B3       		.byte	-77
 2037 02f0 E6       		.byte	-26
 2038 02f1 7C       		.byte	124
 2039 02f2 03       		.byte	3
 2040 02f3 67       		.byte	103
 2041 02f4 45       		.byte	69
 2042 02f5 FA       		.byte	-6
 2043 02f6 22       		.byte	34
 2044 02f7 E7       		.byte	-25
 2045 02f8 E9       		.byte	-23
 2046 02f9 B7       		.byte	-73
 2047 02fa 37       		.byte	55
 2048 02fb 3B       		.byte	59
 2049 02fc 00000000 		.space	4
 2050 0300 00       		.byte	0
 2051 0301 00000000 		.space	63
 2051      00000000 
 2051      00000000 
 2051      00000000 
 2051      00000000 
 2052 0340 CE       		.byte	-50
 2053 0341 A7       		.byte	-89
 2054 0342 40       		.byte	64
 2055 0343 3D       		.byte	61
 2056 0344 4D       		.byte	77
 2057 0345 60       		.byte	96
 2058 0346 6B       		.byte	107
 2059 0347 6E       		.byte	110
 2060 0348 07       		.byte	7
 2061 0349 4E       		.byte	78
 2062 034a C5       		.byte	-59
 2063 034b D3       		.byte	-45
 2064 034c BA       		.byte	-70
 2065 034d F3       		.byte	-13
 2066 034e 9D       		.byte	-99
 2067 034f 18       		.byte	24
 2068 0350 00000000 		.space	48
 2068      00000000 
 2068      00000000 
 2068      00000000 
 2068      00000000 
 2069 0380 52       		.byte	82
 2070 0381 2D       		.byte	45
 2071 0382 C1       		.byte	-63
 2072 0383 F0       		.byte	-16
 2073 0384 99       		.byte	-103
 2074 0385 56       		.byte	86
 2075 0386 7D       		.byte	125
 2076 0387 07       		.byte	7
 2077 0388 F4       		.byte	-12
 2078 0389 7F       		.byte	127
 2079 038a 37       		.byte	55
 2080 038b A3       		.byte	-93
ARM GAS  C:\Users\jo\AppData\Local\Temp\ccZRdplO.s 			page 38


 2081 038c 2A       		.byte	42
 2082 038d 84       		.byte	-124
 2083 038e 42       		.byte	66
 2084 038f 7D       		.byte	125
 2085 0390 64       		.byte	100
 2086 0391 3A       		.byte	58
 2087 0392 8C       		.byte	-116
 2088 0393 DC       		.byte	-36
 2089 0394 BF       		.byte	-65
 2090 0395 E5       		.byte	-27
 2091 0396 C0       		.byte	-64
 2092 0397 C9       		.byte	-55
 2093 0398 75       		.byte	117
 2094 0399 98       		.byte	-104
 2095 039a A2       		.byte	-94
 2096 039b BD       		.byte	-67
 2097 039c 25       		.byte	37
 2098 039d 55       		.byte	85
 2099 039e D1       		.byte	-47
 2100 039f AA       		.byte	-86
 2101 03a0 8C       		.byte	-116
 2102 03a1 B0       		.byte	-80
 2103 03a2 8E       		.byte	-114
 2104 03a3 48       		.byte	72
 2105 03a4 59       		.byte	89
 2106 03a5 0D       		.byte	13
 2107 03a6 BB       		.byte	-69
 2108 03a7 3D       		.byte	61
 2109 03a8 A7       		.byte	-89
 2110 03a9 B0       		.byte	-80
 2111 03aa 8B       		.byte	-117
 2112 03ab 10       		.byte	16
 2113 03ac 56       		.byte	86
 2114 03ad 82       		.byte	-126
 2115 03ae 88       		.byte	-120
 2116 03af 38       		.byte	56
 2117 03b0 C5       		.byte	-59
 2118 03b1 F6       		.byte	-10
 2119 03b2 1E       		.byte	30
 2120 03b3 63       		.byte	99
 2121 03b4 93       		.byte	-109
 2122 03b5 BA       		.byte	-70
 2123 03b6 7A       		.byte	122
 2124 03b7 0A       		.byte	10
 2125 03b8 BC       		.byte	-68
 2126 03b9 C9       		.byte	-55
 2127 03ba F6       		.byte	-10
 2128 03bb 62       		.byte	98
 2129 03bc 89       		.byte	-119
 2130 03bd 80       		.byte	-128
 2131 03be 15       		.byte	21
 2132 03bf AD       		.byte	-83
 2133 03c0 52       		.byte	82
 2134 03c1 2D       		.byte	45
 2135 03c2 C1       		.byte	-63
 2136 03c3 F0       		.byte	-16
 2137 03c4 99       		.byte	-103
ARM GAS  C:\Users\jo\AppData\Local\Temp\ccZRdplO.s 			page 39


 2138 03c5 56       		.byte	86
 2139 03c6 7D       		.byte	125
 2140 03c7 07       		.byte	7
 2141 03c8 F4       		.byte	-12
 2142 03c9 7F       		.byte	127
 2143 03ca 37       		.byte	55
 2144 03cb A3       		.byte	-93
 2145 03cc 2A       		.byte	42
 2146 03cd 84       		.byte	-124
 2147 03ce 42       		.byte	66
 2148 03cf 7D       		.byte	125
 2149 03d0 64       		.byte	100
 2150 03d1 3A       		.byte	58
 2151 03d2 8C       		.byte	-116
 2152 03d3 DC       		.byte	-36
 2153 03d4 BF       		.byte	-65
 2154 03d5 E5       		.byte	-27
 2155 03d6 C0       		.byte	-64
 2156 03d7 C9       		.byte	-55
 2157 03d8 75       		.byte	117
 2158 03d9 98       		.byte	-104
 2159 03da A2       		.byte	-94
 2160 03db BD       		.byte	-67
 2161 03dc 25       		.byte	37
 2162 03dd 55       		.byte	85
 2163 03de D1       		.byte	-47
 2164 03df AA       		.byte	-86
 2165 03e0 8C       		.byte	-116
 2166 03e1 B0       		.byte	-80
 2167 03e2 8E       		.byte	-114
 2168 03e3 48       		.byte	72
 2169 03e4 59       		.byte	89
 2170 03e5 0D       		.byte	13
 2171 03e6 BB       		.byte	-69
 2172 03e7 3D       		.byte	61
 2173 03e8 A7       		.byte	-89
 2174 03e9 B0       		.byte	-80
 2175 03ea 8B       		.byte	-117
 2176 03eb 10       		.byte	16
 2177 03ec 56       		.byte	86
 2178 03ed 82       		.byte	-126
 2179 03ee 88       		.byte	-120
 2180 03ef 38       		.byte	56
 2181 03f0 C5       		.byte	-59
 2182 03f1 F6       		.byte	-10
 2183 03f2 1E       		.byte	30
 2184 03f3 63       		.byte	99
 2185 03f4 93       		.byte	-109
 2186 03f5 BA       		.byte	-70
 2187 03f6 7A       		.byte	122
 2188 03f7 0A       		.byte	10
 2189 03f8 BC       		.byte	-68
 2190 03f9 C9       		.byte	-55
 2191 03fa F6       		.byte	-10
 2192 03fb 62       		.byte	98
 2193 03fc 00000000 		.space	4
 2194 0400 C3       		.byte	-61
ARM GAS  C:\Users\jo\AppData\Local\Temp\ccZRdplO.s 			page 40


 2195 0401 76       		.byte	118
 2196 0402 2D       		.byte	45
 2197 0403 F1       		.byte	-15
 2198 0404 CA       		.byte	-54
 2199 0405 78       		.byte	120
 2200 0406 7D       		.byte	125
 2201 0407 32       		.byte	50
 2202 0408 AE       		.byte	-82
 2203 0409 47       		.byte	71
 2204 040a C1       		.byte	-63
 2205 040b 3B       		.byte	59
 2206 040c F1       		.byte	-15
 2207 040d 98       		.byte	-104
 2208 040e 44       		.byte	68
 2209 040f CB       		.byte	-53
 2210 0410 AF       		.byte	-81
 2211 0411 1A       		.byte	26
 2212 0412 E1       		.byte	-31
 2213 0413 4D       		.byte	77
 2214 0414 0B       		.byte	11
 2215 0415 97       		.byte	-105
 2216 0416 6A       		.byte	106
 2217 0417 FA       		.byte	-6
 2218 0418 C5       		.byte	-59
 2219 0419 2F       		.byte	47
 2220 041a F7       		.byte	-9
 2221 041b D7       		.byte	-41
 2222 041c 9B       		.byte	-101
 2223 041d BA       		.byte	-70
 2224 041e 9D       		.byte	-99
 2225 041f E0       		.byte	-32
 2226 0420 FE       		.byte	-2
 2227 0421 B5       		.byte	-75
 2228 0422 82       		.byte	-126
 2229 0423 D3       		.byte	-45
 2230 0424 39       		.byte	57
 2231 0425 34       		.byte	52
 2232 0426 A4       		.byte	-92
 2233 0427 F0       		.byte	-16
 2234 0428 95       		.byte	-107
 2235 0429 4C       		.byte	76
 2236 042a C2       		.byte	-62
 2237 042b 36       		.byte	54
 2238 042c 3B       		.byte	59
 2239 042d C7       		.byte	-57
 2240 042e 3F       		.byte	63
 2241 042f 78       		.byte	120
 2242 0430 62       		.byte	98
 2243 0431 AC       		.byte	-84
 2244 0432 43       		.byte	67
 2245 0433 0E       		.byte	14
 2246 0434 64       		.byte	100
 2247 0435 AB       		.byte	-85
 2248 0436 E4       		.byte	-28
 2249 0437 99       		.byte	-103
 2250 0438 F4       		.byte	-12
 2251 0439 7C       		.byte	124
ARM GAS  C:\Users\jo\AppData\Local\Temp\ccZRdplO.s 			page 41


 2252 043a 9B       		.byte	-101
 2253 043b 1F       		.byte	31
 2254 043c 00000000 		.space	4
 2255 0440 5A       		.byte	90
 2256 0441 8D       		.byte	-115
 2257 0442 EF       		.byte	-17
 2258 0443 2F       		.byte	47
 2259 0444 0C       		.byte	12
 2260 0445 9E       		.byte	-98
 2261 0446 53       		.byte	83
 2262 0447 F1       		.byte	-15
 2263 0448 F7       		.byte	-9
 2264 0449 5D       		.byte	93
 2265 044a 78       		.byte	120
 2266 044b 53       		.byte	83
 2267 044c 65       		.byte	101
 2268 044d 9E       		.byte	-98
 2269 044e 2A       		.byte	42
 2270 044f 20       		.byte	32
 2271 0450 EE       		.byte	-18
 2272 0451 B2       		.byte	-78
 2273 0452 B2       		.byte	-78
 2274 0453 2A       		.byte	42
 2275 0454 AF       		.byte	-81
 2276 0455 DE       		.byte	-34
 2277 0456 64       		.byte	100
 2278 0457 19       		.byte	25
 2279 0458 A0       		.byte	-96
 2280 0459 58       		.byte	88
 2281 045a AB       		.byte	-85
 2282 045b 4F       		.byte	79
 2283 045c 6F       		.byte	111
 2284 045d 74       		.byte	116
 2285 045e 6B       		.byte	107
 2286 045f F4       		.byte	-12
 2287 0460 0F       		.byte	15
 2288 0461 C0       		.byte	-64
 2289 0462 C3       		.byte	-61
 2290 0463 B7       		.byte	-73
 2291 0464 80       		.byte	-128
 2292 0465 F2       		.byte	-14
 2293 0466 44       		.byte	68
 2294 0467 45       		.byte	69
 2295 0468 2D       		.byte	45
 2296 0469 A3       		.byte	-93
 2297 046a EB       		.byte	-21
 2298 046b F1       		.byte	-15
 2299 046c C5       		.byte	-59
 2300 046d D8       		.byte	-40
 2301 046e 2C       		.byte	44
 2302 046f DE       		.byte	-34
 2303 0470 A2       		.byte	-94
 2304 0471 41       		.byte	65
 2305 0472 89       		.byte	-119
 2306 0473 97       		.byte	-105
 2307 0474 20       		.byte	32
 2308 0475 0E       		.byte	14
ARM GAS  C:\Users\jo\AppData\Local\Temp\ccZRdplO.s 			page 42


 2309 0476 F8       		.byte	-8
 2310 0477 2E       		.byte	46
 2311 0478 44       		.byte	68
 2312 0479 AE       		.byte	-82
 2313 047a 7E       		.byte	126
 2314 047b 3F       		.byte	63
 2315 047c 00000000 		.space	4
 2316              		.section	.data.iv,"aw",%progbits
 2317              		.align	2
 2318              		.set	.LANCHOR6,. + 0
 2319              		.type	iv, %object
 2320              		.size	iv, 384
 2321              	iv:
 2322 0000 00       		.byte	0
 2323 0001 00       		.byte	0
 2324 0002 00       		.byte	0
 2325 0003 00       		.byte	0
 2326 0004 00       		.byte	0
 2327 0005 00       		.byte	0
 2328 0006 00       		.byte	0
 2329 0007 00       		.byte	0
 2330 0008 00       		.byte	0
 2331 0009 00       		.byte	0
 2332 000a 00       		.byte	0
 2333 000b 00       		.byte	0
 2334 000c 00000000 		.space	52
 2334      00000000 
 2334      00000000 
 2334      00000000 
 2334      00000000 
 2335 0040 CA       		.byte	-54
 2336 0041 FE       		.byte	-2
 2337 0042 BA       		.byte	-70
 2338 0043 BE       		.byte	-66
 2339 0044 FA       		.byte	-6
 2340 0045 CE       		.byte	-50
 2341 0046 DB       		.byte	-37
 2342 0047 AD       		.byte	-83
 2343 0048 DE       		.byte	-34
 2344 0049 CA       		.byte	-54
 2345 004a F8       		.byte	-8
 2346 004b 88       		.byte	-120
 2347 004c 00000000 		.space	52
 2347      00000000 
 2347      00000000 
 2347      00000000 
 2347      00000000 
 2348 0080 93       		.byte	-109
 2349 0081 13       		.byte	19
 2350 0082 22       		.byte	34
 2351 0083 5D       		.byte	93
 2352 0084 F8       		.byte	-8
 2353 0085 84       		.byte	-124
 2354 0086 06       		.byte	6
 2355 0087 E5       		.byte	-27
 2356 0088 55       		.byte	85
 2357 0089 90       		.byte	-112
ARM GAS  C:\Users\jo\AppData\Local\Temp\ccZRdplO.s 			page 43


 2358 008a 9C       		.byte	-100
 2359 008b 5A       		.byte	90
 2360 008c FF       		.byte	-1
 2361 008d 52       		.byte	82
 2362 008e 69       		.byte	105
 2363 008f AA       		.byte	-86
 2364 0090 6A       		.byte	106
 2365 0091 7A       		.byte	122
 2366 0092 95       		.byte	-107
 2367 0093 38       		.byte	56
 2368 0094 53       		.byte	83
 2369 0095 4F       		.byte	79
 2370 0096 7D       		.byte	125
 2371 0097 A1       		.byte	-95
 2372 0098 E4       		.byte	-28
 2373 0099 C3       		.byte	-61
 2374 009a 03       		.byte	3
 2375 009b D2       		.byte	-46
 2376 009c A3       		.byte	-93
 2377 009d 18       		.byte	24
 2378 009e A7       		.byte	-89
 2379 009f 28       		.byte	40
 2380 00a0 C3       		.byte	-61
 2381 00a1 C0       		.byte	-64
 2382 00a2 C9       		.byte	-55
 2383 00a3 51       		.byte	81
 2384 00a4 56       		.byte	86
 2385 00a5 80       		.byte	-128
 2386 00a6 95       		.byte	-107
 2387 00a7 39       		.byte	57
 2388 00a8 FC       		.byte	-4
 2389 00a9 F0       		.byte	-16
 2390 00aa E2       		.byte	-30
 2391 00ab 42       		.byte	66
 2392 00ac 9A       		.byte	-102
 2393 00ad 6B       		.byte	107
 2394 00ae 52       		.byte	82
 2395 00af 54       		.byte	84
 2396 00b0 16       		.byte	22
 2397 00b1 AE       		.byte	-82
 2398 00b2 DB       		.byte	-37
 2399 00b3 F5       		.byte	-11
 2400 00b4 A0       		.byte	-96
 2401 00b5 DE       		.byte	-34
 2402 00b6 6A       		.byte	106
 2403 00b7 57       		.byte	87
 2404 00b8 A6       		.byte	-90
 2405 00b9 37       		.byte	55
 2406 00ba B3       		.byte	-77
 2407 00bb 9B       		.byte	-101
 2408 00bc 00000000 		.space	4
 2409 00c0 00000000 		.space	192
 2409      00000000 
 2409      00000000 
 2409      00000000 
 2409      00000000 
 2410              		.section	.data.iv_index,"aw",%progbits
ARM GAS  C:\Users\jo\AppData\Local\Temp\ccZRdplO.s 			page 44


 2411              		.align	2
 2412              		.set	.LANCHOR7,. + 0
 2413              		.type	iv_index, %object
 2414              		.size	iv_index, 24
 2415              	iv_index:
 2416 0000 00000000 		.word	0
 2417 0004 00000000 		.word	0
 2418 0008 01000000 		.word	1
 2419 000c 01000000 		.word	1
 2420 0010 01000000 		.word	1
 2421 0014 02000000 		.word	2
 2422              		.section	.data.pt_index,"aw",%progbits
 2423              		.align	2
 2424              		.set	.LANCHOR13,. + 0
 2425              		.type	pt_index, %object
 2426              		.size	pt_index, 24
 2427              	pt_index:
 2428 0000 00000000 		.word	0
 2429 0004 00000000 		.word	0
 2430 0008 01000000 		.word	1
 2431 000c 01000000 		.word	1
 2432 0010 01000000 		.word	1
 2433 0014 01000000 		.word	1
 2434              		.section	.data.key_index,"aw",%progbits
 2435              		.align	2
 2436              		.set	.LANCHOR5,. + 0
 2437              		.type	key_index, %object
 2438              		.size	key_index, 24
 2439              	key_index:
 2440 0000 00000000 		.word	0
 2441 0004 00000000 		.word	0
 2442 0008 01000000 		.word	1
 2443 000c 01000000 		.word	1
 2444 0010 01000000 		.word	1
 2445 0014 01000000 		.word	1
 2446              		.section	.data.add_index,"aw",%progbits
 2447              		.align	2
 2448              		.set	.LANCHOR10,. + 0
 2449              		.type	add_index, %object
 2450              		.size	add_index, 24
 2451              	add_index:
 2452 0000 00000000 		.word	0
 2453 0004 00000000 		.word	0
 2454 0008 00000000 		.word	0
 2455 000c 01000000 		.word	1
 2456 0010 01000000 		.word	1
 2457 0014 01000000 		.word	1
 2458              		.section	.rodata.last4,"a",%progbits
 2459              		.align	3
 2460              		.set	.LANCHOR0,. + 0
 2461              		.type	last4, %object
 2462              		.size	last4, 128
 2463              	last4:
 2464 0000 00000000 		.word	0
 2465 0004 00000000 		.word	0
 2466 0008 201C0000 		.word	7200
 2467 000c 00000000 		.word	0
ARM GAS  C:\Users\jo\AppData\Local\Temp\ccZRdplO.s 			page 45


 2468 0010 40380000 		.word	14400
 2469 0014 00000000 		.word	0
 2470 0018 60240000 		.word	9312
 2471 001c 00000000 		.word	0
 2472 0020 80700000 		.word	28800
 2473 0024 00000000 		.word	0
 2474 0028 A06C0000 		.word	27808
 2475 002c 00000000 		.word	0
 2476 0030 C0480000 		.word	18624
 2477 0034 00000000 		.word	0
 2478 0038 E0540000 		.word	21728
 2479 003c 00000000 		.word	0
 2480 0040 00E10000 		.word	57600
 2481 0044 00000000 		.word	0
 2482 0048 20FD0000 		.word	64800
 2483 004c 00000000 		.word	0
 2484 0050 40D90000 		.word	55616
 2485 0054 00000000 		.word	0
 2486 0058 60C50000 		.word	50528
 2487 005c 00000000 		.word	0
 2488 0060 80910000 		.word	37248
 2489 0064 00000000 		.word	0
 2490 0068 A08D0000 		.word	36256
 2491 006c 00000000 		.word	0
 2492 0070 C0A90000 		.word	43456
 2493 0074 00000000 		.word	0
 2494 0078 E0B50000 		.word	46560
 2495 007c 00000000 		.word	0
 2496              		.section	.data.additional,"aw",%progbits
 2497              		.align	2
 2498              		.set	.LANCHOR9,. + 0
 2499              		.type	additional, %object
 2500              		.size	additional, 384
 2501              	additional:
 2502 0000 00       		.byte	0
 2503 0001 00000000 		.space	63
 2503      00000000 
 2503      00000000 
 2503      00000000 
 2503      00000000 
 2504 0040 FE       		.byte	-2
 2505 0041 ED       		.byte	-19
 2506 0042 FA       		.byte	-6
 2507 0043 CE       		.byte	-50
 2508 0044 DE       		.byte	-34
 2509 0045 AD       		.byte	-83
 2510 0046 BE       		.byte	-66
 2511 0047 EF       		.byte	-17
 2512 0048 FE       		.byte	-2
 2513 0049 ED       		.byte	-19
 2514 004a FA       		.byte	-6
 2515 004b CE       		.byte	-50
 2516 004c DE       		.byte	-34
 2517 004d AD       		.byte	-83
 2518 004e BE       		.byte	-66
 2519 004f EF       		.byte	-17
 2520 0050 AB       		.byte	-85
ARM GAS  C:\Users\jo\AppData\Local\Temp\ccZRdplO.s 			page 46


 2521 0051 AD       		.byte	-83
 2522 0052 DA       		.byte	-38
 2523 0053 D2       		.byte	-46
 2524 0054 00000000 		.space	44
 2524      00000000 
 2524      00000000 
 2524      00000000 
 2524      00000000 
 2525 0080 00000000 		.space	256
 2525      00000000 
 2525      00000000 
 2525      00000000 
 2525      00000000 
 2526              		.section	.data.add_len,"aw",%progbits
 2527              		.align	2
 2528              		.set	.LANCHOR11,. + 0
 2529              		.type	add_len, %object
 2530              		.size	add_len, 24
 2531              	add_len:
 2532 0000 00000000 		.word	0
 2533 0004 00000000 		.word	0
 2534 0008 00000000 		.word	0
 2535 000c 14000000 		.word	20
 2536 0010 14000000 		.word	20
 2537 0014 14000000 		.word	20
 2538              		.section	.rodata.str1.4,"aMS",%progbits,1
 2539              		.align	2
 2540              	.LC0:
 2541 0000 20204145 		.ascii	"  AES-GCM-%3d #%d (%s): \000"
 2541      532D4743 
 2541      4D2D2533 
 2541      64202325 
 2541      64202825 
 2542 0019 000000   		.space	3
 2543              	.LC1:
 2544 001c 656E6300 		.ascii	"enc\000"
 2545              	.LC2:
 2546 0020 6661696C 		.ascii	"failed\000"
 2546      656400
 2547 0027 00       		.space	1
 2548              	.LC3:
 2549 0028 70617373 		.ascii	"passed\000"
 2549      656400
 2550 002f 00       		.space	1
 2551              	.LC4:
 2552 0030 64656300 		.ascii	"dec\000"
 2553              		.section	.data.iv_len,"aw",%progbits
 2554              		.align	2
 2555              		.set	.LANCHOR8,. + 0
 2556              		.type	iv_len, %object
 2557              		.size	iv_len, 24
 2558              	iv_len:
 2559 0000 0C000000 		.word	12
 2560 0004 0C000000 		.word	12
 2561 0008 0C000000 		.word	12
 2562 000c 0C000000 		.word	12
 2563 0010 08000000 		.word	8
ARM GAS  C:\Users\jo\AppData\Local\Temp\ccZRdplO.s 			page 47


 2564 0014 3C000000 		.word	60
 2565              		.section	.data.pt_len,"aw",%progbits
 2566              		.align	2
 2567              		.set	.LANCHOR3,. + 0
 2568              		.type	pt_len, %object
 2569              		.size	pt_len, 24
 2570              	pt_len:
 2571 0000 00000000 		.word	0
 2572 0004 10000000 		.word	16
 2573 0008 40000000 		.word	64
 2574 000c 3C000000 		.word	60
 2575 0010 3C000000 		.word	60
 2576 0014 3C000000 		.word	60
 2577              		.section	.data.key,"aw",%progbits
 2578              		.align	2
 2579              		.set	.LANCHOR4,. + 0
 2580              		.type	key, %object
 2581              		.size	key, 192
 2582              	key:
 2583 0000 00       		.byte	0
 2584 0001 00       		.byte	0
 2585 0002 00       		.byte	0
 2586 0003 00       		.byte	0
 2587 0004 00       		.byte	0
 2588 0005 00       		.byte	0
 2589 0006 00       		.byte	0
 2590 0007 00       		.byte	0
 2591 0008 00       		.byte	0
 2592 0009 00       		.byte	0
 2593 000a 00       		.byte	0
 2594 000b 00       		.byte	0
 2595 000c 00       		.byte	0
 2596 000d 00       		.byte	0
 2597 000e 00       		.byte	0
 2598 000f 00       		.byte	0
 2599 0010 00       		.byte	0
 2600 0011 00       		.byte	0
 2601 0012 00       		.byte	0
 2602 0013 00       		.byte	0
 2603 0014 00       		.byte	0
 2604 0015 00       		.byte	0
 2605 0016 00       		.byte	0
 2606 0017 00       		.byte	0
 2607 0018 00       		.byte	0
 2608 0019 00       		.byte	0
 2609 001a 00       		.byte	0
 2610 001b 00       		.byte	0
 2611 001c 00       		.byte	0
 2612 001d 00       		.byte	0
 2613 001e 00       		.byte	0
 2614 001f 00       		.byte	0
 2615 0020 FE       		.byte	-2
 2616 0021 FF       		.byte	-1
 2617 0022 E9       		.byte	-23
 2618 0023 92       		.byte	-110
 2619 0024 86       		.byte	-122
 2620 0025 65       		.byte	101
ARM GAS  C:\Users\jo\AppData\Local\Temp\ccZRdplO.s 			page 48


 2621 0026 73       		.byte	115
 2622 0027 1C       		.byte	28
 2623 0028 6D       		.byte	109
 2624 0029 6A       		.byte	106
 2625 002a 8F       		.byte	-113
 2626 002b 94       		.byte	-108
 2627 002c 67       		.byte	103
 2628 002d 30       		.byte	48
 2629 002e 83       		.byte	-125
 2630 002f 08       		.byte	8
 2631 0030 FE       		.byte	-2
 2632 0031 FF       		.byte	-1
 2633 0032 E9       		.byte	-23
 2634 0033 92       		.byte	-110
 2635 0034 86       		.byte	-122
 2636 0035 65       		.byte	101
 2637 0036 73       		.byte	115
 2638 0037 1C       		.byte	28
 2639 0038 6D       		.byte	109
 2640 0039 6A       		.byte	106
 2641 003a 8F       		.byte	-113
 2642 003b 94       		.byte	-108
 2643 003c 67       		.byte	103
 2644 003d 30       		.byte	48
 2645 003e 83       		.byte	-125
 2646 003f 08       		.byte	8
 2647 0040 00000000 		.space	128
 2647      00000000 
 2647      00000000 
 2647      00000000 
 2647      00000000 
 2648              		.section	.data.tag,"aw",%progbits
 2649              		.align	2
 2650              		.set	.LANCHOR1,. + 0
 2651              		.type	tag, %object
 2652              		.size	tag, 288
 2653              	tag:
 2654 0000 58       		.byte	88
 2655 0001 E2       		.byte	-30
 2656 0002 FC       		.byte	-4
 2657 0003 CE       		.byte	-50
 2658 0004 FA       		.byte	-6
 2659 0005 7E       		.byte	126
 2660 0006 30       		.byte	48
 2661 0007 61       		.byte	97
 2662 0008 36       		.byte	54
 2663 0009 7F       		.byte	127
 2664 000a 1D       		.byte	29
 2665 000b 57       		.byte	87
 2666 000c A4       		.byte	-92
 2667 000d E7       		.byte	-25
 2668 000e 45       		.byte	69
 2669 000f 5A       		.byte	90
 2670 0010 AB       		.byte	-85
 2671 0011 6E       		.byte	110
 2672 0012 47       		.byte	71
 2673 0013 D4       		.byte	-44
ARM GAS  C:\Users\jo\AppData\Local\Temp\ccZRdplO.s 			page 49


 2674 0014 2C       		.byte	44
 2675 0015 EC       		.byte	-20
 2676 0016 13       		.byte	19
 2677 0017 BD       		.byte	-67
 2678 0018 F5       		.byte	-11
 2679 0019 3A       		.byte	58
 2680 001a 67       		.byte	103
 2681 001b B2       		.byte	-78
 2682 001c 12       		.byte	18
 2683 001d 57       		.byte	87
 2684 001e BD       		.byte	-67
 2685 001f DF       		.byte	-33
 2686 0020 4D       		.byte	77
 2687 0021 5C       		.byte	92
 2688 0022 2A       		.byte	42
 2689 0023 F3       		.byte	-13
 2690 0024 27       		.byte	39
 2691 0025 CD       		.byte	-51
 2692 0026 64       		.byte	100
 2693 0027 A6       		.byte	-90
 2694 0028 2C       		.byte	44
 2695 0029 F3       		.byte	-13
 2696 002a 5A       		.byte	90
 2697 002b BD       		.byte	-67
 2698 002c 2B       		.byte	43
 2699 002d A6       		.byte	-90
 2700 002e FA       		.byte	-6
 2701 002f B4       		.byte	-76
 2702 0030 5B       		.byte	91
 2703 0031 C9       		.byte	-55
 2704 0032 4F       		.byte	79
 2705 0033 BC       		.byte	-68
 2706 0034 32       		.byte	50
 2707 0035 21       		.byte	33
 2708 0036 A5       		.byte	-91
 2709 0037 DB       		.byte	-37
 2710 0038 94       		.byte	-108
 2711 0039 FA       		.byte	-6
 2712 003a E9       		.byte	-23
 2713 003b 5A       		.byte	90
 2714 003c E7       		.byte	-25
 2715 003d 12       		.byte	18
 2716 003e 1A       		.byte	26
 2717 003f 47       		.byte	71
 2718 0040 36       		.byte	54
 2719 0041 12       		.byte	18
 2720 0042 D2       		.byte	-46
 2721 0043 E7       		.byte	-25
 2722 0044 9E       		.byte	-98
 2723 0045 3B       		.byte	59
 2724 0046 07       		.byte	7
 2725 0047 85       		.byte	-123
 2726 0048 56       		.byte	86
 2727 0049 1B       		.byte	27
 2728 004a E1       		.byte	-31
 2729 004b 4A       		.byte	74
 2730 004c AC       		.byte	-84
ARM GAS  C:\Users\jo\AppData\Local\Temp\ccZRdplO.s 			page 50


 2731 004d A2       		.byte	-94
 2732 004e FC       		.byte	-4
 2733 004f CB       		.byte	-53
 2734 0050 61       		.byte	97
 2735 0051 9C       		.byte	-100
 2736 0052 C5       		.byte	-59
 2737 0053 AE       		.byte	-82
 2738 0054 FF       		.byte	-1
 2739 0055 FE       		.byte	-2
 2740 0056 0B       		.byte	11
 2741 0057 FA       		.byte	-6
 2742 0058 46       		.byte	70
 2743 0059 2A       		.byte	42
 2744 005a F4       		.byte	-12
 2745 005b 3C       		.byte	60
 2746 005c 16       		.byte	22
 2747 005d 99       		.byte	-103
 2748 005e D0       		.byte	-48
 2749 005f 50       		.byte	80
 2750 0060 CD       		.byte	-51
 2751 0061 33       		.byte	51
 2752 0062 B2       		.byte	-78
 2753 0063 8A       		.byte	-118
 2754 0064 C7       		.byte	-57
 2755 0065 73       		.byte	115
 2756 0066 F7       		.byte	-9
 2757 0067 4B       		.byte	75
 2758 0068 A0       		.byte	-96
 2759 0069 0E       		.byte	14
 2760 006a D1       		.byte	-47
 2761 006b F3       		.byte	-13
 2762 006c 12       		.byte	18
 2763 006d 57       		.byte	87
 2764 006e 24       		.byte	36
 2765 006f 35       		.byte	53
 2766 0070 2F       		.byte	47
 2767 0071 F5       		.byte	-11
 2768 0072 8D       		.byte	-115
 2769 0073 80       		.byte	-128
 2770 0074 03       		.byte	3
 2771 0075 39       		.byte	57
 2772 0076 27       		.byte	39
 2773 0077 AB       		.byte	-85
 2774 0078 8E       		.byte	-114
 2775 0079 F4       		.byte	-12
 2776 007a D4       		.byte	-44
 2777 007b 58       		.byte	88
 2778 007c 75       		.byte	117
 2779 007d 14       		.byte	20
 2780 007e F0       		.byte	-16
 2781 007f FB       		.byte	-5
 2782 0080 99       		.byte	-103
 2783 0081 24       		.byte	36
 2784 0082 A7       		.byte	-89
 2785 0083 C8       		.byte	-56
 2786 0084 58       		.byte	88
 2787 0085 73       		.byte	115
ARM GAS  C:\Users\jo\AppData\Local\Temp\ccZRdplO.s 			page 51


 2788 0086 36       		.byte	54
 2789 0087 BF       		.byte	-65
 2790 0088 B1       		.byte	-79
 2791 0089 18       		.byte	24
 2792 008a 02       		.byte	2
 2793 008b 4D       		.byte	77
 2794 008c B8       		.byte	-72
 2795 008d 67       		.byte	103
 2796 008e 4A       		.byte	74
 2797 008f 14       		.byte	20
 2798 0090 25       		.byte	37
 2799 0091 19       		.byte	25
 2800 0092 49       		.byte	73
 2801 0093 8E       		.byte	-114
 2802 0094 80       		.byte	-128
 2803 0095 F1       		.byte	-15
 2804 0096 47       		.byte	71
 2805 0097 8F       		.byte	-113
 2806 0098 37       		.byte	55
 2807 0099 BA       		.byte	-70
 2808 009a 55       		.byte	85
 2809 009b BD       		.byte	-67
 2810 009c 6D       		.byte	109
 2811 009d 27       		.byte	39
 2812 009e 61       		.byte	97
 2813 009f 8C       		.byte	-116
 2814 00a0 65       		.byte	101
 2815 00a1 DC       		.byte	-36
 2816 00a2 C5       		.byte	-59
 2817 00a3 7F       		.byte	127
 2818 00a4 CF       		.byte	-49
 2819 00a5 62       		.byte	98
 2820 00a6 3A       		.byte	58
 2821 00a7 24       		.byte	36
 2822 00a8 09       		.byte	9
 2823 00a9 4F       		.byte	79
 2824 00aa CC       		.byte	-52
 2825 00ab A4       		.byte	-92
 2826 00ac 0D       		.byte	13
 2827 00ad 35       		.byte	53
 2828 00ae 33       		.byte	51
 2829 00af F8       		.byte	-8
 2830 00b0 DC       		.byte	-36
 2831 00b1 F5       		.byte	-11
 2832 00b2 66       		.byte	102
 2833 00b3 FF       		.byte	-1
 2834 00b4 29       		.byte	41
 2835 00b5 1C       		.byte	28
 2836 00b6 25       		.byte	37
 2837 00b7 BB       		.byte	-69
 2838 00b8 B8       		.byte	-72
 2839 00b9 56       		.byte	86
 2840 00ba 8F       		.byte	-113
 2841 00bb C3       		.byte	-61
 2842 00bc D3       		.byte	-45
 2843 00bd 76       		.byte	118
 2844 00be A6       		.byte	-90
ARM GAS  C:\Users\jo\AppData\Local\Temp\ccZRdplO.s 			page 52


 2845 00bf D9       		.byte	-39
 2846 00c0 53       		.byte	83
 2847 00c1 0F       		.byte	15
 2848 00c2 8A       		.byte	-118
 2849 00c3 FB       		.byte	-5
 2850 00c4 C7       		.byte	-57
 2851 00c5 45       		.byte	69
 2852 00c6 36       		.byte	54
 2853 00c7 B9       		.byte	-71
 2854 00c8 A9       		.byte	-87
 2855 00c9 63       		.byte	99
 2856 00ca B4       		.byte	-76
 2857 00cb F1       		.byte	-15
 2858 00cc C4       		.byte	-60
 2859 00cd CB       		.byte	-53
 2860 00ce 73       		.byte	115
 2861 00cf 8B       		.byte	-117
 2862 00d0 D0       		.byte	-48
 2863 00d1 D1       		.byte	-47
 2864 00d2 C8       		.byte	-56
 2865 00d3 A7       		.byte	-89
 2866 00d4 99       		.byte	-103
 2867 00d5 99       		.byte	-103
 2868 00d6 6B       		.byte	107
 2869 00d7 F0       		.byte	-16
 2870 00d8 26       		.byte	38
 2871 00d9 5B       		.byte	91
 2872 00da 98       		.byte	-104
 2873 00db B5       		.byte	-75
 2874 00dc D4       		.byte	-44
 2875 00dd 8A       		.byte	-118
 2876 00de B9       		.byte	-71
 2877 00df 19       		.byte	25
 2878 00e0 B0       		.byte	-80
 2879 00e1 94       		.byte	-108
 2880 00e2 DA       		.byte	-38
 2881 00e3 C5       		.byte	-59
 2882 00e4 D9       		.byte	-39
 2883 00e5 34       		.byte	52
 2884 00e6 71       		.byte	113
 2885 00e7 BD       		.byte	-67
 2886 00e8 EC       		.byte	-20
 2887 00e9 1A       		.byte	26
 2888 00ea 50       		.byte	80
 2889 00eb 22       		.byte	34
 2890 00ec 70       		.byte	112
 2891 00ed E3       		.byte	-29
 2892 00ee CC       		.byte	-52
 2893 00ef 6C       		.byte	108
 2894 00f0 76       		.byte	118
 2895 00f1 FC       		.byte	-4
 2896 00f2 6E       		.byte	110
 2897 00f3 CE       		.byte	-50
 2898 00f4 0F       		.byte	15
 2899 00f5 4E       		.byte	78
 2900 00f6 17       		.byte	23
 2901 00f7 68       		.byte	104
ARM GAS  C:\Users\jo\AppData\Local\Temp\ccZRdplO.s 			page 53


 2902 00f8 CD       		.byte	-51
 2903 00f9 DF       		.byte	-33
 2904 00fa 88       		.byte	-120
 2905 00fb 53       		.byte	83
 2906 00fc BB       		.byte	-69
 2907 00fd 2D       		.byte	45
 2908 00fe 55       		.byte	85
 2909 00ff 1B       		.byte	27
 2910 0100 3A       		.byte	58
 2911 0101 33       		.byte	51
 2912 0102 7D       		.byte	125
 2913 0103 BF       		.byte	-65
 2914 0104 46       		.byte	70
 2915 0105 A7       		.byte	-89
 2916 0106 92       		.byte	-110
 2917 0107 C4       		.byte	-60
 2918 0108 5E       		.byte	94
 2919 0109 45       		.byte	69
 2920 010a 49       		.byte	73
 2921 010b 13       		.byte	19
 2922 010c FE       		.byte	-2
 2923 010d 2E       		.byte	46
 2924 010e A8       		.byte	-88
 2925 010f F2       		.byte	-14
 2926 0110 A4       		.byte	-92
 2927 0111 4A       		.byte	74
 2928 0112 82       		.byte	-126
 2929 0113 66       		.byte	102
 2930 0114 EE       		.byte	-18
 2931 0115 1C       		.byte	28
 2932 0116 8E       		.byte	-114
 2933 0117 B0       		.byte	-80
 2934 0118 C8       		.byte	-56
 2935 0119 B5       		.byte	-75
 2936 011a D4       		.byte	-44
 2937 011b CF       		.byte	-49
 2938 011c 5A       		.byte	90
 2939 011d E9       		.byte	-23
 2940 011e F1       		.byte	-15
 2941 011f 9A       		.byte	-102
 2942              		.section	.data.pt,"aw",%progbits
 2943              		.align	2
 2944              		.set	.LANCHOR12,. + 0
 2945              		.type	pt, %object
 2946              		.size	pt, 384
 2947              	pt:
 2948 0000 00       		.byte	0
 2949 0001 00       		.byte	0
 2950 0002 00       		.byte	0
 2951 0003 00       		.byte	0
 2952 0004 00       		.byte	0
 2953 0005 00       		.byte	0
 2954 0006 00       		.byte	0
 2955 0007 00       		.byte	0
 2956 0008 00       		.byte	0
 2957 0009 00       		.byte	0
 2958 000a 00       		.byte	0
ARM GAS  C:\Users\jo\AppData\Local\Temp\ccZRdplO.s 			page 54


 2959 000b 00       		.byte	0
 2960 000c 00       		.byte	0
 2961 000d 00       		.byte	0
 2962 000e 00       		.byte	0
 2963 000f 00       		.byte	0
 2964 0010 00000000 		.space	48
 2964      00000000 
 2964      00000000 
 2964      00000000 
 2964      00000000 
 2965 0040 D9       		.byte	-39
 2966 0041 31       		.byte	49
 2967 0042 32       		.byte	50
 2968 0043 25       		.byte	37
 2969 0044 F8       		.byte	-8
 2970 0045 84       		.byte	-124
 2971 0046 06       		.byte	6
 2972 0047 E5       		.byte	-27
 2973 0048 A5       		.byte	-91
 2974 0049 59       		.byte	89
 2975 004a 09       		.byte	9
 2976 004b C5       		.byte	-59
 2977 004c AF       		.byte	-81
 2978 004d F5       		.byte	-11
 2979 004e 26       		.byte	38
 2980 004f 9A       		.byte	-102
 2981 0050 86       		.byte	-122
 2982 0051 A7       		.byte	-89
 2983 0052 A9       		.byte	-87
 2984 0053 53       		.byte	83
 2985 0054 15       		.byte	21
 2986 0055 34       		.byte	52
 2987 0056 F7       		.byte	-9
 2988 0057 DA       		.byte	-38
 2989 0058 2E       		.byte	46
 2990 0059 4C       		.byte	76
 2991 005a 30       		.byte	48
 2992 005b 3D       		.byte	61
 2993 005c 8A       		.byte	-118
 2994 005d 31       		.byte	49
 2995 005e 8A       		.byte	-118
 2996 005f 72       		.byte	114
 2997 0060 1C       		.byte	28
 2998 0061 3C       		.byte	60
 2999 0062 0C       		.byte	12
 3000 0063 95       		.byte	-107
 3001 0064 95       		.byte	-107
 3002 0065 68       		.byte	104
 3003 0066 09       		.byte	9
 3004 0067 53       		.byte	83
 3005 0068 2F       		.byte	47
 3006 0069 CF       		.byte	-49
 3007 006a 0E       		.byte	14
 3008 006b 24       		.byte	36
 3009 006c 49       		.byte	73
 3010 006d A6       		.byte	-90
 3011 006e B5       		.byte	-75
ARM GAS  C:\Users\jo\AppData\Local\Temp\ccZRdplO.s 			page 55


 3012 006f 25       		.byte	37
 3013 0070 B1       		.byte	-79
 3014 0071 6A       		.byte	106
 3015 0072 ED       		.byte	-19
 3016 0073 F5       		.byte	-11
 3017 0074 AA       		.byte	-86
 3018 0075 0D       		.byte	13
 3019 0076 E6       		.byte	-26
 3020 0077 57       		.byte	87
 3021 0078 BA       		.byte	-70
 3022 0079 63       		.byte	99
 3023 007a 7B       		.byte	123
 3024 007b 39       		.byte	57
 3025 007c 1A       		.byte	26
 3026 007d AF       		.byte	-81
 3027 007e D2       		.byte	-46
 3028 007f 55       		.byte	85
 3029 0080 00000000 		.space	256
 3029      00000000 
 3029      00000000 
 3029      00000000 
 3029      00000000 
 3030              		.text
 3031              	.Letext0:
 3032              		.file 2 "c:\\program files\\gnu tools arm embedded\\4.9 2014q4\\lib\\gcc\\arm-none-eabi\\4.9.3\\in
 3033              		.file 3 "c:\\program files\\gnu tools arm embedded\\4.9 2014q4\\arm-none-eabi\\include\\machine\\_
 3034              		.file 4 "c:\\program files\\gnu tools arm embedded\\4.9 2014q4\\arm-none-eabi\\include\\stdint.h"
 3035              		.file 5 "../../../demos/STM32/RT-STM32F407-DISCOVERY-uHttp/uhttp-1.1/PolarSSL/include/polarssl/aes
 3036              		.file 6 "../../../demos/STM32/RT-STM32F407-DISCOVERY-uHttp/uhttp-1.1/PolarSSL/include/polarssl/gcm
 3037              		.file 7 "c:\\program files\\gnu tools arm embedded\\4.9 2014q4\\arm-none-eabi\\include\\string.h"
 3038              		.file 8 "c:\\program files\\gnu tools arm embedded\\4.9 2014q4\\arm-none-eabi\\include\\stdio.h"
 3039              		.file 9 "<built-in>"