ARM GAS  C:\Users\jo\AppData\Local\Temp\ccxG4l2S.s 			page 1


   1              		.syntax unified
   2              		.cpu cortex-m4
   3              		.fpu softvfp
   4              		.eabi_attribute 20, 1
   5              		.eabi_attribute 21, 1
   6              		.eabi_attribute 23, 3
   7              		.eabi_attribute 24, 1
   8              		.eabi_attribute 25, 1
   9              		.eabi_attribute 26, 1
  10              		.eabi_attribute 30, 2
  11              		.eabi_attribute 34, 1
  12              		.eabi_attribute 18, 4
  13              		.thumb
  14              		.file	"hal.c"
  15              		.text
  16              	.Ltext0:
  17              		.cfi_sections	.debug_frame
  18              		.section	.text.chprintf.constprop.0,"ax",%progbits
  19              		.align	2
  20              		.p2align 4,,15
  21              		.thumb
  22              		.thumb_func
  23              		.type	chprintf.constprop.0, %function
  24              	chprintf.constprop.0:
  25              	.LFB257:
  26              		.file 1 "../../../os/hal/lib/streams/chprintf.h"
  27              		.loc 1 69 0
  28              		.cfi_startproc
  29              		@ args = 4, pretend = 12, frame = 8
  30              		@ frame_needed = 0, uses_anonymous_args = 1
  31              	.LVL0:
  32 0000 0EB4     		push	{r1, r2, r3}
  33              		.cfi_def_cfa_offset 12
  34              		.cfi_offset 1, -12
  35              		.cfi_offset 2, -8
  36              		.cfi_offset 3, -4
  37 0002 00B5     		push	{lr}
  38              		.cfi_def_cfa_offset 16
  39              		.cfi_offset 14, -16
  40 0004 82B0     		sub	sp, sp, #8
  41              		.cfi_def_cfa_offset 24
  42              		.loc 1 73 0
  43 0006 04AB     		add	r3, sp, #16
  44              		.loc 1 74 0
  45 0008 1A46     		mov	r2, r3
  46 000a 0549     		ldr	r1, .L3
  47 000c 0548     		ldr	r0, .L3+4
  48              	.LVL1:
  49              		.loc 1 73 0
  50 000e 0193     		str	r3, [sp, #4]
  51              		.loc 1 74 0
  52 0010 FFF7FEFF 		bl	chvprintf
  53              	.LVL2:
  54              		.loc 1 78 0
  55 0014 02B0     		add	sp, sp, #8
  56              		.cfi_def_cfa_offset 16
  57              		@ sp needed
ARM GAS  C:\Users\jo\AppData\Local\Temp\ccxG4l2S.s 			page 2


  58 0016 5DF804EB 		ldr	lr, [sp], #4
  59              		.cfi_restore 14
  60              		.cfi_def_cfa_offset 12
  61 001a 03B0     		add	sp, sp, #12
  62              		.cfi_restore 3
  63              		.cfi_restore 2
  64              		.cfi_restore 1
  65              		.cfi_def_cfa_offset 0
  66 001c 7047     		bx	lr
  67              	.L4:
  68 001e 00BF     		.align	2
  69              	.L3:
  70 0020 00000000 		.word	.LC0
  71 0024 00000000 		.word	itm_port
  72              		.cfi_endproc
  73              	.LFE257:
  74              		.size	chprintf.constprop.0, .-chprintf.constprop.0
  75 0028 AFF30080 		.section	.text.halInit,"ax",%progbits
  75      AFF30080 
  76              		.align	2
  77              		.p2align 4,,15
  78              		.global	halInit
  79              		.thumb
  80              		.thumb_func
  81              		.type	halInit, %function
  82              	halInit:
  83              	.LFB256:
  84              		.file 2 "../../../os/hal/src/hal.c"
  85              		.loc 2 63 0
  86              		.cfi_startproc
  87              		@ args = 0, pretend = 0, frame = 0
  88              		@ frame_needed = 0, uses_anonymous_args = 0
  89 0000 38B5     		push	{r3, r4, r5, lr}
  90              		.cfi_def_cfa_offset 16
  91              		.cfi_offset 3, -16
  92              		.cfi_offset 4, -12
  93              		.cfi_offset 5, -8
  94              		.cfi_offset 14, -4
  95              		.loc 2 71 0
  96 0002 124D     		ldr	r5, .L7
  97 0004 124C     		ldr	r4, .L7+4
  98              		.loc 2 69 0
  99 0006 FFF7FEFF 		bl	hal_lld_init
 100              	.LVL3:
 101              		.loc 2 71 0
 102 000a 2146     		mov	r1, r4
 103 000c 114A     		ldr	r2, .L7+8
 104 000e 2846     		mov	r0, r5
 105 0010 FFF7FEFF 		bl	chprintf.constprop.0
 106              	.LVL4:
 107              		.loc 2 74 0
 108 0014 1048     		ldr	r0, .L7+12
 109 0016 FFF7FEFF 		bl	_pal_lld_init
 110              	.LVL5:
 111              		.loc 2 75 0
 112 001a 2146     		mov	r1, r4
 113 001c 0F4A     		ldr	r2, .L7+16
ARM GAS  C:\Users\jo\AppData\Local\Temp\ccxG4l2S.s 			page 3


 114 001e 2846     		mov	r0, r5
 115 0020 FFF7FEFF 		bl	chprintf.constprop.0
 116              	.LVL6:
 117              		.loc 2 99 0
 118 0024 FFF7FEFF 		bl	macInit
 119              	.LVL7:
 120              		.loc 2 100 0
 121 0028 2146     		mov	r1, r4
 122 002a 0D4A     		ldr	r2, .L7+20
 123 002c 2846     		mov	r0, r5
 124 002e FFF7FEFF 		bl	chprintf.constprop.0
 125              	.LVL8:
 126              		.loc 2 106 0
 127 0032 FFF7FEFF 		bl	sdInit
 128              	.LVL9:
 129              		.loc 2 115 0
 130 0036 FFF7FEFF 		bl	uartInit
 131              	.LVL10:
 132              		.loc 2 127 0
 133 003a FFF7FEFF 		bl	rtcInit
 134              	.LVL11:
 135              		.loc 2 136 0
 136 003e FFF7FEFF 		bl	boardInit
 137              	.LVL12:
 138              		.loc 2 145 0
 139 0042 BDE83840 		pop	{r3, r4, r5, lr}
 140              		.cfi_restore 14
 141              		.cfi_restore 5
 142              		.cfi_restore 4
 143              		.cfi_restore 3
 144              		.cfi_def_cfa_offset 0
 145              		.loc 2 143 0
 146 0046 FFF7FEBF 		b	stInit
 147              	.LVL13:
 148              	.L8:
 149 004a 00BF     		.align	2
 150              	.L7:
 151 004c 00000000 		.word	itm_port
 152 0050 00000000 		.word	.LC0
 153 0054 04000000 		.word	.LC1
 154 0058 00000000 		.word	pal_default_config
 155 005c 14000000 		.word	.LC2
 156 0060 1C000000 		.word	.LC3
 157              		.cfi_endproc
 158              	.LFE256:
 159              		.size	halInit, .-halInit
 160 0064 AFF30080 		.section	.rodata.str1.4,"aMS",%progbits,1
 160      AFF30080 
 160      AFF30080 
 161              		.align	2
 162              	.LC0:
 163 0000 25730A00 		.ascii	"%s\012\000"
 164              	.LC1:
 165 0004 68616C5F 		.ascii	"hal_lld_init\000"
 165      6C6C645F 
 165      696E6974 
 165      00
ARM GAS  C:\Users\jo\AppData\Local\Temp\ccxG4l2S.s 			page 4


 166 0011 000000   		.space	3
 167              	.LC2:
 168 0014 70616C49 		.ascii	"palInit\000"
 168      6E697400 
 169              	.LC3:
 170 001c 6D616320 		.ascii	"mac Inited...\000"
 170      496E6974 
 170      65642E2E 
 170      2E00
 171 002a 0000     		.text
 172              	.Letext0:
 173              		.file 3 "c:\\program files\\gnu tools arm embedded\\4.9 2014q4\\lib\\gcc\\arm-none-eabi\\4.9.3\\in
 174              		.file 4 "c:\\program files\\gnu tools arm embedded\\4.9 2014q4\\arm-none-eabi\\include\\machine\\_
 175              		.file 5 "c:\\program files\\gnu tools arm embedded\\4.9 2014q4\\arm-none-eabi\\include\\stdint.h"
 176              		.file 6 "../../../os/rt/ports/ARMCMx/compilers/GCC/chtypes.h"
 177              		.file 7 "../../../os/rt/include/chsystypes.h"
 178              		.file 8 "../../../os/rt/include/chschd.h"
 179              		.file 9 "../../../os/rt/ports/ARMCMx/chcore.h"
 180              		.file 10 "../../../os/rt/ports/ARMCMx/chcore_v7m.h"
 181              		.file 11 "c:\\program files\\gnu tools arm embedded\\4.9 2014q4\\lib\\gcc\\arm-none-eabi\\4.9.3\\i
 182              		.file 12 "<built-in>"
 183              		.file 13 "../../../os/rt/include/chdebug.h"
 184              		.file 14 "../../../os/rt/include/chtm.h"
 185              		.file 15 "../../../os/rt/include/chstats.h"
 186              		.file 16 "../../../os/rt/include/chmtx.h"
 187              		.file 17 "../../../os/rt/include/chstreams.h"
 188              		.file 18 "../../../os/hal/ports/STM32/LLD/GPIOv2/pal_lld.h"
 189              		.file 19 "./ITM_trace.h"
 190              		.file 20 "../../../os/ext/CMSIS/include/core_cm4.h"
 191              		.file 21 "../../../os/hal/ports/STM32/STM32F4xx/hal_lld.h"
 192              		.file 22 "../../../os/hal/include/mac.h"
 193              		.file 23 "../../../os/hal/include/serial.h"
 194              		.file 24 "../../../os/hal/include/uart.h"
 195              		.file 25 "../../../os/hal/include/rtc.h"
 196              		.file 26 "../../../os/hal/boards/ST_STM32F4_DISCOVERY/board.h"
 197              		.file 27 "../../../os/hal/include/st.h"
 198              		.file 28 "../../../os/hal/osal/rt/osal.h"