ARM GAS  C:\Users\jo\AppData\Local\Temp\cc9hVPTd.s 			page 1


   1              		.syntax unified
   2              		.cpu cortex-m4
   3              		.fpu softvfp
   4              		.eabi_attribute 20, 1
   5              		.eabi_attribute 21, 1
   6              		.eabi_attribute 23, 3
   7              		.eabi_attribute 24, 1
   8              		.eabi_attribute 25, 1
   9              		.eabi_attribute 26, 1
  10              		.eabi_attribute 30, 2
  11              		.eabi_attribute 34, 1
  12              		.eabi_attribute 18, 4
  13              		.thumb
  14              		.file	"hal_lld.c"
  15              		.text
  16              	.Ltext0:
  17              		.cfi_sections	.debug_frame
  18              		.section	.text.hal_lld_init,"ax",%progbits
  19              		.align	2
  20              		.p2align 4,,15
  21              		.global	hal_lld_init
  22              		.thumb
  23              		.thumb_func
  24              		.type	hal_lld_init, %function
  25              	hal_lld_init:
  26              	.LFB256:
  27              		.file 1 "../../../os/hal/ports/STM32/STM32F4xx/hal_lld.c"
  28              		.loc 1 108 0
  29              		.cfi_startproc
  30              		@ args = 0, pretend = 0, frame = 0
  31              		@ frame_needed = 0, uses_anonymous_args = 0
  32              		@ link register save eliminated.
  33              		.loc 1 112 0
  34 0000 214B     		ldr	r3, .L12
  35 0002 4FF0FF31 		mov	r1, #-1
  36 0006 1A69     		ldr	r2, [r3, #16]
  37 0008 0022     		movs	r2, #0
  38              		.loc 1 108 0
  39 000a 10B4     		push	{r4}
  40              		.cfi_def_cfa_offset 4
  41              		.cfi_offset 4, -4
  42              		.loc 1 112 0
  43 000c 1961     		str	r1, [r3, #16]
  44 000e 1A61     		str	r2, [r3, #16]
  45              		.loc 1 113 0
  46 0010 5869     		ldr	r0, [r3, #20]
  47 0012 5961     		str	r1, [r3, #20]
  48 0014 5A61     		str	r2, [r3, #20]
  49              		.loc 1 114 0
  50 0016 186A     		ldr	r0, [r3, #32]
  51              	.LBB4:
  52              	.LBB5:
  53              		.loc 1 51 0
  54 0018 1C4C     		ldr	r4, .L12+4
  55              	.LBE5:
  56              	.LBE4:
  57              		.loc 1 114 0
ARM GAS  C:\Users\jo\AppData\Local\Temp\cc9hVPTd.s 			page 2


  58 001a 60F08050 		orn	r0, r0, #268435456
  59 001e 1862     		str	r0, [r3, #32]
  60 0020 1A62     		str	r2, [r3, #32]
  61              		.loc 1 115 0
  62 0022 586A     		ldr	r0, [r3, #36]
  63 0024 5962     		str	r1, [r3, #36]
  64 0026 5A62     		str	r2, [r3, #36]
  65              		.loc 1 118 0
  66 0028 196C     		ldr	r1, [r3, #64]
  67 002a 41F08051 		orr	r1, r1, #268435456
  68 002e 1964     		str	r1, [r3, #64]
  69              	.LBB8:
  70              	.LBB6:
  71              		.loc 1 51 0
  72 0030 2168     		ldr	r1, [r4]
  73 0032 41F48071 		orr	r1, r1, #256
  74 0036 2160     		str	r1, [r4]
  75              		.loc 1 54 0
  76 0038 196F     		ldr	r1, [r3, #112]
  77 003a 01F44071 		and	r1, r1, #768
  78 003e B1F5007F 		cmp	r1, #512
  79 0042 03D0     		beq	.L2
  80              		.loc 1 56 0
  81 0044 4FF48031 		mov	r1, #65536
  82 0048 1967     		str	r1, [r3, #112]
  83              		.loc 1 57 0
  84 004a 1A67     		str	r2, [r3, #112]
  85              	.L2:
  86              		.loc 1 66 0
  87 004c 0E4A     		ldr	r2, .L12
  88 004e 136F     		ldr	r3, [r2, #112]
  89 0050 43F00103 		orr	r3, r3, #1
  90 0054 1367     		str	r3, [r2, #112]
  91              	.L3:
  92              		.loc 1 68 0
  93 0056 136F     		ldr	r3, [r2, #112]
  94 0058 0B49     		ldr	r1, .L12
  95 005a 9807     		lsls	r0, r3, #30
  96 005c FBD5     		bpl	.L3
  97              		.loc 1 75 0
  98 005e 0B6F     		ldr	r3, [r1, #112]
  99 0060 1B04     		lsls	r3, r3, #16
 100 0062 07D4     		bmi	.L4
 101              		.loc 1 77 0
 102 0064 0B6F     		ldr	r3, [r1, #112]
 103 0066 43F40073 		orr	r3, r3, #512
 104 006a 0B67     		str	r3, [r1, #112]
 105              		.loc 1 80 0
 106 006c 0B6F     		ldr	r3, [r1, #112]
 107 006e 43F40043 		orr	r3, r3, #32768
 108 0072 0B67     		str	r3, [r1, #112]
 109              	.L4:
 110              		.loc 1 91 0
 111 0074 054A     		ldr	r2, .L12+4
 112              	.LBE6:
 113              	.LBE8:
 114              		.loc 1 131 0
ARM GAS  C:\Users\jo\AppData\Local\Temp\cc9hVPTd.s 			page 3


 115 0076 5DF8044B 		ldr	r4, [sp], #4
 116              		.cfi_restore 4
 117              		.cfi_def_cfa_offset 0
 118              	.LBB9:
 119              	.LBB7:
 120              		.loc 1 91 0
 121 007a 5368     		ldr	r3, [r2, #4]
 122 007c 23F40073 		bic	r3, r3, #512
 123 0080 5360     		str	r3, [r2, #4]
 124              	.LBE7:
 125              	.LBE9:
 126              		.loc 1 124 0
 127 0082 FFF7FEBF 		b	dmaInit
 128              	.LVL0:
 129              	.L13:
 130 0086 00BF     		.align	2
 131              	.L12:
 132 0088 00380240 		.word	1073887232
 133 008c 00700040 		.word	1073770496
 134              		.cfi_endproc
 135              	.LFE256:
 136              		.size	hal_lld_init, .-hal_lld_init
 137              		.section	.text.stm32_clock_init,"ax",%progbits
 138              		.align	2
 139              		.p2align 4,,15
 140              		.global	stm32_clock_init
 141              		.thumb
 142              		.thumb_func
 143              		.type	stm32_clock_init, %function
 144              	stm32_clock_init:
 145              	.LFB257:
 146              		.loc 1 140 0
 147              		.cfi_startproc
 148              		@ args = 0, pretend = 0, frame = 0
 149              		@ frame_needed = 0, uses_anonymous_args = 0
 150              		@ link register save eliminated.
 151              		.loc 1 144 0
 152 0000 2C49     		ldr	r1, .L35
 153              		.loc 1 148 0
 154 0002 2D4B     		ldr	r3, .L35+4
 155              		.loc 1 144 0
 156 0004 4FF08050 		mov	r0, #268435456
 157              		.loc 1 148 0
 158 0008 4FF44042 		mov	r2, #49152
 159              		.loc 1 144 0
 160 000c 0864     		str	r0, [r1, #64]
 161              		.loc 1 148 0
 162 000e 1A60     		str	r2, [r3]
 163              		.loc 1 155 0
 164 0010 0B68     		ldr	r3, [r1]
 165 0012 43F00103 		orr	r3, r3, #1
 166 0016 0B60     		str	r3, [r1]
 167              	.L15:
 168              		.loc 1 156 0 discriminator 1
 169 0018 0A68     		ldr	r2, [r1]
 170 001a 264B     		ldr	r3, .L35
 171 001c 9007     		lsls	r0, r2, #30
ARM GAS  C:\Users\jo\AppData\Local\Temp\cc9hVPTd.s 			page 4


 172 001e FBD5     		bpl	.L15
 173              		.loc 1 162 0
 174 0020 9A68     		ldr	r2, [r3, #8]
 175 0022 22F00302 		bic	r2, r2, #3
 176 0026 9A60     		str	r2, [r3, #8]
 177              		.loc 1 163 0
 178 0028 9A68     		ldr	r2, [r3, #8]
 179 002a 9A60     		str	r2, [r3, #8]
 180              		.loc 1 164 0
 181 002c 1946     		mov	r1, r3
 182              	.L16:
 183              		.loc 1 164 0 is_stmt 0 discriminator 1
 184 002e 8B68     		ldr	r3, [r1, #8]
 185 0030 204A     		ldr	r2, .L35
 186 0032 13F00C03 		ands	r3, r3, #12
 187 0036 FAD1     		bne	.L16
 188              		.loc 1 168 0 is_stmt 1
 189 0038 1168     		ldr	r1, [r2]
 190 003a 01F0F901 		and	r1, r1, #249
 191 003e 1160     		str	r1, [r2]
 192              		.loc 1 169 0
 193 0040 9360     		str	r3, [r2, #8]
 194              		.loc 1 178 0
 195 0042 1368     		ldr	r3, [r2]
 196 0044 43F48033 		orr	r3, r3, #65536
 197 0048 1360     		str	r3, [r2]
 198              	.L17:
 199              		.loc 1 180 0 discriminator 1
 200 004a 1168     		ldr	r1, [r2]
 201 004c 194B     		ldr	r3, .L35
 202 004e 8903     		lsls	r1, r1, #14
 203 0050 FBD5     		bpl	.L17
 204              		.loc 1 186 0
 205 0052 5A6F     		ldr	r2, [r3, #116]
 206 0054 42F00102 		orr	r2, r2, #1
 207 0058 5A67     		str	r2, [r3, #116]
 208              	.L18:
 209              		.loc 1 187 0 discriminator 1
 210 005a 5A6F     		ldr	r2, [r3, #116]
 211 005c 1549     		ldr	r1, .L35
 212 005e 9007     		lsls	r0, r2, #30
 213 0060 FBD5     		bpl	.L18
 214              		.loc 1 193 0
 215 0062 164B     		ldr	r3, .L35+8
 216 0064 4B60     		str	r3, [r1, #4]
 217              		.loc 1 195 0
 218 0066 0B68     		ldr	r3, [r1]
 219              		.loc 1 199 0
 220 0068 134A     		ldr	r2, .L35+4
 221              		.loc 1 195 0
 222 006a 43F08073 		orr	r3, r3, #16777216
 223 006e 0B60     		str	r3, [r1]
 224              	.L19:
 225              		.loc 1 199 0 discriminator 1
 226 0070 5368     		ldr	r3, [r2, #4]
 227 0072 5904     		lsls	r1, r3, #17
 228 0074 FCD5     		bpl	.L19
ARM GAS  C:\Users\jo\AppData\Local\Temp\cc9hVPTd.s 			page 5


 229              		.loc 1 215 0 discriminator 1
 230 0076 0F49     		ldr	r1, .L35
 231              	.L29:
 232 0078 0A68     		ldr	r2, [r1]
 233 007a 0E4B     		ldr	r3, .L35
 234 007c 9201     		lsls	r2, r2, #6
 235 007e FBD5     		bpl	.L29
 236              		.loc 1 243 0
 237 0080 0F4A     		ldr	r2, .L35+12
 238              		.loc 1 230 0
 239 0082 1049     		ldr	r1, .L35+16
 240 0084 9960     		str	r1, [r3, #8]
 241              		.loc 1 243 0
 242 0086 40F20471 		movw	r1, #1796
 243 008a 1160     		str	r1, [r2]
 244              		.loc 1 249 0
 245 008c 9A68     		ldr	r2, [r3, #8]
 246 008e 42F00202 		orr	r2, r2, #2
 247 0092 9A60     		str	r2, [r3, #8]
 248              		.loc 1 250 0
 249 0094 1A46     		mov	r2, r3
 250              	.L21:
 251              		.loc 1 250 0 is_stmt 0 discriminator 1
 252 0096 9368     		ldr	r3, [r2, #8]
 253 0098 0649     		ldr	r1, .L35
 254 009a 03F00C03 		and	r3, r3, #12
 255 009e 082B     		cmp	r3, #8
 256 00a0 F9D1     		bne	.L21
 257              		.loc 1 257 0 is_stmt 1
 258 00a2 4B6C     		ldr	r3, [r1, #68]
 259 00a4 43F48043 		orr	r3, r3, #16384
 260 00a8 4B64     		str	r3, [r1, #68]
 261 00aa 4B6E     		ldr	r3, [r1, #100]
 262 00ac 43F48043 		orr	r3, r3, #16384
 263 00b0 4B66     		str	r3, [r1, #100]
 264 00b2 7047     		bx	lr
 265              	.L36:
 266              		.align	2
 267              	.L35:
 268 00b4 00380240 		.word	1073887232
 269 00b8 00700040 		.word	1073770496
 270 00bc 194B4007 		.word	121654041
 271 00c0 003C0240 		.word	1073888256
 272 00c4 0094683D 		.word	1030263808
 273              		.cfi_endproc
 274              	.LFE257:
 275              		.size	stm32_clock_init, .-stm32_clock_init
 276 00c8 AFF30080 		.text
 276      AFF30080 
 277              	.Letext0:
 278              		.file 2 "c:\\program files\\gnu tools arm embedded\\4.9 2014q4\\arm-none-eabi\\include\\machine\\_
 279              		.file 3 "c:\\program files\\gnu tools arm embedded\\4.9 2014q4\\arm-none-eabi\\include\\stdint.h"
 280              		.file 4 "../../../os/rt/ports/ARMCMx/compilers/GCC/chtypes.h"
 281              		.file 5 "../../../os/rt/include/chsystypes.h"
 282              		.file 6 "../../../os/rt/include/chschd.h"
 283              		.file 7 "../../../os/ext/CMSIS/ST/stm32f407xx.h"
 284              		.file 8 "../../../os/rt/ports/ARMCMx/chcore.h"
ARM GAS  C:\Users\jo\AppData\Local\Temp\cc9hVPTd.s 			page 6


 285              		.file 9 "../../../os/rt/ports/ARMCMx/chcore_v7m.h"
 286              		.file 10 "../../../os/rt/include/chdebug.h"
 287              		.file 11 "../../../os/rt/include/chtm.h"
 288              		.file 12 "../../../os/rt/include/chstats.h"
 289              		.file 13 "../../../os/rt/include/chmtx.h"
 290              		.file 14 "../../../os/ext/CMSIS/include/core_cm4.h"
 291              		.file 15 "../../../os/hal/ports/STM32/STM32F4xx/stm32_dma.h"
 292              		.section	.debug_info,"",%progbits
 293              	.Ldebug_info0:
 294 0000 050A0000 		.4byte	0xa05
 295 0004 0400     		.2byte	0x4
 296 0006 00000000 		.4byte	.Ldebug_abbrev0
 297 000a 04       		.byte	0x4
 298 000b 01       		.uleb128 0x1
 299 000c 98030000 		.4byte	.LASF157
 300 0010 01       		.byte	0x1
 301 0011 AB020000 		.4byte	.LASF158
 302 0015 18010000 		.4byte	.LASF159
 303 0019 20000000 		.4byte	.Ldebug_ranges0+0x20
 304 001d 00000000 		.4byte	0
 305 0021 00000000 		.4byte	.Ldebug_line0
 306 0025 02       		.uleb128 0x2
 307 0026 04       		.byte	0x4
 308 0027 05       		.byte	0x5
 309 0028 696E7400 		.ascii	"int\000"
 310 002c 03       		.uleb128 0x3
 311 002d 04       		.byte	0x4
 312 002e 07       		.byte	0x7
 313 002f 8B020000 		.4byte	.LASF0
 314 0033 03       		.uleb128 0x3
 315 0034 01       		.byte	0x1
 316 0035 06       		.byte	0x6
 317 0036 74010000 		.4byte	.LASF1
 318 003a 04       		.uleb128 0x4
 319 003b 39000000 		.4byte	.LASF5
 320 003f 02       		.byte	0x2
 321 0040 1D       		.byte	0x1d
 322 0041 45000000 		.4byte	0x45
 323 0045 03       		.uleb128 0x3
 324 0046 01       		.byte	0x1
 325 0047 08       		.byte	0x8
 326 0048 AB050000 		.4byte	.LASF2
 327 004c 03       		.uleb128 0x3
 328 004d 02       		.byte	0x2
 329 004e 05       		.byte	0x5
 330 004f C3050000 		.4byte	.LASF3
 331 0053 03       		.uleb128 0x3
 332 0054 02       		.byte	0x2
 333 0055 07       		.byte	0x7
 334 0056 E1020000 		.4byte	.LASF4
 335 005a 04       		.uleb128 0x4
 336 005b 8E030000 		.4byte	.LASF6
 337 005f 02       		.byte	0x2
 338 0060 3F       		.byte	0x3f
 339 0061 65000000 		.4byte	0x65
 340 0065 03       		.uleb128 0x3
 341 0066 04       		.byte	0x4
ARM GAS  C:\Users\jo\AppData\Local\Temp\cc9hVPTd.s 			page 7


 342 0067 05       		.byte	0x5
 343 0068 D0010000 		.4byte	.LASF7
 344 006c 04       		.uleb128 0x4
 345 006d B7060000 		.4byte	.LASF8
 346 0071 02       		.byte	0x2
 347 0072 41       		.byte	0x41
 348 0073 77000000 		.4byte	0x77
 349 0077 03       		.uleb128 0x3
 350 0078 04       		.byte	0x4
 351 0079 07       		.byte	0x7
 352 007a 64060000 		.4byte	.LASF9
 353 007e 03       		.uleb128 0x3
 354 007f 08       		.byte	0x8
 355 0080 05       		.byte	0x5
 356 0081 66010000 		.4byte	.LASF10
 357 0085 04       		.uleb128 0x4
 358 0086 25050000 		.4byte	.LASF11
 359 008a 02       		.byte	0x2
 360 008b 5B       		.byte	0x5b
 361 008c 90000000 		.4byte	0x90
 362 0090 03       		.uleb128 0x3
 363 0091 08       		.byte	0x8
 364 0092 07       		.byte	0x7
 365 0093 95000000 		.4byte	.LASF12
 366 0097 04       		.uleb128 0x4
 367 0098 44070000 		.4byte	.LASF13
 368 009c 03       		.byte	0x3
 369 009d 15       		.byte	0x15
 370 009e 3A000000 		.4byte	0x3a
 371 00a2 04       		.uleb128 0x4
 372 00a3 A3050000 		.4byte	.LASF14
 373 00a7 03       		.byte	0x3
 374 00a8 2C       		.byte	0x2c
 375 00a9 5A000000 		.4byte	0x5a
 376 00ad 04       		.uleb128 0x4
 377 00ae 32060000 		.4byte	.LASF15
 378 00b2 03       		.byte	0x3
 379 00b3 2D       		.byte	0x2d
 380 00b4 6C000000 		.4byte	0x6c
 381 00b8 04       		.uleb128 0x4
 382 00b9 23000000 		.4byte	.LASF16
 383 00bd 03       		.byte	0x3
 384 00be 39       		.byte	0x39
 385 00bf 85000000 		.4byte	0x85
 386 00c3 05       		.uleb128 0x5
 387 00c4 A2000000 		.4byte	0xa2
 388 00c8 05       		.uleb128 0x5
 389 00c9 AD000000 		.4byte	0xad
 390 00cd 04       		.uleb128 0x4
 391 00ce 05070000 		.4byte	.LASF17
 392 00d2 04       		.byte	0x4
 393 00d3 45       		.byte	0x45
 394 00d4 AD000000 		.4byte	0xad
 395 00d8 04       		.uleb128 0x4
 396 00d9 FE000000 		.4byte	.LASF18
 397 00dd 04       		.byte	0x4
 398 00de 46       		.byte	0x46
ARM GAS  C:\Users\jo\AppData\Local\Temp\cc9hVPTd.s 			page 8


 399 00df B8000000 		.4byte	0xb8
 400 00e3 04       		.uleb128 0x4
 401 00e4 67070000 		.4byte	.LASF19
 402 00e8 04       		.byte	0x4
 403 00e9 48       		.byte	0x48
 404 00ea 97000000 		.4byte	0x97
 405 00ee 04       		.uleb128 0x4
 406 00ef EC010000 		.4byte	.LASF20
 407 00f3 04       		.byte	0x4
 408 00f4 49       		.byte	0x49
 409 00f5 97000000 		.4byte	0x97
 410 00f9 04       		.uleb128 0x4
 411 00fa 3B050000 		.4byte	.LASF21
 412 00fe 04       		.byte	0x4
 413 00ff 4A       		.byte	0x4a
 414 0100 97000000 		.4byte	0x97
 415 0104 04       		.uleb128 0x4
 416 0105 86050000 		.4byte	.LASF22
 417 0109 04       		.byte	0x4
 418 010a 4C       		.byte	0x4c
 419 010b AD000000 		.4byte	0xad
 420 010f 04       		.uleb128 0x4
 421 0110 18030000 		.4byte	.LASF23
 422 0114 04       		.byte	0x4
 423 0115 4D       		.byte	0x4d
 424 0116 A2000000 		.4byte	0xa2
 425 011a 04       		.uleb128 0x4
 426 011b 82030000 		.4byte	.LASF24
 427 011f 04       		.byte	0x4
 428 0120 4F       		.byte	0x4f
 429 0121 AD000000 		.4byte	0xad
 430 0125 04       		.uleb128 0x4
 431 0126 7A020000 		.4byte	.LASF25
 432 012a 04       		.byte	0x4
 433 012b 51       		.byte	0x51
 434 012c A2000000 		.4byte	0xa2
 435 0130 04       		.uleb128 0x4
 436 0131 27030000 		.4byte	.LASF26
 437 0135 04       		.byte	0x4
 438 0136 52       		.byte	0x52
 439 0137 AD000000 		.4byte	0xad
 440 013b 04       		.uleb128 0x4
 441 013c 99060000 		.4byte	.LASF27
 442 0140 05       		.byte	0x5
 443 0141 33       		.byte	0x33
 444 0142 AD000000 		.4byte	0xad
 445 0146 04       		.uleb128 0x4
 446 0147 84060000 		.4byte	.LASF28
 447 014b 05       		.byte	0x5
 448 014c 3F       		.byte	0x3f
 449 014d 51010000 		.4byte	0x151
 450 0151 06       		.uleb128 0x6
 451 0152 03030000 		.4byte	.LASF49
 452 0156 60       		.byte	0x60
 453 0157 06       		.byte	0x6
 454 0158 BE       		.byte	0xbe
 455 0159 57020000 		.4byte	0x257
ARM GAS  C:\Users\jo\AppData\Local\Temp\cc9hVPTd.s 			page 9


 456 015d 07       		.uleb128 0x7
 457 015e ED050000 		.4byte	.LASF29
 458 0162 06       		.byte	0x6
 459 0163 BF       		.byte	0xbf
 460 0164 E8070000 		.4byte	0x7e8
 461 0168 00       		.byte	0
 462 0169 07       		.uleb128 0x7
 463 016a 75050000 		.4byte	.LASF30
 464 016e 06       		.byte	0x6
 465 016f C1       		.byte	0xc1
 466 0170 E8070000 		.4byte	0x7e8
 467 0174 04       		.byte	0x4
 468 0175 07       		.uleb128 0x7
 469 0176 11010000 		.4byte	.LASF31
 470 017a 06       		.byte	0x6
 471 017b C3       		.byte	0xc3
 472 017c 04010000 		.4byte	0x104
 473 0180 08       		.byte	0x8
 474 0181 07       		.uleb128 0x7
 475 0182 9F070000 		.4byte	.LASF32
 476 0186 06       		.byte	0x6
 477 0187 C4       		.byte	0xc4
 478 0188 03070000 		.4byte	0x703
 479 018c 0C       		.byte	0xc
 480 018d 07       		.uleb128 0x7
 481 018e 03020000 		.4byte	.LASF33
 482 0192 06       		.byte	0x6
 483 0193 C6       		.byte	0xc6
 484 0194 E8070000 		.4byte	0x7e8
 485 0198 10       		.byte	0x10
 486 0199 07       		.uleb128 0x7
 487 019a E9040000 		.4byte	.LASF34
 488 019e 06       		.byte	0x6
 489 019f C7       		.byte	0xc7
 490 01a0 E8070000 		.4byte	0x7e8
 491 01a4 14       		.byte	0x14
 492 01a5 07       		.uleb128 0x7
 493 01a6 53070000 		.4byte	.LASF35
 494 01aa 06       		.byte	0x6
 495 01ab CE       		.byte	0xce
 496 01ac A4070000 		.4byte	0x7a4
 497 01b0 18       		.byte	0x18
 498 01b1 07       		.uleb128 0x7
 499 01b2 80020000 		.4byte	.LASF36
 500 01b6 06       		.byte	0x6
 501 01b7 D4       		.byte	0xd4
 502 01b8 32090000 		.4byte	0x932
 503 01bc 1C       		.byte	0x1c
 504 01bd 07       		.uleb128 0x7
 505 01be CD050000 		.4byte	.LASF37
 506 01c2 06       		.byte	0x6
 507 01c3 D9       		.byte	0xd9
 508 01c4 EE000000 		.4byte	0xee
 509 01c8 20       		.byte	0x20
 510 01c9 07       		.uleb128 0x7
 511 01ca F4050000 		.4byte	.LASF38
 512 01ce 06       		.byte	0x6
ARM GAS  C:\Users\jo\AppData\Local\Temp\cc9hVPTd.s 			page 10


 513 01cf DD       		.byte	0xdd
 514 01d0 E3000000 		.4byte	0xe3
 515 01d4 21       		.byte	0x21
 516 01d5 07       		.uleb128 0x7
 517 01d6 2A070000 		.4byte	.LASF39
 518 01da 06       		.byte	0x6
 519 01db E2       		.byte	0xe2
 520 01dc F9000000 		.4byte	0xf9
 521 01e0 22       		.byte	0x22
 522 01e1 08       		.uleb128 0x8
 523 01e2 705F7500 		.ascii	"p_u\000"
 524 01e6 06       		.byte	0x6
 525 01e7 1401     		.2byte	0x114
 526 01e9 FA080000 		.4byte	0x8fa
 527 01ed 24       		.byte	0x24
 528 01ee 09       		.uleb128 0x9
 529 01ef 9C040000 		.4byte	.LASF40
 530 01f3 06       		.byte	0x6
 531 01f4 1901     		.2byte	0x119
 532 01f6 57020000 		.4byte	0x257
 533 01fa 28       		.byte	0x28
 534 01fb 09       		.uleb128 0x9
 535 01fc A0020000 		.4byte	.LASF41
 536 0200 06       		.byte	0x6
 537 0201 1F01     		.2byte	0x11f
 538 0203 7B020000 		.4byte	0x27b
 539 0207 2C       		.byte	0x2c
 540 0208 09       		.uleb128 0x9
 541 0209 7C070000 		.4byte	.LASF42
 542 020d 06       		.byte	0x6
 543 020e 2301     		.2byte	0x123
 544 0210 0F010000 		.4byte	0x10f
 545 0214 34       		.byte	0x34
 546 0215 09       		.uleb128 0x9
 547 0216 1D060000 		.4byte	.LASF43
 548 021a 06       		.byte	0x6
 549 021b 2901     		.2byte	0x129
 550 021d 1A010000 		.4byte	0x11a
 551 0221 38       		.byte	0x38
 552 0222 09       		.uleb128 0x9
 553 0223 B9050000 		.4byte	.LASF44
 554 0227 06       		.byte	0x6
 555 0228 3001     		.2byte	0x130
 556 022a 69090000 		.4byte	0x969
 557 022e 3C       		.byte	0x3c
 558 022f 09       		.uleb128 0x9
 559 0230 A3060000 		.4byte	.LASF45
 560 0234 06       		.byte	0x6
 561 0235 3401     		.2byte	0x134
 562 0237 04010000 		.4byte	0x104
 563 023b 40       		.byte	0x40
 564 023c 09       		.uleb128 0x9
 565 023d 97010000 		.4byte	.LASF46
 566 0241 06       		.byte	0x6
 567 0242 3A01     		.2byte	0x13a
 568 0244 2E030000 		.4byte	0x32e
 569 0248 44       		.byte	0x44
ARM GAS  C:\Users\jo\AppData\Local\Temp\cc9hVPTd.s 			page 11


 570 0249 09       		.uleb128 0x9
 571 024a FC050000 		.4byte	.LASF47
 572 024e 06       		.byte	0x6
 573 024f 4001     		.2byte	0x140
 574 0251 AB080000 		.4byte	0x8ab
 575 0255 48       		.byte	0x48
 576 0256 00       		.byte	0
 577 0257 04       		.uleb128 0x4
 578 0258 7D040000 		.4byte	.LASF48
 579 025c 05       		.byte	0x5
 580 025d 44       		.byte	0x44
 581 025e 62020000 		.4byte	0x262
 582 0262 06       		.uleb128 0x6
 583 0263 4C060000 		.4byte	.LASF50
 584 0267 04       		.byte	0x4
 585 0268 06       		.byte	0x6
 586 0269 AC       		.byte	0xac
 587 026a 7B020000 		.4byte	0x27b
 588 026e 07       		.uleb128 0x7
 589 026f ED050000 		.4byte	.LASF29
 590 0273 06       		.byte	0x6
 591 0274 AD       		.byte	0xad
 592 0275 E8070000 		.4byte	0x7e8
 593 0279 00       		.byte	0
 594 027a 00       		.byte	0
 595 027b 04       		.uleb128 0x4
 596 027c 1A070000 		.4byte	.LASF51
 597 0280 05       		.byte	0x5
 598 0281 4B       		.byte	0x4b
 599 0282 86020000 		.4byte	0x286
 600 0286 06       		.uleb128 0x6
 601 0287 4F000000 		.4byte	.LASF52
 602 028b 08       		.byte	0x8
 603 028c 06       		.byte	0x6
 604 028d B3       		.byte	0xb3
 605 028e AB020000 		.4byte	0x2ab
 606 0292 07       		.uleb128 0x7
 607 0293 ED050000 		.4byte	.LASF29
 608 0297 06       		.byte	0x6
 609 0298 B4       		.byte	0xb4
 610 0299 E8070000 		.4byte	0x7e8
 611 029d 00       		.byte	0
 612 029e 07       		.uleb128 0x7
 613 029f 75050000 		.4byte	.LASF30
 614 02a3 06       		.byte	0x6
 615 02a4 B5       		.byte	0xb5
 616 02a5 E8070000 		.4byte	0x7e8
 617 02a9 04       		.byte	0x4
 618 02aa 00       		.byte	0
 619 02ab 04       		.uleb128 0x4
 620 02ac 07000000 		.4byte	.LASF53
 621 02b0 05       		.byte	0x5
 622 02b1 52       		.byte	0x52
 623 02b2 B6020000 		.4byte	0x2b6
 624 02b6 0A       		.uleb128 0xa
 625 02b7 74030000 		.4byte	.LASF54
 626 02bb 1C       		.byte	0x1c
ARM GAS  C:\Users\jo\AppData\Local\Temp\cc9hVPTd.s 			page 12


 627 02bc 06       		.byte	0x6
 628 02bd 7201     		.2byte	0x172
 629 02bf 12030000 		.4byte	0x312
 630 02c3 09       		.uleb128 0x9
 631 02c4 3B060000 		.4byte	.LASF55
 632 02c8 06       		.byte	0x6
 633 02c9 7301     		.2byte	0x173
 634 02cb 7B020000 		.4byte	0x27b
 635 02cf 00       		.byte	0
 636 02d0 09       		.uleb128 0x9
 637 02d1 DF050000 		.4byte	.LASF56
 638 02d5 06       		.byte	0x6
 639 02d6 7401     		.2byte	0x174
 640 02d8 04010000 		.4byte	0x104
 641 02dc 08       		.byte	0x8
 642 02dd 09       		.uleb128 0x9
 643 02de F1040000 		.4byte	.LASF57
 644 02e2 06       		.byte	0x6
 645 02e3 7601     		.2byte	0x176
 646 02e5 03070000 		.4byte	0x703
 647 02e9 0C       		.byte	0xc
 648 02ea 09       		.uleb128 0x9
 649 02eb 1B020000 		.4byte	.LASF58
 650 02ef 06       		.byte	0x6
 651 02f0 7901     		.2byte	0x179
 652 02f2 E8070000 		.4byte	0x7e8
 653 02f6 10       		.byte	0x10
 654 02f7 09       		.uleb128 0x9
 655 02f8 F0060000 		.4byte	.LASF59
 656 02fc 06       		.byte	0x6
 657 02fd 7A01     		.2byte	0x17a
 658 02ff E8070000 		.4byte	0x7e8
 659 0303 14       		.byte	0x14
 660 0304 09       		.uleb128 0x9
 661 0305 12050000 		.4byte	.LASF60
 662 0309 06       		.byte	0x6
 663 030a 7D01     		.2byte	0x17d
 664 030c E8070000 		.4byte	0x7e8
 665 0310 18       		.byte	0x18
 666 0311 00       		.byte	0
 667 0312 04       		.uleb128 0x4
 668 0313 AE060000 		.4byte	.LASF61
 669 0317 05       		.byte	0x5
 670 0318 57       		.byte	0x57
 671 0319 1D030000 		.4byte	0x31d
 672 031d 0B       		.uleb128 0xb
 673 031e 04       		.byte	0x4
 674 031f 23030000 		.4byte	0x323
 675 0323 0C       		.uleb128 0xc
 676 0324 2E030000 		.4byte	0x32e
 677 0328 0D       		.uleb128 0xd
 678 0329 2E030000 		.4byte	0x32e
 679 032d 00       		.byte	0
 680 032e 0E       		.uleb128 0xe
 681 032f 04       		.byte	0x4
 682 0330 04       		.uleb128 0x4
 683 0331 8C040000 		.4byte	.LASF62
ARM GAS  C:\Users\jo\AppData\Local\Temp\cc9hVPTd.s 			page 13


 684 0335 05       		.byte	0x5
 685 0336 5C       		.byte	0x5c
 686 0337 3B030000 		.4byte	0x33b
 687 033b 0A       		.uleb128 0xa
 688 033c 0C060000 		.4byte	.LASF63
 689 0340 14       		.byte	0x14
 690 0341 06       		.byte	0x6
 691 0342 4D01     		.2byte	0x14d
 692 0344 8A030000 		.4byte	0x38a
 693 0348 09       		.uleb128 0x9
 694 0349 98020000 		.4byte	.LASF64
 695 034d 06       		.byte	0x6
 696 034e 4E01     		.2byte	0x14e
 697 0350 6F090000 		.4byte	0x96f
 698 0354 00       		.byte	0
 699 0355 09       		.uleb128 0x9
 700 0356 2C020000 		.4byte	.LASF65
 701 035a 06       		.byte	0x6
 702 035b 4F01     		.2byte	0x14f
 703 035d 6F090000 		.4byte	0x96f
 704 0361 04       		.byte	0x4
 705 0362 09       		.uleb128 0x9
 706 0363 43060000 		.4byte	.LASF66
 707 0367 06       		.byte	0x6
 708 0368 5001     		.2byte	0x150
 709 036a 3B010000 		.4byte	0x13b
 710 036e 08       		.byte	0x8
 711 036f 09       		.uleb128 0x9
 712 0370 A5070000 		.4byte	.LASF67
 713 0374 06       		.byte	0x6
 714 0375 5101     		.2byte	0x151
 715 0377 12030000 		.4byte	0x312
 716 037b 0C       		.byte	0xc
 717 037c 09       		.uleb128 0x9
 718 037d 0D070000 		.4byte	.LASF68
 719 0381 06       		.byte	0x6
 720 0382 5301     		.2byte	0x153
 721 0384 2E030000 		.4byte	0x32e
 722 0388 10       		.byte	0x10
 723 0389 00       		.byte	0
 724 038a 04       		.uleb128 0x4
 725 038b DB000000 		.4byte	.LASF69
 726 038f 05       		.byte	0x5
 727 0390 61       		.byte	0x61
 728 0391 95030000 		.4byte	0x395
 729 0395 0A       		.uleb128 0xa
 730 0396 AF040000 		.4byte	.LASF70
 731 039a 10       		.byte	0x10
 732 039b 06       		.byte	0x6
 733 039c 5D01     		.2byte	0x15d
 734 039e D7030000 		.4byte	0x3d7
 735 03a2 09       		.uleb128 0x9
 736 03a3 98020000 		.4byte	.LASF64
 737 03a7 06       		.byte	0x6
 738 03a8 5E01     		.2byte	0x15e
 739 03aa 6F090000 		.4byte	0x96f
 740 03ae 00       		.byte	0
ARM GAS  C:\Users\jo\AppData\Local\Temp\cc9hVPTd.s 			page 14


 741 03af 09       		.uleb128 0x9
 742 03b0 2C020000 		.4byte	.LASF65
 743 03b4 06       		.byte	0x6
 744 03b5 6001     		.2byte	0x160
 745 03b7 6F090000 		.4byte	0x96f
 746 03bb 04       		.byte	0x4
 747 03bc 09       		.uleb128 0x9
 748 03bd 43060000 		.4byte	.LASF66
 749 03c1 06       		.byte	0x6
 750 03c2 6201     		.2byte	0x162
 751 03c4 3B010000 		.4byte	0x13b
 752 03c8 08       		.byte	0x8
 753 03c9 09       		.uleb128 0x9
 754 03ca DD040000 		.4byte	.LASF71
 755 03ce 06       		.byte	0x6
 756 03cf 6A01     		.2byte	0x16a
 757 03d1 3B010000 		.4byte	0x13b
 758 03d5 0C       		.byte	0xc
 759 03d6 00       		.byte	0
 760 03d7 04       		.uleb128 0x4
 761 03d8 60000000 		.4byte	.LASF72
 762 03dc 05       		.byte	0x5
 763 03dd 66       		.byte	0x66
 764 03de E2030000 		.4byte	0x3e2
 765 03e2 0F       		.uleb128 0xf
 766 03e3 39020000 		.4byte	.LASF73
 767 03e7 1404     		.2byte	0x414
 768 03e9 06       		.byte	0x6
 769 03ea 8401     		.2byte	0x184
 770 03ec 25040000 		.4byte	0x425
 771 03f0 09       		.uleb128 0x9
 772 03f1 C7060000 		.4byte	.LASF74
 773 03f5 06       		.byte	0x6
 774 03f6 8C01     		.2byte	0x18c
 775 03f8 75090000 		.4byte	0x975
 776 03fc 00       		.byte	0
 777 03fd 09       		.uleb128 0x9
 778 03fe 31070000 		.4byte	.LASF75
 779 0402 06       		.byte	0x6
 780 0403 9101     		.2byte	0x191
 781 0405 25010000 		.4byte	0x125
 782 0409 04       		.byte	0x4
 783 040a 09       		.uleb128 0x9
 784 040b 62020000 		.4byte	.LASF76
 785 040f 06       		.byte	0x6
 786 0410 9501     		.2byte	0x195
 787 0412 25010000 		.4byte	0x125
 788 0416 08       		.byte	0x8
 789 0417 09       		.uleb128 0x9
 790 0418 6F070000 		.4byte	.LASF77
 791 041c 06       		.byte	0x6
 792 041d 9B01     		.2byte	0x19b
 793 041f 3D080000 		.4byte	0x83d
 794 0423 0C       		.byte	0xc
 795 0424 00       		.byte	0
 796 0425 04       		.uleb128 0x4
 797 0426 49030000 		.4byte	.LASF78
ARM GAS  C:\Users\jo\AppData\Local\Temp\cc9hVPTd.s 			page 15


 798 042a 05       		.byte	0x5
 799 042b 6B       		.byte	0x6b
 800 042c 30040000 		.4byte	0x430
 801 0430 0F       		.uleb128 0xf
 802 0431 C6010000 		.4byte	.LASF79
 803 0435 D805     		.2byte	0x5d8
 804 0437 06       		.byte	0x6
 805 0438 A401     		.2byte	0x1a4
 806 043a 9D040000 		.4byte	0x49d
 807 043e 09       		.uleb128 0x9
 808 043f 3E070000 		.4byte	.LASF80
 809 0443 06       		.byte	0x6
 810 0444 A801     		.2byte	0x1a8
 811 0446 AB020000 		.4byte	0x2ab
 812 044a 00       		.byte	0
 813 044b 09       		.uleb128 0x9
 814 044c A7010000 		.4byte	.LASF81
 815 0450 06       		.byte	0x6
 816 0451 AC01     		.2byte	0x1ac
 817 0453 8A030000 		.4byte	0x38a
 818 0457 1C       		.byte	0x1c
 819 0458 08       		.uleb128 0x8
 820 0459 64626700 		.ascii	"dbg\000"
 821 045d 06       		.byte	0x6
 822 045e B001     		.2byte	0x1b0
 823 0460 D7030000 		.4byte	0x3d7
 824 0464 2C       		.byte	0x2c
 825 0465 10       		.uleb128 0x10
 826 0466 D0000000 		.4byte	.LASF82
 827 046a 06       		.byte	0x6
 828 046b B401     		.2byte	0x1b4
 829 046d 46010000 		.4byte	0x146
 830 0471 4004     		.2byte	0x440
 831 0473 11       		.uleb128 0x11
 832 0474 746D00   		.ascii	"tm\000"
 833 0477 06       		.byte	0x6
 834 0478 B901     		.2byte	0x1b9
 835 047a 5D080000 		.4byte	0x85d
 836 047e A004     		.2byte	0x4a0
 837 0480 10       		.uleb128 0x10
 838 0481 2C000000 		.4byte	.LASF83
 839 0485 06       		.byte	0x6
 840 0486 BF01     		.2byte	0x1bf
 841 0488 EF080000 		.4byte	0x8ef
 842 048c A804     		.2byte	0x4a8
 843 048e 10       		.uleb128 0x10
 844 048f 6B020000 		.4byte	.LASF84
 845 0493 06       		.byte	0x6
 846 0494 C501     		.2byte	0x1c5
 847 0496 7A090000 		.4byte	0x97a
 848 049a E004     		.2byte	0x4e0
 849 049c 00       		.byte	0
 850 049d 03       		.uleb128 0x3
 851 049e 04       		.byte	0x4
 852 049f 07       		.byte	0x7
 853 04a0 A6040000 		.4byte	.LASF85
 854 04a4 12       		.uleb128 0x12
ARM GAS  C:\Users\jo\AppData\Local\Temp\cc9hVPTd.s 			page 16


 855 04a5 AD000000 		.4byte	0xad
 856 04a9 B4040000 		.4byte	0x4b4
 857 04ad 13       		.uleb128 0x13
 858 04ae 9D040000 		.4byte	0x49d
 859 04b2 01       		.byte	0x1
 860 04b3 00       		.byte	0
 861 04b4 14       		.uleb128 0x14
 862 04b5 1C       		.byte	0x1c
 863 04b6 07       		.byte	0x7
 864 04b7 DA01     		.2byte	0x1da
 865 04b9 17050000 		.4byte	0x517
 866 04bd 08       		.uleb128 0x8
 867 04be 41435200 		.ascii	"ACR\000"
 868 04c2 07       		.byte	0x7
 869 04c3 DC01     		.2byte	0x1dc
 870 04c5 C8000000 		.4byte	0xc8
 871 04c9 00       		.byte	0
 872 04ca 09       		.uleb128 0x9
 873 04cb 34020000 		.4byte	.LASF86
 874 04cf 07       		.byte	0x7
 875 04d0 DD01     		.2byte	0x1dd
 876 04d2 C8000000 		.4byte	0xc8
 877 04d6 04       		.byte	0x4
 878 04d7 09       		.uleb128 0x9
 879 04d8 FB010000 		.4byte	.LASF87
 880 04dc 07       		.byte	0x7
 881 04dd DE01     		.2byte	0x1de
 882 04df C8000000 		.4byte	0xc8
 883 04e3 08       		.byte	0x8
 884 04e4 08       		.uleb128 0x8
 885 04e5 535200   		.ascii	"SR\000"
 886 04e8 07       		.byte	0x7
 887 04e9 DF01     		.2byte	0x1df
 888 04eb C8000000 		.4byte	0xc8
 889 04ef 0C       		.byte	0xc
 890 04f0 08       		.uleb128 0x8
 891 04f1 435200   		.ascii	"CR\000"
 892 04f4 07       		.byte	0x7
 893 04f5 E001     		.2byte	0x1e0
 894 04f7 C8000000 		.4byte	0xc8
 895 04fb 10       		.byte	0x10
 896 04fc 09       		.uleb128 0x9
 897 04fd 6F000000 		.4byte	.LASF88
 898 0501 07       		.byte	0x7
 899 0502 E101     		.2byte	0x1e1
 900 0504 C8000000 		.4byte	0xc8
 901 0508 14       		.byte	0x14
 902 0509 09       		.uleb128 0x9
 903 050a 7B000000 		.4byte	.LASF89
 904 050e 07       		.byte	0x7
 905 050f E201     		.2byte	0x1e2
 906 0511 C8000000 		.4byte	0xc8
 907 0515 18       		.byte	0x18
 908 0516 00       		.byte	0
 909 0517 15       		.uleb128 0x15
 910 0518 89010000 		.4byte	.LASF90
 911 051c 07       		.byte	0x7
ARM GAS  C:\Users\jo\AppData\Local\Temp\cc9hVPTd.s 			page 17


 912 051d E301     		.2byte	0x1e3
 913 051f B4040000 		.4byte	0x4b4
 914 0523 14       		.uleb128 0x14
 915 0524 08       		.byte	0x8
 916 0525 07       		.byte	0x7
 917 0526 5D02     		.2byte	0x25d
 918 0528 46050000 		.4byte	0x546
 919 052c 08       		.uleb128 0x8
 920 052d 435200   		.ascii	"CR\000"
 921 0530 07       		.byte	0x7
 922 0531 5F02     		.2byte	0x25f
 923 0533 C8000000 		.4byte	0xc8
 924 0537 00       		.byte	0
 925 0538 08       		.uleb128 0x8
 926 0539 43535200 		.ascii	"CSR\000"
 927 053d 07       		.byte	0x7
 928 053e 6002     		.2byte	0x260
 929 0540 C8000000 		.4byte	0xc8
 930 0544 04       		.byte	0x4
 931 0545 00       		.byte	0
 932 0546 15       		.uleb128 0x15
 933 0547 AE010000 		.4byte	.LASF91
 934 054b 07       		.byte	0x7
 935 054c 6102     		.2byte	0x261
 936 054e 23050000 		.4byte	0x523
 937 0552 14       		.uleb128 0x14
 938 0553 88       		.byte	0x88
 939 0554 07       		.byte	0x7
 940 0555 6702     		.2byte	0x267
 941 0557 E1060000 		.4byte	0x6e1
 942 055b 08       		.uleb128 0x8
 943 055c 435200   		.ascii	"CR\000"
 944 055f 07       		.byte	0x7
 945 0560 6902     		.2byte	0x269
 946 0562 C8000000 		.4byte	0xc8
 947 0566 00       		.byte	0
 948 0567 09       		.uleb128 0x9
 949 0568 0B020000 		.4byte	.LASF92
 950 056c 07       		.byte	0x7
 951 056d 6A02     		.2byte	0x26a
 952 056f C8000000 		.4byte	0xc8
 953 0573 04       		.byte	0x4
 954 0574 09       		.uleb128 0x9
 955 0575 62070000 		.4byte	.LASF93
 956 0579 07       		.byte	0x7
 957 057a 6B02     		.2byte	0x26b
 958 057c C8000000 		.4byte	0xc8
 959 0580 08       		.byte	0x8
 960 0581 08       		.uleb128 0x8
 961 0582 43495200 		.ascii	"CIR\000"
 962 0586 07       		.byte	0x7
 963 0587 6C02     		.2byte	0x26c
 964 0589 C8000000 		.4byte	0xc8
 965 058d 0C       		.byte	0xc
 966 058e 09       		.uleb128 0x9
 967 058f 80010000 		.4byte	.LASF94
 968 0593 07       		.byte	0x7
ARM GAS  C:\Users\jo\AppData\Local\Temp\cc9hVPTd.s 			page 18


 969 0594 6D02     		.2byte	0x26d
 970 0596 C8000000 		.4byte	0xc8
 971 059a 10       		.byte	0x10
 972 059b 09       		.uleb128 0x9
 973 059c 7B060000 		.4byte	.LASF95
 974 05a0 07       		.byte	0x7
 975 05a1 6E02     		.2byte	0x26e
 976 05a3 C8000000 		.4byte	0xc8
 977 05a7 14       		.byte	0x14
 978 05a8 09       		.uleb128 0x9
 979 05a9 1E030000 		.4byte	.LASF96
 980 05ad 07       		.byte	0x7
 981 05ae 6F02     		.2byte	0x26f
 982 05b0 C8000000 		.4byte	0xc8
 983 05b4 18       		.byte	0x18
 984 05b5 09       		.uleb128 0x9
 985 05b6 43050000 		.4byte	.LASF97
 986 05ba 07       		.byte	0x7
 987 05bb 7002     		.2byte	0x270
 988 05bd AD000000 		.4byte	0xad
 989 05c1 1C       		.byte	0x1c
 990 05c2 09       		.uleb128 0x9
 991 05c3 1C050000 		.4byte	.LASF98
 992 05c7 07       		.byte	0x7
 993 05c8 7102     		.2byte	0x271
 994 05ca C8000000 		.4byte	0xc8
 995 05ce 20       		.byte	0x20
 996 05cf 09       		.uleb128 0x9
 997 05d0 D9010000 		.4byte	.LASF99
 998 05d4 07       		.byte	0x7
 999 05d5 7202     		.2byte	0x272
 1000 05d7 C8000000 		.4byte	0xc8
 1001 05db 24       		.byte	0x24
 1002 05dc 09       		.uleb128 0x9
 1003 05dd 4D050000 		.4byte	.LASF100
 1004 05e1 07       		.byte	0x7
 1005 05e2 7302     		.2byte	0x273
 1006 05e4 A4040000 		.4byte	0x4a4
 1007 05e8 28       		.byte	0x28
 1008 05e9 09       		.uleb128 0x9
 1009 05ea 5A070000 		.4byte	.LASF101
 1010 05ee 07       		.byte	0x7
 1011 05ef 7402     		.2byte	0x274
 1012 05f1 C8000000 		.4byte	0xc8
 1013 05f5 30       		.byte	0x30
 1014 05f6 09       		.uleb128 0x9
 1015 05f7 E0060000 		.4byte	.LASF102
 1016 05fb 07       		.byte	0x7
 1017 05fc 7502     		.2byte	0x275
 1018 05fe C8000000 		.4byte	0xc8
 1019 0602 34       		.byte	0x34
 1020 0603 09       		.uleb128 0x9
 1021 0604 D5040000 		.4byte	.LASF103
 1022 0608 07       		.byte	0x7
 1023 0609 7602     		.2byte	0x276
 1024 060b C8000000 		.4byte	0xc8
 1025 060f 38       		.byte	0x38
ARM GAS  C:\Users\jo\AppData\Local\Temp\cc9hVPTd.s 			page 19


 1026 0610 09       		.uleb128 0x9
 1027 0611 57050000 		.4byte	.LASF104
 1028 0615 07       		.byte	0x7
 1029 0616 7702     		.2byte	0x277
 1030 0618 AD000000 		.4byte	0xad
 1031 061c 3C       		.byte	0x3c
 1032 061d 09       		.uleb128 0x9
 1033 061e D8060000 		.4byte	.LASF105
 1034 0622 07       		.byte	0x7
 1035 0623 7802     		.2byte	0x278
 1036 0625 C8000000 		.4byte	0xc8
 1037 0629 40       		.byte	0x40
 1038 062a 09       		.uleb128 0x9
 1039 062b 04060000 		.4byte	.LASF106
 1040 062f 07       		.byte	0x7
 1041 0630 7902     		.2byte	0x279
 1042 0632 C8000000 		.4byte	0xc8
 1043 0636 44       		.byte	0x44
 1044 0637 09       		.uleb128 0x9
 1045 0638 61050000 		.4byte	.LASF107
 1046 063c 07       		.byte	0x7
 1047 063d 7A02     		.2byte	0x27a
 1048 063f A4040000 		.4byte	0x4a4
 1049 0643 48       		.byte	0x48
 1050 0644 09       		.uleb128 0x9
 1051 0645 07010000 		.4byte	.LASF108
 1052 0649 07       		.byte	0x7
 1053 064a 7B02     		.2byte	0x27b
 1054 064c C8000000 		.4byte	0xc8
 1055 0650 50       		.byte	0x50
 1056 0651 09       		.uleb128 0x9
 1057 0652 F7040000 		.4byte	.LASF109
 1058 0656 07       		.byte	0x7
 1059 0657 7C02     		.2byte	0x27c
 1060 0659 C8000000 		.4byte	0xc8
 1061 065d 54       		.byte	0x54
 1062 065e 09       		.uleb128 0x9
 1063 065f D5050000 		.4byte	.LASF110
 1064 0663 07       		.byte	0x7
 1065 0664 7D02     		.2byte	0x27d
 1066 0666 C8000000 		.4byte	0xc8
 1067 066a 58       		.byte	0x58
 1068 066b 09       		.uleb128 0x9
 1069 066c 6B050000 		.4byte	.LASF111
 1070 0670 07       		.byte	0x7
 1071 0671 7E02     		.2byte	0x27e
 1072 0673 AD000000 		.4byte	0xad
 1073 0677 5C       		.byte	0x5c
 1074 0678 09       		.uleb128 0x9
 1075 0679 E2010000 		.4byte	.LASF112
 1076 067d 07       		.byte	0x7
 1077 067e 7F02     		.2byte	0x27f
 1078 0680 C8000000 		.4byte	0xc8
 1079 0684 60       		.byte	0x60
 1080 0685 09       		.uleb128 0x9
 1081 0686 5F030000 		.4byte	.LASF113
 1082 068a 07       		.byte	0x7
ARM GAS  C:\Users\jo\AppData\Local\Temp\cc9hVPTd.s 			page 20


 1083 068b 8002     		.2byte	0x280
 1084 068d C8000000 		.4byte	0xc8
 1085 0691 64       		.byte	0x64
 1086 0692 09       		.uleb128 0x9
 1087 0693 28060000 		.4byte	.LASF114
 1088 0697 07       		.byte	0x7
 1089 0698 8102     		.2byte	0x281
 1090 069a A4040000 		.4byte	0x4a4
 1091 069e 68       		.byte	0x68
 1092 069f 09       		.uleb128 0x9
 1093 06a0 39070000 		.4byte	.LASF115
 1094 06a4 07       		.byte	0x7
 1095 06a5 8202     		.2byte	0x282
 1096 06a7 C8000000 		.4byte	0xc8
 1097 06ab 70       		.byte	0x70
 1098 06ac 08       		.uleb128 0x8
 1099 06ad 43535200 		.ascii	"CSR\000"
 1100 06b1 07       		.byte	0x7
 1101 06b2 8302     		.2byte	0x283
 1102 06b4 C8000000 		.4byte	0xc8
 1103 06b8 74       		.byte	0x74
 1104 06b9 09       		.uleb128 0x9
 1105 06ba 7C050000 		.4byte	.LASF116
 1106 06be 07       		.byte	0x7
 1107 06bf 8402     		.2byte	0x284
 1108 06c1 A4040000 		.4byte	0x4a4
 1109 06c5 78       		.byte	0x78
 1110 06c6 09       		.uleb128 0x9
 1111 06c7 14070000 		.4byte	.LASF117
 1112 06cb 07       		.byte	0x7
 1113 06cc 8502     		.2byte	0x285
 1114 06ce C8000000 		.4byte	0xc8
 1115 06d2 80       		.byte	0x80
 1116 06d3 09       		.uleb128 0x9
 1117 06d4 0D030000 		.4byte	.LASF118
 1118 06d8 07       		.byte	0x7
 1119 06d9 8602     		.2byte	0x286
 1120 06db C8000000 		.4byte	0xc8
 1121 06df 84       		.byte	0x84
 1122 06e0 00       		.byte	0
 1123 06e1 15       		.uleb128 0x15
 1124 06e2 BA010000 		.4byte	.LASF119
 1125 06e6 07       		.byte	0x7
 1126 06e7 8802     		.2byte	0x288
 1127 06e9 52050000 		.4byte	0x552
 1128 06ed 04       		.uleb128 0x4
 1129 06ee 23020000 		.4byte	.LASF120
 1130 06f2 08       		.byte	0x8
 1131 06f3 85       		.byte	0x85
 1132 06f4 2E030000 		.4byte	0x32e
 1133 06f8 04       		.uleb128 0x4
 1134 06f9 72040000 		.4byte	.LASF121
 1135 06fd 08       		.byte	0x8
 1136 06fe 8D       		.byte	0x8d
 1137 06ff B8000000 		.4byte	0xb8
 1138 0703 06       		.uleb128 0x6
 1139 0704 E8060000 		.4byte	.LASF122
ARM GAS  C:\Users\jo\AppData\Local\Temp\cc9hVPTd.s 			page 21


 1140 0708 04       		.byte	0x4
 1141 0709 08       		.byte	0x8
 1142 070a A9       		.byte	0xa9
 1143 070b 1C070000 		.4byte	0x71c
 1144 070f 16       		.uleb128 0x16
 1145 0710 72313300 		.ascii	"r13\000"
 1146 0714 08       		.byte	0x8
 1147 0715 AA       		.byte	0xaa
 1148 0716 97070000 		.4byte	0x797
 1149 071a 00       		.byte	0
 1150 071b 00       		.byte	0
 1151 071c 06       		.uleb128 0x6
 1152 071d 43000000 		.4byte	.LASF123
 1153 0721 24       		.byte	0x24
 1154 0722 09       		.byte	0x9
 1155 0723 F4       		.byte	0xf4
 1156 0724 97070000 		.4byte	0x797
 1157 0728 08       		.uleb128 0x8
 1158 0729 723400   		.ascii	"r4\000"
 1159 072c 09       		.byte	0x9
 1160 072d 0701     		.2byte	0x107
 1161 072f ED060000 		.4byte	0x6ed
 1162 0733 00       		.byte	0
 1163 0734 08       		.uleb128 0x8
 1164 0735 723500   		.ascii	"r5\000"
 1165 0738 09       		.byte	0x9
 1166 0739 0801     		.2byte	0x108
 1167 073b ED060000 		.4byte	0x6ed
 1168 073f 04       		.byte	0x4
 1169 0740 08       		.uleb128 0x8
 1170 0741 723600   		.ascii	"r6\000"
 1171 0744 09       		.byte	0x9
 1172 0745 0901     		.2byte	0x109
 1173 0747 ED060000 		.4byte	0x6ed
 1174 074b 08       		.byte	0x8
 1175 074c 08       		.uleb128 0x8
 1176 074d 723700   		.ascii	"r7\000"
 1177 0750 09       		.byte	0x9
 1178 0751 0A01     		.2byte	0x10a
 1179 0753 ED060000 		.4byte	0x6ed
 1180 0757 0C       		.byte	0xc
 1181 0758 08       		.uleb128 0x8
 1182 0759 723800   		.ascii	"r8\000"
 1183 075c 09       		.byte	0x9
 1184 075d 0B01     		.2byte	0x10b
 1185 075f ED060000 		.4byte	0x6ed
 1186 0763 10       		.byte	0x10
 1187 0764 08       		.uleb128 0x8
 1188 0765 723900   		.ascii	"r9\000"
 1189 0768 09       		.byte	0x9
 1190 0769 0C01     		.2byte	0x10c
 1191 076b ED060000 		.4byte	0x6ed
 1192 076f 14       		.byte	0x14
 1193 0770 08       		.uleb128 0x8
 1194 0771 72313000 		.ascii	"r10\000"
 1195 0775 09       		.byte	0x9
 1196 0776 0D01     		.2byte	0x10d
ARM GAS  C:\Users\jo\AppData\Local\Temp\cc9hVPTd.s 			page 22


 1197 0778 ED060000 		.4byte	0x6ed
 1198 077c 18       		.byte	0x18
 1199 077d 08       		.uleb128 0x8
 1200 077e 72313100 		.ascii	"r11\000"
 1201 0782 09       		.byte	0x9
 1202 0783 0E01     		.2byte	0x10e
 1203 0785 ED060000 		.4byte	0x6ed
 1204 0789 1C       		.byte	0x1c
 1205 078a 08       		.uleb128 0x8
 1206 078b 6C7200   		.ascii	"lr\000"
 1207 078e 09       		.byte	0x9
 1208 078f 0F01     		.2byte	0x10f
 1209 0791 ED060000 		.4byte	0x6ed
 1210 0795 20       		.byte	0x20
 1211 0796 00       		.byte	0
 1212 0797 0B       		.uleb128 0xb
 1213 0798 04       		.byte	0x4
 1214 0799 1C070000 		.4byte	0x71c
 1215 079d 03       		.uleb128 0x3
 1216 079e 01       		.byte	0x1
 1217 079f 08       		.byte	0x8
 1218 07a0 76060000 		.4byte	.LASF124
 1219 07a4 0B       		.uleb128 0xb
 1220 07a5 04       		.byte	0x4
 1221 07a6 AA070000 		.4byte	0x7aa
 1222 07aa 17       		.uleb128 0x17
 1223 07ab 9D070000 		.4byte	0x79d
 1224 07af 18       		.uleb128 0x18
 1225 07b0 10       		.byte	0x10
 1226 07b1 0A       		.byte	0xa
 1227 07b2 57       		.byte	0x57
 1228 07b3 E8070000 		.4byte	0x7e8
 1229 07b7 07       		.uleb128 0x7
 1230 07b8 14000000 		.4byte	.LASF125
 1231 07bc 0A       		.byte	0xa
 1232 07bd 5B       		.byte	0x5b
 1233 07be 3B010000 		.4byte	0x13b
 1234 07c2 00       		.byte	0
 1235 07c3 07       		.uleb128 0x7
 1236 07c4 F5010000 		.4byte	.LASF126
 1237 07c8 0A       		.byte	0xa
 1238 07c9 5F       		.byte	0x5f
 1239 07ca E8070000 		.4byte	0x7e8
 1240 07ce 04       		.byte	0x4
 1241 07cf 07       		.uleb128 0x7
 1242 07d0 95070000 		.4byte	.LASF127
 1243 07d4 0A       		.byte	0xa
 1244 07d5 63       		.byte	0x63
 1245 07d6 2E030000 		.4byte	0x32e
 1246 07da 08       		.byte	0x8
 1247 07db 07       		.uleb128 0x7
 1248 07dc BE000000 		.4byte	.LASF128
 1249 07e0 0A       		.byte	0xa
 1250 07e1 67       		.byte	0x67
 1251 07e2 97000000 		.4byte	0x97
 1252 07e6 0C       		.byte	0xc
 1253 07e7 00       		.byte	0
ARM GAS  C:\Users\jo\AppData\Local\Temp\cc9hVPTd.s 			page 23


 1254 07e8 0B       		.uleb128 0xb
 1255 07e9 04       		.byte	0x4
 1256 07ea 46010000 		.4byte	0x146
 1257 07ee 04       		.uleb128 0x4
 1258 07ef C6040000 		.4byte	.LASF129
 1259 07f3 0A       		.byte	0xa
 1260 07f4 68       		.byte	0x68
 1261 07f5 AF070000 		.4byte	0x7af
 1262 07f9 19       		.uleb128 0x19
 1263 07fa 0804     		.2byte	0x408
 1264 07fc 0A       		.byte	0xa
 1265 07fd 6D       		.byte	0x6d
 1266 07fe 27080000 		.4byte	0x827
 1267 0802 07       		.uleb128 0x7
 1268 0803 13020000 		.4byte	.LASF130
 1269 0807 0A       		.byte	0xa
 1270 0808 71       		.byte	0x71
 1271 0809 2C000000 		.4byte	0x2c
 1272 080d 00       		.byte	0
 1273 080e 07       		.uleb128 0x7
 1274 080f 00000000 		.4byte	.LASF131
 1275 0813 0A       		.byte	0xa
 1276 0814 75       		.byte	0x75
 1277 0815 27080000 		.4byte	0x827
 1278 0819 04       		.byte	0x4
 1279 081a 07       		.uleb128 0x7
 1280 081b 55030000 		.4byte	.LASF132
 1281 081f 0A       		.byte	0xa
 1282 0820 79       		.byte	0x79
 1283 0821 2D080000 		.4byte	0x82d
 1284 0825 08       		.byte	0x8
 1285 0826 00       		.byte	0
 1286 0827 0B       		.uleb128 0xb
 1287 0828 04       		.byte	0x4
 1288 0829 EE070000 		.4byte	0x7ee
 1289 082d 12       		.uleb128 0x12
 1290 082e EE070000 		.4byte	0x7ee
 1291 0832 3D080000 		.4byte	0x83d
 1292 0836 13       		.uleb128 0x13
 1293 0837 9D040000 		.4byte	0x49d
 1294 083b 3F       		.byte	0x3f
 1295 083c 00       		.byte	0
 1296 083d 04       		.uleb128 0x4
 1297 083e AC000000 		.4byte	.LASF133
 1298 0842 0A       		.byte	0xa
 1299 0843 7A       		.byte	0x7a
 1300 0844 F9070000 		.4byte	0x7f9
 1301 0848 18       		.uleb128 0x18
 1302 0849 04       		.byte	0x4
 1303 084a 0B       		.byte	0xb
 1304 084b 38       		.byte	0x38
 1305 084c 5D080000 		.4byte	0x85d
 1306 0850 07       		.uleb128 0x7
 1307 0851 D1060000 		.4byte	.LASF134
 1308 0855 0B       		.byte	0xb
 1309 0856 3C       		.byte	0x3c
 1310 0857 CD000000 		.4byte	0xcd
ARM GAS  C:\Users\jo\AppData\Local\Temp\cc9hVPTd.s 			page 24


 1311 085b 00       		.byte	0
 1312 085c 00       		.byte	0
 1313 085d 04       		.uleb128 0x4
 1314 085e 01050000 		.4byte	.LASF135
 1315 0862 0B       		.byte	0xb
 1316 0863 3D       		.byte	0x3d
 1317 0864 48080000 		.4byte	0x848
 1318 0868 18       		.uleb128 0x18
 1319 0869 18       		.byte	0x18
 1320 086a 0B       		.byte	0xb
 1321 086b 48       		.byte	0x48
 1322 086c AB080000 		.4byte	0x8ab
 1323 0870 07       		.uleb128 0x7
 1324 0871 8D060000 		.4byte	.LASF136
 1325 0875 0B       		.byte	0xb
 1326 0876 49       		.byte	0x49
 1327 0877 CD000000 		.4byte	0xcd
 1328 087b 00       		.byte	0
 1329 087c 07       		.uleb128 0x7
 1330 087d 75000000 		.4byte	.LASF137
 1331 0881 0B       		.byte	0xb
 1332 0882 4A       		.byte	0x4a
 1333 0883 CD000000 		.4byte	0xcd
 1334 0887 04       		.byte	0x4
 1335 0888 07       		.uleb128 0x7
 1336 0889 C2060000 		.4byte	.LASF138
 1337 088d 0B       		.byte	0xb
 1338 088e 4B       		.byte	0x4b
 1339 088f CD000000 		.4byte	0xcd
 1340 0893 08       		.byte	0x8
 1341 0894 16       		.uleb128 0x16
 1342 0895 6E00     		.ascii	"n\000"
 1343 0897 0B       		.byte	0xb
 1344 0898 4C       		.byte	0x4c
 1345 0899 30010000 		.4byte	0x130
 1346 089d 0C       		.byte	0xc
 1347 089e 07       		.uleb128 0x7
 1348 089f 30050000 		.4byte	.LASF139
 1349 08a3 0B       		.byte	0xb
 1350 08a4 4D       		.byte	0x4d
 1351 08a5 D8000000 		.4byte	0xd8
 1352 08a9 10       		.byte	0x10
 1353 08aa 00       		.byte	0
 1354 08ab 04       		.uleb128 0x4
 1355 08ac 82000000 		.4byte	.LASF140
 1356 08b0 0B       		.byte	0xb
 1357 08b1 4E       		.byte	0x4e
 1358 08b2 68080000 		.4byte	0x868
 1359 08b6 18       		.uleb128 0x18
 1360 08b7 38       		.byte	0x38
 1361 08b8 0C       		.byte	0xc
 1362 08b9 38       		.byte	0x38
 1363 08ba EF080000 		.4byte	0x8ef
 1364 08be 07       		.uleb128 0x7
 1365 08bf DB020000 		.4byte	.LASF141
 1366 08c3 0C       		.byte	0xc
 1367 08c4 39       		.byte	0x39
ARM GAS  C:\Users\jo\AppData\Local\Temp\cc9hVPTd.s 			page 25


 1368 08c5 30010000 		.4byte	0x130
 1369 08c9 00       		.byte	0
 1370 08ca 07       		.uleb128 0x7
 1371 08cb 94050000 		.4byte	.LASF142
 1372 08cf 0C       		.byte	0xc
 1373 08d0 3A       		.byte	0x3a
 1374 08d1 30010000 		.4byte	0x130
 1375 08d5 04       		.byte	0x4
 1376 08d6 07       		.uleb128 0x7
 1377 08d7 82070000 		.4byte	.LASF143
 1378 08db 0C       		.byte	0xc
 1379 08dc 3B       		.byte	0x3b
 1380 08dd AB080000 		.4byte	0x8ab
 1381 08e1 08       		.byte	0x8
 1382 08e2 07       		.uleb128 0x7
 1383 08e3 69030000 		.4byte	.LASF144
 1384 08e7 0C       		.byte	0xc
 1385 08e8 3D       		.byte	0x3d
 1386 08e9 AB080000 		.4byte	0x8ab
 1387 08ed 20       		.byte	0x20
 1388 08ee 00       		.byte	0
 1389 08ef 04       		.uleb128 0x4
 1390 08f0 F4020000 		.4byte	.LASF145
 1391 08f4 0C       		.byte	0xc
 1392 08f5 3F       		.byte	0x3f
 1393 08f6 B6080000 		.4byte	0x8b6
 1394 08fa 1A       		.uleb128 0x1a
 1395 08fb 04       		.byte	0x4
 1396 08fc 06       		.byte	0x6
 1397 08fd F6       		.byte	0xf6
 1398 08fe 32090000 		.4byte	0x932
 1399 0902 1B       		.uleb128 0x1b
 1400 0903 1C000000 		.4byte	.LASF146
 1401 0907 06       		.byte	0x6
 1402 0908 FD       		.byte	0xfd
 1403 0909 0F010000 		.4byte	0x10f
 1404 090d 1C       		.uleb128 0x1c
 1405 090e C7000000 		.4byte	.LASF147
 1406 0912 06       		.byte	0x6
 1407 0913 0401     		.2byte	0x104
 1408 0915 0F010000 		.4byte	0x10f
 1409 0919 1C       		.uleb128 0x1c
 1410 091a 4C070000 		.4byte	.LASF148
 1411 091e 06       		.byte	0x6
 1412 091f 0B01     		.2byte	0x10b
 1413 0921 2E030000 		.4byte	0x32e
 1414 0925 1C       		.uleb128 0x1c
 1415 0926 E6050000 		.4byte	.LASF149
 1416 092a 06       		.byte	0x6
 1417 092b 1201     		.2byte	0x112
 1418 092d 1A010000 		.4byte	0x11a
 1419 0931 00       		.byte	0
 1420 0932 0B       		.uleb128 0xb
 1421 0933 04       		.byte	0x4
 1422 0934 F8060000 		.4byte	0x6f8
 1423 0938 06       		.uleb128 0x6
 1424 0939 8E050000 		.4byte	.LASF150
ARM GAS  C:\Users\jo\AppData\Local\Temp\cc9hVPTd.s 			page 26


 1425 093d 10       		.byte	0x10
 1426 093e 0D       		.byte	0xd
 1427 093f 39       		.byte	0x39
 1428 0940 69090000 		.4byte	0x969
 1429 0944 07       		.uleb128 0x7
 1430 0945 9F010000 		.4byte	.LASF151
 1431 0949 0D       		.byte	0xd
 1432 094a 3A       		.byte	0x3a
 1433 094b 7B020000 		.4byte	0x27b
 1434 094f 00       		.byte	0
 1435 0950 07       		.uleb128 0x7
 1436 0951 8D070000 		.4byte	.LASF152
 1437 0955 0D       		.byte	0xd
 1438 0956 3C       		.byte	0x3c
 1439 0957 E8070000 		.4byte	0x7e8
 1440 095b 08       		.byte	0x8
 1441 095c 07       		.uleb128 0x7
 1442 095d 92060000 		.4byte	.LASF153
 1443 0961 0D       		.byte	0xd
 1444 0962 3E       		.byte	0x3e
 1445 0963 95090000 		.4byte	0x995
 1446 0967 0C       		.byte	0xc
 1447 0968 00       		.byte	0
 1448 0969 0B       		.uleb128 0xb
 1449 096a 04       		.byte	0x4
 1450 096b 38090000 		.4byte	0x938
 1451 096f 0B       		.uleb128 0xb
 1452 0970 04       		.byte	0x4
 1453 0971 30030000 		.4byte	0x330
 1454 0975 05       		.uleb128 0x5
 1455 0976 A4070000 		.4byte	0x7a4
 1456 097a 12       		.uleb128 0x12
 1457 097b F8060000 		.4byte	0x6f8
 1458 097f 8A090000 		.4byte	0x98a
 1459 0983 13       		.uleb128 0x13
 1460 0984 9D040000 		.4byte	0x49d
 1461 0988 1E       		.byte	0x1e
 1462 0989 00       		.byte	0
 1463 098a 04       		.uleb128 0x4
 1464 098b 5A020000 		.4byte	.LASF154
 1465 098f 0D       		.byte	0xd
 1466 0990 34       		.byte	0x34
 1467 0991 38090000 		.4byte	0x938
 1468 0995 0B       		.uleb128 0xb
 1469 0996 04       		.byte	0x4
 1470 0997 8A090000 		.4byte	0x98a
 1471 099b 03       		.uleb128 0x3
 1472 099c 01       		.byte	0x1
 1473 099d 02       		.byte	0x2
 1474 099e 9D050000 		.4byte	.LASF155
 1475 09a2 1D       		.uleb128 0x1d
 1476 09a3 2E030000 		.4byte	.LASF160
 1477 09a7 01       		.byte	0x1
 1478 09a8 30       		.byte	0x30
 1479 09a9 01       		.byte	0x1
 1480 09aa 1E       		.uleb128 0x1e
 1481 09ab F8060000 		.4byte	.LASF161
ARM GAS  C:\Users\jo\AppData\Local\Temp\cc9hVPTd.s 			page 27


 1482 09af 01       		.byte	0x1
 1483 09b0 6C       		.byte	0x6c
 1484 09b1 00000000 		.4byte	.LFB256
 1485 09b5 90000000 		.4byte	.LFE256-.LFB256
 1486 09b9 01       		.uleb128 0x1
 1487 09ba 9C       		.byte	0x9c
 1488 09bb D8090000 		.4byte	0x9d8
 1489 09bf 1F       		.uleb128 0x1f
 1490 09c0 A2090000 		.4byte	0x9a2
 1491 09c4 18000000 		.4byte	.LBB4
 1492 09c8 00000000 		.4byte	.Ldebug_ranges0+0
 1493 09cc 01       		.byte	0x1
 1494 09cd 79       		.byte	0x79
 1495 09ce 20       		.uleb128 0x20
 1496 09cf 86000000 		.4byte	.LVL0
 1497 09d3 000A0000 		.4byte	0xa00
 1498 09d7 00       		.byte	0
 1499 09d8 21       		.uleb128 0x21
 1500 09d9 49020000 		.4byte	.LASF162
 1501 09dd 01       		.byte	0x1
 1502 09de 8C       		.byte	0x8c
 1503 09df 00000000 		.4byte	.LFB257
 1504 09e3 C8000000 		.4byte	.LFE257-.LFB257
 1505 09e7 01       		.uleb128 0x1
 1506 09e8 9C       		.byte	0x9c
 1507 09e9 22       		.uleb128 0x22
 1508 09ea F1000000 		.4byte	.LASF156
 1509 09ee 0E       		.byte	0xe
 1510 09ef A706     		.2byte	0x6a7
 1511 09f1 C3000000 		.4byte	0xc3
 1512 09f5 23       		.uleb128 0x23
 1513 09f6 636800   		.ascii	"ch\000"
 1514 09f9 06       		.byte	0x6
 1515 09fa EB01     		.2byte	0x1eb
 1516 09fc 25040000 		.4byte	0x425
 1517 0a00 24       		.uleb128 0x24
 1518 0a01 5C060000 		.4byte	.LASF163
 1519 0a05 0F       		.byte	0xf
 1520 0a06 C101     		.2byte	0x1c1
 1521 0a08 00       		.byte	0
 1522              		.section	.debug_abbrev,"",%progbits
 1523              	.Ldebug_abbrev0:
 1524 0000 01       		.uleb128 0x1
 1525 0001 11       		.uleb128 0x11
 1526 0002 01       		.byte	0x1
 1527 0003 25       		.uleb128 0x25
 1528 0004 0E       		.uleb128 0xe
 1529 0005 13       		.uleb128 0x13
 1530 0006 0B       		.uleb128 0xb
 1531 0007 03       		.uleb128 0x3
 1532 0008 0E       		.uleb128 0xe
 1533 0009 1B       		.uleb128 0x1b
 1534 000a 0E       		.uleb128 0xe
 1535 000b 55       		.uleb128 0x55
 1536 000c 17       		.uleb128 0x17
 1537 000d 11       		.uleb128 0x11
 1538 000e 01       		.uleb128 0x1
ARM GAS  C:\Users\jo\AppData\Local\Temp\cc9hVPTd.s 			page 28


 1539 000f 10       		.uleb128 0x10
 1540 0010 17       		.uleb128 0x17
 1541 0011 00       		.byte	0
 1542 0012 00       		.byte	0
 1543 0013 02       		.uleb128 0x2
 1544 0014 24       		.uleb128 0x24
 1545 0015 00       		.byte	0
 1546 0016 0B       		.uleb128 0xb
 1547 0017 0B       		.uleb128 0xb
 1548 0018 3E       		.uleb128 0x3e
 1549 0019 0B       		.uleb128 0xb
 1550 001a 03       		.uleb128 0x3
 1551 001b 08       		.uleb128 0x8
 1552 001c 00       		.byte	0
 1553 001d 00       		.byte	0
 1554 001e 03       		.uleb128 0x3
 1555 001f 24       		.uleb128 0x24
 1556 0020 00       		.byte	0
 1557 0021 0B       		.uleb128 0xb
 1558 0022 0B       		.uleb128 0xb
 1559 0023 3E       		.uleb128 0x3e
 1560 0024 0B       		.uleb128 0xb
 1561 0025 03       		.uleb128 0x3
 1562 0026 0E       		.uleb128 0xe
 1563 0027 00       		.byte	0
 1564 0028 00       		.byte	0
 1565 0029 04       		.uleb128 0x4
 1566 002a 16       		.uleb128 0x16
 1567 002b 00       		.byte	0
 1568 002c 03       		.uleb128 0x3
 1569 002d 0E       		.uleb128 0xe
 1570 002e 3A       		.uleb128 0x3a
 1571 002f 0B       		.uleb128 0xb
 1572 0030 3B       		.uleb128 0x3b
 1573 0031 0B       		.uleb128 0xb
 1574 0032 49       		.uleb128 0x49
 1575 0033 13       		.uleb128 0x13
 1576 0034 00       		.byte	0
 1577 0035 00       		.byte	0
 1578 0036 05       		.uleb128 0x5
 1579 0037 35       		.uleb128 0x35
 1580 0038 00       		.byte	0
 1581 0039 49       		.uleb128 0x49
 1582 003a 13       		.uleb128 0x13
 1583 003b 00       		.byte	0
 1584 003c 00       		.byte	0
 1585 003d 06       		.uleb128 0x6
 1586 003e 13       		.uleb128 0x13
 1587 003f 01       		.byte	0x1
 1588 0040 03       		.uleb128 0x3
 1589 0041 0E       		.uleb128 0xe
 1590 0042 0B       		.uleb128 0xb
 1591 0043 0B       		.uleb128 0xb
 1592 0044 3A       		.uleb128 0x3a
 1593 0045 0B       		.uleb128 0xb
 1594 0046 3B       		.uleb128 0x3b
 1595 0047 0B       		.uleb128 0xb
ARM GAS  C:\Users\jo\AppData\Local\Temp\cc9hVPTd.s 			page 29


 1596 0048 01       		.uleb128 0x1
 1597 0049 13       		.uleb128 0x13
 1598 004a 00       		.byte	0
 1599 004b 00       		.byte	0
 1600 004c 07       		.uleb128 0x7
 1601 004d 0D       		.uleb128 0xd
 1602 004e 00       		.byte	0
 1603 004f 03       		.uleb128 0x3
 1604 0050 0E       		.uleb128 0xe
 1605 0051 3A       		.uleb128 0x3a
 1606 0052 0B       		.uleb128 0xb
 1607 0053 3B       		.uleb128 0x3b
 1608 0054 0B       		.uleb128 0xb
 1609 0055 49       		.uleb128 0x49
 1610 0056 13       		.uleb128 0x13
 1611 0057 38       		.uleb128 0x38
 1612 0058 0B       		.uleb128 0xb
 1613 0059 00       		.byte	0
 1614 005a 00       		.byte	0
 1615 005b 08       		.uleb128 0x8
 1616 005c 0D       		.uleb128 0xd
 1617 005d 00       		.byte	0
 1618 005e 03       		.uleb128 0x3
 1619 005f 08       		.uleb128 0x8
 1620 0060 3A       		.uleb128 0x3a
 1621 0061 0B       		.uleb128 0xb
 1622 0062 3B       		.uleb128 0x3b
 1623 0063 05       		.uleb128 0x5
 1624 0064 49       		.uleb128 0x49
 1625 0065 13       		.uleb128 0x13
 1626 0066 38       		.uleb128 0x38
 1627 0067 0B       		.uleb128 0xb
 1628 0068 00       		.byte	0
 1629 0069 00       		.byte	0
 1630 006a 09       		.uleb128 0x9
 1631 006b 0D       		.uleb128 0xd
 1632 006c 00       		.byte	0
 1633 006d 03       		.uleb128 0x3
 1634 006e 0E       		.uleb128 0xe
 1635 006f 3A       		.uleb128 0x3a
 1636 0070 0B       		.uleb128 0xb
 1637 0071 3B       		.uleb128 0x3b
 1638 0072 05       		.uleb128 0x5
 1639 0073 49       		.uleb128 0x49
 1640 0074 13       		.uleb128 0x13
 1641 0075 38       		.uleb128 0x38
 1642 0076 0B       		.uleb128 0xb
 1643 0077 00       		.byte	0
 1644 0078 00       		.byte	0
 1645 0079 0A       		.uleb128 0xa
 1646 007a 13       		.uleb128 0x13
 1647 007b 01       		.byte	0x1
 1648 007c 03       		.uleb128 0x3
 1649 007d 0E       		.uleb128 0xe
 1650 007e 0B       		.uleb128 0xb
 1651 007f 0B       		.uleb128 0xb
 1652 0080 3A       		.uleb128 0x3a
ARM GAS  C:\Users\jo\AppData\Local\Temp\cc9hVPTd.s 			page 30


 1653 0081 0B       		.uleb128 0xb
 1654 0082 3B       		.uleb128 0x3b
 1655 0083 05       		.uleb128 0x5
 1656 0084 01       		.uleb128 0x1
 1657 0085 13       		.uleb128 0x13
 1658 0086 00       		.byte	0
 1659 0087 00       		.byte	0
 1660 0088 0B       		.uleb128 0xb
 1661 0089 0F       		.uleb128 0xf
 1662 008a 00       		.byte	0
 1663 008b 0B       		.uleb128 0xb
 1664 008c 0B       		.uleb128 0xb
 1665 008d 49       		.uleb128 0x49
 1666 008e 13       		.uleb128 0x13
 1667 008f 00       		.byte	0
 1668 0090 00       		.byte	0
 1669 0091 0C       		.uleb128 0xc
 1670 0092 15       		.uleb128 0x15
 1671 0093 01       		.byte	0x1
 1672 0094 27       		.uleb128 0x27
 1673 0095 19       		.uleb128 0x19
 1674 0096 01       		.uleb128 0x1
 1675 0097 13       		.uleb128 0x13
 1676 0098 00       		.byte	0
 1677 0099 00       		.byte	0
 1678 009a 0D       		.uleb128 0xd
 1679 009b 05       		.uleb128 0x5
 1680 009c 00       		.byte	0
 1681 009d 49       		.uleb128 0x49
 1682 009e 13       		.uleb128 0x13
 1683 009f 00       		.byte	0
 1684 00a0 00       		.byte	0
 1685 00a1 0E       		.uleb128 0xe
 1686 00a2 0F       		.uleb128 0xf
 1687 00a3 00       		.byte	0
 1688 00a4 0B       		.uleb128 0xb
 1689 00a5 0B       		.uleb128 0xb
 1690 00a6 00       		.byte	0
 1691 00a7 00       		.byte	0
 1692 00a8 0F       		.uleb128 0xf
 1693 00a9 13       		.uleb128 0x13
 1694 00aa 01       		.byte	0x1
 1695 00ab 03       		.uleb128 0x3
 1696 00ac 0E       		.uleb128 0xe
 1697 00ad 0B       		.uleb128 0xb
 1698 00ae 05       		.uleb128 0x5
 1699 00af 3A       		.uleb128 0x3a
 1700 00b0 0B       		.uleb128 0xb
 1701 00b1 3B       		.uleb128 0x3b
 1702 00b2 05       		.uleb128 0x5
 1703 00b3 01       		.uleb128 0x1
 1704 00b4 13       		.uleb128 0x13
 1705 00b5 00       		.byte	0
 1706 00b6 00       		.byte	0
 1707 00b7 10       		.uleb128 0x10
 1708 00b8 0D       		.uleb128 0xd
 1709 00b9 00       		.byte	0
ARM GAS  C:\Users\jo\AppData\Local\Temp\cc9hVPTd.s 			page 31


 1710 00ba 03       		.uleb128 0x3
 1711 00bb 0E       		.uleb128 0xe
 1712 00bc 3A       		.uleb128 0x3a
 1713 00bd 0B       		.uleb128 0xb
 1714 00be 3B       		.uleb128 0x3b
 1715 00bf 05       		.uleb128 0x5
 1716 00c0 49       		.uleb128 0x49
 1717 00c1 13       		.uleb128 0x13
 1718 00c2 38       		.uleb128 0x38
 1719 00c3 05       		.uleb128 0x5
 1720 00c4 00       		.byte	0
 1721 00c5 00       		.byte	0
 1722 00c6 11       		.uleb128 0x11
 1723 00c7 0D       		.uleb128 0xd
 1724 00c8 00       		.byte	0
 1725 00c9 03       		.uleb128 0x3
 1726 00ca 08       		.uleb128 0x8
 1727 00cb 3A       		.uleb128 0x3a
 1728 00cc 0B       		.uleb128 0xb
 1729 00cd 3B       		.uleb128 0x3b
 1730 00ce 05       		.uleb128 0x5
 1731 00cf 49       		.uleb128 0x49
 1732 00d0 13       		.uleb128 0x13
 1733 00d1 38       		.uleb128 0x38
 1734 00d2 05       		.uleb128 0x5
 1735 00d3 00       		.byte	0
 1736 00d4 00       		.byte	0
 1737 00d5 12       		.uleb128 0x12
 1738 00d6 01       		.uleb128 0x1
 1739 00d7 01       		.byte	0x1
 1740 00d8 49       		.uleb128 0x49
 1741 00d9 13       		.uleb128 0x13
 1742 00da 01       		.uleb128 0x1
 1743 00db 13       		.uleb128 0x13
 1744 00dc 00       		.byte	0
 1745 00dd 00       		.byte	0
 1746 00de 13       		.uleb128 0x13
 1747 00df 21       		.uleb128 0x21
 1748 00e0 00       		.byte	0
 1749 00e1 49       		.uleb128 0x49
 1750 00e2 13       		.uleb128 0x13
 1751 00e3 2F       		.uleb128 0x2f
 1752 00e4 0B       		.uleb128 0xb
 1753 00e5 00       		.byte	0
 1754 00e6 00       		.byte	0
 1755 00e7 14       		.uleb128 0x14
 1756 00e8 13       		.uleb128 0x13
 1757 00e9 01       		.byte	0x1
 1758 00ea 0B       		.uleb128 0xb
 1759 00eb 0B       		.uleb128 0xb
 1760 00ec 3A       		.uleb128 0x3a
 1761 00ed 0B       		.uleb128 0xb
 1762 00ee 3B       		.uleb128 0x3b
 1763 00ef 05       		.uleb128 0x5
 1764 00f0 01       		.uleb128 0x1
 1765 00f1 13       		.uleb128 0x13
 1766 00f2 00       		.byte	0
ARM GAS  C:\Users\jo\AppData\Local\Temp\cc9hVPTd.s 			page 32


 1767 00f3 00       		.byte	0
 1768 00f4 15       		.uleb128 0x15
 1769 00f5 16       		.uleb128 0x16
 1770 00f6 00       		.byte	0
 1771 00f7 03       		.uleb128 0x3
 1772 00f8 0E       		.uleb128 0xe
 1773 00f9 3A       		.uleb128 0x3a
 1774 00fa 0B       		.uleb128 0xb
 1775 00fb 3B       		.uleb128 0x3b
 1776 00fc 05       		.uleb128 0x5
 1777 00fd 49       		.uleb128 0x49
 1778 00fe 13       		.uleb128 0x13
 1779 00ff 00       		.byte	0
 1780 0100 00       		.byte	0
 1781 0101 16       		.uleb128 0x16
 1782 0102 0D       		.uleb128 0xd
 1783 0103 00       		.byte	0
 1784 0104 03       		.uleb128 0x3
 1785 0105 08       		.uleb128 0x8
 1786 0106 3A       		.uleb128 0x3a
 1787 0107 0B       		.uleb128 0xb
 1788 0108 3B       		.uleb128 0x3b
 1789 0109 0B       		.uleb128 0xb
 1790 010a 49       		.uleb128 0x49
 1791 010b 13       		.uleb128 0x13
 1792 010c 38       		.uleb128 0x38
 1793 010d 0B       		.uleb128 0xb
 1794 010e 00       		.byte	0
 1795 010f 00       		.byte	0
 1796 0110 17       		.uleb128 0x17
 1797 0111 26       		.uleb128 0x26
 1798 0112 00       		.byte	0
 1799 0113 49       		.uleb128 0x49
 1800 0114 13       		.uleb128 0x13
 1801 0115 00       		.byte	0
 1802 0116 00       		.byte	0
 1803 0117 18       		.uleb128 0x18
 1804 0118 13       		.uleb128 0x13
 1805 0119 01       		.byte	0x1
 1806 011a 0B       		.uleb128 0xb
 1807 011b 0B       		.uleb128 0xb
 1808 011c 3A       		.uleb128 0x3a
 1809 011d 0B       		.uleb128 0xb
 1810 011e 3B       		.uleb128 0x3b
 1811 011f 0B       		.uleb128 0xb
 1812 0120 01       		.uleb128 0x1
 1813 0121 13       		.uleb128 0x13
 1814 0122 00       		.byte	0
 1815 0123 00       		.byte	0
 1816 0124 19       		.uleb128 0x19
 1817 0125 13       		.uleb128 0x13
 1818 0126 01       		.byte	0x1
 1819 0127 0B       		.uleb128 0xb
 1820 0128 05       		.uleb128 0x5
 1821 0129 3A       		.uleb128 0x3a
 1822 012a 0B       		.uleb128 0xb
 1823 012b 3B       		.uleb128 0x3b
ARM GAS  C:\Users\jo\AppData\Local\Temp\cc9hVPTd.s 			page 33


 1824 012c 0B       		.uleb128 0xb
 1825 012d 01       		.uleb128 0x1
 1826 012e 13       		.uleb128 0x13
 1827 012f 00       		.byte	0
 1828 0130 00       		.byte	0
 1829 0131 1A       		.uleb128 0x1a
 1830 0132 17       		.uleb128 0x17
 1831 0133 01       		.byte	0x1
 1832 0134 0B       		.uleb128 0xb
 1833 0135 0B       		.uleb128 0xb
 1834 0136 3A       		.uleb128 0x3a
 1835 0137 0B       		.uleb128 0xb
 1836 0138 3B       		.uleb128 0x3b
 1837 0139 0B       		.uleb128 0xb
 1838 013a 01       		.uleb128 0x1
 1839 013b 13       		.uleb128 0x13
 1840 013c 00       		.byte	0
 1841 013d 00       		.byte	0
 1842 013e 1B       		.uleb128 0x1b
 1843 013f 0D       		.uleb128 0xd
 1844 0140 00       		.byte	0
 1845 0141 03       		.uleb128 0x3
 1846 0142 0E       		.uleb128 0xe
 1847 0143 3A       		.uleb128 0x3a
 1848 0144 0B       		.uleb128 0xb
 1849 0145 3B       		.uleb128 0x3b
 1850 0146 0B       		.uleb128 0xb
 1851 0147 49       		.uleb128 0x49
 1852 0148 13       		.uleb128 0x13
 1853 0149 00       		.byte	0
 1854 014a 00       		.byte	0
 1855 014b 1C       		.uleb128 0x1c
 1856 014c 0D       		.uleb128 0xd
 1857 014d 00       		.byte	0
 1858 014e 03       		.uleb128 0x3
 1859 014f 0E       		.uleb128 0xe
 1860 0150 3A       		.uleb128 0x3a
 1861 0151 0B       		.uleb128 0xb
 1862 0152 3B       		.uleb128 0x3b
 1863 0153 05       		.uleb128 0x5
 1864 0154 49       		.uleb128 0x49
 1865 0155 13       		.uleb128 0x13
 1866 0156 00       		.byte	0
 1867 0157 00       		.byte	0
 1868 0158 1D       		.uleb128 0x1d
 1869 0159 2E       		.uleb128 0x2e
 1870 015a 00       		.byte	0
 1871 015b 03       		.uleb128 0x3
 1872 015c 0E       		.uleb128 0xe
 1873 015d 3A       		.uleb128 0x3a
 1874 015e 0B       		.uleb128 0xb
 1875 015f 3B       		.uleb128 0x3b
 1876 0160 0B       		.uleb128 0xb
 1877 0161 27       		.uleb128 0x27
 1878 0162 19       		.uleb128 0x19
 1879 0163 20       		.uleb128 0x20
 1880 0164 0B       		.uleb128 0xb
ARM GAS  C:\Users\jo\AppData\Local\Temp\cc9hVPTd.s 			page 34


 1881 0165 00       		.byte	0
 1882 0166 00       		.byte	0
 1883 0167 1E       		.uleb128 0x1e
 1884 0168 2E       		.uleb128 0x2e
 1885 0169 01       		.byte	0x1
 1886 016a 3F       		.uleb128 0x3f
 1887 016b 19       		.uleb128 0x19
 1888 016c 03       		.uleb128 0x3
 1889 016d 0E       		.uleb128 0xe
 1890 016e 3A       		.uleb128 0x3a
 1891 016f 0B       		.uleb128 0xb
 1892 0170 3B       		.uleb128 0x3b
 1893 0171 0B       		.uleb128 0xb
 1894 0172 27       		.uleb128 0x27
 1895 0173 19       		.uleb128 0x19
 1896 0174 11       		.uleb128 0x11
 1897 0175 01       		.uleb128 0x1
 1898 0176 12       		.uleb128 0x12
 1899 0177 06       		.uleb128 0x6
 1900 0178 40       		.uleb128 0x40
 1901 0179 18       		.uleb128 0x18
 1902 017a 9742     		.uleb128 0x2117
 1903 017c 19       		.uleb128 0x19
 1904 017d 01       		.uleb128 0x1
 1905 017e 13       		.uleb128 0x13
 1906 017f 00       		.byte	0
 1907 0180 00       		.byte	0
 1908 0181 1F       		.uleb128 0x1f
 1909 0182 1D       		.uleb128 0x1d
 1910 0183 00       		.byte	0
 1911 0184 31       		.uleb128 0x31
 1912 0185 13       		.uleb128 0x13
 1913 0186 52       		.uleb128 0x52
 1914 0187 01       		.uleb128 0x1
 1915 0188 55       		.uleb128 0x55
 1916 0189 17       		.uleb128 0x17
 1917 018a 58       		.uleb128 0x58
 1918 018b 0B       		.uleb128 0xb
 1919 018c 59       		.uleb128 0x59
 1920 018d 0B       		.uleb128 0xb
 1921 018e 00       		.byte	0
 1922 018f 00       		.byte	0
 1923 0190 20       		.uleb128 0x20
 1924 0191 898201   		.uleb128 0x4109
 1925 0194 00       		.byte	0
 1926 0195 11       		.uleb128 0x11
 1927 0196 01       		.uleb128 0x1
 1928 0197 9542     		.uleb128 0x2115
 1929 0199 19       		.uleb128 0x19
 1930 019a 31       		.uleb128 0x31
 1931 019b 13       		.uleb128 0x13
 1932 019c 00       		.byte	0
 1933 019d 00       		.byte	0
 1934 019e 21       		.uleb128 0x21
 1935 019f 2E       		.uleb128 0x2e
 1936 01a0 00       		.byte	0
 1937 01a1 3F       		.uleb128 0x3f
ARM GAS  C:\Users\jo\AppData\Local\Temp\cc9hVPTd.s 			page 35


 1938 01a2 19       		.uleb128 0x19
 1939 01a3 03       		.uleb128 0x3
 1940 01a4 0E       		.uleb128 0xe
 1941 01a5 3A       		.uleb128 0x3a
 1942 01a6 0B       		.uleb128 0xb
 1943 01a7 3B       		.uleb128 0x3b
 1944 01a8 0B       		.uleb128 0xb
 1945 01a9 27       		.uleb128 0x27
 1946 01aa 19       		.uleb128 0x19
 1947 01ab 11       		.uleb128 0x11
 1948 01ac 01       		.uleb128 0x1
 1949 01ad 12       		.uleb128 0x12
 1950 01ae 06       		.uleb128 0x6
 1951 01af 40       		.uleb128 0x40
 1952 01b0 18       		.uleb128 0x18
 1953 01b1 9742     		.uleb128 0x2117
 1954 01b3 19       		.uleb128 0x19
 1955 01b4 00       		.byte	0
 1956 01b5 00       		.byte	0
 1957 01b6 22       		.uleb128 0x22
 1958 01b7 34       		.uleb128 0x34
 1959 01b8 00       		.byte	0
 1960 01b9 03       		.uleb128 0x3
 1961 01ba 0E       		.uleb128 0xe
 1962 01bb 3A       		.uleb128 0x3a
 1963 01bc 0B       		.uleb128 0xb
 1964 01bd 3B       		.uleb128 0x3b
 1965 01be 05       		.uleb128 0x5
 1966 01bf 49       		.uleb128 0x49
 1967 01c0 13       		.uleb128 0x13
 1968 01c1 3F       		.uleb128 0x3f
 1969 01c2 19       		.uleb128 0x19
 1970 01c3 3C       		.uleb128 0x3c
 1971 01c4 19       		.uleb128 0x19
 1972 01c5 00       		.byte	0
 1973 01c6 00       		.byte	0
 1974 01c7 23       		.uleb128 0x23
 1975 01c8 34       		.uleb128 0x34
 1976 01c9 00       		.byte	0
 1977 01ca 03       		.uleb128 0x3
 1978 01cb 08       		.uleb128 0x8
 1979 01cc 3A       		.uleb128 0x3a
 1980 01cd 0B       		.uleb128 0xb
 1981 01ce 3B       		.uleb128 0x3b
 1982 01cf 05       		.uleb128 0x5
 1983 01d0 49       		.uleb128 0x49
 1984 01d1 13       		.uleb128 0x13
 1985 01d2 3F       		.uleb128 0x3f
 1986 01d3 19       		.uleb128 0x19
 1987 01d4 3C       		.uleb128 0x3c
 1988 01d5 19       		.uleb128 0x19
 1989 01d6 00       		.byte	0
 1990 01d7 00       		.byte	0
 1991 01d8 24       		.uleb128 0x24
 1992 01d9 2E       		.uleb128 0x2e
 1993 01da 00       		.byte	0
 1994 01db 3F       		.uleb128 0x3f
ARM GAS  C:\Users\jo\AppData\Local\Temp\cc9hVPTd.s 			page 36


 1995 01dc 19       		.uleb128 0x19
 1996 01dd 03       		.uleb128 0x3
 1997 01de 0E       		.uleb128 0xe
 1998 01df 3A       		.uleb128 0x3a
 1999 01e0 0B       		.uleb128 0xb
 2000 01e1 3B       		.uleb128 0x3b
 2001 01e2 05       		.uleb128 0x5
 2002 01e3 27       		.uleb128 0x27
 2003 01e4 19       		.uleb128 0x19
 2004 01e5 3C       		.uleb128 0x3c
 2005 01e6 19       		.uleb128 0x19
 2006 01e7 00       		.byte	0
 2007 01e8 00       		.byte	0
 2008 01e9 00       		.byte	0
 2009              		.section	.debug_aranges,"",%progbits
 2010 0000 24000000 		.4byte	0x24
 2011 0004 0200     		.2byte	0x2
 2012 0006 00000000 		.4byte	.Ldebug_info0
 2013 000a 04       		.byte	0x4
 2014 000b 00       		.byte	0
 2015 000c 0000     		.2byte	0
 2016 000e 0000     		.2byte	0
 2017 0010 00000000 		.4byte	.LFB256
 2018 0014 90000000 		.4byte	.LFE256-.LFB256
 2019 0018 00000000 		.4byte	.LFB257
 2020 001c C8000000 		.4byte	.LFE257-.LFB257
 2021 0020 00000000 		.4byte	0
 2022 0024 00000000 		.4byte	0
 2023              		.section	.debug_ranges,"",%progbits
 2024              	.Ldebug_ranges0:
 2025 0000 18000000 		.4byte	.LBB4
 2026 0004 1A000000 		.4byte	.LBE4
 2027 0008 30000000 		.4byte	.LBB8
 2028 000c 76000000 		.4byte	.LBE8
 2029 0010 7A000000 		.4byte	.LBB9
 2030 0014 82000000 		.4byte	.LBE9
 2031 0018 00000000 		.4byte	0
 2032 001c 00000000 		.4byte	0
 2033 0020 00000000 		.4byte	.LFB256
 2034 0024 90000000 		.4byte	.LFE256
 2035 0028 00000000 		.4byte	.LFB257
 2036 002c C8000000 		.4byte	.LFE257
 2037 0030 00000000 		.4byte	0
 2038 0034 00000000 		.4byte	0
 2039              		.section	.debug_line,"",%progbits
 2040              	.Ldebug_line0:
 2041 0000 CC020000 		.section	.debug_str,"MS",%progbits,1
 2041      02003602 
 2041      00000201 
 2041      FB0E0D00 
 2041      01010101 
 2042              	.LASF131:
 2043 0000 74625F70 		.ascii	"tb_ptr\000"
 2043      747200
 2044              	.LASF53:
 2045 0007 72656164 		.ascii	"ready_list_t\000"
 2045      795F6C69 
ARM GAS  C:\Users\jo\AppData\Local\Temp\cc9hVPTd.s 			page 37


 2045      73745F74 
 2045      00
 2046              	.LASF125:
 2047 0014 73655F74 		.ascii	"se_time\000"
 2047      696D6500 
 2048              	.LASF146:
 2049 001c 7264796D 		.ascii	"rdymsg\000"
 2049      736700
 2050              	.LASF16:
 2051 0023 75696E74 		.ascii	"uint64_t\000"
 2051      36345F74 
 2051      00
 2052              	.LASF83:
 2053 002c 6B65726E 		.ascii	"kernel_stats\000"
 2053      656C5F73 
 2053      74617473 
 2053      00
 2054              	.LASF5:
 2055 0039 5F5F7569 		.ascii	"__uint8_t\000"
 2055      6E74385F 
 2055      7400
 2056              	.LASF123:
 2057 0043 706F7274 		.ascii	"port_intctx\000"
 2057      5F696E74 
 2057      63747800 
 2058              	.LASF52:
 2059 004f 63685F74 		.ascii	"ch_threads_queue\000"
 2059      68726561 
 2059      64735F71 
 2059      75657565 
 2059      00
 2060              	.LASF72:
 2061 0060 73797374 		.ascii	"system_debug_t\000"
 2061      656D5F64 
 2061      65627567 
 2061      5F7400
 2062              	.LASF88:
 2063 006f 4F505443 		.ascii	"OPTCR\000"
 2063      5200
 2064              	.LASF137:
 2065 0075 776F7273 		.ascii	"worst\000"
 2065      7400
 2066              	.LASF89:
 2067 007b 4F505443 		.ascii	"OPTCR1\000"
 2067      523100
 2068              	.LASF140:
 2069 0082 74696D65 		.ascii	"time_measurement_t\000"
 2069      5F6D6561 
 2069      73757265 
 2069      6D656E74 
 2069      5F7400
 2070              	.LASF12:
 2071 0095 6C6F6E67 		.ascii	"long long unsigned int\000"
 2071      206C6F6E 
 2071      6720756E 
 2071      7369676E 
 2071      65642069 
ARM GAS  C:\Users\jo\AppData\Local\Temp\cc9hVPTd.s 			page 38


 2072              	.LASF133:
 2073 00ac 63685F74 		.ascii	"ch_trace_buffer_t\000"
 2073      72616365 
 2073      5F627566 
 2073      6665725F 
 2073      7400
 2074              	.LASF128:
 2075 00be 73655F73 		.ascii	"se_state\000"
 2075      74617465 
 2075      00
 2076              	.LASF147:
 2077 00c7 65786974 		.ascii	"exitcode\000"
 2077      636F6465 
 2077      00
 2078              	.LASF82:
 2079 00d0 6D61696E 		.ascii	"mainthread\000"
 2079      74687265 
 2079      616400
 2080              	.LASF69:
 2081 00db 76697274 		.ascii	"virtual_timers_list_t\000"
 2081      75616C5F 
 2081      74696D65 
 2081      72735F6C 
 2081      6973745F 
 2082              	.LASF156:
 2083 00f1 49544D5F 		.ascii	"ITM_RxBuffer\000"
 2083      52784275 
 2083      66666572 
 2083      00
 2084              	.LASF18:
 2085 00fe 72747469 		.ascii	"rttime_t\000"
 2085      6D655F74 
 2085      00
 2086              	.LASF108:
 2087 0107 41484231 		.ascii	"AHB1LPENR\000"
 2087      4C50454E 
 2087      5200
 2088              	.LASF31:
 2089 0111 705F7072 		.ascii	"p_prio\000"
 2089      696F00
 2090              	.LASF159:
 2091 0118 433A5C55 		.ascii	"C:\\Users\\jo\\Documents\\GitHub\\ChibiOS\\demos\\S"
 2091      73657273 
 2091      5C6A6F5C 
 2091      446F6375 
 2091      6D656E74 
 2092 0144 544D3332 		.ascii	"TM32\\RT-STM32F407-DISCOVERY-uHttp\000"
 2092      5C52542D 
 2092      53544D33 
 2092      32463430 
 2092      372D4449 
 2093              	.LASF10:
 2094 0166 6C6F6E67 		.ascii	"long long int\000"
 2094      206C6F6E 
 2094      6720696E 
 2094      7400
 2095              	.LASF1:
ARM GAS  C:\Users\jo\AppData\Local\Temp\cc9hVPTd.s 			page 39


 2096 0174 7369676E 		.ascii	"signed char\000"
 2096      65642063 
 2096      68617200 
 2097              	.LASF94:
 2098 0180 41484231 		.ascii	"AHB1RSTR\000"
 2098      52535452 
 2098      00
 2099              	.LASF90:
 2100 0189 464C4153 		.ascii	"FLASH_TypeDef\000"
 2100      485F5479 
 2100      70654465 
 2100      6600
 2101              	.LASF46:
 2102 0197 705F6D70 		.ascii	"p_mpool\000"
 2102      6F6F6C00 
 2103              	.LASF151:
 2104 019f 6D5F7175 		.ascii	"m_queue\000"
 2104      65756500 
 2105              	.LASF81:
 2106 01a7 76746C69 		.ascii	"vtlist\000"
 2106      737400
 2107              	.LASF91:
 2108 01ae 5057525F 		.ascii	"PWR_TypeDef\000"
 2108      54797065 
 2108      44656600 
 2109              	.LASF119:
 2110 01ba 5243435F 		.ascii	"RCC_TypeDef\000"
 2110      54797065 
 2110      44656600 
 2111              	.LASF79:
 2112 01c6 63685F73 		.ascii	"ch_system\000"
 2112      79737465 
 2112      6D00
 2113              	.LASF7:
 2114 01d0 6C6F6E67 		.ascii	"long int\000"
 2114      20696E74 
 2114      00
 2115              	.LASF99:
 2116 01d9 41504232 		.ascii	"APB2RSTR\000"
 2116      52535452 
 2116      00
 2117              	.LASF112:
 2118 01e2 41504231 		.ascii	"APB1LPENR\000"
 2118      4C50454E 
 2118      5200
 2119              	.LASF20:
 2120 01ec 74737461 		.ascii	"tstate_t\000"
 2120      74655F74 
 2120      00
 2121              	.LASF126:
 2122 01f5 73655F74 		.ascii	"se_tp\000"
 2122      7000
 2123              	.LASF87:
 2124 01fb 4F50544B 		.ascii	"OPTKEYR\000"
 2124      45595200 
 2125              	.LASF33:
 2126 0203 705F6E65 		.ascii	"p_newer\000"
ARM GAS  C:\Users\jo\AppData\Local\Temp\cc9hVPTd.s 			page 40


 2126      77657200 
 2127              	.LASF92:
 2128 020b 504C4C43 		.ascii	"PLLCFGR\000"
 2128      46475200 
 2129              	.LASF130:
 2130 0213 74625F73 		.ascii	"tb_size\000"
 2130      697A6500 
 2131              	.LASF58:
 2132 021b 725F6E65 		.ascii	"r_newer\000"
 2132      77657200 
 2133              	.LASF120:
 2134 0223 72656761 		.ascii	"regarm_t\000"
 2134      726D5F74 
 2134      00
 2135              	.LASF65:
 2136 022c 76745F70 		.ascii	"vt_prev\000"
 2136      72657600 
 2137              	.LASF86:
 2138 0234 4B455952 		.ascii	"KEYR\000"
 2138      00
 2139              	.LASF73:
 2140 0239 63685F73 		.ascii	"ch_system_debug\000"
 2140      79737465 
 2140      6D5F6465 
 2140      62756700 
 2141              	.LASF162:
 2142 0249 73746D33 		.ascii	"stm32_clock_init\000"
 2142      325F636C 
 2142      6F636B5F 
 2142      696E6974 
 2142      00
 2143              	.LASF154:
 2144 025a 6D757465 		.ascii	"mutex_t\000"
 2144      785F7400 
 2145              	.LASF76:
 2146 0262 6C6F636B 		.ascii	"lock_cnt\000"
 2146      5F636E74 
 2146      00
 2147              	.LASF84:
 2148 026b 69646C65 		.ascii	"idle_thread_wa\000"
 2148      5F746872 
 2148      6561645F 
 2148      776100
 2149              	.LASF25:
 2150 027a 636E745F 		.ascii	"cnt_t\000"
 2150      7400
 2151              	.LASF36:
 2152 0280 705F7374 		.ascii	"p_stklimit\000"
 2152      6B6C696D 
 2152      697400
 2153              	.LASF0:
 2154 028b 756E7369 		.ascii	"unsigned int\000"
 2154      676E6564 
 2154      20696E74 
 2154      00
 2155              	.LASF64:
 2156 0298 76745F6E 		.ascii	"vt_next\000"
ARM GAS  C:\Users\jo\AppData\Local\Temp\cc9hVPTd.s 			page 41


 2156      65787400 
 2157              	.LASF41:
 2158 02a0 705F6D73 		.ascii	"p_msgqueue\000"
 2158      67717565 
 2158      756500
 2159              	.LASF158:
 2160 02ab 2E2E2F2E 		.ascii	"../../../os/hal/ports/STM32/STM32F4xx/hal_lld.c\000"
 2160      2E2F2E2E 
 2160      2F6F732F 
 2160      68616C2F 
 2160      706F7274 
 2161              	.LASF141:
 2162 02db 6E5F6972 		.ascii	"n_irq\000"
 2162      7100
 2163              	.LASF4:
 2164 02e1 73686F72 		.ascii	"short unsigned int\000"
 2164      7420756E 
 2164      7369676E 
 2164      65642069 
 2164      6E7400
 2165              	.LASF145:
 2166 02f4 6B65726E 		.ascii	"kernel_stats_t\000"
 2166      656C5F73 
 2166      74617473 
 2166      5F7400
 2167              	.LASF49:
 2168 0303 63685F74 		.ascii	"ch_thread\000"
 2168      68726561 
 2168      6400
 2169              	.LASF118:
 2170 030d 504C4C49 		.ascii	"PLLI2SCFGR\000"
 2170      32534346 
 2170      475200
 2171              	.LASF23:
 2172 0318 6D73675F 		.ascii	"msg_t\000"
 2172      7400
 2173              	.LASF96:
 2174 031e 41484233 		.ascii	"AHB3RSTR\000"
 2174      52535452 
 2174      00
 2175              	.LASF26:
 2176 0327 75636E74 		.ascii	"ucnt_t\000"
 2176      5F7400
 2177              	.LASF160:
 2178 032e 68616C5F 		.ascii	"hal_lld_backup_domain_init\000"
 2178      6C6C645F 
 2178      6261636B 
 2178      75705F64 
 2178      6F6D6169 
 2179              	.LASF78:
 2180 0349 63685F73 		.ascii	"ch_system_t\000"
 2180      79737465 
 2180      6D5F7400 
 2181              	.LASF132:
 2182 0355 74625F62 		.ascii	"tb_buffer\000"
 2182      75666665 
 2182      7200
ARM GAS  C:\Users\jo\AppData\Local\Temp\cc9hVPTd.s 			page 42


 2183              	.LASF113:
 2184 035f 41504232 		.ascii	"APB2LPENR\000"
 2184      4C50454E 
 2184      5200
 2185              	.LASF144:
 2186 0369 6D5F6372 		.ascii	"m_crit_isr\000"
 2186      69745F69 
 2186      737200
 2187              	.LASF54:
 2188 0374 63685F72 		.ascii	"ch_ready_list\000"
 2188      65616479 
 2188      5F6C6973 
 2188      7400
 2189              	.LASF24:
 2190 0382 6576656E 		.ascii	"eventmask_t\000"
 2190      746D6173 
 2190      6B5F7400 
 2191              	.LASF6:
 2192 038e 5F5F696E 		.ascii	"__int32_t\000"
 2192      7433325F 
 2192      7400
 2193              	.LASF157:
 2194 0398 474E5520 		.ascii	"GNU C 4.9.3 20141119 (release) [ARM/embedded-4_9-br"
 2194      4320342E 
 2194      392E3320 
 2194      32303134 
 2194      31313139 
 2195 03cb 616E6368 		.ascii	"anch revision 218278] -mcpu=cortex-m4 -mno-thumb-in"
 2195      20726576 
 2195      6973696F 
 2195      6E203231 
 2195      38323738 
 2196 03fe 74657277 		.ascii	"terwork -mthumb -ggdb -O2 -fomit-frame-pointer -fal"
 2196      6F726B20 
 2196      2D6D7468 
 2196      756D6220 
 2196      2D676764 
 2197 0431 69676E2D 		.ascii	"ign-functions=16 -ffunction-sections -fdata-section"
 2197      66756E63 
 2197      74696F6E 
 2197      733D3136 
 2197      202D6666 
 2198 0464 73202D66 		.ascii	"s -fno-common\000"
 2198      6E6F2D63 
 2198      6F6D6D6F 
 2198      6E00
 2199              	.LASF121:
 2200 0472 73746B61 		.ascii	"stkalign_t\000"
 2200      6C69676E 
 2200      5F7400
 2201              	.LASF48:
 2202 047d 74687265 		.ascii	"threads_list_t\000"
 2202      6164735F 
 2202      6C697374 
 2202      5F7400
 2203              	.LASF62:
 2204 048c 76697274 		.ascii	"virtual_timer_t\000"
ARM GAS  C:\Users\jo\AppData\Local\Temp\cc9hVPTd.s 			page 43


 2204      75616C5F 
 2204      74696D65 
 2204      725F7400 
 2205              	.LASF40:
 2206 049c 705F7761 		.ascii	"p_waiting\000"
 2206      6974696E 
 2206      6700
 2207              	.LASF85:
 2208 04a6 73697A65 		.ascii	"sizetype\000"
 2208      74797065 
 2208      00
 2209              	.LASF70:
 2210 04af 63685F76 		.ascii	"ch_virtual_timers_list\000"
 2210      69727475 
 2210      616C5F74 
 2210      696D6572 
 2210      735F6C69 
 2211              	.LASF129:
 2212 04c6 63685F73 		.ascii	"ch_swc_event_t\000"
 2212      77635F65 
 2212      76656E74 
 2212      5F7400
 2213              	.LASF103:
 2214 04d5 41484233 		.ascii	"AHB3ENR\000"
 2214      454E5200 
 2215              	.LASF71:
 2216 04dd 76745F6C 		.ascii	"vt_lasttime\000"
 2216      61737474 
 2216      696D6500 
 2217              	.LASF34:
 2218 04e9 705F6F6C 		.ascii	"p_older\000"
 2218      64657200 
 2219              	.LASF57:
 2220 04f1 725F6374 		.ascii	"r_ctx\000"
 2220      7800
 2221              	.LASF109:
 2222 04f7 41484232 		.ascii	"AHB2LPENR\000"
 2222      4C50454E 
 2222      5200
 2223              	.LASF135:
 2224 0501 746D5F63 		.ascii	"tm_calibration_t\000"
 2224      616C6962 
 2224      72617469 
 2224      6F6E5F74 
 2224      00
 2225              	.LASF60:
 2226 0512 725F6375 		.ascii	"r_current\000"
 2226      7272656E 
 2226      7400
 2227              	.LASF98:
 2228 051c 41504231 		.ascii	"APB1RSTR\000"
 2228      52535452 
 2228      00
 2229              	.LASF11:
 2230 0525 5F5F7569 		.ascii	"__uint64_t\000"
 2230      6E743634 
 2230      5F7400
ARM GAS  C:\Users\jo\AppData\Local\Temp\cc9hVPTd.s 			page 44


 2231              	.LASF139:
 2232 0530 63756D75 		.ascii	"cumulative\000"
 2232      6C617469 
 2232      766500
 2233              	.LASF21:
 2234 053b 74726566 		.ascii	"trefs_t\000"
 2234      735F7400 
 2235              	.LASF97:
 2236 0543 52455345 		.ascii	"RESERVED0\000"
 2236      52564544 
 2236      3000
 2237              	.LASF100:
 2238 054d 52455345 		.ascii	"RESERVED1\000"
 2238      52564544 
 2238      3100
 2239              	.LASF104:
 2240 0557 52455345 		.ascii	"RESERVED2\000"
 2240      52564544 
 2240      3200
 2241              	.LASF107:
 2242 0561 52455345 		.ascii	"RESERVED3\000"
 2242      52564544 
 2242      3300
 2243              	.LASF111:
 2244 056b 52455345 		.ascii	"RESERVED4\000"
 2244      52564544 
 2244      3400
 2245              	.LASF30:
 2246 0575 705F7072 		.ascii	"p_prev\000"
 2246      657600
 2247              	.LASF116:
 2248 057c 52455345 		.ascii	"RESERVED6\000"
 2248      52564544 
 2248      3600
 2249              	.LASF22:
 2250 0586 74707269 		.ascii	"tprio_t\000"
 2250      6F5F7400 
 2251              	.LASF150:
 2252 058e 6D757465 		.ascii	"mutex\000"
 2252      7800
 2253              	.LASF142:
 2254 0594 6E5F6374 		.ascii	"n_ctxswc\000"
 2254      78737763 
 2254      00
 2255              	.LASF155:
 2256 059d 5F426F6F 		.ascii	"_Bool\000"
 2256      6C00
 2257              	.LASF14:
 2258 05a3 696E7433 		.ascii	"int32_t\000"
 2258      325F7400 
 2259              	.LASF2:
 2260 05ab 756E7369 		.ascii	"unsigned char\000"
 2260      676E6564 
 2260      20636861 
 2260      7200
 2261              	.LASF44:
 2262 05b9 705F6D74 		.ascii	"p_mtxlist\000"
ARM GAS  C:\Users\jo\AppData\Local\Temp\cc9hVPTd.s 			page 45


 2262      786C6973 
 2262      7400
 2263              	.LASF3:
 2264 05c3 73686F72 		.ascii	"short int\000"
 2264      7420696E 
 2264      7400
 2265              	.LASF37:
 2266 05cd 705F7374 		.ascii	"p_state\000"
 2266      61746500 
 2267              	.LASF110:
 2268 05d5 41484233 		.ascii	"AHB3LPENR\000"
 2268      4C50454E 
 2268      5200
 2269              	.LASF56:
 2270 05df 725F7072 		.ascii	"r_prio\000"
 2270      696F00
 2271              	.LASF149:
 2272 05e6 65776D61 		.ascii	"ewmask\000"
 2272      736B00
 2273              	.LASF29:
 2274 05ed 705F6E65 		.ascii	"p_next\000"
 2274      787400
 2275              	.LASF38:
 2276 05f4 705F666C 		.ascii	"p_flags\000"
 2276      61677300 
 2277              	.LASF47:
 2278 05fc 705F7374 		.ascii	"p_stats\000"
 2278      61747300 
 2279              	.LASF106:
 2280 0604 41504232 		.ascii	"APB2ENR\000"
 2280      454E5200 
 2281              	.LASF63:
 2282 060c 63685F76 		.ascii	"ch_virtual_timer\000"
 2282      69727475 
 2282      616C5F74 
 2282      696D6572 
 2282      00
 2283              	.LASF43:
 2284 061d 705F6570 		.ascii	"p_epending\000"
 2284      656E6469 
 2284      6E6700
 2285              	.LASF114:
 2286 0628 52455345 		.ascii	"RESERVED5\000"
 2286      52564544 
 2286      3500
 2287              	.LASF15:
 2288 0632 75696E74 		.ascii	"uint32_t\000"
 2288      33325F74 
 2288      00
 2289              	.LASF55:
 2290 063b 725F7175 		.ascii	"r_queue\000"
 2290      65756500 
 2291              	.LASF66:
 2292 0643 76745F64 		.ascii	"vt_delta\000"
 2292      656C7461 
 2292      00
 2293              	.LASF50:
ARM GAS  C:\Users\jo\AppData\Local\Temp\cc9hVPTd.s 			page 46


 2294 064c 63685F74 		.ascii	"ch_threads_list\000"
 2294      68726561 
 2294      64735F6C 
 2294      69737400 
 2295              	.LASF163:
 2296 065c 646D6149 		.ascii	"dmaInit\000"
 2296      6E697400 
 2297              	.LASF9:
 2298 0664 6C6F6E67 		.ascii	"long unsigned int\000"
 2298      20756E73 
 2298      69676E65 
 2298      6420696E 
 2298      7400
 2299              	.LASF124:
 2300 0676 63686172 		.ascii	"char\000"
 2300      00
 2301              	.LASF95:
 2302 067b 41484232 		.ascii	"AHB2RSTR\000"
 2302      52535452 
 2302      00
 2303              	.LASF28:
 2304 0684 74687265 		.ascii	"thread_t\000"
 2304      61645F74 
 2304      00
 2305              	.LASF136:
 2306 068d 62657374 		.ascii	"best\000"
 2306      00
 2307              	.LASF153:
 2308 0692 6D5F6E65 		.ascii	"m_next\000"
 2308      787400
 2309              	.LASF27:
 2310 0699 73797374 		.ascii	"systime_t\000"
 2310      696D655F 
 2310      7400
 2311              	.LASF45:
 2312 06a3 705F7265 		.ascii	"p_realprio\000"
 2312      616C7072 
 2312      696F00
 2313              	.LASF61:
 2314 06ae 76746675 		.ascii	"vtfunc_t\000"
 2314      6E635F74 
 2314      00
 2315              	.LASF8:
 2316 06b7 5F5F7569 		.ascii	"__uint32_t\000"
 2316      6E743332 
 2316      5F7400
 2317              	.LASF138:
 2318 06c2 6C617374 		.ascii	"last\000"
 2318      00
 2319              	.LASF74:
 2320 06c7 70616E69 		.ascii	"panic_msg\000"
 2320      635F6D73 
 2320      6700
 2321              	.LASF134:
 2322 06d1 6F666673 		.ascii	"offset\000"
 2322      657400
 2323              	.LASF105:
ARM GAS  C:\Users\jo\AppData\Local\Temp\cc9hVPTd.s 			page 47


 2324 06d8 41504231 		.ascii	"APB1ENR\000"
 2324      454E5200 
 2325              	.LASF102:
 2326 06e0 41484232 		.ascii	"AHB2ENR\000"
 2326      454E5200 
 2327              	.LASF122:
 2328 06e8 636F6E74 		.ascii	"context\000"
 2328      65787400 
 2329              	.LASF59:
 2330 06f0 725F6F6C 		.ascii	"r_older\000"
 2330      64657200 
 2331              	.LASF161:
 2332 06f8 68616C5F 		.ascii	"hal_lld_init\000"
 2332      6C6C645F 
 2332      696E6974 
 2332      00
 2333              	.LASF17:
 2334 0705 7274636E 		.ascii	"rtcnt_t\000"
 2334      745F7400 
 2335              	.LASF68:
 2336 070d 76745F70 		.ascii	"vt_par\000"
 2336      617200
 2337              	.LASF117:
 2338 0714 53534347 		.ascii	"SSCGR\000"
 2338      5200
 2339              	.LASF51:
 2340 071a 74687265 		.ascii	"threads_queue_t\000"
 2340      6164735F 
 2340      71756575 
 2340      655F7400 
 2341              	.LASF39:
 2342 072a 705F7265 		.ascii	"p_refs\000"
 2342      667300
 2343              	.LASF75:
 2344 0731 6973725F 		.ascii	"isr_cnt\000"
 2344      636E7400 
 2345              	.LASF115:
 2346 0739 42444352 		.ascii	"BDCR\000"
 2346      00
 2347              	.LASF80:
 2348 073e 726C6973 		.ascii	"rlist\000"
 2348      7400
 2349              	.LASF13:
 2350 0744 75696E74 		.ascii	"uint8_t\000"
 2350      385F7400 
 2351              	.LASF148:
 2352 074c 77746F62 		.ascii	"wtobjp\000"
 2352      6A7000
 2353              	.LASF35:
 2354 0753 705F6E61 		.ascii	"p_name\000"
 2354      6D6500
 2355              	.LASF101:
 2356 075a 41484231 		.ascii	"AHB1ENR\000"
 2356      454E5200 
 2357              	.LASF93:
 2358 0762 43464752 		.ascii	"CFGR\000"
 2358      00
ARM GAS  C:\Users\jo\AppData\Local\Temp\cc9hVPTd.s 			page 48


 2359              	.LASF19:
 2360 0767 746D6F64 		.ascii	"tmode_t\000"
 2360      655F7400 
 2361              	.LASF77:
 2362 076f 74726163 		.ascii	"trace_buffer\000"
 2362      655F6275 
 2362      66666572 
 2362      00
 2363              	.LASF42:
 2364 077c 705F6D73 		.ascii	"p_msg\000"
 2364      6700
 2365              	.LASF143:
 2366 0782 6D5F6372 		.ascii	"m_crit_thd\000"
 2366      69745F74 
 2366      686400
 2367              	.LASF152:
 2368 078d 6D5F6F77 		.ascii	"m_owner\000"
 2368      6E657200 
 2369              	.LASF127:
 2370 0795 73655F77 		.ascii	"se_wtobjp\000"
 2370      746F626A 
 2370      7000
 2371              	.LASF32:
 2372 079f 705F6374 		.ascii	"p_ctx\000"
 2372      7800
 2373              	.LASF67:
 2374 07a5 76745F66 		.ascii	"vt_func\000"
 2374      756E6300 
 2375              		.ident	"GCC: (GNU Tools for ARM Embedded Processors) 4.9.3 20141119 (release) [ARM/embedded-4_9-br
ARM GAS  C:\Users\jo\AppData\Local\Temp\cc9hVPTd.s 			page 49


DEFINED SYMBOLS
                            *ABS*:00000000 hal_lld.c
C:\Users\jo\AppData\Local\Temp\cc9hVPTd.s:19     .text.hal_lld_init:00000000 $t
C:\Users\jo\AppData\Local\Temp\cc9hVPTd.s:25     .text.hal_lld_init:00000000 hal_lld_init
C:\Users\jo\AppData\Local\Temp\cc9hVPTd.s:132    .text.hal_lld_init:00000088 $d
C:\Users\jo\AppData\Local\Temp\cc9hVPTd.s:138    .text.stm32_clock_init:00000000 $t
C:\Users\jo\AppData\Local\Temp\cc9hVPTd.s:144    .text.stm32_clock_init:00000000 stm32_clock_init
C:\Users\jo\AppData\Local\Temp\cc9hVPTd.s:268    .text.stm32_clock_init:000000b4 $d
                     .debug_frame:00000010 $d
C:\Users\jo\AppData\Local\Temp\cc9hVPTd.s:276    .text.stm32_clock_init:000000c8 $t

UNDEFINED SYMBOLS
dmaInit
