ARM GAS  C:\Users\jo\AppData\Local\Temp\ccufkIBC.s 			page 1


   1              		.syntax unified
   2              		.cpu cortex-m4
   3              		.fpu softvfp
   4              		.eabi_attribute 20, 1
   5              		.eabi_attribute 21, 1
   6              		.eabi_attribute 23, 3
   7              		.eabi_attribute 24, 1
   8              		.eabi_attribute 25, 1
   9              		.eabi_attribute 26, 1
  10              		.eabi_attribute 30, 2
  11              		.eabi_attribute 34, 1
  12              		.eabi_attribute 18, 4
  13              		.thumb
  14              		.file	"ip.c"
  15              		.text
  16              	.Ltext0:
  17              		.cfi_sections	.debug_frame
  18              		.section	.text.chprintf.constprop.1,"ax",%progbits
  19              		.align	2
  20              		.p2align 4,,15
  21              		.thumb
  22              		.thumb_func
  23              		.type	chprintf.constprop.1, %function
  24              	chprintf.constprop.1:
  25              	.LFB261:
  26              		.file 1 "../../../os/hal/lib/streams/chprintf.h"
  27              		.loc 1 69 0
  28              		.cfi_startproc
  29              		@ args = 4, pretend = 12, frame = 8
  30              		@ frame_needed = 0, uses_anonymous_args = 1
  31              	.LVL0:
  32 0000 0EB4     		push	{r1, r2, r3}
  33              		.cfi_def_cfa_offset 12
  34              		.cfi_offset 1, -12
  35              		.cfi_offset 2, -8
  36              		.cfi_offset 3, -4
  37 0002 00B5     		push	{lr}
  38              		.cfi_def_cfa_offset 16
  39              		.cfi_offset 14, -16
  40 0004 82B0     		sub	sp, sp, #8
  41              		.cfi_def_cfa_offset 24
  42              		.loc 1 73 0
  43 0006 04AB     		add	r3, sp, #16
  44              		.loc 1 74 0
  45 0008 1A46     		mov	r2, r3
  46 000a 0549     		ldr	r1, .L3
  47 000c 0548     		ldr	r0, .L3+4
  48              	.LVL1:
  49              		.loc 1 73 0
  50 000e 0193     		str	r3, [sp, #4]
  51              		.loc 1 74 0
  52 0010 FFF7FEFF 		bl	chvprintf
  53              	.LVL2:
  54              		.loc 1 78 0
  55 0014 02B0     		add	sp, sp, #8
  56              		.cfi_def_cfa_offset 16
  57              		@ sp needed
ARM GAS  C:\Users\jo\AppData\Local\Temp\ccufkIBC.s 			page 2


  58 0016 5DF804EB 		ldr	lr, [sp], #4
  59              		.cfi_restore 14
  60              		.cfi_def_cfa_offset 12
  61 001a 03B0     		add	sp, sp, #12
  62              		.cfi_restore 3
  63              		.cfi_restore 2
  64              		.cfi_restore 1
  65              		.cfi_def_cfa_offset 0
  66 001c 7047     		bx	lr
  67              	.L4:
  68 001e 00BF     		.align	2
  69              	.L3:
  70 0020 00000000 		.word	.LC0
  71 0024 00000000 		.word	itm_port
  72              		.cfi_endproc
  73              	.LFE261:
  74              		.size	chprintf.constprop.1, .-chprintf.constprop.1
  75 0028 AFF30080 		.section	.text.ip_route,"ax",%progbits
  75      AFF30080 
  76              		.align	2
  77              		.p2align 4,,15
  78              		.global	ip_route
  79              		.thumb
  80              		.thumb_func
  81              		.type	ip_route, %function
  82              	ip_route:
  83              	.LFB256:
  84              		.file 2 "../../../os/ext/lwip-1.4.1/src/core/ipv4/ip.c"
  85              		.loc 2 125 0
  86              		.cfi_startproc
  87              		@ args = 0, pretend = 0, frame = 0
  88              		@ frame_needed = 0, uses_anonymous_args = 0
  89              		@ link register save eliminated.
  90              	.LVL3:
  91 0000 10B4     		push	{r4}
  92              		.cfi_def_cfa_offset 4
  93              		.cfi_offset 4, -4
  94              		.loc 2 136 0
  95 0002 114B     		ldr	r3, .L25
  96              	.L23:
  97 0004 1B68     		ldr	r3, [r3]
  98              	.LVL4:
  99 0006 6BB1     		cbz	r3, .L6
 100              		.loc 2 138 0
 101 0008 93F82920 		ldrb	r2, [r3, #41]	@ zero_extendqisi2
 102 000c D207     		lsls	r2, r2, #31
 103 000e F9D5     		bpl	.L23
 104              		.loc 2 139 0
 105 0010 5C68     		ldr	r4, [r3, #4]
 106 0012 0268     		ldr	r2, [r0]
 107 0014 9968     		ldr	r1, [r3, #8]
 108 0016 6240     		eors	r2, r2, r4
 109 0018 0A42     		tst	r2, r1
 110 001a F3D1     		bne	.L23
 111 001c 1846     		mov	r0, r3
 112              	.LVL5:
 113              		.loc 2 154 0
ARM GAS  C:\Users\jo\AppData\Local\Temp\ccufkIBC.s 			page 3


 114 001e 5DF8044B 		ldr	r4, [sp], #4
 115              		.cfi_remember_state
 116              		.cfi_restore 4
 117              		.cfi_def_cfa_offset 0
 118 0022 7047     		bx	lr
 119              	.LVL6:
 120              	.L6:
 121              		.cfi_restore_state
 122              		.loc 2 145 0
 123 0024 094B     		ldr	r3, .L25+4
 124              	.LVL7:
 125 0026 1868     		ldr	r0, [r3]
 126              	.LVL8:
 127 0028 30B1     		cbz	r0, .L10
 128              		.loc 2 145 0 is_stmt 0 discriminator 1
 129 002a 90F82930 		ldrb	r3, [r0, #41]	@ zero_extendqisi2
 130 002e DB07     		lsls	r3, r3, #31
 131 0030 02D5     		bpl	.L10
 132              	.L8:
 133              		.loc 2 154 0 is_stmt 1
 134 0032 5DF8044B 		ldr	r4, [sp], #4
 135              		.cfi_remember_state
 136              		.cfi_restore 4
 137              		.cfi_def_cfa_offset 0
 138 0036 7047     		bx	lr
 139              	.L10:
 140              		.cfi_restore_state
 141              	.LVL9:
 142              	.LBB11:
 143              	.LBB12:
 144              		.loc 2 148 0
 145 0038 054A     		ldr	r2, .L25+8
 146 003a B2F85630 		ldrh	r3, [r2, #86]
 147 003e 0133     		adds	r3, r3, #1
 148 0040 A2F85630 		strh	r3, [r2, #86]	@ movhi
 149 0044 0020     		movs	r0, #0
 150 0046 F4E7     		b	.L8
 151              	.L26:
 152              		.align	2
 153              	.L25:
 154 0048 00000000 		.word	netif_list
 155 004c 00000000 		.word	netif_default
 156 0050 00000000 		.word	lwip_stats
 157              	.LBE12:
 158              	.LBE11:
 159              		.cfi_endproc
 160              	.LFE256:
 161              		.size	ip_route, .-ip_route
 162 0054 AFF30080 		.section	.text.ip_input,"ax",%progbits
 162      AFF30080 
 162      AFF30080 
 163              		.align	2
 164              		.p2align 4,,15
 165              		.global	ip_input
 166              		.thumb
 167              		.thumb_func
 168              		.type	ip_input, %function
ARM GAS  C:\Users\jo\AppData\Local\Temp\ccufkIBC.s 			page 4


 169              	ip_input:
 170              	.LFB257:
 171              		.loc 2 306 0
 172              		.cfi_startproc
 173              		@ args = 0, pretend = 0, frame = 0
 174              		@ frame_needed = 0, uses_anonymous_args = 0
 175              	.LVL10:
 176 0000 2DE9F84F 		push	{r3, r4, r5, r6, r7, r8, r9, r10, fp, lr}
 177              		.cfi_def_cfa_offset 40
 178              		.cfi_offset 3, -40
 179              		.cfi_offset 4, -36
 180              		.cfi_offset 5, -32
 181              		.cfi_offset 6, -28
 182              		.cfi_offset 7, -24
 183              		.cfi_offset 8, -20
 184              		.cfi_offset 9, -16
 185              		.cfi_offset 10, -12
 186              		.cfi_offset 11, -8
 187              		.cfi_offset 14, -4
 188              		.loc 2 315 0
 189 0004 794D     		ldr	r5, .L74
 190              		.loc 2 319 0
 191 0006 D0F80480 		ldr	r8, [r0, #4]
 192              	.LVL11:
 193              		.loc 2 315 0
 194 000a B5F84A30 		ldrh	r3, [r5, #74]
 195 000e 0133     		adds	r3, r3, #1
 196 0010 A5F84A30 		strh	r3, [r5, #74]	@ movhi
 197              		.loc 2 320 0
 198 0014 98F80030 		ldrb	r3, [r8]	@ zero_extendqisi2
 199 0018 1A09     		lsrs	r2, r3, #4
 200 001a 042A     		cmp	r2, #4
 201              		.loc 2 306 0
 202 001c 0646     		mov	r6, r0
 203              		.loc 2 320 0
 204 001e 0ED0     		beq	.L28
 205              		.loc 2 323 0
 206 0020 FFF7FEFF 		bl	pbuf_free
 207              	.LVL12:
 208              		.loc 2 324 0
 209 0024 B5F85C20 		ldrh	r2, [r5, #92]
 210              		.loc 2 325 0
 211 0028 B5F84E30 		ldrh	r3, [r5, #78]
 212              		.loc 2 324 0
 213 002c 0132     		adds	r2, r2, #1
 214              		.loc 2 325 0
 215 002e 0133     		adds	r3, r3, #1
 216              		.loc 2 324 0
 217 0030 A5F85C20 		strh	r2, [r5, #92]	@ movhi
 218              		.loc 2 325 0
 219 0034 A5F84E30 		strh	r3, [r5, #78]	@ movhi
 220              	.L29:
 221              		.loc 2 613 0
 222 0038 0020     		movs	r0, #0
 223 003a BDE8F88F 		pop	{r3, r4, r5, r6, r7, r8, r9, r10, fp, pc}
 224              	.LVL13:
 225              	.L28:
ARM GAS  C:\Users\jo\AppData\Local\Temp\ccufkIBC.s 			page 5


 226              		.loc 2 338 0
 227 003e 03F00F03 		and	r3, r3, #15
 228              	.LVL14:
 229              		.loc 2 342 0
 230 0042 B8F80200 		ldrh	r0, [r8, #2]	@ unaligned
 231              	.LVL15:
 232              		.loc 2 340 0
 233 0046 9C00     		lsls	r4, r3, #2
 234              	.LVL16:
 235 0048 0F46     		mov	r7, r1
 236              		.loc 2 342 0
 237 004a FFF7FEFF 		bl	lwip_ntohs
 238              	.LVL17:
 239              		.loc 2 345 0
 240 004e 7389     		ldrh	r3, [r6, #10]
 241 0050 A342     		cmp	r3, r4
 242              		.loc 2 342 0
 243 0052 8146     		mov	r9, r0
 244              	.LVL18:
 245              		.loc 2 345 0
 246 0054 02D3     		bcc	.L30
 247              		.loc 2 345 0 is_stmt 0 discriminator 1
 248 0056 3389     		ldrh	r3, [r6, #8]
 249 0058 8342     		cmp	r3, r0
 250 005a 0FD2     		bcs	.L31
 251              	.L30:
 252              		.loc 2 357 0 is_stmt 1
 253 005c 3046     		mov	r0, r6
 254              	.LVL19:
 255 005e FFF7FEFF 		bl	pbuf_free
 256              	.LVL20:
 257              		.loc 2 358 0
 258 0062 B5F85220 		ldrh	r2, [r5, #82]
 259              		.loc 2 359 0
 260 0066 B5F84E30 		ldrh	r3, [r5, #78]
 261              		.loc 2 358 0
 262 006a 0132     		adds	r2, r2, #1
 263              		.loc 2 359 0
 264 006c 0133     		adds	r3, r3, #1
 265              		.loc 2 358 0
 266 006e A5F85220 		strh	r2, [r5, #82]	@ movhi
 267              		.loc 2 359 0
 268 0072 A5F84E30 		strh	r3, [r5, #78]	@ movhi
 269              		.loc 2 613 0
 270 0076 0020     		movs	r0, #0
 271 0078 BDE8F88F 		pop	{r3, r4, r5, r6, r7, r8, r9, r10, fp, pc}
 272              	.LVL21:
 273              	.L31:
 274              		.loc 2 366 0
 275 007c 2146     		mov	r1, r4
 276 007e 4046     		mov	r0, r8
 277              	.LVL22:
 278 0080 FFF7FEFF 		bl	inet_chksum
 279              	.LVL23:
 280 0084 0028     		cmp	r0, #0
 281 0086 40F08580 		bne	.L69
 282              		.loc 2 381 0
ARM GAS  C:\Users\jo\AppData\Local\Temp\ccufkIBC.s 			page 6


 283 008a 4946     		mov	r1, r9
 284 008c 3046     		mov	r0, r6
 285              		.loc 2 384 0
 286 008e DFF86891 		ldr	r9, .L74+12
 287              	.LBB13:
 288              		.loc 2 435 0
 289 0092 DFF868A1 		ldr	r10, .L74+16
 290              	.LBE13:
 291              		.loc 2 381 0
 292 0096 FFF7FEFF 		bl	pbuf_realloc
 293              	.LVL24:
 294              		.loc 2 384 0
 295 009a D8F81030 		ldr	r3, [r8, #16]	@ unaligned
 296 009e C9F80030 		str	r3, [r9]
 297              		.loc 2 385 0
 298 00a2 534A     		ldr	r2, .L74+4
 299 00a4 D8F80C30 		ldr	r3, [r8, #12]	@ unaligned
 300 00a8 1360     		str	r3, [r2]
 301              	.LVL25:
 302 00aa 3C46     		mov	r4, r7
 303              	.LVL26:
 304              	.LBB14:
 305              		.loc 2 401 0
 306 00ac 4FF0010B 		mov	fp, #1
 307              	.LVL27:
 308              	.L40:
 309              		.loc 2 411 0
 310 00b0 94F82930 		ldrb	r3, [r4, #41]	@ zero_extendqisi2
 311 00b4 DB07     		lsls	r3, r3, #31
 312 00b6 09D5     		bpl	.L36
 313              		.loc 2 411 0 is_stmt 0 discriminator 1
 314 00b8 6368     		ldr	r3, [r4, #4]
 315 00ba 3BB1     		cbz	r3, .L36
 316              		.loc 2 413 0 is_stmt 1
 317 00bc D9F80000 		ldr	r0, [r9]
 318 00c0 8342     		cmp	r3, r0
 319 00c2 0FD0     		beq	.L37
 320              		.loc 2 415 0 discriminator 1
 321 00c4 2146     		mov	r1, r4
 322 00c6 FFF7FEFF 		bl	ip4_addr_isbroadcast
 323              	.LVL28:
 324              		.loc 2 413 0 discriminator 1
 325 00ca 58B9     		cbnz	r0, .L37
 326              	.L36:
 327              		.loc 2 433 0
 328 00cc BBF1000F 		cmp	fp, #0
 329 00d0 55D0     		beq	.L70
 330              	.LVL29:
 331              		.loc 2 435 0
 332 00d2 DAF80040 		ldr	r4, [r10]
 333              	.LVL30:
 334              	.L38:
 335              		.loc 2 439 0
 336 00d6 BC42     		cmp	r4, r7
 337              		.loc 2 440 0
 338 00d8 08BF     		it	eq
 339 00da 2468     		ldreq	r4, [r4]
ARM GAS  C:\Users\jo\AppData\Local\Temp\ccufkIBC.s 			page 7


 340              	.LVL31:
 341 00dc 4FF0000B 		mov	fp, #0
 342              		.loc 2 442 0
 343 00e0 002C     		cmp	r4, #0
 344 00e2 E5D1     		bne	.L40
 345              	.LVL32:
 346              	.L37:
 347              	.LBE14:
 348              		.loc 2 475 0
 349 00e4 424B     		ldr	r3, .L74+4
 350 00e6 3946     		mov	r1, r7
 351 00e8 1868     		ldr	r0, [r3]
 352 00ea 9B46     		mov	fp, r3
 353 00ec FFF7FEFF 		bl	ip4_addr_isbroadcast
 354              	.LVL33:
 355 00f0 0028     		cmp	r0, #0
 356 00f2 46D1     		bne	.L41
 357              		.loc 2 476 0 discriminator 1
 358 00f4 DBF80030 		ldr	r3, [fp]
 359 00f8 03F0F003 		and	r3, r3, #240
 360              		.loc 2 475 0 discriminator 1
 361 00fc E02B     		cmp	r3, #224
 362 00fe 40D0     		beq	.L41
 363              		.loc 2 489 0
 364 0100 002C     		cmp	r4, #0
 365 0102 6ED0     		beq	.L71
 366              		.loc 2 507 0
 367 0104 B8F80630 		ldrh	r3, [r8, #6]	@ unaligned
 368 0108 23F0C003 		bic	r3, r3, #192
 369 010c 002B     		cmp	r3, #0
 370 010e 4FD1     		bne	.L72
 371              	.L44:
 372              		.loc 2 561 0
 373 0110 98F80930 		ldrb	r3, [r8, #9]	@ zero_extendqisi2
 374              		.loc 2 553 0
 375 0114 DFF8E8B0 		ldr	fp, .L74+20
 376              		.loc 2 554 0
 377 0118 364C     		ldr	r4, .L74+8
 378              	.LVL34:
 379              		.loc 2 553 0
 380 011a CBF80070 		str	r7, [fp]
 381              		.loc 2 561 0
 382 011e 062B     		cmp	r3, #6
 383              		.loc 2 554 0
 384 0120 C4F80080 		str	r8, [r4]
 385              		.loc 2 561 0
 386 0124 58D0     		beq	.L46
 387 0126 112B     		cmp	r3, #17
 388 0128 51D0     		beq	.L47
 389 012a 012B     		cmp	r3, #1
 390 012c 4AD0     		beq	.L73
 391              		.loc 2 591 0
 392 012e 3946     		mov	r1, r7
 393 0130 D9F80000 		ldr	r0, [r9]
 394 0134 304F     		ldr	r7, .L74+12
 395              	.LVL35:
 396 0136 FFF7FEFF 		bl	ip4_addr_isbroadcast
ARM GAS  C:\Users\jo\AppData\Local\Temp\ccufkIBC.s 			page 8


 397              	.LVL36:
 398 013a 50B9     		cbnz	r0, .L50
 399              		.loc 2 592 0 discriminator 1
 400 013c 3B68     		ldr	r3, [r7]
 401 013e 03F0F003 		and	r3, r3, #240
 402              		.loc 2 591 0 discriminator 1
 403 0142 E02B     		cmp	r3, #224
 404 0144 05D0     		beq	.L50
 405              		.loc 2 593 0
 406 0146 C6F80480 		str	r8, [r6, #4]
 407              		.loc 2 594 0
 408 014a 3046     		mov	r0, r6
 409 014c 0221     		movs	r1, #2
 410 014e FFF7FEFF 		bl	icmp_dest_unreach
 411              	.LVL37:
 412              	.L50:
 413              		.loc 2 597 0
 414 0152 3046     		mov	r0, r6
 415 0154 FFF7FEFF 		bl	pbuf_free
 416              	.LVL38:
 417              		.loc 2 601 0
 418 0158 B5F85820 		ldrh	r2, [r5, #88]
 419              		.loc 2 602 0
 420 015c B5F84E30 		ldrh	r3, [r5, #78]
 421              		.loc 2 601 0
 422 0160 0132     		adds	r2, r2, #1
 423              		.loc 2 602 0
 424 0162 0133     		adds	r3, r3, #1
 425              		.loc 2 601 0
 426 0164 A5F85820 		strh	r2, [r5, #88]	@ movhi
 427              		.loc 2 602 0
 428 0168 A5F84E30 		strh	r3, [r5, #78]	@ movhi
 429              	.L49:
 430              		.loc 2 609 0
 431 016c 204A     		ldr	r2, .L74+4
 432              		.loc 2 607 0
 433 016e 0023     		movs	r3, #0
 434 0170 CBF80030 		str	r3, [fp]
 435              		.loc 2 608 0
 436 0174 2360     		str	r3, [r4]
 437              		.loc 2 609 0
 438 0176 1360     		str	r3, [r2]
 439              		.loc 2 610 0
 440 0178 C9F80030 		str	r3, [r9]
 441              		.loc 2 612 0
 442 017c 5CE7     		b	.L29
 443              	.LVL39:
 444              	.L70:
 445              	.LBB15:
 446              		.loc 2 437 0
 447 017e 2468     		ldr	r4, [r4]
 448              	.LVL40:
 449 0180 A9E7     		b	.L38
 450              	.LVL41:
 451              	.L41:
 452              	.LBE15:
 453              		.loc 2 480 0
ARM GAS  C:\Users\jo\AppData\Local\Temp\ccufkIBC.s 			page 9


 454 0182 3046     		mov	r0, r6
 455 0184 FFF7FEFF 		bl	pbuf_free
 456              	.LVL42:
 457              		.loc 2 481 0
 458 0188 B5F84E30 		ldrh	r3, [r5, #78]
 459 018c 0133     		adds	r3, r3, #1
 460 018e A5F84E30 		strh	r3, [r5, #78]	@ movhi
 461              		.loc 2 484 0
 462 0192 51E7     		b	.L29
 463              	.LVL43:
 464              	.L69:
 465              		.loc 2 371 0
 466 0194 3046     		mov	r0, r6
 467 0196 FFF7FEFF 		bl	pbuf_free
 468              	.LVL44:
 469              		.loc 2 372 0
 470 019a B5F85020 		ldrh	r2, [r5, #80]
 471              		.loc 2 373 0
 472 019e B5F84E30 		ldrh	r3, [r5, #78]
 473              		.loc 2 372 0
 474 01a2 0132     		adds	r2, r2, #1
 475              		.loc 2 373 0
 476 01a4 0133     		adds	r3, r3, #1
 477              		.loc 2 372 0
 478 01a6 A5F85020 		strh	r2, [r5, #80]	@ movhi
 479              		.loc 2 373 0
 480 01aa A5F84E30 		strh	r3, [r5, #78]	@ movhi
 481              		.loc 2 375 0
 482 01ae 43E7     		b	.L29
 483              	.LVL45:
 484              	.L72:
 485              		.loc 2 512 0
 486 01b0 3046     		mov	r0, r6
 487 01b2 FFF7FEFF 		bl	ip_reass
 488              	.LVL46:
 489              		.loc 2 514 0
 490 01b6 0646     		mov	r6, r0
 491 01b8 0028     		cmp	r0, #0
 492 01ba 3FF43DAF 		beq	.L29
 493              		.loc 2 517 0
 494 01be D0F80480 		ldr	r8, [r0, #4]
 495              	.LVL47:
 496 01c2 A5E7     		b	.L44
 497              	.LVL48:
 498              	.L73:
 499              		.loc 2 580 0
 500 01c4 3046     		mov	r0, r6
 501 01c6 3946     		mov	r1, r7
 502 01c8 FFF7FEFF 		bl	icmp_input
 503              	.LVL49:
 504              		.loc 2 581 0
 505 01cc CEE7     		b	.L49
 506              	.L47:
 507              		.loc 2 568 0
 508 01ce 3046     		mov	r0, r6
 509 01d0 3946     		mov	r1, r7
 510 01d2 FFF7FEFF 		bl	udp_input
ARM GAS  C:\Users\jo\AppData\Local\Temp\ccufkIBC.s 			page 10


 511              	.LVL50:
 512              		.loc 2 569 0
 513 01d6 C9E7     		b	.L49
 514              	.L46:
 515              		.loc 2 574 0
 516 01d8 3046     		mov	r0, r6
 517 01da 3946     		mov	r1, r7
 518 01dc FFF7FEFF 		bl	tcp_input
 519              	.LVL51:
 520              		.loc 2 575 0
 521 01e0 C4E7     		b	.L49
 522              	.LVL52:
 523              	.L71:
 524              		.loc 2 503 0
 525 01e2 3046     		mov	r0, r6
 526 01e4 FFF7FEFF 		bl	pbuf_free
 527              	.LVL53:
 528              		.loc 2 504 0
 529 01e8 26E7     		b	.L29
 530              	.L75:
 531 01ea 00BF     		.align	2
 532              	.L74:
 533 01ec 00000000 		.word	lwip_stats
 534 01f0 00000000 		.word	.LANCHOR1
 535 01f4 00000000 		.word	.LANCHOR3
 536 01f8 00000000 		.word	.LANCHOR0
 537 01fc 00000000 		.word	netif_list
 538 0200 00000000 		.word	.LANCHOR2
 539              		.cfi_endproc
 540              	.LFE257:
 541              		.size	ip_input, .-ip_input
 542 0204 AFF30080 		.section	.text.ip_output_if,"ax",%progbits
 542      AFF30080 
 542      AFF30080 
 543              		.align	2
 544              		.p2align 4,,15
 545              		.global	ip_output_if
 546              		.thumb
 547              		.thumb_func
 548              		.type	ip_output_if, %function
 549              	ip_output_if:
 550              	.LFB258:
 551              		.loc 2 644 0
 552              		.cfi_startproc
 553              		@ args = 12, pretend = 0, frame = 16
 554              		@ frame_needed = 0, uses_anonymous_args = 0
 555              	.LVL54:
 556 0000 2DE9F04F 		push	{r4, r5, r6, r7, r8, r9, r10, fp, lr}
 557              		.cfi_def_cfa_offset 36
 558              		.cfi_offset 4, -36
 559              		.cfi_offset 5, -32
 560              		.cfi_offset 6, -28
 561              		.cfi_offset 7, -24
 562              		.cfi_offset 8, -20
 563              		.cfi_offset 9, -16
 564              		.cfi_offset 10, -12
 565              		.cfi_offset 11, -8
ARM GAS  C:\Users\jo\AppData\Local\Temp\ccufkIBC.s 			page 11


 566              		.cfi_offset 14, -4
 567 0004 8A46     		mov	r10, r1
 568              		.loc 2 668 0
 569 0006 C189     		ldrh	r1, [r0, #14]
 570              	.LVL55:
 571              		.loc 2 644 0
 572 0008 87B0     		sub	sp, sp, #28
 573              		.cfi_def_cfa_offset 64
 574              		.loc 2 668 0
 575 000a 0129     		cmp	r1, #1
 576              		.loc 2 644 0
 577 000c 0546     		mov	r5, r0
 578 000e 9DF840B0 		ldrb	fp, [sp, #64]	@ zero_extendqisi2
 579 0012 9DF84490 		ldrb	r9, [sp, #68]	@ zero_extendqisi2
 580 0016 9046     		mov	r8, r2
 581 0018 1E46     		mov	r6, r3
 582              		.loc 2 668 0
 583 001a 0BD0     		beq	.L77
 584              		.loc 2 668 0 is_stmt 0 discriminator 1
 585 001c 4D4B     		ldr	r3, .L100
 586              	.LVL56:
 587 001e 0093     		str	r3, [sp]
 588 0020 4D48     		ldr	r0, .L100+4
 589              	.LVL57:
 590 0022 4E49     		ldr	r1, .L100+8
 591 0024 4E4A     		ldr	r2, .L100+12
 592              	.LVL58:
 593 0026 4FF42773 		mov	r3, #668
 594 002a FFF7FEFF 		bl	chprintf.constprop.1
 595              	.LVL59:
 596              	.LBB16:
 597              	.LBB17:
 598              		.file 3 "../../../os/hal/osal/rt/osal.h"
 599              		.loc 3 414 0 is_stmt 1 discriminator 1
 600 002e 4C48     		ldr	r0, .L100+12
 601 0030 FFF7FEFF 		bl	chSysHalt
 602              	.LVL60:
 603              	.L77:
 604              	.LBE17:
 605              	.LBE16:
 606              		.loc 2 673 0
 607 0034 B8F1000F 		cmp	r8, #0
 608 0038 66D0     		beq	.L78
 609              	.LVL61:
 610              	.LBB18:
 611              		.loc 2 704 0
 612 003a 2846     		mov	r0, r5
 613 003c 1421     		movs	r1, #20
 614 003e FFF7FEFF 		bl	pbuf_header
 615              	.LVL62:
 616 0042 0028     		cmp	r0, #0
 617 0044 7DD1     		bne	.L97
 618              		.loc 2 713 0
 619 0046 6B89     		ldrh	r3, [r5, #10]
 620              		.loc 2 712 0
 621 0048 6C68     		ldr	r4, [r5, #4]
 622              	.LVL63:
ARM GAS  C:\Users\jo\AppData\Local\Temp\ccufkIBC.s 			page 12


 623              		.loc 2 713 0
 624 004a 132B     		cmp	r3, #19
 625 004c 63D9     		bls	.L98
 626              	.L81:
 627              		.loc 2 717 0
 628 004e 84F80990 		strb	r9, [r4, #9]
 629              		.loc 2 716 0
 630 0052 2672     		strb	r6, [r4, #8]
 631              		.loc 2 723 0
 632 0054 D8F80030 		ldr	r3, [r8]
 633              		.loc 2 730 0
 634 0058 84F801B0 		strb	fp, [r4, #1]
 635              		.loc 2 729 0
 636 005c 4522     		movs	r2, #69
 637              		.loc 2 725 0
 638 005e 99B2     		uxth	r1, r3
 639              		.loc 2 729 0
 640 0060 2270     		strb	r2, [r4]
 641 0062 01EB1341 		add	r1, r1, r3, lsr #16
 642              		.loc 2 723 0
 643 0066 2361     		str	r3, [r4, #16]	@ unaligned
 644              		.loc 2 732 0
 645 0068 4FEA0B2B 		lsl	fp, fp, #8
 646              		.loc 2 734 0
 647 006c 2889     		ldrh	r0, [r5, #8]
 648 006e 0391     		str	r1, [sp, #12]
 649              		.loc 2 732 0
 650 0070 4BEA020B 		orr	fp, fp, r2
 651              		.loc 2 734 0
 652 0074 FFF7FEFF 		bl	lwip_htons
 653              	.LVL64:
 654              		.loc 2 739 0
 655 0078 3A4F     		ldr	r7, .L100+16
 656              		.loc 2 734 0
 657 007a 6080     		strh	r0, [r4, #2]	@ unaligned
 658              		.loc 2 738 0
 659 007c 4FF0000E 		mov	lr, #0
 660              		.loc 2 734 0
 661 0080 0290     		str	r0, [sp, #8]
 662              		.loc 2 738 0
 663 0082 84F806E0 		strb	lr, [r4, #6]
 664 0086 84F807E0 		strb	lr, [r4, #7]
 665              		.loc 2 739 0
 666 008a 3888     		ldrh	r0, [r7]
 667 008c FFF7FEFF 		bl	lwip_htons
 668              	.LVL65:
 669              		.loc 2 743 0
 670 0090 B7F800E0 		ldrh	lr, [r7]
 671              		.loc 2 739 0
 672 0094 A080     		strh	r0, [r4, #4]	@ unaligned
 673              		.loc 2 743 0
 674 0096 0EF1010E 		add	lr, lr, #1
 675              		.loc 2 719 0
 676 009a 46EA0929 		orr	r9, r6, r9, lsl #8
 677              	.LVL66:
 678              		.loc 2 743 0
 679 009e A7F800E0 		strh	lr, [r7]	@ movhi
ARM GAS  C:\Users\jo\AppData\Local\Temp\ccufkIBC.s 			page 13


 680              		.loc 2 745 0
 681 00a2 029B     		ldr	r3, [sp, #8]
 682 00a4 0399     		ldr	r1, [sp, #12]
 683 00a6 BAF1000F 		cmp	r10, #0
 684 00aa 02D0     		beq	.L82
 685              		.loc 2 745 0 is_stmt 0 discriminator 1
 686 00ac DAF80020 		ldr	r2, [r10]
 687 00b0 42BB     		cbnz	r2, .L83
 688              	.L82:
 689              		.loc 2 746 0 is_stmt 1
 690 00b2 129A     		ldr	r2, [sp, #72]
 691 00b4 5268     		ldr	r2, [r2, #4]
 692 00b6 E260     		str	r2, [r4, #12]	@ unaligned
 693              	.L84:
 694 00b8 01EB0B06 		add	r6, r1, fp
 695 00bc 4E44     		add	r6, r6, r9
 696 00be 1E44     		add	r6, r6, r3
 697 00c0 3044     		add	r0, r0, r6
 698 00c2 10FA82F0 		uxtah	r0, r0, r2
 699              		.loc 2 754 0
 700 00c6 00EB1240 		add	r0, r0, r2, lsr #16
 701              	.LVL67:
 702              		.loc 2 755 0
 703 00ca 83B2     		uxth	r3, r0
 704 00cc 03EB1040 		add	r0, r3, r0, lsr #16
 705              	.LVL68:
 706              		.loc 2 756 0
 707 00d0 00EB1040 		add	r0, r0, r0, lsr #16
 708              	.LVL69:
 709              		.loc 2 758 0
 710 00d4 C043     		mvns	r0, r0
 711              	.LVL70:
 712 00d6 6081     		strh	r0, [r4, #10]	@ unaligned
 713              	.LVL71:
 714              	.L85:
 715              	.LBE18:
 716              		.loc 2 772 0
 717 00d8 234A     		ldr	r2, .L100+20
 718              		.loc 2 791 0
 719 00da 129B     		ldr	r3, [sp, #72]
 720 00dc 198C     		ldrh	r1, [r3, #32]
 721              		.loc 2 772 0
 722 00de B2F84830 		ldrh	r3, [r2, #72]
 723 00e2 0133     		adds	r3, r3, #1
 724 00e4 A2F84830 		strh	r3, [r2, #72]	@ movhi
 725              		.loc 2 791 0
 726 00e8 11B1     		cbz	r1, .L86
 727              		.loc 2 791 0 is_stmt 0 discriminator 1
 728 00ea 2B89     		ldrh	r3, [r5, #8]
 729 00ec 8B42     		cmp	r3, r1
 730 00ee 1FD8     		bhi	.L99
 731              	.L86:
 732              		.loc 2 797 0 is_stmt 1
 733 00f0 129B     		ldr	r3, [sp, #72]
 734 00f2 1298     		ldr	r0, [sp, #72]
 735 00f4 5B69     		ldr	r3, [r3, #20]
 736 00f6 2946     		mov	r1, r5
ARM GAS  C:\Users\jo\AppData\Local\Temp\ccufkIBC.s 			page 14


 737 00f8 4246     		mov	r2, r8
 738 00fa 9847     		blx	r3
 739              	.LVL72:
 740              	.L80:
 741              		.loc 2 798 0
 742 00fc 40B2     		sxtb	r0, r0
 743 00fe 07B0     		add	sp, sp, #28
 744              		.cfi_remember_state
 745              		.cfi_def_cfa_offset 36
 746              		@ sp needed
 747 0100 BDE8F08F 		pop	{r4, r5, r6, r7, r8, r9, r10, fp, pc}
 748              	.LVL73:
 749              	.L83:
 750              		.cfi_restore_state
 751              	.LBB21:
 752              		.loc 2 749 0
 753 0104 E260     		str	r2, [r4, #12]	@ unaligned
 754 0106 D7E7     		b	.L84
 755              	.LVL74:
 756              	.L78:
 757              	.LBE21:
 758              		.loc 2 768 0
 759 0108 6B68     		ldr	r3, [r5, #4]
 760 010a 0DF11808 		add	r8, sp, #24
 761              	.LVL75:
 762 010e 1B69     		ldr	r3, [r3, #16]	@ unaligned
 763 0110 48F8043D 		str	r3, [r8, #-4]!
 764              	.LVL76:
 765 0114 E0E7     		b	.L85
 766              	.LVL77:
 767              	.L98:
 768              	.LBB22:
 769              		.loc 2 713 0 discriminator 1
 770 0116 0F4B     		ldr	r3, .L100
 771 0118 0093     		str	r3, [sp]
 772 011a 1049     		ldr	r1, .L100+8
 773 011c 134A     		ldr	r2, .L100+24
 774 011e 0E48     		ldr	r0, .L100+4
 775 0120 40F2CA23 		movw	r3, #714
 776 0124 FFF7FEFF 		bl	chprintf.constprop.1
 777              	.LVL78:
 778              	.LBB19:
 779              	.LBB20:
 780              		.loc 3 414 0 discriminator 1
 781 0128 1048     		ldr	r0, .L100+24
 782 012a FFF7FEFF 		bl	chSysHalt
 783              	.LVL79:
 784 012e 8EE7     		b	.L81
 785              	.LVL80:
 786              	.L99:
 787              	.LBE20:
 788              	.LBE19:
 789              	.LBE22:
 790              		.loc 2 792 0
 791 0130 2846     		mov	r0, r5
 792 0132 1299     		ldr	r1, [sp, #72]
 793 0134 4246     		mov	r2, r8
ARM GAS  C:\Users\jo\AppData\Local\Temp\ccufkIBC.s 			page 15


 794 0136 FFF7FEFF 		bl	ip_frag
 795              	.LVL81:
 796              		.loc 2 798 0
 797 013a 40B2     		sxtb	r0, r0
 798 013c 07B0     		add	sp, sp, #28
 799              		.cfi_remember_state
 800              		.cfi_def_cfa_offset 36
 801              		@ sp needed
 802 013e BDE8F08F 		pop	{r4, r5, r6, r7, r8, r9, r10, fp, pc}
 803              	.LVL82:
 804              	.L97:
 805              		.cfi_restore_state
 806              	.LBB23:
 807              		.loc 2 707 0
 808 0142 094A     		ldr	r2, .L100+20
 809 0144 B2F85C30 		ldrh	r3, [r2, #92]
 810 0148 0133     		adds	r3, r3, #1
 811 014a A2F85C30 		strh	r3, [r2, #92]	@ movhi
 812              		.loc 2 709 0
 813 014e FE20     		movs	r0, #254
 814 0150 D4E7     		b	.L80
 815              	.L101:
 816 0152 00BF     		.align	2
 817              	.L100:
 818 0154 34000000 		.word	.LC2
 819 0158 00000000 		.word	itm_port
 820 015c 00000000 		.word	.LC0
 821 0160 28000000 		.word	.LC1
 822 0164 00000000 		.word	.LANCHOR4
 823 0168 00000000 		.word	lwip_stats
 824 016c 64000000 		.word	.LC3
 825              	.LBE23:
 826              		.cfi_endproc
 827              	.LFE258:
 828              		.size	ip_output_if, .-ip_output_if
 829              		.section	.text.ip_output,"ax",%progbits
 830              		.align	2
 831              		.p2align 4,,15
 832              		.global	ip_output
 833              		.thumb
 834              		.thumb_func
 835              		.type	ip_output, %function
 836              	ip_output:
 837              	.LFB259:
 838              		.loc 2 820 0
 839              		.cfi_startproc
 840              		@ args = 8, pretend = 0, frame = 0
 841              		@ frame_needed = 0, uses_anonymous_args = 0
 842              	.LVL83:
 843 0000 2DE9F043 		push	{r4, r5, r6, r7, r8, r9, lr}
 844              		.cfi_def_cfa_offset 28
 845              		.cfi_offset 4, -28
 846              		.cfi_offset 5, -24
 847              		.cfi_offset 6, -20
 848              		.cfi_offset 7, -16
 849              		.cfi_offset 8, -12
 850              		.cfi_offset 9, -8
ARM GAS  C:\Users\jo\AppData\Local\Temp\ccufkIBC.s 			page 16


 851              		.cfi_offset 14, -4
 852 0004 0F46     		mov	r7, r1
 853              		.loc 2 825 0
 854 0006 C189     		ldrh	r1, [r0, #14]
 855              	.LVL84:
 856              		.loc 2 820 0
 857 0008 85B0     		sub	sp, sp, #20
 858              		.cfi_def_cfa_offset 48
 859              		.loc 2 825 0
 860 000a 0129     		cmp	r1, #1
 861              		.loc 2 820 0
 862 000c 0546     		mov	r5, r0
 863 000e 9DF83090 		ldrb	r9, [sp, #48]	@ zero_extendqisi2
 864 0012 9DF83480 		ldrb	r8, [sp, #52]	@ zero_extendqisi2
 865 0016 1446     		mov	r4, r2
 866 0018 1E46     		mov	r6, r3
 867              		.loc 2 825 0
 868 001a 0BD0     		beq	.L103
 869              		.loc 2 825 0 is_stmt 0 discriminator 1
 870 001c 134B     		ldr	r3, .L111
 871              	.LVL85:
 872 001e 0093     		str	r3, [sp]
 873 0020 1348     		ldr	r0, .L111+4
 874              	.LVL86:
 875 0022 1449     		ldr	r1, .L111+8
 876 0024 144A     		ldr	r2, .L111+12
 877              	.LVL87:
 878 0026 40F23933 		movw	r3, #825
 879 002a FFF7FEFF 		bl	chprintf.constprop.1
 880              	.LVL88:
 881              	.LBB24:
 882              	.LBB25:
 883              		.loc 3 414 0 is_stmt 1 discriminator 1
 884 002e 1248     		ldr	r0, .L111+12
 885 0030 FFF7FEFF 		bl	chSysHalt
 886              	.LVL89:
 887              	.L103:
 888              	.LBE25:
 889              	.LBE24:
 890              		.loc 2 827 0
 891 0034 2046     		mov	r0, r4
 892 0036 FFF7FEFF 		bl	ip_route
 893              	.LVL90:
 894 003a 70B1     		cbz	r0, .L110
 895              		.loc 2 834 0
 896 003c 0290     		str	r0, [sp, #8]
 897 003e CDF80090 		str	r9, [sp]
 898 0042 CDF80480 		str	r8, [sp, #4]
 899 0046 2846     		mov	r0, r5
 900              	.LVL91:
 901 0048 3946     		mov	r1, r7
 902 004a 2246     		mov	r2, r4
 903 004c 3346     		mov	r3, r6
 904 004e FFF7FEFF 		bl	ip_output_if
 905              	.LVL92:
 906              	.L105:
 907              		.loc 2 835 0
ARM GAS  C:\Users\jo\AppData\Local\Temp\ccufkIBC.s 			page 17


 908 0052 40B2     		sxtb	r0, r0
 909 0054 05B0     		add	sp, sp, #20
 910              		.cfi_remember_state
 911              		.cfi_def_cfa_offset 28
 912              		@ sp needed
 913 0056 BDE8F083 		pop	{r4, r5, r6, r7, r8, r9, pc}
 914              	.LVL93:
 915              	.L110:
 916              		.cfi_restore_state
 917              		.loc 2 830 0
 918 005a 084A     		ldr	r2, .L111+16
 919 005c B2F85630 		ldrh	r3, [r2, #86]
 920 0060 0133     		adds	r3, r3, #1
 921 0062 A2F85630 		strh	r3, [r2, #86]	@ movhi
 922              		.loc 2 831 0
 923 0066 FC20     		movs	r0, #252
 924              	.LVL94:
 925 0068 F3E7     		b	.L105
 926              	.L112:
 927 006a 00BF     		.align	2
 928              	.L111:
 929 006c 34000000 		.word	.LC2
 930 0070 00000000 		.word	itm_port
 931 0074 00000000 		.word	.LC0
 932 0078 28000000 		.word	.LC1
 933 007c 00000000 		.word	lwip_stats
 934              		.cfi_endproc
 935              	.LFE259:
 936              		.size	ip_output, .-ip_output
 937              		.global	current_iphdr_dest
 938              		.global	current_iphdr_src
 939              		.global	current_header
 940              		.global	current_netif
 941              		.section	.bss.current_header,"aw",%nobits
 942              		.align	2
 943              		.set	.LANCHOR3,. + 0
 944              		.type	current_header, %object
 945              		.size	current_header, 4
 946              	current_header:
 947 0000 00000000 		.space	4
 948              		.section	.bss.ip_id,"aw",%nobits
 949              		.align	1
 950              		.set	.LANCHOR4,. + 0
 951              		.type	ip_id, %object
 952              		.size	ip_id, 2
 953              	ip_id:
 954 0000 0000     		.space	2
 955              		.section	.bss.current_iphdr_src,"aw",%nobits
 956              		.align	2
 957              		.set	.LANCHOR1,. + 0
 958              		.type	current_iphdr_src, %object
 959              		.size	current_iphdr_src, 4
 960              	current_iphdr_src:
 961 0000 00000000 		.space	4
 962              		.section	.rodata.str1.4,"aMS",%progbits,1
 963              		.align	2
 964              	.LC0:
ARM GAS  C:\Users\jo\AppData\Local\Temp\ccufkIBC.s 			page 18


 965 0000 41737365 		.ascii	"Assertion \"%s\" failed at line %d in %s\012\000"
 965      7274696F 
 965      6E202225 
 965      73222066 
 965      61696C65 
 966              	.LC1:
 967 0028 702D3E72 		.ascii	"p->ref == 1\000"
 967      6566203D 
 967      3D203100 
 968              	.LC2:
 969 0034 2E2E2F2E 		.ascii	"../../../os/ext/lwip-1.4.1/src/core/ipv4/ip.c\000"
 969      2E2F2E2E 
 969      2F6F732F 
 969      6578742F 
 969      6C776970 
 970 0062 0000     		.space	2
 971              	.LC3:
 972 0064 63686563 		.ascii	"check that first pbuf can hold struct ip_hdr\000"
 972      6B207468 
 972      61742066 
 972      69727374 
 972      20706275 
 973 0091 000000   		.section	.bss.current_iphdr_dest,"aw",%nobits
 974              		.align	2
 975              		.set	.LANCHOR0,. + 0
 976              		.type	current_iphdr_dest, %object
 977              		.size	current_iphdr_dest, 4
 978              	current_iphdr_dest:
 979 0000 00000000 		.space	4
 980              		.section	.bss.current_netif,"aw",%nobits
 981              		.align	2
 982              		.set	.LANCHOR2,. + 0
 983              		.type	current_netif, %object
 984              		.size	current_netif, 4
 985              	current_netif:
 986 0000 00000000 		.space	4
 987              		.text
 988              	.Letext0:
 989              		.file 4 "c:\\program files\\gnu tools arm embedded\\4.9 2014q4\\lib\\gcc\\arm-none-eabi\\4.9.3\\in
 990              		.file 5 "c:\\program files\\gnu tools arm embedded\\4.9 2014q4\\arm-none-eabi\\include\\machine\\_
 991              		.file 6 "c:\\program files\\gnu tools arm embedded\\4.9 2014q4\\arm-none-eabi\\include\\stdint.h"
 992              		.file 7 "../../../os/rt/ports/ARMCMx/compilers/GCC/chtypes.h"
 993              		.file 8 "../../../os/rt/include/chsystypes.h"
 994              		.file 9 "../../../os/rt/include/chschd.h"
 995              		.file 10 "../../../os/rt/ports/ARMCMx/chcore.h"
 996              		.file 11 "../../../os/rt/ports/ARMCMx/chcore_v7m.h"
 997              		.file 12 "c:\\program files\\gnu tools arm embedded\\4.9 2014q4\\lib\\gcc\\arm-none-eabi\\4.9.3\\i
 998              		.file 13 "<built-in>"
 999              		.file 14 "../../../os/rt/include/chdebug.h"
 1000              		.file 15 "../../../os/rt/include/chtm.h"
 1001              		.file 16 "../../../os/rt/include/chstats.h"
 1002              		.file 17 "../../../os/rt/include/chmtx.h"
 1003              		.file 18 "../../../os/rt/include/chstreams.h"
 1004              		.file 19 "./ITM_trace.h"
 1005              		.file 20 "../../../os/various/lwip_bindings/arch/cc.h"
 1006              		.file 21 "../../../os/ext/lwip-1.4.1/src/include/lwip/err.h"
 1007              		.file 22 "../../../os/ext/lwip-1.4.1/src/include/lwip/pbuf.h"
ARM GAS  C:\Users\jo\AppData\Local\Temp\ccufkIBC.s 			page 19


 1008              		.file 23 "../../../os/ext/lwip-1.4.1/src/include/ipv4/lwip/ip_addr.h"
 1009              		.file 24 "../../../os/ext/lwip-1.4.1/src/include/lwip/netif.h"
 1010              		.file 25 "../../../os/ext/lwip-1.4.1/src/include/ipv4/lwip/ip.h"
 1011              		.file 26 "../../../os/ext/lwip-1.4.1/src/include/lwip/stats.h"
 1012              		.file 27 "../../../os/ext/CMSIS/include/core_cm4.h"
 1013              		.file 28 "../../../os/ext/lwip-1.4.1/src/include/lwip/def.h"
 1014              		.file 29 "../../../os/ext/lwip-1.4.1/src/include/ipv4/lwip/inet_chksum.h"
 1015              		.file 30 "../../../os/ext/lwip-1.4.1/src/include/ipv4/lwip/icmp.h"
 1016              		.file 31 "../../../os/ext/lwip-1.4.1/src/include/ipv4/lwip/ip_frag.h"
 1017              		.file 32 "../../../os/ext/lwip-1.4.1/src/include/lwip/udp.h"
 1018              		.file 33 "../../../os/ext/lwip-1.4.1/src/include/lwip/tcp_impl.h"
 1019              		.file 34 "../../../os/rt/include/chsys.h"
 1020              		.file 35 "../../../os/ext/lwip-1.4.1/src/include/lwip/memp.h"