ARM GAS  C:\Users\jo\AppData\Local\Temp\ccqPoXte.s 			page 1


   1              		.syntax unified
   2              		.cpu cortex-m4
   3              		.fpu softvfp
   4              		.eabi_attribute 20, 1
   5              		.eabi_attribute 21, 1
   6              		.eabi_attribute 23, 3
   7              		.eabi_attribute 24, 1
   8              		.eabi_attribute 25, 1
   9              		.eabi_attribute 26, 1
  10              		.eabi_attribute 30, 2
  11              		.eabi_attribute 34, 1
  12              		.eabi_attribute 18, 4
  13              		.thumb
  14              		.file	"ip_addr.c"
  15              		.text
  16              	.Ltext0:
  17              		.cfi_sections	.debug_frame
  18              		.section	.text.chprintf.constprop.0,"ax",%progbits
  19              		.align	2
  20              		.p2align 4,,15
  21              		.thumb
  22              		.thumb_func
  23              		.type	chprintf.constprop.0, %function
  24              	chprintf.constprop.0:
  25              	.LFB262:
  26              		.file 1 "../../../os/hal/lib/streams/chprintf.h"
  27              		.loc 1 69 0
  28              		.cfi_startproc
  29              		@ args = 4, pretend = 12, frame = 8
  30              		@ frame_needed = 0, uses_anonymous_args = 1
  31              	.LVL0:
  32 0000 0EB4     		push	{r1, r2, r3}
  33              		.cfi_def_cfa_offset 12
  34              		.cfi_offset 1, -12
  35              		.cfi_offset 2, -8
  36              		.cfi_offset 3, -4
  37 0002 00B5     		push	{lr}
  38              		.cfi_def_cfa_offset 16
  39              		.cfi_offset 14, -16
  40 0004 82B0     		sub	sp, sp, #8
  41              		.cfi_def_cfa_offset 24
  42              		.loc 1 73 0
  43 0006 04AB     		add	r3, sp, #16
  44              		.loc 1 74 0
  45 0008 1A46     		mov	r2, r3
  46 000a 0549     		ldr	r1, .L3
  47 000c 0548     		ldr	r0, .L3+4
  48              	.LVL1:
  49              		.loc 1 73 0
  50 000e 0193     		str	r3, [sp, #4]
  51              		.loc 1 74 0
  52 0010 FFF7FEFF 		bl	chvprintf
  53              	.LVL2:
  54              		.loc 1 78 0
  55 0014 02B0     		add	sp, sp, #8
  56              		.cfi_def_cfa_offset 16
  57              		@ sp needed
ARM GAS  C:\Users\jo\AppData\Local\Temp\ccqPoXte.s 			page 2


  58 0016 5DF804EB 		ldr	lr, [sp], #4
  59              		.cfi_restore 14
  60              		.cfi_def_cfa_offset 12
  61 001a 03B0     		add	sp, sp, #12
  62              		.cfi_restore 3
  63              		.cfi_restore 2
  64              		.cfi_restore 1
  65              		.cfi_def_cfa_offset 0
  66 001c 7047     		bx	lr
  67              	.L4:
  68 001e 00BF     		.align	2
  69              	.L3:
  70 0020 00000000 		.word	.LC0
  71 0024 00000000 		.word	itm_port
  72              		.cfi_endproc
  73              	.LFE262:
  74              		.size	chprintf.constprop.0, .-chprintf.constprop.0
  75 0028 AFF30080 		.section	.text.ip4_addr_isbroadcast,"ax",%progbits
  75      AFF30080 
  76              		.align	2
  77              		.p2align 4,,15
  78              		.global	ip4_addr_isbroadcast
  79              		.thumb
  80              		.thumb_func
  81              		.type	ip4_addr_isbroadcast, %function
  82              	ip4_addr_isbroadcast:
  83              	.LFB256:
  84              		.file 2 "../../../os/ext/lwip-1.4.1/src/core/ipv4/ip_addr.c"
  85              		.loc 2 56 0
  86              		.cfi_startproc
  87              		@ args = 0, pretend = 0, frame = 0
  88              		@ frame_needed = 0, uses_anonymous_args = 0
  89              		@ link register save eliminated.
  90              	.LVL3:
  91              		.loc 2 61 0
  92 0000 431E     		subs	r3, r0, #1
  93 0002 0333     		adds	r3, r3, #3
  94 0004 18D8     		bhi	.L7
  95              		.loc 2 65 0
  96 0006 91F82920 		ldrb	r2, [r1, #41]	@ zero_extendqisi2
  97 000a 02F00202 		and	r2, r2, #2
  98 000e 02F0FF03 		and	r3, r2, #255
  99 0012 62B1     		cbz	r2, .L6
 100              		.loc 2 70 0
 101 0014 4A68     		ldr	r2, [r1, #4]
 102 0016 8242     		cmp	r2, r0
 103 0018 0BD0     		beq	.L9
 104              		.loc 2 73 0
 105 001a 8B68     		ldr	r3, [r1, #8]
 106 001c 4240     		eors	r2, r2, r0
 107 001e 1A42     		tst	r2, r3
 108 0020 07D1     		bne	.L9
 109              		.loc 2 75 0
 110 0022 DB43     		mvns	r3, r3
 111 0024 1840     		ands	r0, r0, r3
 112              	.LVL4:
 113              		.loc 2 63 0
ARM GAS  C:\Users\jo\AppData\Local\Temp\ccqPoXte.s 			page 3


 114 0026 1B1A     		subs	r3, r3, r0
 115 0028 B3FA83F3 		clz	r3, r3
 116 002c 5B09     		lsrs	r3, r3, #5
 117              	.L6:
 118              		.loc 2 82 0
 119 002e 1846     		mov	r0, r3
 120 0030 7047     		bx	lr
 121              	.LVL5:
 122              	.L9:
 123              		.loc 2 80 0
 124 0032 0023     		movs	r3, #0
 125              		.loc 2 82 0
 126 0034 1846     		mov	r0, r3
 127              	.LVL6:
 128 0036 7047     		bx	lr
 129              	.LVL7:
 130              	.L7:
 131              		.loc 2 63 0
 132 0038 0123     		movs	r3, #1
 133              		.loc 2 82 0
 134 003a 1846     		mov	r0, r3
 135              	.LVL8:
 136 003c 7047     		bx	lr
 137              		.cfi_endproc
 138              	.LFE256:
 139              		.size	ip4_addr_isbroadcast, .-ip4_addr_isbroadcast
 140 003e 00BF     		.section	.text.ip4_addr_netmask_valid,"ax",%progbits
 141              		.align	2
 142              		.p2align 4,,15
 143              		.global	ip4_addr_netmask_valid
 144              		.thumb
 145              		.thumb_func
 146              		.type	ip4_addr_netmask_valid, %function
 147              	ip4_addr_netmask_valid:
 148              	.LFB257:
 149              		.loc 2 91 0
 150              		.cfi_startproc
 151              		@ args = 0, pretend = 0, frame = 0
 152              		@ frame_needed = 0, uses_anonymous_args = 0
 153              	.LVL9:
 154 0000 08B5     		push	{r3, lr}
 155              		.cfi_def_cfa_offset 8
 156              		.cfi_offset 3, -8
 157              		.cfi_offset 14, -4
 158              		.loc 2 93 0
 159 0002 FFF7FEFF 		bl	lwip_htonl
 160              	.LVL10:
 161 0006 2022     		movs	r2, #32
 162              		.loc 2 96 0
 163 0008 4FF00043 		mov	r3, #-2147483648
 164 000c 03E0     		b	.L16
 165              	.LVL11:
 166              	.L26:
 167              		.loc 2 96 0 is_stmt 0 discriminator 2
 168 000e 013A     		subs	r2, r2, #1
 169 0010 4FEA5303 		lsr	r3, r3, #1
 170              	.LVL12:
ARM GAS  C:\Users\jo\AppData\Local\Temp\ccqPoXte.s 			page 4


 171 0014 07D0     		beq	.L25
 172              	.LVL13:
 173              	.L16:
 174              		.loc 2 97 0 is_stmt 1
 175 0016 0342     		tst	r3, r0
 176 0018 F9D1     		bne	.L26
 177              		.loc 2 102 0
 178 001a 13B9     		cbnz	r3, .L18
 179 001c 03E0     		b	.L25
 180              	.L19:
 181              		.loc 2 103 0
 182 001e 1842     		tst	r0, r3
 183 0020 03D1     		bne	.L21
 184              	.LVL14:
 185              	.L18:
 186              		.loc 2 102 0
 187 0022 5B08     		lsrs	r3, r3, #1
 188              	.LVL15:
 189 0024 FBD1     		bne	.L19
 190              	.LVL16:
 191              	.L25:
 192              		.loc 2 109 0
 193 0026 0120     		movs	r0, #1
 194              	.LVL17:
 195              		.loc 2 110 0
 196 0028 08BD     		pop	{r3, pc}
 197              	.LVL18:
 198              	.L21:
 199              		.loc 2 105 0
 200 002a 0020     		movs	r0, #0
 201              	.LVL19:
 202 002c 08BD     		pop	{r3, pc}
 203              		.cfi_endproc
 204              	.LFE257:
 205              		.size	ip4_addr_netmask_valid, .-ip4_addr_netmask_valid
 206 002e 00BF     		.section	.text.ipaddr_aton,"ax",%progbits
 207              		.align	2
 208              		.p2align 4,,15
 209              		.global	ipaddr_aton
 210              		.thumb
 211              		.thumb_func
 212              		.type	ipaddr_aton, %function
 213              	ipaddr_aton:
 214              	.LFB259:
 215              		.loc 2 153 0
 216              		.cfi_startproc
 217              		@ args = 0, pretend = 0, frame = 16
 218              		@ frame_needed = 0, uses_anonymous_args = 0
 219              	.LVL20:
 220 0000 2DE9F047 		push	{r4, r5, r6, r7, r8, r9, r10, lr}
 221              		.cfi_def_cfa_offset 32
 222              		.cfi_offset 4, -32
 223              		.cfi_offset 5, -28
 224              		.cfi_offset 6, -24
 225              		.cfi_offset 7, -20
 226              		.cfi_offset 8, -16
 227              		.cfi_offset 9, -12
ARM GAS  C:\Users\jo\AppData\Local\Temp\ccqPoXte.s 			page 5


 228              		.cfi_offset 10, -8
 229              		.cfi_offset 14, -4
 230              		.loc 2 160 0
 231 0004 0378     		ldrb	r3, [r0]	@ zero_extendqisi2
 232              		.loc 2 167 0
 233 0006 A3F13002 		sub	r2, r3, #48
 234              		.loc 2 153 0
 235 000a 0E46     		mov	r6, r1
 236              		.loc 2 167 0
 237 000c D1B2     		uxtb	r1, r2
 238              	.LVL21:
 239 000e 0929     		cmp	r1, #9
 240              		.loc 2 153 0
 241 0010 86B0     		sub	sp, sp, #24
 242              		.cfi_def_cfa_offset 56
 243              	.LVL22:
 244              		.loc 2 167 0
 245 0012 3ED8     		bhi	.L38
 246 0014 0DF10809 		add	r9, sp, #8
 247              	.LVL23:
 248 0018 C846     		mov	r8, r9
 249              		.loc 2 196 0
 250 001a 0DF1140A 		add	r10, sp, #20
 251              	.LVL24:
 252              	.L39:
 253              		.loc 2 171 0
 254 001e 302B     		cmp	r3, #48
 255 0020 3CD0     		beq	.L56
 256              		.loc 2 170 0
 257 0022 0A27     		movs	r7, #10
 258              	.LVL25:
 259              	.L30:
 260 0024 0130     		adds	r0, r0, #1
 261              	.LVL26:
 262              		.loc 2 174 0
 263 0026 0024     		movs	r4, #0
 264 0028 05E0     		b	.L32
 265              	.LVL27:
 266              	.L57:
 267              		.loc 2 182 0
 268 002a 0378     		ldrb	r3, [r0]	@ zero_extendqisi2
 269              	.LVL28:
 270              		.loc 2 181 0
 271 002c AEF13004 		sub	r4, lr, #48
 272              	.LVL29:
 273              	.L34:
 274 0030 0130     		adds	r0, r0, #1
 275              	.LVL30:
 276 0032 A3F13002 		sub	r2, r3, #48
 277              	.LVL31:
 278              	.L32:
 279              		.loc 2 180 0
 280 0036 5FFA82FE 		uxtb	lr, r2
 281              		.loc 2 183 0
 282 003a 23F02001 		bic	r1, r3, #32
 283 003e 4139     		subs	r1, r1, #65
 284 0040 A3F16102 		sub	r2, r3, #97
ARM GAS  C:\Users\jo\AppData\Local\Temp\ccqPoXte.s 			page 6


 285              		.loc 2 180 0
 286 0044 BEF1090F 		cmp	lr, #9
 287              		.loc 2 183 0
 288 0048 C9B2     		uxtb	r1, r1
 289              		.loc 2 184 0
 290 004a 03F10A05 		add	r5, r3, #10
 291 004e 00F1FF3C 		add	ip, r0, #-1
 292              	.LVL32:
 293              		.loc 2 181 0
 294 0052 07FB043E 		mla	lr, r7, r4, r3
 295              		.loc 2 183 0
 296 0056 D2B2     		uxtb	r2, r2
 297              		.loc 2 180 0
 298 0058 E7D9     		bls	.L57
 299              		.loc 2 183 0
 300 005a 102F     		cmp	r7, #16
 301 005c 0AD1     		bne	.L35
 302              		.loc 2 183 0 is_stmt 0 discriminator 2
 303 005e 0529     		cmp	r1, #5
 304 0060 08D8     		bhi	.L35
 305              		.loc 2 184 0 is_stmt 1
 306 0062 1A2A     		cmp	r2, #26
 307 0064 34BF     		ite	cc
 308 0066 6123     		movcc	r3, #97
 309              	.LVL33:
 310 0068 4123     		movcs	r3, #65
 311 006a ED1A     		subs	r5, r5, r3
 312              	.LVL34:
 313 006c 45EA0414 		orr	r4, r5, r4, lsl #4
 314              	.LVL35:
 315              		.loc 2 185 0
 316 0070 0378     		ldrb	r3, [r0]	@ zero_extendqisi2
 317              	.LVL36:
 318 0072 DDE7     		b	.L34
 319              	.LVL37:
 320              	.L35:
 321              		.loc 2 189 0
 322 0074 2E2B     		cmp	r3, #46
 323 0076 21D1     		bne	.L37
 324              		.loc 2 196 0
 325 0078 D045     		cmp	r8, r10
 326 007a 0AD0     		beq	.L38
 327              		.loc 2 200 0
 328 007c 9CF80130 		ldrb	r3, [ip, #1]	@ zero_extendqisi2
 329              	.LVL38:
 330              		.loc 2 199 0
 331 0080 48F8044B 		str	r4, [r8], #4
 332              	.LVL39:
 333              		.loc 2 167 0
 334 0084 A3F13002 		sub	r2, r3, #48
 335 0088 D1B2     		uxtb	r1, r2
 336 008a 0929     		cmp	r1, #9
 337              		.loc 2 200 0
 338 008c 0CF10100 		add	r0, ip, #1
 339              	.LVL40:
 340              		.loc 2 167 0
 341 0090 C5D9     		bls	.L39
ARM GAS  C:\Users\jo\AppData\Local\Temp\ccqPoXte.s 			page 7


 342              	.LVL41:
 343              	.L38:
 344              		.loc 2 168 0
 345 0092 0023     		movs	r3, #0
 346              	.L29:
 347              		.loc 2 250 0
 348 0094 1846     		mov	r0, r3
 349 0096 06B0     		add	sp, sp, #24
 350              		.cfi_remember_state
 351              		.cfi_def_cfa_offset 32
 352              		@ sp needed
 353 0098 BDE8F087 		pop	{r4, r5, r6, r7, r8, r9, r10, pc}
 354              	.LVL42:
 355              	.L56:
 356              		.cfi_restore_state
 357              		.loc 2 172 0
 358 009c 4378     		ldrb	r3, [r0, #1]	@ zero_extendqisi2
 359              	.LVL43:
 360              		.loc 2 173 0
 361 009e 03F0DF02 		and	r2, r3, #223
 362 00a2 582A     		cmp	r2, #88
 363 00a4 04D0     		beq	.L31
 364              		.loc 2 172 0
 365 00a6 0130     		adds	r0, r0, #1
 366              	.LVL44:
 367              		.loc 2 177 0
 368 00a8 0827     		movs	r7, #8
 369 00aa A3F13002 		sub	r2, r3, #48
 370 00ae B9E7     		b	.L30
 371              	.LVL45:
 372              	.L31:
 373              		.loc 2 175 0
 374 00b0 8378     		ldrb	r3, [r0, #2]	@ zero_extendqisi2
 375              	.LVL46:
 376              		.loc 2 174 0
 377 00b2 1027     		movs	r7, #16
 378              		.loc 2 175 0
 379 00b4 0230     		adds	r0, r0, #2
 380              	.LVL47:
 381 00b6 A3F13002 		sub	r2, r3, #48
 382 00ba B3E7     		b	.L30
 383              	.LVL48:
 384              	.L37:
 385              		.loc 2 207 0
 386 00bc 13F0DF0F 		tst	r3, #223
 387 00c0 2546     		mov	r5, r4
 388 00c2 02D0     		beq	.L40
 389              		.loc 2 207 0 is_stmt 0 discriminator 5
 390 00c4 093B     		subs	r3, r3, #9
 391              	.LVL49:
 392 00c6 042B     		cmp	r3, #4
 393 00c8 E3D8     		bhi	.L38
 394              	.LVL50:
 395              	.L40:
 396              		.loc 2 214 0 is_stmt 1
 397 00ca C9EB0803 		rsb	r3, r9, r8
 398 00ce 9B10     		asrs	r3, r3, #2
ARM GAS  C:\Users\jo\AppData\Local\Temp\ccqPoXte.s 			page 8


 399 00d0 0133     		adds	r3, r3, #1
 400 00d2 042B     		cmp	r3, #4
 401 00d4 2FD8     		bhi	.L41
 402 00d6 01A2     		adr	r2, .L42
 403 00d8 52F823F0 		ldr	pc, [r2, r3, lsl #2]
 404              		.p2align 2
 405              	.L42:
 406 00dc 95000000 		.word	.L29+1
 407 00e0 03010000 		.word	.L43+1
 408 00e4 29010000 		.word	.L44+1
 409 00e8 F1000000 		.word	.L45+1
 410 00ec 11010000 		.word	.L46+1
 411              		.p2align 1
 412              	.L45:
 413              		.loc 2 230 0
 414 00f0 B4F5803F 		cmp	r4, #65536
 415 00f4 CDD2     		bcs	.L38
 416              		.loc 2 233 0
 417 00f6 029B     		ldr	r3, [sp, #8]
 418 00f8 039D     		ldr	r5, [sp, #12]
 419 00fa 1B06     		lsls	r3, r3, #24
 420 00fc 43EA0545 		orr	r5, r3, r5, lsl #16
 421 0100 2543     		orrs	r5, r5, r4
 422              	.LVL51:
 423              	.L43:
 424              		.loc 2 246 0
 425 0102 26B3     		cbz	r6, .L51
 426              		.loc 2 247 0
 427 0104 2846     		mov	r0, r5
 428 0106 FFF7FEFF 		bl	lwip_htonl
 429              	.LVL52:
 430              		.loc 2 249 0
 431 010a 0123     		movs	r3, #1
 432              		.loc 2 247 0
 433 010c 3060     		str	r0, [r6]
 434 010e C1E7     		b	.L29
 435              	.LVL53:
 436              	.L46:
 437              		.loc 2 237 0
 438 0110 FF2C     		cmp	r4, #255
 439 0112 BED8     		bhi	.L38
 440              		.loc 2 240 0
 441 0114 029B     		ldr	r3, [sp, #8]
 442 0116 039A     		ldr	r2, [sp, #12]
 443 0118 049D     		ldr	r5, [sp, #16]
 444 011a 1B06     		lsls	r3, r3, #24
 445 011c 43EA0243 		orr	r3, r3, r2, lsl #16
 446 0120 43EA0525 		orr	r5, r3, r5, lsl #8
 447 0124 2543     		orrs	r5, r5, r4
 448              	.LVL54:
 449              		.loc 2 241 0
 450 0126 ECE7     		b	.L43
 451              	.LVL55:
 452              	.L44:
 453              		.loc 2 223 0
 454 0128 B4F1807F 		cmp	r4, #16777216
 455 012c B1D2     		bcs	.L38
ARM GAS  C:\Users\jo\AppData\Local\Temp\ccqPoXte.s 			page 9


 456              		.loc 2 226 0
 457 012e 029D     		ldr	r5, [sp, #8]
 458 0130 44EA0565 		orr	r5, r4, r5, lsl #24
 459              	.LVL56:
 460              		.loc 2 227 0
 461 0134 E5E7     		b	.L43
 462              	.LVL57:
 463              	.L41:
 464              		.loc 2 243 0 discriminator 1
 465 0136 074B     		ldr	r3, .L58
 466 0138 0093     		str	r3, [sp]
 467 013a 0749     		ldr	r1, .L58+4
 468 013c 074A     		ldr	r2, .L58+8
 469 013e 0848     		ldr	r0, .L58+12
 470 0140 F323     		movs	r3, #243
 471 0142 FFF7FEFF 		bl	chprintf.constprop.0
 472              	.LVL58:
 473              	.LBB4:
 474              	.LBB5:
 475              		.file 3 "../../../os/hal/osal/rt/osal.h"
 476              		.loc 3 414 0 discriminator 1
 477 0146 0548     		ldr	r0, .L58+8
 478 0148 FFF7FEFF 		bl	chSysHalt
 479              	.LVL59:
 480 014c D9E7     		b	.L43
 481              	.LVL60:
 482              	.L51:
 483              	.LBE5:
 484              	.LBE4:
 485              		.loc 2 249 0
 486 014e 0123     		movs	r3, #1
 487 0150 A0E7     		b	.L29
 488              	.L59:
 489 0152 00BF     		.align	2
 490              	.L58:
 491 0154 34000000 		.word	.LC2
 492 0158 00000000 		.word	.LC0
 493 015c 28000000 		.word	.LC1
 494 0160 00000000 		.word	itm_port
 495              		.cfi_endproc
 496              	.LFE259:
 497              		.size	ipaddr_aton, .-ipaddr_aton
 498 0164 AFF30080 		.section	.text.ipaddr_addr,"ax",%progbits
 498      AFF30080 
 498      AFF30080 
 499              		.align	2
 500              		.p2align 4,,15
 501              		.global	ipaddr_addr
 502              		.thumb
 503              		.thumb_func
 504              		.type	ipaddr_addr, %function
 505              	ipaddr_addr:
 506              	.LFB258:
 507              		.loc 2 131 0
 508              		.cfi_startproc
 509              		@ args = 0, pretend = 0, frame = 8
 510              		@ frame_needed = 0, uses_anonymous_args = 0
ARM GAS  C:\Users\jo\AppData\Local\Temp\ccqPoXte.s 			page 10


 511              	.LVL61:
 512 0000 00B5     		push	{lr}
 513              		.cfi_def_cfa_offset 4
 514              		.cfi_offset 14, -4
 515 0002 83B0     		sub	sp, sp, #12
 516              		.cfi_def_cfa_offset 16
 517              		.loc 2 134 0
 518 0004 01A9     		add	r1, sp, #4
 519 0006 FFF7FEFF 		bl	ipaddr_aton
 520              	.LVL62:
 521 000a 20B9     		cbnz	r0, .L64
 522              		.loc 2 137 0
 523 000c 4FF0FF30 		mov	r0, #-1
 524              		.loc 2 138 0
 525 0010 03B0     		add	sp, sp, #12
 526              		.cfi_remember_state
 527              		.cfi_def_cfa_offset 4
 528              		@ sp needed
 529 0012 5DF804FB 		ldr	pc, [sp], #4
 530              	.L64:
 531              		.cfi_restore_state
 532              		.loc 2 135 0
 533 0016 0198     		ldr	r0, [sp, #4]
 534              		.loc 2 138 0
 535 0018 03B0     		add	sp, sp, #12
 536              		.cfi_def_cfa_offset 4
 537              		@ sp needed
 538 001a 5DF804FB 		ldr	pc, [sp], #4
 539              		.cfi_endproc
 540              	.LFE258:
 541              		.size	ipaddr_addr, .-ipaddr_addr
 542 001e 00BF     		.section	.text.ipaddr_ntoa_r,"ax",%progbits
 543              		.align	2
 544              		.p2align 4,,15
 545              		.global	ipaddr_ntoa_r
 546              		.thumb
 547              		.thumb_func
 548              		.type	ipaddr_ntoa_r, %function
 549              	ipaddr_ntoa_r:
 550              	.LFB261:
 551              		.loc 2 277 0
 552              		.cfi_startproc
 553              		@ args = 0, pretend = 0, frame = 8
 554              		@ frame_needed = 0, uses_anonymous_args = 0
 555              	.LVL63:
 556 0000 2DE9F047 		push	{r4, r5, r6, r7, r8, r9, r10, lr}
 557              		.cfi_def_cfa_offset 32
 558              		.cfi_offset 4, -32
 559              		.cfi_offset 5, -28
 560              		.cfi_offset 6, -24
 561              		.cfi_offset 7, -20
 562              		.cfi_offset 8, -16
 563              		.cfi_offset 9, -12
 564              		.cfi_offset 10, -8
 565              		.cfi_offset 14, -4
 566 0004 82B0     		sub	sp, sp, #8
 567              		.cfi_def_cfa_offset 40
ARM GAS  C:\Users\jo\AppData\Local\Temp\ccqPoXte.s 			page 11


 568              		.loc 2 287 0
 569 0006 0DF1080E 		add	lr, sp, #8
 570 000a 0368     		ldr	r3, [r0]
 571 000c 4EF8043D 		str	r3, [lr, #-4]!
 572              	.LVL64:
 573              		.loc 2 294 0
 574 0010 2A48     		ldr	r0, .L78
 575              	.LVL65:
 576              		.loc 2 289 0
 577 0012 0F46     		mov	r7, r1
 578 0014 0DF10808 		add	r8, sp, #8
 579              		.loc 2 285 0
 580 0018 4FF00009 		mov	r9, #0
 581              		.loc 2 307 0
 582 001c 4FF02E0C 		mov	ip, #46
 583              	.LVL66:
 584              	.L72:
 585 0020 9EF800A0 		ldrb	r10, [lr]	@ zero_extendqisi2
 586              		.loc 2 285 0
 587 0024 0024     		movs	r4, #0
 588 0026 00E0     		b	.L66
 589              	.LVL67:
 590              	.L73:
 591              		.loc 2 296 0
 592 0028 3446     		mov	r4, r6
 593              	.LVL68:
 594              	.L66:
 595              		.loc 2 294 0 discriminator 1
 596 002a A0FB0A35 		umull	r3, r5, r0, r10
 597 002e ED08     		lsrs	r5, r5, #3
 598 0030 05EB8503 		add	r3, r5, r5, lsl #2
 599 0034 AAEB4303 		sub	r3, r10, r3, lsl #1
 600              	.LVL69:
 601              		.loc 2 296 0 discriminator 1
 602 0038 0DF1080A 		add	r10, sp, #8
 603 003c A244     		add	r10, r10, r4
 604 003e 3033     		adds	r3, r3, #48
 605              	.LVL70:
 606 0040 03F0FF03 		and	r3, r3, #255
 607              	.LVL71:
 608 0044 661C     		adds	r6, r4, #1
 609 0046 0AF8083C 		strb	r3, [r10, #-8]
 610 004a F6B2     		uxtb	r6, r6
 611              	.LVL72:
 612              		.loc 2 297 0 discriminator 1
 613 004c 05F0FF0A 		and	r10, r5, #255
 614 0050 002D     		cmp	r5, #0
 615 0052 E9D1     		bne	.L73
 616 0054 0EF801AB 		strb	r10, [lr], #1
 617              	.LVL73:
 618              		.loc 2 298 0
 619 0058 6EB3     		cbz	r6, .L74
 620              		.loc 2 299 0
 621 005a 4A45     		cmp	r2, r9
 622 005c 09F10105 		add	r5, r9, #1
 623              	.LVL74:
 624 0060 25DD     		ble	.L68
ARM GAS  C:\Users\jo\AppData\Local\Temp\ccqPoXte.s 			page 12


 625 0062 013C     		subs	r4, r4, #1
 626              	.LVL75:
 627 0064 C9EB0209 		rsb	r9, r9, r2
 628 0068 E4B2     		uxtb	r4, r4
 629 006a B944     		add	r9, r9, r7
 630 006c 06E0     		b	.L69
 631              	.L71:
 632 006e 4F45     		cmp	r7, r9
 633 0070 05F10105 		add	r5, r5, #1
 634              	.LVL76:
 635 0074 1BD0     		beq	.L68
 636 0076 14F8083C 		ldrb	r3, [r4, #-8]	@ zero_extendqisi2
 637 007a 3446     		mov	r4, r6
 638              	.L69:
 639              	.LVL77:
 640 007c 661E     		subs	r6, r4, #1
 641              		.loc 2 302 0
 642 007e 07F8013B 		strb	r3, [r7], #1
 643              	.LVL78:
 644              		.loc 2 298 0
 645 0082 FF2C     		cmp	r4, #255
 646 0084 02AB     		add	r3, sp, #8
 647 0086 F6B2     		uxtb	r6, r6
 648 0088 1C44     		add	r4, r4, r3
 649              	.LVL79:
 650 008a F0D1     		bne	.L71
 651              	.L67:
 652              		.loc 2 304 0
 653 008c AA42     		cmp	r2, r5
 654 008e 05F10109 		add	r9, r5, #1
 655              	.LVL80:
 656 0092 0CDD     		ble	.L68
 657              		.loc 2 291 0 discriminator 2
 658 0094 C645     		cmp	lr, r8
 659              		.loc 2 307 0 discriminator 2
 660 0096 87F800C0 		strb	ip, [r7]
 661 009a 07F10107 		add	r7, r7, #1
 662              	.LVL81:
 663              		.loc 2 291 0 discriminator 2
 664 009e BFD1     		bne	.L72
 665              	.LVL82:
 666              		.loc 2 310 0
 667 00a0 0023     		movs	r3, #0
 668              		.loc 2 311 0
 669 00a2 0846     		mov	r0, r1
 670              		.loc 2 310 0
 671 00a4 07F8013C 		strb	r3, [r7, #-1]
 672              		.loc 2 312 0
 673 00a8 02B0     		add	sp, sp, #8
 674              		.cfi_remember_state
 675              		.cfi_def_cfa_offset 32
 676              		@ sp needed
 677 00aa BDE8F087 		pop	{r4, r5, r6, r7, r8, r9, r10, pc}
 678              	.LVL83:
 679              	.L68:
 680              		.cfi_restore_state
 681              		.loc 2 300 0
ARM GAS  C:\Users\jo\AppData\Local\Temp\ccqPoXte.s 			page 13


 682 00ae 0020     		movs	r0, #0
 683              		.loc 2 312 0
 684 00b0 02B0     		add	sp, sp, #8
 685              		.cfi_remember_state
 686              		.cfi_def_cfa_offset 32
 687              		@ sp needed
 688 00b2 BDE8F087 		pop	{r4, r5, r6, r7, r8, r9, r10, pc}
 689              	.LVL84:
 690              	.L74:
 691              		.cfi_restore_state
 692              		.loc 2 298 0
 693 00b6 4D46     		mov	r5, r9
 694 00b8 E8E7     		b	.L67
 695              	.L79:
 696 00ba 00BF     		.align	2
 697              	.L78:
 698 00bc CDCCCCCC 		.word	-858993459
 699              		.cfi_endproc
 700              	.LFE261:
 701              		.size	ipaddr_ntoa_r, .-ipaddr_ntoa_r
 702              		.section	.text.ipaddr_ntoa,"ax",%progbits
 703              		.align	2
 704              		.p2align 4,,15
 705              		.global	ipaddr_ntoa
 706              		.thumb
 707              		.thumb_func
 708              		.type	ipaddr_ntoa, %function
 709              	ipaddr_ntoa:
 710              	.LFB260:
 711              		.loc 2 262 0
 712              		.cfi_startproc
 713              		@ args = 0, pretend = 0, frame = 0
 714              		@ frame_needed = 0, uses_anonymous_args = 0
 715              		@ link register save eliminated.
 716              	.LVL85:
 717              		.loc 2 264 0
 718 0000 0149     		ldr	r1, .L81
 719 0002 1022     		movs	r2, #16
 720 0004 FFF7FEBF 		b	ipaddr_ntoa_r
 721              	.LVL86:
 722              	.L82:
 723              		.align	2
 724              	.L81:
 725 0008 00000000 		.word	.LANCHOR0
 726              		.cfi_endproc
 727              	.LFE260:
 728              		.size	ipaddr_ntoa, .-ipaddr_ntoa
 729              		.global	ip_addr_broadcast
 730              		.global	ip_addr_any
 731 000c AFF30080 		.section	.bss.str.8468,"aw",%nobits
 732              		.align	2
 733              		.set	.LANCHOR0,. + 0
 734              		.type	str.8468, %object
 735              		.size	str.8468, 16
 736              	str.8468:
 737 0000 00000000 		.space	16
 737      00000000 
ARM GAS  C:\Users\jo\AppData\Local\Temp\ccqPoXte.s 			page 14


 737      00000000 
 737      00000000 
 738              		.section	.rodata.ip_addr_broadcast,"a",%progbits
 739              		.align	2
 740              		.type	ip_addr_broadcast, %object
 741              		.size	ip_addr_broadcast, 4
 742              	ip_addr_broadcast:
 743 0000 FFFFFFFF 		.word	-1
 744              		.section	.rodata.str1.4,"aMS",%progbits,1
 745              		.align	2
 746              	.LC0:
 747 0000 41737365 		.ascii	"Assertion \"%s\" failed at line %d in %s\012\000"
 747      7274696F 
 747      6E202225 
 747      73222066 
 747      61696C65 
 748              	.LC1:
 749 0028 756E6861 		.ascii	"unhandled\000"
 749      6E646C65 
 749      6400
 750 0032 0000     		.space	2
 751              	.LC2:
 752 0034 2E2E2F2E 		.ascii	"../../../os/ext/lwip-1.4.1/src/core/ipv4/ip_addr.c\000"
 752      2E2F2E2E 
 752      2F6F732F 
 752      6578742F 
 752      6C776970 
 753 0067 00       		.section	.rodata.ip_addr_any,"a",%progbits
 754              		.align	2
 755              		.type	ip_addr_any, %object
 756              		.size	ip_addr_any, 4
 757              	ip_addr_any:
 758 0000 00000000 		.space	4
 759              		.text
 760              	.Letext0:
 761              		.file 4 "c:\\program files\\gnu tools arm embedded\\4.9 2014q4\\lib\\gcc\\arm-none-eabi\\4.9.3\\in
 762              		.file 5 "c:\\program files\\gnu tools arm embedded\\4.9 2014q4\\arm-none-eabi\\include\\machine\\_
 763              		.file 6 "c:\\program files\\gnu tools arm embedded\\4.9 2014q4\\arm-none-eabi\\include\\stdint.h"
 764              		.file 7 "../../../os/rt/ports/ARMCMx/compilers/GCC/chtypes.h"
 765              		.file 8 "../../../os/rt/include/chsystypes.h"
 766              		.file 9 "../../../os/rt/include/chschd.h"
 767              		.file 10 "../../../os/rt/ports/ARMCMx/chcore.h"
 768              		.file 11 "../../../os/rt/ports/ARMCMx/chcore_v7m.h"
 769              		.file 12 "c:\\program files\\gnu tools arm embedded\\4.9 2014q4\\lib\\gcc\\arm-none-eabi\\4.9.3\\i
 770              		.file 13 "<built-in>"
 771              		.file 14 "../../../os/rt/include/chdebug.h"
 772              		.file 15 "../../../os/rt/include/chtm.h"
 773              		.file 16 "../../../os/rt/include/chstats.h"
 774              		.file 17 "../../../os/rt/include/chmtx.h"
 775              		.file 18 "../../../os/rt/include/chstreams.h"
 776              		.file 19 "./ITM_trace.h"
 777              		.file 20 "../../../os/various/lwip_bindings/arch/cc.h"
 778              		.file 21 "../../../os/ext/lwip-1.4.1/src/include/ipv4/lwip/ip_addr.h"
 779              		.file 22 "../../../os/ext/lwip-1.4.1/src/include/lwip/err.h"
 780              		.file 23 "../../../os/ext/lwip-1.4.1/src/include/lwip/pbuf.h"
 781              		.file 24 "../../../os/ext/lwip-1.4.1/src/include/lwip/netif.h"
 782              		.file 25 "../../../os/ext/CMSIS/include/core_cm4.h"
ARM GAS  C:\Users\jo\AppData\Local\Temp\ccqPoXte.s 			page 15


 783              		.file 26 "../../../os/ext/lwip-1.4.1/src/include/lwip/def.h"
 784              		.file 27 "../../../os/rt/include/chsys.h"
 785              		.section	.debug_info,"",%progbits
 786              	.Ldebug_info0:
 787 0000 A50F0000 		.4byte	0xfa5
 788 0004 0400     		.2byte	0x4
 789 0006 00000000 		.4byte	.Ldebug_abbrev0
 790 000a 04       		.byte	0x4
 791 000b 01       		.uleb128 0x1
 792 000c 5B030000 		.4byte	.LASF184
 793 0010 01       		.byte	0x1
 794 0011 D4060000 		.4byte	.LASF185
 795 0015 07010000 		.4byte	.LASF186
 796 0019 00000000 		.4byte	.Ldebug_ranges0+0
 797 001d 00000000 		.4byte	0
 798 0021 00000000 		.4byte	.Ldebug_line0
 799 0025 02       		.uleb128 0x2
 800 0026 04       		.byte	0x4
 801 0027 05       		.byte	0x5
 802 0028 696E7400 		.ascii	"int\000"
 803 002c 03       		.uleb128 0x3
 804 002d 15000000 		.4byte	.LASF1
 805 0031 04       		.byte	0x4
 806 0032 D4       		.byte	0xd4
 807 0033 37000000 		.4byte	0x37
 808 0037 04       		.uleb128 0x4
 809 0038 04       		.byte	0x4
 810 0039 07       		.byte	0x7
 811 003a 7F020000 		.4byte	.LASF0
 812 003e 03       		.uleb128 0x3
 813 003f DC000000 		.4byte	.LASF2
 814 0043 05       		.byte	0x5
 815 0044 1B       		.byte	0x1b
 816 0045 49000000 		.4byte	0x49
 817 0049 04       		.uleb128 0x4
 818 004a 01       		.byte	0x1
 819 004b 06       		.byte	0x6
 820 004c 63010000 		.4byte	.LASF3
 821 0050 03       		.uleb128 0x3
 822 0051 37000000 		.4byte	.LASF4
 823 0055 05       		.byte	0x5
 824 0056 1D       		.byte	0x1d
 825 0057 5B000000 		.4byte	0x5b
 826 005b 04       		.uleb128 0x4
 827 005c 01       		.byte	0x1
 828 005d 08       		.byte	0x8
 829 005e D7050000 		.4byte	.LASF5
 830 0062 04       		.uleb128 0x4
 831 0063 02       		.byte	0x2
 832 0064 05       		.byte	0x5
 833 0065 F7050000 		.4byte	.LASF6
 834 0069 03       		.uleb128 0x3
 835 006a 07070000 		.4byte	.LASF7
 836 006e 05       		.byte	0x5
 837 006f 2B       		.byte	0x2b
 838 0070 74000000 		.4byte	0x74
 839 0074 04       		.uleb128 0x4
ARM GAS  C:\Users\jo\AppData\Local\Temp\ccqPoXte.s 			page 16


 840 0075 02       		.byte	0x2
 841 0076 07       		.byte	0x7
 842 0077 B7020000 		.4byte	.LASF8
 843 007b 03       		.uleb128 0x3
 844 007c 51030000 		.4byte	.LASF9
 845 0080 05       		.byte	0x5
 846 0081 3F       		.byte	0x3f
 847 0082 86000000 		.4byte	0x86
 848 0086 04       		.uleb128 0x4
 849 0087 04       		.byte	0x4
 850 0088 05       		.byte	0x5
 851 0089 BC010000 		.4byte	.LASF10
 852 008d 03       		.uleb128 0x3
 853 008e 52070000 		.4byte	.LASF11
 854 0092 05       		.byte	0x5
 855 0093 41       		.byte	0x41
 856 0094 98000000 		.4byte	0x98
 857 0098 04       		.uleb128 0x4
 858 0099 04       		.byte	0x4
 859 009a 07       		.byte	0x7
 860 009b BD060000 		.4byte	.LASF12
 861 009f 04       		.uleb128 0x4
 862 00a0 08       		.byte	0x8
 863 00a1 05       		.byte	0x5
 864 00a2 55010000 		.4byte	.LASF13
 865 00a6 03       		.uleb128 0x3
 866 00a7 58050000 		.4byte	.LASF14
 867 00ab 05       		.byte	0x5
 868 00ac 5B       		.byte	0x5b
 869 00ad B1000000 		.4byte	0xb1
 870 00b1 04       		.uleb128 0x4
 871 00b2 08       		.byte	0x8
 872 00b3 07       		.byte	0x7
 873 00b4 82000000 		.4byte	.LASF15
 874 00b8 03       		.uleb128 0x3
 875 00b9 9E070000 		.4byte	.LASF16
 876 00bd 06       		.byte	0x6
 877 00be 14       		.byte	0x14
 878 00bf 3E000000 		.4byte	0x3e
 879 00c3 03       		.uleb128 0x3
 880 00c4 0C080000 		.4byte	.LASF17
 881 00c8 06       		.byte	0x6
 882 00c9 15       		.byte	0x15
 883 00ca 50000000 		.4byte	0x50
 884 00ce 03       		.uleb128 0x3
 885 00cf DE010000 		.4byte	.LASF18
 886 00d3 06       		.byte	0x6
 887 00d4 21       		.byte	0x21
 888 00d5 69000000 		.4byte	0x69
 889 00d9 03       		.uleb128 0x3
 890 00da CF050000 		.4byte	.LASF19
 891 00de 06       		.byte	0x6
 892 00df 2C       		.byte	0x2c
 893 00e0 7B000000 		.4byte	0x7b
 894 00e4 03       		.uleb128 0x3
 895 00e5 93060000 		.4byte	.LASF20
 896 00e9 06       		.byte	0x6
ARM GAS  C:\Users\jo\AppData\Local\Temp\ccqPoXte.s 			page 17


 897 00ea 2D       		.byte	0x2d
 898 00eb 8D000000 		.4byte	0x8d
 899 00ef 03       		.uleb128 0x3
 900 00f0 1C000000 		.4byte	.LASF21
 901 00f4 06       		.byte	0x6
 902 00f5 39       		.byte	0x39
 903 00f6 A6000000 		.4byte	0xa6
 904 00fa 05       		.uleb128 0x5
 905 00fb D9000000 		.4byte	0xd9
 906 00ff 03       		.uleb128 0x3
 907 0100 96070000 		.4byte	.LASF22
 908 0104 07       		.byte	0x7
 909 0105 45       		.byte	0x45
 910 0106 E4000000 		.4byte	0xe4
 911 010a 03       		.uleb128 0x3
 912 010b F7000000 		.4byte	.LASF23
 913 010f 07       		.byte	0x7
 914 0110 46       		.byte	0x46
 915 0111 EF000000 		.4byte	0xef
 916 0115 03       		.uleb128 0x3
 917 0116 07030000 		.4byte	.LASF24
 918 011a 07       		.byte	0x7
 919 011b 48       		.byte	0x48
 920 011c C3000000 		.4byte	0xc3
 921 0120 03       		.uleb128 0x3
 922 0121 C5010000 		.4byte	.LASF25
 923 0125 07       		.byte	0x7
 924 0126 49       		.byte	0x49
 925 0127 C3000000 		.4byte	0xc3
 926 012b 03       		.uleb128 0x3
 927 012c 00000000 		.4byte	.LASF26
 928 0130 07       		.byte	0x7
 929 0131 4A       		.byte	0x4a
 930 0132 C3000000 		.4byte	0xc3
 931 0136 03       		.uleb128 0x3
 932 0137 A6050000 		.4byte	.LASF27
 933 013b 07       		.byte	0x7
 934 013c 4C       		.byte	0x4c
 935 013d E4000000 		.4byte	0xe4
 936 0141 03       		.uleb128 0x3
 937 0142 F0020000 		.4byte	.LASF28
 938 0146 07       		.byte	0x7
 939 0147 4D       		.byte	0x4d
 940 0148 D9000000 		.4byte	0xd9
 941 014c 03       		.uleb128 0x3
 942 014d 28030000 		.4byte	.LASF29
 943 0151 07       		.byte	0x7
 944 0152 4F       		.byte	0x4f
 945 0153 E4000000 		.4byte	0xe4
 946 0157 03       		.uleb128 0x3
 947 0158 6E020000 		.4byte	.LASF30
 948 015c 07       		.byte	0x7
 949 015d 51       		.byte	0x51
 950 015e D9000000 		.4byte	0xd9
 951 0162 03       		.uleb128 0x3
 952 0163 FB020000 		.4byte	.LASF31
 953 0167 07       		.byte	0x7
ARM GAS  C:\Users\jo\AppData\Local\Temp\ccqPoXte.s 			page 18


 954 0168 52       		.byte	0x52
 955 0169 E4000000 		.4byte	0xe4
 956 016d 03       		.uleb128 0x3
 957 016e 34070000 		.4byte	.LASF32
 958 0172 08       		.byte	0x8
 959 0173 33       		.byte	0x33
 960 0174 E4000000 		.4byte	0xe4
 961 0178 03       		.uleb128 0x3
 962 0179 1F070000 		.4byte	.LASF33
 963 017d 08       		.byte	0x8
 964 017e 3F       		.byte	0x3f
 965 017f 83010000 		.4byte	0x183
 966 0183 06       		.uleb128 0x6
 967 0184 D9020000 		.4byte	.LASF54
 968 0188 60       		.byte	0x60
 969 0189 09       		.byte	0x9
 970 018a BE       		.byte	0xbe
 971 018b 89020000 		.4byte	0x289
 972 018f 07       		.uleb128 0x7
 973 0190 2F060000 		.4byte	.LASF34
 974 0194 09       		.byte	0x9
 975 0195 BF       		.byte	0xbf
 976 0196 F9050000 		.4byte	0x5f9
 977 019a 00       		.byte	0
 978 019b 07       		.uleb128 0x7
 979 019c 9F050000 		.4byte	.LASF35
 980 01a0 09       		.byte	0x9
 981 01a1 C1       		.byte	0xc1
 982 01a2 F9050000 		.4byte	0x5f9
 983 01a6 04       		.byte	0x4
 984 01a7 07       		.uleb128 0x7
 985 01a8 00010000 		.4byte	.LASF36
 986 01ac 09       		.byte	0x9
 987 01ad C3       		.byte	0xc3
 988 01ae 36010000 		.4byte	0x136
 989 01b2 08       		.byte	0x8
 990 01b3 07       		.uleb128 0x7
 991 01b4 81080000 		.4byte	.LASF37
 992 01b8 09       		.byte	0x9
 993 01b9 C4       		.byte	0xc4
 994 01ba EC040000 		.4byte	0x4ec
 995 01be 0C       		.byte	0xc
 996 01bf 07       		.uleb128 0x7
 997 01c0 F2010000 		.4byte	.LASF38
 998 01c4 09       		.byte	0x9
 999 01c5 C6       		.byte	0xc6
 1000 01c6 F9050000 		.4byte	0x5f9
 1001 01ca 10       		.byte	0x10
 1002 01cb 07       		.uleb128 0x7
 1003 01cc 19060000 		.4byte	.LASF39
 1004 01d0 09       		.byte	0x9
 1005 01d1 C7       		.byte	0xc7
 1006 01d2 F9050000 		.4byte	0x5f9
 1007 01d6 14       		.byte	0x14
 1008 01d7 07       		.uleb128 0x7
 1009 01d8 B9050000 		.4byte	.LASF40
 1010 01dc 09       		.byte	0x9
ARM GAS  C:\Users\jo\AppData\Local\Temp\ccqPoXte.s 			page 19


 1011 01dd CE       		.byte	0xce
 1012 01de B5050000 		.4byte	0x5b5
 1013 01e2 18       		.byte	0x18
 1014 01e3 07       		.uleb128 0x7
 1015 01e4 74020000 		.4byte	.LASF41
 1016 01e8 09       		.byte	0x9
 1017 01e9 D4       		.byte	0xd4
 1018 01ea 43070000 		.4byte	0x743
 1019 01ee 1C       		.byte	0x1c
 1020 01ef 07       		.uleb128 0x7
 1021 01f0 01060000 		.4byte	.LASF42
 1022 01f4 09       		.byte	0x9
 1023 01f5 D9       		.byte	0xd9
 1024 01f6 20010000 		.4byte	0x120
 1025 01fa 20       		.byte	0x20
 1026 01fb 07       		.uleb128 0x7
 1027 01fc 4E060000 		.4byte	.LASF43
 1028 0200 09       		.byte	0x9
 1029 0201 DD       		.byte	0xdd
 1030 0202 15010000 		.4byte	0x115
 1031 0206 21       		.byte	0x21
 1032 0207 07       		.uleb128 0x7
 1033 0208 F0070000 		.4byte	.LASF44
 1034 020c 09       		.byte	0x9
 1035 020d E2       		.byte	0xe2
 1036 020e 2B010000 		.4byte	0x12b
 1037 0212 22       		.byte	0x22
 1038 0213 08       		.uleb128 0x8
 1039 0214 705F7500 		.ascii	"p_u\000"
 1040 0218 09       		.byte	0x9
 1041 0219 1401     		.2byte	0x114
 1042 021b 0B070000 		.4byte	0x70b
 1043 021f 24       		.byte	0x24
 1044 0220 09       		.uleb128 0x9
 1045 0221 7D040000 		.4byte	.LASF45
 1046 0225 09       		.byte	0x9
 1047 0226 1901     		.2byte	0x119
 1048 0228 89020000 		.4byte	0x289
 1049 022c 28       		.byte	0x28
 1050 022d 09       		.uleb128 0x9
 1051 022e 9B020000 		.4byte	.LASF46
 1052 0232 09       		.byte	0x9
 1053 0233 1F01     		.2byte	0x11f
 1054 0235 AD020000 		.4byte	0x2ad
 1055 0239 2C       		.byte	0x2c
 1056 023a 09       		.uleb128 0x9
 1057 023b 47080000 		.4byte	.LASF47
 1058 023f 09       		.byte	0x9
 1059 0240 2301     		.2byte	0x123
 1060 0242 41010000 		.4byte	0x141
 1061 0246 34       		.byte	0x34
 1062 0247 09       		.uleb128 0x9
 1063 0248 88060000 		.4byte	.LASF48
 1064 024c 09       		.byte	0x9
 1065 024d 2901     		.2byte	0x129
 1066 024f 4C010000 		.4byte	0x14c
 1067 0253 38       		.byte	0x38
ARM GAS  C:\Users\jo\AppData\Local\Temp\ccqPoXte.s 			page 20


 1068 0254 09       		.uleb128 0x9
 1069 0255 ED050000 		.4byte	.LASF49
 1070 0259 09       		.byte	0x9
 1071 025a 3001     		.2byte	0x130
 1072 025c 7A070000 		.4byte	0x77a
 1073 0260 3C       		.byte	0x3c
 1074 0261 09       		.uleb128 0x9
 1075 0262 3E070000 		.4byte	.LASF50
 1076 0266 09       		.byte	0x9
 1077 0267 3401     		.2byte	0x134
 1078 0269 36010000 		.4byte	0x136
 1079 026d 40       		.byte	0x40
 1080 026e 09       		.uleb128 0x9
 1081 026f 74010000 		.4byte	.LASF51
 1082 0273 09       		.byte	0x9
 1083 0274 3A01     		.2byte	0x13a
 1084 0276 60030000 		.4byte	0x360
 1085 027a 44       		.byte	0x44
 1086 027b 09       		.uleb128 0x9
 1087 027c 56060000 		.4byte	.LASF52
 1088 0280 09       		.byte	0x9
 1089 0281 4001     		.2byte	0x140
 1090 0283 BC060000 		.4byte	0x6bc
 1091 0287 48       		.byte	0x48
 1092 0288 00       		.byte	0
 1093 0289 03       		.uleb128 0x3
 1094 028a 2B080000 		.4byte	.LASF53
 1095 028e 08       		.byte	0x8
 1096 028f 44       		.byte	0x44
 1097 0290 94020000 		.4byte	0x294
 1098 0294 06       		.uleb128 0x6
 1099 0295 AD060000 		.4byte	.LASF55
 1100 0299 04       		.byte	0x4
 1101 029a 09       		.byte	0x9
 1102 029b AC       		.byte	0xac
 1103 029c AD020000 		.4byte	0x2ad
 1104 02a0 07       		.uleb128 0x7
 1105 02a1 2F060000 		.4byte	.LASF34
 1106 02a5 09       		.byte	0x9
 1107 02a6 AD       		.byte	0xad
 1108 02a7 F9050000 		.4byte	0x5f9
 1109 02ab 00       		.byte	0
 1110 02ac 00       		.byte	0
 1111 02ad 03       		.uleb128 0x3
 1112 02ae D9070000 		.4byte	.LASF56
 1113 02b2 08       		.byte	0x8
 1114 02b3 4B       		.byte	0x4b
 1115 02b4 B8020000 		.4byte	0x2b8
 1116 02b8 06       		.uleb128 0x6
 1117 02b9 C8070000 		.4byte	.LASF57
 1118 02bd 08       		.byte	0x8
 1119 02be 09       		.byte	0x9
 1120 02bf B3       		.byte	0xb3
 1121 02c0 DD020000 		.4byte	0x2dd
 1122 02c4 07       		.uleb128 0x7
 1123 02c5 2F060000 		.4byte	.LASF34
 1124 02c9 09       		.byte	0x9
ARM GAS  C:\Users\jo\AppData\Local\Temp\ccqPoXte.s 			page 21


 1125 02ca B4       		.byte	0xb4
 1126 02cb F9050000 		.4byte	0x5f9
 1127 02cf 00       		.byte	0
 1128 02d0 07       		.uleb128 0x7
 1129 02d1 9F050000 		.4byte	.LASF35
 1130 02d5 09       		.byte	0x9
 1131 02d6 B5       		.byte	0xb5
 1132 02d7 F9050000 		.4byte	0x5f9
 1133 02db 04       		.byte	0x4
 1134 02dc 00       		.byte	0
 1135 02dd 03       		.uleb128 0x3
 1136 02de B2070000 		.4byte	.LASF58
 1137 02e2 08       		.byte	0x8
 1138 02e3 52       		.byte	0x52
 1139 02e4 E8020000 		.4byte	0x2e8
 1140 02e8 0A       		.uleb128 0xa
 1141 02e9 1A030000 		.4byte	.LASF59
 1142 02ed 1C       		.byte	0x1c
 1143 02ee 09       		.byte	0x9
 1144 02ef 7201     		.2byte	0x172
 1145 02f1 44030000 		.4byte	0x344
 1146 02f5 09       		.uleb128 0x9
 1147 02f6 9C060000 		.4byte	.LASF60
 1148 02fa 09       		.byte	0x9
 1149 02fb 7301     		.2byte	0x173
 1150 02fd AD020000 		.4byte	0x2ad
 1151 0301 00       		.byte	0
 1152 0302 09       		.uleb128 0x9
 1153 0303 21060000 		.4byte	.LASF61
 1154 0307 09       		.byte	0x9
 1155 0308 7401     		.2byte	0x174
 1156 030a 36010000 		.4byte	0x136
 1157 030e 08       		.byte	0x8
 1158 030f 09       		.uleb128 0x9
 1159 0310 26050000 		.4byte	.LASF62
 1160 0314 09       		.byte	0x9
 1161 0315 7601     		.2byte	0x176
 1162 0317 EC040000 		.4byte	0x4ec
 1163 031b 0C       		.byte	0xc
 1164 031c 09       		.uleb128 0x9
 1165 031d 0A020000 		.4byte	.LASF63
 1166 0321 09       		.byte	0x9
 1167 0322 7901     		.2byte	0x179
 1168 0324 F9050000 		.4byte	0x5f9
 1169 0328 10       		.byte	0x10
 1170 0329 09       		.uleb128 0x9
 1171 032a 50050000 		.4byte	.LASF64
 1172 032e 09       		.byte	0x9
 1173 032f 7A01     		.2byte	0x17a
 1174 0331 F9050000 		.4byte	0x5f9
 1175 0335 14       		.byte	0x14
 1176 0336 09       		.uleb128 0x9
 1177 0337 46050000 		.4byte	.LASF65
 1178 033b 09       		.byte	0x9
 1179 033c 7D01     		.2byte	0x17d
 1180 033e F9050000 		.4byte	0x5f9
 1181 0342 18       		.byte	0x18
ARM GAS  C:\Users\jo\AppData\Local\Temp\ccqPoXte.s 			page 22


 1182 0343 00       		.byte	0
 1183 0344 03       		.uleb128 0x3
 1184 0345 49070000 		.4byte	.LASF66
 1185 0349 08       		.byte	0x8
 1186 034a 57       		.byte	0x57
 1187 034b 4F030000 		.4byte	0x34f
 1188 034f 0B       		.uleb128 0xb
 1189 0350 04       		.byte	0x4
 1190 0351 55030000 		.4byte	0x355
 1191 0355 0C       		.uleb128 0xc
 1192 0356 60030000 		.4byte	0x360
 1193 035a 0D       		.uleb128 0xd
 1194 035b 60030000 		.4byte	0x360
 1195 035f 00       		.byte	0
 1196 0360 0E       		.uleb128 0xe
 1197 0361 04       		.byte	0x4
 1198 0362 03       		.uleb128 0x3
 1199 0363 8F050000 		.4byte	.LASF67
 1200 0367 08       		.byte	0x8
 1201 0368 5C       		.byte	0x5c
 1202 0369 6D030000 		.4byte	0x36d
 1203 036d 0A       		.uleb128 0xa
 1204 036e 72060000 		.4byte	.LASF68
 1205 0372 14       		.byte	0x14
 1206 0373 09       		.byte	0x9
 1207 0374 4D01     		.2byte	0x14d
 1208 0376 BC030000 		.4byte	0x3bc
 1209 037a 09       		.uleb128 0x9
 1210 037b 93020000 		.4byte	.LASF69
 1211 037f 09       		.byte	0x9
 1212 0380 4E01     		.2byte	0x14e
 1213 0382 80070000 		.4byte	0x780
 1214 0386 00       		.byte	0
 1215 0387 09       		.uleb128 0x9
 1216 0388 20020000 		.4byte	.LASF70
 1217 038c 09       		.byte	0x9
 1218 038d 4F01     		.2byte	0x14f
 1219 038f 80070000 		.4byte	0x780
 1220 0393 04       		.byte	0x4
 1221 0394 09       		.uleb128 0x9
 1222 0395 A4060000 		.4byte	.LASF71
 1223 0399 09       		.byte	0x9
 1224 039a 5001     		.2byte	0x150
 1225 039c 6D010000 		.4byte	0x16d
 1226 03a0 08       		.byte	0x8
 1227 03a1 09       		.uleb128 0x9
 1228 03a2 87080000 		.4byte	.LASF72
 1229 03a6 09       		.byte	0x9
 1230 03a7 5101     		.2byte	0x151
 1231 03a9 44030000 		.4byte	0x344
 1232 03ad 0C       		.byte	0xc
 1233 03ae 09       		.uleb128 0x9
 1234 03af A5070000 		.4byte	.LASF73
 1235 03b3 09       		.byte	0x9
 1236 03b4 5301     		.2byte	0x153
 1237 03b6 60030000 		.4byte	0x360
 1238 03ba 10       		.byte	0x10
ARM GAS  C:\Users\jo\AppData\Local\Temp\ccqPoXte.s 			page 23


 1239 03bb 00       		.byte	0
 1240 03bc 03       		.uleb128 0x3
 1241 03bd C6000000 		.4byte	.LASF74
 1242 03c1 08       		.byte	0x8
 1243 03c2 61       		.byte	0x61
 1244 03c3 C7030000 		.4byte	0x3c7
 1245 03c7 0A       		.uleb128 0xa
 1246 03c8 B6040000 		.4byte	.LASF75
 1247 03cc 10       		.byte	0x10
 1248 03cd 09       		.byte	0x9
 1249 03ce 5D01     		.2byte	0x15d
 1250 03d0 09040000 		.4byte	0x409
 1251 03d4 09       		.uleb128 0x9
 1252 03d5 93020000 		.4byte	.LASF69
 1253 03d9 09       		.byte	0x9
 1254 03da 5E01     		.2byte	0x15e
 1255 03dc 80070000 		.4byte	0x780
 1256 03e0 00       		.byte	0
 1257 03e1 09       		.uleb128 0x9
 1258 03e2 20020000 		.4byte	.LASF70
 1259 03e6 09       		.byte	0x9
 1260 03e7 6001     		.2byte	0x160
 1261 03e9 80070000 		.4byte	0x780
 1262 03ed 04       		.byte	0x4
 1263 03ee 09       		.uleb128 0x9
 1264 03ef A4060000 		.4byte	.LASF71
 1265 03f3 09       		.byte	0x9
 1266 03f4 6201     		.2byte	0x162
 1267 03f6 6D010000 		.4byte	0x16d
 1268 03fa 08       		.byte	0x8
 1269 03fb 09       		.uleb128 0x9
 1270 03fc 00050000 		.4byte	.LASF76
 1271 0400 09       		.byte	0x9
 1272 0401 6A01     		.2byte	0x16a
 1273 0403 6D010000 		.4byte	0x16d
 1274 0407 0C       		.byte	0xc
 1275 0408 00       		.byte	0
 1276 0409 03       		.uleb128 0x3
 1277 040a 55000000 		.4byte	.LASF77
 1278 040e 08       		.byte	0x8
 1279 040f 66       		.byte	0x66
 1280 0410 14040000 		.4byte	0x414
 1281 0414 0F       		.uleb128 0xf
 1282 0415 32020000 		.4byte	.LASF78
 1283 0419 1404     		.2byte	0x414
 1284 041b 09       		.byte	0x9
 1285 041c 8401     		.2byte	0x184
 1286 041e 57040000 		.4byte	0x457
 1287 0422 09       		.uleb128 0x9
 1288 0423 5D070000 		.4byte	.LASF79
 1289 0427 09       		.byte	0x9
 1290 0428 8C01     		.2byte	0x18c
 1291 042a 86070000 		.4byte	0x786
 1292 042e 00       		.byte	0
 1293 042f 09       		.uleb128 0x9
 1294 0430 F7070000 		.4byte	.LASF80
 1295 0434 09       		.byte	0x9
ARM GAS  C:\Users\jo\AppData\Local\Temp\ccqPoXte.s 			page 24


 1296 0435 9101     		.2byte	0x191
 1297 0437 57010000 		.4byte	0x157
 1298 043b 04       		.byte	0x4
 1299 043c 09       		.uleb128 0x9
 1300 043d 3D050000 		.4byte	.LASF81
 1301 0441 09       		.byte	0x9
 1302 0442 9501     		.2byte	0x195
 1303 0444 57010000 		.4byte	0x157
 1304 0448 08       		.byte	0x8
 1305 0449 09       		.uleb128 0x9
 1306 044a 3A080000 		.4byte	.LASF82
 1307 044e 09       		.byte	0x9
 1308 044f 9B01     		.2byte	0x19b
 1309 0451 4E060000 		.4byte	0x64e
 1310 0455 0C       		.byte	0xc
 1311 0456 00       		.byte	0
 1312 0457 03       		.uleb128 0x3
 1313 0458 8A070000 		.4byte	.LASF83
 1314 045c 08       		.byte	0x8
 1315 045d 6B       		.byte	0x6b
 1316 045e 62040000 		.4byte	0x462
 1317 0462 0F       		.uleb128 0xf
 1318 0463 B2010000 		.4byte	.LASF84
 1319 0467 D805     		.2byte	0x5d8
 1320 0469 09       		.byte	0x9
 1321 046a A401     		.2byte	0x1a4
 1322 046c CF040000 		.4byte	0x4cf
 1323 0470 09       		.uleb128 0x9
 1324 0471 06080000 		.4byte	.LASF85
 1325 0475 09       		.byte	0x9
 1326 0476 A801     		.2byte	0x1a8
 1327 0478 DD020000 		.4byte	0x2dd
 1328 047c 00       		.byte	0
 1329 047d 09       		.uleb128 0x9
 1330 047e 9D010000 		.4byte	.LASF86
 1331 0482 09       		.byte	0x9
 1332 0483 AC01     		.2byte	0x1ac
 1333 0485 BC030000 		.4byte	0x3bc
 1334 0489 1C       		.byte	0x1c
 1335 048a 08       		.uleb128 0x8
 1336 048b 64626700 		.ascii	"dbg\000"
 1337 048f 09       		.byte	0x9
 1338 0490 B001     		.2byte	0x1b0
 1339 0492 09040000 		.4byte	0x409
 1340 0496 2C       		.byte	0x2c
 1341 0497 10       		.uleb128 0x10
 1342 0498 BB000000 		.4byte	.LASF87
 1343 049c 09       		.byte	0x9
 1344 049d B401     		.2byte	0x1b4
 1345 049f 78010000 		.4byte	0x178
 1346 04a3 4004     		.2byte	0x440
 1347 04a5 11       		.uleb128 0x11
 1348 04a6 746D00   		.ascii	"tm\000"
 1349 04a9 09       		.byte	0x9
 1350 04aa B901     		.2byte	0x1b9
 1351 04ac 6E060000 		.4byte	0x66e
 1352 04b0 A004     		.2byte	0x4a0
ARM GAS  C:\Users\jo\AppData\Local\Temp\ccqPoXte.s 			page 25


 1353 04b2 10       		.uleb128 0x10
 1354 04b3 6E050000 		.4byte	.LASF88
 1355 04b7 09       		.byte	0x9
 1356 04b8 BF01     		.2byte	0x1bf
 1357 04ba 00070000 		.4byte	0x700
 1358 04be A804     		.2byte	0x4a8
 1359 04c0 10       		.uleb128 0x10
 1360 04c1 5F020000 		.4byte	.LASF89
 1361 04c5 09       		.byte	0x9
 1362 04c6 C501     		.2byte	0x1c5
 1363 04c8 8B070000 		.4byte	0x78b
 1364 04cc E004     		.2byte	0x4e0
 1365 04ce 00       		.byte	0
 1366 04cf 04       		.uleb128 0x4
 1367 04d0 04       		.byte	0x4
 1368 04d1 07       		.byte	0x7
 1369 04d2 8D040000 		.4byte	.LASF90
 1370 04d6 03       		.uleb128 0x3
 1371 04d7 17020000 		.4byte	.LASF91
 1372 04db 0A       		.byte	0xa
 1373 04dc 85       		.byte	0x85
 1374 04dd 60030000 		.4byte	0x360
 1375 04e1 03       		.uleb128 0x3
 1376 04e2 35040000 		.4byte	.LASF92
 1377 04e6 0A       		.byte	0xa
 1378 04e7 8D       		.byte	0x8d
 1379 04e8 EF000000 		.4byte	0xef
 1380 04ec 06       		.uleb128 0x6
 1381 04ed 82070000 		.4byte	.LASF93
 1382 04f1 04       		.byte	0x4
 1383 04f2 0A       		.byte	0xa
 1384 04f3 A9       		.byte	0xa9
 1385 04f4 05050000 		.4byte	0x505
 1386 04f8 12       		.uleb128 0x12
 1387 04f9 72313300 		.ascii	"r13\000"
 1388 04fd 0A       		.byte	0xa
 1389 04fe AA       		.byte	0xaa
 1390 04ff 80050000 		.4byte	0x580
 1391 0503 00       		.byte	0
 1392 0504 00       		.byte	0
 1393 0505 06       		.uleb128 0x6
 1394 0506 41000000 		.4byte	.LASF94
 1395 050a 24       		.byte	0x24
 1396 050b 0B       		.byte	0xb
 1397 050c F4       		.byte	0xf4
 1398 050d 80050000 		.4byte	0x580
 1399 0511 08       		.uleb128 0x8
 1400 0512 723400   		.ascii	"r4\000"
 1401 0515 0B       		.byte	0xb
 1402 0516 0701     		.2byte	0x107
 1403 0518 D6040000 		.4byte	0x4d6
 1404 051c 00       		.byte	0
 1405 051d 08       		.uleb128 0x8
 1406 051e 723500   		.ascii	"r5\000"
 1407 0521 0B       		.byte	0xb
 1408 0522 0801     		.2byte	0x108
 1409 0524 D6040000 		.4byte	0x4d6
ARM GAS  C:\Users\jo\AppData\Local\Temp\ccqPoXte.s 			page 26


 1410 0528 04       		.byte	0x4
 1411 0529 08       		.uleb128 0x8
 1412 052a 723600   		.ascii	"r6\000"
 1413 052d 0B       		.byte	0xb
 1414 052e 0901     		.2byte	0x109
 1415 0530 D6040000 		.4byte	0x4d6
 1416 0534 08       		.byte	0x8
 1417 0535 08       		.uleb128 0x8
 1418 0536 723700   		.ascii	"r7\000"
 1419 0539 0B       		.byte	0xb
 1420 053a 0A01     		.2byte	0x10a
 1421 053c D6040000 		.4byte	0x4d6
 1422 0540 0C       		.byte	0xc
 1423 0541 08       		.uleb128 0x8
 1424 0542 723800   		.ascii	"r8\000"
 1425 0545 0B       		.byte	0xb
 1426 0546 0B01     		.2byte	0x10b
 1427 0548 D6040000 		.4byte	0x4d6
 1428 054c 10       		.byte	0x10
 1429 054d 08       		.uleb128 0x8
 1430 054e 723900   		.ascii	"r9\000"
 1431 0551 0B       		.byte	0xb
 1432 0552 0C01     		.2byte	0x10c
 1433 0554 D6040000 		.4byte	0x4d6
 1434 0558 14       		.byte	0x14
 1435 0559 08       		.uleb128 0x8
 1436 055a 72313000 		.ascii	"r10\000"
 1437 055e 0B       		.byte	0xb
 1438 055f 0D01     		.2byte	0x10d
 1439 0561 D6040000 		.4byte	0x4d6
 1440 0565 18       		.byte	0x18
 1441 0566 08       		.uleb128 0x8
 1442 0567 72313100 		.ascii	"r11\000"
 1443 056b 0B       		.byte	0xb
 1444 056c 0E01     		.2byte	0x10e
 1445 056e D6040000 		.4byte	0x4d6
 1446 0572 1C       		.byte	0x1c
 1447 0573 08       		.uleb128 0x8
 1448 0574 6C7200   		.ascii	"lr\000"
 1449 0577 0B       		.byte	0xb
 1450 0578 0F01     		.2byte	0x10f
 1451 057a D6040000 		.4byte	0x4d6
 1452 057e 20       		.byte	0x20
 1453 057f 00       		.byte	0
 1454 0580 0B       		.uleb128 0xb
 1455 0581 04       		.byte	0x4
 1456 0582 05050000 		.4byte	0x505
 1457 0586 03       		.uleb128 0x3
 1458 0587 DA040000 		.4byte	.LASF95
 1459 058b 0C       		.byte	0xc
 1460 058c 28       		.byte	0x28
 1461 058d 91050000 		.4byte	0x591
 1462 0591 06       		.uleb128 0x6
 1463 0592 CE010000 		.4byte	.LASF96
 1464 0596 04       		.byte	0x4
 1465 0597 0D       		.byte	0xd
 1466 0598 00       		.byte	0
ARM GAS  C:\Users\jo\AppData\Local\Temp\ccqPoXte.s 			page 27


 1467 0599 A8050000 		.4byte	0x5a8
 1468 059d 13       		.uleb128 0x13
 1469 059e 7D070000 		.4byte	.LASF119
 1470 05a2 60030000 		.4byte	0x360
 1471 05a6 00       		.byte	0
 1472 05a7 00       		.byte	0
 1473 05a8 0B       		.uleb128 0xb
 1474 05a9 04       		.byte	0x4
 1475 05aa AE050000 		.4byte	0x5ae
 1476 05ae 04       		.uleb128 0x4
 1477 05af 01       		.byte	0x1
 1478 05b0 08       		.byte	0x8
 1479 05b1 CF060000 		.4byte	.LASF97
 1480 05b5 0B       		.uleb128 0xb
 1481 05b6 04       		.byte	0x4
 1482 05b7 BB050000 		.4byte	0x5bb
 1483 05bb 14       		.uleb128 0x14
 1484 05bc AE050000 		.4byte	0x5ae
 1485 05c0 15       		.uleb128 0x15
 1486 05c1 10       		.byte	0x10
 1487 05c2 0E       		.byte	0xe
 1488 05c3 57       		.byte	0x57
 1489 05c4 F9050000 		.4byte	0x5f9
 1490 05c8 07       		.uleb128 0x7
 1491 05c9 0D000000 		.4byte	.LASF98
 1492 05cd 0E       		.byte	0xe
 1493 05ce 5B       		.byte	0x5b
 1494 05cf 6D010000 		.4byte	0x16d
 1495 05d3 00       		.byte	0
 1496 05d4 07       		.uleb128 0x7
 1497 05d5 D8010000 		.4byte	.LASF99
 1498 05d9 0E       		.byte	0xe
 1499 05da 5F       		.byte	0x5f
 1500 05db F9050000 		.4byte	0x5f9
 1501 05df 04       		.byte	0x4
 1502 05e0 07       		.uleb128 0x7
 1503 05e1 77080000 		.4byte	.LASF100
 1504 05e5 0E       		.byte	0xe
 1505 05e6 63       		.byte	0x63
 1506 05e7 60030000 		.4byte	0x360
 1507 05eb 08       		.byte	0x8
 1508 05ec 07       		.uleb128 0x7
 1509 05ed A9000000 		.4byte	.LASF101
 1510 05f1 0E       		.byte	0xe
 1511 05f2 67       		.byte	0x67
 1512 05f3 C3000000 		.4byte	0xc3
 1513 05f7 0C       		.byte	0xc
 1514 05f8 00       		.byte	0
 1515 05f9 0B       		.uleb128 0xb
 1516 05fa 04       		.byte	0x4
 1517 05fb 78010000 		.4byte	0x178
 1518 05ff 03       		.uleb128 0x3
 1519 0600 F1040000 		.4byte	.LASF102
 1520 0604 0E       		.byte	0xe
 1521 0605 68       		.byte	0x68
 1522 0606 C0050000 		.4byte	0x5c0
 1523 060a 16       		.uleb128 0x16
ARM GAS  C:\Users\jo\AppData\Local\Temp\ccqPoXte.s 			page 28


 1524 060b 0804     		.2byte	0x408
 1525 060d 0E       		.byte	0xe
 1526 060e 6D       		.byte	0x6d
 1527 060f 38060000 		.4byte	0x638
 1528 0613 07       		.uleb128 0x7
 1529 0614 02020000 		.4byte	.LASF103
 1530 0618 0E       		.byte	0xe
 1531 0619 71       		.byte	0x71
 1532 061a 37000000 		.4byte	0x37
 1533 061e 00       		.byte	0
 1534 061f 07       		.uleb128 0x7
 1535 0620 D3040000 		.4byte	.LASF104
 1536 0624 0E       		.byte	0xe
 1537 0625 75       		.byte	0x75
 1538 0626 38060000 		.4byte	0x638
 1539 062a 04       		.byte	0x4
 1540 062b 07       		.uleb128 0x7
 1541 062c 85050000 		.4byte	.LASF105
 1542 0630 0E       		.byte	0xe
 1543 0631 79       		.byte	0x79
 1544 0632 3E060000 		.4byte	0x63e
 1545 0636 08       		.byte	0x8
 1546 0637 00       		.byte	0
 1547 0638 0B       		.uleb128 0xb
 1548 0639 04       		.byte	0x4
 1549 063a FF050000 		.4byte	0x5ff
 1550 063e 17       		.uleb128 0x17
 1551 063f FF050000 		.4byte	0x5ff
 1552 0643 4E060000 		.4byte	0x64e
 1553 0647 18       		.uleb128 0x18
 1554 0648 CF040000 		.4byte	0x4cf
 1555 064c 3F       		.byte	0x3f
 1556 064d 00       		.byte	0
 1557 064e 03       		.uleb128 0x3
 1558 064f 0C050000 		.4byte	.LASF106
 1559 0653 0E       		.byte	0xe
 1560 0654 7A       		.byte	0x7a
 1561 0655 0A060000 		.4byte	0x60a
 1562 0659 15       		.uleb128 0x15
 1563 065a 04       		.byte	0x4
 1564 065b 0F       		.byte	0xf
 1565 065c 38       		.byte	0x38
 1566 065d 6E060000 		.4byte	0x66e
 1567 0661 07       		.uleb128 0x7
 1568 0662 67070000 		.4byte	.LASF107
 1569 0666 0F       		.byte	0xf
 1570 0667 3C       		.byte	0x3c
 1571 0668 FF000000 		.4byte	0xff
 1572 066c 00       		.byte	0
 1573 066d 00       		.byte	0
 1574 066e 03       		.uleb128 0x3
 1575 066f 2C050000 		.4byte	.LASF108
 1576 0673 0F       		.byte	0xf
 1577 0674 3D       		.byte	0x3d
 1578 0675 59060000 		.4byte	0x659
 1579 0679 15       		.uleb128 0x15
 1580 067a 18       		.byte	0x18
ARM GAS  C:\Users\jo\AppData\Local\Temp\ccqPoXte.s 			page 29


 1581 067b 0F       		.byte	0xf
 1582 067c 48       		.byte	0x48
 1583 067d BC060000 		.4byte	0x6bc
 1584 0681 07       		.uleb128 0x7
 1585 0682 28070000 		.4byte	.LASF109
 1586 0686 0F       		.byte	0xf
 1587 0687 49       		.byte	0x49
 1588 0688 FF000000 		.4byte	0xff
 1589 068c 00       		.byte	0
 1590 068d 07       		.uleb128 0x7
 1591 068e 69000000 		.4byte	.LASF110
 1592 0692 0F       		.byte	0xf
 1593 0693 4A       		.byte	0x4a
 1594 0694 FF000000 		.4byte	0xff
 1595 0698 04       		.byte	0x4
 1596 0699 07       		.uleb128 0x7
 1597 069a F6020000 		.4byte	.LASF111
 1598 069e 0F       		.byte	0xf
 1599 069f 4B       		.byte	0x4b
 1600 06a0 FF000000 		.4byte	0xff
 1601 06a4 08       		.byte	0x8
 1602 06a5 12       		.uleb128 0x12
 1603 06a6 6E00     		.ascii	"n\000"
 1604 06a8 0F       		.byte	0xf
 1605 06a9 4C       		.byte	0x4c
 1606 06aa 62010000 		.4byte	0x162
 1607 06ae 0C       		.byte	0xc
 1608 06af 07       		.uleb128 0x7
 1609 06b0 63050000 		.4byte	.LASF112
 1610 06b4 0F       		.byte	0xf
 1611 06b5 4D       		.byte	0x4d
 1612 06b6 0A010000 		.4byte	0x10a
 1613 06ba 10       		.byte	0x10
 1614 06bb 00       		.byte	0
 1615 06bc 03       		.uleb128 0x3
 1616 06bd 6F000000 		.4byte	.LASF113
 1617 06c1 0F       		.byte	0xf
 1618 06c2 4E       		.byte	0x4e
 1619 06c3 79060000 		.4byte	0x679
 1620 06c7 15       		.uleb128 0x15
 1621 06c8 38       		.byte	0x38
 1622 06c9 10       		.byte	0x10
 1623 06ca 38       		.byte	0x38
 1624 06cb 00070000 		.4byte	0x700
 1625 06cf 07       		.uleb128 0x7
 1626 06d0 AC020000 		.4byte	.LASF114
 1627 06d4 10       		.byte	0x10
 1628 06d5 39       		.byte	0x39
 1629 06d6 62010000 		.4byte	0x162
 1630 06da 00       		.byte	0
 1631 06db 07       		.uleb128 0x7
 1632 06dc C0050000 		.4byte	.LASF115
 1633 06e0 10       		.byte	0x10
 1634 06e1 3A       		.byte	0x3a
 1635 06e2 62010000 		.4byte	0x162
 1636 06e6 04       		.byte	0x4
 1637 06e7 07       		.uleb128 0x7
ARM GAS  C:\Users\jo\AppData\Local\Temp\ccqPoXte.s 			page 30


 1638 06e8 64080000 		.4byte	.LASF116
 1639 06ec 10       		.byte	0x10
 1640 06ed 3B       		.byte	0x3b
 1641 06ee BC060000 		.4byte	0x6bc
 1642 06f2 08       		.byte	0x8
 1643 06f3 07       		.uleb128 0x7
 1644 06f4 34030000 		.4byte	.LASF117
 1645 06f8 10       		.byte	0x10
 1646 06f9 3D       		.byte	0x3d
 1647 06fa BC060000 		.4byte	0x6bc
 1648 06fe 20       		.byte	0x20
 1649 06ff 00       		.byte	0
 1650 0700 03       		.uleb128 0x3
 1651 0701 CA020000 		.4byte	.LASF118
 1652 0705 10       		.byte	0x10
 1653 0706 3F       		.byte	0x3f
 1654 0707 C7060000 		.4byte	0x6c7
 1655 070b 19       		.uleb128 0x19
 1656 070c 04       		.byte	0x4
 1657 070d 09       		.byte	0x9
 1658 070e F6       		.byte	0xf6
 1659 070f 43070000 		.4byte	0x743
 1660 0713 1A       		.uleb128 0x1a
 1661 0714 E9070000 		.4byte	.LASF120
 1662 0718 09       		.byte	0x9
 1663 0719 FD       		.byte	0xfd
 1664 071a 41010000 		.4byte	0x141
 1665 071e 1B       		.uleb128 0x1b
 1666 071f B2000000 		.4byte	.LASF121
 1667 0723 09       		.byte	0x9
 1668 0724 0401     		.2byte	0x104
 1669 0726 41010000 		.4byte	0x141
 1670 072a 1B       		.uleb128 0x1b
 1671 072b 24080000 		.4byte	.LASF122
 1672 072f 09       		.byte	0x9
 1673 0730 0B01     		.2byte	0x10b
 1674 0732 60030000 		.4byte	0x360
 1675 0736 1B       		.uleb128 0x1b
 1676 0737 28060000 		.4byte	.LASF123
 1677 073b 09       		.byte	0x9
 1678 073c 1201     		.2byte	0x112
 1679 073e 4C010000 		.4byte	0x14c
 1680 0742 00       		.byte	0
 1681 0743 0B       		.uleb128 0xb
 1682 0744 04       		.byte	0x4
 1683 0745 E1040000 		.4byte	0x4e1
 1684 0749 06       		.uleb128 0x6
 1685 074a B3050000 		.4byte	.LASF124
 1686 074e 10       		.byte	0x10
 1687 074f 11       		.byte	0x11
 1688 0750 39       		.byte	0x39
 1689 0751 7A070000 		.4byte	0x77a
 1690 0755 07       		.uleb128 0x7
 1691 0756 E5050000 		.4byte	.LASF125
 1692 075a 11       		.byte	0x11
 1693 075b 3A       		.byte	0x3a
 1694 075c AD020000 		.4byte	0x2ad
ARM GAS  C:\Users\jo\AppData\Local\Temp\ccqPoXte.s 			page 31


 1695 0760 00       		.byte	0
 1696 0761 07       		.uleb128 0x7
 1697 0762 6F080000 		.4byte	.LASF126
 1698 0766 11       		.byte	0x11
 1699 0767 3C       		.byte	0x3c
 1700 0768 F9050000 		.4byte	0x5f9
 1701 076c 08       		.byte	0x8
 1702 076d 07       		.uleb128 0x7
 1703 076e 2D070000 		.4byte	.LASF127
 1704 0772 11       		.byte	0x11
 1705 0773 3E       		.byte	0x3e
 1706 0774 BB070000 		.4byte	0x7bb
 1707 0778 0C       		.byte	0xc
 1708 0779 00       		.byte	0
 1709 077a 0B       		.uleb128 0xb
 1710 077b 04       		.byte	0x4
 1711 077c 49070000 		.4byte	0x749
 1712 0780 0B       		.uleb128 0xb
 1713 0781 04       		.byte	0x4
 1714 0782 62030000 		.4byte	0x362
 1715 0786 05       		.uleb128 0x5
 1716 0787 B5050000 		.4byte	0x5b5
 1717 078b 17       		.uleb128 0x17
 1718 078c E1040000 		.4byte	0x4e1
 1719 0790 9B070000 		.4byte	0x79b
 1720 0794 18       		.uleb128 0x18
 1721 0795 CF040000 		.4byte	0x4cf
 1722 0799 1E       		.byte	0x1e
 1723 079a 00       		.byte	0
 1724 079b 0B       		.uleb128 0xb
 1725 079c 04       		.byte	0x4
 1726 079d A1070000 		.4byte	0x7a1
 1727 07a1 1C       		.uleb128 0x1c
 1728 07a2 41010000 		.4byte	0x141
 1729 07a6 B0070000 		.4byte	0x7b0
 1730 07aa 0D       		.uleb128 0xd
 1731 07ab 60030000 		.4byte	0x360
 1732 07af 00       		.byte	0
 1733 07b0 03       		.uleb128 0x3
 1734 07b1 42020000 		.4byte	.LASF128
 1735 07b5 11       		.byte	0x11
 1736 07b6 34       		.byte	0x34
 1737 07b7 49070000 		.4byte	0x749
 1738 07bb 0B       		.uleb128 0xb
 1739 07bc 04       		.byte	0x4
 1740 07bd B0070000 		.4byte	0x7b0
 1741 07c1 0B       		.uleb128 0xb
 1742 07c2 04       		.byte	0x4
 1743 07c3 C3000000 		.4byte	0xc3
 1744 07c7 06       		.uleb128 0x6
 1745 07c8 36060000 		.4byte	.LASF129
 1746 07cc 10       		.byte	0x10
 1747 07cd 12       		.byte	0x12
 1748 07ce 40       		.byte	0x40
 1749 07cf 04080000 		.4byte	0x804
 1750 07d3 07       		.uleb128 0x7
 1751 07d4 66040000 		.4byte	.LASF130
ARM GAS  C:\Users\jo\AppData\Local\Temp\ccqPoXte.s 			page 32


 1752 07d8 12       		.byte	0x12
 1753 07d9 41       		.byte	0x41
 1754 07da 28080000 		.4byte	0x828
 1755 07de 00       		.byte	0
 1756 07df 07       		.uleb128 0x7
 1757 07e0 02030000 		.4byte	.LASF131
 1758 07e4 12       		.byte	0x12
 1759 07e5 41       		.byte	0x41
 1760 07e6 47080000 		.4byte	0x847
 1761 07ea 04       		.byte	0x4
 1762 07eb 12       		.uleb128 0x12
 1763 07ec 70757400 		.ascii	"put\000"
 1764 07f0 12       		.byte	0x12
 1765 07f1 41       		.byte	0x41
 1766 07f2 61080000 		.4byte	0x861
 1767 07f6 08       		.byte	0x8
 1768 07f7 12       		.uleb128 0x12
 1769 07f8 67657400 		.ascii	"get\000"
 1770 07fc 12       		.byte	0x12
 1771 07fd 41       		.byte	0x41
 1772 07fe 9B070000 		.4byte	0x79b
 1773 0802 0C       		.byte	0xc
 1774 0803 00       		.byte	0
 1775 0804 1C       		.uleb128 0x1c
 1776 0805 2C000000 		.4byte	0x2c
 1777 0809 1D080000 		.4byte	0x81d
 1778 080d 0D       		.uleb128 0xd
 1779 080e 60030000 		.4byte	0x360
 1780 0812 0D       		.uleb128 0xd
 1781 0813 1D080000 		.4byte	0x81d
 1782 0817 0D       		.uleb128 0xd
 1783 0818 2C000000 		.4byte	0x2c
 1784 081c 00       		.byte	0
 1785 081d 0B       		.uleb128 0xb
 1786 081e 04       		.byte	0x4
 1787 081f 23080000 		.4byte	0x823
 1788 0823 14       		.uleb128 0x14
 1789 0824 C3000000 		.4byte	0xc3
 1790 0828 0B       		.uleb128 0xb
 1791 0829 04       		.byte	0x4
 1792 082a 04080000 		.4byte	0x804
 1793 082e 1C       		.uleb128 0x1c
 1794 082f 2C000000 		.4byte	0x2c
 1795 0833 47080000 		.4byte	0x847
 1796 0837 0D       		.uleb128 0xd
 1797 0838 60030000 		.4byte	0x360
 1798 083c 0D       		.uleb128 0xd
 1799 083d C1070000 		.4byte	0x7c1
 1800 0841 0D       		.uleb128 0xd
 1801 0842 2C000000 		.4byte	0x2c
 1802 0846 00       		.byte	0
 1803 0847 0B       		.uleb128 0xb
 1804 0848 04       		.byte	0x4
 1805 0849 2E080000 		.4byte	0x82e
 1806 084d 1C       		.uleb128 0x1c
 1807 084e 41010000 		.4byte	0x141
 1808 0852 61080000 		.4byte	0x861
ARM GAS  C:\Users\jo\AppData\Local\Temp\ccqPoXte.s 			page 33


 1809 0856 0D       		.uleb128 0xd
 1810 0857 60030000 		.4byte	0x360
 1811 085b 0D       		.uleb128 0xd
 1812 085c C3000000 		.4byte	0xc3
 1813 0860 00       		.byte	0
 1814 0861 0B       		.uleb128 0xb
 1815 0862 04       		.byte	0x4
 1816 0863 4D080000 		.4byte	0x84d
 1817 0867 15       		.uleb128 0x15
 1818 0868 04       		.byte	0x4
 1819 0869 12       		.byte	0x12
 1820 086a 49       		.byte	0x49
 1821 086b 7C080000 		.4byte	0x87c
 1822 086f 12       		.uleb128 0x12
 1823 0870 766D7400 		.ascii	"vmt\000"
 1824 0874 12       		.byte	0x12
 1825 0875 4B       		.byte	0x4b
 1826 0876 7C080000 		.4byte	0x87c
 1827 087a 00       		.byte	0
 1828 087b 00       		.byte	0
 1829 087c 0B       		.uleb128 0xb
 1830 087d 04       		.byte	0x4
 1831 087e 82080000 		.4byte	0x882
 1832 0882 14       		.uleb128 0x14
 1833 0883 C7070000 		.4byte	0x7c7
 1834 0887 03       		.uleb128 0x3
 1835 0888 4A020000 		.4byte	.LASF132
 1836 088c 12       		.byte	0x12
 1837 088d 4D       		.byte	0x4d
 1838 088e 67080000 		.4byte	0x867
 1839 0892 04       		.uleb128 0x4
 1840 0893 01       		.byte	0x1
 1841 0894 02       		.byte	0x2
 1842 0895 C9050000 		.4byte	.LASF133
 1843 0899 06       		.uleb128 0x6
 1844 089a 12070000 		.4byte	.LASF134
 1845 089e 10       		.byte	0x10
 1846 089f 13       		.byte	0x13
 1847 08a0 2E       		.byte	0x2e
 1848 08a1 D6080000 		.4byte	0x8d6
 1849 08a5 07       		.uleb128 0x7
 1850 08a6 66040000 		.4byte	.LASF130
 1851 08aa 13       		.byte	0x13
 1852 08ab 2F       		.byte	0x2f
 1853 08ac 28080000 		.4byte	0x828
 1854 08b0 00       		.byte	0
 1855 08b1 07       		.uleb128 0x7
 1856 08b2 02030000 		.4byte	.LASF131
 1857 08b6 13       		.byte	0x13
 1858 08b7 2F       		.byte	0x2f
 1859 08b8 47080000 		.4byte	0x847
 1860 08bc 04       		.byte	0x4
 1861 08bd 12       		.uleb128 0x12
 1862 08be 70757400 		.ascii	"put\000"
 1863 08c2 13       		.byte	0x13
 1864 08c3 2F       		.byte	0x2f
 1865 08c4 61080000 		.4byte	0x861
ARM GAS  C:\Users\jo\AppData\Local\Temp\ccqPoXte.s 			page 34


 1866 08c8 08       		.byte	0x8
 1867 08c9 12       		.uleb128 0x12
 1868 08ca 67657400 		.ascii	"get\000"
 1869 08ce 13       		.byte	0x13
 1870 08cf 2F       		.byte	0x2f
 1871 08d0 9B070000 		.4byte	0x79b
 1872 08d4 0C       		.byte	0xc
 1873 08d5 00       		.byte	0
 1874 08d6 15       		.uleb128 0x15
 1875 08d7 04       		.byte	0x4
 1876 08d8 13       		.byte	0x13
 1877 08d9 39       		.byte	0x39
 1878 08da EB080000 		.4byte	0x8eb
 1879 08de 12       		.uleb128 0x12
 1880 08df 766D7400 		.ascii	"vmt\000"
 1881 08e3 13       		.byte	0x13
 1882 08e4 3B       		.byte	0x3b
 1883 08e5 EB080000 		.4byte	0x8eb
 1884 08e9 00       		.byte	0
 1885 08ea 00       		.byte	0
 1886 08eb 0B       		.uleb128 0xb
 1887 08ec 04       		.byte	0x4
 1888 08ed F1080000 		.4byte	0x8f1
 1889 08f1 14       		.uleb128 0x14
 1890 08f2 99080000 		.4byte	0x899
 1891 08f6 03       		.uleb128 0x3
 1892 08f7 7B050000 		.4byte	.LASF135
 1893 08fb 13       		.byte	0x13
 1894 08fc 3D       		.byte	0x3d
 1895 08fd D6080000 		.4byte	0x8d6
 1896 0901 03       		.uleb128 0x3
 1897 0902 4D000000 		.4byte	.LASF136
 1898 0906 0C       		.byte	0xc
 1899 0907 62       		.byte	0x62
 1900 0908 86050000 		.4byte	0x586
 1901 090c 03       		.uleb128 0x3
 1902 090d 6F010000 		.4byte	.LASF137
 1903 0911 14       		.byte	0x14
 1904 0912 3D       		.byte	0x3d
 1905 0913 C3000000 		.4byte	0xc3
 1906 0917 03       		.uleb128 0x3
 1907 0918 83060000 		.4byte	.LASF138
 1908 091c 14       		.byte	0x14
 1909 091d 3E       		.byte	0x3e
 1910 091e B8000000 		.4byte	0xb8
 1911 0922 03       		.uleb128 0x3
 1912 0923 AC070000 		.4byte	.LASF139
 1913 0927 14       		.byte	0x14
 1914 0928 3F       		.byte	0x3f
 1915 0929 CE000000 		.4byte	0xce
 1916 092d 03       		.uleb128 0x3
 1917 092e A6020000 		.4byte	.LASF140
 1918 0932 14       		.byte	0x14
 1919 0933 41       		.byte	0x41
 1920 0934 E4000000 		.4byte	0xe4
 1921 0938 06       		.uleb128 0x6
 1922 0939 1E050000 		.4byte	.LASF141
ARM GAS  C:\Users\jo\AppData\Local\Temp\ccqPoXte.s 			page 35


 1923 093d 04       		.byte	0x4
 1924 093e 15       		.byte	0x15
 1925 093f 2C       		.byte	0x2c
 1926 0940 51090000 		.4byte	0x951
 1927 0944 07       		.uleb128 0x7
 1928 0945 83010000 		.4byte	.LASF142
 1929 0949 15       		.byte	0x15
 1930 094a 2D       		.byte	0x2d
 1931 094b 2D090000 		.4byte	0x92d
 1932 094f 00       		.byte	0
 1933 0950 00       		.byte	0
 1934 0951 03       		.uleb128 0x3
 1935 0952 73040000 		.4byte	.LASF143
 1936 0956 15       		.byte	0x15
 1937 0957 40       		.byte	0x40
 1938 0958 38090000 		.4byte	0x938
 1939 095c 03       		.uleb128 0x3
 1940 095d 87040000 		.4byte	.LASF144
 1941 0961 16       		.byte	0x16
 1942 0962 2F       		.byte	0x2f
 1943 0963 17090000 		.4byte	0x917
 1944 0967 06       		.uleb128 0x6
 1945 0968 08000000 		.4byte	.LASF145
 1946 096c 10       		.byte	0x10
 1947 096d 17       		.byte	0x17
 1948 096e 4F       		.byte	0x4f
 1949 096f C8090000 		.4byte	0x9c8
 1950 0973 07       		.uleb128 0x7
 1951 0974 F2000000 		.4byte	.LASF146
 1952 0978 17       		.byte	0x17
 1953 0979 51       		.byte	0x51
 1954 097a C8090000 		.4byte	0x9c8
 1955 097e 00       		.byte	0
 1956 097f 07       		.uleb128 0x7
 1957 0980 E9040000 		.4byte	.LASF147
 1958 0984 17       		.byte	0x17
 1959 0985 54       		.byte	0x54
 1960 0986 60030000 		.4byte	0x360
 1961 098a 04       		.byte	0x4
 1962 098b 07       		.uleb128 0x7
 1963 098c A4010000 		.4byte	.LASF148
 1964 0990 17       		.byte	0x17
 1965 0991 5D       		.byte	0x5d
 1966 0992 22090000 		.4byte	0x922
 1967 0996 08       		.byte	0x8
 1968 0997 12       		.uleb128 0x12
 1969 0998 6C656E00 		.ascii	"len\000"
 1970 099c 17       		.byte	0x17
 1971 099d 60       		.byte	0x60
 1972 099e 22090000 		.4byte	0x922
 1973 09a2 0A       		.byte	0xa
 1974 09a3 07       		.uleb128 0x7
 1975 09a4 64000000 		.4byte	.LASF149
 1976 09a8 17       		.byte	0x17
 1977 09a9 63       		.byte	0x63
 1978 09aa 0C090000 		.4byte	0x90c
 1979 09ae 0C       		.byte	0xc
ARM GAS  C:\Users\jo\AppData\Local\Temp\ccqPoXte.s 			page 36


 1980 09af 07       		.uleb128 0x7
 1981 09b0 1E080000 		.4byte	.LASF150
 1982 09b4 17       		.byte	0x17
 1983 09b5 66       		.byte	0x66
 1984 09b6 0C090000 		.4byte	0x90c
 1985 09ba 0D       		.byte	0xd
 1986 09bb 12       		.uleb128 0x12
 1987 09bc 72656600 		.ascii	"ref\000"
 1988 09c0 17       		.byte	0x17
 1989 09c1 6D       		.byte	0x6d
 1990 09c2 22090000 		.4byte	0x922
 1991 09c6 0E       		.byte	0xe
 1992 09c7 00       		.byte	0
 1993 09c8 0B       		.uleb128 0xb
 1994 09c9 04       		.byte	0x4
 1995 09ca 67090000 		.4byte	0x967
 1996 09ce 0B       		.uleb128 0xb
 1997 09cf 04       		.byte	0x4
 1998 09d0 D4090000 		.4byte	0x9d4
 1999 09d4 06       		.uleb128 0x6
 2000 09d5 CD040000 		.4byte	.LASF151
 2001 09d9 30       		.byte	0x30
 2002 09da 18       		.byte	0x18
 2003 09db 88       		.byte	0x88
 2004 09dc 880A0000 		.4byte	0xa88
 2005 09e0 07       		.uleb128 0x7
 2006 09e1 F2000000 		.4byte	.LASF146
 2007 09e5 18       		.byte	0x18
 2008 09e6 8A       		.byte	0x8a
 2009 09e7 CE090000 		.4byte	0x9ce
 2010 09eb 00       		.byte	0
 2011 09ec 07       		.uleb128 0x7
 2012 09ed 1E050000 		.4byte	.LASF141
 2013 09f1 18       		.byte	0x18
 2014 09f2 8D       		.byte	0x8d
 2015 09f3 51090000 		.4byte	0x951
 2016 09f7 04       		.byte	0x4
 2017 09f8 07       		.uleb128 0x7
 2018 09f9 FA010000 		.4byte	.LASF152
 2019 09fd 18       		.byte	0x18
 2020 09fe 8E       		.byte	0x8e
 2021 09ff 51090000 		.4byte	0x951
 2022 0a03 08       		.byte	0x8
 2023 0a04 12       		.uleb128 0x12
 2024 0a05 677700   		.ascii	"gw\000"
 2025 0a08 18       		.byte	0x18
 2026 0a09 8F       		.byte	0x8f
 2027 0a0a 51090000 		.4byte	0x951
 2028 0a0e 0C       		.byte	0xc
 2029 0a0f 07       		.uleb128 0x7
 2030 0a10 6C060000 		.4byte	.LASF153
 2031 0a14 18       		.byte	0x18
 2032 0a15 93       		.byte	0x93
 2033 0a16 880A0000 		.4byte	0xa88
 2034 0a1a 10       		.byte	0x10
 2035 0a1b 07       		.uleb128 0x7
 2036 0a1c 6C040000 		.4byte	.LASF154
ARM GAS  C:\Users\jo\AppData\Local\Temp\ccqPoXte.s 			page 37


 2037 0a20 18       		.byte	0x18
 2038 0a21 97       		.byte	0x97
 2039 0a22 AD0A0000 		.4byte	0xaad
 2040 0a26 14       		.byte	0x14
 2041 0a27 07       		.uleb128 0x7
 2042 0a28 4D080000 		.4byte	.LASF155
 2043 0a2c 18       		.byte	0x18
 2044 0a2d 9B       		.byte	0x9b
 2045 0a2e DD0A0000 		.4byte	0xadd
 2046 0a32 18       		.byte	0x18
 2047 0a33 07       		.uleb128 0x7
 2048 0a34 AC010000 		.4byte	.LASF156
 2049 0a38 18       		.byte	0x18
 2050 0a39 AC       		.byte	0xac
 2051 0a3a 60030000 		.4byte	0x360
 2052 0a3e 1C       		.byte	0x1c
 2053 0a3f 12       		.uleb128 0x12
 2054 0a40 6D747500 		.ascii	"mtu\000"
 2055 0a44 18       		.byte	0x18
 2056 0a45 BA       		.byte	0xba
 2057 0a46 22090000 		.4byte	0x922
 2058 0a4a 20       		.byte	0x20
 2059 0a4b 07       		.uleb128 0x7
 2060 0a4c E7010000 		.4byte	.LASF157
 2061 0a50 18       		.byte	0x18
 2062 0a51 BC       		.byte	0xbc
 2063 0a52 0C090000 		.4byte	0x90c
 2064 0a56 22       		.byte	0x22
 2065 0a57 07       		.uleb128 0x7
 2066 0a58 7C010000 		.4byte	.LASF158
 2067 0a5c 18       		.byte	0x18
 2068 0a5d BE       		.byte	0xbe
 2069 0a5e 020B0000 		.4byte	0xb02
 2070 0a62 23       		.byte	0x23
 2071 0a63 07       		.uleb128 0x7
 2072 0a64 1E080000 		.4byte	.LASF150
 2073 0a68 18       		.byte	0x18
 2074 0a69 C0       		.byte	0xc0
 2075 0a6a 0C090000 		.4byte	0x90c
 2076 0a6e 29       		.byte	0x29
 2077 0a6f 07       		.uleb128 0x7
 2078 0a70 B2020000 		.4byte	.LASF159
 2079 0a74 18       		.byte	0x18
 2080 0a75 C2       		.byte	0xc2
 2081 0a76 120B0000 		.4byte	0xb12
 2082 0a7a 2A       		.byte	0x2a
 2083 0a7b 12       		.uleb128 0x12
 2084 0a7c 6E756D00 		.ascii	"num\000"
 2085 0a80 18       		.byte	0x18
 2086 0a81 C4       		.byte	0xc4
 2087 0a82 0C090000 		.4byte	0x90c
 2088 0a86 2C       		.byte	0x2c
 2089 0a87 00       		.byte	0
 2090 0a88 03       		.uleb128 0x3
 2091 0a89 6E070000 		.4byte	.LASF160
 2092 0a8d 18       		.byte	0x18
 2093 0a8e 6D       		.byte	0x6d
ARM GAS  C:\Users\jo\AppData\Local\Temp\ccqPoXte.s 			page 38


 2094 0a8f 930A0000 		.4byte	0xa93
 2095 0a93 0B       		.uleb128 0xb
 2096 0a94 04       		.byte	0x4
 2097 0a95 990A0000 		.4byte	0xa99
 2098 0a99 1C       		.uleb128 0x1c
 2099 0a9a 5C090000 		.4byte	0x95c
 2100 0a9e AD0A0000 		.4byte	0xaad
 2101 0aa2 0D       		.uleb128 0xd
 2102 0aa3 C8090000 		.4byte	0x9c8
 2103 0aa7 0D       		.uleb128 0xd
 2104 0aa8 CE090000 		.4byte	0x9ce
 2105 0aac 00       		.byte	0
 2106 0aad 03       		.uleb128 0x3
 2107 0aae 09060000 		.4byte	.LASF161
 2108 0ab2 18       		.byte	0x18
 2109 0ab3 76       		.byte	0x76
 2110 0ab4 B80A0000 		.4byte	0xab8
 2111 0ab8 0B       		.uleb128 0xb
 2112 0ab9 04       		.byte	0x4
 2113 0aba BE0A0000 		.4byte	0xabe
 2114 0abe 1C       		.uleb128 0x1c
 2115 0abf 5C090000 		.4byte	0x95c
 2116 0ac3 D70A0000 		.4byte	0xad7
 2117 0ac7 0D       		.uleb128 0xd
 2118 0ac8 CE090000 		.4byte	0x9ce
 2119 0acc 0D       		.uleb128 0xd
 2120 0acd C8090000 		.4byte	0x9c8
 2121 0ad1 0D       		.uleb128 0xd
 2122 0ad2 D70A0000 		.4byte	0xad7
 2123 0ad6 00       		.byte	0
 2124 0ad7 0B       		.uleb128 0xb
 2125 0ad8 04       		.byte	0x4
 2126 0ad9 51090000 		.4byte	0x951
 2127 0add 03       		.uleb128 0x3
 2128 0ade 96040000 		.4byte	.LASF162
 2129 0ae2 18       		.byte	0x18
 2130 0ae3 7E       		.byte	0x7e
 2131 0ae4 E80A0000 		.4byte	0xae8
 2132 0ae8 0B       		.uleb128 0xb
 2133 0ae9 04       		.byte	0x4
 2134 0aea EE0A0000 		.4byte	0xaee
 2135 0aee 1C       		.uleb128 0x1c
 2136 0aef 5C090000 		.4byte	0x95c
 2137 0af3 020B0000 		.4byte	0xb02
 2138 0af7 0D       		.uleb128 0xd
 2139 0af8 CE090000 		.4byte	0x9ce
 2140 0afc 0D       		.uleb128 0xd
 2141 0afd C8090000 		.4byte	0x9c8
 2142 0b01 00       		.byte	0
 2143 0b02 17       		.uleb128 0x17
 2144 0b03 0C090000 		.4byte	0x90c
 2145 0b07 120B0000 		.4byte	0xb12
 2146 0b0b 18       		.uleb128 0x18
 2147 0b0c CF040000 		.4byte	0x4cf
 2148 0b10 05       		.byte	0x5
 2149 0b11 00       		.byte	0
 2150 0b12 17       		.uleb128 0x17
ARM GAS  C:\Users\jo\AppData\Local\Temp\ccqPoXte.s 			page 39


 2151 0b13 AE050000 		.4byte	0x5ae
 2152 0b17 220B0000 		.4byte	0xb22
 2153 0b1b 18       		.uleb128 0x18
 2154 0b1c CF040000 		.4byte	0x4cf
 2155 0b20 01       		.byte	0x1
 2156 0b21 00       		.byte	0
 2157 0b22 1D       		.uleb128 0x1d
 2158 0b23 5A040000 		.4byte	.LASF187
 2159 0b27 03       		.byte	0x3
 2160 0b28 9C01     		.2byte	0x19c
 2161 0b2a 03       		.byte	0x3
 2162 0b2b 3C0B0000 		.4byte	0xb3c
 2163 0b2f 1E       		.uleb128 0x1e
 2164 0b30 65060000 		.4byte	.LASF163
 2165 0b34 03       		.byte	0x3
 2166 0b35 9C01     		.2byte	0x19c
 2167 0b37 B5050000 		.4byte	0x5b5
 2168 0b3b 00       		.byte	0
 2169 0b3c 1F       		.uleb128 0x1f
 2170 0b3d A6080000 		.4byte	.LASF188
 2171 0b41 01       		.byte	0x1
 2172 0b42 45       		.byte	0x45
 2173 0b43 25000000 		.4byte	0x25
 2174 0b47 03       		.byte	0x3
 2175 0b48 790B0000 		.4byte	0xb79
 2176 0b4c 20       		.uleb128 0x20
 2177 0b4d 63687000 		.ascii	"chp\000"
 2178 0b51 01       		.byte	0x1
 2179 0b52 45       		.byte	0x45
 2180 0b53 790B0000 		.4byte	0xb79
 2181 0b57 20       		.uleb128 0x20
 2182 0b58 666D7400 		.ascii	"fmt\000"
 2183 0b5c 01       		.byte	0x1
 2184 0b5d 45       		.byte	0x45
 2185 0b5e B5050000 		.4byte	0x5b5
 2186 0b62 21       		.uleb128 0x21
 2187 0b63 22       		.uleb128 0x22
 2188 0b64 617000   		.ascii	"ap\000"
 2189 0b67 01       		.byte	0x1
 2190 0b68 46       		.byte	0x46
 2191 0b69 01090000 		.4byte	0x901
 2192 0b6d 23       		.uleb128 0x23
 2193 0b6e 99000000 		.4byte	.LASF164
 2194 0b72 01       		.byte	0x1
 2195 0b73 47       		.byte	0x47
 2196 0b74 25000000 		.4byte	0x25
 2197 0b78 00       		.byte	0
 2198 0b79 0B       		.uleb128 0xb
 2199 0b7a 04       		.byte	0x4
 2200 0b7b 87080000 		.4byte	0x887
 2201 0b7f 24       		.uleb128 0x24
 2202 0b80 3C0B0000 		.4byte	0xb3c
 2203 0b84 00000000 		.4byte	.LFB262
 2204 0b88 28000000 		.4byte	.LFE262-.LFB262
 2205 0b8c 01       		.uleb128 0x1
 2206 0b8d 9C       		.byte	0x9c
 2207 0b8e DE0B0000 		.4byte	0xbde
ARM GAS  C:\Users\jo\AppData\Local\Temp\ccqPoXte.s 			page 40


 2208 0b92 25       		.uleb128 0x25
 2209 0b93 4C0B0000 		.4byte	0xb4c
 2210 0b97 00000000 		.4byte	.LLST0
 2211 0b9b 26       		.uleb128 0x26
 2212 0b9c 570B0000 		.4byte	0xb57
 2213 0ba0 02       		.uleb128 0x2
 2214 0ba1 91       		.byte	0x91
 2215 0ba2 74       		.sleb128 -12
 2216 0ba3 21       		.uleb128 0x21
 2217 0ba4 27       		.uleb128 0x27
 2218 0ba5 630B0000 		.4byte	0xb63
 2219 0ba9 02       		.uleb128 0x2
 2220 0baa 91       		.byte	0x91
 2221 0bab 6C       		.sleb128 -20
 2222 0bac 27       		.uleb128 0x27
 2223 0bad 6D0B0000 		.4byte	0xb6d
 2224 0bb1 01       		.uleb128 0x1
 2225 0bb2 50       		.byte	0x50
 2226 0bb3 26       		.uleb128 0x26
 2227 0bb4 570B0000 		.4byte	0xb57
 2228 0bb8 06       		.uleb128 0x6
 2229 0bb9 03       		.byte	0x3
 2230 0bba 00000000 		.4byte	.LC0
 2231 0bbe 9F       		.byte	0x9f
 2232 0bbf 28       		.uleb128 0x28
 2233 0bc0 4C0B0000 		.4byte	0xb4c
 2234 0bc4 29       		.uleb128 0x29
 2235 0bc5 14000000 		.4byte	.LVL2
 2236 0bc9 670F0000 		.4byte	0xf67
 2237 0bcd 2A       		.uleb128 0x2a
 2238 0bce 01       		.uleb128 0x1
 2239 0bcf 52       		.byte	0x52
 2240 0bd0 02       		.uleb128 0x2
 2241 0bd1 91       		.byte	0x91
 2242 0bd2 60       		.sleb128 -32
 2243 0bd3 2A       		.uleb128 0x2a
 2244 0bd4 01       		.uleb128 0x1
 2245 0bd5 51       		.byte	0x51
 2246 0bd6 05       		.uleb128 0x5
 2247 0bd7 03       		.byte	0x3
 2248 0bd8 00000000 		.4byte	.LC0
 2249 0bdc 00       		.byte	0
 2250 0bdd 00       		.byte	0
 2251 0bde 2B       		.uleb128 0x2b
 2252 0bdf 88010000 		.4byte	.LASF165
 2253 0be3 02       		.byte	0x2
 2254 0be4 37       		.byte	0x37
 2255 0be5 0C090000 		.4byte	0x90c
 2256 0be9 00000000 		.4byte	.LFB256
 2257 0bed 3E000000 		.4byte	.LFE256-.LFB256
 2258 0bf1 01       		.uleb128 0x1
 2259 0bf2 9C       		.byte	0x9c
 2260 0bf3 230C0000 		.4byte	0xc23
 2261 0bf7 2C       		.uleb128 0x2c
 2262 0bf8 83010000 		.4byte	.LASF142
 2263 0bfc 02       		.byte	0x2
 2264 0bfd 37       		.byte	0x37
ARM GAS  C:\Users\jo\AppData\Local\Temp\ccqPoXte.s 			page 41


 2265 0bfe 2D090000 		.4byte	0x92d
 2266 0c02 21000000 		.4byte	.LLST1
 2267 0c06 2D       		.uleb128 0x2d
 2268 0c07 CD040000 		.4byte	.LASF151
 2269 0c0b 02       		.byte	0x2
 2270 0c0c 37       		.byte	0x37
 2271 0c0d 230C0000 		.4byte	0xc23
 2272 0c11 01       		.uleb128 0x1
 2273 0c12 51       		.byte	0x51
 2274 0c13 2E       		.uleb128 0x2e
 2275 0c14 FF070000 		.4byte	.LASF167
 2276 0c18 02       		.byte	0x2
 2277 0c19 39       		.byte	0x39
 2278 0c1a 51090000 		.4byte	0x951
 2279 0c1e 74000000 		.4byte	.LLST2
 2280 0c22 00       		.byte	0
 2281 0c23 0B       		.uleb128 0xb
 2282 0c24 04       		.byte	0x4
 2283 0c25 290C0000 		.4byte	0xc29
 2284 0c29 14       		.uleb128 0x14
 2285 0c2a D4090000 		.4byte	0x9d4
 2286 0c2e 2B       		.uleb128 0x2b
 2287 0c2f 8F080000 		.4byte	.LASF166
 2288 0c33 02       		.byte	0x2
 2289 0c34 5A       		.byte	0x5a
 2290 0c35 0C090000 		.4byte	0x90c
 2291 0c39 00000000 		.4byte	.LFB257
 2292 0c3d 2E000000 		.4byte	.LFE257-.LFB257
 2293 0c41 01       		.uleb128 0x1
 2294 0c42 9C       		.byte	0x9c
 2295 0c43 860C0000 		.4byte	0xc86
 2296 0c47 2C       		.uleb128 0x2c
 2297 0c48 FA010000 		.4byte	.LASF152
 2298 0c4c 02       		.byte	0x2
 2299 0c4d 5A       		.byte	0x5a
 2300 0c4e 2D090000 		.4byte	0x92d
 2301 0c52 D3000000 		.4byte	.LLST3
 2302 0c56 2E       		.uleb128 0x2e
 2303 0c57 12020000 		.4byte	.LASF168
 2304 0c5b 02       		.byte	0x2
 2305 0c5c 5C       		.byte	0x5c
 2306 0c5d 2D090000 		.4byte	0x92d
 2307 0c61 F4000000 		.4byte	.LLST4
 2308 0c65 2E       		.uleb128 0x2e
 2309 0c66 E3020000 		.4byte	.LASF169
 2310 0c6a 02       		.byte	0x2
 2311 0c6b 5D       		.byte	0x5d
 2312 0c6c 2D090000 		.4byte	0x92d
 2313 0c70 3B010000 		.4byte	.LLST5
 2314 0c74 29       		.uleb128 0x29
 2315 0c75 06000000 		.4byte	.LVL10
 2316 0c79 860F0000 		.4byte	0xf86
 2317 0c7d 2A       		.uleb128 0x2a
 2318 0c7e 01       		.uleb128 0x1
 2319 0c7f 50       		.byte	0x50
 2320 0c80 03       		.uleb128 0x3
 2321 0c81 F3       		.byte	0xf3
ARM GAS  C:\Users\jo\AppData\Local\Temp\ccqPoXte.s 			page 42


 2322 0c82 01       		.uleb128 0x1
 2323 0c83 50       		.byte	0x50
 2324 0c84 00       		.byte	0
 2325 0c85 00       		.byte	0
 2326 0c86 2B       		.uleb128 0x2b
 2327 0c87 AA040000 		.4byte	.LASF170
 2328 0c8b 02       		.byte	0x2
 2329 0c8c 98       		.byte	0x98
 2330 0c8d 25000000 		.4byte	0x25
 2331 0c91 00000000 		.4byte	.LFB259
 2332 0c95 64010000 		.4byte	.LFE259-.LFB259
 2333 0c99 01       		.uleb128 0x1
 2334 0c9a 9C       		.byte	0x9c
 2335 0c9b 740D0000 		.4byte	0xd74
 2336 0c9f 2F       		.uleb128 0x2f
 2337 0ca0 637000   		.ascii	"cp\000"
 2338 0ca3 02       		.byte	0x2
 2339 0ca4 98       		.byte	0x98
 2340 0ca5 B5050000 		.4byte	0x5b5
 2341 0ca9 59010000 		.4byte	.LLST6
 2342 0cad 2C       		.uleb128 0x2c
 2343 0cae 83010000 		.4byte	.LASF142
 2344 0cb2 02       		.byte	0x2
 2345 0cb3 98       		.byte	0x98
 2346 0cb4 D70A0000 		.4byte	0xad7
 2347 0cb8 0E020000 		.4byte	.LLST7
 2348 0cbc 30       		.uleb128 0x30
 2349 0cbd 76616C00 		.ascii	"val\000"
 2350 0cc1 02       		.byte	0x2
 2351 0cc2 9A       		.byte	0x9a
 2352 0cc3 2D090000 		.4byte	0x92d
 2353 0cc7 2C020000 		.4byte	.LLST8
 2354 0ccb 2E       		.uleb128 0x2e
 2355 0ccc AE050000 		.4byte	.LASF171
 2356 0cd0 02       		.byte	0x2
 2357 0cd1 9B       		.byte	0x9b
 2358 0cd2 0C090000 		.4byte	0x90c
 2359 0cd6 BA020000 		.4byte	.LLST9
 2360 0cda 30       		.uleb128 0x30
 2361 0cdb 6300     		.ascii	"c\000"
 2362 0cdd 02       		.byte	0x2
 2363 0cde 9C       		.byte	0x9c
 2364 0cdf AE050000 		.4byte	0x5ae
 2365 0ce3 E6020000 		.4byte	.LLST10
 2366 0ce7 31       		.uleb128 0x31
 2367 0ce8 25000000 		.4byte	.LASF172
 2368 0cec 02       		.byte	0x2
 2369 0ced 9D       		.byte	0x9d
 2370 0cee 740D0000 		.4byte	0xd74
 2371 0cf2 02       		.uleb128 0x2
 2372 0cf3 91       		.byte	0x91
 2373 0cf4 50       		.sleb128 -48
 2374 0cf5 30       		.uleb128 0x30
 2375 0cf6 707000   		.ascii	"pp\000"
 2376 0cf9 02       		.byte	0x2
 2377 0cfa 9E       		.byte	0x9e
 2378 0cfb 840D0000 		.4byte	0xd84
ARM GAS  C:\Users\jo\AppData\Local\Temp\ccqPoXte.s 			page 43


 2379 0cff 59030000 		.4byte	.LLST11
 2380 0d03 32       		.uleb128 0x32
 2381 0d04 220B0000 		.4byte	0xb22
 2382 0d08 46010000 		.4byte	.LBB4
 2383 0d0c 08000000 		.4byte	.LBE4-.LBB4
 2384 0d10 02       		.byte	0x2
 2385 0d11 F3       		.byte	0xf3
 2386 0d12 330D0000 		.4byte	0xd33
 2387 0d16 25       		.uleb128 0x25
 2388 0d17 2F0B0000 		.4byte	0xb2f
 2389 0d1b A7030000 		.4byte	.LLST12
 2390 0d1f 29       		.uleb128 0x29
 2391 0d20 4C010000 		.4byte	.LVL59
 2392 0d24 9B0F0000 		.4byte	0xf9b
 2393 0d28 2A       		.uleb128 0x2a
 2394 0d29 01       		.uleb128 0x1
 2395 0d2a 50       		.byte	0x50
 2396 0d2b 05       		.uleb128 0x5
 2397 0d2c 03       		.byte	0x3
 2398 0d2d 28000000 		.4byte	.LC1
 2399 0d31 00       		.byte	0
 2400 0d32 00       		.byte	0
 2401 0d33 33       		.uleb128 0x33
 2402 0d34 0A010000 		.4byte	.LVL52
 2403 0d38 860F0000 		.4byte	0xf86
 2404 0d3c 470D0000 		.4byte	0xd47
 2405 0d40 2A       		.uleb128 0x2a
 2406 0d41 01       		.uleb128 0x1
 2407 0d42 50       		.byte	0x50
 2408 0d43 02       		.uleb128 0x2
 2409 0d44 75       		.byte	0x75
 2410 0d45 00       		.sleb128 0
 2411 0d46 00       		.byte	0
 2412 0d47 29       		.uleb128 0x29
 2413 0d48 46010000 		.4byte	.LVL58
 2414 0d4c 7F0B0000 		.4byte	0xb7f
 2415 0d50 2A       		.uleb128 0x2a
 2416 0d51 01       		.uleb128 0x1
 2417 0d52 53       		.byte	0x53
 2418 0d53 02       		.uleb128 0x2
 2419 0d54 08       		.byte	0x8
 2420 0d55 F3       		.byte	0xf3
 2421 0d56 2A       		.uleb128 0x2a
 2422 0d57 01       		.uleb128 0x1
 2423 0d58 52       		.byte	0x52
 2424 0d59 05       		.uleb128 0x5
 2425 0d5a 03       		.byte	0x3
 2426 0d5b 28000000 		.4byte	.LC1
 2427 0d5f 2A       		.uleb128 0x2a
 2428 0d60 01       		.uleb128 0x1
 2429 0d61 51       		.byte	0x51
 2430 0d62 05       		.uleb128 0x5
 2431 0d63 03       		.byte	0x3
 2432 0d64 00000000 		.4byte	.LC0
 2433 0d68 2A       		.uleb128 0x2a
 2434 0d69 02       		.uleb128 0x2
 2435 0d6a 7D       		.byte	0x7d
ARM GAS  C:\Users\jo\AppData\Local\Temp\ccqPoXte.s 			page 44


 2436 0d6b 00       		.sleb128 0
 2437 0d6c 05       		.uleb128 0x5
 2438 0d6d 03       		.byte	0x3
 2439 0d6e 34000000 		.4byte	.LC2
 2440 0d72 00       		.byte	0
 2441 0d73 00       		.byte	0
 2442 0d74 17       		.uleb128 0x17
 2443 0d75 2D090000 		.4byte	0x92d
 2444 0d79 840D0000 		.4byte	0xd84
 2445 0d7d 18       		.uleb128 0x18
 2446 0d7e CF040000 		.4byte	0x4cf
 2447 0d82 03       		.byte	0x3
 2448 0d83 00       		.byte	0
 2449 0d84 0B       		.uleb128 0xb
 2450 0d85 04       		.byte	0x4
 2451 0d86 2D090000 		.4byte	0x92d
 2452 0d8a 2B       		.uleb128 0x2b
 2453 0d8b 58080000 		.4byte	.LASF173
 2454 0d8f 02       		.byte	0x2
 2455 0d90 82       		.byte	0x82
 2456 0d91 2D090000 		.4byte	0x92d
 2457 0d95 00000000 		.4byte	.LFB258
 2458 0d99 1E000000 		.4byte	.LFE258-.LFB258
 2459 0d9d 01       		.uleb128 0x1
 2460 0d9e 9C       		.byte	0x9c
 2461 0d9f D70D0000 		.4byte	0xdd7
 2462 0da3 2F       		.uleb128 0x2f
 2463 0da4 637000   		.ascii	"cp\000"
 2464 0da7 02       		.byte	0x2
 2465 0da8 82       		.byte	0x82
 2466 0da9 B5050000 		.4byte	0x5b5
 2467 0dad BF030000 		.4byte	.LLST13
 2468 0db1 34       		.uleb128 0x34
 2469 0db2 76616C00 		.ascii	"val\000"
 2470 0db6 02       		.byte	0x2
 2471 0db7 84       		.byte	0x84
 2472 0db8 51090000 		.4byte	0x951
 2473 0dbc 02       		.uleb128 0x2
 2474 0dbd 91       		.byte	0x91
 2475 0dbe 74       		.sleb128 -12
 2476 0dbf 29       		.uleb128 0x29
 2477 0dc0 0A000000 		.4byte	.LVL62
 2478 0dc4 860C0000 		.4byte	0xc86
 2479 0dc8 2A       		.uleb128 0x2a
 2480 0dc9 01       		.uleb128 0x1
 2481 0dca 51       		.byte	0x51
 2482 0dcb 02       		.uleb128 0x2
 2483 0dcc 91       		.byte	0x91
 2484 0dcd 74       		.sleb128 -12
 2485 0dce 2A       		.uleb128 0x2a
 2486 0dcf 01       		.uleb128 0x1
 2487 0dd0 50       		.byte	0x50
 2488 0dd1 03       		.uleb128 0x3
 2489 0dd2 F3       		.byte	0xf3
 2490 0dd3 01       		.uleb128 0x1
 2491 0dd4 50       		.byte	0x50
 2492 0dd5 00       		.byte	0
ARM GAS  C:\Users\jo\AppData\Local\Temp\ccqPoXte.s 			page 45


 2493 0dd6 00       		.byte	0
 2494 0dd7 35       		.uleb128 0x35
 2495 0dd8 4C040000 		.4byte	.LASF174
 2496 0ddc 02       		.byte	0x2
 2497 0ddd 1401     		.2byte	0x114
 2498 0ddf A8050000 		.4byte	0x5a8
 2499 0de3 00000000 		.4byte	.LFB261
 2500 0de7 C0000000 		.4byte	.LFE261-.LFB261
 2501 0deb 01       		.uleb128 0x1
 2502 0dec 9C       		.byte	0x9c
 2503 0ded 960E0000 		.4byte	0xe96
 2504 0df1 36       		.uleb128 0x36
 2505 0df2 83010000 		.4byte	.LASF142
 2506 0df6 02       		.byte	0x2
 2507 0df7 1401     		.2byte	0x114
 2508 0df9 960E0000 		.4byte	0xe96
 2509 0dfd E0030000 		.4byte	.LLST14
 2510 0e01 37       		.uleb128 0x37
 2511 0e02 62756600 		.ascii	"buf\000"
 2512 0e06 02       		.byte	0x2
 2513 0e07 1401     		.2byte	0x114
 2514 0e09 A8050000 		.4byte	0x5a8
 2515 0e0d 01       		.uleb128 0x1
 2516 0e0e 51       		.byte	0x51
 2517 0e0f 38       		.uleb128 0x38
 2518 0e10 5E060000 		.4byte	.LASF175
 2519 0e14 02       		.byte	0x2
 2520 0e15 1401     		.2byte	0x114
 2521 0e17 25000000 		.4byte	0x25
 2522 0e1b 01       		.uleb128 0x1
 2523 0e1c 52       		.byte	0x52
 2524 0e1d 39       		.uleb128 0x39
 2525 0e1e 8C020000 		.4byte	.LASF176
 2526 0e22 02       		.byte	0x2
 2527 0e23 1601     		.2byte	0x116
 2528 0e25 2D090000 		.4byte	0x92d
 2529 0e29 02       		.uleb128 0x2
 2530 0e2a 91       		.byte	0x91
 2531 0e2b 5C       		.sleb128 -36
 2532 0e2c 3A       		.uleb128 0x3a
 2533 0e2d 696E7600 		.ascii	"inv\000"
 2534 0e31 02       		.byte	0x2
 2535 0e32 1701     		.2byte	0x117
 2536 0e34 A10E0000 		.4byte	0xea1
 2537 0e38 02       		.uleb128 0x2
 2538 0e39 91       		.byte	0x91
 2539 0e3a 58       		.sleb128 -40
 2540 0e3b 3B       		.uleb128 0x3b
 2541 0e3c 727000   		.ascii	"rp\000"
 2542 0e3f 02       		.byte	0x2
 2543 0e40 1801     		.2byte	0x118
 2544 0e42 A8050000 		.4byte	0x5a8
 2545 0e46 01040000 		.4byte	.LLST15
 2546 0e4a 3B       		.uleb128 0x3b
 2547 0e4b 617000   		.ascii	"ap\000"
 2548 0e4e 02       		.byte	0x2
 2549 0e4f 1901     		.2byte	0x119
ARM GAS  C:\Users\jo\AppData\Local\Temp\ccqPoXte.s 			page 46


 2550 0e51 B10E0000 		.4byte	0xeb1
 2551 0e55 37040000 		.4byte	.LLST16
 2552 0e59 3B       		.uleb128 0x3b
 2553 0e5a 72656D00 		.ascii	"rem\000"
 2554 0e5e 02       		.byte	0x2
 2555 0e5f 1A01     		.2byte	0x11a
 2556 0e61 0C090000 		.4byte	0x90c
 2557 0e65 7C040000 		.4byte	.LLST17
 2558 0e69 3B       		.uleb128 0x3b
 2559 0e6a 6E00     		.ascii	"n\000"
 2560 0e6c 02       		.byte	0x2
 2561 0e6d 1B01     		.2byte	0x11b
 2562 0e6f 0C090000 		.4byte	0x90c
 2563 0e73 9C040000 		.4byte	.LLST18
 2564 0e77 3B       		.uleb128 0x3b
 2565 0e78 6900     		.ascii	"i\000"
 2566 0e7a 02       		.byte	0x2
 2567 0e7b 1C01     		.2byte	0x11c
 2568 0e7d 0C090000 		.4byte	0x90c
 2569 0e81 D0040000 		.4byte	.LLST19
 2570 0e85 3B       		.uleb128 0x3b
 2571 0e86 6C656E00 		.ascii	"len\000"
 2572 0e8a 02       		.byte	0x2
 2573 0e8b 1D01     		.2byte	0x11d
 2574 0e8d 25000000 		.4byte	0x25
 2575 0e91 27050000 		.4byte	.LLST20
 2576 0e95 00       		.byte	0
 2577 0e96 0B       		.uleb128 0xb
 2578 0e97 04       		.byte	0x4
 2579 0e98 9C0E0000 		.4byte	0xe9c
 2580 0e9c 14       		.uleb128 0x14
 2581 0e9d 51090000 		.4byte	0x951
 2582 0ea1 17       		.uleb128 0x17
 2583 0ea2 AE050000 		.4byte	0x5ae
 2584 0ea6 B10E0000 		.4byte	0xeb1
 2585 0eaa 18       		.uleb128 0x18
 2586 0eab CF040000 		.4byte	0x4cf
 2587 0eaf 02       		.byte	0x2
 2588 0eb0 00       		.byte	0
 2589 0eb1 0B       		.uleb128 0xb
 2590 0eb2 04       		.byte	0x4
 2591 0eb3 0C090000 		.4byte	0x90c
 2592 0eb7 35       		.uleb128 0x35
 2593 0eb8 2B000000 		.4byte	.LASF177
 2594 0ebc 02       		.byte	0x2
 2595 0ebd 0501     		.2byte	0x105
 2596 0ebf A8050000 		.4byte	0x5a8
 2597 0ec3 00000000 		.4byte	.LFB260
 2598 0ec7 0C000000 		.4byte	.LFE260-.LFB260
 2599 0ecb 01       		.uleb128 0x1
 2600 0ecc 9C       		.byte	0x9c
 2601 0ecd 130F0000 		.4byte	0xf13
 2602 0ed1 36       		.uleb128 0x36
 2603 0ed2 83010000 		.4byte	.LASF142
 2604 0ed6 02       		.byte	0x2
 2605 0ed7 0501     		.2byte	0x105
 2606 0ed9 960E0000 		.4byte	0xe96
ARM GAS  C:\Users\jo\AppData\Local\Temp\ccqPoXte.s 			page 47


 2607 0edd 67050000 		.4byte	.LLST21
 2608 0ee1 3A       		.uleb128 0x3a
 2609 0ee2 73747200 		.ascii	"str\000"
 2610 0ee6 02       		.byte	0x2
 2611 0ee7 0701     		.2byte	0x107
 2612 0ee9 130F0000 		.4byte	0xf13
 2613 0eed 05       		.uleb128 0x5
 2614 0eee 03       		.byte	0x3
 2615 0eef 00000000 		.4byte	str.8468
 2616 0ef3 3C       		.uleb128 0x3c
 2617 0ef4 08000000 		.4byte	.LVL86
 2618 0ef8 D70D0000 		.4byte	0xdd7
 2619 0efc 2A       		.uleb128 0x2a
 2620 0efd 01       		.uleb128 0x1
 2621 0efe 52       		.byte	0x52
 2622 0eff 01       		.uleb128 0x1
 2623 0f00 40       		.byte	0x40
 2624 0f01 2A       		.uleb128 0x2a
 2625 0f02 01       		.uleb128 0x1
 2626 0f03 51       		.byte	0x51
 2627 0f04 05       		.uleb128 0x5
 2628 0f05 03       		.byte	0x3
 2629 0f06 00000000 		.4byte	.LANCHOR0
 2630 0f0a 2A       		.uleb128 0x2a
 2631 0f0b 01       		.uleb128 0x1
 2632 0f0c 50       		.byte	0x50
 2633 0f0d 03       		.uleb128 0x3
 2634 0f0e F3       		.byte	0xf3
 2635 0f0f 01       		.uleb128 0x1
 2636 0f10 50       		.byte	0x50
 2637 0f11 00       		.byte	0
 2638 0f12 00       		.byte	0
 2639 0f13 17       		.uleb128 0x17
 2640 0f14 AE050000 		.4byte	0x5ae
 2641 0f18 230F0000 		.4byte	0xf23
 2642 0f1c 18       		.uleb128 0x18
 2643 0f1d CF040000 		.4byte	0x4cf
 2644 0f21 0F       		.byte	0xf
 2645 0f22 00       		.byte	0
 2646 0f23 3D       		.uleb128 0x3d
 2647 0f24 E5000000 		.4byte	.LASF178
 2648 0f28 19       		.byte	0x19
 2649 0f29 A706     		.2byte	0x6a7
 2650 0f2b FA000000 		.4byte	0xfa
 2651 0f2f 3E       		.uleb128 0x3e
 2652 0f30 636800   		.ascii	"ch\000"
 2653 0f33 09       		.byte	0x9
 2654 0f34 EB01     		.2byte	0x1eb
 2655 0f36 57040000 		.4byte	0x457
 2656 0f3a 3F       		.uleb128 0x3f
 2657 0f3b BF070000 		.4byte	.LASF179
 2658 0f3f 14       		.byte	0x14
 2659 0f40 3B       		.byte	0x3b
 2660 0f41 F6080000 		.4byte	0x8f6
 2661 0f45 40       		.uleb128 0x40
 2662 0f46 40040000 		.4byte	.LASF180
 2663 0f4a 02       		.byte	0x2
ARM GAS  C:\Users\jo\AppData\Local\Temp\ccqPoXte.s 			page 48


 2664 0f4b 2C       		.byte	0x2c
 2665 0f4c 9C0E0000 		.4byte	0xe9c
 2666 0f50 05       		.uleb128 0x5
 2667 0f51 03       		.byte	0x3
 2668 0f52 00000000 		.4byte	ip_addr_any
 2669 0f56 40       		.uleb128 0x40
 2670 0f57 3F030000 		.4byte	.LASF181
 2671 0f5b 02       		.byte	0x2
 2672 0f5c 2D       		.byte	0x2d
 2673 0f5d 9C0E0000 		.4byte	0xe9c
 2674 0f61 05       		.uleb128 0x5
 2675 0f62 03       		.byte	0x3
 2676 0f63 00000000 		.4byte	ip_addr_broadcast
 2677 0f67 41       		.uleb128 0x41
 2678 0f68 14080000 		.4byte	.LASF182
 2679 0f6c 01       		.byte	0x1
 2680 0f6d 28       		.byte	0x28
 2681 0f6e 25000000 		.4byte	0x25
 2682 0f72 860F0000 		.4byte	0xf86
 2683 0f76 0D       		.uleb128 0xd
 2684 0f77 790B0000 		.4byte	0xb79
 2685 0f7b 0D       		.uleb128 0xd
 2686 0f7c B5050000 		.4byte	0x5b5
 2687 0f80 0D       		.uleb128 0xd
 2688 0f81 01090000 		.4byte	0x901
 2689 0f85 00       		.byte	0
 2690 0f86 41       		.uleb128 0x41
 2691 0f87 0F030000 		.4byte	.LASF183
 2692 0f8b 1A       		.byte	0x1a
 2693 0f8c 65       		.byte	0x65
 2694 0f8d 2D090000 		.4byte	0x92d
 2695 0f91 9B0F0000 		.4byte	0xf9b
 2696 0f95 0D       		.uleb128 0xd
 2697 0f96 2D090000 		.4byte	0x92d
 2698 0f9a 00       		.byte	0
 2699 0f9b 42       		.uleb128 0x42
 2700 0f9c 28020000 		.4byte	.LASF189
 2701 0fa0 1B       		.byte	0x1b
 2702 0fa1 E6       		.byte	0xe6
 2703 0fa2 0D       		.uleb128 0xd
 2704 0fa3 B5050000 		.4byte	0x5b5
 2705 0fa7 00       		.byte	0
 2706 0fa8 00       		.byte	0
 2707              		.section	.debug_abbrev,"",%progbits
 2708              	.Ldebug_abbrev0:
 2709 0000 01       		.uleb128 0x1
 2710 0001 11       		.uleb128 0x11
 2711 0002 01       		.byte	0x1
 2712 0003 25       		.uleb128 0x25
 2713 0004 0E       		.uleb128 0xe
 2714 0005 13       		.uleb128 0x13
 2715 0006 0B       		.uleb128 0xb
 2716 0007 03       		.uleb128 0x3
 2717 0008 0E       		.uleb128 0xe
 2718 0009 1B       		.uleb128 0x1b
 2719 000a 0E       		.uleb128 0xe
 2720 000b 55       		.uleb128 0x55
ARM GAS  C:\Users\jo\AppData\Local\Temp\ccqPoXte.s 			page 49


 2721 000c 17       		.uleb128 0x17
 2722 000d 11       		.uleb128 0x11
 2723 000e 01       		.uleb128 0x1
 2724 000f 10       		.uleb128 0x10
 2725 0010 17       		.uleb128 0x17
 2726 0011 00       		.byte	0
 2727 0012 00       		.byte	0
 2728 0013 02       		.uleb128 0x2
 2729 0014 24       		.uleb128 0x24
 2730 0015 00       		.byte	0
 2731 0016 0B       		.uleb128 0xb
 2732 0017 0B       		.uleb128 0xb
 2733 0018 3E       		.uleb128 0x3e
 2734 0019 0B       		.uleb128 0xb
 2735 001a 03       		.uleb128 0x3
 2736 001b 08       		.uleb128 0x8
 2737 001c 00       		.byte	0
 2738 001d 00       		.byte	0
 2739 001e 03       		.uleb128 0x3
 2740 001f 16       		.uleb128 0x16
 2741 0020 00       		.byte	0
 2742 0021 03       		.uleb128 0x3
 2743 0022 0E       		.uleb128 0xe
 2744 0023 3A       		.uleb128 0x3a
 2745 0024 0B       		.uleb128 0xb
 2746 0025 3B       		.uleb128 0x3b
 2747 0026 0B       		.uleb128 0xb
 2748 0027 49       		.uleb128 0x49
 2749 0028 13       		.uleb128 0x13
 2750 0029 00       		.byte	0
 2751 002a 00       		.byte	0
 2752 002b 04       		.uleb128 0x4
 2753 002c 24       		.uleb128 0x24
 2754 002d 00       		.byte	0
 2755 002e 0B       		.uleb128 0xb
 2756 002f 0B       		.uleb128 0xb
 2757 0030 3E       		.uleb128 0x3e
 2758 0031 0B       		.uleb128 0xb
 2759 0032 03       		.uleb128 0x3
 2760 0033 0E       		.uleb128 0xe
 2761 0034 00       		.byte	0
 2762 0035 00       		.byte	0
 2763 0036 05       		.uleb128 0x5
 2764 0037 35       		.uleb128 0x35
 2765 0038 00       		.byte	0
 2766 0039 49       		.uleb128 0x49
 2767 003a 13       		.uleb128 0x13
 2768 003b 00       		.byte	0
 2769 003c 00       		.byte	0
 2770 003d 06       		.uleb128 0x6
 2771 003e 13       		.uleb128 0x13
 2772 003f 01       		.byte	0x1
 2773 0040 03       		.uleb128 0x3
 2774 0041 0E       		.uleb128 0xe
 2775 0042 0B       		.uleb128 0xb
 2776 0043 0B       		.uleb128 0xb
 2777 0044 3A       		.uleb128 0x3a
ARM GAS  C:\Users\jo\AppData\Local\Temp\ccqPoXte.s 			page 50


 2778 0045 0B       		.uleb128 0xb
 2779 0046 3B       		.uleb128 0x3b
 2780 0047 0B       		.uleb128 0xb
 2781 0048 01       		.uleb128 0x1
 2782 0049 13       		.uleb128 0x13
 2783 004a 00       		.byte	0
 2784 004b 00       		.byte	0
 2785 004c 07       		.uleb128 0x7
 2786 004d 0D       		.uleb128 0xd
 2787 004e 00       		.byte	0
 2788 004f 03       		.uleb128 0x3
 2789 0050 0E       		.uleb128 0xe
 2790 0051 3A       		.uleb128 0x3a
 2791 0052 0B       		.uleb128 0xb
 2792 0053 3B       		.uleb128 0x3b
 2793 0054 0B       		.uleb128 0xb
 2794 0055 49       		.uleb128 0x49
 2795 0056 13       		.uleb128 0x13
 2796 0057 38       		.uleb128 0x38
 2797 0058 0B       		.uleb128 0xb
 2798 0059 00       		.byte	0
 2799 005a 00       		.byte	0
 2800 005b 08       		.uleb128 0x8
 2801 005c 0D       		.uleb128 0xd
 2802 005d 00       		.byte	0
 2803 005e 03       		.uleb128 0x3
 2804 005f 08       		.uleb128 0x8
 2805 0060 3A       		.uleb128 0x3a
 2806 0061 0B       		.uleb128 0xb
 2807 0062 3B       		.uleb128 0x3b
 2808 0063 05       		.uleb128 0x5
 2809 0064 49       		.uleb128 0x49
 2810 0065 13       		.uleb128 0x13
 2811 0066 38       		.uleb128 0x38
 2812 0067 0B       		.uleb128 0xb
 2813 0068 00       		.byte	0
 2814 0069 00       		.byte	0
 2815 006a 09       		.uleb128 0x9
 2816 006b 0D       		.uleb128 0xd
 2817 006c 00       		.byte	0
 2818 006d 03       		.uleb128 0x3
 2819 006e 0E       		.uleb128 0xe
 2820 006f 3A       		.uleb128 0x3a
 2821 0070 0B       		.uleb128 0xb
 2822 0071 3B       		.uleb128 0x3b
 2823 0072 05       		.uleb128 0x5
 2824 0073 49       		.uleb128 0x49
 2825 0074 13       		.uleb128 0x13
 2826 0075 38       		.uleb128 0x38
 2827 0076 0B       		.uleb128 0xb
 2828 0077 00       		.byte	0
 2829 0078 00       		.byte	0
 2830 0079 0A       		.uleb128 0xa
 2831 007a 13       		.uleb128 0x13
 2832 007b 01       		.byte	0x1
 2833 007c 03       		.uleb128 0x3
 2834 007d 0E       		.uleb128 0xe
ARM GAS  C:\Users\jo\AppData\Local\Temp\ccqPoXte.s 			page 51


 2835 007e 0B       		.uleb128 0xb
 2836 007f 0B       		.uleb128 0xb
 2837 0080 3A       		.uleb128 0x3a
 2838 0081 0B       		.uleb128 0xb
 2839 0082 3B       		.uleb128 0x3b
 2840 0083 05       		.uleb128 0x5
 2841 0084 01       		.uleb128 0x1
 2842 0085 13       		.uleb128 0x13
 2843 0086 00       		.byte	0
 2844 0087 00       		.byte	0
 2845 0088 0B       		.uleb128 0xb
 2846 0089 0F       		.uleb128 0xf
 2847 008a 00       		.byte	0
 2848 008b 0B       		.uleb128 0xb
 2849 008c 0B       		.uleb128 0xb
 2850 008d 49       		.uleb128 0x49
 2851 008e 13       		.uleb128 0x13
 2852 008f 00       		.byte	0
 2853 0090 00       		.byte	0
 2854 0091 0C       		.uleb128 0xc
 2855 0092 15       		.uleb128 0x15
 2856 0093 01       		.byte	0x1
 2857 0094 27       		.uleb128 0x27
 2858 0095 19       		.uleb128 0x19
 2859 0096 01       		.uleb128 0x1
 2860 0097 13       		.uleb128 0x13
 2861 0098 00       		.byte	0
 2862 0099 00       		.byte	0
 2863 009a 0D       		.uleb128 0xd
 2864 009b 05       		.uleb128 0x5
 2865 009c 00       		.byte	0
 2866 009d 49       		.uleb128 0x49
 2867 009e 13       		.uleb128 0x13
 2868 009f 00       		.byte	0
 2869 00a0 00       		.byte	0
 2870 00a1 0E       		.uleb128 0xe
 2871 00a2 0F       		.uleb128 0xf
 2872 00a3 00       		.byte	0
 2873 00a4 0B       		.uleb128 0xb
 2874 00a5 0B       		.uleb128 0xb
 2875 00a6 00       		.byte	0
 2876 00a7 00       		.byte	0
 2877 00a8 0F       		.uleb128 0xf
 2878 00a9 13       		.uleb128 0x13
 2879 00aa 01       		.byte	0x1
 2880 00ab 03       		.uleb128 0x3
 2881 00ac 0E       		.uleb128 0xe
 2882 00ad 0B       		.uleb128 0xb
 2883 00ae 05       		.uleb128 0x5
 2884 00af 3A       		.uleb128 0x3a
 2885 00b0 0B       		.uleb128 0xb
 2886 00b1 3B       		.uleb128 0x3b
 2887 00b2 05       		.uleb128 0x5
 2888 00b3 01       		.uleb128 0x1
 2889 00b4 13       		.uleb128 0x13
 2890 00b5 00       		.byte	0
 2891 00b6 00       		.byte	0
ARM GAS  C:\Users\jo\AppData\Local\Temp\ccqPoXte.s 			page 52


 2892 00b7 10       		.uleb128 0x10
 2893 00b8 0D       		.uleb128 0xd
 2894 00b9 00       		.byte	0
 2895 00ba 03       		.uleb128 0x3
 2896 00bb 0E       		.uleb128 0xe
 2897 00bc 3A       		.uleb128 0x3a
 2898 00bd 0B       		.uleb128 0xb
 2899 00be 3B       		.uleb128 0x3b
 2900 00bf 05       		.uleb128 0x5
 2901 00c0 49       		.uleb128 0x49
 2902 00c1 13       		.uleb128 0x13
 2903 00c2 38       		.uleb128 0x38
 2904 00c3 05       		.uleb128 0x5
 2905 00c4 00       		.byte	0
 2906 00c5 00       		.byte	0
 2907 00c6 11       		.uleb128 0x11
 2908 00c7 0D       		.uleb128 0xd
 2909 00c8 00       		.byte	0
 2910 00c9 03       		.uleb128 0x3
 2911 00ca 08       		.uleb128 0x8
 2912 00cb 3A       		.uleb128 0x3a
 2913 00cc 0B       		.uleb128 0xb
 2914 00cd 3B       		.uleb128 0x3b
 2915 00ce 05       		.uleb128 0x5
 2916 00cf 49       		.uleb128 0x49
 2917 00d0 13       		.uleb128 0x13
 2918 00d1 38       		.uleb128 0x38
 2919 00d2 05       		.uleb128 0x5
 2920 00d3 00       		.byte	0
 2921 00d4 00       		.byte	0
 2922 00d5 12       		.uleb128 0x12
 2923 00d6 0D       		.uleb128 0xd
 2924 00d7 00       		.byte	0
 2925 00d8 03       		.uleb128 0x3
 2926 00d9 08       		.uleb128 0x8
 2927 00da 3A       		.uleb128 0x3a
 2928 00db 0B       		.uleb128 0xb
 2929 00dc 3B       		.uleb128 0x3b
 2930 00dd 0B       		.uleb128 0xb
 2931 00de 49       		.uleb128 0x49
 2932 00df 13       		.uleb128 0x13
 2933 00e0 38       		.uleb128 0x38
 2934 00e1 0B       		.uleb128 0xb
 2935 00e2 00       		.byte	0
 2936 00e3 00       		.byte	0
 2937 00e4 13       		.uleb128 0x13
 2938 00e5 0D       		.uleb128 0xd
 2939 00e6 00       		.byte	0
 2940 00e7 03       		.uleb128 0x3
 2941 00e8 0E       		.uleb128 0xe
 2942 00e9 49       		.uleb128 0x49
 2943 00ea 13       		.uleb128 0x13
 2944 00eb 38       		.uleb128 0x38
 2945 00ec 0B       		.uleb128 0xb
 2946 00ed 34       		.uleb128 0x34
 2947 00ee 19       		.uleb128 0x19
 2948 00ef 00       		.byte	0
ARM GAS  C:\Users\jo\AppData\Local\Temp\ccqPoXte.s 			page 53


 2949 00f0 00       		.byte	0
 2950 00f1 14       		.uleb128 0x14
 2951 00f2 26       		.uleb128 0x26
 2952 00f3 00       		.byte	0
 2953 00f4 49       		.uleb128 0x49
 2954 00f5 13       		.uleb128 0x13
 2955 00f6 00       		.byte	0
 2956 00f7 00       		.byte	0
 2957 00f8 15       		.uleb128 0x15
 2958 00f9 13       		.uleb128 0x13
 2959 00fa 01       		.byte	0x1
 2960 00fb 0B       		.uleb128 0xb
 2961 00fc 0B       		.uleb128 0xb
 2962 00fd 3A       		.uleb128 0x3a
 2963 00fe 0B       		.uleb128 0xb
 2964 00ff 3B       		.uleb128 0x3b
 2965 0100 0B       		.uleb128 0xb
 2966 0101 01       		.uleb128 0x1
 2967 0102 13       		.uleb128 0x13
 2968 0103 00       		.byte	0
 2969 0104 00       		.byte	0
 2970 0105 16       		.uleb128 0x16
 2971 0106 13       		.uleb128 0x13
 2972 0107 01       		.byte	0x1
 2973 0108 0B       		.uleb128 0xb
 2974 0109 05       		.uleb128 0x5
 2975 010a 3A       		.uleb128 0x3a
 2976 010b 0B       		.uleb128 0xb
 2977 010c 3B       		.uleb128 0x3b
 2978 010d 0B       		.uleb128 0xb
 2979 010e 01       		.uleb128 0x1
 2980 010f 13       		.uleb128 0x13
 2981 0110 00       		.byte	0
 2982 0111 00       		.byte	0
 2983 0112 17       		.uleb128 0x17
 2984 0113 01       		.uleb128 0x1
 2985 0114 01       		.byte	0x1
 2986 0115 49       		.uleb128 0x49
 2987 0116 13       		.uleb128 0x13
 2988 0117 01       		.uleb128 0x1
 2989 0118 13       		.uleb128 0x13
 2990 0119 00       		.byte	0
 2991 011a 00       		.byte	0
 2992 011b 18       		.uleb128 0x18
 2993 011c 21       		.uleb128 0x21
 2994 011d 00       		.byte	0
 2995 011e 49       		.uleb128 0x49
 2996 011f 13       		.uleb128 0x13
 2997 0120 2F       		.uleb128 0x2f
 2998 0121 0B       		.uleb128 0xb
 2999 0122 00       		.byte	0
 3000 0123 00       		.byte	0
 3001 0124 19       		.uleb128 0x19
 3002 0125 17       		.uleb128 0x17
 3003 0126 01       		.byte	0x1
 3004 0127 0B       		.uleb128 0xb
 3005 0128 0B       		.uleb128 0xb
ARM GAS  C:\Users\jo\AppData\Local\Temp\ccqPoXte.s 			page 54


 3006 0129 3A       		.uleb128 0x3a
 3007 012a 0B       		.uleb128 0xb
 3008 012b 3B       		.uleb128 0x3b
 3009 012c 0B       		.uleb128 0xb
 3010 012d 01       		.uleb128 0x1
 3011 012e 13       		.uleb128 0x13
 3012 012f 00       		.byte	0
 3013 0130 00       		.byte	0
 3014 0131 1A       		.uleb128 0x1a
 3015 0132 0D       		.uleb128 0xd
 3016 0133 00       		.byte	0
 3017 0134 03       		.uleb128 0x3
 3018 0135 0E       		.uleb128 0xe
 3019 0136 3A       		.uleb128 0x3a
 3020 0137 0B       		.uleb128 0xb
 3021 0138 3B       		.uleb128 0x3b
 3022 0139 0B       		.uleb128 0xb
 3023 013a 49       		.uleb128 0x49
 3024 013b 13       		.uleb128 0x13
 3025 013c 00       		.byte	0
 3026 013d 00       		.byte	0
 3027 013e 1B       		.uleb128 0x1b
 3028 013f 0D       		.uleb128 0xd
 3029 0140 00       		.byte	0
 3030 0141 03       		.uleb128 0x3
 3031 0142 0E       		.uleb128 0xe
 3032 0143 3A       		.uleb128 0x3a
 3033 0144 0B       		.uleb128 0xb
 3034 0145 3B       		.uleb128 0x3b
 3035 0146 05       		.uleb128 0x5
 3036 0147 49       		.uleb128 0x49
 3037 0148 13       		.uleb128 0x13
 3038 0149 00       		.byte	0
 3039 014a 00       		.byte	0
 3040 014b 1C       		.uleb128 0x1c
 3041 014c 15       		.uleb128 0x15
 3042 014d 01       		.byte	0x1
 3043 014e 27       		.uleb128 0x27
 3044 014f 19       		.uleb128 0x19
 3045 0150 49       		.uleb128 0x49
 3046 0151 13       		.uleb128 0x13
 3047 0152 01       		.uleb128 0x1
 3048 0153 13       		.uleb128 0x13
 3049 0154 00       		.byte	0
 3050 0155 00       		.byte	0
 3051 0156 1D       		.uleb128 0x1d
 3052 0157 2E       		.uleb128 0x2e
 3053 0158 01       		.byte	0x1
 3054 0159 03       		.uleb128 0x3
 3055 015a 0E       		.uleb128 0xe
 3056 015b 3A       		.uleb128 0x3a
 3057 015c 0B       		.uleb128 0xb
 3058 015d 3B       		.uleb128 0x3b
 3059 015e 05       		.uleb128 0x5
 3060 015f 27       		.uleb128 0x27
 3061 0160 19       		.uleb128 0x19
 3062 0161 20       		.uleb128 0x20
ARM GAS  C:\Users\jo\AppData\Local\Temp\ccqPoXte.s 			page 55


 3063 0162 0B       		.uleb128 0xb
 3064 0163 01       		.uleb128 0x1
 3065 0164 13       		.uleb128 0x13
 3066 0165 00       		.byte	0
 3067 0166 00       		.byte	0
 3068 0167 1E       		.uleb128 0x1e
 3069 0168 05       		.uleb128 0x5
 3070 0169 00       		.byte	0
 3071 016a 03       		.uleb128 0x3
 3072 016b 0E       		.uleb128 0xe
 3073 016c 3A       		.uleb128 0x3a
 3074 016d 0B       		.uleb128 0xb
 3075 016e 3B       		.uleb128 0x3b
 3076 016f 05       		.uleb128 0x5
 3077 0170 49       		.uleb128 0x49
 3078 0171 13       		.uleb128 0x13
 3079 0172 00       		.byte	0
 3080 0173 00       		.byte	0
 3081 0174 1F       		.uleb128 0x1f
 3082 0175 2E       		.uleb128 0x2e
 3083 0176 01       		.byte	0x1
 3084 0177 03       		.uleb128 0x3
 3085 0178 0E       		.uleb128 0xe
 3086 0179 3A       		.uleb128 0x3a
 3087 017a 0B       		.uleb128 0xb
 3088 017b 3B       		.uleb128 0x3b
 3089 017c 0B       		.uleb128 0xb
 3090 017d 27       		.uleb128 0x27
 3091 017e 19       		.uleb128 0x19
 3092 017f 49       		.uleb128 0x49
 3093 0180 13       		.uleb128 0x13
 3094 0181 20       		.uleb128 0x20
 3095 0182 0B       		.uleb128 0xb
 3096 0183 01       		.uleb128 0x1
 3097 0184 13       		.uleb128 0x13
 3098 0185 00       		.byte	0
 3099 0186 00       		.byte	0
 3100 0187 20       		.uleb128 0x20
 3101 0188 05       		.uleb128 0x5
 3102 0189 00       		.byte	0
 3103 018a 03       		.uleb128 0x3
 3104 018b 08       		.uleb128 0x8
 3105 018c 3A       		.uleb128 0x3a
 3106 018d 0B       		.uleb128 0xb
 3107 018e 3B       		.uleb128 0x3b
 3108 018f 0B       		.uleb128 0xb
 3109 0190 49       		.uleb128 0x49
 3110 0191 13       		.uleb128 0x13
 3111 0192 00       		.byte	0
 3112 0193 00       		.byte	0
 3113 0194 21       		.uleb128 0x21
 3114 0195 18       		.uleb128 0x18
 3115 0196 00       		.byte	0
 3116 0197 00       		.byte	0
 3117 0198 00       		.byte	0
 3118 0199 22       		.uleb128 0x22
 3119 019a 34       		.uleb128 0x34
ARM GAS  C:\Users\jo\AppData\Local\Temp\ccqPoXte.s 			page 56


 3120 019b 00       		.byte	0
 3121 019c 03       		.uleb128 0x3
 3122 019d 08       		.uleb128 0x8
 3123 019e 3A       		.uleb128 0x3a
 3124 019f 0B       		.uleb128 0xb
 3125 01a0 3B       		.uleb128 0x3b
 3126 01a1 0B       		.uleb128 0xb
 3127 01a2 49       		.uleb128 0x49
 3128 01a3 13       		.uleb128 0x13
 3129 01a4 00       		.byte	0
 3130 01a5 00       		.byte	0
 3131 01a6 23       		.uleb128 0x23
 3132 01a7 34       		.uleb128 0x34
 3133 01a8 00       		.byte	0
 3134 01a9 03       		.uleb128 0x3
 3135 01aa 0E       		.uleb128 0xe
 3136 01ab 3A       		.uleb128 0x3a
 3137 01ac 0B       		.uleb128 0xb
 3138 01ad 3B       		.uleb128 0x3b
 3139 01ae 0B       		.uleb128 0xb
 3140 01af 49       		.uleb128 0x49
 3141 01b0 13       		.uleb128 0x13
 3142 01b1 00       		.byte	0
 3143 01b2 00       		.byte	0
 3144 01b3 24       		.uleb128 0x24
 3145 01b4 2E       		.uleb128 0x2e
 3146 01b5 01       		.byte	0x1
 3147 01b6 31       		.uleb128 0x31
 3148 01b7 13       		.uleb128 0x13
 3149 01b8 11       		.uleb128 0x11
 3150 01b9 01       		.uleb128 0x1
 3151 01ba 12       		.uleb128 0x12
 3152 01bb 06       		.uleb128 0x6
 3153 01bc 40       		.uleb128 0x40
 3154 01bd 18       		.uleb128 0x18
 3155 01be 9742     		.uleb128 0x2117
 3156 01c0 19       		.uleb128 0x19
 3157 01c1 01       		.uleb128 0x1
 3158 01c2 13       		.uleb128 0x13
 3159 01c3 00       		.byte	0
 3160 01c4 00       		.byte	0
 3161 01c5 25       		.uleb128 0x25
 3162 01c6 05       		.uleb128 0x5
 3163 01c7 00       		.byte	0
 3164 01c8 31       		.uleb128 0x31
 3165 01c9 13       		.uleb128 0x13
 3166 01ca 02       		.uleb128 0x2
 3167 01cb 17       		.uleb128 0x17
 3168 01cc 00       		.byte	0
 3169 01cd 00       		.byte	0
 3170 01ce 26       		.uleb128 0x26
 3171 01cf 05       		.uleb128 0x5
 3172 01d0 00       		.byte	0
 3173 01d1 31       		.uleb128 0x31
 3174 01d2 13       		.uleb128 0x13
 3175 01d3 02       		.uleb128 0x2
 3176 01d4 18       		.uleb128 0x18
ARM GAS  C:\Users\jo\AppData\Local\Temp\ccqPoXte.s 			page 57


 3177 01d5 00       		.byte	0
 3178 01d6 00       		.byte	0
 3179 01d7 27       		.uleb128 0x27
 3180 01d8 34       		.uleb128 0x34
 3181 01d9 00       		.byte	0
 3182 01da 31       		.uleb128 0x31
 3183 01db 13       		.uleb128 0x13
 3184 01dc 02       		.uleb128 0x2
 3185 01dd 18       		.uleb128 0x18
 3186 01de 00       		.byte	0
 3187 01df 00       		.byte	0
 3188 01e0 28       		.uleb128 0x28
 3189 01e1 05       		.uleb128 0x5
 3190 01e2 00       		.byte	0
 3191 01e3 31       		.uleb128 0x31
 3192 01e4 13       		.uleb128 0x13
 3193 01e5 00       		.byte	0
 3194 01e6 00       		.byte	0
 3195 01e7 29       		.uleb128 0x29
 3196 01e8 898201   		.uleb128 0x4109
 3197 01eb 01       		.byte	0x1
 3198 01ec 11       		.uleb128 0x11
 3199 01ed 01       		.uleb128 0x1
 3200 01ee 31       		.uleb128 0x31
 3201 01ef 13       		.uleb128 0x13
 3202 01f0 00       		.byte	0
 3203 01f1 00       		.byte	0
 3204 01f2 2A       		.uleb128 0x2a
 3205 01f3 8A8201   		.uleb128 0x410a
 3206 01f6 00       		.byte	0
 3207 01f7 02       		.uleb128 0x2
 3208 01f8 18       		.uleb128 0x18
 3209 01f9 9142     		.uleb128 0x2111
 3210 01fb 18       		.uleb128 0x18
 3211 01fc 00       		.byte	0
 3212 01fd 00       		.byte	0
 3213 01fe 2B       		.uleb128 0x2b
 3214 01ff 2E       		.uleb128 0x2e
 3215 0200 01       		.byte	0x1
 3216 0201 3F       		.uleb128 0x3f
 3217 0202 19       		.uleb128 0x19
 3218 0203 03       		.uleb128 0x3
 3219 0204 0E       		.uleb128 0xe
 3220 0205 3A       		.uleb128 0x3a
 3221 0206 0B       		.uleb128 0xb
 3222 0207 3B       		.uleb128 0x3b
 3223 0208 0B       		.uleb128 0xb
 3224 0209 27       		.uleb128 0x27
 3225 020a 19       		.uleb128 0x19
 3226 020b 49       		.uleb128 0x49
 3227 020c 13       		.uleb128 0x13
 3228 020d 11       		.uleb128 0x11
 3229 020e 01       		.uleb128 0x1
 3230 020f 12       		.uleb128 0x12
 3231 0210 06       		.uleb128 0x6
 3232 0211 40       		.uleb128 0x40
 3233 0212 18       		.uleb128 0x18
ARM GAS  C:\Users\jo\AppData\Local\Temp\ccqPoXte.s 			page 58


 3234 0213 9742     		.uleb128 0x2117
 3235 0215 19       		.uleb128 0x19
 3236 0216 01       		.uleb128 0x1
 3237 0217 13       		.uleb128 0x13
 3238 0218 00       		.byte	0
 3239 0219 00       		.byte	0
 3240 021a 2C       		.uleb128 0x2c
 3241 021b 05       		.uleb128 0x5
 3242 021c 00       		.byte	0
 3243 021d 03       		.uleb128 0x3
 3244 021e 0E       		.uleb128 0xe
 3245 021f 3A       		.uleb128 0x3a
 3246 0220 0B       		.uleb128 0xb
 3247 0221 3B       		.uleb128 0x3b
 3248 0222 0B       		.uleb128 0xb
 3249 0223 49       		.uleb128 0x49
 3250 0224 13       		.uleb128 0x13
 3251 0225 02       		.uleb128 0x2
 3252 0226 17       		.uleb128 0x17
 3253 0227 00       		.byte	0
 3254 0228 00       		.byte	0
 3255 0229 2D       		.uleb128 0x2d
 3256 022a 05       		.uleb128 0x5
 3257 022b 00       		.byte	0
 3258 022c 03       		.uleb128 0x3
 3259 022d 0E       		.uleb128 0xe
 3260 022e 3A       		.uleb128 0x3a
 3261 022f 0B       		.uleb128 0xb
 3262 0230 3B       		.uleb128 0x3b
 3263 0231 0B       		.uleb128 0xb
 3264 0232 49       		.uleb128 0x49
 3265 0233 13       		.uleb128 0x13
 3266 0234 02       		.uleb128 0x2
 3267 0235 18       		.uleb128 0x18
 3268 0236 00       		.byte	0
 3269 0237 00       		.byte	0
 3270 0238 2E       		.uleb128 0x2e
 3271 0239 34       		.uleb128 0x34
 3272 023a 00       		.byte	0
 3273 023b 03       		.uleb128 0x3
 3274 023c 0E       		.uleb128 0xe
 3275 023d 3A       		.uleb128 0x3a
 3276 023e 0B       		.uleb128 0xb
 3277 023f 3B       		.uleb128 0x3b
 3278 0240 0B       		.uleb128 0xb
 3279 0241 49       		.uleb128 0x49
 3280 0242 13       		.uleb128 0x13
 3281 0243 02       		.uleb128 0x2
 3282 0244 17       		.uleb128 0x17
 3283 0245 00       		.byte	0
 3284 0246 00       		.byte	0
 3285 0247 2F       		.uleb128 0x2f
 3286 0248 05       		.uleb128 0x5
 3287 0249 00       		.byte	0
 3288 024a 03       		.uleb128 0x3
 3289 024b 08       		.uleb128 0x8
 3290 024c 3A       		.uleb128 0x3a
ARM GAS  C:\Users\jo\AppData\Local\Temp\ccqPoXte.s 			page 59


 3291 024d 0B       		.uleb128 0xb
 3292 024e 3B       		.uleb128 0x3b
 3293 024f 0B       		.uleb128 0xb
 3294 0250 49       		.uleb128 0x49
 3295 0251 13       		.uleb128 0x13
 3296 0252 02       		.uleb128 0x2
 3297 0253 17       		.uleb128 0x17
 3298 0254 00       		.byte	0
 3299 0255 00       		.byte	0
 3300 0256 30       		.uleb128 0x30
 3301 0257 34       		.uleb128 0x34
 3302 0258 00       		.byte	0
 3303 0259 03       		.uleb128 0x3
 3304 025a 08       		.uleb128 0x8
 3305 025b 3A       		.uleb128 0x3a
 3306 025c 0B       		.uleb128 0xb
 3307 025d 3B       		.uleb128 0x3b
 3308 025e 0B       		.uleb128 0xb
 3309 025f 49       		.uleb128 0x49
 3310 0260 13       		.uleb128 0x13
 3311 0261 02       		.uleb128 0x2
 3312 0262 17       		.uleb128 0x17
 3313 0263 00       		.byte	0
 3314 0264 00       		.byte	0
 3315 0265 31       		.uleb128 0x31
 3316 0266 34       		.uleb128 0x34
 3317 0267 00       		.byte	0
 3318 0268 03       		.uleb128 0x3
 3319 0269 0E       		.uleb128 0xe
 3320 026a 3A       		.uleb128 0x3a
 3321 026b 0B       		.uleb128 0xb
 3322 026c 3B       		.uleb128 0x3b
 3323 026d 0B       		.uleb128 0xb
 3324 026e 49       		.uleb128 0x49
 3325 026f 13       		.uleb128 0x13
 3326 0270 02       		.uleb128 0x2
 3327 0271 18       		.uleb128 0x18
 3328 0272 00       		.byte	0
 3329 0273 00       		.byte	0
 3330 0274 32       		.uleb128 0x32
 3331 0275 1D       		.uleb128 0x1d
 3332 0276 01       		.byte	0x1
 3333 0277 31       		.uleb128 0x31
 3334 0278 13       		.uleb128 0x13
 3335 0279 11       		.uleb128 0x11
 3336 027a 01       		.uleb128 0x1
 3337 027b 12       		.uleb128 0x12
 3338 027c 06       		.uleb128 0x6
 3339 027d 58       		.uleb128 0x58
 3340 027e 0B       		.uleb128 0xb
 3341 027f 59       		.uleb128 0x59
 3342 0280 0B       		.uleb128 0xb
 3343 0281 01       		.uleb128 0x1
 3344 0282 13       		.uleb128 0x13
 3345 0283 00       		.byte	0
 3346 0284 00       		.byte	0
 3347 0285 33       		.uleb128 0x33
ARM GAS  C:\Users\jo\AppData\Local\Temp\ccqPoXte.s 			page 60


 3348 0286 898201   		.uleb128 0x4109
 3349 0289 01       		.byte	0x1
 3350 028a 11       		.uleb128 0x11
 3351 028b 01       		.uleb128 0x1
 3352 028c 31       		.uleb128 0x31
 3353 028d 13       		.uleb128 0x13
 3354 028e 01       		.uleb128 0x1
 3355 028f 13       		.uleb128 0x13
 3356 0290 00       		.byte	0
 3357 0291 00       		.byte	0
 3358 0292 34       		.uleb128 0x34
 3359 0293 34       		.uleb128 0x34
 3360 0294 00       		.byte	0
 3361 0295 03       		.uleb128 0x3
 3362 0296 08       		.uleb128 0x8
 3363 0297 3A       		.uleb128 0x3a
 3364 0298 0B       		.uleb128 0xb
 3365 0299 3B       		.uleb128 0x3b
 3366 029a 0B       		.uleb128 0xb
 3367 029b 49       		.uleb128 0x49
 3368 029c 13       		.uleb128 0x13
 3369 029d 02       		.uleb128 0x2
 3370 029e 18       		.uleb128 0x18
 3371 029f 00       		.byte	0
 3372 02a0 00       		.byte	0
 3373 02a1 35       		.uleb128 0x35
 3374 02a2 2E       		.uleb128 0x2e
 3375 02a3 01       		.byte	0x1
 3376 02a4 3F       		.uleb128 0x3f
 3377 02a5 19       		.uleb128 0x19
 3378 02a6 03       		.uleb128 0x3
 3379 02a7 0E       		.uleb128 0xe
 3380 02a8 3A       		.uleb128 0x3a
 3381 02a9 0B       		.uleb128 0xb
 3382 02aa 3B       		.uleb128 0x3b
 3383 02ab 05       		.uleb128 0x5
 3384 02ac 27       		.uleb128 0x27
 3385 02ad 19       		.uleb128 0x19
 3386 02ae 49       		.uleb128 0x49
 3387 02af 13       		.uleb128 0x13
 3388 02b0 11       		.uleb128 0x11
 3389 02b1 01       		.uleb128 0x1
 3390 02b2 12       		.uleb128 0x12
 3391 02b3 06       		.uleb128 0x6
 3392 02b4 40       		.uleb128 0x40
 3393 02b5 18       		.uleb128 0x18
 3394 02b6 9742     		.uleb128 0x2117
 3395 02b8 19       		.uleb128 0x19
 3396 02b9 01       		.uleb128 0x1
 3397 02ba 13       		.uleb128 0x13
 3398 02bb 00       		.byte	0
 3399 02bc 00       		.byte	0
 3400 02bd 36       		.uleb128 0x36
 3401 02be 05       		.uleb128 0x5
 3402 02bf 00       		.byte	0
 3403 02c0 03       		.uleb128 0x3
 3404 02c1 0E       		.uleb128 0xe
ARM GAS  C:\Users\jo\AppData\Local\Temp\ccqPoXte.s 			page 61


 3405 02c2 3A       		.uleb128 0x3a
 3406 02c3 0B       		.uleb128 0xb
 3407 02c4 3B       		.uleb128 0x3b
 3408 02c5 05       		.uleb128 0x5
 3409 02c6 49       		.uleb128 0x49
 3410 02c7 13       		.uleb128 0x13
 3411 02c8 02       		.uleb128 0x2
 3412 02c9 17       		.uleb128 0x17
 3413 02ca 00       		.byte	0
 3414 02cb 00       		.byte	0
 3415 02cc 37       		.uleb128 0x37
 3416 02cd 05       		.uleb128 0x5
 3417 02ce 00       		.byte	0
 3418 02cf 03       		.uleb128 0x3
 3419 02d0 08       		.uleb128 0x8
 3420 02d1 3A       		.uleb128 0x3a
 3421 02d2 0B       		.uleb128 0xb
 3422 02d3 3B       		.uleb128 0x3b
 3423 02d4 05       		.uleb128 0x5
 3424 02d5 49       		.uleb128 0x49
 3425 02d6 13       		.uleb128 0x13
 3426 02d7 02       		.uleb128 0x2
 3427 02d8 18       		.uleb128 0x18
 3428 02d9 00       		.byte	0
 3429 02da 00       		.byte	0
 3430 02db 38       		.uleb128 0x38
 3431 02dc 05       		.uleb128 0x5
 3432 02dd 00       		.byte	0
 3433 02de 03       		.uleb128 0x3
 3434 02df 0E       		.uleb128 0xe
 3435 02e0 3A       		.uleb128 0x3a
 3436 02e1 0B       		.uleb128 0xb
 3437 02e2 3B       		.uleb128 0x3b
 3438 02e3 05       		.uleb128 0x5
 3439 02e4 49       		.uleb128 0x49
 3440 02e5 13       		.uleb128 0x13
 3441 02e6 02       		.uleb128 0x2
 3442 02e7 18       		.uleb128 0x18
 3443 02e8 00       		.byte	0
 3444 02e9 00       		.byte	0
 3445 02ea 39       		.uleb128 0x39
 3446 02eb 34       		.uleb128 0x34
 3447 02ec 00       		.byte	0
 3448 02ed 03       		.uleb128 0x3
 3449 02ee 0E       		.uleb128 0xe
 3450 02ef 3A       		.uleb128 0x3a
 3451 02f0 0B       		.uleb128 0xb
 3452 02f1 3B       		.uleb128 0x3b
 3453 02f2 05       		.uleb128 0x5
 3454 02f3 49       		.uleb128 0x49
 3455 02f4 13       		.uleb128 0x13
 3456 02f5 02       		.uleb128 0x2
 3457 02f6 18       		.uleb128 0x18
 3458 02f7 00       		.byte	0
 3459 02f8 00       		.byte	0
 3460 02f9 3A       		.uleb128 0x3a
 3461 02fa 34       		.uleb128 0x34
ARM GAS  C:\Users\jo\AppData\Local\Temp\ccqPoXte.s 			page 62


 3462 02fb 00       		.byte	0
 3463 02fc 03       		.uleb128 0x3
 3464 02fd 08       		.uleb128 0x8
 3465 02fe 3A       		.uleb128 0x3a
 3466 02ff 0B       		.uleb128 0xb
 3467 0300 3B       		.uleb128 0x3b
 3468 0301 05       		.uleb128 0x5
 3469 0302 49       		.uleb128 0x49
 3470 0303 13       		.uleb128 0x13
 3471 0304 02       		.uleb128 0x2
 3472 0305 18       		.uleb128 0x18
 3473 0306 00       		.byte	0
 3474 0307 00       		.byte	0
 3475 0308 3B       		.uleb128 0x3b
 3476 0309 34       		.uleb128 0x34
 3477 030a 00       		.byte	0
 3478 030b 03       		.uleb128 0x3
 3479 030c 08       		.uleb128 0x8
 3480 030d 3A       		.uleb128 0x3a
 3481 030e 0B       		.uleb128 0xb
 3482 030f 3B       		.uleb128 0x3b
 3483 0310 05       		.uleb128 0x5
 3484 0311 49       		.uleb128 0x49
 3485 0312 13       		.uleb128 0x13
 3486 0313 02       		.uleb128 0x2
 3487 0314 17       		.uleb128 0x17
 3488 0315 00       		.byte	0
 3489 0316 00       		.byte	0
 3490 0317 3C       		.uleb128 0x3c
 3491 0318 898201   		.uleb128 0x4109
 3492 031b 01       		.byte	0x1
 3493 031c 11       		.uleb128 0x11
 3494 031d 01       		.uleb128 0x1
 3495 031e 9542     		.uleb128 0x2115
 3496 0320 19       		.uleb128 0x19
 3497 0321 31       		.uleb128 0x31
 3498 0322 13       		.uleb128 0x13
 3499 0323 00       		.byte	0
 3500 0324 00       		.byte	0
 3501 0325 3D       		.uleb128 0x3d
 3502 0326 34       		.uleb128 0x34
 3503 0327 00       		.byte	0
 3504 0328 03       		.uleb128 0x3
 3505 0329 0E       		.uleb128 0xe
 3506 032a 3A       		.uleb128 0x3a
 3507 032b 0B       		.uleb128 0xb
 3508 032c 3B       		.uleb128 0x3b
 3509 032d 05       		.uleb128 0x5
 3510 032e 49       		.uleb128 0x49
 3511 032f 13       		.uleb128 0x13
 3512 0330 3F       		.uleb128 0x3f
 3513 0331 19       		.uleb128 0x19
 3514 0332 3C       		.uleb128 0x3c
 3515 0333 19       		.uleb128 0x19
 3516 0334 00       		.byte	0
 3517 0335 00       		.byte	0
 3518 0336 3E       		.uleb128 0x3e
ARM GAS  C:\Users\jo\AppData\Local\Temp\ccqPoXte.s 			page 63


 3519 0337 34       		.uleb128 0x34
 3520 0338 00       		.byte	0
 3521 0339 03       		.uleb128 0x3
 3522 033a 08       		.uleb128 0x8
 3523 033b 3A       		.uleb128 0x3a
 3524 033c 0B       		.uleb128 0xb
 3525 033d 3B       		.uleb128 0x3b
 3526 033e 05       		.uleb128 0x5
 3527 033f 49       		.uleb128 0x49
 3528 0340 13       		.uleb128 0x13
 3529 0341 3F       		.uleb128 0x3f
 3530 0342 19       		.uleb128 0x19
 3531 0343 3C       		.uleb128 0x3c
 3532 0344 19       		.uleb128 0x19
 3533 0345 00       		.byte	0
 3534 0346 00       		.byte	0
 3535 0347 3F       		.uleb128 0x3f
 3536 0348 34       		.uleb128 0x34
 3537 0349 00       		.byte	0
 3538 034a 03       		.uleb128 0x3
 3539 034b 0E       		.uleb128 0xe
 3540 034c 3A       		.uleb128 0x3a
 3541 034d 0B       		.uleb128 0xb
 3542 034e 3B       		.uleb128 0x3b
 3543 034f 0B       		.uleb128 0xb
 3544 0350 49       		.uleb128 0x49
 3545 0351 13       		.uleb128 0x13
 3546 0352 3F       		.uleb128 0x3f
 3547 0353 19       		.uleb128 0x19
 3548 0354 3C       		.uleb128 0x3c
 3549 0355 19       		.uleb128 0x19
 3550 0356 00       		.byte	0
 3551 0357 00       		.byte	0
 3552 0358 40       		.uleb128 0x40
 3553 0359 34       		.uleb128 0x34
 3554 035a 00       		.byte	0
 3555 035b 03       		.uleb128 0x3
 3556 035c 0E       		.uleb128 0xe
 3557 035d 3A       		.uleb128 0x3a
 3558 035e 0B       		.uleb128 0xb
 3559 035f 3B       		.uleb128 0x3b
 3560 0360 0B       		.uleb128 0xb
 3561 0361 49       		.uleb128 0x49
 3562 0362 13       		.uleb128 0x13
 3563 0363 3F       		.uleb128 0x3f
 3564 0364 19       		.uleb128 0x19
 3565 0365 02       		.uleb128 0x2
 3566 0366 18       		.uleb128 0x18
 3567 0367 00       		.byte	0
 3568 0368 00       		.byte	0
 3569 0369 41       		.uleb128 0x41
 3570 036a 2E       		.uleb128 0x2e
 3571 036b 01       		.byte	0x1
 3572 036c 3F       		.uleb128 0x3f
 3573 036d 19       		.uleb128 0x19
 3574 036e 03       		.uleb128 0x3
 3575 036f 0E       		.uleb128 0xe
ARM GAS  C:\Users\jo\AppData\Local\Temp\ccqPoXte.s 			page 64


 3576 0370 3A       		.uleb128 0x3a
 3577 0371 0B       		.uleb128 0xb
 3578 0372 3B       		.uleb128 0x3b
 3579 0373 0B       		.uleb128 0xb
 3580 0374 27       		.uleb128 0x27
 3581 0375 19       		.uleb128 0x19
 3582 0376 49       		.uleb128 0x49
 3583 0377 13       		.uleb128 0x13
 3584 0378 3C       		.uleb128 0x3c
 3585 0379 19       		.uleb128 0x19
 3586 037a 01       		.uleb128 0x1
 3587 037b 13       		.uleb128 0x13
 3588 037c 00       		.byte	0
 3589 037d 00       		.byte	0
 3590 037e 42       		.uleb128 0x42
 3591 037f 2E       		.uleb128 0x2e
 3592 0380 01       		.byte	0x1
 3593 0381 3F       		.uleb128 0x3f
 3594 0382 19       		.uleb128 0x19
 3595 0383 03       		.uleb128 0x3
 3596 0384 0E       		.uleb128 0xe
 3597 0385 3A       		.uleb128 0x3a
 3598 0386 0B       		.uleb128 0xb
 3599 0387 3B       		.uleb128 0x3b
 3600 0388 0B       		.uleb128 0xb
 3601 0389 27       		.uleb128 0x27
 3602 038a 19       		.uleb128 0x19
 3603 038b 3C       		.uleb128 0x3c
 3604 038c 19       		.uleb128 0x19
 3605 038d 00       		.byte	0
 3606 038e 00       		.byte	0
 3607 038f 00       		.byte	0
 3608              		.section	.debug_loc,"",%progbits
 3609              	.Ldebug_loc0:
 3610              	.LLST0:
 3611 0000 00000000 		.4byte	.LVL0
 3612 0004 0E000000 		.4byte	.LVL1
 3613 0008 0100     		.2byte	0x1
 3614 000a 50       		.byte	0x50
 3615 000b 0E000000 		.4byte	.LVL1
 3616 000f 28000000 		.4byte	.LFE262
 3617 0013 0400     		.2byte	0x4
 3618 0015 F3       		.byte	0xf3
 3619 0016 01       		.uleb128 0x1
 3620 0017 50       		.byte	0x50
 3621 0018 9F       		.byte	0x9f
 3622 0019 00000000 		.4byte	0
 3623 001d 00000000 		.4byte	0
 3624              	.LLST1:
 3625 0021 00000000 		.4byte	.LVL3
 3626 0025 26000000 		.4byte	.LVL4
 3627 0029 0100     		.2byte	0x1
 3628 002b 50       		.byte	0x50
 3629 002c 26000000 		.4byte	.LVL4
 3630 0030 32000000 		.4byte	.LVL5
 3631 0034 0400     		.2byte	0x4
 3632 0036 F3       		.byte	0xf3
ARM GAS  C:\Users\jo\AppData\Local\Temp\ccqPoXte.s 			page 65


 3633 0037 01       		.uleb128 0x1
 3634 0038 50       		.byte	0x50
 3635 0039 9F       		.byte	0x9f
 3636 003a 32000000 		.4byte	.LVL5
 3637 003e 36000000 		.4byte	.LVL6
 3638 0042 0100     		.2byte	0x1
 3639 0044 50       		.byte	0x50
 3640 0045 36000000 		.4byte	.LVL6
 3641 0049 38000000 		.4byte	.LVL7
 3642 004d 0400     		.2byte	0x4
 3643 004f F3       		.byte	0xf3
 3644 0050 01       		.uleb128 0x1
 3645 0051 50       		.byte	0x50
 3646 0052 9F       		.byte	0x9f
 3647 0053 38000000 		.4byte	.LVL7
 3648 0057 3C000000 		.4byte	.LVL8
 3649 005b 0100     		.2byte	0x1
 3650 005d 50       		.byte	0x50
 3651 005e 3C000000 		.4byte	.LVL8
 3652 0062 3E000000 		.4byte	.LFE256
 3653 0066 0400     		.2byte	0x4
 3654 0068 F3       		.byte	0xf3
 3655 0069 01       		.uleb128 0x1
 3656 006a 50       		.byte	0x50
 3657 006b 9F       		.byte	0x9f
 3658 006c 00000000 		.4byte	0
 3659 0070 00000000 		.4byte	0
 3660              	.LLST2:
 3661 0074 00000000 		.4byte	.LVL3
 3662 0078 26000000 		.4byte	.LVL4
 3663 007c 0300     		.2byte	0x3
 3664 007e 50       		.byte	0x50
 3665 007f 93       		.byte	0x93
 3666 0080 04       		.uleb128 0x4
 3667 0081 26000000 		.4byte	.LVL4
 3668 0085 32000000 		.4byte	.LVL5
 3669 0089 0600     		.2byte	0x6
 3670 008b F3       		.byte	0xf3
 3671 008c 01       		.uleb128 0x1
 3672 008d 50       		.byte	0x50
 3673 008e 9F       		.byte	0x9f
 3674 008f 93       		.byte	0x93
 3675 0090 04       		.uleb128 0x4
 3676 0091 32000000 		.4byte	.LVL5
 3677 0095 36000000 		.4byte	.LVL6
 3678 0099 0300     		.2byte	0x3
 3679 009b 50       		.byte	0x50
 3680 009c 93       		.byte	0x93
 3681 009d 04       		.uleb128 0x4
 3682 009e 36000000 		.4byte	.LVL6
 3683 00a2 38000000 		.4byte	.LVL7
 3684 00a6 0600     		.2byte	0x6
 3685 00a8 F3       		.byte	0xf3
 3686 00a9 01       		.uleb128 0x1
 3687 00aa 50       		.byte	0x50
 3688 00ab 9F       		.byte	0x9f
 3689 00ac 93       		.byte	0x93
ARM GAS  C:\Users\jo\AppData\Local\Temp\ccqPoXte.s 			page 66


 3690 00ad 04       		.uleb128 0x4
 3691 00ae 38000000 		.4byte	.LVL7
 3692 00b2 3C000000 		.4byte	.LVL8
 3693 00b6 0300     		.2byte	0x3
 3694 00b8 50       		.byte	0x50
 3695 00b9 93       		.byte	0x93
 3696 00ba 04       		.uleb128 0x4
 3697 00bb 3C000000 		.4byte	.LVL8
 3698 00bf 3E000000 		.4byte	.LFE256
 3699 00c3 0600     		.2byte	0x6
 3700 00c5 F3       		.byte	0xf3
 3701 00c6 01       		.uleb128 0x1
 3702 00c7 50       		.byte	0x50
 3703 00c8 9F       		.byte	0x9f
 3704 00c9 93       		.byte	0x93
 3705 00ca 04       		.uleb128 0x4
 3706 00cb 00000000 		.4byte	0
 3707 00cf 00000000 		.4byte	0
 3708              	.LLST3:
 3709 00d3 00000000 		.4byte	.LVL9
 3710 00d7 05000000 		.4byte	.LVL10-1
 3711 00db 0100     		.2byte	0x1
 3712 00dd 50       		.byte	0x50
 3713 00de 05000000 		.4byte	.LVL10-1
 3714 00e2 2E000000 		.4byte	.LFE257
 3715 00e6 0400     		.2byte	0x4
 3716 00e8 F3       		.byte	0xf3
 3717 00e9 01       		.uleb128 0x1
 3718 00ea 50       		.byte	0x50
 3719 00eb 9F       		.byte	0x9f
 3720 00ec 00000000 		.4byte	0
 3721 00f0 00000000 		.4byte	0
 3722              	.LLST4:
 3723 00f4 06000000 		.4byte	.LVL10
 3724 00f8 0E000000 		.4byte	.LVL11
 3725 00fc 0500     		.2byte	0x5
 3726 00fe 40       		.byte	0x40
 3727 00ff 4B       		.byte	0x4b
 3728 0100 24       		.byte	0x24
 3729 0101 1F       		.byte	0x1f
 3730 0102 9F       		.byte	0x9f
 3731 0103 0E000000 		.4byte	.LVL11
 3732 0107 22000000 		.4byte	.LVL14
 3733 010b 0100     		.2byte	0x1
 3734 010d 53       		.byte	0x53
 3735 010e 22000000 		.4byte	.LVL14
 3736 0112 24000000 		.4byte	.LVL15
 3737 0116 0500     		.2byte	0x5
 3738 0118 73       		.byte	0x73
 3739 0119 00       		.sleb128 0
 3740 011a 31       		.byte	0x31
 3741 011b 25       		.byte	0x25
 3742 011c 9F       		.byte	0x9f
 3743 011d 24000000 		.4byte	.LVL15
 3744 0121 26000000 		.4byte	.LVL16
 3745 0125 0100     		.2byte	0x1
 3746 0127 53       		.byte	0x53
ARM GAS  C:\Users\jo\AppData\Local\Temp\ccqPoXte.s 			page 67


 3747 0128 2A000000 		.4byte	.LVL18
 3748 012c 2E000000 		.4byte	.LFE257
 3749 0130 0100     		.2byte	0x1
 3750 0132 53       		.byte	0x53
 3751 0133 00000000 		.4byte	0
 3752 0137 00000000 		.4byte	0
 3753              	.LLST5:
 3754 013b 06000000 		.4byte	.LVL10
 3755 013f 28000000 		.4byte	.LVL17
 3756 0143 0100     		.2byte	0x1
 3757 0145 50       		.byte	0x50
 3758 0146 2A000000 		.4byte	.LVL18
 3759 014a 2C000000 		.4byte	.LVL19
 3760 014e 0100     		.2byte	0x1
 3761 0150 50       		.byte	0x50
 3762 0151 00000000 		.4byte	0
 3763 0155 00000000 		.4byte	0
 3764              	.LLST6:
 3765 0159 00000000 		.4byte	.LVL20
 3766 015d 26000000 		.4byte	.LVL26
 3767 0161 0100     		.2byte	0x1
 3768 0163 50       		.byte	0x50
 3769 0164 26000000 		.4byte	.LVL26
 3770 0168 2A000000 		.4byte	.LVL27
 3771 016c 0300     		.2byte	0x3
 3772 016e 70       		.byte	0x70
 3773 016f 7F       		.sleb128 -1
 3774 0170 9F       		.byte	0x9f
 3775 0171 2A000000 		.4byte	.LVL27
 3776 0175 30000000 		.4byte	.LVL29
 3777 0179 0100     		.2byte	0x1
 3778 017b 5C       		.byte	0x5c
 3779 017c 30000000 		.4byte	.LVL29
 3780 0180 32000000 		.4byte	.LVL30
 3781 0184 0100     		.2byte	0x1
 3782 0186 50       		.byte	0x50
 3783 0187 32000000 		.4byte	.LVL30
 3784 018b 36000000 		.4byte	.LVL31
 3785 018f 0300     		.2byte	0x3
 3786 0191 70       		.byte	0x70
 3787 0192 7F       		.sleb128 -1
 3788 0193 9F       		.byte	0x9f
 3789 0194 52000000 		.4byte	.LVL32
 3790 0198 70000000 		.4byte	.LVL35
 3791 019c 0100     		.2byte	0x1
 3792 019e 5C       		.byte	0x5c
 3793 019f 70000000 		.4byte	.LVL35
 3794 01a3 74000000 		.4byte	.LVL37
 3795 01a7 0100     		.2byte	0x1
 3796 01a9 50       		.byte	0x50
 3797 01aa 74000000 		.4byte	.LVL37
 3798 01ae 90000000 		.4byte	.LVL40
 3799 01b2 0100     		.2byte	0x1
 3800 01b4 5C       		.byte	0x5c
 3801 01b5 90000000 		.4byte	.LVL40
 3802 01b9 92000000 		.4byte	.LVL41
 3803 01bd 0100     		.2byte	0x1
ARM GAS  C:\Users\jo\AppData\Local\Temp\ccqPoXte.s 			page 68


 3804 01bf 50       		.byte	0x50
 3805 01c0 9C000000 		.4byte	.LVL42
 3806 01c4 A8000000 		.4byte	.LVL44
 3807 01c8 0300     		.2byte	0x3
 3808 01ca 70       		.byte	0x70
 3809 01cb 01       		.sleb128 1
 3810 01cc 9F       		.byte	0x9f
 3811 01cd A8000000 		.4byte	.LVL44
 3812 01d1 B0000000 		.4byte	.LVL45
 3813 01d5 0100     		.2byte	0x1
 3814 01d7 50       		.byte	0x50
 3815 01d8 B0000000 		.4byte	.LVL45
 3816 01dc B6000000 		.4byte	.LVL47
 3817 01e0 0300     		.2byte	0x3
 3818 01e2 70       		.byte	0x70
 3819 01e3 02       		.sleb128 2
 3820 01e4 9F       		.byte	0x9f
 3821 01e5 B6000000 		.4byte	.LVL47
 3822 01e9 BC000000 		.4byte	.LVL48
 3823 01ed 0100     		.2byte	0x1
 3824 01ef 50       		.byte	0x50
 3825 01f0 BC000000 		.4byte	.LVL48
 3826 01f4 02010000 		.4byte	.LVL51
 3827 01f8 0100     		.2byte	0x1
 3828 01fa 5C       		.byte	0x5c
 3829 01fb 10010000 		.4byte	.LVL53
 3830 01ff 45010000 		.4byte	.LVL58-1
 3831 0203 0100     		.2byte	0x1
 3832 0205 5C       		.byte	0x5c
 3833 0206 00000000 		.4byte	0
 3834 020a 00000000 		.4byte	0
 3835              	.LLST7:
 3836 020e 00000000 		.4byte	.LVL20
 3837 0212 0E000000 		.4byte	.LVL21
 3838 0216 0100     		.2byte	0x1
 3839 0218 51       		.byte	0x51
 3840 0219 0E000000 		.4byte	.LVL21
 3841 021d 64010000 		.4byte	.LFE259
 3842 0221 0100     		.2byte	0x1
 3843 0223 56       		.byte	0x56
 3844 0224 00000000 		.4byte	0
 3845 0228 00000000 		.4byte	0
 3846              	.LLST8:
 3847 022c 1E000000 		.4byte	.LVL24
 3848 0230 2A000000 		.4byte	.LVL27
 3849 0234 0200     		.2byte	0x2
 3850 0236 30       		.byte	0x30
 3851 0237 9F       		.byte	0x9f
 3852 0238 2A000000 		.4byte	.LVL27
 3853 023c 36000000 		.4byte	.LVL31
 3854 0240 0100     		.2byte	0x1
 3855 0242 54       		.byte	0x54
 3856 0243 52000000 		.4byte	.LVL32
 3857 0247 92000000 		.4byte	.LVL41
 3858 024b 0100     		.2byte	0x1
 3859 024d 54       		.byte	0x54
 3860 024e 9C000000 		.4byte	.LVL42
ARM GAS  C:\Users\jo\AppData\Local\Temp\ccqPoXte.s 			page 69


 3861 0252 BC000000 		.4byte	.LVL48
 3862 0256 0200     		.2byte	0x2
 3863 0258 30       		.byte	0x30
 3864 0259 9F       		.byte	0x9f
 3865 025a BC000000 		.4byte	.LVL48
 3866 025e 02010000 		.4byte	.LVL51
 3867 0262 0100     		.2byte	0x1
 3868 0264 54       		.byte	0x54
 3869 0265 02010000 		.4byte	.LVL51
 3870 0269 10010000 		.4byte	.LVL53
 3871 026d 0100     		.2byte	0x1
 3872 026f 55       		.byte	0x55
 3873 0270 10010000 		.4byte	.LVL53
 3874 0274 26010000 		.4byte	.LVL54
 3875 0278 0100     		.2byte	0x1
 3876 027a 54       		.byte	0x54
 3877 027b 26010000 		.4byte	.LVL54
 3878 027f 28010000 		.4byte	.LVL55
 3879 0283 0100     		.2byte	0x1
 3880 0285 55       		.byte	0x55
 3881 0286 28010000 		.4byte	.LVL55
 3882 028a 34010000 		.4byte	.LVL56
 3883 028e 0100     		.2byte	0x1
 3884 0290 54       		.byte	0x54
 3885 0291 34010000 		.4byte	.LVL56
 3886 0295 36010000 		.4byte	.LVL57
 3887 0299 0100     		.2byte	0x1
 3888 029b 55       		.byte	0x55
 3889 029c 36010000 		.4byte	.LVL57
 3890 02a0 4E010000 		.4byte	.LVL60
 3891 02a4 0100     		.2byte	0x1
 3892 02a6 54       		.byte	0x54
 3893 02a7 4E010000 		.4byte	.LVL60
 3894 02ab 64010000 		.4byte	.LFE259
 3895 02af 0100     		.2byte	0x1
 3896 02b1 55       		.byte	0x55
 3897 02b2 00000000 		.4byte	0
 3898 02b6 00000000 		.4byte	0
 3899              	.LLST9:
 3900 02ba 1E000000 		.4byte	.LVL24
 3901 02be 24000000 		.4byte	.LVL25
 3902 02c2 0200     		.2byte	0x2
 3903 02c4 3A       		.byte	0x3a
 3904 02c5 9F       		.byte	0x9f
 3905 02c6 9C000000 		.4byte	.LVL42
 3906 02ca B0000000 		.4byte	.LVL45
 3907 02ce 0200     		.2byte	0x2
 3908 02d0 3A       		.byte	0x3a
 3909 02d1 9F       		.byte	0x9f
 3910 02d2 B0000000 		.4byte	.LVL45
 3911 02d6 BC000000 		.4byte	.LVL48
 3912 02da 0200     		.2byte	0x2
 3913 02dc 40       		.byte	0x40
 3914 02dd 9F       		.byte	0x9f
 3915 02de 00000000 		.4byte	0
 3916 02e2 00000000 		.4byte	0
 3917              	.LLST10:
ARM GAS  C:\Users\jo\AppData\Local\Temp\ccqPoXte.s 			page 70


 3918 02e6 12000000 		.4byte	.LVL22
 3919 02ea 2C000000 		.4byte	.LVL28
 3920 02ee 0100     		.2byte	0x1
 3921 02f0 53       		.byte	0x53
 3922 02f1 2C000000 		.4byte	.LVL28
 3923 02f5 30000000 		.4byte	.LVL29
 3924 02f9 0300     		.2byte	0x3
 3925 02fb 75       		.byte	0x75
 3926 02fc 76       		.sleb128 -10
 3927 02fd 9F       		.byte	0x9f
 3928 02fe 30000000 		.4byte	.LVL29
 3929 0302 68000000 		.4byte	.LVL33
 3930 0306 0100     		.2byte	0x1
 3931 0308 53       		.byte	0x53
 3932 0309 68000000 		.4byte	.LVL33
 3933 030d 6C000000 		.4byte	.LVL34
 3934 0311 0300     		.2byte	0x3
 3935 0313 75       		.byte	0x75
 3936 0314 76       		.sleb128 -10
 3937 0315 9F       		.byte	0x9f
 3938 0316 72000000 		.4byte	.LVL36
 3939 031a 80000000 		.4byte	.LVL38
 3940 031e 0100     		.2byte	0x1
 3941 0320 53       		.byte	0x53
 3942 0321 80000000 		.4byte	.LVL38
 3943 0325 90000000 		.4byte	.LVL40
 3944 0329 0300     		.2byte	0x3
 3945 032b 75       		.byte	0x75
 3946 032c 76       		.sleb128 -10
 3947 032d 9F       		.byte	0x9f
 3948 032e 90000000 		.4byte	.LVL40
 3949 0332 92000000 		.4byte	.LVL41
 3950 0336 0100     		.2byte	0x1
 3951 0338 53       		.byte	0x53
 3952 0339 9C000000 		.4byte	.LVL42
 3953 033d C6000000 		.4byte	.LVL49
 3954 0341 0100     		.2byte	0x1
 3955 0343 53       		.byte	0x53
 3956 0344 C6000000 		.4byte	.LVL49
 3957 0348 CA000000 		.4byte	.LVL50
 3958 034c 0300     		.2byte	0x3
 3959 034e 73       		.byte	0x73
 3960 034f 09       		.sleb128 9
 3961 0350 9F       		.byte	0x9f
 3962 0351 00000000 		.4byte	0
 3963 0355 00000000 		.4byte	0
 3964              	.LLST11:
 3965 0359 12000000 		.4byte	.LVL22
 3966 035d 18000000 		.4byte	.LVL23
 3967 0361 0300     		.2byte	0x3
 3968 0363 91       		.byte	0x91
 3969 0364 50       		.sleb128 -48
 3970 0365 9F       		.byte	0x9f
 3971 0366 18000000 		.4byte	.LVL23
 3972 036a 1E000000 		.4byte	.LVL24
 3973 036e 0100     		.2byte	0x1
 3974 0370 59       		.byte	0x59
ARM GAS  C:\Users\jo\AppData\Local\Temp\ccqPoXte.s 			page 71


 3975 0371 1E000000 		.4byte	.LVL24
 3976 0375 84000000 		.4byte	.LVL39
 3977 0379 0100     		.2byte	0x1
 3978 037b 58       		.byte	0x58
 3979 037c 84000000 		.4byte	.LVL39
 3980 0380 90000000 		.4byte	.LVL40
 3981 0384 0300     		.2byte	0x3
 3982 0386 78       		.byte	0x78
 3983 0387 7C       		.sleb128 -4
 3984 0388 9F       		.byte	0x9f
 3985 0389 90000000 		.4byte	.LVL40
 3986 038d 92000000 		.4byte	.LVL41
 3987 0391 0100     		.2byte	0x1
 3988 0393 58       		.byte	0x58
 3989 0394 9C000000 		.4byte	.LVL42
 3990 0398 64010000 		.4byte	.LFE259
 3991 039c 0100     		.2byte	0x1
 3992 039e 58       		.byte	0x58
 3993 039f 00000000 		.4byte	0
 3994 03a3 00000000 		.4byte	0
 3995              	.LLST12:
 3996 03a7 46010000 		.4byte	.LVL58
 3997 03ab 4E010000 		.4byte	.LVL60
 3998 03af 0600     		.2byte	0x6
 3999 03b1 03       		.byte	0x3
 4000 03b2 28000000 		.4byte	.LC1
 4001 03b6 9F       		.byte	0x9f
 4002 03b7 00000000 		.4byte	0
 4003 03bb 00000000 		.4byte	0
 4004              	.LLST13:
 4005 03bf 00000000 		.4byte	.LVL61
 4006 03c3 09000000 		.4byte	.LVL62-1
 4007 03c7 0100     		.2byte	0x1
 4008 03c9 50       		.byte	0x50
 4009 03ca 09000000 		.4byte	.LVL62-1
 4010 03ce 1E000000 		.4byte	.LFE258
 4011 03d2 0400     		.2byte	0x4
 4012 03d4 F3       		.byte	0xf3
 4013 03d5 01       		.uleb128 0x1
 4014 03d6 50       		.byte	0x50
 4015 03d7 9F       		.byte	0x9f
 4016 03d8 00000000 		.4byte	0
 4017 03dc 00000000 		.4byte	0
 4018              	.LLST14:
 4019 03e0 00000000 		.4byte	.LVL63
 4020 03e4 12000000 		.4byte	.LVL65
 4021 03e8 0100     		.2byte	0x1
 4022 03ea 50       		.byte	0x50
 4023 03eb 12000000 		.4byte	.LVL65
 4024 03ef C0000000 		.4byte	.LFE261
 4025 03f3 0400     		.2byte	0x4
 4026 03f5 F3       		.byte	0xf3
 4027 03f6 01       		.uleb128 0x1
 4028 03f7 50       		.byte	0x50
 4029 03f8 9F       		.byte	0x9f
 4030 03f9 00000000 		.4byte	0
 4031 03fd 00000000 		.4byte	0
ARM GAS  C:\Users\jo\AppData\Local\Temp\ccqPoXte.s 			page 72


 4032              	.LLST15:
 4033 0401 10000000 		.4byte	.LVL64
 4034 0405 20000000 		.4byte	.LVL66
 4035 0409 0100     		.2byte	0x1
 4036 040b 51       		.byte	0x51
 4037 040c 20000000 		.4byte	.LVL66
 4038 0410 A0000000 		.4byte	.LVL82
 4039 0414 0100     		.2byte	0x1
 4040 0416 57       		.byte	0x57
 4041 0417 A0000000 		.4byte	.LVL82
 4042 041b AE000000 		.4byte	.LVL83
 4043 041f 0300     		.2byte	0x3
 4044 0421 77       		.byte	0x77
 4045 0422 7F       		.sleb128 -1
 4046 0423 9F       		.byte	0x9f
 4047 0424 AE000000 		.4byte	.LVL83
 4048 0428 C0000000 		.4byte	.LFE261
 4049 042c 0100     		.2byte	0x1
 4050 042e 57       		.byte	0x57
 4051 042f 00000000 		.4byte	0
 4052 0433 00000000 		.4byte	0
 4053              	.LLST16:
 4054 0437 10000000 		.4byte	.LVL64
 4055 043b 20000000 		.4byte	.LVL66
 4056 043f 0300     		.2byte	0x3
 4057 0441 91       		.byte	0x91
 4058 0442 5C       		.sleb128 -36
 4059 0443 9F       		.byte	0x9f
 4060 0444 20000000 		.4byte	.LVL66
 4061 0448 58000000 		.4byte	.LVL73
 4062 044c 0100     		.2byte	0x1
 4063 044e 5E       		.byte	0x5e
 4064 044f 58000000 		.4byte	.LVL73
 4065 0453 9E000000 		.4byte	.LVL81
 4066 0457 0300     		.2byte	0x3
 4067 0459 7E       		.byte	0x7e
 4068 045a 7F       		.sleb128 -1
 4069 045b 9F       		.byte	0x9f
 4070 045c 9E000000 		.4byte	.LVL81
 4071 0460 AE000000 		.4byte	.LVL83
 4072 0464 0100     		.2byte	0x1
 4073 0466 5E       		.byte	0x5e
 4074 0467 AE000000 		.4byte	.LVL83
 4075 046b C0000000 		.4byte	.LFE261
 4076 046f 0300     		.2byte	0x3
 4077 0471 7E       		.byte	0x7e
 4078 0472 7F       		.sleb128 -1
 4079 0473 9F       		.byte	0x9f
 4080 0474 00000000 		.4byte	0
 4081 0478 00000000 		.4byte	0
 4082              	.LLST17:
 4083 047c 38000000 		.4byte	.LVL69
 4084 0480 40000000 		.4byte	.LVL70
 4085 0484 0100     		.2byte	0x1
 4086 0486 53       		.byte	0x53
 4087 0487 40000000 		.4byte	.LVL70
 4088 048b 44000000 		.4byte	.LVL71
ARM GAS  C:\Users\jo\AppData\Local\Temp\ccqPoXte.s 			page 73


 4089 048f 0300     		.2byte	0x3
 4090 0491 73       		.byte	0x73
 4091 0492 50       		.sleb128 -48
 4092 0493 9F       		.byte	0x9f
 4093 0494 00000000 		.4byte	0
 4094 0498 00000000 		.4byte	0
 4095              	.LLST18:
 4096 049c 10000000 		.4byte	.LVL64
 4097 04a0 20000000 		.4byte	.LVL66
 4098 04a4 0200     		.2byte	0x2
 4099 04a6 30       		.byte	0x30
 4100 04a7 9F       		.byte	0x9f
 4101 04a8 20000000 		.4byte	.LVL66
 4102 04ac 58000000 		.4byte	.LVL73
 4103 04b0 0600     		.2byte	0x6
 4104 04b2 7E       		.byte	0x7e
 4105 04b3 00       		.sleb128 0
 4106 04b4 91       		.byte	0x91
 4107 04b5 5C       		.sleb128 -36
 4108 04b6 1C       		.byte	0x1c
 4109 04b7 9F       		.byte	0x9f
 4110 04b8 9E000000 		.4byte	.LVL81
 4111 04bc AE000000 		.4byte	.LVL83
 4112 04c0 0600     		.2byte	0x6
 4113 04c2 7E       		.byte	0x7e
 4114 04c3 00       		.sleb128 0
 4115 04c4 91       		.byte	0x91
 4116 04c5 5C       		.sleb128 -36
 4117 04c6 1C       		.byte	0x1c
 4118 04c7 9F       		.byte	0x9f
 4119 04c8 00000000 		.4byte	0
 4120 04cc 00000000 		.4byte	0
 4121              	.LLST19:
 4122 04d0 28000000 		.4byte	.LVL67
 4123 04d4 2A000000 		.4byte	.LVL68
 4124 04d8 0100     		.2byte	0x1
 4125 04da 56       		.byte	0x56
 4126 04db 2A000000 		.4byte	.LVL68
 4127 04df 4C000000 		.4byte	.LVL72
 4128 04e3 0100     		.2byte	0x1
 4129 04e5 54       		.byte	0x54
 4130 04e6 4C000000 		.4byte	.LVL72
 4131 04ea 58000000 		.4byte	.LVL73
 4132 04ee 0100     		.2byte	0x1
 4133 04f0 56       		.byte	0x56
 4134 04f1 58000000 		.4byte	.LVL73
 4135 04f5 64000000 		.4byte	.LVL75
 4136 04f9 0100     		.2byte	0x1
 4137 04fb 54       		.byte	0x54
 4138 04fc 7C000000 		.4byte	.LVL77
 4139 0500 82000000 		.4byte	.LVL78
 4140 0504 0300     		.2byte	0x3
 4141 0506 74       		.byte	0x74
 4142 0507 01       		.sleb128 1
 4143 0508 9F       		.byte	0x9f
 4144 0509 82000000 		.4byte	.LVL78
 4145 050d 8A000000 		.4byte	.LVL79
ARM GAS  C:\Users\jo\AppData\Local\Temp\ccqPoXte.s 			page 74


 4146 0511 0100     		.2byte	0x1
 4147 0513 54       		.byte	0x54
 4148 0514 B6000000 		.4byte	.LVL84
 4149 0518 C0000000 		.4byte	.LFE261
 4150 051c 0100     		.2byte	0x1
 4151 051e 54       		.byte	0x54
 4152 051f 00000000 		.4byte	0
 4153 0523 00000000 		.4byte	0
 4154              	.LLST20:
 4155 0527 00000000 		.4byte	.LVL63
 4156 052b 20000000 		.4byte	.LVL66
 4157 052f 0200     		.2byte	0x2
 4158 0531 30       		.byte	0x30
 4159 0532 9F       		.byte	0x9f
 4160 0533 20000000 		.4byte	.LVL66
 4161 0537 60000000 		.4byte	.LVL74
 4162 053b 0100     		.2byte	0x1
 4163 053d 59       		.byte	0x59
 4164 053e 60000000 		.4byte	.LVL74
 4165 0542 92000000 		.4byte	.LVL80
 4166 0546 0100     		.2byte	0x1
 4167 0548 55       		.byte	0x55
 4168 0549 92000000 		.4byte	.LVL80
 4169 054d AE000000 		.4byte	.LVL83
 4170 0551 0100     		.2byte	0x1
 4171 0553 59       		.byte	0x59
 4172 0554 B6000000 		.4byte	.LVL84
 4173 0558 C0000000 		.4byte	.LFE261
 4174 055c 0100     		.2byte	0x1
 4175 055e 59       		.byte	0x59
 4176 055f 00000000 		.4byte	0
 4177 0563 00000000 		.4byte	0
 4178              	.LLST21:
 4179 0567 00000000 		.4byte	.LVL85
 4180 056b 07000000 		.4byte	.LVL86-1
 4181 056f 0100     		.2byte	0x1
 4182 0571 50       		.byte	0x50
 4183 0572 07000000 		.4byte	.LVL86-1
 4184 0576 0C000000 		.4byte	.LFE260
 4185 057a 0400     		.2byte	0x4
 4186 057c F3       		.byte	0xf3
 4187 057d 01       		.uleb128 0x1
 4188 057e 50       		.byte	0x50
 4189 057f 9F       		.byte	0x9f
 4190 0580 00000000 		.4byte	0
 4191 0584 00000000 		.4byte	0
 4192              		.section	.debug_aranges,"",%progbits
 4193 0000 4C000000 		.4byte	0x4c
 4194 0004 0200     		.2byte	0x2
 4195 0006 00000000 		.4byte	.Ldebug_info0
 4196 000a 04       		.byte	0x4
 4197 000b 00       		.byte	0
 4198 000c 0000     		.2byte	0
 4199 000e 0000     		.2byte	0
 4200 0010 00000000 		.4byte	.LFB262
 4201 0014 28000000 		.4byte	.LFE262-.LFB262
 4202 0018 00000000 		.4byte	.LFB256
ARM GAS  C:\Users\jo\AppData\Local\Temp\ccqPoXte.s 			page 75


 4203 001c 3E000000 		.4byte	.LFE256-.LFB256
 4204 0020 00000000 		.4byte	.LFB257
 4205 0024 2E000000 		.4byte	.LFE257-.LFB257
 4206 0028 00000000 		.4byte	.LFB259
 4207 002c 64010000 		.4byte	.LFE259-.LFB259
 4208 0030 00000000 		.4byte	.LFB258
 4209 0034 1E000000 		.4byte	.LFE258-.LFB258
 4210 0038 00000000 		.4byte	.LFB261
 4211 003c C0000000 		.4byte	.LFE261-.LFB261
 4212 0040 00000000 		.4byte	.LFB260
 4213 0044 0C000000 		.4byte	.LFE260-.LFB260
 4214 0048 00000000 		.4byte	0
 4215 004c 00000000 		.4byte	0
 4216              		.section	.debug_ranges,"",%progbits
 4217              	.Ldebug_ranges0:
 4218 0000 00000000 		.4byte	.LFB262
 4219 0004 28000000 		.4byte	.LFE262
 4220 0008 00000000 		.4byte	.LFB256
 4221 000c 3E000000 		.4byte	.LFE256
 4222 0010 00000000 		.4byte	.LFB257
 4223 0014 2E000000 		.4byte	.LFE257
 4224 0018 00000000 		.4byte	.LFB259
 4225 001c 64010000 		.4byte	.LFE259
 4226 0020 00000000 		.4byte	.LFB258
 4227 0024 1E000000 		.4byte	.LFE258
 4228 0028 00000000 		.4byte	.LFB261
 4229 002c C0000000 		.4byte	.LFE261
 4230 0030 00000000 		.4byte	.LFB260
 4231 0034 0C000000 		.4byte	.LFE260
 4232 0038 00000000 		.4byte	0
 4233 003c 00000000 		.4byte	0
 4234              		.section	.debug_line,"",%progbits
 4235              	.Ldebug_line0:
 4236 0000 28050000 		.section	.debug_str,"MS",%progbits,1
 4236      0200B403 
 4236      00000201 
 4236      FB0E0D00 
 4236      01010101 
 4237              	.LASF26:
 4238 0000 74726566 		.ascii	"trefs_t\000"
 4238      735F7400 
 4239              	.LASF145:
 4240 0008 70627566 		.ascii	"pbuf\000"
 4240      00
 4241              	.LASF98:
 4242 000d 73655F74 		.ascii	"se_time\000"
 4242      696D6500 
 4243              	.LASF1:
 4244 0015 73697A65 		.ascii	"size_t\000"
 4244      5F7400
 4245              	.LASF21:
 4246 001c 75696E74 		.ascii	"uint64_t\000"
 4246      36345F74 
 4246      00
 4247              	.LASF172:
 4248 0025 70617274 		.ascii	"parts\000"
 4248      7300
ARM GAS  C:\Users\jo\AppData\Local\Temp\ccqPoXte.s 			page 76


 4249              	.LASF177:
 4250 002b 69706164 		.ascii	"ipaddr_ntoa\000"
 4250      64725F6E 
 4250      746F6100 
 4251              	.LASF4:
 4252 0037 5F5F7569 		.ascii	"__uint8_t\000"
 4252      6E74385F 
 4252      7400
 4253              	.LASF94:
 4254 0041 706F7274 		.ascii	"port_intctx\000"
 4254      5F696E74 
 4254      63747800 
 4255              	.LASF136:
 4256 004d 76615F6C 		.ascii	"va_list\000"
 4256      69737400 
 4257              	.LASF77:
 4258 0055 73797374 		.ascii	"system_debug_t\000"
 4258      656D5F64 
 4258      65627567 
 4258      5F7400
 4259              	.LASF149:
 4260 0064 74797065 		.ascii	"type\000"
 4260      00
 4261              	.LASF110:
 4262 0069 776F7273 		.ascii	"worst\000"
 4262      7400
 4263              	.LASF113:
 4264 006f 74696D65 		.ascii	"time_measurement_t\000"
 4264      5F6D6561 
 4264      73757265 
 4264      6D656E74 
 4264      5F7400
 4265              	.LASF15:
 4266 0082 6C6F6E67 		.ascii	"long long unsigned int\000"
 4266      206C6F6E 
 4266      6720756E 
 4266      7369676E 
 4266      65642069 
 4267              	.LASF164:
 4268 0099 666F726D 		.ascii	"formatted_bytes\000"
 4268      61747465 
 4268      645F6279 
 4268      74657300 
 4269              	.LASF101:
 4270 00a9 73655F73 		.ascii	"se_state\000"
 4270      74617465 
 4270      00
 4271              	.LASF121:
 4272 00b2 65786974 		.ascii	"exitcode\000"
 4272      636F6465 
 4272      00
 4273              	.LASF87:
 4274 00bb 6D61696E 		.ascii	"mainthread\000"
 4274      74687265 
 4274      616400
 4275              	.LASF74:
 4276 00c6 76697274 		.ascii	"virtual_timers_list_t\000"
ARM GAS  C:\Users\jo\AppData\Local\Temp\ccqPoXte.s 			page 77


 4276      75616C5F 
 4276      74696D65 
 4276      72735F6C 
 4276      6973745F 
 4277              	.LASF2:
 4278 00dc 5F5F696E 		.ascii	"__int8_t\000"
 4278      74385F74 
 4278      00
 4279              	.LASF178:
 4280 00e5 49544D5F 		.ascii	"ITM_RxBuffer\000"
 4280      52784275 
 4280      66666572 
 4280      00
 4281              	.LASF146:
 4282 00f2 6E657874 		.ascii	"next\000"
 4282      00
 4283              	.LASF23:
 4284 00f7 72747469 		.ascii	"rttime_t\000"
 4284      6D655F74 
 4284      00
 4285              	.LASF36:
 4286 0100 705F7072 		.ascii	"p_prio\000"
 4286      696F00
 4287              	.LASF186:
 4288 0107 433A5C55 		.ascii	"C:\\Users\\jo\\Documents\\GitHub\\ChibiOS\\demos\\S"
 4288      73657273 
 4288      5C6A6F5C 
 4288      446F6375 
 4288      6D656E74 
 4289 0133 544D3332 		.ascii	"TM32\\RT-STM32F407-DISCOVERY-uHttp\000"
 4289      5C52542D 
 4289      53544D33 
 4289      32463430 
 4289      372D4449 
 4290              	.LASF13:
 4291 0155 6C6F6E67 		.ascii	"long long int\000"
 4291      206C6F6E 
 4291      6720696E 
 4291      7400
 4292              	.LASF3:
 4293 0163 7369676E 		.ascii	"signed char\000"
 4293      65642063 
 4293      68617200 
 4294              	.LASF137:
 4295 016f 75385F74 		.ascii	"u8_t\000"
 4295      00
 4296              	.LASF51:
 4297 0174 705F6D70 		.ascii	"p_mpool\000"
 4297      6F6F6C00 
 4298              	.LASF158:
 4299 017c 68776164 		.ascii	"hwaddr\000"
 4299      647200
 4300              	.LASF142:
 4301 0183 61646472 		.ascii	"addr\000"
 4301      00
 4302              	.LASF165:
 4303 0188 6970345F 		.ascii	"ip4_addr_isbroadcast\000"
ARM GAS  C:\Users\jo\AppData\Local\Temp\ccqPoXte.s 			page 78


 4303      61646472 
 4303      5F697362 
 4303      726F6164 
 4303      63617374 
 4304              	.LASF86:
 4305 019d 76746C69 		.ascii	"vtlist\000"
 4305      737400
 4306              	.LASF148:
 4307 01a4 746F745F 		.ascii	"tot_len\000"
 4307      6C656E00 
 4308              	.LASF156:
 4309 01ac 73746174 		.ascii	"state\000"
 4309      6500
 4310              	.LASF84:
 4311 01b2 63685F73 		.ascii	"ch_system\000"
 4311      79737465 
 4311      6D00
 4312              	.LASF10:
 4313 01bc 6C6F6E67 		.ascii	"long int\000"
 4313      20696E74 
 4313      00
 4314              	.LASF25:
 4315 01c5 74737461 		.ascii	"tstate_t\000"
 4315      74655F74 
 4315      00
 4316              	.LASF96:
 4317 01ce 5F5F7661 		.ascii	"__va_list\000"
 4317      5F6C6973 
 4317      7400
 4318              	.LASF99:
 4319 01d8 73655F74 		.ascii	"se_tp\000"
 4319      7000
 4320              	.LASF18:
 4321 01de 75696E74 		.ascii	"uint16_t\000"
 4321      31365F74 
 4321      00
 4322              	.LASF157:
 4323 01e7 68776164 		.ascii	"hwaddr_len\000"
 4323      64725F6C 
 4323      656E00
 4324              	.LASF38:
 4325 01f2 705F6E65 		.ascii	"p_newer\000"
 4325      77657200 
 4326              	.LASF152:
 4327 01fa 6E65746D 		.ascii	"netmask\000"
 4327      61736B00 
 4328              	.LASF103:
 4329 0202 74625F73 		.ascii	"tb_size\000"
 4329      697A6500 
 4330              	.LASF63:
 4331 020a 725F6E65 		.ascii	"r_newer\000"
 4331      77657200 
 4332              	.LASF168:
 4333 0212 6D61736B 		.ascii	"mask\000"
 4333      00
 4334              	.LASF91:
 4335 0217 72656761 		.ascii	"regarm_t\000"
ARM GAS  C:\Users\jo\AppData\Local\Temp\ccqPoXte.s 			page 79


 4335      726D5F74 
 4335      00
 4336              	.LASF70:
 4337 0220 76745F70 		.ascii	"vt_prev\000"
 4337      72657600 
 4338              	.LASF189:
 4339 0228 63685379 		.ascii	"chSysHalt\000"
 4339      7348616C 
 4339      7400
 4340              	.LASF78:
 4341 0232 63685F73 		.ascii	"ch_system_debug\000"
 4341      79737465 
 4341      6D5F6465 
 4341      62756700 
 4342              	.LASF128:
 4343 0242 6D757465 		.ascii	"mutex_t\000"
 4343      785F7400 
 4344              	.LASF132:
 4345 024a 42617365 		.ascii	"BaseSequentialStream\000"
 4345      53657175 
 4345      656E7469 
 4345      616C5374 
 4345      7265616D 
 4346              	.LASF89:
 4347 025f 69646C65 		.ascii	"idle_thread_wa\000"
 4347      5F746872 
 4347      6561645F 
 4347      776100
 4348              	.LASF30:
 4349 026e 636E745F 		.ascii	"cnt_t\000"
 4349      7400
 4350              	.LASF41:
 4351 0274 705F7374 		.ascii	"p_stklimit\000"
 4351      6B6C696D 
 4351      697400
 4352              	.LASF0:
 4353 027f 756E7369 		.ascii	"unsigned int\000"
 4353      676E6564 
 4353      20696E74 
 4353      00
 4354              	.LASF176:
 4355 028c 735F6164 		.ascii	"s_addr\000"
 4355      647200
 4356              	.LASF69:
 4357 0293 76745F6E 		.ascii	"vt_next\000"
 4357      65787400 
 4358              	.LASF46:
 4359 029b 705F6D73 		.ascii	"p_msgqueue\000"
 4359      67717565 
 4359      756500
 4360              	.LASF140:
 4361 02a6 7533325F 		.ascii	"u32_t\000"
 4361      7400
 4362              	.LASF114:
 4363 02ac 6E5F6972 		.ascii	"n_irq\000"
 4363      7100
 4364              	.LASF159:
ARM GAS  C:\Users\jo\AppData\Local\Temp\ccqPoXte.s 			page 80


 4365 02b2 6E616D65 		.ascii	"name\000"
 4365      00
 4366              	.LASF8:
 4367 02b7 73686F72 		.ascii	"short unsigned int\000"
 4367      7420756E 
 4367      7369676E 
 4367      65642069 
 4367      6E7400
 4368              	.LASF118:
 4369 02ca 6B65726E 		.ascii	"kernel_stats_t\000"
 4369      656C5F73 
 4369      74617473 
 4369      5F7400
 4370              	.LASF54:
 4371 02d9 63685F74 		.ascii	"ch_thread\000"
 4371      68726561 
 4371      6400
 4372              	.LASF169:
 4373 02e3 6E6D5F68 		.ascii	"nm_hostorder\000"
 4373      6F73746F 
 4373      72646572 
 4373      00
 4374              	.LASF28:
 4375 02f0 6D73675F 		.ascii	"msg_t\000"
 4375      7400
 4376              	.LASF111:
 4377 02f6 6C617374 		.ascii	"last\000"
 4377      00
 4378              	.LASF31:
 4379 02fb 75636E74 		.ascii	"ucnt_t\000"
 4379      5F7400
 4380              	.LASF131:
 4381 0302 72656164 		.ascii	"read\000"
 4381      00
 4382              	.LASF24:
 4383 0307 746D6F64 		.ascii	"tmode_t\000"
 4383      655F7400 
 4384              	.LASF183:
 4385 030f 6C776970 		.ascii	"lwip_htonl\000"
 4385      5F68746F 
 4385      6E6C00
 4386              	.LASF59:
 4387 031a 63685F72 		.ascii	"ch_ready_list\000"
 4387      65616479 
 4387      5F6C6973 
 4387      7400
 4388              	.LASF29:
 4389 0328 6576656E 		.ascii	"eventmask_t\000"
 4389      746D6173 
 4389      6B5F7400 
 4390              	.LASF117:
 4391 0334 6D5F6372 		.ascii	"m_crit_isr\000"
 4391      69745F69 
 4391      737200
 4392              	.LASF181:
 4393 033f 69705F61 		.ascii	"ip_addr_broadcast\000"
 4393      6464725F 
ARM GAS  C:\Users\jo\AppData\Local\Temp\ccqPoXte.s 			page 81


 4393      62726F61 
 4393      64636173 
 4393      7400
 4394              	.LASF9:
 4395 0351 5F5F696E 		.ascii	"__int32_t\000"
 4395      7433325F 
 4395      7400
 4396              	.LASF184:
 4397 035b 474E5520 		.ascii	"GNU C 4.9.3 20141119 (release) [ARM/embedded-4_9-br"
 4397      4320342E 
 4397      392E3320 
 4397      32303134 
 4397      31313139 
 4398 038e 616E6368 		.ascii	"anch revision 218278] -mcpu=cortex-m4 -mno-thumb-in"
 4398      20726576 
 4398      6973696F 
 4398      6E203231 
 4398      38323738 
 4399 03c1 74657277 		.ascii	"terwork -mthumb -ggdb -O2 -fomit-frame-pointer -fal"
 4399      6F726B20 
 4399      2D6D7468 
 4399      756D6220 
 4399      2D676764 
 4400 03f4 69676E2D 		.ascii	"ign-functions=16 -ffunction-sections -fdata-section"
 4400      66756E63 
 4400      74696F6E 
 4400      733D3136 
 4400      202D6666 
 4401 0427 73202D66 		.ascii	"s -fno-common\000"
 4401      6E6F2D63 
 4401      6F6D6D6F 
 4401      6E00
 4402              	.LASF92:
 4403 0435 73746B61 		.ascii	"stkalign_t\000"
 4403      6C69676E 
 4403      5F7400
 4404              	.LASF180:
 4405 0440 69705F61 		.ascii	"ip_addr_any\000"
 4405      6464725F 
 4405      616E7900 
 4406              	.LASF174:
 4407 044c 69706164 		.ascii	"ipaddr_ntoa_r\000"
 4407      64725F6E 
 4407      746F615F 
 4407      7200
 4408              	.LASF187:
 4409 045a 6F73616C 		.ascii	"osalSysHalt\000"
 4409      53797348 
 4409      616C7400 
 4410              	.LASF130:
 4411 0466 77726974 		.ascii	"write\000"
 4411      6500
 4412              	.LASF154:
 4413 046c 6F757470 		.ascii	"output\000"
 4413      757400
 4414              	.LASF143:
 4415 0473 69705F61 		.ascii	"ip_addr_t\000"
ARM GAS  C:\Users\jo\AppData\Local\Temp\ccqPoXte.s 			page 82


 4415      6464725F 
 4415      7400
 4416              	.LASF45:
 4417 047d 705F7761 		.ascii	"p_waiting\000"
 4417      6974696E 
 4417      6700
 4418              	.LASF144:
 4419 0487 6572725F 		.ascii	"err_t\000"
 4419      7400
 4420              	.LASF90:
 4421 048d 73697A65 		.ascii	"sizetype\000"
 4421      74797065 
 4421      00
 4422              	.LASF162:
 4423 0496 6E657469 		.ascii	"netif_linkoutput_fn\000"
 4423      665F6C69 
 4423      6E6B6F75 
 4423      74707574 
 4423      5F666E00 
 4424              	.LASF170:
 4425 04aa 69706164 		.ascii	"ipaddr_aton\000"
 4425      64725F61 
 4425      746F6E00 
 4426              	.LASF75:
 4427 04b6 63685F76 		.ascii	"ch_virtual_timers_list\000"
 4427      69727475 
 4427      616C5F74 
 4427      696D6572 
 4427      735F6C69 
 4428              	.LASF151:
 4429 04cd 6E657469 		.ascii	"netif\000"
 4429      6600
 4430              	.LASF104:
 4431 04d3 74625F70 		.ascii	"tb_ptr\000"
 4431      747200
 4432              	.LASF95:
 4433 04da 5F5F676E 		.ascii	"__gnuc_va_list\000"
 4433      75635F76 
 4433      615F6C69 
 4433      737400
 4434              	.LASF147:
 4435 04e9 7061796C 		.ascii	"payload\000"
 4435      6F616400 
 4436              	.LASF102:
 4437 04f1 63685F73 		.ascii	"ch_swc_event_t\000"
 4437      77635F65 
 4437      76656E74 
 4437      5F7400
 4438              	.LASF76:
 4439 0500 76745F6C 		.ascii	"vt_lasttime\000"
 4439      61737474 
 4439      696D6500 
 4440              	.LASF106:
 4441 050c 63685F74 		.ascii	"ch_trace_buffer_t\000"
 4441      72616365 
 4441      5F627566 
 4441      6665725F 
ARM GAS  C:\Users\jo\AppData\Local\Temp\ccqPoXte.s 			page 83


 4441      7400
 4442              	.LASF141:
 4443 051e 69705F61 		.ascii	"ip_addr\000"
 4443      64647200 
 4444              	.LASF62:
 4445 0526 725F6374 		.ascii	"r_ctx\000"
 4445      7800
 4446              	.LASF108:
 4447 052c 746D5F63 		.ascii	"tm_calibration_t\000"
 4447      616C6962 
 4447      72617469 
 4447      6F6E5F74 
 4447      00
 4448              	.LASF81:
 4449 053d 6C6F636B 		.ascii	"lock_cnt\000"
 4449      5F636E74 
 4449      00
 4450              	.LASF65:
 4451 0546 725F6375 		.ascii	"r_current\000"
 4451      7272656E 
 4451      7400
 4452              	.LASF64:
 4453 0550 725F6F6C 		.ascii	"r_older\000"
 4453      64657200 
 4454              	.LASF14:
 4455 0558 5F5F7569 		.ascii	"__uint64_t\000"
 4455      6E743634 
 4455      5F7400
 4456              	.LASF112:
 4457 0563 63756D75 		.ascii	"cumulative\000"
 4457      6C617469 
 4457      766500
 4458              	.LASF88:
 4459 056e 6B65726E 		.ascii	"kernel_stats\000"
 4459      656C5F73 
 4459      74617473 
 4459      00
 4460              	.LASF135:
 4461 057b 49544D53 		.ascii	"ITMStream\000"
 4461      74726561 
 4461      6D00
 4462              	.LASF105:
 4463 0585 74625F62 		.ascii	"tb_buffer\000"
 4463      75666665 
 4463      7200
 4464              	.LASF67:
 4465 058f 76697274 		.ascii	"virtual_timer_t\000"
 4465      75616C5F 
 4465      74696D65 
 4465      725F7400 
 4466              	.LASF35:
 4467 059f 705F7072 		.ascii	"p_prev\000"
 4467      657600
 4468              	.LASF27:
 4469 05a6 74707269 		.ascii	"tprio_t\000"
 4469      6F5F7400 
 4470              	.LASF171:
ARM GAS  C:\Users\jo\AppData\Local\Temp\ccqPoXte.s 			page 84


 4471 05ae 62617365 		.ascii	"base\000"
 4471      00
 4472              	.LASF124:
 4473 05b3 6D757465 		.ascii	"mutex\000"
 4473      7800
 4474              	.LASF40:
 4475 05b9 705F6E61 		.ascii	"p_name\000"
 4475      6D6500
 4476              	.LASF115:
 4477 05c0 6E5F6374 		.ascii	"n_ctxswc\000"
 4477      78737763 
 4477      00
 4478              	.LASF133:
 4479 05c9 5F426F6F 		.ascii	"_Bool\000"
 4479      6C00
 4480              	.LASF19:
 4481 05cf 696E7433 		.ascii	"int32_t\000"
 4481      325F7400 
 4482              	.LASF5:
 4483 05d7 756E7369 		.ascii	"unsigned char\000"
 4483      676E6564 
 4483      20636861 
 4483      7200
 4484              	.LASF125:
 4485 05e5 6D5F7175 		.ascii	"m_queue\000"
 4485      65756500 
 4486              	.LASF49:
 4487 05ed 705F6D74 		.ascii	"p_mtxlist\000"
 4487      786C6973 
 4487      7400
 4488              	.LASF6:
 4489 05f7 73686F72 		.ascii	"short int\000"
 4489      7420696E 
 4489      7400
 4490              	.LASF42:
 4491 0601 705F7374 		.ascii	"p_state\000"
 4491      61746500 
 4492              	.LASF161:
 4493 0609 6E657469 		.ascii	"netif_output_fn\000"
 4493      665F6F75 
 4493      74707574 
 4493      5F666E00 
 4494              	.LASF39:
 4495 0619 705F6F6C 		.ascii	"p_older\000"
 4495      64657200 
 4496              	.LASF61:
 4497 0621 725F7072 		.ascii	"r_prio\000"
 4497      696F00
 4498              	.LASF123:
 4499 0628 65776D61 		.ascii	"ewmask\000"
 4499      736B00
 4500              	.LASF34:
 4501 062f 705F6E65 		.ascii	"p_next\000"
 4501      787400
 4502              	.LASF129:
 4503 0636 42617365 		.ascii	"BaseSequentialStreamVMT\000"
 4503      53657175 
ARM GAS  C:\Users\jo\AppData\Local\Temp\ccqPoXte.s 			page 85


 4503      656E7469 
 4503      616C5374 
 4503      7265616D 
 4504              	.LASF43:
 4505 064e 705F666C 		.ascii	"p_flags\000"
 4505      61677300 
 4506              	.LASF52:
 4507 0656 705F7374 		.ascii	"p_stats\000"
 4507      61747300 
 4508              	.LASF175:
 4509 065e 6275666C 		.ascii	"buflen\000"
 4509      656E00
 4510              	.LASF163:
 4511 0665 72656173 		.ascii	"reason\000"
 4511      6F6E00
 4512              	.LASF153:
 4513 066c 696E7075 		.ascii	"input\000"
 4513      7400
 4514              	.LASF68:
 4515 0672 63685F76 		.ascii	"ch_virtual_timer\000"
 4515      69727475 
 4515      616C5F74 
 4515      696D6572 
 4515      00
 4516              	.LASF138:
 4517 0683 73385F74 		.ascii	"s8_t\000"
 4517      00
 4518              	.LASF48:
 4519 0688 705F6570 		.ascii	"p_epending\000"
 4519      656E6469 
 4519      6E6700
 4520              	.LASF20:
 4521 0693 75696E74 		.ascii	"uint32_t\000"
 4521      33325F74 
 4521      00
 4522              	.LASF60:
 4523 069c 725F7175 		.ascii	"r_queue\000"
 4523      65756500 
 4524              	.LASF71:
 4525 06a4 76745F64 		.ascii	"vt_delta\000"
 4525      656C7461 
 4525      00
 4526              	.LASF55:
 4527 06ad 63685F74 		.ascii	"ch_threads_list\000"
 4527      68726561 
 4527      64735F6C 
 4527      69737400 
 4528              	.LASF12:
 4529 06bd 6C6F6E67 		.ascii	"long unsigned int\000"
 4529      20756E73 
 4529      69676E65 
 4529      6420696E 
 4529      7400
 4530              	.LASF97:
 4531 06cf 63686172 		.ascii	"char\000"
 4531      00
 4532              	.LASF185:
ARM GAS  C:\Users\jo\AppData\Local\Temp\ccqPoXte.s 			page 86


 4533 06d4 2E2E2F2E 		.ascii	"../../../os/ext/lwip-1.4.1/src/core/ipv4/ip_addr.c\000"
 4533      2E2F2E2E 
 4533      2F6F732F 
 4533      6578742F 
 4533      6C776970 
 4534              	.LASF7:
 4535 0707 5F5F7569 		.ascii	"__uint16_t\000"
 4535      6E743136 
 4535      5F7400
 4536              	.LASF134:
 4537 0712 49544D53 		.ascii	"ITMStreamVMT\000"
 4537      74726561 
 4537      6D564D54 
 4537      00
 4538              	.LASF33:
 4539 071f 74687265 		.ascii	"thread_t\000"
 4539      61645F74 
 4539      00
 4540              	.LASF109:
 4541 0728 62657374 		.ascii	"best\000"
 4541      00
 4542              	.LASF127:
 4543 072d 6D5F6E65 		.ascii	"m_next\000"
 4543      787400
 4544              	.LASF32:
 4545 0734 73797374 		.ascii	"systime_t\000"
 4545      696D655F 
 4545      7400
 4546              	.LASF50:
 4547 073e 705F7265 		.ascii	"p_realprio\000"
 4547      616C7072 
 4547      696F00
 4548              	.LASF66:
 4549 0749 76746675 		.ascii	"vtfunc_t\000"
 4549      6E635F74 
 4549      00
 4550              	.LASF11:
 4551 0752 5F5F7569 		.ascii	"__uint32_t\000"
 4551      6E743332 
 4551      5F7400
 4552              	.LASF79:
 4553 075d 70616E69 		.ascii	"panic_msg\000"
 4553      635F6D73 
 4553      6700
 4554              	.LASF107:
 4555 0767 6F666673 		.ascii	"offset\000"
 4555      657400
 4556              	.LASF160:
 4557 076e 6E657469 		.ascii	"netif_input_fn\000"
 4557      665F696E 
 4557      7075745F 
 4557      666E00
 4558              	.LASF119:
 4559 077d 5F5F6170 		.ascii	"__ap\000"
 4559      00
 4560              	.LASF93:
 4561 0782 636F6E74 		.ascii	"context\000"
ARM GAS  C:\Users\jo\AppData\Local\Temp\ccqPoXte.s 			page 87


 4561      65787400 
 4562              	.LASF83:
 4563 078a 63685F73 		.ascii	"ch_system_t\000"
 4563      79737465 
 4563      6D5F7400 
 4564              	.LASF22:
 4565 0796 7274636E 		.ascii	"rtcnt_t\000"
 4565      745F7400 
 4566              	.LASF16:
 4567 079e 696E7438 		.ascii	"int8_t\000"
 4567      5F7400
 4568              	.LASF73:
 4569 07a5 76745F70 		.ascii	"vt_par\000"
 4569      617200
 4570              	.LASF139:
 4571 07ac 7531365F 		.ascii	"u16_t\000"
 4571      7400
 4572              	.LASF58:
 4573 07b2 72656164 		.ascii	"ready_list_t\000"
 4573      795F6C69 
 4573      73745F74 
 4573      00
 4574              	.LASF179:
 4575 07bf 69746D5F 		.ascii	"itm_port\000"
 4575      706F7274 
 4575      00
 4576              	.LASF57:
 4577 07c8 63685F74 		.ascii	"ch_threads_queue\000"
 4577      68726561 
 4577      64735F71 
 4577      75657565 
 4577      00
 4578              	.LASF56:
 4579 07d9 74687265 		.ascii	"threads_queue_t\000"
 4579      6164735F 
 4579      71756575 
 4579      655F7400 
 4580              	.LASF120:
 4581 07e9 7264796D 		.ascii	"rdymsg\000"
 4581      736700
 4582              	.LASF44:
 4583 07f0 705F7265 		.ascii	"p_refs\000"
 4583      667300
 4584              	.LASF80:
 4585 07f7 6973725F 		.ascii	"isr_cnt\000"
 4585      636E7400 
 4586              	.LASF167:
 4587 07ff 69706164 		.ascii	"ipaddr\000"
 4587      647200
 4588              	.LASF85:
 4589 0806 726C6973 		.ascii	"rlist\000"
 4589      7400
 4590              	.LASF17:
 4591 080c 75696E74 		.ascii	"uint8_t\000"
 4591      385F7400 
 4592              	.LASF182:
 4593 0814 63687670 		.ascii	"chvprintf\000"
ARM GAS  C:\Users\jo\AppData\Local\Temp\ccqPoXte.s 			page 88


 4593      72696E74 
 4593      6600
 4594              	.LASF150:
 4595 081e 666C6167 		.ascii	"flags\000"
 4595      7300
 4596              	.LASF122:
 4597 0824 77746F62 		.ascii	"wtobjp\000"
 4597      6A7000
 4598              	.LASF53:
 4599 082b 74687265 		.ascii	"threads_list_t\000"
 4599      6164735F 
 4599      6C697374 
 4599      5F7400
 4600              	.LASF82:
 4601 083a 74726163 		.ascii	"trace_buffer\000"
 4601      655F6275 
 4601      66666572 
 4601      00
 4602              	.LASF47:
 4603 0847 705F6D73 		.ascii	"p_msg\000"
 4603      6700
 4604              	.LASF155:
 4605 084d 6C696E6B 		.ascii	"linkoutput\000"
 4605      6F757470 
 4605      757400
 4606              	.LASF173:
 4607 0858 69706164 		.ascii	"ipaddr_addr\000"
 4607      64725F61 
 4607      64647200 
 4608              	.LASF116:
 4609 0864 6D5F6372 		.ascii	"m_crit_thd\000"
 4609      69745F74 
 4609      686400
 4610              	.LASF126:
 4611 086f 6D5F6F77 		.ascii	"m_owner\000"
 4611      6E657200 
 4612              	.LASF100:
 4613 0877 73655F77 		.ascii	"se_wtobjp\000"
 4613      746F626A 
 4613      7000
 4614              	.LASF37:
 4615 0881 705F6374 		.ascii	"p_ctx\000"
 4615      7800
 4616              	.LASF72:
 4617 0887 76745F66 		.ascii	"vt_func\000"
 4617      756E6300 
 4618              	.LASF166:
 4619 088f 6970345F 		.ascii	"ip4_addr_netmask_valid\000"
 4619      61646472 
 4619      5F6E6574 
 4619      6D61736B 
 4619      5F76616C 
 4620              	.LASF188:
 4621 08a6 63687072 		.ascii	"chprintf\000"
 4621      696E7466 
 4621      00
 4622              		.ident	"GCC: (GNU Tools for ARM Embedded Processors) 4.9.3 20141119 (release) [ARM/embedded-4_9-br
ARM GAS  C:\Users\jo\AppData\Local\Temp\ccqPoXte.s 			page 89


ARM GAS  C:\Users\jo\AppData\Local\Temp\ccqPoXte.s 			page 90


DEFINED SYMBOLS
                            *ABS*:00000000 ip_addr.c
C:\Users\jo\AppData\Local\Temp\ccqPoXte.s:19     .text.chprintf.constprop.0:00000000 $t
C:\Users\jo\AppData\Local\Temp\ccqPoXte.s:24     .text.chprintf.constprop.0:00000000 chprintf.constprop.0
C:\Users\jo\AppData\Local\Temp\ccqPoXte.s:70     .text.chprintf.constprop.0:00000020 $d
C:\Users\jo\AppData\Local\Temp\ccqPoXte.s:76     .text.ip4_addr_isbroadcast:00000000 $t
C:\Users\jo\AppData\Local\Temp\ccqPoXte.s:82     .text.ip4_addr_isbroadcast:00000000 ip4_addr_isbroadcast
C:\Users\jo\AppData\Local\Temp\ccqPoXte.s:141    .text.ip4_addr_netmask_valid:00000000 $t
C:\Users\jo\AppData\Local\Temp\ccqPoXte.s:147    .text.ip4_addr_netmask_valid:00000000 ip4_addr_netmask_valid
C:\Users\jo\AppData\Local\Temp\ccqPoXte.s:207    .text.ipaddr_aton:00000000 $t
C:\Users\jo\AppData\Local\Temp\ccqPoXte.s:213    .text.ipaddr_aton:00000000 ipaddr_aton
C:\Users\jo\AppData\Local\Temp\ccqPoXte.s:406    .text.ipaddr_aton:000000dc $d
C:\Users\jo\AppData\Local\Temp\ccqPoXte.s:411    .text.ipaddr_aton:000000f0 $t
C:\Users\jo\AppData\Local\Temp\ccqPoXte.s:491    .text.ipaddr_aton:00000154 $d
C:\Users\jo\AppData\Local\Temp\ccqPoXte.s:499    .text.ipaddr_addr:00000000 $t
C:\Users\jo\AppData\Local\Temp\ccqPoXte.s:505    .text.ipaddr_addr:00000000 ipaddr_addr
C:\Users\jo\AppData\Local\Temp\ccqPoXte.s:543    .text.ipaddr_ntoa_r:00000000 $t
C:\Users\jo\AppData\Local\Temp\ccqPoXte.s:549    .text.ipaddr_ntoa_r:00000000 ipaddr_ntoa_r
C:\Users\jo\AppData\Local\Temp\ccqPoXte.s:698    .text.ipaddr_ntoa_r:000000bc $d
C:\Users\jo\AppData\Local\Temp\ccqPoXte.s:703    .text.ipaddr_ntoa:00000000 $t
C:\Users\jo\AppData\Local\Temp\ccqPoXte.s:709    .text.ipaddr_ntoa:00000000 ipaddr_ntoa
C:\Users\jo\AppData\Local\Temp\ccqPoXte.s:725    .text.ipaddr_ntoa:00000008 $d
C:\Users\jo\AppData\Local\Temp\ccqPoXte.s:742    .rodata.ip_addr_broadcast:00000000 ip_addr_broadcast
C:\Users\jo\AppData\Local\Temp\ccqPoXte.s:757    .rodata.ip_addr_any:00000000 ip_addr_any
C:\Users\jo\AppData\Local\Temp\ccqPoXte.s:732    .bss.str.8468:00000000 $d
C:\Users\jo\AppData\Local\Temp\ccqPoXte.s:736    .bss.str.8468:00000000 str.8468
C:\Users\jo\AppData\Local\Temp\ccqPoXte.s:739    .rodata.ip_addr_broadcast:00000000 $d
C:\Users\jo\AppData\Local\Temp\ccqPoXte.s:745    .rodata.str1.4:00000000 $d
C:\Users\jo\AppData\Local\Temp\ccqPoXte.s:754    .rodata.ip_addr_any:00000000 $d
                     .debug_frame:00000010 $d
C:\Users\jo\AppData\Local\Temp\ccqPoXte.s:75     .text.chprintf.constprop.0:00000028 $t
C:\Users\jo\AppData\Local\Temp\ccqPoXte.s:498    .text.ipaddr_aton:00000164 $t
C:\Users\jo\AppData\Local\Temp\ccqPoXte.s:731    .text.ipaddr_ntoa:0000000c $t

UNDEFINED SYMBOLS
chvprintf
itm_port
lwip_htonl
chSysHalt
