ARM GAS  C:\Users\jo\AppData\Local\Temp\cczbFR3B.s 			page 1


   1              		.syntax unified
   2              		.cpu cortex-m4
   3              		.fpu softvfp
   4              		.eabi_attribute 20, 1
   5              		.eabi_attribute 21, 1
   6              		.eabi_attribute 23, 3
   7              		.eabi_attribute 24, 1
   8              		.eabi_attribute 25, 1
   9              		.eabi_attribute 26, 1
  10              		.eabi_attribute 30, 2
  11              		.eabi_attribute 34, 1
  12              		.eabi_attribute 18, 4
  13              		.thumb
  14              		.file	"ip_frag.c"
  15              		.text
  16              	.Ltext0:
  17              		.cfi_sections	.debug_frame
  18              		.section	.text.chprintf.constprop.0,"ax",%progbits
  19              		.align	2
  20              		.p2align 4,,15
  21              		.thumb
  22              		.thumb_func
  23              		.type	chprintf.constprop.0, %function
  24              	chprintf.constprop.0:
  25              	.LFB267:
  26              		.file 1 "../../../os/hal/lib/streams/chprintf.h"
  27              		.loc 1 69 0
  28              		.cfi_startproc
  29              		@ args = 4, pretend = 12, frame = 8
  30              		@ frame_needed = 0, uses_anonymous_args = 1
  31              	.LVL0:
  32 0000 0EB4     		push	{r1, r2, r3}
  33              		.cfi_def_cfa_offset 12
  34              		.cfi_offset 1, -12
  35              		.cfi_offset 2, -8
  36              		.cfi_offset 3, -4
  37 0002 00B5     		push	{lr}
  38              		.cfi_def_cfa_offset 16
  39              		.cfi_offset 14, -16
  40 0004 82B0     		sub	sp, sp, #8
  41              		.cfi_def_cfa_offset 24
  42              		.loc 1 73 0
  43 0006 04AB     		add	r3, sp, #16
  44              		.loc 1 74 0
  45 0008 1A46     		mov	r2, r3
  46 000a 0549     		ldr	r1, .L3
  47 000c 0548     		ldr	r0, .L3+4
  48              	.LVL1:
  49              		.loc 1 73 0
  50 000e 0193     		str	r3, [sp, #4]
  51              		.loc 1 74 0
  52 0010 FFF7FEFF 		bl	chvprintf
  53              	.LVL2:
  54              		.loc 1 78 0
  55 0014 02B0     		add	sp, sp, #8
  56              		.cfi_def_cfa_offset 16
  57              		@ sp needed
ARM GAS  C:\Users\jo\AppData\Local\Temp\cczbFR3B.s 			page 2


  58 0016 5DF804EB 		ldr	lr, [sp], #4
  59              		.cfi_restore 14
  60              		.cfi_def_cfa_offset 12
  61 001a 03B0     		add	sp, sp, #12
  62              		.cfi_restore 3
  63              		.cfi_restore 2
  64              		.cfi_restore 1
  65              		.cfi_def_cfa_offset 0
  66 001c 7047     		bx	lr
  67              	.L4:
  68 001e 00BF     		.align	2
  69              	.L3:
  70 0020 00000000 		.word	.LC0
  71 0024 00000000 		.word	itm_port
  72              		.cfi_endproc
  73              	.LFE267:
  74              		.size	chprintf.constprop.0, .-chprintf.constprop.0
  75 0028 AFF30080 		.section	.text.ip_frag_free_pbuf_custom_ref,"ax",%progbits
  75      AFF30080 
  76              		.align	2
  77              		.p2align 4,,15
  78              		.thumb
  79              		.thumb_func
  80              		.type	ip_frag_free_pbuf_custom_ref, %function
  81              	ip_frag_free_pbuf_custom_ref:
  82              	.LFB264:
  83              		.file 2 "../../../os/ext/lwip-1.4.1/src/core/ipv4/ip_frag.c"
  84              		.loc 2 632 0
  85              		.cfi_startproc
  86              		@ args = 0, pretend = 0, frame = 0
  87              		@ frame_needed = 0, uses_anonymous_args = 0
  88              	.LVL3:
  89 0000 10B5     		push	{r4, lr}
  90              		.cfi_def_cfa_offset 8
  91              		.cfi_offset 4, -8
  92              		.cfi_offset 14, -4
  93              		.loc 2 633 0
  94 0002 0446     		mov	r4, r0
  95              		.loc 2 632 0
  96 0004 82B0     		sub	sp, sp, #8
  97              		.cfi_def_cfa_offset 16
  98              		.loc 2 633 0
  99 0006 28B1     		cbz	r0, .L9
 100              		.loc 2 634 0
 101 0008 2046     		mov	r0, r4
 102              		.loc 2 635 0
 103 000a 02B0     		add	sp, sp, #8
 104              		.cfi_remember_state
 105              		.cfi_def_cfa_offset 8
 106              		@ sp needed
 107 000c BDE81040 		pop	{r4, lr}
 108              		.cfi_restore 14
 109              		.cfi_restore 4
 110              		.cfi_def_cfa_offset 0
 111              		.loc 2 634 0
 112 0010 FFF7FEBF 		b	free
 113              	.LVL4:
ARM GAS  C:\Users\jo\AppData\Local\Temp\cczbFR3B.s 			page 3


 114              	.L9:
 115              		.cfi_restore_state
 116              		.loc 2 633 0 discriminator 1
 117 0014 084B     		ldr	r3, .L10
 118 0016 0093     		str	r3, [sp]
 119 0018 0849     		ldr	r1, .L10+4
 120 001a 094A     		ldr	r2, .L10+8
 121 001c 0948     		ldr	r0, .L10+12
 122              	.LVL5:
 123 001e 40F27923 		movw	r3, #633
 124 0022 FFF7FEFF 		bl	chprintf.constprop.0
 125              	.LVL6:
 126              	.LBB38:
 127              	.LBB39:
 128              		.file 3 "../../../os/hal/osal/rt/osal.h"
 129              		.loc 3 414 0 discriminator 1
 130 0026 0648     		ldr	r0, .L10+8
 131 0028 FFF7FEFF 		bl	chSysHalt
 132              	.LVL7:
 133              	.LBE39:
 134              	.LBE38:
 135              		.loc 2 634 0 discriminator 1
 136 002c 2046     		mov	r0, r4
 137              		.loc 2 635 0 discriminator 1
 138 002e 02B0     		add	sp, sp, #8
 139              		.cfi_def_cfa_offset 8
 140              		@ sp needed
 141 0030 BDE81040 		pop	{r4, lr}
 142              		.cfi_restore 4
 143              		.cfi_restore 14
 144              		.cfi_def_cfa_offset 0
 145              	.LVL8:
 146              		.loc 2 634 0 discriminator 1
 147 0034 FFF7FEBF 		b	free
 148              	.LVL9:
 149              	.L11:
 150              		.align	2
 151              	.L10:
 152 0038 34000000 		.word	.LC2
 153 003c 00000000 		.word	.LC0
 154 0040 28000000 		.word	.LC1
 155 0044 00000000 		.word	itm_port
 156              		.cfi_endproc
 157              	.LFE264:
 158              		.size	ip_frag_free_pbuf_custom_ref, .-ip_frag_free_pbuf_custom_ref
 159 0048 AFF30080 		.section	.text.ipfrag_free_pbuf_custom,"ax",%progbits
 159      AFF30080 
 160              		.align	2
 161              		.p2align 4,,15
 162              		.thumb
 163              		.thumb_func
 164              		.type	ipfrag_free_pbuf_custom, %function
 165              	ipfrag_free_pbuf_custom:
 166              	.LFB265:
 167              		.loc 2 641 0
 168              		.cfi_startproc
 169              		@ args = 0, pretend = 0, frame = 0
ARM GAS  C:\Users\jo\AppData\Local\Temp\cczbFR3B.s 			page 4


 170              		@ frame_needed = 0, uses_anonymous_args = 0
 171              	.LVL10:
 172 0000 10B5     		push	{r4, lr}
 173              		.cfi_def_cfa_offset 8
 174              		.cfi_offset 4, -8
 175              		.cfi_offset 14, -4
 176              		.loc 2 643 0
 177 0002 0446     		mov	r4, r0
 178              		.loc 2 641 0
 179 0004 82B0     		sub	sp, sp, #8
 180              		.cfi_def_cfa_offset 16
 181              		.loc 2 643 0
 182 0006 48B1     		cbz	r0, .L19
 183              	.LVL11:
 184              	.L13:
 185              		.loc 2 645 0
 186 0008 6069     		ldr	r0, [r4, #20]
 187 000a 08B1     		cbz	r0, .L14
 188              		.loc 2 646 0
 189 000c FFF7FEFF 		bl	pbuf_free
 190              	.LVL12:
 191              	.L14:
 192              		.loc 2 648 0
 193 0010 2046     		mov	r0, r4
 194              		.loc 2 649 0
 195 0012 02B0     		add	sp, sp, #8
 196              		.cfi_remember_state
 197              		.cfi_def_cfa_offset 8
 198              		@ sp needed
 199 0014 BDE81040 		pop	{r4, lr}
 200              		.cfi_restore 14
 201              		.cfi_restore 4
 202              		.cfi_def_cfa_offset 0
 203              	.LVL13:
 204              		.loc 2 648 0
 205 0018 FFF7FEBF 		b	ip_frag_free_pbuf_custom_ref
 206              	.LVL14:
 207              	.L19:
 208              		.cfi_restore_state
 209              		.loc 2 643 0 discriminator 1
 210 001c 064B     		ldr	r3, .L20
 211 001e 0093     		str	r3, [sp]
 212 0020 0649     		ldr	r1, .L20+4
 213 0022 074A     		ldr	r2, .L20+8
 214 0024 0748     		ldr	r0, .L20+12
 215              	.LVL15:
 216 0026 40F28323 		movw	r3, #643
 217 002a FFF7FEFF 		bl	chprintf.constprop.0
 218              	.LVL16:
 219              	.LBB40:
 220              	.LBB41:
 221              		.loc 3 414 0 discriminator 1
 222 002e 0448     		ldr	r0, .L20+8
 223 0030 FFF7FEFF 		bl	chSysHalt
 224              	.LVL17:
 225 0034 E8E7     		b	.L13
 226              	.L21:
ARM GAS  C:\Users\jo\AppData\Local\Temp\cczbFR3B.s 			page 5


 227 0036 00BF     		.align	2
 228              	.L20:
 229 0038 34000000 		.word	.LC2
 230 003c 00000000 		.word	.LC0
 231 0040 68000000 		.word	.LC3
 232 0044 00000000 		.word	itm_port
 233              	.LBE41:
 234              	.LBE40:
 235              		.cfi_endproc
 236              	.LFE265:
 237              		.size	ipfrag_free_pbuf_custom, .-ipfrag_free_pbuf_custom
 238 0048 AFF30080 		.section	.text.ip_reass_dequeue_datagram,"ax",%progbits
 238      AFF30080 
 239              		.align	2
 240              		.p2align 4,,15
 241              		.thumb
 242              		.thumb_func
 243              		.type	ip_reass_dequeue_datagram, %function
 244              	ip_reass_dequeue_datagram:
 245              	.LFB260:
 246              		.loc 2 305 0
 247              		.cfi_startproc
 248              		@ args = 0, pretend = 0, frame = 0
 249              		@ frame_needed = 0, uses_anonymous_args = 0
 250              	.LVL18:
 251 0000 30B5     		push	{r4, r5, lr}
 252              		.cfi_def_cfa_offset 12
 253              		.cfi_offset 4, -12
 254              		.cfi_offset 5, -8
 255              		.cfi_offset 14, -4
 256              		.loc 2 308 0
 257 0002 124B     		ldr	r3, .L29
 258 0004 1A68     		ldr	r2, [r3]
 259 0006 8242     		cmp	r2, r0
 260              		.loc 2 305 0
 261 0008 83B0     		sub	sp, sp, #12
 262              		.cfi_def_cfa_offset 24
 263              		.loc 2 305 0
 264 000a 0446     		mov	r4, r0
 265              		.loc 2 308 0
 266 000c 09D0     		beq	.L27
 267 000e 0D46     		mov	r5, r1
 268              		.loc 2 313 0
 269 0010 79B1     		cbz	r1, .L28
 270              	.LVL19:
 271              	.L25:
 272              		.loc 2 314 0
 273 0012 2368     		ldr	r3, [r4]
 274 0014 2B60     		str	r3, [r5]
 275              		.loc 2 318 0
 276 0016 2046     		mov	r0, r4
 277              		.loc 2 319 0
 278 0018 03B0     		add	sp, sp, #12
 279              		.cfi_remember_state
 280              		.cfi_def_cfa_offset 12
 281              		@ sp needed
 282 001a BDE83040 		pop	{r4, r5, lr}
ARM GAS  C:\Users\jo\AppData\Local\Temp\cczbFR3B.s 			page 6


 283              		.cfi_restore 14
 284              		.cfi_restore 5
 285              		.cfi_restore 4
 286              		.cfi_def_cfa_offset 0
 287              	.LVL20:
 288              		.loc 2 318 0
 289 001e FFF7FEBF 		b	free
 290              	.LVL21:
 291              	.L27:
 292              		.cfi_restore_state
 293              		.loc 2 310 0
 294 0022 0268     		ldr	r2, [r0]
 295 0024 1A60     		str	r2, [r3]
 296              		.loc 2 318 0
 297 0026 2046     		mov	r0, r4
 298              	.LVL22:
 299              		.loc 2 319 0
 300 0028 03B0     		add	sp, sp, #12
 301              		.cfi_remember_state
 302              		.cfi_def_cfa_offset 12
 303              		@ sp needed
 304 002a BDE83040 		pop	{r4, r5, lr}
 305              		.cfi_restore 4
 306              		.cfi_restore 5
 307              		.cfi_restore 14
 308              		.cfi_def_cfa_offset 0
 309              	.LVL23:
 310              		.loc 2 318 0
 311 002e FFF7FEBF 		b	free
 312              	.LVL24:
 313              	.L28:
 314              		.cfi_restore_state
 315              		.loc 2 313 0 discriminator 1
 316 0032 074B     		ldr	r3, .L29+4
 317 0034 0093     		str	r3, [sp]
 318 0036 0749     		ldr	r1, .L29+8
 319              	.LVL25:
 320 0038 074A     		ldr	r2, .L29+12
 321 003a 0848     		ldr	r0, .L29+16
 322              	.LVL26:
 323 003c 40F23913 		movw	r3, #313
 324 0040 FFF7FEFF 		bl	chprintf.constprop.0
 325              	.LVL27:
 326              	.LBB42:
 327              	.LBB43:
 328              		.loc 3 414 0 discriminator 1
 329 0044 0448     		ldr	r0, .L29+12
 330 0046 FFF7FEFF 		bl	chSysHalt
 331              	.LVL28:
 332 004a E2E7     		b	.L25
 333              	.L30:
 334              		.align	2
 335              	.L29:
 336 004c 00000000 		.word	.LANCHOR0
 337 0050 34000000 		.word	.LC2
 338 0054 00000000 		.word	.LC0
 339 0058 74000000 		.word	.LC4
ARM GAS  C:\Users\jo\AppData\Local\Temp\cczbFR3B.s 			page 7


 340 005c 00000000 		.word	itm_port
 341              	.LBE43:
 342              	.LBE42:
 343              		.cfi_endproc
 344              	.LFE260:
 345              		.size	ip_reass_dequeue_datagram, .-ip_reass_dequeue_datagram
 346              		.section	.text.ip_reass_free_complete_datagram,"ax",%progbits
 347              		.align	2
 348              		.p2align 4,,15
 349              		.thumb
 350              		.thumb_func
 351              		.type	ip_reass_free_complete_datagram, %function
 352              	ip_reass_free_complete_datagram:
 353              	.LFB257:
 354              		.loc 2 159 0
 355              		.cfi_startproc
 356              		@ args = 0, pretend = 0, frame = 0
 357              		@ frame_needed = 0, uses_anonymous_args = 0
 358              	.LVL29:
 359 0000 2DE9F043 		push	{r4, r5, r6, r7, r8, r9, lr}
 360              		.cfi_def_cfa_offset 28
 361              		.cfi_offset 4, -28
 362              		.cfi_offset 5, -24
 363              		.cfi_offset 6, -20
 364              		.cfi_offset 7, -16
 365              		.cfi_offset 8, -12
 366              		.cfi_offset 9, -8
 367              		.cfi_offset 14, -4
 368              		.loc 2 165 0
 369 0004 8142     		cmp	r1, r0
 370              		.loc 2 159 0
 371 0006 83B0     		sub	sp, sp, #12
 372              		.cfi_def_cfa_offset 40
 373              		.loc 2 159 0
 374 0008 0746     		mov	r7, r0
 375 000a 8846     		mov	r8, r1
 376              		.loc 2 165 0
 377 000c 74D0     		beq	.L52
 378              	.LVL30:
 379              	.L32:
 380              		.loc 2 166 0
 381 000e B8F1000F 		cmp	r8, #0
 382 0012 0ED0     		beq	.L33
 383              		.loc 2 167 0
 384 0014 D8F80030 		ldr	r3, [r8]
 385 0018 BB42     		cmp	r3, r7
 386 001a 0AD0     		beq	.L33
 387              		.loc 2 167 0 is_stmt 0 discriminator 1
 388 001c 3C4B     		ldr	r3, .L54
 389 001e 0093     		str	r3, [sp]
 390 0020 3C48     		ldr	r0, .L54+4
 391 0022 3D49     		ldr	r1, .L54+8
 392 0024 3D4A     		ldr	r2, .L54+12
 393 0026 A723     		movs	r3, #167
 394 0028 FFF7FEFF 		bl	chprintf.constprop.0
 395              	.LVL31:
 396              	.LBB44:
ARM GAS  C:\Users\jo\AppData\Local\Temp\cczbFR3B.s 			page 8


 397              	.LBB45:
 398              		.loc 3 414 0 is_stmt 1 discriminator 1
 399 002c 3B48     		ldr	r0, .L54+12
 400 002e FFF7FEFF 		bl	chSysHalt
 401              	.LVL32:
 402              	.L33:
 403              	.LBE45:
 404              	.LBE44:
 405              		.loc 2 172 0
 406 0032 7D68     		ldr	r5, [r7, #4]
 407 0034 6B68     		ldr	r3, [r5, #4]
 408              	.LVL33:
 409              		.loc 2 173 0
 410 0036 9A88     		ldrh	r2, [r3, #4]	@ unaligned
 411 0038 002A     		cmp	r2, #0
 412 003a 3DD0     		beq	.L39
 413              		.loc 2 160 0
 414 003c 0026     		movs	r6, #0
 415              	.LVL34:
 416              	.L40:
 417              	.LBB46:
 418              		.loc 2 198 0
 419 003e DFF8D090 		ldr	r9, .L54
 420 0042 06E0     		b	.L36
 421              	.LVL35:
 422              	.L35:
 423              		.loc 2 200 0
 424 0044 2846     		mov	r0, r5
 425              	.LVL36:
 426              		.loc 2 199 0
 427 0046 B6B2     		uxth	r6, r6
 428              	.LVL37:
 429              		.loc 2 200 0
 430 0048 FFF7FEFF 		bl	pbuf_free
 431              	.LVL38:
 432              	.LBE46:
 433              		.loc 2 191 0
 434 004c D4B1     		cbz	r4, .L34
 435              	.L53:
 436 004e 6368     		ldr	r3, [r4, #4]
 437 0050 2546     		mov	r5, r4
 438              	.LVL39:
 439              	.L36:
 440              	.LBB49:
 441              		.loc 2 197 0
 442 0052 2846     		mov	r0, r5
 443              		.loc 2 196 0
 444 0054 1C68     		ldr	r4, [r3]	@ unaligned
 445              	.LVL40:
 446              		.loc 2 197 0
 447 0056 FFF7FEFF 		bl	pbuf_clen
 448              	.LVL41:
 449              		.loc 2 198 0
 450 005a 0644     		add	r6, r6, r0
 451              	.LVL42:
 452 005c B6F5803F 		cmp	r6, #65536
 453 0060 F0DB     		blt	.L35
ARM GAS  C:\Users\jo\AppData\Local\Temp\cczbFR3B.s 			page 9


 454              		.loc 2 198 0 is_stmt 0 discriminator 1
 455 0062 2D49     		ldr	r1, .L54+8
 456 0064 2E4A     		ldr	r2, .L54+16
 457 0066 CDF80090 		str	r9, [sp]
 458 006a C623     		movs	r3, #198
 459 006c 2948     		ldr	r0, .L54+4
 460              	.LVL43:
 461 006e FFF7FEFF 		bl	chprintf.constprop.0
 462              	.LVL44:
 463              	.LBB47:
 464              	.LBB48:
 465              		.loc 3 414 0 is_stmt 1 discriminator 1
 466 0072 2B48     		ldr	r0, .L54+16
 467 0074 FFF7FEFF 		bl	chSysHalt
 468              	.LVL45:
 469              	.LBE48:
 470              	.LBE47:
 471              		.loc 2 200 0 discriminator 1
 472 0078 2846     		mov	r0, r5
 473              		.loc 2 199 0 discriminator 1
 474 007a B6B2     		uxth	r6, r6
 475              	.LVL46:
 476              		.loc 2 200 0 discriminator 1
 477 007c FFF7FEFF 		bl	pbuf_free
 478              	.LVL47:
 479              	.LBE49:
 480              		.loc 2 191 0 discriminator 1
 481 0080 002C     		cmp	r4, #0
 482 0082 E4D1     		bne	.L53
 483              	.LVL48:
 484              	.L34:
 485              		.loc 2 204 0
 486 0084 274C     		ldr	r4, .L54+20
 487              		.loc 2 203 0
 488 0086 3846     		mov	r0, r7
 489 0088 4146     		mov	r1, r8
 490 008a FFF7FEFF 		bl	ip_reass_dequeue_datagram
 491              	.LVL49:
 492              		.loc 2 204 0
 493 008e 2388     		ldrh	r3, [r4]
 494 0090 9E42     		cmp	r6, r3
 495 0092 0BD9     		bls	.L38
 496              		.loc 2 204 0 is_stmt 0 discriminator 1
 497 0094 1E4B     		ldr	r3, .L54
 498 0096 0093     		str	r3, [sp]
 499 0098 1F49     		ldr	r1, .L54+8
 500 009a 234A     		ldr	r2, .L54+24
 501 009c 1D48     		ldr	r0, .L54+4
 502 009e CC23     		movs	r3, #204
 503 00a0 FFF7FEFF 		bl	chprintf.constprop.0
 504              	.LVL50:
 505              	.LBB50:
 506              	.LBB51:
 507              		.loc 3 414 0 is_stmt 1 discriminator 1
 508 00a4 2048     		ldr	r0, .L54+24
 509 00a6 FFF7FEFF 		bl	chSysHalt
 510              	.LVL51:
ARM GAS  C:\Users\jo\AppData\Local\Temp\cczbFR3B.s 			page 10


 511 00aa 2388     		ldrh	r3, [r4]
 512              	.LVL52:
 513              	.L38:
 514              	.LBE51:
 515              	.LBE50:
 516              		.loc 2 205 0
 517 00ac 9B1B     		subs	r3, r3, r6
 518              		.loc 2 208 0
 519 00ae 3046     		mov	r0, r6
 520              		.loc 2 205 0
 521 00b0 2380     		strh	r3, [r4]	@ movhi
 522              		.loc 2 208 0
 523 00b2 03B0     		add	sp, sp, #12
 524              		.cfi_remember_state
 525              		.cfi_def_cfa_offset 28
 526              		@ sp needed
 527 00b4 BDE8F083 		pop	{r4, r5, r6, r7, r8, r9, pc}
 528              	.LVL53:
 529              	.L39:
 530              		.cfi_restore_state
 531              		.loc 2 177 0
 532 00b8 1A68     		ldr	r2, [r3]	@ unaligned
 533 00ba 7A60     		str	r2, [r7, #4]
 534              		.loc 2 179 0
 535 00bc 3A46     		mov	r2, r7
 536              		.loc 2 180 0
 537 00be 2846     		mov	r0, r5
 538              		.loc 2 179 0
 539 00c0 52F8081F 		ldr	r1, [r2, #8]!	@ unaligned
 540 00c4 5668     		ldr	r6, [r2, #4]	@ unaligned
 541 00c6 9468     		ldr	r4, [r2, #8]	@ unaligned
 542 00c8 D2F80CE0 		ldr	lr, [r2, #12]	@ unaligned
 543 00cc C3F80CE0 		str	lr, [r3, #12]	@ unaligned
 544 00d0 5E60     		str	r6, [r3, #4]	@ unaligned
 545 00d2 1960     		str	r1, [r3]	@ unaligned
 546 00d4 9C60     		str	r4, [r3, #8]	@ unaligned
 547 00d6 1169     		ldr	r1, [r2, #16]	@ unaligned
 548 00d8 1961     		str	r1, [r3, #16]	@ unaligned
 549              		.loc 2 180 0
 550 00da 0121     		movs	r1, #1
 551 00dc FFF7FEFF 		bl	icmp_time_exceeded
 552              	.LVL54:
 553              		.loc 2 181 0
 554 00e0 2846     		mov	r0, r5
 555 00e2 FFF7FEFF 		bl	pbuf_clen
 556              	.LVL55:
 557              		.loc 2 183 0
 558 00e6 86B2     		uxth	r6, r0
 559              	.LVL56:
 560              		.loc 2 184 0
 561 00e8 2846     		mov	r0, r5
 562              	.LVL57:
 563 00ea FFF7FEFF 		bl	pbuf_free
 564              	.LVL58:
 565              		.loc 2 190 0
 566 00ee 7D68     		ldr	r5, [r7, #4]
 567              	.LVL59:
ARM GAS  C:\Users\jo\AppData\Local\Temp\cczbFR3B.s 			page 11


 568              		.loc 2 191 0
 569 00f0 002D     		cmp	r5, #0
 570 00f2 C7D0     		beq	.L34
 571 00f4 6B68     		ldr	r3, [r5, #4]
 572 00f6 A2E7     		b	.L40
 573              	.LVL60:
 574              	.L52:
 575              		.loc 2 165 0 discriminator 1
 576 00f8 054B     		ldr	r3, .L54
 577 00fa 0093     		str	r3, [sp]
 578 00fc 0649     		ldr	r1, .L54+8
 579              	.LVL61:
 580 00fe 0B4A     		ldr	r2, .L54+28
 581 0100 0448     		ldr	r0, .L54+4
 582              	.LVL62:
 583 0102 A523     		movs	r3, #165
 584 0104 FFF7FEFF 		bl	chprintf.constprop.0
 585              	.LVL63:
 586              	.LBB52:
 587              	.LBB53:
 588              		.loc 3 414 0 discriminator 1
 589 0108 0848     		ldr	r0, .L54+28
 590 010a FFF7FEFF 		bl	chSysHalt
 591              	.LVL64:
 592 010e 7EE7     		b	.L32
 593              	.L55:
 594              		.align	2
 595              	.L54:
 596 0110 34000000 		.word	.LC2
 597 0114 00000000 		.word	itm_port
 598 0118 00000000 		.word	.LC0
 599 011c 9C000000 		.word	.LC6
 600 0120 B0000000 		.word	.LC7
 601 0124 00000000 		.word	.LANCHOR1
 602 0128 D0000000 		.word	.LC8
 603 012c 90000000 		.word	.LC5
 604              	.LBE53:
 605              	.LBE52:
 606              		.cfi_endproc
 607              	.LFE257:
 608              		.size	ip_reass_free_complete_datagram, .-ip_reass_free_complete_datagram
 609              		.section	.text.ip_reass_remove_oldest_datagram,"ax",%progbits
 610              		.align	2
 611              		.p2align 4,,15
 612              		.thumb
 613              		.thumb_func
 614              		.type	ip_reass_remove_oldest_datagram, %function
 615              	ip_reass_remove_oldest_datagram:
 616              	.LFB258:
 617              		.loc 2 222 0
 618              		.cfi_startproc
 619              		@ args = 0, pretend = 0, frame = 0
 620              		@ frame_needed = 0, uses_anonymous_args = 0
 621              	.LVL65:
 622 0000 2DE9F843 		push	{r3, r4, r5, r6, r7, r8, r9, lr}
 623              		.cfi_def_cfa_offset 32
 624              		.cfi_offset 3, -32
ARM GAS  C:\Users\jo\AppData\Local\Temp\cczbFR3B.s 			page 12


 625              		.cfi_offset 4, -28
 626              		.cfi_offset 5, -24
 627              		.cfi_offset 6, -20
 628              		.cfi_offset 7, -16
 629              		.cfi_offset 8, -12
 630              		.cfi_offset 9, -8
 631              		.cfi_offset 14, -4
 632 0004 1B4E     		ldr	r6, .L81
 633              		.loc 2 222 0
 634 0006 8046     		mov	r8, r0
 635 0008 0D46     		mov	r5, r1
 636              		.loc 2 227 0
 637 000a 4FF00009 		mov	r9, #0
 638              	.LVL66:
 639              	.L63:
 640              		.loc 2 236 0
 641 000e 3368     		ldr	r3, [r6]
 642              	.LVL67:
 643              		.loc 2 237 0
 644 0010 63B3     		cbz	r3, .L72
 645 0012 0024     		movs	r4, #0
 646 0014 2146     		mov	r1, r4
 647 0016 2046     		mov	r0, r4
 648 0018 D8F80CE0 		ldr	lr, [r8, #12]	@ unaligned
 649 001c 0AE0     		b	.L60
 650              	.LVL68:
 651              	.L58:
 652              		.loc 2 240 0
 653 001e 0134     		adds	r4, r4, #1
 654              	.LVL69:
 655              		.loc 2 241 0
 656 0020 C0B1     		cbz	r0, .L69
 657              	.L80:
 658              		.loc 2 243 0
 659 0022 DF7F     		ldrb	r7, [r3, #31]	@ zero_extendqisi2
 660 0024 C27F     		ldrb	r2, [r0, #31]	@ zero_extendqisi2
 661 0026 9742     		cmp	r7, r2
 662 0028 98BF     		it	ls
 663 002a 1846     		movls	r0, r3
 664              	.LVL70:
 665              	.L59:
 666              		.loc 2 248 0
 667 002c 1A68     		ldr	r2, [r3]
 668 002e AAB1     		cbz	r2, .L79
 669              	.L70:
 670 0030 1946     		mov	r1, r3
 671 0032 1346     		mov	r3, r2
 672              	.LVL71:
 673              	.L60:
 674              		.loc 2 238 0
 675 0034 5A69     		ldr	r2, [r3, #20]
 676 0036 7245     		cmp	r2, lr
 677 0038 F1D1     		bne	.L58
 678              		.loc 2 238 0 is_stmt 0 discriminator 1
 679 003a D8F81070 		ldr	r7, [r8, #16]	@ unaligned
 680 003e 9A69     		ldr	r2, [r3, #24]
 681 0040 BA42     		cmp	r2, r7
ARM GAS  C:\Users\jo\AppData\Local\Temp\cczbFR3B.s 			page 13


 682 0042 ECD1     		bne	.L58
 683              		.loc 2 238 0 discriminator 2
 684 0044 9F89     		ldrh	r7, [r3, #12]
 685 0046 B8F80420 		ldrh	r2, [r8, #4]	@ unaligned
 686 004a 9742     		cmp	r7, r2
 687 004c EED0     		beq	.L59
 688              		.loc 2 240 0 is_stmt 1
 689 004e 0134     		adds	r4, r4, #1
 690              	.LVL72:
 691              		.loc 2 241 0
 692 0050 0028     		cmp	r0, #0
 693 0052 E6D1     		bne	.L80
 694              	.L69:
 695              		.loc 2 248 0
 696 0054 1A68     		ldr	r2, [r3]
 697 0056 1846     		mov	r0, r3
 698              	.LVL73:
 699 0058 002A     		cmp	r2, #0
 700 005a E9D1     		bne	.L70
 701              	.L79:
 702              	.LVL74:
 703              		.loc 2 253 0
 704 005c 10B1     		cbz	r0, .L66
 705              		.loc 2 254 0
 706 005e FFF7FEFF 		bl	ip_reass_free_complete_datagram
 707              	.LVL75:
 708              		.loc 2 255 0
 709 0062 8144     		add	r9, r9, r0
 710              	.LVL76:
 711              	.L66:
 712              		.loc 2 257 0
 713 0064 A945     		cmp	r9, r5
 714 0066 01DA     		bge	.L72
 715              		.loc 2 257 0 is_stmt 0 discriminator 1
 716 0068 012C     		cmp	r4, #1
 717 006a D0DC     		bgt	.L63
 718              	.LVL77:
 719              	.L72:
 720              		.loc 2 259 0 is_stmt 1
 721 006c 4846     		mov	r0, r9
 722 006e BDE8F883 		pop	{r3, r4, r5, r6, r7, r8, r9, pc}
 723              	.LVL78:
 724              	.L82:
 725 0072 00BF     		.align	2
 726              	.L81:
 727 0074 00000000 		.word	.LANCHOR0
 728              		.cfi_endproc
 729              	.LFE258:
 730              		.size	ip_reass_remove_oldest_datagram, .-ip_reass_remove_oldest_datagram
 731 0078 AFF30080 		.section	.text.ip_reass_tmr,"ax",%progbits
 731      AFF30080 
 732              		.align	2
 733              		.p2align 4,,15
 734              		.global	ip_reass_tmr
 735              		.thumb
 736              		.thumb_func
 737              		.type	ip_reass_tmr, %function
ARM GAS  C:\Users\jo\AppData\Local\Temp\cczbFR3B.s 			page 14


 738              	ip_reass_tmr:
 739              	.LFB256:
 740              		.loc 2 123 0
 741              		.cfi_startproc
 742              		@ args = 0, pretend = 0, frame = 0
 743              		@ frame_needed = 0, uses_anonymous_args = 0
 744              	.LVL79:
 745 0000 38B5     		push	{r3, r4, r5, lr}
 746              		.cfi_def_cfa_offset 16
 747              		.cfi_offset 3, -16
 748              		.cfi_offset 4, -12
 749              		.cfi_offset 5, -8
 750              		.cfi_offset 14, -4
 751              		.loc 2 126 0
 752 0002 0A4B     		ldr	r3, .L91
 753 0004 1868     		ldr	r0, [r3]
 754              	.LVL80:
 755              		.loc 2 127 0
 756 0006 40B1     		cbz	r0, .L83
 757 0008 0024     		movs	r4, #0
 758              	.LVL81:
 759              	.L87:
 760              		.loc 2 130 0
 761 000a C37F     		ldrb	r3, [r0, #31]	@ zero_extendqisi2
 762              		.loc 2 131 0
 763 000c 5A1E     		subs	r2, r3, #1
 764              		.loc 2 130 0
 765 000e 2BB1     		cbz	r3, .L85
 766              		.loc 2 131 0
 767 0010 C277     		strb	r2, [r0, #31]
 768              	.LVL82:
 769 0012 0446     		mov	r4, r0
 770              		.loc 2 134 0
 771 0014 0068     		ldr	r0, [r0]
 772              	.LVL83:
 773              		.loc 2 127 0
 774 0016 0028     		cmp	r0, #0
 775 0018 F7D1     		bne	.L87
 776              	.LVL84:
 777              	.L83:
 778 001a 38BD     		pop	{r3, r4, r5, pc}
 779              	.LVL85:
 780              	.L85:
 781              	.LBB54:
 782              		.loc 2 141 0
 783 001c 0568     		ldr	r5, [r0]
 784              	.LVL86:
 785              		.loc 2 143 0
 786 001e 2146     		mov	r1, r4
 787 0020 FFF7FEFF 		bl	ip_reass_free_complete_datagram
 788              	.LVL87:
 789              		.loc 2 141 0
 790 0024 2846     		mov	r0, r5
 791              	.LBE54:
 792              		.loc 2 127 0
 793 0026 0028     		cmp	r0, #0
 794 0028 EFD1     		bne	.L87
ARM GAS  C:\Users\jo\AppData\Local\Temp\cczbFR3B.s 			page 15


 795 002a F6E7     		b	.L83
 796              	.L92:
 797              		.align	2
 798              	.L91:
 799 002c 00000000 		.word	.LANCHOR0
 800              		.cfi_endproc
 801              	.LFE256:
 802              		.size	ip_reass_tmr, .-ip_reass_tmr
 803              		.section	.text.ip_reass,"ax",%progbits
 804              		.align	2
 805              		.p2align 4,,15
 806              		.global	ip_reass
 807              		.thumb
 808              		.thumb_func
 809              		.type	ip_reass, %function
 810              	ip_reass:
 811              	.LFB262:
 812              		.loc 2 477 0
 813              		.cfi_startproc
 814              		@ args = 0, pretend = 0, frame = 24
 815              		@ frame_needed = 0, uses_anonymous_args = 0
 816              	.LVL88:
 817 0000 2DE9F04F 		push	{r4, r5, r6, r7, r8, r9, r10, fp, lr}
 818              		.cfi_def_cfa_offset 36
 819              		.cfi_offset 4, -36
 820              		.cfi_offset 5, -32
 821              		.cfi_offset 6, -28
 822              		.cfi_offset 7, -24
 823              		.cfi_offset 8, -20
 824              		.cfi_offset 9, -16
 825              		.cfi_offset 10, -12
 826              		.cfi_offset 11, -8
 827              		.cfi_offset 14, -4
 828              		.loc 2 486 0
 829 0004 DFF884B3 		ldr	fp, .L172+24
 830              		.loc 2 489 0
 831 0008 4568     		ldr	r5, [r0, #4]
 832              	.LVL89:
 833              		.loc 2 486 0
 834 000a BBF83220 		ldrh	r2, [fp, #50]
 835 000e 0132     		adds	r2, r2, #1
 836 0010 ABF83220 		strh	r2, [fp, #50]	@ movhi
 837              		.loc 2 491 0
 838 0014 2A78     		ldrb	r2, [r5]	@ zero_extendqisi2
 839 0016 02F00F02 		and	r2, r2, #15
 840 001a 052A     		cmp	r2, #5
 841              		.loc 2 477 0
 842 001c 89B0     		sub	sp, sp, #36
 843              		.cfi_def_cfa_offset 72
 844              		.loc 2 477 0
 845 001e 0646     		mov	r6, r0
 846              		.loc 2 491 0
 847 0020 40F0EF80 		bne	.L166
 848              		.loc 2 497 0
 849 0024 E888     		ldrh	r0, [r5, #6]	@ unaligned
 850              	.LVL90:
 851              		.loc 2 502 0
ARM GAS  C:\Users\jo\AppData\Local\Temp\cczbFR3B.s 			page 16


 852 0026 DFF86883 		ldr	r8, .L172+28
 853              		.loc 2 497 0
 854 002a FFF7FEFF 		bl	lwip_ntohs
 855              	.LVL91:
 856 002e 0590     		str	r0, [sp, #20]
 857              	.LVL92:
 858              		.loc 2 498 0
 859 0030 6888     		ldrh	r0, [r5, #2]	@ unaligned
 860 0032 FFF7FEFF 		bl	lwip_ntohs
 861              	.LVL93:
 862 0036 2B78     		ldrb	r3, [r5]	@ zero_extendqisi2
 863 0038 0690     		str	r0, [sp, #24]
 864              		.loc 2 501 0
 865 003a 3046     		mov	r0, r6
 866              		.loc 2 498 0
 867 003c 0793     		str	r3, [sp, #28]
 868              	.LVL94:
 869              		.loc 2 501 0
 870 003e FFF7FEFF 		bl	pbuf_clen
 871              	.LVL95:
 872              		.loc 2 502 0
 873 0042 B8F80020 		ldrh	r2, [r8]
 874 0046 0244     		add	r2, r2, r0
 875 0048 0A2A     		cmp	r2, #10
 876              		.loc 2 501 0
 877 004a 8246     		mov	r10, r0
 878              	.LVL96:
 879              		.loc 2 502 0
 880 004c 00F30081 		bgt	.L167
 881              	.LVL97:
 882              	.L96:
 883              		.loc 2 520 0
 884 0050 C84B     		ldr	r3, .L172
 885 0052 1968     		ldr	r1, [r3]
 886              	.LVL98:
 887 0054 0029     		cmp	r1, #0
 888 0056 00F0A680 		beq	.L136
 889 005a EF68     		ldr	r7, [r5, #12]	@ unaligned
 890 005c 0C46     		mov	r4, r1
 891 005e 4FF0000E 		mov	lr, #0
 892 0062 05E0     		b	.L102
 893              	.LVL99:
 894              	.L99:
 895              		.loc 2 520 0 is_stmt 0 discriminator 2
 896 0064 2268     		ldr	r2, [r4]
 897              	.LVL100:
 898 0066 A646     		mov	lr, r4
 899 0068 002A     		cmp	r2, #0
 900 006a 00F09D80 		beq	.L98
 901 006e 1446     		mov	r4, r2
 902              	.LVL101:
 903              	.L102:
 904              		.loc 2 524 0 is_stmt 1
 905 0070 6269     		ldr	r2, [r4, #20]
 906 0072 BA42     		cmp	r2, r7
 907 0074 F6D1     		bne	.L99
 908              		.loc 2 524 0 is_stmt 0 discriminator 1
ARM GAS  C:\Users\jo\AppData\Local\Temp\cczbFR3B.s 			page 17


 909 0076 2A69     		ldr	r2, [r5, #16]	@ unaligned
 910 0078 A069     		ldr	r0, [r4, #24]
 911 007a 9042     		cmp	r0, r2
 912 007c F2D1     		bne	.L99
 913              		.loc 2 524 0 discriminator 2
 914 007e A089     		ldrh	r0, [r4, #12]
 915 0080 AA88     		ldrh	r2, [r5, #4]	@ unaligned
 916 0082 9042     		cmp	r0, r2
 917 0084 EED1     		bne	.L99
 918              		.loc 2 527 0 is_stmt 1
 919 0086 BBF84620 		ldrh	r2, [fp, #70]
 920 008a 0132     		adds	r2, r2, #1
 921 008c ABF84620 		strh	r2, [fp, #70]	@ movhi
 922              		.loc 2 541 0
 923 0090 E888     		ldrh	r0, [r5, #6]	@ unaligned
 924 0092 2746     		mov	r7, r4
 925 0094 7446     		mov	r4, lr
 926              	.LVL102:
 927 0096 FFF7FEFF 		bl	lwip_ntohs
 928              	.LVL103:
 929 009a C0F30C00 		ubfx	r0, r0, #0, #13
 930 009e 88B9     		cbnz	r0, .L101
 931              		.loc 2 542 0 discriminator 1
 932 00a0 F889     		ldrh	r0, [r7, #14]
 933 00a2 FFF7FEFF 		bl	lwip_ntohs
 934              	.LVL104:
 935              		.loc 2 541 0 discriminator 1
 936 00a6 C0F30C00 		ubfx	r0, r0, #0, #13
 937 00aa 58B1     		cbz	r0, .L101
 938              		.loc 2 547 0
 939 00ac 2A68     		ldr	r2, [r5]	@ unaligned
 940 00ae D5F804E0 		ldr	lr, [r5, #4]	@ unaligned
 941 00b2 A868     		ldr	r0, [r5, #8]	@ unaligned
 942 00b4 E968     		ldr	r1, [r5, #12]	@ unaligned
 943 00b6 7961     		str	r1, [r7, #20]	@ unaligned
 944 00b8 BA60     		str	r2, [r7, #8]	@ unaligned
 945 00ba C7F80CE0 		str	lr, [r7, #12]	@ unaligned
 946 00be 3861     		str	r0, [r7, #16]	@ unaligned
 947 00c0 2A69     		ldr	r2, [r5, #16]	@ unaligned
 948 00c2 BA61     		str	r2, [r7, #24]	@ unaligned
 949              	.LVL105:
 950              	.L101:
 951              		.loc 2 552 0
 952 00c4 B8F80030 		ldrh	r3, [r8]
 953 00c8 0AEB030C 		add	ip, r10, r3
 954 00cc A8F800C0 		strh	ip, [r8]	@ movhi
 955              		.loc 2 558 0
 956 00d0 EB88     		ldrh	r3, [r5, #6]	@ unaligned
 957 00d2 9906     		lsls	r1, r3, #26
 958 00d4 10D4     		bmi	.L105
 959              		.loc 2 498 0
 960 00d6 079B     		ldr	r3, [sp, #28]
 961 00d8 0699     		ldr	r1, [sp, #24]
 962              		.loc 2 559 0
 963 00da BA7F     		ldrb	r2, [r7, #30]	@ zero_extendqisi2
 964              		.loc 2 498 0
 965 00dc 03F00F03 		and	r3, r3, #15
ARM GAS  C:\Users\jo\AppData\Local\Temp\cczbFR3B.s 			page 18


 966 00e0 C3EB8333 		rsb	r3, r3, r3, lsl #14
 967 00e4 01EB830B 		add	fp, r1, r3, lsl #2
 968              		.loc 2 560 0
 969 00e8 059B     		ldr	r3, [sp, #20]
 970 00ea 0BEBC30A 		add	r10, fp, r3, lsl #3
 971              		.loc 2 559 0
 972 00ee 42F00103 		orr	r3, r2, #1
 973              		.loc 2 560 0
 974 00f2 A7F81CA0 		strh	r10, [r7, #28]	@ movhi
 975              		.loc 2 559 0
 976 00f6 BB77     		strb	r3, [r7, #30]
 977              	.L105:
 978              	.LVL106:
 979              	.LBB71:
 980              	.LBB72:
 981              		.loc 2 340 0
 982 00f8 D6F80490 		ldr	r9, [r6, #4]
 983              	.LVL107:
 984              		.loc 2 341 0
 985 00fc B9F80200 		ldrh	r0, [r9, #2]	@ unaligned
 986 0100 FFF7FEFF 		bl	lwip_ntohs
 987              	.LVL108:
 988 0104 99F80030 		ldrb	r3, [r9]	@ zero_extendqisi2
 989 0108 03F00F03 		and	r3, r3, #15
 990 010c C3EB8333 		rsb	r3, r3, r3, lsl #14
 991 0110 00EB8305 		add	r5, r0, r3, lsl #2
 992              	.LVL109:
 993              		.loc 2 342 0
 994 0114 B9F80600 		ldrh	r0, [r9, #6]	@ unaligned
 995 0118 FFF7FEFF 		bl	lwip_ntohs
 996              	.LVL110:
 997 011c C0F30C00 		ubfx	r0, r0, #0, #13
 998 0120 C000     		lsls	r0, r0, #3
 999              		.loc 2 341 0
 1000 0122 ADB2     		uxth	r5, r5
 1001              	.LVL111:
 1002              		.loc 2 349 0
 1003 0124 D6F804A0 		ldr	r10, [r6, #4]
 1004              	.LVL112:
 1005              		.loc 2 356 0
 1006 0128 7A68     		ldr	r2, [r7, #4]
 1007              		.loc 2 351 0
 1008 012a AAF80400 		strh	r0, [r10, #4]	@ unaligned
 1009              		.loc 2 352 0
 1010 012e 05EB000E 		add	lr, r5, r0
 1011              		.loc 2 350 0
 1012 0132 0023     		movs	r3, #0
 1013              		.loc 2 352 0
 1014 0134 1FFA8EFE 		uxth	lr, lr
 1015 0138 AAF806E0 		strh	lr, [r10, #6]	@ unaligned
 1016              	.LVL113:
 1017              		.loc 2 350 0
 1018 013c 8AF80030 		strb	r3, [r10]
 1019 0140 8AF80130 		strb	r3, [r10, #1]
 1020 0144 8AF80230 		strb	r3, [r10, #2]
 1021 0148 8AF80330 		strb	r3, [r10, #3]
 1022              		.loc 2 356 0
ARM GAS  C:\Users\jo\AppData\Local\Temp\cczbFR3B.s 			page 19


 1023 014c 002A     		cmp	r2, #0
 1024 014e 00F03781 		beq	.L106
 1025              		.loc 2 357 0
 1026 0152 5568     		ldr	r5, [r2, #4]
 1027              	.LVL114:
 1028              		.loc 2 358 0
 1029 0154 AB88     		ldrh	r3, [r5, #4]	@ unaligned
 1030 0156 9842     		cmp	r0, r3
 1031 0158 C0F01C81 		bcc	.L107
 1032              		.loc 2 375 0
 1033 015c 69D0     		beq	.L108
 1034              		.loc 2 379 0
 1035 015e EB88     		ldrh	r3, [r5, #6]	@ unaligned
 1036 0160 8342     		cmp	r3, r0
 1037 0162 66D8     		bhi	.L108
 1038 0164 4FF00109 		mov	r9, #1
 1039              	.LVL115:
 1040 0168 0DE0     		b	.L109
 1041              	.LVL116:
 1042              	.L113:
 1043              		.loc 2 357 0
 1044 016a 5368     		ldr	r3, [r2, #4]
 1045              	.LVL117:
 1046              		.loc 2 358 0
 1047 016c 9988     		ldrh	r1, [r3, #4]	@ unaligned
 1048 016e 8842     		cmp	r0, r1
 1049 0170 58D3     		bcc	.L168
 1050              		.loc 2 375 0
 1051 0172 5ED0     		beq	.L108
 1052              		.loc 2 379 0
 1053 0174 DA88     		ldrh	r2, [r3, #6]	@ unaligned
 1054              	.LVL118:
 1055 0176 8242     		cmp	r2, r0
 1056 0178 5BD8     		bhi	.L108
 1057              		.loc 2 386 0
 1058 017a EA88     		ldrh	r2, [r5, #6]	@ unaligned
 1059              		.loc 2 379 0
 1060 017c 1D46     		mov	r5, r3
 1061              	.LVL119:
 1062              		.loc 2 389 0
 1063 017e 8A42     		cmp	r2, r1
 1064 0180 18BF     		it	ne
 1065 0182 4FF00009 		movne	r9, #0
 1066              	.LVL120:
 1067              	.L109:
 1068              		.loc 2 393 0
 1069 0186 2A68     		ldr	r2, [r5]	@ unaligned
 1070              	.LVL121:
 1071              		.loc 2 356 0
 1072 0188 002A     		cmp	r2, #0
 1073 018a EED1     		bne	.L113
 1074              		.loc 2 403 0
 1075 018c EB88     		ldrh	r3, [r5, #6]	@ unaligned
 1076 018e 9842     		cmp	r0, r3
 1077 0190 C0F00681 		bcc	.L169
 1078              	.LVL122:
 1079              	.L134:
ARM GAS  C:\Users\jo\AppData\Local\Temp\cczbFR3B.s 			page 20


 1080              		.loc 2 406 0
 1081 0194 8342     		cmp	r3, r0
 1082              		.loc 2 405 0
 1083 0196 2E60     		str	r6, [r5]	@ unaligned
 1084              		.loc 2 406 0
 1085 0198 69D0     		beq	.L116
 1086              	.LVL123:
 1087              		.loc 2 421 0
 1088 019a BB7F     		ldrb	r3, [r7, #30]	@ zero_extendqisi2
 1089 019c 13F00103 		ands	r3, r3, #1
 1090 01a0 52D1     		bne	.L120
 1091              	.LBE72:
 1092              	.LBE71:
 1093              		.loc 2 606 0
 1094 01a2 1846     		mov	r0, r3
 1095 01a4 3BE0     		b	.L156
 1096              	.LVL124:
 1097              	.L136:
 1098              		.loc 2 484 0
 1099 01a6 0C46     		mov	r4, r1
 1100              	.LVL125:
 1101              	.L98:
 1102              	.LBB85:
 1103              	.LBB86:
 1104              		.loc 2 273 0
 1105 01a8 7348     		ldr	r0, .L172+4
 1106 01aa 0393     		str	r3, [sp, #12]
 1107 01ac B0F80890 		ldrh	r9, [r0, #8]
 1108 01b0 0491     		str	r1, [sp, #16]
 1109 01b2 4846     		mov	r0, r9
 1110 01b4 FFF7FEFF 		bl	malloc
 1111              	.LVL126:
 1112              		.loc 2 274 0
 1113 01b8 039B     		ldr	r3, [sp, #12]
 1114 01ba 0746     		mov	r7, r0
 1115 01bc 0028     		cmp	r0, #0
 1116 01be 00F0CA80 		beq	.L129
 1117              	.LBE86:
 1118              	.LBE85:
 1119              		.loc 2 520 0
 1120 01c2 0499     		ldr	r1, [sp, #16]
 1121              	.L130:
 1122              	.LBB90:
 1123              	.LBB87:
 1124              		.loc 2 292 0
 1125 01c4 1F60     		str	r7, [r3]
 1126              		.loc 2 287 0
 1127 01c6 07F10803 		add	r3, r7, #8
 1128 01ca 0022     		movs	r2, #0
 1129 01cc 7A60     		str	r2, [r7, #4]
 1130 01ce 43F8042B 		str	r2, [r3], #4
 1131 01d2 43F8042B 		str	r2, [r3], #4
 1132 01d6 43F8042B 		str	r2, [r3], #4
 1133 01da 43F8042B 		str	r2, [r3], #4
 1134 01de 43F8042B 		str	r2, [r3], #4
 1135              		.loc 2 288 0
 1136 01e2 0320     		movs	r0, #3
ARM GAS  C:\Users\jo\AppData\Local\Temp\cczbFR3B.s 			page 21


 1137              	.LVL127:
 1138              		.loc 2 287 0
 1139 01e4 1A60     		str	r2, [r3]
 1140              		.loc 2 291 0
 1141 01e6 3960     		str	r1, [r7]
 1142              		.loc 2 288 0
 1143 01e8 F877     		strb	r0, [r7, #31]
 1144              		.loc 2 295 0
 1145 01ea 2868     		ldr	r0, [r5]	@ unaligned
 1146 01ec 6968     		ldr	r1, [r5, #4]	@ unaligned
 1147 01ee AA68     		ldr	r2, [r5, #8]	@ unaligned
 1148 01f0 EB68     		ldr	r3, [r5, #12]	@ unaligned
 1149 01f2 07F1080E 		add	lr, r7, #8
 1150 01f6 AEE80F00 		stmia	lr!, {r0, r1, r2, r3}
 1151 01fa 2869     		ldr	r0, [r5, #16]	@ unaligned
 1152 01fc CEF80000 		str	r0, [lr]	@ unaligned
 1153 0200 60E7     		b	.L101
 1154              	.LVL128:
 1155              	.L166:
 1156              	.LBE87:
 1157              	.LBE90:
 1158              		.loc 2 493 0
 1159 0202 BBF84420 		ldrh	r2, [fp, #68]
 1160 0206 0132     		adds	r2, r2, #1
 1161 0208 ABF84420 		strh	r2, [fp, #68]	@ movhi
 1162              	.LVL129:
 1163              	.L95:
 1164              		.loc 2 610 0
 1165 020c BBF83620 		ldrh	r2, [fp, #54]
 1166              		.loc 2 611 0
 1167 0210 3046     		mov	r0, r6
 1168              		.loc 2 610 0
 1169 0212 0132     		adds	r2, r2, #1
 1170 0214 ABF83620 		strh	r2, [fp, #54]	@ movhi
 1171              		.loc 2 611 0
 1172 0218 FFF7FEFF 		bl	pbuf_free
 1173              	.LVL130:
 1174              		.loc 2 612 0
 1175 021c 0020     		movs	r0, #0
 1176              	.LVL131:
 1177              	.L156:
 1178              		.loc 2 613 0
 1179 021e 09B0     		add	sp, sp, #36
 1180              		.cfi_remember_state
 1181              		.cfi_def_cfa_offset 36
 1182              		@ sp needed
 1183 0220 BDE8F08F 		pop	{r4, r5, r6, r7, r8, r9, r10, fp, pc}
 1184              	.LVL132:
 1185              	.L168:
 1186              		.cfi_restore_state
 1187              	.LBB91:
 1188              	.LBB81:
 1189              		.loc 2 360 0
 1190 0224 CAF80020 		str	r2, [r10]	@ unaligned
 1191              		.loc 2 364 0
 1192 0228 EB88     		ldrh	r3, [r5, #6]	@ unaligned
 1193              	.LVL133:
ARM GAS  C:\Users\jo\AppData\Local\Temp\cczbFR3B.s 			page 22


 1194 022a 8342     		cmp	r3, r0
 1195 022c 01D8     		bhi	.L108
 1196 022e 8E45     		cmp	lr, r1
 1197 0230 1CD9     		bls	.L170
 1198              	.LVL134:
 1199              	.L108:
 1200              	.LDL1:
 1201              		.loc 2 463 0
 1202 0232 3046     		mov	r0, r6
 1203              	.LVL135:
 1204 0234 FFF7FEFF 		bl	pbuf_clen
 1205              	.LVL136:
 1206 0238 B8F80030 		ldrh	r3, [r8]
 1207 023c 1B1A     		subs	r3, r3, r0
 1208              		.loc 2 464 0
 1209 023e 3046     		mov	r0, r6
 1210              		.loc 2 463 0
 1211 0240 A8F80030 		strh	r3, [r8]	@ movhi
 1212              		.loc 2 464 0
 1213 0244 FFF7FEFF 		bl	pbuf_free
 1214              	.LVL137:
 1215              	.L120:
 1216              	.LBE81:
 1217              	.LBE91:
 1218              		.loc 2 606 0
 1219 0248 0020     		movs	r0, #0
 1220              		.loc 2 613 0
 1221 024a 09B0     		add	sp, sp, #36
 1222              		.cfi_remember_state
 1223              		.cfi_def_cfa_offset 36
 1224              		@ sp needed
 1225 024c BDE8F08F 		pop	{r4, r5, r6, r7, r8, r9, r10, fp, pc}
 1226              	.LVL138:
 1227              	.L167:
 1228              		.cfi_restore_state
 1229              		.loc 2 504 0
 1230 0250 2846     		mov	r0, r5
 1231              	.LVL139:
 1232 0252 5146     		mov	r1, r10
 1233 0254 FFF7FEFF 		bl	ip_reass_remove_oldest_datagram
 1234              	.LVL140:
 1235 0258 0028     		cmp	r0, #0
 1236 025a 00F08480 		beq	.L104
 1237              		.loc 2 505 0 discriminator 1
 1238 025e B8F80020 		ldrh	r2, [r8]
 1239 0262 5244     		add	r2, r2, r10
 1240              		.loc 2 504 0 discriminator 1
 1241 0264 0A2A     		cmp	r2, #10
 1242 0266 7FF7F3AE 		ble	.L96
 1243 026a 7CE0     		b	.L104
 1244              	.LVL141:
 1245              	.L170:
 1246              	.LBB92:
 1247              	.LBB82:
 1248              		.loc 2 369 0
 1249 026c 2E60     		str	r6, [r5]	@ unaligned
 1250              	.LVL142:
ARM GAS  C:\Users\jo\AppData\Local\Temp\cczbFR3B.s 			page 23


 1251              	.L116:
 1252              		.loc 2 421 0
 1253 026e BB7F     		ldrb	r3, [r7, #30]	@ zero_extendqisi2
 1254 0270 DB07     		lsls	r3, r3, #31
 1255 0272 E9D5     		bpl	.L120
 1256              		.loc 2 423 0
 1257 0274 B9F1000F 		cmp	r9, #0
 1258 0278 E6D0     		beq	.L120
 1259              	.LVL143:
 1260              	.L117:
 1261              		.loc 2 426 0
 1262 027a 7B68     		ldr	r3, [r7, #4]
 1263 027c 5868     		ldr	r0, [r3, #4]
 1264 027e 8388     		ldrh	r3, [r0, #4]	@ unaligned
 1265 0280 002B     		cmp	r3, #0
 1266 0282 E1D1     		bne	.L120
 1267              	.LVL144:
 1268              		.loc 2 431 0
 1269 0284 DAF80030 		ldr	r3, [r10]	@ unaligned
 1270              	.LVL145:
 1271              		.loc 2 432 0
 1272 0288 002B     		cmp	r3, #0
 1273 028a 00F0C580 		beq	.L138
 1274              		.loc 2 433 0
 1275 028e 5D68     		ldr	r5, [r3, #4]
 1276              	.LVL146:
 1277              		.loc 2 434 0
 1278 0290 BAF80620 		ldrh	r2, [r10, #6]	@ unaligned
 1279 0294 AB88     		ldrh	r3, [r5, #4]	@ unaligned
 1280              	.LVL147:
 1281 0296 9A42     		cmp	r2, r3
 1282 0298 06D0     		beq	.L123
 1283 029a D5E7     		b	.L120
 1284              	.LVL148:
 1285              	.L124:
 1286              		.loc 2 433 0
 1287 029c 5B68     		ldr	r3, [r3, #4]
 1288              	.LVL149:
 1289              		.loc 2 434 0
 1290 029e E988     		ldrh	r1, [r5, #6]	@ unaligned
 1291 02a0 9A88     		ldrh	r2, [r3, #4]	@ unaligned
 1292 02a2 9142     		cmp	r1, r2
 1293 02a4 D0D1     		bne	.L120
 1294 02a6 1D46     		mov	r5, r3
 1295              	.LVL150:
 1296              	.L123:
 1297              		.loc 2 439 0
 1298 02a8 2B68     		ldr	r3, [r5]	@ unaligned
 1299              	.LVL151:
 1300              		.loc 2 432 0
 1301 02aa 002B     		cmp	r3, #0
 1302 02ac F6D1     		bne	.L124
 1303              	.LVL152:
 1304              	.L121:
 1305              		.loc 2 445 0
 1306 02ae A842     		cmp	r0, r5
 1307 02b0 00F09680 		beq	.L171
ARM GAS  C:\Users\jo\AppData\Local\Temp\cczbFR3B.s 			page 24


 1308              	.LVL153:
 1309              	.L125:
 1310              		.loc 2 449 0
 1311 02b4 EA88     		ldrh	r2, [r5, #6]	@ unaligned
 1312 02b6 BB8B     		ldrh	r3, [r7, #28]
 1313 02b8 9A42     		cmp	r2, r3
 1314 02ba 0CD0     		beq	.L126
 1315 02bc 2F4B     		ldr	r3, .L172+8
 1316 02be 0093     		str	r3, [sp]
 1317 02c0 2F49     		ldr	r1, .L172+12
 1318 02c2 304A     		ldr	r2, .L172+16
 1319 02c4 3048     		ldr	r0, .L172+20
 1320 02c6 4FF4E173 		mov	r3, #450
 1321 02ca FFF7FEFF 		bl	chprintf.constprop.0
 1322              	.LVL154:
 1323              	.LBB73:
 1324              	.LBB74:
 1325              		.loc 3 414 0
 1326 02ce 2D48     		ldr	r0, .L172+16
 1327 02d0 FFF7FEFF 		bl	chSysHalt
 1328              	.LVL155:
 1329 02d4 BB8B     		ldrh	r3, [r7, #28]
 1330              	.LVL156:
 1331              	.L126:
 1332              	.LBE74:
 1333              	.LBE73:
 1334              	.LBE82:
 1335              	.LBE92:
 1336              		.loc 2 573 0
 1337 02d6 7968     		ldr	r1, [r7, #4]
 1338              		.loc 2 570 0
 1339 02d8 03F11402 		add	r2, r3, #20
 1340              		.loc 2 577 0
 1341 02dc 3B46     		mov	r3, r7
 1342              		.loc 2 570 0
 1343 02de BA83     		strh	r2, [r7, #28]	@ movhi
 1344              		.loc 2 577 0
 1345 02e0 53F8082F 		ldr	r2, [r3, #8]!	@ unaligned
 1346              		.loc 2 573 0
 1347 02e4 4E68     		ldr	r6, [r1, #4]
 1348              		.loc 2 577 0
 1349 02e6 5868     		ldr	r0, [r3, #4]	@ unaligned
 1350 02e8 9968     		ldr	r1, [r3, #8]	@ unaligned
 1351 02ea DD68     		ldr	r5, [r3, #12]	@ unaligned
 1352              	.LVL157:
 1353 02ec F560     		str	r5, [r6, #12]	@ unaligned
 1354 02ee B160     		str	r1, [r6, #8]	@ unaligned
 1355 02f0 7060     		str	r0, [r6, #4]	@ unaligned
 1356              		.loc 2 573 0
 1357 02f2 3568     		ldr	r5, [r6]	@ unaligned
 1358              	.LVL158:
 1359              		.loc 2 577 0
 1360 02f4 3260     		str	r2, [r6]	@ unaligned
 1361 02f6 1A69     		ldr	r2, [r3, #16]	@ unaligned
 1362 02f8 3261     		str	r2, [r6, #16]	@ unaligned
 1363              		.loc 2 578 0
 1364 02fa B88B     		ldrh	r0, [r7, #28]
ARM GAS  C:\Users\jo\AppData\Local\Temp\cczbFR3B.s 			page 25


 1365 02fc FFF7FEFF 		bl	lwip_htons
 1366              	.LVL159:
 1367              		.loc 2 579 0
 1368 0300 0023     		movs	r3, #0
 1369              		.loc 2 578 0
 1370 0302 7080     		strh	r0, [r6, #2]	@ unaligned
 1371              		.loc 2 579 0
 1372 0304 B371     		strb	r3, [r6, #6]
 1373 0306 F371     		strb	r3, [r6, #7]
 1374              		.loc 2 580 0
 1375 0308 B372     		strb	r3, [r6, #10]
 1376 030a F372     		strb	r3, [r6, #11]
 1377              		.loc 2 582 0
 1378 030c 3046     		mov	r0, r6
 1379 030e 1421     		movs	r1, #20
 1380 0310 FFF7FEFF 		bl	inet_chksum
 1381              	.LVL160:
 1382              		.loc 2 584 0
 1383 0314 D7F80490 		ldr	r9, [r7, #4]
 1384              	.LVL161:
 1385              		.loc 2 582 0
 1386 0318 7081     		strh	r0, [r6, #10]	@ unaligned
 1387              		.loc 2 587 0
 1388 031a 65B1     		cbz	r5, .L132
 1389              	.LVL162:
 1390              	.L127:
 1391              		.loc 2 588 0
 1392 031c 6E68     		ldr	r6, [r5, #4]
 1393              	.LVL163:
 1394              		.loc 2 591 0
 1395 031e 2846     		mov	r0, r5
 1396 0320 6FF01301 		mvn	r1, #19
 1397 0324 FFF7FEFF 		bl	pbuf_header
 1398              	.LVL164:
 1399              		.loc 2 592 0
 1400 0328 2946     		mov	r1, r5
 1401 032a 4846     		mov	r0, r9
 1402 032c FFF7FEFF 		bl	pbuf_cat
 1403              	.LVL165:
 1404              		.loc 2 593 0
 1405 0330 3568     		ldr	r5, [r6]	@ unaligned
 1406              	.LVL166:
 1407              		.loc 2 587 0
 1408 0332 002D     		cmp	r5, #0
 1409 0334 F2D1     		bne	.L127
 1410              	.LVL167:
 1411              	.L132:
 1412              		.loc 2 596 0
 1413 0336 3846     		mov	r0, r7
 1414 0338 2146     		mov	r1, r4
 1415 033a FFF7FEFF 		bl	ip_reass_dequeue_datagram
 1416              	.LVL168:
 1417              		.loc 2 599 0
 1418 033e 4846     		mov	r0, r9
 1419 0340 FFF7FEFF 		bl	pbuf_clen
 1420              	.LVL169:
 1421 0344 B8F80030 		ldrh	r3, [r8]
ARM GAS  C:\Users\jo\AppData\Local\Temp\cczbFR3B.s 			page 26


 1422 0348 1B1A     		subs	r3, r3, r0
 1423              		.loc 2 602 0
 1424 034a 4846     		mov	r0, r9
 1425              		.loc 2 599 0
 1426 034c A8F80030 		strh	r3, [r8]	@ movhi
 1427              		.loc 2 613 0
 1428 0350 09B0     		add	sp, sp, #36
 1429              		.cfi_remember_state
 1430              		.cfi_def_cfa_offset 36
 1431              		@ sp needed
 1432 0352 BDE8F08F 		pop	{r4, r5, r6, r7, r8, r9, r10, fp, pc}
 1433              	.LVL170:
 1434              	.L129:
 1435              		.cfi_restore_state
 1436              	.LBB93:
 1437              	.LBB88:
 1438              		.loc 2 276 0
 1439 0356 2846     		mov	r0, r5
 1440              	.LVL171:
 1441 0358 5146     		mov	r1, r10
 1442 035a 0393     		str	r3, [sp, #12]
 1443 035c FFF7FEFF 		bl	ip_reass_remove_oldest_datagram
 1444              	.LVL172:
 1445 0360 8245     		cmp	r10, r0
 1446 0362 039B     		ldr	r3, [sp, #12]
 1447 0364 32DD     		ble	.L103
 1448              	.LVL173:
 1449              	.L104:
 1450              		.loc 2 282 0
 1451 0366 BBF83C20 		ldrh	r2, [fp, #60]
 1452 036a 0132     		adds	r2, r2, #1
 1453 036c ABF83C20 		strh	r2, [fp, #60]	@ movhi
 1454 0370 4CE7     		b	.L95
 1455              	.L173:
 1456 0372 00BF     		.align	2
 1457              	.L172:
 1458 0374 00000000 		.word	.LANCHOR0
 1459 0378 00000000 		.word	memp_sizes
 1460 037c 34000000 		.word	.LC2
 1461 0380 00000000 		.word	.LC0
 1462 0384 40010000 		.word	.LC12
 1463 0388 00000000 		.word	itm_port
 1464 038c 00000000 		.word	lwip_stats
 1465 0390 00000000 		.word	.LANCHOR1
 1466              	.LVL174:
 1467              	.L107:
 1468              	.LBE88:
 1469              	.LBE93:
 1470              	.LBB94:
 1471              	.LBB83:
 1472              		.loc 2 360 0
 1473 0394 CAF80020 		str	r2, [r10]	@ unaligned
 1474              		.loc 2 372 0
 1475 0398 4FF00109 		mov	r9, #1
 1476              	.LVL175:
 1477 039c 7E60     		str	r6, [r7, #4]
 1478              	.LVL176:
ARM GAS  C:\Users\jo\AppData\Local\Temp\cczbFR3B.s 			page 27


 1479 039e 66E7     		b	.L116
 1480              	.LVL177:
 1481              	.L169:
 1482              		.loc 2 403 0
 1483 03a0 1E4B     		ldr	r3, .L174
 1484 03a2 0093     		str	r3, [sp]
 1485 03a4 1E49     		ldr	r1, .L174+4
 1486 03a6 1F4A     		ldr	r2, .L174+8
 1487              	.LVL178:
 1488 03a8 1F48     		ldr	r0, .L174+12
 1489              	.LVL179:
 1490 03aa 40F29313 		movw	r3, #403
 1491 03ae FFF7FEFF 		bl	chprintf.constprop.0
 1492              	.LVL180:
 1493              	.LBB75:
 1494              	.LBB76:
 1495              		.loc 3 414 0
 1496 03b2 1C48     		ldr	r0, .L174+8
 1497 03b4 FFF7FEFF 		bl	chSysHalt
 1498              	.LVL181:
 1499 03b8 EB88     		ldrh	r3, [r5, #6]	@ unaligned
 1500 03ba BAF80400 		ldrh	r0, [r10, #4]	@ unaligned
 1501 03be E9E6     		b	.L134
 1502              	.LVL182:
 1503              	.L106:
 1504              	.LBE76:
 1505              	.LBE75:
 1506              		.loc 2 421 0
 1507 03c0 BB7F     		ldrb	r3, [r7, #30]	@ zero_extendqisi2
 1508              		.loc 2 415 0
 1509 03c2 7E60     		str	r6, [r7, #4]
 1510              	.LVL183:
 1511              		.loc 2 421 0
 1512 03c4 DA07     		lsls	r2, r3, #31
 1513 03c6 3FF558AF 		bmi	.L117
 1514 03ca 3DE7     		b	.L120
 1515              	.LVL184:
 1516              	.L103:
 1517              	.LBE83:
 1518              	.LBE94:
 1519              	.LBB95:
 1520              	.LBB89:
 1521              		.loc 2 277 0
 1522 03cc 4846     		mov	r0, r9
 1523 03ce 0393     		str	r3, [sp, #12]
 1524 03d0 FFF7FEFF 		bl	malloc
 1525              	.LVL185:
 1526              		.loc 2 279 0
 1527 03d4 0746     		mov	r7, r0
 1528 03d6 0028     		cmp	r0, #0
 1529 03d8 C5D0     		beq	.L104
 1530 03da 039B     		ldr	r3, [sp, #12]
 1531 03dc 1968     		ldr	r1, [r3]
 1532 03de F1E6     		b	.L130
 1533              	.LVL186:
 1534              	.L171:
 1535              	.LBE89:
ARM GAS  C:\Users\jo\AppData\Local\Temp\cczbFR3B.s 			page 28


 1536              	.LBE95:
 1537              	.LBB96:
 1538              	.LBB84:
 1539              		.loc 2 445 0
 1540 03e0 0E4E     		ldr	r6, .L174
 1541              	.LVL187:
 1542 03e2 0F49     		ldr	r1, .L174+4
 1543 03e4 114A     		ldr	r2, .L174+16
 1544 03e6 0096     		str	r6, [sp]
 1545 03e8 4FF4DF73 		mov	r3, #446
 1546 03ec 0E48     		ldr	r0, .L174+12
 1547 03ee FFF7FEFF 		bl	chprintf.constprop.0
 1548              	.LVL188:
 1549              	.LBB77:
 1550              	.LBB78:
 1551              		.loc 3 414 0
 1552 03f2 0E48     		ldr	r0, .L174+16
 1553 03f4 FFF7FEFF 		bl	chSysHalt
 1554              	.LVL189:
 1555              	.LBE78:
 1556              	.LBE77:
 1557              		.loc 2 447 0
 1558 03f8 2B68     		ldr	r3, [r5]	@ unaligned
 1559 03fa 002B     		cmp	r3, #0
 1560 03fc 3FF45AAF 		beq	.L125
 1561 0400 0096     		str	r6, [sp]
 1562 0402 0749     		ldr	r1, .L174+4
 1563 0404 0A4A     		ldr	r2, .L174+20
 1564 0406 0848     		ldr	r0, .L174+12
 1565 0408 4FF4E073 		mov	r3, #448
 1566 040c FFF7FEFF 		bl	chprintf.constprop.0
 1567              	.LVL190:
 1568              	.LBB79:
 1569              	.LBB80:
 1570              		.loc 3 414 0
 1571 0410 0748     		ldr	r0, .L174+20
 1572 0412 FFF7FEFF 		bl	chSysHalt
 1573              	.LVL191:
 1574 0416 4DE7     		b	.L125
 1575              	.LVL192:
 1576              	.L138:
 1577              	.LBE80:
 1578              	.LBE79:
 1579              		.loc 2 432 0
 1580 0418 5546     		mov	r5, r10
 1581 041a 48E7     		b	.L121
 1582              	.L175:
 1583              		.align	2
 1584              	.L174:
 1585 041c 34000000 		.word	.LC2
 1586 0420 00000000 		.word	.LC0
 1587 0424 EC000000 		.word	.LC9
 1588 0428 00000000 		.word	itm_port
 1589 042c 0C010000 		.word	.LC10
 1590 0430 1C010000 		.word	.LC11
 1591              	.LBE84:
 1592              	.LBE96:
ARM GAS  C:\Users\jo\AppData\Local\Temp\cczbFR3B.s 			page 29


 1593              		.cfi_endproc
 1594              	.LFE262:
 1595              		.size	ip_reass, .-ip_reass
 1596 0434 AFF30080 		.section	.text.ip_frag,"ax",%progbits
 1596      AFF30080 
 1596      AFF30080 
 1597              		.align	2
 1598              		.p2align 4,,15
 1599              		.global	ip_frag
 1600              		.thumb
 1601              		.thumb_func
 1602              		.type	ip_frag, %function
 1603              	ip_frag:
 1604              	.LFB266:
 1605              		.loc 2 668 0
 1606              		.cfi_startproc
 1607              		@ args = 0, pretend = 0, frame = 48
 1608              		@ frame_needed = 0, uses_anonymous_args = 0
 1609              	.LVL193:
 1610 0000 2DE9F04F 		push	{r4, r5, r6, r7, r8, r9, r10, fp, lr}
 1611              		.cfi_def_cfa_offset 36
 1612              		.cfi_offset 4, -36
 1613              		.cfi_offset 5, -32
 1614              		.cfi_offset 6, -28
 1615              		.cfi_offset 7, -24
 1616              		.cfi_offset 8, -20
 1617              		.cfi_offset 9, -16
 1618              		.cfi_offset 10, -12
 1619              		.cfi_offset 11, -8
 1620              		.cfi_offset 14, -4
 1621 0004 8FB0     		sub	sp, sp, #60
 1622              		.cfi_def_cfa_offset 96
 1623              		.loc 2 709 0
 1624 0006 D0F804A0 		ldr	r10, [r0, #4]
 1625              		.loc 2 668 0
 1626 000a 0B91     		str	r1, [sp, #44]
 1627 000c 0546     		mov	r5, r0
 1628              		.loc 2 714 0
 1629 000e BAF80600 		ldrh	r0, [r10, #6]	@ unaligned
 1630              	.LVL194:
 1631              		.loc 2 681 0
 1632 0012 0C8C     		ldrh	r4, [r1, #32]
 1633              	.LVL195:
 1634              		.loc 2 668 0
 1635 0014 0C92     		str	r2, [sp, #48]
 1636              		.loc 2 714 0
 1637 0016 FFF7FEFF 		bl	lwip_ntohs
 1638              	.LVL196:
 1639              		.loc 2 716 0
 1640 001a 00F40053 		and	r3, r0, #8192
 1641 001e 9BB2     		uxth	r3, r3
 1642              		.loc 2 718 0
 1643 0020 B5F80890 		ldrh	r9, [r5, #8]
 1644              		.loc 2 716 0
 1645 0024 0993     		str	r3, [sp, #36]
 1646              		.loc 2 715 0
 1647 0026 C0F30C03 		ubfx	r3, r0, #0, #13
ARM GAS  C:\Users\jo\AppData\Local\Temp\cczbFR3B.s 			page 30


 1648              		.loc 2 718 0
 1649 002a A9F11409 		sub	r9, r9, #20
 1650              		.loc 2 715 0
 1651 002e 0593     		str	r3, [sp, #20]
 1652              	.LVL197:
 1653              		.loc 2 720 0
 1654 0030 B4F11403 		subs	r3, r4, #20
 1655              		.loc 2 718 0
 1656 0034 1FFA89F2 		uxth	r2, r9
 1657              		.loc 2 720 0
 1658 0038 48BF     		it	mi
 1659 003a A4F10D03 		submi	r3, r4, #13
 1660 003e C3F3CF03 		ubfx	r3, r3, #3, #16
 1661              		.loc 2 718 0
 1662 0042 0392     		str	r2, [sp, #12]
 1663              	.LVL198:
 1664              		.loc 2 720 0
 1665 0044 0893     		str	r3, [sp, #32]
 1666              	.LVL199:
 1667              		.loc 2 722 0
 1668 0046 039B     		ldr	r3, [sp, #12]
 1669 0048 002B     		cmp	r3, #0
 1670 004a 00F0C580 		beq	.L189
 1671              		.loc 2 732 0
 1672 004e 089B     		ldr	r3, [sp, #32]
 1673              	.LBB97:
 1674              	.LBB98:
 1675              	.LBB99:
 1676              		.loc 2 626 0
 1677 0050 DFF8A081 		ldr	r8, .L206+24
 1678              	.LBE99:
 1679              	.LBE98:
 1680              	.LBE97:
 1681              		.loc 2 732 0
 1682 0054 DB00     		lsls	r3, r3, #3
 1683 0056 A4F11302 		sub	r2, r4, #19
 1684 005a 9BB2     		uxth	r3, r3
 1685 005c 0A92     		str	r2, [sp, #40]
 1686 005e 0D93     		str	r3, [sp, #52]
 1687 0060 0024     		movs	r4, #0
 1688              	.LVL200:
 1689 0062 1426     		movs	r6, #20
 1690              	.LVL201:
 1691              	.L188:
 1692              		.loc 2 726 0
 1693 0064 059B     		ldr	r3, [sp, #20]
 1694 0066 099A     		ldr	r2, [sp, #36]
 1695 0068 C3F30C03 		ubfx	r3, r3, #0, #13
 1696 006c 1343     		orrs	r3, r3, r2
 1697 006e 0693     		str	r3, [sp, #24]
 1698              	.LVL202:
 1699              		.loc 2 727 0
 1700 0070 0A9A     		ldr	r2, [sp, #40]
 1701 0072 039B     		ldr	r3, [sp, #12]
 1702 0074 9342     		cmp	r3, r2
 1703 0076 C0F29280 		blt	.L190
 1704              		.loc 2 728 0
ARM GAS  C:\Users\jo\AppData\Local\Temp\cczbFR3B.s 			page 31


 1705 007a 069B     		ldr	r3, [sp, #24]
 1706 007c 43F40053 		orr	r3, r3, #8192
 1707 0080 0693     		str	r3, [sp, #24]
 1708              	.LVL203:
 1709              		.loc 2 732 0
 1710 0082 0D9B     		ldr	r3, [sp, #52]
 1711 0084 0493     		str	r3, [sp, #16]
 1712              	.L180:
 1713              	.LVL204:
 1714              		.loc 2 759 0 discriminator 4
 1715 0086 0220     		movs	r0, #2
 1716 0088 1421     		movs	r1, #20
 1717 008a 0022     		movs	r2, #0
 1718 008c FFF7FEFF 		bl	pbuf_alloc
 1719              	.LVL205:
 1720              		.loc 2 760 0 discriminator 4
 1721 0090 0746     		mov	r7, r0
 1722 0092 0028     		cmp	r0, #0
 1723 0094 00F09E80 		beq	.L191
 1724              		.loc 2 763 0
 1725 0098 6B89     		ldrh	r3, [r5, #10]
 1726 009a 132B     		cmp	r3, #19
 1727 009c 40F28D80 		bls	.L202
 1728              	.LVL206:
 1729              	.L181:
 1730              		.loc 2 765 0
 1731 00a0 7B68     		ldr	r3, [r7, #4]
 1732 00a2 DAF80020 		ldr	r2, [r10]	@ unaligned
 1733 00a6 DAF80810 		ldr	r1, [r10, #8]	@ unaligned
 1734 00aa DAF80400 		ldr	r0, [r10, #4]	@ unaligned
 1735 00ae DAF80CE0 		ldr	lr, [r10, #12]	@ unaligned
 1736 00b2 C3F80CE0 		str	lr, [r3, #12]	@ unaligned
 1737 00b6 1A60     		str	r2, [r3]	@ unaligned
 1738 00b8 5860     		str	r0, [r3, #4]	@ unaligned
 1739 00ba 9960     		str	r1, [r3, #8]	@ unaligned
 1740 00bc DAF81020 		ldr	r2, [r10, #16]	@ unaligned
 1741 00c0 1A61     		str	r2, [r3, #16]	@ unaligned
 1742              		.loc 2 769 0
 1743 00c2 6A68     		ldr	r2, [r5, #4]
 1744              		.loc 2 770 0
 1745 00c4 6B89     		ldrh	r3, [r5, #10]
 1746              		.loc 2 766 0
 1747 00c6 7968     		ldr	r1, [r7, #4]
 1748 00c8 0791     		str	r1, [sp, #28]
 1749              	.LVL207:
 1750              		.loc 2 770 0
 1751 00ca 9B1B     		subs	r3, r3, r6
 1752              		.loc 2 769 0
 1753 00cc 1644     		add	r6, r6, r2
 1754              	.LVL208:
 1755              		.loc 2 773 0
 1756 00ce 049A     		ldr	r2, [sp, #16]
 1757              		.loc 2 769 0
 1758 00d0 6E60     		str	r6, [r5, #4]
 1759              		.loc 2 770 0
 1760 00d2 9BB2     		uxth	r3, r3
 1761 00d4 6B81     		strh	r3, [r5, #10]	@ movhi
ARM GAS  C:\Users\jo\AppData\Local\Temp\cczbFR3B.s 			page 32


 1762              	.LVL209:
 1763              		.loc 2 773 0
 1764 00d6 72B3     		cbz	r2, .L182
 1765 00d8 1646     		mov	r6, r2
 1766 00da 1C46     		mov	r4, r3
 1767 00dc 02E0     		b	.L183
 1768              	.LVL210:
 1769              	.L203:
 1770              	.LBB102:
 1771              		.loc 2 778 0
 1772 00de 2D68     		ldr	r5, [r5]
 1773              	.LVL211:
 1774              	.LBE102:
 1775              		.loc 2 773 0
 1776 00e0 4EB3     		cbz	r6, .L182
 1777              	.LVL212:
 1778              	.L185:
 1779 00e2 6C89     		ldrh	r4, [r5, #10]
 1780              	.LVL213:
 1781              	.L183:
 1782              	.LBB103:
 1783              		.loc 2 775 0
 1784 00e4 B442     		cmp	r4, r6
 1785 00e6 28BF     		it	cs
 1786 00e8 3446     		movcs	r4, r6
 1787              	.LVL214:
 1788 00ea A4B2     		uxth	r4, r4
 1789              		.loc 2 777 0
 1790 00ec 002C     		cmp	r4, #0
 1791 00ee F6D0     		beq	.L203
 1792              	.LBB101:
 1793              	.LBB100:
 1794              		.loc 2 626 0
 1795 00f0 B8F80A00 		ldrh	r0, [r8, #10]
 1796 00f4 FFF7FEFF 		bl	malloc
 1797              	.LVL215:
 1798              	.LBE100:
 1799              	.LBE101:
 1800              		.loc 2 787 0
 1801 00f8 2146     		mov	r1, r4
 1802              		.loc 2 782 0
 1803 00fa 8146     		mov	r9, r0
 1804              		.loc 2 787 0
 1805 00fc 0222     		movs	r2, #2
 1806 00fe 0346     		mov	r3, r0
 1807              		.loc 2 782 0
 1808 0100 0028     		cmp	r0, #0
 1809 0102 52D0     		beq	.L201
 1810              		.loc 2 787 0
 1811 0104 6868     		ldr	r0, [r5, #4]
 1812 0106 8DE81100 		stmia	sp, {r0, r4}
 1813 010a 0320     		movs	r0, #3
 1814 010c FFF7FEFF 		bl	pbuf_alloced_custom
 1815              	.LVL216:
 1816              		.loc 2 788 0
 1817 0110 8346     		mov	fp, r0
 1818 0112 0028     		cmp	r0, #0
ARM GAS  C:\Users\jo\AppData\Local\Temp\cczbFR3B.s 			page 33


 1819 0114 46D0     		beq	.L204
 1820              		.loc 2 793 0
 1821 0116 2846     		mov	r0, r5
 1822              	.LVL217:
 1823 0118 FFF7FEFF 		bl	pbuf_ref
 1824              	.LVL218:
 1825              		.loc 2 801 0
 1826 011c 361B     		subs	r6, r6, r4
 1827              	.LVL219:
 1828              		.loc 2 795 0
 1829 011e 2F4B     		ldr	r3, .L206
 1830              		.loc 2 794 0
 1831 0120 C9F81450 		str	r5, [r9, #20]
 1832              		.loc 2 795 0
 1833 0124 C9F81030 		str	r3, [r9, #16]
 1834              		.loc 2 800 0
 1835 0128 5946     		mov	r1, fp
 1836 012a 3846     		mov	r0, r7
 1837              		.loc 2 801 0
 1838 012c B6B2     		uxth	r6, r6
 1839              		.loc 2 800 0
 1840 012e FFF7FEFF 		bl	pbuf_cat
 1841              	.LVL220:
 1842              		.loc 2 802 0
 1843 0132 002E     		cmp	r6, #0
 1844 0134 31D1     		bne	.L205
 1845              	.LVL221:
 1846              	.L182:
 1847              	.LBE103:
 1848              		.loc 2 811 0
 1849 0136 0698     		ldr	r0, [sp, #24]
 1850 0138 FFF7FEFF 		bl	lwip_htons
 1851              	.LVL222:
 1852              		.loc 2 812 0
 1853 013c 049B     		ldr	r3, [sp, #16]
 1854              		.loc 2 811 0
 1855 013e 079E     		ldr	r6, [sp, #28]
 1856              		.loc 2 812 0
 1857 0140 1433     		adds	r3, r3, #20
 1858              		.loc 2 811 0
 1859 0142 F080     		strh	r0, [r6, #6]	@ unaligned
 1860              		.loc 2 812 0
 1861 0144 98B2     		uxth	r0, r3
 1862 0146 FFF7FEFF 		bl	lwip_htons
 1863              	.LVL223:
 1864              		.loc 2 813 0
 1865 014a 0023     		movs	r3, #0
 1866              		.loc 2 812 0
 1867 014c 7080     		strh	r0, [r6, #2]	@ unaligned
 1868              		.loc 2 813 0
 1869 014e B372     		strb	r3, [r6, #10]
 1870 0150 F372     		strb	r3, [r6, #11]
 1871 0152 3046     		mov	r0, r6
 1872              		.loc 2 814 0
 1873 0154 1421     		movs	r1, #20
 1874 0156 FFF7FEFF 		bl	inet_chksum
 1875              	.LVL224:
ARM GAS  C:\Users\jo\AppData\Local\Temp\cczbFR3B.s 			page 34


 1876 015a B146     		mov	r9, r6
 1877              		.loc 2 842 0
 1878 015c 0B9E     		ldr	r6, [sp, #44]
 1879 015e 0C9A     		ldr	r2, [sp, #48]
 1880 0160 7369     		ldr	r3, [r6, #20]
 1881              		.loc 2 814 0
 1882 0162 A9F80A00 		strh	r0, [r9, #10]	@ unaligned
 1883              		.loc 2 842 0
 1884 0166 3946     		mov	r1, r7
 1885 0168 3046     		mov	r0, r6
 1886 016a 9847     		blx	r3
 1887              	.LVL225:
 1888              		.loc 2 843 0
 1889 016c 1C4A     		ldr	r2, .L206+4
 1890 016e 138E     		ldrh	r3, [r2, #48]
 1891              		.loc 2 852 0
 1892 0170 3846     		mov	r0, r7
 1893              		.loc 2 843 0
 1894 0172 0133     		adds	r3, r3, #1
 1895 0174 1386     		strh	r3, [r2, #48]	@ movhi
 1896              		.loc 2 852 0
 1897 0176 FFF7FEFF 		bl	pbuf_free
 1898              	.LVL226:
 1899              		.loc 2 854 0
 1900 017a 039A     		ldr	r2, [sp, #12]
 1901 017c 049B     		ldr	r3, [sp, #16]
 1902              		.loc 2 855 0
 1903 017e 0899     		ldr	r1, [sp, #32]
 1904              		.loc 2 854 0
 1905 0180 C3EB0209 		rsb	r9, r3, r2
 1906 0184 1FFA89F3 		uxth	r3, r9
 1907 0188 1A46     		mov	r2, r3
 1908 018a 0393     		str	r3, [sp, #12]
 1909              	.LVL227:
 1910              		.loc 2 855 0
 1911 018c 059B     		ldr	r3, [sp, #20]
 1912 018e 0B44     		add	r3, r3, r1
 1913 0190 9BB2     		uxth	r3, r3
 1914 0192 0593     		str	r3, [sp, #20]
 1915              	.LVL228:
 1916              		.loc 2 722 0
 1917 0194 02B3     		cbz	r2, .L189
 1918              		.loc 2 806 0
 1919 0196 2646     		mov	r6, r4
 1920 0198 64E7     		b	.L188
 1921              	.LVL229:
 1922              	.L205:
 1923              	.LBB104:
 1924              		.loc 2 803 0
 1925 019a 2D68     		ldr	r5, [r5]
 1926              	.LVL230:
 1927 019c A1E7     		b	.L185
 1928              	.LVL231:
 1929              	.L190:
 1930              	.LBE104:
 1931 019e 039B     		ldr	r3, [sp, #12]
 1932 01a0 0493     		str	r3, [sp, #16]
ARM GAS  C:\Users\jo\AppData\Local\Temp\cczbFR3B.s 			page 35


 1933 01a2 70E7     		b	.L180
 1934              	.LVL232:
 1935              	.L204:
 1936              	.LBB105:
 1937              		.loc 2 789 0
 1938 01a4 4846     		mov	r0, r9
 1939              	.LVL233:
 1940 01a6 FFF7FEFF 		bl	ip_frag_free_pbuf_custom_ref
 1941              	.LVL234:
 1942              	.L201:
 1943              		.loc 2 790 0
 1944 01aa 3846     		mov	r0, r7
 1945 01ac FFF7FEFF 		bl	pbuf_free
 1946              	.LVL235:
 1947              		.loc 2 791 0
 1948 01b0 FF20     		movs	r0, #255
 1949              	.LVL236:
 1950              	.L179:
 1951              	.LBE105:
 1952              		.loc 2 862 0
 1953 01b2 40B2     		sxtb	r0, r0
 1954 01b4 0FB0     		add	sp, sp, #60
 1955              		.cfi_remember_state
 1956              		.cfi_def_cfa_offset 36
 1957              		@ sp needed
 1958 01b6 BDE8F08F 		pop	{r4, r5, r6, r7, r8, r9, r10, fp, pc}
 1959              	.LVL237:
 1960              	.L202:
 1961              		.cfi_restore_state
 1962              		.loc 2 763 0 discriminator 1
 1963 01ba 0A4B     		ldr	r3, .L206+8
 1964 01bc 0093     		str	r3, [sp]
 1965 01be 0A49     		ldr	r1, .L206+12
 1966 01c0 0A4A     		ldr	r2, .L206+16
 1967 01c2 0B48     		ldr	r0, .L206+20
 1968              	.LVL238:
 1969 01c4 4FF43F73 		mov	r3, #764
 1970 01c8 FFF7FEFF 		bl	chprintf.constprop.0
 1971              	.LVL239:
 1972              	.LBB106:
 1973              	.LBB107:
 1974              		.loc 3 414 0 discriminator 1
 1975 01cc 0748     		ldr	r0, .L206+16
 1976 01ce FFF7FEFF 		bl	chSysHalt
 1977              	.LVL240:
 1978 01d2 65E7     		b	.L181
 1979              	.LVL241:
 1980              	.L191:
 1981              	.LBE107:
 1982              	.LBE106:
 1983              		.loc 2 761 0
 1984 01d4 FF20     		movs	r0, #255
 1985              	.LVL242:
 1986 01d6 ECE7     		b	.L179
 1987              	.LVL243:
 1988              	.L189:
 1989              		.loc 2 861 0
ARM GAS  C:\Users\jo\AppData\Local\Temp\cczbFR3B.s 			page 36


 1990 01d8 0020     		movs	r0, #0
 1991 01da EAE7     		b	.L179
 1992              	.L207:
 1993              		.align	2
 1994              	.L206:
 1995 01dc 00000000 		.word	ipfrag_free_pbuf_custom
 1996 01e0 00000000 		.word	lwip_stats
 1997 01e4 34000000 		.word	.LC2
 1998 01e8 00000000 		.word	.LC0
 1999 01ec 70010000 		.word	.LC13
 2000 01f0 00000000 		.word	itm_port
 2001 01f4 00000000 		.word	memp_sizes
 2002              		.cfi_endproc
 2003              	.LFE266:
 2004              		.size	ip_frag, .-ip_frag
 2005 01f8 AFF30080 		.section	.bss.reassdatagrams,"aw",%nobits
 2005      AFF30080 
 2006              		.align	2
 2007              		.set	.LANCHOR0,. + 0
 2008              		.type	reassdatagrams, %object
 2009              		.size	reassdatagrams, 4
 2010              	reassdatagrams:
 2011 0000 00000000 		.space	4
 2012              		.section	.bss.ip_reass_pbufcount,"aw",%nobits
 2013              		.align	1
 2014              		.set	.LANCHOR1,. + 0
 2015              		.type	ip_reass_pbufcount, %object
 2016              		.size	ip_reass_pbufcount, 2
 2017              	ip_reass_pbufcount:
 2018 0000 0000     		.space	2
 2019              		.section	.rodata.str1.4,"aMS",%progbits,1
 2020              		.align	2
 2021              	.LC0:
 2022 0000 41737365 		.ascii	"Assertion \"%s\" failed at line %d in %s\012\000"
 2022      7274696F 
 2022      6E202225 
 2022      73222066 
 2022      61696C65 
 2023              	.LC1:
 2024 0028 7020213D 		.ascii	"p != NULL\000"
 2024      204E554C 
 2024      4C00
 2025 0032 0000     		.space	2
 2026              	.LC2:
 2027 0034 2E2E2F2E 		.ascii	"../../../os/ext/lwip-1.4.1/src/core/ipv4/ip_frag.c\000"
 2027      2E2F2E2E 
 2027      2F6F732F 
 2027      6578742F 
 2027      6C776970 
 2028 0067 00       		.space	1
 2029              	.LC3:
 2030 0068 70637220 		.ascii	"pcr != NULL\000"
 2030      213D204E 
 2030      554C4C00 
 2031              	.LC4:
 2032 0074 73616E69 		.ascii	"sanity check linked list\000"
 2032      74792063 
ARM GAS  C:\Users\jo\AppData\Local\Temp\cczbFR3B.s 			page 37


 2032      6865636B 
 2032      206C696E 
 2032      6B656420 
 2033 008d 000000   		.space	3
 2034              	.LC5:
 2035 0090 70726576 		.ascii	"prev != ipr\000"
 2035      20213D20 
 2035      69707200 
 2036              	.LC6:
 2037 009c 70726576 		.ascii	"prev->next == ipr\000"
 2037      2D3E6E65 
 2037      7874203D 
 2037      3D206970 
 2037      7200
 2038 00ae 0000     		.space	2
 2039              	.LC7:
 2040 00b0 70627566 		.ascii	"pbufs_freed + clen <= 0xffff\000"
 2040      735F6672 
 2040      65656420 
 2040      2B20636C 
 2040      656E203C 
 2041 00cd 000000   		.space	3
 2042              	.LC8:
 2043 00d0 69705F72 		.ascii	"ip_reass_pbufcount >= clen\000"
 2043      65617373 
 2043      5F706275 
 2043      66636F75 
 2043      6E74203E 
 2044 00eb 00       		.space	1
 2045              	.LC9:
 2046 00ec 63686563 		.ascii	"check fragments don't overlap\000"
 2046      6B206672 
 2046      61676D65 
 2046      6E747320 
 2046      646F6E27 
 2047 010a 0000     		.space	2
 2048              	.LC10:
 2049 010c 73616E69 		.ascii	"sanity check\000"
 2049      74792063 
 2049      6865636B 
 2049      00
 2050 0119 000000   		.space	3
 2051              	.LC11:
 2052 011c 76616C69 		.ascii	"validate_datagram:next_pbuf!=NULL\000"
 2052      64617465 
 2052      5F646174 
 2052      61677261 
 2052      6D3A6E65 
 2053 013e 0000     		.space	2
 2054              	.LC12:
 2055 0140 76616C69 		.ascii	"validate_datagram:datagram end!=datagram len\000"
 2055      64617465 
 2055      5F646174 
 2055      61677261 
 2055      6D3A6461 
 2056 016d 000000   		.space	3
 2057              	.LC13:
ARM GAS  C:\Users\jo\AppData\Local\Temp\cczbFR3B.s 			page 38


 2058 0170 74686973 		.ascii	"this needs a pbuf in one piece!\000"
 2058      206E6565 
 2058      64732061 
 2058      20706275 
 2058      6620696E 
 2059              		.text
 2060              	.Letext0:
 2061              		.file 4 "c:\\program files\\gnu tools arm embedded\\4.9 2014q4\\lib\\gcc\\arm-none-eabi\\4.9.3\\in
 2062              		.file 5 "c:\\program files\\gnu tools arm embedded\\4.9 2014q4\\arm-none-eabi\\include\\machine\\_
 2063              		.file 6 "c:\\program files\\gnu tools arm embedded\\4.9 2014q4\\arm-none-eabi\\include\\stdint.h"
 2064              		.file 7 "../../../os/rt/ports/ARMCMx/compilers/GCC/chtypes.h"
 2065              		.file 8 "../../../os/rt/include/chsystypes.h"
 2066              		.file 9 "../../../os/rt/include/chschd.h"
 2067              		.file 10 "../../../os/rt/ports/ARMCMx/chcore.h"
 2068              		.file 11 "../../../os/rt/ports/ARMCMx/chcore_v7m.h"
 2069              		.file 12 "c:\\program files\\gnu tools arm embedded\\4.9 2014q4\\lib\\gcc\\arm-none-eabi\\4.9.3\\i
 2070              		.file 13 "<built-in>"
 2071              		.file 14 "../../../os/rt/include/chdebug.h"
 2072              		.file 15 "../../../os/rt/include/chtm.h"
 2073              		.file 16 "../../../os/rt/include/chstats.h"
 2074              		.file 17 "../../../os/rt/include/chmtx.h"
 2075              		.file 18 "../../../os/rt/include/chstreams.h"
 2076              		.file 19 "./ITM_trace.h"
 2077              		.file 20 "../../../os/various/lwip_bindings/arch/cc.h"
 2078              		.file 21 "../../../os/ext/lwip-1.4.1/src/include/lwip/err.h"
 2079              		.file 22 "../../../os/ext/lwip-1.4.1/src/include/lwip/pbuf.h"
 2080              		.file 23 "../../../os/ext/lwip-1.4.1/src/include/ipv4/lwip/ip_addr.h"
 2081              		.file 24 "../../../os/ext/lwip-1.4.1/src/include/lwip/netif.h"
 2082              		.file 25 "../../../os/ext/lwip-1.4.1/src/include/ipv4/lwip/ip.h"
 2083              		.file 26 "../../../os/ext/lwip-1.4.1/src/include/ipv4/lwip/ip_frag.h"
 2084              		.file 27 "../../../os/ext/lwip-1.4.1/src/include/lwip/memp.h"
 2085              		.file 28 "../../../os/ext/lwip-1.4.1/src/include/lwip/stats.h"
 2086              		.file 29 "../../../os/ext/CMSIS/include/core_cm4.h"
 2087              		.file 30 "../../../os/rt/include/chsys.h"
 2088              		.file 31 "c:\\program files\\gnu tools arm embedded\\4.9 2014q4\\arm-none-eabi\\include\\stdlib.h"
 2089              		.file 32 "../../../os/ext/lwip-1.4.1/src/include/ipv4/lwip/icmp.h"
 2090              		.file 33 "../../../os/ext/lwip-1.4.1/src/include/lwip/def.h"
 2091              		.file 34 "../../../os/ext/lwip-1.4.1/src/include/ipv4/lwip/inet_chksum.h"