ARM GAS  C:\Users\jo\AppData\Local\Temp\ccvXihIp.s 			page 1


   1              		.syntax unified
   2              		.cpu cortex-m4
   3              		.fpu softvfp
   4              		.eabi_attribute 20, 1
   5              		.eabi_attribute 21, 1
   6              		.eabi_attribute 23, 3
   7              		.eabi_attribute 24, 1
   8              		.eabi_attribute 25, 1
   9              		.eabi_attribute 26, 1
  10              		.eabi_attribute 30, 2
  11              		.eabi_attribute 34, 1
  12              		.eabi_attribute 18, 4
  13              		.thumb
  14              		.file	"ITM_trace.c"
  15              		.text
  16              	.Ltext0:
  17              		.cfi_sections	.debug_frame
  18              		.section	.text.get,"ax",%progbits
  19              		.align	2
  20              		.p2align 4,,15
  21              		.thumb
  22              		.thumb_func
  23              		.type	get, %function
  24              	get:
  25              	.LFB256:
  26              		.file 1 "ITM_trace.c"
  27              		.loc 1 48 0
  28              		.cfi_startproc
  29              		@ args = 0, pretend = 0, frame = 0
  30              		@ frame_needed = 0, uses_anonymous_args = 0
  31              		@ link register save eliminated.
  32              	.LVL0:
  33              		.loc 1 53 0
  34 0000 0420     		movs	r0, #4
  35              	.LVL1:
  36 0002 7047     		bx	lr
  37              		.cfi_endproc
  38              	.LFE256:
  39              		.size	get, .-get
  40 0004 AFF30080 		.section	.text.reads,"ax",%progbits
  40      AFF30080 
  40      AFF30080 
  41              		.align	2
  42              		.p2align 4,,15
  43              		.thumb
  44              		.thumb_func
  45              		.type	reads, %function
  46              	reads:
  47              	.LFB258:
  48              		.loc 1 67 0
  49              		.cfi_startproc
  50              		@ args = 0, pretend = 0, frame = 0
  51              		@ frame_needed = 0, uses_anonymous_args = 0
  52              		@ link register save eliminated.
  53              	.LVL2:
  54              		.loc 1 74 0
  55 0000 0020     		movs	r0, #0
ARM GAS  C:\Users\jo\AppData\Local\Temp\ccvXihIp.s 			page 2


  56              	.LVL3:
  57 0002 7047     		bx	lr
  58              		.cfi_endproc
  59              	.LFE258:
  60              		.size	reads, .-reads
  61 0004 AFF30080 		.section	.text.put,"ax",%progbits
  61      AFF30080 
  61      AFF30080 
  62              		.align	2
  63              		.p2align 4,,15
  64              		.thumb
  65              		.thumb_func
  66              		.type	put, %function
  67              	put:
  68              	.LFB255:
  69              		.loc 1 39 0
  70              		.cfi_startproc
  71              		@ args = 0, pretend = 0, frame = 0
  72              		@ frame_needed = 0, uses_anonymous_args = 0
  73              	.LVL4:
  74 0000 08B5     		push	{r3, lr}
  75              		.cfi_def_cfa_offset 8
  76              		.cfi_offset 3, -8
  77              		.cfi_offset 14, -4
  78              		.loc 1 43 0
  79 0002 0846     		mov	r0, r1
  80              	.LVL5:
  81 0004 FFF7FEFF 		bl	Debug_ITMDebugOutputChar
  82              	.LVL6:
  83              		.loc 1 46 0
  84 0008 0120     		movs	r0, #1
  85 000a 08BD     		pop	{r3, pc}
  86              		.cfi_endproc
  87              	.LFE255:
  88              		.size	put, .-put
  89 000c AFF30080 		.section	.text.writes,"ax",%progbits
  90              		.align	2
  91              		.p2align 4,,15
  92              		.thumb
  93              		.thumb_func
  94              		.type	writes, %function
  95              	writes:
  96              	.LFB257:
  97              		.loc 1 55 0
  98              		.cfi_startproc
  99              		@ args = 0, pretend = 0, frame = 0
 100              		@ frame_needed = 0, uses_anonymous_args = 0
 101              	.LVL7:
 102 0000 70B5     		push	{r4, r5, r6, lr}
 103              		.cfi_def_cfa_offset 16
 104              		.cfi_offset 4, -16
 105              		.cfi_offset 5, -12
 106              		.cfi_offset 6, -8
 107              		.cfi_offset 14, -4
 108              		.loc 1 58 0
 109 0002 1646     		mov	r6, r2
 110 0004 3AB1     		cbz	r2, .L10
ARM GAS  C:\Users\jo\AppData\Local\Temp\ccvXihIp.s 			page 3


 111 0006 0D46     		mov	r5, r1
 112              	.LVL8:
 113 0008 1446     		mov	r4, r2
 114              	.LVL9:
 115              	.L7:
 116              	.LBB4:
 117              	.LBB5:
 118              		.loc 1 43 0
 119 000a 15F8010B 		ldrb	r0, [r5], #1	@ zero_extendqisi2
 120              	.LVL10:
 121 000e FFF7FEFF 		bl	Debug_ITMDebugOutputChar
 122              	.LVL11:
 123              	.LBE5:
 124              	.LBE4:
 125              		.loc 1 58 0
 126 0012 013C     		subs	r4, r4, #1
 127              	.LVL12:
 128 0014 F9D1     		bne	.L7
 129              	.LVL13:
 130              	.L10:
 131              		.loc 1 65 0
 132 0016 3046     		mov	r0, r6
 133 0018 70BD     		pop	{r4, r5, r6, pc}
 134              		.cfi_endproc
 135              	.LFE257:
 136              		.size	writes, .-writes
 137 001a 00BFAFF3 		.section	.text.itmObjectInit,"ax",%progbits
 137      0080
 138              		.align	2
 139              		.p2align 4,,15
 140              		.global	itmObjectInit
 141              		.thumb
 142              		.thumb_func
 143              		.type	itmObjectInit, %function
 144              	itmObjectInit:
 145              	.LFB259:
 146              		.loc 1 87 0
 147              		.cfi_startproc
 148              		@ args = 0, pretend = 0, frame = 0
 149              		@ frame_needed = 0, uses_anonymous_args = 0
 150              		@ link register save eliminated.
 151              	.LVL14:
 152              		.loc 1 88 0
 153 0000 014B     		ldr	r3, .L14
 154 0002 0360     		str	r3, [r0]
 155 0004 7047     		bx	lr
 156              	.L15:
 157 0006 00BF     		.align	2
 158              	.L14:
 159 0008 00000000 		.word	.LANCHOR0
 160              		.cfi_endproc
 161              	.LFE259:
 162              		.size	itmObjectInit, .-itmObjectInit
 163 000c AFF30080 		.section	.rodata.vmt,"a",%progbits
 164              		.align	2
 165              		.set	.LANCHOR0,. + 0
 166              		.type	vmt, %object
ARM GAS  C:\Users\jo\AppData\Local\Temp\ccvXihIp.s 			page 4


 167              		.size	vmt, 16
 168              	vmt:
 169 0000 00000000 		.word	writes
 170 0004 00000000 		.word	reads
 171 0008 00000000 		.word	put
 172 000c 00000000 		.word	get
 173              		.text
 174              	.Letext0:
 175              		.file 2 "c:\\program files\\gnu tools arm embedded\\4.9 2014q4\\lib\\gcc\\arm-none-eabi\\4.9.3\\in
 176              		.file 3 "c:\\program files\\gnu tools arm embedded\\4.9 2014q4\\arm-none-eabi\\include\\machine\\_
 177              		.file 4 "c:\\program files\\gnu tools arm embedded\\4.9 2014q4\\arm-none-eabi\\include\\stdint.h"
 178              		.file 5 "../../../os/rt/ports/ARMCMx/compilers/GCC/chtypes.h"
 179              		.file 6 "../../../os/rt/include/chsystypes.h"
 180              		.file 7 "../../../os/rt/include/chschd.h"
 181              		.file 8 "../../../os/rt/ports/ARMCMx/chcore.h"
 182              		.file 9 "../../../os/rt/ports/ARMCMx/chcore_v7m.h"
 183              		.file 10 "../../../os/rt/include/chdebug.h"
 184              		.file 11 "../../../os/rt/include/chtm.h"
 185              		.file 12 "../../../os/rt/include/chstats.h"
 186              		.file 13 "../../../os/rt/include/chmtx.h"
 187              		.file 14 "ITM_trace.h"
 188              		.file 15 "../../../os/ext/CMSIS/include/core_cm4.h"
 189              		.section	.debug_info,"",%progbits
 190              	.Ldebug_info0:
 191 0000 D7090000 		.4byte	0x9d7
 192 0004 0400     		.2byte	0x4
 193 0006 00000000 		.4byte	.Ldebug_abbrev0
 194 000a 04       		.byte	0x4
 195 000b 01       		.uleb128 0x1
 196 000c E1020000 		.4byte	.LASF131
 197 0010 01       		.byte	0x1
 198 0011 0C060000 		.4byte	.LASF132
 199 0015 28010000 		.4byte	.LASF133
 200 0019 00000000 		.4byte	.Ldebug_ranges0+0
 201 001d 00000000 		.4byte	0
 202 0021 00000000 		.4byte	.Ldebug_line0
 203 0025 02       		.uleb128 0x2
 204 0026 04       		.byte	0x4
 205 0027 05       		.byte	0x5
 206 0028 696E7400 		.ascii	"int\000"
 207 002c 03       		.uleb128 0x3
 208 002d 1D000000 		.4byte	.LASF2
 209 0031 02       		.byte	0x2
 210 0032 D4       		.byte	0xd4
 211 0033 37000000 		.4byte	0x37
 212 0037 04       		.uleb128 0x4
 213 0038 04       		.byte	0x4
 214 0039 07       		.byte	0x7
 215 003a 33020000 		.4byte	.LASF0
 216 003e 04       		.uleb128 0x4
 217 003f 01       		.byte	0x1
 218 0040 06       		.byte	0x6
 219 0041 84010000 		.4byte	.LASF1
 220 0045 03       		.uleb128 0x3
 221 0046 5A000000 		.4byte	.LASF3
 222 004a 03       		.byte	0x3
 223 004b 1D       		.byte	0x1d
ARM GAS  C:\Users\jo\AppData\Local\Temp\ccvXihIp.s 			page 5


 224 004c 50000000 		.4byte	0x50
 225 0050 04       		.uleb128 0x4
 226 0051 01       		.byte	0x1
 227 0052 08       		.byte	0x8
 228 0053 AF040000 		.4byte	.LASF4
 229 0057 04       		.uleb128 0x4
 230 0058 02       		.byte	0x2
 231 0059 05       		.byte	0x5
 232 005a CF040000 		.4byte	.LASF5
 233 005e 04       		.uleb128 0x4
 234 005f 02       		.byte	0x2
 235 0060 07       		.byte	0x7
 236 0061 59020000 		.4byte	.LASF6
 237 0065 03       		.uleb128 0x3
 238 0066 D7020000 		.4byte	.LASF7
 239 006a 03       		.byte	0x3
 240 006b 3F       		.byte	0x3f
 241 006c 70000000 		.4byte	0x70
 242 0070 04       		.uleb128 0x4
 243 0071 04       		.byte	0x4
 244 0072 05       		.byte	0x5
 245 0073 B1010000 		.4byte	.LASF8
 246 0077 03       		.uleb128 0x3
 247 0078 A0050000 		.4byte	.LASF9
 248 007c 03       		.byte	0x3
 249 007d 41       		.byte	0x41
 250 007e 82000000 		.4byte	0x82
 251 0082 04       		.uleb128 0x4
 252 0083 04       		.byte	0x4
 253 0084 07       		.byte	0x7
 254 0085 44050000 		.4byte	.LASF10
 255 0089 04       		.uleb128 0x4
 256 008a 08       		.byte	0x8
 257 008b 05       		.byte	0x5
 258 008c 76010000 		.4byte	.LASF11
 259 0090 03       		.uleb128 0x3
 260 0091 49040000 		.4byte	.LASF12
 261 0095 03       		.byte	0x3
 262 0096 5B       		.byte	0x5b
 263 0097 9B000000 		.4byte	0x9b
 264 009b 04       		.uleb128 0x4
 265 009c 08       		.byte	0x8
 266 009d 07       		.byte	0x7
 267 009e A9000000 		.4byte	.LASF13
 268 00a2 03       		.uleb128 0x3
 269 00a3 1E060000 		.4byte	.LASF14
 270 00a7 04       		.byte	0x4
 271 00a8 15       		.byte	0x15
 272 00a9 45000000 		.4byte	0x45
 273 00ad 03       		.uleb128 0x3
 274 00ae A7040000 		.4byte	.LASF15
 275 00b2 04       		.byte	0x4
 276 00b3 2C       		.byte	0x2c
 277 00b4 65000000 		.4byte	0x65
 278 00b8 03       		.uleb128 0x3
 279 00b9 1A050000 		.4byte	.LASF16
 280 00bd 04       		.byte	0x4
ARM GAS  C:\Users\jo\AppData\Local\Temp\ccvXihIp.s 			page 6


 281 00be 2D       		.byte	0x2d
 282 00bf 77000000 		.4byte	0x77
 283 00c3 03       		.uleb128 0x3
 284 00c4 2B000000 		.4byte	.LASF17
 285 00c8 04       		.byte	0x4
 286 00c9 39       		.byte	0x39
 287 00ca 90000000 		.4byte	0x90
 288 00ce 05       		.uleb128 0x5
 289 00cf AD000000 		.4byte	0xad
 290 00d3 03       		.uleb128 0x3
 291 00d4 D2050000 		.4byte	.LASF18
 292 00d8 05       		.byte	0x5
 293 00d9 45       		.byte	0x45
 294 00da B8000000 		.4byte	0xb8
 295 00de 03       		.uleb128 0x3
 296 00df 12010000 		.4byte	.LASF19
 297 00e3 05       		.byte	0x5
 298 00e4 46       		.byte	0x46
 299 00e5 C3000000 		.4byte	0xc3
 300 00e9 03       		.uleb128 0x3
 301 00ea AA020000 		.4byte	.LASF20
 302 00ee 05       		.byte	0x5
 303 00ef 48       		.byte	0x48
 304 00f0 A2000000 		.4byte	0xa2
 305 00f4 03       		.uleb128 0x3
 306 00f5 BA010000 		.4byte	.LASF21
 307 00f9 05       		.byte	0x5
 308 00fa 49       		.byte	0x49
 309 00fb A2000000 		.4byte	0xa2
 310 00ff 03       		.uleb128 0x3
 311 0100 00000000 		.4byte	.LASF22
 312 0104 05       		.byte	0x5
 313 0105 4A       		.byte	0x4a
 314 0106 A2000000 		.4byte	0xa2
 315 010a 03       		.uleb128 0x3
 316 010b 8A040000 		.4byte	.LASF23
 317 010f 05       		.byte	0x5
 318 0110 4C       		.byte	0x4c
 319 0111 B8000000 		.4byte	0xb8
 320 0115 03       		.uleb128 0x3
 321 0116 85020000 		.4byte	.LASF24
 322 011a 05       		.byte	0x5
 323 011b 4D       		.byte	0x4d
 324 011c AD000000 		.4byte	0xad
 325 0120 03       		.uleb128 0x3
 326 0121 CB020000 		.4byte	.LASF25
 327 0125 05       		.byte	0x5
 328 0126 4F       		.byte	0x4f
 329 0127 B8000000 		.4byte	0xb8
 330 012b 03       		.uleb128 0x3
 331 012c 22020000 		.4byte	.LASF26
 332 0130 05       		.byte	0x5
 333 0131 51       		.byte	0x51
 334 0132 AD000000 		.4byte	0xad
 335 0136 03       		.uleb128 0x3
 336 0137 90020000 		.4byte	.LASF27
 337 013b 05       		.byte	0x5
ARM GAS  C:\Users\jo\AppData\Local\Temp\ccvXihIp.s 			page 7


 338 013c 52       		.byte	0x52
 339 013d B8000000 		.4byte	0xb8
 340 0141 03       		.uleb128 0x3
 341 0142 82050000 		.4byte	.LASF28
 342 0146 06       		.byte	0x6
 343 0147 33       		.byte	0x33
 344 0148 B8000000 		.4byte	0xb8
 345 014c 03       		.uleb128 0x3
 346 014d 6D050000 		.4byte	.LASF29
 347 0151 06       		.byte	0x6
 348 0152 3F       		.byte	0x3f
 349 0153 57010000 		.4byte	0x157
 350 0157 06       		.uleb128 0x6
 351 0158 7B020000 		.4byte	.LASF50
 352 015c 60       		.byte	0x60
 353 015d 07       		.byte	0x7
 354 015e BE       		.byte	0xbe
 355 015f 5D020000 		.4byte	0x25d
 356 0163 07       		.uleb128 0x7
 357 0164 E7040000 		.4byte	.LASF30
 358 0168 07       		.byte	0x7
 359 0169 BF       		.byte	0xbf
 360 016a A5050000 		.4byte	0x5a5
 361 016e 00       		.byte	0
 362 016f 07       		.uleb128 0x7
 363 0170 83040000 		.4byte	.LASF31
 364 0174 07       		.byte	0x7
 365 0175 C1       		.byte	0xc1
 366 0176 A5050000 		.4byte	0x5a5
 367 017a 04       		.byte	0x4
 368 017b 07       		.uleb128 0x7
 369 017c 1B010000 		.4byte	.LASF32
 370 0180 07       		.byte	0x7
 371 0181 C3       		.byte	0xc3
 372 0182 0A010000 		.4byte	0x10a
 373 0186 08       		.byte	0x8
 374 0187 07       		.uleb128 0x7
 375 0188 6C060000 		.4byte	.LASF33
 376 018c 07       		.byte	0x7
 377 018d C4       		.byte	0xc4
 378 018e C0040000 		.4byte	0x4c0
 379 0192 0C       		.byte	0xc
 380 0193 07       		.uleb128 0x7
 381 0194 C9010000 		.4byte	.LASF34
 382 0198 07       		.byte	0x7
 383 0199 C6       		.byte	0xc6
 384 019a A5050000 		.4byte	0x5a5
 385 019e 10       		.byte	0x10
 386 019f 07       		.uleb128 0x7
 387 01a0 18040000 		.4byte	.LASF35
 388 01a4 07       		.byte	0x7
 389 01a5 C7       		.byte	0xc7
 390 01a6 A5050000 		.4byte	0x5a5
 391 01aa 14       		.byte	0x14
 392 01ab 07       		.uleb128 0x7
 393 01ac F6050000 		.4byte	.LASF36
 394 01b0 07       		.byte	0x7
ARM GAS  C:\Users\jo\AppData\Local\Temp\ccvXihIp.s 			page 8


 395 01b1 CE       		.byte	0xce
 396 01b2 61050000 		.4byte	0x561
 397 01b6 18       		.byte	0x18
 398 01b7 07       		.uleb128 0x7
 399 01b8 28020000 		.4byte	.LASF37
 400 01bc 07       		.byte	0x7
 401 01bd D4       		.byte	0xd4
 402 01be EF060000 		.4byte	0x6ef
 403 01c2 1C       		.byte	0x1c
 404 01c3 07       		.uleb128 0x7
 405 01c4 BD040000 		.4byte	.LASF38
 406 01c8 07       		.byte	0x7
 407 01c9 D9       		.byte	0xd9
 408 01ca F4000000 		.4byte	0xf4
 409 01ce 20       		.byte	0x20
 410 01cf 07       		.uleb128 0x7
 411 01d0 EE040000 		.4byte	.LASF39
 412 01d4 07       		.byte	0x7
 413 01d5 DD       		.byte	0xdd
 414 01d6 E9000000 		.4byte	0xe9
 415 01da 21       		.byte	0x21
 416 01db 07       		.uleb128 0x7
 417 01dc FD050000 		.4byte	.LASF40
 418 01e0 07       		.byte	0x7
 419 01e1 E2       		.byte	0xe2
 420 01e2 FF000000 		.4byte	0xff
 421 01e6 22       		.byte	0x22
 422 01e7 08       		.uleb128 0x8
 423 01e8 705F7500 		.ascii	"p_u\000"
 424 01ec 07       		.byte	0x7
 425 01ed 1401     		.2byte	0x114
 426 01ef B7060000 		.4byte	0x6b7
 427 01f3 24       		.byte	0x24
 428 01f4 09       		.uleb128 0x9
 429 01f5 CC030000 		.4byte	.LASF41
 430 01f9 07       		.byte	0x7
 431 01fa 1901     		.2byte	0x119
 432 01fc 5D020000 		.4byte	0x25d
 433 0200 28       		.byte	0x28
 434 0201 09       		.uleb128 0x9
 435 0202 48020000 		.4byte	.LASF42
 436 0206 07       		.byte	0x7
 437 0207 1F01     		.2byte	0x11f
 438 0209 81020000 		.4byte	0x281
 439 020d 2C       		.byte	0x2c
 440 020e 09       		.uleb128 0x9
 441 020f 49060000 		.4byte	.LASF43
 442 0213 07       		.byte	0x7
 443 0214 2301     		.2byte	0x123
 444 0216 15010000 		.4byte	0x115
 445 021a 34       		.byte	0x34
 446 021b 09       		.uleb128 0x9
 447 021c 0F050000 		.4byte	.LASF44
 448 0220 07       		.byte	0x7
 449 0221 2901     		.2byte	0x129
 450 0223 20010000 		.4byte	0x120
 451 0227 38       		.byte	0x38
ARM GAS  C:\Users\jo\AppData\Local\Temp\ccvXihIp.s 			page 9


 452 0228 09       		.uleb128 0x9
 453 0229 C5040000 		.4byte	.LASF45
 454 022d 07       		.byte	0x7
 455 022e 3001     		.2byte	0x130
 456 0230 26070000 		.4byte	0x726
 457 0234 3C       		.byte	0x3c
 458 0235 09       		.uleb128 0x9
 459 0236 8C050000 		.4byte	.LASF46
 460 023a 07       		.byte	0x7
 461 023b 3401     		.2byte	0x134
 462 023d 0A010000 		.4byte	0x10a
 463 0241 40       		.byte	0x40
 464 0242 09       		.uleb128 0x9
 465 0243 90010000 		.4byte	.LASF47
 466 0247 07       		.byte	0x7
 467 0248 3A01     		.2byte	0x13a
 468 024a 34030000 		.4byte	0x334
 469 024e 44       		.byte	0x44
 470 024f 09       		.uleb128 0x9
 471 0250 F6040000 		.4byte	.LASF48
 472 0254 07       		.byte	0x7
 473 0255 4001     		.2byte	0x140
 474 0257 68060000 		.4byte	0x668
 475 025b 48       		.byte	0x48
 476 025c 00       		.byte	0
 477 025d 03       		.uleb128 0x3
 478 025e 2D060000 		.4byte	.LASF49
 479 0262 06       		.byte	0x6
 480 0263 44       		.byte	0x44
 481 0264 68020000 		.4byte	0x268
 482 0268 06       		.uleb128 0x6
 483 0269 34050000 		.4byte	.LASF51
 484 026d 04       		.byte	0x4
 485 026e 07       		.byte	0x7
 486 026f AC       		.byte	0xac
 487 0270 81020000 		.4byte	0x281
 488 0274 07       		.uleb128 0x7
 489 0275 E7040000 		.4byte	.LASF30
 490 0279 07       		.byte	0x7
 491 027a AD       		.byte	0xad
 492 027b A5050000 		.4byte	0x5a5
 493 027f 00       		.byte	0
 494 0280 00       		.byte	0
 495 0281 03       		.uleb128 0x3
 496 0282 E6050000 		.4byte	.LASF52
 497 0286 06       		.byte	0x6
 498 0287 4B       		.byte	0x4b
 499 0288 8C020000 		.4byte	0x28c
 500 028c 06       		.uleb128 0x6
 501 028d 70000000 		.4byte	.LASF53
 502 0291 08       		.byte	0x8
 503 0292 07       		.byte	0x7
 504 0293 B3       		.byte	0xb3
 505 0294 B1020000 		.4byte	0x2b1
 506 0298 07       		.uleb128 0x7
 507 0299 E7040000 		.4byte	.LASF30
 508 029d 07       		.byte	0x7
ARM GAS  C:\Users\jo\AppData\Local\Temp\ccvXihIp.s 			page 10


 509 029e B4       		.byte	0xb4
 510 029f A5050000 		.4byte	0x5a5
 511 02a3 00       		.byte	0
 512 02a4 07       		.uleb128 0x7
 513 02a5 83040000 		.4byte	.LASF31
 514 02a9 07       		.byte	0x7
 515 02aa B5       		.byte	0xb5
 516 02ab A5050000 		.4byte	0x5a5
 517 02af 04       		.byte	0x4
 518 02b0 00       		.byte	0
 519 02b1 03       		.uleb128 0x3
 520 02b2 08000000 		.4byte	.LASF54
 521 02b6 06       		.byte	0x6
 522 02b7 52       		.byte	0x52
 523 02b8 BC020000 		.4byte	0x2bc
 524 02bc 0A       		.uleb128 0xa
 525 02bd BD020000 		.4byte	.LASF55
 526 02c1 1C       		.byte	0x1c
 527 02c2 07       		.byte	0x7
 528 02c3 7201     		.2byte	0x172
 529 02c5 18030000 		.4byte	0x318
 530 02c9 09       		.uleb128 0x9
 531 02ca 23050000 		.4byte	.LASF56
 532 02ce 07       		.byte	0x7
 533 02cf 7301     		.2byte	0x173
 534 02d1 81020000 		.4byte	0x281
 535 02d5 00       		.byte	0
 536 02d6 09       		.uleb128 0x9
 537 02d7 D9040000 		.4byte	.LASF57
 538 02db 07       		.byte	0x7
 539 02dc 7401     		.2byte	0x174
 540 02de 0A010000 		.4byte	0x10a
 541 02e2 08       		.byte	0x8
 542 02e3 09       		.uleb128 0x9
 543 02e4 20040000 		.4byte	.LASF58
 544 02e8 07       		.byte	0x7
 545 02e9 7601     		.2byte	0x176
 546 02eb C0040000 		.4byte	0x4c0
 547 02ef 0C       		.byte	0xc
 548 02f0 09       		.uleb128 0x9
 549 02f1 D9010000 		.4byte	.LASF59
 550 02f5 07       		.byte	0x7
 551 02f6 7901     		.2byte	0x179
 552 02f8 A5050000 		.4byte	0x5a5
 553 02fc 10       		.byte	0x10
 554 02fd 09       		.uleb128 0x9
 555 02fe 41040000 		.4byte	.LASF60
 556 0302 07       		.byte	0x7
 557 0303 7A01     		.2byte	0x17a
 558 0305 A5050000 		.4byte	0x5a5
 559 0309 14       		.byte	0x14
 560 030a 09       		.uleb128 0x9
 561 030b 37040000 		.4byte	.LASF61
 562 030f 07       		.byte	0x7
 563 0310 7D01     		.2byte	0x17d
 564 0312 A5050000 		.4byte	0x5a5
 565 0316 18       		.byte	0x18
ARM GAS  C:\Users\jo\AppData\Local\Temp\ccvXihIp.s 			page 11


 566 0317 00       		.byte	0
 567 0318 03       		.uleb128 0x3
 568 0319 97050000 		.4byte	.LASF62
 569 031d 06       		.byte	0x6
 570 031e 57       		.byte	0x57
 571 031f 23030000 		.4byte	0x323
 572 0323 0B       		.uleb128 0xb
 573 0324 04       		.byte	0x4
 574 0325 29030000 		.4byte	0x329
 575 0329 0C       		.uleb128 0xc
 576 032a 34030000 		.4byte	0x334
 577 032e 0D       		.uleb128 0xd
 578 032f 34030000 		.4byte	0x334
 579 0333 00       		.byte	0
 580 0334 0E       		.uleb128 0xe
 581 0335 04       		.byte	0x4
 582 0336 03       		.uleb128 0x3
 583 0337 73040000 		.4byte	.LASF63
 584 033b 06       		.byte	0x6
 585 033c 5C       		.byte	0x5c
 586 033d 41030000 		.4byte	0x341
 587 0341 0A       		.uleb128 0xa
 588 0342 FE040000 		.4byte	.LASF64
 589 0346 14       		.byte	0x14
 590 0347 07       		.byte	0x7
 591 0348 4D01     		.2byte	0x14d
 592 034a 90030000 		.4byte	0x390
 593 034e 09       		.uleb128 0x9
 594 034f 40020000 		.4byte	.LASF65
 595 0353 07       		.byte	0x7
 596 0354 4E01     		.2byte	0x14e
 597 0356 2C070000 		.4byte	0x72c
 598 035a 00       		.byte	0
 599 035b 09       		.uleb128 0x9
 600 035c EA010000 		.4byte	.LASF66
 601 0360 07       		.byte	0x7
 602 0361 4F01     		.2byte	0x14f
 603 0363 2C070000 		.4byte	0x72c
 604 0367 04       		.byte	0x4
 605 0368 09       		.uleb128 0x9
 606 0369 2B050000 		.4byte	.LASF67
 607 036d 07       		.byte	0x7
 608 036e 5001     		.2byte	0x150
 609 0370 41010000 		.4byte	0x141
 610 0374 08       		.byte	0x8
 611 0375 09       		.uleb128 0x9
 612 0376 72060000 		.4byte	.LASF68
 613 037a 07       		.byte	0x7
 614 037b 5101     		.2byte	0x151
 615 037d 18030000 		.4byte	0x318
 616 0381 0C       		.byte	0xc
 617 0382 09       		.uleb128 0x9
 618 0383 DA050000 		.4byte	.LASF69
 619 0387 07       		.byte	0x7
 620 0388 5301     		.2byte	0x153
 621 038a 34030000 		.4byte	0x334
 622 038e 10       		.byte	0x10
ARM GAS  C:\Users\jo\AppData\Local\Temp\ccvXihIp.s 			page 12


 623 038f 00       		.byte	0
 624 0390 03       		.uleb128 0x3
 625 0391 EF000000 		.4byte	.LASF70
 626 0395 06       		.byte	0x6
 627 0396 61       		.byte	0x61
 628 0397 9B030000 		.4byte	0x39b
 629 039b 0A       		.uleb128 0xa
 630 039c DF030000 		.4byte	.LASF71
 631 03a0 10       		.byte	0x10
 632 03a1 07       		.byte	0x7
 633 03a2 5D01     		.2byte	0x15d
 634 03a4 DD030000 		.4byte	0x3dd
 635 03a8 09       		.uleb128 0x9
 636 03a9 40020000 		.4byte	.LASF65
 637 03ad 07       		.byte	0x7
 638 03ae 5E01     		.2byte	0x15e
 639 03b0 2C070000 		.4byte	0x72c
 640 03b4 00       		.byte	0
 641 03b5 09       		.uleb128 0x9
 642 03b6 EA010000 		.4byte	.LASF66
 643 03ba 07       		.byte	0x7
 644 03bb 6001     		.2byte	0x160
 645 03bd 2C070000 		.4byte	0x72c
 646 03c1 04       		.byte	0x4
 647 03c2 09       		.uleb128 0x9
 648 03c3 2B050000 		.4byte	.LASF67
 649 03c7 07       		.byte	0x7
 650 03c8 6201     		.2byte	0x162
 651 03ca 41010000 		.4byte	0x141
 652 03ce 08       		.byte	0x8
 653 03cf 09       		.uleb128 0x9
 654 03d0 0C040000 		.4byte	.LASF72
 655 03d4 07       		.byte	0x7
 656 03d5 6A01     		.2byte	0x16a
 657 03d7 41010000 		.4byte	0x141
 658 03db 0C       		.byte	0xc
 659 03dc 00       		.byte	0
 660 03dd 03       		.uleb128 0x3
 661 03de 81000000 		.4byte	.LASF73
 662 03e2 06       		.byte	0x6
 663 03e3 66       		.byte	0x66
 664 03e4 E8030000 		.4byte	0x3e8
 665 03e8 0F       		.uleb128 0xf
 666 03e9 F2010000 		.4byte	.LASF74
 667 03ed 1404     		.2byte	0x414
 668 03ef 07       		.byte	0x7
 669 03f0 8401     		.2byte	0x184
 670 03f2 2B040000 		.4byte	0x42b
 671 03f6 09       		.uleb128 0x9
 672 03f7 B9050000 		.4byte	.LASF75
 673 03fb 07       		.byte	0x7
 674 03fc 8C01     		.2byte	0x18c
 675 03fe 32070000 		.4byte	0x732
 676 0402 00       		.byte	0
 677 0403 09       		.uleb128 0x9
 678 0404 04060000 		.4byte	.LASF76
 679 0408 07       		.byte	0x7
ARM GAS  C:\Users\jo\AppData\Local\Temp\ccvXihIp.s 			page 13


 680 0409 9101     		.2byte	0x191
 681 040b 2B010000 		.4byte	0x12b
 682 040f 04       		.byte	0x4
 683 0410 09       		.uleb128 0x9
 684 0411 0A020000 		.4byte	.LASF77
 685 0415 07       		.byte	0x7
 686 0416 9501     		.2byte	0x195
 687 0418 2B010000 		.4byte	0x12b
 688 041c 08       		.byte	0x8
 689 041d 09       		.uleb128 0x9
 690 041e 3C060000 		.4byte	.LASF78
 691 0422 07       		.byte	0x7
 692 0423 9B01     		.2byte	0x19b
 693 0425 FA050000 		.4byte	0x5fa
 694 0429 0C       		.byte	0xc
 695 042a 00       		.byte	0
 696 042b 03       		.uleb128 0x3
 697 042c 97020000 		.4byte	.LASF79
 698 0430 06       		.byte	0x6
 699 0431 6B       		.byte	0x6b
 700 0432 36040000 		.4byte	0x436
 701 0436 0F       		.uleb128 0xf
 702 0437 A7010000 		.4byte	.LASF80
 703 043b D805     		.2byte	0x5d8
 704 043d 07       		.byte	0x7
 705 043e A401     		.2byte	0x1a4
 706 0440 A3040000 		.4byte	0x4a3
 707 0444 09       		.uleb128 0x9
 708 0445 18060000 		.4byte	.LASF81
 709 0449 07       		.byte	0x7
 710 044a A801     		.2byte	0x1a8
 711 044c B1020000 		.4byte	0x2b1
 712 0450 00       		.byte	0
 713 0451 09       		.uleb128 0x9
 714 0452 A0010000 		.4byte	.LASF82
 715 0456 07       		.byte	0x7
 716 0457 AC01     		.2byte	0x1ac
 717 0459 90030000 		.4byte	0x390
 718 045d 1C       		.byte	0x1c
 719 045e 08       		.uleb128 0x8
 720 045f 64626700 		.ascii	"dbg\000"
 721 0463 07       		.byte	0x7
 722 0464 B001     		.2byte	0x1b0
 723 0466 DD030000 		.4byte	0x3dd
 724 046a 2C       		.byte	0x2c
 725 046b 10       		.uleb128 0x10
 726 046c E4000000 		.4byte	.LASF83
 727 0470 07       		.byte	0x7
 728 0471 B401     		.2byte	0x1b4
 729 0473 4C010000 		.4byte	0x14c
 730 0477 4004     		.2byte	0x440
 731 0479 11       		.uleb128 0x11
 732 047a 746D00   		.ascii	"tm\000"
 733 047d 07       		.byte	0x7
 734 047e B901     		.2byte	0x1b9
 735 0480 1A060000 		.4byte	0x61a
 736 0484 A004     		.2byte	0x4a0
ARM GAS  C:\Users\jo\AppData\Local\Temp\ccvXihIp.s 			page 14


 737 0486 10       		.uleb128 0x10
 738 0487 34000000 		.4byte	.LASF84
 739 048b 07       		.byte	0x7
 740 048c BF01     		.2byte	0x1bf
 741 048e AC060000 		.4byte	0x6ac
 742 0492 A804     		.2byte	0x4a8
 743 0494 10       		.uleb128 0x10
 744 0495 13020000 		.4byte	.LASF85
 745 0499 07       		.byte	0x7
 746 049a C501     		.2byte	0x1c5
 747 049c 37070000 		.4byte	0x737
 748 04a0 E004     		.2byte	0x4e0
 749 04a2 00       		.byte	0
 750 04a3 04       		.uleb128 0x4
 751 04a4 04       		.byte	0x4
 752 04a5 07       		.byte	0x7
 753 04a6 D6030000 		.4byte	.LASF86
 754 04aa 03       		.uleb128 0x3
 755 04ab E1010000 		.4byte	.LASF87
 756 04af 08       		.byte	0x8
 757 04b0 85       		.byte	0x85
 758 04b1 34030000 		.4byte	0x334
 759 04b5 03       		.uleb128 0x3
 760 04b6 BB030000 		.4byte	.LASF88
 761 04ba 08       		.byte	0x8
 762 04bb 8D       		.byte	0x8d
 763 04bc C3000000 		.4byte	0xc3
 764 04c0 06       		.uleb128 0x6
 765 04c1 CA050000 		.4byte	.LASF89
 766 04c5 04       		.byte	0x4
 767 04c6 08       		.byte	0x8
 768 04c7 A9       		.byte	0xa9
 769 04c8 D9040000 		.4byte	0x4d9
 770 04cc 12       		.uleb128 0x12
 771 04cd 72313300 		.ascii	"r13\000"
 772 04d1 08       		.byte	0x8
 773 04d2 AA       		.byte	0xaa
 774 04d3 54050000 		.4byte	0x554
 775 04d7 00       		.byte	0
 776 04d8 00       		.byte	0
 777 04d9 06       		.uleb128 0x6
 778 04da 64000000 		.4byte	.LASF90
 779 04de 24       		.byte	0x24
 780 04df 09       		.byte	0x9
 781 04e0 F4       		.byte	0xf4
 782 04e1 54050000 		.4byte	0x554
 783 04e5 08       		.uleb128 0x8
 784 04e6 723400   		.ascii	"r4\000"
 785 04e9 09       		.byte	0x9
 786 04ea 0701     		.2byte	0x107
 787 04ec AA040000 		.4byte	0x4aa
 788 04f0 00       		.byte	0
 789 04f1 08       		.uleb128 0x8
 790 04f2 723500   		.ascii	"r5\000"
 791 04f5 09       		.byte	0x9
 792 04f6 0801     		.2byte	0x108
 793 04f8 AA040000 		.4byte	0x4aa
ARM GAS  C:\Users\jo\AppData\Local\Temp\ccvXihIp.s 			page 15


 794 04fc 04       		.byte	0x4
 795 04fd 08       		.uleb128 0x8
 796 04fe 723600   		.ascii	"r6\000"
 797 0501 09       		.byte	0x9
 798 0502 0901     		.2byte	0x109
 799 0504 AA040000 		.4byte	0x4aa
 800 0508 08       		.byte	0x8
 801 0509 08       		.uleb128 0x8
 802 050a 723700   		.ascii	"r7\000"
 803 050d 09       		.byte	0x9
 804 050e 0A01     		.2byte	0x10a
 805 0510 AA040000 		.4byte	0x4aa
 806 0514 0C       		.byte	0xc
 807 0515 08       		.uleb128 0x8
 808 0516 723800   		.ascii	"r8\000"
 809 0519 09       		.byte	0x9
 810 051a 0B01     		.2byte	0x10b
 811 051c AA040000 		.4byte	0x4aa
 812 0520 10       		.byte	0x10
 813 0521 08       		.uleb128 0x8
 814 0522 723900   		.ascii	"r9\000"
 815 0525 09       		.byte	0x9
 816 0526 0C01     		.2byte	0x10c
 817 0528 AA040000 		.4byte	0x4aa
 818 052c 14       		.byte	0x14
 819 052d 08       		.uleb128 0x8
 820 052e 72313000 		.ascii	"r10\000"
 821 0532 09       		.byte	0x9
 822 0533 0D01     		.2byte	0x10d
 823 0535 AA040000 		.4byte	0x4aa
 824 0539 18       		.byte	0x18
 825 053a 08       		.uleb128 0x8
 826 053b 72313100 		.ascii	"r11\000"
 827 053f 09       		.byte	0x9
 828 0540 0E01     		.2byte	0x10e
 829 0542 AA040000 		.4byte	0x4aa
 830 0546 1C       		.byte	0x1c
 831 0547 08       		.uleb128 0x8
 832 0548 6C7200   		.ascii	"lr\000"
 833 054b 09       		.byte	0x9
 834 054c 0F01     		.2byte	0x10f
 835 054e AA040000 		.4byte	0x4aa
 836 0552 20       		.byte	0x20
 837 0553 00       		.byte	0
 838 0554 0B       		.uleb128 0xb
 839 0555 04       		.byte	0x4
 840 0556 D9040000 		.4byte	0x4d9
 841 055a 04       		.uleb128 0x4
 842 055b 01       		.byte	0x1
 843 055c 08       		.byte	0x8
 844 055d 5B050000 		.4byte	.LASF91
 845 0561 0B       		.uleb128 0xb
 846 0562 04       		.byte	0x4
 847 0563 67050000 		.4byte	0x567
 848 0567 13       		.uleb128 0x13
 849 0568 5A050000 		.4byte	0x55a
 850 056c 14       		.uleb128 0x14
ARM GAS  C:\Users\jo\AppData\Local\Temp\ccvXihIp.s 			page 16


 851 056d 10       		.byte	0x10
 852 056e 0A       		.byte	0xa
 853 056f 57       		.byte	0x57
 854 0570 A5050000 		.4byte	0x5a5
 855 0574 07       		.uleb128 0x7
 856 0575 15000000 		.4byte	.LASF92
 857 0579 0A       		.byte	0xa
 858 057a 5B       		.byte	0x5b
 859 057b 41010000 		.4byte	0x141
 860 057f 00       		.byte	0
 861 0580 07       		.uleb128 0x7
 862 0581 C3010000 		.4byte	.LASF93
 863 0585 0A       		.byte	0xa
 864 0586 5F       		.byte	0x5f
 865 0587 A5050000 		.4byte	0x5a5
 866 058b 04       		.byte	0x4
 867 058c 07       		.uleb128 0x7
 868 058d 62060000 		.4byte	.LASF94
 869 0591 0A       		.byte	0xa
 870 0592 63       		.byte	0x63
 871 0593 34030000 		.4byte	0x334
 872 0597 08       		.byte	0x8
 873 0598 07       		.uleb128 0x7
 874 0599 D2000000 		.4byte	.LASF95
 875 059d 0A       		.byte	0xa
 876 059e 67       		.byte	0x67
 877 059f A2000000 		.4byte	0xa2
 878 05a3 0C       		.byte	0xc
 879 05a4 00       		.byte	0
 880 05a5 0B       		.uleb128 0xb
 881 05a6 04       		.byte	0x4
 882 05a7 4C010000 		.4byte	0x14c
 883 05ab 03       		.uleb128 0x3
 884 05ac FD030000 		.4byte	.LASF96
 885 05b0 0A       		.byte	0xa
 886 05b1 68       		.byte	0x68
 887 05b2 6C050000 		.4byte	0x56c
 888 05b6 15       		.uleb128 0x15
 889 05b7 0804     		.2byte	0x408
 890 05b9 0A       		.byte	0xa
 891 05ba 6D       		.byte	0x6d
 892 05bb E4050000 		.4byte	0x5e4
 893 05bf 07       		.uleb128 0x7
 894 05c0 D1010000 		.4byte	.LASF97
 895 05c4 0A       		.byte	0xa
 896 05c5 71       		.byte	0x71
 897 05c6 37000000 		.4byte	0x37
 898 05ca 00       		.byte	0
 899 05cb 07       		.uleb128 0x7
 900 05cc F6030000 		.4byte	.LASF98
 901 05d0 0A       		.byte	0xa
 902 05d1 75       		.byte	0x75
 903 05d2 E4050000 		.4byte	0x5e4
 904 05d6 04       		.byte	0x4
 905 05d7 07       		.uleb128 0x7
 906 05d8 69040000 		.4byte	.LASF99
 907 05dc 0A       		.byte	0xa
ARM GAS  C:\Users\jo\AppData\Local\Temp\ccvXihIp.s 			page 17


 908 05dd 79       		.byte	0x79
 909 05de EA050000 		.4byte	0x5ea
 910 05e2 08       		.byte	0x8
 911 05e3 00       		.byte	0
 912 05e4 0B       		.uleb128 0xb
 913 05e5 04       		.byte	0x4
 914 05e6 AB050000 		.4byte	0x5ab
 915 05ea 16       		.uleb128 0x16
 916 05eb AB050000 		.4byte	0x5ab
 917 05ef FA050000 		.4byte	0x5fa
 918 05f3 17       		.uleb128 0x17
 919 05f4 A3040000 		.4byte	0x4a3
 920 05f8 3F       		.byte	0x3f
 921 05f9 00       		.byte	0
 922 05fa 03       		.uleb128 0x3
 923 05fb C0000000 		.4byte	.LASF100
 924 05ff 0A       		.byte	0xa
 925 0600 7A       		.byte	0x7a
 926 0601 B6050000 		.4byte	0x5b6
 927 0605 14       		.uleb128 0x14
 928 0606 04       		.byte	0x4
 929 0607 0B       		.byte	0xb
 930 0608 38       		.byte	0x38
 931 0609 1A060000 		.4byte	0x61a
 932 060d 07       		.uleb128 0x7
 933 060e C3050000 		.4byte	.LASF101
 934 0612 0B       		.byte	0xb
 935 0613 3C       		.byte	0x3c
 936 0614 D3000000 		.4byte	0xd3
 937 0618 00       		.byte	0
 938 0619 00       		.byte	0
 939 061a 03       		.uleb128 0x3
 940 061b 26040000 		.4byte	.LASF102
 941 061f 0B       		.byte	0xb
 942 0620 3D       		.byte	0x3d
 943 0621 05060000 		.4byte	0x605
 944 0625 14       		.uleb128 0x14
 945 0626 18       		.byte	0x18
 946 0627 0B       		.byte	0xb
 947 0628 48       		.byte	0x48
 948 0629 68060000 		.4byte	0x668
 949 062d 07       		.uleb128 0x7
 950 062e 76050000 		.4byte	.LASF103
 951 0632 0B       		.byte	0xb
 952 0633 49       		.byte	0x49
 953 0634 D3000000 		.4byte	0xd3
 954 0638 00       		.byte	0
 955 0639 07       		.uleb128 0x7
 956 063a 90000000 		.4byte	.LASF104
 957 063e 0B       		.byte	0xb
 958 063f 4A       		.byte	0x4a
 959 0640 D3000000 		.4byte	0xd3
 960 0644 04       		.byte	0x4
 961 0645 07       		.uleb128 0x7
 962 0646 8B020000 		.4byte	.LASF105
 963 064a 0B       		.byte	0xb
 964 064b 4B       		.byte	0x4b
ARM GAS  C:\Users\jo\AppData\Local\Temp\ccvXihIp.s 			page 18


 965 064c D3000000 		.4byte	0xd3
 966 0650 08       		.byte	0x8
 967 0651 12       		.uleb128 0x12
 968 0652 6E00     		.ascii	"n\000"
 969 0654 0B       		.byte	0xb
 970 0655 4C       		.byte	0x4c
 971 0656 36010000 		.4byte	0x136
 972 065a 0C       		.byte	0xc
 973 065b 07       		.uleb128 0x7
 974 065c 54040000 		.4byte	.LASF106
 975 0660 0B       		.byte	0xb
 976 0661 4D       		.byte	0x4d
 977 0662 DE000000 		.4byte	0xde
 978 0666 10       		.byte	0x10
 979 0667 00       		.byte	0
 980 0668 03       		.uleb128 0x3
 981 0669 96000000 		.4byte	.LASF107
 982 066d 0B       		.byte	0xb
 983 066e 4E       		.byte	0x4e
 984 066f 25060000 		.4byte	0x625
 985 0673 14       		.uleb128 0x14
 986 0674 38       		.byte	0x38
 987 0675 0C       		.byte	0xc
 988 0676 38       		.byte	0x38
 989 0677 AC060000 		.4byte	0x6ac
 990 067b 07       		.uleb128 0x7
 991 067c 53020000 		.4byte	.LASF108
 992 0680 0C       		.byte	0xc
 993 0681 39       		.byte	0x39
 994 0682 36010000 		.4byte	0x136
 995 0686 00       		.byte	0
 996 0687 07       		.uleb128 0x7
 997 0688 98040000 		.4byte	.LASF109
 998 068c 0C       		.byte	0xc
 999 068d 3A       		.byte	0x3a
 1000 068e 36010000 		.4byte	0x136
 1001 0692 04       		.byte	0x4
 1002 0693 07       		.uleb128 0x7
 1003 0694 4F060000 		.4byte	.LASF110
 1004 0698 0C       		.byte	0xc
 1005 0699 3B       		.byte	0x3b
 1006 069a 68060000 		.4byte	0x668
 1007 069e 08       		.byte	0x8
 1008 069f 07       		.uleb128 0x7
 1009 06a0 B2020000 		.4byte	.LASF111
 1010 06a4 0C       		.byte	0xc
 1011 06a5 3D       		.byte	0x3d
 1012 06a6 68060000 		.4byte	0x668
 1013 06aa 20       		.byte	0x20
 1014 06ab 00       		.byte	0
 1015 06ac 03       		.uleb128 0x3
 1016 06ad 6C020000 		.4byte	.LASF112
 1017 06b1 0C       		.byte	0xc
 1018 06b2 3F       		.byte	0x3f
 1019 06b3 73060000 		.4byte	0x673
 1020 06b7 18       		.uleb128 0x18
 1021 06b8 04       		.byte	0x4
ARM GAS  C:\Users\jo\AppData\Local\Temp\ccvXihIp.s 			page 19


 1022 06b9 07       		.byte	0x7
 1023 06ba F6       		.byte	0xf6
 1024 06bb EF060000 		.4byte	0x6ef
 1025 06bf 19       		.uleb128 0x19
 1026 06c0 24000000 		.4byte	.LASF113
 1027 06c4 07       		.byte	0x7
 1028 06c5 FD       		.byte	0xfd
 1029 06c6 15010000 		.4byte	0x115
 1030 06ca 1A       		.uleb128 0x1a
 1031 06cb DB000000 		.4byte	.LASF114
 1032 06cf 07       		.byte	0x7
 1033 06d0 0401     		.2byte	0x104
 1034 06d2 15010000 		.4byte	0x115
 1035 06d6 1A       		.uleb128 0x1a
 1036 06d7 26060000 		.4byte	.LASF115
 1037 06db 07       		.byte	0x7
 1038 06dc 0B01     		.2byte	0x10b
 1039 06de 34030000 		.4byte	0x334
 1040 06e2 1A       		.uleb128 0x1a
 1041 06e3 E0040000 		.4byte	.LASF116
 1042 06e7 07       		.byte	0x7
 1043 06e8 1201     		.2byte	0x112
 1044 06ea 20010000 		.4byte	0x120
 1045 06ee 00       		.byte	0
 1046 06ef 0B       		.uleb128 0xb
 1047 06f0 04       		.byte	0x4
 1048 06f1 B5040000 		.4byte	0x4b5
 1049 06f5 06       		.uleb128 0x6
 1050 06f6 92040000 		.4byte	.LASF117
 1051 06fa 10       		.byte	0x10
 1052 06fb 0D       		.byte	0xd
 1053 06fc 39       		.byte	0x39
 1054 06fd 26070000 		.4byte	0x726
 1055 0701 07       		.uleb128 0x7
 1056 0702 98010000 		.4byte	.LASF118
 1057 0706 0D       		.byte	0xd
 1058 0707 3A       		.byte	0x3a
 1059 0708 81020000 		.4byte	0x281
 1060 070c 00       		.byte	0
 1061 070d 07       		.uleb128 0x7
 1062 070e 5A060000 		.4byte	.LASF119
 1063 0712 0D       		.byte	0xd
 1064 0713 3C       		.byte	0x3c
 1065 0714 A5050000 		.4byte	0x5a5
 1066 0718 08       		.byte	0x8
 1067 0719 07       		.uleb128 0x7
 1068 071a 7B050000 		.4byte	.LASF120
 1069 071e 0D       		.byte	0xd
 1070 071f 3E       		.byte	0x3e
 1071 0720 67070000 		.4byte	0x767
 1072 0724 0C       		.byte	0xc
 1073 0725 00       		.byte	0
 1074 0726 0B       		.uleb128 0xb
 1075 0727 04       		.byte	0x4
 1076 0728 F5060000 		.4byte	0x6f5
 1077 072c 0B       		.uleb128 0xb
 1078 072d 04       		.byte	0x4
ARM GAS  C:\Users\jo\AppData\Local\Temp\ccvXihIp.s 			page 20


 1079 072e 36030000 		.4byte	0x336
 1080 0732 05       		.uleb128 0x5
 1081 0733 61050000 		.4byte	0x561
 1082 0737 16       		.uleb128 0x16
 1083 0738 B5040000 		.4byte	0x4b5
 1084 073c 47070000 		.4byte	0x747
 1085 0740 17       		.uleb128 0x17
 1086 0741 A3040000 		.4byte	0x4a3
 1087 0745 1E       		.byte	0x1e
 1088 0746 00       		.byte	0
 1089 0747 0B       		.uleb128 0xb
 1090 0748 04       		.byte	0x4
 1091 0749 4D070000 		.4byte	0x74d
 1092 074d 1B       		.uleb128 0x1b
 1093 074e 15010000 		.4byte	0x115
 1094 0752 5C070000 		.4byte	0x75c
 1095 0756 0D       		.uleb128 0xd
 1096 0757 34030000 		.4byte	0x334
 1097 075b 00       		.byte	0
 1098 075c 03       		.uleb128 0x3
 1099 075d 02020000 		.4byte	.LASF121
 1100 0761 0D       		.byte	0xd
 1101 0762 34       		.byte	0x34
 1102 0763 F5060000 		.4byte	0x6f5
 1103 0767 0B       		.uleb128 0xb
 1104 0768 04       		.byte	0x4
 1105 0769 5C070000 		.4byte	0x75c
 1106 076d 0B       		.uleb128 0xb
 1107 076e 04       		.byte	0x4
 1108 076f A2000000 		.4byte	0xa2
 1109 0773 1B       		.uleb128 0x1b
 1110 0774 2C000000 		.4byte	0x2c
 1111 0778 8C070000 		.4byte	0x78c
 1112 077c 0D       		.uleb128 0xd
 1113 077d 34030000 		.4byte	0x334
 1114 0781 0D       		.uleb128 0xd
 1115 0782 8C070000 		.4byte	0x78c
 1116 0786 0D       		.uleb128 0xd
 1117 0787 2C000000 		.4byte	0x2c
 1118 078b 00       		.byte	0
 1119 078c 0B       		.uleb128 0xb
 1120 078d 04       		.byte	0x4
 1121 078e 92070000 		.4byte	0x792
 1122 0792 13       		.uleb128 0x13
 1123 0793 A2000000 		.4byte	0xa2
 1124 0797 0B       		.uleb128 0xb
 1125 0798 04       		.byte	0x4
 1126 0799 73070000 		.4byte	0x773
 1127 079d 1B       		.uleb128 0x1b
 1128 079e 2C000000 		.4byte	0x2c
 1129 07a2 B6070000 		.4byte	0x7b6
 1130 07a6 0D       		.uleb128 0xd
 1131 07a7 34030000 		.4byte	0x334
 1132 07ab 0D       		.uleb128 0xd
 1133 07ac 6D070000 		.4byte	0x76d
 1134 07b0 0D       		.uleb128 0xd
 1135 07b1 2C000000 		.4byte	0x2c
ARM GAS  C:\Users\jo\AppData\Local\Temp\ccvXihIp.s 			page 21


 1136 07b5 00       		.byte	0
 1137 07b6 0B       		.uleb128 0xb
 1138 07b7 04       		.byte	0x4
 1139 07b8 9D070000 		.4byte	0x79d
 1140 07bc 1B       		.uleb128 0x1b
 1141 07bd 15010000 		.4byte	0x115
 1142 07c1 D0070000 		.4byte	0x7d0
 1143 07c5 0D       		.uleb128 0xd
 1144 07c6 34030000 		.4byte	0x334
 1145 07ca 0D       		.uleb128 0xd
 1146 07cb A2000000 		.4byte	0xa2
 1147 07cf 00       		.byte	0
 1148 07d0 0B       		.uleb128 0xb
 1149 07d1 04       		.byte	0x4
 1150 07d2 BC070000 		.4byte	0x7bc
 1151 07d6 04       		.uleb128 0x4
 1152 07d7 01       		.byte	0x1
 1153 07d8 02       		.byte	0x2
 1154 07d9 A1040000 		.4byte	.LASF122
 1155 07dd 06       		.uleb128 0x6
 1156 07de 60050000 		.4byte	.LASF123
 1157 07e2 10       		.byte	0x10
 1158 07e3 0E       		.byte	0xe
 1159 07e4 2E       		.byte	0x2e
 1160 07e5 1A080000 		.4byte	0x81a
 1161 07e9 07       		.uleb128 0x7
 1162 07ea C6030000 		.4byte	.LASF124
 1163 07ee 0E       		.byte	0xe
 1164 07ef 2F       		.byte	0x2f
 1165 07f0 97070000 		.4byte	0x797
 1166 07f4 00       		.byte	0
 1167 07f5 07       		.uleb128 0x7
 1168 07f6 56050000 		.4byte	.LASF125
 1169 07fa 0E       		.byte	0xe
 1170 07fb 2F       		.byte	0x2f
 1171 07fc B6070000 		.4byte	0x7b6
 1172 0800 04       		.byte	0x4
 1173 0801 12       		.uleb128 0x12
 1174 0802 70757400 		.ascii	"put\000"
 1175 0806 0E       		.byte	0xe
 1176 0807 2F       		.byte	0x2f
 1177 0808 D0070000 		.4byte	0x7d0
 1178 080c 08       		.byte	0x8
 1179 080d 12       		.uleb128 0x12
 1180 080e 67657400 		.ascii	"get\000"
 1181 0812 0E       		.byte	0xe
 1182 0813 2F       		.byte	0x2f
 1183 0814 47070000 		.4byte	0x747
 1184 0818 0C       		.byte	0xc
 1185 0819 00       		.byte	0
 1186 081a 14       		.uleb128 0x14
 1187 081b 04       		.byte	0x4
 1188 081c 0E       		.byte	0xe
 1189 081d 39       		.byte	0x39
 1190 081e 2F080000 		.4byte	0x82f
 1191 0822 12       		.uleb128 0x12
 1192 0823 766D7400 		.ascii	"vmt\000"
ARM GAS  C:\Users\jo\AppData\Local\Temp\ccvXihIp.s 			page 22


 1193 0827 0E       		.byte	0xe
 1194 0828 3B       		.byte	0x3b
 1195 0829 2F080000 		.4byte	0x82f
 1196 082d 00       		.byte	0
 1197 082e 00       		.byte	0
 1198 082f 0B       		.uleb128 0xb
 1199 0830 04       		.byte	0x4
 1200 0831 35080000 		.4byte	0x835
 1201 0835 13       		.uleb128 0x13
 1202 0836 DD070000 		.4byte	0x7dd
 1203 083a 03       		.uleb128 0x3
 1204 083b 5F040000 		.4byte	.LASF126
 1205 083f 0E       		.byte	0xe
 1206 0840 3D       		.byte	0x3d
 1207 0841 1A080000 		.4byte	0x81a
 1208 0845 1C       		.uleb128 0x1c
 1209 0846 70757400 		.ascii	"put\000"
 1210 084a 01       		.byte	0x1
 1211 084b 27       		.byte	0x27
 1212 084c 15010000 		.4byte	0x115
 1213 0850 01       		.byte	0x1
 1214 0851 69080000 		.4byte	0x869
 1215 0855 1D       		.uleb128 0x1d
 1216 0856 697000   		.ascii	"ip\000"
 1217 0859 01       		.byte	0x1
 1218 085a 27       		.byte	0x27
 1219 085b 34030000 		.4byte	0x334
 1220 085f 1D       		.uleb128 0x1d
 1221 0860 6200     		.ascii	"b\000"
 1222 0862 01       		.byte	0x1
 1223 0863 27       		.byte	0x27
 1224 0864 A2000000 		.4byte	0xa2
 1225 0868 00       		.byte	0
 1226 0869 1E       		.uleb128 0x1e
 1227 086a 67657400 		.ascii	"get\000"
 1228 086e 01       		.byte	0x1
 1229 086f 30       		.byte	0x30
 1230 0870 15010000 		.4byte	0x115
 1231 0874 00000000 		.4byte	.LFB256
 1232 0878 04000000 		.4byte	.LFE256-.LFB256
 1233 087c 01       		.uleb128 0x1
 1234 087d 9C       		.byte	0x9c
 1235 087e 91080000 		.4byte	0x891
 1236 0882 1F       		.uleb128 0x1f
 1237 0883 697000   		.ascii	"ip\000"
 1238 0886 01       		.byte	0x1
 1239 0887 30       		.byte	0x30
 1240 0888 34030000 		.4byte	0x334
 1241 088c 00000000 		.4byte	.LLST0
 1242 0890 00       		.byte	0
 1243 0891 20       		.uleb128 0x20
 1244 0892 22010000 		.4byte	.LASF127
 1245 0896 01       		.byte	0x1
 1246 0897 43       		.byte	0x43
 1247 0898 2C000000 		.4byte	0x2c
 1248 089c 00000000 		.4byte	.LFB258
 1249 08a0 04000000 		.4byte	.LFE258-.LFB258
ARM GAS  C:\Users\jo\AppData\Local\Temp\ccvXihIp.s 			page 23


 1250 08a4 01       		.uleb128 0x1
 1251 08a5 9C       		.byte	0x9c
 1252 08a6 D0080000 		.4byte	0x8d0
 1253 08aa 1F       		.uleb128 0x1f
 1254 08ab 697000   		.ascii	"ip\000"
 1255 08ae 01       		.byte	0x1
 1256 08af 43       		.byte	0x43
 1257 08b0 34030000 		.4byte	0x334
 1258 08b4 21000000 		.4byte	.LLST1
 1259 08b8 21       		.uleb128 0x21
 1260 08b9 627000   		.ascii	"bp\000"
 1261 08bc 01       		.byte	0x1
 1262 08bd 43       		.byte	0x43
 1263 08be 6D070000 		.4byte	0x76d
 1264 08c2 01       		.uleb128 0x1
 1265 08c3 51       		.byte	0x51
 1266 08c4 21       		.uleb128 0x21
 1267 08c5 6E00     		.ascii	"n\000"
 1268 08c7 01       		.byte	0x1
 1269 08c8 43       		.byte	0x43
 1270 08c9 2C000000 		.4byte	0x2c
 1271 08cd 01       		.uleb128 0x1
 1272 08ce 52       		.byte	0x52
 1273 08cf 00       		.byte	0
 1274 08d0 22       		.uleb128 0x22
 1275 08d1 45080000 		.4byte	0x845
 1276 08d5 00000000 		.4byte	.LFB255
 1277 08d9 0C000000 		.4byte	.LFE255-.LFB255
 1278 08dd 01       		.uleb128 0x1
 1279 08de 9C       		.byte	0x9c
 1280 08df FF080000 		.4byte	0x8ff
 1281 08e3 23       		.uleb128 0x23
 1282 08e4 55080000 		.4byte	0x855
 1283 08e8 42000000 		.4byte	.LLST2
 1284 08ec 23       		.uleb128 0x23
 1285 08ed 5F080000 		.4byte	0x85f
 1286 08f1 63000000 		.4byte	.LLST3
 1287 08f5 24       		.uleb128 0x24
 1288 08f6 08000000 		.4byte	.LVL6
 1289 08fa CD090000 		.4byte	0x9cd
 1290 08fe 00       		.byte	0
 1291 08ff 20       		.uleb128 0x20
 1292 0900 A3020000 		.4byte	.LASF128
 1293 0904 01       		.byte	0x1
 1294 0905 37       		.byte	0x37
 1295 0906 2C000000 		.4byte	0x2c
 1296 090a 00000000 		.4byte	.LFB257
 1297 090e 1A000000 		.4byte	.LFE257-.LFB257
 1298 0912 01       		.uleb128 0x1
 1299 0913 9C       		.byte	0x9c
 1300 0914 7C090000 		.4byte	0x97c
 1301 0918 1F       		.uleb128 0x1f
 1302 0919 697000   		.ascii	"ip\000"
 1303 091c 01       		.byte	0x1
 1304 091d 37       		.byte	0x37
 1305 091e 34030000 		.4byte	0x334
 1306 0922 84000000 		.4byte	.LLST4
ARM GAS  C:\Users\jo\AppData\Local\Temp\ccvXihIp.s 			page 24


 1307 0926 1F       		.uleb128 0x1f
 1308 0927 627000   		.ascii	"bp\000"
 1309 092a 01       		.byte	0x1
 1310 092b 37       		.byte	0x37
 1311 092c 8C070000 		.4byte	0x78c
 1312 0930 A5000000 		.4byte	.LLST5
 1313 0934 1F       		.uleb128 0x1f
 1314 0935 6E00     		.ascii	"n\000"
 1315 0937 01       		.byte	0x1
 1316 0938 37       		.byte	0x37
 1317 0939 2C000000 		.4byte	0x2c
 1318 093d E6000000 		.4byte	.LLST6
 1319 0941 25       		.uleb128 0x25
 1320 0942 636E7400 		.ascii	"cnt\000"
 1321 0946 01       		.byte	0x1
 1322 0947 38       		.byte	0x38
 1323 0948 2C000000 		.4byte	0x2c
 1324 094c 04010000 		.4byte	.LLST7
 1325 0950 26       		.uleb128 0x26
 1326 0951 45080000 		.4byte	0x845
 1327 0955 0A000000 		.4byte	.LBB4
 1328 0959 08000000 		.4byte	.LBE4-.LBB4
 1329 095d 01       		.byte	0x1
 1330 095e 3B       		.byte	0x3b
 1331 095f 23       		.uleb128 0x23
 1332 0960 5F080000 		.4byte	0x85f
 1333 0964 3A010000 		.4byte	.LLST8
 1334 0968 23       		.uleb128 0x23
 1335 0969 55080000 		.4byte	0x855
 1336 096d 5A010000 		.4byte	.LLST9
 1337 0971 24       		.uleb128 0x24
 1338 0972 12000000 		.4byte	.LVL11
 1339 0976 CD090000 		.4byte	0x9cd
 1340 097a 00       		.byte	0
 1341 097b 00       		.byte	0
 1342 097c 27       		.uleb128 0x27
 1343 097d AB050000 		.4byte	.LASF134
 1344 0981 01       		.byte	0x1
 1345 0982 57       		.byte	0x57
 1346 0983 00000000 		.4byte	.LFB259
 1347 0987 0C000000 		.4byte	.LFE259-.LFB259
 1348 098b 01       		.uleb128 0x1
 1349 098c 9C       		.byte	0x9c
 1350 098d 9F090000 		.4byte	0x99f
 1351 0991 28       		.uleb128 0x28
 1352 0992 E1050000 		.4byte	.LASF129
 1353 0996 01       		.byte	0x1
 1354 0997 57       		.byte	0x57
 1355 0998 9F090000 		.4byte	0x99f
 1356 099c 01       		.uleb128 0x1
 1357 099d 50       		.byte	0x50
 1358 099e 00       		.byte	0
 1359 099f 0B       		.uleb128 0xb
 1360 09a0 04       		.byte	0x4
 1361 09a1 3A080000 		.4byte	0x83a
 1362 09a5 29       		.uleb128 0x29
 1363 09a6 766D7400 		.ascii	"vmt\000"
ARM GAS  C:\Users\jo\AppData\Local\Temp\ccvXihIp.s 			page 25


 1364 09aa 01       		.byte	0x1
 1365 09ab 4C       		.byte	0x4c
 1366 09ac 35080000 		.4byte	0x835
 1367 09b0 05       		.uleb128 0x5
 1368 09b1 03       		.byte	0x3
 1369 09b2 00000000 		.4byte	vmt
 1370 09b6 2A       		.uleb128 0x2a
 1371 09b7 05010000 		.4byte	.LASF130
 1372 09bb 0F       		.byte	0xf
 1373 09bc A706     		.2byte	0x6a7
 1374 09be CE000000 		.4byte	0xce
 1375 09c2 2B       		.uleb128 0x2b
 1376 09c3 636800   		.ascii	"ch\000"
 1377 09c6 07       		.byte	0x7
 1378 09c7 EB01     		.2byte	0x1eb
 1379 09c9 2B040000 		.4byte	0x42b
 1380 09cd 2C       		.uleb128 0x2c
 1381 09ce 41000000 		.4byte	.LASF135
 1382 09d2 01       		.byte	0x1
 1383 09d3 22       		.byte	0x22
 1384 09d4 0D       		.uleb128 0xd
 1385 09d5 5A050000 		.4byte	0x55a
 1386 09d9 00       		.byte	0
 1387 09da 00       		.byte	0
 1388              		.section	.debug_abbrev,"",%progbits
 1389              	.Ldebug_abbrev0:
 1390 0000 01       		.uleb128 0x1
 1391 0001 11       		.uleb128 0x11
 1392 0002 01       		.byte	0x1
 1393 0003 25       		.uleb128 0x25
 1394 0004 0E       		.uleb128 0xe
 1395 0005 13       		.uleb128 0x13
 1396 0006 0B       		.uleb128 0xb
 1397 0007 03       		.uleb128 0x3
 1398 0008 0E       		.uleb128 0xe
 1399 0009 1B       		.uleb128 0x1b
 1400 000a 0E       		.uleb128 0xe
 1401 000b 55       		.uleb128 0x55
 1402 000c 17       		.uleb128 0x17
 1403 000d 11       		.uleb128 0x11
 1404 000e 01       		.uleb128 0x1
 1405 000f 10       		.uleb128 0x10
 1406 0010 17       		.uleb128 0x17
 1407 0011 00       		.byte	0
 1408 0012 00       		.byte	0
 1409 0013 02       		.uleb128 0x2
 1410 0014 24       		.uleb128 0x24
 1411 0015 00       		.byte	0
 1412 0016 0B       		.uleb128 0xb
 1413 0017 0B       		.uleb128 0xb
 1414 0018 3E       		.uleb128 0x3e
 1415 0019 0B       		.uleb128 0xb
 1416 001a 03       		.uleb128 0x3
 1417 001b 08       		.uleb128 0x8
 1418 001c 00       		.byte	0
 1419 001d 00       		.byte	0
 1420 001e 03       		.uleb128 0x3
ARM GAS  C:\Users\jo\AppData\Local\Temp\ccvXihIp.s 			page 26


 1421 001f 16       		.uleb128 0x16
 1422 0020 00       		.byte	0
 1423 0021 03       		.uleb128 0x3
 1424 0022 0E       		.uleb128 0xe
 1425 0023 3A       		.uleb128 0x3a
 1426 0024 0B       		.uleb128 0xb
 1427 0025 3B       		.uleb128 0x3b
 1428 0026 0B       		.uleb128 0xb
 1429 0027 49       		.uleb128 0x49
 1430 0028 13       		.uleb128 0x13
 1431 0029 00       		.byte	0
 1432 002a 00       		.byte	0
 1433 002b 04       		.uleb128 0x4
 1434 002c 24       		.uleb128 0x24
 1435 002d 00       		.byte	0
 1436 002e 0B       		.uleb128 0xb
 1437 002f 0B       		.uleb128 0xb
 1438 0030 3E       		.uleb128 0x3e
 1439 0031 0B       		.uleb128 0xb
 1440 0032 03       		.uleb128 0x3
 1441 0033 0E       		.uleb128 0xe
 1442 0034 00       		.byte	0
 1443 0035 00       		.byte	0
 1444 0036 05       		.uleb128 0x5
 1445 0037 35       		.uleb128 0x35
 1446 0038 00       		.byte	0
 1447 0039 49       		.uleb128 0x49
 1448 003a 13       		.uleb128 0x13
 1449 003b 00       		.byte	0
 1450 003c 00       		.byte	0
 1451 003d 06       		.uleb128 0x6
 1452 003e 13       		.uleb128 0x13
 1453 003f 01       		.byte	0x1
 1454 0040 03       		.uleb128 0x3
 1455 0041 0E       		.uleb128 0xe
 1456 0042 0B       		.uleb128 0xb
 1457 0043 0B       		.uleb128 0xb
 1458 0044 3A       		.uleb128 0x3a
 1459 0045 0B       		.uleb128 0xb
 1460 0046 3B       		.uleb128 0x3b
 1461 0047 0B       		.uleb128 0xb
 1462 0048 01       		.uleb128 0x1
 1463 0049 13       		.uleb128 0x13
 1464 004a 00       		.byte	0
 1465 004b 00       		.byte	0
 1466 004c 07       		.uleb128 0x7
 1467 004d 0D       		.uleb128 0xd
 1468 004e 00       		.byte	0
 1469 004f 03       		.uleb128 0x3
 1470 0050 0E       		.uleb128 0xe
 1471 0051 3A       		.uleb128 0x3a
 1472 0052 0B       		.uleb128 0xb
 1473 0053 3B       		.uleb128 0x3b
 1474 0054 0B       		.uleb128 0xb
 1475 0055 49       		.uleb128 0x49
 1476 0056 13       		.uleb128 0x13
 1477 0057 38       		.uleb128 0x38
ARM GAS  C:\Users\jo\AppData\Local\Temp\ccvXihIp.s 			page 27


 1478 0058 0B       		.uleb128 0xb
 1479 0059 00       		.byte	0
 1480 005a 00       		.byte	0
 1481 005b 08       		.uleb128 0x8
 1482 005c 0D       		.uleb128 0xd
 1483 005d 00       		.byte	0
 1484 005e 03       		.uleb128 0x3
 1485 005f 08       		.uleb128 0x8
 1486 0060 3A       		.uleb128 0x3a
 1487 0061 0B       		.uleb128 0xb
 1488 0062 3B       		.uleb128 0x3b
 1489 0063 05       		.uleb128 0x5
 1490 0064 49       		.uleb128 0x49
 1491 0065 13       		.uleb128 0x13
 1492 0066 38       		.uleb128 0x38
 1493 0067 0B       		.uleb128 0xb
 1494 0068 00       		.byte	0
 1495 0069 00       		.byte	0
 1496 006a 09       		.uleb128 0x9
 1497 006b 0D       		.uleb128 0xd
 1498 006c 00       		.byte	0
 1499 006d 03       		.uleb128 0x3
 1500 006e 0E       		.uleb128 0xe
 1501 006f 3A       		.uleb128 0x3a
 1502 0070 0B       		.uleb128 0xb
 1503 0071 3B       		.uleb128 0x3b
 1504 0072 05       		.uleb128 0x5
 1505 0073 49       		.uleb128 0x49
 1506 0074 13       		.uleb128 0x13
 1507 0075 38       		.uleb128 0x38
 1508 0076 0B       		.uleb128 0xb
 1509 0077 00       		.byte	0
 1510 0078 00       		.byte	0
 1511 0079 0A       		.uleb128 0xa
 1512 007a 13       		.uleb128 0x13
 1513 007b 01       		.byte	0x1
 1514 007c 03       		.uleb128 0x3
 1515 007d 0E       		.uleb128 0xe
 1516 007e 0B       		.uleb128 0xb
 1517 007f 0B       		.uleb128 0xb
 1518 0080 3A       		.uleb128 0x3a
 1519 0081 0B       		.uleb128 0xb
 1520 0082 3B       		.uleb128 0x3b
 1521 0083 05       		.uleb128 0x5
 1522 0084 01       		.uleb128 0x1
 1523 0085 13       		.uleb128 0x13
 1524 0086 00       		.byte	0
 1525 0087 00       		.byte	0
 1526 0088 0B       		.uleb128 0xb
 1527 0089 0F       		.uleb128 0xf
 1528 008a 00       		.byte	0
 1529 008b 0B       		.uleb128 0xb
 1530 008c 0B       		.uleb128 0xb
 1531 008d 49       		.uleb128 0x49
 1532 008e 13       		.uleb128 0x13
 1533 008f 00       		.byte	0
 1534 0090 00       		.byte	0
ARM GAS  C:\Users\jo\AppData\Local\Temp\ccvXihIp.s 			page 28


 1535 0091 0C       		.uleb128 0xc
 1536 0092 15       		.uleb128 0x15
 1537 0093 01       		.byte	0x1
 1538 0094 27       		.uleb128 0x27
 1539 0095 19       		.uleb128 0x19
 1540 0096 01       		.uleb128 0x1
 1541 0097 13       		.uleb128 0x13
 1542 0098 00       		.byte	0
 1543 0099 00       		.byte	0
 1544 009a 0D       		.uleb128 0xd
 1545 009b 05       		.uleb128 0x5
 1546 009c 00       		.byte	0
 1547 009d 49       		.uleb128 0x49
 1548 009e 13       		.uleb128 0x13
 1549 009f 00       		.byte	0
 1550 00a0 00       		.byte	0
 1551 00a1 0E       		.uleb128 0xe
 1552 00a2 0F       		.uleb128 0xf
 1553 00a3 00       		.byte	0
 1554 00a4 0B       		.uleb128 0xb
 1555 00a5 0B       		.uleb128 0xb
 1556 00a6 00       		.byte	0
 1557 00a7 00       		.byte	0
 1558 00a8 0F       		.uleb128 0xf
 1559 00a9 13       		.uleb128 0x13
 1560 00aa 01       		.byte	0x1
 1561 00ab 03       		.uleb128 0x3
 1562 00ac 0E       		.uleb128 0xe
 1563 00ad 0B       		.uleb128 0xb
 1564 00ae 05       		.uleb128 0x5
 1565 00af 3A       		.uleb128 0x3a
 1566 00b0 0B       		.uleb128 0xb
 1567 00b1 3B       		.uleb128 0x3b
 1568 00b2 05       		.uleb128 0x5
 1569 00b3 01       		.uleb128 0x1
 1570 00b4 13       		.uleb128 0x13
 1571 00b5 00       		.byte	0
 1572 00b6 00       		.byte	0
 1573 00b7 10       		.uleb128 0x10
 1574 00b8 0D       		.uleb128 0xd
 1575 00b9 00       		.byte	0
 1576 00ba 03       		.uleb128 0x3
 1577 00bb 0E       		.uleb128 0xe
 1578 00bc 3A       		.uleb128 0x3a
 1579 00bd 0B       		.uleb128 0xb
 1580 00be 3B       		.uleb128 0x3b
 1581 00bf 05       		.uleb128 0x5
 1582 00c0 49       		.uleb128 0x49
 1583 00c1 13       		.uleb128 0x13
 1584 00c2 38       		.uleb128 0x38
 1585 00c3 05       		.uleb128 0x5
 1586 00c4 00       		.byte	0
 1587 00c5 00       		.byte	0
 1588 00c6 11       		.uleb128 0x11
 1589 00c7 0D       		.uleb128 0xd
 1590 00c8 00       		.byte	0
 1591 00c9 03       		.uleb128 0x3
ARM GAS  C:\Users\jo\AppData\Local\Temp\ccvXihIp.s 			page 29


 1592 00ca 08       		.uleb128 0x8
 1593 00cb 3A       		.uleb128 0x3a
 1594 00cc 0B       		.uleb128 0xb
 1595 00cd 3B       		.uleb128 0x3b
 1596 00ce 05       		.uleb128 0x5
 1597 00cf 49       		.uleb128 0x49
 1598 00d0 13       		.uleb128 0x13
 1599 00d1 38       		.uleb128 0x38
 1600 00d2 05       		.uleb128 0x5
 1601 00d3 00       		.byte	0
 1602 00d4 00       		.byte	0
 1603 00d5 12       		.uleb128 0x12
 1604 00d6 0D       		.uleb128 0xd
 1605 00d7 00       		.byte	0
 1606 00d8 03       		.uleb128 0x3
 1607 00d9 08       		.uleb128 0x8
 1608 00da 3A       		.uleb128 0x3a
 1609 00db 0B       		.uleb128 0xb
 1610 00dc 3B       		.uleb128 0x3b
 1611 00dd 0B       		.uleb128 0xb
 1612 00de 49       		.uleb128 0x49
 1613 00df 13       		.uleb128 0x13
 1614 00e0 38       		.uleb128 0x38
 1615 00e1 0B       		.uleb128 0xb
 1616 00e2 00       		.byte	0
 1617 00e3 00       		.byte	0
 1618 00e4 13       		.uleb128 0x13
 1619 00e5 26       		.uleb128 0x26
 1620 00e6 00       		.byte	0
 1621 00e7 49       		.uleb128 0x49
 1622 00e8 13       		.uleb128 0x13
 1623 00e9 00       		.byte	0
 1624 00ea 00       		.byte	0
 1625 00eb 14       		.uleb128 0x14
 1626 00ec 13       		.uleb128 0x13
 1627 00ed 01       		.byte	0x1
 1628 00ee 0B       		.uleb128 0xb
 1629 00ef 0B       		.uleb128 0xb
 1630 00f0 3A       		.uleb128 0x3a
 1631 00f1 0B       		.uleb128 0xb
 1632 00f2 3B       		.uleb128 0x3b
 1633 00f3 0B       		.uleb128 0xb
 1634 00f4 01       		.uleb128 0x1
 1635 00f5 13       		.uleb128 0x13
 1636 00f6 00       		.byte	0
 1637 00f7 00       		.byte	0
 1638 00f8 15       		.uleb128 0x15
 1639 00f9 13       		.uleb128 0x13
 1640 00fa 01       		.byte	0x1
 1641 00fb 0B       		.uleb128 0xb
 1642 00fc 05       		.uleb128 0x5
 1643 00fd 3A       		.uleb128 0x3a
 1644 00fe 0B       		.uleb128 0xb
 1645 00ff 3B       		.uleb128 0x3b
 1646 0100 0B       		.uleb128 0xb
 1647 0101 01       		.uleb128 0x1
 1648 0102 13       		.uleb128 0x13
ARM GAS  C:\Users\jo\AppData\Local\Temp\ccvXihIp.s 			page 30


 1649 0103 00       		.byte	0
 1650 0104 00       		.byte	0
 1651 0105 16       		.uleb128 0x16
 1652 0106 01       		.uleb128 0x1
 1653 0107 01       		.byte	0x1
 1654 0108 49       		.uleb128 0x49
 1655 0109 13       		.uleb128 0x13
 1656 010a 01       		.uleb128 0x1
 1657 010b 13       		.uleb128 0x13
 1658 010c 00       		.byte	0
 1659 010d 00       		.byte	0
 1660 010e 17       		.uleb128 0x17
 1661 010f 21       		.uleb128 0x21
 1662 0110 00       		.byte	0
 1663 0111 49       		.uleb128 0x49
 1664 0112 13       		.uleb128 0x13
 1665 0113 2F       		.uleb128 0x2f
 1666 0114 0B       		.uleb128 0xb
 1667 0115 00       		.byte	0
 1668 0116 00       		.byte	0
 1669 0117 18       		.uleb128 0x18
 1670 0118 17       		.uleb128 0x17
 1671 0119 01       		.byte	0x1
 1672 011a 0B       		.uleb128 0xb
 1673 011b 0B       		.uleb128 0xb
 1674 011c 3A       		.uleb128 0x3a
 1675 011d 0B       		.uleb128 0xb
 1676 011e 3B       		.uleb128 0x3b
 1677 011f 0B       		.uleb128 0xb
 1678 0120 01       		.uleb128 0x1
 1679 0121 13       		.uleb128 0x13
 1680 0122 00       		.byte	0
 1681 0123 00       		.byte	0
 1682 0124 19       		.uleb128 0x19
 1683 0125 0D       		.uleb128 0xd
 1684 0126 00       		.byte	0
 1685 0127 03       		.uleb128 0x3
 1686 0128 0E       		.uleb128 0xe
 1687 0129 3A       		.uleb128 0x3a
 1688 012a 0B       		.uleb128 0xb
 1689 012b 3B       		.uleb128 0x3b
 1690 012c 0B       		.uleb128 0xb
 1691 012d 49       		.uleb128 0x49
 1692 012e 13       		.uleb128 0x13
 1693 012f 00       		.byte	0
 1694 0130 00       		.byte	0
 1695 0131 1A       		.uleb128 0x1a
 1696 0132 0D       		.uleb128 0xd
 1697 0133 00       		.byte	0
 1698 0134 03       		.uleb128 0x3
 1699 0135 0E       		.uleb128 0xe
 1700 0136 3A       		.uleb128 0x3a
 1701 0137 0B       		.uleb128 0xb
 1702 0138 3B       		.uleb128 0x3b
 1703 0139 05       		.uleb128 0x5
 1704 013a 49       		.uleb128 0x49
 1705 013b 13       		.uleb128 0x13
ARM GAS  C:\Users\jo\AppData\Local\Temp\ccvXihIp.s 			page 31


 1706 013c 00       		.byte	0
 1707 013d 00       		.byte	0
 1708 013e 1B       		.uleb128 0x1b
 1709 013f 15       		.uleb128 0x15
 1710 0140 01       		.byte	0x1
 1711 0141 27       		.uleb128 0x27
 1712 0142 19       		.uleb128 0x19
 1713 0143 49       		.uleb128 0x49
 1714 0144 13       		.uleb128 0x13
 1715 0145 01       		.uleb128 0x1
 1716 0146 13       		.uleb128 0x13
 1717 0147 00       		.byte	0
 1718 0148 00       		.byte	0
 1719 0149 1C       		.uleb128 0x1c
 1720 014a 2E       		.uleb128 0x2e
 1721 014b 01       		.byte	0x1
 1722 014c 03       		.uleb128 0x3
 1723 014d 08       		.uleb128 0x8
 1724 014e 3A       		.uleb128 0x3a
 1725 014f 0B       		.uleb128 0xb
 1726 0150 3B       		.uleb128 0x3b
 1727 0151 0B       		.uleb128 0xb
 1728 0152 27       		.uleb128 0x27
 1729 0153 19       		.uleb128 0x19
 1730 0154 49       		.uleb128 0x49
 1731 0155 13       		.uleb128 0x13
 1732 0156 20       		.uleb128 0x20
 1733 0157 0B       		.uleb128 0xb
 1734 0158 01       		.uleb128 0x1
 1735 0159 13       		.uleb128 0x13
 1736 015a 00       		.byte	0
 1737 015b 00       		.byte	0
 1738 015c 1D       		.uleb128 0x1d
 1739 015d 05       		.uleb128 0x5
 1740 015e 00       		.byte	0
 1741 015f 03       		.uleb128 0x3
 1742 0160 08       		.uleb128 0x8
 1743 0161 3A       		.uleb128 0x3a
 1744 0162 0B       		.uleb128 0xb
 1745 0163 3B       		.uleb128 0x3b
 1746 0164 0B       		.uleb128 0xb
 1747 0165 49       		.uleb128 0x49
 1748 0166 13       		.uleb128 0x13
 1749 0167 00       		.byte	0
 1750 0168 00       		.byte	0
 1751 0169 1E       		.uleb128 0x1e
 1752 016a 2E       		.uleb128 0x2e
 1753 016b 01       		.byte	0x1
 1754 016c 03       		.uleb128 0x3
 1755 016d 08       		.uleb128 0x8
 1756 016e 3A       		.uleb128 0x3a
 1757 016f 0B       		.uleb128 0xb
 1758 0170 3B       		.uleb128 0x3b
 1759 0171 0B       		.uleb128 0xb
 1760 0172 27       		.uleb128 0x27
 1761 0173 19       		.uleb128 0x19
 1762 0174 49       		.uleb128 0x49
ARM GAS  C:\Users\jo\AppData\Local\Temp\ccvXihIp.s 			page 32


 1763 0175 13       		.uleb128 0x13
 1764 0176 11       		.uleb128 0x11
 1765 0177 01       		.uleb128 0x1
 1766 0178 12       		.uleb128 0x12
 1767 0179 06       		.uleb128 0x6
 1768 017a 40       		.uleb128 0x40
 1769 017b 18       		.uleb128 0x18
 1770 017c 9742     		.uleb128 0x2117
 1771 017e 19       		.uleb128 0x19
 1772 017f 01       		.uleb128 0x1
 1773 0180 13       		.uleb128 0x13
 1774 0181 00       		.byte	0
 1775 0182 00       		.byte	0
 1776 0183 1F       		.uleb128 0x1f
 1777 0184 05       		.uleb128 0x5
 1778 0185 00       		.byte	0
 1779 0186 03       		.uleb128 0x3
 1780 0187 08       		.uleb128 0x8
 1781 0188 3A       		.uleb128 0x3a
 1782 0189 0B       		.uleb128 0xb
 1783 018a 3B       		.uleb128 0x3b
 1784 018b 0B       		.uleb128 0xb
 1785 018c 49       		.uleb128 0x49
 1786 018d 13       		.uleb128 0x13
 1787 018e 02       		.uleb128 0x2
 1788 018f 17       		.uleb128 0x17
 1789 0190 00       		.byte	0
 1790 0191 00       		.byte	0
 1791 0192 20       		.uleb128 0x20
 1792 0193 2E       		.uleb128 0x2e
 1793 0194 01       		.byte	0x1
 1794 0195 03       		.uleb128 0x3
 1795 0196 0E       		.uleb128 0xe
 1796 0197 3A       		.uleb128 0x3a
 1797 0198 0B       		.uleb128 0xb
 1798 0199 3B       		.uleb128 0x3b
 1799 019a 0B       		.uleb128 0xb
 1800 019b 27       		.uleb128 0x27
 1801 019c 19       		.uleb128 0x19
 1802 019d 49       		.uleb128 0x49
 1803 019e 13       		.uleb128 0x13
 1804 019f 11       		.uleb128 0x11
 1805 01a0 01       		.uleb128 0x1
 1806 01a1 12       		.uleb128 0x12
 1807 01a2 06       		.uleb128 0x6
 1808 01a3 40       		.uleb128 0x40
 1809 01a4 18       		.uleb128 0x18
 1810 01a5 9742     		.uleb128 0x2117
 1811 01a7 19       		.uleb128 0x19
 1812 01a8 01       		.uleb128 0x1
 1813 01a9 13       		.uleb128 0x13
 1814 01aa 00       		.byte	0
 1815 01ab 00       		.byte	0
 1816 01ac 21       		.uleb128 0x21
 1817 01ad 05       		.uleb128 0x5
 1818 01ae 00       		.byte	0
 1819 01af 03       		.uleb128 0x3
ARM GAS  C:\Users\jo\AppData\Local\Temp\ccvXihIp.s 			page 33


 1820 01b0 08       		.uleb128 0x8
 1821 01b1 3A       		.uleb128 0x3a
 1822 01b2 0B       		.uleb128 0xb
 1823 01b3 3B       		.uleb128 0x3b
 1824 01b4 0B       		.uleb128 0xb
 1825 01b5 49       		.uleb128 0x49
 1826 01b6 13       		.uleb128 0x13
 1827 01b7 02       		.uleb128 0x2
 1828 01b8 18       		.uleb128 0x18
 1829 01b9 00       		.byte	0
 1830 01ba 00       		.byte	0
 1831 01bb 22       		.uleb128 0x22
 1832 01bc 2E       		.uleb128 0x2e
 1833 01bd 01       		.byte	0x1
 1834 01be 31       		.uleb128 0x31
 1835 01bf 13       		.uleb128 0x13
 1836 01c0 11       		.uleb128 0x11
 1837 01c1 01       		.uleb128 0x1
 1838 01c2 12       		.uleb128 0x12
 1839 01c3 06       		.uleb128 0x6
 1840 01c4 40       		.uleb128 0x40
 1841 01c5 18       		.uleb128 0x18
 1842 01c6 9742     		.uleb128 0x2117
 1843 01c8 19       		.uleb128 0x19
 1844 01c9 01       		.uleb128 0x1
 1845 01ca 13       		.uleb128 0x13
 1846 01cb 00       		.byte	0
 1847 01cc 00       		.byte	0
 1848 01cd 23       		.uleb128 0x23
 1849 01ce 05       		.uleb128 0x5
 1850 01cf 00       		.byte	0
 1851 01d0 31       		.uleb128 0x31
 1852 01d1 13       		.uleb128 0x13
 1853 01d2 02       		.uleb128 0x2
 1854 01d3 17       		.uleb128 0x17
 1855 01d4 00       		.byte	0
 1856 01d5 00       		.byte	0
 1857 01d6 24       		.uleb128 0x24
 1858 01d7 898201   		.uleb128 0x4109
 1859 01da 00       		.byte	0
 1860 01db 11       		.uleb128 0x11
 1861 01dc 01       		.uleb128 0x1
 1862 01dd 31       		.uleb128 0x31
 1863 01de 13       		.uleb128 0x13
 1864 01df 00       		.byte	0
 1865 01e0 00       		.byte	0
 1866 01e1 25       		.uleb128 0x25
 1867 01e2 34       		.uleb128 0x34
 1868 01e3 00       		.byte	0
 1869 01e4 03       		.uleb128 0x3
 1870 01e5 08       		.uleb128 0x8
 1871 01e6 3A       		.uleb128 0x3a
 1872 01e7 0B       		.uleb128 0xb
 1873 01e8 3B       		.uleb128 0x3b
 1874 01e9 0B       		.uleb128 0xb
 1875 01ea 49       		.uleb128 0x49
 1876 01eb 13       		.uleb128 0x13
ARM GAS  C:\Users\jo\AppData\Local\Temp\ccvXihIp.s 			page 34


 1877 01ec 02       		.uleb128 0x2
 1878 01ed 17       		.uleb128 0x17
 1879 01ee 00       		.byte	0
 1880 01ef 00       		.byte	0
 1881 01f0 26       		.uleb128 0x26
 1882 01f1 1D       		.uleb128 0x1d
 1883 01f2 01       		.byte	0x1
 1884 01f3 31       		.uleb128 0x31
 1885 01f4 13       		.uleb128 0x13
 1886 01f5 11       		.uleb128 0x11
 1887 01f6 01       		.uleb128 0x1
 1888 01f7 12       		.uleb128 0x12
 1889 01f8 06       		.uleb128 0x6
 1890 01f9 58       		.uleb128 0x58
 1891 01fa 0B       		.uleb128 0xb
 1892 01fb 59       		.uleb128 0x59
 1893 01fc 0B       		.uleb128 0xb
 1894 01fd 00       		.byte	0
 1895 01fe 00       		.byte	0
 1896 01ff 27       		.uleb128 0x27
 1897 0200 2E       		.uleb128 0x2e
 1898 0201 01       		.byte	0x1
 1899 0202 3F       		.uleb128 0x3f
 1900 0203 19       		.uleb128 0x19
 1901 0204 03       		.uleb128 0x3
 1902 0205 0E       		.uleb128 0xe
 1903 0206 3A       		.uleb128 0x3a
 1904 0207 0B       		.uleb128 0xb
 1905 0208 3B       		.uleb128 0x3b
 1906 0209 0B       		.uleb128 0xb
 1907 020a 27       		.uleb128 0x27
 1908 020b 19       		.uleb128 0x19
 1909 020c 11       		.uleb128 0x11
 1910 020d 01       		.uleb128 0x1
 1911 020e 12       		.uleb128 0x12
 1912 020f 06       		.uleb128 0x6
 1913 0210 40       		.uleb128 0x40
 1914 0211 18       		.uleb128 0x18
 1915 0212 9742     		.uleb128 0x2117
 1916 0214 19       		.uleb128 0x19
 1917 0215 01       		.uleb128 0x1
 1918 0216 13       		.uleb128 0x13
 1919 0217 00       		.byte	0
 1920 0218 00       		.byte	0
 1921 0219 28       		.uleb128 0x28
 1922 021a 05       		.uleb128 0x5
 1923 021b 00       		.byte	0
 1924 021c 03       		.uleb128 0x3
 1925 021d 0E       		.uleb128 0xe
 1926 021e 3A       		.uleb128 0x3a
 1927 021f 0B       		.uleb128 0xb
 1928 0220 3B       		.uleb128 0x3b
 1929 0221 0B       		.uleb128 0xb
 1930 0222 49       		.uleb128 0x49
 1931 0223 13       		.uleb128 0x13
 1932 0224 02       		.uleb128 0x2
 1933 0225 18       		.uleb128 0x18
ARM GAS  C:\Users\jo\AppData\Local\Temp\ccvXihIp.s 			page 35


 1934 0226 00       		.byte	0
 1935 0227 00       		.byte	0
 1936 0228 29       		.uleb128 0x29
 1937 0229 34       		.uleb128 0x34
 1938 022a 00       		.byte	0
 1939 022b 03       		.uleb128 0x3
 1940 022c 08       		.uleb128 0x8
 1941 022d 3A       		.uleb128 0x3a
 1942 022e 0B       		.uleb128 0xb
 1943 022f 3B       		.uleb128 0x3b
 1944 0230 0B       		.uleb128 0xb
 1945 0231 49       		.uleb128 0x49
 1946 0232 13       		.uleb128 0x13
 1947 0233 02       		.uleb128 0x2
 1948 0234 18       		.uleb128 0x18
 1949 0235 00       		.byte	0
 1950 0236 00       		.byte	0
 1951 0237 2A       		.uleb128 0x2a
 1952 0238 34       		.uleb128 0x34
 1953 0239 00       		.byte	0
 1954 023a 03       		.uleb128 0x3
 1955 023b 0E       		.uleb128 0xe
 1956 023c 3A       		.uleb128 0x3a
 1957 023d 0B       		.uleb128 0xb
 1958 023e 3B       		.uleb128 0x3b
 1959 023f 05       		.uleb128 0x5
 1960 0240 49       		.uleb128 0x49
 1961 0241 13       		.uleb128 0x13
 1962 0242 3F       		.uleb128 0x3f
 1963 0243 19       		.uleb128 0x19
 1964 0244 3C       		.uleb128 0x3c
 1965 0245 19       		.uleb128 0x19
 1966 0246 00       		.byte	0
 1967 0247 00       		.byte	0
 1968 0248 2B       		.uleb128 0x2b
 1969 0249 34       		.uleb128 0x34
 1970 024a 00       		.byte	0
 1971 024b 03       		.uleb128 0x3
 1972 024c 08       		.uleb128 0x8
 1973 024d 3A       		.uleb128 0x3a
 1974 024e 0B       		.uleb128 0xb
 1975 024f 3B       		.uleb128 0x3b
 1976 0250 05       		.uleb128 0x5
 1977 0251 49       		.uleb128 0x49
 1978 0252 13       		.uleb128 0x13
 1979 0253 3F       		.uleb128 0x3f
 1980 0254 19       		.uleb128 0x19
 1981 0255 3C       		.uleb128 0x3c
 1982 0256 19       		.uleb128 0x19
 1983 0257 00       		.byte	0
 1984 0258 00       		.byte	0
 1985 0259 2C       		.uleb128 0x2c
 1986 025a 2E       		.uleb128 0x2e
 1987 025b 01       		.byte	0x1
 1988 025c 3F       		.uleb128 0x3f
 1989 025d 19       		.uleb128 0x19
 1990 025e 03       		.uleb128 0x3
ARM GAS  C:\Users\jo\AppData\Local\Temp\ccvXihIp.s 			page 36


 1991 025f 0E       		.uleb128 0xe
 1992 0260 3A       		.uleb128 0x3a
 1993 0261 0B       		.uleb128 0xb
 1994 0262 3B       		.uleb128 0x3b
 1995 0263 0B       		.uleb128 0xb
 1996 0264 27       		.uleb128 0x27
 1997 0265 19       		.uleb128 0x19
 1998 0266 3C       		.uleb128 0x3c
 1999 0267 19       		.uleb128 0x19
 2000 0268 00       		.byte	0
 2001 0269 00       		.byte	0
 2002 026a 00       		.byte	0
 2003              		.section	.debug_loc,"",%progbits
 2004              	.Ldebug_loc0:
 2005              	.LLST0:
 2006 0000 00000000 		.4byte	.LVL0
 2007 0004 02000000 		.4byte	.LVL1
 2008 0008 0100     		.2byte	0x1
 2009 000a 50       		.byte	0x50
 2010 000b 02000000 		.4byte	.LVL1
 2011 000f 04000000 		.4byte	.LFE256
 2012 0013 0400     		.2byte	0x4
 2013 0015 F3       		.byte	0xf3
 2014 0016 01       		.uleb128 0x1
 2015 0017 50       		.byte	0x50
 2016 0018 9F       		.byte	0x9f
 2017 0019 00000000 		.4byte	0
 2018 001d 00000000 		.4byte	0
 2019              	.LLST1:
 2020 0021 00000000 		.4byte	.LVL2
 2021 0025 02000000 		.4byte	.LVL3
 2022 0029 0100     		.2byte	0x1
 2023 002b 50       		.byte	0x50
 2024 002c 02000000 		.4byte	.LVL3
 2025 0030 04000000 		.4byte	.LFE258
 2026 0034 0400     		.2byte	0x4
 2027 0036 F3       		.byte	0xf3
 2028 0037 01       		.uleb128 0x1
 2029 0038 50       		.byte	0x50
 2030 0039 9F       		.byte	0x9f
 2031 003a 00000000 		.4byte	0
 2032 003e 00000000 		.4byte	0
 2033              	.LLST2:
 2034 0042 00000000 		.4byte	.LVL4
 2035 0046 04000000 		.4byte	.LVL5
 2036 004a 0100     		.2byte	0x1
 2037 004c 50       		.byte	0x50
 2038 004d 04000000 		.4byte	.LVL5
 2039 0051 0C000000 		.4byte	.LFE255
 2040 0055 0400     		.2byte	0x4
 2041 0057 F3       		.byte	0xf3
 2042 0058 01       		.uleb128 0x1
 2043 0059 50       		.byte	0x50
 2044 005a 9F       		.byte	0x9f
 2045 005b 00000000 		.4byte	0
 2046 005f 00000000 		.4byte	0
 2047              	.LLST3:
ARM GAS  C:\Users\jo\AppData\Local\Temp\ccvXihIp.s 			page 37


 2048 0063 00000000 		.4byte	.LVL4
 2049 0067 07000000 		.4byte	.LVL6-1
 2050 006b 0100     		.2byte	0x1
 2051 006d 51       		.byte	0x51
 2052 006e 07000000 		.4byte	.LVL6-1
 2053 0072 0C000000 		.4byte	.LFE255
 2054 0076 0400     		.2byte	0x4
 2055 0078 F3       		.byte	0xf3
 2056 0079 01       		.uleb128 0x1
 2057 007a 51       		.byte	0x51
 2058 007b 9F       		.byte	0x9f
 2059 007c 00000000 		.4byte	0
 2060 0080 00000000 		.4byte	0
 2061              	.LLST4:
 2062 0084 00000000 		.4byte	.LVL7
 2063 0088 0A000000 		.4byte	.LVL9
 2064 008c 0100     		.2byte	0x1
 2065 008e 50       		.byte	0x50
 2066 008f 0A000000 		.4byte	.LVL9
 2067 0093 1A000000 		.4byte	.LFE257
 2068 0097 0400     		.2byte	0x4
 2069 0099 F3       		.byte	0xf3
 2070 009a 01       		.uleb128 0x1
 2071 009b 50       		.byte	0x50
 2072 009c 9F       		.byte	0x9f
 2073 009d 00000000 		.4byte	0
 2074 00a1 00000000 		.4byte	0
 2075              	.LLST5:
 2076 00a5 00000000 		.4byte	.LVL7
 2077 00a9 00000000 		.4byte	.LVL7
 2078 00ad 0100     		.2byte	0x1
 2079 00af 51       		.byte	0x51
 2080 00b0 00000000 		.4byte	.LVL7
 2081 00b4 08000000 		.4byte	.LVL8
 2082 00b8 0100     		.2byte	0x1
 2083 00ba 55       		.byte	0x55
 2084 00bb 0A000000 		.4byte	.LVL9
 2085 00bf 0E000000 		.4byte	.LVL10
 2086 00c3 0100     		.2byte	0x1
 2087 00c5 55       		.byte	0x55
 2088 00c6 0E000000 		.4byte	.LVL10
 2089 00ca 12000000 		.4byte	.LVL11
 2090 00ce 0300     		.2byte	0x3
 2091 00d0 75       		.byte	0x75
 2092 00d1 7F       		.sleb128 -1
 2093 00d2 9F       		.byte	0x9f
 2094 00d3 12000000 		.4byte	.LVL11
 2095 00d7 16000000 		.4byte	.LVL13
 2096 00db 0100     		.2byte	0x1
 2097 00dd 55       		.byte	0x55
 2098 00de 00000000 		.4byte	0
 2099 00e2 00000000 		.4byte	0
 2100              	.LLST6:
 2101 00e6 00000000 		.4byte	.LVL7
 2102 00ea 0A000000 		.4byte	.LVL9
 2103 00ee 0100     		.2byte	0x1
 2104 00f0 52       		.byte	0x52
ARM GAS  C:\Users\jo\AppData\Local\Temp\ccvXihIp.s 			page 38


 2105 00f1 0A000000 		.4byte	.LVL9
 2106 00f5 1A000000 		.4byte	.LFE257
 2107 00f9 0100     		.2byte	0x1
 2108 00fb 56       		.byte	0x56
 2109 00fc 00000000 		.4byte	0
 2110 0100 00000000 		.4byte	0
 2111              	.LLST7:
 2112 0104 00000000 		.4byte	.LVL7
 2113 0108 0A000000 		.4byte	.LVL9
 2114 010c 0100     		.2byte	0x1
 2115 010e 52       		.byte	0x52
 2116 010f 0A000000 		.4byte	.LVL9
 2117 0113 12000000 		.4byte	.LVL11
 2118 0117 0100     		.2byte	0x1
 2119 0119 54       		.byte	0x54
 2120 011a 12000000 		.4byte	.LVL11
 2121 011e 14000000 		.4byte	.LVL12
 2122 0122 0300     		.2byte	0x3
 2123 0124 74       		.byte	0x74
 2124 0125 7F       		.sleb128 -1
 2125 0126 9F       		.byte	0x9f
 2126 0127 14000000 		.4byte	.LVL12
 2127 012b 16000000 		.4byte	.LVL13
 2128 012f 0100     		.2byte	0x1
 2129 0131 54       		.byte	0x54
 2130 0132 00000000 		.4byte	0
 2131 0136 00000000 		.4byte	0
 2132              	.LLST8:
 2133 013a 0A000000 		.4byte	.LVL9
 2134 013e 0E000000 		.4byte	.LVL10
 2135 0142 0200     		.2byte	0x2
 2136 0144 75       		.byte	0x75
 2137 0145 00       		.sleb128 0
 2138 0146 0E000000 		.4byte	.LVL10
 2139 014a 11000000 		.4byte	.LVL11-1
 2140 014e 0200     		.2byte	0x2
 2141 0150 75       		.byte	0x75
 2142 0151 7F       		.sleb128 -1
 2143 0152 00000000 		.4byte	0
 2144 0156 00000000 		.4byte	0
 2145              	.LLST9:
 2146 015a 0A000000 		.4byte	.LVL9
 2147 015e 16000000 		.4byte	.LVL13
 2148 0162 0400     		.2byte	0x4
 2149 0164 F3       		.byte	0xf3
 2150 0165 01       		.uleb128 0x1
 2151 0166 50       		.byte	0x50
 2152 0167 9F       		.byte	0x9f
 2153 0168 00000000 		.4byte	0
 2154 016c 00000000 		.4byte	0
 2155              		.section	.debug_aranges,"",%progbits
 2156 0000 3C000000 		.4byte	0x3c
 2157 0004 0200     		.2byte	0x2
 2158 0006 00000000 		.4byte	.Ldebug_info0
 2159 000a 04       		.byte	0x4
 2160 000b 00       		.byte	0
 2161 000c 0000     		.2byte	0
ARM GAS  C:\Users\jo\AppData\Local\Temp\ccvXihIp.s 			page 39


 2162 000e 0000     		.2byte	0
 2163 0010 00000000 		.4byte	.LFB256
 2164 0014 04000000 		.4byte	.LFE256-.LFB256
 2165 0018 00000000 		.4byte	.LFB258
 2166 001c 04000000 		.4byte	.LFE258-.LFB258
 2167 0020 00000000 		.4byte	.LFB255
 2168 0024 0C000000 		.4byte	.LFE255-.LFB255
 2169 0028 00000000 		.4byte	.LFB257
 2170 002c 1A000000 		.4byte	.LFE257-.LFB257
 2171 0030 00000000 		.4byte	.LFB259
 2172 0034 0C000000 		.4byte	.LFE259-.LFB259
 2173 0038 00000000 		.4byte	0
 2174 003c 00000000 		.4byte	0
 2175              		.section	.debug_ranges,"",%progbits
 2176              	.Ldebug_ranges0:
 2177 0000 00000000 		.4byte	.LFB256
 2178 0004 04000000 		.4byte	.LFE256
 2179 0008 00000000 		.4byte	.LFB258
 2180 000c 04000000 		.4byte	.LFE258
 2181 0010 00000000 		.4byte	.LFB255
 2182 0014 0C000000 		.4byte	.LFE255
 2183 0018 00000000 		.4byte	.LFB257
 2184 001c 1A000000 		.4byte	.LFE257
 2185 0020 00000000 		.4byte	.LFB259
 2186 0024 0C000000 		.4byte	.LFE259
 2187 0028 00000000 		.4byte	0
 2188 002c 00000000 		.4byte	0
 2189              		.section	.debug_line,"",%progbits
 2190              	.Ldebug_line0:
 2191 0000 AB020000 		.section	.debug_str,"MS",%progbits,1
 2191      02004B02 
 2191      00000201 
 2191      FB0E0D00 
 2191      01010101 
 2192              	.LASF22:
 2193 0000 74726566 		.ascii	"trefs_t\000"
 2193      735F7400 
 2194              	.LASF54:
 2195 0008 72656164 		.ascii	"ready_list_t\000"
 2195      795F6C69 
 2195      73745F74 
 2195      00
 2196              	.LASF92:
 2197 0015 73655F74 		.ascii	"se_time\000"
 2197      696D6500 
 2198              	.LASF2:
 2199 001d 73697A65 		.ascii	"size_t\000"
 2199      5F7400
 2200              	.LASF113:
 2201 0024 7264796D 		.ascii	"rdymsg\000"
 2201      736700
 2202              	.LASF17:
 2203 002b 75696E74 		.ascii	"uint64_t\000"
 2203      36345F74 
 2203      00
 2204              	.LASF84:
 2205 0034 6B65726E 		.ascii	"kernel_stats\000"
ARM GAS  C:\Users\jo\AppData\Local\Temp\ccvXihIp.s 			page 40


 2205      656C5F73 
 2205      74617473 
 2205      00
 2206              	.LASF135:
 2207 0041 44656275 		.ascii	"Debug_ITMDebugOutputChar\000"
 2207      675F4954 
 2207      4D446562 
 2207      75674F75 
 2207      74707574 
 2208              	.LASF3:
 2209 005a 5F5F7569 		.ascii	"__uint8_t\000"
 2209      6E74385F 
 2209      7400
 2210              	.LASF90:
 2211 0064 706F7274 		.ascii	"port_intctx\000"
 2211      5F696E74 
 2211      63747800 
 2212              	.LASF53:
 2213 0070 63685F74 		.ascii	"ch_threads_queue\000"
 2213      68726561 
 2213      64735F71 
 2213      75657565 
 2213      00
 2214              	.LASF73:
 2215 0081 73797374 		.ascii	"system_debug_t\000"
 2215      656D5F64 
 2215      65627567 
 2215      5F7400
 2216              	.LASF104:
 2217 0090 776F7273 		.ascii	"worst\000"
 2217      7400
 2218              	.LASF107:
 2219 0096 74696D65 		.ascii	"time_measurement_t\000"
 2219      5F6D6561 
 2219      73757265 
 2219      6D656E74 
 2219      5F7400
 2220              	.LASF13:
 2221 00a9 6C6F6E67 		.ascii	"long long unsigned int\000"
 2221      206C6F6E 
 2221      6720756E 
 2221      7369676E 
 2221      65642069 
 2222              	.LASF100:
 2223 00c0 63685F74 		.ascii	"ch_trace_buffer_t\000"
 2223      72616365 
 2223      5F627566 
 2223      6665725F 
 2223      7400
 2224              	.LASF95:
 2225 00d2 73655F73 		.ascii	"se_state\000"
 2225      74617465 
 2225      00
 2226              	.LASF114:
 2227 00db 65786974 		.ascii	"exitcode\000"
 2227      636F6465 
 2227      00
ARM GAS  C:\Users\jo\AppData\Local\Temp\ccvXihIp.s 			page 41


 2228              	.LASF83:
 2229 00e4 6D61696E 		.ascii	"mainthread\000"
 2229      74687265 
 2229      616400
 2230              	.LASF70:
 2231 00ef 76697274 		.ascii	"virtual_timers_list_t\000"
 2231      75616C5F 
 2231      74696D65 
 2231      72735F6C 
 2231      6973745F 
 2232              	.LASF130:
 2233 0105 49544D5F 		.ascii	"ITM_RxBuffer\000"
 2233      52784275 
 2233      66666572 
 2233      00
 2234              	.LASF19:
 2235 0112 72747469 		.ascii	"rttime_t\000"
 2235      6D655F74 
 2235      00
 2236              	.LASF32:
 2237 011b 705F7072 		.ascii	"p_prio\000"
 2237      696F00
 2238              	.LASF127:
 2239 0122 72656164 		.ascii	"reads\000"
 2239      7300
 2240              	.LASF133:
 2241 0128 433A5C55 		.ascii	"C:\\Users\\jo\\Documents\\GitHub\\ChibiOS\\demos\\S"
 2241      73657273 
 2241      5C6A6F5C 
 2241      446F6375 
 2241      6D656E74 
 2242 0154 544D3332 		.ascii	"TM32\\RT-STM32F407-DISCOVERY-uHttp\000"
 2242      5C52542D 
 2242      53544D33 
 2242      32463430 
 2242      372D4449 
 2243              	.LASF11:
 2244 0176 6C6F6E67 		.ascii	"long long int\000"
 2244      206C6F6E 
 2244      6720696E 
 2244      7400
 2245              	.LASF1:
 2246 0184 7369676E 		.ascii	"signed char\000"
 2246      65642063 
 2246      68617200 
 2247              	.LASF47:
 2248 0190 705F6D70 		.ascii	"p_mpool\000"
 2248      6F6F6C00 
 2249              	.LASF118:
 2250 0198 6D5F7175 		.ascii	"m_queue\000"
 2250      65756500 
 2251              	.LASF82:
 2252 01a0 76746C69 		.ascii	"vtlist\000"
 2252      737400
 2253              	.LASF80:
 2254 01a7 63685F73 		.ascii	"ch_system\000"
 2254      79737465 
ARM GAS  C:\Users\jo\AppData\Local\Temp\ccvXihIp.s 			page 42


 2254      6D00
 2255              	.LASF8:
 2256 01b1 6C6F6E67 		.ascii	"long int\000"
 2256      20696E74 
 2256      00
 2257              	.LASF21:
 2258 01ba 74737461 		.ascii	"tstate_t\000"
 2258      74655F74 
 2258      00
 2259              	.LASF93:
 2260 01c3 73655F74 		.ascii	"se_tp\000"
 2260      7000
 2261              	.LASF34:
 2262 01c9 705F6E65 		.ascii	"p_newer\000"
 2262      77657200 
 2263              	.LASF97:
 2264 01d1 74625F73 		.ascii	"tb_size\000"
 2264      697A6500 
 2265              	.LASF59:
 2266 01d9 725F6E65 		.ascii	"r_newer\000"
 2266      77657200 
 2267              	.LASF87:
 2268 01e1 72656761 		.ascii	"regarm_t\000"
 2268      726D5F74 
 2268      00
 2269              	.LASF66:
 2270 01ea 76745F70 		.ascii	"vt_prev\000"
 2270      72657600 
 2271              	.LASF74:
 2272 01f2 63685F73 		.ascii	"ch_system_debug\000"
 2272      79737465 
 2272      6D5F6465 
 2272      62756700 
 2273              	.LASF121:
 2274 0202 6D757465 		.ascii	"mutex_t\000"
 2274      785F7400 
 2275              	.LASF77:
 2276 020a 6C6F636B 		.ascii	"lock_cnt\000"
 2276      5F636E74 
 2276      00
 2277              	.LASF85:
 2278 0213 69646C65 		.ascii	"idle_thread_wa\000"
 2278      5F746872 
 2278      6561645F 
 2278      776100
 2279              	.LASF26:
 2280 0222 636E745F 		.ascii	"cnt_t\000"
 2280      7400
 2281              	.LASF37:
 2282 0228 705F7374 		.ascii	"p_stklimit\000"
 2282      6B6C696D 
 2282      697400
 2283              	.LASF0:
 2284 0233 756E7369 		.ascii	"unsigned int\000"
 2284      676E6564 
 2284      20696E74 
 2284      00
ARM GAS  C:\Users\jo\AppData\Local\Temp\ccvXihIp.s 			page 43


 2285              	.LASF65:
 2286 0240 76745F6E 		.ascii	"vt_next\000"
 2286      65787400 
 2287              	.LASF42:
 2288 0248 705F6D73 		.ascii	"p_msgqueue\000"
 2288      67717565 
 2288      756500
 2289              	.LASF108:
 2290 0253 6E5F6972 		.ascii	"n_irq\000"
 2290      7100
 2291              	.LASF6:
 2292 0259 73686F72 		.ascii	"short unsigned int\000"
 2292      7420756E 
 2292      7369676E 
 2292      65642069 
 2292      6E7400
 2293              	.LASF112:
 2294 026c 6B65726E 		.ascii	"kernel_stats_t\000"
 2294      656C5F73 
 2294      74617473 
 2294      5F7400
 2295              	.LASF50:
 2296 027b 63685F74 		.ascii	"ch_thread\000"
 2296      68726561 
 2296      6400
 2297              	.LASF24:
 2298 0285 6D73675F 		.ascii	"msg_t\000"
 2298      7400
 2299              	.LASF105:
 2300 028b 6C617374 		.ascii	"last\000"
 2300      00
 2301              	.LASF27:
 2302 0290 75636E74 		.ascii	"ucnt_t\000"
 2302      5F7400
 2303              	.LASF79:
 2304 0297 63685F73 		.ascii	"ch_system_t\000"
 2304      79737465 
 2304      6D5F7400 
 2305              	.LASF128:
 2306 02a3 77726974 		.ascii	"writes\000"
 2306      657300
 2307              	.LASF20:
 2308 02aa 746D6F64 		.ascii	"tmode_t\000"
 2308      655F7400 
 2309              	.LASF111:
 2310 02b2 6D5F6372 		.ascii	"m_crit_isr\000"
 2310      69745F69 
 2310      737200
 2311              	.LASF55:
 2312 02bd 63685F72 		.ascii	"ch_ready_list\000"
 2312      65616479 
 2312      5F6C6973 
 2312      7400
 2313              	.LASF25:
 2314 02cb 6576656E 		.ascii	"eventmask_t\000"
 2314      746D6173 
 2314      6B5F7400 
ARM GAS  C:\Users\jo\AppData\Local\Temp\ccvXihIp.s 			page 44


 2315              	.LASF7:
 2316 02d7 5F5F696E 		.ascii	"__int32_t\000"
 2316      7433325F 
 2316      7400
 2317              	.LASF131:
 2318 02e1 474E5520 		.ascii	"GNU C 4.9.3 20141119 (release) [ARM/embedded-4_9-br"
 2318      4320342E 
 2318      392E3320 
 2318      32303134 
 2318      31313139 
 2319 0314 616E6368 		.ascii	"anch revision 218278] -mcpu=cortex-m4 -mno-thumb-in"
 2319      20726576 
 2319      6973696F 
 2319      6E203231 
 2319      38323738 
 2320 0347 74657277 		.ascii	"terwork -mthumb -ggdb -O2 -fomit-frame-pointer -fal"
 2320      6F726B20 
 2320      2D6D7468 
 2320      756D6220 
 2320      2D676764 
 2321 037a 69676E2D 		.ascii	"ign-functions=16 -ffunction-sections -fdata-section"
 2321      66756E63 
 2321      74696F6E 
 2321      733D3136 
 2321      202D6666 
 2322 03ad 73202D66 		.ascii	"s -fno-common\000"
 2322      6E6F2D63 
 2322      6F6D6D6F 
 2322      6E00
 2323              	.LASF88:
 2324 03bb 73746B61 		.ascii	"stkalign_t\000"
 2324      6C69676E 
 2324      5F7400
 2325              	.LASF124:
 2326 03c6 77726974 		.ascii	"write\000"
 2326      6500
 2327              	.LASF41:
 2328 03cc 705F7761 		.ascii	"p_waiting\000"
 2328      6974696E 
 2328      6700
 2329              	.LASF86:
 2330 03d6 73697A65 		.ascii	"sizetype\000"
 2330      74797065 
 2330      00
 2331              	.LASF71:
 2332 03df 63685F76 		.ascii	"ch_virtual_timers_list\000"
 2332      69727475 
 2332      616C5F74 
 2332      696D6572 
 2332      735F6C69 
 2333              	.LASF98:
 2334 03f6 74625F70 		.ascii	"tb_ptr\000"
 2334      747200
 2335              	.LASF96:
 2336 03fd 63685F73 		.ascii	"ch_swc_event_t\000"
 2336      77635F65 
 2336      76656E74 
ARM GAS  C:\Users\jo\AppData\Local\Temp\ccvXihIp.s 			page 45


 2336      5F7400
 2337              	.LASF72:
 2338 040c 76745F6C 		.ascii	"vt_lasttime\000"
 2338      61737474 
 2338      696D6500 
 2339              	.LASF35:
 2340 0418 705F6F6C 		.ascii	"p_older\000"
 2340      64657200 
 2341              	.LASF58:
 2342 0420 725F6374 		.ascii	"r_ctx\000"
 2342      7800
 2343              	.LASF102:
 2344 0426 746D5F63 		.ascii	"tm_calibration_t\000"
 2344      616C6962 
 2344      72617469 
 2344      6F6E5F74 
 2344      00
 2345              	.LASF61:
 2346 0437 725F6375 		.ascii	"r_current\000"
 2346      7272656E 
 2346      7400
 2347              	.LASF60:
 2348 0441 725F6F6C 		.ascii	"r_older\000"
 2348      64657200 
 2349              	.LASF12:
 2350 0449 5F5F7569 		.ascii	"__uint64_t\000"
 2350      6E743634 
 2350      5F7400
 2351              	.LASF106:
 2352 0454 63756D75 		.ascii	"cumulative\000"
 2352      6C617469 
 2352      766500
 2353              	.LASF126:
 2354 045f 49544D53 		.ascii	"ITMStream\000"
 2354      74726561 
 2354      6D00
 2355              	.LASF99:
 2356 0469 74625F62 		.ascii	"tb_buffer\000"
 2356      75666665 
 2356      7200
 2357              	.LASF63:
 2358 0473 76697274 		.ascii	"virtual_timer_t\000"
 2358      75616C5F 
 2358      74696D65 
 2358      725F7400 
 2359              	.LASF31:
 2360 0483 705F7072 		.ascii	"p_prev\000"
 2360      657600
 2361              	.LASF23:
 2362 048a 74707269 		.ascii	"tprio_t\000"
 2362      6F5F7400 
 2363              	.LASF117:
 2364 0492 6D757465 		.ascii	"mutex\000"
 2364      7800
 2365              	.LASF109:
 2366 0498 6E5F6374 		.ascii	"n_ctxswc\000"
 2366      78737763 
ARM GAS  C:\Users\jo\AppData\Local\Temp\ccvXihIp.s 			page 46


 2366      00
 2367              	.LASF122:
 2368 04a1 5F426F6F 		.ascii	"_Bool\000"
 2368      6C00
 2369              	.LASF15:
 2370 04a7 696E7433 		.ascii	"int32_t\000"
 2370      325F7400 
 2371              	.LASF4:
 2372 04af 756E7369 		.ascii	"unsigned char\000"
 2372      676E6564 
 2372      20636861 
 2372      7200
 2373              	.LASF38:
 2374 04bd 705F7374 		.ascii	"p_state\000"
 2374      61746500 
 2375              	.LASF45:
 2376 04c5 705F6D74 		.ascii	"p_mtxlist\000"
 2376      786C6973 
 2376      7400
 2377              	.LASF5:
 2378 04cf 73686F72 		.ascii	"short int\000"
 2378      7420696E 
 2378      7400
 2379              	.LASF57:
 2380 04d9 725F7072 		.ascii	"r_prio\000"
 2380      696F00
 2381              	.LASF116:
 2382 04e0 65776D61 		.ascii	"ewmask\000"
 2382      736B00
 2383              	.LASF30:
 2384 04e7 705F6E65 		.ascii	"p_next\000"
 2384      787400
 2385              	.LASF39:
 2386 04ee 705F666C 		.ascii	"p_flags\000"
 2386      61677300 
 2387              	.LASF48:
 2388 04f6 705F7374 		.ascii	"p_stats\000"
 2388      61747300 
 2389              	.LASF64:
 2390 04fe 63685F76 		.ascii	"ch_virtual_timer\000"
 2390      69727475 
 2390      616C5F74 
 2390      696D6572 
 2390      00
 2391              	.LASF44:
 2392 050f 705F6570 		.ascii	"p_epending\000"
 2392      656E6469 
 2392      6E6700
 2393              	.LASF16:
 2394 051a 75696E74 		.ascii	"uint32_t\000"
 2394      33325F74 
 2394      00
 2395              	.LASF56:
 2396 0523 725F7175 		.ascii	"r_queue\000"
 2396      65756500 
 2397              	.LASF67:
 2398 052b 76745F64 		.ascii	"vt_delta\000"
ARM GAS  C:\Users\jo\AppData\Local\Temp\ccvXihIp.s 			page 47


 2398      656C7461 
 2398      00
 2399              	.LASF51:
 2400 0534 63685F74 		.ascii	"ch_threads_list\000"
 2400      68726561 
 2400      64735F6C 
 2400      69737400 
 2401              	.LASF10:
 2402 0544 6C6F6E67 		.ascii	"long unsigned int\000"
 2402      20756E73 
 2402      69676E65 
 2402      6420696E 
 2402      7400
 2403              	.LASF125:
 2404 0556 72656164 		.ascii	"read\000"
 2404      00
 2405              	.LASF91:
 2406 055b 63686172 		.ascii	"char\000"
 2406      00
 2407              	.LASF123:
 2408 0560 49544D53 		.ascii	"ITMStreamVMT\000"
 2408      74726561 
 2408      6D564D54 
 2408      00
 2409              	.LASF29:
 2410 056d 74687265 		.ascii	"thread_t\000"
 2410      61645F74 
 2410      00
 2411              	.LASF103:
 2412 0576 62657374 		.ascii	"best\000"
 2412      00
 2413              	.LASF120:
 2414 057b 6D5F6E65 		.ascii	"m_next\000"
 2414      787400
 2415              	.LASF28:
 2416 0582 73797374 		.ascii	"systime_t\000"
 2416      696D655F 
 2416      7400
 2417              	.LASF46:
 2418 058c 705F7265 		.ascii	"p_realprio\000"
 2418      616C7072 
 2418      696F00
 2419              	.LASF62:
 2420 0597 76746675 		.ascii	"vtfunc_t\000"
 2420      6E635F74 
 2420      00
 2421              	.LASF9:
 2422 05a0 5F5F7569 		.ascii	"__uint32_t\000"
 2422      6E743332 
 2422      5F7400
 2423              	.LASF134:
 2424 05ab 69746D4F 		.ascii	"itmObjectInit\000"
 2424      626A6563 
 2424      74496E69 
 2424      7400
 2425              	.LASF75:
 2426 05b9 70616E69 		.ascii	"panic_msg\000"
ARM GAS  C:\Users\jo\AppData\Local\Temp\ccvXihIp.s 			page 48


 2426      635F6D73 
 2426      6700
 2427              	.LASF101:
 2428 05c3 6F666673 		.ascii	"offset\000"
 2428      657400
 2429              	.LASF89:
 2430 05ca 636F6E74 		.ascii	"context\000"
 2430      65787400 
 2431              	.LASF18:
 2432 05d2 7274636E 		.ascii	"rtcnt_t\000"
 2432      745F7400 
 2433              	.LASF69:
 2434 05da 76745F70 		.ascii	"vt_par\000"
 2434      617200
 2435              	.LASF129:
 2436 05e1 7069746D 		.ascii	"pitm\000"
 2436      00
 2437              	.LASF52:
 2438 05e6 74687265 		.ascii	"threads_queue_t\000"
 2438      6164735F 
 2438      71756575 
 2438      655F7400 
 2439              	.LASF36:
 2440 05f6 705F6E61 		.ascii	"p_name\000"
 2440      6D6500
 2441              	.LASF40:
 2442 05fd 705F7265 		.ascii	"p_refs\000"
 2442      667300
 2443              	.LASF76:
 2444 0604 6973725F 		.ascii	"isr_cnt\000"
 2444      636E7400 
 2445              	.LASF132:
 2446 060c 49544D5F 		.ascii	"ITM_trace.c\000"
 2446      74726163 
 2446      652E6300 
 2447              	.LASF81:
 2448 0618 726C6973 		.ascii	"rlist\000"
 2448      7400
 2449              	.LASF14:
 2450 061e 75696E74 		.ascii	"uint8_t\000"
 2450      385F7400 
 2451              	.LASF115:
 2452 0626 77746F62 		.ascii	"wtobjp\000"
 2452      6A7000
 2453              	.LASF49:
 2454 062d 74687265 		.ascii	"threads_list_t\000"
 2454      6164735F 
 2454      6C697374 
 2454      5F7400
 2455              	.LASF78:
 2456 063c 74726163 		.ascii	"trace_buffer\000"
 2456      655F6275 
 2456      66666572 
 2456      00
 2457              	.LASF43:
 2458 0649 705F6D73 		.ascii	"p_msg\000"
 2458      6700
ARM GAS  C:\Users\jo\AppData\Local\Temp\ccvXihIp.s 			page 49


 2459              	.LASF110:
 2460 064f 6D5F6372 		.ascii	"m_crit_thd\000"
 2460      69745F74 
 2460      686400
 2461              	.LASF119:
 2462 065a 6D5F6F77 		.ascii	"m_owner\000"
 2462      6E657200 
 2463              	.LASF94:
 2464 0662 73655F77 		.ascii	"se_wtobjp\000"
 2464      746F626A 
 2464      7000
 2465              	.LASF33:
 2466 066c 705F6374 		.ascii	"p_ctx\000"
 2466      7800
 2467              	.LASF68:
 2468 0672 76745F66 		.ascii	"vt_func\000"
 2468      756E6300 
 2469              		.ident	"GCC: (GNU Tools for ARM Embedded Processors) 4.9.3 20141119 (release) [ARM/embedded-4_9-br
ARM GAS  C:\Users\jo\AppData\Local\Temp\ccvXihIp.s 			page 50


DEFINED SYMBOLS
                            *ABS*:00000000 ITM_trace.c
C:\Users\jo\AppData\Local\Temp\ccvXihIp.s:19     .text.get:00000000 $t
C:\Users\jo\AppData\Local\Temp\ccvXihIp.s:24     .text.get:00000000 get
C:\Users\jo\AppData\Local\Temp\ccvXihIp.s:41     .text.reads:00000000 $t
C:\Users\jo\AppData\Local\Temp\ccvXihIp.s:46     .text.reads:00000000 reads
C:\Users\jo\AppData\Local\Temp\ccvXihIp.s:62     .text.put:00000000 $t
C:\Users\jo\AppData\Local\Temp\ccvXihIp.s:67     .text.put:00000000 put
C:\Users\jo\AppData\Local\Temp\ccvXihIp.s:90     .text.writes:00000000 $t
C:\Users\jo\AppData\Local\Temp\ccvXihIp.s:95     .text.writes:00000000 writes
C:\Users\jo\AppData\Local\Temp\ccvXihIp.s:138    .text.itmObjectInit:00000000 $t
C:\Users\jo\AppData\Local\Temp\ccvXihIp.s:144    .text.itmObjectInit:00000000 itmObjectInit
C:\Users\jo\AppData\Local\Temp\ccvXihIp.s:159    .text.itmObjectInit:00000008 $d
C:\Users\jo\AppData\Local\Temp\ccvXihIp.s:164    .rodata.vmt:00000000 $d
C:\Users\jo\AppData\Local\Temp\ccvXihIp.s:168    .rodata.vmt:00000000 vmt
                     .debug_frame:00000010 $d
C:\Users\jo\AppData\Local\Temp\ccvXihIp.s:163    .text.itmObjectInit:0000000c $t

UNDEFINED SYMBOLS
Debug_ITMDebugOutputChar
