ARM GAS  C:\Users\jo\AppData\Local\Temp\cciBgDQj.s 			page 1


   1              		.syntax unified
   2              		.cpu cortex-m4
   3              		.fpu softvfp
   4              		.eabi_attribute 20, 1
   5              		.eabi_attribute 21, 1
   6              		.eabi_attribute 23, 3
   7              		.eabi_attribute 24, 1
   8              		.eabi_attribute 25, 1
   9              		.eabi_attribute 26, 1
  10              		.eabi_attribute 30, 2
  11              		.eabi_attribute 34, 1
  12              		.eabi_attribute 18, 4
  13              		.thumb
  14              		.file	"mac.c"
  15              		.text
  16              	.Ltext0:
  17              		.cfi_sections	.debug_frame
  18              		.section	.text.macInit,"ax",%progbits
  19              		.align	2
  20              		.p2align 4,,15
  21              		.global	macInit
  22              		.thumb
  23              		.thumb_func
  24              		.type	macInit, %function
  25              	macInit:
  26              	.LFB255:
  27              		.file 1 "../../../os/hal/src/mac.c"
  28              		.loc 1 67 0
  29              		.cfi_startproc
  30              		@ args = 0, pretend = 0, frame = 0
  31              		@ frame_needed = 0, uses_anonymous_args = 0
  32              		@ link register save eliminated.
  33              		.loc 1 69 0
  34 0000 FFF7FEBF 		b	mac_lld_init
  35              	.LVL0:
  36              		.cfi_endproc
  37              	.LFE255:
  38              		.size	macInit, .-macInit
  39 0004 AFF30080 		.section	.text.macObjectInit,"ax",%progbits
  39      AFF30080 
  39      AFF30080 
  40              		.align	2
  41              		.p2align 4,,15
  42              		.global	macObjectInit
  43              		.thumb
  44              		.thumb_func
  45              		.type	macObjectInit, %function
  46              	macObjectInit:
  47              	.LFB256:
  48              		.loc 1 79 0
  49              		.cfi_startproc
  50              		@ args = 0, pretend = 0, frame = 0
  51              		@ frame_needed = 0, uses_anonymous_args = 0
  52              		@ link register save eliminated.
  53              	.LVL1:
  54 0000 30B4     		push	{r4, r5}
  55              		.cfi_def_cfa_offset 8
ARM GAS  C:\Users\jo\AppData\Local\Temp\cciBgDQj.s 			page 2


  56              		.cfi_offset 4, -8
  57              		.cfi_offset 5, -4
  58              		.loc 1 83 0
  59 0002 00F10802 		add	r2, r0, #8
  60              	.LVL2:
  61              		.loc 1 81 0
  62 0006 0125     		movs	r5, #1
  63              		.loc 1 82 0
  64 0008 0024     		movs	r4, #0
  65              		.loc 1 84 0
  66 000a 00F11003 		add	r3, r0, #16
  67              	.LVL3:
  68              		.loc 1 86 0
  69 000e 00F11801 		add	r1, r0, #24
  70              		.loc 1 81 0
  71 0012 0570     		strb	r5, [r0]
  72              		.loc 1 82 0
  73 0014 4460     		str	r4, [r0, #4]
  74              	.LBB120:
  75              	.LBB121:
  76              	.LBB122:
  77              		.file 2 "../../../os/rt/include/chevents.h"
  78              		.loc 2 172 0
  79 0016 8161     		str	r1, [r0, #24]
  80              	.LBE122:
  81              	.LBE121:
  82              	.LBE120:
  83              	.LBB123:
  84              	.LBB124:
  85              	.LBB125:
  86              	.LBB126:
  87              		.file 3 "../../../os/rt/include/chschd.h"
  88              		.loc 3 574 0
  89 0018 C260     		str	r2, [r0, #12]
  90 001a 8260     		str	r2, [r0, #8]
  91              	.LBE126:
  92              	.LBE125:
  93              	.LBE124:
  94              	.LBE123:
  95              	.LBB127:
  96              	.LBB128:
  97              	.LBB129:
  98              	.LBB130:
  99 001c 4361     		str	r3, [r0, #20]
 100 001e 0361     		str	r3, [r0, #16]
 101              	.LVL4:
 102              	.LBE130:
 103              	.LBE129:
 104              	.LBE128:
 105              	.LBE127:
 106              		.loc 1 88 0
 107 0020 30BC     		pop	{r4, r5}
 108              		.cfi_restore 5
 109              		.cfi_restore 4
 110              		.cfi_def_cfa_offset 0
 111 0022 7047     		bx	lr
 112              		.cfi_endproc
ARM GAS  C:\Users\jo\AppData\Local\Temp\cciBgDQj.s 			page 3


 113              	.LFE256:
 114              		.size	macObjectInit, .-macObjectInit
 115 0024 AFF30080 		.section	.text.macStart,"ax",%progbits
 115      AFF30080 
 115      AFF30080 
 116              		.align	2
 117              		.p2align 4,,15
 118              		.global	macStart
 119              		.thumb
 120              		.thumb_func
 121              		.type	macStart, %function
 122              	macStart:
 123              	.LFB257:
 124              		.loc 1 98 0
 125              		.cfi_startproc
 126              		@ args = 0, pretend = 0, frame = 0
 127              		@ frame_needed = 0, uses_anonymous_args = 0
 128              	.LVL5:
 129 0000 38B5     		push	{r3, r4, r5, lr}
 130              		.cfi_def_cfa_offset 16
 131              		.cfi_offset 3, -16
 132              		.cfi_offset 4, -12
 133              		.cfi_offset 5, -8
 134              		.cfi_offset 14, -4
 135              		.loc 1 98 0
 136 0002 0D46     		mov	r5, r1
 137              		.loc 1 100 0
 138 0004 0446     		mov	r4, r0
 139 0006 68B3     		cbz	r0, .L5
 140              		.loc 1 100 0 is_stmt 0 discriminator 2
 141 0008 61B3     		cbz	r1, .L5
 142              	.LVL6:
 143              	.L6:
 144              	.LBB144:
 145              	.LBB145:
 146              	.LBB146:
 147              	.LBB147:
 148              	.LBB148:
 149              	.LBB149:
 150              		.file 4 "../../../os/ext/CMSIS/include/core_cmFunc.h"
 151              		.loc 4 546 0 is_stmt 1
 152 000a 2023     		movs	r3, #32
 153              	@ 546 "../../../os/ext/CMSIS/include/core_cmFunc.h" 1
 154 000c 83F31188 		MSR basepri, r3
 155              	@ 0 "" 2
 156              		.thumb
 157              	.LBE149:
 158              	.LBE148:
 159              	.LBE147:
 160              		.file 5 "../../../os/rt/include/chsys.h"
 161              		.loc 5 300 0
 162 0010 FFF7FEFF 		bl	_stats_start_measure_crit_thd
 163              	.LVL7:
 164              		.loc 5 301 0
 165 0014 FFF7FEFF 		bl	_dbg_check_lock
 166              	.LVL8:
 167              	.LBE146:
ARM GAS  C:\Users\jo\AppData\Local\Temp\cciBgDQj.s 			page 4


 168              	.LBE145:
 169              	.LBE144:
 170              		.loc 1 103 0
 171 0018 2378     		ldrb	r3, [r4]	@ zero_extendqisi2
 172 001a 012B     		cmp	r3, #1
 173 001c 06D0     		beq	.L7
 174              		.loc 1 103 0 is_stmt 0 discriminator 1
 175 001e 1348     		ldr	r0, .L17
 176 0020 FFF7FEFF 		bl	puts
 177              	.LVL9:
 178              	@ 103 "../../../os/hal/src/mac.c" 1
 179 0024 00BE     		BKPT #0
 180              	
 181              	@ 0 "" 2
 182              		.thumb
 183 0026 1248     		ldr	r0, .L17+4
 184 0028 FFF7FEFF 		bl	chSysHalt
 185              	.LVL10:
 186              	.L7:
 187              		.loc 1 106 0 is_stmt 1
 188 002c 2046     		mov	r0, r4
 189              		.loc 1 105 0
 190 002e 6560     		str	r5, [r4, #4]
 191              		.loc 1 106 0
 192 0030 FFF7FEFF 		bl	mac_lld_start
 193              	.LVL11:
 194              		.loc 1 107 0
 195 0034 0223     		movs	r3, #2
 196 0036 2370     		strb	r3, [r4]
 197              	.LBB150:
 198              	.LBB151:
 199              	.LBB152:
 200              		.loc 5 311 0
 201 0038 FFF7FEFF 		bl	_dbg_check_unlock
 202              	.LVL12:
 203              		.loc 5 312 0
 204 003c FFF7FEFF 		bl	_stats_stop_measure_crit_thd
 205              	.LVL13:
 206              		.loc 5 318 0
 207 0040 0C4B     		ldr	r3, .L17+8
 208 0042 9A69     		ldr	r2, [r3, #24]
 209 0044 1B68     		ldr	r3, [r3]
 210 0046 9268     		ldr	r2, [r2, #8]
 211 0048 9B68     		ldr	r3, [r3, #8]
 212 004a 9A42     		cmp	r2, r3
 213 004c 06D2     		bcs	.L8
 214 004e 0A48     		ldr	r0, .L17+12
 215 0050 FFF7FEFF 		bl	puts
 216              	.LVL14:
 217              	@ 318 "../../../os/rt/include/chsys.h" 1
 218 0054 00BE     		BKPT #0
 219              	
 220              	@ 0 "" 2
 221              		.thumb
 222 0056 0948     		ldr	r0, .L17+16
 223 0058 FFF7FEFF 		bl	chSysHalt
 224              	.LVL15:
ARM GAS  C:\Users\jo\AppData\Local\Temp\cciBgDQj.s 			page 5


 225              	.L8:
 226              	.LBB153:
 227              	.LBB154:
 228              	.LBB155:
 229              		.loc 4 546 0
 230 005c 0023     		movs	r3, #0
 231              	@ 546 "../../../os/ext/CMSIS/include/core_cmFunc.h" 1
 232 005e 83F31188 		MSR basepri, r3
 233              	@ 0 "" 2
 234              		.thumb
 235 0062 38BD     		pop	{r3, r4, r5, pc}
 236              	.LVL16:
 237              	.L5:
 238              	.LBE155:
 239              	.LBE154:
 240              	.LBE153:
 241              	.LBE152:
 242              	.LBE151:
 243              	.LBE150:
 244              		.loc 1 100 0 discriminator 3
 245 0064 0248     		ldr	r0, .L17+4
 246              	.LVL17:
 247 0066 FFF7FEFF 		bl	chSysHalt
 248              	.LVL18:
 249 006a CEE7     		b	.L6
 250              	.L18:
 251              		.align	2
 252              	.L17:
 253 006c 00000000 		.word	.LC0
 254 0070 00000000 		.word	.LANCHOR0
 255 0074 00000000 		.word	ch
 256 0078 10000000 		.word	.LC1
 257 007c 00000000 		.word	.LANCHOR1
 258              		.cfi_endproc
 259              	.LFE257:
 260              		.size	macStart, .-macStart
 261              		.section	.text.macStop,"ax",%progbits
 262              		.align	2
 263              		.p2align 4,,15
 264              		.global	macStop
 265              		.thumb
 266              		.thumb_func
 267              		.type	macStop, %function
 268              	macStop:
 269              	.LFB258:
 270              		.loc 1 118 0
 271              		.cfi_startproc
 272              		@ args = 0, pretend = 0, frame = 0
 273              		@ frame_needed = 0, uses_anonymous_args = 0
 274              	.LVL19:
 275 0000 10B5     		push	{r4, lr}
 276              		.cfi_def_cfa_offset 8
 277              		.cfi_offset 4, -8
 278              		.cfi_offset 14, -4
 279              		.loc 1 120 0
 280 0002 0446     		mov	r4, r0
 281 0004 60B3     		cbz	r0, .L24
ARM GAS  C:\Users\jo\AppData\Local\Temp\cciBgDQj.s 			page 6


 282              	.LVL20:
 283              	.L20:
 284              	.LBB169:
 285              	.LBB170:
 286              	.LBB171:
 287              	.LBB172:
 288              	.LBB173:
 289              	.LBB174:
 290              		.loc 4 546 0
 291 0006 2023     		movs	r3, #32
 292              	@ 546 "../../../os/ext/CMSIS/include/core_cmFunc.h" 1
 293 0008 83F31188 		MSR basepri, r3
 294              	@ 0 "" 2
 295              		.thumb
 296              	.LBE174:
 297              	.LBE173:
 298              	.LBE172:
 299              		.loc 5 300 0
 300 000c FFF7FEFF 		bl	_stats_start_measure_crit_thd
 301              	.LVL21:
 302              		.loc 5 301 0
 303 0010 FFF7FEFF 		bl	_dbg_check_lock
 304              	.LVL22:
 305              	.LBE171:
 306              	.LBE170:
 307              	.LBE169:
 308              		.loc 1 123 0
 309 0014 2378     		ldrb	r3, [r4]	@ zero_extendqisi2
 310 0016 013B     		subs	r3, r3, #1
 311 0018 012B     		cmp	r3, #1
 312 001a 06D9     		bls	.L21
 313              		.loc 1 123 0 is_stmt 0 discriminator 1
 314 001c 1248     		ldr	r0, .L25
 315 001e FFF7FEFF 		bl	puts
 316              	.LVL23:
 317              	@ 123 "../../../os/hal/src/mac.c" 1
 318 0022 00BE     		BKPT #0
 319              	
 320              	@ 0 "" 2
 321              		.thumb
 322 0024 1148     		ldr	r0, .L25+4
 323 0026 FFF7FEFF 		bl	chSysHalt
 324              	.LVL24:
 325              	.L21:
 326              		.loc 1 125 0 is_stmt 1
 327 002a 2046     		mov	r0, r4
 328 002c FFF7FEFF 		bl	mac_lld_stop
 329              	.LVL25:
 330              		.loc 1 126 0
 331 0030 0123     		movs	r3, #1
 332 0032 2370     		strb	r3, [r4]
 333              	.LBB175:
 334              	.LBB176:
 335              	.LBB177:
 336              		.loc 5 311 0
 337 0034 FFF7FEFF 		bl	_dbg_check_unlock
 338              	.LVL26:
ARM GAS  C:\Users\jo\AppData\Local\Temp\cciBgDQj.s 			page 7


 339              		.loc 5 312 0
 340 0038 FFF7FEFF 		bl	_stats_stop_measure_crit_thd
 341              	.LVL27:
 342              		.loc 5 318 0
 343 003c 0C4B     		ldr	r3, .L25+8
 344 003e 9A69     		ldr	r2, [r3, #24]
 345 0040 1B68     		ldr	r3, [r3]
 346 0042 9268     		ldr	r2, [r2, #8]
 347 0044 9B68     		ldr	r3, [r3, #8]
 348 0046 9A42     		cmp	r2, r3
 349 0048 06D2     		bcs	.L22
 350 004a 0A48     		ldr	r0, .L25+12
 351 004c FFF7FEFF 		bl	puts
 352              	.LVL28:
 353              	@ 318 "../../../os/rt/include/chsys.h" 1
 354 0050 00BE     		BKPT #0
 355              	
 356              	@ 0 "" 2
 357              		.thumb
 358 0052 0948     		ldr	r0, .L25+16
 359 0054 FFF7FEFF 		bl	chSysHalt
 360              	.LVL29:
 361              	.L22:
 362              	.LBB178:
 363              	.LBB179:
 364              	.LBB180:
 365              		.loc 4 546 0
 366 0058 0023     		movs	r3, #0
 367              	@ 546 "../../../os/ext/CMSIS/include/core_cmFunc.h" 1
 368 005a 83F31188 		MSR basepri, r3
 369              	@ 0 "" 2
 370              		.thumb
 371 005e 10BD     		pop	{r4, pc}
 372              	.LVL30:
 373              	.L24:
 374              	.LBE180:
 375              	.LBE179:
 376              	.LBE178:
 377              	.LBE177:
 378              	.LBE176:
 379              	.LBE175:
 380              		.loc 1 120 0 discriminator 1
 381 0060 0248     		ldr	r0, .L25+4
 382              	.LVL31:
 383 0062 FFF7FEFF 		bl	chSysHalt
 384              	.LVL32:
 385 0066 CEE7     		b	.L20
 386              	.L26:
 387              		.align	2
 388              	.L25:
 389 0068 00000000 		.word	.LC0
 390 006c 00000000 		.word	.LANCHOR2
 391 0070 00000000 		.word	ch
 392 0074 10000000 		.word	.LC1
 393 0078 00000000 		.word	.LANCHOR1
 394              		.cfi_endproc
 395              	.LFE258:
ARM GAS  C:\Users\jo\AppData\Local\Temp\cciBgDQj.s 			page 8


 396              		.size	macStop, .-macStop
 397 007c AFF30080 		.section	.text.macWaitTransmitDescriptor,"ax",%progbits
 398              		.align	2
 399              		.p2align 4,,15
 400              		.global	macWaitTransmitDescriptor
 401              		.thumb
 402              		.thumb_func
 403              		.type	macWaitTransmitDescriptor, %function
 404              	macWaitTransmitDescriptor:
 405              	.LFB259:
 406              		.loc 1 151 0
 407              		.cfi_startproc
 408              		@ args = 0, pretend = 0, frame = 0
 409              		@ frame_needed = 0, uses_anonymous_args = 0
 410              	.LVL33:
 411 0000 2DE9F047 		push	{r4, r5, r6, r7, r8, r9, r10, lr}
 412              		.cfi_def_cfa_offset 32
 413              		.cfi_offset 4, -32
 414              		.cfi_offset 5, -28
 415              		.cfi_offset 6, -24
 416              		.cfi_offset 7, -20
 417              		.cfi_offset 8, -16
 418              		.cfi_offset 9, -12
 419              		.cfi_offset 10, -8
 420              		.cfi_offset 14, -4
 421              		.loc 1 151 0
 422 0004 8946     		mov	r9, r1
 423 0006 1446     		mov	r4, r2
 424              		.loc 1 155 0
 425 0008 0746     		mov	r7, r0
 426 000a 0028     		cmp	r0, #0
 427 000c 5AD0     		beq	.L28
 428              		.loc 1 155 0 is_stmt 0 discriminator 2
 429 000e 0029     		cmp	r1, #0
 430 0010 58D0     		beq	.L28
 431              	.LVL34:
 432              	.L29:
 433              		.loc 1 156 0 is_stmt 1
 434 0012 3B78     		ldrb	r3, [r7]	@ zero_extendqisi2
 435 0014 022B     		cmp	r3, #2
 436 0016 06D0     		beq	.L30
 437              		.loc 1 156 0 is_stmt 0 discriminator 1
 438 0018 3248     		ldr	r0, .L55
 439 001a FFF7FEFF 		bl	puts
 440              	.LVL35:
 441              	@ 156 "../../../os/hal/src/mac.c" 1
 442 001e 00BE     		BKPT #0
 443              	
 444              	@ 0 "" 2
 445              		.thumb
 446 0020 3148     		ldr	r0, .L55+4
 447 0022 FFF7FEFF 		bl	chSysHalt
 448              	.LVL36:
 449              	.L30:
 450              	.LBB213:
 451              	.LBB214:
 452              	.LBB215:
ARM GAS  C:\Users\jo\AppData\Local\Temp\cciBgDQj.s 			page 9


 453              		.loc 5 318 0 is_stmt 1
 454 0026 DFF8CC80 		ldr	r8, .L55+16
 455 002a 2FE0     		b	.L31
 456              	.LVL37:
 457              	.L52:
 458              	.LBE215:
 459              	.LBE214:
 460              	.LBE213:
 461              		.loc 1 158 0 discriminator 1
 462 002c 002C     		cmp	r4, #0
 463 002e 35D0     		beq	.L34
 464              	.LBB221:
 465              	.LBB222:
 466              	.LBB223:
 467              	.LBB224:
 468              	.LBB225:
 469              	.LBB226:
 470              		.loc 4 546 0
 471              	@ 546 "../../../os/ext/CMSIS/include/core_cmFunc.h" 1
 472 0030 83F31188 		MSR basepri, r3
 473              	@ 0 "" 2
 474              		.thumb
 475              	.LBE226:
 476              	.LBE225:
 477              	.LBE224:
 478              	.LBE223:
 479              	.LBE222:
 480              	.LBE221:
 481              	.LBB234:
 482              	.LBB235:
 483              	.LBB236:
 484              	.LBB237:
 485              	.LBB238:
 486              		.file 6 "../../../os/hal/ports/STM32/LLD/TIMv1/st_lld.h"
 487              		.loc 6 128 0
 488 0034 4FF08046 		mov	r6, #1073741824
 489              	.LBE238:
 490              	.LBE237:
 491              	.LBE236:
 492              	.LBE235:
 493              	.LBE234:
 494              	.LBB243:
 495              	.LBB232:
 496              	.LBB230:
 497              		.loc 5 300 0
 498 0038 FFF7FEFF 		bl	_stats_start_measure_crit_thd
 499              	.LVL38:
 500              		.loc 5 301 0
 501 003c FFF7FEFF 		bl	_dbg_check_lock
 502              	.LVL39:
 503              	.LBE230:
 504              	.LBE232:
 505              	.LBE243:
 506              	.LBB244:
 507              	.LBB245:
 508              		.file 7 "../../../os/hal/osal/rt/osal.h"
 509              		.loc 7 716 0
ARM GAS  C:\Users\jo\AppData\Local\Temp\cciBgDQj.s 			page 10


 510 0040 07F10800 		add	r0, r7, #8
 511 0044 2146     		mov	r1, r4
 512              	.LBE245:
 513              	.LBE244:
 514              	.LBB248:
 515              	.LBB242:
 516              	.LBB241:
 517              	.LBB240:
 518              	.LBB239:
 519              		.loc 6 128 0
 520 0046 D6F824A0 		ldr	r10, [r6, #36]
 521              	.LVL40:
 522              	.LBE239:
 523              	.LBE240:
 524              	.LBE241:
 525              	.LBE242:
 526              	.LBE248:
 527              	.LBB249:
 528              	.LBB246:
 529              		.loc 7 716 0
 530 004a FFF7FEFF 		bl	chThdEnqueueTimeoutS
 531              	.LVL41:
 532              	.LBE246:
 533              	.LBE249:
 534              		.loc 1 163 0
 535 004e 421C     		adds	r2, r0, #1
 536              	.LBB250:
 537              	.LBB247:
 538              		.loc 7 716 0
 539 0050 0546     		mov	r5, r0
 540              	.LVL42:
 541              	.LBE247:
 542              	.LBE250:
 543              		.loc 1 163 0
 544 0052 26D0     		beq	.L51
 545              		.loc 1 167 0
 546 0054 631C     		adds	r3, r4, #1
 547 0056 03D0     		beq	.L35
 548              	.LBB251:
 549              	.LBB252:
 550              	.LBB253:
 551              	.LBB254:
 552              	.LBB255:
 553              		.loc 6 128 0
 554 0058 736A     		ldr	r3, [r6, #36]
 555              	.LBE255:
 556              	.LBE254:
 557              	.LBE253:
 558              	.LBE252:
 559              	.LBE251:
 560              		.loc 1 168 0
 561 005a CAEB0303 		rsb	r3, r10, r3
 562 005e E41A     		subs	r4, r4, r3
 563              	.LVL43:
 564              	.L35:
 565              	.LBB256:
 566              	.LBB220:
ARM GAS  C:\Users\jo\AppData\Local\Temp\cciBgDQj.s 			page 11


 567              	.LBB219:
 568              		.loc 5 311 0
 569 0060 FFF7FEFF 		bl	_dbg_check_unlock
 570              	.LVL44:
 571              		.loc 5 312 0
 572 0064 FFF7FEFF 		bl	_stats_stop_measure_crit_thd
 573              	.LVL45:
 574              		.loc 5 318 0
 575 0068 D8F81820 		ldr	r2, [r8, #24]
 576 006c D8F80030 		ldr	r3, [r8]
 577 0070 9268     		ldr	r2, [r2, #8]
 578 0072 9B68     		ldr	r3, [r3, #8]
 579 0074 9A42     		cmp	r2, r3
 580 0076 06D2     		bcs	.L36
 581 0078 1C48     		ldr	r0, .L55+8
 582 007a FFF7FEFF 		bl	puts
 583              	.LVL46:
 584              	@ 318 "../../../os/rt/include/chsys.h" 1
 585 007e 00BE     		BKPT #0
 586              	
 587              	@ 0 "" 2
 588              		.thumb
 589 0080 1B48     		ldr	r0, .L55+12
 590 0082 FFF7FEFF 		bl	chSysHalt
 591              	.LVL47:
 592              	.L36:
 593              	.LBB216:
 594              	.LBB217:
 595              	.LBB218:
 596              		.loc 4 546 0
 597 0086 0023     		movs	r3, #0
 598              	@ 546 "../../../os/ext/CMSIS/include/core_cmFunc.h" 1
 599 0088 83F31188 		MSR basepri, r3
 600              	@ 0 "" 2
 601              	.LVL48:
 602              		.thumb
 603              	.L31:
 604              	.LBE218:
 605              	.LBE217:
 606              	.LBE216:
 607              	.LBE219:
 608              	.LBE220:
 609              	.LBE256:
 610              		.loc 1 158 0
 611 008c 3846     		mov	r0, r7
 612 008e 4946     		mov	r1, r9
 613 0090 FFF7FEFF 		bl	mac_lld_get_transmit_descriptor
 614              	.LVL49:
 615              	.LBB257:
 616              	.LBB233:
 617              	.LBB231:
 618              	.LBB229:
 619              	.LBB228:
 620              	.LBB227:
 621              		.loc 4 546 0
 622 0094 2023     		movs	r3, #32
 623              	.LBE227:
ARM GAS  C:\Users\jo\AppData\Local\Temp\cciBgDQj.s 			page 12


 624              	.LBE228:
 625              	.LBE229:
 626              	.LBE231:
 627              	.LBE233:
 628              	.LBE257:
 629              		.loc 1 158 0
 630 0096 0546     		mov	r5, r0
 631 0098 0028     		cmp	r0, #0
 632 009a C7D1     		bne	.L52
 633              	.L34:
 634              		.loc 1 172 0
 635 009c 2846     		mov	r0, r5
 636 009e BDE8F087 		pop	{r4, r5, r6, r7, r8, r9, r10, pc}
 637              	.LVL50:
 638              	.L51:
 639              	.LBB258:
 640              	.LBB259:
 641              	.LBB260:
 642              		.loc 5 311 0
 643 00a2 FFF7FEFF 		bl	_dbg_check_unlock
 644              	.LVL51:
 645              		.loc 5 312 0
 646 00a6 FFF7FEFF 		bl	_stats_stop_measure_crit_thd
 647              	.LVL52:
 648              		.loc 5 318 0
 649 00aa 124B     		ldr	r3, .L55+16
 650 00ac 9A69     		ldr	r2, [r3, #24]
 651 00ae 1B68     		ldr	r3, [r3]
 652 00b0 9268     		ldr	r2, [r2, #8]
 653 00b2 9B68     		ldr	r3, [r3, #8]
 654 00b4 9A42     		cmp	r2, r3
 655 00b6 09D3     		bcc	.L53
 656              	.LVL53:
 657              	.LBB261:
 658              	.LBB262:
 659              	.LBB263:
 660              		.loc 4 546 0
 661 00b8 0023     		movs	r3, #0
 662              	@ 546 "../../../os/ext/CMSIS/include/core_cmFunc.h" 1
 663 00ba 83F31188 		MSR basepri, r3
 664              	@ 0 "" 2
 665              		.thumb
 666              	.L54:
 667              	.LVL54:
 668              	.LBE263:
 669              	.LBE262:
 670              	.LBE261:
 671              	.LBE260:
 672              	.LBE259:
 673              	.LBE258:
 674              		.loc 1 172 0
 675 00be 2846     		mov	r0, r5
 676 00c0 BDE8F087 		pop	{r4, r5, r6, r7, r8, r9, r10, pc}
 677              	.LVL55:
 678              	.L28:
 679              		.loc 1 155 0 discriminator 3
 680 00c4 0848     		ldr	r0, .L55+4
ARM GAS  C:\Users\jo\AppData\Local\Temp\cciBgDQj.s 			page 13


 681              	.LVL56:
 682 00c6 FFF7FEFF 		bl	chSysHalt
 683              	.LVL57:
 684 00ca A2E7     		b	.L29
 685              	.LVL58:
 686              	.L53:
 687              	.LBB269:
 688              	.LBB268:
 689              	.LBB267:
 690              		.loc 5 318 0
 691 00cc 0748     		ldr	r0, .L55+8
 692 00ce FFF7FEFF 		bl	puts
 693              	.LVL59:
 694              	@ 318 "../../../os/rt/include/chsys.h" 1
 695 00d2 00BE     		BKPT #0
 696              	
 697              	@ 0 "" 2
 698              		.thumb
 699 00d4 0648     		ldr	r0, .L55+12
 700 00d6 FFF7FEFF 		bl	chSysHalt
 701              	.LVL60:
 702              	.LBB266:
 703              	.LBB265:
 704              	.LBB264:
 705              		.loc 4 546 0
 706 00da 0023     		movs	r3, #0
 707              	@ 546 "../../../os/ext/CMSIS/include/core_cmFunc.h" 1
 708 00dc 83F31188 		MSR basepri, r3
 709              	@ 0 "" 2
 710              		.thumb
 711 00e0 EDE7     		b	.L54
 712              	.L56:
 713 00e2 00BF     		.align	2
 714              	.L55:
 715 00e4 38000000 		.word	.LC2
 716 00e8 00000000 		.word	.LANCHOR3
 717 00ec 10000000 		.word	.LC1
 718 00f0 00000000 		.word	.LANCHOR1
 719 00f4 00000000 		.word	ch
 720              	.LBE264:
 721              	.LBE265:
 722              	.LBE266:
 723              	.LBE267:
 724              	.LBE268:
 725              	.LBE269:
 726              		.cfi_endproc
 727              	.LFE259:
 728              		.size	macWaitTransmitDescriptor, .-macWaitTransmitDescriptor
 729 00f8 AFF30080 		.section	.text.macReleaseTransmitDescriptor,"ax",%progbits
 729      AFF30080 
 730              		.align	2
 731              		.p2align 4,,15
 732              		.global	macReleaseTransmitDescriptor
 733              		.thumb
 734              		.thumb_func
 735              		.type	macReleaseTransmitDescriptor, %function
 736              	macReleaseTransmitDescriptor:
ARM GAS  C:\Users\jo\AppData\Local\Temp\cciBgDQj.s 			page 14


 737              	.LFB260:
 738              		.loc 1 182 0
 739              		.cfi_startproc
 740              		@ args = 0, pretend = 0, frame = 0
 741              		@ frame_needed = 0, uses_anonymous_args = 0
 742              	.LVL61:
 743 0000 10B5     		push	{r4, lr}
 744              		.cfi_def_cfa_offset 8
 745              		.cfi_offset 4, -8
 746              		.cfi_offset 14, -4
 747              		.loc 1 184 0
 748 0002 0446     		mov	r4, r0
 749 0004 20B1     		cbz	r0, .L60
 750              		.loc 1 186 0
 751 0006 2046     		mov	r0, r4
 752              		.loc 1 187 0
 753 0008 BDE81040 		pop	{r4, lr}
 754              		.cfi_remember_state
 755              		.cfi_restore 14
 756              		.cfi_restore 4
 757              		.cfi_def_cfa_offset 0
 758              		.loc 1 186 0
 759 000c FFF7FEBF 		b	mac_lld_release_transmit_descriptor
 760              	.LVL62:
 761              	.L60:
 762              		.cfi_restore_state
 763              		.loc 1 184 0 discriminator 1
 764 0010 0348     		ldr	r0, .L61
 765              	.LVL63:
 766 0012 FFF7FEFF 		bl	chSysHalt
 767              	.LVL64:
 768              		.loc 1 186 0 discriminator 1
 769 0016 2046     		mov	r0, r4
 770              		.loc 1 187 0 discriminator 1
 771 0018 BDE81040 		pop	{r4, lr}
 772              		.cfi_restore 4
 773              		.cfi_restore 14
 774              		.cfi_def_cfa_offset 0
 775              	.LVL65:
 776              		.loc 1 186 0 discriminator 1
 777 001c FFF7FEBF 		b	mac_lld_release_transmit_descriptor
 778              	.LVL66:
 779              	.L62:
 780              		.align	2
 781              	.L61:
 782 0020 00000000 		.word	.LANCHOR4
 783              		.cfi_endproc
 784              	.LFE260:
 785              		.size	macReleaseTransmitDescriptor, .-macReleaseTransmitDescriptor
 786 0024 AFF30080 		.section	.text.macWaitReceiveDescriptor,"ax",%progbits
 786      AFF30080 
 786      AFF30080 
 787              		.align	2
 788              		.p2align 4,,15
 789              		.global	macWaitReceiveDescriptor
 790              		.thumb
 791              		.thumb_func
ARM GAS  C:\Users\jo\AppData\Local\Temp\cciBgDQj.s 			page 15


 792              		.type	macWaitReceiveDescriptor, %function
 793              	macWaitReceiveDescriptor:
 794              	.LFB261:
 795              		.loc 1 210 0
 796              		.cfi_startproc
 797              		@ args = 0, pretend = 0, frame = 0
 798              		@ frame_needed = 0, uses_anonymous_args = 0
 799              	.LVL67:
 800 0000 2DE9F047 		push	{r4, r5, r6, r7, r8, r9, r10, lr}
 801              		.cfi_def_cfa_offset 32
 802              		.cfi_offset 4, -32
 803              		.cfi_offset 5, -28
 804              		.cfi_offset 6, -24
 805              		.cfi_offset 7, -20
 806              		.cfi_offset 8, -16
 807              		.cfi_offset 9, -12
 808              		.cfi_offset 10, -8
 809              		.cfi_offset 14, -4
 810              		.loc 1 210 0
 811 0004 8946     		mov	r9, r1
 812 0006 1446     		mov	r4, r2
 813              		.loc 1 214 0
 814 0008 0746     		mov	r7, r0
 815 000a 0028     		cmp	r0, #0
 816 000c 5AD0     		beq	.L64
 817              		.loc 1 214 0 is_stmt 0 discriminator 2
 818 000e 0029     		cmp	r1, #0
 819 0010 58D0     		beq	.L64
 820              	.LVL68:
 821              	.L65:
 822              		.loc 1 215 0 is_stmt 1
 823 0012 3B78     		ldrb	r3, [r7]	@ zero_extendqisi2
 824 0014 022B     		cmp	r3, #2
 825 0016 06D0     		beq	.L66
 826              		.loc 1 215 0 is_stmt 0 discriminator 1
 827 0018 3248     		ldr	r0, .L91
 828 001a FFF7FEFF 		bl	puts
 829              	.LVL69:
 830              	@ 215 "../../../os/hal/src/mac.c" 1
 831 001e 00BE     		BKPT #0
 832              	
 833              	@ 0 "" 2
 834              		.thumb
 835 0020 3148     		ldr	r0, .L91+4
 836 0022 FFF7FEFF 		bl	chSysHalt
 837              	.LVL70:
 838              	.L66:
 839              	.LBB302:
 840              	.LBB303:
 841              	.LBB304:
 842              		.loc 5 318 0 is_stmt 1
 843 0026 DFF8CC80 		ldr	r8, .L91+16
 844 002a 2FE0     		b	.L67
 845              	.LVL71:
 846              	.L88:
 847              	.LBE304:
 848              	.LBE303:
ARM GAS  C:\Users\jo\AppData\Local\Temp\cciBgDQj.s 			page 16


 849              	.LBE302:
 850              		.loc 1 217 0 discriminator 1
 851 002c 002C     		cmp	r4, #0
 852 002e 35D0     		beq	.L70
 853              	.LBB310:
 854              	.LBB311:
 855              	.LBB312:
 856              	.LBB313:
 857              	.LBB314:
 858              	.LBB315:
 859              		.loc 4 546 0
 860              	@ 546 "../../../os/ext/CMSIS/include/core_cmFunc.h" 1
 861 0030 83F31188 		MSR basepri, r3
 862              	@ 0 "" 2
 863              		.thumb
 864              	.LBE315:
 865              	.LBE314:
 866              	.LBE313:
 867              	.LBE312:
 868              	.LBE311:
 869              	.LBE310:
 870              	.LBB323:
 871              	.LBB324:
 872              	.LBB325:
 873              	.LBB326:
 874              	.LBB327:
 875              		.loc 6 128 0
 876 0034 4FF08046 		mov	r6, #1073741824
 877              	.LBE327:
 878              	.LBE326:
 879              	.LBE325:
 880              	.LBE324:
 881              	.LBE323:
 882              	.LBB332:
 883              	.LBB321:
 884              	.LBB319:
 885              		.loc 5 300 0
 886 0038 FFF7FEFF 		bl	_stats_start_measure_crit_thd
 887              	.LVL72:
 888              		.loc 5 301 0
 889 003c FFF7FEFF 		bl	_dbg_check_lock
 890              	.LVL73:
 891              	.LBE319:
 892              	.LBE321:
 893              	.LBE332:
 894              	.LBB333:
 895              	.LBB334:
 896              		.loc 7 716 0
 897 0040 07F11000 		add	r0, r7, #16
 898 0044 2146     		mov	r1, r4
 899              	.LBE334:
 900              	.LBE333:
 901              	.LBB337:
 902              	.LBB331:
 903              	.LBB330:
 904              	.LBB329:
 905              	.LBB328:
ARM GAS  C:\Users\jo\AppData\Local\Temp\cciBgDQj.s 			page 17


 906              		.loc 6 128 0
 907 0046 D6F824A0 		ldr	r10, [r6, #36]
 908              	.LVL74:
 909              	.LBE328:
 910              	.LBE329:
 911              	.LBE330:
 912              	.LBE331:
 913              	.LBE337:
 914              	.LBB338:
 915              	.LBB335:
 916              		.loc 7 716 0
 917 004a FFF7FEFF 		bl	chThdEnqueueTimeoutS
 918              	.LVL75:
 919              	.LBE335:
 920              	.LBE338:
 921              		.loc 1 222 0
 922 004e 421C     		adds	r2, r0, #1
 923              	.LBB339:
 924              	.LBB336:
 925              		.loc 7 716 0
 926 0050 0546     		mov	r5, r0
 927              	.LVL76:
 928              	.LBE336:
 929              	.LBE339:
 930              		.loc 1 222 0
 931 0052 26D0     		beq	.L87
 932              		.loc 1 226 0
 933 0054 631C     		adds	r3, r4, #1
 934 0056 03D0     		beq	.L71
 935              	.LBB340:
 936              	.LBB341:
 937              	.LBB342:
 938              	.LBB343:
 939              	.LBB344:
 940              		.loc 6 128 0
 941 0058 736A     		ldr	r3, [r6, #36]
 942              	.LBE344:
 943              	.LBE343:
 944              	.LBE342:
 945              	.LBE341:
 946              	.LBE340:
 947              		.loc 1 227 0
 948 005a CAEB0303 		rsb	r3, r10, r3
 949 005e E41A     		subs	r4, r4, r3
 950              	.LVL77:
 951              	.L71:
 952              	.LBB345:
 953              	.LBB309:
 954              	.LBB308:
 955              		.loc 5 311 0
 956 0060 FFF7FEFF 		bl	_dbg_check_unlock
 957              	.LVL78:
 958              		.loc 5 312 0
 959 0064 FFF7FEFF 		bl	_stats_stop_measure_crit_thd
 960              	.LVL79:
 961              		.loc 5 318 0
 962 0068 D8F81820 		ldr	r2, [r8, #24]
ARM GAS  C:\Users\jo\AppData\Local\Temp\cciBgDQj.s 			page 18


 963 006c D8F80030 		ldr	r3, [r8]
 964 0070 9268     		ldr	r2, [r2, #8]
 965 0072 9B68     		ldr	r3, [r3, #8]
 966 0074 9A42     		cmp	r2, r3
 967 0076 06D2     		bcs	.L72
 968 0078 1C48     		ldr	r0, .L91+8
 969 007a FFF7FEFF 		bl	puts
 970              	.LVL80:
 971              	@ 318 "../../../os/rt/include/chsys.h" 1
 972 007e 00BE     		BKPT #0
 973              	
 974              	@ 0 "" 2
 975              		.thumb
 976 0080 1B48     		ldr	r0, .L91+12
 977 0082 FFF7FEFF 		bl	chSysHalt
 978              	.LVL81:
 979              	.L72:
 980              	.LBB305:
 981              	.LBB306:
 982              	.LBB307:
 983              		.loc 4 546 0
 984 0086 0023     		movs	r3, #0
 985              	@ 546 "../../../os/ext/CMSIS/include/core_cmFunc.h" 1
 986 0088 83F31188 		MSR basepri, r3
 987              	@ 0 "" 2
 988              	.LVL82:
 989              		.thumb
 990              	.L67:
 991              	.LBE307:
 992              	.LBE306:
 993              	.LBE305:
 994              	.LBE308:
 995              	.LBE309:
 996              	.LBE345:
 997              		.loc 1 217 0
 998 008c 3846     		mov	r0, r7
 999 008e 4946     		mov	r1, r9
 1000 0090 FFF7FEFF 		bl	mac_lld_get_receive_descriptor
 1001              	.LVL83:
 1002              	.LBB346:
 1003              	.LBB322:
 1004              	.LBB320:
 1005              	.LBB318:
 1006              	.LBB317:
 1007              	.LBB316:
 1008              		.loc 4 546 0
 1009 0094 2023     		movs	r3, #32
 1010              	.LBE316:
 1011              	.LBE317:
 1012              	.LBE318:
 1013              	.LBE320:
 1014              	.LBE322:
 1015              	.LBE346:
 1016              		.loc 1 217 0
 1017 0096 0546     		mov	r5, r0
 1018 0098 0028     		cmp	r0, #0
 1019 009a C7D1     		bne	.L88
ARM GAS  C:\Users\jo\AppData\Local\Temp\cciBgDQj.s 			page 19


 1020              	.L70:
 1021              		.loc 1 231 0
 1022 009c 2846     		mov	r0, r5
 1023 009e BDE8F087 		pop	{r4, r5, r6, r7, r8, r9, r10, pc}
 1024              	.LVL84:
 1025              	.L87:
 1026              	.LBB347:
 1027              	.LBB348:
 1028              	.LBB349:
 1029              		.loc 5 311 0
 1030 00a2 FFF7FEFF 		bl	_dbg_check_unlock
 1031              	.LVL85:
 1032              		.loc 5 312 0
 1033 00a6 FFF7FEFF 		bl	_stats_stop_measure_crit_thd
 1034              	.LVL86:
 1035              		.loc 5 318 0
 1036 00aa 124B     		ldr	r3, .L91+16
 1037 00ac 9A69     		ldr	r2, [r3, #24]
 1038 00ae 1B68     		ldr	r3, [r3]
 1039 00b0 9268     		ldr	r2, [r2, #8]
 1040 00b2 9B68     		ldr	r3, [r3, #8]
 1041 00b4 9A42     		cmp	r2, r3
 1042 00b6 09D3     		bcc	.L89
 1043              	.LVL87:
 1044              	.LBB350:
 1045              	.LBB351:
 1046              	.LBB352:
 1047              		.loc 4 546 0
 1048 00b8 0023     		movs	r3, #0
 1049              	@ 546 "../../../os/ext/CMSIS/include/core_cmFunc.h" 1
 1050 00ba 83F31188 		MSR basepri, r3
 1051              	@ 0 "" 2
 1052              		.thumb
 1053              	.L90:
 1054              	.LVL88:
 1055              	.LBE352:
 1056              	.LBE351:
 1057              	.LBE350:
 1058              	.LBE349:
 1059              	.LBE348:
 1060              	.LBE347:
 1061              		.loc 1 231 0
 1062 00be 2846     		mov	r0, r5
 1063 00c0 BDE8F087 		pop	{r4, r5, r6, r7, r8, r9, r10, pc}
 1064              	.LVL89:
 1065              	.L64:
 1066              		.loc 1 214 0 discriminator 3
 1067 00c4 0848     		ldr	r0, .L91+4
 1068              	.LVL90:
 1069 00c6 FFF7FEFF 		bl	chSysHalt
 1070              	.LVL91:
 1071 00ca A2E7     		b	.L65
 1072              	.LVL92:
 1073              	.L89:
 1074              	.LBB358:
 1075              	.LBB357:
 1076              	.LBB356:
ARM GAS  C:\Users\jo\AppData\Local\Temp\cciBgDQj.s 			page 20


 1077              		.loc 5 318 0
 1078 00cc 0748     		ldr	r0, .L91+8
 1079 00ce FFF7FEFF 		bl	puts
 1080              	.LVL93:
 1081              	@ 318 "../../../os/rt/include/chsys.h" 1
 1082 00d2 00BE     		BKPT #0
 1083              	
 1084              	@ 0 "" 2
 1085              		.thumb
 1086 00d4 0648     		ldr	r0, .L91+12
 1087 00d6 FFF7FEFF 		bl	chSysHalt
 1088              	.LVL94:
 1089              	.LBB355:
 1090              	.LBB354:
 1091              	.LBB353:
 1092              		.loc 4 546 0
 1093 00da 0023     		movs	r3, #0
 1094              	@ 546 "../../../os/ext/CMSIS/include/core_cmFunc.h" 1
 1095 00dc 83F31188 		MSR basepri, r3
 1096              	@ 0 "" 2
 1097              		.thumb
 1098 00e0 EDE7     		b	.L90
 1099              	.L92:
 1100 00e2 00BF     		.align	2
 1101              	.L91:
 1102 00e4 38000000 		.word	.LC2
 1103 00e8 00000000 		.word	.LANCHOR5
 1104 00ec 10000000 		.word	.LC1
 1105 00f0 00000000 		.word	.LANCHOR1
 1106 00f4 00000000 		.word	ch
 1107              	.LBE353:
 1108              	.LBE354:
 1109              	.LBE355:
 1110              	.LBE356:
 1111              	.LBE357:
 1112              	.LBE358:
 1113              		.cfi_endproc
 1114              	.LFE261:
 1115              		.size	macWaitReceiveDescriptor, .-macWaitReceiveDescriptor
 1116 00f8 AFF30080 		.section	.text.macReleaseReceiveDescriptor,"ax",%progbits
 1116      AFF30080 
 1117              		.align	2
 1118              		.p2align 4,,15
 1119              		.global	macReleaseReceiveDescriptor
 1120              		.thumb
 1121              		.thumb_func
 1122              		.type	macReleaseReceiveDescriptor, %function
 1123              	macReleaseReceiveDescriptor:
 1124              	.LFB262:
 1125              		.loc 1 242 0
 1126              		.cfi_startproc
 1127              		@ args = 0, pretend = 0, frame = 0
 1128              		@ frame_needed = 0, uses_anonymous_args = 0
 1129              	.LVL95:
 1130 0000 10B5     		push	{r4, lr}
 1131              		.cfi_def_cfa_offset 8
 1132              		.cfi_offset 4, -8
ARM GAS  C:\Users\jo\AppData\Local\Temp\cciBgDQj.s 			page 21


 1133              		.cfi_offset 14, -4
 1134              		.loc 1 244 0
 1135 0002 0446     		mov	r4, r0
 1136 0004 20B1     		cbz	r0, .L96
 1137              		.loc 1 246 0
 1138 0006 2046     		mov	r0, r4
 1139              		.loc 1 247 0
 1140 0008 BDE81040 		pop	{r4, lr}
 1141              		.cfi_remember_state
 1142              		.cfi_restore 14
 1143              		.cfi_restore 4
 1144              		.cfi_def_cfa_offset 0
 1145              		.loc 1 246 0
 1146 000c FFF7FEBF 		b	mac_lld_release_receive_descriptor
 1147              	.LVL96:
 1148              	.L96:
 1149              		.cfi_restore_state
 1150              		.loc 1 244 0 discriminator 1
 1151 0010 0348     		ldr	r0, .L97
 1152              	.LVL97:
 1153 0012 FFF7FEFF 		bl	chSysHalt
 1154              	.LVL98:
 1155              		.loc 1 246 0 discriminator 1
 1156 0016 2046     		mov	r0, r4
 1157              		.loc 1 247 0 discriminator 1
 1158 0018 BDE81040 		pop	{r4, lr}
 1159              		.cfi_restore 4
 1160              		.cfi_restore 14
 1161              		.cfi_def_cfa_offset 0
 1162              	.LVL99:
 1163              		.loc 1 246 0 discriminator 1
 1164 001c FFF7FEBF 		b	mac_lld_release_receive_descriptor
 1165              	.LVL100:
 1166              	.L98:
 1167              		.align	2
 1168              	.L97:
 1169 0020 00000000 		.word	.LANCHOR6
 1170              		.cfi_endproc
 1171              	.LFE262:
 1172              		.size	macReleaseReceiveDescriptor, .-macReleaseReceiveDescriptor
 1173 0024 AFF30080 		.section	.text.macPollLinkStatus,"ax",%progbits
 1173      AFF30080 
 1173      AFF30080 
 1174              		.align	2
 1175              		.p2align 4,,15
 1176              		.global	macPollLinkStatus
 1177              		.thumb
 1178              		.thumb_func
 1179              		.type	macPollLinkStatus, %function
 1180              	macPollLinkStatus:
 1181              	.LFB263:
 1182              		.loc 1 259 0
 1183              		.cfi_startproc
 1184              		@ args = 0, pretend = 0, frame = 0
 1185              		@ frame_needed = 0, uses_anonymous_args = 0
 1186              	.LVL101:
 1187 0000 10B5     		push	{r4, lr}
ARM GAS  C:\Users\jo\AppData\Local\Temp\cciBgDQj.s 			page 22


 1188              		.cfi_def_cfa_offset 8
 1189              		.cfi_offset 4, -8
 1190              		.cfi_offset 14, -4
 1191              		.loc 1 261 0
 1192 0002 0446     		mov	r4, r0
 1193 0004 70B1     		cbz	r0, .L106
 1194              	.LVL102:
 1195              	.L100:
 1196              		.loc 1 262 0
 1197 0006 2378     		ldrb	r3, [r4]	@ zero_extendqisi2
 1198 0008 022B     		cmp	r3, #2
 1199 000a 06D0     		beq	.L101
 1200              		.loc 1 262 0 is_stmt 0 discriminator 1
 1201 000c 0748     		ldr	r0, .L107
 1202 000e FFF7FEFF 		bl	puts
 1203              	.LVL103:
 1204              	@ 262 "../../../os/hal/src/mac.c" 1
 1205 0012 00BE     		BKPT #0
 1206              	
 1207              	@ 0 "" 2
 1208              		.thumb
 1209 0014 0648     		ldr	r0, .L107+4
 1210 0016 FFF7FEFF 		bl	chSysHalt
 1211              	.LVL104:
 1212              	.L101:
 1213              		.loc 1 264 0 is_stmt 1
 1214 001a 2046     		mov	r0, r4
 1215              		.loc 1 265 0
 1216 001c BDE81040 		pop	{r4, lr}
 1217              		.cfi_remember_state
 1218              		.cfi_restore 14
 1219              		.cfi_restore 4
 1220              		.cfi_def_cfa_offset 0
 1221              	.LVL105:
 1222              		.loc 1 264 0
 1223 0020 FFF7FEBF 		b	mac_lld_poll_link_status
 1224              	.LVL106:
 1225              	.L106:
 1226              		.cfi_restore_state
 1227              		.loc 1 261 0 discriminator 1
 1228 0024 0248     		ldr	r0, .L107+4
 1229              	.LVL107:
 1230 0026 FFF7FEFF 		bl	chSysHalt
 1231              	.LVL108:
 1232 002a ECE7     		b	.L100
 1233              	.L108:
 1234              		.align	2
 1235              	.L107:
 1236 002c 38000000 		.word	.LC2
 1237 0030 00000000 		.word	.LANCHOR7
 1238              		.cfi_endproc
 1239              	.LFE263:
 1240              		.size	macPollLinkStatus, .-macPollLinkStatus
 1241 0034 AFF30080 		.section	.rodata.__func__.8205,"a",%progbits
 1241      AFF30080 
 1241      AFF30080 
 1242              		.align	2
ARM GAS  C:\Users\jo\AppData\Local\Temp\cciBgDQj.s 			page 23


 1243              		.set	.LANCHOR3,. + 0
 1244              		.type	__func__.8205, %object
 1245              		.size	__func__.8205, 26
 1246              	__func__.8205:
 1247 0000 6D616357 		.ascii	"macWaitTransmitDescriptor\000"
 1247      61697454 
 1247      72616E73 
 1247      6D697444 
 1247      65736372 
 1248 001a 0000     		.section	.rodata.__func__.8212,"a",%progbits
 1249              		.align	2
 1250              		.set	.LANCHOR4,. + 0
 1251              		.type	__func__.8212, %object
 1252              		.size	__func__.8212, 29
 1253              	__func__.8212:
 1254 0000 6D616352 		.ascii	"macReleaseTransmitDescriptor\000"
 1254      656C6561 
 1254      73655472 
 1254      616E736D 
 1254      69744465 
 1255 001d 000000   		.section	.rodata.__func__.8220,"a",%progbits
 1256              		.align	2
 1257              		.set	.LANCHOR5,. + 0
 1258              		.type	__func__.8220, %object
 1259              		.size	__func__.8220, 25
 1260              	__func__.8220:
 1261 0000 6D616357 		.ascii	"macWaitReceiveDescriptor\000"
 1261      61697452 
 1261      65636569 
 1261      76654465 
 1261      73637269 
 1262 0019 000000   		.section	.rodata.__func__.8231,"a",%progbits
 1263              		.align	2
 1264              		.set	.LANCHOR7,. + 0
 1265              		.type	__func__.8231, %object
 1266              		.size	__func__.8231, 18
 1267              	__func__.8231:
 1268 0000 6D616350 		.ascii	"macPollLinkStatus\000"
 1268      6F6C6C4C 
 1268      696E6B53 
 1268      74617475 
 1268      7300
 1269 0012 0000     		.section	.rodata.__func__.8227,"a",%progbits
 1270              		.align	2
 1271              		.set	.LANCHOR6,. + 0
 1272              		.type	__func__.8227, %object
 1273              		.size	__func__.8227, 28
 1274              	__func__.8227:
 1275 0000 6D616352 		.ascii	"macReleaseReceiveDescriptor\000"
 1275      656C6561 
 1275      73655265 
 1275      63656976 
 1275      65446573 
 1276              		.section	.rodata.str1.4,"aMS",%progbits,1
 1277              		.align	2
 1278              	.LC0:
 1279 0000 696E7661 		.ascii	"invalid state\000"
ARM GAS  C:\Users\jo\AppData\Local\Temp\cciBgDQj.s 			page 24


 1279      6C696420 
 1279      73746174 
 1279      6500
 1280 000e 0000     		.space	2
 1281              	.LC1:
 1282 0010 7072696F 		.ascii	"priority violation, missing reschedule\000"
 1282      72697479 
 1282      2076696F 
 1282      6C617469 
 1282      6F6E2C20 
 1283 0037 00       		.space	1
 1284              	.LC2:
 1285 0038 6E6F7420 		.ascii	"not active\000"
 1285      61637469 
 1285      766500
 1286 0043 00       		.section	.rodata.__func__.8193,"a",%progbits
 1287              		.align	2
 1288              		.set	.LANCHOR0,. + 0
 1289              		.type	__func__.8193, %object
 1290              		.size	__func__.8193, 9
 1291              	__func__.8193:
 1292 0000 6D616353 		.ascii	"macStart\000"
 1292      74617274 
 1292      00
 1293 0009 000000   		.section	.rodata.__func__.6751,"a",%progbits
 1294              		.align	2
 1295              		.set	.LANCHOR1,. + 0
 1296              		.type	__func__.6751, %object
 1297              		.size	__func__.6751, 12
 1298              	__func__.6751:
 1299 0000 63685379 		.ascii	"chSysUnlock\000"
 1299      73556E6C 
 1299      6F636B00 
 1300              		.section	.rodata.__func__.8197,"a",%progbits
 1301              		.align	2
 1302              		.set	.LANCHOR2,. + 0
 1303              		.type	__func__.8197, %object
 1304              		.size	__func__.8197, 8
 1305              	__func__.8197:
 1306 0000 6D616353 		.ascii	"macStop\000"
 1306      746F7000 
 1307              		.text
 1308              	.Letext0:
 1309              		.file 8 "c:\\program files\\gnu tools arm embedded\\4.9 2014q4\\lib\\gcc\\arm-none-eabi\\4.9.3\\in
 1310              		.file 9 "c:\\program files\\gnu tools arm embedded\\4.9 2014q4\\arm-none-eabi\\include\\machine\\_
 1311              		.file 10 "c:\\program files\\gnu tools arm embedded\\4.9 2014q4\\arm-none-eabi\\include\\stdint.h"
 1312              		.file 11 "../../../os/rt/ports/ARMCMx/compilers/GCC/chtypes.h"
 1313              		.file 12 "../../../os/rt/include/chsystypes.h"
 1314              		.file 13 "../../../os/rt/ports/ARMCMx/chcore.h"
 1315              		.file 14 "../../../os/rt/ports/ARMCMx/chcore_v7m.h"
 1316              		.file 15 "../../../os/hal/ports/STM32/LLD/TIMv1/stm32_tim.h"
 1317              		.file 16 "../../../os/rt/include/chdebug.h"
 1318              		.file 17 "../../../os/rt/include/chtm.h"
 1319              		.file 18 "../../../os/rt/include/chstats.h"
 1320              		.file 19 "../../../os/rt/include/chmtx.h"
 1321              		.file 20 "../../../os/hal/include/mac.h"
 1322              		.file 21 "../../../os/hal/ports/STM32/LLD/mac_lld.h"
ARM GAS  C:\Users\jo\AppData\Local\Temp\cciBgDQj.s 			page 25


 1323              		.file 22 "../../../os/rt/ports/ARMCMx/chcore_timer.h"
 1324              		.file 23 "../../../os/rt/include/chvt.h"
 1325              		.file 24 "../../../os/rt/include/chthreads.h"
 1326              		.file 25 "../../../os/ext/CMSIS/include/core_cm4.h"
 1327              		.file 26 "<built-in>"