ARM GAS  C:\Users\jo\AppData\Local\Temp\ccBXrqAv.s 			page 1


   1              		.syntax unified
   2              		.cpu cortex-m4
   3              		.fpu softvfp
   4              		.eabi_attribute 20, 1
   5              		.eabi_attribute 21, 1
   6              		.eabi_attribute 23, 3
   7              		.eabi_attribute 24, 1
   8              		.eabi_attribute 25, 1
   9              		.eabi_attribute 26, 1
  10              		.eabi_attribute 30, 2
  11              		.eabi_attribute 34, 1
  12              		.eabi_attribute 18, 4
  13              		.thumb
  14              		.file	"mac_lld.c"
  15              		.text
  16              	.Ltext0:
  17              		.cfi_sections	.debug_frame
  18              		.section	.text.mac_lld_set_address,"ax",%progbits
  19              		.align	2
  20              		.p2align 4,,15
  21              		.thumb
  22              		.thumb_func
  23              		.type	mac_lld_set_address, %function
  24              	mac_lld_set_address:
  25              	.LFB259:
  26              		.file 1 "../../../os/hal/ports/STM32/LLD/mac_lld.c"
  27              		.loc 1 159 0
  28              		.cfi_startproc
  29              		@ args = 0, pretend = 0, frame = 0
  30              		@ frame_needed = 0, uses_anonymous_args = 0
  31              		@ link register save eliminated.
  32              	.LVL0:
  33 0000 30B4     		push	{r4, r5}
  34              		.cfi_def_cfa_offset 8
  35              		.cfi_offset 4, -8
  36              		.cfi_offset 5, -4
  37              		.loc 1 163 0
  38 0002 4179     		ldrb	r1, [r0, #5]	@ zero_extendqisi2
  39              		.loc 1 164 0
  40 0004 0279     		ldrb	r2, [r0, #4]	@ zero_extendqisi2
  41              		.loc 1 163 0
  42 0006 0F4B     		ldr	r3, .L3
  43 0008 42EA0122 		orr	r2, r2, r1, lsl #8
  44 000c 1A64     		str	r2, [r3, #64]
  45              		.loc 1 166 0
  46 000e 8478     		ldrb	r4, [r0, #2]	@ zero_extendqisi2
  47              		.loc 1 165 0
  48 0010 C278     		ldrb	r2, [r0, #3]	@ zero_extendqisi2
  49              		.loc 1 168 0
  50 0012 0178     		ldrb	r1, [r0]	@ zero_extendqisi2
  51              		.loc 1 167 0
  52 0014 4578     		ldrb	r5, [r0, #1]	@ zero_extendqisi2
  53              		.loc 1 166 0
  54 0016 2004     		lsls	r0, r4, #16
  55              	.LVL1:
  56              		.loc 1 165 0
  57 0018 40EA0262 		orr	r2, r0, r2, lsl #24
ARM GAS  C:\Users\jo\AppData\Local\Temp\ccBXrqAv.s 			page 2


  58 001c 0A43     		orrs	r2, r2, r1
  59              		.loc 1 169 0
  60 001e 4FF6FF70 		movw	r0, #65535
  61              		.loc 1 170 0
  62 0022 4FF0FF31 		mov	r1, #-1
  63              		.loc 1 175 0
  64 0026 0024     		movs	r4, #0
  65              		.loc 1 167 0
  66 0028 42EA0522 		orr	r2, r2, r5, lsl #8
  67              		.loc 1 165 0
  68 002c 5A64     		str	r2, [r3, #68]
  69              		.loc 1 169 0
  70 002e 9864     		str	r0, [r3, #72]
  71              		.loc 1 170 0
  72 0030 D964     		str	r1, [r3, #76]
  73              		.loc 1 171 0
  74 0032 1865     		str	r0, [r3, #80]
  75              		.loc 1 172 0
  76 0034 5965     		str	r1, [r3, #84]
  77              		.loc 1 173 0
  78 0036 9865     		str	r0, [r3, #88]
  79              		.loc 1 174 0
  80 0038 D965     		str	r1, [r3, #92]
  81              		.loc 1 175 0
  82 003a 9C60     		str	r4, [r3, #8]
  83              		.loc 1 176 0
  84 003c DC60     		str	r4, [r3, #12]
  85              		.loc 1 177 0
  86 003e 30BC     		pop	{r4, r5}
  87              		.cfi_restore 5
  88              		.cfi_restore 4
  89              		.cfi_def_cfa_offset 0
  90 0040 7047     		bx	lr
  91              	.L4:
  92 0042 00BF     		.align	2
  93              	.L3:
  94 0044 00800240 		.word	1073905664
  95              		.cfi_endproc
  96              	.LFE259:
  97              		.size	mac_lld_set_address, .-mac_lld_set_address
  98 0048 AFF30080 		.section	.text.chprintf.constprop.2,"ax",%progbits
  98      AFF30080 
  99              		.align	2
 100              		.p2align 4,,15
 101              		.thumb
 102              		.thumb_func
 103              		.type	chprintf.constprop.2, %function
 104              	chprintf.constprop.2:
 105              	.LFB272:
 106              		.file 2 "../../../os/hal/lib/streams/chprintf.h"
 107              		.loc 2 69 0
 108              		.cfi_startproc
 109              		@ args = 4, pretend = 12, frame = 8
 110              		@ frame_needed = 0, uses_anonymous_args = 1
 111              	.LVL2:
 112 0000 0EB4     		push	{r1, r2, r3}
 113              		.cfi_def_cfa_offset 12
ARM GAS  C:\Users\jo\AppData\Local\Temp\ccBXrqAv.s 			page 3


 114              		.cfi_offset 1, -12
 115              		.cfi_offset 2, -8
 116              		.cfi_offset 3, -4
 117 0002 00B5     		push	{lr}
 118              		.cfi_def_cfa_offset 16
 119              		.cfi_offset 14, -16
 120 0004 82B0     		sub	sp, sp, #8
 121              		.cfi_def_cfa_offset 24
 122              		.loc 2 69 0
 123 0006 03AA     		add	r2, sp, #12
 124              		.loc 2 74 0
 125 0008 0548     		ldr	r0, .L7
 126              	.LVL3:
 127              		.loc 2 69 0
 128 000a 52F8041B 		ldr	r1, [r2], #4
 129              		.loc 2 73 0
 130 000e 0192     		str	r2, [sp, #4]
 131              		.loc 2 74 0
 132 0010 FFF7FEFF 		bl	chvprintf
 133              	.LVL4:
 134              		.loc 2 78 0
 135 0014 02B0     		add	sp, sp, #8
 136              		.cfi_def_cfa_offset 16
 137              		@ sp needed
 138 0016 5DF804EB 		ldr	lr, [sp], #4
 139              		.cfi_restore 14
 140              		.cfi_def_cfa_offset 12
 141 001a 03B0     		add	sp, sp, #12
 142              		.cfi_restore 3
 143              		.cfi_restore 2
 144              		.cfi_restore 1
 145              		.cfi_def_cfa_offset 0
 146 001c 7047     		bx	lr
 147              	.L8:
 148 001e 00BF     		.align	2
 149              	.L7:
 150 0020 00000000 		.word	itm_port
 151              		.cfi_endproc
 152              	.LFE272:
 153              		.size	chprintf.constprop.2, .-chprintf.constprop.2
 154 0024 AFF30080 		.section	.text.mii_write,"ax",%progbits
 154      AFF30080 
 154      AFF30080 
 155              		.align	2
 156              		.p2align 4,,15
 157              		.global	mii_write
 158              		.thumb
 159              		.thumb_func
 160              		.type	mii_write, %function
 161              	mii_write:
 162              	.LFB256:
 163              		.loc 1 93 0
 164              		.cfi_startproc
 165              		@ args = 0, pretend = 0, frame = 0
 166              		@ frame_needed = 0, uses_anonymous_args = 0
 167              		@ link register save eliminated.
 168              	.LVL5:
ARM GAS  C:\Users\jo\AppData\Local\Temp\ccBXrqAv.s 			page 4


 169              		.loc 1 95 0
 170 0000 064B     		ldr	r3, .L13
 171 0002 5A61     		str	r2, [r3, #20]
 172 0004 026A     		ldr	r2, [r0, #32]
 173              	.LVL6:
 174 0006 42F01302 		orr	r2, r2, #19
 175              		.loc 1 97 0
 176 000a 42EA8111 		orr	r1, r2, r1, lsl #6
 177              	.LVL7:
 178              		.loc 1 96 0
 179 000e 1961     		str	r1, [r3, #16]
 180              	.LVL8:
 181              		.loc 1 98 0
 182 0010 1A46     		mov	r2, r3
 183              	.L10:
 184              		.loc 1 98 0 is_stmt 0 discriminator 1
 185 0012 1369     		ldr	r3, [r2, #16]
 186 0014 DB07     		lsls	r3, r3, #31
 187 0016 FCD4     		bmi	.L10
 188              		.loc 1 100 0 is_stmt 1
 189 0018 7047     		bx	lr
 190              	.L14:
 191 001a 00BF     		.align	2
 192              	.L13:
 193 001c 00800240 		.word	1073905664
 194              		.cfi_endproc
 195              	.LFE256:
 196              		.size	mii_write, .-mii_write
 197              		.section	.text.mii_read,"ax",%progbits
 198              		.align	2
 199              		.p2align 4,,15
 200              		.global	mii_read
 201              		.thumb
 202              		.thumb_func
 203              		.type	mii_read, %function
 204              	mii_read:
 205              	.LFB257:
 206              		.loc 1 112 0
 207              		.cfi_startproc
 208              		@ args = 0, pretend = 0, frame = 0
 209              		@ frame_needed = 0, uses_anonymous_args = 0
 210              		@ link register save eliminated.
 211              	.LVL9:
 212 0000 036A     		ldr	r3, [r0, #32]
 213              		.loc 1 114 0
 214 0002 064A     		ldr	r2, .L18
 215 0004 43F01103 		orr	r3, r3, #17
 216 0008 43EA8111 		orr	r1, r3, r1, lsl #6
 217              	.LVL10:
 218 000c 1161     		str	r1, [r2, #16]
 219              	.L16:
 220              		.loc 1 115 0 discriminator 1
 221 000e 1369     		ldr	r3, [r2, #16]
 222 0010 0249     		ldr	r1, .L18
 223 0012 DB07     		lsls	r3, r3, #31
 224 0014 FBD4     		bmi	.L16
 225              		.loc 1 117 0
ARM GAS  C:\Users\jo\AppData\Local\Temp\ccBXrqAv.s 			page 5


 226 0016 4869     		ldr	r0, [r1, #20]
 227              	.LVL11:
 228              		.loc 1 118 0
 229 0018 7047     		bx	lr
 230              	.L19:
 231 001a 00BF     		.align	2
 232              	.L18:
 233 001c 00800240 		.word	1073905664
 234              		.cfi_endproc
 235              	.LFE257:
 236              		.size	mii_read, .-mii_read
 237              		.section	.text.Vector134,"ax",%progbits
 238              		.align	2
 239              		.p2align 4,,15
 240              		.global	Vector134
 241              		.thumb
 242              		.thumb_func
 243              		.type	Vector134, %function
 244              	Vector134:
 245              	.LFB260:
 246              		.loc 1 183 0
 247              		.cfi_startproc
 248              		@ args = 0, pretend = 0, frame = 0
 249              		@ frame_needed = 0, uses_anonymous_args = 0
 250 0000 10B5     		push	{r4, lr}
 251              		.cfi_def_cfa_offset 8
 252              		.cfi_offset 4, -8
 253              		.cfi_offset 14, -4
 254              		.loc 1 186 0
 255 0002 FFF7FEFF 		bl	_stats_increase_irq
 256              	.LVL12:
 257 0006 FFF7FEFF 		bl	_dbg_check_enter_isr
 258              	.LVL13:
 259              		.loc 1 188 0
 260 000a 1D4A     		ldr	r2, .L31
 261 000c 41F21403 		movw	r3, #4116
 262 0010 D458     		ldr	r4, [r2, r3]
 263              	.LVL14:
 264              		.loc 1 189 0
 265 0012 D450     		str	r4, [r2, r3]
 266              		.loc 1 191 0
 267 0014 6206     		lsls	r2, r4, #25
 268 0016 1AD4     		bmi	.L30
 269              	.L21:
 270              		.loc 1 201 0
 271 0018 E307     		lsls	r3, r4, #31
 272 001a 12D5     		bpl	.L22
 273              	.LVL15:
 274              	.LBB182:
 275              	.LBB183:
 276              	.LBB184:
 277              	.LBB185:
 278              	.LBB186:
 279              	.LBB187:
 280              	.LBB188:
 281              		.file 3 "../../../os/ext/CMSIS/include/core_cmFunc.h"
 282              		.loc 3 546 0
ARM GAS  C:\Users\jo\AppData\Local\Temp\ccBXrqAv.s 			page 6


 283 001c 2023     		movs	r3, #32
 284              	@ 546 "../../../os/ext/CMSIS/include/core_cmFunc.h" 1
 285 001e 83F31188 		MSR basepri, r3
 286              	@ 0 "" 2
 287              		.thumb
 288              	.LBE188:
 289              	.LBE187:
 290              	.LBE186:
 291              	.LBE185:
 292              		.file 4 "../../../os/rt/include/chsys.h"
 293              		.loc 4 339 0
 294 0022 FFF7FEFF 		bl	_stats_start_measure_crit_isr
 295              	.LVL16:
 296              		.loc 4 340 0
 297 0026 FFF7FEFF 		bl	_dbg_check_lock_from_isr
 298              	.LVL17:
 299              	.LBE184:
 300              	.LBE183:
 301              	.LBE182:
 302              	.LBB189:
 303              	.LBB190:
 304              		.file 5 "../../../os/hal/osal/rt/osal.h"
 305              		.loc 5 742 0
 306 002a 1648     		ldr	r0, .L31+4
 307 002c 6FF00101 		mvn	r1, #1
 308 0030 FFF7FEFF 		bl	chThdDequeueAllI
 309              	.LVL18:
 310              	.LBE190:
 311              	.LBE189:
 312              	.LBB191:
 313              	.LBB192:
 314              	.LBB193:
 315              		.loc 4 358 0
 316 0034 FFF7FEFF 		bl	_dbg_check_unlock_from_isr
 317              	.LVL19:
 318              		.loc 4 359 0
 319 0038 FFF7FEFF 		bl	_stats_stop_measure_crit_isr
 320              	.LVL20:
 321              	.LBB194:
 322              	.LBB195:
 323              	.LBB196:
 324              	.LBB197:
 325              		.loc 3 546 0
 326 003c 0023     		movs	r3, #0
 327              	@ 546 "../../../os/ext/CMSIS/include/core_cmFunc.h" 1
 328 003e 83F31188 		MSR basepri, r3
 329              	@ 0 "" 2
 330              	.LVL21:
 331              		.thumb
 332              	.L22:
 333              	.LBE197:
 334              	.LBE196:
 335              	.LBE195:
 336              	.LBE194:
 337              	.LBE193:
 338              	.LBE192:
 339              	.LBE191:
ARM GAS  C:\Users\jo\AppData\Local\Temp\ccBXrqAv.s 			page 7


 340              		.loc 1 208 0
 341 0042 FFF7FEFF 		bl	_dbg_check_leave_isr
 342              	.LVL22:
 343              		.loc 1 209 0
 344 0046 BDE81040 		pop	{r4, lr}
 345              		.cfi_remember_state
 346              		.cfi_restore 14
 347              		.cfi_restore 4
 348              		.cfi_def_cfa_offset 0
 349              	.LVL23:
 350              		.loc 1 208 0
 351 004a FFF7FEBF 		b	_port_irq_epilogue
 352              	.LVL24:
 353              	.L30:
 354              		.cfi_restore_state
 355              	.LBB198:
 356              	.LBB199:
 357              	.LBB200:
 358              	.LBB201:
 359              	.LBB202:
 360              	.LBB203:
 361              	.LBB204:
 362              		.loc 3 546 0
 363 004e 2023     		movs	r3, #32
 364              	@ 546 "../../../os/ext/CMSIS/include/core_cmFunc.h" 1
 365 0050 83F31188 		MSR basepri, r3
 366              	@ 0 "" 2
 367              		.thumb
 368              	.LBE204:
 369              	.LBE203:
 370              	.LBE202:
 371              	.LBE201:
 372              		.loc 4 339 0
 373 0054 FFF7FEFF 		bl	_stats_start_measure_crit_isr
 374              	.LVL25:
 375              		.loc 4 340 0
 376 0058 FFF7FEFF 		bl	_dbg_check_lock_from_isr
 377              	.LVL26:
 378              	.LBE200:
 379              	.LBE199:
 380              	.LBE198:
 381              	.LBB205:
 382              	.LBB206:
 383              		.loc 5 742 0
 384 005c 0A48     		ldr	r0, .L31+8
 385 005e 6FF00101 		mvn	r1, #1
 386 0062 FFF7FEFF 		bl	chThdDequeueAllI
 387              	.LVL27:
 388              	.LBE206:
 389              	.LBE205:
 390              	.LBB207:
 391              	.LBB208:
 392              		.loc 5 776 0
 393 0066 0948     		ldr	r0, .L31+12
 394 0068 0021     		movs	r1, #0
 395 006a FFF7FEFF 		bl	chEvtBroadcastFlagsI
 396              	.LVL28:
ARM GAS  C:\Users\jo\AppData\Local\Temp\ccBXrqAv.s 			page 8


 397              	.LBE208:
 398              	.LBE207:
 399              	.LBB209:
 400              	.LBB210:
 401              	.LBB211:
 402              		.loc 4 358 0
 403 006e FFF7FEFF 		bl	_dbg_check_unlock_from_isr
 404              	.LVL29:
 405              		.loc 4 359 0
 406 0072 FFF7FEFF 		bl	_stats_stop_measure_crit_isr
 407              	.LVL30:
 408              	.LBB212:
 409              	.LBB213:
 410              	.LBB214:
 411              	.LBB215:
 412              		.loc 3 546 0
 413 0076 0023     		movs	r3, #0
 414              	@ 546 "../../../os/ext/CMSIS/include/core_cmFunc.h" 1
 415 0078 83F31188 		MSR basepri, r3
 416              	@ 0 "" 2
 417              		.thumb
 418 007c CCE7     		b	.L21
 419              	.L32:
 420 007e 00BF     		.align	2
 421              	.L31:
 422 0080 00800240 		.word	1073905664
 423 0084 08000000 		.word	.LANCHOR0+8
 424 0088 10000000 		.word	.LANCHOR0+16
 425 008c 18000000 		.word	.LANCHOR0+24
 426              	.LBE215:
 427              	.LBE214:
 428              	.LBE213:
 429              	.LBE212:
 430              	.LBE211:
 431              	.LBE210:
 432              	.LBE209:
 433              		.cfi_endproc
 434              	.LFE260:
 435              		.size	Vector134, .-Vector134
 436              		.section	.text.mac_lld_init,"ax",%progbits
 437              		.align	2
 438              		.p2align 4,,15
 439              		.global	mac_lld_init
 440              		.thumb
 441              		.thumb_func
 442              		.type	mac_lld_init, %function
 443              	mac_lld_init:
 444              	.LFB261:
 445              		.loc 1 220 0
 446              		.cfi_startproc
 447              		@ args = 0, pretend = 0, frame = 0
 448              		@ frame_needed = 0, uses_anonymous_args = 0
 449 0000 2DE9F84F 		push	{r3, r4, r5, r6, r7, r8, r9, r10, fp, lr}
 450              		.cfi_def_cfa_offset 40
 451              		.cfi_offset 3, -40
 452              		.cfi_offset 4, -36
 453              		.cfi_offset 5, -32
ARM GAS  C:\Users\jo\AppData\Local\Temp\ccBXrqAv.s 			page 9


 454              		.cfi_offset 6, -28
 455              		.cfi_offset 7, -24
 456              		.cfi_offset 8, -20
 457              		.cfi_offset 9, -16
 458              		.cfi_offset 10, -12
 459              		.cfi_offset 11, -8
 460              		.cfi_offset 14, -4
 461              		.loc 1 223 0
 462 0004 6D4D     		ldr	r5, .L60
 463              		.loc 1 237 0
 464 0006 DFF8EC91 		ldr	r9, .L60+56
 465              		.loc 1 250 0
 466 000a DFF8EC81 		ldr	r8, .L60+60
 467              		.loc 1 232 0
 468 000e DFF8ECA1 		ldr	r10, .L60+64
 469              	.LBB236:
 470              	.LBB237:
 471              		.loc 1 131 0
 472 0012 6B4F     		ldr	r7, .L60+4
 473              		.loc 1 137 0
 474 0014 6B4C     		ldr	r4, .L60+8
 475              	.LBE237:
 476              	.LBE236:
 477              		.loc 1 223 0
 478 0016 2846     		mov	r0, r5
 479 0018 FFF7FEFF 		bl	macObjectInit
 480              	.LVL31:
 481              		.loc 1 224 0
 482 001c 0026     		movs	r6, #0
 483              		.loc 1 226 0
 484 001e 6A49     		ldr	r1, .L60+12
 485 0020 6A4A     		ldr	r2, .L60+16
 486 0022 6B48     		ldr	r0, .L60+20
 487              		.loc 1 224 0
 488 0024 2E77     		strb	r6, [r5, #28]
 489              		.loc 1 226 0
 490 0026 FFF7FEFF 		bl	chprintf.constprop.2
 491              	.LVL32:
 492              		.loc 1 231 0
 493 002a 6A4B     		ldr	r3, .L60+24
 494              		.loc 1 232 0
 495 002c DFF8D0E1 		ldr	lr, .L60+68
 496              		.loc 1 236 0
 497 0030 694A     		ldr	r2, .L60+28
 498              		.loc 1 259 0
 499 0032 6A49     		ldr	r1, .L60+32
 500              	.LBB256:
 501              	.LBB254:
 502              	.LBB238:
 503              	.LBB239:
 504              		.file 6 "../../../os/rt/ports/ARMCMx/chcore_v7m.h"
 505              		.loc 6 547 0
 506 0034 6A48     		ldr	r0, .L60+36
 507              	.LBE239:
 508              	.LBE238:
 509              	.LBE254:
 510              	.LBE256:
ARM GAS  C:\Users\jo\AppData\Local\Temp\ccBXrqAv.s 			page 10


 511              		.loc 1 231 0
 512 0036 44F2F25C 		movw	ip, #17906
 513              		.loc 1 233 0
 514 003a 03F1100B 		add	fp, r3, #16
 515              		.loc 1 231 0
 516 003e C3F804C0 		str	ip, [r3, #4]
 517              		.loc 1 232 0
 518 0042 C3F808E0 		str	lr, [r3, #8]
 519              		.loc 1 233 0
 520 0046 C3F80CB0 		str	fp, [r3, #12]
 521              	.LVL33:
 522              		.loc 1 232 0
 523 004a 0EF2F45B 		addw	fp, lr, #1524
 524              		.loc 1 231 0
 525 004e C3F814C0 		str	ip, [r3, #20]
 526              		.loc 1 232 0
 527 0052 C3F818B0 		str	fp, [r3, #24]
 528              		.loc 1 233 0
 529 0056 03F1200B 		add	fp, r3, #32
 530 005a C3F81CB0 		str	fp, [r3, #28]
 531              	.LVL34:
 532              		.loc 1 232 0
 533 005e 0EF6E83E 		addw	lr, lr, #3048
 534              		.loc 1 233 0
 535 0062 03F1300B 		add	fp, r3, #48
 536              		.loc 1 231 0
 537 0066 C3F824C0 		str	ip, [r3, #36]
 538              		.loc 1 232 0
 539 006a C3F828E0 		str	lr, [r3, #40]
 540              		.loc 1 233 0
 541 006e C3F82CB0 		str	fp, [r3, #44]
 542              	.LVL35:
 543              		.loc 1 238 0
 544 0072 02F1100E 		add	lr, r2, #16
 545              		.loc 1 237 0
 546 0076 09F2F45B 		addw	fp, r9, #1524
 547              		.loc 1 231 0
 548 007a C3F834C0 		str	ip, [r3, #52]
 549              		.loc 1 232 0
 550 007e C3F838A0 		str	r10, [r3, #56]
 551              		.loc 1 233 0
 552 0082 DB63     		str	r3, [r3, #60]
 553              	.LVL36:
 554              		.loc 1 236 0
 555 0084 5660     		str	r6, [r2, #4]
 556              		.loc 1 237 0
 557 0086 C2F80890 		str	r9, [r2, #8]
 558              		.loc 1 238 0
 559 008a C2F80CE0 		str	lr, [r2, #12]
 560              	.LVL37:
 561              		.loc 1 236 0
 562 008e 5661     		str	r6, [r2, #20]
 563              		.loc 1 237 0
 564 0090 C2F818B0 		str	fp, [r2, #24]
 565              		.loc 1 238 0
 566 0094 D261     		str	r2, [r2, #28]
 567              	.LVL38:
ARM GAS  C:\Users\jo\AppData\Local\Temp\ccBXrqAv.s 			page 11


 568              		.loc 1 250 0
 569 0096 D8F80430 		ldr	r3, [r8, #4]
 570 009a 43F40003 		orr	r3, r3, #8388608
 571 009e C8F80430 		str	r3, [r8, #4]
 572              		.loc 1 259 0
 573 00a2 0B69     		ldr	r3, [r1, #16]
 574 00a4 43F00073 		orr	r3, r3, #33554432
 575 00a8 0B61     		str	r3, [r1, #16]
 576 00aa 0E61     		str	r6, [r1, #16]
 577              		.loc 1 262 0
 578 00ac 0B6B     		ldr	r3, [r1, #48]
 579 00ae 43F06063 		orr	r3, r3, #234881024
 580 00b2 0B63     		str	r3, [r1, #48]
 581              	.LVL39:
 582              	.LBB257:
 583              	.LBB255:
 584              	.LBB241:
 585              	.LBB240:
 586              		.loc 6 547 0
 587 00b4 D0F80490 		ldr	r9, [r0, #4]
 588              	.LBE240:
 589              	.LBE241:
 590              		.loc 1 131 0
 591 00b8 4F44     		add	r7, r7, r9
 592              	.LVL40:
 593              		.loc 1 132 0
 594 00ba 4846     		mov	r0, r9
 595              		.loc 1 133 0
 596 00bc 4946     		mov	r1, r9
 597 00be 3A46     		mov	r2, r7
 598              	.LBB242:
 599              	.LBB243:
 600              		.loc 1 115 0
 601 00c0 A046     		mov	r8, r4
 602              	.LBE243:
 603              	.LBE242:
 604              		.loc 1 133 0
 605 00c2 FFF7FEFF 		bl	chSysIsCounterWithinX
 606              	.LVL41:
 607 00c6 F0B1     		cbz	r0, .L59
 608              	.LVL42:
 609              	.L47:
 610 00c8 0022     		movs	r2, #0
 611              		.loc 1 138 0
 612 00ca 45F69040 		movw	r0, #23696
 613              	.L37:
 614              	.LVL43:
 615              		.loc 1 137 0
 616 00ce 9301     		lsls	r3, r2, #6
 617              		.loc 1 136 0
 618 00d0 D102     		lsls	r1, r2, #11
 619              		.loc 1 137 0
 620 00d2 43F01003 		orr	r3, r3, #16
 621              	.LBB246:
 622              	.LBB244:
 623              		.loc 1 114 0
 624 00d6 41F09106 		orr	r6, r1, #145
ARM GAS  C:\Users\jo\AppData\Local\Temp\ccBXrqAv.s 			page 12


 625              	.LBE244:
 626              	.LBE246:
 627              		.loc 1 137 0
 628 00da 6361     		str	r3, [r4, #20]
 629              	.LVL44:
 630              	.LBB247:
 631              	.LBB245:
 632              		.loc 1 114 0
 633 00dc 2661     		str	r6, [r4, #16]
 634              	.L35:
 635              		.loc 1 115 0
 636 00de 2369     		ldr	r3, [r4, #16]
 637 00e0 DB07     		lsls	r3, r3, #31
 638 00e2 FCD4     		bmi	.L35
 639              		.loc 1 117 0
 640 00e4 D8F81430 		ldr	r3, [r8, #20]
 641              	.LBE245:
 642              	.LBE247:
 643              		.loc 1 138 0
 644 00e8 B3F5005F 		cmp	r3, #8192
 645 00ec 14D0     		beq	.L36
 646              	.L40:
 647              		.loc 1 135 0
 648 00ee 0132     		adds	r2, r2, #1
 649              	.LVL45:
 650 00f0 1F2A     		cmp	r2, #31
 651 00f2 ECD1     		bne	.L37
 652              	.LBB248:
 653              	.LBB249:
 654              		.loc 6 547 0
 655 00f4 3A4B     		ldr	r3, .L60+36
 656 00f6 2962     		str	r1, [r5, #32]
 657 00f8 5868     		ldr	r0, [r3, #4]
 658              	.LVL46:
 659              	.LBE249:
 660              	.LBE248:
 661              		.loc 1 133 0
 662 00fa 4946     		mov	r1, r9
 663 00fc 3A46     		mov	r2, r7
 664              	.LVL47:
 665 00fe FFF7FEFF 		bl	chSysIsCounterWithinX
 666              	.LVL48:
 667 0102 0028     		cmp	r0, #0
 668 0104 E0D1     		bne	.L47
 669              	.LVL49:
 670              	.L59:
 671              		.loc 1 147 0
 672 0106 3049     		ldr	r1, .L60+12
 673 0108 364A     		ldr	r2, .L60+40
 674 010a 3148     		ldr	r0, .L60+20
 675 010c FFF7FEFF 		bl	chprintf.constprop.2
 676              	.LVL50:
 677              	.LBB250:
 678              	.LBB251:
 679              		.loc 5 414 0
 680 0110 3448     		ldr	r0, .L60+40
 681 0112 FFF7FEFF 		bl	chSysHalt
ARM GAS  C:\Users\jo\AppData\Local\Temp\ccBXrqAv.s 			page 13


 682              	.LVL51:
 683 0116 0FE0     		b	.L41
 684              	.LVL52:
 685              	.L36:
 686              	.LBE251:
 687              	.LBE250:
 688              	.LBB252:
 689              	.LBB253:
 690              		.loc 1 114 0
 691 0118 41F0D103 		orr	r3, r1, #209
 692 011c C8F81030 		str	r3, [r8, #16]
 693              	.L39:
 694              		.loc 1 115 0
 695 0120 2369     		ldr	r3, [r4, #16]
 696 0122 DE07     		lsls	r6, r3, #31
 697 0124 FCD4     		bmi	.L39
 698              		.loc 1 117 0
 699 0126 D8F814E0 		ldr	lr, [r8, #20]
 700              	.LBE253:
 701              	.LBE252:
 702              		.loc 1 139 0
 703 012a 4FF6F073 		movw	r3, #65520
 704 012e 0EEA0303 		and	r3, lr, r3
 705              		.loc 1 138 0
 706 0132 8342     		cmp	r3, r0
 707 0134 DBD1     		bne	.L40
 708 0136 2962     		str	r1, [r5, #32]
 709              	.LVL53:
 710              	.L41:
 711              	.LBE255:
 712              	.LBE257:
 713              		.loc 1 269 0
 714 0138 2B49     		ldr	r1, .L60+44
 715 013a 2C4A     		ldr	r2, .L60+48
 716 013c 2448     		ldr	r0, .L60+20
 717 013e FFF7FEFF 		bl	chprintf.constprop.2
 718              	.LVL54:
 719              	.LBB258:
 720              	.LBB259:
 721              		.loc 1 97 0
 722 0142 2A6A     		ldr	r2, [r5, #32]
 723              		.loc 1 95 0
 724 0144 1F4B     		ldr	r3, .L60+8
 725              		.loc 1 97 0
 726 0146 42F01301 		orr	r1, r2, #19
 727              		.loc 1 95 0
 728 014a 4FF40042 		mov	r2, #32768
 729 014e 5A61     		str	r2, [r3, #20]
 730              		.loc 1 98 0
 731 0150 1A46     		mov	r2, r3
 732              		.loc 1 96 0
 733 0152 1961     		str	r1, [r3, #16]
 734              	.L42:
 735              		.loc 1 98 0
 736 0154 1369     		ldr	r3, [r2, #16]
 737 0156 DB07     		lsls	r3, r3, #31
 738 0158 FCD4     		bmi	.L42
ARM GAS  C:\Users\jo\AppData\Local\Temp\ccBXrqAv.s 			page 14


 739              	.LBE259:
 740              	.LBE258:
 741              		.loc 1 279 0
 742 015a 2549     		ldr	r1, .L60+52
 743 015c 1C48     		ldr	r0, .L60+20
 744 015e 6422     		movs	r2, #100
 745 0160 FFF7FEFF 		bl	chprintf.constprop.2
 746              	.LVL55:
 747              		.loc 1 280 0
 748 0164 6420     		movs	r0, #100
 749 0166 FFF7FEFF 		bl	chSysPolledDelayX
 750              	.LVL56:
 751              		.loc 1 281 0
 752 016a 2149     		ldr	r1, .L60+52
 753 016c 1848     		ldr	r0, .L60+20
 754 016e 6422     		movs	r2, #100
 755 0170 FFF7FEFF 		bl	chprintf.constprop.2
 756              	.LVL57:
 757 0174 2D6A     		ldr	r5, [r5, #32]
 758              	.LBB260:
 759              	.LBB261:
 760              		.loc 1 114 0
 761 0176 1349     		ldr	r1, .L60+8
 762 0178 45F01100 		orr	r0, r5, #17
 763              		.loc 1 115 0
 764 017c 0C46     		mov	r4, r1
 765              	.LVL58:
 766              	.L44:
 767              		.loc 1 114 0 discriminator 1
 768 017e 0861     		str	r0, [r1, #16]
 769              	.L43:
 770              		.loc 1 115 0
 771 0180 0B69     		ldr	r3, [r1, #16]
 772 0182 104A     		ldr	r2, .L60+8
 773 0184 DF07     		lsls	r7, r3, #31
 774 0186 FBD4     		bmi	.L43
 775              		.loc 1 117 0
 776 0188 6369     		ldr	r3, [r4, #20]
 777              	.LBE261:
 778              	.LBE260:
 779              		.loc 1 283 0
 780 018a 1E04     		lsls	r6, r3, #16
 781 018c F7D4     		bmi	.L44
 782              	.LVL59:
 783              	.LBB262:
 784              	.LBB263:
 785              		.loc 1 114 0
 786 018e 1061     		str	r0, [r2, #16]
 787              	.L45:
 788              		.loc 1 115 0
 789 0190 1369     		ldr	r3, [r2, #16]
 790 0192 0C49     		ldr	r1, .L60+8
 791 0194 D807     		lsls	r0, r3, #31
 792 0196 FBD4     		bmi	.L45
 793              		.loc 1 117 0
 794 0198 4B69     		ldr	r3, [r1, #20]
 795              	.LBE263:
ARM GAS  C:\Users\jo\AppData\Local\Temp\ccBXrqAv.s 			page 15


 796              	.LBE262:
 797              	.LBB264:
 798              	.LBB265:
 799              		.loc 1 97 0
 800 019a 45F01305 		orr	r5, r5, #19
 801              	.LBE265:
 802              	.LBE264:
 803              		.loc 1 289 0
 804 019e 43F40063 		orr	r3, r3, #2048
 805              	.LVL60:
 806              	.LBB267:
 807              	.LBB266:
 808              		.loc 1 95 0
 809 01a2 4B61     		str	r3, [r1, #20]
 810              		.loc 1 98 0
 811 01a4 0A46     		mov	r2, r1
 812              		.loc 1 96 0
 813 01a6 0D61     		str	r5, [r1, #16]
 814              	.LVL61:
 815              	.L46:
 816              		.loc 1 98 0
 817 01a8 1369     		ldr	r3, [r2, #16]
 818 01aa DB07     		lsls	r3, r3, #31
 819 01ac FCD4     		bmi	.L46
 820              	.LBE266:
 821              	.LBE267:
 822              		.loc 1 293 0
 823 01ae 0B4A     		ldr	r2, .L60+32
 824 01b0 136B     		ldr	r3, [r2, #48]
 825 01b2 23F06063 		bic	r3, r3, #234881024
 826 01b6 1363     		str	r3, [r2, #48]
 827 01b8 BDE8F88F 		pop	{r3, r4, r5, r6, r7, r8, r9, r10, fp, pc}
 828              	.LVL62:
 829              	.L61:
 830              		.align	2
 831              	.L60:
 832 01bc 00000000 		.word	.LANCHOR0
 833 01c0 C0E1E400 		.word	15000000
 834 01c4 00800240 		.word	1073905664
 835 01c8 00000000 		.word	.LC0
 836 01cc 04000000 		.word	.LC1
 837 01d0 00000000 		.word	itm_port
 838 01d4 00000000 		.word	.LANCHOR1
 839 01d8 00000000 		.word	.LANCHOR3
 840 01dc 00380240 		.word	1073887232
 841 01e0 001000E0 		.word	-536866816
 842 01e4 14000000 		.word	.LC2
 843 01e8 20000000 		.word	.LC3
 844 01ec 2C000000 		.word	.LC4
 845 01f0 3C000000 		.word	.LC5
 846 01f4 00000000 		.word	.LANCHOR4
 847 01f8 00380140 		.word	1073821696
 848 01fc DC110000 		.word	.LANCHOR2+4572
 849 0200 00000000 		.word	.LANCHOR2
 850              		.cfi_endproc
 851              	.LFE261:
 852              		.size	mac_lld_init, .-mac_lld_init
ARM GAS  C:\Users\jo\AppData\Local\Temp\ccBXrqAv.s 			page 16


 853 0204 AFF30080 		.section	.text.mac_lld_start,"ax",%progbits
 853      AFF30080 
 853      AFF30080 
 854              		.align	2
 855              		.p2align 4,,15
 856              		.global	mac_lld_start
 857              		.thumb
 858              		.thumb_func
 859              		.type	mac_lld_start, %function
 860              	mac_lld_start:
 861              	.LFB262:
 862              		.loc 1 303 0
 863              		.cfi_startproc
 864              		@ args = 0, pretend = 0, frame = 0
 865              		@ frame_needed = 0, uses_anonymous_args = 0
 866              	.LVL63:
 867 0000 2DE9F843 		push	{r3, r4, r5, r6, r7, r8, r9, lr}
 868              		.cfi_def_cfa_offset 32
 869              		.cfi_offset 3, -32
 870              		.cfi_offset 4, -28
 871              		.cfi_offset 5, -24
 872              		.cfi_offset 6, -20
 873              		.cfi_offset 7, -16
 874              		.cfi_offset 8, -12
 875              		.cfi_offset 9, -8
 876              		.cfi_offset 14, -4
 877              		.loc 1 308 0
 878 0004 384C     		ldr	r4, .L73
 879              		.loc 1 311 0
 880 0006 394D     		ldr	r5, .L73+4
 881              		.loc 1 315 0
 882 0008 394F     		ldr	r7, .L73+8
 883              		.loc 1 322 0
 884 000a 3A49     		ldr	r1, .L73+12
 885 000c 3A4A     		ldr	r2, .L73+16
 886              		.loc 1 308 0
 887 000e 4FF00043 		mov	r3, #-2147483648
 888              		.loc 1 311 0
 889 0012 4FF48016 		mov	r6, #1048576
 890              		.loc 1 308 0
 891 0016 2360     		str	r3, [r4]
 892              	.LVL64:
 893 0018 2361     		str	r3, [r4, #16]
 894              	.LVL65:
 895 001a 2362     		str	r3, [r4, #32]
 896              	.LVL66:
 897 001c 2363     		str	r3, [r4, #48]
 898              	.LVL67:
 899              		.loc 1 311 0
 900 001e 2E60     		str	r6, [r5]
 901 0020 2E61     		str	r6, [r5, #16]
 902              		.loc 1 315 0
 903 0022 3B6B     		ldr	r3, [r7, #48]
 904              		.loc 1 309 0
 905 0024 4462     		str	r4, [r0, #36]
 906              	.LVL68:
 907              		.loc 1 315 0
ARM GAS  C:\Users\jo\AppData\Local\Temp\ccBXrqAv.s 			page 17


 908 0026 43F06063 		orr	r3, r3, #234881024
 909              		.loc 1 312 0
 910 002a 8562     		str	r5, [r0, #40]
 911              		.loc 1 303 0
 912 002c 0646     		mov	r6, r0
 913              		.loc 1 315 0
 914 002e 3B63     		str	r3, [r7, #48]
 915              		.loc 1 322 0
 916 0030 3248     		ldr	r0, .L73+20
 917              	.LVL69:
 918 0032 FFF7FEFF 		bl	chprintf.constprop.2
 919              	.LVL70:
 920              		.loc 1 325 0
 921 0036 3D20     		movs	r0, #61
 922 0038 0D21     		movs	r1, #13
 923 003a FFF7FEFF 		bl	nvicEnableVector
 924              	.LVL71:
 925              	.LBB268:
 926              	.LBB269:
 927              		.loc 1 114 0
 928 003e 306A     		ldr	r0, [r6, #32]
 929 0040 2F49     		ldr	r1, .L73+24
 930 0042 40F01103 		orr	r3, r0, #17
 931 0046 0B61     		str	r3, [r1, #16]
 932              	.L63:
 933              		.loc 1 115 0
 934 0048 0B69     		ldr	r3, [r1, #16]
 935 004a 2D4A     		ldr	r2, .L73+24
 936 004c DF07     		lsls	r7, r3, #31
 937 004e FBD4     		bmi	.L63
 938              		.loc 1 117 0
 939 0050 5369     		ldr	r3, [r2, #20]
 940              	.LBE269:
 941              	.LBE268:
 942              	.LBB270:
 943              	.LBB271:
 944              		.loc 1 97 0
 945 0052 40F01300 		orr	r0, r0, #19
 946              	.LBE271:
 947              	.LBE270:
 948              		.loc 1 329 0
 949 0056 23F40063 		bic	r3, r3, #2048
 950              	.LVL72:
 951              	.LBB273:
 952              	.LBB272:
 953              		.loc 1 95 0
 954 005a 5361     		str	r3, [r2, #20]
 955              		.loc 1 98 0
 956 005c 1146     		mov	r1, r2
 957              		.loc 1 96 0
 958 005e 1061     		str	r0, [r2, #16]
 959              	.LVL73:
 960              	.L64:
 961              		.loc 1 98 0
 962 0060 0B69     		ldr	r3, [r1, #16]
 963 0062 274A     		ldr	r2, .L73+24
 964 0064 13F00103 		ands	r3, r3, #1
ARM GAS  C:\Users\jo\AppData\Local\Temp\ccBXrqAv.s 			page 18


 965 0068 FAD1     		bne	.L64
 966              	.LBE272:
 967              	.LBE273:
 968              		.loc 1 338 0
 969 006a 7168     		ldr	r1, [r6, #4]
 970              		.loc 1 333 0
 971 006c 5360     		str	r3, [r2, #4]
 972              		.loc 1 338 0
 973 006e 0868     		ldr	r0, [r1]
 974              		.loc 1 334 0
 975 0070 9361     		str	r3, [r2, #24]
 976              		.loc 1 335 0
 977 0072 D361     		str	r3, [r2, #28]
 978              		.loc 1 338 0
 979 0074 0028     		cmp	r0, #0
 980 0076 33D0     		beq	.L72
 981              		.loc 1 341 0
 982 0078 FFF7FEFF 		bl	mac_lld_set_address
 983              	.LVL74:
 984              	.L66:
 985              		.loc 1 349 0
 986 007c 204E     		ldr	r6, .L73+24
 987              	.LVL75:
 988              		.loc 1 362 0
 989 007e 214F     		ldr	r7, .L73+28
 990              		.loc 1 359 0
 991 0080 DFF898C0 		ldr	ip, .L73+52
 992              		.loc 1 362 0
 993 0084 DFF898E0 		ldr	lr, .L73+56
 994              		.loc 1 364 0
 995 0088 1F4A     		ldr	r2, .L73+32
 996 008a 1C48     		ldr	r0, .L73+20
 997 008c 1949     		ldr	r1, .L73+12
 998              		.loc 1 354 0
 999 008e 41F20C09 		movw	r9, #4108
 1000              		.loc 1 355 0
 1001 0092 41F21008 		movw	r8, #4112
 1002              		.loc 1 349 0
 1003 0096 0C23     		movs	r3, #12
 1004 0098 3360     		str	r3, [r6]
 1005              		.loc 1 354 0
 1006 009a 46F80940 		str	r4, [r6, r9]
 1007              		.loc 1 358 0
 1008 009e 41F21403 		movw	r3, #4116
 1009              		.loc 1 355 0
 1010 00a2 46F80850 		str	r5, [r6, r8]
 1011              		.loc 1 359 0
 1012 00a6 41F21C04 		movw	r4, #4124
 1013              		.loc 1 358 0
 1014 00aa F558     		ldr	r5, [r6, r3]
 1015 00ac F550     		str	r5, [r6, r3]
 1016              		.loc 1 359 0
 1017 00ae 46F804C0 		str	ip, [r6, r4]
 1018              		.loc 1 362 0
 1019 00b2 C7F800E0 		str	lr, [r7]
 1020              		.loc 1 364 0
 1021 00b6 FFF7FEFF 		bl	chprintf.constprop.2
ARM GAS  C:\Users\jo\AppData\Local\Temp\ccBXrqAv.s 			page 19


 1022              	.LVL76:
 1023              		.loc 1 367 0
 1024 00ba 41F21803 		movw	r3, #4120
 1025 00be 4FF48012 		mov	r2, #1048576
 1026 00c2 F250     		str	r2, [r6, r3]
 1027              		.loc 1 368 0
 1028 00c4 114A     		ldr	r2, .L73+36
 1029              	.L67:
 1030              		.loc 1 368 0 is_stmt 0 discriminator 1
 1031 00c6 1368     		ldr	r3, [r2]
 1032 00c8 104C     		ldr	r4, .L73+36
 1033 00ca DB02     		lsls	r3, r3, #11
 1034 00cc FBD4     		bmi	.L67
 1035              		.loc 1 371 0 is_stmt 1
 1036 00ce 0B48     		ldr	r0, .L73+20
 1037 00d0 0849     		ldr	r1, .L73+12
 1038 00d2 0F4A     		ldr	r2, .L73+40
 1039 00d4 FFF7FEFF 		bl	chprintf.constprop.2
 1040              	.LVL77:
 1041              		.loc 1 374 0
 1042 00d8 0E4B     		ldr	r3, .L73+44
 1043 00da 2360     		str	r3, [r4]
 1044 00dc BDE8F883 		pop	{r3, r4, r5, r6, r7, r8, r9, pc}
 1045              	.LVL78:
 1046              	.L72:
 1047              		.loc 1 339 0
 1048 00e0 0D48     		ldr	r0, .L73+48
 1049 00e2 FFF7FEFF 		bl	mac_lld_set_address
 1050              	.LVL79:
 1051 00e6 C9E7     		b	.L66
 1052              	.L74:
 1053              		.align	2
 1054              	.L73:
 1055 00e8 00000000 		.word	.LANCHOR1
 1056 00ec 00000000 		.word	.LANCHOR3
 1057 00f0 00380240 		.word	1073887232
 1058 00f4 00000000 		.word	.LC0
 1059 00f8 58000000 		.word	.LC6
 1060 00fc 00000000 		.word	itm_port
 1061 0100 00800240 		.word	1073905664
 1062 0104 00900240 		.word	1073909760
 1063 0108 64000000 		.word	.LC7
 1064 010c 18900240 		.word	1073909784
 1065 0110 74000000 		.word	.LC8
 1066 0114 02202006 		.word	102768642
 1067 0118 00000000 		.word	.LANCHOR5
 1068 011c 41000100 		.word	65601
 1069 0120 00010202 		.word	33685760
 1070              		.cfi_endproc
 1071              	.LFE262:
 1072              		.size	mac_lld_start, .-mac_lld_start
 1073 0124 AFF30080 		.section	.text.mac_lld_stop,"ax",%progbits
 1073      AFF30080 
 1073      AFF30080 
 1074              		.align	2
 1075              		.p2align 4,,15
 1076              		.global	mac_lld_stop
ARM GAS  C:\Users\jo\AppData\Local\Temp\ccBXrqAv.s 			page 20


 1077              		.thumb
 1078              		.thumb_func
 1079              		.type	mac_lld_stop, %function
 1080              	mac_lld_stop:
 1081              	.LFB263:
 1082              		.loc 1 385 0
 1083              		.cfi_startproc
 1084              		@ args = 0, pretend = 0, frame = 0
 1085              		@ frame_needed = 0, uses_anonymous_args = 0
 1086              		@ link register save eliminated.
 1087              	.LVL80:
 1088              		.loc 1 387 0
 1089 0000 0378     		ldrb	r3, [r0]	@ zero_extendqisi2
 1090 0002 012B     		cmp	r3, #1
 1091 0004 2CD0     		beq	.L82
 1092              	.LVL81:
 1093              	.LBB274:
 1094              	.LBB275:
 1095              		.loc 1 114 0
 1096 0006 006A     		ldr	r0, [r0, #32]
 1097              	.LVL82:
 1098 0008 1649     		ldr	r1, .L83
 1099 000a 40F01103 		orr	r3, r0, #17
 1100 000e 0B61     		str	r3, [r1, #16]
 1101              	.L77:
 1102              		.loc 1 115 0
 1103 0010 0B69     		ldr	r3, [r1, #16]
 1104 0012 144A     		ldr	r2, .L83
 1105 0014 DB07     		lsls	r3, r3, #31
 1106 0016 FBD4     		bmi	.L77
 1107              		.loc 1 117 0
 1108 0018 5369     		ldr	r3, [r2, #20]
 1109              	.LBE275:
 1110              	.LBE274:
 1111              	.LBB276:
 1112              	.LBB277:
 1113              		.loc 1 97 0
 1114 001a 40F01300 		orr	r0, r0, #19
 1115              	.LBE277:
 1116              	.LBE276:
 1117              		.loc 1 390 0
 1118 001e 43F40063 		orr	r3, r3, #2048
 1119              	.LVL83:
 1120              	.LBB279:
 1121              	.LBB278:
 1122              		.loc 1 95 0
 1123 0022 5361     		str	r3, [r2, #20]
 1124              		.loc 1 98 0
 1125 0024 1146     		mov	r1, r2
 1126              		.loc 1 96 0
 1127 0026 1061     		str	r0, [r2, #16]
 1128              	.LVL84:
 1129              	.L78:
 1130              		.loc 1 98 0
 1131 0028 0B69     		ldr	r3, [r1, #16]
 1132 002a 0E4A     		ldr	r2, .L83
 1133 002c 13F00103 		ands	r3, r3, #1
ARM GAS  C:\Users\jo\AppData\Local\Temp\ccBXrqAv.s 			page 21


 1134 0030 FAD1     		bne	.L78
 1135              	.LBE278:
 1136              	.LBE279:
 1137              		.loc 1 385 0
 1138 0032 10B4     		push	{r4}
 1139              		.cfi_def_cfa_offset 4
 1140              		.cfi_offset 4, -4
 1141              		.loc 1 396 0
 1142 0034 41F21C00 		movw	r0, #4124
 1143              		.loc 1 395 0
 1144 0038 41F21804 		movw	r4, #4120
 1145              		.loc 1 394 0
 1146 003c 1360     		str	r3, [r2]
 1147              		.loc 1 397 0
 1148 003e 41F21401 		movw	r1, #4116
 1149              		.loc 1 395 0
 1150 0042 1351     		str	r3, [r2, r4]
 1151              		.loc 1 396 0
 1152 0044 1350     		str	r3, [r2, r0]
 1153              		.loc 1 397 0
 1154 0046 5358     		ldr	r3, [r2, r1]
 1155 0048 5350     		str	r3, [r2, r1]
 1156              		.loc 1 400 0
 1157 004a A2F59042 		sub	r2, r2, #18432
 1158              		.loc 1 403 0
 1159 004e 3D20     		movs	r0, #61
 1160              		.loc 1 400 0
 1161 0050 136B     		ldr	r3, [r2, #48]
 1162              		.loc 1 405 0
 1163 0052 5DF8044B 		ldr	r4, [sp], #4
 1164              		.cfi_restore 4
 1165              		.cfi_def_cfa_offset 0
 1166              		.loc 1 400 0
 1167 0056 23F06063 		bic	r3, r3, #234881024
 1168 005a 1363     		str	r3, [r2, #48]
 1169              		.loc 1 403 0
 1170 005c FFF7FEBF 		b	nvicDisableVector
 1171              	.LVL85:
 1172              	.L82:
 1173 0060 7047     		bx	lr
 1174              	.L84:
 1175 0062 00BF     		.align	2
 1176              	.L83:
 1177 0064 00800240 		.word	1073905664
 1178              		.cfi_endproc
 1179              	.LFE263:
 1180              		.size	mac_lld_stop, .-mac_lld_stop
 1181 0068 AFF30080 		.section	.text.mac_lld_get_transmit_descriptor,"ax",%progbits
 1181      AFF30080 
 1182              		.align	2
 1183              		.p2align 4,,15
 1184              		.global	mac_lld_get_transmit_descriptor
 1185              		.thumb
 1186              		.thumb_func
 1187              		.type	mac_lld_get_transmit_descriptor, %function
 1188              	mac_lld_get_transmit_descriptor:
 1189              	.LFB264:
ARM GAS  C:\Users\jo\AppData\Local\Temp\ccBXrqAv.s 			page 22


 1190              		.loc 1 421 0
 1191              		.cfi_startproc
 1192              		@ args = 0, pretend = 0, frame = 0
 1193              		@ frame_needed = 0, uses_anonymous_args = 0
 1194              	.LVL86:
 1195              		.loc 1 424 0
 1196 0000 037F     		ldrb	r3, [r0, #28]	@ zero_extendqisi2
 1197 0002 73B3     		cbz	r3, .L90
 1198              	.LVL87:
 1199              		.loc 1 421 0
 1200 0004 70B5     		push	{r4, r5, r6, lr}
 1201              		.cfi_def_cfa_offset 16
 1202              		.cfi_offset 4, -16
 1203              		.cfi_offset 5, -12
 1204              		.cfi_offset 6, -8
 1205              		.cfi_offset 14, -4
 1206              	.LBB300:
 1207              	.LBB301:
 1208              	.LBB302:
 1209              	.LBB303:
 1210              	.LBB304:
 1211              	.LBB305:
 1212              		.loc 3 546 0
 1213 0006 2023     		movs	r3, #32
 1214 0008 0D46     		mov	r5, r1
 1215 000a 0446     		mov	r4, r0
 1216              	@ 546 "../../../os/ext/CMSIS/include/core_cmFunc.h" 1
 1217 000c 83F31188 		MSR basepri, r3
 1218              	@ 0 "" 2
 1219              		.thumb
 1220              	.LBE305:
 1221              	.LBE304:
 1222              	.LBE303:
 1223              		.loc 4 300 0
 1224 0010 FFF7FEFF 		bl	_stats_start_measure_crit_thd
 1225              	.LVL88:
 1226              		.loc 4 301 0
 1227 0014 FFF7FEFF 		bl	_dbg_check_lock
 1228              	.LVL89:
 1229              	.LBE302:
 1230              	.LBE301:
 1231              	.LBE300:
 1232              		.loc 1 430 0
 1233 0018 A66A     		ldr	r6, [r4, #40]
 1234              	.LVL90:
 1235              		.loc 1 434 0
 1236 001a 3368     		ldr	r3, [r6]
 1237 001c 13F0014F 		tst	r3, #-2130706432
 1238 0020 22D1     		bne	.L93
 1239              		.loc 1 440 0
 1240 0022 3368     		ldr	r3, [r6]
 1241 0024 43F08073 		orr	r3, r3, #16777216
 1242 0028 3360     		str	r3, [r6]
 1243              		.loc 1 443 0
 1244 002a F368     		ldr	r3, [r6, #12]
 1245 002c A362     		str	r3, [r4, #40]
 1246              	.LBB306:
ARM GAS  C:\Users\jo\AppData\Local\Temp\ccBXrqAv.s 			page 23


 1247              	.LBB307:
 1248              	.LBB308:
 1249              		.loc 4 311 0
 1250 002e FFF7FEFF 		bl	_dbg_check_unlock
 1251              	.LVL91:
 1252              		.loc 4 312 0
 1253 0032 FFF7FEFF 		bl	_stats_stop_measure_crit_thd
 1254              	.LVL92:
 1255              		.loc 4 318 0
 1256 0036 184B     		ldr	r3, .L94
 1257 0038 9A69     		ldr	r2, [r3, #24]
 1258 003a 1B68     		ldr	r3, [r3]
 1259 003c 9268     		ldr	r2, [r2, #8]
 1260 003e 9B68     		ldr	r3, [r3, #8]
 1261 0040 9A42     		cmp	r2, r3
 1262 0042 06D2     		bcs	.L89
 1263 0044 1548     		ldr	r0, .L94+4
 1264 0046 FFF7FEFF 		bl	puts
 1265              	.LVL93:
 1266              	@ 318 "../../../os/rt/include/chsys.h" 1
 1267 004a 00BE     		BKPT #0
 1268              	
 1269              	@ 0 "" 2
 1270              		.thumb
 1271 004c 1448     		ldr	r0, .L94+8
 1272 004e FFF7FEFF 		bl	chSysHalt
 1273              	.LVL94:
 1274              	.L89:
 1275              	.LBB309:
 1276              	.LBB310:
 1277              	.LBB311:
 1278              		.loc 3 546 0
 1279 0052 0020     		movs	r0, #0
 1280              	@ 546 "../../../os/ext/CMSIS/include/core_cmFunc.h" 1
 1281 0054 80F31188 		MSR basepri, r0
 1282              	@ 0 "" 2
 1283              		.thumb
 1284              	.LBE311:
 1285              	.LBE310:
 1286              	.LBE309:
 1287              	.LBE308:
 1288              	.LBE307:
 1289              	.LBE306:
 1290              		.loc 1 449 0
 1291 0058 40F2F253 		movw	r3, #1522
 1292 005c 85E84900 		stmia	r5, {r0, r3, r6}
 1293              		.loc 1 452 0
 1294 0060 70BD     		pop	{r4, r5, r6, pc}
 1295              	.LVL95:
 1296              	.L90:
 1297              		.cfi_def_cfa_offset 0
 1298              		.cfi_restore 4
 1299              		.cfi_restore 5
 1300              		.cfi_restore 6
 1301              		.cfi_restore 14
 1302              		.loc 1 425 0
 1303 0062 4FF0FF30 		mov	r0, #-1
ARM GAS  C:\Users\jo\AppData\Local\Temp\ccBXrqAv.s 			page 24


 1304              	.LVL96:
 1305 0066 7047     		bx	lr
 1306              	.LVL97:
 1307              	.L93:
 1308              		.cfi_def_cfa_offset 16
 1309              		.cfi_offset 4, -16
 1310              		.cfi_offset 5, -12
 1311              		.cfi_offset 6, -8
 1312              		.cfi_offset 14, -4
 1313              	.LBB312:
 1314              	.LBB313:
 1315              	.LBB314:
 1316              		.loc 4 311 0
 1317 0068 FFF7FEFF 		bl	_dbg_check_unlock
 1318              	.LVL98:
 1319              		.loc 4 312 0
 1320 006c FFF7FEFF 		bl	_stats_stop_measure_crit_thd
 1321              	.LVL99:
 1322              		.loc 4 318 0
 1323 0070 094B     		ldr	r3, .L94
 1324 0072 9A69     		ldr	r2, [r3, #24]
 1325 0074 1B68     		ldr	r3, [r3]
 1326 0076 9268     		ldr	r2, [r2, #8]
 1327 0078 9B68     		ldr	r3, [r3, #8]
 1328 007a 9A42     		cmp	r2, r3
 1329 007c 06D2     		bcs	.L88
 1330 007e 0748     		ldr	r0, .L94+4
 1331 0080 FFF7FEFF 		bl	puts
 1332              	.LVL100:
 1333              	@ 318 "../../../os/rt/include/chsys.h" 1
 1334 0084 00BE     		BKPT #0
 1335              	
 1336              	@ 0 "" 2
 1337              		.thumb
 1338 0086 0648     		ldr	r0, .L94+8
 1339 0088 FFF7FEFF 		bl	chSysHalt
 1340              	.LVL101:
 1341              	.L88:
 1342              	.LBB315:
 1343              	.LBB316:
 1344              	.LBB317:
 1345              		.loc 3 546 0
 1346 008c 0023     		movs	r3, #0
 1347              	@ 546 "../../../os/ext/CMSIS/include/core_cmFunc.h" 1
 1348 008e 83F31188 		MSR basepri, r3
 1349              	@ 0 "" 2
 1350              		.thumb
 1351              	.LBE317:
 1352              	.LBE316:
 1353              	.LBE315:
 1354              	.LBE314:
 1355              	.LBE313:
 1356              	.LBE312:
 1357              		.loc 1 436 0
 1358 0092 4FF0FF30 		mov	r0, #-1
 1359 0096 70BD     		pop	{r4, r5, r6, pc}
 1360              	.LVL102:
ARM GAS  C:\Users\jo\AppData\Local\Temp\ccBXrqAv.s 			page 25


 1361              	.L95:
 1362              		.align	2
 1363              	.L94:
 1364 0098 00000000 		.word	ch
 1365 009c 80000000 		.word	.LC9
 1366 00a0 00000000 		.word	.LANCHOR6
 1367              		.cfi_endproc
 1368              	.LFE264:
 1369              		.size	mac_lld_get_transmit_descriptor, .-mac_lld_get_transmit_descriptor
 1370 00a4 AFF30080 		.section	.text.mac_lld_release_transmit_descriptor,"ax",%progbits
 1370      AFF30080 
 1370      AFF30080 
 1371              		.align	2
 1372              		.p2align 4,,15
 1373              		.global	mac_lld_release_transmit_descriptor
 1374              		.thumb
 1375              		.thumb_func
 1376              		.type	mac_lld_release_transmit_descriptor, %function
 1377              	mac_lld_release_transmit_descriptor:
 1378              	.LFB265:
 1379              		.loc 1 463 0
 1380              		.cfi_startproc
 1381              		@ args = 0, pretend = 0, frame = 0
 1382              		@ frame_needed = 0, uses_anonymous_args = 0
 1383              	.LVL103:
 1384              		.loc 1 465 0
 1385 0000 8368     		ldr	r3, [r0, #8]
 1386 0002 1B68     		ldr	r3, [r3]
 1387 0004 002B     		cmp	r3, #0
 1388              		.loc 1 463 0
 1389 0006 10B5     		push	{r4, lr}
 1390              		.cfi_def_cfa_offset 8
 1391              		.cfi_offset 4, -8
 1392              		.cfi_offset 14, -4
 1393              		.loc 1 463 0
 1394 0008 0446     		mov	r4, r0
 1395              		.loc 1 465 0
 1396 000a 2FDB     		blt	.L101
 1397              	.LVL104:
 1398              	.L97:
 1399              	.LBB331:
 1400              	.LBB332:
 1401              	.LBB333:
 1402              	.LBB334:
 1403              	.LBB335:
 1404              	.LBB336:
 1405              		.loc 3 546 0
 1406 000c 2023     		movs	r3, #32
 1407              	@ 546 "../../../os/ext/CMSIS/include/core_cmFunc.h" 1
 1408 000e 83F31188 		MSR basepri, r3
 1409              	@ 0 "" 2
 1410              		.thumb
 1411              	.LBE336:
 1412              	.LBE335:
 1413              	.LBE334:
 1414              		.loc 4 300 0
 1415 0012 FFF7FEFF 		bl	_stats_start_measure_crit_thd
ARM GAS  C:\Users\jo\AppData\Local\Temp\ccBXrqAv.s 			page 26


 1416              	.LVL105:
 1417              		.loc 4 301 0
 1418 0016 FFF7FEFF 		bl	_dbg_check_lock
 1419              	.LVL106:
 1420              	.LBE333:
 1421              	.LBE332:
 1422              	.LBE331:
 1423              		.loc 1 471 0
 1424 001a A368     		ldr	r3, [r4, #8]
 1425 001c 2168     		ldr	r1, [r4]
 1426 001e 5960     		str	r1, [r3, #4]
 1427              		.loc 1 472 0
 1428 0020 1648     		ldr	r0, .L102
 1429              		.loc 1 477 0
 1430 0022 174A     		ldr	r2, .L102+4
 1431              		.loc 1 472 0
 1432 0024 1860     		str	r0, [r3]
 1433              		.loc 1 477 0
 1434 0026 41F21401 		movw	r1, #4116
 1435 002a 5358     		ldr	r3, [r2, r1]
 1436 002c 03F4E003 		and	r3, r3, #7340032
 1437 0030 B3F5C00F 		cmp	r3, #6291456
 1438 0034 04D1     		bne	.L98
 1439              		.loc 1 479 0
 1440 0036 41F20400 		movw	r0, #4100
 1441              		.loc 1 478 0
 1442 003a 0423     		movs	r3, #4
 1443 003c 5350     		str	r3, [r2, r1]
 1444              		.loc 1 479 0
 1445 003e 1350     		str	r3, [r2, r0]
 1446              	.L98:
 1447              	.LBB337:
 1448              	.LBB338:
 1449              	.LBB339:
 1450              		.loc 4 311 0
 1451 0040 FFF7FEFF 		bl	_dbg_check_unlock
 1452              	.LVL107:
 1453              		.loc 4 312 0
 1454 0044 FFF7FEFF 		bl	_stats_stop_measure_crit_thd
 1455              	.LVL108:
 1456              		.loc 4 318 0
 1457 0048 0E4B     		ldr	r3, .L102+8
 1458 004a 9A69     		ldr	r2, [r3, #24]
 1459 004c 1B68     		ldr	r3, [r3]
 1460 004e 9268     		ldr	r2, [r2, #8]
 1461 0050 9B68     		ldr	r3, [r3, #8]
 1462 0052 9A42     		cmp	r2, r3
 1463 0054 06D2     		bcs	.L99
 1464 0056 0C48     		ldr	r0, .L102+12
 1465 0058 FFF7FEFF 		bl	puts
 1466              	.LVL109:
 1467              	@ 318 "../../../os/rt/include/chsys.h" 1
 1468 005c 00BE     		BKPT #0
 1469              	
 1470              	@ 0 "" 2
 1471              		.thumb
 1472 005e 0B48     		ldr	r0, .L102+16
ARM GAS  C:\Users\jo\AppData\Local\Temp\ccBXrqAv.s 			page 27


 1473 0060 FFF7FEFF 		bl	chSysHalt
 1474              	.LVL110:
 1475              	.L99:
 1476              	.LBB340:
 1477              	.LBB341:
 1478              	.LBB342:
 1479              		.loc 3 546 0
 1480 0064 0023     		movs	r3, #0
 1481              	@ 546 "../../../os/ext/CMSIS/include/core_cmFunc.h" 1
 1482 0066 83F31188 		MSR basepri, r3
 1483              	@ 0 "" 2
 1484              		.thumb
 1485 006a 10BD     		pop	{r4, pc}
 1486              	.LVL111:
 1487              	.L101:
 1488              	.LBE342:
 1489              	.LBE341:
 1490              	.LBE340:
 1491              	.LBE339:
 1492              	.LBE338:
 1493              	.LBE337:
 1494              		.loc 1 465 0 discriminator 1
 1495 006c 0848     		ldr	r0, .L102+20
 1496              	.LVL112:
 1497 006e FFF7FEFF 		bl	puts
 1498              	.LVL113:
 1499              	@ 465 "../../../os/hal/ports/STM32/LLD/mac_lld.c" 1
 1500 0072 00BE     		BKPT #0
 1501              	
 1502              	@ 0 "" 2
 1503              		.thumb
 1504 0074 0748     		ldr	r0, .L102+24
 1505 0076 FFF7FEFF 		bl	chSysHalt
 1506              	.LVL114:
 1507 007a C7E7     		b	.L97
 1508              	.L103:
 1509              		.align	2
 1510              	.L102:
 1511 007c 000010F0 		.word	-267386880
 1512 0080 00800240 		.word	1073905664
 1513 0084 00000000 		.word	ch
 1514 0088 80000000 		.word	.LC9
 1515 008c 00000000 		.word	.LANCHOR6
 1516 0090 A8000000 		.word	.LC10
 1517 0094 00000000 		.word	.LANCHOR7
 1518              		.cfi_endproc
 1519              	.LFE265:
 1520              		.size	mac_lld_release_transmit_descriptor, .-mac_lld_release_transmit_descriptor
 1521 0098 AFF30080 		.section	.text.mac_lld_get_receive_descriptor,"ax",%progbits
 1521      AFF30080 
 1522              		.align	2
 1523              		.p2align 4,,15
 1524              		.global	mac_lld_get_receive_descriptor
 1525              		.thumb
 1526              		.thumb_func
 1527              		.type	mac_lld_get_receive_descriptor, %function
 1528              	mac_lld_get_receive_descriptor:
ARM GAS  C:\Users\jo\AppData\Local\Temp\ccBXrqAv.s 			page 28


 1529              	.LFB266:
 1530              		.loc 1 497 0
 1531              		.cfi_startproc
 1532              		@ args = 0, pretend = 0, frame = 0
 1533              		@ frame_needed = 0, uses_anonymous_args = 0
 1534              	.LVL115:
 1535 0000 70B5     		push	{r4, r5, r6, lr}
 1536              		.cfi_def_cfa_offset 16
 1537              		.cfi_offset 4, -16
 1538              		.cfi_offset 5, -12
 1539              		.cfi_offset 6, -8
 1540              		.cfi_offset 14, -4
 1541              	.LBB363:
 1542              	.LBB364:
 1543              	.LBB365:
 1544              	.LBB366:
 1545              	.LBB367:
 1546              	.LBB368:
 1547              		.loc 3 546 0
 1548 0002 2023     		movs	r3, #32
 1549              	.LBE368:
 1550              	.LBE367:
 1551              	.LBE366:
 1552              	.LBE365:
 1553              	.LBE364:
 1554              	.LBE363:
 1555              		.loc 1 497 0
 1556 0004 0646     		mov	r6, r0
 1557 0006 0D46     		mov	r5, r1
 1558              	.LBB374:
 1559              	.LBB373:
 1560              	.LBB372:
 1561              	.LBB371:
 1562              	.LBB370:
 1563              	.LBB369:
 1564              		.loc 3 546 0
 1565              	@ 546 "../../../os/ext/CMSIS/include/core_cmFunc.h" 1
 1566 0008 83F31188 		MSR basepri, r3
 1567              	@ 0 "" 2
 1568              		.thumb
 1569              	.LBE369:
 1570              	.LBE370:
 1571              	.LBE371:
 1572              		.loc 4 300 0
 1573 000c FFF7FEFF 		bl	_stats_start_measure_crit_thd
 1574              	.LVL116:
 1575              		.loc 4 301 0
 1576 0010 FFF7FEFF 		bl	_dbg_check_lock
 1577              	.LVL117:
 1578              	.LBE372:
 1579              	.LBE373:
 1580              	.LBE374:
 1581              		.loc 1 503 0
 1582 0014 736A     		ldr	r3, [r6, #36]
 1583              	.LVL118:
 1584              		.loc 1 507 0
 1585 0016 1A68     		ldr	r2, [r3]
ARM GAS  C:\Users\jo\AppData\Local\Temp\ccBXrqAv.s 			page 29


 1586 0018 002A     		cmp	r2, #0
 1587 001a 10DB     		blt	.L105
 1588              		.loc 1 524 0
 1589 001c 4FF00044 		mov	r4, #-2147483648
 1590              	.L109:
 1591              		.loc 1 508 0
 1592 0020 1968     		ldr	r1, [r3]
 1593 0022 264A     		ldr	r2, .L121
 1594 0024 0A40     		ands	r2, r2, r1
 1595 0026 2AB9     		cbnz	r2, .L106
 1596              		.loc 1 513 0
 1597 0028 1968     		ldr	r1, [r3]
 1598 002a 8805     		lsls	r0, r1, #22
 1599 002c 02D5     		bpl	.L106
 1600              		.loc 1 513 0 is_stmt 0 discriminator 1
 1601 002e 1968     		ldr	r1, [r3]
 1602 0030 C905     		lsls	r1, r1, #23
 1603 0032 23D4     		bmi	.L119
 1604              	.L106:
 1605              		.loc 1 524 0 is_stmt 1
 1606 0034 1C60     		str	r4, [r3]
 1607              		.loc 1 525 0
 1608 0036 DB68     		ldr	r3, [r3, #12]
 1609              	.LVL119:
 1610              		.loc 1 507 0
 1611 0038 1A68     		ldr	r2, [r3]
 1612 003a 002A     		cmp	r2, #0
 1613 003c F0DA     		bge	.L109
 1614              	.L105:
 1615              		.loc 1 529 0
 1616 003e 7362     		str	r3, [r6, #36]
 1617              	.LBB375:
 1618              	.LBB376:
 1619              	.LBB377:
 1620              		.loc 4 311 0
 1621 0040 FFF7FEFF 		bl	_dbg_check_unlock
 1622              	.LVL120:
 1623              		.loc 4 312 0
 1624 0044 FFF7FEFF 		bl	_stats_stop_measure_crit_thd
 1625              	.LVL121:
 1626              		.loc 4 318 0
 1627 0048 1D4B     		ldr	r3, .L121+4
 1628 004a 9A69     		ldr	r2, [r3, #24]
 1629 004c 1B68     		ldr	r3, [r3]
 1630 004e 9268     		ldr	r2, [r2, #8]
 1631 0050 9B68     		ldr	r3, [r3, #8]
 1632 0052 9A42     		cmp	r2, r3
 1633 0054 05D3     		bcc	.L120
 1634              	.LVL122:
 1635              	.LBB378:
 1636              	.LBB379:
 1637              	.LBB380:
 1638              		.loc 3 546 0
 1639 0056 0023     		movs	r3, #0
 1640              	@ 546 "../../../os/ext/CMSIS/include/core_cmFunc.h" 1
 1641 0058 83F31188 		MSR basepri, r3
 1642              	@ 0 "" 2
ARM GAS  C:\Users\jo\AppData\Local\Temp\ccBXrqAv.s 			page 30


 1643              		.thumb
 1644              	.LBE380:
 1645              	.LBE379:
 1646              	.LBE378:
 1647              	.LBE377:
 1648              	.LBE376:
 1649              	.LBE375:
 1650              		.loc 1 532 0
 1651 005c 4FF0FF30 		mov	r0, #-1
 1652              		.loc 1 533 0
 1653 0060 70BD     		pop	{r4, r5, r6, pc}
 1654              	.LVL123:
 1655              	.L120:
 1656              	.LBB386:
 1657              	.LBB385:
 1658              	.LBB384:
 1659              		.loc 4 318 0
 1660 0062 1848     		ldr	r0, .L121+8
 1661 0064 FFF7FEFF 		bl	puts
 1662              	.LVL124:
 1663              	@ 318 "../../../os/rt/include/chsys.h" 1
 1664 0068 00BE     		BKPT #0
 1665              	
 1666              	@ 0 "" 2
 1667              		.thumb
 1668 006a 1748     		ldr	r0, .L121+12
 1669 006c FFF7FEFF 		bl	chSysHalt
 1670              	.LVL125:
 1671              	.LBB383:
 1672              	.LBB382:
 1673              	.LBB381:
 1674              		.loc 3 546 0
 1675 0070 0023     		movs	r3, #0
 1676              	@ 546 "../../../os/ext/CMSIS/include/core_cmFunc.h" 1
 1677 0072 83F31188 		MSR basepri, r3
 1678              	@ 0 "" 2
 1679              		.thumb
 1680              	.LBE381:
 1681              	.LBE382:
 1682              	.LBE383:
 1683              	.LBE384:
 1684              	.LBE385:
 1685              	.LBE386:
 1686              		.loc 1 532 0
 1687 0076 4FF0FF30 		mov	r0, #-1
 1688              		.loc 1 533 0
 1689 007a 70BD     		pop	{r4, r5, r6, pc}
 1690              	.LVL126:
 1691              	.L119:
 1692              		.loc 1 516 0
 1693 007c 1968     		ldr	r1, [r3]
 1694              		.loc 1 518 0
 1695 007e D868     		ldr	r0, [r3, #12]
 1696              		.loc 1 515 0
 1697 0080 2A60     		str	r2, [r5]
 1698              		.loc 1 516 0
 1699 0082 C1F30D42 		ubfx	r2, r1, #16, #14
ARM GAS  C:\Users\jo\AppData\Local\Temp\ccBXrqAv.s 			page 31


 1700 0086 043A     		subs	r2, r2, #4
 1701 0088 6A60     		str	r2, [r5, #4]
 1702              		.loc 1 517 0
 1703 008a AB60     		str	r3, [r5, #8]
 1704              		.loc 1 518 0
 1705 008c 7062     		str	r0, [r6, #36]
 1706              	.LBB387:
 1707              	.LBB388:
 1708              	.LBB389:
 1709              		.loc 4 311 0
 1710 008e FFF7FEFF 		bl	_dbg_check_unlock
 1711              	.LVL127:
 1712              		.loc 4 312 0
 1713 0092 FFF7FEFF 		bl	_stats_stop_measure_crit_thd
 1714              	.LVL128:
 1715              		.loc 4 318 0
 1716 0096 0A4B     		ldr	r3, .L121+4
 1717 0098 9A69     		ldr	r2, [r3, #24]
 1718 009a 1B68     		ldr	r3, [r3]
 1719 009c 9268     		ldr	r2, [r2, #8]
 1720 009e 9B68     		ldr	r3, [r3, #8]
 1721 00a0 9A42     		cmp	r2, r3
 1722 00a2 06D2     		bcs	.L107
 1723 00a4 0748     		ldr	r0, .L121+8
 1724 00a6 FFF7FEFF 		bl	puts
 1725              	.LVL129:
 1726              	@ 318 "../../../os/rt/include/chsys.h" 1
 1727 00aa 00BE     		BKPT #0
 1728              	
 1729              	@ 0 "" 2
 1730              		.thumb
 1731 00ac 0648     		ldr	r0, .L121+12
 1732 00ae FFF7FEFF 		bl	chSysHalt
 1733              	.LVL130:
 1734              	.L107:
 1735              	.LBB390:
 1736              	.LBB391:
 1737              	.LBB392:
 1738              		.loc 3 546 0
 1739 00b2 0020     		movs	r0, #0
 1740              	@ 546 "../../../os/ext/CMSIS/include/core_cmFunc.h" 1
 1741 00b4 80F31188 		MSR basepri, r0
 1742              	@ 0 "" 2
 1743              		.thumb
 1744 00b8 70BD     		pop	{r4, r5, r6, pc}
 1745              	.LVL131:
 1746              	.L122:
 1747 00ba 00BF     		.align	2
 1748              	.L121:
 1749 00bc 00800040 		.word	1073774592
 1750 00c0 00000000 		.word	ch
 1751 00c4 80000000 		.word	.LC9
 1752 00c8 00000000 		.word	.LANCHOR6
 1753              	.LBE392:
 1754              	.LBE391:
 1755              	.LBE390:
 1756              	.LBE389:
ARM GAS  C:\Users\jo\AppData\Local\Temp\ccBXrqAv.s 			page 32


 1757              	.LBE388:
 1758              	.LBE387:
 1759              		.cfi_endproc
 1760              	.LFE266:
 1761              		.size	mac_lld_get_receive_descriptor, .-mac_lld_get_receive_descriptor
 1762 00cc AFF30080 		.section	.text.mac_lld_release_receive_descriptor,"ax",%progbits
 1763              		.align	2
 1764              		.p2align 4,,15
 1765              		.global	mac_lld_release_receive_descriptor
 1766              		.thumb
 1767              		.thumb_func
 1768              		.type	mac_lld_release_receive_descriptor, %function
 1769              	mac_lld_release_receive_descriptor:
 1770              	.LFB267:
 1771              		.loc 1 544 0
 1772              		.cfi_startproc
 1773              		@ args = 0, pretend = 0, frame = 0
 1774              		@ frame_needed = 0, uses_anonymous_args = 0
 1775              	.LVL132:
 1776              		.loc 1 546 0
 1777 0000 8368     		ldr	r3, [r0, #8]
 1778 0002 1B68     		ldr	r3, [r3]
 1779 0004 002B     		cmp	r3, #0
 1780              		.loc 1 544 0
 1781 0006 10B5     		push	{r4, lr}
 1782              		.cfi_def_cfa_offset 8
 1783              		.cfi_offset 4, -8
 1784              		.cfi_offset 14, -4
 1785              		.loc 1 544 0
 1786 0008 0446     		mov	r4, r0
 1787              		.loc 1 546 0
 1788 000a 2EDB     		blt	.L128
 1789              	.LVL133:
 1790              	.L124:
 1791              	.LBB406:
 1792              	.LBB407:
 1793              	.LBB408:
 1794              	.LBB409:
 1795              	.LBB410:
 1796              	.LBB411:
 1797              		.loc 3 546 0
 1798 000c 2023     		movs	r3, #32
 1799              	@ 546 "../../../os/ext/CMSIS/include/core_cmFunc.h" 1
 1800 000e 83F31188 		MSR basepri, r3
 1801              	@ 0 "" 2
 1802              		.thumb
 1803              	.LBE411:
 1804              	.LBE410:
 1805              	.LBE409:
 1806              		.loc 4 300 0
 1807 0012 FFF7FEFF 		bl	_stats_start_measure_crit_thd
 1808              	.LVL134:
 1809              		.loc 4 301 0
 1810 0016 FFF7FEFF 		bl	_dbg_check_lock
 1811              	.LVL135:
 1812              	.LBE408:
 1813              	.LBE407:
ARM GAS  C:\Users\jo\AppData\Local\Temp\ccBXrqAv.s 			page 33


 1814              	.LBE406:
 1815              		.loc 1 552 0
 1816 001a A368     		ldr	r3, [r4, #8]
 1817              		.loc 1 555 0
 1818 001c 174A     		ldr	r2, .L129
 1819              		.loc 1 552 0
 1820 001e 4FF00040 		mov	r0, #-2147483648
 1821              		.loc 1 555 0
 1822 0022 41F21401 		movw	r1, #4116
 1823              		.loc 1 552 0
 1824 0026 1860     		str	r0, [r3]
 1825              		.loc 1 555 0
 1826 0028 5358     		ldr	r3, [r2, r1]
 1827 002a 03F46023 		and	r3, r3, #917504
 1828 002e B3F5002F 		cmp	r3, #524288
 1829 0032 04D1     		bne	.L125
 1830              		.loc 1 557 0
 1831 0034 41F20800 		movw	r0, #4104
 1832              		.loc 1 556 0
 1833 0038 8023     		movs	r3, #128
 1834 003a 5350     		str	r3, [r2, r1]
 1835              		.loc 1 557 0
 1836 003c 1350     		str	r3, [r2, r0]
 1837              	.L125:
 1838              	.LBB412:
 1839              	.LBB413:
 1840              	.LBB414:
 1841              		.loc 4 311 0
 1842 003e FFF7FEFF 		bl	_dbg_check_unlock
 1843              	.LVL136:
 1844              		.loc 4 312 0
 1845 0042 FFF7FEFF 		bl	_stats_stop_measure_crit_thd
 1846              	.LVL137:
 1847              		.loc 4 318 0
 1848 0046 0E4B     		ldr	r3, .L129+4
 1849 0048 9A69     		ldr	r2, [r3, #24]
 1850 004a 1B68     		ldr	r3, [r3]
 1851 004c 9268     		ldr	r2, [r2, #8]
 1852 004e 9B68     		ldr	r3, [r3, #8]
 1853 0050 9A42     		cmp	r2, r3
 1854 0052 06D2     		bcs	.L126
 1855 0054 0B48     		ldr	r0, .L129+8
 1856 0056 FFF7FEFF 		bl	puts
 1857              	.LVL138:
 1858              	@ 318 "../../../os/rt/include/chsys.h" 1
 1859 005a 00BE     		BKPT #0
 1860              	
 1861              	@ 0 "" 2
 1862              		.thumb
 1863 005c 0A48     		ldr	r0, .L129+12
 1864 005e FFF7FEFF 		bl	chSysHalt
 1865              	.LVL139:
 1866              	.L126:
 1867              	.LBB415:
 1868              	.LBB416:
 1869              	.LBB417:
 1870              		.loc 3 546 0
ARM GAS  C:\Users\jo\AppData\Local\Temp\ccBXrqAv.s 			page 34


 1871 0062 0023     		movs	r3, #0
 1872              	@ 546 "../../../os/ext/CMSIS/include/core_cmFunc.h" 1
 1873 0064 83F31188 		MSR basepri, r3
 1874              	@ 0 "" 2
 1875              		.thumb
 1876 0068 10BD     		pop	{r4, pc}
 1877              	.LVL140:
 1878              	.L128:
 1879              	.LBE417:
 1880              	.LBE416:
 1881              	.LBE415:
 1882              	.LBE414:
 1883              	.LBE413:
 1884              	.LBE412:
 1885              		.loc 1 546 0 discriminator 1
 1886 006a 0848     		ldr	r0, .L129+16
 1887              	.LVL141:
 1888 006c FFF7FEFF 		bl	puts
 1889              	.LVL142:
 1890              	@ 546 "../../../os/hal/ports/STM32/LLD/mac_lld.c" 1
 1891 0070 00BE     		BKPT #0
 1892              	
 1893              	@ 0 "" 2
 1894              		.thumb
 1895 0072 0748     		ldr	r0, .L129+20
 1896 0074 FFF7FEFF 		bl	chSysHalt
 1897              	.LVL143:
 1898 0078 C8E7     		b	.L124
 1899              	.L130:
 1900 007a 00BF     		.align	2
 1901              	.L129:
 1902 007c 00800240 		.word	1073905664
 1903 0080 00000000 		.word	ch
 1904 0084 80000000 		.word	.LC9
 1905 0088 00000000 		.word	.LANCHOR6
 1906 008c A8000000 		.word	.LC10
 1907 0090 00000000 		.word	.LANCHOR8
 1908              		.cfi_endproc
 1909              	.LFE267:
 1910              		.size	mac_lld_release_receive_descriptor, .-mac_lld_release_receive_descriptor
 1911 0094 AFF30080 		.section	.text.mac_lld_poll_link_status,"ax",%progbits
 1911      AFF30080 
 1911      AFF30080 
 1912              		.align	2
 1913              		.p2align 4,,15
 1914              		.global	mac_lld_poll_link_status
 1915              		.thumb
 1916              		.thumb_func
 1917              		.type	mac_lld_poll_link_status, %function
 1918              	mac_lld_poll_link_status:
 1919              	.LFB268:
 1920              		.loc 1 573 0
 1921              		.cfi_startproc
 1922              		@ args = 0, pretend = 0, frame = 0
 1923              		@ frame_needed = 0, uses_anonymous_args = 0
 1924              		@ link register save eliminated.
 1925              	.LVL144:
ARM GAS  C:\Users\jo\AppData\Local\Temp\ccBXrqAv.s 			page 35


 1926 0000 70B4     		push	{r4, r5, r6}
 1927              		.cfi_def_cfa_offset 12
 1928              		.cfi_offset 4, -12
 1929              		.cfi_offset 5, -8
 1930              		.cfi_offset 6, -4
 1931              		.loc 1 573 0
 1932 0002 0546     		mov	r5, r0
 1933              	.LBB418:
 1934              	.LBB419:
 1935              		.loc 1 114 0
 1936 0004 006A     		ldr	r0, [r0, #32]
 1937              	.LVL145:
 1938              	.LBE419:
 1939              	.LBE418:
 1940              		.loc 1 576 0
 1941 0006 2649     		ldr	r1, .L156
 1942              	.LBB422:
 1943              	.LBB420:
 1944              		.loc 1 114 0
 1945 0008 40F05106 		orr	r6, r0, #81
 1946              	.LBE420:
 1947              	.LBE422:
 1948              		.loc 1 576 0
 1949 000c 0C68     		ldr	r4, [r1]
 1950              	.LVL146:
 1951              	.LBB423:
 1952              	.LBB421:
 1953              		.loc 1 114 0
 1954 000e 0E61     		str	r6, [r1, #16]
 1955              	.L132:
 1956              		.loc 1 115 0
 1957 0010 0A69     		ldr	r2, [r1, #16]
 1958 0012 234B     		ldr	r3, .L156
 1959 0014 D207     		lsls	r2, r2, #31
 1960 0016 FBD4     		bmi	.L132
 1961              		.loc 1 117 0
 1962 0018 5A69     		ldr	r2, [r3, #20]
 1963              	.LVL147:
 1964              	.LBE421:
 1965              	.LBE423:
 1966              	.LBB424:
 1967              	.LBB425:
 1968              		.loc 1 114 0
 1969 001a 1E61     		str	r6, [r3, #16]
 1970              		.loc 1 115 0
 1971 001c 1A46     		mov	r2, r3
 1972              	.L133:
 1973 001e 1169     		ldr	r1, [r2, #16]
 1974 0020 1F4B     		ldr	r3, .L156
 1975 0022 C907     		lsls	r1, r1, #31
 1976 0024 FBD4     		bmi	.L133
 1977              	.LBE425:
 1978              	.LBE424:
 1979              	.LBB427:
 1980              	.LBB428:
 1981              		.loc 1 114 0
 1982 0026 40F01102 		orr	r2, r0, #17
ARM GAS  C:\Users\jo\AppData\Local\Temp\ccBXrqAv.s 			page 36


 1983              	.LBE428:
 1984              	.LBE427:
 1985              	.LBB430:
 1986              	.LBB426:
 1987              		.loc 1 117 0
 1988 002a 5E69     		ldr	r6, [r3, #20]
 1989              	.LVL148:
 1990              	.LBE426:
 1991              	.LBE430:
 1992              	.LBB431:
 1993              	.LBB429:
 1994              		.loc 1 114 0
 1995 002c 1A61     		str	r2, [r3, #16]
 1996              	.L134:
 1997              		.loc 1 115 0
 1998 002e 1A69     		ldr	r2, [r3, #16]
 1999 0030 1B49     		ldr	r1, .L156
 2000 0032 D207     		lsls	r2, r2, #31
 2001 0034 FBD4     		bmi	.L134
 2002              		.loc 1 117 0
 2003 0036 4B69     		ldr	r3, [r1, #20]
 2004              	.LBE429:
 2005              	.LBE431:
 2006              		.loc 1 584 0
 2007 0038 DA04     		lsls	r2, r3, #19
 2008 003a 07D5     		bpl	.L135
 2009              	.LBB432:
 2010              		.loc 1 588 0
 2011 003c 06F03406 		and	r6, r6, #52
 2012 0040 242E     		cmp	r6, #36
 2013 0042 16D0     		beq	.L136
 2014              	.L143:
 2015              		.loc 1 590 0
 2016 0044 0020     		movs	r0, #0
 2017 0046 2877     		strb	r0, [r5, #28]
 2018              	.LBE432:
 2019              		.loc 1 630 0
 2020 0048 70BC     		pop	{r4, r5, r6}
 2021              		.cfi_remember_state
 2022              		.cfi_restore 6
 2023              		.cfi_restore 5
 2024              		.cfi_restore 4
 2025              		.cfi_def_cfa_offset 0
 2026              	.LVL149:
 2027 004a 7047     		bx	lr
 2028              	.LVL150:
 2029              	.L135:
 2030              		.cfi_restore_state
 2031              		.loc 1 609 0
 2032 004c 7107     		lsls	r1, r6, #29
 2033 004e F9D5     		bpl	.L143
 2034              		.loc 1 613 0
 2035 0050 9A04     		lsls	r2, r3, #18
 2036              		.loc 1 614 0
 2037 0052 4CBF     		ite	mi
 2038 0054 44F48044 		orrmi	r4, r4, #16384
 2039              	.LVL151:
ARM GAS  C:\Users\jo\AppData\Local\Temp\ccBXrqAv.s 			page 37


 2040              		.loc 1 616 0
 2041 0058 24F48044 		bicpl	r4, r4, #16384
 2042              	.LVL152:
 2043              		.loc 1 619 0
 2044 005c DB05     		lsls	r3, r3, #23
 2045 005e 1CD4     		bmi	.L155
 2046              	.L146:
 2047              		.loc 1 622 0
 2048 0060 24F40064 		bic	r4, r4, #2048
 2049              	.LVL153:
 2050              	.L142:
 2051              		.loc 1 626 0
 2052 0064 0E4A     		ldr	r2, .L156
 2053              		.loc 1 629 0
 2054 0066 0123     		movs	r3, #1
 2055              		.loc 1 626 0
 2056 0068 1460     		str	r4, [r2]
 2057              		.loc 1 629 0
 2058 006a 1846     		mov	r0, r3
 2059 006c 2B77     		strb	r3, [r5, #28]
 2060              		.loc 1 630 0
 2061 006e 70BC     		pop	{r4, r5, r6}
 2062              		.cfi_remember_state
 2063              		.cfi_restore 4
 2064              		.cfi_restore 5
 2065              		.cfi_restore 6
 2066              		.cfi_def_cfa_offset 0
 2067              	.LVL154:
 2068 0070 7047     		bx	lr
 2069              	.LVL155:
 2070              	.L136:
 2071              		.cfi_restore_state
 2072              	.LBB435:
 2073              	.LBB433:
 2074              	.LBB434:
 2075              		.loc 1 114 0
 2076 0072 40F4A870 		orr	r0, r0, #336
 2077 0076 40F00100 		orr	r0, r0, #1
 2078 007a 0861     		str	r0, [r1, #16]
 2079              	.L138:
 2080              		.loc 1 115 0
 2081 007c 0B69     		ldr	r3, [r1, #16]
 2082 007e 084A     		ldr	r2, .L156
 2083 0080 D807     		lsls	r0, r3, #31
 2084 0082 FBD4     		bmi	.L138
 2085              		.loc 1 117 0
 2086 0084 5369     		ldr	r3, [r2, #20]
 2087              	.LBE434:
 2088              	.LBE433:
 2089              		.loc 1 596 0
 2090 0086 13F4607F 		tst	r3, #896
 2091              		.loc 1 597 0
 2092 008a 14BF     		ite	ne
 2093 008c 44F48044 		orrne	r4, r4, #16384
 2094              	.LVL156:
 2095              		.loc 1 599 0
 2096 0090 24F48044 		biceq	r4, r4, #16384
ARM GAS  C:\Users\jo\AppData\Local\Temp\ccBXrqAv.s 			page 38


 2097              	.LVL157:
 2098              		.loc 1 602 0
 2099 0094 13F4A07F 		tst	r3, #320
 2100 0098 E2D0     		beq	.L146
 2101              	.LVL158:
 2102              	.L155:
 2103              	.LBE435:
 2104              		.loc 1 620 0
 2105 009a 44F40064 		orr	r4, r4, #2048
 2106              	.LVL159:
 2107 009e E1E7     		b	.L142
 2108              	.L157:
 2109              		.align	2
 2110              	.L156:
 2111 00a0 00800240 		.word	1073905664
 2112              		.cfi_endproc
 2113              	.LFE268:
 2114              		.size	mac_lld_poll_link_status, .-mac_lld_poll_link_status
 2115 00a4 AFF30080 		.section	.text.mac_lld_write_transmit_descriptor,"ax",%progbits
 2115      AFF30080 
 2115      AFF30080 
 2116              		.align	2
 2117              		.p2align 4,,15
 2118              		.global	mac_lld_write_transmit_descriptor
 2119              		.thumb
 2120              		.thumb_func
 2121              		.type	mac_lld_write_transmit_descriptor, %function
 2122              	mac_lld_write_transmit_descriptor:
 2123              	.LFB269:
 2124              		.loc 1 648 0
 2125              		.cfi_startproc
 2126              		@ args = 0, pretend = 0, frame = 8
 2127              		@ frame_needed = 0, uses_anonymous_args = 0
 2128              	.LVL160:
 2129 0000 30B5     		push	{r4, r5, lr}
 2130              		.cfi_def_cfa_offset 12
 2131              		.cfi_offset 4, -12
 2132              		.cfi_offset 5, -8
 2133              		.cfi_offset 14, -4
 2134              		.loc 1 650 0
 2135 0002 8368     		ldr	r3, [r0, #8]
 2136 0004 1B68     		ldr	r3, [r3]
 2137 0006 002B     		cmp	r3, #0
 2138              		.loc 1 648 0
 2139 0008 83B0     		sub	sp, sp, #12
 2140              		.cfi_def_cfa_offset 24
 2141              		.loc 1 648 0
 2142 000a 0546     		mov	r5, r0
 2143              		.loc 1 650 0
 2144 000c 12DB     		blt	.L165
 2145              	.LVL161:
 2146              	.L159:
 2147              		.loc 1 653 0
 2148 000e 95E80900 		ldmia	r5, {r0, r3}
 2149 0012 1B1A     		subs	r3, r3, r0
 2150 0014 9A42     		cmp	r2, r3
 2151 0016 28BF     		it	cs
ARM GAS  C:\Users\jo\AppData\Local\Temp\ccBXrqAv.s 			page 39


 2152 0018 1A46     		movcs	r2, r3
 2153 001a 1446     		mov	r4, r2
 2154              	.LVL162:
 2155              		.loc 1 656 0
 2156 001c 3AB1     		cbz	r2, .L160
 2157              		.loc 1 657 0
 2158 001e AB68     		ldr	r3, [r5, #8]
 2159 0020 9B68     		ldr	r3, [r3, #8]
 2160 0022 1844     		add	r0, r0, r3
 2161 0024 FFF7FEFF 		bl	memcpy
 2162              	.LVL163:
 2163              		.loc 1 658 0
 2164 0028 2B68     		ldr	r3, [r5]
 2165 002a 2344     		add	r3, r3, r4
 2166 002c 2B60     		str	r3, [r5]
 2167              	.L160:
 2168              		.loc 1 661 0
 2169 002e 2046     		mov	r0, r4
 2170 0030 03B0     		add	sp, sp, #12
 2171              		.cfi_remember_state
 2172              		.cfi_def_cfa_offset 12
 2173              		@ sp needed
 2174 0032 30BD     		pop	{r4, r5, pc}
 2175              	.LVL164:
 2176              	.L165:
 2177              		.cfi_restore_state
 2178              		.loc 1 650 0 discriminator 1
 2179 0034 0548     		ldr	r0, .L166
 2180              	.LVL165:
 2181 0036 8DE80600 		stmia	sp, {r1, r2}
 2182 003a FFF7FEFF 		bl	puts
 2183              	.LVL166:
 2184              	@ 650 "../../../os/hal/ports/STM32/LLD/mac_lld.c" 1
 2185 003e 00BE     		BKPT #0
 2186              	
 2187              	@ 0 "" 2
 2188              		.thumb
 2189 0040 0348     		ldr	r0, .L166+4
 2190 0042 FFF7FEFF 		bl	chSysHalt
 2191              	.LVL167:
 2192 0046 9DE80600 		ldmia	sp, {r1, r2}
 2193 004a E0E7     		b	.L159
 2194              	.L167:
 2195              		.align	2
 2196              	.L166:
 2197 004c DC000000 		.word	.LC11
 2198 0050 00000000 		.word	.LANCHOR9
 2199              		.cfi_endproc
 2200              	.LFE269:
 2201              		.size	mac_lld_write_transmit_descriptor, .-mac_lld_write_transmit_descriptor
 2202 0054 AFF30080 		.section	.text.mac_lld_read_receive_descriptor,"ax",%progbits
 2202      AFF30080 
 2202      AFF30080 
 2203              		.align	2
 2204              		.p2align 4,,15
 2205              		.global	mac_lld_read_receive_descriptor
 2206              		.thumb
ARM GAS  C:\Users\jo\AppData\Local\Temp\ccBXrqAv.s 			page 40


 2207              		.thumb_func
 2208              		.type	mac_lld_read_receive_descriptor, %function
 2209              	mac_lld_read_receive_descriptor:
 2210              	.LFB270:
 2211              		.loc 1 678 0
 2212              		.cfi_startproc
 2213              		@ args = 0, pretend = 0, frame = 8
 2214              		@ frame_needed = 0, uses_anonymous_args = 0
 2215              	.LVL168:
 2216 0000 70B5     		push	{r4, r5, r6, lr}
 2217              		.cfi_def_cfa_offset 16
 2218              		.cfi_offset 4, -16
 2219              		.cfi_offset 5, -12
 2220              		.cfi_offset 6, -8
 2221              		.cfi_offset 14, -4
 2222              		.loc 1 680 0
 2223 0002 8368     		ldr	r3, [r0, #8]
 2224 0004 1B68     		ldr	r3, [r3]
 2225 0006 002B     		cmp	r3, #0
 2226              		.loc 1 678 0
 2227 0008 82B0     		sub	sp, sp, #8
 2228              		.cfi_def_cfa_offset 24
 2229              		.loc 1 678 0
 2230 000a 0546     		mov	r5, r0
 2231              		.loc 1 680 0
 2232 000c 13DB     		blt	.L175
 2233              	.LVL169:
 2234              	.L169:
 2235              		.loc 1 683 0
 2236 000e 2E68     		ldr	r6, [r5]
 2237 0010 6B68     		ldr	r3, [r5, #4]
 2238 0012 9B1B     		subs	r3, r3, r6
 2239 0014 9A42     		cmp	r2, r3
 2240 0016 28BF     		it	cs
 2241 0018 1A46     		movcs	r2, r3
 2242 001a 1446     		mov	r4, r2
 2243              	.LVL170:
 2244              		.loc 1 686 0
 2245 001c 42B1     		cbz	r2, .L170
 2246              		.loc 1 687 0
 2247 001e AB68     		ldr	r3, [r5, #8]
 2248 0020 9B68     		ldr	r3, [r3, #8]
 2249 0022 0846     		mov	r0, r1
 2250 0024 9919     		adds	r1, r3, r6
 2251 0026 FFF7FEFF 		bl	memcpy
 2252              	.LVL171:
 2253              		.loc 1 688 0
 2254 002a 2B68     		ldr	r3, [r5]
 2255 002c 2344     		add	r3, r3, r4
 2256 002e 2B60     		str	r3, [r5]
 2257              	.L170:
 2258              		.loc 1 691 0
 2259 0030 2046     		mov	r0, r4
 2260 0032 02B0     		add	sp, sp, #8
 2261              		.cfi_remember_state
 2262              		.cfi_def_cfa_offset 16
 2263              		@ sp needed
ARM GAS  C:\Users\jo\AppData\Local\Temp\ccBXrqAv.s 			page 41


 2264 0034 70BD     		pop	{r4, r5, r6, pc}
 2265              	.LVL172:
 2266              	.L175:
 2267              		.cfi_restore_state
 2268              		.loc 1 680 0 discriminator 1
 2269 0036 0648     		ldr	r0, .L176
 2270              	.LVL173:
 2271 0038 8DE80600 		stmia	sp, {r1, r2}
 2272 003c FFF7FEFF 		bl	puts
 2273              	.LVL174:
 2274              	@ 680 "../../../os/hal/ports/STM32/LLD/mac_lld.c" 1
 2275 0040 00BE     		BKPT #0
 2276              	
 2277              	@ 0 "" 2
 2278              		.thumb
 2279 0042 0448     		ldr	r0, .L176+4
 2280 0044 FFF7FEFF 		bl	chSysHalt
 2281              	.LVL175:
 2282 0048 9DE80600 		ldmia	sp, {r1, r2}
 2283 004c DFE7     		b	.L169
 2284              	.L177:
 2285 004e 00BF     		.align	2
 2286              	.L176:
 2287 0050 10010000 		.word	.LC12
 2288 0054 00000000 		.word	.LANCHOR10
 2289              		.cfi_endproc
 2290              	.LFE270:
 2291              		.size	mac_lld_read_receive_descriptor, .-mac_lld_read_receive_descriptor
 2292              		.global	ETHD1
 2293 0058 AFF30080 		.section	.rodata.default_mac_address,"a",%progbits
 2293      AFF30080 
 2294              		.align	2
 2295              		.set	.LANCHOR5,. + 0
 2296              		.type	default_mac_address, %object
 2297              		.size	default_mac_address, 6
 2298              	default_mac_address:
 2299 0000 AA       		.byte	-86
 2300 0001 55       		.byte	85
 2301 0002 13       		.byte	19
 2302 0003 37       		.byte	55
 2303 0004 01       		.byte	1
 2304 0005 10       		.byte	16
 2305 0006 0000     		.section	.rodata.__func__.8487,"a",%progbits
 2306              		.align	2
 2307              		.set	.LANCHOR10,. + 0
 2308              		.type	__func__.8487, %object
 2309              		.size	__func__.8487, 32
 2310              	__func__.8487:
 2311 0000 6D61635F 		.ascii	"mac_lld_read_receive_descriptor\000"
 2311      6C6C645F 
 2311      72656164 
 2311      5F726563 
 2311      65697665 
 2312              		.section	.bss.ETHD1,"aw",%nobits
 2313              		.align	2
 2314              		.set	.LANCHOR0,. + 0
 2315              		.type	ETHD1, %object
ARM GAS  C:\Users\jo\AppData\Local\Temp\ccBXrqAv.s 			page 42


 2316              		.size	ETHD1, 44
 2317              	ETHD1:
 2318 0000 00000000 		.space	44
 2318      00000000 
 2318      00000000 
 2318      00000000 
 2318      00000000 
 2319              		.section	.bss.rb,"aw",%nobits
 2320              		.align	2
 2321              		.set	.LANCHOR2,. + 0
 2322              		.type	rb, %object
 2323              		.size	rb, 6096
 2324              	rb:
 2325 0000 00000000 		.space	6096
 2325      00000000 
 2325      00000000 
 2325      00000000 
 2325      00000000 
 2326              		.section	.rodata.str1.4,"aMS",%progbits,1
 2327              		.align	2
 2328              	.LC0:
 2329 0000 25730A00 		.ascii	"%s\012\000"
 2330              	.LC1:
 2331 0004 4E494320 		.ascii	"NIC no link up\000"
 2331      6E6F206C 
 2331      696E6B20 
 2331      757000
 2332 0013 00       		.space	1
 2333              	.LC2:
 2334 0014 4D414320 		.ascii	"MAC failure\000"
 2334      6661696C 
 2334      75726500 
 2335              	.LC3:
 2336 0020 45544844 		.ascii	"ETHD1 %s\012\000"
 2336      31202573 
 2336      0A00
 2337 002a 0000     		.space	2
 2338              	.LC4:
 2339 002c 6D69695F 		.ascii	"mii_find_phy\000"
 2339      66696E64 
 2339      5F706879 
 2339      00
 2340 0039 000000   		.space	3
 2341              	.LC5:
 2342 003c 424F4152 		.ascii	"BOARD_PHY_RESET_DELAY %d\012\000"
 2342      445F5048 
 2342      595F5245 
 2342      5345545F 
 2342      44454C41 
 2343 0056 0000     		.space	2
 2344              	.LC6:
 2345 0058 4E494320 		.ascii	"NIC clock\000"
 2345      636C6F63 
 2345      6B00
 2346 0062 0000     		.space	2
 2347              	.LC7:
 2348 0064 444D4120 		.ascii	"DMA Settings\000"
ARM GAS  C:\Users\jo\AppData\Local\Temp\ccBXrqAv.s 			page 43


 2348      53657474 
 2348      696E6773 
 2348      00
 2349 0071 000000   		.space	3
 2350              	.LC8:
 2351 0074 4649464F 		.ascii	"FIFO FLush\000"
 2351      20464C75 
 2351      736800
 2352 007f 00       		.space	1
 2353              	.LC9:
 2354 0080 7072696F 		.ascii	"priority violation, missing reschedule\000"
 2354      72697479 
 2354      2076696F 
 2354      6C617469 
 2354      6F6E2C20 
 2355 00a7 00       		.space	1
 2356              	.LC10:
 2357 00a8 61747465 		.ascii	"attempt to release descriptor already owned by DMA\000"
 2357      6D707420 
 2357      746F2072 
 2357      656C6561 
 2357      73652064 
 2358 00db 00       		.space	1
 2359              	.LC11:
 2360 00dc 61747465 		.ascii	"attempt to write descriptor already owned by DMA\000"
 2360      6D707420 
 2360      746F2077 
 2360      72697465 
 2360      20646573 
 2361 010d 000000   		.space	3
 2362              	.LC12:
 2363 0110 61747465 		.ascii	"attempt to read descriptor already owned by DMA\000"
 2363      6D707420 
 2363      746F2072 
 2363      65616420 
 2363      64657363 
 2364              		.section	.rodata.__func__.6911,"a",%progbits
 2365              		.align	2
 2366              		.set	.LANCHOR6,. + 0
 2367              		.type	__func__.6911, %object
 2368              		.size	__func__.6911, 12
 2369              	__func__.6911:
 2370 0000 63685379 		.ascii	"chSysUnlock\000"
 2370      73556E6C 
 2370      6F636B00 
 2371              		.section	.bss.rd,"aw",%nobits
 2372              		.align	2
 2373              		.set	.LANCHOR1,. + 0
 2374              		.type	rd, %object
 2375              		.size	rd, 64
 2376              	rd:
 2377 0000 00000000 		.space	64
 2377      00000000 
 2377      00000000 
 2377      00000000 
 2377      00000000 
 2378              		.section	.rodata.__func__.8468,"a",%progbits
ARM GAS  C:\Users\jo\AppData\Local\Temp\ccBXrqAv.s 			page 44


 2379              		.align	2
 2380              		.set	.LANCHOR8,. + 0
 2381              		.type	__func__.8468, %object
 2382              		.size	__func__.8468, 35
 2383              	__func__.8468:
 2384 0000 6D61635F 		.ascii	"mac_lld_release_receive_descriptor\000"
 2384      6C6C645F 
 2384      72656C65 
 2384      6173655F 
 2384      72656365 
 2385 0023 00       		.section	.bss.tb,"aw",%nobits
 2386              		.align	2
 2387              		.set	.LANCHOR4,. + 0
 2388              		.type	tb, %object
 2389              		.size	tb, 3048
 2390              	tb:
 2391 0000 00000000 		.space	3048
 2391      00000000 
 2391      00000000 
 2391      00000000 
 2391      00000000 
 2392              		.section	.rodata.__func__.8456,"a",%progbits
 2393              		.align	2
 2394              		.set	.LANCHOR7,. + 0
 2395              		.type	__func__.8456, %object
 2396              		.size	__func__.8456, 36
 2397              	__func__.8456:
 2398 0000 6D61635F 		.ascii	"mac_lld_release_transmit_descriptor\000"
 2398      6C6C645F 
 2398      72656C65 
 2398      6173655F 
 2398      7472616E 
 2399              		.section	.bss.td,"aw",%nobits
 2400              		.align	2
 2401              		.set	.LANCHOR3,. + 0
 2402              		.type	td, %object
 2403              		.size	td, 32
 2404              	td:
 2405 0000 00000000 		.space	32
 2405      00000000 
 2405      00000000 
 2405      00000000 
 2405      00000000 
 2406              		.section	.rodata.__func__.8481,"a",%progbits
 2407              		.align	2
 2408              		.set	.LANCHOR9,. + 0
 2409              		.type	__func__.8481, %object
 2410              		.size	__func__.8481, 34
 2411              	__func__.8481:
 2412 0000 6D61635F 		.ascii	"mac_lld_write_transmit_descriptor\000"
 2412      6C6C645F 
 2412      77726974 
 2412      655F7472 
 2412      616E736D 
 2413 0022 0000     		.text
 2414              	.Letext0:
 2415              		.file 7 "c:\\program files\\gnu tools arm embedded\\4.9 2014q4\\lib\\gcc\\arm-none-eabi\\4.9.3\\in
ARM GAS  C:\Users\jo\AppData\Local\Temp\ccBXrqAv.s 			page 45


 2416              		.file 8 "c:\\program files\\gnu tools arm embedded\\4.9 2014q4\\arm-none-eabi\\include\\machine\\_
 2417              		.file 9 "c:\\program files\\gnu tools arm embedded\\4.9 2014q4\\arm-none-eabi\\include\\stdint.h"
 2418              		.file 10 "../../../os/rt/ports/ARMCMx/compilers/GCC/chtypes.h"
 2419              		.file 11 "../../../os/rt/include/chsystypes.h"
 2420              		.file 12 "../../../os/rt/include/chschd.h"
 2421              		.file 13 "../../../os/ext/CMSIS/include/core_cm4.h"
 2422              		.file 14 "../../../os/ext/CMSIS/ST/stm32f407xx.h"
 2423              		.file 15 "../../../os/rt/ports/ARMCMx/chcore.h"
 2424              		.file 16 "c:\\program files\\gnu tools arm embedded\\4.9 2014q4\\lib\\gcc\\arm-none-eabi\\4.9.3\\i
 2425              		.file 17 "<built-in>"
 2426              		.file 18 "../../../os/rt/include/chdebug.h"
 2427              		.file 19 "../../../os/rt/include/chtm.h"
 2428              		.file 20 "../../../os/rt/include/chstats.h"
 2429              		.file 21 "../../../os/rt/include/chmtx.h"
 2430              		.file 22 "../../../os/rt/include/chevents.h"
 2431              		.file 23 "../../../os/rt/include/chstreams.h"
 2432              		.file 24 "../../../os/hal/include/mac.h"
 2433              		.file 25 "../../../os/hal/ports/STM32/LLD/mac_lld.h"
 2434              		.file 26 "./ITM_trace.h"
 2435              		.file 27 "../../../os/rt/include/chthreads.h"
 2436              		.file 28 "../../../os/hal/ports/common/ARMCMx/nvic.h"