ARM GAS  C:\Users\jo\AppData\Local\Temp\ccQH7AaA.s 			page 1


   1              		.syntax unified
   2              		.cpu cortex-m4
   3              		.fpu softvfp
   4              		.eabi_attribute 20, 1
   5              		.eabi_attribute 21, 1
   6              		.eabi_attribute 23, 3
   7              		.eabi_attribute 24, 1
   8              		.eabi_attribute 25, 1
   9              		.eabi_attribute 26, 1
  10              		.eabi_attribute 30, 2
  11              		.eabi_attribute 34, 1
  12              		.eabi_attribute 18, 4
  13              		.thumb
  14              		.file	"main.c"
  15              		.text
  16              	.Ltext0:
  17              		.cfi_sections	.debug_frame
  18              		.section	.text.Thread1,"ax",%progbits
  19              		.align	2
  20              		.p2align 4,,15
  21              		.thumb
  22              		.thumb_func
  23              		.type	Thread1, %function
  24              	Thread1:
  25              	.LFB259:
  26              		.file 1 "main.c"
  27              		.loc 1 111 0
  28              		.cfi_startproc
  29              		@ Volatile: function does not return.
  30              		@ args = 0, pretend = 0, frame = 0
  31              		@ frame_needed = 0, uses_anonymous_args = 0
  32              	.LVL0:
  33 0000 08B5     		push	{r3, lr}
  34              		.cfi_def_cfa_offset 8
  35              		.cfi_offset 3, -8
  36              		.cfi_offset 14, -4
  37              		.loc 1 114 0
  38 0002 0A4B     		ldr	r3, .L5
  39 0004 0A4A     		ldr	r2, .L5+4
  40 0006 9B69     		ldr	r3, [r3, #24]
  41              		.loc 1 116 0
  42 0008 0A4C     		ldr	r4, .L5+8
  43              		.loc 1 114 0
  44 000a 9A61     		str	r2, [r3, #24]
  45              		.loc 1 116 0
  46 000c 4025     		movs	r5, #64
  47 000e 2E46     		mov	r6, r5	@ movhi
  48              	.LVL1:
  49              	.L2:
  50              		.loc 1 116 0 is_stmt 0 discriminator 1
  51 0010 6683     		strh	r6, [r4, #26]	@ movhi
  52              		.loc 1 117 0 is_stmt 1 discriminator 1
  53 0012 41F28830 		movw	r0, #5000
  54 0016 FFF7FEFF 		bl	chThdSleep
  55              	.LVL2:
  56              		.loc 1 119 0 discriminator 1
  57 001a 41F28830 		movw	r0, #5000
ARM GAS  C:\Users\jo\AppData\Local\Temp\ccQH7AaA.s 			page 2


  58              		.loc 1 118 0 discriminator 1
  59 001e 2583     		strh	r5, [r4, #24]	@ movhi
  60              		.loc 1 119 0 discriminator 1
  61 0020 FFF7FEFF 		bl	chThdSleep
  62              	.LVL3:
  63              		.loc 1 120 0 discriminator 1
  64 0024 FFF7FEFF 		bl	stats_display
  65              	.LVL4:
  66              		.loc 1 121 0 discriminator 1
  67 0028 F2E7     		b	.L2
  68              	.L6:
  69 002a 00BF     		.align	2
  70              	.L5:
  71 002c 00000000 		.word	ch
  72 0030 00000000 		.word	.LC0
  73 0034 00180240 		.word	1073879040
  74              		.cfi_endproc
  75              	.LFE259:
  76              		.size	Thread1, .-Thread1
  77 0038 AFF30080 		.section	.text.chprintf.constprop.3,"ax",%progbits
  77      AFF30080 
  78              		.align	2
  79              		.p2align 4,,15
  80              		.thumb
  81              		.thumb_func
  82              		.type	chprintf.constprop.3, %function
  83              	chprintf.constprop.3:
  84              	.LFB264:
  85              		.file 2 "../../../os/hal/lib/streams/chprintf.h"
  86              		.loc 2 69 0
  87              		.cfi_startproc
  88              		@ args = 4, pretend = 12, frame = 8
  89              		@ frame_needed = 0, uses_anonymous_args = 1
  90              	.LVL5:
  91 0000 0EB4     		push	{r1, r2, r3}
  92              		.cfi_def_cfa_offset 12
  93              		.cfi_offset 1, -12
  94              		.cfi_offset 2, -8
  95              		.cfi_offset 3, -4
  96 0002 00B5     		push	{lr}
  97              		.cfi_def_cfa_offset 16
  98              		.cfi_offset 14, -16
  99 0004 82B0     		sub	sp, sp, #8
 100              		.cfi_def_cfa_offset 24
 101              		.loc 2 73 0
 102 0006 04AB     		add	r3, sp, #16
 103              		.loc 2 74 0
 104 0008 1A46     		mov	r2, r3
 105 000a 0549     		ldr	r1, .L9
 106 000c 0548     		ldr	r0, .L9+4
 107              	.LVL6:
 108              		.loc 2 73 0
 109 000e 0193     		str	r3, [sp, #4]
 110              		.loc 2 74 0
 111 0010 FFF7FEFF 		bl	chvprintf
 112              	.LVL7:
 113              		.loc 2 78 0
ARM GAS  C:\Users\jo\AppData\Local\Temp\ccQH7AaA.s 			page 3


 114 0014 02B0     		add	sp, sp, #8
 115              		.cfi_def_cfa_offset 16
 116              		@ sp needed
 117 0016 5DF804EB 		ldr	lr, [sp], #4
 118              		.cfi_restore 14
 119              		.cfi_def_cfa_offset 12
 120 001a 03B0     		add	sp, sp, #12
 121              		.cfi_restore 3
 122              		.cfi_restore 2
 123              		.cfi_restore 1
 124              		.cfi_def_cfa_offset 0
 125 001c 7047     		bx	lr
 126              	.L10:
 127 001e 00BF     		.align	2
 128              	.L9:
 129 0020 08000000 		.word	.LC1
 130 0024 00000000 		.word	.LANCHOR0
 131              		.cfi_endproc
 132              	.LFE264:
 133              		.size	chprintf.constprop.3, .-chprintf.constprop.3
 134 0028 AFF30080 		.section	.text.Debug_ITMDebugEnable,"ax",%progbits
 134      AFF30080 
 135              		.align	2
 136              		.p2align 4,,15
 137              		.global	Debug_ITMDebugEnable
 138              		.thumb
 139              		.thumb_func
 140              		.type	Debug_ITMDebugEnable, %function
 141              	Debug_ITMDebugEnable:
 142              	.LFB256:
 143              		.loc 1 42 0
 144              		.cfi_startproc
 145              		@ args = 0, pretend = 0, frame = 0
 146              		@ frame_needed = 0, uses_anonymous_args = 0
 147              		@ link register save eliminated.
 148              	.LVL8:
 149              		.loc 1 47 0
 150 0000 084A     		ldr	r2, .L19
 151              		.loc 1 49 0
 152 0002 0949     		ldr	r1, .L19+4
 153              		.loc 1 47 0
 154 0004 1368     		ldr	r3, [r2]
 155 0006 43F02703 		orr	r3, r3, #39
 156 000a 1360     		str	r3, [r2]
 157              		.loc 1 49 0
 158 000c 0B68     		ldr	r3, [r1]
 159 000e DA07     		lsls	r2, r3, #31
 160 0010 06D5     		bpl	.L11
 161              	.LBB6:
 162 0012 064B     		ldr	r3, .L19+8
 163 0014 1B68     		ldr	r3, [r3]
 164 0016 DB07     		lsls	r3, r3, #31
 165 0018 02D5     		bpl	.L11
 166              		.loc 1 50 0
 167 001a 054B     		ldr	r3, .L19+12
 168 001c 0122     		movs	r2, #1
 169 001e 1A60     		str	r2, [r3]
ARM GAS  C:\Users\jo\AppData\Local\Temp\ccQH7AaA.s 			page 4


 170              	.L11:
 171 0020 7047     		bx	lr
 172              	.L20:
 173 0022 00BF     		.align	2
 174              	.L19:
 175 0024 042004E0 		.word	-536600572
 176 0028 F0ED00E0 		.word	-536810000
 177 002c 000E00E0 		.word	-536867328
 178 0030 00000000 		.word	.LANCHOR1
 179              	.LBE6:
 180              		.cfi_endproc
 181              	.LFE256:
 182              		.size	Debug_ITMDebugEnable, .-Debug_ITMDebugEnable
 183 0034 AFF30080 		.section	.text.Debug_ITMDebugOutputChar,"ax",%progbits
 183      AFF30080 
 183      AFF30080 
 184              		.align	2
 185              		.p2align 4,,15
 186              		.global	Debug_ITMDebugOutputChar
 187              		.thumb
 188              		.thumb_func
 189              		.type	Debug_ITMDebugOutputChar, %function
 190              	Debug_ITMDebugOutputChar:
 191              	.LFB257:
 192              		.loc 1 55 0
 193              		.cfi_startproc
 194              		@ args = 0, pretend = 0, frame = 0
 195              		@ frame_needed = 0, uses_anonymous_args = 0
 196              		@ link register save eliminated.
 197              	.LVL9:
 198              		.loc 1 59 0
 199 0000 074B     		ldr	r3, .L33
 200 0002 1B68     		ldr	r3, [r3]
 201 0004 5BB1     		cbz	r3, .L21
 202              		.loc 1 59 0 is_stmt 0 discriminator 1
 203 0006 074B     		ldr	r3, .L33+4
 204 0008 1B68     		ldr	r3, [r3]
 205 000a DB01     		lsls	r3, r3, #7
 206 000c 07D5     		bpl	.L21
 207              	.LBB9:
 208              	.LBB10:
 209              		.loc 1 61 0 is_stmt 1
 210 000e 4FF06041 		mov	r1, #-536870912
 211              	.L29:
 212 0012 0B68     		ldr	r3, [r1]
 213 0014 4FF06042 		mov	r2, #-536870912
 214 0018 002B     		cmp	r3, #0
 215 001a FAD0     		beq	.L29
 216              		.loc 1 62 0
 217 001c 1070     		strb	r0, [r2]
 218              	.L21:
 219 001e 7047     		bx	lr
 220              	.L34:
 221              		.align	2
 222              	.L33:
 223 0020 00000000 		.word	.LANCHOR1
 224 0024 FCED00E0 		.word	-536809988
ARM GAS  C:\Users\jo\AppData\Local\Temp\ccQH7AaA.s 			page 5


 225              	.LBE10:
 226              	.LBE9:
 227              		.cfi_endproc
 228              	.LFE257:
 229              		.size	Debug_ITMDebugOutputChar, .-Debug_ITMDebugOutputChar
 230 0028 AFF30080 		.section	.text.Debug_ITMDebugOutputString,"ax",%progbits
 230      AFF30080 
 231              		.align	2
 232              		.p2align 4,,15
 233              		.global	Debug_ITMDebugOutputString
 234              		.thumb
 235              		.thumb_func
 236              		.type	Debug_ITMDebugOutputString, %function
 237              	Debug_ITMDebugOutputString:
 238              	.LFB258:
 239              		.loc 1 68 0
 240              		.cfi_startproc
 241              		@ args = 0, pretend = 0, frame = 0
 242              		@ frame_needed = 0, uses_anonymous_args = 0
 243              	.LVL10:
 244              		.loc 1 69 0
 245 0000 074B     		ldr	r3, .L45
 246 0002 1B68     		ldr	r3, [r3]
 247 0004 53B1     		cbz	r3, .L44
 248              	.LVL11:
 249              		.loc 1 68 0
 250 0006 10B5     		push	{r4, lr}
 251              		.cfi_def_cfa_offset 8
 252              		.cfi_offset 4, -8
 253              		.cfi_offset 14, -4
 254 0008 0446     		mov	r4, r0
 255              	.LBB13:
 256              	.LBB14:
 257              		.loc 1 70 0
 258 000a 0078     		ldrb	r0, [r0]	@ zero_extendqisi2
 259              	.LVL12:
 260 000c 28B1     		cbz	r0, .L35
 261              	.LVL13:
 262              	.L38:
 263              		.loc 1 71 0
 264 000e FFF7FEFF 		bl	Debug_ITMDebugOutputChar
 265              	.LVL14:
 266              		.loc 1 70 0
 267 0012 14F8010F 		ldrb	r0, [r4, #1]!	@ zero_extendqisi2
 268              	.LVL15:
 269 0016 0028     		cmp	r0, #0
 270 0018 F9D1     		bne	.L38
 271              	.LVL16:
 272              	.L35:
 273 001a 10BD     		pop	{r4, pc}
 274              	.LVL17:
 275              	.L44:
 276              		.cfi_def_cfa_offset 0
 277              		.cfi_restore 4
 278              		.cfi_restore 14
 279 001c 7047     		bx	lr
 280              	.L46:
ARM GAS  C:\Users\jo\AppData\Local\Temp\ccQH7AaA.s 			page 6


 281 001e 00BF     		.align	2
 282              	.L45:
 283 0020 00000000 		.word	.LANCHOR1
 284              	.LBE14:
 285              	.LBE13:
 286              		.cfi_endproc
 287              	.LFE258:
 288              		.size	Debug_ITMDebugOutputString, .-Debug_ITMDebugOutputString
 289 0024 AFF30080 		.section	.text.startup.main,"ax",%progbits
 289      AFF30080 
 289      AFF30080 
 290              		.align	2
 291              		.p2align 4,,15
 292              		.global	main
 293              		.thumb
 294              		.thumb_func
 295              		.type	main, %function
 296              	main:
 297              	.LFB260:
 298              		.loc 1 127 0
 299              		.cfi_startproc
 300              		@ Volatile: function does not return.
 301              		@ args = 0, pretend = 0, frame = 0
 302              		@ frame_needed = 0, uses_anonymous_args = 0
 303 0000 00B5     		push	{lr}
 304              		.cfi_def_cfa_offset 4
 305              		.cfi_offset 14, -4
 306 0002 83B0     		sub	sp, sp, #12
 307              		.cfi_def_cfa_offset 16
 308              		.loc 1 129 0
 309 0004 FFF7FEFF 		bl	Debug_ITMDebugEnable
 310              	.LVL18:
 311              	.LBB19:
 312              	.LBB20:
 313              		.loc 1 69 0
 314 0008 214B     		ldr	r3, .L58
 315 000a 1B68     		ldr	r3, [r3]
 316 000c 002B     		cmp	r3, #0
 317 000e 35D1     		bne	.L52
 318              	.L50:
 319              	.LBE20:
 320              	.LBE19:
 321              		.loc 1 132 0
 322 0010 2048     		ldr	r0, .L58+4
 323              		.loc 1 209 0
 324 0012 214C     		ldr	r4, .L58+8
 325              		.loc 1 132 0
 326 0014 FFF7FEFF 		bl	itmObjectInit
 327              	.LVL19:
 328              		.loc 1 180 0
 329 0018 0025     		movs	r5, #0
 330              		.loc 1 134 0
 331 001a 204A     		ldr	r2, .L58+12
 332 001c 2049     		ldr	r1, .L58+16
 333 001e 1D48     		ldr	r0, .L58+4
 334 0020 FFF7FEFF 		bl	chprintf.constprop.3
 335              	.LVL20:
ARM GAS  C:\Users\jo\AppData\Local\Temp\ccQH7AaA.s 			page 7


 336              		.loc 1 145 0
 337 0024 FFF7FEFF 		bl	halInit
 338              	.LVL21:
 339              		.loc 1 146 0
 340 0028 FFF7FEFF 		bl	chSysInit
 341              	.LVL22:
 342              		.loc 1 175 0
 343 002c 2946     		mov	r1, r5
 344 002e 1D48     		ldr	r0, .L58+20
 345 0030 FFF7FEFF 		bl	sdStart
 346              	.LVL23:
 347              		.loc 1 180 0
 348 0034 0095     		str	r5, [sp]
 349 0036 1C4B     		ldr	r3, .L58+24
 350 0038 1C48     		ldr	r0, .L58+28
 351 003a 4FF4B471 		mov	r1, #360
 352 003e 4022     		movs	r2, #64
 353 0040 FFF7FEFF 		bl	chThdCreateStatic
 354              	.LVL24:
 355              		.loc 1 195 0
 356 0044 0095     		str	r5, [sp]
 357 0046 1A4B     		ldr	r3, .L58+32
 358 0048 1A48     		ldr	r0, .L58+36
 359 004a 4FF44A71 		mov	r1, #808
 360 004e 4122     		movs	r2, #65
 361 0050 FFF7FEFF 		bl	chThdCreateStatic
 362              	.LVL25:
 363              		.loc 1 201 0
 364 0054 0095     		str	r5, [sp]
 365 0056 184B     		ldr	r3, .L58+40
 366 0058 1848     		ldr	r0, .L58+44
 367 005a 41F2E821 		movw	r1, #4840
 368 005e 5822     		movs	r2, #88
 369 0060 FFF7FEFF 		bl	chThdCreateStatic
 370              	.LVL26:
 371 0064 03E0     		b	.L49
 372              	.L51:
 373              		.loc 1 214 0
 374 0066 42F21070 		movw	r0, #10000
 375 006a FFF7FEFF 		bl	chThdSleep
 376              	.LVL27:
 377              	.L49:
 378              		.loc 1 209 0
 379 006e 2369     		ldr	r3, [r4, #16]
 380 0070 DB07     		lsls	r3, r3, #31
 381 0072 F8D5     		bpl	.L51
 382              		.loc 1 210 0
 383 0074 0B48     		ldr	r0, .L58+20
 384 0076 FFF7FEFF 		bl	TestThread
 385              	.LVL28:
 386 007a F4E7     		b	.L51
 387              	.L52:
 388              	.LBB24:
 389              	.LBB23:
 390              		.loc 1 69 0
 391 007c 104C     		ldr	r4, .L58+48
 392 007e 5320     		movs	r0, #83
ARM GAS  C:\Users\jo\AppData\Local\Temp\ccQH7AaA.s 			page 8


 393              	.L48:
 394              	.LVL29:
 395              	.LBB21:
 396              	.LBB22:
 397              		.loc 1 71 0
 398 0080 FFF7FEFF 		bl	Debug_ITMDebugOutputChar
 399              	.LVL30:
 400              		.loc 1 70 0
 401 0084 14F8010F 		ldrb	r0, [r4, #1]!	@ zero_extendqisi2
 402              	.LVL31:
 403 0088 0028     		cmp	r0, #0
 404 008a F9D1     		bne	.L48
 405 008c C0E7     		b	.L50
 406              	.L59:
 407 008e 00BF     		.align	2
 408              	.L58:
 409 0090 00000000 		.word	.LANCHOR1
 410 0094 00000000 		.word	.LANCHOR0
 411 0098 00000240 		.word	1073872896
 412 009c 1C000000 		.word	.LC3
 413 00a0 08000000 		.word	.LC1
 414 00a4 00000000 		.word	SD6
 415 00a8 00000000 		.word	Thread1
 416 00ac 00000000 		.word	.LANCHOR2
 417 00b0 00000000 		.word	lwip_thread
 418 00b4 00000000 		.word	wa_lwip_thread
 419 00b8 00000000 		.word	HttpTask
 420 00bc 00000000 		.word	task_http_stack
 421 00c0 0C000000 		.word	.LC2
 422              	.LBE22:
 423              	.LBE21:
 424              	.LBE23:
 425              	.LBE24:
 426              		.cfi_endproc
 427              	.LFE260:
 428              		.size	main, .-main
 429              		.global	itm_port
 430 00c4 AFF30080 		.section	.bss.waThread1,"aw",%nobits
 430      AFF30080 
 430      AFF30080 
 431              		.align	3
 432              		.set	.LANCHOR2,. + 0
 433              		.type	waThread1, %object
 434              		.size	waThread1, 360
 435              	waThread1:
 436 0000 00000000 		.space	360
 436      00000000 
 436      00000000 
 436      00000000 
 436      00000000 
 437              		.section	.bss.Debug_ITMDebug,"aw",%nobits
 438              		.align	2
 439              		.set	.LANCHOR1,. + 0
 440              		.type	Debug_ITMDebug, %object
 441              		.size	Debug_ITMDebug, 4
 442              	Debug_ITMDebug:
 443 0000 00000000 		.space	4
ARM GAS  C:\Users\jo\AppData\Local\Temp\ccQH7AaA.s 			page 9


 444              		.section	.bss.itm_port,"aw",%nobits
 445              		.align	2
 446              		.set	.LANCHOR0,. + 0
 447              		.type	itm_port, %object
 448              		.size	itm_port, 4
 449              	itm_port:
 450 0000 00000000 		.space	4
 451              		.section	.rodata.str1.4,"aMS",%progbits,1
 452              		.align	2
 453              	.LC0:
 454 0000 626C696E 		.ascii	"blinker\000"
 454      6B657200 
 455              	.LC1:
 456 0008 257300   		.ascii	"%s\000"
 457 000b 00       		.space	1
 458              	.LC2:
 459 000c 53575620 		.ascii	"SWV Enabled\012\000"
 459      456E6162 
 459      6C65640A 
 459      00
 460 0019 000000   		.space	3
 461              	.LC3:
 462 001c 43686962 		.ascii	"ChibiOS V3.0\012\000"
 462      694F5320 
 462      56332E30 
 462      0A00
 463 002a 0000     		.text
 464              	.Letext0:
 465              		.file 3 "c:\\program files\\gnu tools arm embedded\\4.9 2014q4\\lib\\gcc\\arm-none-eabi\\4.9.3\\in
 466              		.file 4 "c:\\program files\\gnu tools arm embedded\\4.9 2014q4\\arm-none-eabi\\include\\machine\\_
 467              		.file 5 "c:\\program files\\gnu tools arm embedded\\4.9 2014q4\\arm-none-eabi\\include\\stdint.h"
 468              		.file 6 "../../../os/rt/ports/ARMCMx/compilers/GCC/chtypes.h"
 469              		.file 7 "../../../os/rt/include/chsystypes.h"
 470              		.file 8 "../../../os/rt/include/chschd.h"
 471              		.file 9 "../../../os/ext/CMSIS/ST/stm32f407xx.h"
 472              		.file 10 "../../../os/rt/ports/ARMCMx/chcore.h"
 473              		.file 11 "../../../os/rt/ports/ARMCMx/chcore_v7m.h"
 474              		.file 12 "c:\\program files\\gnu tools arm embedded\\4.9 2014q4\\lib\\gcc\\arm-none-eabi\\4.9.3\\i
 475              		.file 13 "<built-in>"
 476              		.file 14 "../../../os/rt/include/chdebug.h"
 477              		.file 15 "../../../os/rt/include/chtm.h"
 478              		.file 16 "../../../os/rt/include/chstats.h"
 479              		.file 17 "../../../os/rt/include/chmtx.h"
 480              		.file 18 "../../../os/rt/include/chthreads.h"
 481              		.file 19 "../../../os/rt/include/chevents.h"
 482              		.file 20 "../../../os/rt/include/chqueues.h"
 483              		.file 21 "../../../os/rt/include/chstreams.h"
 484              		.file 22 "../../../os/hal/ports/STM32/LLD/GPIOv2/pal_lld.h"
 485              		.file 23 "../../../os/hal/include/serial.h"
 486              		.file 24 "../../../os/hal/ports/STM32/LLD/USARTv1/serial_lld.h"
 487              		.file 25 "ITM_trace.h"
 488              		.file 26 "../../../os/ext/lwip-1.4.1/src/include/lwip/memp.h"
 489              		.file 27 "../../../os/ext/CMSIS/include/core_cm4.h"
 490              		.file 28 "../../../os/various/lwip_bindings/lwipthread.h"
 491              		.file 29 "../../../demos/STM32/RT-STM32F407-DISCOVERY-uHttp/uhttp-1.1/uhttpd.h"
 492              		.file 30 "../../../os/ext/lwip-1.4.1/src/include/lwip/stats.h"
 493              		.file 31 "../../../os/hal/include/hal.h"
ARM GAS  C:\Users\jo\AppData\Local\Temp\ccQH7AaA.s 			page 10


 494              		.file 32 "../../../os/rt/include/chsys.h"
 495              		.file 33 "../../../test/rt/test.h"
 496              		.section	.debug_info,"",%progbits
 497              	.Ldebug_info0:
 498 0000 00130000 		.4byte	0x1300
 499 0004 0400     		.2byte	0x4
 500 0006 00000000 		.4byte	.Ldebug_abbrev0
 501 000a 04       		.byte	0x4
 502 000b 01       		.uleb128 0x1
 503 000c 88080000 		.4byte	.LASF229
 504 0010 01       		.byte	0x1
 505 0011 F9040000 		.4byte	.LASF230
 506 0015 2A0A0000 		.4byte	.LASF231
 507 0019 18000000 		.4byte	.Ldebug_ranges0+0x18
 508 001d 00000000 		.4byte	0
 509 0021 00000000 		.4byte	.Ldebug_line0
 510 0025 02       		.uleb128 0x2
 511 0026 04       		.byte	0x4
 512 0027 05       		.byte	0x5
 513 0028 696E7400 		.ascii	"int\000"
 514 002c 03       		.uleb128 0x3
 515 002d 08000000 		.4byte	.LASF2
 516 0031 03       		.byte	0x3
 517 0032 D4       		.byte	0xd4
 518 0033 37000000 		.4byte	0x37
 519 0037 04       		.uleb128 0x4
 520 0038 04       		.byte	0x4
 521 0039 07       		.byte	0x7
 522 003a 9F050000 		.4byte	.LASF0
 523 003e 04       		.uleb128 0x4
 524 003f 01       		.byte	0x1
 525 0040 06       		.byte	0x6
 526 0041 DA010000 		.4byte	.LASF1
 527 0045 03       		.uleb128 0x3
 528 0046 2A010000 		.4byte	.LASF3
 529 004a 04       		.byte	0x4
 530 004b 1D       		.byte	0x1d
 531 004c 50000000 		.4byte	0x50
 532 0050 04       		.uleb128 0x4
 533 0051 01       		.byte	0x1
 534 0052 08       		.byte	0x8
 535 0053 19020000 		.4byte	.LASF4
 536 0057 04       		.uleb128 0x4
 537 0058 02       		.byte	0x2
 538 0059 05       		.byte	0x5
 539 005a E7070000 		.4byte	.LASF5
 540 005e 03       		.uleb128 0x3
 541 005f AA020000 		.4byte	.LASF6
 542 0063 04       		.byte	0x4
 543 0064 2B       		.byte	0x2b
 544 0065 69000000 		.4byte	0x69
 545 0069 04       		.uleb128 0x4
 546 006a 02       		.byte	0x2
 547 006b 07       		.byte	0x7
 548 006c C2090000 		.4byte	.LASF7
 549 0070 03       		.uleb128 0x3
 550 0071 FB090000 		.4byte	.LASF8
ARM GAS  C:\Users\jo\AppData\Local\Temp\ccQH7AaA.s 			page 11


 551 0075 04       		.byte	0x4
 552 0076 3F       		.byte	0x3f
 553 0077 7B000000 		.4byte	0x7b
 554 007b 04       		.uleb128 0x4
 555 007c 04       		.byte	0x4
 556 007d 05       		.byte	0x5
 557 007e 60010000 		.4byte	.LASF9
 558 0082 03       		.uleb128 0x3
 559 0083 A6040000 		.4byte	.LASF10
 560 0087 04       		.byte	0x4
 561 0088 41       		.byte	0x41
 562 0089 8D000000 		.4byte	0x8d
 563 008d 04       		.uleb128 0x4
 564 008e 04       		.byte	0x4
 565 008f 07       		.byte	0x7
 566 0090 C8030000 		.4byte	.LASF11
 567 0094 04       		.uleb128 0x4
 568 0095 08       		.byte	0x8
 569 0096 05       		.byte	0x5
 570 0097 B9040000 		.4byte	.LASF12
 571 009b 03       		.uleb128 0x3
 572 009c BD030000 		.4byte	.LASF13
 573 00a0 04       		.byte	0x4
 574 00a1 5B       		.byte	0x5b
 575 00a2 A6000000 		.4byte	0xa6
 576 00a6 04       		.uleb128 0x4
 577 00a7 08       		.byte	0x8
 578 00a8 07       		.byte	0x7
 579 00a9 8E060000 		.4byte	.LASF14
 580 00ad 03       		.uleb128 0x3
 581 00ae ED010000 		.4byte	.LASF15
 582 00b2 05       		.byte	0x5
 583 00b3 15       		.byte	0x15
 584 00b4 45000000 		.4byte	0x45
 585 00b8 03       		.uleb128 0x3
 586 00b9 C7060000 		.4byte	.LASF16
 587 00bd 05       		.byte	0x5
 588 00be 21       		.byte	0x21
 589 00bf 5E000000 		.4byte	0x5e
 590 00c3 03       		.uleb128 0x3
 591 00c4 41000000 		.4byte	.LASF17
 592 00c8 05       		.byte	0x5
 593 00c9 2C       		.byte	0x2c
 594 00ca 70000000 		.4byte	0x70
 595 00ce 03       		.uleb128 0x3
 596 00cf 76090000 		.4byte	.LASF18
 597 00d3 05       		.byte	0x5
 598 00d4 2D       		.byte	0x2d
 599 00d5 82000000 		.4byte	0x82
 600 00d9 03       		.uleb128 0x3
 601 00da FE070000 		.4byte	.LASF19
 602 00de 05       		.byte	0x5
 603 00df 39       		.byte	0x39
 604 00e0 9B000000 		.4byte	0x9b
 605 00e4 05       		.uleb128 0x5
 606 00e5 C3000000 		.4byte	0xc3
 607 00e9 05       		.uleb128 0x5
ARM GAS  C:\Users\jo\AppData\Local\Temp\ccQH7AaA.s 			page 12


 608 00ea CE000000 		.4byte	0xce
 609 00ee 03       		.uleb128 0x3
 610 00ef AC050000 		.4byte	.LASF20
 611 00f3 06       		.byte	0x6
 612 00f4 45       		.byte	0x45
 613 00f5 CE000000 		.4byte	0xce
 614 00f9 03       		.uleb128 0x3
 615 00fa 88010000 		.4byte	.LASF21
 616 00fe 06       		.byte	0x6
 617 00ff 46       		.byte	0x46
 618 0100 D9000000 		.4byte	0xd9
 619 0104 03       		.uleb128 0x3
 620 0105 7A070000 		.4byte	.LASF22
 621 0109 06       		.byte	0x6
 622 010a 48       		.byte	0x48
 623 010b AD000000 		.4byte	0xad
 624 010f 03       		.uleb128 0x3
 625 0110 7F010000 		.4byte	.LASF23
 626 0114 06       		.byte	0x6
 627 0115 49       		.byte	0x49
 628 0116 AD000000 		.4byte	0xad
 629 011a 03       		.uleb128 0x3
 630 011b 71080000 		.4byte	.LASF24
 631 011f 06       		.byte	0x6
 632 0120 4A       		.byte	0x4a
 633 0121 AD000000 		.4byte	0xad
 634 0125 03       		.uleb128 0x3
 635 0126 28000000 		.4byte	.LASF25
 636 012a 06       		.byte	0x6
 637 012b 4C       		.byte	0x4c
 638 012c CE000000 		.4byte	0xce
 639 0130 03       		.uleb128 0x3
 640 0131 D0060000 		.4byte	.LASF26
 641 0135 06       		.byte	0x6
 642 0136 4D       		.byte	0x4d
 643 0137 C3000000 		.4byte	0xc3
 644 013b 03       		.uleb128 0x3
 645 013c F5010000 		.4byte	.LASF27
 646 0140 06       		.byte	0x6
 647 0141 4F       		.byte	0x4f
 648 0142 CE000000 		.4byte	0xce
 649 0146 03       		.uleb128 0x3
 650 0147 E7060000 		.4byte	.LASF28
 651 014b 06       		.byte	0x6
 652 014c 50       		.byte	0x50
 653 014d CE000000 		.4byte	0xce
 654 0151 03       		.uleb128 0x3
 655 0152 07030000 		.4byte	.LASF29
 656 0156 06       		.byte	0x6
 657 0157 51       		.byte	0x51
 658 0158 C3000000 		.4byte	0xc3
 659 015c 03       		.uleb128 0x3
 660 015d 60040000 		.4byte	.LASF30
 661 0161 06       		.byte	0x6
 662 0162 52       		.byte	0x52
 663 0163 CE000000 		.4byte	0xce
 664 0167 03       		.uleb128 0x3
ARM GAS  C:\Users\jo\AppData\Local\Temp\ccQH7AaA.s 			page 13


 665 0168 18000000 		.4byte	.LASF31
 666 016c 07       		.byte	0x7
 667 016d 33       		.byte	0x33
 668 016e CE000000 		.4byte	0xce
 669 0172 03       		.uleb128 0x3
 670 0173 06060000 		.4byte	.LASF32
 671 0177 07       		.byte	0x7
 672 0178 3F       		.byte	0x3f
 673 0179 7D010000 		.4byte	0x17d
 674 017d 06       		.uleb128 0x6
 675 017e F9030000 		.4byte	.LASF53
 676 0182 60       		.byte	0x60
 677 0183 08       		.byte	0x8
 678 0184 BE       		.byte	0xbe
 679 0185 83020000 		.4byte	0x283
 680 0189 07       		.uleb128 0x7
 681 018a 69010000 		.4byte	.LASF33
 682 018e 08       		.byte	0x8
 683 018f BF       		.byte	0xbf
 684 0190 62060000 		.4byte	0x662
 685 0194 00       		.byte	0
 686 0195 07       		.uleb128 0x7
 687 0196 78010000 		.4byte	.LASF34
 688 019a 08       		.byte	0x8
 689 019b C1       		.byte	0xc1
 690 019c 62060000 		.4byte	0x662
 691 01a0 04       		.byte	0x4
 692 01a1 07       		.uleb128 0x7
 693 01a2 A3020000 		.4byte	.LASF35
 694 01a6 08       		.byte	0x8
 695 01a7 C3       		.byte	0xc3
 696 01a8 25010000 		.4byte	0x125
 697 01ac 08       		.byte	0x8
 698 01ad 07       		.uleb128 0x7
 699 01ae 22000000 		.4byte	.LASF36
 700 01b2 08       		.byte	0x8
 701 01b3 C4       		.byte	0xc4
 702 01b4 55050000 		.4byte	0x555
 703 01b8 0C       		.byte	0xc
 704 01b9 07       		.uleb128 0x7
 705 01ba 58010000 		.4byte	.LASF37
 706 01be 08       		.byte	0x8
 707 01bf C6       		.byte	0xc6
 708 01c0 62060000 		.4byte	0x662
 709 01c4 10       		.byte	0x10
 710 01c5 07       		.uleb128 0x7
 711 01c6 B2060000 		.4byte	.LASF38
 712 01ca 08       		.byte	0x8
 713 01cb C7       		.byte	0xc7
 714 01cc 62060000 		.4byte	0x662
 715 01d0 14       		.byte	0x14
 716 01d1 07       		.uleb128 0x7
 717 01d2 150A0000 		.4byte	.LASF39
 718 01d6 08       		.byte	0x8
 719 01d7 CE       		.byte	0xce
 720 01d8 1E060000 		.4byte	0x61e
 721 01dc 18       		.byte	0x18
ARM GAS  C:\Users\jo\AppData\Local\Temp\ccQH7AaA.s 			page 14


 722 01dd 07       		.uleb128 0x7
 723 01de F0090000 		.4byte	.LASF40
 724 01e2 08       		.byte	0x8
 725 01e3 D4       		.byte	0xd4
 726 01e4 AC070000 		.4byte	0x7ac
 727 01e8 1C       		.byte	0x1c
 728 01e9 07       		.uleb128 0x7
 729 01ea AD0A0000 		.4byte	.LASF41
 730 01ee 08       		.byte	0x8
 731 01ef D9       		.byte	0xd9
 732 01f0 0F010000 		.4byte	0x10f
 733 01f4 20       		.byte	0x20
 734 01f5 07       		.uleb128 0x7
 735 01f6 83050000 		.4byte	.LASF42
 736 01fa 08       		.byte	0x8
 737 01fb DD       		.byte	0xdd
 738 01fc 04010000 		.4byte	0x104
 739 0200 21       		.byte	0x21
 740 0201 07       		.uleb128 0x7
 741 0202 BC050000 		.4byte	.LASF43
 742 0206 08       		.byte	0x8
 743 0207 E2       		.byte	0xe2
 744 0208 1A010000 		.4byte	0x11a
 745 020c 22       		.byte	0x22
 746 020d 08       		.uleb128 0x8
 747 020e 705F7500 		.ascii	"p_u\000"
 748 0212 08       		.byte	0x8
 749 0213 1401     		.2byte	0x114
 750 0215 74070000 		.4byte	0x774
 751 0219 24       		.byte	0x24
 752 021a 09       		.uleb128 0x9
 753 021b 69050000 		.4byte	.LASF44
 754 021f 08       		.byte	0x8
 755 0220 1901     		.2byte	0x119
 756 0222 83020000 		.4byte	0x283
 757 0226 28       		.byte	0x28
 758 0227 09       		.uleb128 0x9
 759 0228 30000000 		.4byte	.LASF45
 760 022c 08       		.byte	0x8
 761 022d 1F01     		.2byte	0x11f
 762 022f A7020000 		.4byte	0x2a7
 763 0233 2C       		.byte	0x2c
 764 0234 09       		.uleb128 0x9
 765 0235 9B0A0000 		.4byte	.LASF46
 766 0239 08       		.byte	0x8
 767 023a 2301     		.2byte	0x123
 768 023c 30010000 		.4byte	0x130
 769 0240 34       		.byte	0x34
 770 0241 09       		.uleb128 0x9
 771 0242 58030000 		.4byte	.LASF47
 772 0246 08       		.byte	0x8
 773 0247 2901     		.2byte	0x129
 774 0249 3B010000 		.4byte	0x13b
 775 024d 38       		.byte	0x38
 776 024e 09       		.uleb128 0x9
 777 024f A6010000 		.4byte	.LASF48
 778 0253 08       		.byte	0x8
ARM GAS  C:\Users\jo\AppData\Local\Temp\ccQH7AaA.s 			page 15


 779 0254 3001     		.2byte	0x130
 780 0256 E3070000 		.4byte	0x7e3
 781 025a 3C       		.byte	0x3c
 782 025b 09       		.uleb128 0x9
 783 025c 0F060000 		.4byte	.LASF49
 784 0260 08       		.byte	0x8
 785 0261 3401     		.2byte	0x134
 786 0263 25010000 		.4byte	0x125
 787 0267 40       		.byte	0x40
 788 0268 09       		.uleb128 0x9
 789 0269 B4050000 		.4byte	.LASF50
 790 026d 08       		.byte	0x8
 791 026e 3A01     		.2byte	0x13a
 792 0270 5A030000 		.4byte	0x35a
 793 0274 44       		.byte	0x44
 794 0275 09       		.uleb128 0x9
 795 0276 00000000 		.4byte	.LASF51
 796 027a 08       		.byte	0x8
 797 027b 4001     		.2byte	0x140
 798 027d 25070000 		.4byte	0x725
 799 0281 48       		.byte	0x48
 800 0282 00       		.byte	0
 801 0283 03       		.uleb128 0x3
 802 0284 79080000 		.4byte	.LASF52
 803 0288 07       		.byte	0x7
 804 0289 44       		.byte	0x44
 805 028a 8E020000 		.4byte	0x28e
 806 028e 06       		.uleb128 0x6
 807 028f 79040000 		.4byte	.LASF54
 808 0293 04       		.byte	0x4
 809 0294 08       		.byte	0x8
 810 0295 AC       		.byte	0xac
 811 0296 A7020000 		.4byte	0x2a7
 812 029a 07       		.uleb128 0x7
 813 029b 69010000 		.4byte	.LASF33
 814 029f 08       		.byte	0x8
 815 02a0 AD       		.byte	0xad
 816 02a1 62060000 		.4byte	0x662
 817 02a5 00       		.byte	0
 818 02a6 00       		.byte	0
 819 02a7 03       		.uleb128 0x3
 820 02a8 96010000 		.4byte	.LASF55
 821 02ac 07       		.byte	0x7
 822 02ad 4B       		.byte	0x4b
 823 02ae B2020000 		.4byte	0x2b2
 824 02b2 06       		.uleb128 0x6
 825 02b3 D6060000 		.4byte	.LASF56
 826 02b7 08       		.byte	0x8
 827 02b8 08       		.byte	0x8
 828 02b9 B3       		.byte	0xb3
 829 02ba D7020000 		.4byte	0x2d7
 830 02be 07       		.uleb128 0x7
 831 02bf 69010000 		.4byte	.LASF33
 832 02c3 08       		.byte	0x8
 833 02c4 B4       		.byte	0xb4
 834 02c5 62060000 		.4byte	0x662
 835 02c9 00       		.byte	0
ARM GAS  C:\Users\jo\AppData\Local\Temp\ccQH7AaA.s 			page 16


 836 02ca 07       		.uleb128 0x7
 837 02cb 78010000 		.4byte	.LASF34
 838 02cf 08       		.byte	0x8
 839 02d0 B5       		.byte	0xb5
 840 02d1 62060000 		.4byte	0x662
 841 02d5 04       		.byte	0x4
 842 02d6 00       		.byte	0
 843 02d7 03       		.uleb128 0x3
 844 02d8 3E040000 		.4byte	.LASF57
 845 02dc 07       		.byte	0x7
 846 02dd 52       		.byte	0x52
 847 02de E2020000 		.4byte	0x2e2
 848 02e2 0A       		.uleb128 0xa
 849 02e3 70030000 		.4byte	.LASF58
 850 02e7 1C       		.byte	0x1c
 851 02e8 08       		.byte	0x8
 852 02e9 7201     		.2byte	0x172
 853 02eb 3E030000 		.4byte	0x33e
 854 02ef 09       		.uleb128 0x9
 855 02f0 2D070000 		.4byte	.LASF59
 856 02f4 08       		.byte	0x8
 857 02f5 7301     		.2byte	0x173
 858 02f7 A7020000 		.4byte	0x2a7
 859 02fb 00       		.byte	0
 860 02fc 09       		.uleb128 0x9
 861 02fd 28080000 		.4byte	.LASF60
 862 0301 08       		.byte	0x8
 863 0302 7401     		.2byte	0x174
 864 0304 25010000 		.4byte	0x125
 865 0308 08       		.byte	0x8
 866 0309 09       		.uleb128 0x9
 867 030a 3B000000 		.4byte	.LASF61
 868 030e 08       		.byte	0x8
 869 030f 7601     		.2byte	0x176
 870 0311 55050000 		.4byte	0x555
 871 0315 0C       		.byte	0xc
 872 0316 09       		.uleb128 0x9
 873 0317 5C020000 		.4byte	.LASF62
 874 031b 08       		.byte	0x8
 875 031c 7901     		.2byte	0x179
 876 031e 62060000 		.4byte	0x662
 877 0322 10       		.byte	0x10
 878 0323 09       		.uleb128 0x9
 879 0324 BA070000 		.4byte	.LASF63
 880 0328 08       		.byte	0x8
 881 0329 7A01     		.2byte	0x17a
 882 032b 62060000 		.4byte	0x662
 883 032f 14       		.byte	0x14
 884 0330 09       		.uleb128 0x9
 885 0331 09070000 		.4byte	.LASF64
 886 0335 08       		.byte	0x8
 887 0336 7D01     		.2byte	0x17d
 888 0338 62060000 		.4byte	0x662
 889 033c 18       		.byte	0x18
 890 033d 00       		.byte	0
 891 033e 03       		.uleb128 0x3
 892 033f 5D000000 		.4byte	.LASF65
ARM GAS  C:\Users\jo\AppData\Local\Temp\ccQH7AaA.s 			page 17


 893 0343 07       		.byte	0x7
 894 0344 57       		.byte	0x57
 895 0345 49030000 		.4byte	0x349
 896 0349 0B       		.uleb128 0xb
 897 034a 04       		.byte	0x4
 898 034b 4F030000 		.4byte	0x34f
 899 034f 0C       		.uleb128 0xc
 900 0350 5A030000 		.4byte	0x35a
 901 0354 0D       		.uleb128 0xd
 902 0355 5A030000 		.4byte	0x35a
 903 0359 00       		.byte	0
 904 035a 0E       		.uleb128 0xe
 905 035b 04       		.byte	0x4
 906 035c 03       		.uleb128 0x3
 907 035d 2E040000 		.4byte	.LASF66
 908 0361 07       		.byte	0x7
 909 0362 5C       		.byte	0x5c
 910 0363 67030000 		.4byte	0x367
 911 0367 0A       		.uleb128 0xa
 912 0368 48060000 		.4byte	.LASF67
 913 036c 14       		.byte	0x14
 914 036d 08       		.byte	0x8
 915 036e 4D01     		.2byte	0x14d
 916 0370 B6030000 		.4byte	0x3b6
 917 0374 09       		.uleb128 0x9
 918 0375 D7040000 		.4byte	.LASF68
 919 0379 08       		.byte	0x8
 920 037a 4E01     		.2byte	0x14e
 921 037c E9070000 		.4byte	0x7e9
 922 0380 00       		.byte	0
 923 0381 09       		.uleb128 0x9
 924 0382 F1040000 		.4byte	.LASF69
 925 0386 08       		.byte	0x8
 926 0387 4F01     		.2byte	0x14f
 927 0389 E9070000 		.4byte	0x7e9
 928 038d 04       		.byte	0x4
 929 038e 09       		.uleb128 0x9
 930 038f 30060000 		.4byte	.LASF70
 931 0393 08       		.byte	0x8
 932 0394 5001     		.2byte	0x150
 933 0396 67010000 		.4byte	0x167
 934 039a 08       		.byte	0x8
 935 039b 09       		.uleb128 0x9
 936 039c 2B030000 		.4byte	.LASF71
 937 03a0 08       		.byte	0x8
 938 03a1 5101     		.2byte	0x151
 939 03a3 3E030000 		.4byte	0x33e
 940 03a7 0C       		.byte	0xc
 941 03a8 09       		.uleb128 0x9
 942 03a9 1A010000 		.4byte	.LASF72
 943 03ad 08       		.byte	0x8
 944 03ae 5301     		.2byte	0x153
 945 03b0 5A030000 		.4byte	0x35a
 946 03b4 10       		.byte	0x10
 947 03b5 00       		.byte	0
 948 03b6 03       		.uleb128 0x3
 949 03b7 08040000 		.4byte	.LASF73
ARM GAS  C:\Users\jo\AppData\Local\Temp\ccQH7AaA.s 			page 18


 950 03bb 07       		.byte	0x7
 951 03bc 61       		.byte	0x61
 952 03bd C1030000 		.4byte	0x3c1
 953 03c1 0A       		.uleb128 0xa
 954 03c2 66000000 		.4byte	.LASF74
 955 03c6 10       		.byte	0x10
 956 03c7 08       		.byte	0x8
 957 03c8 5D01     		.2byte	0x15d
 958 03ca 03040000 		.4byte	0x403
 959 03ce 09       		.uleb128 0x9
 960 03cf D7040000 		.4byte	.LASF68
 961 03d3 08       		.byte	0x8
 962 03d4 5E01     		.2byte	0x15e
 963 03d6 E9070000 		.4byte	0x7e9
 964 03da 00       		.byte	0
 965 03db 09       		.uleb128 0x9
 966 03dc F1040000 		.4byte	.LASF69
 967 03e0 08       		.byte	0x8
 968 03e1 6001     		.2byte	0x160
 969 03e3 E9070000 		.4byte	0x7e9
 970 03e7 04       		.byte	0x4
 971 03e8 09       		.uleb128 0x9
 972 03e9 30060000 		.4byte	.LASF70
 973 03ed 08       		.byte	0x8
 974 03ee 6201     		.2byte	0x162
 975 03f0 67010000 		.4byte	0x167
 976 03f4 08       		.byte	0x8
 977 03f5 09       		.uleb128 0x9
 978 03f6 B6090000 		.4byte	.LASF75
 979 03fa 08       		.byte	0x8
 980 03fb 6A01     		.2byte	0x16a
 981 03fd 67010000 		.4byte	0x167
 982 0401 0C       		.byte	0xc
 983 0402 00       		.byte	0
 984 0403 03       		.uleb128 0x3
 985 0404 70020000 		.4byte	.LASF76
 986 0408 07       		.byte	0x7
 987 0409 66       		.byte	0x66
 988 040a 0E040000 		.4byte	0x40e
 989 040e 0F       		.uleb128 0xf
 990 040f 42080000 		.4byte	.LASF77
 991 0413 1404     		.2byte	0x414
 992 0415 08       		.byte	0x8
 993 0416 8401     		.2byte	0x184
 994 0418 51040000 		.4byte	0x451
 995 041c 09       		.uleb128 0x9
 996 041d 3B020000 		.4byte	.LASF78
 997 0421 08       		.byte	0x8
 998 0422 8C01     		.2byte	0x18c
 999 0424 EF070000 		.4byte	0x7ef
 1000 0428 00       		.byte	0
 1001 0429 09       		.uleb128 0x9
 1002 042a 84030000 		.4byte	.LASF79
 1003 042e 08       		.byte	0x8
 1004 042f 9101     		.2byte	0x191
 1005 0431 51010000 		.4byte	0x151
 1006 0435 04       		.byte	0x4
ARM GAS  C:\Users\jo\AppData\Local\Temp\ccQH7AaA.s 			page 19


 1007 0436 09       		.uleb128 0x9
 1008 0437 C6000000 		.4byte	.LASF80
 1009 043b 08       		.byte	0x8
 1010 043c 9501     		.2byte	0x195
 1011 043e 51010000 		.4byte	0x151
 1012 0442 08       		.byte	0x8
 1013 0443 09       		.uleb128 0x9
 1014 0444 4F020000 		.4byte	.LASF81
 1015 0448 08       		.byte	0x8
 1016 0449 9B01     		.2byte	0x19b
 1017 044b B7060000 		.4byte	0x6b7
 1018 044f 0C       		.byte	0xc
 1019 0450 00       		.byte	0
 1020 0451 03       		.uleb128 0x3
 1021 0452 D5090000 		.4byte	.LASF82
 1022 0456 07       		.byte	0x7
 1023 0457 6B       		.byte	0x6b
 1024 0458 5C040000 		.4byte	0x45c
 1025 045c 0F       		.uleb128 0xf
 1026 045d 62090000 		.4byte	.LASF83
 1027 0461 D805     		.2byte	0x5d8
 1028 0463 08       		.byte	0x8
 1029 0464 A401     		.2byte	0x1a4
 1030 0466 C9040000 		.4byte	0x4c9
 1031 046a 09       		.uleb128 0x9
 1032 046b 74070000 		.4byte	.LASF84
 1033 046f 08       		.byte	0x8
 1034 0470 A801     		.2byte	0x1a8
 1035 0472 D7020000 		.4byte	0x2d7
 1036 0476 00       		.byte	0
 1037 0477 09       		.uleb128 0x9
 1038 0478 62080000 		.4byte	.LASF85
 1039 047c 08       		.byte	0x8
 1040 047d AC01     		.2byte	0x1ac
 1041 047f B6030000 		.4byte	0x3b6
 1042 0483 1C       		.byte	0x1c
 1043 0484 08       		.uleb128 0x8
 1044 0485 64626700 		.ascii	"dbg\000"
 1045 0489 08       		.byte	0x8
 1046 048a B001     		.2byte	0x1b0
 1047 048c 03040000 		.4byte	0x403
 1048 0490 2C       		.byte	0x2c
 1049 0491 10       		.uleb128 0x10
 1050 0492 1D070000 		.4byte	.LASF86
 1051 0496 08       		.byte	0x8
 1052 0497 B401     		.2byte	0x1b4
 1053 0499 72010000 		.4byte	0x172
 1054 049d 4004     		.2byte	0x440
 1055 049f 11       		.uleb128 0x11
 1056 04a0 746D00   		.ascii	"tm\000"
 1057 04a3 08       		.byte	0x8
 1058 04a4 B901     		.2byte	0x1b9
 1059 04a6 D7060000 		.4byte	0x6d7
 1060 04aa A004     		.2byte	0x4a0
 1061 04ac 10       		.uleb128 0x10
 1062 04ad 72060000 		.4byte	.LASF87
 1063 04b1 08       		.byte	0x8
ARM GAS  C:\Users\jo\AppData\Local\Temp\ccQH7AaA.s 			page 20


 1064 04b2 BF01     		.2byte	0x1bf
 1065 04b4 69070000 		.4byte	0x769
 1066 04b8 A804     		.2byte	0x4a8
 1067 04ba 10       		.uleb128 0x10
 1068 04bb 90050000 		.4byte	.LASF88
 1069 04bf 08       		.byte	0x8
 1070 04c0 C501     		.2byte	0x1c5
 1071 04c2 F4070000 		.4byte	0x7f4
 1072 04c6 E004     		.2byte	0x4e0
 1073 04c8 00       		.byte	0
 1074 04c9 04       		.uleb128 0x4
 1075 04ca 04       		.byte	0x4
 1076 04cb 07       		.byte	0x7
 1077 04cc 0F000000 		.4byte	.LASF89
 1078 04d0 12       		.uleb128 0x12
 1079 04d1 1C       		.byte	0x1c
 1080 04d2 09       		.byte	0x9
 1081 04d3 0903     		.2byte	0x309
 1082 04d5 33050000 		.4byte	0x533
 1083 04d9 08       		.uleb128 0x8
 1084 04da 535200   		.ascii	"SR\000"
 1085 04dd 09       		.byte	0x9
 1086 04de 0B03     		.2byte	0x30b
 1087 04e0 E9000000 		.4byte	0xe9
 1088 04e4 00       		.byte	0
 1089 04e5 08       		.uleb128 0x8
 1090 04e6 445200   		.ascii	"DR\000"
 1091 04e9 09       		.byte	0x9
 1092 04ea 0C03     		.2byte	0x30c
 1093 04ec E9000000 		.4byte	0xe9
 1094 04f0 04       		.byte	0x4
 1095 04f1 08       		.uleb128 0x8
 1096 04f2 42525200 		.ascii	"BRR\000"
 1097 04f6 09       		.byte	0x9
 1098 04f7 0D03     		.2byte	0x30d
 1099 04f9 E9000000 		.4byte	0xe9
 1100 04fd 08       		.byte	0x8
 1101 04fe 08       		.uleb128 0x8
 1102 04ff 43523100 		.ascii	"CR1\000"
 1103 0503 09       		.byte	0x9
 1104 0504 0E03     		.2byte	0x30e
 1105 0506 E9000000 		.4byte	0xe9
 1106 050a 0C       		.byte	0xc
 1107 050b 08       		.uleb128 0x8
 1108 050c 43523200 		.ascii	"CR2\000"
 1109 0510 09       		.byte	0x9
 1110 0511 0F03     		.2byte	0x30f
 1111 0513 E9000000 		.4byte	0xe9
 1112 0517 10       		.byte	0x10
 1113 0518 08       		.uleb128 0x8
 1114 0519 43523300 		.ascii	"CR3\000"
 1115 051d 09       		.byte	0x9
 1116 051e 1003     		.2byte	0x310
 1117 0520 E9000000 		.4byte	0xe9
 1118 0524 14       		.byte	0x14
 1119 0525 09       		.uleb128 0x9
 1120 0526 00050000 		.4byte	.LASF90
ARM GAS  C:\Users\jo\AppData\Local\Temp\ccQH7AaA.s 			page 21


 1121 052a 09       		.byte	0x9
 1122 052b 1103     		.2byte	0x311
 1123 052d E9000000 		.4byte	0xe9
 1124 0531 18       		.byte	0x18
 1125 0532 00       		.byte	0
 1126 0533 13       		.uleb128 0x13
 1127 0534 D5020000 		.4byte	.LASF91
 1128 0538 09       		.byte	0x9
 1129 0539 1203     		.2byte	0x312
 1130 053b D0040000 		.4byte	0x4d0
 1131 053f 03       		.uleb128 0x3
 1132 0540 B7010000 		.4byte	.LASF92
 1133 0544 0A       		.byte	0xa
 1134 0545 85       		.byte	0x85
 1135 0546 5A030000 		.4byte	0x35a
 1136 054a 03       		.uleb128 0x3
 1137 054b CA020000 		.4byte	.LASF93
 1138 054f 0A       		.byte	0xa
 1139 0550 8D       		.byte	0x8d
 1140 0551 D9000000 		.4byte	0xd9
 1141 0555 06       		.uleb128 0x6
 1142 0556 01020000 		.4byte	.LASF94
 1143 055a 04       		.byte	0x4
 1144 055b 0A       		.byte	0xa
 1145 055c A9       		.byte	0xa9
 1146 055d 6E050000 		.4byte	0x56e
 1147 0561 14       		.uleb128 0x14
 1148 0562 72313300 		.ascii	"r13\000"
 1149 0566 0A       		.byte	0xa
 1150 0567 AA       		.byte	0xaa
 1151 0568 E9050000 		.4byte	0x5e9
 1152 056c 00       		.byte	0
 1153 056d 00       		.byte	0
 1154 056e 06       		.uleb128 0x6
 1155 056f 1A060000 		.4byte	.LASF95
 1156 0573 24       		.byte	0x24
 1157 0574 0B       		.byte	0xb
 1158 0575 F4       		.byte	0xf4
 1159 0576 E9050000 		.4byte	0x5e9
 1160 057a 08       		.uleb128 0x8
 1161 057b 723400   		.ascii	"r4\000"
 1162 057e 0B       		.byte	0xb
 1163 057f 0701     		.2byte	0x107
 1164 0581 3F050000 		.4byte	0x53f
 1165 0585 00       		.byte	0
 1166 0586 08       		.uleb128 0x8
 1167 0587 723500   		.ascii	"r5\000"
 1168 058a 0B       		.byte	0xb
 1169 058b 0801     		.2byte	0x108
 1170 058d 3F050000 		.4byte	0x53f
 1171 0591 04       		.byte	0x4
 1172 0592 08       		.uleb128 0x8
 1173 0593 723600   		.ascii	"r6\000"
 1174 0596 0B       		.byte	0xb
 1175 0597 0901     		.2byte	0x109
 1176 0599 3F050000 		.4byte	0x53f
 1177 059d 08       		.byte	0x8
ARM GAS  C:\Users\jo\AppData\Local\Temp\ccQH7AaA.s 			page 22


 1178 059e 08       		.uleb128 0x8
 1179 059f 723700   		.ascii	"r7\000"
 1180 05a2 0B       		.byte	0xb
 1181 05a3 0A01     		.2byte	0x10a
 1182 05a5 3F050000 		.4byte	0x53f
 1183 05a9 0C       		.byte	0xc
 1184 05aa 08       		.uleb128 0x8
 1185 05ab 723800   		.ascii	"r8\000"
 1186 05ae 0B       		.byte	0xb
 1187 05af 0B01     		.2byte	0x10b
 1188 05b1 3F050000 		.4byte	0x53f
 1189 05b5 10       		.byte	0x10
 1190 05b6 08       		.uleb128 0x8
 1191 05b7 723900   		.ascii	"r9\000"
 1192 05ba 0B       		.byte	0xb
 1193 05bb 0C01     		.2byte	0x10c
 1194 05bd 3F050000 		.4byte	0x53f
 1195 05c1 14       		.byte	0x14
 1196 05c2 08       		.uleb128 0x8
 1197 05c3 72313000 		.ascii	"r10\000"
 1198 05c7 0B       		.byte	0xb
 1199 05c8 0D01     		.2byte	0x10d
 1200 05ca 3F050000 		.4byte	0x53f
 1201 05ce 18       		.byte	0x18
 1202 05cf 08       		.uleb128 0x8
 1203 05d0 72313100 		.ascii	"r11\000"
 1204 05d4 0B       		.byte	0xb
 1205 05d5 0E01     		.2byte	0x10e
 1206 05d7 3F050000 		.4byte	0x53f
 1207 05db 1C       		.byte	0x1c
 1208 05dc 08       		.uleb128 0x8
 1209 05dd 6C7200   		.ascii	"lr\000"
 1210 05e0 0B       		.byte	0xb
 1211 05e1 0F01     		.2byte	0x10f
 1212 05e3 3F050000 		.4byte	0x53f
 1213 05e7 20       		.byte	0x20
 1214 05e8 00       		.byte	0
 1215 05e9 0B       		.uleb128 0xb
 1216 05ea 04       		.byte	0x4
 1217 05eb 6E050000 		.4byte	0x56e
 1218 05ef 03       		.uleb128 0x3
 1219 05f0 89020000 		.4byte	.LASF96
 1220 05f4 0C       		.byte	0xc
 1221 05f5 28       		.byte	0x28
 1222 05f6 FA050000 		.4byte	0x5fa
 1223 05fa 06       		.uleb128 0x6
 1224 05fb DA030000 		.4byte	.LASF97
 1225 05ff 04       		.byte	0x4
 1226 0600 0D       		.byte	0xd
 1227 0601 00       		.byte	0
 1228 0602 11060000 		.4byte	0x611
 1229 0606 15       		.uleb128 0x15
 1230 0607 03040000 		.4byte	.LASF120
 1231 060b 5A030000 		.4byte	0x35a
 1232 060f 00       		.byte	0
 1233 0610 00       		.byte	0
 1234 0611 0B       		.uleb128 0xb
ARM GAS  C:\Users\jo\AppData\Local\Temp\ccQH7AaA.s 			page 23


 1235 0612 04       		.byte	0x4
 1236 0613 17060000 		.4byte	0x617
 1237 0617 04       		.uleb128 0x4
 1238 0618 01       		.byte	0x1
 1239 0619 08       		.byte	0x8
 1240 061a 9E020000 		.4byte	.LASF98
 1241 061e 0B       		.uleb128 0xb
 1242 061f 04       		.byte	0x4
 1243 0620 24060000 		.4byte	0x624
 1244 0624 16       		.uleb128 0x16
 1245 0625 17060000 		.4byte	0x617
 1246 0629 17       		.uleb128 0x17
 1247 062a 10       		.byte	0x10
 1248 062b 0E       		.byte	0xe
 1249 062c 57       		.byte	0x57
 1250 062d 62060000 		.4byte	0x662
 1251 0631 07       		.uleb128 0x7
 1252 0632 0D0A0000 		.4byte	.LASF99
 1253 0636 0E       		.byte	0xe
 1254 0637 5B       		.byte	0x5b
 1255 0638 67010000 		.4byte	0x167
 1256 063c 00       		.byte	0
 1257 063d 07       		.uleb128 0x7
 1258 063e E9000000 		.4byte	.LASF100
 1259 0642 0E       		.byte	0xe
 1260 0643 5F       		.byte	0x5f
 1261 0644 62060000 		.4byte	0x662
 1262 0648 04       		.byte	0x4
 1263 0649 07       		.uleb128 0x7
 1264 064a 79050000 		.4byte	.LASF101
 1265 064e 0E       		.byte	0xe
 1266 064f 63       		.byte	0x63
 1267 0650 5A030000 		.4byte	0x35a
 1268 0654 08       		.byte	0x8
 1269 0655 07       		.uleb128 0x7
 1270 0656 A9030000 		.4byte	.LASF102
 1271 065a 0E       		.byte	0xe
 1272 065b 67       		.byte	0x67
 1273 065c AD000000 		.4byte	0xad
 1274 0660 0C       		.byte	0xc
 1275 0661 00       		.byte	0
 1276 0662 0B       		.uleb128 0xb
 1277 0663 04       		.byte	0x4
 1278 0664 72010000 		.4byte	0x172
 1279 0668 03       		.uleb128 0x3
 1280 0669 89040000 		.4byte	.LASF103
 1281 066d 0E       		.byte	0xe
 1282 066e 68       		.byte	0x68
 1283 066f 29060000 		.4byte	0x629
 1284 0673 18       		.uleb128 0x18
 1285 0674 0804     		.2byte	0x408
 1286 0676 0E       		.byte	0xe
 1287 0677 6D       		.byte	0x6d
 1288 0678 A1060000 		.4byte	0x6a1
 1289 067c 07       		.uleb128 0x7
 1290 067d 05050000 		.4byte	.LASF104
 1291 0681 0E       		.byte	0xe
ARM GAS  C:\Users\jo\AppData\Local\Temp\ccQH7AaA.s 			page 24


 1292 0682 71       		.byte	0x71
 1293 0683 37000000 		.4byte	0x37
 1294 0687 00       		.byte	0
 1295 0688 07       		.uleb128 0x7
 1296 0689 230A0000 		.4byte	.LASF105
 1297 068d 0E       		.byte	0xe
 1298 068e 75       		.byte	0x75
 1299 068f A1060000 		.4byte	0x6a1
 1300 0693 04       		.byte	0x4
 1301 0694 07       		.uleb128 0x7
 1302 0695 FC050000 		.4byte	.LASF106
 1303 0699 0E       		.byte	0xe
 1304 069a 79       		.byte	0x79
 1305 069b A7060000 		.4byte	0x6a7
 1306 069f 08       		.byte	0x8
 1307 06a0 00       		.byte	0
 1308 06a1 0B       		.uleb128 0xb
 1309 06a2 04       		.byte	0x4
 1310 06a3 68060000 		.4byte	0x668
 1311 06a7 19       		.uleb128 0x19
 1312 06a8 68060000 		.4byte	0x668
 1313 06ac B7060000 		.4byte	0x6b7
 1314 06b0 1A       		.uleb128 0x1a
 1315 06b1 C9040000 		.4byte	0x4c9
 1316 06b5 3F       		.byte	0x3f
 1317 06b6 00       		.byte	0
 1318 06b7 03       		.uleb128 0x3
 1319 06b8 40030000 		.4byte	.LASF107
 1320 06bc 0E       		.byte	0xe
 1321 06bd 7A       		.byte	0x7a
 1322 06be 73060000 		.4byte	0x673
 1323 06c2 17       		.uleb128 0x17
 1324 06c3 04       		.byte	0x4
 1325 06c4 0F       		.byte	0xf
 1326 06c5 38       		.byte	0x38
 1327 06c6 D7060000 		.4byte	0x6d7
 1328 06ca 07       		.uleb128 0x7
 1329 06cb F5050000 		.4byte	.LASF108
 1330 06cf 0F       		.byte	0xf
 1331 06d0 3C       		.byte	0x3c
 1332 06d1 EE000000 		.4byte	0xee
 1333 06d5 00       		.byte	0
 1334 06d6 00       		.byte	0
 1335 06d7 03       		.uleb128 0x3
 1336 06d8 C2070000 		.4byte	.LASF109
 1337 06dc 0F       		.byte	0xf
 1338 06dd 3D       		.byte	0x3d
 1339 06de C2060000 		.4byte	0x6c2
 1340 06e2 17       		.uleb128 0x17
 1341 06e3 18       		.byte	0x18
 1342 06e4 0F       		.byte	0xf
 1343 06e5 48       		.byte	0x48
 1344 06e6 25070000 		.4byte	0x725
 1345 06ea 07       		.uleb128 0x7
 1346 06eb 28070000 		.4byte	.LASF110
 1347 06ef 0F       		.byte	0xf
 1348 06f0 49       		.byte	0x49
ARM GAS  C:\Users\jo\AppData\Local\Temp\ccQH7AaA.s 			page 25


 1349 06f1 EE000000 		.4byte	0xee
 1350 06f5 00       		.byte	0
 1351 06f6 07       		.uleb128 0x7
 1352 06f7 E3020000 		.4byte	.LASF111
 1353 06fb 0F       		.byte	0xf
 1354 06fc 4A       		.byte	0x4a
 1355 06fd EE000000 		.4byte	0xee
 1356 0701 04       		.byte	0x4
 1357 0702 07       		.uleb128 0x7
 1358 0703 960A0000 		.4byte	.LASF112
 1359 0707 0F       		.byte	0xf
 1360 0708 4B       		.byte	0x4b
 1361 0709 EE000000 		.4byte	0xee
 1362 070d 08       		.byte	0x8
 1363 070e 14       		.uleb128 0x14
 1364 070f 6E00     		.ascii	"n\000"
 1365 0711 0F       		.byte	0xf
 1366 0712 4C       		.byte	0x4c
 1367 0713 5C010000 		.4byte	0x15c
 1368 0717 0C       		.byte	0xc
 1369 0718 07       		.uleb128 0x7
 1370 0719 CF010000 		.4byte	.LASF113
 1371 071d 0F       		.byte	0xf
 1372 071e 4D       		.byte	0x4d
 1373 071f F9000000 		.4byte	0xf9
 1374 0723 10       		.byte	0x10
 1375 0724 00       		.byte	0
 1376 0725 03       		.uleb128 0x3
 1377 0726 EF000000 		.4byte	.LASF114
 1378 072a 0F       		.byte	0xf
 1379 072b 4E       		.byte	0x4e
 1380 072c E2060000 		.4byte	0x6e2
 1381 0730 17       		.uleb128 0x17
 1382 0731 38       		.byte	0x38
 1383 0732 10       		.byte	0x10
 1384 0733 38       		.byte	0x38
 1385 0734 69070000 		.4byte	0x769
 1386 0738 07       		.uleb128 0x7
 1387 0739 98040000 		.4byte	.LASF115
 1388 073d 10       		.byte	0x10
 1389 073e 39       		.byte	0x39
 1390 073f 5C010000 		.4byte	0x15c
 1391 0743 00       		.byte	0
 1392 0744 07       		.uleb128 0x7
 1393 0745 BC020000 		.4byte	.LASF116
 1394 0749 10       		.byte	0x10
 1395 074a 3A       		.byte	0x3a
 1396 074b 5C010000 		.4byte	0x15c
 1397 074f 04       		.byte	0x4
 1398 0750 07       		.uleb128 0x7
 1399 0751 B2030000 		.4byte	.LASF117
 1400 0755 10       		.byte	0x10
 1401 0756 3B       		.byte	0x3b
 1402 0757 25070000 		.4byte	0x725
 1403 075b 08       		.byte	0x8
 1404 075c 07       		.uleb128 0x7
 1405 075d 8C030000 		.4byte	.LASF118
ARM GAS  C:\Users\jo\AppData\Local\Temp\ccQH7AaA.s 			page 26


 1406 0761 10       		.byte	0x10
 1407 0762 3D       		.byte	0x3d
 1408 0763 25070000 		.4byte	0x725
 1409 0767 20       		.byte	0x20
 1410 0768 00       		.byte	0
 1411 0769 03       		.uleb128 0x3
 1412 076a DC050000 		.4byte	.LASF119
 1413 076e 10       		.byte	0x10
 1414 076f 3F       		.byte	0x3f
 1415 0770 30070000 		.4byte	0x730
 1416 0774 1B       		.uleb128 0x1b
 1417 0775 04       		.byte	0x4
 1418 0776 08       		.byte	0x8
 1419 0777 F6       		.byte	0xf6
 1420 0778 AC070000 		.4byte	0x7ac
 1421 077c 1C       		.uleb128 0x1c
 1422 077d AF090000 		.4byte	.LASF121
 1423 0781 08       		.byte	0x8
 1424 0782 FD       		.byte	0xfd
 1425 0783 30010000 		.4byte	0x130
 1426 0787 1D       		.uleb128 0x1d
 1427 0788 21010000 		.4byte	.LASF122
 1428 078c 08       		.byte	0x8
 1429 078d 0401     		.2byte	0x104
 1430 078f 30010000 		.4byte	0x130
 1431 0793 1D       		.uleb128 0x1d
 1432 0794 B5020000 		.4byte	.LASF123
 1433 0798 08       		.byte	0x8
 1434 0799 0B01     		.2byte	0x10b
 1435 079b 5A030000 		.4byte	0x35a
 1436 079f 1D       		.uleb128 0x1d
 1437 07a0 E6010000 		.4byte	.LASF124
 1438 07a4 08       		.byte	0x8
 1439 07a5 1201     		.2byte	0x112
 1440 07a7 3B010000 		.4byte	0x13b
 1441 07ab 00       		.byte	0
 1442 07ac 0B       		.uleb128 0xb
 1443 07ad 04       		.byte	0x4
 1444 07ae 4A050000 		.4byte	0x54a
 1445 07b2 06       		.uleb128 0x6
 1446 07b3 2C050000 		.4byte	.LASF125
 1447 07b7 10       		.byte	0x10
 1448 07b8 11       		.byte	0x11
 1449 07b9 39       		.byte	0x39
 1450 07ba E3070000 		.4byte	0x7e3
 1451 07be 07       		.uleb128 0x7
 1452 07bf CF040000 		.4byte	.LASF126
 1453 07c3 11       		.byte	0x11
 1454 07c4 3A       		.byte	0x3a
 1455 07c5 A7020000 		.4byte	0x2a7
 1456 07c9 00       		.byte	0
 1457 07ca 07       		.uleb128 0x7
 1458 07cb 12010000 		.4byte	.LASF127
 1459 07cf 11       		.byte	0x11
 1460 07d0 3C       		.byte	0x3c
 1461 07d1 62060000 		.4byte	0x662
 1462 07d5 08       		.byte	0x8
ARM GAS  C:\Users\jo\AppData\Local\Temp\ccQH7AaA.s 			page 27


 1463 07d6 07       		.uleb128 0x7
 1464 07d7 1C0A0000 		.4byte	.LASF128
 1465 07db 11       		.byte	0x11
 1466 07dc 3E       		.byte	0x3e
 1467 07dd 2F080000 		.4byte	0x82f
 1468 07e1 0C       		.byte	0xc
 1469 07e2 00       		.byte	0
 1470 07e3 0B       		.uleb128 0xb
 1471 07e4 04       		.byte	0x4
 1472 07e5 B2070000 		.4byte	0x7b2
 1473 07e9 0B       		.uleb128 0xb
 1474 07ea 04       		.byte	0x4
 1475 07eb 5C030000 		.4byte	0x35c
 1476 07ef 05       		.uleb128 0x5
 1477 07f0 1E060000 		.4byte	0x61e
 1478 07f4 19       		.uleb128 0x19
 1479 07f5 4A050000 		.4byte	0x54a
 1480 07f9 04080000 		.4byte	0x804
 1481 07fd 1A       		.uleb128 0x1a
 1482 07fe C9040000 		.4byte	0x4c9
 1483 0802 1E       		.byte	0x1e
 1484 0803 00       		.byte	0
 1485 0804 03       		.uleb128 0x3
 1486 0805 3F050000 		.4byte	.LASF129
 1487 0809 12       		.byte	0x12
 1488 080a 37       		.byte	0x37
 1489 080b 0F080000 		.4byte	0x80f
 1490 080f 0B       		.uleb128 0xb
 1491 0810 04       		.byte	0x4
 1492 0811 15080000 		.4byte	0x815
 1493 0815 1E       		.uleb128 0x1e
 1494 0816 30010000 		.4byte	0x130
 1495 081a 24080000 		.4byte	0x824
 1496 081e 0D       		.uleb128 0xd
 1497 081f 5A030000 		.4byte	0x35a
 1498 0823 00       		.byte	0
 1499 0824 03       		.uleb128 0x3
 1500 0825 69080000 		.4byte	.LASF130
 1501 0829 11       		.byte	0x11
 1502 082a 34       		.byte	0x34
 1503 082b B2070000 		.4byte	0x7b2
 1504 082f 0B       		.uleb128 0xb
 1505 0830 04       		.byte	0x4
 1506 0831 24080000 		.4byte	0x824
 1507 0835 03       		.uleb128 0x3
 1508 0836 E9020000 		.4byte	.LASF131
 1509 083a 13       		.byte	0x13
 1510 083b 34       		.byte	0x34
 1511 083c 40080000 		.4byte	0x840
 1512 0840 06       		.uleb128 0x6
 1513 0841 A0090000 		.4byte	.LASF132
 1514 0845 14       		.byte	0x14
 1515 0846 13       		.byte	0x13
 1516 0847 39       		.byte	0x39
 1517 0848 89080000 		.4byte	0x889
 1518 084c 07       		.uleb128 0x7
 1519 084d 1E040000 		.4byte	.LASF133
ARM GAS  C:\Users\jo\AppData\Local\Temp\ccQH7AaA.s 			page 28


 1520 0851 13       		.byte	0x13
 1521 0852 3A       		.byte	0x3a
 1522 0853 89080000 		.4byte	0x889
 1523 0857 00       		.byte	0
 1524 0858 07       		.uleb128 0x7
 1525 0859 A10A0000 		.4byte	.LASF134
 1526 085d 13       		.byte	0x13
 1527 085e 3D       		.byte	0x3d
 1528 085f 62060000 		.4byte	0x662
 1529 0863 04       		.byte	0x4
 1530 0864 07       		.uleb128 0x7
 1531 0865 EB050000 		.4byte	.LASF135
 1532 0869 13       		.byte	0x13
 1533 086a 3F       		.byte	0x3f
 1534 086b 3B010000 		.4byte	0x13b
 1535 086f 08       		.byte	0x8
 1536 0870 07       		.uleb128 0x7
 1537 0871 B7000000 		.4byte	.LASF136
 1538 0875 13       		.byte	0x13
 1539 0876 41       		.byte	0x41
 1540 0877 46010000 		.4byte	0x146
 1541 087b 0C       		.byte	0xc
 1542 087c 07       		.uleb128 0x7
 1543 087d D2050000 		.4byte	.LASF137
 1544 0881 13       		.byte	0x13
 1545 0882 43       		.byte	0x43
 1546 0883 46010000 		.4byte	0x146
 1547 0887 10       		.byte	0x10
 1548 0888 00       		.byte	0
 1549 0889 0B       		.uleb128 0xb
 1550 088a 04       		.byte	0x4
 1551 088b 35080000 		.4byte	0x835
 1552 088f 06       		.uleb128 0x6
 1553 0890 F1070000 		.4byte	.LASF138
 1554 0894 04       		.byte	0x4
 1555 0895 13       		.byte	0x13
 1556 0896 4A       		.byte	0x4a
 1557 0897 A8080000 		.4byte	0x8a8
 1558 089b 07       		.uleb128 0x7
 1559 089c 97030000 		.4byte	.LASF139
 1560 08a0 13       		.byte	0x13
 1561 08a1 4B       		.byte	0x4b
 1562 08a2 89080000 		.4byte	0x889
 1563 08a6 00       		.byte	0
 1564 08a7 00       		.byte	0
 1565 08a8 03       		.uleb128 0x3
 1566 08a9 0D050000 		.4byte	.LASF140
 1567 08ad 13       		.byte	0x13
 1568 08ae 4E       		.byte	0x4e
 1569 08af 8F080000 		.4byte	0x88f
 1570 08b3 03       		.uleb128 0x3
 1571 08b4 52080000 		.4byte	.LASF141
 1572 08b8 14       		.byte	0x14
 1573 08b9 3F       		.byte	0x3f
 1574 08ba BE080000 		.4byte	0x8be
 1575 08be 06       		.uleb128 0x6
 1576 08bf C0010000 		.4byte	.LASF142
ARM GAS  C:\Users\jo\AppData\Local\Temp\ccQH7AaA.s 			page 29


 1577 08c3 24       		.byte	0x24
 1578 08c4 14       		.byte	0x14
 1579 08c5 4D       		.byte	0x4d
 1580 08c6 2B090000 		.4byte	0x92b
 1581 08ca 07       		.uleb128 0x7
 1582 08cb 52070000 		.4byte	.LASF143
 1583 08cf 14       		.byte	0x14
 1584 08d0 4E       		.byte	0x4e
 1585 08d1 A7020000 		.4byte	0x2a7
 1586 08d5 00       		.byte	0
 1587 08d6 07       		.uleb128 0x7
 1588 08d7 9F030000 		.4byte	.LASF144
 1589 08db 14       		.byte	0x14
 1590 08dc 4F       		.byte	0x4f
 1591 08dd 2C000000 		.4byte	0x2c
 1592 08e1 08       		.byte	0x8
 1593 08e2 07       		.uleb128 0x7
 1594 08e3 46010000 		.4byte	.LASF145
 1595 08e7 14       		.byte	0x14
 1596 08e8 50       		.byte	0x50
 1597 08e9 4D090000 		.4byte	0x94d
 1598 08ed 0C       		.byte	0xc
 1599 08ee 07       		.uleb128 0x7
 1600 08ef 34010000 		.4byte	.LASF146
 1601 08f3 14       		.byte	0x14
 1602 08f4 51       		.byte	0x51
 1603 08f5 4D090000 		.4byte	0x94d
 1604 08f9 10       		.byte	0x10
 1605 08fa 07       		.uleb128 0x7
 1606 08fb 4B040000 		.4byte	.LASF147
 1607 08ff 14       		.byte	0x14
 1608 0900 53       		.byte	0x53
 1609 0901 4D090000 		.4byte	0x94d
 1610 0905 14       		.byte	0x14
 1611 0906 07       		.uleb128 0x7
 1612 0907 70010000 		.4byte	.LASF148
 1613 090b 14       		.byte	0x14
 1614 090c 54       		.byte	0x54
 1615 090d 4D090000 		.4byte	0x94d
 1616 0911 18       		.byte	0x18
 1617 0912 07       		.uleb128 0x7
 1618 0913 4F010000 		.4byte	.LASF149
 1619 0917 14       		.byte	0x14
 1620 0918 55       		.byte	0x55
 1621 0919 2B090000 		.4byte	0x92b
 1622 091d 1C       		.byte	0x1c
 1623 091e 07       		.uleb128 0x7
 1624 091f 27020000 		.4byte	.LASF150
 1625 0923 14       		.byte	0x14
 1626 0924 56       		.byte	0x56
 1627 0925 5A030000 		.4byte	0x35a
 1628 0929 20       		.byte	0x20
 1629 092a 00       		.byte	0
 1630 092b 03       		.uleb128 0x3
 1631 092c 50050000 		.4byte	.LASF151
 1632 0930 14       		.byte	0x14
 1633 0931 42       		.byte	0x42
ARM GAS  C:\Users\jo\AppData\Local\Temp\ccQH7AaA.s 			page 30


 1634 0932 36090000 		.4byte	0x936
 1635 0936 0B       		.uleb128 0xb
 1636 0937 04       		.byte	0x4
 1637 0938 3C090000 		.4byte	0x93c
 1638 093c 0C       		.uleb128 0xc
 1639 093d 47090000 		.4byte	0x947
 1640 0941 0D       		.uleb128 0xd
 1641 0942 47090000 		.4byte	0x947
 1642 0946 00       		.byte	0
 1643 0947 0B       		.uleb128 0xb
 1644 0948 04       		.byte	0x4
 1645 0949 B3080000 		.4byte	0x8b3
 1646 094d 0B       		.uleb128 0xb
 1647 094e 04       		.byte	0x4
 1648 094f AD000000 		.4byte	0xad
 1649 0953 03       		.uleb128 0x3
 1650 0954 92090000 		.4byte	.LASF152
 1651 0958 14       		.byte	0x14
 1652 0959 64       		.byte	0x64
 1653 095a B3080000 		.4byte	0x8b3
 1654 095e 03       		.uleb128 0x3
 1655 095f E1090000 		.4byte	.LASF153
 1656 0963 14       		.byte	0x14
 1657 0964 71       		.byte	0x71
 1658 0965 B3080000 		.4byte	0x8b3
 1659 0969 06       		.uleb128 0x6
 1660 096a 5C070000 		.4byte	.LASF154
 1661 096e 10       		.byte	0x10
 1662 096f 15       		.byte	0x15
 1663 0970 40       		.byte	0x40
 1664 0971 A6090000 		.4byte	0x9a6
 1665 0975 07       		.uleb128 0x7
 1666 0976 9C000000 		.4byte	.LASF155
 1667 097a 15       		.byte	0x15
 1668 097b 41       		.byte	0x41
 1669 097c CA090000 		.4byte	0x9ca
 1670 0980 00       		.byte	0
 1671 0981 07       		.uleb128 0x7
 1672 0982 8B050000 		.4byte	.LASF156
 1673 0986 15       		.byte	0x15
 1674 0987 41       		.byte	0x41
 1675 0988 E9090000 		.4byte	0x9e9
 1676 098c 04       		.byte	0x4
 1677 098d 14       		.uleb128 0x14
 1678 098e 70757400 		.ascii	"put\000"
 1679 0992 15       		.byte	0x15
 1680 0993 41       		.byte	0x41
 1681 0994 030A0000 		.4byte	0xa03
 1682 0998 08       		.byte	0x8
 1683 0999 14       		.uleb128 0x14
 1684 099a 67657400 		.ascii	"get\000"
 1685 099e 15       		.byte	0x15
 1686 099f 41       		.byte	0x41
 1687 09a0 0F080000 		.4byte	0x80f
 1688 09a4 0C       		.byte	0xc
 1689 09a5 00       		.byte	0
 1690 09a6 1E       		.uleb128 0x1e
ARM GAS  C:\Users\jo\AppData\Local\Temp\ccQH7AaA.s 			page 31


 1691 09a7 2C000000 		.4byte	0x2c
 1692 09ab BF090000 		.4byte	0x9bf
 1693 09af 0D       		.uleb128 0xd
 1694 09b0 5A030000 		.4byte	0x35a
 1695 09b4 0D       		.uleb128 0xd
 1696 09b5 BF090000 		.4byte	0x9bf
 1697 09b9 0D       		.uleb128 0xd
 1698 09ba 2C000000 		.4byte	0x2c
 1699 09be 00       		.byte	0
 1700 09bf 0B       		.uleb128 0xb
 1701 09c0 04       		.byte	0x4
 1702 09c1 C5090000 		.4byte	0x9c5
 1703 09c5 16       		.uleb128 0x16
 1704 09c6 AD000000 		.4byte	0xad
 1705 09ca 0B       		.uleb128 0xb
 1706 09cb 04       		.byte	0x4
 1707 09cc A6090000 		.4byte	0x9a6
 1708 09d0 1E       		.uleb128 0x1e
 1709 09d1 2C000000 		.4byte	0x2c
 1710 09d5 E9090000 		.4byte	0x9e9
 1711 09d9 0D       		.uleb128 0xd
 1712 09da 5A030000 		.4byte	0x35a
 1713 09de 0D       		.uleb128 0xd
 1714 09df 4D090000 		.4byte	0x94d
 1715 09e3 0D       		.uleb128 0xd
 1716 09e4 2C000000 		.4byte	0x2c
 1717 09e8 00       		.byte	0
 1718 09e9 0B       		.uleb128 0xb
 1719 09ea 04       		.byte	0x4
 1720 09eb D0090000 		.4byte	0x9d0
 1721 09ef 1E       		.uleb128 0x1e
 1722 09f0 30010000 		.4byte	0x130
 1723 09f4 030A0000 		.4byte	0xa03
 1724 09f8 0D       		.uleb128 0xd
 1725 09f9 5A030000 		.4byte	0x35a
 1726 09fd 0D       		.uleb128 0xd
 1727 09fe AD000000 		.4byte	0xad
 1728 0a02 00       		.byte	0
 1729 0a03 0B       		.uleb128 0xb
 1730 0a04 04       		.byte	0x4
 1731 0a05 EF090000 		.4byte	0x9ef
 1732 0a09 17       		.uleb128 0x17
 1733 0a0a 04       		.byte	0x4
 1734 0a0b 15       		.byte	0x15
 1735 0a0c 49       		.byte	0x49
 1736 0a0d 1E0A0000 		.4byte	0xa1e
 1737 0a11 14       		.uleb128 0x14
 1738 0a12 766D7400 		.ascii	"vmt\000"
 1739 0a16 15       		.byte	0x15
 1740 0a17 4B       		.byte	0x4b
 1741 0a18 1E0A0000 		.4byte	0xa1e
 1742 0a1c 00       		.byte	0
 1743 0a1d 00       		.byte	0
 1744 0a1e 0B       		.uleb128 0xb
 1745 0a1f 04       		.byte	0x4
 1746 0a20 240A0000 		.4byte	0xa24
 1747 0a24 16       		.uleb128 0x16
ARM GAS  C:\Users\jo\AppData\Local\Temp\ccQH7AaA.s 			page 32


 1748 0a25 69090000 		.4byte	0x969
 1749 0a29 03       		.uleb128 0x3
 1750 0a2a A2000000 		.4byte	.LASF157
 1751 0a2e 15       		.byte	0x15
 1752 0a2f 4D       		.byte	0x4d
 1753 0a30 090A0000 		.4byte	0xa09
 1754 0a34 1E       		.uleb128 0x1e
 1755 0a35 30010000 		.4byte	0x130
 1756 0a39 4D0A0000 		.4byte	0xa4d
 1757 0a3d 0D       		.uleb128 0xd
 1758 0a3e 5A030000 		.4byte	0x35a
 1759 0a42 0D       		.uleb128 0xd
 1760 0a43 AD000000 		.4byte	0xad
 1761 0a47 0D       		.uleb128 0xd
 1762 0a48 67010000 		.4byte	0x167
 1763 0a4c 00       		.byte	0
 1764 0a4d 0B       		.uleb128 0xb
 1765 0a4e 04       		.byte	0x4
 1766 0a4f 340A0000 		.4byte	0xa34
 1767 0a53 1E       		.uleb128 0x1e
 1768 0a54 30010000 		.4byte	0x130
 1769 0a58 670A0000 		.4byte	0xa67
 1770 0a5c 0D       		.uleb128 0xd
 1771 0a5d 5A030000 		.4byte	0x35a
 1772 0a61 0D       		.uleb128 0xd
 1773 0a62 67010000 		.4byte	0x167
 1774 0a66 00       		.byte	0
 1775 0a67 0B       		.uleb128 0xb
 1776 0a68 04       		.byte	0x4
 1777 0a69 530A0000 		.4byte	0xa53
 1778 0a6d 1E       		.uleb128 0x1e
 1779 0a6e 2C000000 		.4byte	0x2c
 1780 0a72 8B0A0000 		.4byte	0xa8b
 1781 0a76 0D       		.uleb128 0xd
 1782 0a77 5A030000 		.4byte	0x35a
 1783 0a7b 0D       		.uleb128 0xd
 1784 0a7c BF090000 		.4byte	0x9bf
 1785 0a80 0D       		.uleb128 0xd
 1786 0a81 2C000000 		.4byte	0x2c
 1787 0a85 0D       		.uleb128 0xd
 1788 0a86 67010000 		.4byte	0x167
 1789 0a8a 00       		.byte	0
 1790 0a8b 0B       		.uleb128 0xb
 1791 0a8c 04       		.byte	0x4
 1792 0a8d 6D0A0000 		.4byte	0xa6d
 1793 0a91 1E       		.uleb128 0x1e
 1794 0a92 2C000000 		.4byte	0x2c
 1795 0a96 AF0A0000 		.4byte	0xaaf
 1796 0a9a 0D       		.uleb128 0xd
 1797 0a9b 5A030000 		.4byte	0x35a
 1798 0a9f 0D       		.uleb128 0xd
 1799 0aa0 4D090000 		.4byte	0x94d
 1800 0aa4 0D       		.uleb128 0xd
 1801 0aa5 2C000000 		.4byte	0x2c
 1802 0aa9 0D       		.uleb128 0xd
 1803 0aaa 67010000 		.4byte	0x167
 1804 0aae 00       		.byte	0
ARM GAS  C:\Users\jo\AppData\Local\Temp\ccQH7AaA.s 			page 33


 1805 0aaf 0B       		.uleb128 0xb
 1806 0ab0 04       		.byte	0x4
 1807 0ab1 910A0000 		.4byte	0xa91
 1808 0ab5 04       		.uleb128 0x4
 1809 0ab6 01       		.byte	0x1
 1810 0ab7 02       		.byte	0x2
 1811 0ab8 98020000 		.4byte	.LASF158
 1812 0abc 17       		.uleb128 0x17
 1813 0abd 04       		.byte	0x4
 1814 0abe 16       		.byte	0x16
 1815 0abf B3       		.byte	0xb3
 1816 0ac0 DD0A0000 		.4byte	0xadd
 1817 0ac4 14       		.uleb128 0x14
 1818 0ac5 73657400 		.ascii	"set\000"
 1819 0ac9 16       		.byte	0x16
 1820 0aca B4       		.byte	0xb4
 1821 0acb B8000000 		.4byte	0xb8
 1822 0acf 00       		.byte	0
 1823 0ad0 07       		.uleb128 0x7
 1824 0ad1 7E030000 		.4byte	.LASF159
 1825 0ad5 16       		.byte	0x16
 1826 0ad6 B5       		.byte	0xb5
 1827 0ad7 B8000000 		.4byte	0xb8
 1828 0adb 02       		.byte	0x2
 1829 0adc 00       		.byte	0
 1830 0add 1B       		.uleb128 0x1b
 1831 0ade 04       		.byte	0x4
 1832 0adf 16       		.byte	0x16
 1833 0ae0 B1       		.byte	0xb1
 1834 0ae1 F80A0000 		.4byte	0xaf8
 1835 0ae5 1F       		.uleb128 0x1f
 1836 0ae6 5700     		.ascii	"W\000"
 1837 0ae8 16       		.byte	0x16
 1838 0ae9 B2       		.byte	0xb2
 1839 0aea CE000000 		.4byte	0xce
 1840 0aee 1F       		.uleb128 0x1f
 1841 0aef 4800     		.ascii	"H\000"
 1842 0af1 16       		.byte	0x16
 1843 0af2 B6       		.byte	0xb6
 1844 0af3 BC0A0000 		.4byte	0xabc
 1845 0af7 00       		.byte	0
 1846 0af8 17       		.uleb128 0x17
 1847 0af9 2C       		.byte	0x2c
 1848 0afa 16       		.byte	0x16
 1849 0afb A9       		.byte	0xa9
 1850 0afc 850B0000 		.4byte	0xb85
 1851 0b00 07       		.uleb128 0x7
 1852 0b01 8C090000 		.4byte	.LASF160
 1853 0b05 16       		.byte	0x16
 1854 0b06 AB       		.byte	0xab
 1855 0b07 E9000000 		.4byte	0xe9
 1856 0b0b 00       		.byte	0
 1857 0b0c 07       		.uleb128 0x7
 1858 0b0d 4B070000 		.4byte	.LASF161
 1859 0b11 16       		.byte	0x16
 1860 0b12 AC       		.byte	0xac
 1861 0b13 E9000000 		.4byte	0xe9
ARM GAS  C:\Users\jo\AppData\Local\Temp\ccQH7AaA.s 			page 34


 1862 0b17 04       		.byte	0x4
 1863 0b18 07       		.uleb128 0x7
 1864 0b19 9E040000 		.4byte	.LASF162
 1865 0b1d 16       		.byte	0x16
 1866 0b1e AD       		.byte	0xad
 1867 0b1f E9000000 		.4byte	0xe9
 1868 0b23 08       		.byte	0x8
 1869 0b24 07       		.uleb128 0x7
 1870 0b25 3A010000 		.4byte	.LASF163
 1871 0b29 16       		.byte	0x16
 1872 0b2a AE       		.byte	0xae
 1873 0b2b E9000000 		.4byte	0xe9
 1874 0b2f 0C       		.byte	0xc
 1875 0b30 14       		.uleb128 0x14
 1876 0b31 49445200 		.ascii	"IDR\000"
 1877 0b35 16       		.byte	0x16
 1878 0b36 AF       		.byte	0xaf
 1879 0b37 E9000000 		.4byte	0xe9
 1880 0b3b 10       		.byte	0x10
 1881 0b3c 14       		.uleb128 0x14
 1882 0b3d 4F445200 		.ascii	"ODR\000"
 1883 0b41 16       		.byte	0x16
 1884 0b42 B0       		.byte	0xb0
 1885 0b43 E9000000 		.4byte	0xe9
 1886 0b47 14       		.byte	0x14
 1887 0b48 07       		.uleb128 0x7
 1888 0b49 5D080000 		.4byte	.LASF164
 1889 0b4d 16       		.byte	0x16
 1890 0b4e B7       		.byte	0xb7
 1891 0b4f 850B0000 		.4byte	0xb85
 1892 0b53 18       		.byte	0x18
 1893 0b54 07       		.uleb128 0x7
 1894 0b55 53040000 		.4byte	.LASF165
 1895 0b59 16       		.byte	0x16
 1896 0b5a B8       		.byte	0xb8
 1897 0b5b E9000000 		.4byte	0xe9
 1898 0b5f 1C       		.byte	0x1c
 1899 0b60 07       		.uleb128 0x7
 1900 0b61 18070000 		.4byte	.LASF166
 1901 0b65 16       		.byte	0x16
 1902 0b66 B9       		.byte	0xb9
 1903 0b67 E9000000 		.4byte	0xe9
 1904 0b6b 20       		.byte	0x20
 1905 0b6c 07       		.uleb128 0x7
 1906 0b6d 13070000 		.4byte	.LASF167
 1907 0b71 16       		.byte	0x16
 1908 0b72 BA       		.byte	0xba
 1909 0b73 E9000000 		.4byte	0xe9
 1910 0b77 24       		.byte	0x24
 1911 0b78 14       		.uleb128 0x14
 1912 0b79 42525200 		.ascii	"BRR\000"
 1913 0b7d 16       		.byte	0x16
 1914 0b7e BB       		.byte	0xbb
 1915 0b7f E9000000 		.4byte	0xe9
 1916 0b83 28       		.byte	0x28
 1917 0b84 00       		.byte	0
 1918 0b85 05       		.uleb128 0x5
ARM GAS  C:\Users\jo\AppData\Local\Temp\ccQH7AaA.s 			page 35


 1919 0b86 DD0A0000 		.4byte	0xadd
 1920 0b8a 03       		.uleb128 0x3
 1921 0b8b 2E020000 		.4byte	.LASF168
 1922 0b8f 16       		.byte	0x16
 1923 0b90 BC       		.byte	0xbc
 1924 0b91 F80A0000 		.4byte	0xaf8
 1925 0b95 13       		.uleb128 0x13
 1926 0b96 FA020000 		.4byte	.LASF169
 1927 0b9a 16       		.byte	0x16
 1928 0b9b 0E01     		.2byte	0x10e
 1929 0b9d CE000000 		.4byte	0xce
 1930 0ba1 20       		.uleb128 0x20
 1931 0ba2 01       		.byte	0x1
 1932 0ba3 17       		.byte	0x17
 1933 0ba4 58       		.byte	0x58
 1934 0ba5 BC0B0000 		.4byte	0xbbc
 1935 0ba9 21       		.uleb128 0x21
 1936 0baa 7F020000 		.4byte	.LASF170
 1937 0bae 00       		.sleb128 0
 1938 0baf 21       		.uleb128 0x21
 1939 0bb0 050A0000 		.4byte	.LASF171
 1940 0bb4 01       		.sleb128 1
 1941 0bb5 21       		.uleb128 0x21
 1942 0bb6 B1070000 		.4byte	.LASF172
 1943 0bba 02       		.sleb128 2
 1944 0bbb 00       		.byte	0
 1945 0bbc 03       		.uleb128 0x3
 1946 0bbd 8C070000 		.4byte	.LASF173
 1947 0bc1 17       		.byte	0x17
 1948 0bc2 5C       		.byte	0x5c
 1949 0bc3 A10B0000 		.4byte	0xba1
 1950 0bc7 03       		.uleb128 0x3
 1951 0bc8 35070000 		.4byte	.LASF174
 1952 0bcc 17       		.byte	0x17
 1953 0bcd 61       		.byte	0x61
 1954 0bce D20B0000 		.4byte	0xbd2
 1955 0bd2 06       		.uleb128 0x6
 1956 0bd3 35070000 		.4byte	.LASF174
 1957 0bd7 78       		.byte	0x78
 1958 0bd8 17       		.byte	0x17
 1959 0bd9 7B       		.byte	0x7b
 1960 0bda 3D0C0000 		.4byte	0xc3d
 1961 0bde 14       		.uleb128 0x14
 1962 0bdf 766D7400 		.ascii	"vmt\000"
 1963 0be3 17       		.byte	0x17
 1964 0be4 7D       		.byte	0x7d
 1965 0be5 EE0C0000 		.4byte	0xcee
 1966 0be9 00       		.byte	0
 1967 0bea 07       		.uleb128 0x7
 1968 0beb 73050000 		.4byte	.LASF175
 1969 0bef 17       		.byte	0x17
 1970 0bf0 7E       		.byte	0x7e
 1971 0bf1 A8080000 		.4byte	0x8a8
 1972 0bf5 04       		.byte	0x4
 1973 0bf6 07       		.uleb128 0x7
 1974 0bf7 C0000000 		.4byte	.LASF176
 1975 0bfb 17       		.byte	0x17
ARM GAS  C:\Users\jo\AppData\Local\Temp\ccQH7AaA.s 			page 36


 1976 0bfc 7E       		.byte	0x7e
 1977 0bfd BC0B0000 		.4byte	0xbbc
 1978 0c01 08       		.byte	0x8
 1979 0c02 07       		.uleb128 0x7
 1980 0c03 12080000 		.4byte	.LASF177
 1981 0c07 17       		.byte	0x17
 1982 0c08 7E       		.byte	0x7e
 1983 0c09 53090000 		.4byte	0x953
 1984 0c0d 0C       		.byte	0xc
 1985 0c0e 07       		.uleb128 0x7
 1986 0c0f B0010000 		.4byte	.LASF178
 1987 0c13 17       		.byte	0x17
 1988 0c14 7E       		.byte	0x7e
 1989 0c15 5E090000 		.4byte	0x95e
 1990 0c19 30       		.byte	0x30
 1991 0c1a 14       		.uleb128 0x14
 1992 0c1b 696200   		.ascii	"ib\000"
 1993 0c1e 17       		.byte	0x17
 1994 0c1f 7E       		.byte	0x7e
 1995 0c20 F90C0000 		.4byte	0xcf9
 1996 0c24 54       		.byte	0x54
 1997 0c25 14       		.uleb128 0x14
 1998 0c26 6F6200   		.ascii	"ob\000"
 1999 0c29 17       		.byte	0x17
 2000 0c2a 7E       		.byte	0x7e
 2001 0c2b F90C0000 		.4byte	0xcf9
 2002 0c2f 64       		.byte	0x64
 2003 0c30 07       		.uleb128 0x7
 2004 0c31 C9010000 		.4byte	.LASF179
 2005 0c35 17       		.byte	0x17
 2006 0c36 7E       		.byte	0x7e
 2007 0c37 090D0000 		.4byte	0xd09
 2008 0c3b 74       		.byte	0x74
 2009 0c3c 00       		.byte	0
 2010 0c3d 17       		.uleb128 0x17
 2011 0c3e 0C       		.byte	0xc
 2012 0c3f 18       		.byte	0x18
 2013 0c40 D7       		.byte	0xd7
 2014 0c41 760C0000 		.4byte	0xc76
 2015 0c45 07       		.uleb128 0x7
 2016 0c46 52030000 		.4byte	.LASF180
 2017 0c4a 18       		.byte	0x18
 2018 0c4b DB       		.byte	0xdb
 2019 0c4c CE000000 		.4byte	0xce
 2020 0c50 00       		.byte	0
 2021 0c51 14       		.uleb128 0x14
 2022 0c52 63723100 		.ascii	"cr1\000"
 2023 0c56 18       		.byte	0x18
 2024 0c57 E0       		.byte	0xe0
 2025 0c58 B8000000 		.4byte	0xb8
 2026 0c5c 04       		.byte	0x4
 2027 0c5d 14       		.uleb128 0x14
 2028 0c5e 63723200 		.ascii	"cr2\000"
 2029 0c62 18       		.byte	0x18
 2030 0c63 E4       		.byte	0xe4
 2031 0c64 B8000000 		.4byte	0xb8
 2032 0c68 06       		.byte	0x6
ARM GAS  C:\Users\jo\AppData\Local\Temp\ccQH7AaA.s 			page 37


 2033 0c69 14       		.uleb128 0x14
 2034 0c6a 63723300 		.ascii	"cr3\000"
 2035 0c6e 18       		.byte	0x18
 2036 0c6f E8       		.byte	0xe8
 2037 0c70 B8000000 		.4byte	0xb8
 2038 0c74 08       		.byte	0x8
 2039 0c75 00       		.byte	0
 2040 0c76 03       		.uleb128 0x3
 2041 0c77 49000000 		.4byte	.LASF181
 2042 0c7b 18       		.byte	0x18
 2043 0c7c E9       		.byte	0xe9
 2044 0c7d 3D0C0000 		.4byte	0xc3d
 2045 0c81 06       		.uleb128 0x6
 2046 0c82 1C050000 		.4byte	.LASF182
 2047 0c86 20       		.byte	0x20
 2048 0c87 17       		.byte	0x17
 2049 0c88 70       		.byte	0x70
 2050 0c89 EE0C0000 		.4byte	0xcee
 2051 0c8d 07       		.uleb128 0x7
 2052 0c8e 9C000000 		.4byte	.LASF155
 2053 0c92 17       		.byte	0x17
 2054 0c93 71       		.byte	0x71
 2055 0c94 CA090000 		.4byte	0x9ca
 2056 0c98 00       		.byte	0
 2057 0c99 07       		.uleb128 0x7
 2058 0c9a 8B050000 		.4byte	.LASF156
 2059 0c9e 17       		.byte	0x17
 2060 0c9f 71       		.byte	0x71
 2061 0ca0 E9090000 		.4byte	0x9e9
 2062 0ca4 04       		.byte	0x4
 2063 0ca5 14       		.uleb128 0x14
 2064 0ca6 70757400 		.ascii	"put\000"
 2065 0caa 17       		.byte	0x17
 2066 0cab 71       		.byte	0x71
 2067 0cac 030A0000 		.4byte	0xa03
 2068 0cb0 08       		.byte	0x8
 2069 0cb1 14       		.uleb128 0x14
 2070 0cb2 67657400 		.ascii	"get\000"
 2071 0cb6 17       		.byte	0x17
 2072 0cb7 71       		.byte	0x71
 2073 0cb8 0F080000 		.4byte	0x80f
 2074 0cbc 0C       		.byte	0xc
 2075 0cbd 07       		.uleb128 0x7
 2076 0cbe CF000000 		.4byte	.LASF183
 2077 0cc2 17       		.byte	0x17
 2078 0cc3 71       		.byte	0x71
 2079 0cc4 4D0A0000 		.4byte	0xa4d
 2080 0cc8 10       		.byte	0x10
 2081 0cc9 07       		.uleb128 0x7
 2082 0cca C5020000 		.4byte	.LASF184
 2083 0cce 17       		.byte	0x17
 2084 0ccf 71       		.byte	0x71
 2085 0cd0 670A0000 		.4byte	0xa67
 2086 0cd4 14       		.byte	0x14
 2087 0cd5 07       		.uleb128 0x7
 2088 0cd6 56000000 		.4byte	.LASF185
 2089 0cda 17       		.byte	0x17
ARM GAS  C:\Users\jo\AppData\Local\Temp\ccQH7AaA.s 			page 38


 2090 0cdb 71       		.byte	0x71
 2091 0cdc 8B0A0000 		.4byte	0xa8b
 2092 0ce0 18       		.byte	0x18
 2093 0ce1 07       		.uleb128 0x7
 2094 0ce2 40010000 		.4byte	.LASF186
 2095 0ce6 17       		.byte	0x17
 2096 0ce7 71       		.byte	0x71
 2097 0ce8 AF0A0000 		.4byte	0xaaf
 2098 0cec 1C       		.byte	0x1c
 2099 0ced 00       		.byte	0
 2100 0cee 0B       		.uleb128 0xb
 2101 0cef 04       		.byte	0x4
 2102 0cf0 F40C0000 		.4byte	0xcf4
 2103 0cf4 16       		.uleb128 0x16
 2104 0cf5 810C0000 		.4byte	0xc81
 2105 0cf9 19       		.uleb128 0x19
 2106 0cfa AD000000 		.4byte	0xad
 2107 0cfe 090D0000 		.4byte	0xd09
 2108 0d02 1A       		.uleb128 0x1a
 2109 0d03 C9040000 		.4byte	0x4c9
 2110 0d07 0F       		.byte	0xf
 2111 0d08 00       		.byte	0
 2112 0d09 0B       		.uleb128 0xb
 2113 0d0a 04       		.byte	0x4
 2114 0d0b 33050000 		.4byte	0x533
 2115 0d0f 19       		.uleb128 0x19
 2116 0d10 4A050000 		.4byte	0x54a
 2117 0d14 1F0D0000 		.4byte	0xd1f
 2118 0d18 1A       		.uleb128 0x1a
 2119 0d19 C9040000 		.4byte	0x4c9
 2120 0d1d 2C       		.byte	0x2c
 2121 0d1e 00       		.byte	0
 2122 0d1f 06       		.uleb128 0x6
 2123 0d20 7F090000 		.4byte	.LASF187
 2124 0d24 10       		.byte	0x10
 2125 0d25 19       		.byte	0x19
 2126 0d26 2E       		.byte	0x2e
 2127 0d27 5C0D0000 		.4byte	0xd5c
 2128 0d2b 07       		.uleb128 0x7
 2129 0d2c 9C000000 		.4byte	.LASF155
 2130 0d30 19       		.byte	0x19
 2131 0d31 2F       		.byte	0x2f
 2132 0d32 CA090000 		.4byte	0x9ca
 2133 0d36 00       		.byte	0
 2134 0d37 07       		.uleb128 0x7
 2135 0d38 8B050000 		.4byte	.LASF156
 2136 0d3c 19       		.byte	0x19
 2137 0d3d 2F       		.byte	0x2f
 2138 0d3e E9090000 		.4byte	0x9e9
 2139 0d42 04       		.byte	0x4
 2140 0d43 14       		.uleb128 0x14
 2141 0d44 70757400 		.ascii	"put\000"
 2142 0d48 19       		.byte	0x19
 2143 0d49 2F       		.byte	0x2f
 2144 0d4a 030A0000 		.4byte	0xa03
 2145 0d4e 08       		.byte	0x8
 2146 0d4f 14       		.uleb128 0x14
ARM GAS  C:\Users\jo\AppData\Local\Temp\ccQH7AaA.s 			page 39


 2147 0d50 67657400 		.ascii	"get\000"
 2148 0d54 19       		.byte	0x19
 2149 0d55 2F       		.byte	0x2f
 2150 0d56 0F080000 		.4byte	0x80f
 2151 0d5a 0C       		.byte	0xc
 2152 0d5b 00       		.byte	0
 2153 0d5c 17       		.uleb128 0x17
 2154 0d5d 04       		.byte	0x4
 2155 0d5e 19       		.byte	0x19
 2156 0d5f 39       		.byte	0x39
 2157 0d60 710D0000 		.4byte	0xd71
 2158 0d64 14       		.uleb128 0x14
 2159 0d65 766D7400 		.ascii	"vmt\000"
 2160 0d69 19       		.byte	0x19
 2161 0d6a 3B       		.byte	0x3b
 2162 0d6b 710D0000 		.4byte	0xd71
 2163 0d6f 00       		.byte	0
 2164 0d70 00       		.byte	0
 2165 0d71 0B       		.uleb128 0xb
 2166 0d72 04       		.byte	0x4
 2167 0d73 770D0000 		.4byte	0xd77
 2168 0d77 16       		.uleb128 0x16
 2169 0d78 1F0D0000 		.4byte	0xd1f
 2170 0d7c 03       		.uleb128 0x3
 2171 0d7d 16030000 		.4byte	.LASF188
 2172 0d81 19       		.byte	0x19
 2173 0d82 3D       		.byte	0x3d
 2174 0d83 5C0D0000 		.4byte	0xd5c
 2175 0d87 03       		.uleb128 0x3
 2176 0d88 C7040000 		.4byte	.LASF189
 2177 0d8c 0C       		.byte	0xc
 2178 0d8d 62       		.byte	0x62
 2179 0d8e EF050000 		.4byte	0x5ef
 2180 0d92 20       		.uleb128 0x20
 2181 0d93 01       		.byte	0x1
 2182 0d94 1A       		.byte	0x1a
 2183 0d95 2B       		.byte	0x2b
 2184 0d96 EF0D0000 		.4byte	0xdef
 2185 0d9a 21       		.uleb128 0x21
 2186 0d9b A5060000 		.4byte	.LASF190
 2187 0d9f 00       		.sleb128 0
 2188 0da0 21       		.uleb128 0x21
 2189 0da1 63030000 		.4byte	.LASF191
 2190 0da5 01       		.sleb128 1
 2191 0da6 21       		.uleb128 0x21
 2192 0da7 780A0000 		.4byte	.LASF192
 2193 0dab 02       		.sleb128 2
 2194 0dac 21       		.uleb128 0x21
 2195 0dad BA060000 		.4byte	.LASF193
 2196 0db1 03       		.sleb128 3
 2197 0db2 21       		.uleb128 0x21
 2198 0db3 39060000 		.4byte	.LASF194
 2199 0db7 04       		.sleb128 4
 2200 0db8 21       		.uleb128 0x21
 2201 0db9 7F060000 		.4byte	.LASF195
 2202 0dbd 05       		.sleb128 5
 2203 0dbe 21       		.uleb128 0x21
ARM GAS  C:\Users\jo\AppData\Local\Temp\ccQH7AaA.s 			page 40


 2204 0dbf 64020000 		.4byte	.LASF196
 2205 0dc3 06       		.sleb128 6
 2206 0dc4 21       		.uleb128 0x21
 2207 0dc5 33030000 		.4byte	.LASF197
 2208 0dc9 07       		.sleb128 7
 2209 0dca 21       		.uleb128 0x21
 2210 0dcb 2F080000 		.4byte	.LASF198
 2211 0dcf 08       		.sleb128 8
 2212 0dd0 21       		.uleb128 0x21
 2213 0dd1 F4060000 		.4byte	.LASF199
 2214 0dd5 09       		.sleb128 9
 2215 0dd6 21       		.uleb128 0x21
 2216 0dd7 8B000000 		.4byte	.LASF200
 2217 0ddb 0A       		.sleb128 10
 2218 0ddc 21       		.uleb128 0x21
 2219 0ddd DD070000 		.4byte	.LASF201
 2220 0de1 0B       		.sleb128 11
 2221 0de2 21       		.uleb128 0x21
 2222 0de3 19080000 		.4byte	.LASF202
 2223 0de7 0C       		.sleb128 12
 2224 0de8 21       		.uleb128 0x21
 2225 0de9 42070000 		.4byte	.LASF203
 2226 0ded 0D       		.sleb128 13
 2227 0dee 00       		.byte	0
 2228 0def 22       		.uleb128 0x22
 2229 0df0 D4000000 		.4byte	.LASF207
 2230 0df4 01       		.byte	0x1
 2231 0df5 2A       		.byte	0x2a
 2232 0df6 01       		.byte	0x1
 2233 0df7 1D0E0000 		.4byte	0xe1d
 2234 0dfb 23       		.uleb128 0x23
 2235 0dfc 26040000 		.4byte	.LASF204
 2236 0e00 01       		.byte	0x1
 2237 0e01 2B       		.byte	0x2b
 2238 0e02 1D0E0000 		.4byte	0xe1d
 2239 0e06 23       		.uleb128 0x23
 2240 0e07 D3070000 		.4byte	.LASF205
 2241 0e0b 01       		.byte	0x1
 2242 0e0c 2C       		.byte	0x2c
 2243 0e0d 1D0E0000 		.4byte	0xe1d
 2244 0e11 23       		.uleb128 0x23
 2245 0e12 45020000 		.4byte	.LASF206
 2246 0e16 01       		.byte	0x1
 2247 0e17 2D       		.byte	0x2d
 2248 0e18 1D0E0000 		.4byte	0xe1d
 2249 0e1c 00       		.byte	0
 2250 0e1d 0B       		.uleb128 0xb
 2251 0e1e 04       		.byte	0x4
 2252 0e1f 230E0000 		.4byte	0xe23
 2253 0e23 05       		.uleb128 0x5
 2254 0e24 37000000 		.4byte	0x37
 2255 0e28 22       		.uleb128 0x22
 2256 0e29 59060000 		.4byte	.LASF208
 2257 0e2d 01       		.byte	0x1
 2258 0e2e 37       		.byte	0x37
 2259 0e2f 01       		.byte	0x1
 2260 0e30 550E0000 		.4byte	0xe55
ARM GAS  C:\Users\jo\AppData\Local\Temp\ccQH7AaA.s 			page 41


 2261 0e34 24       		.uleb128 0x24
 2262 0e35 636800   		.ascii	"ch\000"
 2263 0e38 01       		.byte	0x1
 2264 0e39 37       		.byte	0x37
 2265 0e3a 17060000 		.4byte	0x617
 2266 0e3e 23       		.uleb128 0x23
 2267 0e3f 26060000 		.4byte	.LASF209
 2268 0e43 01       		.byte	0x1
 2269 0e44 38       		.byte	0x38
 2270 0e45 1D0E0000 		.4byte	0xe1d
 2271 0e49 23       		.uleb128 0x23
 2272 0e4a 82070000 		.4byte	.LASF210
 2273 0e4e 01       		.byte	0x1
 2274 0e4f 39       		.byte	0x39
 2275 0e50 1D0E0000 		.4byte	0xe1d
 2276 0e54 00       		.byte	0
 2277 0e55 22       		.uleb128 0x22
 2278 0e56 96070000 		.4byte	.LASF211
 2279 0e5a 01       		.byte	0x1
 2280 0e5b 44       		.byte	0x44
 2281 0e5c 01       		.byte	0x1
 2282 0e5d 6D0E0000 		.4byte	0xe6d
 2283 0e61 25       		.uleb128 0x25
 2284 0e62 E4030000 		.4byte	.LASF212
 2285 0e66 01       		.byte	0x1
 2286 0e67 44       		.byte	0x44
 2287 0e68 11060000 		.4byte	0x611
 2288 0e6c 00       		.byte	0
 2289 0e6d 26       		.uleb128 0x26
 2290 0e6e 0D030000 		.4byte	.LASF232
 2291 0e72 02       		.byte	0x2
 2292 0e73 45       		.byte	0x45
 2293 0e74 25000000 		.4byte	0x25
 2294 0e78 03       		.byte	0x3
 2295 0e79 AA0E0000 		.4byte	0xeaa
 2296 0e7d 24       		.uleb128 0x24
 2297 0e7e 63687000 		.ascii	"chp\000"
 2298 0e82 02       		.byte	0x2
 2299 0e83 45       		.byte	0x45
 2300 0e84 AA0E0000 		.4byte	0xeaa
 2301 0e88 24       		.uleb128 0x24
 2302 0e89 666D7400 		.ascii	"fmt\000"
 2303 0e8d 02       		.byte	0x2
 2304 0e8e 45       		.byte	0x45
 2305 0e8f 1E060000 		.4byte	0x61e
 2306 0e93 27       		.uleb128 0x27
 2307 0e94 28       		.uleb128 0x28
 2308 0e95 617000   		.ascii	"ap\000"
 2309 0e98 02       		.byte	0x2
 2310 0e99 46       		.byte	0x46
 2311 0e9a 870D0000 		.4byte	0xd87
 2312 0e9e 23       		.uleb128 0x23
 2313 0e9f 09020000 		.4byte	.LASF213
 2314 0ea3 02       		.byte	0x2
 2315 0ea4 47       		.byte	0x47
 2316 0ea5 25000000 		.4byte	0x25
 2317 0ea9 00       		.byte	0
ARM GAS  C:\Users\jo\AppData\Local\Temp\ccQH7AaA.s 			page 42


 2318 0eaa 0B       		.uleb128 0xb
 2319 0eab 04       		.byte	0x4
 2320 0eac 290A0000 		.4byte	0xa29
 2321 0eb0 29       		.uleb128 0x29
 2322 0eb1 B1040000 		.4byte	.LASF233
 2323 0eb5 01       		.byte	0x1
 2324 0eb6 6F       		.byte	0x6f
 2325 0eb7 30010000 		.4byte	0x130
 2326 0ebb 00000000 		.4byte	.LFB259
 2327 0ebf 38000000 		.4byte	.LFE259-.LFB259
 2328 0ec3 01       		.uleb128 0x1
 2329 0ec4 9C       		.byte	0x9c
 2330 0ec5 0C0F0000 		.4byte	0xf0c
 2331 0ec9 2A       		.uleb128 0x2a
 2332 0eca 61726700 		.ascii	"arg\000"
 2333 0ece 01       		.byte	0x1
 2334 0ecf 6F       		.byte	0x6f
 2335 0ed0 5A030000 		.4byte	0x35a
 2336 0ed4 00000000 		.4byte	.LLST0
 2337 0ed8 2B       		.uleb128 0x2b
 2338 0ed9 1A000000 		.4byte	.LVL2
 2339 0edd 44120000 		.4byte	0x1244
 2340 0ee1 ED0E0000 		.4byte	0xeed
 2341 0ee5 2C       		.uleb128 0x2c
 2342 0ee6 01       		.uleb128 0x1
 2343 0ee7 50       		.byte	0x50
 2344 0ee8 03       		.uleb128 0x3
 2345 0ee9 0A       		.byte	0xa
 2346 0eea 8813     		.2byte	0x1388
 2347 0eec 00       		.byte	0
 2348 0eed 2B       		.uleb128 0x2b
 2349 0eee 24000000 		.4byte	.LVL3
 2350 0ef2 44120000 		.4byte	0x1244
 2351 0ef6 020F0000 		.4byte	0xf02
 2352 0efa 2C       		.uleb128 0x2c
 2353 0efb 01       		.uleb128 0x1
 2354 0efc 50       		.byte	0x50
 2355 0efd 03       		.uleb128 0x3
 2356 0efe 0A       		.byte	0xa
 2357 0eff 8813     		.2byte	0x1388
 2358 0f01 00       		.byte	0
 2359 0f02 2D       		.uleb128 0x2d
 2360 0f03 28000000 		.4byte	.LVL4
 2361 0f07 55120000 		.4byte	0x1255
 2362 0f0b 00       		.byte	0
 2363 0f0c 2E       		.uleb128 0x2e
 2364 0f0d 6D0E0000 		.4byte	0xe6d
 2365 0f11 00000000 		.4byte	.LFB264
 2366 0f15 28000000 		.4byte	.LFE264-.LFB264
 2367 0f19 01       		.uleb128 0x1
 2368 0f1a 9C       		.byte	0x9c
 2369 0f1b 7B0F0000 		.4byte	0xf7b
 2370 0f1f 2F       		.uleb128 0x2f
 2371 0f20 7D0E0000 		.4byte	0xe7d
 2372 0f24 21000000 		.4byte	.LLST1
 2373 0f28 30       		.uleb128 0x30
 2374 0f29 880E0000 		.4byte	0xe88
ARM GAS  C:\Users\jo\AppData\Local\Temp\ccQH7AaA.s 			page 43


 2375 0f2d 02       		.uleb128 0x2
 2376 0f2e 91       		.byte	0x91
 2377 0f2f 74       		.sleb128 -12
 2378 0f30 27       		.uleb128 0x27
 2379 0f31 31       		.uleb128 0x31
 2380 0f32 940E0000 		.4byte	0xe94
 2381 0f36 02       		.uleb128 0x2
 2382 0f37 91       		.byte	0x91
 2383 0f38 6C       		.sleb128 -20
 2384 0f39 31       		.uleb128 0x31
 2385 0f3a 9E0E0000 		.4byte	0xe9e
 2386 0f3e 01       		.uleb128 0x1
 2387 0f3f 50       		.byte	0x50
 2388 0f40 30       		.uleb128 0x30
 2389 0f41 880E0000 		.4byte	0xe88
 2390 0f45 06       		.uleb128 0x6
 2391 0f46 03       		.byte	0x3
 2392 0f47 08000000 		.4byte	.LC1
 2393 0f4b 9F       		.byte	0x9f
 2394 0f4c 30       		.uleb128 0x30
 2395 0f4d 7D0E0000 		.4byte	0xe7d
 2396 0f51 06       		.uleb128 0x6
 2397 0f52 03       		.byte	0x3
 2398 0f53 00000000 		.4byte	itm_port
 2399 0f57 9F       		.byte	0x9f
 2400 0f58 32       		.uleb128 0x32
 2401 0f59 14000000 		.4byte	.LVL7
 2402 0f5d 5D120000 		.4byte	0x125d
 2403 0f61 2C       		.uleb128 0x2c
 2404 0f62 01       		.uleb128 0x1
 2405 0f63 52       		.byte	0x52
 2406 0f64 02       		.uleb128 0x2
 2407 0f65 91       		.byte	0x91
 2408 0f66 60       		.sleb128 -32
 2409 0f67 2C       		.uleb128 0x2c
 2410 0f68 01       		.uleb128 0x1
 2411 0f69 51       		.byte	0x51
 2412 0f6a 05       		.uleb128 0x5
 2413 0f6b 03       		.byte	0x3
 2414 0f6c 08000000 		.4byte	.LC1
 2415 0f70 2C       		.uleb128 0x2c
 2416 0f71 01       		.uleb128 0x1
 2417 0f72 50       		.byte	0x50
 2418 0f73 05       		.uleb128 0x5
 2419 0f74 03       		.byte	0x3
 2420 0f75 00000000 		.4byte	.LANCHOR0
 2421 0f79 00       		.byte	0
 2422 0f7a 00       		.byte	0
 2423 0f7b 2E       		.uleb128 0x2e
 2424 0f7c EF0D0000 		.4byte	0xdef
 2425 0f80 00000000 		.4byte	.LFB256
 2426 0f84 34000000 		.4byte	.LFE256-.LFB256
 2427 0f88 01       		.uleb128 0x1
 2428 0f89 9C       		.byte	0x9c
 2429 0f8a C60F0000 		.4byte	0xfc6
 2430 0f8e 33       		.uleb128 0x33
 2431 0f8f FB0D0000 		.4byte	0xdfb
ARM GAS  C:\Users\jo\AppData\Local\Temp\ccQH7AaA.s 			page 44


 2432 0f93 809C8080 		.sleb128 -536867328
 2432      7E
 2433 0f98 33       		.uleb128 0x33
 2434 0f99 060E0000 		.4byte	0xe06
 2435 0f9d F0DB8380 		.sleb128 -536810000
 2435      7E
 2436 0fa2 33       		.uleb128 0x33
 2437 0fa3 110E0000 		.4byte	0xe11
 2438 0fa7 84C09080 		.sleb128 -536600572
 2438      7E
 2439 0fac 34       		.uleb128 0x34
 2440 0fad 12000000 		.4byte	.LBB6
 2441 0fb1 22000000 		.4byte	.LBE6-.LBB6
 2442 0fb5 35       		.uleb128 0x35
 2443 0fb6 FB0D0000 		.4byte	0xdfb
 2444 0fba 35       		.uleb128 0x35
 2445 0fbb 060E0000 		.4byte	0xe06
 2446 0fbf 35       		.uleb128 0x35
 2447 0fc0 110E0000 		.4byte	0xe11
 2448 0fc4 00       		.byte	0
 2449 0fc5 00       		.byte	0
 2450 0fc6 2E       		.uleb128 0x2e
 2451 0fc7 280E0000 		.4byte	0xe28
 2452 0fcb 00000000 		.4byte	.LFB257
 2453 0fcf 28000000 		.4byte	.LFE257-.LFB257
 2454 0fd3 01       		.uleb128 0x1
 2455 0fd4 9C       		.byte	0x9c
 2456 0fd5 22100000 		.4byte	0x1022
 2457 0fd9 30       		.uleb128 0x30
 2458 0fda 340E0000 		.4byte	0xe34
 2459 0fde 01       		.uleb128 0x1
 2460 0fdf 50       		.byte	0x50
 2461 0fe0 33       		.uleb128 0x33
 2462 0fe1 3E0E0000 		.4byte	0xe3e
 2463 0fe5 80808080 		.sleb128 -536870912
 2463      7E
 2464 0fea 33       		.uleb128 0x33
 2465 0feb 490E0000 		.4byte	0xe49
 2466 0fef FCDB8380 		.sleb128 -536809988
 2466      7E
 2467 0ff4 34       		.uleb128 0x34
 2468 0ff5 0E000000 		.4byte	.LBB9
 2469 0ff9 1A000000 		.4byte	.LBE9-.LBB9
 2470 0ffd 36       		.uleb128 0x36
 2471 0ffe 340E0000 		.4byte	0xe34
 2472 1002 34       		.uleb128 0x34
 2473 1003 0E000000 		.4byte	.LBB10
 2474 1007 1A000000 		.4byte	.LBE10-.LBB10
 2475 100b 33       		.uleb128 0x33
 2476 100c 3E0E0000 		.4byte	0xe3e
 2477 1010 80808080 		.sleb128 -536870912
 2477      7E
 2478 1015 33       		.uleb128 0x33
 2479 1016 490E0000 		.4byte	0xe49
 2480 101a FCDB8380 		.sleb128 -536809988
 2480      7E
 2481 101f 00       		.byte	0
ARM GAS  C:\Users\jo\AppData\Local\Temp\ccQH7AaA.s 			page 45


 2482 1020 00       		.byte	0
 2483 1021 00       		.byte	0
 2484 1022 2E       		.uleb128 0x2e
 2485 1023 550E0000 		.4byte	0xe55
 2486 1027 00000000 		.4byte	.LFB258
 2487 102b 24000000 		.4byte	.LFE258-.LFB258
 2488 102f 01       		.uleb128 0x1
 2489 1030 9C       		.byte	0x9c
 2490 1031 5B100000 		.4byte	0x105b
 2491 1035 2F       		.uleb128 0x2f
 2492 1036 610E0000 		.4byte	0xe61
 2493 103a 42000000 		.4byte	.LLST2
 2494 103e 34       		.uleb128 0x34
 2495 103f 0A000000 		.4byte	.LBB13
 2496 1043 1A000000 		.4byte	.LBE13-.LBB13
 2497 1047 2F       		.uleb128 0x2f
 2498 1048 610E0000 		.4byte	0xe61
 2499 104c 79000000 		.4byte	.LLST3
 2500 1050 2D       		.uleb128 0x2d
 2501 1051 12000000 		.4byte	.LVL14
 2502 1055 280E0000 		.4byte	0xe28
 2503 1059 00       		.byte	0
 2504 105a 00       		.byte	0
 2505 105b 37       		.uleb128 0x37
 2506 105c 91010000 		.4byte	.LASF234
 2507 1060 01       		.byte	0x1
 2508 1061 7F       		.byte	0x7f
 2509 1062 25000000 		.4byte	0x25
 2510 1066 00000000 		.4byte	.LFB260
 2511 106a C4000000 		.4byte	.LFE260-.LFB260
 2512 106e 01       		.uleb128 0x1
 2513 106f 9C       		.byte	0x9c
 2514 1070 B6110000 		.4byte	0x11b6
 2515 1074 38       		.uleb128 0x38
 2516 1075 550E0000 		.4byte	0xe55
 2517 1079 08000000 		.4byte	.LBB19
 2518 107d 00000000 		.4byte	.Ldebug_ranges0+0
 2519 1081 01       		.byte	0x1
 2520 1082 82       		.byte	0x82
 2521 1083 B0100000 		.4byte	0x10b0
 2522 1087 30       		.uleb128 0x30
 2523 1088 610E0000 		.4byte	0xe61
 2524 108c 06       		.uleb128 0x6
 2525 108d 03       		.byte	0x3
 2526 108e 0C000000 		.4byte	.LC2
 2527 1092 9F       		.byte	0x9f
 2528 1093 34       		.uleb128 0x34
 2529 1094 80000000 		.4byte	.LBB21
 2530 1098 44000000 		.4byte	.LBE21-.LBB21
 2531 109c 2F       		.uleb128 0x2f
 2532 109d 610E0000 		.4byte	0xe61
 2533 10a1 A4000000 		.4byte	.LLST4
 2534 10a5 2D       		.uleb128 0x2d
 2535 10a6 84000000 		.4byte	.LVL30
 2536 10aa 280E0000 		.4byte	0xe28
 2537 10ae 00       		.byte	0
 2538 10af 00       		.byte	0
ARM GAS  C:\Users\jo\AppData\Local\Temp\ccQH7AaA.s 			page 46


 2539 10b0 2D       		.uleb128 0x2d
 2540 10b1 08000000 		.4byte	.LVL18
 2541 10b5 EF0D0000 		.4byte	0xdef
 2542 10b9 2B       		.uleb128 0x2b
 2543 10ba 18000000 		.4byte	.LVL19
 2544 10be 7C120000 		.4byte	0x127c
 2545 10c2 D0100000 		.4byte	0x10d0
 2546 10c6 2C       		.uleb128 0x2c
 2547 10c7 01       		.uleb128 0x1
 2548 10c8 50       		.byte	0x50
 2549 10c9 05       		.uleb128 0x5
 2550 10ca 03       		.byte	0x3
 2551 10cb 00000000 		.4byte	.LANCHOR0
 2552 10cf 00       		.byte	0
 2553 10d0 2B       		.uleb128 0x2b
 2554 10d1 24000000 		.4byte	.LVL20
 2555 10d5 0C0F0000 		.4byte	0xf0c
 2556 10d9 F9100000 		.4byte	0x10f9
 2557 10dd 2C       		.uleb128 0x2c
 2558 10de 01       		.uleb128 0x1
 2559 10df 52       		.byte	0x52
 2560 10e0 05       		.uleb128 0x5
 2561 10e1 03       		.byte	0x3
 2562 10e2 1C000000 		.4byte	.LC3
 2563 10e6 2C       		.uleb128 0x2c
 2564 10e7 01       		.uleb128 0x1
 2565 10e8 51       		.byte	0x51
 2566 10e9 05       		.uleb128 0x5
 2567 10ea 03       		.byte	0x3
 2568 10eb 08000000 		.4byte	.LC1
 2569 10ef 2C       		.uleb128 0x2c
 2570 10f0 01       		.uleb128 0x1
 2571 10f1 50       		.byte	0x50
 2572 10f2 05       		.uleb128 0x5
 2573 10f3 03       		.byte	0x3
 2574 10f4 00000000 		.4byte	.LANCHOR0
 2575 10f8 00       		.byte	0
 2576 10f9 2D       		.uleb128 0x2d
 2577 10fa 28000000 		.4byte	.LVL21
 2578 10fe 93120000 		.4byte	0x1293
 2579 1102 2D       		.uleb128 0x2d
 2580 1103 2C000000 		.4byte	.LVL22
 2581 1107 9A120000 		.4byte	0x129a
 2582 110b 2B       		.uleb128 0x2b
 2583 110c 34000000 		.4byte	.LVL23
 2584 1110 A1120000 		.4byte	0x12a1
 2585 1114 1F110000 		.4byte	0x111f
 2586 1118 2C       		.uleb128 0x2c
 2587 1119 01       		.uleb128 0x1
 2588 111a 51       		.byte	0x51
 2589 111b 02       		.uleb128 0x2
 2590 111c 75       		.byte	0x75
 2591 111d 00       		.sleb128 0
 2592 111e 00       		.byte	0
 2593 111f 2B       		.uleb128 0x2b
 2594 1120 44000000 		.4byte	.LVL24
 2595 1124 C9120000 		.4byte	0x12c9
ARM GAS  C:\Users\jo\AppData\Local\Temp\ccQH7AaA.s 			page 47


 2596 1128 53110000 		.4byte	0x1153
 2597 112c 2C       		.uleb128 0x2c
 2598 112d 01       		.uleb128 0x1
 2599 112e 53       		.byte	0x53
 2600 112f 05       		.uleb128 0x5
 2601 1130 03       		.byte	0x3
 2602 1131 00000000 		.4byte	Thread1
 2603 1135 2C       		.uleb128 0x2c
 2604 1136 01       		.uleb128 0x1
 2605 1137 52       		.byte	0x52
 2606 1138 02       		.uleb128 0x2
 2607 1139 08       		.byte	0x8
 2608 113a 40       		.byte	0x40
 2609 113b 2C       		.uleb128 0x2c
 2610 113c 01       		.uleb128 0x1
 2611 113d 51       		.byte	0x51
 2612 113e 03       		.uleb128 0x3
 2613 113f 0A       		.byte	0xa
 2614 1140 6801     		.2byte	0x168
 2615 1142 2C       		.uleb128 0x2c
 2616 1143 01       		.uleb128 0x1
 2617 1144 50       		.byte	0x50
 2618 1145 05       		.uleb128 0x5
 2619 1146 03       		.byte	0x3
 2620 1147 00000000 		.4byte	.LANCHOR2
 2621 114b 2C       		.uleb128 0x2c
 2622 114c 02       		.uleb128 0x2
 2623 114d 7D       		.byte	0x7d
 2624 114e 00       		.sleb128 0
 2625 114f 02       		.uleb128 0x2
 2626 1150 75       		.byte	0x75
 2627 1151 00       		.sleb128 0
 2628 1152 00       		.byte	0
 2629 1153 2B       		.uleb128 0x2b
 2630 1154 54000000 		.4byte	.LVL25
 2631 1158 C9120000 		.4byte	0x12c9
 2632 115c 75110000 		.4byte	0x1175
 2633 1160 2C       		.uleb128 0x2c
 2634 1161 01       		.uleb128 0x1
 2635 1162 52       		.byte	0x52
 2636 1163 02       		.uleb128 0x2
 2637 1164 08       		.byte	0x8
 2638 1165 41       		.byte	0x41
 2639 1166 2C       		.uleb128 0x2c
 2640 1167 01       		.uleb128 0x1
 2641 1168 51       		.byte	0x51
 2642 1169 03       		.uleb128 0x3
 2643 116a 0A       		.byte	0xa
 2644 116b 2803     		.2byte	0x328
 2645 116d 2C       		.uleb128 0x2c
 2646 116e 02       		.uleb128 0x2
 2647 116f 7D       		.byte	0x7d
 2648 1170 00       		.sleb128 0
 2649 1171 02       		.uleb128 0x2
 2650 1172 75       		.byte	0x75
 2651 1173 00       		.sleb128 0
 2652 1174 00       		.byte	0
ARM GAS  C:\Users\jo\AppData\Local\Temp\ccQH7AaA.s 			page 48


 2653 1175 2B       		.uleb128 0x2b
 2654 1176 64000000 		.4byte	.LVL26
 2655 117a C9120000 		.4byte	0x12c9
 2656 117e 97110000 		.4byte	0x1197
 2657 1182 2C       		.uleb128 0x2c
 2658 1183 01       		.uleb128 0x1
 2659 1184 52       		.byte	0x52
 2660 1185 02       		.uleb128 0x2
 2661 1186 08       		.byte	0x8
 2662 1187 58       		.byte	0x58
 2663 1188 2C       		.uleb128 0x2c
 2664 1189 01       		.uleb128 0x1
 2665 118a 51       		.byte	0x51
 2666 118b 03       		.uleb128 0x3
 2667 118c 0A       		.byte	0xa
 2668 118d E812     		.2byte	0x12e8
 2669 118f 2C       		.uleb128 0x2c
 2670 1190 02       		.uleb128 0x2
 2671 1191 7D       		.byte	0x7d
 2672 1192 00       		.sleb128 0
 2673 1193 02       		.uleb128 0x2
 2674 1194 75       		.byte	0x75
 2675 1195 00       		.sleb128 0
 2676 1196 00       		.byte	0
 2677 1197 2B       		.uleb128 0x2b
 2678 1198 6E000000 		.4byte	.LVL27
 2679 119c 44120000 		.4byte	0x1244
 2680 11a0 AC110000 		.4byte	0x11ac
 2681 11a4 2C       		.uleb128 0x2c
 2682 11a5 01       		.uleb128 0x1
 2683 11a6 50       		.byte	0x50
 2684 11a7 03       		.uleb128 0x3
 2685 11a8 0A       		.byte	0xa
 2686 11a9 1027     		.2byte	0x2710
 2687 11ab 00       		.byte	0
 2688 11ac 2D       		.uleb128 0x2d
 2689 11ad 7A000000 		.4byte	.LVL28
 2690 11b1 F2120000 		.4byte	0x12f2
 2691 11b5 00       		.byte	0
 2692 11b6 39       		.uleb128 0x39
 2693 11b7 5A050000 		.4byte	.LASF214
 2694 11bb 01       		.byte	0x1
 2695 11bc 23       		.byte	0x23
 2696 11bd 25000000 		.4byte	0x25
 2697 11c1 05       		.uleb128 0x5
 2698 11c2 03       		.byte	0x3
 2699 11c3 00000000 		.4byte	Debug_ITMDebug
 2700 11c7 39       		.uleb128 0x39
 2701 11c8 8C0A0000 		.4byte	.LASF215
 2702 11cc 01       		.byte	0x1
 2703 11cd 6E       		.byte	0x6e
 2704 11ce 0F0D0000 		.4byte	0xd0f
 2705 11d2 05       		.uleb128 0x5
 2706 11d3 03       		.byte	0x3
 2707 11d4 00000000 		.4byte	waThread1
 2708 11d8 3A       		.uleb128 0x3a
 2709 11d9 32050000 		.4byte	.LASF216
ARM GAS  C:\Users\jo\AppData\Local\Temp\ccQH7AaA.s 			page 49


 2710 11dd 1B       		.byte	0x1b
 2711 11de A706     		.2byte	0x6a7
 2712 11e0 E4000000 		.4byte	0xe4
 2713 11e4 3B       		.uleb128 0x3b
 2714 11e5 636800   		.ascii	"ch\000"
 2715 11e8 08       		.byte	0x8
 2716 11e9 EB01     		.2byte	0x1eb
 2717 11eb 51040000 		.4byte	0x451
 2718 11ef 3B       		.uleb128 0x3b
 2719 11f0 53443600 		.ascii	"SD6\000"
 2720 11f4 18       		.byte	0x18
 2721 11f5 1E01     		.2byte	0x11e
 2722 11f7 C70B0000 		.4byte	0xbc7
 2723 11fb 3C       		.uleb128 0x3c
 2724 11fc 47050000 		.4byte	.LASF217
 2725 1200 01       		.byte	0x1
 2726 1201 24       		.byte	0x24
 2727 1202 7C0D0000 		.4byte	0xd7c
 2728 1206 05       		.uleb128 0x5
 2729 1207 03       		.byte	0x3
 2730 1208 00000000 		.4byte	itm_port
 2731 120c 19       		.uleb128 0x19
 2732 120d 4A050000 		.4byte	0x54a
 2733 1211 1C120000 		.4byte	0x121c
 2734 1215 1A       		.uleb128 0x1a
 2735 1216 C9040000 		.4byte	0x4c9
 2736 121a 64       		.byte	0x64
 2737 121b 00       		.byte	0
 2738 121c 3D       		.uleb128 0x3d
 2739 121d C3050000 		.4byte	.LASF218
 2740 1221 1C       		.byte	0x1c
 2741 1222 77       		.byte	0x77
 2742 1223 0C120000 		.4byte	0x120c
 2743 1227 19       		.uleb128 0x19
 2744 1228 4A050000 		.4byte	0x54a
 2745 122c 38120000 		.4byte	0x1238
 2746 1230 3E       		.uleb128 0x3e
 2747 1231 C9040000 		.4byte	0x4c9
 2748 1235 5C02     		.2byte	0x25c
 2749 1237 00       		.byte	0
 2750 1238 3A       		.uleb128 0x3a
 2751 1239 02010000 		.4byte	.LASF219
 2752 123d 1D       		.byte	0x1d
 2753 123e 6601     		.2byte	0x166
 2754 1240 27120000 		.4byte	0x1227
 2755 1244 3F       		.uleb128 0x3f
 2756 1245 20030000 		.4byte	.LASF220
 2757 1249 12       		.byte	0x12
 2758 124a 99       		.byte	0x99
 2759 124b 55120000 		.4byte	0x1255
 2760 124f 0D       		.uleb128 0xd
 2761 1250 67010000 		.4byte	0x167
 2762 1254 00       		.byte	0
 2763 1255 40       		.uleb128 0x40
 2764 1256 EB030000 		.4byte	.LASF222
 2765 125a 1E       		.byte	0x1e
 2766 125b 1101     		.2byte	0x111
ARM GAS  C:\Users\jo\AppData\Local\Temp\ccQH7AaA.s 			page 50


 2767 125d 41       		.uleb128 0x41
 2768 125e 67040000 		.4byte	.LASF226
 2769 1262 02       		.byte	0x2
 2770 1263 28       		.byte	0x28
 2771 1264 25000000 		.4byte	0x25
 2772 1268 7C120000 		.4byte	0x127c
 2773 126c 0D       		.uleb128 0xd
 2774 126d AA0E0000 		.4byte	0xeaa
 2775 1271 0D       		.uleb128 0xd
 2776 1272 1E060000 		.4byte	0x61e
 2777 1276 0D       		.uleb128 0xd
 2778 1277 870D0000 		.4byte	0xd87
 2779 127b 00       		.byte	0
 2780 127c 3F       		.uleb128 0x3f
 2781 127d 7D000000 		.4byte	.LASF221
 2782 1281 19       		.byte	0x19
 2783 1282 46       		.byte	0x46
 2784 1283 8D120000 		.4byte	0x128d
 2785 1287 0D       		.uleb128 0xd
 2786 1288 8D120000 		.4byte	0x128d
 2787 128c 00       		.byte	0
 2788 128d 0B       		.uleb128 0xb
 2789 128e 04       		.byte	0x4
 2790 128f 7C0D0000 		.4byte	0xd7c
 2791 1293 42       		.uleb128 0x42
 2792 1294 71040000 		.4byte	.LASF223
 2793 1298 1F       		.byte	0x1f
 2794 1299 77       		.byte	0x77
 2795 129a 42       		.uleb128 0x42
 2796 129b 6C090000 		.4byte	.LASF224
 2797 129f 20       		.byte	0x20
 2798 12a0 E5       		.byte	0xe5
 2799 12a1 43       		.uleb128 0x43
 2800 12a2 58040000 		.4byte	.LASF225
 2801 12a6 17       		.byte	0x17
 2802 12a7 2B01     		.2byte	0x12b
 2803 12a9 B8120000 		.4byte	0x12b8
 2804 12ad 0D       		.uleb128 0xd
 2805 12ae B8120000 		.4byte	0x12b8
 2806 12b2 0D       		.uleb128 0xd
 2807 12b3 BE120000 		.4byte	0x12be
 2808 12b7 00       		.byte	0
 2809 12b8 0B       		.uleb128 0xb
 2810 12b9 04       		.byte	0x4
 2811 12ba C70B0000 		.4byte	0xbc7
 2812 12be 0B       		.uleb128 0xb
 2813 12bf 04       		.byte	0x4
 2814 12c0 C4120000 		.4byte	0x12c4
 2815 12c4 16       		.uleb128 0x16
 2816 12c5 760C0000 		.4byte	0xc76
 2817 12c9 41       		.uleb128 0x41
 2818 12ca DF040000 		.4byte	.LASF227
 2819 12ce 12       		.byte	0x12
 2820 12cf 8C       		.byte	0x8c
 2821 12d0 62060000 		.4byte	0x662
 2822 12d4 F2120000 		.4byte	0x12f2
 2823 12d8 0D       		.uleb128 0xd
ARM GAS  C:\Users\jo\AppData\Local\Temp\ccQH7AaA.s 			page 51


 2824 12d9 5A030000 		.4byte	0x35a
 2825 12dd 0D       		.uleb128 0xd
 2826 12de 2C000000 		.4byte	0x2c
 2827 12e2 0D       		.uleb128 0xd
 2828 12e3 25010000 		.4byte	0x125
 2829 12e7 0D       		.uleb128 0xd
 2830 12e8 04080000 		.4byte	0x804
 2831 12ec 0D       		.uleb128 0xd
 2832 12ed 5A030000 		.4byte	0x35a
 2833 12f1 00       		.byte	0
 2834 12f2 44       		.uleb128 0x44
 2835 12f3 07080000 		.4byte	.LASF228
 2836 12f7 21       		.byte	0x21
 2837 12f8 52       		.byte	0x52
 2838 12f9 30010000 		.4byte	0x130
 2839 12fd 0D       		.uleb128 0xd
 2840 12fe 5A030000 		.4byte	0x35a
 2841 1302 00       		.byte	0
 2842 1303 00       		.byte	0
 2843              		.section	.debug_abbrev,"",%progbits
 2844              	.Ldebug_abbrev0:
 2845 0000 01       		.uleb128 0x1
 2846 0001 11       		.uleb128 0x11
 2847 0002 01       		.byte	0x1
 2848 0003 25       		.uleb128 0x25
 2849 0004 0E       		.uleb128 0xe
 2850 0005 13       		.uleb128 0x13
 2851 0006 0B       		.uleb128 0xb
 2852 0007 03       		.uleb128 0x3
 2853 0008 0E       		.uleb128 0xe
 2854 0009 1B       		.uleb128 0x1b
 2855 000a 0E       		.uleb128 0xe
 2856 000b 55       		.uleb128 0x55
 2857 000c 17       		.uleb128 0x17
 2858 000d 11       		.uleb128 0x11
 2859 000e 01       		.uleb128 0x1
 2860 000f 10       		.uleb128 0x10
 2861 0010 17       		.uleb128 0x17
 2862 0011 00       		.byte	0
 2863 0012 00       		.byte	0
 2864 0013 02       		.uleb128 0x2
 2865 0014 24       		.uleb128 0x24
 2866 0015 00       		.byte	0
 2867 0016 0B       		.uleb128 0xb
 2868 0017 0B       		.uleb128 0xb
 2869 0018 3E       		.uleb128 0x3e
 2870 0019 0B       		.uleb128 0xb
 2871 001a 03       		.uleb128 0x3
 2872 001b 08       		.uleb128 0x8
 2873 001c 00       		.byte	0
 2874 001d 00       		.byte	0
 2875 001e 03       		.uleb128 0x3
 2876 001f 16       		.uleb128 0x16
 2877 0020 00       		.byte	0
 2878 0021 03       		.uleb128 0x3
 2879 0022 0E       		.uleb128 0xe
 2880 0023 3A       		.uleb128 0x3a
ARM GAS  C:\Users\jo\AppData\Local\Temp\ccQH7AaA.s 			page 52


 2881 0024 0B       		.uleb128 0xb
 2882 0025 3B       		.uleb128 0x3b
 2883 0026 0B       		.uleb128 0xb
 2884 0027 49       		.uleb128 0x49
 2885 0028 13       		.uleb128 0x13
 2886 0029 00       		.byte	0
 2887 002a 00       		.byte	0
 2888 002b 04       		.uleb128 0x4
 2889 002c 24       		.uleb128 0x24
 2890 002d 00       		.byte	0
 2891 002e 0B       		.uleb128 0xb
 2892 002f 0B       		.uleb128 0xb
 2893 0030 3E       		.uleb128 0x3e
 2894 0031 0B       		.uleb128 0xb
 2895 0032 03       		.uleb128 0x3
 2896 0033 0E       		.uleb128 0xe
 2897 0034 00       		.byte	0
 2898 0035 00       		.byte	0
 2899 0036 05       		.uleb128 0x5
 2900 0037 35       		.uleb128 0x35
 2901 0038 00       		.byte	0
 2902 0039 49       		.uleb128 0x49
 2903 003a 13       		.uleb128 0x13
 2904 003b 00       		.byte	0
 2905 003c 00       		.byte	0
 2906 003d 06       		.uleb128 0x6
 2907 003e 13       		.uleb128 0x13
 2908 003f 01       		.byte	0x1
 2909 0040 03       		.uleb128 0x3
 2910 0041 0E       		.uleb128 0xe
 2911 0042 0B       		.uleb128 0xb
 2912 0043 0B       		.uleb128 0xb
 2913 0044 3A       		.uleb128 0x3a
 2914 0045 0B       		.uleb128 0xb
 2915 0046 3B       		.uleb128 0x3b
 2916 0047 0B       		.uleb128 0xb
 2917 0048 01       		.uleb128 0x1
 2918 0049 13       		.uleb128 0x13
 2919 004a 00       		.byte	0
 2920 004b 00       		.byte	0
 2921 004c 07       		.uleb128 0x7
 2922 004d 0D       		.uleb128 0xd
 2923 004e 00       		.byte	0
 2924 004f 03       		.uleb128 0x3
 2925 0050 0E       		.uleb128 0xe
 2926 0051 3A       		.uleb128 0x3a
 2927 0052 0B       		.uleb128 0xb
 2928 0053 3B       		.uleb128 0x3b
 2929 0054 0B       		.uleb128 0xb
 2930 0055 49       		.uleb128 0x49
 2931 0056 13       		.uleb128 0x13
 2932 0057 38       		.uleb128 0x38
 2933 0058 0B       		.uleb128 0xb
 2934 0059 00       		.byte	0
 2935 005a 00       		.byte	0
 2936 005b 08       		.uleb128 0x8
 2937 005c 0D       		.uleb128 0xd
ARM GAS  C:\Users\jo\AppData\Local\Temp\ccQH7AaA.s 			page 53


 2938 005d 00       		.byte	0
 2939 005e 03       		.uleb128 0x3
 2940 005f 08       		.uleb128 0x8
 2941 0060 3A       		.uleb128 0x3a
 2942 0061 0B       		.uleb128 0xb
 2943 0062 3B       		.uleb128 0x3b
 2944 0063 05       		.uleb128 0x5
 2945 0064 49       		.uleb128 0x49
 2946 0065 13       		.uleb128 0x13
 2947 0066 38       		.uleb128 0x38
 2948 0067 0B       		.uleb128 0xb
 2949 0068 00       		.byte	0
 2950 0069 00       		.byte	0
 2951 006a 09       		.uleb128 0x9
 2952 006b 0D       		.uleb128 0xd
 2953 006c 00       		.byte	0
 2954 006d 03       		.uleb128 0x3
 2955 006e 0E       		.uleb128 0xe
 2956 006f 3A       		.uleb128 0x3a
 2957 0070 0B       		.uleb128 0xb
 2958 0071 3B       		.uleb128 0x3b
 2959 0072 05       		.uleb128 0x5
 2960 0073 49       		.uleb128 0x49
 2961 0074 13       		.uleb128 0x13
 2962 0075 38       		.uleb128 0x38
 2963 0076 0B       		.uleb128 0xb
 2964 0077 00       		.byte	0
 2965 0078 00       		.byte	0
 2966 0079 0A       		.uleb128 0xa
 2967 007a 13       		.uleb128 0x13
 2968 007b 01       		.byte	0x1
 2969 007c 03       		.uleb128 0x3
 2970 007d 0E       		.uleb128 0xe
 2971 007e 0B       		.uleb128 0xb
 2972 007f 0B       		.uleb128 0xb
 2973 0080 3A       		.uleb128 0x3a
 2974 0081 0B       		.uleb128 0xb
 2975 0082 3B       		.uleb128 0x3b
 2976 0083 05       		.uleb128 0x5
 2977 0084 01       		.uleb128 0x1
 2978 0085 13       		.uleb128 0x13
 2979 0086 00       		.byte	0
 2980 0087 00       		.byte	0
 2981 0088 0B       		.uleb128 0xb
 2982 0089 0F       		.uleb128 0xf
 2983 008a 00       		.byte	0
 2984 008b 0B       		.uleb128 0xb
 2985 008c 0B       		.uleb128 0xb
 2986 008d 49       		.uleb128 0x49
 2987 008e 13       		.uleb128 0x13
 2988 008f 00       		.byte	0
 2989 0090 00       		.byte	0
 2990 0091 0C       		.uleb128 0xc
 2991 0092 15       		.uleb128 0x15
 2992 0093 01       		.byte	0x1
 2993 0094 27       		.uleb128 0x27
 2994 0095 19       		.uleb128 0x19
ARM GAS  C:\Users\jo\AppData\Local\Temp\ccQH7AaA.s 			page 54


 2995 0096 01       		.uleb128 0x1
 2996 0097 13       		.uleb128 0x13
 2997 0098 00       		.byte	0
 2998 0099 00       		.byte	0
 2999 009a 0D       		.uleb128 0xd
 3000 009b 05       		.uleb128 0x5
 3001 009c 00       		.byte	0
 3002 009d 49       		.uleb128 0x49
 3003 009e 13       		.uleb128 0x13
 3004 009f 00       		.byte	0
 3005 00a0 00       		.byte	0
 3006 00a1 0E       		.uleb128 0xe
 3007 00a2 0F       		.uleb128 0xf
 3008 00a3 00       		.byte	0
 3009 00a4 0B       		.uleb128 0xb
 3010 00a5 0B       		.uleb128 0xb
 3011 00a6 00       		.byte	0
 3012 00a7 00       		.byte	0
 3013 00a8 0F       		.uleb128 0xf
 3014 00a9 13       		.uleb128 0x13
 3015 00aa 01       		.byte	0x1
 3016 00ab 03       		.uleb128 0x3
 3017 00ac 0E       		.uleb128 0xe
 3018 00ad 0B       		.uleb128 0xb
 3019 00ae 05       		.uleb128 0x5
 3020 00af 3A       		.uleb128 0x3a
 3021 00b0 0B       		.uleb128 0xb
 3022 00b1 3B       		.uleb128 0x3b
 3023 00b2 05       		.uleb128 0x5
 3024 00b3 01       		.uleb128 0x1
 3025 00b4 13       		.uleb128 0x13
 3026 00b5 00       		.byte	0
 3027 00b6 00       		.byte	0
 3028 00b7 10       		.uleb128 0x10
 3029 00b8 0D       		.uleb128 0xd
 3030 00b9 00       		.byte	0
 3031 00ba 03       		.uleb128 0x3
 3032 00bb 0E       		.uleb128 0xe
 3033 00bc 3A       		.uleb128 0x3a
 3034 00bd 0B       		.uleb128 0xb
 3035 00be 3B       		.uleb128 0x3b
 3036 00bf 05       		.uleb128 0x5
 3037 00c0 49       		.uleb128 0x49
 3038 00c1 13       		.uleb128 0x13
 3039 00c2 38       		.uleb128 0x38
 3040 00c3 05       		.uleb128 0x5
 3041 00c4 00       		.byte	0
 3042 00c5 00       		.byte	0
 3043 00c6 11       		.uleb128 0x11
 3044 00c7 0D       		.uleb128 0xd
 3045 00c8 00       		.byte	0
 3046 00c9 03       		.uleb128 0x3
 3047 00ca 08       		.uleb128 0x8
 3048 00cb 3A       		.uleb128 0x3a
 3049 00cc 0B       		.uleb128 0xb
 3050 00cd 3B       		.uleb128 0x3b
 3051 00ce 05       		.uleb128 0x5
ARM GAS  C:\Users\jo\AppData\Local\Temp\ccQH7AaA.s 			page 55


 3052 00cf 49       		.uleb128 0x49
 3053 00d0 13       		.uleb128 0x13
 3054 00d1 38       		.uleb128 0x38
 3055 00d2 05       		.uleb128 0x5
 3056 00d3 00       		.byte	0
 3057 00d4 00       		.byte	0
 3058 00d5 12       		.uleb128 0x12
 3059 00d6 13       		.uleb128 0x13
 3060 00d7 01       		.byte	0x1
 3061 00d8 0B       		.uleb128 0xb
 3062 00d9 0B       		.uleb128 0xb
 3063 00da 3A       		.uleb128 0x3a
 3064 00db 0B       		.uleb128 0xb
 3065 00dc 3B       		.uleb128 0x3b
 3066 00dd 05       		.uleb128 0x5
 3067 00de 01       		.uleb128 0x1
 3068 00df 13       		.uleb128 0x13
 3069 00e0 00       		.byte	0
 3070 00e1 00       		.byte	0
 3071 00e2 13       		.uleb128 0x13
 3072 00e3 16       		.uleb128 0x16
 3073 00e4 00       		.byte	0
 3074 00e5 03       		.uleb128 0x3
 3075 00e6 0E       		.uleb128 0xe
 3076 00e7 3A       		.uleb128 0x3a
 3077 00e8 0B       		.uleb128 0xb
 3078 00e9 3B       		.uleb128 0x3b
 3079 00ea 05       		.uleb128 0x5
 3080 00eb 49       		.uleb128 0x49
 3081 00ec 13       		.uleb128 0x13
 3082 00ed 00       		.byte	0
 3083 00ee 00       		.byte	0
 3084 00ef 14       		.uleb128 0x14
 3085 00f0 0D       		.uleb128 0xd
 3086 00f1 00       		.byte	0
 3087 00f2 03       		.uleb128 0x3
 3088 00f3 08       		.uleb128 0x8
 3089 00f4 3A       		.uleb128 0x3a
 3090 00f5 0B       		.uleb128 0xb
 3091 00f6 3B       		.uleb128 0x3b
 3092 00f7 0B       		.uleb128 0xb
 3093 00f8 49       		.uleb128 0x49
 3094 00f9 13       		.uleb128 0x13
 3095 00fa 38       		.uleb128 0x38
 3096 00fb 0B       		.uleb128 0xb
 3097 00fc 00       		.byte	0
 3098 00fd 00       		.byte	0
 3099 00fe 15       		.uleb128 0x15
 3100 00ff 0D       		.uleb128 0xd
 3101 0100 00       		.byte	0
 3102 0101 03       		.uleb128 0x3
 3103 0102 0E       		.uleb128 0xe
 3104 0103 49       		.uleb128 0x49
 3105 0104 13       		.uleb128 0x13
 3106 0105 38       		.uleb128 0x38
 3107 0106 0B       		.uleb128 0xb
 3108 0107 34       		.uleb128 0x34
ARM GAS  C:\Users\jo\AppData\Local\Temp\ccQH7AaA.s 			page 56


 3109 0108 19       		.uleb128 0x19
 3110 0109 00       		.byte	0
 3111 010a 00       		.byte	0
 3112 010b 16       		.uleb128 0x16
 3113 010c 26       		.uleb128 0x26
 3114 010d 00       		.byte	0
 3115 010e 49       		.uleb128 0x49
 3116 010f 13       		.uleb128 0x13
 3117 0110 00       		.byte	0
 3118 0111 00       		.byte	0
 3119 0112 17       		.uleb128 0x17
 3120 0113 13       		.uleb128 0x13
 3121 0114 01       		.byte	0x1
 3122 0115 0B       		.uleb128 0xb
 3123 0116 0B       		.uleb128 0xb
 3124 0117 3A       		.uleb128 0x3a
 3125 0118 0B       		.uleb128 0xb
 3126 0119 3B       		.uleb128 0x3b
 3127 011a 0B       		.uleb128 0xb
 3128 011b 01       		.uleb128 0x1
 3129 011c 13       		.uleb128 0x13
 3130 011d 00       		.byte	0
 3131 011e 00       		.byte	0
 3132 011f 18       		.uleb128 0x18
 3133 0120 13       		.uleb128 0x13
 3134 0121 01       		.byte	0x1
 3135 0122 0B       		.uleb128 0xb
 3136 0123 05       		.uleb128 0x5
 3137 0124 3A       		.uleb128 0x3a
 3138 0125 0B       		.uleb128 0xb
 3139 0126 3B       		.uleb128 0x3b
 3140 0127 0B       		.uleb128 0xb
 3141 0128 01       		.uleb128 0x1
 3142 0129 13       		.uleb128 0x13
 3143 012a 00       		.byte	0
 3144 012b 00       		.byte	0
 3145 012c 19       		.uleb128 0x19
 3146 012d 01       		.uleb128 0x1
 3147 012e 01       		.byte	0x1
 3148 012f 49       		.uleb128 0x49
 3149 0130 13       		.uleb128 0x13
 3150 0131 01       		.uleb128 0x1
 3151 0132 13       		.uleb128 0x13
 3152 0133 00       		.byte	0
 3153 0134 00       		.byte	0
 3154 0135 1A       		.uleb128 0x1a
 3155 0136 21       		.uleb128 0x21
 3156 0137 00       		.byte	0
 3157 0138 49       		.uleb128 0x49
 3158 0139 13       		.uleb128 0x13
 3159 013a 2F       		.uleb128 0x2f
 3160 013b 0B       		.uleb128 0xb
 3161 013c 00       		.byte	0
 3162 013d 00       		.byte	0
 3163 013e 1B       		.uleb128 0x1b
 3164 013f 17       		.uleb128 0x17
 3165 0140 01       		.byte	0x1
ARM GAS  C:\Users\jo\AppData\Local\Temp\ccQH7AaA.s 			page 57


 3166 0141 0B       		.uleb128 0xb
 3167 0142 0B       		.uleb128 0xb
 3168 0143 3A       		.uleb128 0x3a
 3169 0144 0B       		.uleb128 0xb
 3170 0145 3B       		.uleb128 0x3b
 3171 0146 0B       		.uleb128 0xb
 3172 0147 01       		.uleb128 0x1
 3173 0148 13       		.uleb128 0x13
 3174 0149 00       		.byte	0
 3175 014a 00       		.byte	0
 3176 014b 1C       		.uleb128 0x1c
 3177 014c 0D       		.uleb128 0xd
 3178 014d 00       		.byte	0
 3179 014e 03       		.uleb128 0x3
 3180 014f 0E       		.uleb128 0xe
 3181 0150 3A       		.uleb128 0x3a
 3182 0151 0B       		.uleb128 0xb
 3183 0152 3B       		.uleb128 0x3b
 3184 0153 0B       		.uleb128 0xb
 3185 0154 49       		.uleb128 0x49
 3186 0155 13       		.uleb128 0x13
 3187 0156 00       		.byte	0
 3188 0157 00       		.byte	0
 3189 0158 1D       		.uleb128 0x1d
 3190 0159 0D       		.uleb128 0xd
 3191 015a 00       		.byte	0
 3192 015b 03       		.uleb128 0x3
 3193 015c 0E       		.uleb128 0xe
 3194 015d 3A       		.uleb128 0x3a
 3195 015e 0B       		.uleb128 0xb
 3196 015f 3B       		.uleb128 0x3b
 3197 0160 05       		.uleb128 0x5
 3198 0161 49       		.uleb128 0x49
 3199 0162 13       		.uleb128 0x13
 3200 0163 00       		.byte	0
 3201 0164 00       		.byte	0
 3202 0165 1E       		.uleb128 0x1e
 3203 0166 15       		.uleb128 0x15
 3204 0167 01       		.byte	0x1
 3205 0168 27       		.uleb128 0x27
 3206 0169 19       		.uleb128 0x19
 3207 016a 49       		.uleb128 0x49
 3208 016b 13       		.uleb128 0x13
 3209 016c 01       		.uleb128 0x1
 3210 016d 13       		.uleb128 0x13
 3211 016e 00       		.byte	0
 3212 016f 00       		.byte	0
 3213 0170 1F       		.uleb128 0x1f
 3214 0171 0D       		.uleb128 0xd
 3215 0172 00       		.byte	0
 3216 0173 03       		.uleb128 0x3
 3217 0174 08       		.uleb128 0x8
 3218 0175 3A       		.uleb128 0x3a
 3219 0176 0B       		.uleb128 0xb
 3220 0177 3B       		.uleb128 0x3b
 3221 0178 0B       		.uleb128 0xb
 3222 0179 49       		.uleb128 0x49
ARM GAS  C:\Users\jo\AppData\Local\Temp\ccQH7AaA.s 			page 58


 3223 017a 13       		.uleb128 0x13
 3224 017b 00       		.byte	0
 3225 017c 00       		.byte	0
 3226 017d 20       		.uleb128 0x20
 3227 017e 04       		.uleb128 0x4
 3228 017f 01       		.byte	0x1
 3229 0180 0B       		.uleb128 0xb
 3230 0181 0B       		.uleb128 0xb
 3231 0182 3A       		.uleb128 0x3a
 3232 0183 0B       		.uleb128 0xb
 3233 0184 3B       		.uleb128 0x3b
 3234 0185 0B       		.uleb128 0xb
 3235 0186 01       		.uleb128 0x1
 3236 0187 13       		.uleb128 0x13
 3237 0188 00       		.byte	0
 3238 0189 00       		.byte	0
 3239 018a 21       		.uleb128 0x21
 3240 018b 28       		.uleb128 0x28
 3241 018c 00       		.byte	0
 3242 018d 03       		.uleb128 0x3
 3243 018e 0E       		.uleb128 0xe
 3244 018f 1C       		.uleb128 0x1c
 3245 0190 0D       		.uleb128 0xd
 3246 0191 00       		.byte	0
 3247 0192 00       		.byte	0
 3248 0193 22       		.uleb128 0x22
 3249 0194 2E       		.uleb128 0x2e
 3250 0195 01       		.byte	0x1
 3251 0196 3F       		.uleb128 0x3f
 3252 0197 19       		.uleb128 0x19
 3253 0198 03       		.uleb128 0x3
 3254 0199 0E       		.uleb128 0xe
 3255 019a 3A       		.uleb128 0x3a
 3256 019b 0B       		.uleb128 0xb
 3257 019c 3B       		.uleb128 0x3b
 3258 019d 0B       		.uleb128 0xb
 3259 019e 27       		.uleb128 0x27
 3260 019f 19       		.uleb128 0x19
 3261 01a0 20       		.uleb128 0x20
 3262 01a1 0B       		.uleb128 0xb
 3263 01a2 01       		.uleb128 0x1
 3264 01a3 13       		.uleb128 0x13
 3265 01a4 00       		.byte	0
 3266 01a5 00       		.byte	0
 3267 01a6 23       		.uleb128 0x23
 3268 01a7 34       		.uleb128 0x34
 3269 01a8 00       		.byte	0
 3270 01a9 03       		.uleb128 0x3
 3271 01aa 0E       		.uleb128 0xe
 3272 01ab 3A       		.uleb128 0x3a
 3273 01ac 0B       		.uleb128 0xb
 3274 01ad 3B       		.uleb128 0x3b
 3275 01ae 0B       		.uleb128 0xb
 3276 01af 49       		.uleb128 0x49
 3277 01b0 13       		.uleb128 0x13
 3278 01b1 00       		.byte	0
 3279 01b2 00       		.byte	0
ARM GAS  C:\Users\jo\AppData\Local\Temp\ccQH7AaA.s 			page 59


 3280 01b3 24       		.uleb128 0x24
 3281 01b4 05       		.uleb128 0x5
 3282 01b5 00       		.byte	0
 3283 01b6 03       		.uleb128 0x3
 3284 01b7 08       		.uleb128 0x8
 3285 01b8 3A       		.uleb128 0x3a
 3286 01b9 0B       		.uleb128 0xb
 3287 01ba 3B       		.uleb128 0x3b
 3288 01bb 0B       		.uleb128 0xb
 3289 01bc 49       		.uleb128 0x49
 3290 01bd 13       		.uleb128 0x13
 3291 01be 00       		.byte	0
 3292 01bf 00       		.byte	0
 3293 01c0 25       		.uleb128 0x25
 3294 01c1 05       		.uleb128 0x5
 3295 01c2 00       		.byte	0
 3296 01c3 03       		.uleb128 0x3
 3297 01c4 0E       		.uleb128 0xe
 3298 01c5 3A       		.uleb128 0x3a
 3299 01c6 0B       		.uleb128 0xb
 3300 01c7 3B       		.uleb128 0x3b
 3301 01c8 0B       		.uleb128 0xb
 3302 01c9 49       		.uleb128 0x49
 3303 01ca 13       		.uleb128 0x13
 3304 01cb 00       		.byte	0
 3305 01cc 00       		.byte	0
 3306 01cd 26       		.uleb128 0x26
 3307 01ce 2E       		.uleb128 0x2e
 3308 01cf 01       		.byte	0x1
 3309 01d0 03       		.uleb128 0x3
 3310 01d1 0E       		.uleb128 0xe
 3311 01d2 3A       		.uleb128 0x3a
 3312 01d3 0B       		.uleb128 0xb
 3313 01d4 3B       		.uleb128 0x3b
 3314 01d5 0B       		.uleb128 0xb
 3315 01d6 27       		.uleb128 0x27
 3316 01d7 19       		.uleb128 0x19
 3317 01d8 49       		.uleb128 0x49
 3318 01d9 13       		.uleb128 0x13
 3319 01da 20       		.uleb128 0x20
 3320 01db 0B       		.uleb128 0xb
 3321 01dc 01       		.uleb128 0x1
 3322 01dd 13       		.uleb128 0x13
 3323 01de 00       		.byte	0
 3324 01df 00       		.byte	0
 3325 01e0 27       		.uleb128 0x27
 3326 01e1 18       		.uleb128 0x18
 3327 01e2 00       		.byte	0
 3328 01e3 00       		.byte	0
 3329 01e4 00       		.byte	0
 3330 01e5 28       		.uleb128 0x28
 3331 01e6 34       		.uleb128 0x34
 3332 01e7 00       		.byte	0
 3333 01e8 03       		.uleb128 0x3
 3334 01e9 08       		.uleb128 0x8
 3335 01ea 3A       		.uleb128 0x3a
 3336 01eb 0B       		.uleb128 0xb
ARM GAS  C:\Users\jo\AppData\Local\Temp\ccQH7AaA.s 			page 60


 3337 01ec 3B       		.uleb128 0x3b
 3338 01ed 0B       		.uleb128 0xb
 3339 01ee 49       		.uleb128 0x49
 3340 01ef 13       		.uleb128 0x13
 3341 01f0 00       		.byte	0
 3342 01f1 00       		.byte	0
 3343 01f2 29       		.uleb128 0x29
 3344 01f3 2E       		.uleb128 0x2e
 3345 01f4 01       		.byte	0x1
 3346 01f5 03       		.uleb128 0x3
 3347 01f6 0E       		.uleb128 0xe
 3348 01f7 3A       		.uleb128 0x3a
 3349 01f8 0B       		.uleb128 0xb
 3350 01f9 3B       		.uleb128 0x3b
 3351 01fa 0B       		.uleb128 0xb
 3352 01fb 27       		.uleb128 0x27
 3353 01fc 19       		.uleb128 0x19
 3354 01fd 49       		.uleb128 0x49
 3355 01fe 13       		.uleb128 0x13
 3356 01ff 11       		.uleb128 0x11
 3357 0200 01       		.uleb128 0x1
 3358 0201 12       		.uleb128 0x12
 3359 0202 06       		.uleb128 0x6
 3360 0203 40       		.uleb128 0x40
 3361 0204 18       		.uleb128 0x18
 3362 0205 9742     		.uleb128 0x2117
 3363 0207 19       		.uleb128 0x19
 3364 0208 01       		.uleb128 0x1
 3365 0209 13       		.uleb128 0x13
 3366 020a 00       		.byte	0
 3367 020b 00       		.byte	0
 3368 020c 2A       		.uleb128 0x2a
 3369 020d 05       		.uleb128 0x5
 3370 020e 00       		.byte	0
 3371 020f 03       		.uleb128 0x3
 3372 0210 08       		.uleb128 0x8
 3373 0211 3A       		.uleb128 0x3a
 3374 0212 0B       		.uleb128 0xb
 3375 0213 3B       		.uleb128 0x3b
 3376 0214 0B       		.uleb128 0xb
 3377 0215 49       		.uleb128 0x49
 3378 0216 13       		.uleb128 0x13
 3379 0217 02       		.uleb128 0x2
 3380 0218 17       		.uleb128 0x17
 3381 0219 00       		.byte	0
 3382 021a 00       		.byte	0
 3383 021b 2B       		.uleb128 0x2b
 3384 021c 898201   		.uleb128 0x4109
 3385 021f 01       		.byte	0x1
 3386 0220 11       		.uleb128 0x11
 3387 0221 01       		.uleb128 0x1
 3388 0222 31       		.uleb128 0x31
 3389 0223 13       		.uleb128 0x13
 3390 0224 01       		.uleb128 0x1
 3391 0225 13       		.uleb128 0x13
 3392 0226 00       		.byte	0
 3393 0227 00       		.byte	0
ARM GAS  C:\Users\jo\AppData\Local\Temp\ccQH7AaA.s 			page 61


 3394 0228 2C       		.uleb128 0x2c
 3395 0229 8A8201   		.uleb128 0x410a
 3396 022c 00       		.byte	0
 3397 022d 02       		.uleb128 0x2
 3398 022e 18       		.uleb128 0x18
 3399 022f 9142     		.uleb128 0x2111
 3400 0231 18       		.uleb128 0x18
 3401 0232 00       		.byte	0
 3402 0233 00       		.byte	0
 3403 0234 2D       		.uleb128 0x2d
 3404 0235 898201   		.uleb128 0x4109
 3405 0238 00       		.byte	0
 3406 0239 11       		.uleb128 0x11
 3407 023a 01       		.uleb128 0x1
 3408 023b 31       		.uleb128 0x31
 3409 023c 13       		.uleb128 0x13
 3410 023d 00       		.byte	0
 3411 023e 00       		.byte	0
 3412 023f 2E       		.uleb128 0x2e
 3413 0240 2E       		.uleb128 0x2e
 3414 0241 01       		.byte	0x1
 3415 0242 31       		.uleb128 0x31
 3416 0243 13       		.uleb128 0x13
 3417 0244 11       		.uleb128 0x11
 3418 0245 01       		.uleb128 0x1
 3419 0246 12       		.uleb128 0x12
 3420 0247 06       		.uleb128 0x6
 3421 0248 40       		.uleb128 0x40
 3422 0249 18       		.uleb128 0x18
 3423 024a 9742     		.uleb128 0x2117
 3424 024c 19       		.uleb128 0x19
 3425 024d 01       		.uleb128 0x1
 3426 024e 13       		.uleb128 0x13
 3427 024f 00       		.byte	0
 3428 0250 00       		.byte	0
 3429 0251 2F       		.uleb128 0x2f
 3430 0252 05       		.uleb128 0x5
 3431 0253 00       		.byte	0
 3432 0254 31       		.uleb128 0x31
 3433 0255 13       		.uleb128 0x13
 3434 0256 02       		.uleb128 0x2
 3435 0257 17       		.uleb128 0x17
 3436 0258 00       		.byte	0
 3437 0259 00       		.byte	0
 3438 025a 30       		.uleb128 0x30
 3439 025b 05       		.uleb128 0x5
 3440 025c 00       		.byte	0
 3441 025d 31       		.uleb128 0x31
 3442 025e 13       		.uleb128 0x13
 3443 025f 02       		.uleb128 0x2
 3444 0260 18       		.uleb128 0x18
 3445 0261 00       		.byte	0
 3446 0262 00       		.byte	0
 3447 0263 31       		.uleb128 0x31
 3448 0264 34       		.uleb128 0x34
 3449 0265 00       		.byte	0
 3450 0266 31       		.uleb128 0x31
ARM GAS  C:\Users\jo\AppData\Local\Temp\ccQH7AaA.s 			page 62


 3451 0267 13       		.uleb128 0x13
 3452 0268 02       		.uleb128 0x2
 3453 0269 18       		.uleb128 0x18
 3454 026a 00       		.byte	0
 3455 026b 00       		.byte	0
 3456 026c 32       		.uleb128 0x32
 3457 026d 898201   		.uleb128 0x4109
 3458 0270 01       		.byte	0x1
 3459 0271 11       		.uleb128 0x11
 3460 0272 01       		.uleb128 0x1
 3461 0273 31       		.uleb128 0x31
 3462 0274 13       		.uleb128 0x13
 3463 0275 00       		.byte	0
 3464 0276 00       		.byte	0
 3465 0277 33       		.uleb128 0x33
 3466 0278 34       		.uleb128 0x34
 3467 0279 00       		.byte	0
 3468 027a 31       		.uleb128 0x31
 3469 027b 13       		.uleb128 0x13
 3470 027c 1C       		.uleb128 0x1c
 3471 027d 0D       		.uleb128 0xd
 3472 027e 00       		.byte	0
 3473 027f 00       		.byte	0
 3474 0280 34       		.uleb128 0x34
 3475 0281 0B       		.uleb128 0xb
 3476 0282 01       		.byte	0x1
 3477 0283 11       		.uleb128 0x11
 3478 0284 01       		.uleb128 0x1
 3479 0285 12       		.uleb128 0x12
 3480 0286 06       		.uleb128 0x6
 3481 0287 00       		.byte	0
 3482 0288 00       		.byte	0
 3483 0289 35       		.uleb128 0x35
 3484 028a 34       		.uleb128 0x34
 3485 028b 00       		.byte	0
 3486 028c 31       		.uleb128 0x31
 3487 028d 13       		.uleb128 0x13
 3488 028e 00       		.byte	0
 3489 028f 00       		.byte	0
 3490 0290 36       		.uleb128 0x36
 3491 0291 05       		.uleb128 0x5
 3492 0292 00       		.byte	0
 3493 0293 31       		.uleb128 0x31
 3494 0294 13       		.uleb128 0x13
 3495 0295 00       		.byte	0
 3496 0296 00       		.byte	0
 3497 0297 37       		.uleb128 0x37
 3498 0298 2E       		.uleb128 0x2e
 3499 0299 01       		.byte	0x1
 3500 029a 3F       		.uleb128 0x3f
 3501 029b 19       		.uleb128 0x19
 3502 029c 03       		.uleb128 0x3
 3503 029d 0E       		.uleb128 0xe
 3504 029e 3A       		.uleb128 0x3a
 3505 029f 0B       		.uleb128 0xb
 3506 02a0 3B       		.uleb128 0x3b
 3507 02a1 0B       		.uleb128 0xb
ARM GAS  C:\Users\jo\AppData\Local\Temp\ccQH7AaA.s 			page 63


 3508 02a2 27       		.uleb128 0x27
 3509 02a3 19       		.uleb128 0x19
 3510 02a4 49       		.uleb128 0x49
 3511 02a5 13       		.uleb128 0x13
 3512 02a6 11       		.uleb128 0x11
 3513 02a7 01       		.uleb128 0x1
 3514 02a8 12       		.uleb128 0x12
 3515 02a9 06       		.uleb128 0x6
 3516 02aa 40       		.uleb128 0x40
 3517 02ab 18       		.uleb128 0x18
 3518 02ac 9742     		.uleb128 0x2117
 3519 02ae 19       		.uleb128 0x19
 3520 02af 01       		.uleb128 0x1
 3521 02b0 13       		.uleb128 0x13
 3522 02b1 00       		.byte	0
 3523 02b2 00       		.byte	0
 3524 02b3 38       		.uleb128 0x38
 3525 02b4 1D       		.uleb128 0x1d
 3526 02b5 01       		.byte	0x1
 3527 02b6 31       		.uleb128 0x31
 3528 02b7 13       		.uleb128 0x13
 3529 02b8 52       		.uleb128 0x52
 3530 02b9 01       		.uleb128 0x1
 3531 02ba 55       		.uleb128 0x55
 3532 02bb 17       		.uleb128 0x17
 3533 02bc 58       		.uleb128 0x58
 3534 02bd 0B       		.uleb128 0xb
 3535 02be 59       		.uleb128 0x59
 3536 02bf 0B       		.uleb128 0xb
 3537 02c0 01       		.uleb128 0x1
 3538 02c1 13       		.uleb128 0x13
 3539 02c2 00       		.byte	0
 3540 02c3 00       		.byte	0
 3541 02c4 39       		.uleb128 0x39
 3542 02c5 34       		.uleb128 0x34
 3543 02c6 00       		.byte	0
 3544 02c7 03       		.uleb128 0x3
 3545 02c8 0E       		.uleb128 0xe
 3546 02c9 3A       		.uleb128 0x3a
 3547 02ca 0B       		.uleb128 0xb
 3548 02cb 3B       		.uleb128 0x3b
 3549 02cc 0B       		.uleb128 0xb
 3550 02cd 49       		.uleb128 0x49
 3551 02ce 13       		.uleb128 0x13
 3552 02cf 02       		.uleb128 0x2
 3553 02d0 18       		.uleb128 0x18
 3554 02d1 00       		.byte	0
 3555 02d2 00       		.byte	0
 3556 02d3 3A       		.uleb128 0x3a
 3557 02d4 34       		.uleb128 0x34
 3558 02d5 00       		.byte	0
 3559 02d6 03       		.uleb128 0x3
 3560 02d7 0E       		.uleb128 0xe
 3561 02d8 3A       		.uleb128 0x3a
 3562 02d9 0B       		.uleb128 0xb
 3563 02da 3B       		.uleb128 0x3b
 3564 02db 05       		.uleb128 0x5
ARM GAS  C:\Users\jo\AppData\Local\Temp\ccQH7AaA.s 			page 64


 3565 02dc 49       		.uleb128 0x49
 3566 02dd 13       		.uleb128 0x13
 3567 02de 3F       		.uleb128 0x3f
 3568 02df 19       		.uleb128 0x19
 3569 02e0 3C       		.uleb128 0x3c
 3570 02e1 19       		.uleb128 0x19
 3571 02e2 00       		.byte	0
 3572 02e3 00       		.byte	0
 3573 02e4 3B       		.uleb128 0x3b
 3574 02e5 34       		.uleb128 0x34
 3575 02e6 00       		.byte	0
 3576 02e7 03       		.uleb128 0x3
 3577 02e8 08       		.uleb128 0x8
 3578 02e9 3A       		.uleb128 0x3a
 3579 02ea 0B       		.uleb128 0xb
 3580 02eb 3B       		.uleb128 0x3b
 3581 02ec 05       		.uleb128 0x5
 3582 02ed 49       		.uleb128 0x49
 3583 02ee 13       		.uleb128 0x13
 3584 02ef 3F       		.uleb128 0x3f
 3585 02f0 19       		.uleb128 0x19
 3586 02f1 3C       		.uleb128 0x3c
 3587 02f2 19       		.uleb128 0x19
 3588 02f3 00       		.byte	0
 3589 02f4 00       		.byte	0
 3590 02f5 3C       		.uleb128 0x3c
 3591 02f6 34       		.uleb128 0x34
 3592 02f7 00       		.byte	0
 3593 02f8 03       		.uleb128 0x3
 3594 02f9 0E       		.uleb128 0xe
 3595 02fa 3A       		.uleb128 0x3a
 3596 02fb 0B       		.uleb128 0xb
 3597 02fc 3B       		.uleb128 0x3b
 3598 02fd 0B       		.uleb128 0xb
 3599 02fe 49       		.uleb128 0x49
 3600 02ff 13       		.uleb128 0x13
 3601 0300 3F       		.uleb128 0x3f
 3602 0301 19       		.uleb128 0x19
 3603 0302 02       		.uleb128 0x2
 3604 0303 18       		.uleb128 0x18
 3605 0304 00       		.byte	0
 3606 0305 00       		.byte	0
 3607 0306 3D       		.uleb128 0x3d
 3608 0307 34       		.uleb128 0x34
 3609 0308 00       		.byte	0
 3610 0309 03       		.uleb128 0x3
 3611 030a 0E       		.uleb128 0xe
 3612 030b 3A       		.uleb128 0x3a
 3613 030c 0B       		.uleb128 0xb
 3614 030d 3B       		.uleb128 0x3b
 3615 030e 0B       		.uleb128 0xb
 3616 030f 49       		.uleb128 0x49
 3617 0310 13       		.uleb128 0x13
 3618 0311 3F       		.uleb128 0x3f
 3619 0312 19       		.uleb128 0x19
 3620 0313 3C       		.uleb128 0x3c
 3621 0314 19       		.uleb128 0x19
ARM GAS  C:\Users\jo\AppData\Local\Temp\ccQH7AaA.s 			page 65


 3622 0315 00       		.byte	0
 3623 0316 00       		.byte	0
 3624 0317 3E       		.uleb128 0x3e
 3625 0318 21       		.uleb128 0x21
 3626 0319 00       		.byte	0
 3627 031a 49       		.uleb128 0x49
 3628 031b 13       		.uleb128 0x13
 3629 031c 2F       		.uleb128 0x2f
 3630 031d 05       		.uleb128 0x5
 3631 031e 00       		.byte	0
 3632 031f 00       		.byte	0
 3633 0320 3F       		.uleb128 0x3f
 3634 0321 2E       		.uleb128 0x2e
 3635 0322 01       		.byte	0x1
 3636 0323 3F       		.uleb128 0x3f
 3637 0324 19       		.uleb128 0x19
 3638 0325 03       		.uleb128 0x3
 3639 0326 0E       		.uleb128 0xe
 3640 0327 3A       		.uleb128 0x3a
 3641 0328 0B       		.uleb128 0xb
 3642 0329 3B       		.uleb128 0x3b
 3643 032a 0B       		.uleb128 0xb
 3644 032b 27       		.uleb128 0x27
 3645 032c 19       		.uleb128 0x19
 3646 032d 3C       		.uleb128 0x3c
 3647 032e 19       		.uleb128 0x19
 3648 032f 01       		.uleb128 0x1
 3649 0330 13       		.uleb128 0x13
 3650 0331 00       		.byte	0
 3651 0332 00       		.byte	0
 3652 0333 40       		.uleb128 0x40
 3653 0334 2E       		.uleb128 0x2e
 3654 0335 00       		.byte	0
 3655 0336 3F       		.uleb128 0x3f
 3656 0337 19       		.uleb128 0x19
 3657 0338 03       		.uleb128 0x3
 3658 0339 0E       		.uleb128 0xe
 3659 033a 3A       		.uleb128 0x3a
 3660 033b 0B       		.uleb128 0xb
 3661 033c 3B       		.uleb128 0x3b
 3662 033d 05       		.uleb128 0x5
 3663 033e 27       		.uleb128 0x27
 3664 033f 19       		.uleb128 0x19
 3665 0340 3C       		.uleb128 0x3c
 3666 0341 19       		.uleb128 0x19
 3667 0342 00       		.byte	0
 3668 0343 00       		.byte	0
 3669 0344 41       		.uleb128 0x41
 3670 0345 2E       		.uleb128 0x2e
 3671 0346 01       		.byte	0x1
 3672 0347 3F       		.uleb128 0x3f
 3673 0348 19       		.uleb128 0x19
 3674 0349 03       		.uleb128 0x3
 3675 034a 0E       		.uleb128 0xe
 3676 034b 3A       		.uleb128 0x3a
 3677 034c 0B       		.uleb128 0xb
 3678 034d 3B       		.uleb128 0x3b
ARM GAS  C:\Users\jo\AppData\Local\Temp\ccQH7AaA.s 			page 66


 3679 034e 0B       		.uleb128 0xb
 3680 034f 27       		.uleb128 0x27
 3681 0350 19       		.uleb128 0x19
 3682 0351 49       		.uleb128 0x49
 3683 0352 13       		.uleb128 0x13
 3684 0353 3C       		.uleb128 0x3c
 3685 0354 19       		.uleb128 0x19
 3686 0355 01       		.uleb128 0x1
 3687 0356 13       		.uleb128 0x13
 3688 0357 00       		.byte	0
 3689 0358 00       		.byte	0
 3690 0359 42       		.uleb128 0x42
 3691 035a 2E       		.uleb128 0x2e
 3692 035b 00       		.byte	0
 3693 035c 3F       		.uleb128 0x3f
 3694 035d 19       		.uleb128 0x19
 3695 035e 03       		.uleb128 0x3
 3696 035f 0E       		.uleb128 0xe
 3697 0360 3A       		.uleb128 0x3a
 3698 0361 0B       		.uleb128 0xb
 3699 0362 3B       		.uleb128 0x3b
 3700 0363 0B       		.uleb128 0xb
 3701 0364 27       		.uleb128 0x27
 3702 0365 19       		.uleb128 0x19
 3703 0366 3C       		.uleb128 0x3c
 3704 0367 19       		.uleb128 0x19
 3705 0368 00       		.byte	0
 3706 0369 00       		.byte	0
 3707 036a 43       		.uleb128 0x43
 3708 036b 2E       		.uleb128 0x2e
 3709 036c 01       		.byte	0x1
 3710 036d 3F       		.uleb128 0x3f
 3711 036e 19       		.uleb128 0x19
 3712 036f 03       		.uleb128 0x3
 3713 0370 0E       		.uleb128 0xe
 3714 0371 3A       		.uleb128 0x3a
 3715 0372 0B       		.uleb128 0xb
 3716 0373 3B       		.uleb128 0x3b
 3717 0374 05       		.uleb128 0x5
 3718 0375 27       		.uleb128 0x27
 3719 0376 19       		.uleb128 0x19
 3720 0377 3C       		.uleb128 0x3c
 3721 0378 19       		.uleb128 0x19
 3722 0379 01       		.uleb128 0x1
 3723 037a 13       		.uleb128 0x13
 3724 037b 00       		.byte	0
 3725 037c 00       		.byte	0
 3726 037d 44       		.uleb128 0x44
 3727 037e 2E       		.uleb128 0x2e
 3728 037f 01       		.byte	0x1
 3729 0380 3F       		.uleb128 0x3f
 3730 0381 19       		.uleb128 0x19
 3731 0382 03       		.uleb128 0x3
 3732 0383 0E       		.uleb128 0xe
 3733 0384 3A       		.uleb128 0x3a
 3734 0385 0B       		.uleb128 0xb
 3735 0386 3B       		.uleb128 0x3b
ARM GAS  C:\Users\jo\AppData\Local\Temp\ccQH7AaA.s 			page 67


 3736 0387 0B       		.uleb128 0xb
 3737 0388 27       		.uleb128 0x27
 3738 0389 19       		.uleb128 0x19
 3739 038a 49       		.uleb128 0x49
 3740 038b 13       		.uleb128 0x13
 3741 038c 3C       		.uleb128 0x3c
 3742 038d 19       		.uleb128 0x19
 3743 038e 00       		.byte	0
 3744 038f 00       		.byte	0
 3745 0390 00       		.byte	0
 3746              		.section	.debug_loc,"",%progbits
 3747              	.Ldebug_loc0:
 3748              	.LLST0:
 3749 0000 00000000 		.4byte	.LVL0
 3750 0004 10000000 		.4byte	.LVL1
 3751 0008 0100     		.2byte	0x1
 3752 000a 50       		.byte	0x50
 3753 000b 10000000 		.4byte	.LVL1
 3754 000f 38000000 		.4byte	.LFE259
 3755 0013 0400     		.2byte	0x4
 3756 0015 F3       		.byte	0xf3
 3757 0016 01       		.uleb128 0x1
 3758 0017 50       		.byte	0x50
 3759 0018 9F       		.byte	0x9f
 3760 0019 00000000 		.4byte	0
 3761 001d 00000000 		.4byte	0
 3762              	.LLST1:
 3763 0021 00000000 		.4byte	.LVL5
 3764 0025 0E000000 		.4byte	.LVL6
 3765 0029 0100     		.2byte	0x1
 3766 002b 50       		.byte	0x50
 3767 002c 0E000000 		.4byte	.LVL6
 3768 0030 28000000 		.4byte	.LFE264
 3769 0034 0400     		.2byte	0x4
 3770 0036 F3       		.byte	0xf3
 3771 0037 01       		.uleb128 0x1
 3772 0038 50       		.byte	0x50
 3773 0039 9F       		.byte	0x9f
 3774 003a 00000000 		.4byte	0
 3775 003e 00000000 		.4byte	0
 3776              	.LLST2:
 3777 0042 00000000 		.4byte	.LVL10
 3778 0046 0C000000 		.4byte	.LVL12
 3779 004a 0100     		.2byte	0x1
 3780 004c 50       		.byte	0x50
 3781 004d 0C000000 		.4byte	.LVL12
 3782 0051 0E000000 		.4byte	.LVL13
 3783 0055 0100     		.2byte	0x1
 3784 0057 54       		.byte	0x54
 3785 0058 0E000000 		.4byte	.LVL13
 3786 005c 1C000000 		.4byte	.LVL17
 3787 0060 0400     		.2byte	0x4
 3788 0062 F3       		.byte	0xf3
 3789 0063 01       		.uleb128 0x1
 3790 0064 50       		.byte	0x50
 3791 0065 9F       		.byte	0x9f
 3792 0066 1C000000 		.4byte	.LVL17
ARM GAS  C:\Users\jo\AppData\Local\Temp\ccQH7AaA.s 			page 68


 3793 006a 24000000 		.4byte	.LFE258
 3794 006e 0100     		.2byte	0x1
 3795 0070 50       		.byte	0x50
 3796 0071 00000000 		.4byte	0
 3797 0075 00000000 		.4byte	0
 3798              	.LLST3:
 3799 0079 06000000 		.4byte	.LVL11
 3800 007d 0C000000 		.4byte	.LVL12
 3801 0081 0100     		.2byte	0x1
 3802 0083 50       		.byte	0x50
 3803 0084 0C000000 		.4byte	.LVL12
 3804 0088 16000000 		.4byte	.LVL15
 3805 008c 0100     		.2byte	0x1
 3806 008e 54       		.byte	0x54
 3807 008f 16000000 		.4byte	.LVL15
 3808 0093 1A000000 		.4byte	.LVL16
 3809 0097 0300     		.2byte	0x3
 3810 0099 74       		.byte	0x74
 3811 009a 7F       		.sleb128 -1
 3812 009b 9F       		.byte	0x9f
 3813 009c 00000000 		.4byte	0
 3814 00a0 00000000 		.4byte	0
 3815              	.LLST4:
 3816 00a4 80000000 		.4byte	.LVL29
 3817 00a8 88000000 		.4byte	.LVL31
 3818 00ac 0100     		.2byte	0x1
 3819 00ae 54       		.byte	0x54
 3820 00af 88000000 		.4byte	.LVL31
 3821 00b3 C4000000 		.4byte	.LFE260
 3822 00b7 0300     		.2byte	0x3
 3823 00b9 74       		.byte	0x74
 3824 00ba 7F       		.sleb128 -1
 3825 00bb 9F       		.byte	0x9f
 3826 00bc 00000000 		.4byte	0
 3827 00c0 00000000 		.4byte	0
 3828              		.section	.debug_aranges,"",%progbits
 3829 0000 44000000 		.4byte	0x44
 3830 0004 0200     		.2byte	0x2
 3831 0006 00000000 		.4byte	.Ldebug_info0
 3832 000a 04       		.byte	0x4
 3833 000b 00       		.byte	0
 3834 000c 0000     		.2byte	0
 3835 000e 0000     		.2byte	0
 3836 0010 00000000 		.4byte	.LFB259
 3837 0014 38000000 		.4byte	.LFE259-.LFB259
 3838 0018 00000000 		.4byte	.LFB264
 3839 001c 28000000 		.4byte	.LFE264-.LFB264
 3840 0020 00000000 		.4byte	.LFB256
 3841 0024 34000000 		.4byte	.LFE256-.LFB256
 3842 0028 00000000 		.4byte	.LFB257
 3843 002c 28000000 		.4byte	.LFE257-.LFB257
 3844 0030 00000000 		.4byte	.LFB258
 3845 0034 24000000 		.4byte	.LFE258-.LFB258
 3846 0038 00000000 		.4byte	.LFB260
 3847 003c C4000000 		.4byte	.LFE260-.LFB260
 3848 0040 00000000 		.4byte	0
 3849 0044 00000000 		.4byte	0
ARM GAS  C:\Users\jo\AppData\Local\Temp\ccQH7AaA.s 			page 69


 3850              		.section	.debug_ranges,"",%progbits
 3851              	.Ldebug_ranges0:
 3852 0000 08000000 		.4byte	.LBB19
 3853 0004 10000000 		.4byte	.LBE19
 3854 0008 7C000000 		.4byte	.LBB24
 3855 000c C4000000 		.4byte	.LBE24
 3856 0010 00000000 		.4byte	0
 3857 0014 00000000 		.4byte	0
 3858 0018 00000000 		.4byte	.LFB259
 3859 001c 38000000 		.4byte	.LFE259
 3860 0020 00000000 		.4byte	.LFB264
 3861 0024 28000000 		.4byte	.LFE264
 3862 0028 00000000 		.4byte	.LFB256
 3863 002c 34000000 		.4byte	.LFE256
 3864 0030 00000000 		.4byte	.LFB257
 3865 0034 28000000 		.4byte	.LFE257
 3866 0038 00000000 		.4byte	.LFB258
 3867 003c 24000000 		.4byte	.LFE258
 3868 0040 00000000 		.4byte	.LFB260
 3869 0044 C4000000 		.4byte	.LFE260
 3870 0048 00000000 		.4byte	0
 3871 004c 00000000 		.4byte	0
 3872              		.section	.debug_line,"",%progbits
 3873              	.Ldebug_line0:
 3874 0000 3C050000 		.section	.debug_str,"MS",%progbits,1
 3874      02006804 
 3874      00000201 
 3874      FB0E0D00 
 3874      01010101 
 3875              	.LASF51:
 3876 0000 705F7374 		.ascii	"p_stats\000"
 3876      61747300 
 3877              	.LASF2:
 3878 0008 73697A65 		.ascii	"size_t\000"
 3878      5F7400
 3879              	.LASF89:
 3880 000f 73697A65 		.ascii	"sizetype\000"
 3880      74797065 
 3880      00
 3881              	.LASF31:
 3882 0018 73797374 		.ascii	"systime_t\000"
 3882      696D655F 
 3882      7400
 3883              	.LASF36:
 3884 0022 705F6374 		.ascii	"p_ctx\000"
 3884      7800
 3885              	.LASF25:
 3886 0028 74707269 		.ascii	"tprio_t\000"
 3886      6F5F7400 
 3887              	.LASF45:
 3888 0030 705F6D73 		.ascii	"p_msgqueue\000"
 3888      67717565 
 3888      756500
 3889              	.LASF61:
 3890 003b 725F6374 		.ascii	"r_ctx\000"
 3890      7800
 3891              	.LASF17:
ARM GAS  C:\Users\jo\AppData\Local\Temp\ccQH7AaA.s 			page 70


 3892 0041 696E7433 		.ascii	"int32_t\000"
 3892      325F7400 
 3893              	.LASF181:
 3894 0049 53657269 		.ascii	"SerialConfig\000"
 3894      616C436F 
 3894      6E666967 
 3894      00
 3895              	.LASF185:
 3896 0056 77726974 		.ascii	"writet\000"
 3896      657400
 3897              	.LASF65:
 3898 005d 76746675 		.ascii	"vtfunc_t\000"
 3898      6E635F74 
 3898      00
 3899              	.LASF74:
 3900 0066 63685F76 		.ascii	"ch_virtual_timers_list\000"
 3900      69727475 
 3900      616C5F74 
 3900      696D6572 
 3900      735F6C69 
 3901              	.LASF221:
 3902 007d 69746D4F 		.ascii	"itmObjectInit\000"
 3902      626A6563 
 3902      74496E69 
 3902      7400
 3903              	.LASF200:
 3904 008b 4D454D50 		.ascii	"MEMP_SYS_TIMEOUT\000"
 3904      5F535953 
 3904      5F54494D 
 3904      454F5554 
 3904      00
 3905              	.LASF155:
 3906 009c 77726974 		.ascii	"write\000"
 3906      6500
 3907              	.LASF157:
 3908 00a2 42617365 		.ascii	"BaseSequentialStream\000"
 3908      53657175 
 3908      656E7469 
 3908      616C5374 
 3908      7265616D 
 3909              	.LASF136:
 3910 00b7 656C5F66 		.ascii	"el_flags\000"
 3910      6C616773 
 3910      00
 3911              	.LASF176:
 3912 00c0 73746174 		.ascii	"state\000"
 3912      6500
 3913              	.LASF80:
 3914 00c6 6C6F636B 		.ascii	"lock_cnt\000"
 3914      5F636E74 
 3914      00
 3915              	.LASF183:
 3916 00cf 70757474 		.ascii	"putt\000"
 3916      00
 3917              	.LASF207:
 3918 00d4 44656275 		.ascii	"Debug_ITMDebugEnable\000"
 3918      675F4954 
ARM GAS  C:\Users\jo\AppData\Local\Temp\ccQH7AaA.s 			page 71


 3918      4D446562 
 3918      7567456E 
 3918      61626C65 
 3919              	.LASF100:
 3920 00e9 73655F74 		.ascii	"se_tp\000"
 3920      7000
 3921              	.LASF114:
 3922 00ef 74696D65 		.ascii	"time_measurement_t\000"
 3922      5F6D6561 
 3922      73757265 
 3922      6D656E74 
 3922      5F7400
 3923              	.LASF219:
 3924 0102 7461736B 		.ascii	"task_http_stack\000"
 3924      5F687474 
 3924      705F7374 
 3924      61636B00 
 3925              	.LASF127:
 3926 0112 6D5F6F77 		.ascii	"m_owner\000"
 3926      6E657200 
 3927              	.LASF72:
 3928 011a 76745F70 		.ascii	"vt_par\000"
 3928      617200
 3929              	.LASF122:
 3930 0121 65786974 		.ascii	"exitcode\000"
 3930      636F6465 
 3930      00
 3931              	.LASF3:
 3932 012a 5F5F7569 		.ascii	"__uint8_t\000"
 3932      6E74385F 
 3932      7400
 3933              	.LASF146:
 3934 0134 715F746F 		.ascii	"q_top\000"
 3934      7000
 3935              	.LASF163:
 3936 013a 50555044 		.ascii	"PUPDR\000"
 3936      5200
 3937              	.LASF186:
 3938 0140 72656164 		.ascii	"readt\000"
 3938      7400
 3939              	.LASF145:
 3940 0146 715F6275 		.ascii	"q_buffer\000"
 3940      66666572 
 3940      00
 3941              	.LASF149:
 3942 014f 715F6E6F 		.ascii	"q_notify\000"
 3942      74696679 
 3942      00
 3943              	.LASF37:
 3944 0158 705F6E65 		.ascii	"p_newer\000"
 3944      77657200 
 3945              	.LASF9:
 3946 0160 6C6F6E67 		.ascii	"long int\000"
 3946      20696E74 
 3946      00
 3947              	.LASF33:
 3948 0169 705F6E65 		.ascii	"p_next\000"
ARM GAS  C:\Users\jo\AppData\Local\Temp\ccQH7AaA.s 			page 72


 3948      787400
 3949              	.LASF148:
 3950 0170 715F7264 		.ascii	"q_rdptr\000"
 3950      70747200 
 3951              	.LASF34:
 3952 0178 705F7072 		.ascii	"p_prev\000"
 3952      657600
 3953              	.LASF23:
 3954 017f 74737461 		.ascii	"tstate_t\000"
 3954      74655F74 
 3954      00
 3955              	.LASF21:
 3956 0188 72747469 		.ascii	"rttime_t\000"
 3956      6D655F74 
 3956      00
 3957              	.LASF234:
 3958 0191 6D61696E 		.ascii	"main\000"
 3958      00
 3959              	.LASF55:
 3960 0196 74687265 		.ascii	"threads_queue_t\000"
 3960      6164735F 
 3960      71756575 
 3960      655F7400 
 3961              	.LASF48:
 3962 01a6 705F6D74 		.ascii	"p_mtxlist\000"
 3962      786C6973 
 3962      7400
 3963              	.LASF178:
 3964 01b0 6F717565 		.ascii	"oqueue\000"
 3964      756500
 3965              	.LASF92:
 3966 01b7 72656761 		.ascii	"regarm_t\000"
 3966      726D5F74 
 3966      00
 3967              	.LASF142:
 3968 01c0 696F5F71 		.ascii	"io_queue\000"
 3968      75657565 
 3968      00
 3969              	.LASF179:
 3970 01c9 75736172 		.ascii	"usart\000"
 3970      7400
 3971              	.LASF113:
 3972 01cf 63756D75 		.ascii	"cumulative\000"
 3972      6C617469 
 3972      766500
 3973              	.LASF1:
 3974 01da 7369676E 		.ascii	"signed char\000"
 3974      65642063 
 3974      68617200 
 3975              	.LASF124:
 3976 01e6 65776D61 		.ascii	"ewmask\000"
 3976      736B00
 3977              	.LASF15:
 3978 01ed 75696E74 		.ascii	"uint8_t\000"
 3978      385F7400 
 3979              	.LASF27:
 3980 01f5 6576656E 		.ascii	"eventmask_t\000"
ARM GAS  C:\Users\jo\AppData\Local\Temp\ccQH7AaA.s 			page 73


 3980      746D6173 
 3980      6B5F7400 
 3981              	.LASF94:
 3982 0201 636F6E74 		.ascii	"context\000"
 3982      65787400 
 3983              	.LASF213:
 3984 0209 666F726D 		.ascii	"formatted_bytes\000"
 3984      61747465 
 3984      645F6279 
 3984      74657300 
 3985              	.LASF4:
 3986 0219 756E7369 		.ascii	"unsigned char\000"
 3986      676E6564 
 3986      20636861 
 3986      7200
 3987              	.LASF150:
 3988 0227 715F6C69 		.ascii	"q_link\000"
 3988      6E6B00
 3989              	.LASF168:
 3990 022e 73746D33 		.ascii	"stm32_gpio_t\000"
 3990      325F6770 
 3990      696F5F74 
 3990      00
 3991              	.LASF78:
 3992 023b 70616E69 		.ascii	"panic_msg\000"
 3992      635F6D73 
 3992      6700
 3993              	.LASF206:
 3994 0245 4442474D 		.ascii	"DBGMCU_CR\000"
 3994      43555F43 
 3994      5200
 3995              	.LASF81:
 3996 024f 74726163 		.ascii	"trace_buffer\000"
 3996      655F6275 
 3996      66666572 
 3996      00
 3997              	.LASF62:
 3998 025c 725F6E65 		.ascii	"r_newer\000"
 3998      77657200 
 3999              	.LASF196:
 4000 0264 4D454D50 		.ascii	"MEMP_NETBUF\000"
 4000      5F4E4554 
 4000      42554600 
 4001              	.LASF76:
 4002 0270 73797374 		.ascii	"system_debug_t\000"
 4002      656D5F64 
 4002      65627567 
 4002      5F7400
 4003              	.LASF170:
 4004 027f 53445F55 		.ascii	"SD_UNINIT\000"
 4004      4E494E49 
 4004      5400
 4005              	.LASF96:
 4006 0289 5F5F676E 		.ascii	"__gnuc_va_list\000"
 4006      75635F76 
 4006      615F6C69 
 4006      737400
ARM GAS  C:\Users\jo\AppData\Local\Temp\ccQH7AaA.s 			page 74


 4007              	.LASF158:
 4008 0298 5F426F6F 		.ascii	"_Bool\000"
 4008      6C00
 4009              	.LASF98:
 4010 029e 63686172 		.ascii	"char\000"
 4010      00
 4011              	.LASF35:
 4012 02a3 705F7072 		.ascii	"p_prio\000"
 4012      696F00
 4013              	.LASF6:
 4014 02aa 5F5F7569 		.ascii	"__uint16_t\000"
 4014      6E743136 
 4014      5F7400
 4015              	.LASF123:
 4016 02b5 77746F62 		.ascii	"wtobjp\000"
 4016      6A7000
 4017              	.LASF116:
 4018 02bc 6E5F6374 		.ascii	"n_ctxswc\000"
 4018      78737763 
 4018      00
 4019              	.LASF184:
 4020 02c5 67657474 		.ascii	"gett\000"
 4020      00
 4021              	.LASF93:
 4022 02ca 73746B61 		.ascii	"stkalign_t\000"
 4022      6C69676E 
 4022      5F7400
 4023              	.LASF91:
 4024 02d5 55534152 		.ascii	"USART_TypeDef\000"
 4024      545F5479 
 4024      70654465 
 4024      6600
 4025              	.LASF111:
 4026 02e3 776F7273 		.ascii	"worst\000"
 4026      7400
 4027              	.LASF131:
 4028 02e9 6576656E 		.ascii	"event_listener_t\000"
 4028      745F6C69 
 4028      7374656E 
 4028      65725F74 
 4028      00
 4029              	.LASF169:
 4030 02fa 696F706F 		.ascii	"ioportmask_t\000"
 4030      72746D61 
 4030      736B5F74 
 4030      00
 4031              	.LASF29:
 4032 0307 636E745F 		.ascii	"cnt_t\000"
 4032      7400
 4033              	.LASF232:
 4034 030d 63687072 		.ascii	"chprintf\000"
 4034      696E7466 
 4034      00
 4035              	.LASF188:
 4036 0316 49544D53 		.ascii	"ITMStream\000"
 4036      74726561 
 4036      6D00
ARM GAS  C:\Users\jo\AppData\Local\Temp\ccQH7AaA.s 			page 75


 4037              	.LASF220:
 4038 0320 63685468 		.ascii	"chThdSleep\000"
 4038      64536C65 
 4038      657000
 4039              	.LASF71:
 4040 032b 76745F66 		.ascii	"vt_func\000"
 4040      756E6300 
 4041              	.LASF197:
 4042 0333 4D454D50 		.ascii	"MEMP_NETCONN\000"
 4042      5F4E4554 
 4042      434F4E4E 
 4042      00
 4043              	.LASF107:
 4044 0340 63685F74 		.ascii	"ch_trace_buffer_t\000"
 4044      72616365 
 4044      5F627566 
 4044      6665725F 
 4044      7400
 4045              	.LASF180:
 4046 0352 73706565 		.ascii	"speed\000"
 4046      6400
 4047              	.LASF47:
 4048 0358 705F6570 		.ascii	"p_epending\000"
 4048      656E6469 
 4048      6E6700
 4049              	.LASF191:
 4050 0363 4D454D50 		.ascii	"MEMP_TCP_PCB\000"
 4050      5F544350 
 4050      5F504342 
 4050      00
 4051              	.LASF58:
 4052 0370 63685F72 		.ascii	"ch_ready_list\000"
 4052      65616479 
 4052      5F6C6973 
 4052      7400
 4053              	.LASF159:
 4054 037e 636C6561 		.ascii	"clear\000"
 4054      7200
 4055              	.LASF79:
 4056 0384 6973725F 		.ascii	"isr_cnt\000"
 4056      636E7400 
 4057              	.LASF118:
 4058 038c 6D5F6372 		.ascii	"m_crit_isr\000"
 4058      69745F69 
 4058      737200
 4059              	.LASF139:
 4060 0397 65735F6E 		.ascii	"es_next\000"
 4060      65787400 
 4061              	.LASF144:
 4062 039f 715F636F 		.ascii	"q_counter\000"
 4062      756E7465 
 4062      7200
 4063              	.LASF102:
 4064 03a9 73655F73 		.ascii	"se_state\000"
 4064      74617465 
 4064      00
 4065              	.LASF117:
ARM GAS  C:\Users\jo\AppData\Local\Temp\ccQH7AaA.s 			page 76


 4066 03b2 6D5F6372 		.ascii	"m_crit_thd\000"
 4066      69745F74 
 4066      686400
 4067              	.LASF13:
 4068 03bd 5F5F7569 		.ascii	"__uint64_t\000"
 4068      6E743634 
 4068      5F7400
 4069              	.LASF11:
 4070 03c8 6C6F6E67 		.ascii	"long unsigned int\000"
 4070      20756E73 
 4070      69676E65 
 4070      6420696E 
 4070      7400
 4071              	.LASF97:
 4072 03da 5F5F7661 		.ascii	"__va_list\000"
 4072      5F6C6973 
 4072      7400
 4073              	.LASF212:
 4074 03e4 42756666 		.ascii	"Buffer\000"
 4074      657200
 4075              	.LASF222:
 4076 03eb 73746174 		.ascii	"stats_display\000"
 4076      735F6469 
 4076      73706C61 
 4076      7900
 4077              	.LASF53:
 4078 03f9 63685F74 		.ascii	"ch_thread\000"
 4078      68726561 
 4078      6400
 4079              	.LASF120:
 4080 0403 5F5F6170 		.ascii	"__ap\000"
 4080      00
 4081              	.LASF73:
 4082 0408 76697274 		.ascii	"virtual_timers_list_t\000"
 4082      75616C5F 
 4082      74696D65 
 4082      72735F6C 
 4082      6973745F 
 4083              	.LASF133:
 4084 041e 656C5F6E 		.ascii	"el_next\000"
 4084      65787400 
 4085              	.LASF204:
 4086 0426 49544D5F 		.ascii	"ITM_TER\000"
 4086      54455200 
 4087              	.LASF66:
 4088 042e 76697274 		.ascii	"virtual_timer_t\000"
 4088      75616C5F 
 4088      74696D65 
 4088      725F7400 
 4089              	.LASF57:
 4090 043e 72656164 		.ascii	"ready_list_t\000"
 4090      795F6C69 
 4090      73745F74 
 4090      00
 4091              	.LASF147:
 4092 044b 715F7772 		.ascii	"q_wrptr\000"
 4092      70747200 
ARM GAS  C:\Users\jo\AppData\Local\Temp\ccQH7AaA.s 			page 77


 4093              	.LASF165:
 4094 0453 4C434B52 		.ascii	"LCKR\000"
 4094      00
 4095              	.LASF225:
 4096 0458 73645374 		.ascii	"sdStart\000"
 4096      61727400 
 4097              	.LASF30:
 4098 0460 75636E74 		.ascii	"ucnt_t\000"
 4098      5F7400
 4099              	.LASF226:
 4100 0467 63687670 		.ascii	"chvprintf\000"
 4100      72696E74 
 4100      6600
 4101              	.LASF223:
 4102 0471 68616C49 		.ascii	"halInit\000"
 4102      6E697400 
 4103              	.LASF54:
 4104 0479 63685F74 		.ascii	"ch_threads_list\000"
 4104      68726561 
 4104      64735F6C 
 4104      69737400 
 4105              	.LASF103:
 4106 0489 63685F73 		.ascii	"ch_swc_event_t\000"
 4106      77635F65 
 4106      76656E74 
 4106      5F7400
 4107              	.LASF115:
 4108 0498 6E5F6972 		.ascii	"n_irq\000"
 4108      7100
 4109              	.LASF162:
 4110 049e 4F535045 		.ascii	"OSPEEDR\000"
 4110      45445200 
 4111              	.LASF10:
 4112 04a6 5F5F7569 		.ascii	"__uint32_t\000"
 4112      6E743332 
 4112      5F7400
 4113              	.LASF233:
 4114 04b1 54687265 		.ascii	"Thread1\000"
 4114      61643100 
 4115              	.LASF12:
 4116 04b9 6C6F6E67 		.ascii	"long long int\000"
 4116      206C6F6E 
 4116      6720696E 
 4116      7400
 4117              	.LASF189:
 4118 04c7 76615F6C 		.ascii	"va_list\000"
 4118      69737400 
 4119              	.LASF126:
 4120 04cf 6D5F7175 		.ascii	"m_queue\000"
 4120      65756500 
 4121              	.LASF68:
 4122 04d7 76745F6E 		.ascii	"vt_next\000"
 4122      65787400 
 4123              	.LASF227:
 4124 04df 63685468 		.ascii	"chThdCreateStatic\000"
 4124      64437265 
 4124      61746553 
ARM GAS  C:\Users\jo\AppData\Local\Temp\ccQH7AaA.s 			page 78


 4124      74617469 
 4124      6300
 4125              	.LASF69:
 4126 04f1 76745F70 		.ascii	"vt_prev\000"
 4126      72657600 
 4127              	.LASF230:
 4128 04f9 6D61696E 		.ascii	"main.c\000"
 4128      2E6300
 4129              	.LASF90:
 4130 0500 47545052 		.ascii	"GTPR\000"
 4130      00
 4131              	.LASF104:
 4132 0505 74625F73 		.ascii	"tb_size\000"
 4132      697A6500 
 4133              	.LASF140:
 4134 050d 6576656E 		.ascii	"event_source_t\000"
 4134      745F736F 
 4134      75726365 
 4134      5F7400
 4135              	.LASF182:
 4136 051c 53657269 		.ascii	"SerialDriverVMT\000"
 4136      616C4472 
 4136      69766572 
 4136      564D5400 
 4137              	.LASF125:
 4138 052c 6D757465 		.ascii	"mutex\000"
 4138      7800
 4139              	.LASF216:
 4140 0532 49544D5F 		.ascii	"ITM_RxBuffer\000"
 4140      52784275 
 4140      66666572 
 4140      00
 4141              	.LASF129:
 4142 053f 7466756E 		.ascii	"tfunc_t\000"
 4142      635F7400 
 4143              	.LASF217:
 4144 0547 69746D5F 		.ascii	"itm_port\000"
 4144      706F7274 
 4144      00
 4145              	.LASF151:
 4146 0550 716E6F74 		.ascii	"qnotify_t\000"
 4146      6966795F 
 4146      7400
 4147              	.LASF214:
 4148 055a 44656275 		.ascii	"Debug_ITMDebug\000"
 4148      675F4954 
 4148      4D446562 
 4148      756700
 4149              	.LASF44:
 4150 0569 705F7761 		.ascii	"p_waiting\000"
 4150      6974696E 
 4150      6700
 4151              	.LASF175:
 4152 0573 6576656E 		.ascii	"event\000"
 4152      7400
 4153              	.LASF101:
 4154 0579 73655F77 		.ascii	"se_wtobjp\000"
ARM GAS  C:\Users\jo\AppData\Local\Temp\ccQH7AaA.s 			page 79


 4154      746F626A 
 4154      7000
 4155              	.LASF42:
 4156 0583 705F666C 		.ascii	"p_flags\000"
 4156      61677300 
 4157              	.LASF156:
 4158 058b 72656164 		.ascii	"read\000"
 4158      00
 4159              	.LASF88:
 4160 0590 69646C65 		.ascii	"idle_thread_wa\000"
 4160      5F746872 
 4160      6561645F 
 4160      776100
 4161              	.LASF0:
 4162 059f 756E7369 		.ascii	"unsigned int\000"
 4162      676E6564 
 4162      20696E74 
 4162      00
 4163              	.LASF20:
 4164 05ac 7274636E 		.ascii	"rtcnt_t\000"
 4164      745F7400 
 4165              	.LASF50:
 4166 05b4 705F6D70 		.ascii	"p_mpool\000"
 4166      6F6F6C00 
 4167              	.LASF43:
 4168 05bc 705F7265 		.ascii	"p_refs\000"
 4168      667300
 4169              	.LASF218:
 4170 05c3 77615F6C 		.ascii	"wa_lwip_thread\000"
 4170      7769705F 
 4170      74687265 
 4170      616400
 4171              	.LASF137:
 4172 05d2 656C5F77 		.ascii	"el_wflags\000"
 4172      666C6167 
 4172      7300
 4173              	.LASF119:
 4174 05dc 6B65726E 		.ascii	"kernel_stats_t\000"
 4174      656C5F73 
 4174      74617473 
 4174      5F7400
 4175              	.LASF135:
 4176 05eb 656C5F65 		.ascii	"el_events\000"
 4176      76656E74 
 4176      7300
 4177              	.LASF108:
 4178 05f5 6F666673 		.ascii	"offset\000"
 4178      657400
 4179              	.LASF106:
 4180 05fc 74625F62 		.ascii	"tb_buffer\000"
 4180      75666665 
 4180      7200
 4181              	.LASF32:
 4182 0606 74687265 		.ascii	"thread_t\000"
 4182      61645F74 
 4182      00
 4183              	.LASF49:
ARM GAS  C:\Users\jo\AppData\Local\Temp\ccQH7AaA.s 			page 80


 4184 060f 705F7265 		.ascii	"p_realprio\000"
 4184      616C7072 
 4184      696F00
 4185              	.LASF95:
 4186 061a 706F7274 		.ascii	"port_intctx\000"
 4186      5F696E74 
 4186      63747800 
 4187              	.LASF209:
 4188 0626 49544D5F 		.ascii	"ITM_STIM0\000"
 4188      5354494D 
 4188      3000
 4189              	.LASF70:
 4190 0630 76745F64 		.ascii	"vt_delta\000"
 4190      656C7461 
 4190      00
 4191              	.LASF194:
 4192 0639 4D454D50 		.ascii	"MEMP_REASSDATA\000"
 4192      5F524541 
 4192      53534441 
 4192      544100
 4193              	.LASF67:
 4194 0648 63685F76 		.ascii	"ch_virtual_timer\000"
 4194      69727475 
 4194      616C5F74 
 4194      696D6572 
 4194      00
 4195              	.LASF208:
 4196 0659 44656275 		.ascii	"Debug_ITMDebugOutputChar\000"
 4196      675F4954 
 4196      4D446562 
 4196      75674F75 
 4196      74707574 
 4197              	.LASF87:
 4198 0672 6B65726E 		.ascii	"kernel_stats\000"
 4198      656C5F73 
 4198      74617473 
 4198      00
 4199              	.LASF195:
 4200 067f 4D454D50 		.ascii	"MEMP_FRAG_PBUF\000"
 4200      5F465241 
 4200      475F5042 
 4200      554600
 4201              	.LASF14:
 4202 068e 6C6F6E67 		.ascii	"long long unsigned int\000"
 4202      206C6F6E 
 4202      6720756E 
 4202      7369676E 
 4202      65642069 
 4203              	.LASF190:
 4204 06a5 4D454D50 		.ascii	"MEMP_UDP_PCB\000"
 4204      5F554450 
 4204      5F504342 
 4204      00
 4205              	.LASF38:
 4206 06b2 705F6F6C 		.ascii	"p_older\000"
 4206      64657200 
 4207              	.LASF193:
ARM GAS  C:\Users\jo\AppData\Local\Temp\ccQH7AaA.s 			page 81


 4208 06ba 4D454D50 		.ascii	"MEMP_TCP_SEG\000"
 4208      5F544350 
 4208      5F534547 
 4208      00
 4209              	.LASF16:
 4210 06c7 75696E74 		.ascii	"uint16_t\000"
 4210      31365F74 
 4210      00
 4211              	.LASF26:
 4212 06d0 6D73675F 		.ascii	"msg_t\000"
 4212      7400
 4213              	.LASF56:
 4214 06d6 63685F74 		.ascii	"ch_threads_queue\000"
 4214      68726561 
 4214      64735F71 
 4214      75657565 
 4214      00
 4215              	.LASF28:
 4216 06e7 6576656E 		.ascii	"eventflags_t\000"
 4216      74666C61 
 4216      67735F74 
 4216      00
 4217              	.LASF199:
 4218 06f4 4D454D50 		.ascii	"MEMP_TCPIP_MSG_INPKT\000"
 4218      5F544350 
 4218      49505F4D 
 4218      53475F49 
 4218      4E504B54 
 4219              	.LASF64:
 4220 0709 725F6375 		.ascii	"r_current\000"
 4220      7272656E 
 4220      7400
 4221              	.LASF167:
 4222 0713 41465248 		.ascii	"AFRH\000"
 4222      00
 4223              	.LASF166:
 4224 0718 4146524C 		.ascii	"AFRL\000"
 4224      00
 4225              	.LASF86:
 4226 071d 6D61696E 		.ascii	"mainthread\000"
 4226      74687265 
 4226      616400
 4227              	.LASF110:
 4228 0728 62657374 		.ascii	"best\000"
 4228      00
 4229              	.LASF59:
 4230 072d 725F7175 		.ascii	"r_queue\000"
 4230      65756500 
 4231              	.LASF174:
 4232 0735 53657269 		.ascii	"SerialDriver\000"
 4232      616C4472 
 4232      69766572 
 4232      00
 4233              	.LASF203:
 4234 0742 4D454D50 		.ascii	"MEMP_MAX\000"
 4234      5F4D4158 
 4234      00
ARM GAS  C:\Users\jo\AppData\Local\Temp\ccQH7AaA.s 			page 82


 4235              	.LASF161:
 4236 074b 4F545950 		.ascii	"OTYPER\000"
 4236      455200
 4237              	.LASF143:
 4238 0752 715F7761 		.ascii	"q_waiting\000"
 4238      6974696E 
 4238      6700
 4239              	.LASF154:
 4240 075c 42617365 		.ascii	"BaseSequentialStreamVMT\000"
 4240      53657175 
 4240      656E7469 
 4240      616C5374 
 4240      7265616D 
 4241              	.LASF84:
 4242 0774 726C6973 		.ascii	"rlist\000"
 4242      7400
 4243              	.LASF22:
 4244 077a 746D6F64 		.ascii	"tmode_t\000"
 4244      655F7400 
 4245              	.LASF210:
 4246 0782 5343425F 		.ascii	"SCB_DEMCR\000"
 4246      44454D43 
 4246      5200
 4247              	.LASF173:
 4248 078c 73647374 		.ascii	"sdstate_t\000"
 4248      6174655F 
 4248      7400
 4249              	.LASF211:
 4250 0796 44656275 		.ascii	"Debug_ITMDebugOutputString\000"
 4250      675F4954 
 4250      4D446562 
 4250      75674F75 
 4250      74707574 
 4251              	.LASF172:
 4252 07b1 53445F52 		.ascii	"SD_READY\000"
 4252      45414459 
 4252      00
 4253              	.LASF63:
 4254 07ba 725F6F6C 		.ascii	"r_older\000"
 4254      64657200 
 4255              	.LASF109:
 4256 07c2 746D5F63 		.ascii	"tm_calibration_t\000"
 4256      616C6962 
 4256      72617469 
 4256      6F6E5F74 
 4256      00
 4257              	.LASF205:
 4258 07d3 5343425F 		.ascii	"SCB_DHCSR\000"
 4258      44484353 
 4258      5200
 4259              	.LASF201:
 4260 07dd 4D454D50 		.ascii	"MEMP_PBUF\000"
 4260      5F504255 
 4260      4600
 4261              	.LASF5:
 4262 07e7 73686F72 		.ascii	"short int\000"
 4262      7420696E 
ARM GAS  C:\Users\jo\AppData\Local\Temp\ccQH7AaA.s 			page 83


 4262      7400
 4263              	.LASF138:
 4264 07f1 6576656E 		.ascii	"event_source\000"
 4264      745F736F 
 4264      75726365 
 4264      00
 4265              	.LASF19:
 4266 07fe 75696E74 		.ascii	"uint64_t\000"
 4266      36345F74 
 4266      00
 4267              	.LASF228:
 4268 0807 54657374 		.ascii	"TestThread\000"
 4268      54687265 
 4268      616400
 4269              	.LASF177:
 4270 0812 69717565 		.ascii	"iqueue\000"
 4270      756500
 4271              	.LASF202:
 4272 0819 4D454D50 		.ascii	"MEMP_PBUF_POOL\000"
 4272      5F504255 
 4272      465F504F 
 4272      4F4C00
 4273              	.LASF60:
 4274 0828 725F7072 		.ascii	"r_prio\000"
 4274      696F00
 4275              	.LASF198:
 4276 082f 4D454D50 		.ascii	"MEMP_TCPIP_MSG_API\000"
 4276      5F544350 
 4276      49505F4D 
 4276      53475F41 
 4276      504900
 4277              	.LASF77:
 4278 0842 63685F73 		.ascii	"ch_system_debug\000"
 4278      79737465 
 4278      6D5F6465 
 4278      62756700 
 4279              	.LASF141:
 4280 0852 696F5F71 		.ascii	"io_queue_t\000"
 4280      75657565 
 4280      5F7400
 4281              	.LASF164:
 4282 085d 42535252 		.ascii	"BSRR\000"
 4282      00
 4283              	.LASF85:
 4284 0862 76746C69 		.ascii	"vtlist\000"
 4284      737400
 4285              	.LASF130:
 4286 0869 6D757465 		.ascii	"mutex_t\000"
 4286      785F7400 
 4287              	.LASF24:
 4288 0871 74726566 		.ascii	"trefs_t\000"
 4288      735F7400 
 4289              	.LASF52:
 4290 0879 74687265 		.ascii	"threads_list_t\000"
 4290      6164735F 
 4290      6C697374 
 4290      5F7400
ARM GAS  C:\Users\jo\AppData\Local\Temp\ccQH7AaA.s 			page 84


 4291              	.LASF229:
 4292 0888 474E5520 		.ascii	"GNU C 4.9.3 20141119 (release) [ARM/embedded-4_9-br"
 4292      4320342E 
 4292      392E3320 
 4292      32303134 
 4292      31313139 
 4293 08bb 616E6368 		.ascii	"anch revision 218278] -mcpu=cortex-m4 -mno-thumb-in"
 4293      20726576 
 4293      6973696F 
 4293      6E203231 
 4293      38323738 
 4294 08ee 74657277 		.ascii	"terwork -mthumb -ggdb -O2 -fomit-frame-pointer -fal"
 4294      6F726B20 
 4294      2D6D7468 
 4294      756D6220 
 4294      2D676764 
 4295 0921 69676E2D 		.ascii	"ign-functions=16 -ffunction-sections -fdata-section"
 4295      66756E63 
 4295      74696F6E 
 4295      733D3136 
 4295      202D6666 
 4296 0954 73202D66 		.ascii	"s -fno-common\000"
 4296      6E6F2D63 
 4296      6F6D6D6F 
 4296      6E00
 4297              	.LASF83:
 4298 0962 63685F73 		.ascii	"ch_system\000"
 4298      79737465 
 4298      6D00
 4299              	.LASF224:
 4300 096c 63685379 		.ascii	"chSysInit\000"
 4300      73496E69 
 4300      7400
 4301              	.LASF18:
 4302 0976 75696E74 		.ascii	"uint32_t\000"
 4302      33325F74 
 4302      00
 4303              	.LASF187:
 4304 097f 49544D53 		.ascii	"ITMStreamVMT\000"
 4304      74726561 
 4304      6D564D54 
 4304      00
 4305              	.LASF160:
 4306 098c 4D4F4445 		.ascii	"MODER\000"
 4306      5200
 4307              	.LASF152:
 4308 0992 696E7075 		.ascii	"input_queue_t\000"
 4308      745F7175 
 4308      6575655F 
 4308      7400
 4309              	.LASF132:
 4310 09a0 6576656E 		.ascii	"event_listener\000"
 4310      745F6C69 
 4310      7374656E 
 4310      657200
 4311              	.LASF121:
 4312 09af 7264796D 		.ascii	"rdymsg\000"
ARM GAS  C:\Users\jo\AppData\Local\Temp\ccQH7AaA.s 			page 85


 4312      736700
 4313              	.LASF75:
 4314 09b6 76745F6C 		.ascii	"vt_lasttime\000"
 4314      61737474 
 4314      696D6500 
 4315              	.LASF7:
 4316 09c2 73686F72 		.ascii	"short unsigned int\000"
 4316      7420756E 
 4316      7369676E 
 4316      65642069 
 4316      6E7400
 4317              	.LASF82:
 4318 09d5 63685F73 		.ascii	"ch_system_t\000"
 4318      79737465 
 4318      6D5F7400 
 4319              	.LASF153:
 4320 09e1 6F757470 		.ascii	"output_queue_t\000"
 4320      75745F71 
 4320      75657565 
 4320      5F7400
 4321              	.LASF40:
 4322 09f0 705F7374 		.ascii	"p_stklimit\000"
 4322      6B6C696D 
 4322      697400
 4323              	.LASF8:
 4324 09fb 5F5F696E 		.ascii	"__int32_t\000"
 4324      7433325F 
 4324      7400
 4325              	.LASF171:
 4326 0a05 53445F53 		.ascii	"SD_STOP\000"
 4326      544F5000 
 4327              	.LASF99:
 4328 0a0d 73655F74 		.ascii	"se_time\000"
 4328      696D6500 
 4329              	.LASF39:
 4330 0a15 705F6E61 		.ascii	"p_name\000"
 4330      6D6500
 4331              	.LASF128:
 4332 0a1c 6D5F6E65 		.ascii	"m_next\000"
 4332      787400
 4333              	.LASF105:
 4334 0a23 74625F70 		.ascii	"tb_ptr\000"
 4334      747200
 4335              	.LASF231:
 4336 0a2a 433A5C55 		.ascii	"C:\\Users\\jo\\Documents\\GitHub\\ChibiOS\\demos\\S"
 4336      73657273 
 4336      5C6A6F5C 
 4336      446F6375 
 4336      6D656E74 
 4337 0a56 544D3332 		.ascii	"TM32\\RT-STM32F407-DISCOVERY-uHttp\000"
 4337      5C52542D 
 4337      53544D33 
 4337      32463430 
 4337      372D4449 
 4338              	.LASF192:
 4339 0a78 4D454D50 		.ascii	"MEMP_TCP_PCB_LISTEN\000"
 4339      5F544350 
ARM GAS  C:\Users\jo\AppData\Local\Temp\ccQH7AaA.s 			page 86


 4339      5F504342 
 4339      5F4C4953 
 4339      54454E00 
 4340              	.LASF215:
 4341 0a8c 77615468 		.ascii	"waThread1\000"
 4341      72656164 
 4341      3100
 4342              	.LASF112:
 4343 0a96 6C617374 		.ascii	"last\000"
 4343      00
 4344              	.LASF46:
 4345 0a9b 705F6D73 		.ascii	"p_msg\000"
 4345      6700
 4346              	.LASF134:
 4347 0aa1 656C5F6C 		.ascii	"el_listener\000"
 4347      69737465 
 4347      6E657200 
 4348              	.LASF41:
 4349 0aad 705F7374 		.ascii	"p_state\000"
 4349      61746500 
 4350              		.ident	"GCC: (GNU Tools for ARM Embedded Processors) 4.9.3 20141119 (release) [ARM/embedded-4_9-br
ARM GAS  C:\Users\jo\AppData\Local\Temp\ccQH7AaA.s 			page 87


DEFINED SYMBOLS
                            *ABS*:00000000 main.c
C:\Users\jo\AppData\Local\Temp\ccQH7AaA.s:19     .text.Thread1:00000000 $t
C:\Users\jo\AppData\Local\Temp\ccQH7AaA.s:24     .text.Thread1:00000000 Thread1
C:\Users\jo\AppData\Local\Temp\ccQH7AaA.s:71     .text.Thread1:0000002c $d
C:\Users\jo\AppData\Local\Temp\ccQH7AaA.s:78     .text.chprintf.constprop.3:00000000 $t
C:\Users\jo\AppData\Local\Temp\ccQH7AaA.s:83     .text.chprintf.constprop.3:00000000 chprintf.constprop.3
C:\Users\jo\AppData\Local\Temp\ccQH7AaA.s:129    .text.chprintf.constprop.3:00000020 $d
C:\Users\jo\AppData\Local\Temp\ccQH7AaA.s:135    .text.Debug_ITMDebugEnable:00000000 $t
C:\Users\jo\AppData\Local\Temp\ccQH7AaA.s:141    .text.Debug_ITMDebugEnable:00000000 Debug_ITMDebugEnable
C:\Users\jo\AppData\Local\Temp\ccQH7AaA.s:175    .text.Debug_ITMDebugEnable:00000024 $d
C:\Users\jo\AppData\Local\Temp\ccQH7AaA.s:184    .text.Debug_ITMDebugOutputChar:00000000 $t
C:\Users\jo\AppData\Local\Temp\ccQH7AaA.s:190    .text.Debug_ITMDebugOutputChar:00000000 Debug_ITMDebugOutputChar
C:\Users\jo\AppData\Local\Temp\ccQH7AaA.s:223    .text.Debug_ITMDebugOutputChar:00000020 $d
C:\Users\jo\AppData\Local\Temp\ccQH7AaA.s:231    .text.Debug_ITMDebugOutputString:00000000 $t
C:\Users\jo\AppData\Local\Temp\ccQH7AaA.s:237    .text.Debug_ITMDebugOutputString:00000000 Debug_ITMDebugOutputString
C:\Users\jo\AppData\Local\Temp\ccQH7AaA.s:283    .text.Debug_ITMDebugOutputString:00000020 $d
C:\Users\jo\AppData\Local\Temp\ccQH7AaA.s:290    .text.startup.main:00000000 $t
C:\Users\jo\AppData\Local\Temp\ccQH7AaA.s:296    .text.startup.main:00000000 main
C:\Users\jo\AppData\Local\Temp\ccQH7AaA.s:409    .text.startup.main:00000090 $d
C:\Users\jo\AppData\Local\Temp\ccQH7AaA.s:449    .bss.itm_port:00000000 itm_port
C:\Users\jo\AppData\Local\Temp\ccQH7AaA.s:431    .bss.waThread1:00000000 $d
C:\Users\jo\AppData\Local\Temp\ccQH7AaA.s:435    .bss.waThread1:00000000 waThread1
C:\Users\jo\AppData\Local\Temp\ccQH7AaA.s:438    .bss.Debug_ITMDebug:00000000 $d
C:\Users\jo\AppData\Local\Temp\ccQH7AaA.s:442    .bss.Debug_ITMDebug:00000000 Debug_ITMDebug
C:\Users\jo\AppData\Local\Temp\ccQH7AaA.s:445    .bss.itm_port:00000000 $d
C:\Users\jo\AppData\Local\Temp\ccQH7AaA.s:452    .rodata.str1.4:00000000 $d
                     .debug_frame:00000010 $d
C:\Users\jo\AppData\Local\Temp\ccQH7AaA.s:77     .text.Thread1:00000038 $t
C:\Users\jo\AppData\Local\Temp\ccQH7AaA.s:134    .text.chprintf.constprop.3:00000028 $t
C:\Users\jo\AppData\Local\Temp\ccQH7AaA.s:183    .text.Debug_ITMDebugEnable:00000034 $t
C:\Users\jo\AppData\Local\Temp\ccQH7AaA.s:230    .text.Debug_ITMDebugOutputChar:00000028 $t
C:\Users\jo\AppData\Local\Temp\ccQH7AaA.s:289    .text.Debug_ITMDebugOutputString:00000024 $t
C:\Users\jo\AppData\Local\Temp\ccQH7AaA.s:430    .text.startup.main:000000c4 $t

UNDEFINED SYMBOLS
chThdSleep
stats_display
ch
chvprintf
itmObjectInit
halInit
chSysInit
sdStart
chThdCreateStatic
TestThread
SD6
lwip_thread
wa_lwip_thread
HttpTask
task_http_stack
