ARM GAS  C:\Users\jo\AppData\Local\Temp\ccQH7AaA.s 			page 1


   1              		.syntax unified
   2              		.cpu cortex-m4
   3              		.fpu softvfp
   4              		.eabi_attribute 20, 1
   5              		.eabi_attribute 21, 1
   6              		.eabi_attribute 23, 3
   7              		.eabi_attribute 24, 1
   8              		.eabi_attribute 25, 1
   9              		.eabi_attribute 26, 1
  10              		.eabi_attribute 30, 2
  11              		.eabi_attribute 34, 1
  12              		.eabi_attribute 18, 4
  13              		.thumb
  14              		.file	"main.c"
  15              		.text
  16              	.Ltext0:
  17              		.cfi_sections	.debug_frame
  18              		.section	.text.Thread1,"ax",%progbits
  19              		.align	2
  20              		.p2align 4,,15
  21              		.thumb
  22              		.thumb_func
  23              		.type	Thread1, %function
  24              	Thread1:
  25              	.LFB259:
  26              		.file 1 "main.c"
  27              		.loc 1 111 0
  28              		.cfi_startproc
  29              		@ Volatile: function does not return.
  30              		@ args = 0, pretend = 0, frame = 0
  31              		@ frame_needed = 0, uses_anonymous_args = 0
  32              	.LVL0:
  33 0000 08B5     		push	{r3, lr}
  34              		.cfi_def_cfa_offset 8
  35              		.cfi_offset 3, -8
  36              		.cfi_offset 14, -4
  37              		.loc 1 114 0
  38 0002 0A4B     		ldr	r3, .L5
  39 0004 0A4A     		ldr	r2, .L5+4
  40 0006 9B69     		ldr	r3, [r3, #24]
  41              		.loc 1 116 0
  42 0008 0A4C     		ldr	r4, .L5+8
  43              		.loc 1 114 0
  44 000a 9A61     		str	r2, [r3, #24]
  45              		.loc 1 116 0
  46 000c 4025     		movs	r5, #64
  47 000e 2E46     		mov	r6, r5	@ movhi
  48              	.LVL1:
  49              	.L2:
  50              		.loc 1 116 0 is_stmt 0 discriminator 1
  51 0010 6683     		strh	r6, [r4, #26]	@ movhi
  52              		.loc 1 117 0 is_stmt 1 discriminator 1
  53 0012 41F28830 		movw	r0, #5000
  54 0016 FFF7FEFF 		bl	chThdSleep
  55              	.LVL2:
  56              		.loc 1 119 0 discriminator 1
  57 001a 41F28830 		movw	r0, #5000
ARM GAS  C:\Users\jo\AppData\Local\Temp\ccQH7AaA.s 			page 2


  58              		.loc 1 118 0 discriminator 1
  59 001e 2583     		strh	r5, [r4, #24]	@ movhi
  60              		.loc 1 119 0 discriminator 1
  61 0020 FFF7FEFF 		bl	chThdSleep
  62              	.LVL3:
  63              		.loc 1 120 0 discriminator 1
  64 0024 FFF7FEFF 		bl	stats_display
  65              	.LVL4:
  66              		.loc 1 121 0 discriminator 1
  67 0028 F2E7     		b	.L2
  68              	.L6:
  69 002a 00BF     		.align	2
  70              	.L5:
  71 002c 00000000 		.word	ch
  72 0030 00000000 		.word	.LC0
  73 0034 00180240 		.word	1073879040
  74              		.cfi_endproc
  75              	.LFE259:
  76              		.size	Thread1, .-Thread1
  77 0038 AFF30080 		.section	.text.chprintf.constprop.3,"ax",%progbits
  77      AFF30080 
  78              		.align	2
  79              		.p2align 4,,15
  80              		.thumb
  81              		.thumb_func
  82              		.type	chprintf.constprop.3, %function
  83              	chprintf.constprop.3:
  84              	.LFB264:
  85              		.file 2 "../../../os/hal/lib/streams/chprintf.h"
  86              		.loc 2 69 0
  87              		.cfi_startproc
  88              		@ args = 4, pretend = 12, frame = 8
  89              		@ frame_needed = 0, uses_anonymous_args = 1
  90              	.LVL5:
  91 0000 0EB4     		push	{r1, r2, r3}
  92              		.cfi_def_cfa_offset 12
  93              		.cfi_offset 1, -12
  94              		.cfi_offset 2, -8
  95              		.cfi_offset 3, -4
  96 0002 00B5     		push	{lr}
  97              		.cfi_def_cfa_offset 16
  98              		.cfi_offset 14, -16
  99 0004 82B0     		sub	sp, sp, #8
 100              		.cfi_def_cfa_offset 24
 101              		.loc 2 73 0
 102 0006 04AB     		add	r3, sp, #16
 103              		.loc 2 74 0
 104 0008 1A46     		mov	r2, r3
 105 000a 0549     		ldr	r1, .L9
 106 000c 0548     		ldr	r0, .L9+4
 107              	.LVL6:
 108              		.loc 2 73 0
 109 000e 0193     		str	r3, [sp, #4]
 110              		.loc 2 74 0
 111 0010 FFF7FEFF 		bl	chvprintf
 112              	.LVL7:
 113              		.loc 2 78 0
ARM GAS  C:\Users\jo\AppData\Local\Temp\ccQH7AaA.s 			page 3


 114 0014 02B0     		add	sp, sp, #8
 115              		.cfi_def_cfa_offset 16
 116              		@ sp needed
 117 0016 5DF804EB 		ldr	lr, [sp], #4
 118              		.cfi_restore 14
 119              		.cfi_def_cfa_offset 12
 120 001a 03B0     		add	sp, sp, #12
 121              		.cfi_restore 3
 122              		.cfi_restore 2
 123              		.cfi_restore 1
 124              		.cfi_def_cfa_offset 0
 125 001c 7047     		bx	lr
 126              	.L10:
 127 001e 00BF     		.align	2
 128              	.L9:
 129 0020 08000000 		.word	.LC1
 130 0024 00000000 		.word	.LANCHOR0
 131              		.cfi_endproc
 132              	.LFE264:
 133              		.size	chprintf.constprop.3, .-chprintf.constprop.3
 134 0028 AFF30080 		.section	.text.Debug_ITMDebugEnable,"ax",%progbits
 134      AFF30080 
 135              		.align	2
 136              		.p2align 4,,15
 137              		.global	Debug_ITMDebugEnable
 138              		.thumb
 139              		.thumb_func
 140              		.type	Debug_ITMDebugEnable, %function
 141              	Debug_ITMDebugEnable:
 142              	.LFB256:
 143              		.loc 1 42 0
 144              		.cfi_startproc
 145              		@ args = 0, pretend = 0, frame = 0
 146              		@ frame_needed = 0, uses_anonymous_args = 0
 147              		@ link register save eliminated.
 148              	.LVL8:
 149              		.loc 1 47 0
 150 0000 084A     		ldr	r2, .L19
 151              		.loc 1 49 0
 152 0002 0949     		ldr	r1, .L19+4
 153              		.loc 1 47 0
 154 0004 1368     		ldr	r3, [r2]
 155 0006 43F02703 		orr	r3, r3, #39
 156 000a 1360     		str	r3, [r2]
 157              		.loc 1 49 0
 158 000c 0B68     		ldr	r3, [r1]
 159 000e DA07     		lsls	r2, r3, #31
 160 0010 06D5     		bpl	.L11
 161              	.LBB6:
 162 0012 064B     		ldr	r3, .L19+8
 163 0014 1B68     		ldr	r3, [r3]
 164 0016 DB07     		lsls	r3, r3, #31
 165 0018 02D5     		bpl	.L11
 166              		.loc 1 50 0
 167 001a 054B     		ldr	r3, .L19+12
 168 001c 0122     		movs	r2, #1
 169 001e 1A60     		str	r2, [r3]
ARM GAS  C:\Users\jo\AppData\Local\Temp\ccQH7AaA.s 			page 4


 170              	.L11:
 171 0020 7047     		bx	lr
 172              	.L20:
 173 0022 00BF     		.align	2
 174              	.L19:
 175 0024 042004E0 		.word	-536600572
 176 0028 F0ED00E0 		.word	-536810000
 177 002c 000E00E0 		.word	-536867328
 178 0030 00000000 		.word	.LANCHOR1
 179              	.LBE6:
 180              		.cfi_endproc
 181              	.LFE256:
 182              		.size	Debug_ITMDebugEnable, .-Debug_ITMDebugEnable
 183 0034 AFF30080 		.section	.text.Debug_ITMDebugOutputChar,"ax",%progbits
 183      AFF30080 
 183      AFF30080 
 184              		.align	2
 185              		.p2align 4,,15
 186              		.global	Debug_ITMDebugOutputChar
 187              		.thumb
 188              		.thumb_func
 189              		.type	Debug_ITMDebugOutputChar, %function
 190              	Debug_ITMDebugOutputChar:
 191              	.LFB257:
 192              		.loc 1 55 0
 193              		.cfi_startproc
 194              		@ args = 0, pretend = 0, frame = 0
 195              		@ frame_needed = 0, uses_anonymous_args = 0
 196              		@ link register save eliminated.
 197              	.LVL9:
 198              		.loc 1 59 0
 199 0000 074B     		ldr	r3, .L33
 200 0002 1B68     		ldr	r3, [r3]
 201 0004 5BB1     		cbz	r3, .L21
 202              		.loc 1 59 0 is_stmt 0 discriminator 1
 203 0006 074B     		ldr	r3, .L33+4
 204 0008 1B68     		ldr	r3, [r3]
 205 000a DB01     		lsls	r3, r3, #7
 206 000c 07D5     		bpl	.L21
 207              	.LBB9:
 208              	.LBB10:
 209              		.loc 1 61 0 is_stmt 1
 210 000e 4FF06041 		mov	r1, #-536870912
 211              	.L29:
 212 0012 0B68     		ldr	r3, [r1]
 213 0014 4FF06042 		mov	r2, #-536870912
 214 0018 002B     		cmp	r3, #0
 215 001a FAD0     		beq	.L29
 216              		.loc 1 62 0
 217 001c 1070     		strb	r0, [r2]
 218              	.L21:
 219 001e 7047     		bx	lr
 220              	.L34:
 221              		.align	2
 222              	.L33:
 223 0020 00000000 		.word	.LANCHOR1
 224 0024 FCED00E0 		.word	-536809988
ARM GAS  C:\Users\jo\AppData\Local\Temp\ccQH7AaA.s 			page 5


 225              	.LBE10:
 226              	.LBE9:
 227              		.cfi_endproc
 228              	.LFE257:
 229              		.size	Debug_ITMDebugOutputChar, .-Debug_ITMDebugOutputChar
 230 0028 AFF30080 		.section	.text.Debug_ITMDebugOutputString,"ax",%progbits
 230      AFF30080 
 231              		.align	2
 232              		.p2align 4,,15
 233              		.global	Debug_ITMDebugOutputString
 234              		.thumb
 235              		.thumb_func
 236              		.type	Debug_ITMDebugOutputString, %function
 237              	Debug_ITMDebugOutputString:
 238              	.LFB258:
 239              		.loc 1 68 0
 240              		.cfi_startproc
 241              		@ args = 0, pretend = 0, frame = 0
 242              		@ frame_needed = 0, uses_anonymous_args = 0
 243              	.LVL10:
 244              		.loc 1 69 0
 245 0000 074B     		ldr	r3, .L45
 246 0002 1B68     		ldr	r3, [r3]
 247 0004 53B1     		cbz	r3, .L44
 248              	.LVL11:
 249              		.loc 1 68 0
 250 0006 10B5     		push	{r4, lr}
 251              		.cfi_def_cfa_offset 8
 252              		.cfi_offset 4, -8
 253              		.cfi_offset 14, -4
 254 0008 0446     		mov	r4, r0
 255              	.LBB13:
 256              	.LBB14:
 257              		.loc 1 70 0
 258 000a 0078     		ldrb	r0, [r0]	@ zero_extendqisi2
 259              	.LVL12:
 260 000c 28B1     		cbz	r0, .L35
 261              	.LVL13:
 262              	.L38:
 263              		.loc 1 71 0
 264 000e FFF7FEFF 		bl	Debug_ITMDebugOutputChar
 265              	.LVL14:
 266              		.loc 1 70 0
 267 0012 14F8010F 		ldrb	r0, [r4, #1]!	@ zero_extendqisi2
 268              	.LVL15:
 269 0016 0028     		cmp	r0, #0
 270 0018 F9D1     		bne	.L38
 271              	.LVL16:
 272              	.L35:
 273 001a 10BD     		pop	{r4, pc}
 274              	.LVL17:
 275              	.L44:
 276              		.cfi_def_cfa_offset 0
 277              		.cfi_restore 4
 278              		.cfi_restore 14
 279 001c 7047     		bx	lr
 280              	.L46:
ARM GAS  C:\Users\jo\AppData\Local\Temp\ccQH7AaA.s 			page 6


 281 001e 00BF     		.align	2
 282              	.L45:
 283 0020 00000000 		.word	.LANCHOR1
 284              	.LBE14:
 285              	.LBE13:
 286              		.cfi_endproc
 287              	.LFE258:
 288              		.size	Debug_ITMDebugOutputString, .-Debug_ITMDebugOutputString
 289 0024 AFF30080 		.section	.text.startup.main,"ax",%progbits
 289      AFF30080 
 289      AFF30080 
 290              		.align	2
 291              		.p2align 4,,15
 292              		.global	main
 293              		.thumb
 294              		.thumb_func
 295              		.type	main, %function
 296              	main:
 297              	.LFB260:
 298              		.loc 1 127 0
 299              		.cfi_startproc
 300              		@ Volatile: function does not return.
 301              		@ args = 0, pretend = 0, frame = 0
 302              		@ frame_needed = 0, uses_anonymous_args = 0
 303 0000 00B5     		push	{lr}
 304              		.cfi_def_cfa_offset 4
 305              		.cfi_offset 14, -4
 306 0002 83B0     		sub	sp, sp, #12
 307              		.cfi_def_cfa_offset 16
 308              		.loc 1 129 0
 309 0004 FFF7FEFF 		bl	Debug_ITMDebugEnable
 310              	.LVL18:
 311              	.LBB19:
 312              	.LBB20:
 313              		.loc 1 69 0
 314 0008 214B     		ldr	r3, .L58
 315 000a 1B68     		ldr	r3, [r3]
 316 000c 002B     		cmp	r3, #0
 317 000e 35D1     		bne	.L52
 318              	.L50:
 319              	.LBE20:
 320              	.LBE19:
 321              		.loc 1 132 0
 322 0010 2048     		ldr	r0, .L58+4
 323              		.loc 1 209 0
 324 0012 214C     		ldr	r4, .L58+8
 325              		.loc 1 132 0
 326 0014 FFF7FEFF 		bl	itmObjectInit
 327              	.LVL19:
 328              		.loc 1 180 0
 329 0018 0025     		movs	r5, #0
 330              		.loc 1 134 0
 331 001a 204A     		ldr	r2, .L58+12
 332 001c 2049     		ldr	r1, .L58+16
 333 001e 1D48     		ldr	r0, .L58+4
 334 0020 FFF7FEFF 		bl	chprintf.constprop.3
 335              	.LVL20:
ARM GAS  C:\Users\jo\AppData\Local\Temp\ccQH7AaA.s 			page 7


 336              		.loc 1 145 0
 337 0024 FFF7FEFF 		bl	halInit
 338              	.LVL21:
 339              		.loc 1 146 0
 340 0028 FFF7FEFF 		bl	chSysInit
 341              	.LVL22:
 342              		.loc 1 175 0
 343 002c 2946     		mov	r1, r5
 344 002e 1D48     		ldr	r0, .L58+20
 345 0030 FFF7FEFF 		bl	sdStart
 346              	.LVL23:
 347              		.loc 1 180 0
 348 0034 0095     		str	r5, [sp]
 349 0036 1C4B     		ldr	r3, .L58+24
 350 0038 1C48     		ldr	r0, .L58+28
 351 003a 4FF4B471 		mov	r1, #360
 352 003e 4022     		movs	r2, #64
 353 0040 FFF7FEFF 		bl	chThdCreateStatic
 354              	.LVL24:
 355              		.loc 1 195 0
 356 0044 0095     		str	r5, [sp]
 357 0046 1A4B     		ldr	r3, .L58+32
 358 0048 1A48     		ldr	r0, .L58+36
 359 004a 4FF44A71 		mov	r1, #808
 360 004e 4122     		movs	r2, #65
 361 0050 FFF7FEFF 		bl	chThdCreateStatic
 362              	.LVL25:
 363              		.loc 1 201 0
 364 0054 0095     		str	r5, [sp]
 365 0056 184B     		ldr	r3, .L58+40
 366 0058 1848     		ldr	r0, .L58+44
 367 005a 41F2E821 		movw	r1, #4840
 368 005e 5822     		movs	r2, #88
 369 0060 FFF7FEFF 		bl	chThdCreateStatic
 370              	.LVL26:
 371 0064 03E0     		b	.L49
 372              	.L51:
 373              		.loc 1 214 0
 374 0066 42F21070 		movw	r0, #10000
 375 006a FFF7FEFF 		bl	chThdSleep
 376              	.LVL27:
 377              	.L49:
 378              		.loc 1 209 0
 379 006e 2369     		ldr	r3, [r4, #16]
 380 0070 DB07     		lsls	r3, r3, #31
 381 0072 F8D5     		bpl	.L51
 382              		.loc 1 210 0
 383 0074 0B48     		ldr	r0, .L58+20
 384 0076 FFF7FEFF 		bl	TestThread
 385              	.LVL28:
 386 007a F4E7     		b	.L51
 387              	.L52:
 388              	.LBB24:
 389              	.LBB23:
 390              		.loc 1 69 0
 391 007c 104C     		ldr	r4, .L58+48
 392 007e 5320     		movs	r0, #83
ARM GAS  C:\Users\jo\AppData\Local\Temp\ccQH7AaA.s 			page 8


 393              	.L48:
 394              	.LVL29:
 395              	.LBB21:
 396              	.LBB22:
 397              		.loc 1 71 0
 398 0080 FFF7FEFF 		bl	Debug_ITMDebugOutputChar
 399              	.LVL30:
 400              		.loc 1 70 0
 401 0084 14F8010F 		ldrb	r0, [r4, #1]!	@ zero_extendqisi2
 402              	.LVL31:
 403 0088 0028     		cmp	r0, #0
 404 008a F9D1     		bne	.L48
 405 008c C0E7     		b	.L50
 406              	.L59:
 407 008e 00BF     		.align	2
 408              	.L58:
 409 0090 00000000 		.word	.LANCHOR1
 410 0094 00000000 		.word	.LANCHOR0
 411 0098 00000240 		.word	1073872896
 412 009c 1C000000 		.word	.LC3
 413 00a0 08000000 		.word	.LC1
 414 00a4 00000000 		.word	SD6
 415 00a8 00000000 		.word	Thread1
 416 00ac 00000000 		.word	.LANCHOR2
 417 00b0 00000000 		.word	lwip_thread
 418 00b4 00000000 		.word	wa_lwip_thread
 419 00b8 00000000 		.word	HttpTask
 420 00bc 00000000 		.word	task_http_stack
 421 00c0 0C000000 		.word	.LC2
 422              	.LBE22:
 423              	.LBE21:
 424              	.LBE23:
 425              	.LBE24:
 426              		.cfi_endproc
 427              	.LFE260:
 428              		.size	main, .-main
 429              		.global	itm_port
 430 00c4 AFF30080 		.section	.bss.waThread1,"aw",%nobits
 430      AFF30080 
 430      AFF30080 
 431              		.align	3
 432              		.set	.LANCHOR2,. + 0
 433              		.type	waThread1, %object
 434              		.size	waThread1, 360
 435              	waThread1:
 436 0000 00000000 		.space	360
 436      00000000 
 436      00000000 
 436      00000000 
 436      00000000 
 437              		.section	.bss.Debug_ITMDebug,"aw",%nobits
 438              		.align	2
 439              		.set	.LANCHOR1,. + 0
 440              		.type	Debug_ITMDebug, %object
 441              		.size	Debug_ITMDebug, 4
 442              	Debug_ITMDebug:
 443 0000 00000000 		.space	4
ARM GAS  C:\Users\jo\AppData\Local\Temp\ccQH7AaA.s 			page 9


 444              		.section	.bss.itm_port,"aw",%nobits
 445              		.align	2
 446              		.set	.LANCHOR0,. + 0
 447              		.type	itm_port, %object
 448              		.size	itm_port, 4
 449              	itm_port:
 450 0000 00000000 		.space	4
 451              		.section	.rodata.str1.4,"aMS",%progbits,1
 452              		.align	2
 453              	.LC0:
 454 0000 626C696E 		.ascii	"blinker\000"
 454      6B657200 
 455              	.LC1:
 456 0008 257300   		.ascii	"%s\000"
 457 000b 00       		.space	1
 458              	.LC2:
 459 000c 53575620 		.ascii	"SWV Enabled\012\000"
 459      456E6162 
 459      6C65640A 
 459      00
 460 0019 000000   		.space	3
 461              	.LC3:
 462 001c 43686962 		.ascii	"ChibiOS V3.0\012\000"
 462      694F5320 
 462      56332E30 
 462      0A00
 463 002a 0000     		.text
 464              	.Letext0:
 465              		.file 3 "c:\\program files\\gnu tools arm embedded\\4.9 2014q4\\lib\\gcc\\arm-none-eabi\\4.9.3\\in
 466              		.file 4 "c:\\program files\\gnu tools arm embedded\\4.9 2014q4\\arm-none-eabi\\include\\machine\\_
 467              		.file 5 "c:\\program files\\gnu tools arm embedded\\4.9 2014q4\\arm-none-eabi\\include\\stdint.h"
 468              		.file 6 "../../../os/rt/ports/ARMCMx/compilers/GCC/chtypes.h"
 469              		.file 7 "../../../os/rt/include/chsystypes.h"
 470              		.file 8 "../../../os/rt/include/chschd.h"
 471              		.file 9 "../../../os/ext/CMSIS/ST/stm32f407xx.h"
 472              		.file 10 "../../../os/rt/ports/ARMCMx/chcore.h"
 473              		.file 11 "../../../os/rt/ports/ARMCMx/chcore_v7m.h"
 474              		.file 12 "c:\\program files\\gnu tools arm embedded\\4.9 2014q4\\lib\\gcc\\arm-none-eabi\\4.9.3\\i
 475              		.file 13 "<built-in>"
 476              		.file 14 "../../../os/rt/include/chdebug.h"
 477              		.file 15 "../../../os/rt/include/chtm.h"
 478              		.file 16 "../../../os/rt/include/chstats.h"
 479              		.file 17 "../../../os/rt/include/chmtx.h"
 480              		.file 18 "../../../os/rt/include/chthreads.h"
 481              		.file 19 "../../../os/rt/include/chevents.h"
 482              		.file 20 "../../../os/rt/include/chqueues.h"
 483              		.file 21 "../../../os/rt/include/chstreams.h"
 484              		.file 22 "../../../os/hal/ports/STM32/LLD/GPIOv2/pal_lld.h"
 485              		.file 23 "../../../os/hal/include/serial.h"
 486              		.file 24 "../../../os/hal/ports/STM32/LLD/USARTv1/serial_lld.h"
 487              		.file 25 "ITM_trace.h"
 488              		.file 26 "../../../os/ext/lwip-1.4.1/src/include/lwip/memp.h"
 489              		.file 27 "../../../os/ext/CMSIS/include/core_cm4.h"
 490              		.file 28 "../../../os/various/lwip_bindings/lwipthread.h"
 491              		.file 29 "../../../demos/STM32/RT-STM32F407-DISCOVERY-uHttp/uhttp-1.1/uhttpd.h"
 492              		.file 30 "../../../os/ext/lwip-1.4.1/src/include/lwip/stats.h"
 493              		.file 31 "../../../os/hal/include/hal.h"
ARM GAS  C:\Users\jo\AppData\Local\Temp\ccQH7AaA.s 			page 10


 494              		.file 32 "../../../os/rt/include/chsys.h"
 495              		.file 33 "../../../test/rt/test.h"