ARM GAS  C:\Users\jo\AppData\Local\Temp\ccsKzdiL.s 			page 1


   1              		.syntax unified
   2              		.cpu cortex-m4
   3              		.fpu softvfp
   4              		.eabi_attribute 20, 1
   5              		.eabi_attribute 21, 1
   6              		.eabi_attribute 23, 3
   7              		.eabi_attribute 24, 1
   8              		.eabi_attribute 25, 1
   9              		.eabi_attribute 26, 1
  10              		.eabi_attribute 30, 2
  11              		.eabi_attribute 34, 1
  12              		.eabi_attribute 18, 4
  13              		.thumb
  14              		.file	"md.c"
  15              		.text
  16              	.Ltext0:
  17              		.cfi_sections	.debug_frame
  18              		.section	.text.md_list,"ax",%progbits
  19              		.align	2
  20              		.p2align 4,,15
  21              		.global	md_list
  22              		.thumb
  23              		.thumb_func
  24              		.type	md_list, %function
  25              	md_list:
  26              	.LFB3:
  27              		.file 1 "../../../os/ext/PolarSSL/library/md.c"
  28              		.loc 1 75 0
  29              		.cfi_startproc
  30              		@ args = 0, pretend = 0, frame = 0
  31              		@ frame_needed = 0, uses_anonymous_args = 0
  32              		@ link register save eliminated.
  33              		.loc 1 77 0
  34 0000 0048     		ldr	r0, .L2
  35 0002 7047     		bx	lr
  36              	.L3:
  37              		.align	2
  38              	.L2:
  39 0004 00000000 		.word	.LANCHOR0
  40              		.cfi_endproc
  41              	.LFE3:
  42              		.size	md_list, .-md_list
  43 0008 AFF30080 		.section	.text.md_info_from_string,"ax",%progbits
  43      AFF30080 
  44              		.align	2
  45              		.p2align 4,,15
  46              		.global	md_info_from_string
  47              		.thumb
  48              		.thumb_func
  49              		.type	md_info_from_string, %function
  50              	md_info_from_string:
  51              	.LFB4:
  52              		.loc 1 80 0
  53              		.cfi_startproc
  54              		@ args = 0, pretend = 0, frame = 0
  55              		@ frame_needed = 0, uses_anonymous_args = 0
  56              	.LVL0:
ARM GAS  C:\Users\jo\AppData\Local\Temp\ccsKzdiL.s 			page 2


  57              		.loc 1 81 0
  58 0000 0028     		cmp	r0, #0
  59 0002 33D0     		beq	.L15
  60              		.loc 1 80 0
  61 0004 10B5     		push	{r4, lr}
  62              		.cfi_def_cfa_offset 8
  63              		.cfi_offset 4, -8
  64              		.cfi_offset 14, -4
  65 0006 0446     		mov	r4, r0
  66              		.loc 1 94 0
  67 0008 2146     		mov	r1, r4
  68 000a 1948     		ldr	r0, .L17
  69              	.LVL1:
  70 000c FFF7FEFF 		bl	strcasecmp
  71              	.LVL2:
  72 0010 20B3     		cbz	r0, .L7
  73              		.loc 1 98 0
  74 0012 1848     		ldr	r0, .L17+4
  75 0014 2146     		mov	r1, r4
  76 0016 FFF7FEFF 		bl	strcasecmp
  77              	.LVL3:
  78 001a E8B1     		cbz	r0, .L9
  79              		.loc 1 98 0 is_stmt 0 discriminator 1
  80 001c 1648     		ldr	r0, .L17+8
  81 001e 2146     		mov	r1, r4
  82 0020 FFF7FEFF 		bl	strcasecmp
  83              	.LVL4:
  84 0024 C0B1     		cbz	r0, .L9
  85              		.loc 1 102 0 is_stmt 1
  86 0026 1548     		ldr	r0, .L17+12
  87 0028 2146     		mov	r1, r4
  88 002a FFF7FEFF 		bl	strcasecmp
  89              	.LVL5:
  90 002e B8B1     		cbz	r0, .L10
  91              		.loc 1 104 0
  92 0030 1348     		ldr	r0, .L17+16
  93 0032 2146     		mov	r1, r4
  94 0034 FFF7FEFF 		bl	strcasecmp
  95              	.LVL6:
  96 0038 A0B1     		cbz	r0, .L11
  97              		.loc 1 108 0
  98 003a 1248     		ldr	r0, .L17+20
  99 003c 2146     		mov	r1, r4
 100 003e FFF7FEFF 		bl	strcasecmp
 101              	.LVL7:
 102 0042 88B1     		cbz	r0, .L12
 103              		.loc 1 110 0
 104 0044 2146     		mov	r1, r4
 105 0046 1048     		ldr	r0, .L17+24
 106              		.loc 1 113 0
 107 0048 104C     		ldr	r4, .L17+28
 108              	.LVL8:
 109              		.loc 1 110 0
 110 004a FFF7FEFF 		bl	strcasecmp
 111              	.LVL9:
 112 004e 0028     		cmp	r0, #0
 113              		.loc 1 113 0
ARM GAS  C:\Users\jo\AppData\Local\Temp\ccsKzdiL.s 			page 3


 114 0050 0CBF     		ite	eq
 115 0052 2046     		moveq	r0, r4
 116 0054 0020     		movne	r0, #0
 117 0056 10BD     		pop	{r4, pc}
 118              	.LVL10:
 119              	.L9:
 120              		.loc 1 99 0
 121 0058 0D48     		ldr	r0, .L17+32
 122 005a 10BD     		pop	{r4, pc}
 123              	.LVL11:
 124              	.L7:
 125              		.loc 1 95 0
 126 005c 0D48     		ldr	r0, .L17+36
 127 005e 10BD     		pop	{r4, pc}
 128              	.LVL12:
 129              	.L10:
 130              		.loc 1 103 0
 131 0060 0D48     		ldr	r0, .L17+40
 132 0062 10BD     		pop	{r4, pc}
 133              	.LVL13:
 134              	.L11:
 135              		.loc 1 105 0
 136 0064 0D48     		ldr	r0, .L17+44
 137 0066 10BD     		pop	{r4, pc}
 138              	.LVL14:
 139              	.L12:
 140              		.loc 1 109 0
 141 0068 0D48     		ldr	r0, .L17+48
 142              		.loc 1 114 0
 143 006a 10BD     		pop	{r4, pc}
 144              	.LVL15:
 145              	.L15:
 146              		.cfi_def_cfa_offset 0
 147              		.cfi_restore 4
 148              		.cfi_restore 14
 149 006c 7047     		bx	lr
 150              	.L18:
 151 006e 00BF     		.align	2
 152              	.L17:
 153 0070 00000000 		.word	.LC0
 154 0074 04000000 		.word	.LC1
 155 0078 0C000000 		.word	.LC2
 156 007c 10000000 		.word	.LC3
 157 0080 18000000 		.word	.LC4
 158 0084 20000000 		.word	.LC5
 159 0088 28000000 		.word	.LC6
 160 008c 00000000 		.word	sha512_info
 161 0090 00000000 		.word	sha1_info
 162 0094 00000000 		.word	md5_info
 163 0098 00000000 		.word	sha224_info
 164 009c 00000000 		.word	sha256_info
 165 00a0 00000000 		.word	sha384_info
 166              		.cfi_endproc
 167              	.LFE4:
 168              		.size	md_info_from_string, .-md_info_from_string
 169 00a4 AFF30080 		.section	.text.md_info_from_type,"ax",%progbits
 169      AFF30080 
ARM GAS  C:\Users\jo\AppData\Local\Temp\ccsKzdiL.s 			page 4


 169      AFF30080 
 170              		.align	2
 171              		.p2align 4,,15
 172              		.global	md_info_from_type
 173              		.thumb
 174              		.thumb_func
 175              		.type	md_info_from_type, %function
 176              	md_info_from_type:
 177              	.LFB5:
 178              		.loc 1 117 0
 179              		.cfi_startproc
 180              		@ args = 0, pretend = 0, frame = 0
 181              		@ frame_needed = 0, uses_anonymous_args = 0
 182              		@ link register save eliminated.
 183              	.LVL16:
 184 0000 0338     		subs	r0, r0, #3
 185              	.LVL17:
 186 0002 C0B2     		uxtb	r0, r0
 187 0004 0528     		cmp	r0, #5
 188 0006 9ABF     		itte	ls
 189 0008 024B     		ldrls	r3, .L22
 190 000a 53F82000 		ldrls	r0, [r3, r0, lsl #2]
 191              		.loc 1 117 0
 192 000e 0020     		movhi	r0, #0
 193              		.loc 1 151 0
 194 0010 7047     		bx	lr
 195              	.L23:
 196 0012 00BF     		.align	2
 197              	.L22:
 198 0014 00000000 		.word	.LANCHOR1
 199              		.cfi_endproc
 200              	.LFE5:
 201              		.size	md_info_from_type, .-md_info_from_type
 202 0018 AFF30080 		.section	.text.md_init_ctx,"ax",%progbits
 202      AFF30080 
 203              		.align	2
 204              		.p2align 4,,15
 205              		.global	md_init_ctx
 206              		.thumb
 207              		.thumb_func
 208              		.type	md_init_ctx, %function
 209              	md_init_ctx:
 210              	.LFB6:
 211              		.loc 1 154 0
 212              		.cfi_startproc
 213              		@ args = 0, pretend = 0, frame = 0
 214              		@ frame_needed = 0, uses_anonymous_args = 0
 215              	.LVL18:
 216              		.loc 1 155 0
 217 0000 E9B1     		cbz	r1, .L27
 218              		.loc 1 155 0 is_stmt 0 discriminator 1
 219 0002 E0B1     		cbz	r0, .L27
 220              		.loc 1 158 0 is_stmt 1
 221 0004 0346     		mov	r3, r0
 222              		.loc 1 154 0
 223 0006 70B5     		push	{r4, r5, r6, lr}
 224              		.cfi_def_cfa_offset 16
ARM GAS  C:\Users\jo\AppData\Local\Temp\ccsKzdiL.s 			page 5


 225              		.cfi_offset 4, -16
 226              		.cfi_offset 5, -12
 227              		.cfi_offset 6, -8
 228              		.cfi_offset 14, -4
 229              		.loc 1 158 0
 230 0008 0024     		movs	r4, #0
 231 000a 03F8014B 		strb	r4, [r3], #1
 232 000e 0133     		adds	r3, r3, #1
 233 0010 4470     		strb	r4, [r0, #1]
 234 0012 03F8014B 		strb	r4, [r3], #1
 235 0016 03F8014B 		strb	r4, [r3], #1
 236 001a 03F8014B 		strb	r4, [r3], #1
 237 001e 03F8014B 		strb	r4, [r3], #1
 238 0022 03F8014B 		strb	r4, [r3], #1
 239 0026 1C70     		strb	r4, [r3]
 240              		.loc 1 160 0
 241 0028 4B6B     		ldr	r3, [r1, #52]
 242 002a 0546     		mov	r5, r0
 243 002c 0E46     		mov	r6, r1
 244 002e 9847     		blx	r3
 245              	.LVL19:
 246 0030 6860     		str	r0, [r5, #4]
 247 0032 30B1     		cbz	r0, .L28
 248              		.loc 1 163 0
 249 0034 2E60     		str	r6, [r5]
 250              		.loc 1 165 0
 251 0036 F368     		ldr	r3, [r6, #12]
 252 0038 9847     		blx	r3
 253              	.LVL20:
 254              		.loc 1 167 0
 255 003a 2046     		mov	r0, r4
 256 003c 70BD     		pop	{r4, r5, r6, pc}
 257              	.LVL21:
 258              	.L27:
 259              		.cfi_def_cfa_offset 0
 260              		.cfi_restore 4
 261              		.cfi_restore 5
 262              		.cfi_restore 6
 263              		.cfi_restore 14
 264              		.loc 1 156 0
 265 003e 0248     		ldr	r0, .L31
 266              	.LVL22:
 267 0040 7047     		bx	lr
 268              	.LVL23:
 269              	.L28:
 270              		.cfi_def_cfa_offset 16
 271              		.cfi_offset 4, -16
 272              		.cfi_offset 5, -12
 273              		.cfi_offset 6, -8
 274              		.cfi_offset 14, -4
 275              		.loc 1 161 0
 276 0042 0248     		ldr	r0, .L31+4
 277              		.loc 1 168 0
 278 0044 70BD     		pop	{r4, r5, r6, pc}
 279              	.LVL24:
 280              	.L32:
 281 0046 00BF     		.align	2
ARM GAS  C:\Users\jo\AppData\Local\Temp\ccsKzdiL.s 			page 6


 282              	.L31:
 283 0048 00AFFFFF 		.word	-20736
 284 004c 80AEFFFF 		.word	-20864
 285              		.cfi_endproc
 286              	.LFE6:
 287              		.size	md_init_ctx, .-md_init_ctx
 288              		.section	.text.md_free_ctx,"ax",%progbits
 289              		.align	2
 290              		.p2align 4,,15
 291              		.global	md_free_ctx
 292              		.thumb
 293              		.thumb_func
 294              		.type	md_free_ctx, %function
 295              	md_free_ctx:
 296              	.LFB7:
 297              		.loc 1 171 0
 298              		.cfi_startproc
 299              		@ args = 0, pretend = 0, frame = 0
 300              		@ frame_needed = 0, uses_anonymous_args = 0
 301              	.LVL25:
 302              		.loc 1 172 0
 303 0000 48B1     		cbz	r0, .L36
 304              		.loc 1 172 0 is_stmt 0 discriminator 1
 305 0002 0368     		ldr	r3, [r0]
 306 0004 3BB1     		cbz	r3, .L36
 307              		.loc 1 171 0 is_stmt 1
 308 0006 10B5     		push	{r4, lr}
 309              		.cfi_def_cfa_offset 8
 310              		.cfi_offset 4, -8
 311              		.cfi_offset 14, -4
 312              		.loc 1 175 0
 313 0008 9B6B     		ldr	r3, [r3, #56]
 314 000a 0446     		mov	r4, r0
 315 000c 4068     		ldr	r0, [r0, #4]
 316              	.LVL26:
 317 000e 9847     		blx	r3
 318              	.LVL27:
 319              		.loc 1 176 0
 320 0010 0020     		movs	r0, #0
 321 0012 6060     		str	r0, [r4, #4]
 322              		.loc 1 178 0
 323 0014 10BD     		pop	{r4, pc}
 324              	.LVL28:
 325              	.L36:
 326              		.cfi_def_cfa_offset 0
 327              		.cfi_restore 4
 328              		.cfi_restore 14
 329              		.loc 1 173 0
 330 0016 0148     		ldr	r0, .L39
 331              	.LVL29:
 332 0018 7047     		bx	lr
 333              	.L40:
 334 001a 00BF     		.align	2
 335              	.L39:
 336 001c 00AFFFFF 		.word	-20736
 337              		.cfi_endproc
 338              	.LFE7:
ARM GAS  C:\Users\jo\AppData\Local\Temp\ccsKzdiL.s 			page 7


 339              		.size	md_free_ctx, .-md_free_ctx
 340              		.section	.text.md_starts,"ax",%progbits
 341              		.align	2
 342              		.p2align 4,,15
 343              		.global	md_starts
 344              		.thumb
 345              		.thumb_func
 346              		.type	md_starts, %function
 347              	md_starts:
 348              	.LFB8:
 349              		.loc 1 182 0
 350              		.cfi_startproc
 351              		@ args = 0, pretend = 0, frame = 0
 352              		@ frame_needed = 0, uses_anonymous_args = 0
 353              	.LVL30:
 354              		.loc 1 183 0
 355 0000 48B1     		cbz	r0, .L43
 356              		.loc 1 182 0 discriminator 1
 357 0002 08B5     		push	{r3, lr}
 358              		.cfi_def_cfa_offset 8
 359              		.cfi_offset 3, -8
 360              		.cfi_offset 14, -4
 361              		.loc 1 183 0 discriminator 1
 362 0004 0368     		ldr	r3, [r0]
 363 0006 23B1     		cbz	r3, .L44
 364              		.loc 1 186 0
 365 0008 DB68     		ldr	r3, [r3, #12]
 366 000a 4068     		ldr	r0, [r0, #4]
 367              	.LVL31:
 368 000c 9847     		blx	r3
 369              	.LVL32:
 370              		.loc 1 188 0
 371 000e 0020     		movs	r0, #0
 372 0010 08BD     		pop	{r3, pc}
 373              	.LVL33:
 374              	.L44:
 375              		.loc 1 184 0
 376 0012 0248     		ldr	r0, .L46
 377              	.LVL34:
 378              		.loc 1 189 0
 379 0014 08BD     		pop	{r3, pc}
 380              	.LVL35:
 381              	.L43:
 382              		.cfi_def_cfa_offset 0
 383              		.cfi_restore 3
 384              		.cfi_restore 14
 385              		.loc 1 184 0
 386 0016 0148     		ldr	r0, .L46
 387              	.LVL36:
 388              		.loc 1 189 0
 389 0018 7047     		bx	lr
 390              	.L47:
 391 001a 00BF     		.align	2
 392              	.L46:
 393 001c 00AFFFFF 		.word	-20736
 394              		.cfi_endproc
 395              	.LFE8:
ARM GAS  C:\Users\jo\AppData\Local\Temp\ccsKzdiL.s 			page 8


 396              		.size	md_starts, .-md_starts
 397              		.section	.text.md_update,"ax",%progbits
 398              		.align	2
 399              		.p2align 4,,15
 400              		.global	md_update
 401              		.thumb
 402              		.thumb_func
 403              		.type	md_update, %function
 404              	md_update:
 405              	.LFB9:
 406              		.loc 1 192 0
 407              		.cfi_startproc
 408              		@ args = 0, pretend = 0, frame = 0
 409              		@ frame_needed = 0, uses_anonymous_args = 0
 410              	.LVL37:
 411              		.loc 1 193 0
 412 0000 48B1     		cbz	r0, .L50
 413              		.loc 1 192 0 discriminator 1
 414 0002 08B5     		push	{r3, lr}
 415              		.cfi_def_cfa_offset 8
 416              		.cfi_offset 3, -8
 417              		.cfi_offset 14, -4
 418              		.loc 1 193 0 discriminator 1
 419 0004 0368     		ldr	r3, [r0]
 420 0006 23B1     		cbz	r3, .L51
 421              		.loc 1 196 0
 422 0008 1B69     		ldr	r3, [r3, #16]
 423 000a 4068     		ldr	r0, [r0, #4]
 424              	.LVL38:
 425 000c 9847     		blx	r3
 426              	.LVL39:
 427              		.loc 1 198 0
 428 000e 0020     		movs	r0, #0
 429 0010 08BD     		pop	{r3, pc}
 430              	.LVL40:
 431              	.L51:
 432              		.loc 1 194 0
 433 0012 0248     		ldr	r0, .L53
 434              	.LVL41:
 435              		.loc 1 199 0
 436 0014 08BD     		pop	{r3, pc}
 437              	.LVL42:
 438              	.L50:
 439              		.cfi_def_cfa_offset 0
 440              		.cfi_restore 3
 441              		.cfi_restore 14
 442              		.loc 1 194 0
 443 0016 0148     		ldr	r0, .L53
 444              	.LVL43:
 445              		.loc 1 199 0
 446 0018 7047     		bx	lr
 447              	.L54:
 448 001a 00BF     		.align	2
 449              	.L53:
 450 001c 00AFFFFF 		.word	-20736
 451              		.cfi_endproc
 452              	.LFE9:
ARM GAS  C:\Users\jo\AppData\Local\Temp\ccsKzdiL.s 			page 9


 453              		.size	md_update, .-md_update
 454              		.section	.text.md_finish,"ax",%progbits
 455              		.align	2
 456              		.p2align 4,,15
 457              		.global	md_finish
 458              		.thumb
 459              		.thumb_func
 460              		.type	md_finish, %function
 461              	md_finish:
 462              	.LFB10:
 463              		.loc 1 202 0
 464              		.cfi_startproc
 465              		@ args = 0, pretend = 0, frame = 0
 466              		@ frame_needed = 0, uses_anonymous_args = 0
 467              	.LVL44:
 468              		.loc 1 203 0
 469 0000 48B1     		cbz	r0, .L57
 470              		.loc 1 202 0 discriminator 1
 471 0002 08B5     		push	{r3, lr}
 472              		.cfi_def_cfa_offset 8
 473              		.cfi_offset 3, -8
 474              		.cfi_offset 14, -4
 475              		.loc 1 203 0 discriminator 1
 476 0004 0368     		ldr	r3, [r0]
 477 0006 23B1     		cbz	r3, .L58
 478              		.loc 1 206 0
 479 0008 5B69     		ldr	r3, [r3, #20]
 480 000a 4068     		ldr	r0, [r0, #4]
 481              	.LVL45:
 482 000c 9847     		blx	r3
 483              	.LVL46:
 484              		.loc 1 208 0
 485 000e 0020     		movs	r0, #0
 486 0010 08BD     		pop	{r3, pc}
 487              	.LVL47:
 488              	.L58:
 489              		.loc 1 204 0
 490 0012 0248     		ldr	r0, .L60
 491              	.LVL48:
 492              		.loc 1 209 0
 493 0014 08BD     		pop	{r3, pc}
 494              	.LVL49:
 495              	.L57:
 496              		.cfi_def_cfa_offset 0
 497              		.cfi_restore 3
 498              		.cfi_restore 14
 499              		.loc 1 204 0
 500 0016 0148     		ldr	r0, .L60
 501              	.LVL50:
 502              		.loc 1 209 0
 503 0018 7047     		bx	lr
 504              	.L61:
 505 001a 00BF     		.align	2
 506              	.L60:
 507 001c 00AFFFFF 		.word	-20736
 508              		.cfi_endproc
 509              	.LFE10:
ARM GAS  C:\Users\jo\AppData\Local\Temp\ccsKzdiL.s 			page 10


 510              		.size	md_finish, .-md_finish
 511              		.section	.text.md,"ax",%progbits
 512              		.align	2
 513              		.p2align 4,,15
 514              		.global	md
 515              		.thumb
 516              		.thumb_func
 517              		.type	md, %function
 518              	md:
 519              	.LFB11:
 520              		.loc 1 213 0
 521              		.cfi_startproc
 522              		@ args = 0, pretend = 0, frame = 0
 523              		@ frame_needed = 0, uses_anonymous_args = 0
 524              	.LVL51:
 525              		.loc 1 214 0
 526 0000 40B1     		cbz	r0, .L64
 527              		.loc 1 213 0
 528 0002 10B5     		push	{r4, lr}
 529              		.cfi_def_cfa_offset 8
 530              		.cfi_offset 4, -8
 531              		.cfi_offset 14, -4
 532 0004 0446     		mov	r4, r0
 533 0006 0846     		mov	r0, r1
 534              	.LVL52:
 535              		.loc 1 217 0
 536 0008 A469     		ldr	r4, [r4, #24]
 537              	.LVL53:
 538 000a 1146     		mov	r1, r2
 539              	.LVL54:
 540 000c 1A46     		mov	r2, r3
 541              	.LVL55:
 542 000e A047     		blx	r4
 543              	.LVL56:
 544              		.loc 1 219 0
 545 0010 0020     		movs	r0, #0
 546 0012 10BD     		pop	{r4, pc}
 547              	.LVL57:
 548              	.L64:
 549              		.cfi_def_cfa_offset 0
 550              		.cfi_restore 4
 551              		.cfi_restore 14
 552              		.loc 1 215 0
 553 0014 0048     		ldr	r0, .L67
 554              	.LVL58:
 555 0016 7047     		bx	lr
 556              	.L68:
 557              		.align	2
 558              	.L67:
 559 0018 00AFFFFF 		.word	-20736
 560              		.cfi_endproc
 561              	.LFE11:
 562              		.size	md, .-md
 563 001c AFF30080 		.section	.text.md_file,"ax",%progbits
 564              		.align	2
 565              		.p2align 4,,15
 566              		.global	md_file
ARM GAS  C:\Users\jo\AppData\Local\Temp\ccsKzdiL.s 			page 11


 567              		.thumb
 568              		.thumb_func
 569              		.type	md_file, %function
 570              	md_file:
 571              	.LFB12:
 572              		.loc 1 223 0
 573              		.cfi_startproc
 574              		@ args = 0, pretend = 0, frame = 0
 575              		@ frame_needed = 0, uses_anonymous_args = 0
 576              	.LVL59:
 577              		.loc 1 228 0
 578 0000 50B1     		cbz	r0, .L71
 579              		.loc 1 223 0
 580 0002 08B5     		push	{r3, lr}
 581              		.cfi_def_cfa_offset 8
 582              		.cfi_offset 3, -8
 583              		.cfi_offset 14, -4
 584 0004 0346     		mov	r3, r0
 585 0006 0846     		mov	r0, r1
 586              	.LVL60:
 587              		.loc 1 232 0
 588 0008 DB69     		ldr	r3, [r3, #28]
 589              	.LVL61:
 590 000a 1146     		mov	r1, r2
 591              	.LVL62:
 592 000c 9847     		blx	r3
 593              	.LVL63:
 594              		.loc 1 233 0
 595 000e 10B1     		cbz	r0, .L70
 596              		.loc 1 234 0
 597 0010 A0F5A440 		sub	r0, r0, #20992
 598              	.LVL64:
 599 0014 08BD     		pop	{r3, pc}
 600              	.LVL65:
 601              	.L70:
 602              		.loc 1 243 0
 603 0016 08BD     		pop	{r3, pc}
 604              	.LVL66:
 605              	.L71:
 606              		.cfi_def_cfa_offset 0
 607              		.cfi_restore 3
 608              		.cfi_restore 14
 609              		.loc 1 229 0
 610 0018 0048     		ldr	r0, .L75
 611              	.LVL67:
 612 001a 7047     		bx	lr
 613              	.L76:
 614              		.align	2
 615              	.L75:
 616 001c 00AFFFFF 		.word	-20736
 617              		.cfi_endproc
 618              	.LFE12:
 619              		.size	md_file, .-md_file
 620              		.section	.text.md_hmac_starts,"ax",%progbits
 621              		.align	2
 622              		.p2align 4,,15
 623              		.global	md_hmac_starts
ARM GAS  C:\Users\jo\AppData\Local\Temp\ccsKzdiL.s 			page 12


 624              		.thumb
 625              		.thumb_func
 626              		.type	md_hmac_starts, %function
 627              	md_hmac_starts:
 628              	.LFB13:
 629              		.loc 1 246 0
 630              		.cfi_startproc
 631              		@ args = 0, pretend = 0, frame = 0
 632              		@ frame_needed = 0, uses_anonymous_args = 0
 633              	.LVL68:
 634              		.loc 1 247 0
 635 0000 48B1     		cbz	r0, .L79
 636              		.loc 1 246 0 discriminator 1
 637 0002 08B5     		push	{r3, lr}
 638              		.cfi_def_cfa_offset 8
 639              		.cfi_offset 3, -8
 640              		.cfi_offset 14, -4
 641              		.loc 1 247 0 discriminator 1
 642 0004 0368     		ldr	r3, [r0]
 643 0006 23B1     		cbz	r3, .L80
 644              		.loc 1 250 0
 645 0008 1B6A     		ldr	r3, [r3, #32]
 646 000a 4068     		ldr	r0, [r0, #4]
 647              	.LVL69:
 648 000c 9847     		blx	r3
 649              	.LVL70:
 650              		.loc 1 252 0
 651 000e 0020     		movs	r0, #0
 652 0010 08BD     		pop	{r3, pc}
 653              	.LVL71:
 654              	.L80:
 655              		.loc 1 248 0
 656 0012 0248     		ldr	r0, .L82
 657              	.LVL72:
 658              		.loc 1 253 0
 659 0014 08BD     		pop	{r3, pc}
 660              	.LVL73:
 661              	.L79:
 662              		.cfi_def_cfa_offset 0
 663              		.cfi_restore 3
 664              		.cfi_restore 14
 665              		.loc 1 248 0
 666 0016 0148     		ldr	r0, .L82
 667              	.LVL74:
 668              		.loc 1 253 0
 669 0018 7047     		bx	lr
 670              	.L83:
 671 001a 00BF     		.align	2
 672              	.L82:
 673 001c 00AFFFFF 		.word	-20736
 674              		.cfi_endproc
 675              	.LFE13:
 676              		.size	md_hmac_starts, .-md_hmac_starts
 677              		.section	.text.md_hmac_update,"ax",%progbits
 678              		.align	2
 679              		.p2align 4,,15
 680              		.global	md_hmac_update
ARM GAS  C:\Users\jo\AppData\Local\Temp\ccsKzdiL.s 			page 13


 681              		.thumb
 682              		.thumb_func
 683              		.type	md_hmac_update, %function
 684              	md_hmac_update:
 685              	.LFB14:
 686              		.loc 1 256 0
 687              		.cfi_startproc
 688              		@ args = 0, pretend = 0, frame = 0
 689              		@ frame_needed = 0, uses_anonymous_args = 0
 690              	.LVL75:
 691              		.loc 1 257 0
 692 0000 48B1     		cbz	r0, .L86
 693              		.loc 1 256 0 discriminator 1
 694 0002 08B5     		push	{r3, lr}
 695              		.cfi_def_cfa_offset 8
 696              		.cfi_offset 3, -8
 697              		.cfi_offset 14, -4
 698              		.loc 1 257 0 discriminator 1
 699 0004 0368     		ldr	r3, [r0]
 700 0006 23B1     		cbz	r3, .L87
 701              		.loc 1 260 0
 702 0008 5B6A     		ldr	r3, [r3, #36]
 703 000a 4068     		ldr	r0, [r0, #4]
 704              	.LVL76:
 705 000c 9847     		blx	r3
 706              	.LVL77:
 707              		.loc 1 262 0
 708 000e 0020     		movs	r0, #0
 709 0010 08BD     		pop	{r3, pc}
 710              	.LVL78:
 711              	.L87:
 712              		.loc 1 258 0
 713 0012 0248     		ldr	r0, .L89
 714              	.LVL79:
 715              		.loc 1 263 0
 716 0014 08BD     		pop	{r3, pc}
 717              	.LVL80:
 718              	.L86:
 719              		.cfi_def_cfa_offset 0
 720              		.cfi_restore 3
 721              		.cfi_restore 14
 722              		.loc 1 258 0
 723 0016 0148     		ldr	r0, .L89
 724              	.LVL81:
 725              		.loc 1 263 0
 726 0018 7047     		bx	lr
 727              	.L90:
 728 001a 00BF     		.align	2
 729              	.L89:
 730 001c 00AFFFFF 		.word	-20736
 731              		.cfi_endproc
 732              	.LFE14:
 733              		.size	md_hmac_update, .-md_hmac_update
 734              		.section	.text.md_hmac_finish,"ax",%progbits
 735              		.align	2
 736              		.p2align 4,,15
 737              		.global	md_hmac_finish
ARM GAS  C:\Users\jo\AppData\Local\Temp\ccsKzdiL.s 			page 14


 738              		.thumb
 739              		.thumb_func
 740              		.type	md_hmac_finish, %function
 741              	md_hmac_finish:
 742              	.LFB15:
 743              		.loc 1 266 0
 744              		.cfi_startproc
 745              		@ args = 0, pretend = 0, frame = 0
 746              		@ frame_needed = 0, uses_anonymous_args = 0
 747              	.LVL82:
 748              		.loc 1 267 0
 749 0000 48B1     		cbz	r0, .L93
 750              		.loc 1 266 0 discriminator 1
 751 0002 08B5     		push	{r3, lr}
 752              		.cfi_def_cfa_offset 8
 753              		.cfi_offset 3, -8
 754              		.cfi_offset 14, -4
 755              		.loc 1 267 0 discriminator 1
 756 0004 0368     		ldr	r3, [r0]
 757 0006 23B1     		cbz	r3, .L94
 758              		.loc 1 270 0
 759 0008 9B6A     		ldr	r3, [r3, #40]
 760 000a 4068     		ldr	r0, [r0, #4]
 761              	.LVL83:
 762 000c 9847     		blx	r3
 763              	.LVL84:
 764              		.loc 1 272 0
 765 000e 0020     		movs	r0, #0
 766 0010 08BD     		pop	{r3, pc}
 767              	.LVL85:
 768              	.L94:
 769              		.loc 1 268 0
 770 0012 0248     		ldr	r0, .L96
 771              	.LVL86:
 772              		.loc 1 273 0
 773 0014 08BD     		pop	{r3, pc}
 774              	.LVL87:
 775              	.L93:
 776              		.cfi_def_cfa_offset 0
 777              		.cfi_restore 3
 778              		.cfi_restore 14
 779              		.loc 1 268 0
 780 0016 0148     		ldr	r0, .L96
 781              	.LVL88:
 782              		.loc 1 273 0
 783 0018 7047     		bx	lr
 784              	.L97:
 785 001a 00BF     		.align	2
 786              	.L96:
 787 001c 00AFFFFF 		.word	-20736
 788              		.cfi_endproc
 789              	.LFE15:
 790              		.size	md_hmac_finish, .-md_hmac_finish
 791              		.section	.text.md_hmac_reset,"ax",%progbits
 792              		.align	2
 793              		.p2align 4,,15
 794              		.global	md_hmac_reset
ARM GAS  C:\Users\jo\AppData\Local\Temp\ccsKzdiL.s 			page 15


 795              		.thumb
 796              		.thumb_func
 797              		.type	md_hmac_reset, %function
 798              	md_hmac_reset:
 799              	.LFB16:
 800              		.loc 1 276 0
 801              		.cfi_startproc
 802              		@ args = 0, pretend = 0, frame = 0
 803              		@ frame_needed = 0, uses_anonymous_args = 0
 804              	.LVL89:
 805              		.loc 1 277 0
 806 0000 48B1     		cbz	r0, .L100
 807              		.loc 1 276 0 discriminator 1
 808 0002 08B5     		push	{r3, lr}
 809              		.cfi_def_cfa_offset 8
 810              		.cfi_offset 3, -8
 811              		.cfi_offset 14, -4
 812              		.loc 1 277 0 discriminator 1
 813 0004 0368     		ldr	r3, [r0]
 814 0006 23B1     		cbz	r3, .L101
 815              		.loc 1 280 0
 816 0008 DB6A     		ldr	r3, [r3, #44]
 817 000a 4068     		ldr	r0, [r0, #4]
 818              	.LVL90:
 819 000c 9847     		blx	r3
 820              	.LVL91:
 821              		.loc 1 282 0
 822 000e 0020     		movs	r0, #0
 823 0010 08BD     		pop	{r3, pc}
 824              	.LVL92:
 825              	.L101:
 826              		.loc 1 278 0
 827 0012 0248     		ldr	r0, .L103
 828              	.LVL93:
 829              		.loc 1 283 0
 830 0014 08BD     		pop	{r3, pc}
 831              	.LVL94:
 832              	.L100:
 833              		.cfi_def_cfa_offset 0
 834              		.cfi_restore 3
 835              		.cfi_restore 14
 836              		.loc 1 278 0
 837 0016 0148     		ldr	r0, .L103
 838              	.LVL95:
 839              		.loc 1 283 0
 840 0018 7047     		bx	lr
 841              	.L104:
 842 001a 00BF     		.align	2
 843              	.L103:
 844 001c 00AFFFFF 		.word	-20736
 845              		.cfi_endproc
 846              	.LFE16:
 847              		.size	md_hmac_reset, .-md_hmac_reset
 848              		.section	.text.md_hmac,"ax",%progbits
 849              		.align	2
 850              		.p2align 4,,15
 851              		.global	md_hmac
ARM GAS  C:\Users\jo\AppData\Local\Temp\ccsKzdiL.s 			page 16


 852              		.thumb
 853              		.thumb_func
 854              		.type	md_hmac, %function
 855              	md_hmac:
 856              	.LFB17:
 857              		.loc 1 288 0
 858              		.cfi_startproc
 859              		@ args = 8, pretend = 0, frame = 0
 860              		@ frame_needed = 0, uses_anonymous_args = 0
 861              	.LVL96:
 862              		.loc 1 289 0
 863 0000 68B1     		cbz	r0, .L107
 864              		.loc 1 288 0
 865 0002 10B5     		push	{r4, lr}
 866              		.cfi_def_cfa_offset 8
 867              		.cfi_offset 4, -8
 868              		.cfi_offset 14, -4
 869 0004 82B0     		sub	sp, sp, #8
 870              		.cfi_def_cfa_offset 16
 871 0006 0446     		mov	r4, r0
 872 0008 0846     		mov	r0, r1
 873              	.LVL97:
 874              		.loc 1 292 0
 875 000a 0599     		ldr	r1, [sp, #20]
 876              	.LVL98:
 877 000c 0091     		str	r1, [sp]
 878 000e 246B     		ldr	r4, [r4, #48]
 879              	.LVL99:
 880 0010 1146     		mov	r1, r2
 881 0012 1A46     		mov	r2, r3
 882              	.LVL100:
 883 0014 049B     		ldr	r3, [sp, #16]
 884              	.LVL101:
 885 0016 A047     		blx	r4
 886              	.LVL102:
 887              		.loc 1 294 0
 888 0018 0020     		movs	r0, #0
 889              		.loc 1 295 0
 890 001a 02B0     		add	sp, sp, #8
 891              		.cfi_def_cfa_offset 8
 892              		@ sp needed
 893 001c 10BD     		pop	{r4, pc}
 894              	.LVL103:
 895              	.L107:
 896              		.cfi_def_cfa_offset 0
 897              		.cfi_restore 4
 898              		.cfi_restore 14
 899              		.loc 1 290 0
 900 001e 0148     		ldr	r0, .L110
 901              	.LVL104:
 902 0020 7047     		bx	lr
 903              	.L111:
 904 0022 00BF     		.align	2
 905              	.L110:
 906 0024 00AFFFFF 		.word	-20736
 907              		.cfi_endproc
 908              	.LFE17:
ARM GAS  C:\Users\jo\AppData\Local\Temp\ccsKzdiL.s 			page 17


 909              		.size	md_hmac, .-md_hmac
 910 0028 AFF30080 		.section	.rodata.supported_digests,"a",%progbits
 910      AFF30080 
 911              		.align	2
 912              		.set	.LANCHOR0,. + 0
 913              		.type	supported_digests, %object
 914              		.size	supported_digests, 28
 915              	supported_digests:
 916 0000 03000000 		.word	3
 917 0004 04000000 		.word	4
 918 0008 05000000 		.word	5
 919 000c 06000000 		.word	6
 920 0010 07000000 		.word	7
 921 0014 08000000 		.word	8
 922 0018 00000000 		.word	0
 923              		.section	.rodata.str1.4,"aMS",%progbits,1
 924              		.align	2
 925              	.LC0:
 926 0000 4D443500 		.ascii	"MD5\000"
 927              	.LC1:
 928 0004 53484131 		.ascii	"SHA1\000"
 928      00
 929 0009 000000   		.space	3
 930              	.LC2:
 931 000c 53484100 		.ascii	"SHA\000"
 932              	.LC3:
 933 0010 53484132 		.ascii	"SHA224\000"
 933      323400
 934 0017 00       		.space	1
 935              	.LC4:
 936 0018 53484132 		.ascii	"SHA256\000"
 936      353600
 937 001f 00       		.space	1
 938              	.LC5:
 939 0020 53484133 		.ascii	"SHA384\000"
 939      383400
 940 0027 00       		.space	1
 941              	.LC6:
 942 0028 53484135 		.ascii	"SHA512\000"
 942      313200
 943 002f 00       		.section	.rodata.CSWTCH.2,"a",%progbits
 944              		.align	2
 945              		.set	.LANCHOR1,. + 0
 946              		.type	CSWTCH.2, %object
 947              		.size	CSWTCH.2, 24
 948              	CSWTCH.2:
 949 0000 00000000 		.word	md5_info
 950 0004 00000000 		.word	sha1_info
 951 0008 00000000 		.word	sha224_info
 952 000c 00000000 		.word	sha256_info
 953 0010 00000000 		.word	sha384_info
 954 0014 00000000 		.word	sha512_info
 955              		.text
 956              	.Letext0:
 957              		.file 2 "c:\\program files\\gnu tools arm embedded\\4.9 2014q4\\lib\\gcc\\arm-none-eabi\\4.9.3\\in
 958              		.file 3 "../../../demos/STM32/RT-STM32F407-DISCOVERY-uHttp/uhttp-1.1/PolarSSL/include/polarssl/md.
 959              		.file 4 "../../../demos/STM32/RT-STM32F407-DISCOVERY-uHttp/uhttp-1.1/PolarSSL/include/polarssl/md_
ARM GAS  C:\Users\jo\AppData\Local\Temp\ccsKzdiL.s 			page 18


 960              		.file 5 "c:\\program files\\gnu tools arm embedded\\4.9 2014q4\\arm-none-eabi\\include\\string.h"
 961              		.section	.debug_info,"",%progbits
 962              	.Ldebug_info0:
 963 0000 35080000 		.4byte	0x835
 964 0004 0400     		.2byte	0x4
 965 0006 00000000 		.4byte	.Ldebug_abbrev0
 966 000a 04       		.byte	0x4
 967 000b 01       		.uleb128 0x1
 968 000c EB010000 		.4byte	.LASF66
 969 0010 01       		.byte	0x1
 970 0011 6E030000 		.4byte	.LASF67
 971 0015 71000000 		.4byte	.LASF68
 972 0019 00000000 		.4byte	.Ldebug_ranges0+0
 973 001d 00000000 		.4byte	0
 974 0021 00000000 		.4byte	.Ldebug_line0
 975 0025 02       		.uleb128 0x2
 976 0026 04       		.byte	0x4
 977 0027 05       		.byte	0x5
 978 0028 696E7400 		.ascii	"int\000"
 979 002c 03       		.uleb128 0x3
 980 002d 27000000 		.4byte	.LASF20
 981 0031 02       		.byte	0x2
 982 0032 D4       		.byte	0xd4
 983 0033 37000000 		.4byte	0x37
 984 0037 04       		.uleb128 0x4
 985 0038 04       		.byte	0x4
 986 0039 07       		.byte	0x7
 987 003a 4D010000 		.4byte	.LASF0
 988 003e 04       		.uleb128 0x4
 989 003f 01       		.byte	0x1
 990 0040 06       		.byte	0x6
 991 0041 CD000000 		.4byte	.LASF1
 992 0045 04       		.uleb128 0x4
 993 0046 01       		.byte	0x1
 994 0047 08       		.byte	0x8
 995 0048 3B030000 		.4byte	.LASF2
 996 004c 04       		.uleb128 0x4
 997 004d 02       		.byte	0x2
 998 004e 05       		.byte	0x5
 999 004f 50030000 		.4byte	.LASF3
 1000 0053 04       		.uleb128 0x4
 1001 0054 02       		.byte	0x2
 1002 0055 07       		.byte	0x7
 1003 0056 A0010000 		.4byte	.LASF4
 1004 005a 04       		.uleb128 0x4
 1005 005b 04       		.byte	0x4
 1006 005c 05       		.byte	0x5
 1007 005d E6000000 		.4byte	.LASF5
 1008 0061 04       		.uleb128 0x4
 1009 0062 04       		.byte	0x4
 1010 0063 07       		.byte	0x7
 1011 0064 84010000 		.4byte	.LASF6
 1012 0068 04       		.uleb128 0x4
 1013 0069 08       		.byte	0x8
 1014 006a 05       		.byte	0x5
 1015 006b BF000000 		.4byte	.LASF7
 1016 006f 04       		.uleb128 0x4
ARM GAS  C:\Users\jo\AppData\Local\Temp\ccsKzdiL.s 			page 19


 1017 0070 08       		.byte	0x8
 1018 0071 07       		.byte	0x7
 1019 0072 52000000 		.4byte	.LASF8
 1020 0076 04       		.uleb128 0x4
 1021 0077 04       		.byte	0x4
 1022 0078 07       		.byte	0x7
 1023 0079 D4020000 		.4byte	.LASF9
 1024 007d 05       		.uleb128 0x5
 1025 007e 04       		.byte	0x4
 1026 007f 06       		.uleb128 0x6
 1027 0080 04       		.byte	0x4
 1028 0081 45000000 		.4byte	0x45
 1029 0085 04       		.uleb128 0x4
 1030 0086 01       		.byte	0x1
 1031 0087 08       		.byte	0x8
 1032 0088 E9030000 		.4byte	.LASF10
 1033 008c 06       		.uleb128 0x6
 1034 008d 04       		.byte	0x4
 1035 008e 92000000 		.4byte	0x92
 1036 0092 07       		.uleb128 0x7
 1037 0093 85000000 		.4byte	0x85
 1038 0097 08       		.uleb128 0x8
 1039 0098 01       		.byte	0x1
 1040 0099 03       		.byte	0x3
 1041 009a 2F       		.byte	0x2f
 1042 009b D6000000 		.4byte	0xd6
 1043 009f 09       		.uleb128 0x9
 1044 00a0 03040000 		.4byte	.LASF11
 1045 00a4 00       		.sleb128 0
 1046 00a5 09       		.uleb128 0x9
 1047 00a6 9A030000 		.4byte	.LASF12
 1048 00aa 01       		.sleb128 1
 1049 00ab 09       		.uleb128 0x9
 1050 00ac AA030000 		.4byte	.LASF13
 1051 00b0 02       		.sleb128 2
 1052 00b1 09       		.uleb128 0x9
 1053 00b2 BA030000 		.4byte	.LASF14
 1054 00b6 03       		.sleb128 3
 1055 00b7 09       		.uleb128 0x9
 1056 00b8 D8030000 		.4byte	.LASF15
 1057 00bc 04       		.sleb128 4
 1058 00bd 09       		.uleb128 0x9
 1059 00be 92040000 		.4byte	.LASF16
 1060 00c2 05       		.sleb128 5
 1061 00c3 09       		.uleb128 0x9
 1062 00c4 C2010000 		.4byte	.LASF17
 1063 00c8 06       		.sleb128 6
 1064 00c9 09       		.uleb128 0x9
 1065 00ca 1E030000 		.4byte	.LASF18
 1066 00ce 07       		.sleb128 7
 1067 00cf 09       		.uleb128 0x9
 1068 00d0 3A010000 		.4byte	.LASF19
 1069 00d4 08       		.sleb128 8
 1070 00d5 00       		.byte	0
 1071 00d6 03       		.uleb128 0x3
 1072 00d7 F9030000 		.4byte	.LASF21
 1073 00db 03       		.byte	0x3
ARM GAS  C:\Users\jo\AppData\Local\Temp\ccsKzdiL.s 			page 20


 1074 00dc 39       		.byte	0x39
 1075 00dd 97000000 		.4byte	0x97
 1076 00e1 0A       		.uleb128 0xa
 1077 00e2 3C       		.byte	0x3c
 1078 00e3 03       		.byte	0x3
 1079 00e4 41       		.byte	0x41
 1080 00e5 9E010000 		.4byte	0x19e
 1081 00e9 0B       		.uleb128 0xb
 1082 00ea 3A000000 		.4byte	.LASF22
 1083 00ee 03       		.byte	0x3
 1084 00ef 43       		.byte	0x43
 1085 00f0 D6000000 		.4byte	0xd6
 1086 00f4 00       		.byte	0
 1087 00f5 0B       		.uleb128 0xb
 1088 00f6 96010000 		.4byte	.LASF23
 1089 00fa 03       		.byte	0x3
 1090 00fb 46       		.byte	0x46
 1091 00fc 8C000000 		.4byte	0x8c
 1092 0100 04       		.byte	0x4
 1093 0101 0B       		.uleb128 0xb
 1094 0102 9B010000 		.4byte	.LASF24
 1095 0106 03       		.byte	0x3
 1096 0107 49       		.byte	0x49
 1097 0108 25000000 		.4byte	0x25
 1098 010c 08       		.byte	0x8
 1099 010d 0B       		.uleb128 0xb
 1100 010e 2E000000 		.4byte	.LASF25
 1101 0112 03       		.byte	0x3
 1102 0113 4C       		.byte	0x4c
 1103 0114 A9010000 		.4byte	0x1a9
 1104 0118 0C       		.byte	0xc
 1105 0119 0B       		.uleb128 0xb
 1106 011a 00000000 		.4byte	.LASF26
 1107 011e 03       		.byte	0x3
 1108 011f 4F       		.byte	0x4f
 1109 0120 CF010000 		.4byte	0x1cf
 1110 0124 10       		.byte	0x10
 1111 0125 0B       		.uleb128 0xb
 1112 0126 FE020000 		.4byte	.LASF27
 1113 012a 03       		.byte	0x3
 1114 012b 52       		.byte	0x52
 1115 012c E5010000 		.4byte	0x1e5
 1116 0130 14       		.byte	0x14
 1117 0131 0B       		.uleb128 0xb
 1118 0132 FF000000 		.4byte	.LASF28
 1119 0136 03       		.byte	0x3
 1120 0137 55       		.byte	0x55
 1121 0138 00020000 		.4byte	0x200
 1122 013c 18       		.byte	0x18
 1123 013d 0B       		.uleb128 0xb
 1124 013e 5A030000 		.4byte	.LASF29
 1125 0142 03       		.byte	0x3
 1126 0143 59       		.byte	0x59
 1127 0144 1A020000 		.4byte	0x21a
 1128 0148 1C       		.byte	0x1c
 1129 0149 0B       		.uleb128 0xb
 1130 014a 16000000 		.4byte	.LASF30
ARM GAS  C:\Users\jo\AppData\Local\Temp\ccsKzdiL.s 			page 21


 1131 014e 03       		.byte	0x3
 1132 014f 5C       		.byte	0x5c
 1133 0150 CF010000 		.4byte	0x1cf
 1134 0154 20       		.byte	0x20
 1135 0155 0B       		.uleb128 0xb
 1136 0156 72040000 		.4byte	.LASF31
 1137 015a 03       		.byte	0x3
 1138 015b 5F       		.byte	0x5f
 1139 015c CF010000 		.4byte	0x1cf
 1140 0160 24       		.byte	0x24
 1141 0161 0B       		.uleb128 0xb
 1142 0162 E6020000 		.4byte	.LASF32
 1143 0166 03       		.byte	0x3
 1144 0167 62       		.byte	0x62
 1145 0168 E5010000 		.4byte	0x1e5
 1146 016c 28       		.byte	0x28
 1147 016d 0B       		.uleb128 0xb
 1148 016e 47040000 		.4byte	.LASF33
 1149 0172 03       		.byte	0x3
 1150 0173 65       		.byte	0x65
 1151 0174 A9010000 		.4byte	0x1a9
 1152 0178 2C       		.byte	0x2c
 1153 0179 0B       		.uleb128 0xb
 1154 017a 2E040000 		.4byte	.LASF34
 1155 017e 03       		.byte	0x3
 1156 017f 68       		.byte	0x68
 1157 0180 3F020000 		.4byte	0x23f
 1158 0184 30       		.byte	0x30
 1159 0185 0B       		.uleb128 0xb
 1160 0186 83040000 		.4byte	.LASF35
 1161 018a 03       		.byte	0x3
 1162 018b 6D       		.byte	0x6d
 1163 018c 4A020000 		.4byte	0x24a
 1164 0190 34       		.byte	0x34
 1165 0191 0B       		.uleb128 0xb
 1166 0192 CA030000 		.4byte	.LASF36
 1167 0196 03       		.byte	0x3
 1168 0197 70       		.byte	0x70
 1169 0198 A9010000 		.4byte	0x1a9
 1170 019c 38       		.byte	0x38
 1171 019d 00       		.byte	0
 1172 019e 0C       		.uleb128 0xc
 1173 019f A9010000 		.4byte	0x1a9
 1174 01a3 0D       		.uleb128 0xd
 1175 01a4 7D000000 		.4byte	0x7d
 1176 01a8 00       		.byte	0
 1177 01a9 06       		.uleb128 0x6
 1178 01aa 04       		.byte	0x4
 1179 01ab 9E010000 		.4byte	0x19e
 1180 01af 0C       		.uleb128 0xc
 1181 01b0 C4010000 		.4byte	0x1c4
 1182 01b4 0D       		.uleb128 0xd
 1183 01b5 7D000000 		.4byte	0x7d
 1184 01b9 0D       		.uleb128 0xd
 1185 01ba C4010000 		.4byte	0x1c4
 1186 01be 0D       		.uleb128 0xd
 1187 01bf 2C000000 		.4byte	0x2c
ARM GAS  C:\Users\jo\AppData\Local\Temp\ccsKzdiL.s 			page 22


 1188 01c3 00       		.byte	0
 1189 01c4 06       		.uleb128 0x6
 1190 01c5 04       		.byte	0x4
 1191 01c6 CA010000 		.4byte	0x1ca
 1192 01ca 07       		.uleb128 0x7
 1193 01cb 45000000 		.4byte	0x45
 1194 01cf 06       		.uleb128 0x6
 1195 01d0 04       		.byte	0x4
 1196 01d1 AF010000 		.4byte	0x1af
 1197 01d5 0C       		.uleb128 0xc
 1198 01d6 E5010000 		.4byte	0x1e5
 1199 01da 0D       		.uleb128 0xd
 1200 01db 7D000000 		.4byte	0x7d
 1201 01df 0D       		.uleb128 0xd
 1202 01e0 7F000000 		.4byte	0x7f
 1203 01e4 00       		.byte	0
 1204 01e5 06       		.uleb128 0x6
 1205 01e6 04       		.byte	0x4
 1206 01e7 D5010000 		.4byte	0x1d5
 1207 01eb 0C       		.uleb128 0xc
 1208 01ec 00020000 		.4byte	0x200
 1209 01f0 0D       		.uleb128 0xd
 1210 01f1 C4010000 		.4byte	0x1c4
 1211 01f5 0D       		.uleb128 0xd
 1212 01f6 2C000000 		.4byte	0x2c
 1213 01fa 0D       		.uleb128 0xd
 1214 01fb 7F000000 		.4byte	0x7f
 1215 01ff 00       		.byte	0
 1216 0200 06       		.uleb128 0x6
 1217 0201 04       		.byte	0x4
 1218 0202 EB010000 		.4byte	0x1eb
 1219 0206 0E       		.uleb128 0xe
 1220 0207 25000000 		.4byte	0x25
 1221 020b 1A020000 		.4byte	0x21a
 1222 020f 0D       		.uleb128 0xd
 1223 0210 8C000000 		.4byte	0x8c
 1224 0214 0D       		.uleb128 0xd
 1225 0215 7F000000 		.4byte	0x7f
 1226 0219 00       		.byte	0
 1227 021a 06       		.uleb128 0x6
 1228 021b 04       		.byte	0x4
 1229 021c 06020000 		.4byte	0x206
 1230 0220 0C       		.uleb128 0xc
 1231 0221 3F020000 		.4byte	0x23f
 1232 0225 0D       		.uleb128 0xd
 1233 0226 C4010000 		.4byte	0x1c4
 1234 022a 0D       		.uleb128 0xd
 1235 022b 2C000000 		.4byte	0x2c
 1236 022f 0D       		.uleb128 0xd
 1237 0230 C4010000 		.4byte	0x1c4
 1238 0234 0D       		.uleb128 0xd
 1239 0235 2C000000 		.4byte	0x2c
 1240 0239 0D       		.uleb128 0xd
 1241 023a 7F000000 		.4byte	0x7f
 1242 023e 00       		.byte	0
 1243 023f 06       		.uleb128 0x6
 1244 0240 04       		.byte	0x4
ARM GAS  C:\Users\jo\AppData\Local\Temp\ccsKzdiL.s 			page 23


 1245 0241 20020000 		.4byte	0x220
 1246 0245 0F       		.uleb128 0xf
 1247 0246 7D000000 		.4byte	0x7d
 1248 024a 06       		.uleb128 0x6
 1249 024b 04       		.byte	0x4
 1250 024c 45020000 		.4byte	0x245
 1251 0250 03       		.uleb128 0x3
 1252 0251 38040000 		.4byte	.LASF37
 1253 0255 03       		.byte	0x3
 1254 0256 72       		.byte	0x72
 1255 0257 E1000000 		.4byte	0xe1
 1256 025b 0A       		.uleb128 0xa
 1257 025c 08       		.byte	0x8
 1258 025d 03       		.byte	0x3
 1259 025e 77       		.byte	0x77
 1260 025f 7C020000 		.4byte	0x27c
 1261 0263 0B       		.uleb128 0xb
 1262 0264 CC020000 		.4byte	.LASF38
 1263 0268 03       		.byte	0x3
 1264 0269 79       		.byte	0x79
 1265 026a 7C020000 		.4byte	0x27c
 1266 026e 00       		.byte	0
 1267 026f 0B       		.uleb128 0xb
 1268 0270 49030000 		.4byte	.LASF39
 1269 0274 03       		.byte	0x3
 1270 0275 7C       		.byte	0x7c
 1271 0276 7D000000 		.4byte	0x7d
 1272 027a 04       		.byte	0x4
 1273 027b 00       		.byte	0
 1274 027c 06       		.uleb128 0x6
 1275 027d 04       		.byte	0x4
 1276 027e 82020000 		.4byte	0x282
 1277 0282 07       		.uleb128 0x7
 1278 0283 50020000 		.4byte	0x250
 1279 0287 03       		.uleb128 0x3
 1280 0288 D9000000 		.4byte	.LASF40
 1281 028c 03       		.byte	0x3
 1282 028d 7D       		.byte	0x7d
 1283 028e 5B020000 		.4byte	0x25b
 1284 0292 10       		.uleb128 0x10
 1285 0293 1C040000 		.4byte	.LASF69
 1286 0297 01       		.byte	0x1
 1287 0298 74       		.byte	0x74
 1288 0299 7C020000 		.4byte	0x27c
 1289 029d 01       		.byte	0x1
 1290 029e AE020000 		.4byte	0x2ae
 1291 02a2 11       		.uleb128 0x11
 1292 02a3 16030000 		.4byte	.LASF70
 1293 02a7 01       		.byte	0x1
 1294 02a8 74       		.byte	0x74
 1295 02a9 D6000000 		.4byte	0xd6
 1296 02ad 00       		.byte	0
 1297 02ae 12       		.uleb128 0x12
 1298 02af 14040000 		.4byte	.LASF71
 1299 02b3 01       		.byte	0x1
 1300 02b4 4A       		.byte	0x4a
 1301 02b5 C3020000 		.4byte	0x2c3
ARM GAS  C:\Users\jo\AppData\Local\Temp\ccsKzdiL.s 			page 24


 1302 02b9 00000000 		.4byte	.LFB3
 1303 02bd 08000000 		.4byte	.LFE3-.LFB3
 1304 02c1 01       		.uleb128 0x1
 1305 02c2 9C       		.byte	0x9c
 1306 02c3 06       		.uleb128 0x6
 1307 02c4 04       		.byte	0x4
 1308 02c5 C9020000 		.4byte	0x2c9
 1309 02c9 07       		.uleb128 0x7
 1310 02ca 25000000 		.4byte	0x25
 1311 02ce 13       		.uleb128 0x13
 1312 02cf 17010000 		.4byte	.LASF41
 1313 02d3 01       		.byte	0x1
 1314 02d4 4F       		.byte	0x4f
 1315 02d5 7C020000 		.4byte	0x27c
 1316 02d9 00000000 		.4byte	.LFB4
 1317 02dd A4000000 		.4byte	.LFE4-.LFB4
 1318 02e1 01       		.uleb128 0x1
 1319 02e2 9C       		.byte	0x9c
 1320 02e3 BF030000 		.4byte	0x3bf
 1321 02e7 14       		.uleb128 0x14
 1322 02e8 EF000000 		.4byte	.LASF43
 1323 02ec 01       		.byte	0x1
 1324 02ed 4F       		.byte	0x4f
 1325 02ee 8C000000 		.4byte	0x8c
 1326 02f2 00000000 		.4byte	.LLST0
 1327 02f6 15       		.uleb128 0x15
 1328 02f7 10000000 		.4byte	.LVL2
 1329 02fb 22080000 		.4byte	0x822
 1330 02ff 13030000 		.4byte	0x313
 1331 0303 16       		.uleb128 0x16
 1332 0304 01       		.uleb128 0x1
 1333 0305 51       		.byte	0x51
 1334 0306 02       		.uleb128 0x2
 1335 0307 74       		.byte	0x74
 1336 0308 00       		.sleb128 0
 1337 0309 16       		.uleb128 0x16
 1338 030a 01       		.uleb128 0x1
 1339 030b 50       		.byte	0x50
 1340 030c 05       		.uleb128 0x5
 1341 030d 03       		.byte	0x3
 1342 030e 00000000 		.4byte	.LC0
 1343 0312 00       		.byte	0
 1344 0313 15       		.uleb128 0x15
 1345 0314 1A000000 		.4byte	.LVL3
 1346 0318 22080000 		.4byte	0x822
 1347 031c 30030000 		.4byte	0x330
 1348 0320 16       		.uleb128 0x16
 1349 0321 01       		.uleb128 0x1
 1350 0322 51       		.byte	0x51
 1351 0323 02       		.uleb128 0x2
 1352 0324 74       		.byte	0x74
 1353 0325 00       		.sleb128 0
 1354 0326 16       		.uleb128 0x16
 1355 0327 01       		.uleb128 0x1
 1356 0328 50       		.byte	0x50
 1357 0329 05       		.uleb128 0x5
 1358 032a 03       		.byte	0x3
ARM GAS  C:\Users\jo\AppData\Local\Temp\ccsKzdiL.s 			page 25


 1359 032b 04000000 		.4byte	.LC1
 1360 032f 00       		.byte	0
 1361 0330 15       		.uleb128 0x15
 1362 0331 24000000 		.4byte	.LVL4
 1363 0335 22080000 		.4byte	0x822
 1364 0339 4D030000 		.4byte	0x34d
 1365 033d 16       		.uleb128 0x16
 1366 033e 01       		.uleb128 0x1
 1367 033f 51       		.byte	0x51
 1368 0340 02       		.uleb128 0x2
 1369 0341 74       		.byte	0x74
 1370 0342 00       		.sleb128 0
 1371 0343 16       		.uleb128 0x16
 1372 0344 01       		.uleb128 0x1
 1373 0345 50       		.byte	0x50
 1374 0346 05       		.uleb128 0x5
 1375 0347 03       		.byte	0x3
 1376 0348 0C000000 		.4byte	.LC2
 1377 034c 00       		.byte	0
 1378 034d 15       		.uleb128 0x15
 1379 034e 2E000000 		.4byte	.LVL5
 1380 0352 22080000 		.4byte	0x822
 1381 0356 6A030000 		.4byte	0x36a
 1382 035a 16       		.uleb128 0x16
 1383 035b 01       		.uleb128 0x1
 1384 035c 51       		.byte	0x51
 1385 035d 02       		.uleb128 0x2
 1386 035e 74       		.byte	0x74
 1387 035f 00       		.sleb128 0
 1388 0360 16       		.uleb128 0x16
 1389 0361 01       		.uleb128 0x1
 1390 0362 50       		.byte	0x50
 1391 0363 05       		.uleb128 0x5
 1392 0364 03       		.byte	0x3
 1393 0365 10000000 		.4byte	.LC3
 1394 0369 00       		.byte	0
 1395 036a 15       		.uleb128 0x15
 1396 036b 38000000 		.4byte	.LVL6
 1397 036f 22080000 		.4byte	0x822
 1398 0373 87030000 		.4byte	0x387
 1399 0377 16       		.uleb128 0x16
 1400 0378 01       		.uleb128 0x1
 1401 0379 51       		.byte	0x51
 1402 037a 02       		.uleb128 0x2
 1403 037b 74       		.byte	0x74
 1404 037c 00       		.sleb128 0
 1405 037d 16       		.uleb128 0x16
 1406 037e 01       		.uleb128 0x1
 1407 037f 50       		.byte	0x50
 1408 0380 05       		.uleb128 0x5
 1409 0381 03       		.byte	0x3
 1410 0382 18000000 		.4byte	.LC4
 1411 0386 00       		.byte	0
 1412 0387 15       		.uleb128 0x15
 1413 0388 42000000 		.4byte	.LVL7
 1414 038c 22080000 		.4byte	0x822
 1415 0390 A4030000 		.4byte	0x3a4
ARM GAS  C:\Users\jo\AppData\Local\Temp\ccsKzdiL.s 			page 26


 1416 0394 16       		.uleb128 0x16
 1417 0395 01       		.uleb128 0x1
 1418 0396 51       		.byte	0x51
 1419 0397 02       		.uleb128 0x2
 1420 0398 74       		.byte	0x74
 1421 0399 00       		.sleb128 0
 1422 039a 16       		.uleb128 0x16
 1423 039b 01       		.uleb128 0x1
 1424 039c 50       		.byte	0x50
 1425 039d 05       		.uleb128 0x5
 1426 039e 03       		.byte	0x3
 1427 039f 20000000 		.4byte	.LC5
 1428 03a3 00       		.byte	0
 1429 03a4 17       		.uleb128 0x17
 1430 03a5 4E000000 		.4byte	.LVL9
 1431 03a9 22080000 		.4byte	0x822
 1432 03ad 16       		.uleb128 0x16
 1433 03ae 01       		.uleb128 0x1
 1434 03af 51       		.byte	0x51
 1435 03b0 03       		.uleb128 0x3
 1436 03b1 F3       		.byte	0xf3
 1437 03b2 01       		.uleb128 0x1
 1438 03b3 50       		.byte	0x50
 1439 03b4 16       		.uleb128 0x16
 1440 03b5 01       		.uleb128 0x1
 1441 03b6 50       		.byte	0x50
 1442 03b7 05       		.uleb128 0x5
 1443 03b8 03       		.byte	0x3
 1444 03b9 28000000 		.4byte	.LC6
 1445 03bd 00       		.byte	0
 1446 03be 00       		.byte	0
 1447 03bf 18       		.uleb128 0x18
 1448 03c0 92020000 		.4byte	0x292
 1449 03c4 00000000 		.4byte	.LFB5
 1450 03c8 18000000 		.4byte	.LFE5-.LFB5
 1451 03cc 01       		.uleb128 0x1
 1452 03cd 9C       		.byte	0x9c
 1453 03ce DC030000 		.4byte	0x3dc
 1454 03d2 19       		.uleb128 0x19
 1455 03d3 A2020000 		.4byte	0x2a2
 1456 03d7 58000000 		.4byte	.LLST1
 1457 03db 00       		.byte	0
 1458 03dc 1A       		.uleb128 0x1a
 1459 03dd 66040000 		.4byte	.LASF42
 1460 03e1 01       		.byte	0x1
 1461 03e2 99       		.byte	0x99
 1462 03e3 25000000 		.4byte	0x25
 1463 03e7 00000000 		.4byte	.LFB6
 1464 03eb 50000000 		.4byte	.LFE6-.LFB6
 1465 03ef 01       		.uleb128 0x1
 1466 03f0 9C       		.byte	0x9c
 1467 03f1 14040000 		.4byte	0x414
 1468 03f5 1B       		.uleb128 0x1b
 1469 03f6 63747800 		.ascii	"ctx\000"
 1470 03fa 01       		.byte	0x1
 1471 03fb 99       		.byte	0x99
 1472 03fc 14040000 		.4byte	0x414
ARM GAS  C:\Users\jo\AppData\Local\Temp\ccsKzdiL.s 			page 27


 1473 0400 79000000 		.4byte	.LLST2
 1474 0404 14       		.uleb128 0x14
 1475 0405 CC020000 		.4byte	.LASF38
 1476 0409 01       		.byte	0x1
 1477 040a 99       		.byte	0x99
 1478 040b 7C020000 		.4byte	0x27c
 1479 040f C9000000 		.4byte	.LLST3
 1480 0413 00       		.byte	0
 1481 0414 06       		.uleb128 0x6
 1482 0415 04       		.byte	0x4
 1483 0416 87020000 		.4byte	0x287
 1484 041a 1A       		.uleb128 0x1a
 1485 041b D5010000 		.4byte	.LASF44
 1486 041f 01       		.byte	0x1
 1487 0420 AA       		.byte	0xaa
 1488 0421 25000000 		.4byte	0x25
 1489 0425 00000000 		.4byte	.LFB7
 1490 0429 20000000 		.4byte	.LFE7-.LFB7
 1491 042d 01       		.uleb128 0x1
 1492 042e 9C       		.byte	0x9c
 1493 042f 43040000 		.4byte	0x443
 1494 0433 1B       		.uleb128 0x1b
 1495 0434 63747800 		.ascii	"ctx\000"
 1496 0438 01       		.byte	0x1
 1497 0439 AA       		.byte	0xaa
 1498 043a 14040000 		.4byte	0x414
 1499 043e 0B010000 		.4byte	.LLST4
 1500 0442 00       		.byte	0
 1501 0443 1A       		.uleb128 0x1a
 1502 0444 E1010000 		.4byte	.LASF45
 1503 0448 01       		.byte	0x1
 1504 0449 B5       		.byte	0xb5
 1505 044a 25000000 		.4byte	0x25
 1506 044e 00000000 		.4byte	.LFB8
 1507 0452 20000000 		.4byte	.LFE8-.LFB8
 1508 0456 01       		.uleb128 0x1
 1509 0457 9C       		.byte	0x9c
 1510 0458 6C040000 		.4byte	0x46c
 1511 045c 1B       		.uleb128 0x1b
 1512 045d 63747800 		.ascii	"ctx\000"
 1513 0461 01       		.byte	0x1
 1514 0462 B5       		.byte	0xb5
 1515 0463 14040000 		.4byte	0x414
 1516 0467 42010000 		.4byte	.LLST5
 1517 046b 00       		.byte	0
 1518 046c 13       		.uleb128 0x13
 1519 046d 0C000000 		.4byte	.LASF46
 1520 0471 01       		.byte	0x1
 1521 0472 BF       		.byte	0xbf
 1522 0473 25000000 		.4byte	0x25
 1523 0477 00000000 		.4byte	.LFB9
 1524 047b 20000000 		.4byte	.LFE9-.LFB9
 1525 047f 01       		.uleb128 0x1
 1526 0480 9C       		.byte	0x9c
 1527 0481 C7040000 		.4byte	0x4c7
 1528 0485 1B       		.uleb128 0x1b
 1529 0486 63747800 		.ascii	"ctx\000"
ARM GAS  C:\Users\jo\AppData\Local\Temp\ccsKzdiL.s 			page 28


 1530 048a 01       		.byte	0x1
 1531 048b BF       		.byte	0xbf
 1532 048c 14040000 		.4byte	0x414
 1533 0490 95010000 		.4byte	.LLST6
 1534 0494 14       		.uleb128 0x14
 1535 0495 94030000 		.4byte	.LASF47
 1536 0499 01       		.byte	0x1
 1537 049a BF       		.byte	0xbf
 1538 049b C4010000 		.4byte	0x1c4
 1539 049f E8010000 		.4byte	.LLST7
 1540 04a3 14       		.uleb128 0x14
 1541 04a4 42040000 		.4byte	.LASF48
 1542 04a8 01       		.byte	0x1
 1543 04a9 BF       		.byte	0xbf
 1544 04aa 2C000000 		.4byte	0x2c
 1545 04ae 14020000 		.4byte	.LLST8
 1546 04b2 1C       		.uleb128 0x1c
 1547 04b3 0E000000 		.4byte	.LVL39
 1548 04b7 16       		.uleb128 0x16
 1549 04b8 01       		.uleb128 0x1
 1550 04b9 52       		.byte	0x52
 1551 04ba 03       		.uleb128 0x3
 1552 04bb F3       		.byte	0xf3
 1553 04bc 01       		.uleb128 0x1
 1554 04bd 52       		.byte	0x52
 1555 04be 16       		.uleb128 0x16
 1556 04bf 01       		.uleb128 0x1
 1557 04c0 51       		.byte	0x51
 1558 04c1 03       		.uleb128 0x3
 1559 04c2 F3       		.byte	0xf3
 1560 04c3 01       		.uleb128 0x1
 1561 04c4 51       		.byte	0x51
 1562 04c5 00       		.byte	0
 1563 04c6 00       		.byte	0
 1564 04c7 13       		.uleb128 0x13
 1565 04c8 31030000 		.4byte	.LASF49
 1566 04cc 01       		.byte	0x1
 1567 04cd C9       		.byte	0xc9
 1568 04ce 25000000 		.4byte	0x25
 1569 04d2 00000000 		.4byte	.LFB10
 1570 04d6 20000000 		.4byte	.LFE10-.LFB10
 1571 04da 01       		.uleb128 0x1
 1572 04db 9C       		.byte	0x9c
 1573 04dc 0C050000 		.4byte	0x50c
 1574 04e0 1B       		.uleb128 0x1b
 1575 04e1 63747800 		.ascii	"ctx\000"
 1576 04e5 01       		.byte	0x1
 1577 04e6 C9       		.byte	0xc9
 1578 04e7 14040000 		.4byte	0x414
 1579 04eb 40020000 		.4byte	.LLST9
 1580 04ef 14       		.uleb128 0x14
 1581 04f0 C5020000 		.4byte	.LASF50
 1582 04f4 01       		.byte	0x1
 1583 04f5 C9       		.byte	0xc9
 1584 04f6 7F000000 		.4byte	0x7f
 1585 04fa 93020000 		.4byte	.LLST10
 1586 04fe 1C       		.uleb128 0x1c
ARM GAS  C:\Users\jo\AppData\Local\Temp\ccsKzdiL.s 			page 29


 1587 04ff 0E000000 		.4byte	.LVL46
 1588 0503 16       		.uleb128 0x16
 1589 0504 01       		.uleb128 0x1
 1590 0505 51       		.byte	0x51
 1591 0506 03       		.uleb128 0x3
 1592 0507 F3       		.byte	0xf3
 1593 0508 01       		.uleb128 0x1
 1594 0509 51       		.byte	0x51
 1595 050a 00       		.byte	0
 1596 050b 00       		.byte	0
 1597 050c 1D       		.uleb128 0x1d
 1598 050d 6D6400   		.ascii	"md\000"
 1599 0510 01       		.byte	0x1
 1600 0511 D3       		.byte	0xd3
 1601 0512 25000000 		.4byte	0x25
 1602 0516 00000000 		.4byte	.LFB11
 1603 051a 1C000000 		.4byte	.LFE11-.LFB11
 1604 051e 01       		.uleb128 0x1
 1605 051f 9C       		.byte	0x9c
 1606 0520 7F050000 		.4byte	0x57f
 1607 0524 14       		.uleb128 0x14
 1608 0525 CC020000 		.4byte	.LASF38
 1609 0529 01       		.byte	0x1
 1610 052a D3       		.byte	0xd3
 1611 052b 7C020000 		.4byte	0x27c
 1612 052f BF020000 		.4byte	.LLST11
 1613 0533 14       		.uleb128 0x14
 1614 0534 94030000 		.4byte	.LASF47
 1615 0538 01       		.byte	0x1
 1616 0539 D3       		.byte	0xd3
 1617 053a C4010000 		.4byte	0x1c4
 1618 053e 04030000 		.4byte	.LLST12
 1619 0542 14       		.uleb128 0x14
 1620 0543 42040000 		.4byte	.LASF48
 1621 0547 01       		.byte	0x1
 1622 0548 D3       		.byte	0xd3
 1623 0549 2C000000 		.4byte	0x2c
 1624 054d 3B030000 		.4byte	.LLST13
 1625 0551 14       		.uleb128 0x14
 1626 0552 C5020000 		.4byte	.LASF50
 1627 0556 01       		.byte	0x1
 1628 0557 D4       		.byte	0xd4
 1629 0558 7F000000 		.4byte	0x7f
 1630 055c 72030000 		.4byte	.LLST14
 1631 0560 1E       		.uleb128 0x1e
 1632 0561 10000000 		.4byte	.LVL56
 1633 0565 02       		.uleb128 0x2
 1634 0566 74       		.byte	0x74
 1635 0567 00       		.sleb128 0
 1636 0568 16       		.uleb128 0x16
 1637 0569 01       		.uleb128 0x1
 1638 056a 52       		.byte	0x52
 1639 056b 03       		.uleb128 0x3
 1640 056c F3       		.byte	0xf3
 1641 056d 01       		.uleb128 0x1
 1642 056e 53       		.byte	0x53
 1643 056f 16       		.uleb128 0x16
ARM GAS  C:\Users\jo\AppData\Local\Temp\ccsKzdiL.s 			page 30


 1644 0570 01       		.uleb128 0x1
 1645 0571 51       		.byte	0x51
 1646 0572 03       		.uleb128 0x3
 1647 0573 F3       		.byte	0xf3
 1648 0574 01       		.uleb128 0x1
 1649 0575 52       		.byte	0x52
 1650 0576 16       		.uleb128 0x16
 1651 0577 01       		.uleb128 0x1
 1652 0578 50       		.byte	0x50
 1653 0579 03       		.uleb128 0x3
 1654 057a F3       		.byte	0xf3
 1655 057b 01       		.uleb128 0x1
 1656 057c 51       		.byte	0x51
 1657 057d 00       		.byte	0
 1658 057e 00       		.byte	0
 1659 057f 13       		.uleb128 0x13
 1660 0580 F7000000 		.4byte	.LASF51
 1661 0584 01       		.byte	0x1
 1662 0585 DE       		.byte	0xde
 1663 0586 25000000 		.4byte	0x25
 1664 058a 00000000 		.4byte	.LFB12
 1665 058e 20000000 		.4byte	.LFE12-.LFB12
 1666 0592 01       		.uleb128 0x1
 1667 0593 9C       		.byte	0x9c
 1668 0594 E9050000 		.4byte	0x5e9
 1669 0598 14       		.uleb128 0x14
 1670 0599 CC020000 		.4byte	.LASF38
 1671 059d 01       		.byte	0x1
 1672 059e DE       		.byte	0xde
 1673 059f 7C020000 		.4byte	0x27c
 1674 05a3 9E030000 		.4byte	.LLST15
 1675 05a7 14       		.uleb128 0x14
 1676 05a8 3F000000 		.4byte	.LASF52
 1677 05ac 01       		.byte	0x1
 1678 05ad DE       		.byte	0xde
 1679 05ae 8C000000 		.4byte	0x8c
 1680 05b2 E3030000 		.4byte	.LLST16
 1681 05b6 14       		.uleb128 0x14
 1682 05b7 C5020000 		.4byte	.LASF50
 1683 05bb 01       		.byte	0x1
 1684 05bc DE       		.byte	0xde
 1685 05bd 7F000000 		.4byte	0x7f
 1686 05c1 1A040000 		.4byte	.LLST17
 1687 05c5 1F       		.uleb128 0x1f
 1688 05c6 72657400 		.ascii	"ret\000"
 1689 05ca 01       		.byte	0x1
 1690 05cb E1       		.byte	0xe1
 1691 05cc 25000000 		.4byte	0x25
 1692 05d0 46040000 		.4byte	.LLST18
 1693 05d4 1C       		.uleb128 0x1c
 1694 05d5 0E000000 		.4byte	.LVL63
 1695 05d9 16       		.uleb128 0x16
 1696 05da 01       		.uleb128 0x1
 1697 05db 51       		.byte	0x51
 1698 05dc 03       		.uleb128 0x3
 1699 05dd F3       		.byte	0xf3
 1700 05de 01       		.uleb128 0x1
ARM GAS  C:\Users\jo\AppData\Local\Temp\ccsKzdiL.s 			page 31


 1701 05df 52       		.byte	0x52
 1702 05e0 16       		.uleb128 0x16
 1703 05e1 01       		.uleb128 0x1
 1704 05e2 50       		.byte	0x50
 1705 05e3 03       		.uleb128 0x3
 1706 05e4 F3       		.byte	0xf3
 1707 05e5 01       		.uleb128 0x1
 1708 05e6 51       		.byte	0x51
 1709 05e7 00       		.byte	0
 1710 05e8 00       		.byte	0
 1711 05e9 13       		.uleb128 0x13
 1712 05ea 57040000 		.4byte	.LASF53
 1713 05ee 01       		.byte	0x1
 1714 05ef F5       		.byte	0xf5
 1715 05f0 25000000 		.4byte	0x25
 1716 05f4 00000000 		.4byte	.LFB13
 1717 05f8 20000000 		.4byte	.LFE13-.LFB13
 1718 05fc 01       		.uleb128 0x1
 1719 05fd 9C       		.byte	0x9c
 1720 05fe 44060000 		.4byte	0x644
 1721 0602 1B       		.uleb128 0x1b
 1722 0603 63747800 		.ascii	"ctx\000"
 1723 0607 01       		.byte	0x1
 1724 0608 F5       		.byte	0xf5
 1725 0609 14040000 		.4byte	0x414
 1726 060d 73040000 		.4byte	.LLST19
 1727 0611 1B       		.uleb128 0x1b
 1728 0612 6B657900 		.ascii	"key\000"
 1729 0616 01       		.byte	0x1
 1730 0617 F5       		.byte	0xf5
 1731 0618 C4010000 		.4byte	0x1c4
 1732 061c C6040000 		.4byte	.LLST20
 1733 0620 14       		.uleb128 0x14
 1734 0621 F7020000 		.4byte	.LASF54
 1735 0625 01       		.byte	0x1
 1736 0626 F5       		.byte	0xf5
 1737 0627 2C000000 		.4byte	0x2c
 1738 062b F2040000 		.4byte	.LLST21
 1739 062f 1C       		.uleb128 0x1c
 1740 0630 0E000000 		.4byte	.LVL70
 1741 0634 16       		.uleb128 0x16
 1742 0635 01       		.uleb128 0x1
 1743 0636 52       		.byte	0x52
 1744 0637 03       		.uleb128 0x3
 1745 0638 F3       		.byte	0xf3
 1746 0639 01       		.uleb128 0x1
 1747 063a 52       		.byte	0x52
 1748 063b 16       		.uleb128 0x16
 1749 063c 01       		.uleb128 0x1
 1750 063d 51       		.byte	0x51
 1751 063e 03       		.uleb128 0x3
 1752 063f F3       		.byte	0xf3
 1753 0640 01       		.uleb128 0x1
 1754 0641 51       		.byte	0x51
 1755 0642 00       		.byte	0
 1756 0643 00       		.byte	0
 1757 0644 13       		.uleb128 0x13
ARM GAS  C:\Users\jo\AppData\Local\Temp\ccsKzdiL.s 			page 32


 1758 0645 B3010000 		.4byte	.LASF55
 1759 0649 01       		.byte	0x1
 1760 064a FF       		.byte	0xff
 1761 064b 25000000 		.4byte	0x25
 1762 064f 00000000 		.4byte	.LFB14
 1763 0653 20000000 		.4byte	.LFE14-.LFB14
 1764 0657 01       		.uleb128 0x1
 1765 0658 9C       		.byte	0x9c
 1766 0659 9F060000 		.4byte	0x69f
 1767 065d 1B       		.uleb128 0x1b
 1768 065e 63747800 		.ascii	"ctx\000"
 1769 0662 01       		.byte	0x1
 1770 0663 FF       		.byte	0xff
 1771 0664 14040000 		.4byte	0x414
 1772 0668 1E050000 		.4byte	.LLST22
 1773 066c 14       		.uleb128 0x14
 1774 066d 94030000 		.4byte	.LASF47
 1775 0671 01       		.byte	0x1
 1776 0672 FF       		.byte	0xff
 1777 0673 C4010000 		.4byte	0x1c4
 1778 0677 71050000 		.4byte	.LLST23
 1779 067b 14       		.uleb128 0x14
 1780 067c 42040000 		.4byte	.LASF48
 1781 0680 01       		.byte	0x1
 1782 0681 FF       		.byte	0xff
 1783 0682 2C000000 		.4byte	0x2c
 1784 0686 9D050000 		.4byte	.LLST24
 1785 068a 1C       		.uleb128 0x1c
 1786 068b 0E000000 		.4byte	.LVL77
 1787 068f 16       		.uleb128 0x16
 1788 0690 01       		.uleb128 0x1
 1789 0691 52       		.byte	0x52
 1790 0692 03       		.uleb128 0x3
 1791 0693 F3       		.byte	0xf3
 1792 0694 01       		.uleb128 0x1
 1793 0695 52       		.byte	0x52
 1794 0696 16       		.uleb128 0x16
 1795 0697 01       		.uleb128 0x1
 1796 0698 51       		.byte	0x51
 1797 0699 03       		.uleb128 0x3
 1798 069a F3       		.byte	0xf3
 1799 069b 01       		.uleb128 0x1
 1800 069c 51       		.byte	0x51
 1801 069d 00       		.byte	0
 1802 069e 00       		.byte	0
 1803 069f 20       		.uleb128 0x20
 1804 06a0 2B010000 		.4byte	.LASF56
 1805 06a4 01       		.byte	0x1
 1806 06a5 0901     		.2byte	0x109
 1807 06a7 25000000 		.4byte	0x25
 1808 06ab 00000000 		.4byte	.LFB15
 1809 06af 20000000 		.4byte	.LFE15-.LFB15
 1810 06b3 01       		.uleb128 0x1
 1811 06b4 9C       		.byte	0x9c
 1812 06b5 E7060000 		.4byte	0x6e7
 1813 06b9 21       		.uleb128 0x21
 1814 06ba 63747800 		.ascii	"ctx\000"
ARM GAS  C:\Users\jo\AppData\Local\Temp\ccsKzdiL.s 			page 33


 1815 06be 01       		.byte	0x1
 1816 06bf 0901     		.2byte	0x109
 1817 06c1 14040000 		.4byte	0x414
 1818 06c5 C9050000 		.4byte	.LLST25
 1819 06c9 22       		.uleb128 0x22
 1820 06ca C5020000 		.4byte	.LASF50
 1821 06ce 01       		.byte	0x1
 1822 06cf 0901     		.2byte	0x109
 1823 06d1 7F000000 		.4byte	0x7f
 1824 06d5 1C060000 		.4byte	.LLST26
 1825 06d9 1C       		.uleb128 0x1c
 1826 06da 0E000000 		.4byte	.LVL84
 1827 06de 16       		.uleb128 0x16
 1828 06df 01       		.uleb128 0x1
 1829 06e0 51       		.byte	0x51
 1830 06e1 03       		.uleb128 0x3
 1831 06e2 F3       		.byte	0xf3
 1832 06e3 01       		.uleb128 0x1
 1833 06e4 51       		.byte	0x51
 1834 06e5 00       		.byte	0
 1835 06e6 00       		.byte	0
 1836 06e7 23       		.uleb128 0x23
 1837 06e8 44000000 		.4byte	.LASF57
 1838 06ec 01       		.byte	0x1
 1839 06ed 1301     		.2byte	0x113
 1840 06ef 25000000 		.4byte	0x25
 1841 06f3 00000000 		.4byte	.LFB16
 1842 06f7 20000000 		.4byte	.LFE16-.LFB16
 1843 06fb 01       		.uleb128 0x1
 1844 06fc 9C       		.byte	0x9c
 1845 06fd 12070000 		.4byte	0x712
 1846 0701 21       		.uleb128 0x21
 1847 0702 63747800 		.ascii	"ctx\000"
 1848 0706 01       		.byte	0x1
 1849 0707 1301     		.2byte	0x113
 1850 0709 14040000 		.4byte	0x414
 1851 070d 48060000 		.4byte	.LLST27
 1852 0711 00       		.byte	0
 1853 0712 20       		.uleb128 0x20
 1854 0713 69000000 		.4byte	.LASF58
 1855 0717 01       		.byte	0x1
 1856 0718 1D01     		.2byte	0x11d
 1857 071a 25000000 		.4byte	0x25
 1858 071e 00000000 		.4byte	.LFB17
 1859 0722 28000000 		.4byte	.LFE17-.LFB17
 1860 0726 01       		.uleb128 0x1
 1861 0727 9C       		.byte	0x9c
 1862 0728 BA070000 		.4byte	0x7ba
 1863 072c 22       		.uleb128 0x22
 1864 072d CC020000 		.4byte	.LASF38
 1865 0731 01       		.byte	0x1
 1866 0732 1D01     		.2byte	0x11d
 1867 0734 7C020000 		.4byte	0x27c
 1868 0738 9B060000 		.4byte	.LLST28
 1869 073c 21       		.uleb128 0x21
 1870 073d 6B657900 		.ascii	"key\000"
 1871 0741 01       		.byte	0x1
ARM GAS  C:\Users\jo\AppData\Local\Temp\ccsKzdiL.s 			page 34


 1872 0742 1D01     		.2byte	0x11d
 1873 0744 C4010000 		.4byte	0x1c4
 1874 0748 E0060000 		.4byte	.LLST29
 1875 074c 22       		.uleb128 0x22
 1876 074d F7020000 		.4byte	.LASF54
 1877 0751 01       		.byte	0x1
 1878 0752 1D01     		.2byte	0x11d
 1879 0754 2C000000 		.4byte	0x2c
 1880 0758 17070000 		.4byte	.LLST30
 1881 075c 22       		.uleb128 0x22
 1882 075d 94030000 		.4byte	.LASF47
 1883 0761 01       		.byte	0x1
 1884 0762 1E01     		.2byte	0x11e
 1885 0764 C4010000 		.4byte	0x1c4
 1886 0768 4E070000 		.4byte	.LLST31
 1887 076c 22       		.uleb128 0x22
 1888 076d 42040000 		.4byte	.LASF48
 1889 0771 01       		.byte	0x1
 1890 0772 1E01     		.2byte	0x11e
 1891 0774 2C000000 		.4byte	0x2c
 1892 0778 85070000 		.4byte	.LLST32
 1893 077c 22       		.uleb128 0x22
 1894 077d C5020000 		.4byte	.LASF50
 1895 0781 01       		.byte	0x1
 1896 0782 1F01     		.2byte	0x11f
 1897 0784 7F000000 		.4byte	0x7f
 1898 0788 A5070000 		.4byte	.LLST33
 1899 078c 1E       		.uleb128 0x1e
 1900 078d 18000000 		.4byte	.LVL102
 1901 0791 02       		.uleb128 0x2
 1902 0792 74       		.byte	0x74
 1903 0793 00       		.sleb128 0
 1904 0794 16       		.uleb128 0x16
 1905 0795 01       		.uleb128 0x1
 1906 0796 53       		.byte	0x53
 1907 0797 03       		.uleb128 0x3
 1908 0798 91       		.byte	0x91
 1909 0799 00       		.sleb128 0
 1910 079a 06       		.byte	0x6
 1911 079b 16       		.uleb128 0x16
 1912 079c 01       		.uleb128 0x1
 1913 079d 52       		.byte	0x52
 1914 079e 03       		.uleb128 0x3
 1915 079f F3       		.byte	0xf3
 1916 07a0 01       		.uleb128 0x1
 1917 07a1 53       		.byte	0x53
 1918 07a2 16       		.uleb128 0x16
 1919 07a3 01       		.uleb128 0x1
 1920 07a4 51       		.byte	0x51
 1921 07a5 03       		.uleb128 0x3
 1922 07a6 F3       		.byte	0xf3
 1923 07a7 01       		.uleb128 0x1
 1924 07a8 52       		.byte	0x52
 1925 07a9 16       		.uleb128 0x16
 1926 07aa 01       		.uleb128 0x1
 1927 07ab 50       		.byte	0x50
 1928 07ac 03       		.uleb128 0x3
ARM GAS  C:\Users\jo\AppData\Local\Temp\ccsKzdiL.s 			page 35


 1929 07ad F3       		.byte	0xf3
 1930 07ae 01       		.uleb128 0x1
 1931 07af 51       		.byte	0x51
 1932 07b0 16       		.uleb128 0x16
 1933 07b1 02       		.uleb128 0x2
 1934 07b2 7D       		.byte	0x7d
 1935 07b3 00       		.sleb128 0
 1936 07b4 03       		.uleb128 0x3
 1937 07b5 91       		.byte	0x91
 1938 07b6 04       		.sleb128 4
 1939 07b7 06       		.byte	0x6
 1940 07b8 00       		.byte	0
 1941 07b9 00       		.byte	0
 1942 07ba 24       		.uleb128 0x24
 1943 07bb 25000000 		.4byte	0x25
 1944 07bf CA070000 		.4byte	0x7ca
 1945 07c3 25       		.uleb128 0x25
 1946 07c4 76000000 		.4byte	0x76
 1947 07c8 06       		.byte	0x6
 1948 07c9 00       		.byte	0
 1949 07ca 26       		.uleb128 0x26
 1950 07cb 72010000 		.4byte	.LASF59
 1951 07cf 01       		.byte	0x1
 1952 07d0 2B       		.byte	0x2b
 1953 07d1 DB070000 		.4byte	0x7db
 1954 07d5 05       		.uleb128 0x5
 1955 07d6 03       		.byte	0x3
 1956 07d7 00000000 		.4byte	supported_digests
 1957 07db 07       		.uleb128 0x7
 1958 07dc BA070000 		.4byte	0x7ba
 1959 07e0 27       		.uleb128 0x27
 1960 07e1 DD020000 		.4byte	.LASF60
 1961 07e5 04       		.byte	0x4
 1962 07e6 2E       		.byte	0x2e
 1963 07e7 82020000 		.4byte	0x282
 1964 07eb 27       		.uleb128 0x27
 1965 07ec 64030000 		.4byte	.LASF61
 1966 07f0 04       		.byte	0x4
 1967 07f1 31       		.byte	0x31
 1968 07f2 82020000 		.4byte	0x282
 1969 07f6 27       		.uleb128 0x27
 1970 07f7 0B010000 		.4byte	.LASF62
 1971 07fb 04       		.byte	0x4
 1972 07fc 34       		.byte	0x34
 1973 07fd 82020000 		.4byte	0x282
 1974 0801 27       		.uleb128 0x27
 1975 0802 66010000 		.4byte	.LASF63
 1976 0806 04       		.byte	0x4
 1977 0807 35       		.byte	0x35
 1978 0808 82020000 		.4byte	0x282
 1979 080c 27       		.uleb128 0x27
 1980 080d 5A010000 		.4byte	.LASF64
 1981 0811 04       		.byte	0x4
 1982 0812 38       		.byte	0x38
 1983 0813 82020000 		.4byte	0x282
 1984 0817 27       		.uleb128 0x27
 1985 0818 0A030000 		.4byte	.LASF65
ARM GAS  C:\Users\jo\AppData\Local\Temp\ccsKzdiL.s 			page 36


 1986 081c 04       		.byte	0x4
 1987 081d 39       		.byte	0x39
 1988 081e 82020000 		.4byte	0x282
 1989 0822 28       		.uleb128 0x28
 1990 0823 EE030000 		.4byte	.LASF72
 1991 0827 05       		.byte	0x5
 1992 0828 49       		.byte	0x49
 1993 0829 25000000 		.4byte	0x25
 1994 082d 0D       		.uleb128 0xd
 1995 082e 8C000000 		.4byte	0x8c
 1996 0832 0D       		.uleb128 0xd
 1997 0833 8C000000 		.4byte	0x8c
 1998 0837 00       		.byte	0
 1999 0838 00       		.byte	0
 2000              		.section	.debug_abbrev,"",%progbits
 2001              	.Ldebug_abbrev0:
 2002 0000 01       		.uleb128 0x1
 2003 0001 11       		.uleb128 0x11
 2004 0002 01       		.byte	0x1
 2005 0003 25       		.uleb128 0x25
 2006 0004 0E       		.uleb128 0xe
 2007 0005 13       		.uleb128 0x13
 2008 0006 0B       		.uleb128 0xb
 2009 0007 03       		.uleb128 0x3
 2010 0008 0E       		.uleb128 0xe
 2011 0009 1B       		.uleb128 0x1b
 2012 000a 0E       		.uleb128 0xe
 2013 000b 55       		.uleb128 0x55
 2014 000c 17       		.uleb128 0x17
 2015 000d 11       		.uleb128 0x11
 2016 000e 01       		.uleb128 0x1
 2017 000f 10       		.uleb128 0x10
 2018 0010 17       		.uleb128 0x17
 2019 0011 00       		.byte	0
 2020 0012 00       		.byte	0
 2021 0013 02       		.uleb128 0x2
 2022 0014 24       		.uleb128 0x24
 2023 0015 00       		.byte	0
 2024 0016 0B       		.uleb128 0xb
 2025 0017 0B       		.uleb128 0xb
 2026 0018 3E       		.uleb128 0x3e
 2027 0019 0B       		.uleb128 0xb
 2028 001a 03       		.uleb128 0x3
 2029 001b 08       		.uleb128 0x8
 2030 001c 00       		.byte	0
 2031 001d 00       		.byte	0
 2032 001e 03       		.uleb128 0x3
 2033 001f 16       		.uleb128 0x16
 2034 0020 00       		.byte	0
 2035 0021 03       		.uleb128 0x3
 2036 0022 0E       		.uleb128 0xe
 2037 0023 3A       		.uleb128 0x3a
 2038 0024 0B       		.uleb128 0xb
 2039 0025 3B       		.uleb128 0x3b
 2040 0026 0B       		.uleb128 0xb
 2041 0027 49       		.uleb128 0x49
 2042 0028 13       		.uleb128 0x13
ARM GAS  C:\Users\jo\AppData\Local\Temp\ccsKzdiL.s 			page 37


 2043 0029 00       		.byte	0
 2044 002a 00       		.byte	0
 2045 002b 04       		.uleb128 0x4
 2046 002c 24       		.uleb128 0x24
 2047 002d 00       		.byte	0
 2048 002e 0B       		.uleb128 0xb
 2049 002f 0B       		.uleb128 0xb
 2050 0030 3E       		.uleb128 0x3e
 2051 0031 0B       		.uleb128 0xb
 2052 0032 03       		.uleb128 0x3
 2053 0033 0E       		.uleb128 0xe
 2054 0034 00       		.byte	0
 2055 0035 00       		.byte	0
 2056 0036 05       		.uleb128 0x5
 2057 0037 0F       		.uleb128 0xf
 2058 0038 00       		.byte	0
 2059 0039 0B       		.uleb128 0xb
 2060 003a 0B       		.uleb128 0xb
 2061 003b 00       		.byte	0
 2062 003c 00       		.byte	0
 2063 003d 06       		.uleb128 0x6
 2064 003e 0F       		.uleb128 0xf
 2065 003f 00       		.byte	0
 2066 0040 0B       		.uleb128 0xb
 2067 0041 0B       		.uleb128 0xb
 2068 0042 49       		.uleb128 0x49
 2069 0043 13       		.uleb128 0x13
 2070 0044 00       		.byte	0
 2071 0045 00       		.byte	0
 2072 0046 07       		.uleb128 0x7
 2073 0047 26       		.uleb128 0x26
 2074 0048 00       		.byte	0
 2075 0049 49       		.uleb128 0x49
 2076 004a 13       		.uleb128 0x13
 2077 004b 00       		.byte	0
 2078 004c 00       		.byte	0
 2079 004d 08       		.uleb128 0x8
 2080 004e 04       		.uleb128 0x4
 2081 004f 01       		.byte	0x1
 2082 0050 0B       		.uleb128 0xb
 2083 0051 0B       		.uleb128 0xb
 2084 0052 3A       		.uleb128 0x3a
 2085 0053 0B       		.uleb128 0xb
 2086 0054 3B       		.uleb128 0x3b
 2087 0055 0B       		.uleb128 0xb
 2088 0056 01       		.uleb128 0x1
 2089 0057 13       		.uleb128 0x13
 2090 0058 00       		.byte	0
 2091 0059 00       		.byte	0
 2092 005a 09       		.uleb128 0x9
 2093 005b 28       		.uleb128 0x28
 2094 005c 00       		.byte	0
 2095 005d 03       		.uleb128 0x3
 2096 005e 0E       		.uleb128 0xe
 2097 005f 1C       		.uleb128 0x1c
 2098 0060 0D       		.uleb128 0xd
 2099 0061 00       		.byte	0
ARM GAS  C:\Users\jo\AppData\Local\Temp\ccsKzdiL.s 			page 38


 2100 0062 00       		.byte	0
 2101 0063 0A       		.uleb128 0xa
 2102 0064 13       		.uleb128 0x13
 2103 0065 01       		.byte	0x1
 2104 0066 0B       		.uleb128 0xb
 2105 0067 0B       		.uleb128 0xb
 2106 0068 3A       		.uleb128 0x3a
 2107 0069 0B       		.uleb128 0xb
 2108 006a 3B       		.uleb128 0x3b
 2109 006b 0B       		.uleb128 0xb
 2110 006c 01       		.uleb128 0x1
 2111 006d 13       		.uleb128 0x13
 2112 006e 00       		.byte	0
 2113 006f 00       		.byte	0
 2114 0070 0B       		.uleb128 0xb
 2115 0071 0D       		.uleb128 0xd
 2116 0072 00       		.byte	0
 2117 0073 03       		.uleb128 0x3
 2118 0074 0E       		.uleb128 0xe
 2119 0075 3A       		.uleb128 0x3a
 2120 0076 0B       		.uleb128 0xb
 2121 0077 3B       		.uleb128 0x3b
 2122 0078 0B       		.uleb128 0xb
 2123 0079 49       		.uleb128 0x49
 2124 007a 13       		.uleb128 0x13
 2125 007b 38       		.uleb128 0x38
 2126 007c 0B       		.uleb128 0xb
 2127 007d 00       		.byte	0
 2128 007e 00       		.byte	0
 2129 007f 0C       		.uleb128 0xc
 2130 0080 15       		.uleb128 0x15
 2131 0081 01       		.byte	0x1
 2132 0082 27       		.uleb128 0x27
 2133 0083 19       		.uleb128 0x19
 2134 0084 01       		.uleb128 0x1
 2135 0085 13       		.uleb128 0x13
 2136 0086 00       		.byte	0
 2137 0087 00       		.byte	0
 2138 0088 0D       		.uleb128 0xd
 2139 0089 05       		.uleb128 0x5
 2140 008a 00       		.byte	0
 2141 008b 49       		.uleb128 0x49
 2142 008c 13       		.uleb128 0x13
 2143 008d 00       		.byte	0
 2144 008e 00       		.byte	0
 2145 008f 0E       		.uleb128 0xe
 2146 0090 15       		.uleb128 0x15
 2147 0091 01       		.byte	0x1
 2148 0092 27       		.uleb128 0x27
 2149 0093 19       		.uleb128 0x19
 2150 0094 49       		.uleb128 0x49
 2151 0095 13       		.uleb128 0x13
 2152 0096 01       		.uleb128 0x1
 2153 0097 13       		.uleb128 0x13
 2154 0098 00       		.byte	0
 2155 0099 00       		.byte	0
 2156 009a 0F       		.uleb128 0xf
ARM GAS  C:\Users\jo\AppData\Local\Temp\ccsKzdiL.s 			page 39


 2157 009b 15       		.uleb128 0x15
 2158 009c 00       		.byte	0
 2159 009d 27       		.uleb128 0x27
 2160 009e 19       		.uleb128 0x19
 2161 009f 49       		.uleb128 0x49
 2162 00a0 13       		.uleb128 0x13
 2163 00a1 00       		.byte	0
 2164 00a2 00       		.byte	0
 2165 00a3 10       		.uleb128 0x10
 2166 00a4 2E       		.uleb128 0x2e
 2167 00a5 01       		.byte	0x1
 2168 00a6 3F       		.uleb128 0x3f
 2169 00a7 19       		.uleb128 0x19
 2170 00a8 03       		.uleb128 0x3
 2171 00a9 0E       		.uleb128 0xe
 2172 00aa 3A       		.uleb128 0x3a
 2173 00ab 0B       		.uleb128 0xb
 2174 00ac 3B       		.uleb128 0x3b
 2175 00ad 0B       		.uleb128 0xb
 2176 00ae 27       		.uleb128 0x27
 2177 00af 19       		.uleb128 0x19
 2178 00b0 49       		.uleb128 0x49
 2179 00b1 13       		.uleb128 0x13
 2180 00b2 20       		.uleb128 0x20
 2181 00b3 0B       		.uleb128 0xb
 2182 00b4 01       		.uleb128 0x1
 2183 00b5 13       		.uleb128 0x13
 2184 00b6 00       		.byte	0
 2185 00b7 00       		.byte	0
 2186 00b8 11       		.uleb128 0x11
 2187 00b9 05       		.uleb128 0x5
 2188 00ba 00       		.byte	0
 2189 00bb 03       		.uleb128 0x3
 2190 00bc 0E       		.uleb128 0xe
 2191 00bd 3A       		.uleb128 0x3a
 2192 00be 0B       		.uleb128 0xb
 2193 00bf 3B       		.uleb128 0x3b
 2194 00c0 0B       		.uleb128 0xb
 2195 00c1 49       		.uleb128 0x49
 2196 00c2 13       		.uleb128 0x13
 2197 00c3 00       		.byte	0
 2198 00c4 00       		.byte	0
 2199 00c5 12       		.uleb128 0x12
 2200 00c6 2E       		.uleb128 0x2e
 2201 00c7 00       		.byte	0
 2202 00c8 3F       		.uleb128 0x3f
 2203 00c9 19       		.uleb128 0x19
 2204 00ca 03       		.uleb128 0x3
 2205 00cb 0E       		.uleb128 0xe
 2206 00cc 3A       		.uleb128 0x3a
 2207 00cd 0B       		.uleb128 0xb
 2208 00ce 3B       		.uleb128 0x3b
 2209 00cf 0B       		.uleb128 0xb
 2210 00d0 27       		.uleb128 0x27
 2211 00d1 19       		.uleb128 0x19
 2212 00d2 49       		.uleb128 0x49
 2213 00d3 13       		.uleb128 0x13
ARM GAS  C:\Users\jo\AppData\Local\Temp\ccsKzdiL.s 			page 40


 2214 00d4 11       		.uleb128 0x11
 2215 00d5 01       		.uleb128 0x1
 2216 00d6 12       		.uleb128 0x12
 2217 00d7 06       		.uleb128 0x6
 2218 00d8 40       		.uleb128 0x40
 2219 00d9 18       		.uleb128 0x18
 2220 00da 9742     		.uleb128 0x2117
 2221 00dc 19       		.uleb128 0x19
 2222 00dd 00       		.byte	0
 2223 00de 00       		.byte	0
 2224 00df 13       		.uleb128 0x13
 2225 00e0 2E       		.uleb128 0x2e
 2226 00e1 01       		.byte	0x1
 2227 00e2 3F       		.uleb128 0x3f
 2228 00e3 19       		.uleb128 0x19
 2229 00e4 03       		.uleb128 0x3
 2230 00e5 0E       		.uleb128 0xe
 2231 00e6 3A       		.uleb128 0x3a
 2232 00e7 0B       		.uleb128 0xb
 2233 00e8 3B       		.uleb128 0x3b
 2234 00e9 0B       		.uleb128 0xb
 2235 00ea 27       		.uleb128 0x27
 2236 00eb 19       		.uleb128 0x19
 2237 00ec 49       		.uleb128 0x49
 2238 00ed 13       		.uleb128 0x13
 2239 00ee 11       		.uleb128 0x11
 2240 00ef 01       		.uleb128 0x1
 2241 00f0 12       		.uleb128 0x12
 2242 00f1 06       		.uleb128 0x6
 2243 00f2 40       		.uleb128 0x40
 2244 00f3 18       		.uleb128 0x18
 2245 00f4 9742     		.uleb128 0x2117
 2246 00f6 19       		.uleb128 0x19
 2247 00f7 01       		.uleb128 0x1
 2248 00f8 13       		.uleb128 0x13
 2249 00f9 00       		.byte	0
 2250 00fa 00       		.byte	0
 2251 00fb 14       		.uleb128 0x14
 2252 00fc 05       		.uleb128 0x5
 2253 00fd 00       		.byte	0
 2254 00fe 03       		.uleb128 0x3
 2255 00ff 0E       		.uleb128 0xe
 2256 0100 3A       		.uleb128 0x3a
 2257 0101 0B       		.uleb128 0xb
 2258 0102 3B       		.uleb128 0x3b
 2259 0103 0B       		.uleb128 0xb
 2260 0104 49       		.uleb128 0x49
 2261 0105 13       		.uleb128 0x13
 2262 0106 02       		.uleb128 0x2
 2263 0107 17       		.uleb128 0x17
 2264 0108 00       		.byte	0
 2265 0109 00       		.byte	0
 2266 010a 15       		.uleb128 0x15
 2267 010b 898201   		.uleb128 0x4109
 2268 010e 01       		.byte	0x1
 2269 010f 11       		.uleb128 0x11
 2270 0110 01       		.uleb128 0x1
ARM GAS  C:\Users\jo\AppData\Local\Temp\ccsKzdiL.s 			page 41


 2271 0111 31       		.uleb128 0x31
 2272 0112 13       		.uleb128 0x13
 2273 0113 01       		.uleb128 0x1
 2274 0114 13       		.uleb128 0x13
 2275 0115 00       		.byte	0
 2276 0116 00       		.byte	0
 2277 0117 16       		.uleb128 0x16
 2278 0118 8A8201   		.uleb128 0x410a
 2279 011b 00       		.byte	0
 2280 011c 02       		.uleb128 0x2
 2281 011d 18       		.uleb128 0x18
 2282 011e 9142     		.uleb128 0x2111
 2283 0120 18       		.uleb128 0x18
 2284 0121 00       		.byte	0
 2285 0122 00       		.byte	0
 2286 0123 17       		.uleb128 0x17
 2287 0124 898201   		.uleb128 0x4109
 2288 0127 01       		.byte	0x1
 2289 0128 11       		.uleb128 0x11
 2290 0129 01       		.uleb128 0x1
 2291 012a 31       		.uleb128 0x31
 2292 012b 13       		.uleb128 0x13
 2293 012c 00       		.byte	0
 2294 012d 00       		.byte	0
 2295 012e 18       		.uleb128 0x18
 2296 012f 2E       		.uleb128 0x2e
 2297 0130 01       		.byte	0x1
 2298 0131 31       		.uleb128 0x31
 2299 0132 13       		.uleb128 0x13
 2300 0133 11       		.uleb128 0x11
 2301 0134 01       		.uleb128 0x1
 2302 0135 12       		.uleb128 0x12
 2303 0136 06       		.uleb128 0x6
 2304 0137 40       		.uleb128 0x40
 2305 0138 18       		.uleb128 0x18
 2306 0139 9742     		.uleb128 0x2117
 2307 013b 19       		.uleb128 0x19
 2308 013c 01       		.uleb128 0x1
 2309 013d 13       		.uleb128 0x13
 2310 013e 00       		.byte	0
 2311 013f 00       		.byte	0
 2312 0140 19       		.uleb128 0x19
 2313 0141 05       		.uleb128 0x5
 2314 0142 00       		.byte	0
 2315 0143 31       		.uleb128 0x31
 2316 0144 13       		.uleb128 0x13
 2317 0145 02       		.uleb128 0x2
 2318 0146 17       		.uleb128 0x17
 2319 0147 00       		.byte	0
 2320 0148 00       		.byte	0
 2321 0149 1A       		.uleb128 0x1a
 2322 014a 2E       		.uleb128 0x2e
 2323 014b 01       		.byte	0x1
 2324 014c 3F       		.uleb128 0x3f
 2325 014d 19       		.uleb128 0x19
 2326 014e 03       		.uleb128 0x3
 2327 014f 0E       		.uleb128 0xe
ARM GAS  C:\Users\jo\AppData\Local\Temp\ccsKzdiL.s 			page 42


 2328 0150 3A       		.uleb128 0x3a
 2329 0151 0B       		.uleb128 0xb
 2330 0152 3B       		.uleb128 0x3b
 2331 0153 0B       		.uleb128 0xb
 2332 0154 27       		.uleb128 0x27
 2333 0155 19       		.uleb128 0x19
 2334 0156 49       		.uleb128 0x49
 2335 0157 13       		.uleb128 0x13
 2336 0158 11       		.uleb128 0x11
 2337 0159 01       		.uleb128 0x1
 2338 015a 12       		.uleb128 0x12
 2339 015b 06       		.uleb128 0x6
 2340 015c 40       		.uleb128 0x40
 2341 015d 18       		.uleb128 0x18
 2342 015e 9642     		.uleb128 0x2116
 2343 0160 19       		.uleb128 0x19
 2344 0161 01       		.uleb128 0x1
 2345 0162 13       		.uleb128 0x13
 2346 0163 00       		.byte	0
 2347 0164 00       		.byte	0
 2348 0165 1B       		.uleb128 0x1b
 2349 0166 05       		.uleb128 0x5
 2350 0167 00       		.byte	0
 2351 0168 03       		.uleb128 0x3
 2352 0169 08       		.uleb128 0x8
 2353 016a 3A       		.uleb128 0x3a
 2354 016b 0B       		.uleb128 0xb
 2355 016c 3B       		.uleb128 0x3b
 2356 016d 0B       		.uleb128 0xb
 2357 016e 49       		.uleb128 0x49
 2358 016f 13       		.uleb128 0x13
 2359 0170 02       		.uleb128 0x2
 2360 0171 17       		.uleb128 0x17
 2361 0172 00       		.byte	0
 2362 0173 00       		.byte	0
 2363 0174 1C       		.uleb128 0x1c
 2364 0175 898201   		.uleb128 0x4109
 2365 0178 01       		.byte	0x1
 2366 0179 11       		.uleb128 0x11
 2367 017a 01       		.uleb128 0x1
 2368 017b 00       		.byte	0
 2369 017c 00       		.byte	0
 2370 017d 1D       		.uleb128 0x1d
 2371 017e 2E       		.uleb128 0x2e
 2372 017f 01       		.byte	0x1
 2373 0180 3F       		.uleb128 0x3f
 2374 0181 19       		.uleb128 0x19
 2375 0182 03       		.uleb128 0x3
 2376 0183 08       		.uleb128 0x8
 2377 0184 3A       		.uleb128 0x3a
 2378 0185 0B       		.uleb128 0xb
 2379 0186 3B       		.uleb128 0x3b
 2380 0187 0B       		.uleb128 0xb
 2381 0188 27       		.uleb128 0x27
 2382 0189 19       		.uleb128 0x19
 2383 018a 49       		.uleb128 0x49
 2384 018b 13       		.uleb128 0x13
ARM GAS  C:\Users\jo\AppData\Local\Temp\ccsKzdiL.s 			page 43


 2385 018c 11       		.uleb128 0x11
 2386 018d 01       		.uleb128 0x1
 2387 018e 12       		.uleb128 0x12
 2388 018f 06       		.uleb128 0x6
 2389 0190 40       		.uleb128 0x40
 2390 0191 18       		.uleb128 0x18
 2391 0192 9742     		.uleb128 0x2117
 2392 0194 19       		.uleb128 0x19
 2393 0195 01       		.uleb128 0x1
 2394 0196 13       		.uleb128 0x13
 2395 0197 00       		.byte	0
 2396 0198 00       		.byte	0
 2397 0199 1E       		.uleb128 0x1e
 2398 019a 898201   		.uleb128 0x4109
 2399 019d 01       		.byte	0x1
 2400 019e 11       		.uleb128 0x11
 2401 019f 01       		.uleb128 0x1
 2402 01a0 9342     		.uleb128 0x2113
 2403 01a2 18       		.uleb128 0x18
 2404 01a3 00       		.byte	0
 2405 01a4 00       		.byte	0
 2406 01a5 1F       		.uleb128 0x1f
 2407 01a6 34       		.uleb128 0x34
 2408 01a7 00       		.byte	0
 2409 01a8 03       		.uleb128 0x3
 2410 01a9 08       		.uleb128 0x8
 2411 01aa 3A       		.uleb128 0x3a
 2412 01ab 0B       		.uleb128 0xb
 2413 01ac 3B       		.uleb128 0x3b
 2414 01ad 0B       		.uleb128 0xb
 2415 01ae 49       		.uleb128 0x49
 2416 01af 13       		.uleb128 0x13
 2417 01b0 02       		.uleb128 0x2
 2418 01b1 17       		.uleb128 0x17
 2419 01b2 00       		.byte	0
 2420 01b3 00       		.byte	0
 2421 01b4 20       		.uleb128 0x20
 2422 01b5 2E       		.uleb128 0x2e
 2423 01b6 01       		.byte	0x1
 2424 01b7 3F       		.uleb128 0x3f
 2425 01b8 19       		.uleb128 0x19
 2426 01b9 03       		.uleb128 0x3
 2427 01ba 0E       		.uleb128 0xe
 2428 01bb 3A       		.uleb128 0x3a
 2429 01bc 0B       		.uleb128 0xb
 2430 01bd 3B       		.uleb128 0x3b
 2431 01be 05       		.uleb128 0x5
 2432 01bf 27       		.uleb128 0x27
 2433 01c0 19       		.uleb128 0x19
 2434 01c1 49       		.uleb128 0x49
 2435 01c2 13       		.uleb128 0x13
 2436 01c3 11       		.uleb128 0x11
 2437 01c4 01       		.uleb128 0x1
 2438 01c5 12       		.uleb128 0x12
 2439 01c6 06       		.uleb128 0x6
 2440 01c7 40       		.uleb128 0x40
 2441 01c8 18       		.uleb128 0x18
ARM GAS  C:\Users\jo\AppData\Local\Temp\ccsKzdiL.s 			page 44


 2442 01c9 9742     		.uleb128 0x2117
 2443 01cb 19       		.uleb128 0x19
 2444 01cc 01       		.uleb128 0x1
 2445 01cd 13       		.uleb128 0x13
 2446 01ce 00       		.byte	0
 2447 01cf 00       		.byte	0
 2448 01d0 21       		.uleb128 0x21
 2449 01d1 05       		.uleb128 0x5
 2450 01d2 00       		.byte	0
 2451 01d3 03       		.uleb128 0x3
 2452 01d4 08       		.uleb128 0x8
 2453 01d5 3A       		.uleb128 0x3a
 2454 01d6 0B       		.uleb128 0xb
 2455 01d7 3B       		.uleb128 0x3b
 2456 01d8 05       		.uleb128 0x5
 2457 01d9 49       		.uleb128 0x49
 2458 01da 13       		.uleb128 0x13
 2459 01db 02       		.uleb128 0x2
 2460 01dc 17       		.uleb128 0x17
 2461 01dd 00       		.byte	0
 2462 01de 00       		.byte	0
 2463 01df 22       		.uleb128 0x22
 2464 01e0 05       		.uleb128 0x5
 2465 01e1 00       		.byte	0
 2466 01e2 03       		.uleb128 0x3
 2467 01e3 0E       		.uleb128 0xe
 2468 01e4 3A       		.uleb128 0x3a
 2469 01e5 0B       		.uleb128 0xb
 2470 01e6 3B       		.uleb128 0x3b
 2471 01e7 05       		.uleb128 0x5
 2472 01e8 49       		.uleb128 0x49
 2473 01e9 13       		.uleb128 0x13
 2474 01ea 02       		.uleb128 0x2
 2475 01eb 17       		.uleb128 0x17
 2476 01ec 00       		.byte	0
 2477 01ed 00       		.byte	0
 2478 01ee 23       		.uleb128 0x23
 2479 01ef 2E       		.uleb128 0x2e
 2480 01f0 01       		.byte	0x1
 2481 01f1 3F       		.uleb128 0x3f
 2482 01f2 19       		.uleb128 0x19
 2483 01f3 03       		.uleb128 0x3
 2484 01f4 0E       		.uleb128 0xe
 2485 01f5 3A       		.uleb128 0x3a
 2486 01f6 0B       		.uleb128 0xb
 2487 01f7 3B       		.uleb128 0x3b
 2488 01f8 05       		.uleb128 0x5
 2489 01f9 27       		.uleb128 0x27
 2490 01fa 19       		.uleb128 0x19
 2491 01fb 49       		.uleb128 0x49
 2492 01fc 13       		.uleb128 0x13
 2493 01fd 11       		.uleb128 0x11
 2494 01fe 01       		.uleb128 0x1
 2495 01ff 12       		.uleb128 0x12
 2496 0200 06       		.uleb128 0x6
 2497 0201 40       		.uleb128 0x40
 2498 0202 18       		.uleb128 0x18
ARM GAS  C:\Users\jo\AppData\Local\Temp\ccsKzdiL.s 			page 45


 2499 0203 9642     		.uleb128 0x2116
 2500 0205 19       		.uleb128 0x19
 2501 0206 01       		.uleb128 0x1
 2502 0207 13       		.uleb128 0x13
 2503 0208 00       		.byte	0
 2504 0209 00       		.byte	0
 2505 020a 24       		.uleb128 0x24
 2506 020b 01       		.uleb128 0x1
 2507 020c 01       		.byte	0x1
 2508 020d 49       		.uleb128 0x49
 2509 020e 13       		.uleb128 0x13
 2510 020f 01       		.uleb128 0x1
 2511 0210 13       		.uleb128 0x13
 2512 0211 00       		.byte	0
 2513 0212 00       		.byte	0
 2514 0213 25       		.uleb128 0x25
 2515 0214 21       		.uleb128 0x21
 2516 0215 00       		.byte	0
 2517 0216 49       		.uleb128 0x49
 2518 0217 13       		.uleb128 0x13
 2519 0218 2F       		.uleb128 0x2f
 2520 0219 0B       		.uleb128 0xb
 2521 021a 00       		.byte	0
 2522 021b 00       		.byte	0
 2523 021c 26       		.uleb128 0x26
 2524 021d 34       		.uleb128 0x34
 2525 021e 00       		.byte	0
 2526 021f 03       		.uleb128 0x3
 2527 0220 0E       		.uleb128 0xe
 2528 0221 3A       		.uleb128 0x3a
 2529 0222 0B       		.uleb128 0xb
 2530 0223 3B       		.uleb128 0x3b
 2531 0224 0B       		.uleb128 0xb
 2532 0225 49       		.uleb128 0x49
 2533 0226 13       		.uleb128 0x13
 2534 0227 02       		.uleb128 0x2
 2535 0228 18       		.uleb128 0x18
 2536 0229 00       		.byte	0
 2537 022a 00       		.byte	0
 2538 022b 27       		.uleb128 0x27
 2539 022c 34       		.uleb128 0x34
 2540 022d 00       		.byte	0
 2541 022e 03       		.uleb128 0x3
 2542 022f 0E       		.uleb128 0xe
 2543 0230 3A       		.uleb128 0x3a
 2544 0231 0B       		.uleb128 0xb
 2545 0232 3B       		.uleb128 0x3b
 2546 0233 0B       		.uleb128 0xb
 2547 0234 49       		.uleb128 0x49
 2548 0235 13       		.uleb128 0x13
 2549 0236 3F       		.uleb128 0x3f
 2550 0237 19       		.uleb128 0x19
 2551 0238 3C       		.uleb128 0x3c
 2552 0239 19       		.uleb128 0x19
 2553 023a 00       		.byte	0
 2554 023b 00       		.byte	0
 2555 023c 28       		.uleb128 0x28
ARM GAS  C:\Users\jo\AppData\Local\Temp\ccsKzdiL.s 			page 46


 2556 023d 2E       		.uleb128 0x2e
 2557 023e 01       		.byte	0x1
 2558 023f 3F       		.uleb128 0x3f
 2559 0240 19       		.uleb128 0x19
 2560 0241 03       		.uleb128 0x3
 2561 0242 0E       		.uleb128 0xe
 2562 0243 3A       		.uleb128 0x3a
 2563 0244 0B       		.uleb128 0xb
 2564 0245 3B       		.uleb128 0x3b
 2565 0246 0B       		.uleb128 0xb
 2566 0247 27       		.uleb128 0x27
 2567 0248 19       		.uleb128 0x19
 2568 0249 49       		.uleb128 0x49
 2569 024a 13       		.uleb128 0x13
 2570 024b 3C       		.uleb128 0x3c
 2571 024c 19       		.uleb128 0x19
 2572 024d 00       		.byte	0
 2573 024e 00       		.byte	0
 2574 024f 00       		.byte	0
 2575              		.section	.debug_loc,"",%progbits
 2576              	.Ldebug_loc0:
 2577              	.LLST0:
 2578 0000 00000000 		.4byte	.LVL0
 2579 0004 0C000000 		.4byte	.LVL1
 2580 0008 0100     		.2byte	0x1
 2581 000a 50       		.byte	0x50
 2582 000b 0C000000 		.4byte	.LVL1
 2583 000f 0F000000 		.4byte	.LVL2-1
 2584 0013 0100     		.2byte	0x1
 2585 0015 51       		.byte	0x51
 2586 0016 0F000000 		.4byte	.LVL2-1
 2587 001a 4A000000 		.4byte	.LVL8
 2588 001e 0100     		.2byte	0x1
 2589 0020 54       		.byte	0x54
 2590 0021 4A000000 		.4byte	.LVL8
 2591 0025 4D000000 		.4byte	.LVL9-1
 2592 0029 0100     		.2byte	0x1
 2593 002b 51       		.byte	0x51
 2594 002c 4D000000 		.4byte	.LVL9-1
 2595 0030 58000000 		.4byte	.LVL10
 2596 0034 0400     		.2byte	0x4
 2597 0036 F3       		.byte	0xf3
 2598 0037 01       		.uleb128 0x1
 2599 0038 50       		.byte	0x50
 2600 0039 9F       		.byte	0x9f
 2601 003a 58000000 		.4byte	.LVL10
 2602 003e 6C000000 		.4byte	.LVL15
 2603 0042 0100     		.2byte	0x1
 2604 0044 54       		.byte	0x54
 2605 0045 6C000000 		.4byte	.LVL15
 2606 0049 A4000000 		.4byte	.LFE4
 2607 004d 0100     		.2byte	0x1
 2608 004f 50       		.byte	0x50
 2609 0050 00000000 		.4byte	0
 2610 0054 00000000 		.4byte	0
 2611              	.LLST1:
 2612 0058 00000000 		.4byte	.LVL16
ARM GAS  C:\Users\jo\AppData\Local\Temp\ccsKzdiL.s 			page 47


 2613 005c 02000000 		.4byte	.LVL17
 2614 0060 0100     		.2byte	0x1
 2615 0062 50       		.byte	0x50
 2616 0063 02000000 		.4byte	.LVL17
 2617 0067 18000000 		.4byte	.LFE5
 2618 006b 0400     		.2byte	0x4
 2619 006d F3       		.byte	0xf3
 2620 006e 01       		.uleb128 0x1
 2621 006f 50       		.byte	0x50
 2622 0070 9F       		.byte	0x9f
 2623 0071 00000000 		.4byte	0
 2624 0075 00000000 		.4byte	0
 2625              	.LLST2:
 2626 0079 00000000 		.4byte	.LVL18
 2627 007d 2F000000 		.4byte	.LVL19-1
 2628 0081 0100     		.2byte	0x1
 2629 0083 50       		.byte	0x50
 2630 0084 2F000000 		.4byte	.LVL19-1
 2631 0088 3E000000 		.4byte	.LVL21
 2632 008c 0100     		.2byte	0x1
 2633 008e 55       		.byte	0x55
 2634 008f 3E000000 		.4byte	.LVL21
 2635 0093 40000000 		.4byte	.LVL22
 2636 0097 0100     		.2byte	0x1
 2637 0099 50       		.byte	0x50
 2638 009a 40000000 		.4byte	.LVL22
 2639 009e 42000000 		.4byte	.LVL23
 2640 00a2 0400     		.2byte	0x4
 2641 00a4 F3       		.byte	0xf3
 2642 00a5 01       		.uleb128 0x1
 2643 00a6 50       		.byte	0x50
 2644 00a7 9F       		.byte	0x9f
 2645 00a8 42000000 		.4byte	.LVL23
 2646 00ac 46000000 		.4byte	.LVL24
 2647 00b0 0100     		.2byte	0x1
 2648 00b2 55       		.byte	0x55
 2649 00b3 46000000 		.4byte	.LVL24
 2650 00b7 50000000 		.4byte	.LFE6
 2651 00bb 0400     		.2byte	0x4
 2652 00bd F3       		.byte	0xf3
 2653 00be 01       		.uleb128 0x1
 2654 00bf 50       		.byte	0x50
 2655 00c0 9F       		.byte	0x9f
 2656 00c1 00000000 		.4byte	0
 2657 00c5 00000000 		.4byte	0
 2658              	.LLST3:
 2659 00c9 00000000 		.4byte	.LVL18
 2660 00cd 2F000000 		.4byte	.LVL19-1
 2661 00d1 0100     		.2byte	0x1
 2662 00d3 51       		.byte	0x51
 2663 00d4 2F000000 		.4byte	.LVL19-1
 2664 00d8 3E000000 		.4byte	.LVL21
 2665 00dc 0100     		.2byte	0x1
 2666 00de 56       		.byte	0x56
 2667 00df 3E000000 		.4byte	.LVL21
 2668 00e3 42000000 		.4byte	.LVL23
 2669 00e7 0100     		.2byte	0x1
ARM GAS  C:\Users\jo\AppData\Local\Temp\ccsKzdiL.s 			page 48


 2670 00e9 51       		.byte	0x51
 2671 00ea 42000000 		.4byte	.LVL23
 2672 00ee 46000000 		.4byte	.LVL24
 2673 00f2 0100     		.2byte	0x1
 2674 00f4 56       		.byte	0x56
 2675 00f5 46000000 		.4byte	.LVL24
 2676 00f9 50000000 		.4byte	.LFE6
 2677 00fd 0400     		.2byte	0x4
 2678 00ff F3       		.byte	0xf3
 2679 0100 01       		.uleb128 0x1
 2680 0101 51       		.byte	0x51
 2681 0102 9F       		.byte	0x9f
 2682 0103 00000000 		.4byte	0
 2683 0107 00000000 		.4byte	0
 2684              	.LLST4:
 2685 010b 00000000 		.4byte	.LVL25
 2686 010f 0E000000 		.4byte	.LVL26
 2687 0113 0100     		.2byte	0x1
 2688 0115 50       		.byte	0x50
 2689 0116 0E000000 		.4byte	.LVL26
 2690 011a 16000000 		.4byte	.LVL28
 2691 011e 0100     		.2byte	0x1
 2692 0120 54       		.byte	0x54
 2693 0121 16000000 		.4byte	.LVL28
 2694 0125 18000000 		.4byte	.LVL29
 2695 0129 0100     		.2byte	0x1
 2696 012b 50       		.byte	0x50
 2697 012c 18000000 		.4byte	.LVL29
 2698 0130 20000000 		.4byte	.LFE7
 2699 0134 0400     		.2byte	0x4
 2700 0136 F3       		.byte	0xf3
 2701 0137 01       		.uleb128 0x1
 2702 0138 50       		.byte	0x50
 2703 0139 9F       		.byte	0x9f
 2704 013a 00000000 		.4byte	0
 2705 013e 00000000 		.4byte	0
 2706              	.LLST5:
 2707 0142 00000000 		.4byte	.LVL30
 2708 0146 0C000000 		.4byte	.LVL31
 2709 014a 0100     		.2byte	0x1
 2710 014c 50       		.byte	0x50
 2711 014d 0C000000 		.4byte	.LVL31
 2712 0151 12000000 		.4byte	.LVL33
 2713 0155 0400     		.2byte	0x4
 2714 0157 F3       		.byte	0xf3
 2715 0158 01       		.uleb128 0x1
 2716 0159 50       		.byte	0x50
 2717 015a 9F       		.byte	0x9f
 2718 015b 12000000 		.4byte	.LVL33
 2719 015f 14000000 		.4byte	.LVL34
 2720 0163 0100     		.2byte	0x1
 2721 0165 50       		.byte	0x50
 2722 0166 14000000 		.4byte	.LVL34
 2723 016a 16000000 		.4byte	.LVL35
 2724 016e 0400     		.2byte	0x4
 2725 0170 F3       		.byte	0xf3
 2726 0171 01       		.uleb128 0x1
ARM GAS  C:\Users\jo\AppData\Local\Temp\ccsKzdiL.s 			page 49


 2727 0172 50       		.byte	0x50
 2728 0173 9F       		.byte	0x9f
 2729 0174 16000000 		.4byte	.LVL35
 2730 0178 18000000 		.4byte	.LVL36
 2731 017c 0100     		.2byte	0x1
 2732 017e 50       		.byte	0x50
 2733 017f 18000000 		.4byte	.LVL36
 2734 0183 20000000 		.4byte	.LFE8
 2735 0187 0400     		.2byte	0x4
 2736 0189 F3       		.byte	0xf3
 2737 018a 01       		.uleb128 0x1
 2738 018b 50       		.byte	0x50
 2739 018c 9F       		.byte	0x9f
 2740 018d 00000000 		.4byte	0
 2741 0191 00000000 		.4byte	0
 2742              	.LLST6:
 2743 0195 00000000 		.4byte	.LVL37
 2744 0199 0C000000 		.4byte	.LVL38
 2745 019d 0100     		.2byte	0x1
 2746 019f 50       		.byte	0x50
 2747 01a0 0C000000 		.4byte	.LVL38
 2748 01a4 12000000 		.4byte	.LVL40
 2749 01a8 0400     		.2byte	0x4
 2750 01aa F3       		.byte	0xf3
 2751 01ab 01       		.uleb128 0x1
 2752 01ac 50       		.byte	0x50
 2753 01ad 9F       		.byte	0x9f
 2754 01ae 12000000 		.4byte	.LVL40
 2755 01b2 14000000 		.4byte	.LVL41
 2756 01b6 0100     		.2byte	0x1
 2757 01b8 50       		.byte	0x50
 2758 01b9 14000000 		.4byte	.LVL41
 2759 01bd 16000000 		.4byte	.LVL42
 2760 01c1 0400     		.2byte	0x4
 2761 01c3 F3       		.byte	0xf3
 2762 01c4 01       		.uleb128 0x1
 2763 01c5 50       		.byte	0x50
 2764 01c6 9F       		.byte	0x9f
 2765 01c7 16000000 		.4byte	.LVL42
 2766 01cb 18000000 		.4byte	.LVL43
 2767 01cf 0100     		.2byte	0x1
 2768 01d1 50       		.byte	0x50
 2769 01d2 18000000 		.4byte	.LVL43
 2770 01d6 20000000 		.4byte	.LFE9
 2771 01da 0400     		.2byte	0x4
 2772 01dc F3       		.byte	0xf3
 2773 01dd 01       		.uleb128 0x1
 2774 01de 50       		.byte	0x50
 2775 01df 9F       		.byte	0x9f
 2776 01e0 00000000 		.4byte	0
 2777 01e4 00000000 		.4byte	0
 2778              	.LLST7:
 2779 01e8 00000000 		.4byte	.LVL37
 2780 01ec 0D000000 		.4byte	.LVL39-1
 2781 01f0 0100     		.2byte	0x1
 2782 01f2 51       		.byte	0x51
 2783 01f3 0D000000 		.4byte	.LVL39-1
ARM GAS  C:\Users\jo\AppData\Local\Temp\ccsKzdiL.s 			page 50


 2784 01f7 12000000 		.4byte	.LVL40
 2785 01fb 0400     		.2byte	0x4
 2786 01fd F3       		.byte	0xf3
 2787 01fe 01       		.uleb128 0x1
 2788 01ff 51       		.byte	0x51
 2789 0200 9F       		.byte	0x9f
 2790 0201 12000000 		.4byte	.LVL40
 2791 0205 20000000 		.4byte	.LFE9
 2792 0209 0100     		.2byte	0x1
 2793 020b 51       		.byte	0x51
 2794 020c 00000000 		.4byte	0
 2795 0210 00000000 		.4byte	0
 2796              	.LLST8:
 2797 0214 00000000 		.4byte	.LVL37
 2798 0218 0D000000 		.4byte	.LVL39-1
 2799 021c 0100     		.2byte	0x1
 2800 021e 52       		.byte	0x52
 2801 021f 0D000000 		.4byte	.LVL39-1
 2802 0223 12000000 		.4byte	.LVL40
 2803 0227 0400     		.2byte	0x4
 2804 0229 F3       		.byte	0xf3
 2805 022a 01       		.uleb128 0x1
 2806 022b 52       		.byte	0x52
 2807 022c 9F       		.byte	0x9f
 2808 022d 12000000 		.4byte	.LVL40
 2809 0231 20000000 		.4byte	.LFE9
 2810 0235 0100     		.2byte	0x1
 2811 0237 52       		.byte	0x52
 2812 0238 00000000 		.4byte	0
 2813 023c 00000000 		.4byte	0
 2814              	.LLST9:
 2815 0240 00000000 		.4byte	.LVL44
 2816 0244 0C000000 		.4byte	.LVL45
 2817 0248 0100     		.2byte	0x1
 2818 024a 50       		.byte	0x50
 2819 024b 0C000000 		.4byte	.LVL45
 2820 024f 12000000 		.4byte	.LVL47
 2821 0253 0400     		.2byte	0x4
 2822 0255 F3       		.byte	0xf3
 2823 0256 01       		.uleb128 0x1
 2824 0257 50       		.byte	0x50
 2825 0258 9F       		.byte	0x9f
 2826 0259 12000000 		.4byte	.LVL47
 2827 025d 14000000 		.4byte	.LVL48
 2828 0261 0100     		.2byte	0x1
 2829 0263 50       		.byte	0x50
 2830 0264 14000000 		.4byte	.LVL48
 2831 0268 16000000 		.4byte	.LVL49
 2832 026c 0400     		.2byte	0x4
 2833 026e F3       		.byte	0xf3
 2834 026f 01       		.uleb128 0x1
 2835 0270 50       		.byte	0x50
 2836 0271 9F       		.byte	0x9f
 2837 0272 16000000 		.4byte	.LVL49
 2838 0276 18000000 		.4byte	.LVL50
 2839 027a 0100     		.2byte	0x1
 2840 027c 50       		.byte	0x50
ARM GAS  C:\Users\jo\AppData\Local\Temp\ccsKzdiL.s 			page 51


 2841 027d 18000000 		.4byte	.LVL50
 2842 0281 20000000 		.4byte	.LFE10
 2843 0285 0400     		.2byte	0x4
 2844 0287 F3       		.byte	0xf3
 2845 0288 01       		.uleb128 0x1
 2846 0289 50       		.byte	0x50
 2847 028a 9F       		.byte	0x9f
 2848 028b 00000000 		.4byte	0
 2849 028f 00000000 		.4byte	0
 2850              	.LLST10:
 2851 0293 00000000 		.4byte	.LVL44
 2852 0297 0D000000 		.4byte	.LVL46-1
 2853 029b 0100     		.2byte	0x1
 2854 029d 51       		.byte	0x51
 2855 029e 0D000000 		.4byte	.LVL46-1
 2856 02a2 12000000 		.4byte	.LVL47
 2857 02a6 0400     		.2byte	0x4
 2858 02a8 F3       		.byte	0xf3
 2859 02a9 01       		.uleb128 0x1
 2860 02aa 51       		.byte	0x51
 2861 02ab 9F       		.byte	0x9f
 2862 02ac 12000000 		.4byte	.LVL47
 2863 02b0 20000000 		.4byte	.LFE10
 2864 02b4 0100     		.2byte	0x1
 2865 02b6 51       		.byte	0x51
 2866 02b7 00000000 		.4byte	0
 2867 02bb 00000000 		.4byte	0
 2868              	.LLST11:
 2869 02bf 00000000 		.4byte	.LVL51
 2870 02c3 08000000 		.4byte	.LVL52
 2871 02c7 0100     		.2byte	0x1
 2872 02c9 50       		.byte	0x50
 2873 02ca 08000000 		.4byte	.LVL52
 2874 02ce 0A000000 		.4byte	.LVL53
 2875 02d2 0100     		.2byte	0x1
 2876 02d4 54       		.byte	0x54
 2877 02d5 0A000000 		.4byte	.LVL53
 2878 02d9 14000000 		.4byte	.LVL57
 2879 02dd 0400     		.2byte	0x4
 2880 02df F3       		.byte	0xf3
 2881 02e0 01       		.uleb128 0x1
 2882 02e1 50       		.byte	0x50
 2883 02e2 9F       		.byte	0x9f
 2884 02e3 14000000 		.4byte	.LVL57
 2885 02e7 16000000 		.4byte	.LVL58
 2886 02eb 0100     		.2byte	0x1
 2887 02ed 50       		.byte	0x50
 2888 02ee 16000000 		.4byte	.LVL58
 2889 02f2 1C000000 		.4byte	.LFE11
 2890 02f6 0400     		.2byte	0x4
 2891 02f8 F3       		.byte	0xf3
 2892 02f9 01       		.uleb128 0x1
 2893 02fa 50       		.byte	0x50
 2894 02fb 9F       		.byte	0x9f
 2895 02fc 00000000 		.4byte	0
 2896 0300 00000000 		.4byte	0
 2897              	.LLST12:
ARM GAS  C:\Users\jo\AppData\Local\Temp\ccsKzdiL.s 			page 52


 2898 0304 00000000 		.4byte	.LVL51
 2899 0308 0C000000 		.4byte	.LVL54
 2900 030c 0100     		.2byte	0x1
 2901 030e 51       		.byte	0x51
 2902 030f 0C000000 		.4byte	.LVL54
 2903 0313 0F000000 		.4byte	.LVL56-1
 2904 0317 0100     		.2byte	0x1
 2905 0319 50       		.byte	0x50
 2906 031a 0F000000 		.4byte	.LVL56-1
 2907 031e 14000000 		.4byte	.LVL57
 2908 0322 0400     		.2byte	0x4
 2909 0324 F3       		.byte	0xf3
 2910 0325 01       		.uleb128 0x1
 2911 0326 51       		.byte	0x51
 2912 0327 9F       		.byte	0x9f
 2913 0328 14000000 		.4byte	.LVL57
 2914 032c 1C000000 		.4byte	.LFE11
 2915 0330 0100     		.2byte	0x1
 2916 0332 51       		.byte	0x51
 2917 0333 00000000 		.4byte	0
 2918 0337 00000000 		.4byte	0
 2919              	.LLST13:
 2920 033b 00000000 		.4byte	.LVL51
 2921 033f 0E000000 		.4byte	.LVL55
 2922 0343 0100     		.2byte	0x1
 2923 0345 52       		.byte	0x52
 2924 0346 0E000000 		.4byte	.LVL55
 2925 034a 0F000000 		.4byte	.LVL56-1
 2926 034e 0100     		.2byte	0x1
 2927 0350 51       		.byte	0x51
 2928 0351 0F000000 		.4byte	.LVL56-1
 2929 0355 14000000 		.4byte	.LVL57
 2930 0359 0400     		.2byte	0x4
 2931 035b F3       		.byte	0xf3
 2932 035c 01       		.uleb128 0x1
 2933 035d 52       		.byte	0x52
 2934 035e 9F       		.byte	0x9f
 2935 035f 14000000 		.4byte	.LVL57
 2936 0363 1C000000 		.4byte	.LFE11
 2937 0367 0100     		.2byte	0x1
 2938 0369 52       		.byte	0x52
 2939 036a 00000000 		.4byte	0
 2940 036e 00000000 		.4byte	0
 2941              	.LLST14:
 2942 0372 00000000 		.4byte	.LVL51
 2943 0376 0F000000 		.4byte	.LVL56-1
 2944 037a 0100     		.2byte	0x1
 2945 037c 53       		.byte	0x53
 2946 037d 0F000000 		.4byte	.LVL56-1
 2947 0381 14000000 		.4byte	.LVL57
 2948 0385 0400     		.2byte	0x4
 2949 0387 F3       		.byte	0xf3
 2950 0388 01       		.uleb128 0x1
 2951 0389 53       		.byte	0x53
 2952 038a 9F       		.byte	0x9f
 2953 038b 14000000 		.4byte	.LVL57
 2954 038f 1C000000 		.4byte	.LFE11
ARM GAS  C:\Users\jo\AppData\Local\Temp\ccsKzdiL.s 			page 53


 2955 0393 0100     		.2byte	0x1
 2956 0395 53       		.byte	0x53
 2957 0396 00000000 		.4byte	0
 2958 039a 00000000 		.4byte	0
 2959              	.LLST15:
 2960 039e 00000000 		.4byte	.LVL59
 2961 03a2 08000000 		.4byte	.LVL60
 2962 03a6 0100     		.2byte	0x1
 2963 03a8 50       		.byte	0x50
 2964 03a9 08000000 		.4byte	.LVL60
 2965 03ad 0A000000 		.4byte	.LVL61
 2966 03b1 0100     		.2byte	0x1
 2967 03b3 53       		.byte	0x53
 2968 03b4 0A000000 		.4byte	.LVL61
 2969 03b8 18000000 		.4byte	.LVL66
 2970 03bc 0400     		.2byte	0x4
 2971 03be F3       		.byte	0xf3
 2972 03bf 01       		.uleb128 0x1
 2973 03c0 50       		.byte	0x50
 2974 03c1 9F       		.byte	0x9f
 2975 03c2 18000000 		.4byte	.LVL66
 2976 03c6 1A000000 		.4byte	.LVL67
 2977 03ca 0100     		.2byte	0x1
 2978 03cc 50       		.byte	0x50
 2979 03cd 1A000000 		.4byte	.LVL67
 2980 03d1 20000000 		.4byte	.LFE12
 2981 03d5 0400     		.2byte	0x4
 2982 03d7 F3       		.byte	0xf3
 2983 03d8 01       		.uleb128 0x1
 2984 03d9 50       		.byte	0x50
 2985 03da 9F       		.byte	0x9f
 2986 03db 00000000 		.4byte	0
 2987 03df 00000000 		.4byte	0
 2988              	.LLST16:
 2989 03e3 00000000 		.4byte	.LVL59
 2990 03e7 0C000000 		.4byte	.LVL62
 2991 03eb 0100     		.2byte	0x1
 2992 03ed 51       		.byte	0x51
 2993 03ee 0C000000 		.4byte	.LVL62
 2994 03f2 0D000000 		.4byte	.LVL63-1
 2995 03f6 0100     		.2byte	0x1
 2996 03f8 50       		.byte	0x50
 2997 03f9 0D000000 		.4byte	.LVL63-1
 2998 03fd 18000000 		.4byte	.LVL66
 2999 0401 0400     		.2byte	0x4
 3000 0403 F3       		.byte	0xf3
 3001 0404 01       		.uleb128 0x1
 3002 0405 51       		.byte	0x51
 3003 0406 9F       		.byte	0x9f
 3004 0407 18000000 		.4byte	.LVL66
 3005 040b 20000000 		.4byte	.LFE12
 3006 040f 0100     		.2byte	0x1
 3007 0411 51       		.byte	0x51
 3008 0412 00000000 		.4byte	0
 3009 0416 00000000 		.4byte	0
 3010              	.LLST17:
 3011 041a 00000000 		.4byte	.LVL59
ARM GAS  C:\Users\jo\AppData\Local\Temp\ccsKzdiL.s 			page 54


 3012 041e 0D000000 		.4byte	.LVL63-1
 3013 0422 0100     		.2byte	0x1
 3014 0424 52       		.byte	0x52
 3015 0425 0D000000 		.4byte	.LVL63-1
 3016 0429 18000000 		.4byte	.LVL66
 3017 042d 0400     		.2byte	0x4
 3018 042f F3       		.byte	0xf3
 3019 0430 01       		.uleb128 0x1
 3020 0431 52       		.byte	0x52
 3021 0432 9F       		.byte	0x9f
 3022 0433 18000000 		.4byte	.LVL66
 3023 0437 20000000 		.4byte	.LFE12
 3024 043b 0100     		.2byte	0x1
 3025 043d 52       		.byte	0x52
 3026 043e 00000000 		.4byte	0
 3027 0442 00000000 		.4byte	0
 3028              	.LLST18:
 3029 0446 0E000000 		.4byte	.LVL63
 3030 044a 14000000 		.4byte	.LVL64
 3031 044e 0100     		.2byte	0x1
 3032 0450 50       		.byte	0x50
 3033 0451 14000000 		.4byte	.LVL64
 3034 0455 16000000 		.4byte	.LVL65
 3035 0459 0500     		.2byte	0x5
 3036 045b 70       		.byte	0x70
 3037 045c 80A401   		.sleb128 20992
 3038 045f 9F       		.byte	0x9f
 3039 0460 16000000 		.4byte	.LVL65
 3040 0464 18000000 		.4byte	.LVL66
 3041 0468 0100     		.2byte	0x1
 3042 046a 50       		.byte	0x50
 3043 046b 00000000 		.4byte	0
 3044 046f 00000000 		.4byte	0
 3045              	.LLST19:
 3046 0473 00000000 		.4byte	.LVL68
 3047 0477 0C000000 		.4byte	.LVL69
 3048 047b 0100     		.2byte	0x1
 3049 047d 50       		.byte	0x50
 3050 047e 0C000000 		.4byte	.LVL69
 3051 0482 12000000 		.4byte	.LVL71
 3052 0486 0400     		.2byte	0x4
 3053 0488 F3       		.byte	0xf3
 3054 0489 01       		.uleb128 0x1
 3055 048a 50       		.byte	0x50
 3056 048b 9F       		.byte	0x9f
 3057 048c 12000000 		.4byte	.LVL71
 3058 0490 14000000 		.4byte	.LVL72
 3059 0494 0100     		.2byte	0x1
 3060 0496 50       		.byte	0x50
 3061 0497 14000000 		.4byte	.LVL72
 3062 049b 16000000 		.4byte	.LVL73
 3063 049f 0400     		.2byte	0x4
 3064 04a1 F3       		.byte	0xf3
 3065 04a2 01       		.uleb128 0x1
 3066 04a3 50       		.byte	0x50
 3067 04a4 9F       		.byte	0x9f
 3068 04a5 16000000 		.4byte	.LVL73
ARM GAS  C:\Users\jo\AppData\Local\Temp\ccsKzdiL.s 			page 55


 3069 04a9 18000000 		.4byte	.LVL74
 3070 04ad 0100     		.2byte	0x1
 3071 04af 50       		.byte	0x50
 3072 04b0 18000000 		.4byte	.LVL74
 3073 04b4 20000000 		.4byte	.LFE13
 3074 04b8 0400     		.2byte	0x4
 3075 04ba F3       		.byte	0xf3
 3076 04bb 01       		.uleb128 0x1
 3077 04bc 50       		.byte	0x50
 3078 04bd 9F       		.byte	0x9f
 3079 04be 00000000 		.4byte	0
 3080 04c2 00000000 		.4byte	0
 3081              	.LLST20:
 3082 04c6 00000000 		.4byte	.LVL68
 3083 04ca 0D000000 		.4byte	.LVL70-1
 3084 04ce 0100     		.2byte	0x1
 3085 04d0 51       		.byte	0x51
 3086 04d1 0D000000 		.4byte	.LVL70-1
 3087 04d5 12000000 		.4byte	.LVL71
 3088 04d9 0400     		.2byte	0x4
 3089 04db F3       		.byte	0xf3
 3090 04dc 01       		.uleb128 0x1
 3091 04dd 51       		.byte	0x51
 3092 04de 9F       		.byte	0x9f
 3093 04df 12000000 		.4byte	.LVL71
 3094 04e3 20000000 		.4byte	.LFE13
 3095 04e7 0100     		.2byte	0x1
 3096 04e9 51       		.byte	0x51
 3097 04ea 00000000 		.4byte	0
 3098 04ee 00000000 		.4byte	0
 3099              	.LLST21:
 3100 04f2 00000000 		.4byte	.LVL68
 3101 04f6 0D000000 		.4byte	.LVL70-1
 3102 04fa 0100     		.2byte	0x1
 3103 04fc 52       		.byte	0x52
 3104 04fd 0D000000 		.4byte	.LVL70-1
 3105 0501 12000000 		.4byte	.LVL71
 3106 0505 0400     		.2byte	0x4
 3107 0507 F3       		.byte	0xf3
 3108 0508 01       		.uleb128 0x1
 3109 0509 52       		.byte	0x52
 3110 050a 9F       		.byte	0x9f
 3111 050b 12000000 		.4byte	.LVL71
 3112 050f 20000000 		.4byte	.LFE13
 3113 0513 0100     		.2byte	0x1
 3114 0515 52       		.byte	0x52
 3115 0516 00000000 		.4byte	0
 3116 051a 00000000 		.4byte	0
 3117              	.LLST22:
 3118 051e 00000000 		.4byte	.LVL75
 3119 0522 0C000000 		.4byte	.LVL76
 3120 0526 0100     		.2byte	0x1
 3121 0528 50       		.byte	0x50
 3122 0529 0C000000 		.4byte	.LVL76
 3123 052d 12000000 		.4byte	.LVL78
 3124 0531 0400     		.2byte	0x4
 3125 0533 F3       		.byte	0xf3
ARM GAS  C:\Users\jo\AppData\Local\Temp\ccsKzdiL.s 			page 56


 3126 0534 01       		.uleb128 0x1
 3127 0535 50       		.byte	0x50
 3128 0536 9F       		.byte	0x9f
 3129 0537 12000000 		.4byte	.LVL78
 3130 053b 14000000 		.4byte	.LVL79
 3131 053f 0100     		.2byte	0x1
 3132 0541 50       		.byte	0x50
 3133 0542 14000000 		.4byte	.LVL79
 3134 0546 16000000 		.4byte	.LVL80
 3135 054a 0400     		.2byte	0x4
 3136 054c F3       		.byte	0xf3
 3137 054d 01       		.uleb128 0x1
 3138 054e 50       		.byte	0x50
 3139 054f 9F       		.byte	0x9f
 3140 0550 16000000 		.4byte	.LVL80
 3141 0554 18000000 		.4byte	.LVL81
 3142 0558 0100     		.2byte	0x1
 3143 055a 50       		.byte	0x50
 3144 055b 18000000 		.4byte	.LVL81
 3145 055f 20000000 		.4byte	.LFE14
 3146 0563 0400     		.2byte	0x4
 3147 0565 F3       		.byte	0xf3
 3148 0566 01       		.uleb128 0x1
 3149 0567 50       		.byte	0x50
 3150 0568 9F       		.byte	0x9f
 3151 0569 00000000 		.4byte	0
 3152 056d 00000000 		.4byte	0
 3153              	.LLST23:
 3154 0571 00000000 		.4byte	.LVL75
 3155 0575 0D000000 		.4byte	.LVL77-1
 3156 0579 0100     		.2byte	0x1
 3157 057b 51       		.byte	0x51
 3158 057c 0D000000 		.4byte	.LVL77-1
 3159 0580 12000000 		.4byte	.LVL78
 3160 0584 0400     		.2byte	0x4
 3161 0586 F3       		.byte	0xf3
 3162 0587 01       		.uleb128 0x1
 3163 0588 51       		.byte	0x51
 3164 0589 9F       		.byte	0x9f
 3165 058a 12000000 		.4byte	.LVL78
 3166 058e 20000000 		.4byte	.LFE14
 3167 0592 0100     		.2byte	0x1
 3168 0594 51       		.byte	0x51
 3169 0595 00000000 		.4byte	0
 3170 0599 00000000 		.4byte	0
 3171              	.LLST24:
 3172 059d 00000000 		.4byte	.LVL75
 3173 05a1 0D000000 		.4byte	.LVL77-1
 3174 05a5 0100     		.2byte	0x1
 3175 05a7 52       		.byte	0x52
 3176 05a8 0D000000 		.4byte	.LVL77-1
 3177 05ac 12000000 		.4byte	.LVL78
 3178 05b0 0400     		.2byte	0x4
 3179 05b2 F3       		.byte	0xf3
 3180 05b3 01       		.uleb128 0x1
 3181 05b4 52       		.byte	0x52
 3182 05b5 9F       		.byte	0x9f
ARM GAS  C:\Users\jo\AppData\Local\Temp\ccsKzdiL.s 			page 57


 3183 05b6 12000000 		.4byte	.LVL78
 3184 05ba 20000000 		.4byte	.LFE14
 3185 05be 0100     		.2byte	0x1
 3186 05c0 52       		.byte	0x52
 3187 05c1 00000000 		.4byte	0
 3188 05c5 00000000 		.4byte	0
 3189              	.LLST25:
 3190 05c9 00000000 		.4byte	.LVL82
 3191 05cd 0C000000 		.4byte	.LVL83
 3192 05d1 0100     		.2byte	0x1
 3193 05d3 50       		.byte	0x50
 3194 05d4 0C000000 		.4byte	.LVL83
 3195 05d8 12000000 		.4byte	.LVL85
 3196 05dc 0400     		.2byte	0x4
 3197 05de F3       		.byte	0xf3
 3198 05df 01       		.uleb128 0x1
 3199 05e0 50       		.byte	0x50
 3200 05e1 9F       		.byte	0x9f
 3201 05e2 12000000 		.4byte	.LVL85
 3202 05e6 14000000 		.4byte	.LVL86
 3203 05ea 0100     		.2byte	0x1
 3204 05ec 50       		.byte	0x50
 3205 05ed 14000000 		.4byte	.LVL86
 3206 05f1 16000000 		.4byte	.LVL87
 3207 05f5 0400     		.2byte	0x4
 3208 05f7 F3       		.byte	0xf3
 3209 05f8 01       		.uleb128 0x1
 3210 05f9 50       		.byte	0x50
 3211 05fa 9F       		.byte	0x9f
 3212 05fb 16000000 		.4byte	.LVL87
 3213 05ff 18000000 		.4byte	.LVL88
 3214 0603 0100     		.2byte	0x1
 3215 0605 50       		.byte	0x50
 3216 0606 18000000 		.4byte	.LVL88
 3217 060a 20000000 		.4byte	.LFE15
 3218 060e 0400     		.2byte	0x4
 3219 0610 F3       		.byte	0xf3
 3220 0611 01       		.uleb128 0x1
 3221 0612 50       		.byte	0x50
 3222 0613 9F       		.byte	0x9f
 3223 0614 00000000 		.4byte	0
 3224 0618 00000000 		.4byte	0
 3225              	.LLST26:
 3226 061c 00000000 		.4byte	.LVL82
 3227 0620 0D000000 		.4byte	.LVL84-1
 3228 0624 0100     		.2byte	0x1
 3229 0626 51       		.byte	0x51
 3230 0627 0D000000 		.4byte	.LVL84-1
 3231 062b 12000000 		.4byte	.LVL85
 3232 062f 0400     		.2byte	0x4
 3233 0631 F3       		.byte	0xf3
 3234 0632 01       		.uleb128 0x1
 3235 0633 51       		.byte	0x51
 3236 0634 9F       		.byte	0x9f
 3237 0635 12000000 		.4byte	.LVL85
 3238 0639 20000000 		.4byte	.LFE15
 3239 063d 0100     		.2byte	0x1
ARM GAS  C:\Users\jo\AppData\Local\Temp\ccsKzdiL.s 			page 58


 3240 063f 51       		.byte	0x51
 3241 0640 00000000 		.4byte	0
 3242 0644 00000000 		.4byte	0
 3243              	.LLST27:
 3244 0648 00000000 		.4byte	.LVL89
 3245 064c 0C000000 		.4byte	.LVL90
 3246 0650 0100     		.2byte	0x1
 3247 0652 50       		.byte	0x50
 3248 0653 0C000000 		.4byte	.LVL90
 3249 0657 12000000 		.4byte	.LVL92
 3250 065b 0400     		.2byte	0x4
 3251 065d F3       		.byte	0xf3
 3252 065e 01       		.uleb128 0x1
 3253 065f 50       		.byte	0x50
 3254 0660 9F       		.byte	0x9f
 3255 0661 12000000 		.4byte	.LVL92
 3256 0665 14000000 		.4byte	.LVL93
 3257 0669 0100     		.2byte	0x1
 3258 066b 50       		.byte	0x50
 3259 066c 14000000 		.4byte	.LVL93
 3260 0670 16000000 		.4byte	.LVL94
 3261 0674 0400     		.2byte	0x4
 3262 0676 F3       		.byte	0xf3
 3263 0677 01       		.uleb128 0x1
 3264 0678 50       		.byte	0x50
 3265 0679 9F       		.byte	0x9f
 3266 067a 16000000 		.4byte	.LVL94
 3267 067e 18000000 		.4byte	.LVL95
 3268 0682 0100     		.2byte	0x1
 3269 0684 50       		.byte	0x50
 3270 0685 18000000 		.4byte	.LVL95
 3271 0689 20000000 		.4byte	.LFE16
 3272 068d 0400     		.2byte	0x4
 3273 068f F3       		.byte	0xf3
 3274 0690 01       		.uleb128 0x1
 3275 0691 50       		.byte	0x50
 3276 0692 9F       		.byte	0x9f
 3277 0693 00000000 		.4byte	0
 3278 0697 00000000 		.4byte	0
 3279              	.LLST28:
 3280 069b 00000000 		.4byte	.LVL96
 3281 069f 0A000000 		.4byte	.LVL97
 3282 06a3 0100     		.2byte	0x1
 3283 06a5 50       		.byte	0x50
 3284 06a6 0A000000 		.4byte	.LVL97
 3285 06aa 10000000 		.4byte	.LVL99
 3286 06ae 0100     		.2byte	0x1
 3287 06b0 54       		.byte	0x54
 3288 06b1 10000000 		.4byte	.LVL99
 3289 06b5 1E000000 		.4byte	.LVL103
 3290 06b9 0400     		.2byte	0x4
 3291 06bb F3       		.byte	0xf3
 3292 06bc 01       		.uleb128 0x1
 3293 06bd 50       		.byte	0x50
 3294 06be 9F       		.byte	0x9f
 3295 06bf 1E000000 		.4byte	.LVL103
 3296 06c3 20000000 		.4byte	.LVL104
ARM GAS  C:\Users\jo\AppData\Local\Temp\ccsKzdiL.s 			page 59


 3297 06c7 0100     		.2byte	0x1
 3298 06c9 50       		.byte	0x50
 3299 06ca 20000000 		.4byte	.LVL104
 3300 06ce 28000000 		.4byte	.LFE17
 3301 06d2 0400     		.2byte	0x4
 3302 06d4 F3       		.byte	0xf3
 3303 06d5 01       		.uleb128 0x1
 3304 06d6 50       		.byte	0x50
 3305 06d7 9F       		.byte	0x9f
 3306 06d8 00000000 		.4byte	0
 3307 06dc 00000000 		.4byte	0
 3308              	.LLST29:
 3309 06e0 00000000 		.4byte	.LVL96
 3310 06e4 0C000000 		.4byte	.LVL98
 3311 06e8 0100     		.2byte	0x1
 3312 06ea 51       		.byte	0x51
 3313 06eb 0C000000 		.4byte	.LVL98
 3314 06ef 17000000 		.4byte	.LVL102-1
 3315 06f3 0100     		.2byte	0x1
 3316 06f5 50       		.byte	0x50
 3317 06f6 17000000 		.4byte	.LVL102-1
 3318 06fa 1E000000 		.4byte	.LVL103
 3319 06fe 0400     		.2byte	0x4
 3320 0700 F3       		.byte	0xf3
 3321 0701 01       		.uleb128 0x1
 3322 0702 51       		.byte	0x51
 3323 0703 9F       		.byte	0x9f
 3324 0704 1E000000 		.4byte	.LVL103
 3325 0708 28000000 		.4byte	.LFE17
 3326 070c 0100     		.2byte	0x1
 3327 070e 51       		.byte	0x51
 3328 070f 00000000 		.4byte	0
 3329 0713 00000000 		.4byte	0
 3330              	.LLST30:
 3331 0717 00000000 		.4byte	.LVL96
 3332 071b 14000000 		.4byte	.LVL100
 3333 071f 0100     		.2byte	0x1
 3334 0721 52       		.byte	0x52
 3335 0722 14000000 		.4byte	.LVL100
 3336 0726 17000000 		.4byte	.LVL102-1
 3337 072a 0100     		.2byte	0x1
 3338 072c 51       		.byte	0x51
 3339 072d 17000000 		.4byte	.LVL102-1
 3340 0731 1E000000 		.4byte	.LVL103
 3341 0735 0400     		.2byte	0x4
 3342 0737 F3       		.byte	0xf3
 3343 0738 01       		.uleb128 0x1
 3344 0739 52       		.byte	0x52
 3345 073a 9F       		.byte	0x9f
 3346 073b 1E000000 		.4byte	.LVL103
 3347 073f 28000000 		.4byte	.LFE17
 3348 0743 0100     		.2byte	0x1
 3349 0745 52       		.byte	0x52
 3350 0746 00000000 		.4byte	0
 3351 074a 00000000 		.4byte	0
 3352              	.LLST31:
 3353 074e 00000000 		.4byte	.LVL96
ARM GAS  C:\Users\jo\AppData\Local\Temp\ccsKzdiL.s 			page 60


 3354 0752 16000000 		.4byte	.LVL101
 3355 0756 0100     		.2byte	0x1
 3356 0758 53       		.byte	0x53
 3357 0759 16000000 		.4byte	.LVL101
 3358 075d 17000000 		.4byte	.LVL102-1
 3359 0761 0100     		.2byte	0x1
 3360 0763 52       		.byte	0x52
 3361 0764 17000000 		.4byte	.LVL102-1
 3362 0768 1E000000 		.4byte	.LVL103
 3363 076c 0400     		.2byte	0x4
 3364 076e F3       		.byte	0xf3
 3365 076f 01       		.uleb128 0x1
 3366 0770 53       		.byte	0x53
 3367 0771 9F       		.byte	0x9f
 3368 0772 1E000000 		.4byte	.LVL103
 3369 0776 28000000 		.4byte	.LFE17
 3370 077a 0100     		.2byte	0x1
 3371 077c 53       		.byte	0x53
 3372 077d 00000000 		.4byte	0
 3373 0781 00000000 		.4byte	0
 3374              	.LLST32:
 3375 0785 00000000 		.4byte	.LVL96
 3376 0789 1E000000 		.4byte	.LVL103
 3377 078d 0200     		.2byte	0x2
 3378 078f 91       		.byte	0x91
 3379 0790 00       		.sleb128 0
 3380 0791 1E000000 		.4byte	.LVL103
 3381 0795 28000000 		.4byte	.LFE17
 3382 0799 0200     		.2byte	0x2
 3383 079b 91       		.byte	0x91
 3384 079c 00       		.sleb128 0
 3385 079d 00000000 		.4byte	0
 3386 07a1 00000000 		.4byte	0
 3387              	.LLST33:
 3388 07a5 00000000 		.4byte	.LVL96
 3389 07a9 1E000000 		.4byte	.LVL103
 3390 07ad 0200     		.2byte	0x2
 3391 07af 91       		.byte	0x91
 3392 07b0 04       		.sleb128 4
 3393 07b1 1E000000 		.4byte	.LVL103
 3394 07b5 28000000 		.4byte	.LFE17
 3395 07b9 0200     		.2byte	0x2
 3396 07bb 91       		.byte	0x91
 3397 07bc 04       		.sleb128 4
 3398 07bd 00000000 		.4byte	0
 3399 07c1 00000000 		.4byte	0
 3400              		.section	.debug_aranges,"",%progbits
 3401 0000 8C000000 		.4byte	0x8c
 3402 0004 0200     		.2byte	0x2
 3403 0006 00000000 		.4byte	.Ldebug_info0
 3404 000a 04       		.byte	0x4
 3405 000b 00       		.byte	0
 3406 000c 0000     		.2byte	0
 3407 000e 0000     		.2byte	0
 3408 0010 00000000 		.4byte	.LFB3
 3409 0014 08000000 		.4byte	.LFE3-.LFB3
 3410 0018 00000000 		.4byte	.LFB4
ARM GAS  C:\Users\jo\AppData\Local\Temp\ccsKzdiL.s 			page 61


 3411 001c A4000000 		.4byte	.LFE4-.LFB4
 3412 0020 00000000 		.4byte	.LFB5
 3413 0024 18000000 		.4byte	.LFE5-.LFB5
 3414 0028 00000000 		.4byte	.LFB6
 3415 002c 50000000 		.4byte	.LFE6-.LFB6
 3416 0030 00000000 		.4byte	.LFB7
 3417 0034 20000000 		.4byte	.LFE7-.LFB7
 3418 0038 00000000 		.4byte	.LFB8
 3419 003c 20000000 		.4byte	.LFE8-.LFB8
 3420 0040 00000000 		.4byte	.LFB9
 3421 0044 20000000 		.4byte	.LFE9-.LFB9
 3422 0048 00000000 		.4byte	.LFB10
 3423 004c 20000000 		.4byte	.LFE10-.LFB10
 3424 0050 00000000 		.4byte	.LFB11
 3425 0054 1C000000 		.4byte	.LFE11-.LFB11
 3426 0058 00000000 		.4byte	.LFB12
 3427 005c 20000000 		.4byte	.LFE12-.LFB12
 3428 0060 00000000 		.4byte	.LFB13
 3429 0064 20000000 		.4byte	.LFE13-.LFB13
 3430 0068 00000000 		.4byte	.LFB14
 3431 006c 20000000 		.4byte	.LFE14-.LFB14
 3432 0070 00000000 		.4byte	.LFB15
 3433 0074 20000000 		.4byte	.LFE15-.LFB15
 3434 0078 00000000 		.4byte	.LFB16
 3435 007c 20000000 		.4byte	.LFE16-.LFB16
 3436 0080 00000000 		.4byte	.LFB17
 3437 0084 28000000 		.4byte	.LFE17-.LFB17
 3438 0088 00000000 		.4byte	0
 3439 008c 00000000 		.4byte	0
 3440              		.section	.debug_ranges,"",%progbits
 3441              	.Ldebug_ranges0:
 3442 0000 00000000 		.4byte	.LFB3
 3443 0004 08000000 		.4byte	.LFE3
 3444 0008 00000000 		.4byte	.LFB4
 3445 000c A4000000 		.4byte	.LFE4
 3446 0010 00000000 		.4byte	.LFB5
 3447 0014 18000000 		.4byte	.LFE5
 3448 0018 00000000 		.4byte	.LFB6
 3449 001c 50000000 		.4byte	.LFE6
 3450 0020 00000000 		.4byte	.LFB7
 3451 0024 20000000 		.4byte	.LFE7
 3452 0028 00000000 		.4byte	.LFB8
 3453 002c 20000000 		.4byte	.LFE8
 3454 0030 00000000 		.4byte	.LFB9
 3455 0034 20000000 		.4byte	.LFE9
 3456 0038 00000000 		.4byte	.LFB10
 3457 003c 20000000 		.4byte	.LFE10
 3458 0040 00000000 		.4byte	.LFB11
 3459 0044 1C000000 		.4byte	.LFE11
 3460 0048 00000000 		.4byte	.LFB12
 3461 004c 20000000 		.4byte	.LFE12
 3462 0050 00000000 		.4byte	.LFB13
 3463 0054 20000000 		.4byte	.LFE13
 3464 0058 00000000 		.4byte	.LFB14
 3465 005c 20000000 		.4byte	.LFE14
 3466 0060 00000000 		.4byte	.LFB15
 3467 0064 20000000 		.4byte	.LFE15
ARM GAS  C:\Users\jo\AppData\Local\Temp\ccsKzdiL.s 			page 62


 3468 0068 00000000 		.4byte	.LFB16
 3469 006c 20000000 		.4byte	.LFE16
 3470 0070 00000000 		.4byte	.LFB17
 3471 0074 28000000 		.4byte	.LFE17
 3472 0078 00000000 		.4byte	0
 3473 007c 00000000 		.4byte	0
 3474              		.section	.debug_line,"",%progbits
 3475              	.Ldebug_line0:
 3476 0000 26030000 		.section	.debug_str,"MS",%progbits,1
 3476      02005F01 
 3476      00000201 
 3476      FB0E0D00 
 3476      01010101 
 3477              	.LASF26:
 3478 0000 75706461 		.ascii	"update_func\000"
 3478      74655F66 
 3478      756E6300 
 3479              	.LASF46:
 3480 000c 6D645F75 		.ascii	"md_update\000"
 3480      70646174 
 3480      6500
 3481              	.LASF30:
 3482 0016 686D6163 		.ascii	"hmac_starts_func\000"
 3482      5F737461 
 3482      7274735F 
 3482      66756E63 
 3482      00
 3483              	.LASF20:
 3484 0027 73697A65 		.ascii	"size_t\000"
 3484      5F7400
 3485              	.LASF25:
 3486 002e 73746172 		.ascii	"starts_func\000"
 3486      74735F66 
 3486      756E6300 
 3487              	.LASF22:
 3488 003a 74797065 		.ascii	"type\000"
 3488      00
 3489              	.LASF52:
 3490 003f 70617468 		.ascii	"path\000"
 3490      00
 3491              	.LASF57:
 3492 0044 6D645F68 		.ascii	"md_hmac_reset\000"
 3492      6D61635F 
 3492      72657365 
 3492      7400
 3493              	.LASF8:
 3494 0052 6C6F6E67 		.ascii	"long long unsigned int\000"
 3494      206C6F6E 
 3494      6720756E 
 3494      7369676E 
 3494      65642069 
 3495              	.LASF58:
 3496 0069 6D645F68 		.ascii	"md_hmac\000"
 3496      6D616300 
 3497              	.LASF68:
 3498 0071 433A5C55 		.ascii	"C:\\Users\\jo\\Documents\\GitHub\\ChibiOS\\demos\\S"
 3498      73657273 
ARM GAS  C:\Users\jo\AppData\Local\Temp\ccsKzdiL.s 			page 63


 3498      5C6A6F5C 
 3498      446F6375 
 3498      6D656E74 
 3499 009d 544D3332 		.ascii	"TM32\\RT-STM32F407-DISCOVERY-uHttp\000"
 3499      5C52542D 
 3499      53544D33 
 3499      32463430 
 3499      372D4449 
 3500              	.LASF7:
 3501 00bf 6C6F6E67 		.ascii	"long long int\000"
 3501      206C6F6E 
 3501      6720696E 
 3501      7400
 3502              	.LASF1:
 3503 00cd 7369676E 		.ascii	"signed char\000"
 3503      65642063 
 3503      68617200 
 3504              	.LASF40:
 3505 00d9 6D645F63 		.ascii	"md_context_t\000"
 3505      6F6E7465 
 3505      78745F74 
 3505      00
 3506              	.LASF5:
 3507 00e6 6C6F6E67 		.ascii	"long int\000"
 3507      20696E74 
 3507      00
 3508              	.LASF43:
 3509 00ef 6D645F6E 		.ascii	"md_name\000"
 3509      616D6500 
 3510              	.LASF51:
 3511 00f7 6D645F66 		.ascii	"md_file\000"
 3511      696C6500 
 3512              	.LASF28:
 3513 00ff 64696765 		.ascii	"digest_func\000"
 3513      73745F66 
 3513      756E6300 
 3514              	.LASF62:
 3515 010b 73686132 		.ascii	"sha224_info\000"
 3515      32345F69 
 3515      6E666F00 
 3516              	.LASF41:
 3517 0117 6D645F69 		.ascii	"md_info_from_string\000"
 3517      6E666F5F 
 3517      66726F6D 
 3517      5F737472 
 3517      696E6700 
 3518              	.LASF56:
 3519 012b 6D645F68 		.ascii	"md_hmac_finish\000"
 3519      6D61635F 
 3519      66696E69 
 3519      736800
 3520              	.LASF19:
 3521 013a 504F4C41 		.ascii	"POLARSSL_MD_SHA512\000"
 3521      5253534C 
 3521      5F4D445F 
 3521      53484135 
 3521      313200
ARM GAS  C:\Users\jo\AppData\Local\Temp\ccsKzdiL.s 			page 64


 3522              	.LASF0:
 3523 014d 756E7369 		.ascii	"unsigned int\000"
 3523      676E6564 
 3523      20696E74 
 3523      00
 3524              	.LASF64:
 3525 015a 73686133 		.ascii	"sha384_info\000"
 3525      38345F69 
 3525      6E666F00 
 3526              	.LASF63:
 3527 0166 73686132 		.ascii	"sha256_info\000"
 3527      35365F69 
 3527      6E666F00 
 3528              	.LASF59:
 3529 0172 73757070 		.ascii	"supported_digests\000"
 3529      6F727465 
 3529      645F6469 
 3529      67657374 
 3529      7300
 3530              	.LASF6:
 3531 0184 6C6F6E67 		.ascii	"long unsigned int\000"
 3531      20756E73 
 3531      69676E65 
 3531      6420696E 
 3531      7400
 3532              	.LASF23:
 3533 0196 6E616D65 		.ascii	"name\000"
 3533      00
 3534              	.LASF24:
 3535 019b 73697A65 		.ascii	"size\000"
 3535      00
 3536              	.LASF4:
 3537 01a0 73686F72 		.ascii	"short unsigned int\000"
 3537      7420756E 
 3537      7369676E 
 3537      65642069 
 3537      6E7400
 3538              	.LASF55:
 3539 01b3 6D645F68 		.ascii	"md_hmac_update\000"
 3539      6D61635F 
 3539      75706461 
 3539      746500
 3540              	.LASF17:
 3541 01c2 504F4C41 		.ascii	"POLARSSL_MD_SHA256\000"
 3541      5253534C 
 3541      5F4D445F 
 3541      53484132 
 3541      353600
 3542              	.LASF44:
 3543 01d5 6D645F66 		.ascii	"md_free_ctx\000"
 3543      7265655F 
 3543      63747800 
 3544              	.LASF45:
 3545 01e1 6D645F73 		.ascii	"md_starts\000"
 3545      74617274 
 3545      7300
 3546              	.LASF66:
ARM GAS  C:\Users\jo\AppData\Local\Temp\ccsKzdiL.s 			page 65


 3547 01eb 474E5520 		.ascii	"GNU C 4.9.3 20141119 (release) [ARM/embedded-4_9-br"
 3547      4320342E 
 3547      392E3320 
 3547      32303134 
 3547      31313139 
 3548 021e 616E6368 		.ascii	"anch revision 218278] -mcpu=cortex-m4 -mno-thumb-in"
 3548      20726576 
 3548      6973696F 
 3548      6E203231 
 3548      38323738 
 3549 0251 74657277 		.ascii	"terwork -mthumb -ggdb -O2 -fomit-frame-pointer -fal"
 3549      6F726B20 
 3549      2D6D7468 
 3549      756D6220 
 3549      2D676764 
 3550 0284 69676E2D 		.ascii	"ign-functions=16 -ffunction-sections -fdata-section"
 3550      66756E63 
 3550      74696F6E 
 3550      733D3136 
 3550      202D6666 
 3551 02b7 73202D66 		.ascii	"s -fno-common\000"
 3551      6E6F2D63 
 3551      6F6D6D6F 
 3551      6E00
 3552              	.LASF50:
 3553 02c5 6F757470 		.ascii	"output\000"
 3553      757400
 3554              	.LASF38:
 3555 02cc 6D645F69 		.ascii	"md_info\000"
 3555      6E666F00 
 3556              	.LASF9:
 3557 02d4 73697A65 		.ascii	"sizetype\000"
 3557      74797065 
 3557      00
 3558              	.LASF60:
 3559 02dd 6D64355F 		.ascii	"md5_info\000"
 3559      696E666F 
 3559      00
 3560              	.LASF32:
 3561 02e6 686D6163 		.ascii	"hmac_finish_func\000"
 3561      5F66696E 
 3561      6973685F 
 3561      66756E63 
 3561      00
 3562              	.LASF54:
 3563 02f7 6B65796C 		.ascii	"keylen\000"
 3563      656E00
 3564              	.LASF27:
 3565 02fe 66696E69 		.ascii	"finish_func\000"
 3565      73685F66 
 3565      756E6300 
 3566              	.LASF65:
 3567 030a 73686135 		.ascii	"sha512_info\000"
 3567      31325F69 
 3567      6E666F00 
 3568              	.LASF70:
 3569 0316 6D645F74 		.ascii	"md_type\000"
ARM GAS  C:\Users\jo\AppData\Local\Temp\ccsKzdiL.s 			page 66


 3569      79706500 
 3570              	.LASF18:
 3571 031e 504F4C41 		.ascii	"POLARSSL_MD_SHA384\000"
 3571      5253534C 
 3571      5F4D445F 
 3571      53484133 
 3571      383400
 3572              	.LASF49:
 3573 0331 6D645F66 		.ascii	"md_finish\000"
 3573      696E6973 
 3573      6800
 3574              	.LASF2:
 3575 033b 756E7369 		.ascii	"unsigned char\000"
 3575      676E6564 
 3575      20636861 
 3575      7200
 3576              	.LASF39:
 3577 0349 6D645F63 		.ascii	"md_ctx\000"
 3577      747800
 3578              	.LASF3:
 3579 0350 73686F72 		.ascii	"short int\000"
 3579      7420696E 
 3579      7400
 3580              	.LASF29:
 3581 035a 66696C65 		.ascii	"file_func\000"
 3581      5F66756E 
 3581      6300
 3582              	.LASF61:
 3583 0364 73686131 		.ascii	"sha1_info\000"
 3583      5F696E66 
 3583      6F00
 3584              	.LASF67:
 3585 036e 2E2E2F2E 		.ascii	"../../../os/ext/PolarSSL/library/md.c\000"
 3585      2E2F2E2E 
 3585      2F6F732F 
 3585      6578742F 
 3585      506F6C61 
 3586              	.LASF47:
 3587 0394 696E7075 		.ascii	"input\000"
 3587      7400
 3588              	.LASF12:
 3589 039a 504F4C41 		.ascii	"POLARSSL_MD_MD2\000"
 3589      5253534C 
 3589      5F4D445F 
 3589      4D443200 
 3590              	.LASF13:
 3591 03aa 504F4C41 		.ascii	"POLARSSL_MD_MD4\000"
 3591      5253534C 
 3591      5F4D445F 
 3591      4D443400 
 3592              	.LASF14:
 3593 03ba 504F4C41 		.ascii	"POLARSSL_MD_MD5\000"
 3593      5253534C 
 3593      5F4D445F 
 3593      4D443500 
 3594              	.LASF36:
 3595 03ca 6374785F 		.ascii	"ctx_free_func\000"
ARM GAS  C:\Users\jo\AppData\Local\Temp\ccsKzdiL.s 			page 67


 3595      66726565 
 3595      5F66756E 
 3595      6300
 3596              	.LASF15:
 3597 03d8 504F4C41 		.ascii	"POLARSSL_MD_SHA1\000"
 3597      5253534C 
 3597      5F4D445F 
 3597      53484131 
 3597      00
 3598              	.LASF10:
 3599 03e9 63686172 		.ascii	"char\000"
 3599      00
 3600              	.LASF72:
 3601 03ee 73747263 		.ascii	"strcasecmp\000"
 3601      61736563 
 3601      6D7000
 3602              	.LASF21:
 3603 03f9 6D645F74 		.ascii	"md_type_t\000"
 3603      7970655F 
 3603      7400
 3604              	.LASF11:
 3605 0403 504F4C41 		.ascii	"POLARSSL_MD_NONE\000"
 3605      5253534C 
 3605      5F4D445F 
 3605      4E4F4E45 
 3605      00
 3606              	.LASF71:
 3607 0414 6D645F6C 		.ascii	"md_list\000"
 3607      69737400 
 3608              	.LASF69:
 3609 041c 6D645F69 		.ascii	"md_info_from_type\000"
 3609      6E666F5F 
 3609      66726F6D 
 3609      5F747970 
 3609      6500
 3610              	.LASF34:
 3611 042e 686D6163 		.ascii	"hmac_func\000"
 3611      5F66756E 
 3611      6300
 3612              	.LASF37:
 3613 0438 6D645F69 		.ascii	"md_info_t\000"
 3613      6E666F5F 
 3613      7400
 3614              	.LASF48:
 3615 0442 696C656E 		.ascii	"ilen\000"
 3615      00
 3616              	.LASF33:
 3617 0447 686D6163 		.ascii	"hmac_reset_func\000"
 3617      5F726573 
 3617      65745F66 
 3617      756E6300 
 3618              	.LASF53:
 3619 0457 6D645F68 		.ascii	"md_hmac_starts\000"
 3619      6D61635F 
 3619      73746172 
 3619      747300
 3620              	.LASF42:
ARM GAS  C:\Users\jo\AppData\Local\Temp\ccsKzdiL.s 			page 68


 3621 0466 6D645F69 		.ascii	"md_init_ctx\000"
 3621      6E69745F 
 3621      63747800 
 3622              	.LASF31:
 3623 0472 686D6163 		.ascii	"hmac_update_func\000"
 3623      5F757064 
 3623      6174655F 
 3623      66756E63 
 3623      00
 3624              	.LASF35:
 3625 0483 6374785F 		.ascii	"ctx_alloc_func\000"
 3625      616C6C6F 
 3625      635F6675 
 3625      6E6300
 3626              	.LASF16:
 3627 0492 504F4C41 		.ascii	"POLARSSL_MD_SHA224\000"
 3627      5253534C 
 3627      5F4D445F 
 3627      53484132 
 3627      323400
 3628              		.ident	"GCC: (GNU Tools for ARM Embedded Processors) 4.9.3 20141119 (release) [ARM/embedded-4_9-br
ARM GAS  C:\Users\jo\AppData\Local\Temp\ccsKzdiL.s 			page 69


DEFINED SYMBOLS
                            *ABS*:00000000 md.c
C:\Users\jo\AppData\Local\Temp\ccsKzdiL.s:19     .text.md_list:00000000 $t
C:\Users\jo\AppData\Local\Temp\ccsKzdiL.s:25     .text.md_list:00000000 md_list
C:\Users\jo\AppData\Local\Temp\ccsKzdiL.s:39     .text.md_list:00000004 $d
C:\Users\jo\AppData\Local\Temp\ccsKzdiL.s:44     .text.md_info_from_string:00000000 $t
C:\Users\jo\AppData\Local\Temp\ccsKzdiL.s:50     .text.md_info_from_string:00000000 md_info_from_string
C:\Users\jo\AppData\Local\Temp\ccsKzdiL.s:153    .text.md_info_from_string:00000070 $d
C:\Users\jo\AppData\Local\Temp\ccsKzdiL.s:170    .text.md_info_from_type:00000000 $t
C:\Users\jo\AppData\Local\Temp\ccsKzdiL.s:176    .text.md_info_from_type:00000000 md_info_from_type
C:\Users\jo\AppData\Local\Temp\ccsKzdiL.s:198    .text.md_info_from_type:00000014 $d
C:\Users\jo\AppData\Local\Temp\ccsKzdiL.s:203    .text.md_init_ctx:00000000 $t
C:\Users\jo\AppData\Local\Temp\ccsKzdiL.s:209    .text.md_init_ctx:00000000 md_init_ctx
C:\Users\jo\AppData\Local\Temp\ccsKzdiL.s:283    .text.md_init_ctx:00000048 $d
C:\Users\jo\AppData\Local\Temp\ccsKzdiL.s:289    .text.md_free_ctx:00000000 $t
C:\Users\jo\AppData\Local\Temp\ccsKzdiL.s:295    .text.md_free_ctx:00000000 md_free_ctx
C:\Users\jo\AppData\Local\Temp\ccsKzdiL.s:336    .text.md_free_ctx:0000001c $d
C:\Users\jo\AppData\Local\Temp\ccsKzdiL.s:341    .text.md_starts:00000000 $t
C:\Users\jo\AppData\Local\Temp\ccsKzdiL.s:347    .text.md_starts:00000000 md_starts
C:\Users\jo\AppData\Local\Temp\ccsKzdiL.s:393    .text.md_starts:0000001c $d
C:\Users\jo\AppData\Local\Temp\ccsKzdiL.s:398    .text.md_update:00000000 $t
C:\Users\jo\AppData\Local\Temp\ccsKzdiL.s:404    .text.md_update:00000000 md_update
C:\Users\jo\AppData\Local\Temp\ccsKzdiL.s:450    .text.md_update:0000001c $d
C:\Users\jo\AppData\Local\Temp\ccsKzdiL.s:455    .text.md_finish:00000000 $t
C:\Users\jo\AppData\Local\Temp\ccsKzdiL.s:461    .text.md_finish:00000000 md_finish
C:\Users\jo\AppData\Local\Temp\ccsKzdiL.s:507    .text.md_finish:0000001c $d
C:\Users\jo\AppData\Local\Temp\ccsKzdiL.s:512    .text.md:00000000 $t
C:\Users\jo\AppData\Local\Temp\ccsKzdiL.s:518    .text.md:00000000 md
C:\Users\jo\AppData\Local\Temp\ccsKzdiL.s:559    .text.md:00000018 $d
C:\Users\jo\AppData\Local\Temp\ccsKzdiL.s:564    .text.md_file:00000000 $t
C:\Users\jo\AppData\Local\Temp\ccsKzdiL.s:570    .text.md_file:00000000 md_file
C:\Users\jo\AppData\Local\Temp\ccsKzdiL.s:616    .text.md_file:0000001c $d
C:\Users\jo\AppData\Local\Temp\ccsKzdiL.s:621    .text.md_hmac_starts:00000000 $t
C:\Users\jo\AppData\Local\Temp\ccsKzdiL.s:627    .text.md_hmac_starts:00000000 md_hmac_starts
C:\Users\jo\AppData\Local\Temp\ccsKzdiL.s:673    .text.md_hmac_starts:0000001c $d
C:\Users\jo\AppData\Local\Temp\ccsKzdiL.s:678    .text.md_hmac_update:00000000 $t
C:\Users\jo\AppData\Local\Temp\ccsKzdiL.s:684    .text.md_hmac_update:00000000 md_hmac_update
C:\Users\jo\AppData\Local\Temp\ccsKzdiL.s:730    .text.md_hmac_update:0000001c $d
C:\Users\jo\AppData\Local\Temp\ccsKzdiL.s:735    .text.md_hmac_finish:00000000 $t
C:\Users\jo\AppData\Local\Temp\ccsKzdiL.s:741    .text.md_hmac_finish:00000000 md_hmac_finish
C:\Users\jo\AppData\Local\Temp\ccsKzdiL.s:787    .text.md_hmac_finish:0000001c $d
C:\Users\jo\AppData\Local\Temp\ccsKzdiL.s:792    .text.md_hmac_reset:00000000 $t
C:\Users\jo\AppData\Local\Temp\ccsKzdiL.s:798    .text.md_hmac_reset:00000000 md_hmac_reset
C:\Users\jo\AppData\Local\Temp\ccsKzdiL.s:844    .text.md_hmac_reset:0000001c $d
C:\Users\jo\AppData\Local\Temp\ccsKzdiL.s:849    .text.md_hmac:00000000 $t
C:\Users\jo\AppData\Local\Temp\ccsKzdiL.s:855    .text.md_hmac:00000000 md_hmac
C:\Users\jo\AppData\Local\Temp\ccsKzdiL.s:906    .text.md_hmac:00000024 $d
C:\Users\jo\AppData\Local\Temp\ccsKzdiL.s:911    .rodata.supported_digests:00000000 $d
C:\Users\jo\AppData\Local\Temp\ccsKzdiL.s:915    .rodata.supported_digests:00000000 supported_digests
C:\Users\jo\AppData\Local\Temp\ccsKzdiL.s:924    .rodata.str1.4:00000000 $d
C:\Users\jo\AppData\Local\Temp\ccsKzdiL.s:944    .rodata.CSWTCH.2:00000000 $d
C:\Users\jo\AppData\Local\Temp\ccsKzdiL.s:948    .rodata.CSWTCH.2:00000000 CSWTCH.2
                     .debug_frame:00000010 $d
C:\Users\jo\AppData\Local\Temp\ccsKzdiL.s:43     .text.md_list:00000008 $t
C:\Users\jo\AppData\Local\Temp\ccsKzdiL.s:169    .text.md_info_from_string:000000a4 $t
C:\Users\jo\AppData\Local\Temp\ccsKzdiL.s:202    .text.md_info_from_type:00000018 $t
C:\Users\jo\AppData\Local\Temp\ccsKzdiL.s:563    .text.md:0000001c $t
ARM GAS  C:\Users\jo\AppData\Local\Temp\ccsKzdiL.s 			page 70


C:\Users\jo\AppData\Local\Temp\ccsKzdiL.s:910    .text.md_hmac:00000028 $t

UNDEFINED SYMBOLS
strcasecmp
sha512_info
sha1_info
md5_info
sha224_info
sha256_info
sha384_info
