ARM GAS  C:\Users\jo\AppData\Local\Temp\ccsKzdiL.s 			page 1


   1              		.syntax unified
   2              		.cpu cortex-m4
   3              		.fpu softvfp
   4              		.eabi_attribute 20, 1
   5              		.eabi_attribute 21, 1
   6              		.eabi_attribute 23, 3
   7              		.eabi_attribute 24, 1
   8              		.eabi_attribute 25, 1
   9              		.eabi_attribute 26, 1
  10              		.eabi_attribute 30, 2
  11              		.eabi_attribute 34, 1
  12              		.eabi_attribute 18, 4
  13              		.thumb
  14              		.file	"md.c"
  15              		.text
  16              	.Ltext0:
  17              		.cfi_sections	.debug_frame
  18              		.section	.text.md_list,"ax",%progbits
  19              		.align	2
  20              		.p2align 4,,15
  21              		.global	md_list
  22              		.thumb
  23              		.thumb_func
  24              		.type	md_list, %function
  25              	md_list:
  26              	.LFB3:
  27              		.file 1 "../../../os/ext/PolarSSL/library/md.c"
  28              		.loc 1 75 0
  29              		.cfi_startproc
  30              		@ args = 0, pretend = 0, frame = 0
  31              		@ frame_needed = 0, uses_anonymous_args = 0
  32              		@ link register save eliminated.
  33              		.loc 1 77 0
  34 0000 0048     		ldr	r0, .L2
  35 0002 7047     		bx	lr
  36              	.L3:
  37              		.align	2
  38              	.L2:
  39 0004 00000000 		.word	.LANCHOR0
  40              		.cfi_endproc
  41              	.LFE3:
  42              		.size	md_list, .-md_list
  43 0008 AFF30080 		.section	.text.md_info_from_string,"ax",%progbits
  43      AFF30080 
  44              		.align	2
  45              		.p2align 4,,15
  46              		.global	md_info_from_string
  47              		.thumb
  48              		.thumb_func
  49              		.type	md_info_from_string, %function
  50              	md_info_from_string:
  51              	.LFB4:
  52              		.loc 1 80 0
  53              		.cfi_startproc
  54              		@ args = 0, pretend = 0, frame = 0
  55              		@ frame_needed = 0, uses_anonymous_args = 0
  56              	.LVL0:
ARM GAS  C:\Users\jo\AppData\Local\Temp\ccsKzdiL.s 			page 2


  57              		.loc 1 81 0
  58 0000 0028     		cmp	r0, #0
  59 0002 33D0     		beq	.L15
  60              		.loc 1 80 0
  61 0004 10B5     		push	{r4, lr}
  62              		.cfi_def_cfa_offset 8
  63              		.cfi_offset 4, -8
  64              		.cfi_offset 14, -4
  65 0006 0446     		mov	r4, r0
  66              		.loc 1 94 0
  67 0008 2146     		mov	r1, r4
  68 000a 1948     		ldr	r0, .L17
  69              	.LVL1:
  70 000c FFF7FEFF 		bl	strcasecmp
  71              	.LVL2:
  72 0010 20B3     		cbz	r0, .L7
  73              		.loc 1 98 0
  74 0012 1848     		ldr	r0, .L17+4
  75 0014 2146     		mov	r1, r4
  76 0016 FFF7FEFF 		bl	strcasecmp
  77              	.LVL3:
  78 001a E8B1     		cbz	r0, .L9
  79              		.loc 1 98 0 is_stmt 0 discriminator 1
  80 001c 1648     		ldr	r0, .L17+8
  81 001e 2146     		mov	r1, r4
  82 0020 FFF7FEFF 		bl	strcasecmp
  83              	.LVL4:
  84 0024 C0B1     		cbz	r0, .L9
  85              		.loc 1 102 0 is_stmt 1
  86 0026 1548     		ldr	r0, .L17+12
  87 0028 2146     		mov	r1, r4
  88 002a FFF7FEFF 		bl	strcasecmp
  89              	.LVL5:
  90 002e B8B1     		cbz	r0, .L10
  91              		.loc 1 104 0
  92 0030 1348     		ldr	r0, .L17+16
  93 0032 2146     		mov	r1, r4
  94 0034 FFF7FEFF 		bl	strcasecmp
  95              	.LVL6:
  96 0038 A0B1     		cbz	r0, .L11
  97              		.loc 1 108 0
  98 003a 1248     		ldr	r0, .L17+20
  99 003c 2146     		mov	r1, r4
 100 003e FFF7FEFF 		bl	strcasecmp
 101              	.LVL7:
 102 0042 88B1     		cbz	r0, .L12
 103              		.loc 1 110 0
 104 0044 2146     		mov	r1, r4
 105 0046 1048     		ldr	r0, .L17+24
 106              		.loc 1 113 0
 107 0048 104C     		ldr	r4, .L17+28
 108              	.LVL8:
 109              		.loc 1 110 0
 110 004a FFF7FEFF 		bl	strcasecmp
 111              	.LVL9:
 112 004e 0028     		cmp	r0, #0
 113              		.loc 1 113 0
ARM GAS  C:\Users\jo\AppData\Local\Temp\ccsKzdiL.s 			page 3


 114 0050 0CBF     		ite	eq
 115 0052 2046     		moveq	r0, r4
 116 0054 0020     		movne	r0, #0
 117 0056 10BD     		pop	{r4, pc}
 118              	.LVL10:
 119              	.L9:
 120              		.loc 1 99 0
 121 0058 0D48     		ldr	r0, .L17+32
 122 005a 10BD     		pop	{r4, pc}
 123              	.LVL11:
 124              	.L7:
 125              		.loc 1 95 0
 126 005c 0D48     		ldr	r0, .L17+36
 127 005e 10BD     		pop	{r4, pc}
 128              	.LVL12:
 129              	.L10:
 130              		.loc 1 103 0
 131 0060 0D48     		ldr	r0, .L17+40
 132 0062 10BD     		pop	{r4, pc}
 133              	.LVL13:
 134              	.L11:
 135              		.loc 1 105 0
 136 0064 0D48     		ldr	r0, .L17+44
 137 0066 10BD     		pop	{r4, pc}
 138              	.LVL14:
 139              	.L12:
 140              		.loc 1 109 0
 141 0068 0D48     		ldr	r0, .L17+48
 142              		.loc 1 114 0
 143 006a 10BD     		pop	{r4, pc}
 144              	.LVL15:
 145              	.L15:
 146              		.cfi_def_cfa_offset 0
 147              		.cfi_restore 4
 148              		.cfi_restore 14
 149 006c 7047     		bx	lr
 150              	.L18:
 151 006e 00BF     		.align	2
 152              	.L17:
 153 0070 00000000 		.word	.LC0
 154 0074 04000000 		.word	.LC1
 155 0078 0C000000 		.word	.LC2
 156 007c 10000000 		.word	.LC3
 157 0080 18000000 		.word	.LC4
 158 0084 20000000 		.word	.LC5
 159 0088 28000000 		.word	.LC6
 160 008c 00000000 		.word	sha512_info
 161 0090 00000000 		.word	sha1_info
 162 0094 00000000 		.word	md5_info
 163 0098 00000000 		.word	sha224_info
 164 009c 00000000 		.word	sha256_info
 165 00a0 00000000 		.word	sha384_info
 166              		.cfi_endproc
 167              	.LFE4:
 168              		.size	md_info_from_string, .-md_info_from_string
 169 00a4 AFF30080 		.section	.text.md_info_from_type,"ax",%progbits
 169      AFF30080 
ARM GAS  C:\Users\jo\AppData\Local\Temp\ccsKzdiL.s 			page 4


 169      AFF30080 
 170              		.align	2
 171              		.p2align 4,,15
 172              		.global	md_info_from_type
 173              		.thumb
 174              		.thumb_func
 175              		.type	md_info_from_type, %function
 176              	md_info_from_type:
 177              	.LFB5:
 178              		.loc 1 117 0
 179              		.cfi_startproc
 180              		@ args = 0, pretend = 0, frame = 0
 181              		@ frame_needed = 0, uses_anonymous_args = 0
 182              		@ link register save eliminated.
 183              	.LVL16:
 184 0000 0338     		subs	r0, r0, #3
 185              	.LVL17:
 186 0002 C0B2     		uxtb	r0, r0
 187 0004 0528     		cmp	r0, #5
 188 0006 9ABF     		itte	ls
 189 0008 024B     		ldrls	r3, .L22
 190 000a 53F82000 		ldrls	r0, [r3, r0, lsl #2]
 191              		.loc 1 117 0
 192 000e 0020     		movhi	r0, #0
 193              		.loc 1 151 0
 194 0010 7047     		bx	lr
 195              	.L23:
 196 0012 00BF     		.align	2
 197              	.L22:
 198 0014 00000000 		.word	.LANCHOR1
 199              		.cfi_endproc
 200              	.LFE5:
 201              		.size	md_info_from_type, .-md_info_from_type
 202 0018 AFF30080 		.section	.text.md_init_ctx,"ax",%progbits
 202      AFF30080 
 203              		.align	2
 204              		.p2align 4,,15
 205              		.global	md_init_ctx
 206              		.thumb
 207              		.thumb_func
 208              		.type	md_init_ctx, %function
 209              	md_init_ctx:
 210              	.LFB6:
 211              		.loc 1 154 0
 212              		.cfi_startproc
 213              		@ args = 0, pretend = 0, frame = 0
 214              		@ frame_needed = 0, uses_anonymous_args = 0
 215              	.LVL18:
 216              		.loc 1 155 0
 217 0000 E9B1     		cbz	r1, .L27
 218              		.loc 1 155 0 is_stmt 0 discriminator 1
 219 0002 E0B1     		cbz	r0, .L27
 220              		.loc 1 158 0 is_stmt 1
 221 0004 0346     		mov	r3, r0
 222              		.loc 1 154 0
 223 0006 70B5     		push	{r4, r5, r6, lr}
 224              		.cfi_def_cfa_offset 16
ARM GAS  C:\Users\jo\AppData\Local\Temp\ccsKzdiL.s 			page 5


 225              		.cfi_offset 4, -16
 226              		.cfi_offset 5, -12
 227              		.cfi_offset 6, -8
 228              		.cfi_offset 14, -4
 229              		.loc 1 158 0
 230 0008 0024     		movs	r4, #0
 231 000a 03F8014B 		strb	r4, [r3], #1
 232 000e 0133     		adds	r3, r3, #1
 233 0010 4470     		strb	r4, [r0, #1]
 234 0012 03F8014B 		strb	r4, [r3], #1
 235 0016 03F8014B 		strb	r4, [r3], #1
 236 001a 03F8014B 		strb	r4, [r3], #1
 237 001e 03F8014B 		strb	r4, [r3], #1
 238 0022 03F8014B 		strb	r4, [r3], #1
 239 0026 1C70     		strb	r4, [r3]
 240              		.loc 1 160 0
 241 0028 4B6B     		ldr	r3, [r1, #52]
 242 002a 0546     		mov	r5, r0
 243 002c 0E46     		mov	r6, r1
 244 002e 9847     		blx	r3
 245              	.LVL19:
 246 0030 6860     		str	r0, [r5, #4]
 247 0032 30B1     		cbz	r0, .L28
 248              		.loc 1 163 0
 249 0034 2E60     		str	r6, [r5]
 250              		.loc 1 165 0
 251 0036 F368     		ldr	r3, [r6, #12]
 252 0038 9847     		blx	r3
 253              	.LVL20:
 254              		.loc 1 167 0
 255 003a 2046     		mov	r0, r4
 256 003c 70BD     		pop	{r4, r5, r6, pc}
 257              	.LVL21:
 258              	.L27:
 259              		.cfi_def_cfa_offset 0
 260              		.cfi_restore 4
 261              		.cfi_restore 5
 262              		.cfi_restore 6
 263              		.cfi_restore 14
 264              		.loc 1 156 0
 265 003e 0248     		ldr	r0, .L31
 266              	.LVL22:
 267 0040 7047     		bx	lr
 268              	.LVL23:
 269              	.L28:
 270              		.cfi_def_cfa_offset 16
 271              		.cfi_offset 4, -16
 272              		.cfi_offset 5, -12
 273              		.cfi_offset 6, -8
 274              		.cfi_offset 14, -4
 275              		.loc 1 161 0
 276 0042 0248     		ldr	r0, .L31+4
 277              		.loc 1 168 0
 278 0044 70BD     		pop	{r4, r5, r6, pc}
 279              	.LVL24:
 280              	.L32:
 281 0046 00BF     		.align	2
ARM GAS  C:\Users\jo\AppData\Local\Temp\ccsKzdiL.s 			page 6


 282              	.L31:
 283 0048 00AFFFFF 		.word	-20736
 284 004c 80AEFFFF 		.word	-20864
 285              		.cfi_endproc
 286              	.LFE6:
 287              		.size	md_init_ctx, .-md_init_ctx
 288              		.section	.text.md_free_ctx,"ax",%progbits
 289              		.align	2
 290              		.p2align 4,,15
 291              		.global	md_free_ctx
 292              		.thumb
 293              		.thumb_func
 294              		.type	md_free_ctx, %function
 295              	md_free_ctx:
 296              	.LFB7:
 297              		.loc 1 171 0
 298              		.cfi_startproc
 299              		@ args = 0, pretend = 0, frame = 0
 300              		@ frame_needed = 0, uses_anonymous_args = 0
 301              	.LVL25:
 302              		.loc 1 172 0
 303 0000 48B1     		cbz	r0, .L36
 304              		.loc 1 172 0 is_stmt 0 discriminator 1
 305 0002 0368     		ldr	r3, [r0]
 306 0004 3BB1     		cbz	r3, .L36
 307              		.loc 1 171 0 is_stmt 1
 308 0006 10B5     		push	{r4, lr}
 309              		.cfi_def_cfa_offset 8
 310              		.cfi_offset 4, -8
 311              		.cfi_offset 14, -4
 312              		.loc 1 175 0
 313 0008 9B6B     		ldr	r3, [r3, #56]
 314 000a 0446     		mov	r4, r0
 315 000c 4068     		ldr	r0, [r0, #4]
 316              	.LVL26:
 317 000e 9847     		blx	r3
 318              	.LVL27:
 319              		.loc 1 176 0
 320 0010 0020     		movs	r0, #0
 321 0012 6060     		str	r0, [r4, #4]
 322              		.loc 1 178 0
 323 0014 10BD     		pop	{r4, pc}
 324              	.LVL28:
 325              	.L36:
 326              		.cfi_def_cfa_offset 0
 327              		.cfi_restore 4
 328              		.cfi_restore 14
 329              		.loc 1 173 0
 330 0016 0148     		ldr	r0, .L39
 331              	.LVL29:
 332 0018 7047     		bx	lr
 333              	.L40:
 334 001a 00BF     		.align	2
 335              	.L39:
 336 001c 00AFFFFF 		.word	-20736
 337              		.cfi_endproc
 338              	.LFE7:
ARM GAS  C:\Users\jo\AppData\Local\Temp\ccsKzdiL.s 			page 7


 339              		.size	md_free_ctx, .-md_free_ctx
 340              		.section	.text.md_starts,"ax",%progbits
 341              		.align	2
 342              		.p2align 4,,15
 343              		.global	md_starts
 344              		.thumb
 345              		.thumb_func
 346              		.type	md_starts, %function
 347              	md_starts:
 348              	.LFB8:
 349              		.loc 1 182 0
 350              		.cfi_startproc
 351              		@ args = 0, pretend = 0, frame = 0
 352              		@ frame_needed = 0, uses_anonymous_args = 0
 353              	.LVL30:
 354              		.loc 1 183 0
 355 0000 48B1     		cbz	r0, .L43
 356              		.loc 1 182 0 discriminator 1
 357 0002 08B5     		push	{r3, lr}
 358              		.cfi_def_cfa_offset 8
 359              		.cfi_offset 3, -8
 360              		.cfi_offset 14, -4
 361              		.loc 1 183 0 discriminator 1
 362 0004 0368     		ldr	r3, [r0]
 363 0006 23B1     		cbz	r3, .L44
 364              		.loc 1 186 0
 365 0008 DB68     		ldr	r3, [r3, #12]
 366 000a 4068     		ldr	r0, [r0, #4]
 367              	.LVL31:
 368 000c 9847     		blx	r3
 369              	.LVL32:
 370              		.loc 1 188 0
 371 000e 0020     		movs	r0, #0
 372 0010 08BD     		pop	{r3, pc}
 373              	.LVL33:
 374              	.L44:
 375              		.loc 1 184 0
 376 0012 0248     		ldr	r0, .L46
 377              	.LVL34:
 378              		.loc 1 189 0
 379 0014 08BD     		pop	{r3, pc}
 380              	.LVL35:
 381              	.L43:
 382              		.cfi_def_cfa_offset 0
 383              		.cfi_restore 3
 384              		.cfi_restore 14
 385              		.loc 1 184 0
 386 0016 0148     		ldr	r0, .L46
 387              	.LVL36:
 388              		.loc 1 189 0
 389 0018 7047     		bx	lr
 390              	.L47:
 391 001a 00BF     		.align	2
 392              	.L46:
 393 001c 00AFFFFF 		.word	-20736
 394              		.cfi_endproc
 395              	.LFE8:
ARM GAS  C:\Users\jo\AppData\Local\Temp\ccsKzdiL.s 			page 8


 396              		.size	md_starts, .-md_starts
 397              		.section	.text.md_update,"ax",%progbits
 398              		.align	2
 399              		.p2align 4,,15
 400              		.global	md_update
 401              		.thumb
 402              		.thumb_func
 403              		.type	md_update, %function
 404              	md_update:
 405              	.LFB9:
 406              		.loc 1 192 0
 407              		.cfi_startproc
 408              		@ args = 0, pretend = 0, frame = 0
 409              		@ frame_needed = 0, uses_anonymous_args = 0
 410              	.LVL37:
 411              		.loc 1 193 0
 412 0000 48B1     		cbz	r0, .L50
 413              		.loc 1 192 0 discriminator 1
 414 0002 08B5     		push	{r3, lr}
 415              		.cfi_def_cfa_offset 8
 416              		.cfi_offset 3, -8
 417              		.cfi_offset 14, -4
 418              		.loc 1 193 0 discriminator 1
 419 0004 0368     		ldr	r3, [r0]
 420 0006 23B1     		cbz	r3, .L51
 421              		.loc 1 196 0
 422 0008 1B69     		ldr	r3, [r3, #16]
 423 000a 4068     		ldr	r0, [r0, #4]
 424              	.LVL38:
 425 000c 9847     		blx	r3
 426              	.LVL39:
 427              		.loc 1 198 0
 428 000e 0020     		movs	r0, #0
 429 0010 08BD     		pop	{r3, pc}
 430              	.LVL40:
 431              	.L51:
 432              		.loc 1 194 0
 433 0012 0248     		ldr	r0, .L53
 434              	.LVL41:
 435              		.loc 1 199 0
 436 0014 08BD     		pop	{r3, pc}
 437              	.LVL42:
 438              	.L50:
 439              		.cfi_def_cfa_offset 0
 440              		.cfi_restore 3
 441              		.cfi_restore 14
 442              		.loc 1 194 0
 443 0016 0148     		ldr	r0, .L53
 444              	.LVL43:
 445              		.loc 1 199 0
 446 0018 7047     		bx	lr
 447              	.L54:
 448 001a 00BF     		.align	2
 449              	.L53:
 450 001c 00AFFFFF 		.word	-20736
 451              		.cfi_endproc
 452              	.LFE9:
ARM GAS  C:\Users\jo\AppData\Local\Temp\ccsKzdiL.s 			page 9


 453              		.size	md_update, .-md_update
 454              		.section	.text.md_finish,"ax",%progbits
 455              		.align	2
 456              		.p2align 4,,15
 457              		.global	md_finish
 458              		.thumb
 459              		.thumb_func
 460              		.type	md_finish, %function
 461              	md_finish:
 462              	.LFB10:
 463              		.loc 1 202 0
 464              		.cfi_startproc
 465              		@ args = 0, pretend = 0, frame = 0
 466              		@ frame_needed = 0, uses_anonymous_args = 0
 467              	.LVL44:
 468              		.loc 1 203 0
 469 0000 48B1     		cbz	r0, .L57
 470              		.loc 1 202 0 discriminator 1
 471 0002 08B5     		push	{r3, lr}
 472              		.cfi_def_cfa_offset 8
 473              		.cfi_offset 3, -8
 474              		.cfi_offset 14, -4
 475              		.loc 1 203 0 discriminator 1
 476 0004 0368     		ldr	r3, [r0]
 477 0006 23B1     		cbz	r3, .L58
 478              		.loc 1 206 0
 479 0008 5B69     		ldr	r3, [r3, #20]
 480 000a 4068     		ldr	r0, [r0, #4]
 481              	.LVL45:
 482 000c 9847     		blx	r3
 483              	.LVL46:
 484              		.loc 1 208 0
 485 000e 0020     		movs	r0, #0
 486 0010 08BD     		pop	{r3, pc}
 487              	.LVL47:
 488              	.L58:
 489              		.loc 1 204 0
 490 0012 0248     		ldr	r0, .L60
 491              	.LVL48:
 492              		.loc 1 209 0
 493 0014 08BD     		pop	{r3, pc}
 494              	.LVL49:
 495              	.L57:
 496              		.cfi_def_cfa_offset 0
 497              		.cfi_restore 3
 498              		.cfi_restore 14
 499              		.loc 1 204 0
 500 0016 0148     		ldr	r0, .L60
 501              	.LVL50:
 502              		.loc 1 209 0
 503 0018 7047     		bx	lr
 504              	.L61:
 505 001a 00BF     		.align	2
 506              	.L60:
 507 001c 00AFFFFF 		.word	-20736
 508              		.cfi_endproc
 509              	.LFE10:
ARM GAS  C:\Users\jo\AppData\Local\Temp\ccsKzdiL.s 			page 10


 510              		.size	md_finish, .-md_finish
 511              		.section	.text.md,"ax",%progbits
 512              		.align	2
 513              		.p2align 4,,15
 514              		.global	md
 515              		.thumb
 516              		.thumb_func
 517              		.type	md, %function
 518              	md:
 519              	.LFB11:
 520              		.loc 1 213 0
 521              		.cfi_startproc
 522              		@ args = 0, pretend = 0, frame = 0
 523              		@ frame_needed = 0, uses_anonymous_args = 0
 524              	.LVL51:
 525              		.loc 1 214 0
 526 0000 40B1     		cbz	r0, .L64
 527              		.loc 1 213 0
 528 0002 10B5     		push	{r4, lr}
 529              		.cfi_def_cfa_offset 8
 530              		.cfi_offset 4, -8
 531              		.cfi_offset 14, -4
 532 0004 0446     		mov	r4, r0
 533 0006 0846     		mov	r0, r1
 534              	.LVL52:
 535              		.loc 1 217 0
 536 0008 A469     		ldr	r4, [r4, #24]
 537              	.LVL53:
 538 000a 1146     		mov	r1, r2
 539              	.LVL54:
 540 000c 1A46     		mov	r2, r3
 541              	.LVL55:
 542 000e A047     		blx	r4
 543              	.LVL56:
 544              		.loc 1 219 0
 545 0010 0020     		movs	r0, #0
 546 0012 10BD     		pop	{r4, pc}
 547              	.LVL57:
 548              	.L64:
 549              		.cfi_def_cfa_offset 0
 550              		.cfi_restore 4
 551              		.cfi_restore 14
 552              		.loc 1 215 0
 553 0014 0048     		ldr	r0, .L67
 554              	.LVL58:
 555 0016 7047     		bx	lr
 556              	.L68:
 557              		.align	2
 558              	.L67:
 559 0018 00AFFFFF 		.word	-20736
 560              		.cfi_endproc
 561              	.LFE11:
 562              		.size	md, .-md
 563 001c AFF30080 		.section	.text.md_file,"ax",%progbits
 564              		.align	2
 565              		.p2align 4,,15
 566              		.global	md_file
ARM GAS  C:\Users\jo\AppData\Local\Temp\ccsKzdiL.s 			page 11


 567              		.thumb
 568              		.thumb_func
 569              		.type	md_file, %function
 570              	md_file:
 571              	.LFB12:
 572              		.loc 1 223 0
 573              		.cfi_startproc
 574              		@ args = 0, pretend = 0, frame = 0
 575              		@ frame_needed = 0, uses_anonymous_args = 0
 576              	.LVL59:
 577              		.loc 1 228 0
 578 0000 50B1     		cbz	r0, .L71
 579              		.loc 1 223 0
 580 0002 08B5     		push	{r3, lr}
 581              		.cfi_def_cfa_offset 8
 582              		.cfi_offset 3, -8
 583              		.cfi_offset 14, -4
 584 0004 0346     		mov	r3, r0
 585 0006 0846     		mov	r0, r1
 586              	.LVL60:
 587              		.loc 1 232 0
 588 0008 DB69     		ldr	r3, [r3, #28]
 589              	.LVL61:
 590 000a 1146     		mov	r1, r2
 591              	.LVL62:
 592 000c 9847     		blx	r3
 593              	.LVL63:
 594              		.loc 1 233 0
 595 000e 10B1     		cbz	r0, .L70
 596              		.loc 1 234 0
 597 0010 A0F5A440 		sub	r0, r0, #20992
 598              	.LVL64:
 599 0014 08BD     		pop	{r3, pc}
 600              	.LVL65:
 601              	.L70:
 602              		.loc 1 243 0
 603 0016 08BD     		pop	{r3, pc}
 604              	.LVL66:
 605              	.L71:
 606              		.cfi_def_cfa_offset 0
 607              		.cfi_restore 3
 608              		.cfi_restore 14
 609              		.loc 1 229 0
 610 0018 0048     		ldr	r0, .L75
 611              	.LVL67:
 612 001a 7047     		bx	lr
 613              	.L76:
 614              		.align	2
 615              	.L75:
 616 001c 00AFFFFF 		.word	-20736
 617              		.cfi_endproc
 618              	.LFE12:
 619              		.size	md_file, .-md_file
 620              		.section	.text.md_hmac_starts,"ax",%progbits
 621              		.align	2
 622              		.p2align 4,,15
 623              		.global	md_hmac_starts
ARM GAS  C:\Users\jo\AppData\Local\Temp\ccsKzdiL.s 			page 12


 624              		.thumb
 625              		.thumb_func
 626              		.type	md_hmac_starts, %function
 627              	md_hmac_starts:
 628              	.LFB13:
 629              		.loc 1 246 0
 630              		.cfi_startproc
 631              		@ args = 0, pretend = 0, frame = 0
 632              		@ frame_needed = 0, uses_anonymous_args = 0
 633              	.LVL68:
 634              		.loc 1 247 0
 635 0000 48B1     		cbz	r0, .L79
 636              		.loc 1 246 0 discriminator 1
 637 0002 08B5     		push	{r3, lr}
 638              		.cfi_def_cfa_offset 8
 639              		.cfi_offset 3, -8
 640              		.cfi_offset 14, -4
 641              		.loc 1 247 0 discriminator 1
 642 0004 0368     		ldr	r3, [r0]
 643 0006 23B1     		cbz	r3, .L80
 644              		.loc 1 250 0
 645 0008 1B6A     		ldr	r3, [r3, #32]
 646 000a 4068     		ldr	r0, [r0, #4]
 647              	.LVL69:
 648 000c 9847     		blx	r3
 649              	.LVL70:
 650              		.loc 1 252 0
 651 000e 0020     		movs	r0, #0
 652 0010 08BD     		pop	{r3, pc}
 653              	.LVL71:
 654              	.L80:
 655              		.loc 1 248 0
 656 0012 0248     		ldr	r0, .L82
 657              	.LVL72:
 658              		.loc 1 253 0
 659 0014 08BD     		pop	{r3, pc}
 660              	.LVL73:
 661              	.L79:
 662              		.cfi_def_cfa_offset 0
 663              		.cfi_restore 3
 664              		.cfi_restore 14
 665              		.loc 1 248 0
 666 0016 0148     		ldr	r0, .L82
 667              	.LVL74:
 668              		.loc 1 253 0
 669 0018 7047     		bx	lr
 670              	.L83:
 671 001a 00BF     		.align	2
 672              	.L82:
 673 001c 00AFFFFF 		.word	-20736
 674              		.cfi_endproc
 675              	.LFE13:
 676              		.size	md_hmac_starts, .-md_hmac_starts
 677              		.section	.text.md_hmac_update,"ax",%progbits
 678              		.align	2
 679              		.p2align 4,,15
 680              		.global	md_hmac_update
ARM GAS  C:\Users\jo\AppData\Local\Temp\ccsKzdiL.s 			page 13


 681              		.thumb
 682              		.thumb_func
 683              		.type	md_hmac_update, %function
 684              	md_hmac_update:
 685              	.LFB14:
 686              		.loc 1 256 0
 687              		.cfi_startproc
 688              		@ args = 0, pretend = 0, frame = 0
 689              		@ frame_needed = 0, uses_anonymous_args = 0
 690              	.LVL75:
 691              		.loc 1 257 0
 692 0000 48B1     		cbz	r0, .L86
 693              		.loc 1 256 0 discriminator 1
 694 0002 08B5     		push	{r3, lr}
 695              		.cfi_def_cfa_offset 8
 696              		.cfi_offset 3, -8
 697              		.cfi_offset 14, -4
 698              		.loc 1 257 0 discriminator 1
 699 0004 0368     		ldr	r3, [r0]
 700 0006 23B1     		cbz	r3, .L87
 701              		.loc 1 260 0
 702 0008 5B6A     		ldr	r3, [r3, #36]
 703 000a 4068     		ldr	r0, [r0, #4]
 704              	.LVL76:
 705 000c 9847     		blx	r3
 706              	.LVL77:
 707              		.loc 1 262 0
 708 000e 0020     		movs	r0, #0
 709 0010 08BD     		pop	{r3, pc}
 710              	.LVL78:
 711              	.L87:
 712              		.loc 1 258 0
 713 0012 0248     		ldr	r0, .L89
 714              	.LVL79:
 715              		.loc 1 263 0
 716 0014 08BD     		pop	{r3, pc}
 717              	.LVL80:
 718              	.L86:
 719              		.cfi_def_cfa_offset 0
 720              		.cfi_restore 3
 721              		.cfi_restore 14
 722              		.loc 1 258 0
 723 0016 0148     		ldr	r0, .L89
 724              	.LVL81:
 725              		.loc 1 263 0
 726 0018 7047     		bx	lr
 727              	.L90:
 728 001a 00BF     		.align	2
 729              	.L89:
 730 001c 00AFFFFF 		.word	-20736
 731              		.cfi_endproc
 732              	.LFE14:
 733              		.size	md_hmac_update, .-md_hmac_update
 734              		.section	.text.md_hmac_finish,"ax",%progbits
 735              		.align	2
 736              		.p2align 4,,15
 737              		.global	md_hmac_finish
ARM GAS  C:\Users\jo\AppData\Local\Temp\ccsKzdiL.s 			page 14


 738              		.thumb
 739              		.thumb_func
 740              		.type	md_hmac_finish, %function
 741              	md_hmac_finish:
 742              	.LFB15:
 743              		.loc 1 266 0
 744              		.cfi_startproc
 745              		@ args = 0, pretend = 0, frame = 0
 746              		@ frame_needed = 0, uses_anonymous_args = 0
 747              	.LVL82:
 748              		.loc 1 267 0
 749 0000 48B1     		cbz	r0, .L93
 750              		.loc 1 266 0 discriminator 1
 751 0002 08B5     		push	{r3, lr}
 752              		.cfi_def_cfa_offset 8
 753              		.cfi_offset 3, -8
 754              		.cfi_offset 14, -4
 755              		.loc 1 267 0 discriminator 1
 756 0004 0368     		ldr	r3, [r0]
 757 0006 23B1     		cbz	r3, .L94
 758              		.loc 1 270 0
 759 0008 9B6A     		ldr	r3, [r3, #40]
 760 000a 4068     		ldr	r0, [r0, #4]
 761              	.LVL83:
 762 000c 9847     		blx	r3
 763              	.LVL84:
 764              		.loc 1 272 0
 765 000e 0020     		movs	r0, #0
 766 0010 08BD     		pop	{r3, pc}
 767              	.LVL85:
 768              	.L94:
 769              		.loc 1 268 0
 770 0012 0248     		ldr	r0, .L96
 771              	.LVL86:
 772              		.loc 1 273 0
 773 0014 08BD     		pop	{r3, pc}
 774              	.LVL87:
 775              	.L93:
 776              		.cfi_def_cfa_offset 0
 777              		.cfi_restore 3
 778              		.cfi_restore 14
 779              		.loc 1 268 0
 780 0016 0148     		ldr	r0, .L96
 781              	.LVL88:
 782              		.loc 1 273 0
 783 0018 7047     		bx	lr
 784              	.L97:
 785 001a 00BF     		.align	2
 786              	.L96:
 787 001c 00AFFFFF 		.word	-20736
 788              		.cfi_endproc
 789              	.LFE15:
 790              		.size	md_hmac_finish, .-md_hmac_finish
 791              		.section	.text.md_hmac_reset,"ax",%progbits
 792              		.align	2
 793              		.p2align 4,,15
 794              		.global	md_hmac_reset
ARM GAS  C:\Users\jo\AppData\Local\Temp\ccsKzdiL.s 			page 15


 795              		.thumb
 796              		.thumb_func
 797              		.type	md_hmac_reset, %function
 798              	md_hmac_reset:
 799              	.LFB16:
 800              		.loc 1 276 0
 801              		.cfi_startproc
 802              		@ args = 0, pretend = 0, frame = 0
 803              		@ frame_needed = 0, uses_anonymous_args = 0
 804              	.LVL89:
 805              		.loc 1 277 0
 806 0000 48B1     		cbz	r0, .L100
 807              		.loc 1 276 0 discriminator 1
 808 0002 08B5     		push	{r3, lr}
 809              		.cfi_def_cfa_offset 8
 810              		.cfi_offset 3, -8
 811              		.cfi_offset 14, -4
 812              		.loc 1 277 0 discriminator 1
 813 0004 0368     		ldr	r3, [r0]
 814 0006 23B1     		cbz	r3, .L101
 815              		.loc 1 280 0
 816 0008 DB6A     		ldr	r3, [r3, #44]
 817 000a 4068     		ldr	r0, [r0, #4]
 818              	.LVL90:
 819 000c 9847     		blx	r3
 820              	.LVL91:
 821              		.loc 1 282 0
 822 000e 0020     		movs	r0, #0
 823 0010 08BD     		pop	{r3, pc}
 824              	.LVL92:
 825              	.L101:
 826              		.loc 1 278 0
 827 0012 0248     		ldr	r0, .L103
 828              	.LVL93:
 829              		.loc 1 283 0
 830 0014 08BD     		pop	{r3, pc}
 831              	.LVL94:
 832              	.L100:
 833              		.cfi_def_cfa_offset 0
 834              		.cfi_restore 3
 835              		.cfi_restore 14
 836              		.loc 1 278 0
 837 0016 0148     		ldr	r0, .L103
 838              	.LVL95:
 839              		.loc 1 283 0
 840 0018 7047     		bx	lr
 841              	.L104:
 842 001a 00BF     		.align	2
 843              	.L103:
 844 001c 00AFFFFF 		.word	-20736
 845              		.cfi_endproc
 846              	.LFE16:
 847              		.size	md_hmac_reset, .-md_hmac_reset
 848              		.section	.text.md_hmac,"ax",%progbits
 849              		.align	2
 850              		.p2align 4,,15
 851              		.global	md_hmac
ARM GAS  C:\Users\jo\AppData\Local\Temp\ccsKzdiL.s 			page 16


 852              		.thumb
 853              		.thumb_func
 854              		.type	md_hmac, %function
 855              	md_hmac:
 856              	.LFB17:
 857              		.loc 1 288 0
 858              		.cfi_startproc
 859              		@ args = 8, pretend = 0, frame = 0
 860              		@ frame_needed = 0, uses_anonymous_args = 0
 861              	.LVL96:
 862              		.loc 1 289 0
 863 0000 68B1     		cbz	r0, .L107
 864              		.loc 1 288 0
 865 0002 10B5     		push	{r4, lr}
 866              		.cfi_def_cfa_offset 8
 867              		.cfi_offset 4, -8
 868              		.cfi_offset 14, -4
 869 0004 82B0     		sub	sp, sp, #8
 870              		.cfi_def_cfa_offset 16
 871 0006 0446     		mov	r4, r0
 872 0008 0846     		mov	r0, r1
 873              	.LVL97:
 874              		.loc 1 292 0
 875 000a 0599     		ldr	r1, [sp, #20]
 876              	.LVL98:
 877 000c 0091     		str	r1, [sp]
 878 000e 246B     		ldr	r4, [r4, #48]
 879              	.LVL99:
 880 0010 1146     		mov	r1, r2
 881 0012 1A46     		mov	r2, r3
 882              	.LVL100:
 883 0014 049B     		ldr	r3, [sp, #16]
 884              	.LVL101:
 885 0016 A047     		blx	r4
 886              	.LVL102:
 887              		.loc 1 294 0
 888 0018 0020     		movs	r0, #0
 889              		.loc 1 295 0
 890 001a 02B0     		add	sp, sp, #8
 891              		.cfi_def_cfa_offset 8
 892              		@ sp needed
 893 001c 10BD     		pop	{r4, pc}
 894              	.LVL103:
 895              	.L107:
 896              		.cfi_def_cfa_offset 0
 897              		.cfi_restore 4
 898              		.cfi_restore 14
 899              		.loc 1 290 0
 900 001e 0148     		ldr	r0, .L110
 901              	.LVL104:
 902 0020 7047     		bx	lr
 903              	.L111:
 904 0022 00BF     		.align	2
 905              	.L110:
 906 0024 00AFFFFF 		.word	-20736
 907              		.cfi_endproc
 908              	.LFE17:
ARM GAS  C:\Users\jo\AppData\Local\Temp\ccsKzdiL.s 			page 17


 909              		.size	md_hmac, .-md_hmac
 910 0028 AFF30080 		.section	.rodata.supported_digests,"a",%progbits
 910      AFF30080 
 911              		.align	2
 912              		.set	.LANCHOR0,. + 0
 913              		.type	supported_digests, %object
 914              		.size	supported_digests, 28
 915              	supported_digests:
 916 0000 03000000 		.word	3
 917 0004 04000000 		.word	4
 918 0008 05000000 		.word	5
 919 000c 06000000 		.word	6
 920 0010 07000000 		.word	7
 921 0014 08000000 		.word	8
 922 0018 00000000 		.word	0
 923              		.section	.rodata.str1.4,"aMS",%progbits,1
 924              		.align	2
 925              	.LC0:
 926 0000 4D443500 		.ascii	"MD5\000"
 927              	.LC1:
 928 0004 53484131 		.ascii	"SHA1\000"
 928      00
 929 0009 000000   		.space	3
 930              	.LC2:
 931 000c 53484100 		.ascii	"SHA\000"
 932              	.LC3:
 933 0010 53484132 		.ascii	"SHA224\000"
 933      323400
 934 0017 00       		.space	1
 935              	.LC4:
 936 0018 53484132 		.ascii	"SHA256\000"
 936      353600
 937 001f 00       		.space	1
 938              	.LC5:
 939 0020 53484133 		.ascii	"SHA384\000"
 939      383400
 940 0027 00       		.space	1
 941              	.LC6:
 942 0028 53484135 		.ascii	"SHA512\000"
 942      313200
 943 002f 00       		.section	.rodata.CSWTCH.2,"a",%progbits
 944              		.align	2
 945              		.set	.LANCHOR1,. + 0
 946              		.type	CSWTCH.2, %object
 947              		.size	CSWTCH.2, 24
 948              	CSWTCH.2:
 949 0000 00000000 		.word	md5_info
 950 0004 00000000 		.word	sha1_info
 951 0008 00000000 		.word	sha224_info
 952 000c 00000000 		.word	sha256_info
 953 0010 00000000 		.word	sha384_info
 954 0014 00000000 		.word	sha512_info
 955              		.text
 956              	.Letext0:
 957              		.file 2 "c:\\program files\\gnu tools arm embedded\\4.9 2014q4\\lib\\gcc\\arm-none-eabi\\4.9.3\\in
 958              		.file 3 "../../../demos/STM32/RT-STM32F407-DISCOVERY-uHttp/uhttp-1.1/PolarSSL/include/polarssl/md.
 959              		.file 4 "../../../demos/STM32/RT-STM32F407-DISCOVERY-uHttp/uhttp-1.1/PolarSSL/include/polarssl/md_
ARM GAS  C:\Users\jo\AppData\Local\Temp\ccsKzdiL.s 			page 18


 960              		.file 5 "c:\\program files\\gnu tools arm embedded\\4.9 2014q4\\arm-none-eabi\\include\\string.h"