ARM GAS  C:\Users\jo\AppData\Local\Temp\ccTpNVcl.s 			page 1


   1              		.syntax unified
   2              		.cpu cortex-m4
   3              		.fpu softvfp
   4              		.eabi_attribute 20, 1
   5              		.eabi_attribute 21, 1
   6              		.eabi_attribute 23, 3
   7              		.eabi_attribute 24, 1
   8              		.eabi_attribute 25, 1
   9              		.eabi_attribute 26, 1
  10              		.eabi_attribute 30, 2
  11              		.eabi_attribute 34, 1
  12              		.eabi_attribute 18, 4
  13              		.thumb
  14              		.file	"mtinit.c"
  15              		.text
  16              	.Ltext0:
  17              		.cfi_sections	.debug_frame
  18              		.section	.text.MediaTypeInitDefaults,"ax",%progbits
  19              		.align	2
  20              		.p2align 4,,15
  21              		.global	MediaTypeInitDefaults
  22              		.thumb
  23              		.thumb_func
  24              		.type	MediaTypeInitDefaults, %function
  25              	MediaTypeInitDefaults:
  26              	.LFB256:
  27              		.file 1 "../../../demos/STM32/RT-STM32F407-DISCOVERY-uHttp/uhttp-1.1/mtinit.c"
  28              		.loc 1 93 0
  29              		.cfi_startproc
  30              		@ args = 0, pretend = 0, frame = 0
  31              		@ frame_needed = 0, uses_anonymous_args = 0
  32              		@ link register save eliminated.
  33              	.LVL0:
  34 0000 70B4     		push	{r4, r5, r6}
  35              		.cfi_def_cfa_offset 12
  36              		.cfi_offset 4, -12
  37              		.cfi_offset 5, -8
  38              		.cfi_offset 6, -4
  39 0002 0F4B     		ldr	r3, .L10
  40              		.loc 1 96 0
  41 0004 0F4E     		ldr	r6, .L10+4
  42 0006 0025     		movs	r5, #0
  43 0008 2A46     		mov	r2, r5
  44 000a 03F59074 		add	r4, r3, #288
  45              		.loc 1 98 0
  46 000e 2846     		mov	r0, r5
  47 0010 4AB1     		cbz	r2, .L2
  48              	.L9:
  49              		.loc 1 98 0 is_stmt 0 discriminator 1
  50 0012 5360     		str	r3, [r2, #4]
  51 0014 1946     		mov	r1, r3
  52 0016 1A60     		str	r2, [r3]
  53 0018 5860     		str	r0, [r3, #4]
  54 001a 2433     		adds	r3, r3, #36
  55              		.loc 1 97 0 is_stmt 1 discriminator 1
  56 001c A342     		cmp	r3, r4
  57 001e 09D0     		beq	.L8
ARM GAS  C:\Users\jo\AppData\Local\Temp\ccTpNVcl.s 			page 2


  58              	.L5:
  59 0020 0A46     		mov	r2, r1
  60              		.loc 1 98 0
  61 0022 002A     		cmp	r2, #0
  62 0024 F5D1     		bne	.L9
  63              	.L2:
  64              		.loc 1 98 0 is_stmt 0 discriminator 2
  65 0026 1A60     		str	r2, [r3]
  66 0028 5860     		str	r0, [r3, #4]
  67 002a 1D46     		mov	r5, r3
  68 002c 1946     		mov	r1, r3
  69 002e 2433     		adds	r3, r3, #36
  70              		.loc 1 97 0 is_stmt 1 discriminator 2
  71 0030 A342     		cmp	r3, r4
  72 0032 F5D1     		bne	.L5
  73              	.L8:
  74 0034 3560     		str	r5, [r6]
  75 0036 7160     		str	r1, [r6, #4]
  76              		.loc 1 101 0
  77 0038 0020     		movs	r0, #0
  78 003a 70BC     		pop	{r4, r5, r6}
  79              		.cfi_restore 6
  80              		.cfi_restore 5
  81              		.cfi_restore 4
  82              		.cfi_def_cfa_offset 0
  83 003c 7047     		bx	lr
  84              	.L11:
  85 003e 00BF     		.align	2
  86              	.L10:
  87 0040 00000000 		.word	.LANCHOR0
  88 0044 00000000 		.word	mediaTypeList
  89              		.cfi_endproc
  90              	.LFE256:
  91              		.size	MediaTypeInitDefaults, .-MediaTypeInitDefaults
  92              		.global	mtc_application
  93 0048 AFF30080 		.section	.data.mt_defaults,"aw",%progbits
  93      AFF30080 
  94              		.align	2
  95              		.set	.LANCHOR0,. + 0
  96              		.type	mt_defaults, %object
  97              		.size	mt_defaults, 288
  98              	mt_defaults:
  99 0000 FFFFFFFF 		.word	-1
 100 0004 FFFFFFFF 		.word	-1
 101 0008 00000000 		.word	mtc_text
 102 000c 00000000 		.word	.LC0
 103 0010 01000000 		.word	1
 104 0014 00000000 		.word	MediaTypeHandlerText
 105 0018 74787400 		.ascii	"txt\000"
 106 001c 00000000 		.space	5
 106      00
 107 0021 000000   		.space	3
 108 0024 FFFFFFFF 		.word	-1
 109 0028 FFFFFFFF 		.word	-1
 110 002c 00000000 		.word	mtc_image
 111 0030 08000000 		.word	.LC1
 112 0034 01000000 		.word	1
ARM GAS  C:\Users\jo\AppData\Local\Temp\ccTpNVcl.s 			page 3


 113 0038 00000000 		.word	MediaTypeHandlerBinary
 114 003c 73766700 		.ascii	"svg\000"
 115 0040 00000000 		.space	5
 115      00
 116 0045 000000   		.space	3
 117 0048 FFFFFFFF 		.word	-1
 118 004c FFFFFFFF 		.word	-1
 119 0050 00000000 		.word	mtc_image
 120 0054 10000000 		.word	.LC2
 121 0058 01000000 		.word	1
 122 005c 00000000 		.word	MediaTypeHandlerBinary
 123 0060 706E6700 		.ascii	"png\000"
 124 0064 00000000 		.space	5
 124      00
 125 0069 000000   		.space	3
 126 006c FFFFFFFF 		.word	-1
 127 0070 FFFFFFFF 		.word	-1
 128 0074 00000000 		.word	mtc_text
 129 0078 14000000 		.word	.LC3
 130 007c 01000000 		.word	1
 131 0080 00000000 		.word	MediaTypeHandlerText
 132 0084 6A7300   		.ascii	"js\000"
 133 0087 00000000 		.space	6
 133      0000
 134 008d 000000   		.space	3
 135 0090 FFFFFFFF 		.word	-1
 136 0094 FFFFFFFF 		.word	-1
 137 0098 00000000 		.word	mtc_image
 138 009c 20000000 		.word	.LC4
 139 00a0 01000000 		.word	1
 140 00a4 00000000 		.word	MediaTypeHandlerBinary
 141 00a8 6A706700 		.ascii	"jpg\000"
 142 00ac 00000000 		.space	5
 142      00
 143 00b1 000000   		.space	3
 144 00b4 FFFFFFFF 		.word	-1
 145 00b8 FFFFFFFF 		.word	-1
 146 00bc 00000000 		.word	mtc_text
 147 00c0 28000000 		.word	.LC5
 148 00c4 01000000 		.word	1
 149 00c8 00000000 		.word	MediaTypeHandlerText
 150 00cc 68746D6C 		.ascii	"html\000"
 150      00
 151 00d1 00000000 		.space	4
 152 00d5 000000   		.space	3
 153 00d8 FFFFFFFF 		.word	-1
 154 00dc FFFFFFFF 		.word	-1
 155 00e0 00000000 		.word	mtc_image
 156 00e4 00000000 		.word	0
 157 00e8 01000000 		.word	1
 158 00ec 00000000 		.word	MediaTypeHandlerBinary
 159 00f0 67696600 		.ascii	"gif\000"
 160 00f4 00000000 		.space	5
 160      00
 161 00f9 000000   		.space	3
 162 00fc FFFFFFFF 		.word	-1
 163 0100 FFFFFFFF 		.word	-1
ARM GAS  C:\Users\jo\AppData\Local\Temp\ccTpNVcl.s 			page 4


 164 0104 00000000 		.word	mtc_text
 165 0108 00000000 		.word	0
 166 010c 01000000 		.word	1
 167 0110 00000000 		.word	MediaTypeHandlerText
 168 0114 63737300 		.ascii	"css\000"
 169 0118 00000000 		.space	5
 169      00
 170 011d 000000   		.space	3
 171              		.section	.data.mtc_image,"aw",%progbits
 172              		.align	2
 173              		.type	mtc_image, %object
 174              		.size	mtc_image, 6
 175              	mtc_image:
 176 0000 696D6167 		.ascii	"image\000"
 176      6500
 177 0006 0000     		.section	.rodata.str1.4,"aMS",%progbits,1
 178              		.align	2
 179              	.LC0:
 180 0000 706C6169 		.ascii	"plain\000"
 180      6E00
 181 0006 0000     		.space	2
 182              	.LC1:
 183 0008 7376672B 		.ascii	"svg+xml\000"
 183      786D6C00 
 184              	.LC2:
 185 0010 706E6700 		.ascii	"png\000"
 186              	.LC3:
 187 0014 6A617661 		.ascii	"javascript\000"
 187      73637269 
 187      707400
 188 001f 00       		.space	1
 189              	.LC4:
 190 0020 6A706567 		.ascii	"jpeg\000"
 190      00
 191 0025 000000   		.space	3
 192              	.LC5:
 193 0028 68746D6C 		.ascii	"html\000"
 193      00
 194 002d 000000   		.section	.data.mtc_application,"aw",%progbits
 195              		.align	2
 196              		.type	mtc_application, %object
 197              		.size	mtc_application, 12
 198              	mtc_application:
 199 0000 6170706C 		.ascii	"application\000"
 199      69636174 
 199      696F6E00 
 200              		.section	.data.mtc_text,"aw",%progbits
 201              		.align	2
 202              		.type	mtc_text, %object
 203              		.size	mtc_text, 5
 204              	mtc_text:
 205 0000 74657874 		.ascii	"text\000"
 205      00
 206 0005 000000   		.text
 207              	.Letext0:
 208              		.file 2 "c:\\program files\\gnu tools arm embedded\\4.9 2014q4\\lib\\gcc\\arm-none-eabi\\4.9.3\\in
 209              		.file 3 "c:\\program files\\gnu tools arm embedded\\4.9 2014q4\\arm-none-eabi\\include\\machine\\_
ARM GAS  C:\Users\jo\AppData\Local\Temp\ccTpNVcl.s 			page 5


 210              		.file 4 "c:\\program files\\gnu tools arm embedded\\4.9 2014q4\\arm-none-eabi\\include\\stdint.h"
 211              		.file 5 "../../../os/rt/ports/ARMCMx/compilers/GCC/chtypes.h"
 212              		.file 6 "../../../os/rt/include/chsystypes.h"
 213              		.file 7 "../../../os/rt/include/chschd.h"
 214              		.file 8 "../../../os/rt/ports/ARMCMx/chcore.h"
 215              		.file 9 "../../../os/rt/ports/ARMCMx/chcore_v7m.h"
 216              		.file 10 "../../../os/rt/include/chdebug.h"
 217              		.file 11 "../../../os/rt/include/chtm.h"
 218              		.file 12 "../../../os/rt/include/chstats.h"
 219              		.file 13 "../../../os/rt/include/chmtx.h"
 220              		.file 14 "../../../os/various/lwip_bindings/arch/cc.h"
 221              		.file 15 "../../../os/ext/lwip-1.4.1/src/include/ipv4/lwip/inet.h"
 222              		.file 16 "../../../os/ext/lwip-1.4.1/src/include/lwip\\sockets.h"
 223              		.file 17 "./uhttp-1.1/pro/lwip/streamio.h"
 224              		.file 18 "./os/streamio.h"
 225              		.file 19 "./uhttp-1.1/uhttpd.h"
 226              		.file 20 "./uhttp-1.1/mediatypes.h"
 227              		.file 21 "../../../os/ext/CMSIS/include/core_cm4.h"