ARM GAS  C:\Users\jo\AppData\Local\Temp\ccTpNVcl.s 			page 1


   1              		.syntax unified
   2              		.cpu cortex-m4
   3              		.fpu softvfp
   4              		.eabi_attribute 20, 1
   5              		.eabi_attribute 21, 1
   6              		.eabi_attribute 23, 3
   7              		.eabi_attribute 24, 1
   8              		.eabi_attribute 25, 1
   9              		.eabi_attribute 26, 1
  10              		.eabi_attribute 30, 2
  11              		.eabi_attribute 34, 1
  12              		.eabi_attribute 18, 4
  13              		.thumb
  14              		.file	"mtinit.c"
  15              		.text
  16              	.Ltext0:
  17              		.cfi_sections	.debug_frame
  18              		.section	.text.MediaTypeInitDefaults,"ax",%progbits
  19              		.align	2
  20              		.p2align 4,,15
  21              		.global	MediaTypeInitDefaults
  22              		.thumb
  23              		.thumb_func
  24              		.type	MediaTypeInitDefaults, %function
  25              	MediaTypeInitDefaults:
  26              	.LFB256:
  27              		.file 1 "../../../demos/STM32/RT-STM32F407-DISCOVERY-uHttp/uhttp-1.1/mtinit.c"
  28              		.loc 1 93 0
  29              		.cfi_startproc
  30              		@ args = 0, pretend = 0, frame = 0
  31              		@ frame_needed = 0, uses_anonymous_args = 0
  32              		@ link register save eliminated.
  33              	.LVL0:
  34 0000 70B4     		push	{r4, r5, r6}
  35              		.cfi_def_cfa_offset 12
  36              		.cfi_offset 4, -12
  37              		.cfi_offset 5, -8
  38              		.cfi_offset 6, -4
  39 0002 0F4B     		ldr	r3, .L10
  40              		.loc 1 96 0
  41 0004 0F4E     		ldr	r6, .L10+4
  42 0006 0025     		movs	r5, #0
  43 0008 2A46     		mov	r2, r5
  44 000a 03F59074 		add	r4, r3, #288
  45              		.loc 1 98 0
  46 000e 2846     		mov	r0, r5
  47 0010 4AB1     		cbz	r2, .L2
  48              	.L9:
  49              		.loc 1 98 0 is_stmt 0 discriminator 1
  50 0012 5360     		str	r3, [r2, #4]
  51 0014 1946     		mov	r1, r3
  52 0016 1A60     		str	r2, [r3]
  53 0018 5860     		str	r0, [r3, #4]
  54 001a 2433     		adds	r3, r3, #36
  55              		.loc 1 97 0 is_stmt 1 discriminator 1
  56 001c A342     		cmp	r3, r4
  57 001e 09D0     		beq	.L8
ARM GAS  C:\Users\jo\AppData\Local\Temp\ccTpNVcl.s 			page 2


  58              	.L5:
  59 0020 0A46     		mov	r2, r1
  60              		.loc 1 98 0
  61 0022 002A     		cmp	r2, #0
  62 0024 F5D1     		bne	.L9
  63              	.L2:
  64              		.loc 1 98 0 is_stmt 0 discriminator 2
  65 0026 1A60     		str	r2, [r3]
  66 0028 5860     		str	r0, [r3, #4]
  67 002a 1D46     		mov	r5, r3
  68 002c 1946     		mov	r1, r3
  69 002e 2433     		adds	r3, r3, #36
  70              		.loc 1 97 0 is_stmt 1 discriminator 2
  71 0030 A342     		cmp	r3, r4
  72 0032 F5D1     		bne	.L5
  73              	.L8:
  74 0034 3560     		str	r5, [r6]
  75 0036 7160     		str	r1, [r6, #4]
  76              		.loc 1 101 0
  77 0038 0020     		movs	r0, #0
  78 003a 70BC     		pop	{r4, r5, r6}
  79              		.cfi_restore 6
  80              		.cfi_restore 5
  81              		.cfi_restore 4
  82              		.cfi_def_cfa_offset 0
  83 003c 7047     		bx	lr
  84              	.L11:
  85 003e 00BF     		.align	2
  86              	.L10:
  87 0040 00000000 		.word	.LANCHOR0
  88 0044 00000000 		.word	mediaTypeList
  89              		.cfi_endproc
  90              	.LFE256:
  91              		.size	MediaTypeInitDefaults, .-MediaTypeInitDefaults
  92              		.global	mtc_application
  93 0048 AFF30080 		.section	.data.mt_defaults,"aw",%progbits
  93      AFF30080 
  94              		.align	2
  95              		.set	.LANCHOR0,. + 0
  96              		.type	mt_defaults, %object
  97              		.size	mt_defaults, 288
  98              	mt_defaults:
  99 0000 FFFFFFFF 		.word	-1
 100 0004 FFFFFFFF 		.word	-1
 101 0008 00000000 		.word	mtc_text
 102 000c 00000000 		.word	.LC0
 103 0010 01000000 		.word	1
 104 0014 00000000 		.word	MediaTypeHandlerText
 105 0018 74787400 		.ascii	"txt\000"
 106 001c 00000000 		.space	5
 106      00
 107 0021 000000   		.space	3
 108 0024 FFFFFFFF 		.word	-1
 109 0028 FFFFFFFF 		.word	-1
 110 002c 00000000 		.word	mtc_image
 111 0030 08000000 		.word	.LC1
 112 0034 01000000 		.word	1
ARM GAS  C:\Users\jo\AppData\Local\Temp\ccTpNVcl.s 			page 3


 113 0038 00000000 		.word	MediaTypeHandlerBinary
 114 003c 73766700 		.ascii	"svg\000"
 115 0040 00000000 		.space	5
 115      00
 116 0045 000000   		.space	3
 117 0048 FFFFFFFF 		.word	-1
 118 004c FFFFFFFF 		.word	-1
 119 0050 00000000 		.word	mtc_image
 120 0054 10000000 		.word	.LC2
 121 0058 01000000 		.word	1
 122 005c 00000000 		.word	MediaTypeHandlerBinary
 123 0060 706E6700 		.ascii	"png\000"
 124 0064 00000000 		.space	5
 124      00
 125 0069 000000   		.space	3
 126 006c FFFFFFFF 		.word	-1
 127 0070 FFFFFFFF 		.word	-1
 128 0074 00000000 		.word	mtc_text
 129 0078 14000000 		.word	.LC3
 130 007c 01000000 		.word	1
 131 0080 00000000 		.word	MediaTypeHandlerText
 132 0084 6A7300   		.ascii	"js\000"
 133 0087 00000000 		.space	6
 133      0000
 134 008d 000000   		.space	3
 135 0090 FFFFFFFF 		.word	-1
 136 0094 FFFFFFFF 		.word	-1
 137 0098 00000000 		.word	mtc_image
 138 009c 20000000 		.word	.LC4
 139 00a0 01000000 		.word	1
 140 00a4 00000000 		.word	MediaTypeHandlerBinary
 141 00a8 6A706700 		.ascii	"jpg\000"
 142 00ac 00000000 		.space	5
 142      00
 143 00b1 000000   		.space	3
 144 00b4 FFFFFFFF 		.word	-1
 145 00b8 FFFFFFFF 		.word	-1
 146 00bc 00000000 		.word	mtc_text
 147 00c0 28000000 		.word	.LC5
 148 00c4 01000000 		.word	1
 149 00c8 00000000 		.word	MediaTypeHandlerText
 150 00cc 68746D6C 		.ascii	"html\000"
 150      00
 151 00d1 00000000 		.space	4
 152 00d5 000000   		.space	3
 153 00d8 FFFFFFFF 		.word	-1
 154 00dc FFFFFFFF 		.word	-1
 155 00e0 00000000 		.word	mtc_image
 156 00e4 00000000 		.word	0
 157 00e8 01000000 		.word	1
 158 00ec 00000000 		.word	MediaTypeHandlerBinary
 159 00f0 67696600 		.ascii	"gif\000"
 160 00f4 00000000 		.space	5
 160      00
 161 00f9 000000   		.space	3
 162 00fc FFFFFFFF 		.word	-1
 163 0100 FFFFFFFF 		.word	-1
ARM GAS  C:\Users\jo\AppData\Local\Temp\ccTpNVcl.s 			page 4


 164 0104 00000000 		.word	mtc_text
 165 0108 00000000 		.word	0
 166 010c 01000000 		.word	1
 167 0110 00000000 		.word	MediaTypeHandlerText
 168 0114 63737300 		.ascii	"css\000"
 169 0118 00000000 		.space	5
 169      00
 170 011d 000000   		.space	3
 171              		.section	.data.mtc_image,"aw",%progbits
 172              		.align	2
 173              		.type	mtc_image, %object
 174              		.size	mtc_image, 6
 175              	mtc_image:
 176 0000 696D6167 		.ascii	"image\000"
 176      6500
 177 0006 0000     		.section	.rodata.str1.4,"aMS",%progbits,1
 178              		.align	2
 179              	.LC0:
 180 0000 706C6169 		.ascii	"plain\000"
 180      6E00
 181 0006 0000     		.space	2
 182              	.LC1:
 183 0008 7376672B 		.ascii	"svg+xml\000"
 183      786D6C00 
 184              	.LC2:
 185 0010 706E6700 		.ascii	"png\000"
 186              	.LC3:
 187 0014 6A617661 		.ascii	"javascript\000"
 187      73637269 
 187      707400
 188 001f 00       		.space	1
 189              	.LC4:
 190 0020 6A706567 		.ascii	"jpeg\000"
 190      00
 191 0025 000000   		.space	3
 192              	.LC5:
 193 0028 68746D6C 		.ascii	"html\000"
 193      00
 194 002d 000000   		.section	.data.mtc_application,"aw",%progbits
 195              		.align	2
 196              		.type	mtc_application, %object
 197              		.size	mtc_application, 12
 198              	mtc_application:
 199 0000 6170706C 		.ascii	"application\000"
 199      69636174 
 199      696F6E00 
 200              		.section	.data.mtc_text,"aw",%progbits
 201              		.align	2
 202              		.type	mtc_text, %object
 203              		.size	mtc_text, 5
 204              	mtc_text:
 205 0000 74657874 		.ascii	"text\000"
 205      00
 206 0005 000000   		.text
 207              	.Letext0:
 208              		.file 2 "c:\\program files\\gnu tools arm embedded\\4.9 2014q4\\lib\\gcc\\arm-none-eabi\\4.9.3\\in
 209              		.file 3 "c:\\program files\\gnu tools arm embedded\\4.9 2014q4\\arm-none-eabi\\include\\machine\\_
ARM GAS  C:\Users\jo\AppData\Local\Temp\ccTpNVcl.s 			page 5


 210              		.file 4 "c:\\program files\\gnu tools arm embedded\\4.9 2014q4\\arm-none-eabi\\include\\stdint.h"
 211              		.file 5 "../../../os/rt/ports/ARMCMx/compilers/GCC/chtypes.h"
 212              		.file 6 "../../../os/rt/include/chsystypes.h"
 213              		.file 7 "../../../os/rt/include/chschd.h"
 214              		.file 8 "../../../os/rt/ports/ARMCMx/chcore.h"
 215              		.file 9 "../../../os/rt/ports/ARMCMx/chcore_v7m.h"
 216              		.file 10 "../../../os/rt/include/chdebug.h"
 217              		.file 11 "../../../os/rt/include/chtm.h"
 218              		.file 12 "../../../os/rt/include/chstats.h"
 219              		.file 13 "../../../os/rt/include/chmtx.h"
 220              		.file 14 "../../../os/various/lwip_bindings/arch/cc.h"
 221              		.file 15 "../../../os/ext/lwip-1.4.1/src/include/ipv4/lwip/inet.h"
 222              		.file 16 "../../../os/ext/lwip-1.4.1/src/include/lwip\\sockets.h"
 223              		.file 17 "./uhttp-1.1/pro/lwip/streamio.h"
 224              		.file 18 "./os/streamio.h"
 225              		.file 19 "./uhttp-1.1/uhttpd.h"
 226              		.file 20 "./uhttp-1.1/mediatypes.h"
 227              		.file 21 "../../../os/ext/CMSIS/include/core_cm4.h"
 228              		.section	.debug_info,"",%progbits
 229              	.Ldebug_info0:
 230 0000 7B0B0000 		.4byte	0xb7b
 231 0004 0400     		.2byte	0x4
 232 0006 00000000 		.4byte	.Ldebug_abbrev0
 233 000a 04       		.byte	0x4
 234 000b 01       		.uleb128 0x1
 235 000c E7030000 		.4byte	.LASF189
 236 0010 01       		.byte	0x1
 237 0011 17070000 		.4byte	.LASF190
 238 0015 51010000 		.4byte	.LASF191
 239 0019 00000000 		.4byte	.Ldebug_ranges0+0
 240 001d 00000000 		.4byte	0
 241 0021 00000000 		.4byte	.Ldebug_line0
 242 0025 02       		.uleb128 0x2
 243 0026 04       		.byte	0x4
 244 0027 05       		.byte	0x5
 245 0028 696E7400 		.ascii	"int\000"
 246 002c 03       		.uleb128 0x3
 247 002d 37000000 		.4byte	.LASF2
 248 0031 02       		.byte	0x2
 249 0032 D4       		.byte	0xd4
 250 0033 37000000 		.4byte	0x37
 251 0037 04       		.uleb128 0x4
 252 0038 04       		.byte	0x4
 253 0039 07       		.byte	0x7
 254 003a D8020000 		.4byte	.LASF0
 255 003e 04       		.uleb128 0x4
 256 003f 01       		.byte	0x1
 257 0040 06       		.byte	0x6
 258 0041 BA010000 		.4byte	.LASF1
 259 0045 03       		.uleb128 0x3
 260 0046 74000000 		.4byte	.LASF3
 261 004a 03       		.byte	0x3
 262 004b 1D       		.byte	0x1d
 263 004c 50000000 		.4byte	0x50
 264 0050 04       		.uleb128 0x4
 265 0051 01       		.byte	0x1
 266 0052 08       		.byte	0x8
ARM GAS  C:\Users\jo\AppData\Local\Temp\ccTpNVcl.s 			page 6


 267 0053 40060000 		.4byte	.LASF4
 268 0057 04       		.uleb128 0x4
 269 0058 02       		.byte	0x2
 270 0059 05       		.byte	0x5
 271 005a 58060000 		.4byte	.LASF5
 272 005e 03       		.uleb128 0x3
 273 005f 7C070000 		.4byte	.LASF6
 274 0063 03       		.byte	0x3
 275 0064 2B       		.byte	0x2b
 276 0065 69000000 		.4byte	0x69
 277 0069 04       		.uleb128 0x4
 278 006a 02       		.byte	0x2
 279 006b 07       		.byte	0x7
 280 006c 59020000 		.4byte	.LASF7
 281 0070 03       		.uleb128 0x3
 282 0071 CE030000 		.4byte	.LASF8
 283 0075 03       		.byte	0x3
 284 0076 3F       		.byte	0x3f
 285 0077 7B000000 		.4byte	0x7b
 286 007b 04       		.uleb128 0x4
 287 007c 04       		.byte	0x4
 288 007d 05       		.byte	0x5
 289 007e 0F020000 		.4byte	.LASF9
 290 0082 03       		.uleb128 0x3
 291 0083 C8070000 		.4byte	.LASF10
 292 0087 03       		.byte	0x3
 293 0088 41       		.byte	0x41
 294 0089 8D000000 		.4byte	0x8d
 295 008d 04       		.uleb128 0x4
 296 008e 04       		.byte	0x4
 297 008f 07       		.byte	0x7
 298 0090 05070000 		.4byte	.LASF11
 299 0094 04       		.uleb128 0x4
 300 0095 08       		.byte	0x8
 301 0096 05       		.byte	0x5
 302 0097 AC010000 		.4byte	.LASF12
 303 009b 03       		.uleb128 0x3
 304 009c B0050000 		.4byte	.LASF13
 305 00a0 03       		.byte	0x3
 306 00a1 5B       		.byte	0x5b
 307 00a2 A6000000 		.4byte	0xa6
 308 00a6 04       		.uleb128 0x4
 309 00a7 08       		.byte	0x8
 310 00a8 07       		.byte	0x7
 311 00a9 D3000000 		.4byte	.LASF14
 312 00ad 03       		.uleb128 0x3
 313 00ae 8E080000 		.4byte	.LASF15
 314 00b2 04       		.byte	0x4
 315 00b3 15       		.byte	0x15
 316 00b4 45000000 		.4byte	0x45
 317 00b8 03       		.uleb128 0x3
 318 00b9 48020000 		.4byte	.LASF16
 319 00bd 04       		.byte	0x4
 320 00be 21       		.byte	0x21
 321 00bf 5E000000 		.4byte	0x5e
 322 00c3 03       		.uleb128 0x3
 323 00c4 38060000 		.4byte	.LASF17
ARM GAS  C:\Users\jo\AppData\Local\Temp\ccTpNVcl.s 			page 7


 324 00c8 04       		.byte	0x4
 325 00c9 2C       		.byte	0x2c
 326 00ca 70000000 		.4byte	0x70
 327 00ce 03       		.uleb128 0x3
 328 00cf D0060000 		.4byte	.LASF18
 329 00d3 04       		.byte	0x4
 330 00d4 2D       		.byte	0x2d
 331 00d5 82000000 		.4byte	0x82
 332 00d9 03       		.uleb128 0x3
 333 00da 55050000 		.4byte	.LASF19
 334 00de 04       		.byte	0x4
 335 00df 39       		.byte	0x39
 336 00e0 9B000000 		.4byte	0x9b
 337 00e4 05       		.uleb128 0x5
 338 00e5 C3000000 		.4byte	0xc3
 339 00e9 03       		.uleb128 0x3
 340 00ea F2070000 		.4byte	.LASF20
 341 00ee 05       		.byte	0x5
 342 00ef 45       		.byte	0x45
 343 00f0 CE000000 		.4byte	0xce
 344 00f4 03       		.uleb128 0x3
 345 00f5 41010000 		.4byte	.LASF21
 346 00f9 05       		.byte	0x5
 347 00fa 46       		.byte	0x46
 348 00fb D9000000 		.4byte	0xd9
 349 00ff 03       		.uleb128 0x3
 350 0100 95030000 		.4byte	.LASF22
 351 0104 05       		.byte	0x5
 352 0105 48       		.byte	0x48
 353 0106 AD000000 		.4byte	0xad
 354 010a 03       		.uleb128 0x3
 355 010b 26020000 		.4byte	.LASF23
 356 010f 05       		.byte	0x5
 357 0110 49       		.byte	0x49
 358 0111 AD000000 		.4byte	0xad
 359 0115 03       		.uleb128 0x3
 360 0116 D9050000 		.4byte	.LASF24
 361 011a 05       		.byte	0x5
 362 011b 4A       		.byte	0x4a
 363 011c AD000000 		.4byte	0xad
 364 0120 03       		.uleb128 0x3
 365 0121 10060000 		.4byte	.LASF25
 366 0125 05       		.byte	0x5
 367 0126 4C       		.byte	0x4c
 368 0127 CE000000 		.4byte	0xce
 369 012b 03       		.uleb128 0x3
 370 012c 77030000 		.4byte	.LASF26
 371 0130 05       		.byte	0x5
 372 0131 4D       		.byte	0x4d
 373 0132 C3000000 		.4byte	0xc3
 374 0136 03       		.uleb128 0x3
 375 0137 C2030000 		.4byte	.LASF27
 376 013b 05       		.byte	0x5
 377 013c 4F       		.byte	0x4f
 378 013d CE000000 		.4byte	0xce
 379 0141 03       		.uleb128 0x3
 380 0142 C7020000 		.4byte	.LASF28
ARM GAS  C:\Users\jo\AppData\Local\Temp\ccTpNVcl.s 			page 8


 381 0146 05       		.byte	0x5
 382 0147 51       		.byte	0x51
 383 0148 C3000000 		.4byte	0xc3
 384 014c 03       		.uleb128 0x3
 385 014d 82030000 		.4byte	.LASF29
 386 0151 05       		.byte	0x5
 387 0152 52       		.byte	0x52
 388 0153 CE000000 		.4byte	0xce
 389 0157 03       		.uleb128 0x3
 390 0158 AA070000 		.4byte	.LASF30
 391 015c 06       		.byte	0x6
 392 015d 33       		.byte	0x33
 393 015e CE000000 		.4byte	0xce
 394 0162 03       		.uleb128 0x3
 395 0163 87070000 		.4byte	.LASF31
 396 0167 06       		.byte	0x6
 397 0168 3F       		.byte	0x3f
 398 0169 6D010000 		.4byte	0x16d
 399 016d 06       		.uleb128 0x6
 400 016e 62030000 		.4byte	.LASF52
 401 0172 60       		.byte	0x60
 402 0173 07       		.byte	0x7
 403 0174 BE       		.byte	0xbe
 404 0175 73020000 		.4byte	0x273
 405 0179 07       		.uleb128 0x7
 406 017a 78060000 		.4byte	.LASF32
 407 017e 07       		.byte	0x7
 408 017f BF       		.byte	0xbf
 409 0180 D1050000 		.4byte	0x5d1
 410 0184 00       		.byte	0
 411 0185 07       		.uleb128 0x7
 412 0186 09060000 		.4byte	.LASF33
 413 018a 07       		.byte	0x7
 414 018b C1       		.byte	0xc1
 415 018c D1050000 		.4byte	0x5d1
 416 0190 04       		.byte	0x4
 417 0191 07       		.uleb128 0x7
 418 0192 4A010000 		.4byte	.LASF34
 419 0196 07       		.byte	0x7
 420 0197 C3       		.byte	0xc3
 421 0198 20010000 		.4byte	0x120
 422 019c 08       		.byte	0x8
 423 019d 07       		.uleb128 0x7
 424 019e F9080000 		.4byte	.LASF35
 425 01a2 07       		.byte	0x7
 426 01a3 C4       		.byte	0xc4
 427 01a4 D6040000 		.4byte	0x4d6
 428 01a8 0C       		.byte	0xc
 429 01a9 07       		.uleb128 0x7
 430 01aa 51020000 		.4byte	.LASF36
 431 01ae 07       		.byte	0x7
 432 01af C6       		.byte	0xc6
 433 01b0 D1050000 		.4byte	0x5d1
 434 01b4 10       		.byte	0x10
 435 01b5 07       		.uleb128 0x7
 436 01b6 5E050000 		.4byte	.LASF37
 437 01ba 07       		.byte	0x7
ARM GAS  C:\Users\jo\AppData\Local\Temp\ccTpNVcl.s 			page 9


 438 01bb C7       		.byte	0xc7
 439 01bc D1050000 		.4byte	0x5d1
 440 01c0 14       		.byte	0x14
 441 01c1 07       		.uleb128 0x7
 442 01c2 A6080000 		.4byte	.LASF38
 443 01c6 07       		.byte	0x7
 444 01c7 CE       		.byte	0xce
 445 01c8 7D050000 		.4byte	0x57d
 446 01cc 18       		.byte	0x18
 447 01cd 07       		.uleb128 0x7
 448 01ce 85050000 		.4byte	.LASF39
 449 01d2 07       		.byte	0x7
 450 01d3 D4       		.byte	0xd4
 451 01d4 1B070000 		.4byte	0x71b
 452 01d8 1C       		.byte	0x1c
 453 01d9 07       		.uleb128 0x7
 454 01da 62060000 		.4byte	.LASF40
 455 01de 07       		.byte	0x7
 456 01df D9       		.byte	0xd9
 457 01e0 0A010000 		.4byte	0x10a
 458 01e4 20       		.byte	0x20
 459 01e5 07       		.uleb128 0x7
 460 01e6 7F060000 		.4byte	.LASF41
 461 01ea 07       		.byte	0x7
 462 01eb DD       		.byte	0xdd
 463 01ec FF000000 		.4byte	0xff
 464 01f0 21       		.byte	0x21
 465 01f1 07       		.uleb128 0x7
 466 01f2 4B080000 		.4byte	.LASF42
 467 01f6 07       		.byte	0x7
 468 01f7 E2       		.byte	0xe2
 469 01f8 15010000 		.4byte	0x115
 470 01fc 22       		.byte	0x22
 471 01fd 08       		.uleb128 0x8
 472 01fe 705F7500 		.ascii	"p_u\000"
 473 0202 07       		.byte	0x7
 474 0203 1401     		.2byte	0x114
 475 0205 E3060000 		.4byte	0x6e3
 476 0209 24       		.byte	0x24
 477 020a 09       		.uleb128 0x9
 478 020b 02050000 		.4byte	.LASF43
 479 020f 07       		.byte	0x7
 480 0210 1901     		.2byte	0x119
 481 0212 73020000 		.4byte	0x273
 482 0216 28       		.byte	0x28
 483 0217 09       		.uleb128 0x9
 484 0218 0A030000 		.4byte	.LASF44
 485 021c 07       		.byte	0x7
 486 021d 1F01     		.2byte	0x11f
 487 021f 97020000 		.4byte	0x297
 488 0223 2C       		.byte	0x2c
 489 0224 09       		.uleb128 0x9
 490 0225 EC070000 		.4byte	.LASF45
 491 0229 07       		.byte	0x7
 492 022a 2301     		.2byte	0x123
 493 022c 2B010000 		.4byte	0x12b
 494 0230 34       		.byte	0x34
ARM GAS  C:\Users\jo\AppData\Local\Temp\ccTpNVcl.s 			page 10


 495 0231 09       		.uleb128 0x9
 496 0232 C0060000 		.4byte	.LASF46
 497 0236 07       		.byte	0x7
 498 0237 2901     		.2byte	0x129
 499 0239 36010000 		.4byte	0x136
 500 023d 38       		.byte	0x38
 501 023e 09       		.uleb128 0x9
 502 023f 4E060000 		.4byte	.LASF47
 503 0243 07       		.byte	0x7
 504 0244 3001     		.2byte	0x130
 505 0246 52070000 		.4byte	0x752
 506 024a 3C       		.byte	0x3c
 507 024b 09       		.uleb128 0x9
 508 024c B4070000 		.4byte	.LASF48
 509 0250 07       		.byte	0x7
 510 0251 3401     		.2byte	0x134
 511 0253 20010000 		.4byte	0x120
 512 0257 40       		.byte	0x40
 513 0258 09       		.uleb128 0x9
 514 0259 D4010000 		.4byte	.LASF49
 515 025d 07       		.byte	0x7
 516 025e 3A01     		.2byte	0x13a
 517 0260 4A030000 		.4byte	0x34a
 518 0264 44       		.byte	0x44
 519 0265 09       		.uleb128 0x9
 520 0266 92060000 		.4byte	.LASF50
 521 026a 07       		.byte	0x7
 522 026b 4001     		.2byte	0x140
 523 026d 94060000 		.4byte	0x694
 524 0271 48       		.byte	0x48
 525 0272 00       		.byte	0
 526 0273 03       		.uleb128 0x3
 527 0274 CC040000 		.4byte	.LASF51
 528 0278 06       		.byte	0x6
 529 0279 44       		.byte	0x44
 530 027a 7E020000 		.4byte	0x27e
 531 027e 06       		.uleb128 0x6
 532 027f EA060000 		.4byte	.LASF53
 533 0283 04       		.byte	0x4
 534 0284 07       		.byte	0x7
 535 0285 AC       		.byte	0xac
 536 0286 97020000 		.4byte	0x297
 537 028a 07       		.uleb128 0x7
 538 028b 78060000 		.4byte	.LASF32
 539 028f 07       		.byte	0x7
 540 0290 AD       		.byte	0xad
 541 0291 D1050000 		.4byte	0x5d1
 542 0295 00       		.byte	0
 543 0296 00       		.byte	0
 544 0297 03       		.uleb128 0x3
 545 0298 31080000 		.4byte	.LASF54
 546 029c 06       		.byte	0x6
 547 029d 4B       		.byte	0x4b
 548 029e A2020000 		.4byte	0x2a2
 549 02a2 06       		.uleb128 0x6
 550 02a3 8F000000 		.4byte	.LASF55
 551 02a7 08       		.byte	0x8
ARM GAS  C:\Users\jo\AppData\Local\Temp\ccTpNVcl.s 			page 11


 552 02a8 07       		.byte	0x7
 553 02a9 B3       		.byte	0xb3
 554 02aa C7020000 		.4byte	0x2c7
 555 02ae 07       		.uleb128 0x7
 556 02af 78060000 		.4byte	.LASF32
 557 02b3 07       		.byte	0x7
 558 02b4 B4       		.byte	0xb4
 559 02b5 D1050000 		.4byte	0x5d1
 560 02b9 00       		.byte	0
 561 02ba 07       		.uleb128 0x7
 562 02bb 09060000 		.4byte	.LASF33
 563 02bf 07       		.byte	0x7
 564 02c0 B5       		.byte	0xb5
 565 02c1 D1050000 		.4byte	0x5d1
 566 02c5 04       		.byte	0x4
 567 02c6 00       		.byte	0
 568 02c7 03       		.uleb128 0x3
 569 02c8 22000000 		.4byte	.LASF56
 570 02cc 06       		.byte	0x6
 571 02cd 52       		.byte	0x52
 572 02ce D2020000 		.4byte	0x2d2
 573 02d2 0A       		.uleb128 0xa
 574 02d3 B4030000 		.4byte	.LASF57
 575 02d7 1C       		.byte	0x1c
 576 02d8 07       		.byte	0x7
 577 02d9 7201     		.2byte	0x172
 578 02db 2E030000 		.4byte	0x32e
 579 02df 09       		.uleb128 0x9
 580 02e0 D9060000 		.4byte	.LASF58
 581 02e4 07       		.byte	0x7
 582 02e5 7301     		.2byte	0x173
 583 02e7 97020000 		.4byte	0x297
 584 02eb 00       		.byte	0
 585 02ec 09       		.uleb128 0x9
 586 02ed 6A060000 		.4byte	.LASF59
 587 02f1 07       		.byte	0x7
 588 02f2 7401     		.2byte	0x174
 589 02f4 20010000 		.4byte	0x120
 590 02f8 08       		.byte	0x8
 591 02f9 09       		.uleb128 0x9
 592 02fa 66050000 		.4byte	.LASF60
 593 02fe 07       		.byte	0x7
 594 02ff 7601     		.2byte	0x176
 595 0301 D6040000 		.4byte	0x4d6
 596 0305 0C       		.byte	0xc
 597 0306 09       		.uleb128 0x9
 598 0307 74020000 		.4byte	.LASF61
 599 030b 07       		.byte	0x7
 600 030c 7901     		.2byte	0x179
 601 030e D1050000 		.4byte	0x5d1
 602 0312 10       		.byte	0x10
 603 0313 09       		.uleb128 0x9
 604 0314 9A050000 		.4byte	.LASF62
 605 0318 07       		.byte	0x7
 606 0319 7A01     		.2byte	0x17a
 607 031b D1050000 		.4byte	0x5d1
 608 031f 14       		.byte	0x14
ARM GAS  C:\Users\jo\AppData\Local\Temp\ccTpNVcl.s 			page 12


 609 0320 09       		.uleb128 0x9
 610 0321 90050000 		.4byte	.LASF63
 611 0325 07       		.byte	0x7
 612 0326 7D01     		.2byte	0x17d
 613 0328 D1050000 		.4byte	0x5d1
 614 032c 18       		.byte	0x18
 615 032d 00       		.byte	0
 616 032e 03       		.uleb128 0x3
 617 032f BF070000 		.4byte	.LASF64
 618 0333 06       		.byte	0x6
 619 0334 57       		.byte	0x57
 620 0335 39030000 		.4byte	0x339
 621 0339 0B       		.uleb128 0xb
 622 033a 04       		.byte	0x4
 623 033b 3F030000 		.4byte	0x33f
 624 033f 0C       		.uleb128 0xc
 625 0340 4A030000 		.4byte	0x34a
 626 0344 0D       		.uleb128 0xd
 627 0345 4A030000 		.4byte	0x34a
 628 0349 00       		.byte	0
 629 034a 0E       		.uleb128 0xe
 630 034b 04       		.byte	0x4
 631 034c 03       		.uleb128 0x3
 632 034d F9050000 		.4byte	.LASF65
 633 0351 06       		.byte	0x6
 634 0352 5C       		.byte	0x5c
 635 0353 57030000 		.4byte	0x357
 636 0357 0A       		.uleb128 0xa
 637 0358 AF060000 		.4byte	.LASF66
 638 035c 14       		.byte	0x14
 639 035d 07       		.byte	0x7
 640 035e 4D01     		.2byte	0x14d
 641 0360 A6030000 		.4byte	0x3a6
 642 0364 09       		.uleb128 0x9
 643 0365 EC020000 		.4byte	.LASF67
 644 0369 07       		.byte	0x7
 645 036a 4E01     		.2byte	0x14e
 646 036c 58070000 		.4byte	0x758
 647 0370 00       		.byte	0
 648 0371 09       		.uleb128 0x9
 649 0372 85020000 		.4byte	.LASF68
 650 0376 07       		.byte	0x7
 651 0377 4F01     		.2byte	0x14f
 652 0379 58070000 		.4byte	0x758
 653 037d 04       		.byte	0x4
 654 037e 09       		.uleb128 0x9
 655 037f E1060000 		.4byte	.LASF69
 656 0383 07       		.byte	0x7
 657 0384 5001     		.2byte	0x150
 658 0386 57010000 		.4byte	0x157
 659 038a 08       		.byte	0x8
 660 038b 09       		.uleb128 0x9
 661 038c FF080000 		.4byte	.LASF70
 662 0390 07       		.byte	0x7
 663 0391 5101     		.2byte	0x151
 664 0393 2E030000 		.4byte	0x32e
 665 0397 0C       		.byte	0xc
ARM GAS  C:\Users\jo\AppData\Local\Temp\ccTpNVcl.s 			page 13


 666 0398 09       		.uleb128 0x9
 667 0399 08080000 		.4byte	.LASF71
 668 039d 07       		.byte	0x7
 669 039e 5301     		.2byte	0x153
 670 03a0 4A030000 		.4byte	0x34a
 671 03a4 10       		.byte	0x10
 672 03a5 00       		.byte	0
 673 03a6 03       		.uleb128 0x3
 674 03a7 19010000 		.4byte	.LASF72
 675 03ab 06       		.byte	0x6
 676 03ac 61       		.byte	0x61
 677 03ad B1030000 		.4byte	0x3b1
 678 03b1 0A       		.uleb128 0xa
 679 03b2 1A050000 		.4byte	.LASF73
 680 03b6 10       		.byte	0x10
 681 03b7 07       		.byte	0x7
 682 03b8 5D01     		.2byte	0x15d
 683 03ba F3030000 		.4byte	0x3f3
 684 03be 09       		.uleb128 0x9
 685 03bf EC020000 		.4byte	.LASF67
 686 03c3 07       		.byte	0x7
 687 03c4 5E01     		.2byte	0x15e
 688 03c6 58070000 		.4byte	0x758
 689 03ca 00       		.byte	0
 690 03cb 09       		.uleb128 0x9
 691 03cc 85020000 		.4byte	.LASF68
 692 03d0 07       		.byte	0x7
 693 03d1 6001     		.2byte	0x160
 694 03d3 58070000 		.4byte	0x758
 695 03d7 04       		.byte	0x4
 696 03d8 09       		.uleb128 0x9
 697 03d9 E1060000 		.4byte	.LASF69
 698 03dd 07       		.byte	0x7
 699 03de 6201     		.2byte	0x162
 700 03e0 57010000 		.4byte	0x157
 701 03e4 08       		.byte	0x8
 702 03e5 09       		.uleb128 0x9
 703 03e6 49050000 		.4byte	.LASF74
 704 03ea 07       		.byte	0x7
 705 03eb 6A01     		.2byte	0x16a
 706 03ed 57010000 		.4byte	0x157
 707 03f1 0C       		.byte	0xc
 708 03f2 00       		.byte	0
 709 03f3 03       		.uleb128 0x3
 710 03f4 A0000000 		.4byte	.LASF75
 711 03f8 06       		.byte	0x6
 712 03f9 66       		.byte	0x66
 713 03fa FE030000 		.4byte	0x3fe
 714 03fe 0F       		.uleb128 0xf
 715 03ff C4080000 		.4byte	.LASF76
 716 0403 1404     		.2byte	0x414
 717 0405 07       		.byte	0x7
 718 0406 8401     		.2byte	0x184
 719 0408 41040000 		.4byte	0x441
 720 040c 09       		.uleb128 0x9
 721 040d D3070000 		.4byte	.LASF77
 722 0411 07       		.byte	0x7
ARM GAS  C:\Users\jo\AppData\Local\Temp\ccTpNVcl.s 			page 14


 723 0412 8C01     		.2byte	0x18c
 724 0414 5E070000 		.4byte	0x75e
 725 0418 00       		.byte	0
 726 0419 09       		.uleb128 0x9
 727 041a 52080000 		.4byte	.LASF78
 728 041e 07       		.byte	0x7
 729 041f 9101     		.2byte	0x191
 730 0421 41010000 		.4byte	0x141
 731 0425 04       		.byte	0x4
 732 0426 09       		.uleb128 0x9
 733 0427 B5020000 		.4byte	.LASF79
 734 042b 07       		.byte	0x7
 735 042c 9501     		.2byte	0x195
 736 042e 41010000 		.4byte	0x141
 737 0432 08       		.byte	0x8
 738 0433 09       		.uleb128 0x9
 739 0434 B7080000 		.4byte	.LASF80
 740 0438 07       		.byte	0x7
 741 0439 9B01     		.2byte	0x19b
 742 043b 26060000 		.4byte	0x626
 743 043f 0C       		.byte	0xc
 744 0440 00       		.byte	0
 745 0441 03       		.uleb128 0x3
 746 0442 89030000 		.4byte	.LASF81
 747 0446 06       		.byte	0x6
 748 0447 6B       		.byte	0x6b
 749 0448 4C040000 		.4byte	0x44c
 750 044c 0F       		.uleb128 0xf
 751 044d 9A060000 		.4byte	.LASF82
 752 0451 D805     		.2byte	0x5d8
 753 0453 07       		.byte	0x7
 754 0454 A401     		.2byte	0x1a4
 755 0456 B9040000 		.4byte	0x4b9
 756 045a 09       		.uleb128 0x9
 757 045b 7E080000 		.4byte	.LASF83
 758 045f 07       		.byte	0x7
 759 0460 A801     		.2byte	0x1a8
 760 0462 C7020000 		.4byte	0x2c7
 761 0466 00       		.byte	0
 762 0467 09       		.uleb128 0x9
 763 0468 8D020000 		.4byte	.LASF84
 764 046c 07       		.byte	0x7
 765 046d AC01     		.2byte	0x1ac
 766 046f A6030000 		.4byte	0x3a6
 767 0473 1C       		.byte	0x1c
 768 0474 08       		.uleb128 0x8
 769 0475 64626700 		.ascii	"dbg\000"
 770 0479 07       		.byte	0x7
 771 047a B001     		.2byte	0x1b0
 772 047c F3030000 		.4byte	0x3f3
 773 0480 2C       		.byte	0x2c
 774 0481 10       		.uleb128 0x10
 775 0482 0E010000 		.4byte	.LASF85
 776 0486 07       		.byte	0x7
 777 0487 B401     		.2byte	0x1b4
 778 0489 62010000 		.4byte	0x162
 779 048d 4004     		.2byte	0x440
ARM GAS  C:\Users\jo\AppData\Local\Temp\ccTpNVcl.s 			page 15


 780 048f 11       		.uleb128 0x11
 781 0490 746D00   		.ascii	"tm\000"
 782 0493 07       		.byte	0x7
 783 0494 B901     		.2byte	0x1b9
 784 0496 46060000 		.4byte	0x646
 785 049a A004     		.2byte	0x4a0
 786 049c 10       		.uleb128 0x10
 787 049d 67000000 		.4byte	.LASF86
 788 04a1 07       		.byte	0x7
 789 04a2 BF01     		.2byte	0x1bf
 790 04a4 D8060000 		.4byte	0x6d8
 791 04a8 A804     		.2byte	0x4a8
 792 04aa 10       		.uleb128 0x10
 793 04ab D8030000 		.4byte	.LASF87
 794 04af 07       		.byte	0x7
 795 04b0 C501     		.2byte	0x1c5
 796 04b2 63070000 		.4byte	0x763
 797 04b6 E004     		.2byte	0x4e0
 798 04b8 00       		.byte	0
 799 04b9 04       		.uleb128 0x4
 800 04ba 04       		.byte	0x4
 801 04bb 07       		.byte	0x7
 802 04bc 11050000 		.4byte	.LASF88
 803 04c0 03       		.uleb128 0x3
 804 04c1 7C020000 		.4byte	.LASF89
 805 04c5 08       		.byte	0x8
 806 04c6 85       		.byte	0x85
 807 04c7 4A030000 		.4byte	0x34a
 808 04cb 03       		.uleb128 0x3
 809 04cc C1040000 		.4byte	.LASF90
 810 04d0 08       		.byte	0x8
 811 04d1 8D       		.byte	0x8d
 812 04d2 D9000000 		.4byte	0xd9
 813 04d6 06       		.uleb128 0x6
 814 04d7 E4070000 		.4byte	.LASF91
 815 04db 04       		.byte	0x4
 816 04dc 08       		.byte	0x8
 817 04dd A9       		.byte	0xa9
 818 04de EF040000 		.4byte	0x4ef
 819 04e2 12       		.uleb128 0x12
 820 04e3 72313300 		.ascii	"r13\000"
 821 04e7 08       		.byte	0x8
 822 04e8 AA       		.byte	0xaa
 823 04e9 6A050000 		.4byte	0x56a
 824 04ed 00       		.byte	0
 825 04ee 00       		.byte	0
 826 04ef 06       		.uleb128 0x6
 827 04f0 83000000 		.4byte	.LASF92
 828 04f4 24       		.byte	0x24
 829 04f5 09       		.byte	0x9
 830 04f6 F4       		.byte	0xf4
 831 04f7 6A050000 		.4byte	0x56a
 832 04fb 08       		.uleb128 0x8
 833 04fc 723400   		.ascii	"r4\000"
 834 04ff 09       		.byte	0x9
 835 0500 0701     		.2byte	0x107
 836 0502 C0040000 		.4byte	0x4c0
ARM GAS  C:\Users\jo\AppData\Local\Temp\ccTpNVcl.s 			page 16


 837 0506 00       		.byte	0
 838 0507 08       		.uleb128 0x8
 839 0508 723500   		.ascii	"r5\000"
 840 050b 09       		.byte	0x9
 841 050c 0801     		.2byte	0x108
 842 050e C0040000 		.4byte	0x4c0
 843 0512 04       		.byte	0x4
 844 0513 08       		.uleb128 0x8
 845 0514 723600   		.ascii	"r6\000"
 846 0517 09       		.byte	0x9
 847 0518 0901     		.2byte	0x109
 848 051a C0040000 		.4byte	0x4c0
 849 051e 08       		.byte	0x8
 850 051f 08       		.uleb128 0x8
 851 0520 723700   		.ascii	"r7\000"
 852 0523 09       		.byte	0x9
 853 0524 0A01     		.2byte	0x10a
 854 0526 C0040000 		.4byte	0x4c0
 855 052a 0C       		.byte	0xc
 856 052b 08       		.uleb128 0x8
 857 052c 723800   		.ascii	"r8\000"
 858 052f 09       		.byte	0x9
 859 0530 0B01     		.2byte	0x10b
 860 0532 C0040000 		.4byte	0x4c0
 861 0536 10       		.byte	0x10
 862 0537 08       		.uleb128 0x8
 863 0538 723900   		.ascii	"r9\000"
 864 053b 09       		.byte	0x9
 865 053c 0C01     		.2byte	0x10c
 866 053e C0040000 		.4byte	0x4c0
 867 0542 14       		.byte	0x14
 868 0543 08       		.uleb128 0x8
 869 0544 72313000 		.ascii	"r10\000"
 870 0548 09       		.byte	0x9
 871 0549 0D01     		.2byte	0x10d
 872 054b C0040000 		.4byte	0x4c0
 873 054f 18       		.byte	0x18
 874 0550 08       		.uleb128 0x8
 875 0551 72313100 		.ascii	"r11\000"
 876 0555 09       		.byte	0x9
 877 0556 0E01     		.2byte	0x10e
 878 0558 C0040000 		.4byte	0x4c0
 879 055c 1C       		.byte	0x1c
 880 055d 08       		.uleb128 0x8
 881 055e 6C7200   		.ascii	"lr\000"
 882 0561 09       		.byte	0x9
 883 0562 0F01     		.2byte	0x10f
 884 0564 C0040000 		.4byte	0x4c0
 885 0568 20       		.byte	0x20
 886 0569 00       		.byte	0
 887 056a 0B       		.uleb128 0xb
 888 056b 04       		.byte	0x4
 889 056c EF040000 		.4byte	0x4ef
 890 0570 0B       		.uleb128 0xb
 891 0571 04       		.byte	0x4
 892 0572 76050000 		.4byte	0x576
 893 0576 04       		.uleb128 0x4
ARM GAS  C:\Users\jo\AppData\Local\Temp\ccTpNVcl.s 			page 17


 894 0577 01       		.byte	0x1
 895 0578 08       		.byte	0x8
 896 0579 5C070000 		.4byte	.LASF93
 897 057d 0B       		.uleb128 0xb
 898 057e 04       		.byte	0x4
 899 057f 83050000 		.4byte	0x583
 900 0583 13       		.uleb128 0x13
 901 0584 76050000 		.4byte	0x576
 902 0588 14       		.uleb128 0x14
 903 0589 76050000 		.4byte	0x576
 904 058d 98050000 		.4byte	0x598
 905 0591 15       		.uleb128 0x15
 906 0592 B9040000 		.4byte	0x4b9
 907 0596 07       		.byte	0x7
 908 0597 00       		.byte	0
 909 0598 16       		.uleb128 0x16
 910 0599 10       		.byte	0x10
 911 059a 0A       		.byte	0xa
 912 059b 57       		.byte	0x57
 913 059c D1050000 		.4byte	0x5d1
 914 05a0 07       		.uleb128 0x7
 915 05a1 2F000000 		.4byte	.LASF94
 916 05a5 0A       		.byte	0xa
 917 05a6 5B       		.byte	0x5b
 918 05a7 57010000 		.4byte	0x157
 919 05ab 00       		.byte	0
 920 05ac 07       		.uleb128 0x7
 921 05ad 42020000 		.4byte	.LASF95
 922 05b1 0A       		.byte	0xa
 923 05b2 5F       		.byte	0x5f
 924 05b3 D1050000 		.4byte	0x5d1
 925 05b7 04       		.byte	0x4
 926 05b8 07       		.uleb128 0x7
 927 05b9 21030000 		.4byte	.LASF96
 928 05bd 0A       		.byte	0xa
 929 05be 63       		.byte	0x63
 930 05bf 4A030000 		.4byte	0x34a
 931 05c3 08       		.byte	0x8
 932 05c4 07       		.uleb128 0x7
 933 05c5 FC000000 		.4byte	.LASF97
 934 05c9 0A       		.byte	0xa
 935 05ca 67       		.byte	0x67
 936 05cb AD000000 		.4byte	0xad
 937 05cf 0C       		.byte	0xc
 938 05d0 00       		.byte	0
 939 05d1 0B       		.uleb128 0xb
 940 05d2 04       		.byte	0x4
 941 05d3 62010000 		.4byte	0x162
 942 05d7 03       		.uleb128 0x3
 943 05d8 3A050000 		.4byte	.LASF98
 944 05dc 0A       		.byte	0xa
 945 05dd 68       		.byte	0x68
 946 05de 98050000 		.4byte	0x598
 947 05e2 17       		.uleb128 0x17
 948 05e3 0804     		.2byte	0x408
 949 05e5 0A       		.byte	0xa
 950 05e6 6D       		.byte	0x6d
ARM GAS  C:\Users\jo\AppData\Local\Temp\ccTpNVcl.s 			page 18


 951 05e7 10060000 		.4byte	0x610
 952 05eb 07       		.uleb128 0x7
 953 05ec 6C020000 		.4byte	.LASF99
 954 05f0 0A       		.byte	0xa
 955 05f1 71       		.byte	0x71
 956 05f2 37000000 		.4byte	0x37
 957 05f6 00       		.byte	0
 958 05f7 07       		.uleb128 0x7
 959 05f8 1B000000 		.4byte	.LASF100
 960 05fc 0A       		.byte	0xa
 961 05fd 75       		.byte	0x75
 962 05fe 10060000 		.4byte	0x610
 963 0602 04       		.byte	0x4
 964 0603 07       		.uleb128 0x7
 965 0604 E1050000 		.4byte	.LASF101
 966 0608 0A       		.byte	0xa
 967 0609 79       		.byte	0x79
 968 060a 16060000 		.4byte	0x616
 969 060e 08       		.byte	0x8
 970 060f 00       		.byte	0
 971 0610 0B       		.uleb128 0xb
 972 0611 04       		.byte	0x4
 973 0612 D7050000 		.4byte	0x5d7
 974 0616 14       		.uleb128 0x14
 975 0617 D7050000 		.4byte	0x5d7
 976 061b 26060000 		.4byte	0x626
 977 061f 15       		.uleb128 0x15
 978 0620 B9040000 		.4byte	0x4b9
 979 0624 3F       		.byte	0x3f
 980 0625 00       		.byte	0
 981 0626 03       		.uleb128 0x3
 982 0627 EA000000 		.4byte	.LASF102
 983 062b 0A       		.byte	0xa
 984 062c 7A       		.byte	0x7a
 985 062d E2050000 		.4byte	0x5e2
 986 0631 16       		.uleb128 0x16
 987 0632 04       		.byte	0x4
 988 0633 0B       		.byte	0xb
 989 0634 38       		.byte	0x38
 990 0635 46060000 		.4byte	0x646
 991 0639 07       		.uleb128 0x7
 992 063a DD070000 		.4byte	.LASF103
 993 063e 0B       		.byte	0xb
 994 063f 3C       		.byte	0x3c
 995 0640 E9000000 		.4byte	0xe9
 996 0644 00       		.byte	0
 997 0645 00       		.byte	0
 998 0646 03       		.uleb128 0x3
 999 0647 6C050000 		.4byte	.LASF104
 1000 064b 0B       		.byte	0xb
 1001 064c 3D       		.byte	0x3d
 1002 064d 31060000 		.4byte	0x631
 1003 0651 16       		.uleb128 0x16
 1004 0652 18       		.byte	0x18
 1005 0653 0B       		.byte	0xb
 1006 0654 48       		.byte	0x48
 1007 0655 94060000 		.4byte	0x694
ARM GAS  C:\Users\jo\AppData\Local\Temp\ccTpNVcl.s 			page 19


 1008 0659 07       		.uleb128 0x7
 1009 065a 90070000 		.4byte	.LASF105
 1010 065e 0B       		.byte	0xb
 1011 065f 49       		.byte	0x49
 1012 0660 E9000000 		.4byte	0xe9
 1013 0664 00       		.byte	0
 1014 0665 07       		.uleb128 0x7
 1015 0666 BA000000 		.4byte	.LASF106
 1016 066a 0B       		.byte	0xb
 1017 066b 4A       		.byte	0x4a
 1018 066c E9000000 		.4byte	0xe9
 1019 0670 04       		.byte	0x4
 1020 0671 07       		.uleb128 0x7
 1021 0672 7D030000 		.4byte	.LASF107
 1022 0676 0B       		.byte	0xb
 1023 0677 4B       		.byte	0x4b
 1024 0678 E9000000 		.4byte	0xe9
 1025 067c 08       		.byte	0x8
 1026 067d 12       		.uleb128 0x12
 1027 067e 6E00     		.ascii	"n\000"
 1028 0680 0B       		.byte	0xb
 1029 0681 4C       		.byte	0x4c
 1030 0682 4C010000 		.4byte	0x14c
 1031 0686 0C       		.byte	0xc
 1032 0687 07       		.uleb128 0x7
 1033 0688 BB050000 		.4byte	.LASF108
 1034 068c 0B       		.byte	0xb
 1035 068d 4D       		.byte	0x4d
 1036 068e F4000000 		.4byte	0xf4
 1037 0692 10       		.byte	0x10
 1038 0693 00       		.byte	0
 1039 0694 03       		.uleb128 0x3
 1040 0695 C0000000 		.4byte	.LASF109
 1041 0699 0B       		.byte	0xb
 1042 069a 4E       		.byte	0x4e
 1043 069b 51060000 		.4byte	0x651
 1044 069f 16       		.uleb128 0x16
 1045 06a0 38       		.byte	0x38
 1046 06a1 0C       		.byte	0xc
 1047 06a2 38       		.byte	0x38
 1048 06a3 D8060000 		.4byte	0x6d8
 1049 06a7 07       		.uleb128 0x7
 1050 06a8 1B030000 		.4byte	.LASF110
 1051 06ac 0C       		.byte	0xc
 1052 06ad 39       		.byte	0x39
 1053 06ae 4C010000 		.4byte	0x14c
 1054 06b2 00       		.byte	0
 1055 06b3 07       		.uleb128 0x7
 1056 06b4 29060000 		.4byte	.LASF111
 1057 06b8 0C       		.byte	0xc
 1058 06b9 3A       		.byte	0x3a
 1059 06ba 4C010000 		.4byte	0x14c
 1060 06be 04       		.byte	0x4
 1061 06bf 07       		.uleb128 0x7
 1062 06c0 DD080000 		.4byte	.LASF112
 1063 06c4 0C       		.byte	0xc
 1064 06c5 3B       		.byte	0x3b
ARM GAS  C:\Users\jo\AppData\Local\Temp\ccTpNVcl.s 			page 20


 1065 06c6 94060000 		.4byte	0x694
 1066 06ca 08       		.byte	0x8
 1067 06cb 07       		.uleb128 0x7
 1068 06cc A9030000 		.4byte	.LASF113
 1069 06d0 0C       		.byte	0xc
 1070 06d1 3D       		.byte	0x3d
 1071 06d2 94060000 		.4byte	0x694
 1072 06d6 20       		.byte	0x20
 1073 06d7 00       		.byte	0
 1074 06d8 03       		.uleb128 0x3
 1075 06d9 00000000 		.4byte	.LASF114
 1076 06dd 0C       		.byte	0xc
 1077 06de 3F       		.byte	0x3f
 1078 06df 9F060000 		.4byte	0x69f
 1079 06e3 18       		.uleb128 0x18
 1080 06e4 04       		.byte	0x4
 1081 06e5 07       		.byte	0x7
 1082 06e6 F6       		.byte	0xf6
 1083 06e7 1B070000 		.4byte	0x71b
 1084 06eb 19       		.uleb128 0x19
 1085 06ec 56000000 		.4byte	.LASF115
 1086 06f0 07       		.byte	0x7
 1087 06f1 FD       		.byte	0xfd
 1088 06f2 2B010000 		.4byte	0x12b
 1089 06f6 1A       		.uleb128 0x1a
 1090 06f7 05010000 		.4byte	.LASF116
 1091 06fb 07       		.byte	0x7
 1092 06fc 0401     		.2byte	0x104
 1093 06fe 2B010000 		.4byte	0x12b
 1094 0702 1A       		.uleb128 0x1a
 1095 0703 9F080000 		.4byte	.LASF117
 1096 0707 07       		.byte	0x7
 1097 0708 0B01     		.2byte	0x10b
 1098 070a 4A030000 		.4byte	0x34a
 1099 070e 1A       		.uleb128 0x1a
 1100 070f 71060000 		.4byte	.LASF118
 1101 0713 07       		.byte	0x7
 1102 0714 1201     		.2byte	0x112
 1103 0716 36010000 		.4byte	0x136
 1104 071a 00       		.byte	0
 1105 071b 0B       		.uleb128 0xb
 1106 071c 04       		.byte	0x4
 1107 071d CB040000 		.4byte	0x4cb
 1108 0721 06       		.uleb128 0x6
 1109 0722 23060000 		.4byte	.LASF119
 1110 0726 10       		.byte	0x10
 1111 0727 0D       		.byte	0xd
 1112 0728 39       		.byte	0x39
 1113 0729 52070000 		.4byte	0x752
 1114 072d 07       		.uleb128 0x7
 1115 072e E5010000 		.4byte	.LASF120
 1116 0732 0D       		.byte	0xd
 1117 0733 3A       		.byte	0x3a
 1118 0734 97020000 		.4byte	0x297
 1119 0738 00       		.byte	0
 1120 0739 07       		.uleb128 0x7
 1121 073a E8080000 		.4byte	.LASF121
ARM GAS  C:\Users\jo\AppData\Local\Temp\ccTpNVcl.s 			page 21


 1122 073e 0D       		.byte	0xd
 1123 073f 3C       		.byte	0x3c
 1124 0740 D1050000 		.4byte	0x5d1
 1125 0744 08       		.byte	0x8
 1126 0745 07       		.uleb128 0x7
 1127 0746 A3070000 		.4byte	.LASF122
 1128 074a 0D       		.byte	0xd
 1129 074b 3E       		.byte	0x3e
 1130 074c 7E070000 		.4byte	0x77e
 1131 0750 0C       		.byte	0xc
 1132 0751 00       		.byte	0
 1133 0752 0B       		.uleb128 0xb
 1134 0753 04       		.byte	0x4
 1135 0754 21070000 		.4byte	0x721
 1136 0758 0B       		.uleb128 0xb
 1137 0759 04       		.byte	0x4
 1138 075a 4C030000 		.4byte	0x34c
 1139 075e 05       		.uleb128 0x5
 1140 075f 7D050000 		.4byte	0x57d
 1141 0763 14       		.uleb128 0x14
 1142 0764 CB040000 		.4byte	0x4cb
 1143 0768 73070000 		.4byte	0x773
 1144 076c 15       		.uleb128 0x15
 1145 076d B9040000 		.4byte	0x4b9
 1146 0771 1E       		.byte	0x1e
 1147 0772 00       		.byte	0
 1148 0773 03       		.uleb128 0x3
 1149 0774 AD020000 		.4byte	.LASF123
 1150 0778 0D       		.byte	0xd
 1151 0779 34       		.byte	0x34
 1152 077a 21070000 		.4byte	0x721
 1153 077e 0B       		.uleb128 0xb
 1154 077f 04       		.byte	0x4
 1155 0780 73070000 		.4byte	0x773
 1156 0784 04       		.uleb128 0x4
 1157 0785 01       		.byte	0x1
 1158 0786 02       		.byte	0x2
 1159 0787 32060000 		.4byte	.LASF124
 1160 078b 03       		.uleb128 0x3
 1161 078c C6010000 		.4byte	.LASF125
 1162 0790 0E       		.byte	0xe
 1163 0791 3D       		.byte	0x3d
 1164 0792 AD000000 		.4byte	0xad
 1165 0796 03       		.uleb128 0x3
 1166 0797 0F080000 		.4byte	.LASF126
 1167 079b 0E       		.byte	0xe
 1168 079c 3F       		.byte	0x3f
 1169 079d B8000000 		.4byte	0xb8
 1170 07a1 03       		.uleb128 0x3
 1171 07a2 15030000 		.4byte	.LASF127
 1172 07a6 0E       		.byte	0xe
 1173 07a7 41       		.byte	0x41
 1174 07a8 CE000000 		.4byte	0xce
 1175 07ac 06       		.uleb128 0x6
 1176 07ad 07090000 		.4byte	.LASF128
 1177 07b1 04       		.byte	0x4
 1178 07b2 0F       		.byte	0xf
ARM GAS  C:\Users\jo\AppData\Local\Temp\ccTpNVcl.s 			page 22


 1179 07b3 2C       		.byte	0x2c
 1180 07b4 C5070000 		.4byte	0x7c5
 1181 07b8 07       		.uleb128 0x7
 1182 07b9 E5020000 		.4byte	.LASF129
 1183 07bd 0F       		.byte	0xf
 1184 07be 2D       		.byte	0x2d
 1185 07bf A1070000 		.4byte	0x7a1
 1186 07c3 00       		.byte	0
 1187 07c4 00       		.byte	0
 1188 07c5 06       		.uleb128 0x6
 1189 07c6 72080000 		.4byte	.LASF130
 1190 07ca 10       		.byte	0x10
 1191 07cb 10       		.byte	0x10
 1192 07cc 33       		.byte	0x33
 1193 07cd 0E080000 		.4byte	0x80e
 1194 07d1 07       		.uleb128 0x7
 1195 07d2 7D050000 		.4byte	.LASF131
 1196 07d6 10       		.byte	0x10
 1197 07d7 34       		.byte	0x34
 1198 07d8 8B070000 		.4byte	0x78b
 1199 07dc 00       		.byte	0
 1200 07dd 07       		.uleb128 0x7
 1201 07de F7040000 		.4byte	.LASF132
 1202 07e2 10       		.byte	0x10
 1203 07e3 35       		.byte	0x35
 1204 07e4 8B070000 		.4byte	0x78b
 1205 07e8 01       		.byte	0x1
 1206 07e9 07       		.uleb128 0x7
 1207 07ea C6050000 		.4byte	.LASF133
 1208 07ee 10       		.byte	0x10
 1209 07ef 36       		.byte	0x36
 1210 07f0 96070000 		.4byte	0x796
 1211 07f4 02       		.byte	0x2
 1212 07f5 07       		.uleb128 0x7
 1213 07f6 59030000 		.4byte	.LASF134
 1214 07fa 10       		.byte	0x10
 1215 07fb 37       		.byte	0x37
 1216 07fc AC070000 		.4byte	0x7ac
 1217 0800 04       		.byte	0x4
 1218 0801 07       		.uleb128 0x7
 1219 0802 94020000 		.4byte	.LASF135
 1220 0806 10       		.byte	0x10
 1221 0807 38       		.byte	0x38
 1222 0808 88050000 		.4byte	0x588
 1223 080c 08       		.byte	0x8
 1224 080d 00       		.byte	0
 1225 080e 1B       		.uleb128 0x1b
 1226 080f 61070000 		.4byte	.LASF136
 1227 0813 6406     		.2byte	0x664
 1228 0815 11       		.byte	0x11
 1229 0816 3A       		.byte	0x3a
 1230 0817 74080000 		.4byte	0x874
 1231 081b 07       		.uleb128 0x7
 1232 081c CF050000 		.4byte	.LASF137
 1233 0820 11       		.byte	0x11
 1234 0821 3B       		.byte	0x3b
 1235 0822 25000000 		.4byte	0x25
ARM GAS  C:\Users\jo\AppData\Local\Temp\ccTpNVcl.s 			page 23


 1236 0826 00       		.byte	0
 1237 0827 07       		.uleb128 0x7
 1238 0828 0F090000 		.4byte	.LASF138
 1239 082c 11       		.byte	0x11
 1240 082d 3C       		.byte	0x3c
 1241 082e 25000000 		.4byte	0x25
 1242 0832 04       		.byte	0x4
 1243 0833 07       		.uleb128 0x7
 1244 0834 84080000 		.4byte	.LASF139
 1245 0838 11       		.byte	0x11
 1246 0839 3D       		.byte	0x3d
 1247 083a 74080000 		.4byte	0x874
 1248 083e 08       		.byte	0x8
 1249 083f 1C       		.uleb128 0x1c
 1250 0840 18060000 		.4byte	.LASF140
 1251 0844 11       		.byte	0x11
 1252 0845 3E       		.byte	0x3e
 1253 0846 25000000 		.4byte	0x25
 1254 084a 3C06     		.2byte	0x63c
 1255 084c 1C       		.uleb128 0x1c
 1256 084d CD020000 		.4byte	.LASF141
 1257 0851 11       		.byte	0x11
 1258 0852 3F       		.byte	0x3f
 1259 0853 25000000 		.4byte	0x25
 1260 0857 4006     		.2byte	0x640
 1261 0859 1C       		.uleb128 0x1c
 1262 085a FA060000 		.4byte	.LASF142
 1263 085e 11       		.byte	0x11
 1264 085f 40       		.byte	0x40
 1265 0860 C5070000 		.4byte	0x7c5
 1266 0864 4406     		.2byte	0x644
 1267 0866 1C       		.uleb128 0x1c
 1268 0867 3C030000 		.4byte	.LASF143
 1269 086b 11       		.byte	0x11
 1270 086c 41       		.byte	0x41
 1271 086d C5070000 		.4byte	0x7c5
 1272 0871 5406     		.2byte	0x654
 1273 0873 00       		.byte	0
 1274 0874 14       		.uleb128 0x14
 1275 0875 76050000 		.4byte	0x576
 1276 0879 85080000 		.4byte	0x885
 1277 087d 1D       		.uleb128 0x1d
 1278 087e B9040000 		.4byte	0x4b9
 1279 0882 3306     		.2byte	0x633
 1280 0884 00       		.byte	0
 1281 0885 03       		.uleb128 0x3
 1282 0886 9D030000 		.4byte	.LASF144
 1283 088a 12       		.byte	0x12
 1284 088b 3D       		.byte	0x3d
 1285 088c 0E080000 		.4byte	0x80e
 1286 0890 0B       		.uleb128 0xb
 1287 0891 04       		.byte	0x4
 1288 0892 85080000 		.4byte	0x885
 1289 0896 03       		.uleb128 0x3
 1290 0897 65080000 		.4byte	.LASF145
 1291 089b 13       		.byte	0x13
 1292 089c 87       		.byte	0x87
ARM GAS  C:\Users\jo\AppData\Local\Temp\ccTpNVcl.s 			page 24


 1293 089d A1080000 		.4byte	0x8a1
 1294 08a1 06       		.uleb128 0x6
 1295 08a2 EB050000 		.4byte	.LASF146
 1296 08a6 4C       		.byte	0x4c
 1297 08a7 13       		.byte	0x13
 1298 08a8 8A       		.byte	0x8a
 1299 08a9 92090000 		.4byte	0x992
 1300 08ad 07       		.uleb128 0x7
 1301 08ae 5A080000 		.4byte	.LASF147
 1302 08b2 13       		.byte	0x13
 1303 08b3 8B       		.byte	0x8b
 1304 08b4 25000000 		.4byte	0x25
 1305 08b8 00       		.byte	0
 1306 08b9 07       		.uleb128 0x7
 1307 08ba 3A020000 		.4byte	.LASF148
 1308 08be 13       		.byte	0x13
 1309 08bf 8C       		.byte	0x8c
 1310 08c0 70050000 		.4byte	0x570
 1311 08c4 04       		.byte	0x4
 1312 08c5 07       		.uleb128 0x7
 1313 08c6 3E000000 		.4byte	.LASF149
 1314 08ca 13       		.byte	0x13
 1315 08cb 8D       		.byte	0x8d
 1316 08cc 25000000 		.4byte	0x25
 1317 08d0 08       		.byte	0x8
 1318 08d1 07       		.uleb128 0x7
 1319 08d2 5D000000 		.4byte	.LASF150
 1320 08d6 13       		.byte	0x13
 1321 08d7 8E       		.byte	0x8e
 1322 08d8 70050000 		.4byte	0x570
 1323 08dc 0C       		.byte	0xc
 1324 08dd 07       		.uleb128 0x7
 1325 08de DC010000 		.4byte	.LASF151
 1326 08e2 13       		.byte	0x13
 1327 08e3 8F       		.byte	0x8f
 1328 08e4 70050000 		.4byte	0x570
 1329 08e8 10       		.byte	0x10
 1330 08e9 07       		.uleb128 0x7
 1331 08ea CB010000 		.4byte	.LASF152
 1332 08ee 13       		.byte	0x13
 1333 08ef 90       		.byte	0x90
 1334 08f0 70050000 		.4byte	0x570
 1335 08f4 14       		.byte	0x14
 1336 08f5 07       		.uleb128 0x7
 1337 08f6 FC010000 		.4byte	.LASF153
 1338 08fa 13       		.byte	0x13
 1339 08fb 91       		.byte	0x91
 1340 08fc 70050000 		.4byte	0x570
 1341 0900 18       		.byte	0x18
 1342 0901 07       		.uleb128 0x7
 1343 0902 ED010000 		.4byte	.LASF154
 1344 0906 13       		.byte	0x13
 1345 0907 92       		.byte	0x92
 1346 0908 25000000 		.4byte	0x25
 1347 090c 1C       		.byte	0x1c
 1348 090d 07       		.uleb128 0x7
 1349 090e 6C030000 		.4byte	.LASF155
ARM GAS  C:\Users\jo\AppData\Local\Temp\ccTpNVcl.s 			page 25


 1350 0912 13       		.byte	0x13
 1351 0913 94       		.byte	0x94
 1352 0914 7B000000 		.4byte	0x7b
 1353 0918 20       		.byte	0x20
 1354 0919 07       		.uleb128 0x7
 1355 091a 00030000 		.4byte	.LASF156
 1356 091e 13       		.byte	0x13
 1357 091f 95       		.byte	0x95
 1358 0920 70050000 		.4byte	0x570
 1359 0924 24       		.byte	0x24
 1360 0925 07       		.uleb128 0x7
 1361 0926 D4080000 		.4byte	.LASF157
 1362 092a 13       		.byte	0x13
 1363 092b 96       		.byte	0x96
 1364 092c 70050000 		.4byte	0x570
 1365 0930 28       		.byte	0x28
 1366 0931 07       		.uleb128 0x7
 1367 0932 AF000000 		.4byte	.LASF158
 1368 0936 13       		.byte	0x13
 1369 0937 97       		.byte	0x97
 1370 0938 70050000 		.4byte	0x570
 1371 093c 2C       		.byte	0x2c
 1372 093d 07       		.uleb128 0x7
 1373 093e BE020000 		.4byte	.LASF159
 1374 0942 13       		.byte	0x13
 1375 0943 98       		.byte	0x98
 1376 0944 70050000 		.4byte	0x570
 1377 0948 30       		.byte	0x30
 1378 0949 07       		.uleb128 0x7
 1379 094a 05020000 		.4byte	.LASF160
 1380 094e 13       		.byte	0x13
 1381 094f 99       		.byte	0x99
 1382 0950 70050000 		.4byte	0x570
 1383 0954 34       		.byte	0x34
 1384 0955 07       		.uleb128 0x7
 1385 0956 4A000000 		.4byte	.LASF161
 1386 095a 13       		.byte	0x13
 1387 095b 9D       		.byte	0x9d
 1388 095c 70050000 		.4byte	0x570
 1389 0960 38       		.byte	0x38
 1390 0961 07       		.uleb128 0x7
 1391 0962 31050000 		.4byte	.LASF162
 1392 0966 13       		.byte	0x13
 1393 0967 9E       		.byte	0x9e
 1394 0968 70050000 		.4byte	0x570
 1395 096c 3C       		.byte	0x3c
 1396 096d 07       		.uleb128 0x7
 1397 096e 15080000 		.4byte	.LASF163
 1398 0972 13       		.byte	0x13
 1399 0973 9F       		.byte	0x9f
 1400 0974 70050000 		.4byte	0x570
 1401 0978 40       		.byte	0x40
 1402 0979 07       		.uleb128 0x7
 1403 097a FA070000 		.4byte	.LASF164
 1404 097e 13       		.byte	0x13
 1405 097f A0       		.byte	0xa0
 1406 0980 70050000 		.4byte	0x570
ARM GAS  C:\Users\jo\AppData\Local\Temp\ccTpNVcl.s 			page 26


 1407 0984 44       		.byte	0x44
 1408 0985 07       		.uleb128 0x7
 1409 0986 9F010000 		.4byte	.LASF165
 1410 098a 13       		.byte	0x13
 1411 098b A1       		.byte	0xa1
 1412 098c 70050000 		.4byte	0x570
 1413 0990 48       		.byte	0x48
 1414 0991 00       		.byte	0
 1415 0992 03       		.uleb128 0x3
 1416 0993 18020000 		.4byte	.LASF166
 1417 0997 13       		.byte	0x13
 1418 0998 A6       		.byte	0xa6
 1419 0999 9D090000 		.4byte	0x99d
 1420 099d 06       		.uleb128 0x6
 1421 099e 22080000 		.4byte	.LASF167
 1422 09a2 50       		.byte	0x50
 1423 09a3 13       		.byte	0x13
 1424 09a4 A9       		.byte	0xa9
 1425 09a5 C2090000 		.4byte	0x9c2
 1426 09a9 07       		.uleb128 0x7
 1427 09aa 96080000 		.4byte	.LASF168
 1428 09ae 13       		.byte	0x13
 1429 09af AA       		.byte	0xaa
 1430 09b0 90080000 		.4byte	0x890
 1431 09b4 00       		.byte	0
 1432 09b5 07       		.uleb128 0x7
 1433 09b6 DB040000 		.4byte	.LASF169
 1434 09ba 13       		.byte	0x13
 1435 09bb AB       		.byte	0xab
 1436 09bc 96080000 		.4byte	0x896
 1437 09c0 04       		.byte	0x4
 1438 09c1 00       		.byte	0
 1439 09c2 0B       		.uleb128 0xb
 1440 09c3 04       		.byte	0x4
 1441 09c4 92090000 		.4byte	0x992
 1442 09c8 03       		.uleb128 0x3
 1443 09c9 2B030000 		.4byte	.LASF170
 1444 09cd 14       		.byte	0x14
 1445 09ce 3A       		.byte	0x3a
 1446 09cf D3090000 		.4byte	0x9d3
 1447 09d3 06       		.uleb128 0x6
 1448 09d4 A4060000 		.4byte	.LASF171
 1449 09d8 24       		.byte	0x24
 1450 09d9 14       		.byte	0x14
 1451 09da 3F       		.byte	0x3f
 1452 09db 280A0000 		.4byte	0xa28
 1453 09df 07       		.uleb128 0x7
 1454 09e0 2F020000 		.4byte	.LASF172
 1455 09e4 14       		.byte	0x14
 1456 09e5 41       		.byte	0x41
 1457 09e6 5D0A0000 		.4byte	0xa5d
 1458 09ea 00       		.byte	0
 1459 09eb 07       		.uleb128 0x7
 1460 09ec 87060000 		.4byte	.LASF173
 1461 09f0 14       		.byte	0x14
 1462 09f1 43       		.byte	0x43
 1463 09f2 70050000 		.4byte	0x570
ARM GAS  C:\Users\jo\AppData\Local\Temp\ccTpNVcl.s 			page 27


 1464 09f6 08       		.byte	0x8
 1465 09f7 07       		.uleb128 0x7
 1466 09f8 6E070000 		.4byte	.LASF174
 1467 09fc 14       		.byte	0x14
 1468 09fd 45       		.byte	0x45
 1469 09fe 70050000 		.4byte	0x570
 1470 0a02 0C       		.byte	0xc
 1471 0a03 07       		.uleb128 0x7
 1472 0a04 0F000000 		.4byte	.LASF175
 1473 0a08 14       		.byte	0x14
 1474 0a09 47       		.byte	0x47
 1475 0a0a 37000000 		.4byte	0x37
 1476 0a0e 10       		.byte	0x10
 1477 0a0f 07       		.uleb128 0x7
 1478 0a10 95070000 		.4byte	.LASF176
 1479 0a14 14       		.byte	0x14
 1480 0a15 49       		.byte	0x49
 1481 0a16 280A0000 		.4byte	0xa28
 1482 0a1a 14       		.byte	0x14
 1483 0a1b 07       		.uleb128 0x7
 1484 0a1c 41080000 		.4byte	.LASF177
 1485 0a20 14       		.byte	0x14
 1486 0a21 4B       		.byte	0x4b
 1487 0a22 840A0000 		.4byte	0xa84
 1488 0a26 18       		.byte	0x18
 1489 0a27 00       		.byte	0
 1490 0a28 03       		.uleb128 0x3
 1491 0a29 47030000 		.4byte	.LASF178
 1492 0a2d 14       		.byte	0x14
 1493 0a2e 3C       		.byte	0x3c
 1494 0a2f 330A0000 		.4byte	0xa33
 1495 0a33 0B       		.uleb128 0xb
 1496 0a34 04       		.byte	0x4
 1497 0a35 390A0000 		.4byte	0xa39
 1498 0a39 1E       		.uleb128 0x1e
 1499 0a3a 25000000 		.4byte	0x25
 1500 0a3e 520A0000 		.4byte	0xa52
 1501 0a42 0D       		.uleb128 0xd
 1502 0a43 C2090000 		.4byte	0x9c2
 1503 0a47 0D       		.uleb128 0xd
 1504 0a48 520A0000 		.4byte	0xa52
 1505 0a4c 0D       		.uleb128 0xd
 1506 0a4d 7D050000 		.4byte	0x57d
 1507 0a51 00       		.byte	0
 1508 0a52 0B       		.uleb128 0xb
 1509 0a53 04       		.byte	0x4
 1510 0a54 580A0000 		.4byte	0xa58
 1511 0a58 13       		.uleb128 0x13
 1512 0a59 C8090000 		.4byte	0x9c8
 1513 0a5d 16       		.uleb128 0x16
 1514 0a5e 08       		.byte	0x8
 1515 0a5f 14       		.byte	0x14
 1516 0a60 41       		.byte	0x41
 1517 0a61 7E0A0000 		.4byte	0xa7e
 1518 0a65 07       		.uleb128 0x7
 1519 0a66 7E000000 		.4byte	.LASF179
 1520 0a6a 14       		.byte	0x14
ARM GAS  C:\Users\jo\AppData\Local\Temp\ccTpNVcl.s 			page 28


 1521 0a6b 41       		.byte	0x41
 1522 0a6c 7E0A0000 		.4byte	0xa7e
 1523 0a70 00       		.byte	0
 1524 0a71 07       		.uleb128 0x7
 1525 0a72 3C010000 		.4byte	.LASF180
 1526 0a76 14       		.byte	0x14
 1527 0a77 41       		.byte	0x41
 1528 0a78 7E0A0000 		.4byte	0xa7e
 1529 0a7c 04       		.byte	0x4
 1530 0a7d 00       		.byte	0
 1531 0a7e 0B       		.uleb128 0xb
 1532 0a7f 04       		.byte	0x4
 1533 0a80 C8090000 		.4byte	0x9c8
 1534 0a84 14       		.uleb128 0x14
 1535 0a85 76050000 		.4byte	0x576
 1536 0a89 940A0000 		.4byte	0xa94
 1537 0a8d 15       		.uleb128 0x15
 1538 0a8e B9040000 		.4byte	0x4b9
 1539 0a92 08       		.byte	0x8
 1540 0a93 00       		.byte	0
 1541 0a94 16       		.uleb128 0x16
 1542 0a95 08       		.byte	0x8
 1543 0a96 01       		.byte	0x1
 1544 0a97 2C       		.byte	0x2c
 1545 0a98 B50A0000 		.4byte	0xab5
 1546 0a9c 07       		.uleb128 0x7
 1547 0a9d CB060000 		.4byte	.LASF181
 1548 0aa1 01       		.byte	0x1
 1549 0aa2 2C       		.byte	0x2c
 1550 0aa3 7E0A0000 		.4byte	0xa7e
 1551 0aa7 00       		.byte	0
 1552 0aa8 07       		.uleb128 0x7
 1553 0aa9 0C050000 		.4byte	.LASF182
 1554 0aad 01       		.byte	0x1
 1555 0aae 2C       		.byte	0x2c
 1556 0aaf 7E0A0000 		.4byte	0xa7e
 1557 0ab3 04       		.byte	0x4
 1558 0ab4 00       		.byte	0
 1559 0ab5 1F       		.uleb128 0x1f
 1560 0ab6 E1040000 		.4byte	.LASF192
 1561 0aba 01       		.byte	0x1
 1562 0abb 5C       		.byte	0x5c
 1563 0abc 25000000 		.4byte	0x25
 1564 0ac0 00000000 		.4byte	.LFB256
 1565 0ac4 48000000 		.4byte	.LFE256-.LFB256
 1566 0ac8 01       		.uleb128 0x1
 1567 0ac9 9C       		.byte	0x9c
 1568 0aca D80A0000 		.4byte	0xad8
 1569 0ace 20       		.uleb128 0x20
 1570 0acf 6900     		.ascii	"i\000"
 1571 0ad1 01       		.byte	0x1
 1572 0ad2 5E       		.byte	0x5e
 1573 0ad3 25000000 		.4byte	0x25
 1574 0ad7 00       		.byte	0
 1575 0ad8 14       		.uleb128 0x14
 1576 0ad9 76050000 		.4byte	0x576
 1577 0add E80A0000 		.4byte	0xae8
ARM GAS  C:\Users\jo\AppData\Local\Temp\ccTpNVcl.s 			page 29


 1578 0ae1 15       		.uleb128 0x15
 1579 0ae2 B9040000 		.4byte	0x4b9
 1580 0ae6 04       		.byte	0x4
 1581 0ae7 00       		.byte	0
 1582 0ae8 21       		.uleb128 0x21
 1583 0ae9 F0080000 		.4byte	.LASF183
 1584 0aed 01       		.byte	0x1
 1585 0aee 2E       		.byte	0x2e
 1586 0aef D80A0000 		.4byte	0xad8
 1587 0af3 05       		.uleb128 0x5
 1588 0af4 03       		.byte	0x3
 1589 0af5 00000000 		.4byte	mtc_text
 1590 0af9 14       		.uleb128 0x14
 1591 0afa 76050000 		.4byte	0x576
 1592 0afe 090B0000 		.4byte	0xb09
 1593 0b02 15       		.uleb128 0x15
 1594 0b03 B9040000 		.4byte	0x4b9
 1595 0b07 05       		.byte	0x5
 1596 0b08 00       		.byte	0
 1597 0b09 21       		.uleb128 0x21
 1598 0b0a AD080000 		.4byte	.LASF184
 1599 0b0e 01       		.byte	0x1
 1600 0b0f 2F       		.byte	0x2f
 1601 0b10 F90A0000 		.4byte	0xaf9
 1602 0b14 05       		.uleb128 0x5
 1603 0b15 03       		.byte	0x3
 1604 0b16 00000000 		.4byte	mtc_image
 1605 0b1a 14       		.uleb128 0x14
 1606 0b1b C8090000 		.4byte	0x9c8
 1607 0b1f 2A0B0000 		.4byte	0xb2a
 1608 0b23 15       		.uleb128 0x15
 1609 0b24 B9040000 		.4byte	0x4b9
 1610 0b28 07       		.byte	0x7
 1611 0b29 00       		.byte	0
 1612 0b2a 21       		.uleb128 0x21
 1613 0b2b F4020000 		.4byte	.LASF185
 1614 0b2f 01       		.byte	0x1
 1615 0b30 33       		.byte	0x33
 1616 0b31 1A0B0000 		.4byte	0xb1a
 1617 0b35 05       		.uleb128 0x5
 1618 0b36 03       		.byte	0x3
 1619 0b37 00000000 		.4byte	mt_defaults
 1620 0b3b 22       		.uleb128 0x22
 1621 0b3c 2F010000 		.4byte	.LASF186
 1622 0b40 15       		.byte	0x15
 1623 0b41 A706     		.2byte	0x6a7
 1624 0b43 E4000000 		.4byte	0xe4
 1625 0b47 23       		.uleb128 0x23
 1626 0b48 636800   		.ascii	"ch\000"
 1627 0b4b 07       		.byte	0x7
 1628 0b4c EB01     		.2byte	0x1eb
 1629 0b4e 41040000 		.4byte	0x441
 1630 0b52 24       		.uleb128 0x24
 1631 0b53 A2050000 		.4byte	.LASF187
 1632 0b57 01       		.byte	0x1
 1633 0b58 2C       		.byte	0x2c
 1634 0b59 940A0000 		.4byte	0xa94
ARM GAS  C:\Users\jo\AppData\Local\Temp\ccTpNVcl.s 			page 30


 1635 0b5d 14       		.uleb128 0x14
 1636 0b5e 76050000 		.4byte	0x576
 1637 0b62 6D0B0000 		.4byte	0xb6d
 1638 0b66 15       		.uleb128 0x15
 1639 0b67 B9040000 		.4byte	0x4b9
 1640 0b6b 0B       		.byte	0xb
 1641 0b6c 00       		.byte	0
 1642 0b6d 25       		.uleb128 0x25
 1643 0b6e 9D020000 		.4byte	.LASF188
 1644 0b72 01       		.byte	0x1
 1645 0b73 30       		.byte	0x30
 1646 0b74 5D0B0000 		.4byte	0xb5d
 1647 0b78 05       		.uleb128 0x5
 1648 0b79 03       		.byte	0x3
 1649 0b7a 00000000 		.4byte	mtc_application
 1650 0b7e 00       		.byte	0
 1651              		.section	.debug_abbrev,"",%progbits
 1652              	.Ldebug_abbrev0:
 1653 0000 01       		.uleb128 0x1
 1654 0001 11       		.uleb128 0x11
 1655 0002 01       		.byte	0x1
 1656 0003 25       		.uleb128 0x25
 1657 0004 0E       		.uleb128 0xe
 1658 0005 13       		.uleb128 0x13
 1659 0006 0B       		.uleb128 0xb
 1660 0007 03       		.uleb128 0x3
 1661 0008 0E       		.uleb128 0xe
 1662 0009 1B       		.uleb128 0x1b
 1663 000a 0E       		.uleb128 0xe
 1664 000b 55       		.uleb128 0x55
 1665 000c 17       		.uleb128 0x17
 1666 000d 11       		.uleb128 0x11
 1667 000e 01       		.uleb128 0x1
 1668 000f 10       		.uleb128 0x10
 1669 0010 17       		.uleb128 0x17
 1670 0011 00       		.byte	0
 1671 0012 00       		.byte	0
 1672 0013 02       		.uleb128 0x2
 1673 0014 24       		.uleb128 0x24
 1674 0015 00       		.byte	0
 1675 0016 0B       		.uleb128 0xb
 1676 0017 0B       		.uleb128 0xb
 1677 0018 3E       		.uleb128 0x3e
 1678 0019 0B       		.uleb128 0xb
 1679 001a 03       		.uleb128 0x3
 1680 001b 08       		.uleb128 0x8
 1681 001c 00       		.byte	0
 1682 001d 00       		.byte	0
 1683 001e 03       		.uleb128 0x3
 1684 001f 16       		.uleb128 0x16
 1685 0020 00       		.byte	0
 1686 0021 03       		.uleb128 0x3
 1687 0022 0E       		.uleb128 0xe
 1688 0023 3A       		.uleb128 0x3a
 1689 0024 0B       		.uleb128 0xb
 1690 0025 3B       		.uleb128 0x3b
 1691 0026 0B       		.uleb128 0xb
ARM GAS  C:\Users\jo\AppData\Local\Temp\ccTpNVcl.s 			page 31


 1692 0027 49       		.uleb128 0x49
 1693 0028 13       		.uleb128 0x13
 1694 0029 00       		.byte	0
 1695 002a 00       		.byte	0
 1696 002b 04       		.uleb128 0x4
 1697 002c 24       		.uleb128 0x24
 1698 002d 00       		.byte	0
 1699 002e 0B       		.uleb128 0xb
 1700 002f 0B       		.uleb128 0xb
 1701 0030 3E       		.uleb128 0x3e
 1702 0031 0B       		.uleb128 0xb
 1703 0032 03       		.uleb128 0x3
 1704 0033 0E       		.uleb128 0xe
 1705 0034 00       		.byte	0
 1706 0035 00       		.byte	0
 1707 0036 05       		.uleb128 0x5
 1708 0037 35       		.uleb128 0x35
 1709 0038 00       		.byte	0
 1710 0039 49       		.uleb128 0x49
 1711 003a 13       		.uleb128 0x13
 1712 003b 00       		.byte	0
 1713 003c 00       		.byte	0
 1714 003d 06       		.uleb128 0x6
 1715 003e 13       		.uleb128 0x13
 1716 003f 01       		.byte	0x1
 1717 0040 03       		.uleb128 0x3
 1718 0041 0E       		.uleb128 0xe
 1719 0042 0B       		.uleb128 0xb
 1720 0043 0B       		.uleb128 0xb
 1721 0044 3A       		.uleb128 0x3a
 1722 0045 0B       		.uleb128 0xb
 1723 0046 3B       		.uleb128 0x3b
 1724 0047 0B       		.uleb128 0xb
 1725 0048 01       		.uleb128 0x1
 1726 0049 13       		.uleb128 0x13
 1727 004a 00       		.byte	0
 1728 004b 00       		.byte	0
 1729 004c 07       		.uleb128 0x7
 1730 004d 0D       		.uleb128 0xd
 1731 004e 00       		.byte	0
 1732 004f 03       		.uleb128 0x3
 1733 0050 0E       		.uleb128 0xe
 1734 0051 3A       		.uleb128 0x3a
 1735 0052 0B       		.uleb128 0xb
 1736 0053 3B       		.uleb128 0x3b
 1737 0054 0B       		.uleb128 0xb
 1738 0055 49       		.uleb128 0x49
 1739 0056 13       		.uleb128 0x13
 1740 0057 38       		.uleb128 0x38
 1741 0058 0B       		.uleb128 0xb
 1742 0059 00       		.byte	0
 1743 005a 00       		.byte	0
 1744 005b 08       		.uleb128 0x8
 1745 005c 0D       		.uleb128 0xd
 1746 005d 00       		.byte	0
 1747 005e 03       		.uleb128 0x3
 1748 005f 08       		.uleb128 0x8
ARM GAS  C:\Users\jo\AppData\Local\Temp\ccTpNVcl.s 			page 32


 1749 0060 3A       		.uleb128 0x3a
 1750 0061 0B       		.uleb128 0xb
 1751 0062 3B       		.uleb128 0x3b
 1752 0063 05       		.uleb128 0x5
 1753 0064 49       		.uleb128 0x49
 1754 0065 13       		.uleb128 0x13
 1755 0066 38       		.uleb128 0x38
 1756 0067 0B       		.uleb128 0xb
 1757 0068 00       		.byte	0
 1758 0069 00       		.byte	0
 1759 006a 09       		.uleb128 0x9
 1760 006b 0D       		.uleb128 0xd
 1761 006c 00       		.byte	0
 1762 006d 03       		.uleb128 0x3
 1763 006e 0E       		.uleb128 0xe
 1764 006f 3A       		.uleb128 0x3a
 1765 0070 0B       		.uleb128 0xb
 1766 0071 3B       		.uleb128 0x3b
 1767 0072 05       		.uleb128 0x5
 1768 0073 49       		.uleb128 0x49
 1769 0074 13       		.uleb128 0x13
 1770 0075 38       		.uleb128 0x38
 1771 0076 0B       		.uleb128 0xb
 1772 0077 00       		.byte	0
 1773 0078 00       		.byte	0
 1774 0079 0A       		.uleb128 0xa
 1775 007a 13       		.uleb128 0x13
 1776 007b 01       		.byte	0x1
 1777 007c 03       		.uleb128 0x3
 1778 007d 0E       		.uleb128 0xe
 1779 007e 0B       		.uleb128 0xb
 1780 007f 0B       		.uleb128 0xb
 1781 0080 3A       		.uleb128 0x3a
 1782 0081 0B       		.uleb128 0xb
 1783 0082 3B       		.uleb128 0x3b
 1784 0083 05       		.uleb128 0x5
 1785 0084 01       		.uleb128 0x1
 1786 0085 13       		.uleb128 0x13
 1787 0086 00       		.byte	0
 1788 0087 00       		.byte	0
 1789 0088 0B       		.uleb128 0xb
 1790 0089 0F       		.uleb128 0xf
 1791 008a 00       		.byte	0
 1792 008b 0B       		.uleb128 0xb
 1793 008c 0B       		.uleb128 0xb
 1794 008d 49       		.uleb128 0x49
 1795 008e 13       		.uleb128 0x13
 1796 008f 00       		.byte	0
 1797 0090 00       		.byte	0
 1798 0091 0C       		.uleb128 0xc
 1799 0092 15       		.uleb128 0x15
 1800 0093 01       		.byte	0x1
 1801 0094 27       		.uleb128 0x27
 1802 0095 19       		.uleb128 0x19
 1803 0096 01       		.uleb128 0x1
 1804 0097 13       		.uleb128 0x13
 1805 0098 00       		.byte	0
ARM GAS  C:\Users\jo\AppData\Local\Temp\ccTpNVcl.s 			page 33


 1806 0099 00       		.byte	0
 1807 009a 0D       		.uleb128 0xd
 1808 009b 05       		.uleb128 0x5
 1809 009c 00       		.byte	0
 1810 009d 49       		.uleb128 0x49
 1811 009e 13       		.uleb128 0x13
 1812 009f 00       		.byte	0
 1813 00a0 00       		.byte	0
 1814 00a1 0E       		.uleb128 0xe
 1815 00a2 0F       		.uleb128 0xf
 1816 00a3 00       		.byte	0
 1817 00a4 0B       		.uleb128 0xb
 1818 00a5 0B       		.uleb128 0xb
 1819 00a6 00       		.byte	0
 1820 00a7 00       		.byte	0
 1821 00a8 0F       		.uleb128 0xf
 1822 00a9 13       		.uleb128 0x13
 1823 00aa 01       		.byte	0x1
 1824 00ab 03       		.uleb128 0x3
 1825 00ac 0E       		.uleb128 0xe
 1826 00ad 0B       		.uleb128 0xb
 1827 00ae 05       		.uleb128 0x5
 1828 00af 3A       		.uleb128 0x3a
 1829 00b0 0B       		.uleb128 0xb
 1830 00b1 3B       		.uleb128 0x3b
 1831 00b2 05       		.uleb128 0x5
 1832 00b3 01       		.uleb128 0x1
 1833 00b4 13       		.uleb128 0x13
 1834 00b5 00       		.byte	0
 1835 00b6 00       		.byte	0
 1836 00b7 10       		.uleb128 0x10
 1837 00b8 0D       		.uleb128 0xd
 1838 00b9 00       		.byte	0
 1839 00ba 03       		.uleb128 0x3
 1840 00bb 0E       		.uleb128 0xe
 1841 00bc 3A       		.uleb128 0x3a
 1842 00bd 0B       		.uleb128 0xb
 1843 00be 3B       		.uleb128 0x3b
 1844 00bf 05       		.uleb128 0x5
 1845 00c0 49       		.uleb128 0x49
 1846 00c1 13       		.uleb128 0x13
 1847 00c2 38       		.uleb128 0x38
 1848 00c3 05       		.uleb128 0x5
 1849 00c4 00       		.byte	0
 1850 00c5 00       		.byte	0
 1851 00c6 11       		.uleb128 0x11
 1852 00c7 0D       		.uleb128 0xd
 1853 00c8 00       		.byte	0
 1854 00c9 03       		.uleb128 0x3
 1855 00ca 08       		.uleb128 0x8
 1856 00cb 3A       		.uleb128 0x3a
 1857 00cc 0B       		.uleb128 0xb
 1858 00cd 3B       		.uleb128 0x3b
 1859 00ce 05       		.uleb128 0x5
 1860 00cf 49       		.uleb128 0x49
 1861 00d0 13       		.uleb128 0x13
 1862 00d1 38       		.uleb128 0x38
ARM GAS  C:\Users\jo\AppData\Local\Temp\ccTpNVcl.s 			page 34


 1863 00d2 05       		.uleb128 0x5
 1864 00d3 00       		.byte	0
 1865 00d4 00       		.byte	0
 1866 00d5 12       		.uleb128 0x12
 1867 00d6 0D       		.uleb128 0xd
 1868 00d7 00       		.byte	0
 1869 00d8 03       		.uleb128 0x3
 1870 00d9 08       		.uleb128 0x8
 1871 00da 3A       		.uleb128 0x3a
 1872 00db 0B       		.uleb128 0xb
 1873 00dc 3B       		.uleb128 0x3b
 1874 00dd 0B       		.uleb128 0xb
 1875 00de 49       		.uleb128 0x49
 1876 00df 13       		.uleb128 0x13
 1877 00e0 38       		.uleb128 0x38
 1878 00e1 0B       		.uleb128 0xb
 1879 00e2 00       		.byte	0
 1880 00e3 00       		.byte	0
 1881 00e4 13       		.uleb128 0x13
 1882 00e5 26       		.uleb128 0x26
 1883 00e6 00       		.byte	0
 1884 00e7 49       		.uleb128 0x49
 1885 00e8 13       		.uleb128 0x13
 1886 00e9 00       		.byte	0
 1887 00ea 00       		.byte	0
 1888 00eb 14       		.uleb128 0x14
 1889 00ec 01       		.uleb128 0x1
 1890 00ed 01       		.byte	0x1
 1891 00ee 49       		.uleb128 0x49
 1892 00ef 13       		.uleb128 0x13
 1893 00f0 01       		.uleb128 0x1
 1894 00f1 13       		.uleb128 0x13
 1895 00f2 00       		.byte	0
 1896 00f3 00       		.byte	0
 1897 00f4 15       		.uleb128 0x15
 1898 00f5 21       		.uleb128 0x21
 1899 00f6 00       		.byte	0
 1900 00f7 49       		.uleb128 0x49
 1901 00f8 13       		.uleb128 0x13
 1902 00f9 2F       		.uleb128 0x2f
 1903 00fa 0B       		.uleb128 0xb
 1904 00fb 00       		.byte	0
 1905 00fc 00       		.byte	0
 1906 00fd 16       		.uleb128 0x16
 1907 00fe 13       		.uleb128 0x13
 1908 00ff 01       		.byte	0x1
 1909 0100 0B       		.uleb128 0xb
 1910 0101 0B       		.uleb128 0xb
 1911 0102 3A       		.uleb128 0x3a
 1912 0103 0B       		.uleb128 0xb
 1913 0104 3B       		.uleb128 0x3b
 1914 0105 0B       		.uleb128 0xb
 1915 0106 01       		.uleb128 0x1
 1916 0107 13       		.uleb128 0x13
 1917 0108 00       		.byte	0
 1918 0109 00       		.byte	0
 1919 010a 17       		.uleb128 0x17
ARM GAS  C:\Users\jo\AppData\Local\Temp\ccTpNVcl.s 			page 35


 1920 010b 13       		.uleb128 0x13
 1921 010c 01       		.byte	0x1
 1922 010d 0B       		.uleb128 0xb
 1923 010e 05       		.uleb128 0x5
 1924 010f 3A       		.uleb128 0x3a
 1925 0110 0B       		.uleb128 0xb
 1926 0111 3B       		.uleb128 0x3b
 1927 0112 0B       		.uleb128 0xb
 1928 0113 01       		.uleb128 0x1
 1929 0114 13       		.uleb128 0x13
 1930 0115 00       		.byte	0
 1931 0116 00       		.byte	0
 1932 0117 18       		.uleb128 0x18
 1933 0118 17       		.uleb128 0x17
 1934 0119 01       		.byte	0x1
 1935 011a 0B       		.uleb128 0xb
 1936 011b 0B       		.uleb128 0xb
 1937 011c 3A       		.uleb128 0x3a
 1938 011d 0B       		.uleb128 0xb
 1939 011e 3B       		.uleb128 0x3b
 1940 011f 0B       		.uleb128 0xb
 1941 0120 01       		.uleb128 0x1
 1942 0121 13       		.uleb128 0x13
 1943 0122 00       		.byte	0
 1944 0123 00       		.byte	0
 1945 0124 19       		.uleb128 0x19
 1946 0125 0D       		.uleb128 0xd
 1947 0126 00       		.byte	0
 1948 0127 03       		.uleb128 0x3
 1949 0128 0E       		.uleb128 0xe
 1950 0129 3A       		.uleb128 0x3a
 1951 012a 0B       		.uleb128 0xb
 1952 012b 3B       		.uleb128 0x3b
 1953 012c 0B       		.uleb128 0xb
 1954 012d 49       		.uleb128 0x49
 1955 012e 13       		.uleb128 0x13
 1956 012f 00       		.byte	0
 1957 0130 00       		.byte	0
 1958 0131 1A       		.uleb128 0x1a
 1959 0132 0D       		.uleb128 0xd
 1960 0133 00       		.byte	0
 1961 0134 03       		.uleb128 0x3
 1962 0135 0E       		.uleb128 0xe
 1963 0136 3A       		.uleb128 0x3a
 1964 0137 0B       		.uleb128 0xb
 1965 0138 3B       		.uleb128 0x3b
 1966 0139 05       		.uleb128 0x5
 1967 013a 49       		.uleb128 0x49
 1968 013b 13       		.uleb128 0x13
 1969 013c 00       		.byte	0
 1970 013d 00       		.byte	0
 1971 013e 1B       		.uleb128 0x1b
 1972 013f 13       		.uleb128 0x13
 1973 0140 01       		.byte	0x1
 1974 0141 03       		.uleb128 0x3
 1975 0142 0E       		.uleb128 0xe
 1976 0143 0B       		.uleb128 0xb
ARM GAS  C:\Users\jo\AppData\Local\Temp\ccTpNVcl.s 			page 36


 1977 0144 05       		.uleb128 0x5
 1978 0145 3A       		.uleb128 0x3a
 1979 0146 0B       		.uleb128 0xb
 1980 0147 3B       		.uleb128 0x3b
 1981 0148 0B       		.uleb128 0xb
 1982 0149 01       		.uleb128 0x1
 1983 014a 13       		.uleb128 0x13
 1984 014b 00       		.byte	0
 1985 014c 00       		.byte	0
 1986 014d 1C       		.uleb128 0x1c
 1987 014e 0D       		.uleb128 0xd
 1988 014f 00       		.byte	0
 1989 0150 03       		.uleb128 0x3
 1990 0151 0E       		.uleb128 0xe
 1991 0152 3A       		.uleb128 0x3a
 1992 0153 0B       		.uleb128 0xb
 1993 0154 3B       		.uleb128 0x3b
 1994 0155 0B       		.uleb128 0xb
 1995 0156 49       		.uleb128 0x49
 1996 0157 13       		.uleb128 0x13
 1997 0158 38       		.uleb128 0x38
 1998 0159 05       		.uleb128 0x5
 1999 015a 00       		.byte	0
 2000 015b 00       		.byte	0
 2001 015c 1D       		.uleb128 0x1d
 2002 015d 21       		.uleb128 0x21
 2003 015e 00       		.byte	0
 2004 015f 49       		.uleb128 0x49
 2005 0160 13       		.uleb128 0x13
 2006 0161 2F       		.uleb128 0x2f
 2007 0162 05       		.uleb128 0x5
 2008 0163 00       		.byte	0
 2009 0164 00       		.byte	0
 2010 0165 1E       		.uleb128 0x1e
 2011 0166 15       		.uleb128 0x15
 2012 0167 01       		.byte	0x1
 2013 0168 27       		.uleb128 0x27
 2014 0169 19       		.uleb128 0x19
 2015 016a 49       		.uleb128 0x49
 2016 016b 13       		.uleb128 0x13
 2017 016c 01       		.uleb128 0x1
 2018 016d 13       		.uleb128 0x13
 2019 016e 00       		.byte	0
 2020 016f 00       		.byte	0
 2021 0170 1F       		.uleb128 0x1f
 2022 0171 2E       		.uleb128 0x2e
 2023 0172 01       		.byte	0x1
 2024 0173 3F       		.uleb128 0x3f
 2025 0174 19       		.uleb128 0x19
 2026 0175 03       		.uleb128 0x3
 2027 0176 0E       		.uleb128 0xe
 2028 0177 3A       		.uleb128 0x3a
 2029 0178 0B       		.uleb128 0xb
 2030 0179 3B       		.uleb128 0x3b
 2031 017a 0B       		.uleb128 0xb
 2032 017b 27       		.uleb128 0x27
 2033 017c 19       		.uleb128 0x19
ARM GAS  C:\Users\jo\AppData\Local\Temp\ccTpNVcl.s 			page 37


 2034 017d 49       		.uleb128 0x49
 2035 017e 13       		.uleb128 0x13
 2036 017f 11       		.uleb128 0x11
 2037 0180 01       		.uleb128 0x1
 2038 0181 12       		.uleb128 0x12
 2039 0182 06       		.uleb128 0x6
 2040 0183 40       		.uleb128 0x40
 2041 0184 18       		.uleb128 0x18
 2042 0185 9742     		.uleb128 0x2117
 2043 0187 19       		.uleb128 0x19
 2044 0188 01       		.uleb128 0x1
 2045 0189 13       		.uleb128 0x13
 2046 018a 00       		.byte	0
 2047 018b 00       		.byte	0
 2048 018c 20       		.uleb128 0x20
 2049 018d 34       		.uleb128 0x34
 2050 018e 00       		.byte	0
 2051 018f 03       		.uleb128 0x3
 2052 0190 08       		.uleb128 0x8
 2053 0191 3A       		.uleb128 0x3a
 2054 0192 0B       		.uleb128 0xb
 2055 0193 3B       		.uleb128 0x3b
 2056 0194 0B       		.uleb128 0xb
 2057 0195 49       		.uleb128 0x49
 2058 0196 13       		.uleb128 0x13
 2059 0197 00       		.byte	0
 2060 0198 00       		.byte	0
 2061 0199 21       		.uleb128 0x21
 2062 019a 34       		.uleb128 0x34
 2063 019b 00       		.byte	0
 2064 019c 03       		.uleb128 0x3
 2065 019d 0E       		.uleb128 0xe
 2066 019e 3A       		.uleb128 0x3a
 2067 019f 0B       		.uleb128 0xb
 2068 01a0 3B       		.uleb128 0x3b
 2069 01a1 0B       		.uleb128 0xb
 2070 01a2 49       		.uleb128 0x49
 2071 01a3 13       		.uleb128 0x13
 2072 01a4 02       		.uleb128 0x2
 2073 01a5 18       		.uleb128 0x18
 2074 01a6 00       		.byte	0
 2075 01a7 00       		.byte	0
 2076 01a8 22       		.uleb128 0x22
 2077 01a9 34       		.uleb128 0x34
 2078 01aa 00       		.byte	0
 2079 01ab 03       		.uleb128 0x3
 2080 01ac 0E       		.uleb128 0xe
 2081 01ad 3A       		.uleb128 0x3a
 2082 01ae 0B       		.uleb128 0xb
 2083 01af 3B       		.uleb128 0x3b
 2084 01b0 05       		.uleb128 0x5
 2085 01b1 49       		.uleb128 0x49
 2086 01b2 13       		.uleb128 0x13
 2087 01b3 3F       		.uleb128 0x3f
 2088 01b4 19       		.uleb128 0x19
 2089 01b5 3C       		.uleb128 0x3c
 2090 01b6 19       		.uleb128 0x19
ARM GAS  C:\Users\jo\AppData\Local\Temp\ccTpNVcl.s 			page 38


 2091 01b7 00       		.byte	0
 2092 01b8 00       		.byte	0
 2093 01b9 23       		.uleb128 0x23
 2094 01ba 34       		.uleb128 0x34
 2095 01bb 00       		.byte	0
 2096 01bc 03       		.uleb128 0x3
 2097 01bd 08       		.uleb128 0x8
 2098 01be 3A       		.uleb128 0x3a
 2099 01bf 0B       		.uleb128 0xb
 2100 01c0 3B       		.uleb128 0x3b
 2101 01c1 05       		.uleb128 0x5
 2102 01c2 49       		.uleb128 0x49
 2103 01c3 13       		.uleb128 0x13
 2104 01c4 3F       		.uleb128 0x3f
 2105 01c5 19       		.uleb128 0x19
 2106 01c6 3C       		.uleb128 0x3c
 2107 01c7 19       		.uleb128 0x19
 2108 01c8 00       		.byte	0
 2109 01c9 00       		.byte	0
 2110 01ca 24       		.uleb128 0x24
 2111 01cb 34       		.uleb128 0x34
 2112 01cc 00       		.byte	0
 2113 01cd 03       		.uleb128 0x3
 2114 01ce 0E       		.uleb128 0xe
 2115 01cf 3A       		.uleb128 0x3a
 2116 01d0 0B       		.uleb128 0xb
 2117 01d1 3B       		.uleb128 0x3b
 2118 01d2 0B       		.uleb128 0xb
 2119 01d3 49       		.uleb128 0x49
 2120 01d4 13       		.uleb128 0x13
 2121 01d5 3F       		.uleb128 0x3f
 2122 01d6 19       		.uleb128 0x19
 2123 01d7 3C       		.uleb128 0x3c
 2124 01d8 19       		.uleb128 0x19
 2125 01d9 00       		.byte	0
 2126 01da 00       		.byte	0
 2127 01db 25       		.uleb128 0x25
 2128 01dc 34       		.uleb128 0x34
 2129 01dd 00       		.byte	0
 2130 01de 03       		.uleb128 0x3
 2131 01df 0E       		.uleb128 0xe
 2132 01e0 3A       		.uleb128 0x3a
 2133 01e1 0B       		.uleb128 0xb
 2134 01e2 3B       		.uleb128 0x3b
 2135 01e3 0B       		.uleb128 0xb
 2136 01e4 49       		.uleb128 0x49
 2137 01e5 13       		.uleb128 0x13
 2138 01e6 3F       		.uleb128 0x3f
 2139 01e7 19       		.uleb128 0x19
 2140 01e8 02       		.uleb128 0x2
 2141 01e9 18       		.uleb128 0x18
 2142 01ea 00       		.byte	0
 2143 01eb 00       		.byte	0
 2144 01ec 00       		.byte	0
 2145              		.section	.debug_aranges,"",%progbits
 2146 0000 1C000000 		.4byte	0x1c
 2147 0004 0200     		.2byte	0x2
ARM GAS  C:\Users\jo\AppData\Local\Temp\ccTpNVcl.s 			page 39


 2148 0006 00000000 		.4byte	.Ldebug_info0
 2149 000a 04       		.byte	0x4
 2150 000b 00       		.byte	0
 2151 000c 0000     		.2byte	0
 2152 000e 0000     		.2byte	0
 2153 0010 00000000 		.4byte	.LFB256
 2154 0014 48000000 		.4byte	.LFE256-.LFB256
 2155 0018 00000000 		.4byte	0
 2156 001c 00000000 		.4byte	0
 2157              		.section	.debug_ranges,"",%progbits
 2158              	.Ldebug_ranges0:
 2159 0000 00000000 		.4byte	.LFB256
 2160 0004 48000000 		.4byte	.LFE256
 2161 0008 00000000 		.4byte	0
 2162 000c 00000000 		.4byte	0
 2163              		.section	.debug_line,"",%progbits
 2164              	.Ldebug_line0:
 2165 0000 A8030000 		.section	.debug_str,"MS",%progbits,1
 2165      02007603 
 2165      00000201 
 2165      FB0E0D00 
 2165      01010101 
 2166              	.LASF114:
 2167 0000 6B65726E 		.ascii	"kernel_stats_t\000"
 2167      656C5F73 
 2167      74617473 
 2167      5F7400
 2168              	.LASF175:
 2169 000f 6D656469 		.ascii	"media_flags\000"
 2169      615F666C 
 2169      61677300 
 2170              	.LASF100:
 2171 001b 74625F70 		.ascii	"tb_ptr\000"
 2171      747200
 2172              	.LASF56:
 2173 0022 72656164 		.ascii	"ready_list_t\000"
 2173      795F6C69 
 2173      73745F74 
 2173      00
 2174              	.LASF94:
 2175 002f 73655F74 		.ascii	"se_time\000"
 2175      696D6500 
 2176              	.LASF2:
 2177 0037 73697A65 		.ascii	"size_t\000"
 2177      5F7400
 2178              	.LASF149:
 2179 003e 7265715F 		.ascii	"req_version\000"
 2179      76657273 
 2179      696F6E00 
 2180              	.LASF161:
 2181 004a 7265715F 		.ascii	"req_referer\000"
 2181      72656665 
 2181      72657200 
 2182              	.LASF115:
 2183 0056 7264796D 		.ascii	"rdymsg\000"
 2183      736700
 2184              	.LASF150:
ARM GAS  C:\Users\jo\AppData\Local\Temp\ccTpNVcl.s 			page 40


 2185 005d 7265715F 		.ascii	"req_query\000"
 2185      71756572 
 2185      7900
 2186              	.LASF86:
 2187 0067 6B65726E 		.ascii	"kernel_stats\000"
 2187      656C5F73 
 2187      74617473 
 2187      00
 2188              	.LASF3:
 2189 0074 5F5F7569 		.ascii	"__uint8_t\000"
 2189      6E74385F 
 2189      7400
 2190              	.LASF179:
 2191 007e 70726576 		.ascii	"prev\000"
 2191      00
 2192              	.LASF92:
 2193 0083 706F7274 		.ascii	"port_intctx\000"
 2193      5F696E74 
 2193      63747800 
 2194              	.LASF55:
 2195 008f 63685F74 		.ascii	"ch_threads_queue\000"
 2195      68726561 
 2195      64735F71 
 2195      75657565 
 2195      00
 2196              	.LASF75:
 2197 00a0 73797374 		.ascii	"system_debug_t\000"
 2197      656D5F64 
 2197      65627567 
 2197      5F7400
 2198              	.LASF158:
 2199 00af 7265715F 		.ascii	"req_cookie\000"
 2199      636F6F6B 
 2199      696500
 2200              	.LASF106:
 2201 00ba 776F7273 		.ascii	"worst\000"
 2201      7400
 2202              	.LASF109:
 2203 00c0 74696D65 		.ascii	"time_measurement_t\000"
 2203      5F6D6561 
 2203      73757265 
 2203      6D656E74 
 2203      5F7400
 2204              	.LASF14:
 2205 00d3 6C6F6E67 		.ascii	"long long unsigned int\000"
 2205      206C6F6E 
 2205      6720756E 
 2205      7369676E 
 2205      65642069 
 2206              	.LASF102:
 2207 00ea 63685F74 		.ascii	"ch_trace_buffer_t\000"
 2207      72616365 
 2207      5F627566 
 2207      6665725F 
 2207      7400
 2208              	.LASF97:
 2209 00fc 73655F73 		.ascii	"se_state\000"
ARM GAS  C:\Users\jo\AppData\Local\Temp\ccTpNVcl.s 			page 41


 2209      74617465 
 2209      00
 2210              	.LASF116:
 2211 0105 65786974 		.ascii	"exitcode\000"
 2211      636F6465 
 2211      00
 2212              	.LASF85:
 2213 010e 6D61696E 		.ascii	"mainthread\000"
 2213      74687265 
 2213      616400
 2214              	.LASF72:
 2215 0119 76697274 		.ascii	"virtual_timers_list_t\000"
 2215      75616C5F 
 2215      74696D65 
 2215      72735F6C 
 2215      6973745F 
 2216              	.LASF186:
 2217 012f 49544D5F 		.ascii	"ITM_RxBuffer\000"
 2217      52784275 
 2217      66666572 
 2217      00
 2218              	.LASF180:
 2219 013c 6E657874 		.ascii	"next\000"
 2219      00
 2220              	.LASF21:
 2221 0141 72747469 		.ascii	"rttime_t\000"
 2221      6D655F74 
 2221      00
 2222              	.LASF34:
 2223 014a 705F7072 		.ascii	"p_prio\000"
 2223      696F00
 2224              	.LASF191:
 2225 0151 433A5C55 		.ascii	"C:\\Users\\jo\\Documents\\GitHub\\ChibiOS\\demos\\S"
 2225      73657273 
 2225      5C6A6F5C 
 2225      446F6375 
 2225      6D656E74 
 2226 017d 544D3332 		.ascii	"TM32\\RT-STM32F407-DISCOVERY-uHttp\000"
 2226      5C52542D 
 2226      53544D33 
 2226      32463430 
 2226      372D4449 
 2227              	.LASF165:
 2228 019f 7265715F 		.ascii	"req_bnd_type\000"
 2228      626E645F 
 2228      74797065 
 2228      00
 2229              	.LASF12:
 2230 01ac 6C6F6E67 		.ascii	"long long int\000"
 2230      206C6F6E 
 2230      6720696E 
 2230      7400
 2231              	.LASF1:
 2232 01ba 7369676E 		.ascii	"signed char\000"
 2232      65642063 
 2232      68617200 
 2233              	.LASF125:
ARM GAS  C:\Users\jo\AppData\Local\Temp\ccTpNVcl.s 			page 42


 2234 01c6 75385F74 		.ascii	"u8_t\000"
 2234      00
 2235              	.LASF152:
 2236 01cb 7265715F 		.ascii	"req_argn\000"
 2236      6172676E 
 2236      00
 2237              	.LASF49:
 2238 01d4 705F6D70 		.ascii	"p_mpool\000"
 2238      6F6F6C00 
 2239              	.LASF151:
 2240 01dc 7265715F 		.ascii	"req_argp\000"
 2240      61726770 
 2240      00
 2241              	.LASF120:
 2242 01e5 6D5F7175 		.ascii	"m_queue\000"
 2242      65756500 
 2243              	.LASF154:
 2244 01ed 7265715F 		.ascii	"req_connection\000"
 2244      636F6E6E 
 2244      65637469 
 2244      6F6E00
 2245              	.LASF153:
 2246 01fc 7265715F 		.ascii	"req_argv\000"
 2246      61726776 
 2246      00
 2247              	.LASF160:
 2248 0205 7265715F 		.ascii	"req_agent\000"
 2248      6167656E 
 2248      7400
 2249              	.LASF9:
 2250 020f 6C6F6E67 		.ascii	"long int\000"
 2250      20696E74 
 2250      00
 2251              	.LASF166:
 2252 0218 48545450 		.ascii	"HTTPD_SESSION\000"
 2252      445F5345 
 2252      5353494F 
 2252      4E00
 2253              	.LASF23:
 2254 0226 74737461 		.ascii	"tstate_t\000"
 2254      74655F74 
 2254      00
 2255              	.LASF172:
 2256 022f 6D656469 		.ascii	"media_link\000"
 2256      615F6C69 
 2256      6E6B00
 2257              	.LASF148:
 2258 023a 7265715F 		.ascii	"req_url\000"
 2258      75726C00 
 2259              	.LASF95:
 2260 0242 73655F74 		.ascii	"se_tp\000"
 2260      7000
 2261              	.LASF16:
 2262 0248 75696E74 		.ascii	"uint16_t\000"
 2262      31365F74 
 2262      00
 2263              	.LASF36:
ARM GAS  C:\Users\jo\AppData\Local\Temp\ccTpNVcl.s 			page 43


 2264 0251 705F6E65 		.ascii	"p_newer\000"
 2264      77657200 
 2265              	.LASF7:
 2266 0259 73686F72 		.ascii	"short unsigned int\000"
 2266      7420756E 
 2266      7369676E 
 2266      65642069 
 2266      6E7400
 2267              	.LASF99:
 2268 026c 74625F73 		.ascii	"tb_size\000"
 2268      697A6500 
 2269              	.LASF61:
 2270 0274 725F6E65 		.ascii	"r_newer\000"
 2270      77657200 
 2271              	.LASF89:
 2272 027c 72656761 		.ascii	"regarm_t\000"
 2272      726D5F74 
 2272      00
 2273              	.LASF68:
 2274 0285 76745F70 		.ascii	"vt_prev\000"
 2274      72657600 
 2275              	.LASF84:
 2276 028d 76746C69 		.ascii	"vtlist\000"
 2276      737400
 2277              	.LASF135:
 2278 0294 73696E5F 		.ascii	"sin_zero\000"
 2278      7A65726F 
 2278      00
 2279              	.LASF188:
 2280 029d 6D74635F 		.ascii	"mtc_application\000"
 2280      6170706C 
 2280      69636174 
 2280      696F6E00 
 2281              	.LASF123:
 2282 02ad 6D757465 		.ascii	"mutex_t\000"
 2282      785F7400 
 2283              	.LASF79:
 2284 02b5 6C6F636B 		.ascii	"lock_cnt\000"
 2284      5F636E74 
 2284      00
 2285              	.LASF159:
 2286 02be 7265715F 		.ascii	"req_auth\000"
 2286      61757468 
 2286      00
 2287              	.LASF28:
 2288 02c7 636E745F 		.ascii	"cnt_t\000"
 2288      7400
 2289              	.LASF141:
 2290 02cd 7374726D 		.ascii	"strm_csock\000"
 2290      5F63736F 
 2290      636B00
 2291              	.LASF0:
 2292 02d8 756E7369 		.ascii	"unsigned int\000"
 2292      676E6564 
 2292      20696E74 
 2292      00
 2293              	.LASF129:
ARM GAS  C:\Users\jo\AppData\Local\Temp\ccTpNVcl.s 			page 44


 2294 02e5 735F6164 		.ascii	"s_addr\000"
 2294      647200
 2295              	.LASF67:
 2296 02ec 76745F6E 		.ascii	"vt_next\000"
 2296      65787400 
 2297              	.LASF185:
 2298 02f4 6D745F64 		.ascii	"mt_defaults\000"
 2298      65666175 
 2298      6C747300 
 2299              	.LASF156:
 2300 0300 7265715F 		.ascii	"req_realm\000"
 2300      7265616C 
 2300      6D00
 2301              	.LASF44:
 2302 030a 705F6D73 		.ascii	"p_msgqueue\000"
 2302      67717565 
 2302      756500
 2303              	.LASF127:
 2304 0315 7533325F 		.ascii	"u32_t\000"
 2304      7400
 2305              	.LASF110:
 2306 031b 6E5F6972 		.ascii	"n_irq\000"
 2306      7100
 2307              	.LASF96:
 2308 0321 73655F77 		.ascii	"se_wtobjp\000"
 2308      746F626A 
 2308      7000
 2309              	.LASF170:
 2310 032b 4D454449 		.ascii	"MEDIA_TYPE_ENTRY\000"
 2310      415F5459 
 2310      50455F45 
 2310      4E545259 
 2310      00
 2311              	.LASF143:
 2312 033c 7374726D 		.ascii	"strm_caddr\000"
 2312      5F636164 
 2312      647200
 2313              	.LASF178:
 2314 0347 4D454449 		.ascii	"MEDIATYPE_HANDLER\000"
 2314      41545950 
 2314      455F4841 
 2314      4E444C45 
 2314      5200
 2315              	.LASF134:
 2316 0359 73696E5F 		.ascii	"sin_addr\000"
 2316      61646472 
 2316      00
 2317              	.LASF52:
 2318 0362 63685F74 		.ascii	"ch_thread\000"
 2318      68726561 
 2318      6400
 2319              	.LASF155:
 2320 036c 7265715F 		.ascii	"req_length\000"
 2320      6C656E67 
 2320      746800
 2321              	.LASF26:
 2322 0377 6D73675F 		.ascii	"msg_t\000"
ARM GAS  C:\Users\jo\AppData\Local\Temp\ccTpNVcl.s 			page 45


 2322      7400
 2323              	.LASF107:
 2324 037d 6C617374 		.ascii	"last\000"
 2324      00
 2325              	.LASF29:
 2326 0382 75636E74 		.ascii	"ucnt_t\000"
 2326      5F7400
 2327              	.LASF81:
 2328 0389 63685F73 		.ascii	"ch_system_t\000"
 2328      79737465 
 2328      6D5F7400 
 2329              	.LASF22:
 2330 0395 746D6F64 		.ascii	"tmode_t\000"
 2330      655F7400 
 2331              	.LASF144:
 2332 039d 48545450 		.ascii	"HTTP_STREAM\000"
 2332      5F535452 
 2332      45414D00 
 2333              	.LASF113:
 2334 03a9 6D5F6372 		.ascii	"m_crit_isr\000"
 2334      69745F69 
 2334      737200
 2335              	.LASF57:
 2336 03b4 63685F72 		.ascii	"ch_ready_list\000"
 2336      65616479 
 2336      5F6C6973 
 2336      7400
 2337              	.LASF27:
 2338 03c2 6576656E 		.ascii	"eventmask_t\000"
 2338      746D6173 
 2338      6B5F7400 
 2339              	.LASF8:
 2340 03ce 5F5F696E 		.ascii	"__int32_t\000"
 2340      7433325F 
 2340      7400
 2341              	.LASF87:
 2342 03d8 69646C65 		.ascii	"idle_thread_wa\000"
 2342      5F746872 
 2342      6561645F 
 2342      776100
 2343              	.LASF189:
 2344 03e7 474E5520 		.ascii	"GNU C 4.9.3 20141119 (release) [ARM/embedded-4_9-br"
 2344      4320342E 
 2344      392E3320 
 2344      32303134 
 2344      31313139 
 2345 041a 616E6368 		.ascii	"anch revision 218278] -mcpu=cortex-m4 -mno-thumb-in"
 2345      20726576 
 2345      6973696F 
 2345      6E203231 
 2345      38323738 
 2346 044d 74657277 		.ascii	"terwork -mthumb -ggdb -O2 -fomit-frame-pointer -fal"
 2346      6F726B20 
 2346      2D6D7468 
 2346      756D6220 
 2346      2D676764 
 2347 0480 69676E2D 		.ascii	"ign-functions=16 -ffunction-sections -fdata-section"
ARM GAS  C:\Users\jo\AppData\Local\Temp\ccTpNVcl.s 			page 46


 2347      66756E63 
 2347      74696F6E 
 2347      733D3136 
 2347      202D6666 
 2348 04b3 73202D66 		.ascii	"s -fno-common\000"
 2348      6E6F2D63 
 2348      6F6D6D6F 
 2348      6E00
 2349              	.LASF90:
 2350 04c1 73746B61 		.ascii	"stkalign_t\000"
 2350      6C69676E 
 2350      5F7400
 2351              	.LASF51:
 2352 04cc 74687265 		.ascii	"threads_list_t\000"
 2352      6164735F 
 2352      6C697374 
 2352      5F7400
 2353              	.LASF169:
 2354 04db 735F7265 		.ascii	"s_req\000"
 2354      7100
 2355              	.LASF192:
 2356 04e1 4D656469 		.ascii	"MediaTypeInitDefaults\000"
 2356      61547970 
 2356      65496E69 
 2356      74446566 
 2356      61756C74 
 2357              	.LASF132:
 2358 04f7 73696E5F 		.ascii	"sin_family\000"
 2358      66616D69 
 2358      6C7900
 2359              	.LASF43:
 2360 0502 705F7761 		.ascii	"p_waiting\000"
 2360      6974696E 
 2360      6700
 2361              	.LASF182:
 2362 050c 7461696C 		.ascii	"tail\000"
 2362      00
 2363              	.LASF88:
 2364 0511 73697A65 		.ascii	"sizetype\000"
 2364      74797065 
 2364      00
 2365              	.LASF73:
 2366 051a 63685F76 		.ascii	"ch_virtual_timers_list\000"
 2366      69727475 
 2366      616C5F74 
 2366      696D6572 
 2366      735F6C69 
 2367              	.LASF162:
 2368 0531 7265715F 		.ascii	"req_host\000"
 2368      686F7374 
 2368      00
 2369              	.LASF98:
 2370 053a 63685F73 		.ascii	"ch_swc_event_t\000"
 2370      77635F65 
 2370      76656E74 
 2370      5F7400
 2371              	.LASF74:
ARM GAS  C:\Users\jo\AppData\Local\Temp\ccTpNVcl.s 			page 47


 2372 0549 76745F6C 		.ascii	"vt_lasttime\000"
 2372      61737474 
 2372      696D6500 
 2373              	.LASF19:
 2374 0555 75696E74 		.ascii	"uint64_t\000"
 2374      36345F74 
 2374      00
 2375              	.LASF37:
 2376 055e 705F6F6C 		.ascii	"p_older\000"
 2376      64657200 
 2377              	.LASF60:
 2378 0566 725F6374 		.ascii	"r_ctx\000"
 2378      7800
 2379              	.LASF104:
 2380 056c 746D5F63 		.ascii	"tm_calibration_t\000"
 2380      616C6962 
 2380      72617469 
 2380      6F6E5F74 
 2380      00
 2381              	.LASF131:
 2382 057d 73696E5F 		.ascii	"sin_len\000"
 2382      6C656E00 
 2383              	.LASF39:
 2384 0585 705F7374 		.ascii	"p_stklimit\000"
 2384      6B6C696D 
 2384      697400
 2385              	.LASF63:
 2386 0590 725F6375 		.ascii	"r_current\000"
 2386      7272656E 
 2386      7400
 2387              	.LASF62:
 2388 059a 725F6F6C 		.ascii	"r_older\000"
 2388      64657200 
 2389              	.LASF187:
 2390 05a2 6D656469 		.ascii	"mediaTypeList\000"
 2390      61547970 
 2390      654C6973 
 2390      7400
 2391              	.LASF13:
 2392 05b0 5F5F7569 		.ascii	"__uint64_t\000"
 2392      6E743634 
 2392      5F7400
 2393              	.LASF108:
 2394 05bb 63756D75 		.ascii	"cumulative\000"
 2394      6C617469 
 2394      766500
 2395              	.LASF133:
 2396 05c6 73696E5F 		.ascii	"sin_port\000"
 2396      706F7274 
 2396      00
 2397              	.LASF137:
 2398 05cf 7374726D 		.ascii	"strm_ipos\000"
 2398      5F69706F 
 2398      7300
 2399              	.LASF24:
 2400 05d9 74726566 		.ascii	"trefs_t\000"
 2400      735F7400 
ARM GAS  C:\Users\jo\AppData\Local\Temp\ccTpNVcl.s 			page 48


 2401              	.LASF101:
 2402 05e1 74625F62 		.ascii	"tb_buffer\000"
 2402      75666665 
 2402      7200
 2403              	.LASF146:
 2404 05eb 5F485454 		.ascii	"_HTTP_REQUEST\000"
 2404      505F5245 
 2404      51554553 
 2404      5400
 2405              	.LASF65:
 2406 05f9 76697274 		.ascii	"virtual_timer_t\000"
 2406      75616C5F 
 2406      74696D65 
 2406      725F7400 
 2407              	.LASF33:
 2408 0609 705F7072 		.ascii	"p_prev\000"
 2408      657600
 2409              	.LASF25:
 2410 0610 74707269 		.ascii	"tprio_t\000"
 2410      6F5F7400 
 2411              	.LASF140:
 2412 0618 7374726D 		.ascii	"strm_ssock\000"
 2412      5F73736F 
 2412      636B00
 2413              	.LASF119:
 2414 0623 6D757465 		.ascii	"mutex\000"
 2414      7800
 2415              	.LASF111:
 2416 0629 6E5F6374 		.ascii	"n_ctxswc\000"
 2416      78737763 
 2416      00
 2417              	.LASF124:
 2418 0632 5F426F6F 		.ascii	"_Bool\000"
 2418      6C00
 2419              	.LASF17:
 2420 0638 696E7433 		.ascii	"int32_t\000"
 2420      325F7400 
 2421              	.LASF4:
 2422 0640 756E7369 		.ascii	"unsigned char\000"
 2422      676E6564 
 2422      20636861 
 2422      7200
 2423              	.LASF47:
 2424 064e 705F6D74 		.ascii	"p_mtxlist\000"
 2424      786C6973 
 2424      7400
 2425              	.LASF5:
 2426 0658 73686F72 		.ascii	"short int\000"
 2426      7420696E 
 2426      7400
 2427              	.LASF40:
 2428 0662 705F7374 		.ascii	"p_state\000"
 2428      61746500 
 2429              	.LASF59:
 2430 066a 725F7072 		.ascii	"r_prio\000"
 2430      696F00
 2431              	.LASF118:
ARM GAS  C:\Users\jo\AppData\Local\Temp\ccTpNVcl.s 			page 49


 2432 0671 65776D61 		.ascii	"ewmask\000"
 2432      736B00
 2433              	.LASF32:
 2434 0678 705F6E65 		.ascii	"p_next\000"
 2434      787400
 2435              	.LASF41:
 2436 067f 705F666C 		.ascii	"p_flags\000"
 2436      61677300 
 2437              	.LASF173:
 2438 0687 6D656469 		.ascii	"media_type\000"
 2438      615F7479 
 2438      706500
 2439              	.LASF50:
 2440 0692 705F7374 		.ascii	"p_stats\000"
 2440      61747300 
 2441              	.LASF82:
 2442 069a 63685F73 		.ascii	"ch_system\000"
 2442      79737465 
 2442      6D00
 2443              	.LASF171:
 2444 06a4 5F4D4544 		.ascii	"_MEDIATYPE\000"
 2444      49415459 
 2444      504500
 2445              	.LASF66:
 2446 06af 63685F76 		.ascii	"ch_virtual_timer\000"
 2446      69727475 
 2446      616C5F74 
 2446      696D6572 
 2446      00
 2447              	.LASF46:
 2448 06c0 705F6570 		.ascii	"p_epending\000"
 2448      656E6469 
 2448      6E6700
 2449              	.LASF181:
 2450 06cb 68656164 		.ascii	"head\000"
 2450      00
 2451              	.LASF18:
 2452 06d0 75696E74 		.ascii	"uint32_t\000"
 2452      33325F74 
 2452      00
 2453              	.LASF58:
 2454 06d9 725F7175 		.ascii	"r_queue\000"
 2454      65756500 
 2455              	.LASF69:
 2456 06e1 76745F64 		.ascii	"vt_delta\000"
 2456      656C7461 
 2456      00
 2457              	.LASF53:
 2458 06ea 63685F74 		.ascii	"ch_threads_list\000"
 2458      68726561 
 2458      64735F6C 
 2458      69737400 
 2459              	.LASF142:
 2460 06fa 7374726D 		.ascii	"strm_saddr\000"
 2460      5F736164 
 2460      647200
 2461              	.LASF11:
ARM GAS  C:\Users\jo\AppData\Local\Temp\ccTpNVcl.s 			page 50


 2462 0705 6C6F6E67 		.ascii	"long unsigned int\000"
 2462      20756E73 
 2462      69676E65 
 2462      6420696E 
 2462      7400
 2463              	.LASF190:
 2464 0717 2E2E2F2E 		.ascii	"../../../demos/STM32/RT-STM32F407-DISCOVERY-uHttp/u"
 2464      2E2F2E2E 
 2464      2F64656D 
 2464      6F732F53 
 2464      544D3332 
 2465 074a 68747470 		.ascii	"http-1.1/mtinit.c\000"
 2465      2D312E31 
 2465      2F6D7469 
 2465      6E69742E 
 2465      6300
 2466              	.LASF93:
 2467 075c 63686172 		.ascii	"char\000"
 2467      00
 2468              	.LASF136:
 2469 0761 5F485454 		.ascii	"_HTTP_STREAM\000"
 2469      505F5354 
 2469      5245414D 
 2469      00
 2470              	.LASF174:
 2471 076e 6D656469 		.ascii	"media_subtype\000"
 2471      615F7375 
 2471      62747970 
 2471      6500
 2472              	.LASF6:
 2473 077c 5F5F7569 		.ascii	"__uint16_t\000"
 2473      6E743136 
 2473      5F7400
 2474              	.LASF31:
 2475 0787 74687265 		.ascii	"thread_t\000"
 2475      61645F74 
 2475      00
 2476              	.LASF105:
 2477 0790 62657374 		.ascii	"best\000"
 2477      00
 2478              	.LASF176:
 2479 0795 6D656469 		.ascii	"media_handler\000"
 2479      615F6861 
 2479      6E646C65 
 2479      7200
 2480              	.LASF122:
 2481 07a3 6D5F6E65 		.ascii	"m_next\000"
 2481      787400
 2482              	.LASF30:
 2483 07aa 73797374 		.ascii	"systime_t\000"
 2483      696D655F 
 2483      7400
 2484              	.LASF48:
 2485 07b4 705F7265 		.ascii	"p_realprio\000"
 2485      616C7072 
 2485      696F00
 2486              	.LASF64:
ARM GAS  C:\Users\jo\AppData\Local\Temp\ccTpNVcl.s 			page 51


 2487 07bf 76746675 		.ascii	"vtfunc_t\000"
 2487      6E635F74 
 2487      00
 2488              	.LASF10:
 2489 07c8 5F5F7569 		.ascii	"__uint32_t\000"
 2489      6E743332 
 2489      5F7400
 2490              	.LASF77:
 2491 07d3 70616E69 		.ascii	"panic_msg\000"
 2491      635F6D73 
 2491      6700
 2492              	.LASF103:
 2493 07dd 6F666673 		.ascii	"offset\000"
 2493      657400
 2494              	.LASF91:
 2495 07e4 636F6E74 		.ascii	"context\000"
 2495      65787400 
 2496              	.LASF45:
 2497 07ec 705F6D73 		.ascii	"p_msg\000"
 2497      6700
 2498              	.LASF20:
 2499 07f2 7274636E 		.ascii	"rtcnt_t\000"
 2499      745F7400 
 2500              	.LASF164:
 2501 07fa 7265715F 		.ascii	"req_bnd_dispo\000"
 2501      626E645F 
 2501      64697370 
 2501      6F00
 2502              	.LASF71:
 2503 0808 76745F70 		.ascii	"vt_par\000"
 2503      617200
 2504              	.LASF126:
 2505 080f 7531365F 		.ascii	"u16_t\000"
 2505      7400
 2506              	.LASF163:
 2507 0815 7265715F 		.ascii	"req_encoding\000"
 2507      656E636F 
 2507      64696E67 
 2507      00
 2508              	.LASF167:
 2509 0822 5F485454 		.ascii	"_HTTPD_SESSION\000"
 2509      50445F53 
 2509      45535349 
 2509      4F4E00
 2510              	.LASF54:
 2511 0831 74687265 		.ascii	"threads_queue_t\000"
 2511      6164735F 
 2511      71756575 
 2511      655F7400 
 2512              	.LASF177:
 2513 0841 6D656469 		.ascii	"media_ext\000"
 2513      615F6578 
 2513      7400
 2514              	.LASF42:
 2515 084b 705F7265 		.ascii	"p_refs\000"
 2515      667300
 2516              	.LASF78:
ARM GAS  C:\Users\jo\AppData\Local\Temp\ccTpNVcl.s 			page 52


 2517 0852 6973725F 		.ascii	"isr_cnt\000"
 2517      636E7400 
 2518              	.LASF147:
 2519 085a 7265715F 		.ascii	"req_method\000"
 2519      6D657468 
 2519      6F6400
 2520              	.LASF145:
 2521 0865 48545450 		.ascii	"HTTP_REQUEST\000"
 2521      5F524551 
 2521      55455354 
 2521      00
 2522              	.LASF130:
 2523 0872 736F636B 		.ascii	"sockaddr_in\000"
 2523      61646472 
 2523      5F696E00 
 2524              	.LASF83:
 2525 087e 726C6973 		.ascii	"rlist\000"
 2525      7400
 2526              	.LASF139:
 2527 0884 7374726D 		.ascii	"strm_ibuf\000"
 2527      5F696275 
 2527      6600
 2528              	.LASF15:
 2529 088e 75696E74 		.ascii	"uint8_t\000"
 2529      385F7400 
 2530              	.LASF168:
 2531 0896 735F7374 		.ascii	"s_stream\000"
 2531      7265616D 
 2531      00
 2532              	.LASF117:
 2533 089f 77746F62 		.ascii	"wtobjp\000"
 2533      6A7000
 2534              	.LASF38:
 2535 08a6 705F6E61 		.ascii	"p_name\000"
 2535      6D6500
 2536              	.LASF184:
 2537 08ad 6D74635F 		.ascii	"mtc_image\000"
 2537      696D6167 
 2537      6500
 2538              	.LASF80:
 2539 08b7 74726163 		.ascii	"trace_buffer\000"
 2539      655F6275 
 2539      66666572 
 2539      00
 2540              	.LASF76:
 2541 08c4 63685F73 		.ascii	"ch_system_debug\000"
 2541      79737465 
 2541      6D5F6465 
 2541      62756700 
 2542              	.LASF157:
 2543 08d4 7265715F 		.ascii	"req_type\000"
 2543      74797065 
 2543      00
 2544              	.LASF112:
 2545 08dd 6D5F6372 		.ascii	"m_crit_thd\000"
 2545      69745F74 
 2545      686400
ARM GAS  C:\Users\jo\AppData\Local\Temp\ccTpNVcl.s 			page 53


 2546              	.LASF121:
 2547 08e8 6D5F6F77 		.ascii	"m_owner\000"
 2547      6E657200 
 2548              	.LASF183:
 2549 08f0 6D74635F 		.ascii	"mtc_text\000"
 2549      74657874 
 2549      00
 2550              	.LASF35:
 2551 08f9 705F6374 		.ascii	"p_ctx\000"
 2551      7800
 2552              	.LASF70:
 2553 08ff 76745F66 		.ascii	"vt_func\000"
 2553      756E6300 
 2554              	.LASF128:
 2555 0907 696E5F61 		.ascii	"in_addr\000"
 2555      64647200 
 2556              	.LASF138:
 2557 090f 7374726D 		.ascii	"strm_ilen\000"
 2557      5F696C65 
 2557      6E00
 2558              		.ident	"GCC: (GNU Tools for ARM Embedded Processors) 4.9.3 20141119 (release) [ARM/embedded-4_9-br
ARM GAS  C:\Users\jo\AppData\Local\Temp\ccTpNVcl.s 			page 54


DEFINED SYMBOLS
                            *ABS*:00000000 mtinit.c
C:\Users\jo\AppData\Local\Temp\ccTpNVcl.s:19     .text.MediaTypeInitDefaults:00000000 $t
C:\Users\jo\AppData\Local\Temp\ccTpNVcl.s:25     .text.MediaTypeInitDefaults:00000000 MediaTypeInitDefaults
C:\Users\jo\AppData\Local\Temp\ccTpNVcl.s:87     .text.MediaTypeInitDefaults:00000040 $d
C:\Users\jo\AppData\Local\Temp\ccTpNVcl.s:198    .data.mtc_application:00000000 mtc_application
C:\Users\jo\AppData\Local\Temp\ccTpNVcl.s:94     .data.mt_defaults:00000000 $d
C:\Users\jo\AppData\Local\Temp\ccTpNVcl.s:98     .data.mt_defaults:00000000 mt_defaults
C:\Users\jo\AppData\Local\Temp\ccTpNVcl.s:204    .data.mtc_text:00000000 mtc_text
C:\Users\jo\AppData\Local\Temp\ccTpNVcl.s:175    .data.mtc_image:00000000 mtc_image
C:\Users\jo\AppData\Local\Temp\ccTpNVcl.s:172    .data.mtc_image:00000000 $d
C:\Users\jo\AppData\Local\Temp\ccTpNVcl.s:178    .rodata.str1.4:00000000 $d
C:\Users\jo\AppData\Local\Temp\ccTpNVcl.s:195    .data.mtc_application:00000000 $d
C:\Users\jo\AppData\Local\Temp\ccTpNVcl.s:201    .data.mtc_text:00000000 $d
                     .debug_frame:00000010 $d
C:\Users\jo\AppData\Local\Temp\ccTpNVcl.s:93     .text.MediaTypeInitDefaults:00000048 $t

UNDEFINED SYMBOLS
mediaTypeList
MediaTypeHandlerText
MediaTypeHandlerBinary
