ARM GAS  C:\Users\jo\AppData\Local\Temp\ccbcFezZ.s 			page 1


   1              		.syntax unified
   2              		.cpu cortex-m4
   3              		.fpu softvfp
   4              		.eabi_attribute 20, 1
   5              		.eabi_attribute 21, 1
   6              		.eabi_attribute 23, 3
   7              		.eabi_attribute 24, 1
   8              		.eabi_attribute 25, 1
   9              		.eabi_attribute 26, 1
  10              		.eabi_attribute 30, 2
  11              		.eabi_attribute 34, 1
  12              		.eabi_attribute 18, 4
  13              		.thumb
  14              		.file	"net.c"
  15              		.text
  16              	.Ltext0:
  17              		.cfi_sections	.debug_frame
  18              		.section	.text.net_connect,"ax",%progbits
  19              		.align	2
  20              		.p2align 4,,15
  21              		.global	net_connect
  22              		.thumb
  23              		.thumb_func
  24              		.type	net_connect, %function
  25              	net_connect:
  26              	.LFB256:
  27              		.file 1 "../../../os/ext/PolarSSL/library/net.c"
  28              		.loc 1 123 0
  29              		.cfi_startproc
  30              		@ args = 0, pretend = 0, frame = 16
  31              		@ frame_needed = 0, uses_anonymous_args = 0
  32              	.LVL0:
  33 0000 2DE9F041 		push	{r4, r5, r6, r7, r8, lr}
  34              		.cfi_def_cfa_offset 24
  35              		.cfi_offset 4, -24
  36              		.cfi_offset 5, -20
  37              		.cfi_offset 6, -16
  38              		.cfi_offset 7, -12
  39              		.cfi_offset 8, -8
  40              		.cfi_offset 14, -4
  41 0004 8846     		mov	r8, r1
  42 0006 84B0     		sub	sp, sp, #16
  43              		.cfi_def_cfa_offset 40
  44              		.loc 1 123 0
  45 0008 0746     		mov	r7, r0
  46              		.loc 1 156 0
  47 000a 1948     		ldr	r0, .L8
  48              	.LVL1:
  49              		.loc 1 157 0
  50 000c 0024     		movs	r4, #0
  51              		.loc 1 123 0
  52 000e 1546     		mov	r5, r2
  53              		.loc 1 158 0
  54 0010 1026     		movs	r6, #16
  55              		.loc 1 156 0
  56 0012 FFF7FEFF 		bl	puts
  57              	.LVL2:
ARM GAS  C:\Users\jo\AppData\Local\Temp\ccbcFezZ.s 			page 2


  58              		.loc 1 159 0
  59 0016 4046     		mov	r0, r8
  60              		.loc 1 157 0
  61 0018 0094     		str	r4, [sp]
  62 001a 0194     		str	r4, [sp, #4]
  63 001c 0294     		str	r4, [sp, #8]
  64 001e 0394     		str	r4, [sp, #12]
  65              		.loc 1 158 0
  66 0020 8DF80060 		strb	r6, [sp]
  67              		.loc 1 159 0
  68 0024 FFF7FEFF 		bl	ipaddr_addr
  69              	.LVL3:
  70              		.loc 1 163 0
  71 0028 2246     		mov	r2, r4
  72              		.loc 1 159 0
  73 002a 0190     		str	r0, [sp, #4]
  74              		.loc 1 163 0
  75 002c 0121     		movs	r1, #1
  76 002e 0220     		movs	r0, #2
  77 0030 FFF7FEFF 		bl	lwip_socket
  78              	.LVL4:
  79 0034 A042     		cmp	r0, r4
  80 0036 3860     		str	r0, [r7]
  81 0038 10DB     		blt	.L3
  82              		.loc 1 166 0
  83 003a 0223     		movs	r3, #2
  84 003c 6DBA     		rev16	r5, r5
  85              	.LVL5:
  86              		.loc 1 169 0
  87 003e 6946     		mov	r1, sp
  88 0040 3246     		mov	r2, r6
  89              		.loc 1 167 0
  90 0042 ADF80250 		strh	r5, [sp, #2]	@ movhi
  91              		.loc 1 166 0
  92 0046 8DF80130 		strb	r3, [sp, #1]
  93              		.loc 1 169 0
  94 004a FFF7FEFF 		bl	lwip_connect
  95              	.LVL6:
  96 004e A042     		cmp	r0, r4
  97              		.loc 1 176 0
  98 0050 A8BF     		it	ge
  99 0052 2046     		movge	r0, r4
 100              		.loc 1 169 0
 101 0054 05DB     		blt	.L7
 102              	.L2:
 103              		.loc 1 177 0
 104 0056 04B0     		add	sp, sp, #16
 105              		.cfi_remember_state
 106              		.cfi_def_cfa_offset 24
 107              		@ sp needed
 108 0058 BDE8F081 		pop	{r4, r5, r6, r7, r8, pc}
 109              	.LVL7:
 110              	.L3:
 111              		.cfi_restore_state
 112              		.loc 1 164 0
 113 005c 6FF04100 		mvn	r0, #65
 114 0060 F9E7     		b	.L2
ARM GAS  C:\Users\jo\AppData\Local\Temp\ccbcFezZ.s 			page 3


 115              	.LVL8:
 116              	.L7:
 117              		.loc 1 172 0
 118 0062 3868     		ldr	r0, [r7]
 119 0064 FFF7FEFF 		bl	lwip_close
 120              	.LVL9:
 121              		.loc 1 173 0
 122 0068 6FF04300 		mvn	r0, #67
 123 006c F3E7     		b	.L2
 124              	.L9:
 125 006e 00BF     		.align	2
 126              	.L8:
 127 0070 00000000 		.word	.LC0
 128              		.cfi_endproc
 129              	.LFE256:
 130              		.size	net_connect, .-net_connect
 131 0074 AFF30080 		.section	.text.net_bind,"ax",%progbits
 131      AFF30080 
 131      AFF30080 
 132              		.align	2
 133              		.p2align 4,,15
 134              		.global	net_bind
 135              		.thumb
 136              		.thumb_func
 137              		.type	net_bind, %function
 138              	net_bind:
 139              	.LFB257:
 140              		.loc 1 183 0
 141              		.cfi_startproc
 142              		@ args = 0, pretend = 0, frame = 40
 143              		@ frame_needed = 0, uses_anonymous_args = 0
 144              	.LVL10:
 145 0000 2DE9F047 		push	{r4, r5, r6, r7, r8, r9, r10, lr}
 146              		.cfi_def_cfa_offset 32
 147              		.cfi_offset 4, -32
 148              		.cfi_offset 5, -28
 149              		.cfi_offset 6, -24
 150              		.cfi_offset 7, -20
 151              		.cfi_offset 8, -16
 152              		.cfi_offset 9, -12
 153              		.cfi_offset 10, -8
 154              		.cfi_offset 14, -4
 155 0004 0546     		mov	r5, r0
 156 0006 8CB0     		sub	sp, sp, #48
 157              		.cfi_def_cfa_offset 80
 158              		.loc 1 183 0
 159 0008 8946     		mov	r9, r1
 160 000a 1646     		mov	r6, r2
 161              		.loc 1 203 0
 162 000c 0220     		movs	r0, #2
 163              	.LVL11:
 164 000e 0121     		movs	r1, #1
 165              	.LVL12:
 166 0010 0622     		movs	r2, #6
 167              	.LVL13:
 168 0012 FFF7FEFF 		bl	lwip_socket
 169              	.LVL14:
ARM GAS  C:\Users\jo\AppData\Local\Temp\ccbcFezZ.s 			page 4


 170 0016 0028     		cmp	r0, #0
 171 0018 2860     		str	r0, [r5]
 172 001a 4ADB     		blt	.L19
 173              		.loc 1 206 0
 174 001c 0CAB     		add	r3, sp, #48
 175              		.loc 1 207 0
 176 001e 0427     		movs	r7, #4
 177              		.loc 1 206 0
 178 0020 4FF00108 		mov	r8, #1
 179 0024 43F8248D 		str	r8, [r3, #-36]!
 180              		.loc 1 207 0
 181 0028 3A46     		mov	r2, r7
 182 002a 0097     		str	r7, [sp]
 183 002c 40F6FF71 		movw	r1, #4095
 184              		.loc 1 210 0
 185 0030 0024     		movs	r4, #0
 186 0032 76BA     		rev16	r6, r6
 187              	.LVL15:
 188              		.loc 1 211 0
 189 0034 4FF0020A 		mov	r10, #2
 190              		.loc 1 207 0
 191 0038 FFF7FEFF 		bl	lwip_setsockopt
 192              	.LVL16:
 193              		.loc 1 212 0
 194 003c ADF82260 		strh	r6, [sp, #34]	@ movhi
 195              		.loc 1 210 0
 196 0040 0994     		str	r4, [sp, #36]
 197              		.loc 1 211 0
 198 0042 8DF821A0 		strb	r10, [sp, #33]
 199              		.loc 1 214 0
 200 0046 B9F1000F 		cmp	r9, #0
 201 004a 23D0     		beq	.L13
 202              		.loc 1 216 0
 203 004c 07AA     		add	r2, sp, #28
 204              		.loc 1 217 0
 205 004e 06AB     		add	r3, sp, #24
 206 0050 0192     		str	r2, [sp, #4]
 207 0052 0093     		str	r3, [sp]
 208 0054 2149     		ldr	r1, .L34
 209              		.loc 1 216 0
 210 0056 0494     		str	r4, [sp, #16]
 211              		.loc 1 217 0
 212 0058 4846     		mov	r0, r9
 213 005a 04AA     		add	r2, sp, #16
 214 005c 05AB     		add	r3, sp, #20
 215              		.loc 1 216 0
 216 005e 0594     		str	r4, [sp, #20]
 217 0060 0694     		str	r4, [sp, #24]
 218 0062 0794     		str	r4, [sp, #28]
 219              		.loc 1 217 0
 220 0064 FFF7FEFF 		bl	sscanf
 221              	.LVL17:
 222              		.loc 1 220 0
 223 0068 0499     		ldr	r1, [sp, #16]
 224              		.loc 1 219 0
 225 006a 0394     		str	r4, [sp, #12]
 226              		.loc 1 220 0
ARM GAS  C:\Users\jo\AppData\Local\Temp\ccbcFezZ.s 			page 5


 227 006c FF29     		cmp	r1, #255
 228 006e 11D8     		bhi	.L13
 229 0070 059A     		ldr	r2, [sp, #20]
 230 0072 FF2A     		cmp	r2, #255
 231 0074 20D8     		bhi	.L20
 232 0076 0698     		ldr	r0, [sp, #24]
 233 0078 FF28     		cmp	r0, #255
 234 007a 20D8     		bhi	.L21
 235 007c 079B     		ldr	r3, [sp, #28]
 236 007e FF2B     		cmp	r3, #255
 237 0080 1FD8     		bhi	.L31
 238              		.loc 1 224 0 discriminator 2
 239 0082 1204     		lsls	r2, r2, #16
 240 0084 42EA0162 		orr	r2, r2, r1, lsl #24
 241 0088 1343     		orrs	r3, r3, r2
 242 008a 43EA0023 		orr	r3, r3, r0, lsl #8
 243 008e 1BBA     		rev	r3, r3
 244 0090 0993     		str	r3, [sp, #36]
 245 0092 0397     		str	r7, [sp, #12]
 246              	.L13:
 247              		.loc 1 231 0
 248 0094 2868     		ldr	r0, [r5]
 249 0096 08A9     		add	r1, sp, #32
 250 0098 1022     		movs	r2, #16
 251 009a FFF7FEFF 		bl	lwip_bind
 252              	.LVL18:
 253 009e 0028     		cmp	r0, #0
 254              		.loc 1 234 0
 255 00a0 2868     		ldr	r0, [r5]
 256              		.loc 1 231 0
 257 00a2 16DB     		blt	.L32
 258              		.loc 1 238 0
 259 00a4 0A21     		movs	r1, #10
 260 00a6 FFF7FEFF 		bl	lwip_listen
 261              	.LVL19:
 262 00aa 60B9     		cbnz	r0, .L33
 263              	.L24:
 264              		.loc 1 245 0
 265 00ac 0CB0     		add	sp, sp, #48
 266              		.cfi_remember_state
 267              		.cfi_def_cfa_offset 32
 268              		@ sp needed
 269 00ae BDE8F087 		pop	{r4, r5, r6, r7, r8, r9, r10, pc}
 270              	.LVL20:
 271              	.L19:
 272              		.cfi_restore_state
 273              		.loc 1 204 0
 274 00b2 6FF04100 		mvn	r0, #65
 275 00b6 F9E7     		b	.L24
 276              	.LVL21:
 277              	.L20:
 278              		.loc 1 220 0
 279 00b8 4346     		mov	r3, r8
 280              	.L17:
 281 00ba 0393     		str	r3, [sp, #12]
 282 00bc EAE7     		b	.L13
 283              	.L21:
ARM GAS  C:\Users\jo\AppData\Local\Temp\ccbcFezZ.s 			page 6


 284              		.loc 1 219 0
 285 00be 5346     		mov	r3, r10
 286 00c0 FBE7     		b	.L17
 287              	.L31:
 288 00c2 0323     		movs	r3, #3
 289 00c4 F9E7     		b	.L17
 290              	.L33:
 291              		.loc 1 240 0
 292 00c6 2868     		ldr	r0, [r5]
 293 00c8 FFF7FEFF 		bl	lwip_close
 294              	.LVL22:
 295              		.loc 1 241 0
 296 00cc 6FF04700 		mvn	r0, #71
 297 00d0 ECE7     		b	.L24
 298              	.L32:
 299              		.loc 1 234 0
 300 00d2 FFF7FEFF 		bl	lwip_close
 301              	.LVL23:
 302              		.loc 1 235 0
 303 00d6 6FF04500 		mvn	r0, #69
 304 00da E7E7     		b	.L24
 305              	.L35:
 306              		.align	2
 307              	.L34:
 308 00dc 14000000 		.word	.LC1
 309              		.cfi_endproc
 310              	.LFE257:
 311              		.size	net_bind, .-net_bind
 312              		.section	.text.net_accept,"ax",%progbits
 313              		.align	2
 314              		.p2align 4,,15
 315              		.global	net_accept
 316              		.thumb
 317              		.thumb_func
 318              		.type	net_accept, %function
 319              	net_accept:
 320              	.LFB259:
 321              		.loc 1 273 0
 322              		.cfi_startproc
 323              		@ args = 0, pretend = 0, frame = 24
 324              		@ frame_needed = 0, uses_anonymous_args = 0
 325              	.LVL24:
 326 0000 30B5     		push	{r4, r5, lr}
 327              		.cfi_def_cfa_offset 12
 328              		.cfi_offset 4, -12
 329              		.cfi_offset 5, -8
 330              		.cfi_offset 14, -4
 331 0002 87B0     		sub	sp, sp, #28
 332              		.cfi_def_cfa_offset 40
 333              		.loc 1 273 0
 334 0004 0D46     		mov	r5, r1
 335              		.loc 1 280 0
 336 0006 1023     		movs	r3, #16
 337              		.loc 1 273 0
 338 0008 1446     		mov	r4, r2
 339              		.loc 1 283 0
 340 000a 02A9     		add	r1, sp, #8
ARM GAS  C:\Users\jo\AppData\Local\Temp\ccbcFezZ.s 			page 7


 341              	.LVL25:
 342 000c 01AA     		add	r2, sp, #4
 343              	.LVL26:
 344              		.loc 1 280 0
 345 000e 0193     		str	r3, [sp, #4]
 346              		.loc 1 283 0
 347 0010 FFF7FEFF 		bl	lwip_accept
 348              	.LVL27:
 349              		.loc 1 286 0
 350 0014 0028     		cmp	r0, #0
 351              		.loc 1 283 0
 352 0016 2860     		str	r0, [r5]
 353              		.loc 1 286 0
 354 0018 08DB     		blt	.L43
 355              		.loc 1 294 0
 356 001a 24B1     		cbz	r4, .L41
 357              		.loc 1 295 0
 358 001c 0398     		ldr	r0, [sp, #12]	@ unaligned
 359 001e 2060     		str	r0, [r4]	@ unaligned
 360              		.loc 1 298 0
 361 0020 0020     		movs	r0, #0
 362              		.loc 1 299 0
 363 0022 07B0     		add	sp, sp, #28
 364              		.cfi_remember_state
 365              		.cfi_def_cfa_offset 12
 366              		@ sp needed
 367 0024 30BD     		pop	{r4, r5, pc}
 368              	.LVL28:
 369              	.L41:
 370              		.cfi_restore_state
 371              		.loc 1 298 0
 372 0026 2046     		mov	r0, r4
 373              		.loc 1 299 0
 374 0028 07B0     		add	sp, sp, #28
 375              		.cfi_remember_state
 376              		.cfi_def_cfa_offset 12
 377              		@ sp needed
 378 002a 30BD     		pop	{r4, r5, pc}
 379              	.LVL29:
 380              	.L43:
 381              		.cfi_restore_state
 382              	.LBB8:
 383              	.LBB9:
 384              		.loc 1 255 0
 385 002c FFF7FEFF 		bl	__errno
 386              	.LVL30:
 387 0030 0368     		ldr	r3, [r0]
 388 0032 0B2B     		cmp	r3, #11
 389              	.LBE9:
 390              	.LBE8:
 391              		.loc 1 291 0
 392 0034 0CBF     		ite	eq
 393 0036 6FF05100 		mvneq	r0, #81
 394 003a 6FF04900 		mvnne	r0, #73
 395              		.loc 1 299 0
 396 003e 07B0     		add	sp, sp, #28
 397              		.cfi_def_cfa_offset 12
ARM GAS  C:\Users\jo\AppData\Local\Temp\ccbcFezZ.s 			page 8


 398              		@ sp needed
 399 0040 30BD     		pop	{r4, r5, pc}
 400              		.cfi_endproc
 401              	.LFE259:
 402              		.size	net_accept, .-net_accept
 403 0042 00BFAFF3 		.section	.text.net_set_block,"ax",%progbits
 403      0080AFF3 
 403      0080AFF3 
 403      0080
 404              		.align	2
 405              		.p2align 4,,15
 406              		.global	net_set_block
 407              		.thumb
 408              		.thumb_func
 409              		.type	net_set_block, %function
 410              	net_set_block:
 411              	.LFB260:
 412              		.loc 1 305 0
 413              		.cfi_startproc
 414              		@ args = 0, pretend = 0, frame = 8
 415              		@ frame_needed = 0, uses_anonymous_args = 0
 416              	.LVL31:
 417 0000 00B5     		push	{lr}
 418              		.cfi_def_cfa_offset 4
 419              		.cfi_offset 14, -4
 420 0002 83B0     		sub	sp, sp, #12
 421              		.cfi_def_cfa_offset 16
 422              		.loc 1 307 0
 423 0004 02AA     		add	r2, sp, #8
 424 0006 0023     		movs	r3, #0
 425 0008 42F8043D 		str	r3, [r2, #-4]!
 426              		.loc 1 308 0
 427 000c 0249     		ldr	r1, .L46
 428 000e FFF7FEFF 		bl	lwip_ioctl
 429              	.LVL32:
 430              		.loc 1 312 0
 431 0012 03B0     		add	sp, sp, #12
 432              		.cfi_def_cfa_offset 4
 433              		@ sp needed
 434 0014 5DF804FB 		ldr	pc, [sp], #4
 435              	.L47:
 436              		.align	2
 437              	.L46:
 438 0018 7E660480 		.word	-2147195266
 439              		.cfi_endproc
 440              	.LFE260:
 441              		.size	net_set_block, .-net_set_block
 442 001c AFF30080 		.section	.text.net_set_nonblock,"ax",%progbits
 443              		.align	2
 444              		.p2align 4,,15
 445              		.global	net_set_nonblock
 446              		.thumb
 447              		.thumb_func
 448              		.type	net_set_nonblock, %function
 449              	net_set_nonblock:
 450              	.LFB261:
 451              		.loc 1 315 0
ARM GAS  C:\Users\jo\AppData\Local\Temp\ccbcFezZ.s 			page 9


 452              		.cfi_startproc
 453              		@ args = 0, pretend = 0, frame = 8
 454              		@ frame_needed = 0, uses_anonymous_args = 0
 455              	.LVL33:
 456 0000 00B5     		push	{lr}
 457              		.cfi_def_cfa_offset 4
 458              		.cfi_offset 14, -4
 459 0002 83B0     		sub	sp, sp, #12
 460              		.cfi_def_cfa_offset 16
 461              		.loc 1 317 0
 462 0004 02AA     		add	r2, sp, #8
 463 0006 0123     		movs	r3, #1
 464 0008 42F8043D 		str	r3, [r2, #-4]!
 465              		.loc 1 318 0
 466 000c 0249     		ldr	r1, .L50
 467 000e FFF7FEFF 		bl	lwip_ioctl
 468              	.LVL34:
 469              		.loc 1 322 0
 470 0012 03B0     		add	sp, sp, #12
 471              		.cfi_def_cfa_offset 4
 472              		@ sp needed
 473 0014 5DF804FB 		ldr	pc, [sp], #4
 474              	.L51:
 475              		.align	2
 476              	.L50:
 477 0018 7E660480 		.word	-2147195266
 478              		.cfi_endproc
 479              	.LFE261:
 480              		.size	net_set_nonblock, .-net_set_nonblock
 481 001c AFF30080 		.section	.text.net_usleep,"ax",%progbits
 482              		.align	2
 483              		.p2align 4,,15
 484              		.global	net_usleep
 485              		.thumb
 486              		.thumb_func
 487              		.type	net_usleep, %function
 488              	net_usleep:
 489              	.LFB262:
 490              		.loc 1 328 0
 491              		.cfi_startproc
 492              		@ args = 0, pretend = 0, frame = 8
 493              		@ frame_needed = 0, uses_anonymous_args = 0
 494              	.LVL35:
 495 0000 30B5     		push	{r4, r5, lr}
 496              		.cfi_def_cfa_offset 12
 497              		.cfi_offset 4, -12
 498              		.cfi_offset 5, -8
 499              		.cfi_offset 14, -4
 500 0002 85B0     		sub	sp, sp, #20
 501              		.cfi_def_cfa_offset 32
 502              		.loc 1 330 0
 503 0004 0024     		movs	r4, #0
 504              		.loc 1 332 0
 505 0006 02AD     		add	r5, sp, #8
 506              		.loc 1 331 0
 507 0008 0390     		str	r0, [sp, #12]
 508              		.loc 1 332 0
ARM GAS  C:\Users\jo\AppData\Local\Temp\ccbcFezZ.s 			page 10


 509 000a 2146     		mov	r1, r4
 510 000c 2046     		mov	r0, r4
 511              	.LVL36:
 512 000e 2246     		mov	r2, r4
 513 0010 2346     		mov	r3, r4
 514 0012 0095     		str	r5, [sp]
 515              		.loc 1 330 0
 516 0014 0294     		str	r4, [sp, #8]
 517              		.loc 1 332 0
 518 0016 FFF7FEFF 		bl	lwip_select
 519              	.LVL37:
 520              		.loc 1 333 0
 521 001a 05B0     		add	sp, sp, #20
 522              		.cfi_def_cfa_offset 12
 523              		@ sp needed
 524 001c 30BD     		pop	{r4, r5, pc}
 525              		.cfi_endproc
 526              	.LFE262:
 527              		.size	net_usleep, .-net_usleep
 528 001e 00BF     		.section	.text.net_recv,"ax",%progbits
 529              		.align	2
 530              		.p2align 4,,15
 531              		.global	net_recv
 532              		.thumb
 533              		.thumb_func
 534              		.type	net_recv, %function
 535              	net_recv:
 536              	.LFB263:
 537              		.loc 1 339 0
 538              		.cfi_startproc
 539              		@ args = 0, pretend = 0, frame = 0
 540              		@ frame_needed = 0, uses_anonymous_args = 0
 541              	.LVL38:
 542 0000 08B5     		push	{r3, lr}
 543              		.cfi_def_cfa_offset 8
 544              		.cfi_offset 3, -8
 545              		.cfi_offset 14, -4
 546              		.loc 1 340 0
 547 0002 0068     		ldr	r0, [r0]
 548              	.LVL39:
 549 0004 FFF7FEFF 		bl	lwip_read
 550              	.LVL40:
 551              		.loc 1 342 0
 552 0008 0028     		cmp	r0, #0
 553 000a 00DB     		blt	.L71
 554              		.loc 1 362 0
 555 000c 08BD     		pop	{r3, pc}
 556              	.L71:
 557              	.LBB10:
 558              	.LBB11:
 559              		.loc 1 255 0
 560 000e FFF7FEFF 		bl	__errno
 561              	.LVL41:
 562 0012 0368     		ldr	r3, [r0]
 563 0014 0B2B     		cmp	r3, #11
 564 0016 02D1     		bne	.L72
 565              	.LBE11:
ARM GAS  C:\Users\jo\AppData\Local\Temp\ccbcFezZ.s 			page 11


 566              	.LBE10:
 567              		.loc 1 345 0
 568 0018 6FF05100 		mvn	r0, #81
 569 001c 08BD     		pop	{r3, pc}
 570              	.L72:
 571              		.loc 1 351 0
 572 001e FFF7FEFF 		bl	__errno
 573              	.LVL42:
 574 0022 0368     		ldr	r3, [r0]
 575 0024 202B     		cmp	r3, #32
 576 0026 0ED0     		beq	.L58
 577              		.loc 1 351 0 is_stmt 0 discriminator 1
 578 0028 FFF7FEFF 		bl	__errno
 579              	.LVL43:
 580 002c 0368     		ldr	r3, [r0]
 581 002e 682B     		cmp	r3, #104
 582 0030 09D0     		beq	.L58
 583              		.loc 1 354 0 is_stmt 1
 584 0032 FFF7FEFF 		bl	__errno
 585              	.LVL44:
 586 0036 0368     		ldr	r3, [r0]
 587              		.loc 1 358 0
 588 0038 042B     		cmp	r3, #4
 589 003a 0CBF     		ite	eq
 590 003c 6FF05100 		mvneq	r0, #81
 591 0040 6FF04B00 		mvnne	r0, #75
 592 0044 08BD     		pop	{r3, pc}
 593              	.L58:
 594              		.loc 1 352 0
 595 0046 6FF04F00 		mvn	r0, #79
 596 004a 08BD     		pop	{r3, pc}
 597              		.cfi_endproc
 598              	.LFE263:
 599              		.size	net_recv, .-net_recv
 600 004c AFF30080 		.section	.text.net_send,"ax",%progbits
 601              		.align	2
 602              		.p2align 4,,15
 603              		.global	net_send
 604              		.thumb
 605              		.thumb_func
 606              		.type	net_send, %function
 607              	net_send:
 608              	.LFB264:
 609              		.loc 1 368 0
 610              		.cfi_startproc
 611              		@ args = 0, pretend = 0, frame = 0
 612              		@ frame_needed = 0, uses_anonymous_args = 0
 613              	.LVL45:
 614 0000 08B5     		push	{r3, lr}
 615              		.cfi_def_cfa_offset 8
 616              		.cfi_offset 3, -8
 617              		.cfi_offset 14, -4
 618              		.loc 1 369 0
 619 0002 0068     		ldr	r0, [r0]
 620              	.LVL46:
 621 0004 FFF7FEFF 		bl	lwip_write
 622              	.LVL47:
ARM GAS  C:\Users\jo\AppData\Local\Temp\ccbcFezZ.s 			page 12


 623              		.loc 1 371 0
 624 0008 0028     		cmp	r0, #0
 625 000a 00DB     		blt	.L90
 626              		.loc 1 391 0
 627 000c 08BD     		pop	{r3, pc}
 628              	.L90:
 629              	.LBB12:
 630              	.LBB13:
 631              		.loc 1 255 0
 632 000e FFF7FEFF 		bl	__errno
 633              	.LVL48:
 634 0012 0368     		ldr	r3, [r0]
 635 0014 0B2B     		cmp	r3, #11
 636 0016 02D1     		bne	.L91
 637              	.LBE13:
 638              	.LBE12:
 639              		.loc 1 374 0
 640 0018 6FF05300 		mvn	r0, #83
 641 001c 08BD     		pop	{r3, pc}
 642              	.L91:
 643              		.loc 1 380 0
 644 001e FFF7FEFF 		bl	__errno
 645              	.LVL49:
 646 0022 0368     		ldr	r3, [r0]
 647 0024 202B     		cmp	r3, #32
 648 0026 0ED0     		beq	.L77
 649              		.loc 1 380 0 is_stmt 0 discriminator 1
 650 0028 FFF7FEFF 		bl	__errno
 651              	.LVL50:
 652 002c 0368     		ldr	r3, [r0]
 653 002e 682B     		cmp	r3, #104
 654 0030 09D0     		beq	.L77
 655              		.loc 1 383 0 is_stmt 1
 656 0032 FFF7FEFF 		bl	__errno
 657              	.LVL51:
 658 0036 0368     		ldr	r3, [r0]
 659              		.loc 1 387 0
 660 0038 042B     		cmp	r3, #4
 661 003a 0CBF     		ite	eq
 662 003c 6FF05300 		mvneq	r0, #83
 663 0040 6FF04D00 		mvnne	r0, #77
 664 0044 08BD     		pop	{r3, pc}
 665              	.L77:
 666              		.loc 1 381 0
 667 0046 6FF04F00 		mvn	r0, #79
 668 004a 08BD     		pop	{r3, pc}
 669              		.cfi_endproc
 670              	.LFE264:
 671              		.size	net_send, .-net_send
 672 004c AFF30080 		.section	.text.net_close,"ax",%progbits
 673              		.align	2
 674              		.p2align 4,,15
 675              		.global	net_close
 676              		.thumb
 677              		.thumb_func
 678              		.type	net_close, %function
 679              	net_close:
ARM GAS  C:\Users\jo\AppData\Local\Temp\ccbcFezZ.s 			page 13


 680              	.LFB265:
 681              		.loc 1 397 0
 682              		.cfi_startproc
 683              		@ args = 0, pretend = 0, frame = 0
 684              		@ frame_needed = 0, uses_anonymous_args = 0
 685              	.LVL52:
 686 0000 10B5     		push	{r4, lr}
 687              		.cfi_def_cfa_offset 8
 688              		.cfi_offset 4, -8
 689              		.cfi_offset 14, -4
 690              		.loc 1 398 0
 691 0002 0221     		movs	r1, #2
 692              		.loc 1 397 0
 693 0004 0446     		mov	r4, r0
 694              		.loc 1 398 0
 695 0006 FFF7FEFF 		bl	lwip_shutdown
 696              	.LVL53:
 697              		.loc 1 399 0
 698 000a 2046     		mov	r0, r4
 699              		.loc 1 400 0
 700 000c BDE81040 		pop	{r4, lr}
 701              		.cfi_restore 14
 702              		.cfi_restore 4
 703              		.cfi_def_cfa_offset 0
 704              	.LVL54:
 705              		.loc 1 399 0
 706 0010 FFF7FEBF 		b	lwip_close
 707              	.LVL55:
 708              		.cfi_endproc
 709              	.LFE265:
 710              		.size	net_close, .-net_close
 711 0014 AFF30080 		.section	.rodata.str1.4,"aMS",%progbits,1
 711      AFF30080 
 711      AFF30080 
 712              		.align	2
 713              	.LC0:
 714 0000 53534C3A 		.ascii	"SSL: no DNS mode\000"
 714      206E6F20 
 714      444E5320 
 714      6D6F6465 
 714      00
 715 0011 000000   		.space	3
 716              	.LC1:
 717 0014 25642E25 		.ascii	"%d.%d.%d.%d\000"
 717      642E2564 
 717      2E256400 
 718              		.text
 719              	.Letext0:
 720              		.file 2 "c:\\program files\\gnu tools arm embedded\\4.9 2014q4\\lib\\gcc\\arm-none-eabi\\4.9.3\\in
 721              		.file 3 "c:\\program files\\gnu tools arm embedded\\4.9 2014q4\\arm-none-eabi\\include\\machine\\_
 722              		.file 4 "c:\\program files\\gnu tools arm embedded\\4.9 2014q4\\arm-none-eabi\\include\\stdint.h"
 723              		.file 5 "../../../os/rt/ports/ARMCMx/compilers/GCC/chtypes.h"
 724              		.file 6 "../../../os/rt/include/chsystypes.h"
 725              		.file 7 "../../../os/rt/include/chschd.h"
 726              		.file 8 "../../../os/rt/ports/ARMCMx/chcore.h"
 727              		.file 9 "../../../os/rt/ports/ARMCMx/chcore_v7m.h"
 728              		.file 10 "c:\\program files\\gnu tools arm embedded\\4.9 2014q4\\arm-none-eabi\\include\\sys\\type
ARM GAS  C:\Users\jo\AppData\Local\Temp\ccbcFezZ.s 			page 14


 729              		.file 11 "../../../os/rt/include/chdebug.h"
 730              		.file 12 "../../../os/rt/include/chtm.h"
 731              		.file 13 "../../../os/rt/include/chstats.h"
 732              		.file 14 "../../../os/rt/include/chmtx.h"
 733              		.file 15 "../../../os/various/lwip_bindings/arch/cc.h"
 734              		.file 16 "../../../os/ext/lwip-1.4.1/src/include/ipv4/lwip/inet.h"
 735              		.file 17 "../../../os/ext/lwip-1.4.1/src/include/lwip/sockets.h"
 736              		.file 18 "../../../os/ext/lwip-1.4.1/src/include/ipv4/lwip/ip_addr.h"
 737              		.file 19 "c:\\program files\\gnu tools arm embedded\\4.9 2014q4\\arm-none-eabi\\include\\stdio.h"
 738              		.file 20 "../../../os/ext/CMSIS/include/core_cm4.h"
 739              		.file 21 "<built-in>"
 740              		.file 22 "c:\\program files\\gnu tools arm embedded\\4.9 2014q4\\arm-none-eabi\\include\\sys\\errn
 741              		.section	.debug_info,"",%progbits
 742              	.Ldebug_info0:
 743 0000 44100000 		.4byte	0x1044
 744 0004 0400     		.2byte	0x4
 745 0006 00000000 		.4byte	.Ldebug_abbrev0
 746 000a 04       		.byte	0x4
 747 000b 01       		.uleb128 0x1
 748 000c AF030000 		.4byte	.LASF179
 749 0010 01       		.byte	0x1
 750 0011 7A010000 		.4byte	.LASF180
 751 0015 25010000 		.4byte	.LASF181
 752 0019 00000000 		.4byte	.Ldebug_ranges0+0
 753 001d 00000000 		.4byte	0
 754 0021 00000000 		.4byte	.Ldebug_line0
 755 0025 02       		.uleb128 0x2
 756 0026 04       		.byte	0x4
 757 0027 05       		.byte	0x5
 758 0028 696E7400 		.ascii	"int\000"
 759 002c 03       		.uleb128 0x3
 760 002d 34000000 		.4byte	.LASF2
 761 0031 02       		.byte	0x2
 762 0032 D4       		.byte	0xd4
 763 0033 37000000 		.4byte	0x37
 764 0037 04       		.uleb128 0x4
 765 0038 04       		.byte	0x4
 766 0039 07       		.byte	0x7
 767 003a BE020000 		.4byte	.LASF0
 768 003e 04       		.uleb128 0x4
 769 003f 01       		.byte	0x1
 770 0040 06       		.byte	0x6
 771 0041 AF010000 		.4byte	.LASF1
 772 0045 03       		.uleb128 0x3
 773 0046 4B000000 		.4byte	.LASF3
 774 004a 03       		.byte	0x3
 775 004b 1D       		.byte	0x1d
 776 004c 50000000 		.4byte	0x50
 777 0050 04       		.uleb128 0x4
 778 0051 01       		.byte	0x1
 779 0052 08       		.byte	0x8
 780 0053 DF050000 		.4byte	.LASF4
 781 0057 04       		.uleb128 0x4
 782 0058 02       		.byte	0x2
 783 0059 05       		.byte	0x5
 784 005a F7050000 		.4byte	.LASF5
 785 005e 03       		.uleb128 0x3
ARM GAS  C:\Users\jo\AppData\Local\Temp\ccbcFezZ.s 			page 15


 786 005f CE060000 		.4byte	.LASF6
 787 0063 03       		.byte	0x3
 788 0064 2B       		.byte	0x2b
 789 0065 69000000 		.4byte	0x69
 790 0069 04       		.uleb128 0x4
 791 006a 02       		.byte	0x2
 792 006b 07       		.byte	0x7
 793 006c FF020000 		.4byte	.LASF7
 794 0070 03       		.uleb128 0x3
 795 0071 86030000 		.4byte	.LASF8
 796 0075 03       		.byte	0x3
 797 0076 3F       		.byte	0x3f
 798 0077 7B000000 		.4byte	0x7b
 799 007b 04       		.uleb128 0x4
 800 007c 04       		.byte	0x4
 801 007d 05       		.byte	0x5
 802 007e 05020000 		.4byte	.LASF9
 803 0082 03       		.uleb128 0x3
 804 0083 0C070000 		.4byte	.LASF10
 805 0087 03       		.byte	0x3
 806 0088 41       		.byte	0x41
 807 0089 8D000000 		.4byte	0x8d
 808 008d 04       		.uleb128 0x4
 809 008e 04       		.byte	0x4
 810 008f 07       		.byte	0x7
 811 0090 A1060000 		.4byte	.LASF11
 812 0094 04       		.uleb128 0x4
 813 0095 08       		.byte	0x8
 814 0096 05       		.byte	0x5
 815 0097 A1010000 		.4byte	.LASF12
 816 009b 03       		.uleb128 0x3
 817 009c 67050000 		.4byte	.LASF13
 818 00a0 03       		.byte	0x3
 819 00a1 5B       		.byte	0x5b
 820 00a2 A6000000 		.4byte	0xa6
 821 00a6 04       		.uleb128 0x4
 822 00a7 08       		.byte	0x8
 823 00a8 07       		.byte	0x7
 824 00a9 A2000000 		.4byte	.LASF14
 825 00ad 04       		.uleb128 0x4
 826 00ae 04       		.byte	0x4
 827 00af 07       		.byte	0x7
 828 00b0 C4040000 		.4byte	.LASF15
 829 00b4 05       		.uleb128 0x5
 830 00b5 04       		.byte	0x4
 831 00b6 06       		.uleb128 0x6
 832 00b7 04       		.byte	0x4
 833 00b8 50000000 		.4byte	0x50
 834 00bc 04       		.uleb128 0x4
 835 00bd 01       		.byte	0x1
 836 00be 08       		.byte	0x8
 837 00bf BF060000 		.4byte	.LASF16
 838 00c3 06       		.uleb128 0x6
 839 00c4 04       		.byte	0x4
 840 00c5 C9000000 		.4byte	0xc9
 841 00c9 07       		.uleb128 0x7
 842 00ca BC000000 		.4byte	0xbc
ARM GAS  C:\Users\jo\AppData\Local\Temp\ccbcFezZ.s 			page 16


 843 00ce 08       		.uleb128 0x8
 844 00cf BC000000 		.4byte	0xbc
 845 00d3 DE000000 		.4byte	0xde
 846 00d7 09       		.uleb128 0x9
 847 00d8 AD000000 		.4byte	0xad
 848 00dc 07       		.byte	0x7
 849 00dd 00       		.byte	0
 850 00de 03       		.uleb128 0x3
 851 00df DF070000 		.4byte	.LASF17
 852 00e3 04       		.byte	0x4
 853 00e4 15       		.byte	0x15
 854 00e5 45000000 		.4byte	0x45
 855 00e9 03       		.uleb128 0x3
 856 00ea 2C020000 		.4byte	.LASF18
 857 00ee 04       		.byte	0x4
 858 00ef 21       		.byte	0x21
 859 00f0 5E000000 		.4byte	0x5e
 860 00f4 03       		.uleb128 0x3
 861 00f5 D7050000 		.4byte	.LASF19
 862 00f9 04       		.byte	0x4
 863 00fa 2C       		.byte	0x2c
 864 00fb 70000000 		.4byte	0x70
 865 00ff 03       		.uleb128 0x3
 866 0100 5B060000 		.4byte	.LASF20
 867 0104 04       		.byte	0x4
 868 0105 2D       		.byte	0x2d
 869 0106 82000000 		.4byte	0x82
 870 010a 03       		.uleb128 0x3
 871 010b 42000000 		.4byte	.LASF21
 872 010f 04       		.byte	0x4
 873 0110 39       		.byte	0x39
 874 0111 9B000000 		.4byte	0x9b
 875 0115 0A       		.uleb128 0xa
 876 0116 F4000000 		.4byte	0xf4
 877 011a 03       		.uleb128 0x3
 878 011b 60070000 		.4byte	.LASF22
 879 011f 05       		.byte	0x5
 880 0120 45       		.byte	0x45
 881 0121 FF000000 		.4byte	0xff
 882 0125 03       		.uleb128 0x3
 883 0126 09010000 		.4byte	.LASF23
 884 012a 05       		.byte	0x5
 885 012b 46       		.byte	0x46
 886 012c 0A010000 		.4byte	0x10a
 887 0130 03       		.uleb128 0x3
 888 0131 4B030000 		.4byte	.LASF24
 889 0135 05       		.byte	0x5
 890 0136 48       		.byte	0x48
 891 0137 DE000000 		.4byte	0xde
 892 013b 03       		.uleb128 0x3
 893 013c 0E020000 		.4byte	.LASF25
 894 0140 05       		.byte	0x5
 895 0141 49       		.byte	0x49
 896 0142 DE000000 		.4byte	0xde
 897 0146 03       		.uleb128 0x3
 898 0147 97050000 		.4byte	.LASF26
 899 014b 05       		.byte	0x5
ARM GAS  C:\Users\jo\AppData\Local\Temp\ccbcFezZ.s 			page 17


 900 014c 4A       		.byte	0x4a
 901 014d DE000000 		.4byte	0xde
 902 0151 03       		.uleb128 0x3
 903 0152 C0050000 		.4byte	.LASF27
 904 0156 05       		.byte	0x5
 905 0157 4C       		.byte	0x4c
 906 0158 FF000000 		.4byte	0xff
 907 015c 03       		.uleb128 0x3
 908 015d 25030000 		.4byte	.LASF28
 909 0161 05       		.byte	0x5
 910 0162 4D       		.byte	0x4d
 911 0163 F4000000 		.4byte	0xf4
 912 0167 03       		.uleb128 0x3
 913 0168 72030000 		.4byte	.LASF29
 914 016c 05       		.byte	0x5
 915 016d 4F       		.byte	0x4f
 916 016e FF000000 		.4byte	0xff
 917 0172 03       		.uleb128 0x3
 918 0173 AD020000 		.4byte	.LASF30
 919 0177 05       		.byte	0x5
 920 0178 51       		.byte	0x51
 921 0179 F4000000 		.4byte	0xf4
 922 017d 03       		.uleb128 0x3
 923 017e 30030000 		.4byte	.LASF31
 924 0182 05       		.byte	0x5
 925 0183 52       		.byte	0x52
 926 0184 FF000000 		.4byte	0xff
 927 0188 03       		.uleb128 0x3
 928 0189 EE060000 		.4byte	.LASF32
 929 018d 06       		.byte	0x6
 930 018e 33       		.byte	0x33
 931 018f FF000000 		.4byte	0xff
 932 0193 03       		.uleb128 0x3
 933 0194 D9060000 		.4byte	.LASF33
 934 0198 06       		.byte	0x6
 935 0199 3F       		.byte	0x3f
 936 019a 9E010000 		.4byte	0x19e
 937 019e 0B       		.uleb128 0xb
 938 019f 1B030000 		.4byte	.LASF54
 939 01a3 60       		.byte	0x60
 940 01a4 07       		.byte	0x7
 941 01a5 BE       		.byte	0xbe
 942 01a6 A4020000 		.4byte	0x2a4
 943 01aa 0C       		.uleb128 0xc
 944 01ab 17060000 		.4byte	.LASF34
 945 01af 07       		.byte	0x7
 946 01b0 BF       		.byte	0xbf
 947 01b1 10060000 		.4byte	0x610
 948 01b5 00       		.byte	0
 949 01b6 0C       		.uleb128 0xc
 950 01b7 B9050000 		.4byte	.LASF35
 951 01bb 07       		.byte	0x7
 952 01bc C1       		.byte	0xc1
 953 01bd 10060000 		.4byte	0x610
 954 01c1 04       		.byte	0x4
 955 01c2 0C       		.uleb128 0xc
 956 01c3 1E010000 		.4byte	.LASF36
ARM GAS  C:\Users\jo\AppData\Local\Temp\ccbcFezZ.s 			page 18


 957 01c7 07       		.byte	0x7
 958 01c8 C3       		.byte	0xc3
 959 01c9 51010000 		.4byte	0x151
 960 01cd 08       		.byte	0x8
 961 01ce 0C       		.uleb128 0xc
 962 01cf 68080000 		.4byte	.LASF37
 963 01d3 07       		.byte	0x7
 964 01d4 C4       		.byte	0xc4
 965 01d5 FE040000 		.4byte	0x4fe
 966 01d9 0C       		.byte	0xc
 967 01da 0C       		.uleb128 0xc
 968 01db 35020000 		.4byte	.LASF38
 969 01df 07       		.byte	0x7
 970 01e0 C6       		.byte	0xc6
 971 01e1 10060000 		.4byte	0x610
 972 01e5 10       		.byte	0x10
 973 01e6 0C       		.uleb128 0xc
 974 01e7 23050000 		.4byte	.LASF39
 975 01eb 07       		.byte	0x7
 976 01ec C7       		.byte	0xc7
 977 01ed 10060000 		.4byte	0x610
 978 01f1 14       		.byte	0x14
 979 01f2 0C       		.uleb128 0xc
 980 01f3 F9070000 		.4byte	.LASF40
 981 01f7 07       		.byte	0x7
 982 01f8 CE       		.byte	0xce
 983 01f9 C3000000 		.4byte	0xc3
 984 01fd 18       		.byte	0x18
 985 01fe 0C       		.uleb128 0xc
 986 01ff B3020000 		.4byte	.LASF41
 987 0203 07       		.byte	0x7
 988 0204 D4       		.byte	0xd4
 989 0205 5A070000 		.4byte	0x75a
 990 0209 1C       		.byte	0x1c
 991 020a 0C       		.uleb128 0xc
 992 020b 01060000 		.4byte	.LASF42
 993 020f 07       		.byte	0x7
 994 0210 D9       		.byte	0xd9
 995 0211 3B010000 		.4byte	0x13b
 996 0215 20       		.byte	0x20
 997 0216 0C       		.uleb128 0xc
 998 0217 1E060000 		.4byte	.LASF43
 999 021b 07       		.byte	0x7
 1000 021c DD       		.byte	0xdd
 1001 021d 30010000 		.4byte	0x130
 1002 0221 21       		.byte	0x21
 1003 0222 0C       		.uleb128 0xc
 1004 0223 93070000 		.4byte	.LASF44
 1005 0227 07       		.byte	0x7
 1006 0228 E2       		.byte	0xe2
 1007 0229 46010000 		.4byte	0x146
 1008 022d 22       		.byte	0x22
 1009 022e 0D       		.uleb128 0xd
 1010 022f 705F7500 		.ascii	"p_u\000"
 1011 0233 07       		.byte	0x7
 1012 0234 1401     		.2byte	0x114
 1013 0236 22070000 		.4byte	0x722
ARM GAS  C:\Users\jo\AppData\Local\Temp\ccbcFezZ.s 			page 19


 1014 023a 24       		.byte	0x24
 1015 023b 0E       		.uleb128 0xe
 1016 023c B5040000 		.4byte	.LASF45
 1017 0240 07       		.byte	0x7
 1018 0241 1901     		.2byte	0x119
 1019 0243 A4020000 		.4byte	0x2a4
 1020 0247 28       		.byte	0x28
 1021 0248 0E       		.uleb128 0xe
 1022 0249 DA020000 		.4byte	.LASF46
 1023 024d 07       		.byte	0x7
 1024 024e 1F01     		.2byte	0x11f
 1025 0250 C8020000 		.4byte	0x2c8
 1026 0254 2C       		.byte	0x2c
 1027 0255 0E       		.uleb128 0xe
 1028 0256 52070000 		.4byte	.LASF47
 1029 025a 07       		.byte	0x7
 1030 025b 2301     		.2byte	0x123
 1031 025d 5C010000 		.4byte	0x15c
 1032 0261 34       		.byte	0x34
 1033 0262 0E       		.uleb128 0xe
 1034 0263 48060000 		.4byte	.LASF48
 1035 0267 07       		.byte	0x7
 1036 0268 2901     		.2byte	0x129
 1037 026a 67010000 		.4byte	0x167
 1038 026e 38       		.byte	0x38
 1039 026f 0E       		.uleb128 0xe
 1040 0270 ED050000 		.4byte	.LASF49
 1041 0274 07       		.byte	0x7
 1042 0275 3001     		.2byte	0x130
 1043 0277 91070000 		.4byte	0x791
 1044 027b 3C       		.byte	0x3c
 1045 027c 0E       		.uleb128 0xe
 1046 027d F8060000 		.4byte	.LASF50
 1047 0281 07       		.byte	0x7
 1048 0282 3401     		.2byte	0x134
 1049 0284 51010000 		.4byte	0x151
 1050 0288 40       		.byte	0x40
 1051 0289 0E       		.uleb128 0xe
 1052 028a D1010000 		.4byte	.LASF51
 1053 028e 07       		.byte	0x7
 1054 028f 3A01     		.2byte	0x13a
 1055 0291 B4000000 		.4byte	0xb4
 1056 0295 44       		.byte	0x44
 1057 0296 0E       		.uleb128 0xe
 1058 0297 26060000 		.4byte	.LASF52
 1059 029b 07       		.byte	0x7
 1060 029c 4001     		.2byte	0x140
 1061 029e D3060000 		.4byte	0x6d3
 1062 02a2 48       		.byte	0x48
 1063 02a3 00       		.byte	0
 1064 02a4 03       		.uleb128 0x3
 1065 02a5 08080000 		.4byte	.LASF53
 1066 02a9 06       		.byte	0x6
 1067 02aa 44       		.byte	0x44
 1068 02ab AF020000 		.4byte	0x2af
 1069 02af 0B       		.uleb128 0xb
 1070 02b0 81060000 		.4byte	.LASF55
ARM GAS  C:\Users\jo\AppData\Local\Temp\ccbcFezZ.s 			page 20


 1071 02b4 04       		.byte	0x4
 1072 02b5 07       		.byte	0x7
 1073 02b6 AC       		.byte	0xac
 1074 02b7 C8020000 		.4byte	0x2c8
 1075 02bb 0C       		.uleb128 0xc
 1076 02bc 17060000 		.4byte	.LASF34
 1077 02c0 07       		.byte	0x7
 1078 02c1 AD       		.byte	0xad
 1079 02c2 10060000 		.4byte	0x610
 1080 02c6 00       		.byte	0
 1081 02c7 00       		.byte	0
 1082 02c8 03       		.uleb128 0x3
 1083 02c9 83070000 		.4byte	.LASF56
 1084 02cd 06       		.byte	0x6
 1085 02ce 4B       		.byte	0x4b
 1086 02cf D3020000 		.4byte	0x2d3
 1087 02d3 0B       		.uleb128 0xb
 1088 02d4 61000000 		.4byte	.LASF57
 1089 02d8 08       		.byte	0x8
 1090 02d9 07       		.byte	0x7
 1091 02da B3       		.byte	0xb3
 1092 02db F8020000 		.4byte	0x2f8
 1093 02df 0C       		.uleb128 0xc
 1094 02e0 17060000 		.4byte	.LASF34
 1095 02e4 07       		.byte	0x7
 1096 02e5 B4       		.byte	0xb4
 1097 02e6 10060000 		.4byte	0x610
 1098 02ea 00       		.byte	0
 1099 02eb 0C       		.uleb128 0xc
 1100 02ec B9050000 		.4byte	.LASF35
 1101 02f0 07       		.byte	0x7
 1102 02f1 B5       		.byte	0xb5
 1103 02f2 10060000 		.4byte	0x610
 1104 02f6 04       		.byte	0x4
 1105 02f7 00       		.byte	0
 1106 02f8 03       		.uleb128 0x3
 1107 02f9 1F000000 		.4byte	.LASF58
 1108 02fd 06       		.byte	0x6
 1109 02fe 52       		.byte	0x52
 1110 02ff 03030000 		.4byte	0x303
 1111 0303 0F       		.uleb128 0xf
 1112 0304 64030000 		.4byte	.LASF59
 1113 0308 1C       		.byte	0x1c
 1114 0309 07       		.byte	0x7
 1115 030a 7201     		.2byte	0x172
 1116 030c 5F030000 		.4byte	0x35f
 1117 0310 0E       		.uleb128 0xe
 1118 0311 70060000 		.4byte	.LASF60
 1119 0315 07       		.byte	0x7
 1120 0316 7301     		.2byte	0x173
 1121 0318 C8020000 		.4byte	0x2c8
 1122 031c 00       		.byte	0
 1123 031d 0E       		.uleb128 0xe
 1124 031e 09060000 		.4byte	.LASF61
 1125 0322 07       		.byte	0x7
 1126 0323 7401     		.2byte	0x174
 1127 0325 51010000 		.4byte	0x151
ARM GAS  C:\Users\jo\AppData\Local\Temp\ccbcFezZ.s 			page 21


 1128 0329 08       		.byte	0x8
 1129 032a 0E       		.uleb128 0xe
 1130 032b 2B050000 		.4byte	.LASF62
 1131 032f 07       		.byte	0x7
 1132 0330 7601     		.2byte	0x176
 1133 0332 FE040000 		.4byte	0x4fe
 1134 0336 0C       		.byte	0xc
 1135 0337 0E       		.uleb128 0xe
 1136 0338 4F020000 		.4byte	.LASF63
 1137 033c 07       		.byte	0x7
 1138 033d 7901     		.2byte	0x179
 1139 033f 10060000 		.4byte	0x610
 1140 0343 10       		.byte	0x10
 1141 0344 0E       		.uleb128 0xe
 1142 0345 54050000 		.4byte	.LASF64
 1143 0349 07       		.byte	0x7
 1144 034a 7A01     		.2byte	0x17a
 1145 034c 10060000 		.4byte	0x610
 1146 0350 14       		.byte	0x14
 1147 0351 0E       		.uleb128 0xe
 1148 0352 4A050000 		.4byte	.LASF65
 1149 0356 07       		.byte	0x7
 1150 0357 7D01     		.2byte	0x17d
 1151 0359 10060000 		.4byte	0x610
 1152 035d 18       		.byte	0x18
 1153 035e 00       		.byte	0
 1154 035f 03       		.uleb128 0x3
 1155 0360 03070000 		.4byte	.LASF66
 1156 0364 06       		.byte	0x6
 1157 0365 57       		.byte	0x57
 1158 0366 6A030000 		.4byte	0x36a
 1159 036a 06       		.uleb128 0x6
 1160 036b 04       		.byte	0x4
 1161 036c 70030000 		.4byte	0x370
 1162 0370 10       		.uleb128 0x10
 1163 0371 7B030000 		.4byte	0x37b
 1164 0375 11       		.uleb128 0x11
 1165 0376 B4000000 		.4byte	0xb4
 1166 037a 00       		.byte	0
 1167 037b 03       		.uleb128 0x3
 1168 037c A9050000 		.4byte	.LASF67
 1169 0380 06       		.byte	0x6
 1170 0381 5C       		.byte	0x5c
 1171 0382 86030000 		.4byte	0x386
 1172 0386 0F       		.uleb128 0xf
 1173 0387 37060000 		.4byte	.LASF68
 1174 038b 14       		.byte	0x14
 1175 038c 07       		.byte	0x7
 1176 038d 4D01     		.2byte	0x14d
 1177 038f D5030000 		.4byte	0x3d5
 1178 0393 0E       		.uleb128 0xe
 1179 0394 D2020000 		.4byte	.LASF69
 1180 0398 07       		.byte	0x7
 1181 0399 4E01     		.2byte	0x14e
 1182 039b 97070000 		.4byte	0x797
 1183 039f 00       		.byte	0
 1184 03a0 0E       		.uleb128 0xe
ARM GAS  C:\Users\jo\AppData\Local\Temp\ccbcFezZ.s 			page 22


 1185 03a1 60020000 		.4byte	.LASF70
 1186 03a5 07       		.byte	0x7
 1187 03a6 4F01     		.2byte	0x14f
 1188 03a8 97070000 		.4byte	0x797
 1189 03ac 04       		.byte	0x4
 1190 03ad 0E       		.uleb128 0xe
 1191 03ae 78060000 		.4byte	.LASF71
 1192 03b2 07       		.byte	0x7
 1193 03b3 5001     		.2byte	0x150
 1194 03b5 88010000 		.4byte	0x188
 1195 03b9 08       		.byte	0x8
 1196 03ba 0E       		.uleb128 0xe
 1197 03bb 6E080000 		.4byte	.LASF72
 1198 03bf 07       		.byte	0x7
 1199 03c0 5101     		.2byte	0x151
 1200 03c2 5F030000 		.4byte	0x35f
 1201 03c6 0C       		.byte	0xc
 1202 03c7 0E       		.uleb128 0xe
 1203 03c8 76070000 		.4byte	.LASF73
 1204 03cc 07       		.byte	0x7
 1205 03cd 5301     		.2byte	0x153
 1206 03cf B4000000 		.4byte	0xb4
 1207 03d3 10       		.byte	0x10
 1208 03d4 00       		.byte	0
 1209 03d5 03       		.uleb128 0x3
 1210 03d6 99030000 		.4byte	.LASF74
 1211 03da 06       		.byte	0x6
 1212 03db 61       		.byte	0x61
 1213 03dc E0030000 		.4byte	0x3e0
 1214 03e0 0F       		.uleb128 0xf
 1215 03e1 D7040000 		.4byte	.LASF75
 1216 03e5 10       		.byte	0x10
 1217 03e6 07       		.byte	0x7
 1218 03e7 5D01     		.2byte	0x15d
 1219 03e9 22040000 		.4byte	0x422
 1220 03ed 0E       		.uleb128 0xe
 1221 03ee D2020000 		.4byte	.LASF69
 1222 03f2 07       		.byte	0x7
 1223 03f3 5E01     		.2byte	0x15e
 1224 03f5 97070000 		.4byte	0x797
 1225 03f9 00       		.byte	0
 1226 03fa 0E       		.uleb128 0xe
 1227 03fb 60020000 		.4byte	.LASF70
 1228 03ff 07       		.byte	0x7
 1229 0400 6001     		.2byte	0x160
 1230 0402 97070000 		.4byte	0x797
 1231 0406 04       		.byte	0x4
 1232 0407 0E       		.uleb128 0xe
 1233 0408 78060000 		.4byte	.LASF71
 1234 040c 07       		.byte	0x7
 1235 040d 6201     		.2byte	0x162
 1236 040f 88010000 		.4byte	0x188
 1237 0413 08       		.byte	0x8
 1238 0414 0E       		.uleb128 0xe
 1239 0415 0B050000 		.4byte	.LASF76
 1240 0419 07       		.byte	0x7
 1241 041a 6A01     		.2byte	0x16a
ARM GAS  C:\Users\jo\AppData\Local\Temp\ccbcFezZ.s 			page 23


 1242 041c 88010000 		.4byte	0x188
 1243 0420 0C       		.byte	0xc
 1244 0421 00       		.byte	0
 1245 0422 03       		.uleb128 0x3
 1246 0423 72000000 		.4byte	.LASF77
 1247 0427 06       		.byte	0x6
 1248 0428 66       		.byte	0x66
 1249 0429 2D040000 		.4byte	0x42d
 1250 042d 12       		.uleb128 0x12
 1251 042e 2F080000 		.4byte	.LASF78
 1252 0432 1404     		.2byte	0x414
 1253 0434 07       		.byte	0x7
 1254 0435 8401     		.2byte	0x184
 1255 0437 70040000 		.4byte	0x470
 1256 043b 0E       		.uleb128 0xe
 1257 043c 17070000 		.4byte	.LASF79
 1258 0440 07       		.byte	0x7
 1259 0441 8C01     		.2byte	0x18c
 1260 0443 9D070000 		.4byte	0x79d
 1261 0447 00       		.byte	0
 1262 0448 0E       		.uleb128 0xe
 1263 0449 9A070000 		.4byte	.LASF80
 1264 044d 07       		.byte	0x7
 1265 044e 9101     		.2byte	0x191
 1266 0450 72010000 		.4byte	0x172
 1267 0454 04       		.byte	0x4
 1268 0455 0E       		.uleb128 0xe
 1269 0456 8A020000 		.4byte	.LASF81
 1270 045a 07       		.byte	0x7
 1271 045b 9501     		.2byte	0x195
 1272 045d 72010000 		.4byte	0x172
 1273 0461 08       		.byte	0x8
 1274 0462 0E       		.uleb128 0xe
 1275 0463 17080000 		.4byte	.LASF82
 1276 0467 07       		.byte	0x7
 1277 0468 9B01     		.2byte	0x19b
 1278 046a 65060000 		.4byte	0x665
 1279 046e 0C       		.byte	0xc
 1280 046f 00       		.byte	0
 1281 0470 03       		.uleb128 0x3
 1282 0471 3F030000 		.4byte	.LASF83
 1283 0475 06       		.byte	0x6
 1284 0476 6B       		.byte	0x6b
 1285 0477 7B040000 		.4byte	0x47b
 1286 047b 12       		.uleb128 0x12
 1287 047c FB010000 		.4byte	.LASF84
 1288 0480 D805     		.2byte	0x5d8
 1289 0482 07       		.byte	0x7
 1290 0483 A401     		.2byte	0x1a4
 1291 0485 E8040000 		.4byte	0x4e8
 1292 0489 0E       		.uleb128 0xe
 1293 048a 53030000 		.4byte	.LASF85
 1294 048e 07       		.byte	0x7
 1295 048f A801     		.2byte	0x1a8
 1296 0491 F8020000 		.4byte	0x2f8
 1297 0495 00       		.byte	0
 1298 0496 0E       		.uleb128 0xe
ARM GAS  C:\Users\jo\AppData\Local\Temp\ccbcFezZ.s 			page 24


 1299 0497 EC010000 		.4byte	.LASF86
 1300 049b 07       		.byte	0x7
 1301 049c AC01     		.2byte	0x1ac
 1302 049e D5030000 		.4byte	0x3d5
 1303 04a2 1C       		.byte	0x1c
 1304 04a3 0D       		.uleb128 0xd
 1305 04a4 64626700 		.ascii	"dbg\000"
 1306 04a8 07       		.byte	0x7
 1307 04a9 B001     		.2byte	0x1b0
 1308 04ab 22040000 		.4byte	0x422
 1309 04af 2C       		.byte	0x2c
 1310 04b0 13       		.uleb128 0x13
 1311 04b1 DD000000 		.4byte	.LASF87
 1312 04b5 07       		.byte	0x7
 1313 04b6 B401     		.2byte	0x1b4
 1314 04b8 93010000 		.4byte	0x193
 1315 04bc 4004     		.2byte	0x440
 1316 04be 14       		.uleb128 0x14
 1317 04bf 746D00   		.ascii	"tm\000"
 1318 04c2 07       		.byte	0x7
 1319 04c3 B901     		.2byte	0x1b9
 1320 04c5 85060000 		.4byte	0x685
 1321 04c9 A004     		.2byte	0x4a0
 1322 04cb 13       		.uleb128 0x13
 1323 04cc 8A050000 		.4byte	.LASF88
 1324 04d0 07       		.byte	0x7
 1325 04d1 BF01     		.2byte	0x1bf
 1326 04d3 17070000 		.4byte	0x717
 1327 04d7 A804     		.2byte	0x4a8
 1328 04d9 13       		.uleb128 0x13
 1329 04da 99020000 		.4byte	.LASF89
 1330 04de 07       		.byte	0x7
 1331 04df C501     		.2byte	0x1c5
 1332 04e1 A2070000 		.4byte	0x7a2
 1333 04e5 E004     		.2byte	0x4e0
 1334 04e7 00       		.byte	0
 1335 04e8 03       		.uleb128 0x3
 1336 04e9 57020000 		.4byte	.LASF90
 1337 04ed 08       		.byte	0x8
 1338 04ee 85       		.byte	0x85
 1339 04ef B4000000 		.4byte	0xb4
 1340 04f3 03       		.uleb128 0x3
 1341 04f4 89040000 		.4byte	.LASF91
 1342 04f8 08       		.byte	0x8
 1343 04f9 8D       		.byte	0x8d
 1344 04fa 0A010000 		.4byte	0x10a
 1345 04fe 0B       		.uleb128 0xb
 1346 04ff 4A070000 		.4byte	.LASF92
 1347 0503 04       		.byte	0x4
 1348 0504 08       		.byte	0x8
 1349 0505 A9       		.byte	0xa9
 1350 0506 17050000 		.4byte	0x517
 1351 050a 15       		.uleb128 0x15
 1352 050b 72313300 		.ascii	"r13\000"
 1353 050f 08       		.byte	0x8
 1354 0510 AA       		.byte	0xaa
 1355 0511 92050000 		.4byte	0x592
ARM GAS  C:\Users\jo\AppData\Local\Temp\ccbcFezZ.s 			page 25


 1356 0515 00       		.byte	0
 1357 0516 00       		.byte	0
 1358 0517 0B       		.uleb128 0xb
 1359 0518 55000000 		.4byte	.LASF93
 1360 051c 24       		.byte	0x24
 1361 051d 09       		.byte	0x9
 1362 051e F4       		.byte	0xf4
 1363 051f 92050000 		.4byte	0x592
 1364 0523 0D       		.uleb128 0xd
 1365 0524 723400   		.ascii	"r4\000"
 1366 0527 09       		.byte	0x9
 1367 0528 0701     		.2byte	0x107
 1368 052a E8040000 		.4byte	0x4e8
 1369 052e 00       		.byte	0
 1370 052f 0D       		.uleb128 0xd
 1371 0530 723500   		.ascii	"r5\000"
 1372 0533 09       		.byte	0x9
 1373 0534 0801     		.2byte	0x108
 1374 0536 E8040000 		.4byte	0x4e8
 1375 053a 04       		.byte	0x4
 1376 053b 0D       		.uleb128 0xd
 1377 053c 723600   		.ascii	"r6\000"
 1378 053f 09       		.byte	0x9
 1379 0540 0901     		.2byte	0x109
 1380 0542 E8040000 		.4byte	0x4e8
 1381 0546 08       		.byte	0x8
 1382 0547 0D       		.uleb128 0xd
 1383 0548 723700   		.ascii	"r7\000"
 1384 054b 09       		.byte	0x9
 1385 054c 0A01     		.2byte	0x10a
 1386 054e E8040000 		.4byte	0x4e8
 1387 0552 0C       		.byte	0xc
 1388 0553 0D       		.uleb128 0xd
 1389 0554 723800   		.ascii	"r8\000"
 1390 0557 09       		.byte	0x9
 1391 0558 0B01     		.2byte	0x10b
 1392 055a E8040000 		.4byte	0x4e8
 1393 055e 10       		.byte	0x10
 1394 055f 0D       		.uleb128 0xd
 1395 0560 723900   		.ascii	"r9\000"
 1396 0563 09       		.byte	0x9
 1397 0564 0C01     		.2byte	0x10c
 1398 0566 E8040000 		.4byte	0x4e8
 1399 056a 14       		.byte	0x14
 1400 056b 0D       		.uleb128 0xd
 1401 056c 72313000 		.ascii	"r10\000"
 1402 0570 09       		.byte	0x9
 1403 0571 0D01     		.2byte	0x10d
 1404 0573 E8040000 		.4byte	0x4e8
 1405 0577 18       		.byte	0x18
 1406 0578 0D       		.uleb128 0xd
 1407 0579 72313100 		.ascii	"r11\000"
 1408 057d 09       		.byte	0x9
 1409 057e 0E01     		.2byte	0x10e
 1410 0580 E8040000 		.4byte	0x4e8
 1411 0584 1C       		.byte	0x1c
 1412 0585 0D       		.uleb128 0xd
ARM GAS  C:\Users\jo\AppData\Local\Temp\ccbcFezZ.s 			page 26


 1413 0586 6C7200   		.ascii	"lr\000"
 1414 0589 09       		.byte	0x9
 1415 058a 0F01     		.2byte	0x10f
 1416 058c E8040000 		.4byte	0x4e8
 1417 0590 20       		.byte	0x20
 1418 0591 00       		.byte	0
 1419 0592 06       		.uleb128 0x6
 1420 0593 04       		.byte	0x4
 1421 0594 17050000 		.4byte	0x517
 1422 0598 03       		.uleb128 0x3
 1423 0599 9A000000 		.4byte	.LASF94
 1424 059d 0A       		.byte	0xa
 1425 059e F4       		.byte	0xf4
 1426 059f 7B000000 		.4byte	0x7b
 1427 05a3 0B       		.uleb128 0xb
 1428 05a4 EB020000 		.4byte	.LASF95
 1429 05a8 08       		.byte	0x8
 1430 05a9 0A       		.byte	0xa
 1431 05aa FC       		.byte	0xfc
 1432 05ab BC050000 		.4byte	0x5bc
 1433 05af 0C       		.uleb128 0xc
 1434 05b0 90030000 		.4byte	.LASF96
 1435 05b4 0A       		.byte	0xa
 1436 05b5 FD       		.byte	0xfd
 1437 05b6 BC050000 		.4byte	0x5bc
 1438 05ba 00       		.byte	0
 1439 05bb 00       		.byte	0
 1440 05bc 08       		.uleb128 0x8
 1441 05bd 98050000 		.4byte	0x598
 1442 05c1 CC050000 		.4byte	0x5cc
 1443 05c5 09       		.uleb128 0x9
 1444 05c6 AD000000 		.4byte	0xad
 1445 05ca 01       		.byte	0x1
 1446 05cb 00       		.byte	0
 1447 05cc 03       		.uleb128 0x3
 1448 05cd EB020000 		.4byte	.LASF95
 1449 05d1 0A       		.byte	0xa
 1450 05d2 FE       		.byte	0xfe
 1451 05d3 A3050000 		.4byte	0x5a3
 1452 05d7 16       		.uleb128 0x16
 1453 05d8 10       		.byte	0x10
 1454 05d9 0B       		.byte	0xb
 1455 05da 57       		.byte	0x57
 1456 05db 10060000 		.4byte	0x610
 1457 05df 0C       		.uleb128 0xc
 1458 05e0 2C000000 		.4byte	.LASF97
 1459 05e4 0B       		.byte	0xb
 1460 05e5 5B       		.byte	0x5b
 1461 05e6 88010000 		.4byte	0x188
 1462 05ea 00       		.byte	0
 1463 05eb 0C       		.uleb128 0xc
 1464 05ec 26020000 		.4byte	.LASF98
 1465 05f0 0B       		.byte	0xb
 1466 05f1 5F       		.byte	0x5f
 1467 05f2 10060000 		.4byte	0x610
 1468 05f6 04       		.byte	0x4
 1469 05f7 0C       		.uleb128 0xc
ARM GAS  C:\Users\jo\AppData\Local\Temp\ccbcFezZ.s 			page 27


 1470 05f8 5E080000 		.4byte	.LASF99
 1471 05fc 0B       		.byte	0xb
 1472 05fd 63       		.byte	0x63
 1473 05fe B4000000 		.4byte	0xb4
 1474 0602 08       		.byte	0x8
 1475 0603 0C       		.uleb128 0xc
 1476 0604 CB000000 		.4byte	.LASF100
 1477 0608 0B       		.byte	0xb
 1478 0609 67       		.byte	0x67
 1479 060a DE000000 		.4byte	0xde
 1480 060e 0C       		.byte	0xc
 1481 060f 00       		.byte	0
 1482 0610 06       		.uleb128 0x6
 1483 0611 04       		.byte	0x4
 1484 0612 93010000 		.4byte	0x193
 1485 0616 03       		.uleb128 0x3
 1486 0617 FC040000 		.4byte	.LASF101
 1487 061b 0B       		.byte	0xb
 1488 061c 68       		.byte	0x68
 1489 061d D7050000 		.4byte	0x5d7
 1490 0621 17       		.uleb128 0x17
 1491 0622 0804     		.2byte	0x408
 1492 0624 0B       		.byte	0xb
 1493 0625 6D       		.byte	0x6d
 1494 0626 4F060000 		.4byte	0x64f
 1495 062a 0C       		.uleb128 0xc
 1496 062b 47020000 		.4byte	.LASF102
 1497 062f 0B       		.byte	0xb
 1498 0630 71       		.byte	0x71
 1499 0631 37000000 		.4byte	0x37
 1500 0635 00       		.byte	0
 1501 0636 0C       		.uleb128 0xc
 1502 0637 18000000 		.4byte	.LASF103
 1503 063b 0B       		.byte	0xb
 1504 063c 75       		.byte	0x75
 1505 063d 4F060000 		.4byte	0x64f
 1506 0641 04       		.byte	0x4
 1507 0642 0C       		.uleb128 0xc
 1508 0643 9F050000 		.4byte	.LASF104
 1509 0647 0B       		.byte	0xb
 1510 0648 79       		.byte	0x79
 1511 0649 55060000 		.4byte	0x655
 1512 064d 08       		.byte	0x8
 1513 064e 00       		.byte	0
 1514 064f 06       		.uleb128 0x6
 1515 0650 04       		.byte	0x4
 1516 0651 16060000 		.4byte	0x616
 1517 0655 08       		.uleb128 0x8
 1518 0656 16060000 		.4byte	0x616
 1519 065a 65060000 		.4byte	0x665
 1520 065e 09       		.uleb128 0x9
 1521 065f AD000000 		.4byte	0xad
 1522 0663 3F       		.byte	0x3f
 1523 0664 00       		.byte	0
 1524 0665 03       		.uleb128 0x3
 1525 0666 B9000000 		.4byte	.LASF105
 1526 066a 0B       		.byte	0xb
ARM GAS  C:\Users\jo\AppData\Local\Temp\ccbcFezZ.s 			page 28


 1527 066b 7A       		.byte	0x7a
 1528 066c 21060000 		.4byte	0x621
 1529 0670 16       		.uleb128 0x16
 1530 0671 04       		.byte	0x4
 1531 0672 0C       		.byte	0xc
 1532 0673 38       		.byte	0x38
 1533 0674 85060000 		.4byte	0x685
 1534 0678 0C       		.uleb128 0xc
 1535 0679 2C070000 		.4byte	.LASF106
 1536 067d 0C       		.byte	0xc
 1537 067e 3C       		.byte	0x3c
 1538 067f 1A010000 		.4byte	0x11a
 1539 0683 00       		.byte	0
 1540 0684 00       		.byte	0
 1541 0685 03       		.uleb128 0x3
 1542 0686 31050000 		.4byte	.LASF107
 1543 068a 0C       		.byte	0xc
 1544 068b 3D       		.byte	0x3d
 1545 068c 70060000 		.4byte	0x670
 1546 0690 16       		.uleb128 0x16
 1547 0691 18       		.byte	0x18
 1548 0692 0C       		.byte	0xc
 1549 0693 48       		.byte	0x48
 1550 0694 D3060000 		.4byte	0x6d3
 1551 0698 0C       		.uleb128 0xc
 1552 0699 E2060000 		.4byte	.LASF108
 1553 069d 0C       		.byte	0xc
 1554 069e 49       		.byte	0x49
 1555 069f 1A010000 		.4byte	0x11a
 1556 06a3 00       		.byte	0
 1557 06a4 0C       		.uleb128 0xc
 1558 06a5 81000000 		.4byte	.LASF109
 1559 06a9 0C       		.byte	0xc
 1560 06aa 4A       		.byte	0x4a
 1561 06ab 1A010000 		.4byte	0x11a
 1562 06af 04       		.byte	0x4
 1563 06b0 0C       		.uleb128 0xc
 1564 06b1 2B030000 		.4byte	.LASF110
 1565 06b5 0C       		.byte	0xc
 1566 06b6 4B       		.byte	0x4b
 1567 06b7 1A010000 		.4byte	0x11a
 1568 06bb 08       		.byte	0x8
 1569 06bc 15       		.uleb128 0x15
 1570 06bd 6E00     		.ascii	"n\000"
 1571 06bf 0C       		.byte	0xc
 1572 06c0 4C       		.byte	0x4c
 1573 06c1 7D010000 		.4byte	0x17d
 1574 06c5 0C       		.byte	0xc
 1575 06c6 0C       		.uleb128 0xc
 1576 06c7 21070000 		.4byte	.LASF111
 1577 06cb 0C       		.byte	0xc
 1578 06cc 4D       		.byte	0x4d
 1579 06cd 25010000 		.4byte	0x125
 1580 06d1 10       		.byte	0x10
 1581 06d2 00       		.byte	0
 1582 06d3 03       		.uleb128 0x3
 1583 06d4 87000000 		.4byte	.LASF112
ARM GAS  C:\Users\jo\AppData\Local\Temp\ccbcFezZ.s 			page 29


 1584 06d8 0C       		.byte	0xc
 1585 06d9 4E       		.byte	0x4e
 1586 06da 90060000 		.4byte	0x690
 1587 06de 16       		.uleb128 0x16
 1588 06df 38       		.byte	0x38
 1589 06e0 0D       		.byte	0xd
 1590 06e1 38       		.byte	0x38
 1591 06e2 17070000 		.4byte	0x717
 1592 06e6 0C       		.uleb128 0xc
 1593 06e7 F9020000 		.4byte	.LASF113
 1594 06eb 0D       		.byte	0xd
 1595 06ec 39       		.byte	0x39
 1596 06ed 7D010000 		.4byte	0x17d
 1597 06f1 00       		.byte	0
 1598 06f2 0C       		.uleb128 0xc
 1599 06f3 C8050000 		.4byte	.LASF114
 1600 06f7 0D       		.byte	0xd
 1601 06f8 3A       		.byte	0x3a
 1602 06f9 7D010000 		.4byte	0x17d
 1603 06fd 04       		.byte	0x4
 1604 06fe 0C       		.uleb128 0xc
 1605 06ff 4B080000 		.4byte	.LASF115
 1606 0703 0D       		.byte	0xd
 1607 0704 3B       		.byte	0x3b
 1608 0705 D3060000 		.4byte	0x6d3
 1609 0709 08       		.byte	0x8
 1610 070a 0C       		.uleb128 0xc
 1611 070b 59030000 		.4byte	.LASF116
 1612 070f 0D       		.byte	0xd
 1613 0710 3D       		.byte	0x3d
 1614 0711 D3060000 		.4byte	0x6d3
 1615 0715 20       		.byte	0x20
 1616 0716 00       		.byte	0
 1617 0717 03       		.uleb128 0x3
 1618 0718 00000000 		.4byte	.LASF117
 1619 071c 0D       		.byte	0xd
 1620 071d 3F       		.byte	0x3f
 1621 071e DE060000 		.4byte	0x6de
 1622 0722 18       		.uleb128 0x18
 1623 0723 04       		.byte	0x4
 1624 0724 07       		.byte	0x7
 1625 0725 F6       		.byte	0xf6
 1626 0726 5A070000 		.4byte	0x75a
 1627 072a 19       		.uleb128 0x19
 1628 072b 3B000000 		.4byte	.LASF118
 1629 072f 07       		.byte	0x7
 1630 0730 FD       		.byte	0xfd
 1631 0731 5C010000 		.4byte	0x15c
 1632 0735 1A       		.uleb128 0x1a
 1633 0736 D4000000 		.4byte	.LASF119
 1634 073a 07       		.byte	0x7
 1635 073b 0401     		.2byte	0x104
 1636 073d 5C010000 		.4byte	0x15c
 1637 0741 1A       		.uleb128 0x1a
 1638 0742 F2070000 		.4byte	.LASF120
 1639 0746 07       		.byte	0x7
 1640 0747 0B01     		.2byte	0x10b
ARM GAS  C:\Users\jo\AppData\Local\Temp\ccbcFezZ.s 			page 30


 1641 0749 B4000000 		.4byte	0xb4
 1642 074d 1A       		.uleb128 0x1a
 1643 074e 10060000 		.4byte	.LASF121
 1644 0752 07       		.byte	0x7
 1645 0753 1201     		.2byte	0x112
 1646 0755 67010000 		.4byte	0x167
 1647 0759 00       		.byte	0
 1648 075a 06       		.uleb128 0x6
 1649 075b 04       		.byte	0x4
 1650 075c F3040000 		.4byte	0x4f3
 1651 0760 0B       		.uleb128 0xb
 1652 0761 93020000 		.4byte	.LASF122
 1653 0765 10       		.byte	0x10
 1654 0766 0E       		.byte	0xe
 1655 0767 39       		.byte	0x39
 1656 0768 91070000 		.4byte	0x791
 1657 076c 0C       		.uleb128 0xc
 1658 076d D9010000 		.4byte	.LASF123
 1659 0771 0E       		.byte	0xe
 1660 0772 3A       		.byte	0x3a
 1661 0773 C8020000 		.4byte	0x2c8
 1662 0777 00       		.byte	0
 1663 0778 0C       		.uleb128 0xc
 1664 0779 56080000 		.4byte	.LASF124
 1665 077d 0E       		.byte	0xe
 1666 077e 3C       		.byte	0x3c
 1667 077f 10060000 		.4byte	0x610
 1668 0783 08       		.byte	0x8
 1669 0784 0C       		.uleb128 0xc
 1670 0785 E7060000 		.4byte	.LASF125
 1671 0789 0E       		.byte	0xe
 1672 078a 3E       		.byte	0x3e
 1673 078b BD070000 		.4byte	0x7bd
 1674 078f 0C       		.byte	0xc
 1675 0790 00       		.byte	0
 1676 0791 06       		.uleb128 0x6
 1677 0792 04       		.byte	0x4
 1678 0793 60070000 		.4byte	0x760
 1679 0797 06       		.uleb128 0x6
 1680 0798 04       		.byte	0x4
 1681 0799 7B030000 		.4byte	0x37b
 1682 079d 0A       		.uleb128 0xa
 1683 079e C3000000 		.4byte	0xc3
 1684 07a2 08       		.uleb128 0x8
 1685 07a3 F3040000 		.4byte	0x4f3
 1686 07a7 B2070000 		.4byte	0x7b2
 1687 07ab 09       		.uleb128 0x9
 1688 07ac AD000000 		.4byte	0xad
 1689 07b0 1E       		.byte	0x1e
 1690 07b1 00       		.byte	0
 1691 07b2 03       		.uleb128 0x3
 1692 07b3 82020000 		.4byte	.LASF126
 1693 07b7 0E       		.byte	0xe
 1694 07b8 34       		.byte	0x34
 1695 07b9 60070000 		.4byte	0x760
 1696 07bd 06       		.uleb128 0x6
 1697 07be 04       		.byte	0x4
ARM GAS  C:\Users\jo\AppData\Local\Temp\ccbcFezZ.s 			page 31


 1698 07bf B2070000 		.4byte	0x7b2
 1699 07c3 04       		.uleb128 0x4
 1700 07c4 01       		.byte	0x1
 1701 07c5 02       		.byte	0x2
 1702 07c6 D1050000 		.4byte	.LASF127
 1703 07ca 03       		.uleb128 0x3
 1704 07cb BF040000 		.4byte	.LASF128
 1705 07cf 0F       		.byte	0xf
 1706 07d0 3D       		.byte	0x3d
 1707 07d1 DE000000 		.4byte	0xde
 1708 07d5 03       		.uleb128 0x3
 1709 07d6 7D070000 		.4byte	.LASF129
 1710 07da 0F       		.byte	0xf
 1711 07db 3F       		.byte	0x3f
 1712 07dc E9000000 		.4byte	0xe9
 1713 07e0 03       		.uleb128 0x3
 1714 07e1 E5020000 		.4byte	.LASF130
 1715 07e5 0F       		.byte	0xf
 1716 07e6 41       		.byte	0x41
 1717 07e7 FF000000 		.4byte	0xff
 1718 07eb 0B       		.uleb128 0xb
 1719 07ec 82080000 		.4byte	.LASF131
 1720 07f0 04       		.byte	0x4
 1721 07f1 10       		.byte	0x10
 1722 07f2 2C       		.byte	0x2c
 1723 07f3 04080000 		.4byte	0x804
 1724 07f7 0C       		.uleb128 0xc
 1725 07f8 CB020000 		.4byte	.LASF132
 1726 07fc 10       		.byte	0x10
 1727 07fd 2D       		.byte	0x2d
 1728 07fe E0070000 		.4byte	0x7e0
 1729 0802 00       		.byte	0
 1730 0803 00       		.byte	0
 1731 0804 0B       		.uleb128 0xb
 1732 0805 C9070000 		.4byte	.LASF133
 1733 0809 10       		.byte	0x10
 1734 080a 11       		.byte	0x11
 1735 080b 33       		.byte	0x33
 1736 080c 4D080000 		.4byte	0x84d
 1737 0810 0C       		.uleb128 0xc
 1738 0811 42050000 		.4byte	.LASF134
 1739 0815 11       		.byte	0x11
 1740 0816 34       		.byte	0x34
 1741 0817 CA070000 		.4byte	0x7ca
 1742 081b 00       		.byte	0
 1743 081c 0C       		.uleb128 0xc
 1744 081d AA040000 		.4byte	.LASF135
 1745 0821 11       		.byte	0x11
 1746 0822 35       		.byte	0x35
 1747 0823 CA070000 		.4byte	0x7ca
 1748 0827 01       		.byte	0x1
 1749 0828 0C       		.uleb128 0xc
 1750 0829 77050000 		.4byte	.LASF136
 1751 082d 11       		.byte	0x11
 1752 082e 36       		.byte	0x36
 1753 082f D5070000 		.4byte	0x7d5
 1754 0833 02       		.byte	0x2
ARM GAS  C:\Users\jo\AppData\Local\Temp\ccbcFezZ.s 			page 32


 1755 0834 0C       		.uleb128 0xc
 1756 0835 12030000 		.4byte	.LASF137
 1757 0839 11       		.byte	0x11
 1758 083a 37       		.byte	0x37
 1759 083b EB070000 		.4byte	0x7eb
 1760 083f 04       		.byte	0x4
 1761 0840 0C       		.uleb128 0xc
 1762 0841 68020000 		.4byte	.LASF138
 1763 0845 11       		.byte	0x11
 1764 0846 38       		.byte	0x38
 1765 0847 CE000000 		.4byte	0xce
 1766 084b 08       		.byte	0x8
 1767 084c 00       		.byte	0
 1768 084d 0B       		.uleb128 0xb
 1769 084e B0070000 		.4byte	.LASF139
 1770 0852 10       		.byte	0x10
 1771 0853 11       		.byte	0x11
 1772 0854 3B       		.byte	0x3b
 1773 0855 7E080000 		.4byte	0x87e
 1774 0859 0C       		.uleb128 0xc
 1775 085a 73010000 		.4byte	.LASF140
 1776 085e 11       		.byte	0x11
 1777 085f 3C       		.byte	0x3c
 1778 0860 CA070000 		.4byte	0x7ca
 1779 0864 00       		.byte	0
 1780 0865 0C       		.uleb128 0xc
 1781 0866 80050000 		.4byte	.LASF141
 1782 086a 11       		.byte	0x11
 1783 086b 3D       		.byte	0x3d
 1784 086c CA070000 		.4byte	0x7ca
 1785 0870 01       		.byte	0x1
 1786 0871 0C       		.uleb128 0xc
 1787 0872 00080000 		.4byte	.LASF142
 1788 0876 11       		.byte	0x11
 1789 0877 3E       		.byte	0x3e
 1790 0878 7E080000 		.4byte	0x87e
 1791 087c 02       		.byte	0x2
 1792 087d 00       		.byte	0
 1793 087e 08       		.uleb128 0x8
 1794 087f BC000000 		.4byte	0xbc
 1795 0883 8E080000 		.4byte	0x88e
 1796 0887 09       		.uleb128 0x9
 1797 0888 AD000000 		.4byte	0xad
 1798 088c 0D       		.byte	0xd
 1799 088d 00       		.byte	0
 1800 088e 03       		.uleb128 0x3
 1801 088f E8000000 		.4byte	.LASF143
 1802 0893 11       		.byte	0x11
 1803 0894 44       		.byte	0x44
 1804 0895 E0070000 		.4byte	0x7e0
 1805 0899 0F       		.uleb128 0xf
 1806 089a 7E030000 		.4byte	.LASF144
 1807 089e 08       		.byte	0x8
 1808 089f 11       		.byte	0x11
 1809 08a0 3901     		.2byte	0x139
 1810 08a2 C1080000 		.4byte	0x8c1
 1811 08a6 0E       		.uleb128 0xe
ARM GAS  C:\Users\jo\AppData\Local\Temp\ccbcFezZ.s 			page 33


 1812 08a7 F5040000 		.4byte	.LASF145
 1813 08ab 11       		.byte	0x11
 1814 08ac 3A01     		.2byte	0x13a
 1815 08ae 7B000000 		.4byte	0x7b
 1816 08b2 00       		.byte	0
 1817 08b3 0E       		.uleb128 0xe
 1818 08b4 53060000 		.4byte	.LASF146
 1819 08b8 11       		.byte	0x11
 1820 08b9 3B01     		.2byte	0x13b
 1821 08bb 7B000000 		.4byte	0x7b
 1822 08bf 04       		.byte	0x4
 1823 08c0 00       		.byte	0
 1824 08c1 06       		.uleb128 0x6
 1825 08c2 04       		.byte	0x4
 1826 08c3 C7080000 		.4byte	0x8c7
 1827 08c7 1B       		.uleb128 0x1b
 1828 08c8 1C       		.uleb128 0x1c
 1829 08c9 B9070000 		.4byte	.LASF182
 1830 08cd 01       		.byte	0x1
 1831 08ce FA       		.byte	0xfa
 1832 08cf 25000000 		.4byte	0x25
 1833 08d3 01       		.byte	0x1
 1834 08d4 1D       		.uleb128 0x1d
 1835 08d5 76080000 		.4byte	.LASF149
 1836 08d9 01       		.byte	0x1
 1837 08da 7A       		.byte	0x7a
 1838 08db 25000000 		.4byte	0x25
 1839 08df 00000000 		.4byte	.LFB256
 1840 08e3 74000000 		.4byte	.LFE256-.LFB256
 1841 08e7 01       		.uleb128 0x1
 1842 08e8 9C       		.byte	0x9c
 1843 08e9 94090000 		.4byte	0x994
 1844 08ed 1E       		.uleb128 0x1e
 1845 08ee 666400   		.ascii	"fd\000"
 1846 08f1 01       		.byte	0x1
 1847 08f2 7A       		.byte	0x7a
 1848 08f3 94090000 		.4byte	0x994
 1849 08f7 00000000 		.4byte	.LLST0
 1850 08fb 1F       		.uleb128 0x1f
 1851 08fc A8020000 		.4byte	.LASF147
 1852 0900 01       		.byte	0x1
 1853 0901 7A       		.byte	0x7a
 1854 0902 C3000000 		.4byte	0xc3
 1855 0906 1E000000 		.4byte	.LLST1
 1856 090a 1F       		.uleb128 0x1f
 1857 090b 7D020000 		.4byte	.LASF148
 1858 090f 01       		.byte	0x1
 1859 0910 7A       		.byte	0x7a
 1860 0911 25000000 		.4byte	0x25
 1861 0915 3C000000 		.4byte	.LLST2
 1862 0919 20       		.uleb128 0x20
 1863 091a 33070000 		.4byte	.LASF152
 1864 091e 01       		.byte	0x1
 1865 091f 7C       		.byte	0x7c
 1866 0920 04080000 		.4byte	0x804
 1867 0924 02       		.uleb128 0x2
 1868 0925 91       		.byte	0x91
ARM GAS  C:\Users\jo\AppData\Local\Temp\ccbcFezZ.s 			page 34


 1869 0926 58       		.sleb128 -40
 1870 0927 21       		.uleb128 0x21
 1871 0928 16000000 		.4byte	.LVL2
 1872 092c 540E0000 		.4byte	0xe54
 1873 0930 3E090000 		.4byte	0x93e
 1874 0934 22       		.uleb128 0x22
 1875 0935 01       		.uleb128 0x1
 1876 0936 50       		.byte	0x50
 1877 0937 05       		.uleb128 0x5
 1878 0938 03       		.byte	0x3
 1879 0939 00000000 		.4byte	.LC0
 1880 093d 00       		.byte	0
 1881 093e 21       		.uleb128 0x21
 1882 093f 28000000 		.4byte	.LVL3
 1883 0943 6D0E0000 		.4byte	0xe6d
 1884 0947 52090000 		.4byte	0x952
 1885 094b 22       		.uleb128 0x22
 1886 094c 01       		.uleb128 0x1
 1887 094d 50       		.byte	0x50
 1888 094e 02       		.uleb128 0x2
 1889 094f 78       		.byte	0x78
 1890 0950 00       		.sleb128 0
 1891 0951 00       		.byte	0
 1892 0952 21       		.uleb128 0x21
 1893 0953 34000000 		.4byte	.LVL4
 1894 0957 820E0000 		.4byte	0xe82
 1895 095b 70090000 		.4byte	0x970
 1896 095f 22       		.uleb128 0x22
 1897 0960 01       		.uleb128 0x1
 1898 0961 52       		.byte	0x52
 1899 0962 02       		.uleb128 0x2
 1900 0963 74       		.byte	0x74
 1901 0964 00       		.sleb128 0
 1902 0965 22       		.uleb128 0x22
 1903 0966 01       		.uleb128 0x1
 1904 0967 51       		.byte	0x51
 1905 0968 01       		.uleb128 0x1
 1906 0969 31       		.byte	0x31
 1907 096a 22       		.uleb128 0x22
 1908 096b 01       		.uleb128 0x1
 1909 096c 50       		.byte	0x50
 1910 096d 01       		.uleb128 0x1
 1911 096e 32       		.byte	0x32
 1912 096f 00       		.byte	0
 1913 0970 21       		.uleb128 0x21
 1914 0971 4E000000 		.4byte	.LVL6
 1915 0975 A20E0000 		.4byte	0xea2
 1916 0979 8A090000 		.4byte	0x98a
 1917 097d 22       		.uleb128 0x22
 1918 097e 01       		.uleb128 0x1
 1919 097f 52       		.byte	0x52
 1920 0980 02       		.uleb128 0x2
 1921 0981 76       		.byte	0x76
 1922 0982 00       		.sleb128 0
 1923 0983 22       		.uleb128 0x22
 1924 0984 01       		.uleb128 0x1
 1925 0985 51       		.byte	0x51
ARM GAS  C:\Users\jo\AppData\Local\Temp\ccbcFezZ.s 			page 35


 1926 0986 02       		.uleb128 0x2
 1927 0987 7D       		.byte	0x7d
 1928 0988 00       		.sleb128 0
 1929 0989 00       		.byte	0
 1930 098a 23       		.uleb128 0x23
 1931 098b 68000000 		.4byte	.LVL9
 1932 098f CD0E0000 		.4byte	0xecd
 1933 0993 00       		.byte	0
 1934 0994 06       		.uleb128 0x6
 1935 0995 04       		.byte	0x4
 1936 0996 25000000 		.4byte	0x25
 1937 099a 1D       		.uleb128 0x1d
 1938 099b C8010000 		.4byte	.LASF150
 1939 099f 01       		.byte	0x1
 1940 09a0 B6       		.byte	0xb6
 1941 09a1 25000000 		.4byte	0x25
 1942 09a5 00000000 		.4byte	.LFB257
 1943 09a9 E0000000 		.4byte	.LFE257-.LFB257
 1944 09ad 01       		.uleb128 0x1
 1945 09ae 9C       		.byte	0x9c
 1946 09af C20A0000 		.4byte	0xac2
 1947 09b3 1E       		.uleb128 0x1e
 1948 09b4 666400   		.ascii	"fd\000"
 1949 09b7 01       		.byte	0x1
 1950 09b8 B6       		.byte	0xb6
 1951 09b9 94090000 		.4byte	0x994
 1952 09bd 81000000 		.4byte	.LLST3
 1953 09c1 1F       		.uleb128 0x1f
 1954 09c2 58070000 		.4byte	.LASF151
 1955 09c6 01       		.byte	0x1
 1956 09c7 B6       		.byte	0xb6
 1957 09c8 C3000000 		.4byte	0xc3
 1958 09cc 9F000000 		.4byte	.LLST4
 1959 09d0 1F       		.uleb128 0x1f
 1960 09d1 7D020000 		.4byte	.LASF148
 1961 09d5 01       		.byte	0x1
 1962 09d6 B6       		.byte	0xb6
 1963 09d7 25000000 		.4byte	0x25
 1964 09db BD000000 		.4byte	.LLST5
 1965 09df 24       		.uleb128 0x24
 1966 09e0 6E00     		.ascii	"n\000"
 1967 09e2 01       		.byte	0x1
 1968 09e3 B8       		.byte	0xb8
 1969 09e4 25000000 		.4byte	0x25
 1970 09e8 03       		.uleb128 0x3
 1971 09e9 91       		.byte	0x91
 1972 09ea BC7F     		.sleb128 -68
 1973 09ec 24       		.uleb128 0x24
 1974 09ed 6300     		.ascii	"c\000"
 1975 09ef 01       		.byte	0x1
 1976 09f0 B8       		.byte	0xb8
 1977 09f1 C20A0000 		.4byte	0xac2
 1978 09f5 02       		.uleb128 0x2
 1979 09f6 91       		.byte	0x91
 1980 09f7 40       		.sleb128 -64
 1981 09f8 20       		.uleb128 0x20
 1982 09f9 33070000 		.4byte	.LASF152
ARM GAS  C:\Users\jo\AppData\Local\Temp\ccbcFezZ.s 			page 36


 1983 09fd 01       		.byte	0x1
 1984 09fe B9       		.byte	0xb9
 1985 09ff 04080000 		.4byte	0x804
 1986 0a03 02       		.uleb128 0x2
 1987 0a04 91       		.byte	0x91
 1988 0a05 50       		.sleb128 -48
 1989 0a06 21       		.uleb128 0x21
 1990 0a07 16000000 		.4byte	.LVL14
 1991 0a0b 820E0000 		.4byte	0xe82
 1992 0a0f 230A0000 		.4byte	0xa23
 1993 0a13 22       		.uleb128 0x22
 1994 0a14 01       		.uleb128 0x1
 1995 0a15 52       		.byte	0x52
 1996 0a16 01       		.uleb128 0x1
 1997 0a17 36       		.byte	0x36
 1998 0a18 22       		.uleb128 0x22
 1999 0a19 01       		.uleb128 0x1
 2000 0a1a 51       		.byte	0x51
 2001 0a1b 01       		.uleb128 0x1
 2002 0a1c 31       		.byte	0x31
 2003 0a1d 22       		.uleb128 0x22
 2004 0a1e 01       		.uleb128 0x1
 2005 0a1f 50       		.byte	0x50
 2006 0a20 01       		.uleb128 0x1
 2007 0a21 32       		.byte	0x32
 2008 0a22 00       		.byte	0
 2009 0a23 21       		.uleb128 0x21
 2010 0a24 3C000000 		.4byte	.LVL16
 2011 0a28 E30E0000 		.4byte	0xee3
 2012 0a2c 4C0A0000 		.4byte	0xa4c
 2013 0a30 22       		.uleb128 0x22
 2014 0a31 01       		.uleb128 0x1
 2015 0a32 53       		.byte	0x53
 2016 0a33 03       		.uleb128 0x3
 2017 0a34 91       		.byte	0x91
 2018 0a35 BC7F     		.sleb128 -68
 2019 0a37 22       		.uleb128 0x22
 2020 0a38 01       		.uleb128 0x1
 2021 0a39 52       		.byte	0x52
 2022 0a3a 02       		.uleb128 0x2
 2023 0a3b 77       		.byte	0x77
 2024 0a3c 00       		.sleb128 0
 2025 0a3d 22       		.uleb128 0x22
 2026 0a3e 01       		.uleb128 0x1
 2027 0a3f 51       		.byte	0x51
 2028 0a40 03       		.uleb128 0x3
 2029 0a41 0A       		.byte	0xa
 2030 0a42 FF0F     		.2byte	0xfff
 2031 0a44 22       		.uleb128 0x22
 2032 0a45 02       		.uleb128 0x2
 2033 0a46 7D       		.byte	0x7d
 2034 0a47 00       		.sleb128 0
 2035 0a48 02       		.uleb128 0x2
 2036 0a49 77       		.byte	0x77
 2037 0a4a 00       		.sleb128 0
 2038 0a4b 00       		.byte	0
 2039 0a4c 21       		.uleb128 0x21
ARM GAS  C:\Users\jo\AppData\Local\Temp\ccbcFezZ.s 			page 37


 2040 0a4d 68000000 		.4byte	.LVL17
 2041 0a51 0D0F0000 		.4byte	0xf0d
 2042 0a55 830A0000 		.4byte	0xa83
 2043 0a59 22       		.uleb128 0x22
 2044 0a5a 01       		.uleb128 0x1
 2045 0a5b 53       		.byte	0x53
 2046 0a5c 02       		.uleb128 0x2
 2047 0a5d 91       		.byte	0x91
 2048 0a5e 44       		.sleb128 -60
 2049 0a5f 22       		.uleb128 0x22
 2050 0a60 01       		.uleb128 0x1
 2051 0a61 52       		.byte	0x52
 2052 0a62 02       		.uleb128 0x2
 2053 0a63 91       		.byte	0x91
 2054 0a64 40       		.sleb128 -64
 2055 0a65 22       		.uleb128 0x22
 2056 0a66 01       		.uleb128 0x1
 2057 0a67 51       		.byte	0x51
 2058 0a68 05       		.uleb128 0x5
 2059 0a69 03       		.byte	0x3
 2060 0a6a 14000000 		.4byte	.LC1
 2061 0a6e 22       		.uleb128 0x22
 2062 0a6f 01       		.uleb128 0x1
 2063 0a70 50       		.byte	0x50
 2064 0a71 02       		.uleb128 0x2
 2065 0a72 79       		.byte	0x79
 2066 0a73 00       		.sleb128 0
 2067 0a74 22       		.uleb128 0x22
 2068 0a75 02       		.uleb128 0x2
 2069 0a76 7D       		.byte	0x7d
 2070 0a77 04       		.sleb128 4
 2071 0a78 02       		.uleb128 0x2
 2072 0a79 91       		.byte	0x91
 2073 0a7a 4C       		.sleb128 -52
 2074 0a7b 22       		.uleb128 0x22
 2075 0a7c 02       		.uleb128 0x2
 2076 0a7d 7D       		.byte	0x7d
 2077 0a7e 00       		.sleb128 0
 2078 0a7f 02       		.uleb128 0x2
 2079 0a80 91       		.byte	0x91
 2080 0a81 48       		.sleb128 -56
 2081 0a82 00       		.byte	0
 2082 0a83 21       		.uleb128 0x21
 2083 0a84 9E000000 		.4byte	.LVL18
 2084 0a88 280F0000 		.4byte	0xf28
 2085 0a8c 9C0A0000 		.4byte	0xa9c
 2086 0a90 22       		.uleb128 0x22
 2087 0a91 01       		.uleb128 0x1
 2088 0a92 52       		.byte	0x52
 2089 0a93 01       		.uleb128 0x1
 2090 0a94 40       		.byte	0x40
 2091 0a95 22       		.uleb128 0x22
 2092 0a96 01       		.uleb128 0x1
 2093 0a97 51       		.byte	0x51
 2094 0a98 02       		.uleb128 0x2
 2095 0a99 91       		.byte	0x91
 2096 0a9a 50       		.sleb128 -48
ARM GAS  C:\Users\jo\AppData\Local\Temp\ccbcFezZ.s 			page 38


 2097 0a9b 00       		.byte	0
 2098 0a9c 21       		.uleb128 0x21
 2099 0a9d AA000000 		.4byte	.LVL19
 2100 0aa1 480F0000 		.4byte	0xf48
 2101 0aa5 AF0A0000 		.4byte	0xaaf
 2102 0aa9 22       		.uleb128 0x22
 2103 0aaa 01       		.uleb128 0x1
 2104 0aab 51       		.byte	0x51
 2105 0aac 01       		.uleb128 0x1
 2106 0aad 3A       		.byte	0x3a
 2107 0aae 00       		.byte	0
 2108 0aaf 23       		.uleb128 0x23
 2109 0ab0 CC000000 		.4byte	.LVL22
 2110 0ab4 CD0E0000 		.4byte	0xecd
 2111 0ab8 23       		.uleb128 0x23
 2112 0ab9 D6000000 		.4byte	.LVL23
 2113 0abd CD0E0000 		.4byte	0xecd
 2114 0ac1 00       		.byte	0
 2115 0ac2 08       		.uleb128 0x8
 2116 0ac3 25000000 		.4byte	0x25
 2117 0ac7 D20A0000 		.4byte	0xad2
 2118 0acb 09       		.uleb128 0x9
 2119 0acc AD000000 		.4byte	0xad
 2120 0ad0 03       		.byte	0x3
 2121 0ad1 00       		.byte	0
 2122 0ad2 25       		.uleb128 0x25
 2123 0ad3 E1010000 		.4byte	.LASF153
 2124 0ad7 01       		.byte	0x1
 2125 0ad8 1001     		.2byte	0x110
 2126 0ada 25000000 		.4byte	0x25
 2127 0ade 00000000 		.4byte	.LFB259
 2128 0ae2 42000000 		.4byte	.LFE259-.LFB259
 2129 0ae6 01       		.uleb128 0x1
 2130 0ae7 9C       		.byte	0x9c
 2131 0ae8 740B0000 		.4byte	0xb74
 2132 0aec 26       		.uleb128 0x26
 2133 0aed 37030000 		.4byte	.LASF154
 2134 0af1 01       		.byte	0x1
 2135 0af2 1001     		.2byte	0x110
 2136 0af4 25000000 		.4byte	0x25
 2137 0af8 02010000 		.4byte	.LLST6
 2138 0afc 26       		.uleb128 0x26
 2139 0afd D5070000 		.4byte	.LASF155
 2140 0b01 01       		.byte	0x1
 2141 0b02 1001     		.2byte	0x110
 2142 0b04 94090000 		.4byte	0x994
 2143 0b08 23010000 		.4byte	.LLST7
 2144 0b0c 26       		.uleb128 0x26
 2145 0b0d FF000000 		.4byte	.LASF156
 2146 0b11 01       		.byte	0x1
 2147 0b12 1001     		.2byte	0x110
 2148 0b14 B4000000 		.4byte	0xb4
 2149 0b18 41010000 		.4byte	.LLST8
 2150 0b1c 27       		.uleb128 0x27
 2151 0b1d 17050000 		.4byte	.LASF157
 2152 0b21 01       		.byte	0x1
 2153 0b22 1201     		.2byte	0x112
ARM GAS  C:\Users\jo\AppData\Local\Temp\ccbcFezZ.s 			page 39


 2154 0b24 04080000 		.4byte	0x804
 2155 0b28 02       		.uleb128 0x2
 2156 0b29 91       		.byte	0x91
 2157 0b2a 60       		.sleb128 -32
 2158 0b2b 28       		.uleb128 0x28
 2159 0b2c 6E00     		.ascii	"n\000"
 2160 0b2e 01       		.byte	0x1
 2161 0b2f 1801     		.2byte	0x118
 2162 0b31 E0070000 		.4byte	0x7e0
 2163 0b35 02       		.uleb128 0x2
 2164 0b36 91       		.byte	0x91
 2165 0b37 5C       		.sleb128 -36
 2166 0b38 29       		.uleb128 0x29
 2167 0b39 C8080000 		.4byte	0x8c8
 2168 0b3d 2C000000 		.4byte	.LBB8
 2169 0b41 08000000 		.4byte	.LBE8-.LBB8
 2170 0b45 01       		.byte	0x1
 2171 0b46 2001     		.2byte	0x120
 2172 0b48 560B0000 		.4byte	0xb56
 2173 0b4c 23       		.uleb128 0x23
 2174 0b4d 30000000 		.4byte	.LVL30
 2175 0b51 630F0000 		.4byte	0xf63
 2176 0b55 00       		.byte	0
 2177 0b56 2A       		.uleb128 0x2a
 2178 0b57 14000000 		.4byte	.LVL27
 2179 0b5b 6E0F0000 		.4byte	0xf6e
 2180 0b5f 22       		.uleb128 0x22
 2181 0b60 01       		.uleb128 0x1
 2182 0b61 52       		.byte	0x52
 2183 0b62 02       		.uleb128 0x2
 2184 0b63 91       		.byte	0x91
 2185 0b64 5C       		.sleb128 -36
 2186 0b65 22       		.uleb128 0x22
 2187 0b66 01       		.uleb128 0x1
 2188 0b67 51       		.byte	0x51
 2189 0b68 02       		.uleb128 0x2
 2190 0b69 91       		.byte	0x91
 2191 0b6a 60       		.sleb128 -32
 2192 0b6b 22       		.uleb128 0x22
 2193 0b6c 01       		.uleb128 0x1
 2194 0b6d 50       		.byte	0x50
 2195 0b6e 03       		.uleb128 0x3
 2196 0b6f F3       		.byte	0xf3
 2197 0b70 01       		.uleb128 0x1
 2198 0b71 50       		.byte	0x50
 2199 0b72 00       		.byte	0
 2200 0b73 00       		.byte	0
 2201 0b74 25       		.uleb128 0x25
 2202 0b75 68070000 		.4byte	.LASF158
 2203 0b79 01       		.byte	0x1
 2204 0b7a 3001     		.2byte	0x130
 2205 0b7c 25000000 		.4byte	0x25
 2206 0b80 00000000 		.4byte	.LFB260
 2207 0b84 1C000000 		.4byte	.LFE260-.LFB260
 2208 0b88 01       		.uleb128 0x1
 2209 0b89 9C       		.byte	0x9c
 2210 0b8a CC0B0000 		.4byte	0xbcc
ARM GAS  C:\Users\jo\AppData\Local\Temp\ccbcFezZ.s 			page 40


 2211 0b8e 2B       		.uleb128 0x2b
 2212 0b8f 666400   		.ascii	"fd\000"
 2213 0b92 01       		.byte	0x1
 2214 0b93 3001     		.2byte	0x130
 2215 0b95 25000000 		.4byte	0x25
 2216 0b99 5F010000 		.4byte	.LLST9
 2217 0b9d 28       		.uleb128 0x28
 2218 0b9e 6E00     		.ascii	"n\000"
 2219 0ba0 01       		.byte	0x1
 2220 0ba1 3301     		.2byte	0x133
 2221 0ba3 8D000000 		.4byte	0x8d
 2222 0ba7 02       		.uleb128 0x2
 2223 0ba8 91       		.byte	0x91
 2224 0ba9 74       		.sleb128 -12
 2225 0baa 2A       		.uleb128 0x2a
 2226 0bab 12000000 		.4byte	.LVL32
 2227 0baf 9A0F0000 		.4byte	0xf9a
 2228 0bb3 22       		.uleb128 0x22
 2229 0bb4 01       		.uleb128 0x1
 2230 0bb5 52       		.byte	0x52
 2231 0bb6 02       		.uleb128 0x2
 2232 0bb7 91       		.byte	0x91
 2233 0bb8 74       		.sleb128 -12
 2234 0bb9 22       		.uleb128 0x22
 2235 0bba 01       		.uleb128 0x1
 2236 0bbb 51       		.byte	0x51
 2237 0bbc 06       		.uleb128 0x6
 2238 0bbd 11       		.byte	0x11
 2239 0bbe FECC9180 		.sleb128 -2147195266
 2239      78
 2240 0bc3 22       		.uleb128 0x22
 2241 0bc4 01       		.uleb128 0x1
 2242 0bc5 50       		.byte	0x50
 2243 0bc6 03       		.uleb128 0x3
 2244 0bc7 F3       		.byte	0xf3
 2245 0bc8 01       		.uleb128 0x1
 2246 0bc9 50       		.byte	0x50
 2247 0bca 00       		.byte	0
 2248 0bcb 00       		.byte	0
 2249 0bcc 25       		.uleb128 0x25
 2250 0bcd 94040000 		.4byte	.LASF159
 2251 0bd1 01       		.byte	0x1
 2252 0bd2 3A01     		.2byte	0x13a
 2253 0bd4 25000000 		.4byte	0x25
 2254 0bd8 00000000 		.4byte	.LFB261
 2255 0bdc 1C000000 		.4byte	.LFE261-.LFB261
 2256 0be0 01       		.uleb128 0x1
 2257 0be1 9C       		.byte	0x9c
 2258 0be2 240C0000 		.4byte	0xc24
 2259 0be6 2B       		.uleb128 0x2b
 2260 0be7 666400   		.ascii	"fd\000"
 2261 0bea 01       		.byte	0x1
 2262 0beb 3A01     		.2byte	0x13a
 2263 0bed 25000000 		.4byte	0x25
 2264 0bf1 80010000 		.4byte	.LLST10
 2265 0bf5 28       		.uleb128 0x28
 2266 0bf6 6E00     		.ascii	"n\000"
ARM GAS  C:\Users\jo\AppData\Local\Temp\ccbcFezZ.s 			page 41


 2267 0bf8 01       		.byte	0x1
 2268 0bf9 3D01     		.2byte	0x13d
 2269 0bfb 8D000000 		.4byte	0x8d
 2270 0bff 02       		.uleb128 0x2
 2271 0c00 91       		.byte	0x91
 2272 0c01 74       		.sleb128 -12
 2273 0c02 2A       		.uleb128 0x2a
 2274 0c03 12000000 		.4byte	.LVL34
 2275 0c07 9A0F0000 		.4byte	0xf9a
 2276 0c0b 22       		.uleb128 0x22
 2277 0c0c 01       		.uleb128 0x1
 2278 0c0d 52       		.byte	0x52
 2279 0c0e 02       		.uleb128 0x2
 2280 0c0f 91       		.byte	0x91
 2281 0c10 74       		.sleb128 -12
 2282 0c11 22       		.uleb128 0x22
 2283 0c12 01       		.uleb128 0x1
 2284 0c13 51       		.byte	0x51
 2285 0c14 06       		.uleb128 0x6
 2286 0c15 11       		.byte	0x11
 2287 0c16 FECC9180 		.sleb128 -2147195266
 2287      78
 2288 0c1b 22       		.uleb128 0x22
 2289 0c1c 01       		.uleb128 0x1
 2290 0c1d 50       		.byte	0x50
 2291 0c1e 03       		.uleb128 0x3
 2292 0c1f F3       		.byte	0xf3
 2293 0c20 01       		.uleb128 0x1
 2294 0c21 50       		.byte	0x50
 2295 0c22 00       		.byte	0
 2296 0c23 00       		.byte	0
 2297 0c24 2C       		.uleb128 0x2c
 2298 0c25 E7070000 		.4byte	.LASF163
 2299 0c29 01       		.byte	0x1
 2300 0c2a 4701     		.2byte	0x147
 2301 0c2c 00000000 		.4byte	.LFB262
 2302 0c30 1E000000 		.4byte	.LFE262-.LFB262
 2303 0c34 01       		.uleb128 0x1
 2304 0c35 9C       		.byte	0x9c
 2305 0c36 820C0000 		.4byte	0xc82
 2306 0c3a 26       		.uleb128 0x26
 2307 0c3b 72050000 		.4byte	.LASF160
 2308 0c3f 01       		.byte	0x1
 2309 0c40 4701     		.2byte	0x147
 2310 0c42 8D000000 		.4byte	0x8d
 2311 0c46 A1010000 		.4byte	.LLST11
 2312 0c4a 28       		.uleb128 0x28
 2313 0c4b 747600   		.ascii	"tv\000"
 2314 0c4e 01       		.byte	0x1
 2315 0c4f 4901     		.2byte	0x149
 2316 0c51 99080000 		.4byte	0x899
 2317 0c55 02       		.uleb128 0x2
 2318 0c56 91       		.byte	0x91
 2319 0c57 68       		.sleb128 -24
 2320 0c58 2A       		.uleb128 0x2a
 2321 0c59 1A000000 		.4byte	.LVL37
 2322 0c5d BA0F0000 		.4byte	0xfba
ARM GAS  C:\Users\jo\AppData\Local\Temp\ccbcFezZ.s 			page 42


 2323 0c61 22       		.uleb128 0x22
 2324 0c62 01       		.uleb128 0x1
 2325 0c63 53       		.byte	0x53
 2326 0c64 02       		.uleb128 0x2
 2327 0c65 74       		.byte	0x74
 2328 0c66 00       		.sleb128 0
 2329 0c67 22       		.uleb128 0x22
 2330 0c68 01       		.uleb128 0x1
 2331 0c69 52       		.byte	0x52
 2332 0c6a 02       		.uleb128 0x2
 2333 0c6b 74       		.byte	0x74
 2334 0c6c 00       		.sleb128 0
 2335 0c6d 22       		.uleb128 0x22
 2336 0c6e 01       		.uleb128 0x1
 2337 0c6f 51       		.byte	0x51
 2338 0c70 02       		.uleb128 0x2
 2339 0c71 74       		.byte	0x74
 2340 0c72 00       		.sleb128 0
 2341 0c73 22       		.uleb128 0x22
 2342 0c74 01       		.uleb128 0x1
 2343 0c75 50       		.byte	0x50
 2344 0c76 02       		.uleb128 0x2
 2345 0c77 74       		.byte	0x74
 2346 0c78 00       		.sleb128 0
 2347 0c79 22       		.uleb128 0x22
 2348 0c7a 02       		.uleb128 0x2
 2349 0c7b 7D       		.byte	0x7d
 2350 0c7c 00       		.sleb128 0
 2351 0c7d 02       		.uleb128 0x2
 2352 0c7e 75       		.byte	0x75
 2353 0c7f 00       		.sleb128 0
 2354 0c80 00       		.byte	0
 2355 0c81 00       		.byte	0
 2356 0c82 25       		.uleb128 0x25
 2357 0c83 2E060000 		.4byte	.LASF161
 2358 0c87 01       		.byte	0x1
 2359 0c88 5201     		.2byte	0x152
 2360 0c8a 25000000 		.4byte	0x25
 2361 0c8e 00000000 		.4byte	.LFB263
 2362 0c92 4C000000 		.4byte	.LFE263-.LFB263
 2363 0c96 01       		.uleb128 0x1
 2364 0c97 9C       		.byte	0x9c
 2365 0c98 320D0000 		.4byte	0xd32
 2366 0c9c 2B       		.uleb128 0x2b
 2367 0c9d 63747800 		.ascii	"ctx\000"
 2368 0ca1 01       		.byte	0x1
 2369 0ca2 5201     		.2byte	0x152
 2370 0ca4 B4000000 		.4byte	0xb4
 2371 0ca8 CE010000 		.4byte	.LLST12
 2372 0cac 2B       		.uleb128 0x2b
 2373 0cad 62756600 		.ascii	"buf\000"
 2374 0cb1 01       		.byte	0x1
 2375 0cb2 5201     		.2byte	0x152
 2376 0cb4 B6000000 		.4byte	0xb6
 2377 0cb8 EF010000 		.4byte	.LLST13
 2378 0cbc 2B       		.uleb128 0x2b
 2379 0cbd 6C656E00 		.ascii	"len\000"
ARM GAS  C:\Users\jo\AppData\Local\Temp\ccbcFezZ.s 			page 43


 2380 0cc1 01       		.byte	0x1
 2381 0cc2 5201     		.2byte	0x152
 2382 0cc4 2C000000 		.4byte	0x2c
 2383 0cc8 10020000 		.4byte	.LLST14
 2384 0ccc 2D       		.uleb128 0x2d
 2385 0ccd 72657400 		.ascii	"ret\000"
 2386 0cd1 01       		.byte	0x1
 2387 0cd2 5401     		.2byte	0x154
 2388 0cd4 25000000 		.4byte	0x25
 2389 0cd8 31020000 		.4byte	.LLST15
 2390 0cdc 29       		.uleb128 0x29
 2391 0cdd C8080000 		.4byte	0x8c8
 2392 0ce1 0E000000 		.4byte	.LBB10
 2393 0ce5 0A000000 		.4byte	.LBE10-.LBB10
 2394 0ce9 01       		.byte	0x1
 2395 0cea 5801     		.2byte	0x158
 2396 0cec FA0C0000 		.4byte	0xcfa
 2397 0cf0 23       		.uleb128 0x23
 2398 0cf1 12000000 		.4byte	.LVL41
 2399 0cf5 630F0000 		.4byte	0xf63
 2400 0cf9 00       		.byte	0
 2401 0cfa 21       		.uleb128 0x21
 2402 0cfb 08000000 		.4byte	.LVL40
 2403 0cff F00F0000 		.4byte	0xff0
 2404 0d03 160D0000 		.4byte	0xd16
 2405 0d07 22       		.uleb128 0x22
 2406 0d08 01       		.uleb128 0x1
 2407 0d09 52       		.byte	0x52
 2408 0d0a 03       		.uleb128 0x3
 2409 0d0b F3       		.byte	0xf3
 2410 0d0c 01       		.uleb128 0x1
 2411 0d0d 52       		.byte	0x52
 2412 0d0e 22       		.uleb128 0x22
 2413 0d0f 01       		.uleb128 0x1
 2414 0d10 51       		.byte	0x51
 2415 0d11 03       		.uleb128 0x3
 2416 0d12 F3       		.byte	0xf3
 2417 0d13 01       		.uleb128 0x1
 2418 0d14 51       		.byte	0x51
 2419 0d15 00       		.byte	0
 2420 0d16 23       		.uleb128 0x23
 2421 0d17 22000000 		.4byte	.LVL42
 2422 0d1b 630F0000 		.4byte	0xf63
 2423 0d1f 23       		.uleb128 0x23
 2424 0d20 2C000000 		.4byte	.LVL43
 2425 0d24 630F0000 		.4byte	0xf63
 2426 0d28 23       		.uleb128 0x23
 2427 0d29 36000000 		.4byte	.LVL44
 2428 0d2d 630F0000 		.4byte	0xf63
 2429 0d31 00       		.byte	0
 2430 0d32 25       		.uleb128 0x25
 2431 0d33 0F000000 		.4byte	.LASF162
 2432 0d37 01       		.byte	0x1
 2433 0d38 6F01     		.2byte	0x16f
 2434 0d3a 25000000 		.4byte	0x25
 2435 0d3e 00000000 		.4byte	.LFB264
 2436 0d42 4C000000 		.4byte	.LFE264-.LFB264
ARM GAS  C:\Users\jo\AppData\Local\Temp\ccbcFezZ.s 			page 44


 2437 0d46 01       		.uleb128 0x1
 2438 0d47 9C       		.byte	0x9c
 2439 0d48 E20D0000 		.4byte	0xde2
 2440 0d4c 2B       		.uleb128 0x2b
 2441 0d4d 63747800 		.ascii	"ctx\000"
 2442 0d51 01       		.byte	0x1
 2443 0d52 6F01     		.2byte	0x16f
 2444 0d54 B4000000 		.4byte	0xb4
 2445 0d58 44020000 		.4byte	.LLST16
 2446 0d5c 2B       		.uleb128 0x2b
 2447 0d5d 62756600 		.ascii	"buf\000"
 2448 0d61 01       		.byte	0x1
 2449 0d62 6F01     		.2byte	0x16f
 2450 0d64 E20D0000 		.4byte	0xde2
 2451 0d68 65020000 		.4byte	.LLST17
 2452 0d6c 2B       		.uleb128 0x2b
 2453 0d6d 6C656E00 		.ascii	"len\000"
 2454 0d71 01       		.byte	0x1
 2455 0d72 6F01     		.2byte	0x16f
 2456 0d74 2C000000 		.4byte	0x2c
 2457 0d78 86020000 		.4byte	.LLST18
 2458 0d7c 2D       		.uleb128 0x2d
 2459 0d7d 72657400 		.ascii	"ret\000"
 2460 0d81 01       		.byte	0x1
 2461 0d82 7101     		.2byte	0x171
 2462 0d84 25000000 		.4byte	0x25
 2463 0d88 A7020000 		.4byte	.LLST19
 2464 0d8c 29       		.uleb128 0x29
 2465 0d8d C8080000 		.4byte	0x8c8
 2466 0d91 0E000000 		.4byte	.LBB12
 2467 0d95 0A000000 		.4byte	.LBE12-.LBB12
 2468 0d99 01       		.byte	0x1
 2469 0d9a 7501     		.2byte	0x175
 2470 0d9c AA0D0000 		.4byte	0xdaa
 2471 0da0 23       		.uleb128 0x23
 2472 0da1 12000000 		.4byte	.LVL48
 2473 0da5 630F0000 		.4byte	0xf63
 2474 0da9 00       		.byte	0
 2475 0daa 21       		.uleb128 0x21
 2476 0dab 08000000 		.4byte	.LVL47
 2477 0daf 10100000 		.4byte	0x1010
 2478 0db3 C60D0000 		.4byte	0xdc6
 2479 0db7 22       		.uleb128 0x22
 2480 0db8 01       		.uleb128 0x1
 2481 0db9 52       		.byte	0x52
 2482 0dba 03       		.uleb128 0x3
 2483 0dbb F3       		.byte	0xf3
 2484 0dbc 01       		.uleb128 0x1
 2485 0dbd 52       		.byte	0x52
 2486 0dbe 22       		.uleb128 0x22
 2487 0dbf 01       		.uleb128 0x1
 2488 0dc0 51       		.byte	0x51
 2489 0dc1 03       		.uleb128 0x3
 2490 0dc2 F3       		.byte	0xf3
 2491 0dc3 01       		.uleb128 0x1
 2492 0dc4 51       		.byte	0x51
 2493 0dc5 00       		.byte	0
ARM GAS  C:\Users\jo\AppData\Local\Temp\ccbcFezZ.s 			page 45


 2494 0dc6 23       		.uleb128 0x23
 2495 0dc7 22000000 		.4byte	.LVL49
 2496 0dcb 630F0000 		.4byte	0xf63
 2497 0dcf 23       		.uleb128 0x23
 2498 0dd0 2C000000 		.4byte	.LVL50
 2499 0dd4 630F0000 		.4byte	0xf63
 2500 0dd8 23       		.uleb128 0x23
 2501 0dd9 36000000 		.4byte	.LVL51
 2502 0ddd 630F0000 		.4byte	0xf63
 2503 0de1 00       		.byte	0
 2504 0de2 06       		.uleb128 0x6
 2505 0de3 04       		.byte	0x4
 2506 0de4 E80D0000 		.4byte	0xde8
 2507 0de8 07       		.uleb128 0x7
 2508 0de9 50000000 		.4byte	0x50
 2509 0ded 2C       		.uleb128 0x2c
 2510 0dee C4060000 		.4byte	.LASF164
 2511 0df2 01       		.byte	0x1
 2512 0df3 8C01     		.2byte	0x18c
 2513 0df5 00000000 		.4byte	.LFB265
 2514 0df9 14000000 		.4byte	.LFE265-.LFB265
 2515 0dfd 01       		.uleb128 0x1
 2516 0dfe 9C       		.byte	0x9c
 2517 0dff 3D0E0000 		.4byte	0xe3d
 2518 0e03 2B       		.uleb128 0x2b
 2519 0e04 666400   		.ascii	"fd\000"
 2520 0e07 01       		.byte	0x1
 2521 0e08 8C01     		.2byte	0x18c
 2522 0e0a 25000000 		.4byte	0x25
 2523 0e0e BA020000 		.4byte	.LLST20
 2524 0e12 21       		.uleb128 0x21
 2525 0e13 0A000000 		.4byte	.LVL53
 2526 0e17 30100000 		.4byte	0x1030
 2527 0e1b 2B0E0000 		.4byte	0xe2b
 2528 0e1f 22       		.uleb128 0x22
 2529 0e20 01       		.uleb128 0x1
 2530 0e21 51       		.byte	0x51
 2531 0e22 01       		.uleb128 0x1
 2532 0e23 32       		.byte	0x32
 2533 0e24 22       		.uleb128 0x22
 2534 0e25 01       		.uleb128 0x1
 2535 0e26 50       		.byte	0x50
 2536 0e27 02       		.uleb128 0x2
 2537 0e28 74       		.byte	0x74
 2538 0e29 00       		.sleb128 0
 2539 0e2a 00       		.byte	0
 2540 0e2b 2E       		.uleb128 0x2e
 2541 0e2c 14000000 		.4byte	.LVL55
 2542 0e30 CD0E0000 		.4byte	0xecd
 2543 0e34 22       		.uleb128 0x22
 2544 0e35 01       		.uleb128 0x1
 2545 0e36 50       		.byte	0x50
 2546 0e37 03       		.uleb128 0x3
 2547 0e38 F3       		.byte	0xf3
 2548 0e39 01       		.uleb128 0x1
 2549 0e3a 50       		.byte	0x50
 2550 0e3b 00       		.byte	0
ARM GAS  C:\Users\jo\AppData\Local\Temp\ccbcFezZ.s 			page 46


 2551 0e3c 00       		.byte	0
 2552 0e3d 2F       		.uleb128 0x2f
 2553 0e3e F2000000 		.4byte	.LASF165
 2554 0e42 14       		.byte	0x14
 2555 0e43 A706     		.2byte	0x6a7
 2556 0e45 15010000 		.4byte	0x115
 2557 0e49 30       		.uleb128 0x30
 2558 0e4a 636800   		.ascii	"ch\000"
 2559 0e4d 07       		.byte	0x7
 2560 0e4e EB01     		.2byte	0x1eb
 2561 0e50 70040000 		.4byte	0x470
 2562 0e54 31       		.uleb128 0x31
 2563 0e55 17020000 		.4byte	.LASF183
 2564 0e59 15       		.byte	0x15
 2565 0e5a 00       		.byte	0
 2566 0e5b A5040000 		.4byte	.LASF184
 2567 0e5f 25000000 		.4byte	0x25
 2568 0e63 6D0E0000 		.4byte	0xe6d
 2569 0e67 11       		.uleb128 0x11
 2570 0e68 C3000000 		.4byte	0xc3
 2571 0e6c 00       		.byte	0
 2572 0e6d 32       		.uleb128 0x32
 2573 0e6e 3F080000 		.4byte	.LASF166
 2574 0e72 12       		.byte	0x12
 2575 0e73 EA       		.byte	0xea
 2576 0e74 E0070000 		.4byte	0x7e0
 2577 0e78 820E0000 		.4byte	0xe82
 2578 0e7c 11       		.uleb128 0x11
 2579 0e7d C3000000 		.4byte	0xc3
 2580 0e81 00       		.byte	0
 2581 0e82 33       		.uleb128 0x33
 2582 0e83 B3060000 		.4byte	.LASF167
 2583 0e87 11       		.byte	0x11
 2584 0e88 5201     		.2byte	0x152
 2585 0e8a 25000000 		.4byte	0x25
 2586 0e8e A20E0000 		.4byte	0xea2
 2587 0e92 11       		.uleb128 0x11
 2588 0e93 25000000 		.4byte	0x25
 2589 0e97 11       		.uleb128 0x11
 2590 0e98 25000000 		.4byte	0x25
 2591 0e9c 11       		.uleb128 0x11
 2592 0e9d 25000000 		.4byte	0x25
 2593 0ea1 00       		.byte	0
 2594 0ea2 33       		.uleb128 0x33
 2595 0ea3 BB010000 		.4byte	.LASF168
 2596 0ea7 11       		.byte	0x11
 2597 0ea8 4901     		.2byte	0x149
 2598 0eaa 25000000 		.4byte	0x25
 2599 0eae C20E0000 		.4byte	0xec2
 2600 0eb2 11       		.uleb128 0x11
 2601 0eb3 25000000 		.4byte	0x25
 2602 0eb7 11       		.uleb128 0x11
 2603 0eb8 C20E0000 		.4byte	0xec2
 2604 0ebc 11       		.uleb128 0x11
 2605 0ebd 8E080000 		.4byte	0x88e
 2606 0ec1 00       		.byte	0
 2607 0ec2 06       		.uleb128 0x6
ARM GAS  C:\Users\jo\AppData\Local\Temp\ccbcFezZ.s 			page 47


 2608 0ec3 04       		.byte	0x4
 2609 0ec4 C80E0000 		.4byte	0xec8
 2610 0ec8 07       		.uleb128 0x7
 2611 0ec9 4D080000 		.4byte	0x84d
 2612 0ecd 33       		.uleb128 0x33
 2613 0ece 3F070000 		.4byte	.LASF169
 2614 0ed2 11       		.byte	0x11
 2615 0ed3 4801     		.2byte	0x148
 2616 0ed5 25000000 		.4byte	0x25
 2617 0ed9 E30E0000 		.4byte	0xee3
 2618 0edd 11       		.uleb128 0x11
 2619 0ede 25000000 		.4byte	0x25
 2620 0ee2 00       		.byte	0
 2621 0ee3 33       		.uleb128 0x33
 2622 0ee4 91060000 		.4byte	.LASF170
 2623 0ee8 11       		.byte	0x11
 2624 0ee9 4701     		.2byte	0x147
 2625 0eeb 25000000 		.4byte	0x25
 2626 0eef 0D0F0000 		.4byte	0xf0d
 2627 0ef3 11       		.uleb128 0x11
 2628 0ef4 25000000 		.4byte	0x25
 2629 0ef8 11       		.uleb128 0x11
 2630 0ef9 25000000 		.4byte	0x25
 2631 0efd 11       		.uleb128 0x11
 2632 0efe 25000000 		.4byte	0x25
 2633 0f02 11       		.uleb128 0x11
 2634 0f03 C1080000 		.4byte	0x8c1
 2635 0f07 11       		.uleb128 0x11
 2636 0f08 8E080000 		.4byte	0x88e
 2637 0f0c 00       		.byte	0
 2638 0f0d 32       		.uleb128 0x32
 2639 0f0e EE040000 		.4byte	.LASF171
 2640 0f12 13       		.byte	0x13
 2641 0f13 B5       		.byte	0xb5
 2642 0f14 25000000 		.4byte	0x25
 2643 0f18 280F0000 		.4byte	0xf28
 2644 0f1c 11       		.uleb128 0x11
 2645 0f1d C3000000 		.4byte	0xc3
 2646 0f21 11       		.uleb128 0x11
 2647 0f22 C3000000 		.4byte	0xc3
 2648 0f26 34       		.uleb128 0x34
 2649 0f27 00       		.byte	0
 2650 0f28 33       		.uleb128 0x33
 2651 0f29 3D020000 		.4byte	.LASF172
 2652 0f2d 11       		.byte	0x11
 2653 0f2e 4201     		.2byte	0x142
 2654 0f30 25000000 		.4byte	0x25
 2655 0f34 480F0000 		.4byte	0xf48
 2656 0f38 11       		.uleb128 0x11
 2657 0f39 25000000 		.4byte	0x25
 2658 0f3d 11       		.uleb128 0x11
 2659 0f3e C20E0000 		.4byte	0xec2
 2660 0f42 11       		.uleb128 0x11
 2661 0f43 8E080000 		.4byte	0x88e
 2662 0f47 00       		.byte	0
 2663 0f48 33       		.uleb128 0x33
 2664 0f49 12010000 		.4byte	.LASF173
ARM GAS  C:\Users\jo\AppData\Local\Temp\ccbcFezZ.s 			page 48


 2665 0f4d 11       		.byte	0x11
 2666 0f4e 4A01     		.2byte	0x14a
 2667 0f50 25000000 		.4byte	0x25
 2668 0f54 630F0000 		.4byte	0xf63
 2669 0f58 11       		.uleb128 0x11
 2670 0f59 25000000 		.4byte	0x25
 2671 0f5d 11       		.uleb128 0x11
 2672 0f5e 25000000 		.4byte	0x25
 2673 0f62 00       		.byte	0
 2674 0f63 35       		.uleb128 0x35
 2675 0f64 F3010000 		.4byte	.LASF185
 2676 0f68 16       		.byte	0x16
 2677 0f69 0F       		.byte	0xf
 2678 0f6a 94090000 		.4byte	0x994
 2679 0f6e 33       		.uleb128 0x33
 2680 0f6f 64060000 		.4byte	.LASF174
 2681 0f73 11       		.byte	0x11
 2682 0f74 4101     		.2byte	0x141
 2683 0f76 25000000 		.4byte	0x25
 2684 0f7a 8E0F0000 		.4byte	0xf8e
 2685 0f7e 11       		.uleb128 0x11
 2686 0f7f 25000000 		.4byte	0x25
 2687 0f83 11       		.uleb128 0x11
 2688 0f84 8E0F0000 		.4byte	0xf8e
 2689 0f88 11       		.uleb128 0x11
 2690 0f89 940F0000 		.4byte	0xf94
 2691 0f8d 00       		.byte	0
 2692 0f8e 06       		.uleb128 0x6
 2693 0f8f 04       		.byte	0x4
 2694 0f90 4D080000 		.4byte	0x84d
 2695 0f94 06       		.uleb128 0x6
 2696 0f95 04       		.byte	0x4
 2697 0f96 8E080000 		.4byte	0x88e
 2698 0f9a 33       		.uleb128 0x33
 2699 0f9b 5C050000 		.4byte	.LASF175
 2700 0f9f 11       		.byte	0x11
 2701 0fa0 5601     		.2byte	0x156
 2702 0fa2 25000000 		.4byte	0x25
 2703 0fa6 BA0F0000 		.4byte	0xfba
 2704 0faa 11       		.uleb128 0x11
 2705 0fab 25000000 		.4byte	0x25
 2706 0faf 11       		.uleb128 0x11
 2707 0fb0 7B000000 		.4byte	0x7b
 2708 0fb4 11       		.uleb128 0x11
 2709 0fb5 B4000000 		.4byte	0xb4
 2710 0fb9 00       		.byte	0
 2711 0fba 33       		.uleb128 0x33
 2712 0fbb 71020000 		.4byte	.LASF176
 2713 0fbf 11       		.byte	0x11
 2714 0fc0 5401     		.2byte	0x154
 2715 0fc2 25000000 		.4byte	0x25
 2716 0fc6 E40F0000 		.4byte	0xfe4
 2717 0fca 11       		.uleb128 0x11
 2718 0fcb 25000000 		.4byte	0x25
 2719 0fcf 11       		.uleb128 0x11
 2720 0fd0 E40F0000 		.4byte	0xfe4
 2721 0fd4 11       		.uleb128 0x11
ARM GAS  C:\Users\jo\AppData\Local\Temp\ccbcFezZ.s 			page 49


 2722 0fd5 E40F0000 		.4byte	0xfe4
 2723 0fd9 11       		.uleb128 0x11
 2724 0fda E40F0000 		.4byte	0xfe4
 2725 0fde 11       		.uleb128 0x11
 2726 0fdf EA0F0000 		.4byte	0xfea
 2727 0fe3 00       		.byte	0
 2728 0fe4 06       		.uleb128 0x6
 2729 0fe5 04       		.byte	0x4
 2730 0fe6 CC050000 		.4byte	0x5cc
 2731 0fea 06       		.uleb128 0x6
 2732 0feb 04       		.byte	0x4
 2733 0fec 99080000 		.4byte	0x899
 2734 0ff0 33       		.uleb128 0x33
 2735 0ff1 CD040000 		.4byte	.LASF177
 2736 0ff5 11       		.byte	0x11
 2737 0ff6 4C01     		.2byte	0x14c
 2738 0ff8 25000000 		.4byte	0x25
 2739 0ffc 10100000 		.4byte	0x1010
 2740 1000 11       		.uleb128 0x11
 2741 1001 25000000 		.4byte	0x25
 2742 1005 11       		.uleb128 0x11
 2743 1006 B4000000 		.4byte	0xb4
 2744 100a 11       		.uleb128 0x11
 2745 100b 2C000000 		.4byte	0x2c
 2746 100f 00       		.byte	0
 2747 1010 33       		.uleb128 0x33
 2748 1011 24080000 		.4byte	.LASF178
 2749 1015 11       		.byte	0x11
 2750 1016 5301     		.2byte	0x153
 2751 1018 25000000 		.4byte	0x25
 2752 101c 30100000 		.4byte	0x1030
 2753 1020 11       		.uleb128 0x11
 2754 1021 25000000 		.4byte	0x25
 2755 1025 11       		.uleb128 0x11
 2756 1026 C1080000 		.4byte	0x8c1
 2757 102a 11       		.uleb128 0x11
 2758 102b 2C000000 		.4byte	0x2c
 2759 102f 00       		.byte	0
 2760 1030 36       		.uleb128 0x36
 2761 1031 A2070000 		.4byte	.LASF186
 2762 1035 11       		.byte	0x11
 2763 1036 4301     		.2byte	0x143
 2764 1038 25000000 		.4byte	0x25
 2765 103c 11       		.uleb128 0x11
 2766 103d 25000000 		.4byte	0x25
 2767 1041 11       		.uleb128 0x11
 2768 1042 25000000 		.4byte	0x25
 2769 1046 00       		.byte	0
 2770 1047 00       		.byte	0
 2771              		.section	.debug_abbrev,"",%progbits
 2772              	.Ldebug_abbrev0:
 2773 0000 01       		.uleb128 0x1
 2774 0001 11       		.uleb128 0x11
 2775 0002 01       		.byte	0x1
 2776 0003 25       		.uleb128 0x25
 2777 0004 0E       		.uleb128 0xe
 2778 0005 13       		.uleb128 0x13
ARM GAS  C:\Users\jo\AppData\Local\Temp\ccbcFezZ.s 			page 50


 2779 0006 0B       		.uleb128 0xb
 2780 0007 03       		.uleb128 0x3
 2781 0008 0E       		.uleb128 0xe
 2782 0009 1B       		.uleb128 0x1b
 2783 000a 0E       		.uleb128 0xe
 2784 000b 55       		.uleb128 0x55
 2785 000c 17       		.uleb128 0x17
 2786 000d 11       		.uleb128 0x11
 2787 000e 01       		.uleb128 0x1
 2788 000f 10       		.uleb128 0x10
 2789 0010 17       		.uleb128 0x17
 2790 0011 00       		.byte	0
 2791 0012 00       		.byte	0
 2792 0013 02       		.uleb128 0x2
 2793 0014 24       		.uleb128 0x24
 2794 0015 00       		.byte	0
 2795 0016 0B       		.uleb128 0xb
 2796 0017 0B       		.uleb128 0xb
 2797 0018 3E       		.uleb128 0x3e
 2798 0019 0B       		.uleb128 0xb
 2799 001a 03       		.uleb128 0x3
 2800 001b 08       		.uleb128 0x8
 2801 001c 00       		.byte	0
 2802 001d 00       		.byte	0
 2803 001e 03       		.uleb128 0x3
 2804 001f 16       		.uleb128 0x16
 2805 0020 00       		.byte	0
 2806 0021 03       		.uleb128 0x3
 2807 0022 0E       		.uleb128 0xe
 2808 0023 3A       		.uleb128 0x3a
 2809 0024 0B       		.uleb128 0xb
 2810 0025 3B       		.uleb128 0x3b
 2811 0026 0B       		.uleb128 0xb
 2812 0027 49       		.uleb128 0x49
 2813 0028 13       		.uleb128 0x13
 2814 0029 00       		.byte	0
 2815 002a 00       		.byte	0
 2816 002b 04       		.uleb128 0x4
 2817 002c 24       		.uleb128 0x24
 2818 002d 00       		.byte	0
 2819 002e 0B       		.uleb128 0xb
 2820 002f 0B       		.uleb128 0xb
 2821 0030 3E       		.uleb128 0x3e
 2822 0031 0B       		.uleb128 0xb
 2823 0032 03       		.uleb128 0x3
 2824 0033 0E       		.uleb128 0xe
 2825 0034 00       		.byte	0
 2826 0035 00       		.byte	0
 2827 0036 05       		.uleb128 0x5
 2828 0037 0F       		.uleb128 0xf
 2829 0038 00       		.byte	0
 2830 0039 0B       		.uleb128 0xb
 2831 003a 0B       		.uleb128 0xb
 2832 003b 00       		.byte	0
 2833 003c 00       		.byte	0
 2834 003d 06       		.uleb128 0x6
 2835 003e 0F       		.uleb128 0xf
ARM GAS  C:\Users\jo\AppData\Local\Temp\ccbcFezZ.s 			page 51


 2836 003f 00       		.byte	0
 2837 0040 0B       		.uleb128 0xb
 2838 0041 0B       		.uleb128 0xb
 2839 0042 49       		.uleb128 0x49
 2840 0043 13       		.uleb128 0x13
 2841 0044 00       		.byte	0
 2842 0045 00       		.byte	0
 2843 0046 07       		.uleb128 0x7
 2844 0047 26       		.uleb128 0x26
 2845 0048 00       		.byte	0
 2846 0049 49       		.uleb128 0x49
 2847 004a 13       		.uleb128 0x13
 2848 004b 00       		.byte	0
 2849 004c 00       		.byte	0
 2850 004d 08       		.uleb128 0x8
 2851 004e 01       		.uleb128 0x1
 2852 004f 01       		.byte	0x1
 2853 0050 49       		.uleb128 0x49
 2854 0051 13       		.uleb128 0x13
 2855 0052 01       		.uleb128 0x1
 2856 0053 13       		.uleb128 0x13
 2857 0054 00       		.byte	0
 2858 0055 00       		.byte	0
 2859 0056 09       		.uleb128 0x9
 2860 0057 21       		.uleb128 0x21
 2861 0058 00       		.byte	0
 2862 0059 49       		.uleb128 0x49
 2863 005a 13       		.uleb128 0x13
 2864 005b 2F       		.uleb128 0x2f
 2865 005c 0B       		.uleb128 0xb
 2866 005d 00       		.byte	0
 2867 005e 00       		.byte	0
 2868 005f 0A       		.uleb128 0xa
 2869 0060 35       		.uleb128 0x35
 2870 0061 00       		.byte	0
 2871 0062 49       		.uleb128 0x49
 2872 0063 13       		.uleb128 0x13
 2873 0064 00       		.byte	0
 2874 0065 00       		.byte	0
 2875 0066 0B       		.uleb128 0xb
 2876 0067 13       		.uleb128 0x13
 2877 0068 01       		.byte	0x1
 2878 0069 03       		.uleb128 0x3
 2879 006a 0E       		.uleb128 0xe
 2880 006b 0B       		.uleb128 0xb
 2881 006c 0B       		.uleb128 0xb
 2882 006d 3A       		.uleb128 0x3a
 2883 006e 0B       		.uleb128 0xb
 2884 006f 3B       		.uleb128 0x3b
 2885 0070 0B       		.uleb128 0xb
 2886 0071 01       		.uleb128 0x1
 2887 0072 13       		.uleb128 0x13
 2888 0073 00       		.byte	0
 2889 0074 00       		.byte	0
 2890 0075 0C       		.uleb128 0xc
 2891 0076 0D       		.uleb128 0xd
 2892 0077 00       		.byte	0
ARM GAS  C:\Users\jo\AppData\Local\Temp\ccbcFezZ.s 			page 52


 2893 0078 03       		.uleb128 0x3
 2894 0079 0E       		.uleb128 0xe
 2895 007a 3A       		.uleb128 0x3a
 2896 007b 0B       		.uleb128 0xb
 2897 007c 3B       		.uleb128 0x3b
 2898 007d 0B       		.uleb128 0xb
 2899 007e 49       		.uleb128 0x49
 2900 007f 13       		.uleb128 0x13
 2901 0080 38       		.uleb128 0x38
 2902 0081 0B       		.uleb128 0xb
 2903 0082 00       		.byte	0
 2904 0083 00       		.byte	0
 2905 0084 0D       		.uleb128 0xd
 2906 0085 0D       		.uleb128 0xd
 2907 0086 00       		.byte	0
 2908 0087 03       		.uleb128 0x3
 2909 0088 08       		.uleb128 0x8
 2910 0089 3A       		.uleb128 0x3a
 2911 008a 0B       		.uleb128 0xb
 2912 008b 3B       		.uleb128 0x3b
 2913 008c 05       		.uleb128 0x5
 2914 008d 49       		.uleb128 0x49
 2915 008e 13       		.uleb128 0x13
 2916 008f 38       		.uleb128 0x38
 2917 0090 0B       		.uleb128 0xb
 2918 0091 00       		.byte	0
 2919 0092 00       		.byte	0
 2920 0093 0E       		.uleb128 0xe
 2921 0094 0D       		.uleb128 0xd
 2922 0095 00       		.byte	0
 2923 0096 03       		.uleb128 0x3
 2924 0097 0E       		.uleb128 0xe
 2925 0098 3A       		.uleb128 0x3a
 2926 0099 0B       		.uleb128 0xb
 2927 009a 3B       		.uleb128 0x3b
 2928 009b 05       		.uleb128 0x5
 2929 009c 49       		.uleb128 0x49
 2930 009d 13       		.uleb128 0x13
 2931 009e 38       		.uleb128 0x38
 2932 009f 0B       		.uleb128 0xb
 2933 00a0 00       		.byte	0
 2934 00a1 00       		.byte	0
 2935 00a2 0F       		.uleb128 0xf
 2936 00a3 13       		.uleb128 0x13
 2937 00a4 01       		.byte	0x1
 2938 00a5 03       		.uleb128 0x3
 2939 00a6 0E       		.uleb128 0xe
 2940 00a7 0B       		.uleb128 0xb
 2941 00a8 0B       		.uleb128 0xb
 2942 00a9 3A       		.uleb128 0x3a
 2943 00aa 0B       		.uleb128 0xb
 2944 00ab 3B       		.uleb128 0x3b
 2945 00ac 05       		.uleb128 0x5
 2946 00ad 01       		.uleb128 0x1
 2947 00ae 13       		.uleb128 0x13
 2948 00af 00       		.byte	0
 2949 00b0 00       		.byte	0
ARM GAS  C:\Users\jo\AppData\Local\Temp\ccbcFezZ.s 			page 53


 2950 00b1 10       		.uleb128 0x10
 2951 00b2 15       		.uleb128 0x15
 2952 00b3 01       		.byte	0x1
 2953 00b4 27       		.uleb128 0x27
 2954 00b5 19       		.uleb128 0x19
 2955 00b6 01       		.uleb128 0x1
 2956 00b7 13       		.uleb128 0x13
 2957 00b8 00       		.byte	0
 2958 00b9 00       		.byte	0
 2959 00ba 11       		.uleb128 0x11
 2960 00bb 05       		.uleb128 0x5
 2961 00bc 00       		.byte	0
 2962 00bd 49       		.uleb128 0x49
 2963 00be 13       		.uleb128 0x13
 2964 00bf 00       		.byte	0
 2965 00c0 00       		.byte	0
 2966 00c1 12       		.uleb128 0x12
 2967 00c2 13       		.uleb128 0x13
 2968 00c3 01       		.byte	0x1
 2969 00c4 03       		.uleb128 0x3
 2970 00c5 0E       		.uleb128 0xe
 2971 00c6 0B       		.uleb128 0xb
 2972 00c7 05       		.uleb128 0x5
 2973 00c8 3A       		.uleb128 0x3a
 2974 00c9 0B       		.uleb128 0xb
 2975 00ca 3B       		.uleb128 0x3b
 2976 00cb 05       		.uleb128 0x5
 2977 00cc 01       		.uleb128 0x1
 2978 00cd 13       		.uleb128 0x13
 2979 00ce 00       		.byte	0
 2980 00cf 00       		.byte	0
 2981 00d0 13       		.uleb128 0x13
 2982 00d1 0D       		.uleb128 0xd
 2983 00d2 00       		.byte	0
 2984 00d3 03       		.uleb128 0x3
 2985 00d4 0E       		.uleb128 0xe
 2986 00d5 3A       		.uleb128 0x3a
 2987 00d6 0B       		.uleb128 0xb
 2988 00d7 3B       		.uleb128 0x3b
 2989 00d8 05       		.uleb128 0x5
 2990 00d9 49       		.uleb128 0x49
 2991 00da 13       		.uleb128 0x13
 2992 00db 38       		.uleb128 0x38
 2993 00dc 05       		.uleb128 0x5
 2994 00dd 00       		.byte	0
 2995 00de 00       		.byte	0
 2996 00df 14       		.uleb128 0x14
 2997 00e0 0D       		.uleb128 0xd
 2998 00e1 00       		.byte	0
 2999 00e2 03       		.uleb128 0x3
 3000 00e3 08       		.uleb128 0x8
 3001 00e4 3A       		.uleb128 0x3a
 3002 00e5 0B       		.uleb128 0xb
 3003 00e6 3B       		.uleb128 0x3b
 3004 00e7 05       		.uleb128 0x5
 3005 00e8 49       		.uleb128 0x49
 3006 00e9 13       		.uleb128 0x13
ARM GAS  C:\Users\jo\AppData\Local\Temp\ccbcFezZ.s 			page 54


 3007 00ea 38       		.uleb128 0x38
 3008 00eb 05       		.uleb128 0x5
 3009 00ec 00       		.byte	0
 3010 00ed 00       		.byte	0
 3011 00ee 15       		.uleb128 0x15
 3012 00ef 0D       		.uleb128 0xd
 3013 00f0 00       		.byte	0
 3014 00f1 03       		.uleb128 0x3
 3015 00f2 08       		.uleb128 0x8
 3016 00f3 3A       		.uleb128 0x3a
 3017 00f4 0B       		.uleb128 0xb
 3018 00f5 3B       		.uleb128 0x3b
 3019 00f6 0B       		.uleb128 0xb
 3020 00f7 49       		.uleb128 0x49
 3021 00f8 13       		.uleb128 0x13
 3022 00f9 38       		.uleb128 0x38
 3023 00fa 0B       		.uleb128 0xb
 3024 00fb 00       		.byte	0
 3025 00fc 00       		.byte	0
 3026 00fd 16       		.uleb128 0x16
 3027 00fe 13       		.uleb128 0x13
 3028 00ff 01       		.byte	0x1
 3029 0100 0B       		.uleb128 0xb
 3030 0101 0B       		.uleb128 0xb
 3031 0102 3A       		.uleb128 0x3a
 3032 0103 0B       		.uleb128 0xb
 3033 0104 3B       		.uleb128 0x3b
 3034 0105 0B       		.uleb128 0xb
 3035 0106 01       		.uleb128 0x1
 3036 0107 13       		.uleb128 0x13
 3037 0108 00       		.byte	0
 3038 0109 00       		.byte	0
 3039 010a 17       		.uleb128 0x17
 3040 010b 13       		.uleb128 0x13
 3041 010c 01       		.byte	0x1
 3042 010d 0B       		.uleb128 0xb
 3043 010e 05       		.uleb128 0x5
 3044 010f 3A       		.uleb128 0x3a
 3045 0110 0B       		.uleb128 0xb
 3046 0111 3B       		.uleb128 0x3b
 3047 0112 0B       		.uleb128 0xb
 3048 0113 01       		.uleb128 0x1
 3049 0114 13       		.uleb128 0x13
 3050 0115 00       		.byte	0
 3051 0116 00       		.byte	0
 3052 0117 18       		.uleb128 0x18
 3053 0118 17       		.uleb128 0x17
 3054 0119 01       		.byte	0x1
 3055 011a 0B       		.uleb128 0xb
 3056 011b 0B       		.uleb128 0xb
 3057 011c 3A       		.uleb128 0x3a
 3058 011d 0B       		.uleb128 0xb
 3059 011e 3B       		.uleb128 0x3b
 3060 011f 0B       		.uleb128 0xb
 3061 0120 01       		.uleb128 0x1
 3062 0121 13       		.uleb128 0x13
 3063 0122 00       		.byte	0
ARM GAS  C:\Users\jo\AppData\Local\Temp\ccbcFezZ.s 			page 55


 3064 0123 00       		.byte	0
 3065 0124 19       		.uleb128 0x19
 3066 0125 0D       		.uleb128 0xd
 3067 0126 00       		.byte	0
 3068 0127 03       		.uleb128 0x3
 3069 0128 0E       		.uleb128 0xe
 3070 0129 3A       		.uleb128 0x3a
 3071 012a 0B       		.uleb128 0xb
 3072 012b 3B       		.uleb128 0x3b
 3073 012c 0B       		.uleb128 0xb
 3074 012d 49       		.uleb128 0x49
 3075 012e 13       		.uleb128 0x13
 3076 012f 00       		.byte	0
 3077 0130 00       		.byte	0
 3078 0131 1A       		.uleb128 0x1a
 3079 0132 0D       		.uleb128 0xd
 3080 0133 00       		.byte	0
 3081 0134 03       		.uleb128 0x3
 3082 0135 0E       		.uleb128 0xe
 3083 0136 3A       		.uleb128 0x3a
 3084 0137 0B       		.uleb128 0xb
 3085 0138 3B       		.uleb128 0x3b
 3086 0139 05       		.uleb128 0x5
 3087 013a 49       		.uleb128 0x49
 3088 013b 13       		.uleb128 0x13
 3089 013c 00       		.byte	0
 3090 013d 00       		.byte	0
 3091 013e 1B       		.uleb128 0x1b
 3092 013f 26       		.uleb128 0x26
 3093 0140 00       		.byte	0
 3094 0141 00       		.byte	0
 3095 0142 00       		.byte	0
 3096 0143 1C       		.uleb128 0x1c
 3097 0144 2E       		.uleb128 0x2e
 3098 0145 00       		.byte	0
 3099 0146 03       		.uleb128 0x3
 3100 0147 0E       		.uleb128 0xe
 3101 0148 3A       		.uleb128 0x3a
 3102 0149 0B       		.uleb128 0xb
 3103 014a 3B       		.uleb128 0x3b
 3104 014b 0B       		.uleb128 0xb
 3105 014c 27       		.uleb128 0x27
 3106 014d 19       		.uleb128 0x19
 3107 014e 49       		.uleb128 0x49
 3108 014f 13       		.uleb128 0x13
 3109 0150 20       		.uleb128 0x20
 3110 0151 0B       		.uleb128 0xb
 3111 0152 00       		.byte	0
 3112 0153 00       		.byte	0
 3113 0154 1D       		.uleb128 0x1d
 3114 0155 2E       		.uleb128 0x2e
 3115 0156 01       		.byte	0x1
 3116 0157 3F       		.uleb128 0x3f
 3117 0158 19       		.uleb128 0x19
 3118 0159 03       		.uleb128 0x3
 3119 015a 0E       		.uleb128 0xe
 3120 015b 3A       		.uleb128 0x3a
ARM GAS  C:\Users\jo\AppData\Local\Temp\ccbcFezZ.s 			page 56


 3121 015c 0B       		.uleb128 0xb
 3122 015d 3B       		.uleb128 0x3b
 3123 015e 0B       		.uleb128 0xb
 3124 015f 27       		.uleb128 0x27
 3125 0160 19       		.uleb128 0x19
 3126 0161 49       		.uleb128 0x49
 3127 0162 13       		.uleb128 0x13
 3128 0163 11       		.uleb128 0x11
 3129 0164 01       		.uleb128 0x1
 3130 0165 12       		.uleb128 0x12
 3131 0166 06       		.uleb128 0x6
 3132 0167 40       		.uleb128 0x40
 3133 0168 18       		.uleb128 0x18
 3134 0169 9742     		.uleb128 0x2117
 3135 016b 19       		.uleb128 0x19
 3136 016c 01       		.uleb128 0x1
 3137 016d 13       		.uleb128 0x13
 3138 016e 00       		.byte	0
 3139 016f 00       		.byte	0
 3140 0170 1E       		.uleb128 0x1e
 3141 0171 05       		.uleb128 0x5
 3142 0172 00       		.byte	0
 3143 0173 03       		.uleb128 0x3
 3144 0174 08       		.uleb128 0x8
 3145 0175 3A       		.uleb128 0x3a
 3146 0176 0B       		.uleb128 0xb
 3147 0177 3B       		.uleb128 0x3b
 3148 0178 0B       		.uleb128 0xb
 3149 0179 49       		.uleb128 0x49
 3150 017a 13       		.uleb128 0x13
 3151 017b 02       		.uleb128 0x2
 3152 017c 17       		.uleb128 0x17
 3153 017d 00       		.byte	0
 3154 017e 00       		.byte	0
 3155 017f 1F       		.uleb128 0x1f
 3156 0180 05       		.uleb128 0x5
 3157 0181 00       		.byte	0
 3158 0182 03       		.uleb128 0x3
 3159 0183 0E       		.uleb128 0xe
 3160 0184 3A       		.uleb128 0x3a
 3161 0185 0B       		.uleb128 0xb
 3162 0186 3B       		.uleb128 0x3b
 3163 0187 0B       		.uleb128 0xb
 3164 0188 49       		.uleb128 0x49
 3165 0189 13       		.uleb128 0x13
 3166 018a 02       		.uleb128 0x2
 3167 018b 17       		.uleb128 0x17
 3168 018c 00       		.byte	0
 3169 018d 00       		.byte	0
 3170 018e 20       		.uleb128 0x20
 3171 018f 34       		.uleb128 0x34
 3172 0190 00       		.byte	0
 3173 0191 03       		.uleb128 0x3
 3174 0192 0E       		.uleb128 0xe
 3175 0193 3A       		.uleb128 0x3a
 3176 0194 0B       		.uleb128 0xb
 3177 0195 3B       		.uleb128 0x3b
ARM GAS  C:\Users\jo\AppData\Local\Temp\ccbcFezZ.s 			page 57


 3178 0196 0B       		.uleb128 0xb
 3179 0197 49       		.uleb128 0x49
 3180 0198 13       		.uleb128 0x13
 3181 0199 02       		.uleb128 0x2
 3182 019a 18       		.uleb128 0x18
 3183 019b 00       		.byte	0
 3184 019c 00       		.byte	0
 3185 019d 21       		.uleb128 0x21
 3186 019e 898201   		.uleb128 0x4109
 3187 01a1 01       		.byte	0x1
 3188 01a2 11       		.uleb128 0x11
 3189 01a3 01       		.uleb128 0x1
 3190 01a4 31       		.uleb128 0x31
 3191 01a5 13       		.uleb128 0x13
 3192 01a6 01       		.uleb128 0x1
 3193 01a7 13       		.uleb128 0x13
 3194 01a8 00       		.byte	0
 3195 01a9 00       		.byte	0
 3196 01aa 22       		.uleb128 0x22
 3197 01ab 8A8201   		.uleb128 0x410a
 3198 01ae 00       		.byte	0
 3199 01af 02       		.uleb128 0x2
 3200 01b0 18       		.uleb128 0x18
 3201 01b1 9142     		.uleb128 0x2111
 3202 01b3 18       		.uleb128 0x18
 3203 01b4 00       		.byte	0
 3204 01b5 00       		.byte	0
 3205 01b6 23       		.uleb128 0x23
 3206 01b7 898201   		.uleb128 0x4109
 3207 01ba 00       		.byte	0
 3208 01bb 11       		.uleb128 0x11
 3209 01bc 01       		.uleb128 0x1
 3210 01bd 31       		.uleb128 0x31
 3211 01be 13       		.uleb128 0x13
 3212 01bf 00       		.byte	0
 3213 01c0 00       		.byte	0
 3214 01c1 24       		.uleb128 0x24
 3215 01c2 34       		.uleb128 0x34
 3216 01c3 00       		.byte	0
 3217 01c4 03       		.uleb128 0x3
 3218 01c5 08       		.uleb128 0x8
 3219 01c6 3A       		.uleb128 0x3a
 3220 01c7 0B       		.uleb128 0xb
 3221 01c8 3B       		.uleb128 0x3b
 3222 01c9 0B       		.uleb128 0xb
 3223 01ca 49       		.uleb128 0x49
 3224 01cb 13       		.uleb128 0x13
 3225 01cc 02       		.uleb128 0x2
 3226 01cd 18       		.uleb128 0x18
 3227 01ce 00       		.byte	0
 3228 01cf 00       		.byte	0
 3229 01d0 25       		.uleb128 0x25
 3230 01d1 2E       		.uleb128 0x2e
 3231 01d2 01       		.byte	0x1
 3232 01d3 3F       		.uleb128 0x3f
 3233 01d4 19       		.uleb128 0x19
 3234 01d5 03       		.uleb128 0x3
ARM GAS  C:\Users\jo\AppData\Local\Temp\ccbcFezZ.s 			page 58


 3235 01d6 0E       		.uleb128 0xe
 3236 01d7 3A       		.uleb128 0x3a
 3237 01d8 0B       		.uleb128 0xb
 3238 01d9 3B       		.uleb128 0x3b
 3239 01da 05       		.uleb128 0x5
 3240 01db 27       		.uleb128 0x27
 3241 01dc 19       		.uleb128 0x19
 3242 01dd 49       		.uleb128 0x49
 3243 01de 13       		.uleb128 0x13
 3244 01df 11       		.uleb128 0x11
 3245 01e0 01       		.uleb128 0x1
 3246 01e1 12       		.uleb128 0x12
 3247 01e2 06       		.uleb128 0x6
 3248 01e3 40       		.uleb128 0x40
 3249 01e4 18       		.uleb128 0x18
 3250 01e5 9742     		.uleb128 0x2117
 3251 01e7 19       		.uleb128 0x19
 3252 01e8 01       		.uleb128 0x1
 3253 01e9 13       		.uleb128 0x13
 3254 01ea 00       		.byte	0
 3255 01eb 00       		.byte	0
 3256 01ec 26       		.uleb128 0x26
 3257 01ed 05       		.uleb128 0x5
 3258 01ee 00       		.byte	0
 3259 01ef 03       		.uleb128 0x3
 3260 01f0 0E       		.uleb128 0xe
 3261 01f1 3A       		.uleb128 0x3a
 3262 01f2 0B       		.uleb128 0xb
 3263 01f3 3B       		.uleb128 0x3b
 3264 01f4 05       		.uleb128 0x5
 3265 01f5 49       		.uleb128 0x49
 3266 01f6 13       		.uleb128 0x13
 3267 01f7 02       		.uleb128 0x2
 3268 01f8 17       		.uleb128 0x17
 3269 01f9 00       		.byte	0
 3270 01fa 00       		.byte	0
 3271 01fb 27       		.uleb128 0x27
 3272 01fc 34       		.uleb128 0x34
 3273 01fd 00       		.byte	0
 3274 01fe 03       		.uleb128 0x3
 3275 01ff 0E       		.uleb128 0xe
 3276 0200 3A       		.uleb128 0x3a
 3277 0201 0B       		.uleb128 0xb
 3278 0202 3B       		.uleb128 0x3b
 3279 0203 05       		.uleb128 0x5
 3280 0204 49       		.uleb128 0x49
 3281 0205 13       		.uleb128 0x13
 3282 0206 02       		.uleb128 0x2
 3283 0207 18       		.uleb128 0x18
 3284 0208 00       		.byte	0
 3285 0209 00       		.byte	0
 3286 020a 28       		.uleb128 0x28
 3287 020b 34       		.uleb128 0x34
 3288 020c 00       		.byte	0
 3289 020d 03       		.uleb128 0x3
 3290 020e 08       		.uleb128 0x8
 3291 020f 3A       		.uleb128 0x3a
ARM GAS  C:\Users\jo\AppData\Local\Temp\ccbcFezZ.s 			page 59


 3292 0210 0B       		.uleb128 0xb
 3293 0211 3B       		.uleb128 0x3b
 3294 0212 05       		.uleb128 0x5
 3295 0213 49       		.uleb128 0x49
 3296 0214 13       		.uleb128 0x13
 3297 0215 02       		.uleb128 0x2
 3298 0216 18       		.uleb128 0x18
 3299 0217 00       		.byte	0
 3300 0218 00       		.byte	0
 3301 0219 29       		.uleb128 0x29
 3302 021a 1D       		.uleb128 0x1d
 3303 021b 01       		.byte	0x1
 3304 021c 31       		.uleb128 0x31
 3305 021d 13       		.uleb128 0x13
 3306 021e 11       		.uleb128 0x11
 3307 021f 01       		.uleb128 0x1
 3308 0220 12       		.uleb128 0x12
 3309 0221 06       		.uleb128 0x6
 3310 0222 58       		.uleb128 0x58
 3311 0223 0B       		.uleb128 0xb
 3312 0224 59       		.uleb128 0x59
 3313 0225 05       		.uleb128 0x5
 3314 0226 01       		.uleb128 0x1
 3315 0227 13       		.uleb128 0x13
 3316 0228 00       		.byte	0
 3317 0229 00       		.byte	0
 3318 022a 2A       		.uleb128 0x2a
 3319 022b 898201   		.uleb128 0x4109
 3320 022e 01       		.byte	0x1
 3321 022f 11       		.uleb128 0x11
 3322 0230 01       		.uleb128 0x1
 3323 0231 31       		.uleb128 0x31
 3324 0232 13       		.uleb128 0x13
 3325 0233 00       		.byte	0
 3326 0234 00       		.byte	0
 3327 0235 2B       		.uleb128 0x2b
 3328 0236 05       		.uleb128 0x5
 3329 0237 00       		.byte	0
 3330 0238 03       		.uleb128 0x3
 3331 0239 08       		.uleb128 0x8
 3332 023a 3A       		.uleb128 0x3a
 3333 023b 0B       		.uleb128 0xb
 3334 023c 3B       		.uleb128 0x3b
 3335 023d 05       		.uleb128 0x5
 3336 023e 49       		.uleb128 0x49
 3337 023f 13       		.uleb128 0x13
 3338 0240 02       		.uleb128 0x2
 3339 0241 17       		.uleb128 0x17
 3340 0242 00       		.byte	0
 3341 0243 00       		.byte	0
 3342 0244 2C       		.uleb128 0x2c
 3343 0245 2E       		.uleb128 0x2e
 3344 0246 01       		.byte	0x1
 3345 0247 3F       		.uleb128 0x3f
 3346 0248 19       		.uleb128 0x19
 3347 0249 03       		.uleb128 0x3
 3348 024a 0E       		.uleb128 0xe
ARM GAS  C:\Users\jo\AppData\Local\Temp\ccbcFezZ.s 			page 60


 3349 024b 3A       		.uleb128 0x3a
 3350 024c 0B       		.uleb128 0xb
 3351 024d 3B       		.uleb128 0x3b
 3352 024e 05       		.uleb128 0x5
 3353 024f 27       		.uleb128 0x27
 3354 0250 19       		.uleb128 0x19
 3355 0251 11       		.uleb128 0x11
 3356 0252 01       		.uleb128 0x1
 3357 0253 12       		.uleb128 0x12
 3358 0254 06       		.uleb128 0x6
 3359 0255 40       		.uleb128 0x40
 3360 0256 18       		.uleb128 0x18
 3361 0257 9742     		.uleb128 0x2117
 3362 0259 19       		.uleb128 0x19
 3363 025a 01       		.uleb128 0x1
 3364 025b 13       		.uleb128 0x13
 3365 025c 00       		.byte	0
 3366 025d 00       		.byte	0
 3367 025e 2D       		.uleb128 0x2d
 3368 025f 34       		.uleb128 0x34
 3369 0260 00       		.byte	0
 3370 0261 03       		.uleb128 0x3
 3371 0262 08       		.uleb128 0x8
 3372 0263 3A       		.uleb128 0x3a
 3373 0264 0B       		.uleb128 0xb
 3374 0265 3B       		.uleb128 0x3b
 3375 0266 05       		.uleb128 0x5
 3376 0267 49       		.uleb128 0x49
 3377 0268 13       		.uleb128 0x13
 3378 0269 02       		.uleb128 0x2
 3379 026a 17       		.uleb128 0x17
 3380 026b 00       		.byte	0
 3381 026c 00       		.byte	0
 3382 026d 2E       		.uleb128 0x2e
 3383 026e 898201   		.uleb128 0x4109
 3384 0271 01       		.byte	0x1
 3385 0272 11       		.uleb128 0x11
 3386 0273 01       		.uleb128 0x1
 3387 0274 9542     		.uleb128 0x2115
 3388 0276 19       		.uleb128 0x19
 3389 0277 31       		.uleb128 0x31
 3390 0278 13       		.uleb128 0x13
 3391 0279 00       		.byte	0
 3392 027a 00       		.byte	0
 3393 027b 2F       		.uleb128 0x2f
 3394 027c 34       		.uleb128 0x34
 3395 027d 00       		.byte	0
 3396 027e 03       		.uleb128 0x3
 3397 027f 0E       		.uleb128 0xe
 3398 0280 3A       		.uleb128 0x3a
 3399 0281 0B       		.uleb128 0xb
 3400 0282 3B       		.uleb128 0x3b
 3401 0283 05       		.uleb128 0x5
 3402 0284 49       		.uleb128 0x49
 3403 0285 13       		.uleb128 0x13
 3404 0286 3F       		.uleb128 0x3f
 3405 0287 19       		.uleb128 0x19
ARM GAS  C:\Users\jo\AppData\Local\Temp\ccbcFezZ.s 			page 61


 3406 0288 3C       		.uleb128 0x3c
 3407 0289 19       		.uleb128 0x19
 3408 028a 00       		.byte	0
 3409 028b 00       		.byte	0
 3410 028c 30       		.uleb128 0x30
 3411 028d 34       		.uleb128 0x34
 3412 028e 00       		.byte	0
 3413 028f 03       		.uleb128 0x3
 3414 0290 08       		.uleb128 0x8
 3415 0291 3A       		.uleb128 0x3a
 3416 0292 0B       		.uleb128 0xb
 3417 0293 3B       		.uleb128 0x3b
 3418 0294 05       		.uleb128 0x5
 3419 0295 49       		.uleb128 0x49
 3420 0296 13       		.uleb128 0x13
 3421 0297 3F       		.uleb128 0x3f
 3422 0298 19       		.uleb128 0x19
 3423 0299 3C       		.uleb128 0x3c
 3424 029a 19       		.uleb128 0x19
 3425 029b 00       		.byte	0
 3426 029c 00       		.byte	0
 3427 029d 31       		.uleb128 0x31
 3428 029e 2E       		.uleb128 0x2e
 3429 029f 01       		.byte	0x1
 3430 02a0 3F       		.uleb128 0x3f
 3431 02a1 19       		.uleb128 0x19
 3432 02a2 03       		.uleb128 0x3
 3433 02a3 0E       		.uleb128 0xe
 3434 02a4 3A       		.uleb128 0x3a
 3435 02a5 0B       		.uleb128 0xb
 3436 02a6 3B       		.uleb128 0x3b
 3437 02a7 0B       		.uleb128 0xb
 3438 02a8 6E       		.uleb128 0x6e
 3439 02a9 0E       		.uleb128 0xe
 3440 02aa 27       		.uleb128 0x27
 3441 02ab 19       		.uleb128 0x19
 3442 02ac 49       		.uleb128 0x49
 3443 02ad 13       		.uleb128 0x13
 3444 02ae 3C       		.uleb128 0x3c
 3445 02af 19       		.uleb128 0x19
 3446 02b0 01       		.uleb128 0x1
 3447 02b1 13       		.uleb128 0x13
 3448 02b2 00       		.byte	0
 3449 02b3 00       		.byte	0
 3450 02b4 32       		.uleb128 0x32
 3451 02b5 2E       		.uleb128 0x2e
 3452 02b6 01       		.byte	0x1
 3453 02b7 3F       		.uleb128 0x3f
 3454 02b8 19       		.uleb128 0x19
 3455 02b9 03       		.uleb128 0x3
 3456 02ba 0E       		.uleb128 0xe
 3457 02bb 3A       		.uleb128 0x3a
 3458 02bc 0B       		.uleb128 0xb
 3459 02bd 3B       		.uleb128 0x3b
 3460 02be 0B       		.uleb128 0xb
 3461 02bf 27       		.uleb128 0x27
 3462 02c0 19       		.uleb128 0x19
ARM GAS  C:\Users\jo\AppData\Local\Temp\ccbcFezZ.s 			page 62


 3463 02c1 49       		.uleb128 0x49
 3464 02c2 13       		.uleb128 0x13
 3465 02c3 3C       		.uleb128 0x3c
 3466 02c4 19       		.uleb128 0x19
 3467 02c5 01       		.uleb128 0x1
 3468 02c6 13       		.uleb128 0x13
 3469 02c7 00       		.byte	0
 3470 02c8 00       		.byte	0
 3471 02c9 33       		.uleb128 0x33
 3472 02ca 2E       		.uleb128 0x2e
 3473 02cb 01       		.byte	0x1
 3474 02cc 3F       		.uleb128 0x3f
 3475 02cd 19       		.uleb128 0x19
 3476 02ce 03       		.uleb128 0x3
 3477 02cf 0E       		.uleb128 0xe
 3478 02d0 3A       		.uleb128 0x3a
 3479 02d1 0B       		.uleb128 0xb
 3480 02d2 3B       		.uleb128 0x3b
 3481 02d3 05       		.uleb128 0x5
 3482 02d4 27       		.uleb128 0x27
 3483 02d5 19       		.uleb128 0x19
 3484 02d6 49       		.uleb128 0x49
 3485 02d7 13       		.uleb128 0x13
 3486 02d8 3C       		.uleb128 0x3c
 3487 02d9 19       		.uleb128 0x19
 3488 02da 01       		.uleb128 0x1
 3489 02db 13       		.uleb128 0x13
 3490 02dc 00       		.byte	0
 3491 02dd 00       		.byte	0
 3492 02de 34       		.uleb128 0x34
 3493 02df 18       		.uleb128 0x18
 3494 02e0 00       		.byte	0
 3495 02e1 00       		.byte	0
 3496 02e2 00       		.byte	0
 3497 02e3 35       		.uleb128 0x35
 3498 02e4 2E       		.uleb128 0x2e
 3499 02e5 00       		.byte	0
 3500 02e6 3F       		.uleb128 0x3f
 3501 02e7 19       		.uleb128 0x19
 3502 02e8 03       		.uleb128 0x3
 3503 02e9 0E       		.uleb128 0xe
 3504 02ea 3A       		.uleb128 0x3a
 3505 02eb 0B       		.uleb128 0xb
 3506 02ec 3B       		.uleb128 0x3b
 3507 02ed 0B       		.uleb128 0xb
 3508 02ee 27       		.uleb128 0x27
 3509 02ef 19       		.uleb128 0x19
 3510 02f0 49       		.uleb128 0x49
 3511 02f1 13       		.uleb128 0x13
 3512 02f2 3C       		.uleb128 0x3c
 3513 02f3 19       		.uleb128 0x19
 3514 02f4 00       		.byte	0
 3515 02f5 00       		.byte	0
 3516 02f6 36       		.uleb128 0x36
 3517 02f7 2E       		.uleb128 0x2e
 3518 02f8 01       		.byte	0x1
 3519 02f9 3F       		.uleb128 0x3f
ARM GAS  C:\Users\jo\AppData\Local\Temp\ccbcFezZ.s 			page 63


 3520 02fa 19       		.uleb128 0x19
 3521 02fb 03       		.uleb128 0x3
 3522 02fc 0E       		.uleb128 0xe
 3523 02fd 3A       		.uleb128 0x3a
 3524 02fe 0B       		.uleb128 0xb
 3525 02ff 3B       		.uleb128 0x3b
 3526 0300 05       		.uleb128 0x5
 3527 0301 27       		.uleb128 0x27
 3528 0302 19       		.uleb128 0x19
 3529 0303 49       		.uleb128 0x49
 3530 0304 13       		.uleb128 0x13
 3531 0305 3C       		.uleb128 0x3c
 3532 0306 19       		.uleb128 0x19
 3533 0307 00       		.byte	0
 3534 0308 00       		.byte	0
 3535 0309 00       		.byte	0
 3536              		.section	.debug_loc,"",%progbits
 3537              	.Ldebug_loc0:
 3538              	.LLST0:
 3539 0000 00000000 		.4byte	.LVL0
 3540 0004 0C000000 		.4byte	.LVL1
 3541 0008 0100     		.2byte	0x1
 3542 000a 50       		.byte	0x50
 3543 000b 0C000000 		.4byte	.LVL1
 3544 000f 74000000 		.4byte	.LFE256
 3545 0013 0100     		.2byte	0x1
 3546 0015 57       		.byte	0x57
 3547 0016 00000000 		.4byte	0
 3548 001a 00000000 		.4byte	0
 3549              	.LLST1:
 3550 001e 00000000 		.4byte	.LVL0
 3551 0022 15000000 		.4byte	.LVL2-1
 3552 0026 0100     		.2byte	0x1
 3553 0028 51       		.byte	0x51
 3554 0029 15000000 		.4byte	.LVL2-1
 3555 002d 74000000 		.4byte	.LFE256
 3556 0031 0100     		.2byte	0x1
 3557 0033 58       		.byte	0x58
 3558 0034 00000000 		.4byte	0
 3559 0038 00000000 		.4byte	0
 3560              	.LLST2:
 3561 003c 00000000 		.4byte	.LVL0
 3562 0040 15000000 		.4byte	.LVL2-1
 3563 0044 0100     		.2byte	0x1
 3564 0046 52       		.byte	0x52
 3565 0047 15000000 		.4byte	.LVL2-1
 3566 004b 3E000000 		.4byte	.LVL5
 3567 004f 0100     		.2byte	0x1
 3568 0051 55       		.byte	0x55
 3569 0052 3E000000 		.4byte	.LVL5
 3570 0056 5C000000 		.4byte	.LVL7
 3571 005a 0400     		.2byte	0x4
 3572 005c F3       		.byte	0xf3
 3573 005d 01       		.uleb128 0x1
 3574 005e 52       		.byte	0x52
 3575 005f 9F       		.byte	0x9f
 3576 0060 5C000000 		.4byte	.LVL7
ARM GAS  C:\Users\jo\AppData\Local\Temp\ccbcFezZ.s 			page 64


 3577 0064 62000000 		.4byte	.LVL8
 3578 0068 0100     		.2byte	0x1
 3579 006a 55       		.byte	0x55
 3580 006b 62000000 		.4byte	.LVL8
 3581 006f 74000000 		.4byte	.LFE256
 3582 0073 0400     		.2byte	0x4
 3583 0075 F3       		.byte	0xf3
 3584 0076 01       		.uleb128 0x1
 3585 0077 52       		.byte	0x52
 3586 0078 9F       		.byte	0x9f
 3587 0079 00000000 		.4byte	0
 3588 007d 00000000 		.4byte	0
 3589              	.LLST3:
 3590 0081 00000000 		.4byte	.LVL10
 3591 0085 0E000000 		.4byte	.LVL11
 3592 0089 0100     		.2byte	0x1
 3593 008b 50       		.byte	0x50
 3594 008c 0E000000 		.4byte	.LVL11
 3595 0090 E0000000 		.4byte	.LFE257
 3596 0094 0100     		.2byte	0x1
 3597 0096 55       		.byte	0x55
 3598 0097 00000000 		.4byte	0
 3599 009b 00000000 		.4byte	0
 3600              	.LLST4:
 3601 009f 00000000 		.4byte	.LVL10
 3602 00a3 10000000 		.4byte	.LVL12
 3603 00a7 0100     		.2byte	0x1
 3604 00a9 51       		.byte	0x51
 3605 00aa 10000000 		.4byte	.LVL12
 3606 00ae E0000000 		.4byte	.LFE257
 3607 00b2 0100     		.2byte	0x1
 3608 00b4 59       		.byte	0x59
 3609 00b5 00000000 		.4byte	0
 3610 00b9 00000000 		.4byte	0
 3611              	.LLST5:
 3612 00bd 00000000 		.4byte	.LVL10
 3613 00c1 12000000 		.4byte	.LVL13
 3614 00c5 0100     		.2byte	0x1
 3615 00c7 52       		.byte	0x52
 3616 00c8 12000000 		.4byte	.LVL13
 3617 00cc 34000000 		.4byte	.LVL15
 3618 00d0 0100     		.2byte	0x1
 3619 00d2 56       		.byte	0x56
 3620 00d3 34000000 		.4byte	.LVL15
 3621 00d7 B2000000 		.4byte	.LVL20
 3622 00db 0400     		.2byte	0x4
 3623 00dd F3       		.byte	0xf3
 3624 00de 01       		.uleb128 0x1
 3625 00df 52       		.byte	0x52
 3626 00e0 9F       		.byte	0x9f
 3627 00e1 B2000000 		.4byte	.LVL20
 3628 00e5 B8000000 		.4byte	.LVL21
 3629 00e9 0100     		.2byte	0x1
 3630 00eb 56       		.byte	0x56
 3631 00ec B8000000 		.4byte	.LVL21
 3632 00f0 E0000000 		.4byte	.LFE257
 3633 00f4 0400     		.2byte	0x4
ARM GAS  C:\Users\jo\AppData\Local\Temp\ccbcFezZ.s 			page 65


 3634 00f6 F3       		.byte	0xf3
 3635 00f7 01       		.uleb128 0x1
 3636 00f8 52       		.byte	0x52
 3637 00f9 9F       		.byte	0x9f
 3638 00fa 00000000 		.4byte	0
 3639 00fe 00000000 		.4byte	0
 3640              	.LLST6:
 3641 0102 00000000 		.4byte	.LVL24
 3642 0106 13000000 		.4byte	.LVL27-1
 3643 010a 0100     		.2byte	0x1
 3644 010c 50       		.byte	0x50
 3645 010d 13000000 		.4byte	.LVL27-1
 3646 0111 42000000 		.4byte	.LFE259
 3647 0115 0400     		.2byte	0x4
 3648 0117 F3       		.byte	0xf3
 3649 0118 01       		.uleb128 0x1
 3650 0119 50       		.byte	0x50
 3651 011a 9F       		.byte	0x9f
 3652 011b 00000000 		.4byte	0
 3653 011f 00000000 		.4byte	0
 3654              	.LLST7:
 3655 0123 00000000 		.4byte	.LVL24
 3656 0127 0C000000 		.4byte	.LVL25
 3657 012b 0100     		.2byte	0x1
 3658 012d 51       		.byte	0x51
 3659 012e 0C000000 		.4byte	.LVL25
 3660 0132 42000000 		.4byte	.LFE259
 3661 0136 0100     		.2byte	0x1
 3662 0138 55       		.byte	0x55
 3663 0139 00000000 		.4byte	0
 3664 013d 00000000 		.4byte	0
 3665              	.LLST8:
 3666 0141 00000000 		.4byte	.LVL24
 3667 0145 0E000000 		.4byte	.LVL26
 3668 0149 0100     		.2byte	0x1
 3669 014b 52       		.byte	0x52
 3670 014c 0E000000 		.4byte	.LVL26
 3671 0150 42000000 		.4byte	.LFE259
 3672 0154 0100     		.2byte	0x1
 3673 0156 54       		.byte	0x54
 3674 0157 00000000 		.4byte	0
 3675 015b 00000000 		.4byte	0
 3676              	.LLST9:
 3677 015f 00000000 		.4byte	.LVL31
 3678 0163 11000000 		.4byte	.LVL32-1
 3679 0167 0100     		.2byte	0x1
 3680 0169 50       		.byte	0x50
 3681 016a 11000000 		.4byte	.LVL32-1
 3682 016e 1C000000 		.4byte	.LFE260
 3683 0172 0400     		.2byte	0x4
 3684 0174 F3       		.byte	0xf3
 3685 0175 01       		.uleb128 0x1
 3686 0176 50       		.byte	0x50
 3687 0177 9F       		.byte	0x9f
 3688 0178 00000000 		.4byte	0
 3689 017c 00000000 		.4byte	0
 3690              	.LLST10:
ARM GAS  C:\Users\jo\AppData\Local\Temp\ccbcFezZ.s 			page 66


 3691 0180 00000000 		.4byte	.LVL33
 3692 0184 11000000 		.4byte	.LVL34-1
 3693 0188 0100     		.2byte	0x1
 3694 018a 50       		.byte	0x50
 3695 018b 11000000 		.4byte	.LVL34-1
 3696 018f 1C000000 		.4byte	.LFE261
 3697 0193 0400     		.2byte	0x4
 3698 0195 F3       		.byte	0xf3
 3699 0196 01       		.uleb128 0x1
 3700 0197 50       		.byte	0x50
 3701 0198 9F       		.byte	0x9f
 3702 0199 00000000 		.4byte	0
 3703 019d 00000000 		.4byte	0
 3704              	.LLST11:
 3705 01a1 00000000 		.4byte	.LVL35
 3706 01a5 0E000000 		.4byte	.LVL36
 3707 01a9 0100     		.2byte	0x1
 3708 01ab 50       		.byte	0x50
 3709 01ac 0E000000 		.4byte	.LVL36
 3710 01b0 19000000 		.4byte	.LVL37-1
 3711 01b4 0200     		.2byte	0x2
 3712 01b6 91       		.byte	0x91
 3713 01b7 6C       		.sleb128 -20
 3714 01b8 19000000 		.4byte	.LVL37-1
 3715 01bc 1E000000 		.4byte	.LFE262
 3716 01c0 0400     		.2byte	0x4
 3717 01c2 F3       		.byte	0xf3
 3718 01c3 01       		.uleb128 0x1
 3719 01c4 50       		.byte	0x50
 3720 01c5 9F       		.byte	0x9f
 3721 01c6 00000000 		.4byte	0
 3722 01ca 00000000 		.4byte	0
 3723              	.LLST12:
 3724 01ce 00000000 		.4byte	.LVL38
 3725 01d2 04000000 		.4byte	.LVL39
 3726 01d6 0100     		.2byte	0x1
 3727 01d8 50       		.byte	0x50
 3728 01d9 04000000 		.4byte	.LVL39
 3729 01dd 4C000000 		.4byte	.LFE263
 3730 01e1 0400     		.2byte	0x4
 3731 01e3 F3       		.byte	0xf3
 3732 01e4 01       		.uleb128 0x1
 3733 01e5 50       		.byte	0x50
 3734 01e6 9F       		.byte	0x9f
 3735 01e7 00000000 		.4byte	0
 3736 01eb 00000000 		.4byte	0
 3737              	.LLST13:
 3738 01ef 00000000 		.4byte	.LVL38
 3739 01f3 07000000 		.4byte	.LVL40-1
 3740 01f7 0100     		.2byte	0x1
 3741 01f9 51       		.byte	0x51
 3742 01fa 07000000 		.4byte	.LVL40-1
 3743 01fe 4C000000 		.4byte	.LFE263
 3744 0202 0400     		.2byte	0x4
 3745 0204 F3       		.byte	0xf3
 3746 0205 01       		.uleb128 0x1
 3747 0206 51       		.byte	0x51
ARM GAS  C:\Users\jo\AppData\Local\Temp\ccbcFezZ.s 			page 67


 3748 0207 9F       		.byte	0x9f
 3749 0208 00000000 		.4byte	0
 3750 020c 00000000 		.4byte	0
 3751              	.LLST14:
 3752 0210 00000000 		.4byte	.LVL38
 3753 0214 07000000 		.4byte	.LVL40-1
 3754 0218 0100     		.2byte	0x1
 3755 021a 52       		.byte	0x52
 3756 021b 07000000 		.4byte	.LVL40-1
 3757 021f 4C000000 		.4byte	.LFE263
 3758 0223 0400     		.2byte	0x4
 3759 0225 F3       		.byte	0xf3
 3760 0226 01       		.uleb128 0x1
 3761 0227 52       		.byte	0x52
 3762 0228 9F       		.byte	0x9f
 3763 0229 00000000 		.4byte	0
 3764 022d 00000000 		.4byte	0
 3765              	.LLST15:
 3766 0231 08000000 		.4byte	.LVL40
 3767 0235 11000000 		.4byte	.LVL41-1
 3768 0239 0100     		.2byte	0x1
 3769 023b 50       		.byte	0x50
 3770 023c 00000000 		.4byte	0
 3771 0240 00000000 		.4byte	0
 3772              	.LLST16:
 3773 0244 00000000 		.4byte	.LVL45
 3774 0248 04000000 		.4byte	.LVL46
 3775 024c 0100     		.2byte	0x1
 3776 024e 50       		.byte	0x50
 3777 024f 04000000 		.4byte	.LVL46
 3778 0253 4C000000 		.4byte	.LFE264
 3779 0257 0400     		.2byte	0x4
 3780 0259 F3       		.byte	0xf3
 3781 025a 01       		.uleb128 0x1
 3782 025b 50       		.byte	0x50
 3783 025c 9F       		.byte	0x9f
 3784 025d 00000000 		.4byte	0
 3785 0261 00000000 		.4byte	0
 3786              	.LLST17:
 3787 0265 00000000 		.4byte	.LVL45
 3788 0269 07000000 		.4byte	.LVL47-1
 3789 026d 0100     		.2byte	0x1
 3790 026f 51       		.byte	0x51
 3791 0270 07000000 		.4byte	.LVL47-1
 3792 0274 4C000000 		.4byte	.LFE264
 3793 0278 0400     		.2byte	0x4
 3794 027a F3       		.byte	0xf3
 3795 027b 01       		.uleb128 0x1
 3796 027c 51       		.byte	0x51
 3797 027d 9F       		.byte	0x9f
 3798 027e 00000000 		.4byte	0
 3799 0282 00000000 		.4byte	0
 3800              	.LLST18:
 3801 0286 00000000 		.4byte	.LVL45
 3802 028a 07000000 		.4byte	.LVL47-1
 3803 028e 0100     		.2byte	0x1
 3804 0290 52       		.byte	0x52
ARM GAS  C:\Users\jo\AppData\Local\Temp\ccbcFezZ.s 			page 68


 3805 0291 07000000 		.4byte	.LVL47-1
 3806 0295 4C000000 		.4byte	.LFE264
 3807 0299 0400     		.2byte	0x4
 3808 029b F3       		.byte	0xf3
 3809 029c 01       		.uleb128 0x1
 3810 029d 52       		.byte	0x52
 3811 029e 9F       		.byte	0x9f
 3812 029f 00000000 		.4byte	0
 3813 02a3 00000000 		.4byte	0
 3814              	.LLST19:
 3815 02a7 08000000 		.4byte	.LVL47
 3816 02ab 11000000 		.4byte	.LVL48-1
 3817 02af 0100     		.2byte	0x1
 3818 02b1 50       		.byte	0x50
 3819 02b2 00000000 		.4byte	0
 3820 02b6 00000000 		.4byte	0
 3821              	.LLST20:
 3822 02ba 00000000 		.4byte	.LVL52
 3823 02be 09000000 		.4byte	.LVL53-1
 3824 02c2 0100     		.2byte	0x1
 3825 02c4 50       		.byte	0x50
 3826 02c5 09000000 		.4byte	.LVL53-1
 3827 02c9 10000000 		.4byte	.LVL54
 3828 02cd 0100     		.2byte	0x1
 3829 02cf 54       		.byte	0x54
 3830 02d0 10000000 		.4byte	.LVL54
 3831 02d4 13000000 		.4byte	.LVL55-1
 3832 02d8 0100     		.2byte	0x1
 3833 02da 50       		.byte	0x50
 3834 02db 13000000 		.4byte	.LVL55-1
 3835 02df 14000000 		.4byte	.LFE265
 3836 02e3 0400     		.2byte	0x4
 3837 02e5 F3       		.byte	0xf3
 3838 02e6 01       		.uleb128 0x1
 3839 02e7 50       		.byte	0x50
 3840 02e8 9F       		.byte	0x9f
 3841 02e9 00000000 		.4byte	0
 3842 02ed 00000000 		.4byte	0
 3843              		.section	.debug_aranges,"",%progbits
 3844 0000 5C000000 		.4byte	0x5c
 3845 0004 0200     		.2byte	0x2
 3846 0006 00000000 		.4byte	.Ldebug_info0
 3847 000a 04       		.byte	0x4
 3848 000b 00       		.byte	0
 3849 000c 0000     		.2byte	0
 3850 000e 0000     		.2byte	0
 3851 0010 00000000 		.4byte	.LFB256
 3852 0014 74000000 		.4byte	.LFE256-.LFB256
 3853 0018 00000000 		.4byte	.LFB257
 3854 001c E0000000 		.4byte	.LFE257-.LFB257
 3855 0020 00000000 		.4byte	.LFB259
 3856 0024 42000000 		.4byte	.LFE259-.LFB259
 3857 0028 00000000 		.4byte	.LFB260
 3858 002c 1C000000 		.4byte	.LFE260-.LFB260
 3859 0030 00000000 		.4byte	.LFB261
 3860 0034 1C000000 		.4byte	.LFE261-.LFB261
 3861 0038 00000000 		.4byte	.LFB262
ARM GAS  C:\Users\jo\AppData\Local\Temp\ccbcFezZ.s 			page 69


 3862 003c 1E000000 		.4byte	.LFE262-.LFB262
 3863 0040 00000000 		.4byte	.LFB263
 3864 0044 4C000000 		.4byte	.LFE263-.LFB263
 3865 0048 00000000 		.4byte	.LFB264
 3866 004c 4C000000 		.4byte	.LFE264-.LFB264
 3867 0050 00000000 		.4byte	.LFB265
 3868 0054 14000000 		.4byte	.LFE265-.LFB265
 3869 0058 00000000 		.4byte	0
 3870 005c 00000000 		.4byte	0
 3871              		.section	.debug_ranges,"",%progbits
 3872              	.Ldebug_ranges0:
 3873 0000 00000000 		.4byte	.LFB256
 3874 0004 74000000 		.4byte	.LFE256
 3875 0008 00000000 		.4byte	.LFB257
 3876 000c E0000000 		.4byte	.LFE257
 3877 0010 00000000 		.4byte	.LFB259
 3878 0014 42000000 		.4byte	.LFE259
 3879 0018 00000000 		.4byte	.LFB260
 3880 001c 1C000000 		.4byte	.LFE260
 3881 0020 00000000 		.4byte	.LFB261
 3882 0024 1C000000 		.4byte	.LFE261
 3883 0028 00000000 		.4byte	.LFB262
 3884 002c 1E000000 		.4byte	.LFE262
 3885 0030 00000000 		.4byte	.LFB263
 3886 0034 4C000000 		.4byte	.LFE263
 3887 0038 00000000 		.4byte	.LFB264
 3888 003c 4C000000 		.4byte	.LFE264
 3889 0040 00000000 		.4byte	.LFB265
 3890 0044 14000000 		.4byte	.LFE265
 3891 0048 00000000 		.4byte	0
 3892 004c 00000000 		.4byte	0
 3893              		.section	.debug_line,"",%progbits
 3894              	.Ldebug_line0:
 3895 0000 CD040000 		.section	.debug_str,"MS",%progbits,1
 3895      02008303 
 3895      00000201 
 3895      FB0E0D00 
 3895      01010101 
 3896              	.LASF117:
 3897 0000 6B65726E 		.ascii	"kernel_stats_t\000"
 3897      656C5F73 
 3897      74617473 
 3897      5F7400
 3898              	.LASF162:
 3899 000f 6E65745F 		.ascii	"net_send\000"
 3899      73656E64 
 3899      00
 3900              	.LASF103:
 3901 0018 74625F70 		.ascii	"tb_ptr\000"
 3901      747200
 3902              	.LASF58:
 3903 001f 72656164 		.ascii	"ready_list_t\000"
 3903      795F6C69 
 3903      73745F74 
 3903      00
 3904              	.LASF97:
 3905 002c 73655F74 		.ascii	"se_time\000"
ARM GAS  C:\Users\jo\AppData\Local\Temp\ccbcFezZ.s 			page 70


 3905      696D6500 
 3906              	.LASF2:
 3907 0034 73697A65 		.ascii	"size_t\000"
 3907      5F7400
 3908              	.LASF118:
 3909 003b 7264796D 		.ascii	"rdymsg\000"
 3909      736700
 3910              	.LASF21:
 3911 0042 75696E74 		.ascii	"uint64_t\000"
 3911      36345F74 
 3911      00
 3912              	.LASF3:
 3913 004b 5F5F7569 		.ascii	"__uint8_t\000"
 3913      6E74385F 
 3913      7400
 3914              	.LASF93:
 3915 0055 706F7274 		.ascii	"port_intctx\000"
 3915      5F696E74 
 3915      63747800 
 3916              	.LASF57:
 3917 0061 63685F74 		.ascii	"ch_threads_queue\000"
 3917      68726561 
 3917      64735F71 
 3917      75657565 
 3917      00
 3918              	.LASF77:
 3919 0072 73797374 		.ascii	"system_debug_t\000"
 3919      656D5F64 
 3919      65627567 
 3919      5F7400
 3920              	.LASF109:
 3921 0081 776F7273 		.ascii	"worst\000"
 3921      7400
 3922              	.LASF112:
 3923 0087 74696D65 		.ascii	"time_measurement_t\000"
 3923      5F6D6561 
 3923      73757265 
 3923      6D656E74 
 3923      5F7400
 3924              	.LASF94:
 3925 009a 66645F6D 		.ascii	"fd_mask\000"
 3925      61736B00 
 3926              	.LASF14:
 3927 00a2 6C6F6E67 		.ascii	"long long unsigned int\000"
 3927      206C6F6E 
 3927      6720756E 
 3927      7369676E 
 3927      65642069 
 3928              	.LASF105:
 3929 00b9 63685F74 		.ascii	"ch_trace_buffer_t\000"
 3929      72616365 
 3929      5F627566 
 3929      6665725F 
 3929      7400
 3930              	.LASF100:
 3931 00cb 73655F73 		.ascii	"se_state\000"
 3931      74617465 
ARM GAS  C:\Users\jo\AppData\Local\Temp\ccbcFezZ.s 			page 71


 3931      00
 3932              	.LASF119:
 3933 00d4 65786974 		.ascii	"exitcode\000"
 3933      636F6465 
 3933      00
 3934              	.LASF87:
 3935 00dd 6D61696E 		.ascii	"mainthread\000"
 3935      74687265 
 3935      616400
 3936              	.LASF143:
 3937 00e8 736F636B 		.ascii	"socklen_t\000"
 3937      6C656E5F 
 3937      7400
 3938              	.LASF165:
 3939 00f2 49544D5F 		.ascii	"ITM_RxBuffer\000"
 3939      52784275 
 3939      66666572 
 3939      00
 3940              	.LASF156:
 3941 00ff 636C6965 		.ascii	"client_ip\000"
 3941      6E745F69 
 3941      7000
 3942              	.LASF23:
 3943 0109 72747469 		.ascii	"rttime_t\000"
 3943      6D655F74 
 3943      00
 3944              	.LASF173:
 3945 0112 6C776970 		.ascii	"lwip_listen\000"
 3945      5F6C6973 
 3945      74656E00 
 3946              	.LASF36:
 3947 011e 705F7072 		.ascii	"p_prio\000"
 3947      696F00
 3948              	.LASF181:
 3949 0125 433A5C55 		.ascii	"C:\\Users\\jo\\Documents\\GitHub\\ChibiOS\\demos\\S"
 3949      73657273 
 3949      5C6A6F5C 
 3949      446F6375 
 3949      6D656E74 
 3950 0151 544D3332 		.ascii	"TM32\\RT-STM32F407-DISCOVERY-uHttp\000"
 3950      5C52542D 
 3950      53544D33 
 3950      32463430 
 3950      372D4449 
 3951              	.LASF140:
 3952 0173 73615F6C 		.ascii	"sa_len\000"
 3952      656E00
 3953              	.LASF180:
 3954 017a 2E2E2F2E 		.ascii	"../../../os/ext/PolarSSL/library/net.c\000"
 3954      2E2F2E2E 
 3954      2F6F732F 
 3954      6578742F 
 3954      506F6C61 
 3955              	.LASF12:
 3956 01a1 6C6F6E67 		.ascii	"long long int\000"
 3956      206C6F6E 
 3956      6720696E 
ARM GAS  C:\Users\jo\AppData\Local\Temp\ccbcFezZ.s 			page 72


 3956      7400
 3957              	.LASF1:
 3958 01af 7369676E 		.ascii	"signed char\000"
 3958      65642063 
 3958      68617200 
 3959              	.LASF168:
 3960 01bb 6C776970 		.ascii	"lwip_connect\000"
 3960      5F636F6E 
 3960      6E656374 
 3960      00
 3961              	.LASF150:
 3962 01c8 6E65745F 		.ascii	"net_bind\000"
 3962      62696E64 
 3962      00
 3963              	.LASF51:
 3964 01d1 705F6D70 		.ascii	"p_mpool\000"
 3964      6F6F6C00 
 3965              	.LASF123:
 3966 01d9 6D5F7175 		.ascii	"m_queue\000"
 3966      65756500 
 3967              	.LASF153:
 3968 01e1 6E65745F 		.ascii	"net_accept\000"
 3968      61636365 
 3968      707400
 3969              	.LASF86:
 3970 01ec 76746C69 		.ascii	"vtlist\000"
 3970      737400
 3971              	.LASF185:
 3972 01f3 5F5F6572 		.ascii	"__errno\000"
 3972      726E6F00 
 3973              	.LASF84:
 3974 01fb 63685F73 		.ascii	"ch_system\000"
 3974      79737465 
 3974      6D00
 3975              	.LASF9:
 3976 0205 6C6F6E67 		.ascii	"long int\000"
 3976      20696E74 
 3976      00
 3977              	.LASF25:
 3978 020e 74737461 		.ascii	"tstate_t\000"
 3978      74655F74 
 3978      00
 3979              	.LASF183:
 3980 0217 5F5F6275 		.ascii	"__builtin_puts\000"
 3980      696C7469 
 3980      6E5F7075 
 3980      747300
 3981              	.LASF98:
 3982 0226 73655F74 		.ascii	"se_tp\000"
 3982      7000
 3983              	.LASF18:
 3984 022c 75696E74 		.ascii	"uint16_t\000"
 3984      31365F74 
 3984      00
 3985              	.LASF38:
 3986 0235 705F6E65 		.ascii	"p_newer\000"
 3986      77657200 
ARM GAS  C:\Users\jo\AppData\Local\Temp\ccbcFezZ.s 			page 73


 3987              	.LASF172:
 3988 023d 6C776970 		.ascii	"lwip_bind\000"
 3988      5F62696E 
 3988      6400
 3989              	.LASF102:
 3990 0247 74625F73 		.ascii	"tb_size\000"
 3990      697A6500 
 3991              	.LASF63:
 3992 024f 725F6E65 		.ascii	"r_newer\000"
 3992      77657200 
 3993              	.LASF90:
 3994 0257 72656761 		.ascii	"regarm_t\000"
 3994      726D5F74 
 3994      00
 3995              	.LASF70:
 3996 0260 76745F70 		.ascii	"vt_prev\000"
 3996      72657600 
 3997              	.LASF138:
 3998 0268 73696E5F 		.ascii	"sin_zero\000"
 3998      7A65726F 
 3998      00
 3999              	.LASF176:
 4000 0271 6C776970 		.ascii	"lwip_select\000"
 4000      5F73656C 
 4000      65637400 
 4001              	.LASF148:
 4002 027d 706F7274 		.ascii	"port\000"
 4002      00
 4003              	.LASF126:
 4004 0282 6D757465 		.ascii	"mutex_t\000"
 4004      785F7400 
 4005              	.LASF81:
 4006 028a 6C6F636B 		.ascii	"lock_cnt\000"
 4006      5F636E74 
 4006      00
 4007              	.LASF122:
 4008 0293 6D757465 		.ascii	"mutex\000"
 4008      7800
 4009              	.LASF89:
 4010 0299 69646C65 		.ascii	"idle_thread_wa\000"
 4010      5F746872 
 4010      6561645F 
 4010      776100
 4011              	.LASF147:
 4012 02a8 686F7374 		.ascii	"host\000"
 4012      00
 4013              	.LASF30:
 4014 02ad 636E745F 		.ascii	"cnt_t\000"
 4014      7400
 4015              	.LASF41:
 4016 02b3 705F7374 		.ascii	"p_stklimit\000"
 4016      6B6C696D 
 4016      697400
 4017              	.LASF0:
 4018 02be 756E7369 		.ascii	"unsigned int\000"
 4018      676E6564 
 4018      20696E74 
ARM GAS  C:\Users\jo\AppData\Local\Temp\ccbcFezZ.s 			page 74


 4018      00
 4019              	.LASF132:
 4020 02cb 735F6164 		.ascii	"s_addr\000"
 4020      647200
 4021              	.LASF69:
 4022 02d2 76745F6E 		.ascii	"vt_next\000"
 4022      65787400 
 4023              	.LASF46:
 4024 02da 705F6D73 		.ascii	"p_msgqueue\000"
 4024      67717565 
 4024      756500
 4025              	.LASF130:
 4026 02e5 7533325F 		.ascii	"u32_t\000"
 4026      7400
 4027              	.LASF95:
 4028 02eb 5F747970 		.ascii	"_types_fd_set\000"
 4028      65735F66 
 4028      645F7365 
 4028      7400
 4029              	.LASF113:
 4030 02f9 6E5F6972 		.ascii	"n_irq\000"
 4030      7100
 4031              	.LASF7:
 4032 02ff 73686F72 		.ascii	"short unsigned int\000"
 4032      7420756E 
 4032      7369676E 
 4032      65642069 
 4032      6E7400
 4033              	.LASF137:
 4034 0312 73696E5F 		.ascii	"sin_addr\000"
 4034      61646472 
 4034      00
 4035              	.LASF54:
 4036 031b 63685F74 		.ascii	"ch_thread\000"
 4036      68726561 
 4036      6400
 4037              	.LASF28:
 4038 0325 6D73675F 		.ascii	"msg_t\000"
 4038      7400
 4039              	.LASF110:
 4040 032b 6C617374 		.ascii	"last\000"
 4040      00
 4041              	.LASF31:
 4042 0330 75636E74 		.ascii	"ucnt_t\000"
 4042      5F7400
 4043              	.LASF154:
 4044 0337 62696E64 		.ascii	"bind_fd\000"
 4044      5F666400 
 4045              	.LASF83:
 4046 033f 63685F73 		.ascii	"ch_system_t\000"
 4046      79737465 
 4046      6D5F7400 
 4047              	.LASF24:
 4048 034b 746D6F64 		.ascii	"tmode_t\000"
 4048      655F7400 
 4049              	.LASF85:
 4050 0353 726C6973 		.ascii	"rlist\000"
ARM GAS  C:\Users\jo\AppData\Local\Temp\ccbcFezZ.s 			page 75


 4050      7400
 4051              	.LASF116:
 4052 0359 6D5F6372 		.ascii	"m_crit_isr\000"
 4052      69745F69 
 4052      737200
 4053              	.LASF59:
 4054 0364 63685F72 		.ascii	"ch_ready_list\000"
 4054      65616479 
 4054      5F6C6973 
 4054      7400
 4055              	.LASF29:
 4056 0372 6576656E 		.ascii	"eventmask_t\000"
 4056      746D6173 
 4056      6B5F7400 
 4057              	.LASF144:
 4058 037e 74696D65 		.ascii	"timeval\000"
 4058      76616C00 
 4059              	.LASF8:
 4060 0386 5F5F696E 		.ascii	"__int32_t\000"
 4060      7433325F 
 4060      7400
 4061              	.LASF96:
 4062 0390 6664735F 		.ascii	"fds_bits\000"
 4062      62697473 
 4062      00
 4063              	.LASF74:
 4064 0399 76697274 		.ascii	"virtual_timers_list_t\000"
 4064      75616C5F 
 4064      74696D65 
 4064      72735F6C 
 4064      6973745F 
 4065              	.LASF179:
 4066 03af 474E5520 		.ascii	"GNU C 4.9.3 20141119 (release) [ARM/embedded-4_9-br"
 4066      4320342E 
 4066      392E3320 
 4066      32303134 
 4066      31313139 
 4067 03e2 616E6368 		.ascii	"anch revision 218278] -mcpu=cortex-m4 -mno-thumb-in"
 4067      20726576 
 4067      6973696F 
 4067      6E203231 
 4067      38323738 
 4068 0415 74657277 		.ascii	"terwork -mthumb -ggdb -O2 -fomit-frame-pointer -fal"
 4068      6F726B20 
 4068      2D6D7468 
 4068      756D6220 
 4068      2D676764 
 4069 0448 69676E2D 		.ascii	"ign-functions=16 -ffunction-sections -fdata-section"
 4069      66756E63 
 4069      74696F6E 
 4069      733D3136 
 4069      202D6666 
 4070 047b 73202D66 		.ascii	"s -fno-common\000"
 4070      6E6F2D63 
 4070      6F6D6D6F 
 4070      6E00
 4071              	.LASF91:
ARM GAS  C:\Users\jo\AppData\Local\Temp\ccbcFezZ.s 			page 76


 4072 0489 73746B61 		.ascii	"stkalign_t\000"
 4072      6C69676E 
 4072      5F7400
 4073              	.LASF159:
 4074 0494 6E65745F 		.ascii	"net_set_nonblock\000"
 4074      7365745F 
 4074      6E6F6E62 
 4074      6C6F636B 
 4074      00
 4075              	.LASF184:
 4076 04a5 70757473 		.ascii	"puts\000"
 4076      00
 4077              	.LASF135:
 4078 04aa 73696E5F 		.ascii	"sin_family\000"
 4078      66616D69 
 4078      6C7900
 4079              	.LASF45:
 4080 04b5 705F7761 		.ascii	"p_waiting\000"
 4080      6974696E 
 4080      6700
 4081              	.LASF128:
 4082 04bf 75385F74 		.ascii	"u8_t\000"
 4082      00
 4083              	.LASF15:
 4084 04c4 73697A65 		.ascii	"sizetype\000"
 4084      74797065 
 4084      00
 4085              	.LASF177:
 4086 04cd 6C776970 		.ascii	"lwip_read\000"
 4086      5F726561 
 4086      6400
 4087              	.LASF75:
 4088 04d7 63685F76 		.ascii	"ch_virtual_timers_list\000"
 4088      69727475 
 4088      616C5F74 
 4088      696D6572 
 4088      735F6C69 
 4089              	.LASF171:
 4090 04ee 73736361 		.ascii	"sscanf\000"
 4090      6E6600
 4091              	.LASF145:
 4092 04f5 74765F73 		.ascii	"tv_sec\000"
 4092      656300
 4093              	.LASF101:
 4094 04fc 63685F73 		.ascii	"ch_swc_event_t\000"
 4094      77635F65 
 4094      76656E74 
 4094      5F7400
 4095              	.LASF76:
 4096 050b 76745F6C 		.ascii	"vt_lasttime\000"
 4096      61737474 
 4096      696D6500 
 4097              	.LASF157:
 4098 0517 636C6965 		.ascii	"client_addr\000"
 4098      6E745F61 
 4098      64647200 
 4099              	.LASF39:
ARM GAS  C:\Users\jo\AppData\Local\Temp\ccbcFezZ.s 			page 77


 4100 0523 705F6F6C 		.ascii	"p_older\000"
 4100      64657200 
 4101              	.LASF62:
 4102 052b 725F6374 		.ascii	"r_ctx\000"
 4102      7800
 4103              	.LASF107:
 4104 0531 746D5F63 		.ascii	"tm_calibration_t\000"
 4104      616C6962 
 4104      72617469 
 4104      6F6E5F74 
 4104      00
 4105              	.LASF134:
 4106 0542 73696E5F 		.ascii	"sin_len\000"
 4106      6C656E00 
 4107              	.LASF65:
 4108 054a 725F6375 		.ascii	"r_current\000"
 4108      7272656E 
 4108      7400
 4109              	.LASF64:
 4110 0554 725F6F6C 		.ascii	"r_older\000"
 4110      64657200 
 4111              	.LASF175:
 4112 055c 6C776970 		.ascii	"lwip_ioctl\000"
 4112      5F696F63 
 4112      746C00
 4113              	.LASF13:
 4114 0567 5F5F7569 		.ascii	"__uint64_t\000"
 4114      6E743634 
 4114      5F7400
 4115              	.LASF160:
 4116 0572 75736563 		.ascii	"usec\000"
 4116      00
 4117              	.LASF136:
 4118 0577 73696E5F 		.ascii	"sin_port\000"
 4118      706F7274 
 4118      00
 4119              	.LASF141:
 4120 0580 73615F66 		.ascii	"sa_family\000"
 4120      616D696C 
 4120      7900
 4121              	.LASF88:
 4122 058a 6B65726E 		.ascii	"kernel_stats\000"
 4122      656C5F73 
 4122      74617473 
 4122      00
 4123              	.LASF26:
 4124 0597 74726566 		.ascii	"trefs_t\000"
 4124      735F7400 
 4125              	.LASF104:
 4126 059f 74625F62 		.ascii	"tb_buffer\000"
 4126      75666665 
 4126      7200
 4127              	.LASF67:
 4128 05a9 76697274 		.ascii	"virtual_timer_t\000"
 4128      75616C5F 
 4128      74696D65 
 4128      725F7400 
ARM GAS  C:\Users\jo\AppData\Local\Temp\ccbcFezZ.s 			page 78


 4129              	.LASF35:
 4130 05b9 705F7072 		.ascii	"p_prev\000"
 4130      657600
 4131              	.LASF27:
 4132 05c0 74707269 		.ascii	"tprio_t\000"
 4132      6F5F7400 
 4133              	.LASF114:
 4134 05c8 6E5F6374 		.ascii	"n_ctxswc\000"
 4134      78737763 
 4134      00
 4135              	.LASF127:
 4136 05d1 5F426F6F 		.ascii	"_Bool\000"
 4136      6C00
 4137              	.LASF19:
 4138 05d7 696E7433 		.ascii	"int32_t\000"
 4138      325F7400 
 4139              	.LASF4:
 4140 05df 756E7369 		.ascii	"unsigned char\000"
 4140      676E6564 
 4140      20636861 
 4140      7200
 4141              	.LASF49:
 4142 05ed 705F6D74 		.ascii	"p_mtxlist\000"
 4142      786C6973 
 4142      7400
 4143              	.LASF5:
 4144 05f7 73686F72 		.ascii	"short int\000"
 4144      7420696E 
 4144      7400
 4145              	.LASF42:
 4146 0601 705F7374 		.ascii	"p_state\000"
 4146      61746500 
 4147              	.LASF61:
 4148 0609 725F7072 		.ascii	"r_prio\000"
 4148      696F00
 4149              	.LASF121:
 4150 0610 65776D61 		.ascii	"ewmask\000"
 4150      736B00
 4151              	.LASF34:
 4152 0617 705F6E65 		.ascii	"p_next\000"
 4152      787400
 4153              	.LASF43:
 4154 061e 705F666C 		.ascii	"p_flags\000"
 4154      61677300 
 4155              	.LASF52:
 4156 0626 705F7374 		.ascii	"p_stats\000"
 4156      61747300 
 4157              	.LASF161:
 4158 062e 6E65745F 		.ascii	"net_recv\000"
 4158      72656376 
 4158      00
 4159              	.LASF68:
 4160 0637 63685F76 		.ascii	"ch_virtual_timer\000"
 4160      69727475 
 4160      616C5F74 
 4160      696D6572 
 4160      00
ARM GAS  C:\Users\jo\AppData\Local\Temp\ccbcFezZ.s 			page 79


 4161              	.LASF48:
 4162 0648 705F6570 		.ascii	"p_epending\000"
 4162      656E6469 
 4162      6E6700
 4163              	.LASF146:
 4164 0653 74765F75 		.ascii	"tv_usec\000"
 4164      73656300 
 4165              	.LASF20:
 4166 065b 75696E74 		.ascii	"uint32_t\000"
 4166      33325F74 
 4166      00
 4167              	.LASF174:
 4168 0664 6C776970 		.ascii	"lwip_accept\000"
 4168      5F616363 
 4168      65707400 
 4169              	.LASF60:
 4170 0670 725F7175 		.ascii	"r_queue\000"
 4170      65756500 
 4171              	.LASF71:
 4172 0678 76745F64 		.ascii	"vt_delta\000"
 4172      656C7461 
 4172      00
 4173              	.LASF55:
 4174 0681 63685F74 		.ascii	"ch_threads_list\000"
 4174      68726561 
 4174      64735F6C 
 4174      69737400 
 4175              	.LASF170:
 4176 0691 6C776970 		.ascii	"lwip_setsockopt\000"
 4176      5F736574 
 4176      736F636B 
 4176      6F707400 
 4177              	.LASF11:
 4178 06a1 6C6F6E67 		.ascii	"long unsigned int\000"
 4178      20756E73 
 4178      69676E65 
 4178      6420696E 
 4178      7400
 4179              	.LASF167:
 4180 06b3 6C776970 		.ascii	"lwip_socket\000"
 4180      5F736F63 
 4180      6B657400 
 4181              	.LASF16:
 4182 06bf 63686172 		.ascii	"char\000"
 4182      00
 4183              	.LASF164:
 4184 06c4 6E65745F 		.ascii	"net_close\000"
 4184      636C6F73 
 4184      6500
 4185              	.LASF6:
 4186 06ce 5F5F7569 		.ascii	"__uint16_t\000"
 4186      6E743136 
 4186      5F7400
 4187              	.LASF33:
 4188 06d9 74687265 		.ascii	"thread_t\000"
 4188      61645F74 
 4188      00
ARM GAS  C:\Users\jo\AppData\Local\Temp\ccbcFezZ.s 			page 80


 4189              	.LASF108:
 4190 06e2 62657374 		.ascii	"best\000"
 4190      00
 4191              	.LASF125:
 4192 06e7 6D5F6E65 		.ascii	"m_next\000"
 4192      787400
 4193              	.LASF32:
 4194 06ee 73797374 		.ascii	"systime_t\000"
 4194      696D655F 
 4194      7400
 4195              	.LASF50:
 4196 06f8 705F7265 		.ascii	"p_realprio\000"
 4196      616C7072 
 4196      696F00
 4197              	.LASF66:
 4198 0703 76746675 		.ascii	"vtfunc_t\000"
 4198      6E635F74 
 4198      00
 4199              	.LASF10:
 4200 070c 5F5F7569 		.ascii	"__uint32_t\000"
 4200      6E743332 
 4200      5F7400
 4201              	.LASF79:
 4202 0717 70616E69 		.ascii	"panic_msg\000"
 4202      635F6D73 
 4202      6700
 4203              	.LASF111:
 4204 0721 63756D75 		.ascii	"cumulative\000"
 4204      6C617469 
 4204      766500
 4205              	.LASF106:
 4206 072c 6F666673 		.ascii	"offset\000"
 4206      657400
 4207              	.LASF152:
 4208 0733 73657276 		.ascii	"server_addr\000"
 4208      65725F61 
 4208      64647200 
 4209              	.LASF169:
 4210 073f 6C776970 		.ascii	"lwip_close\000"
 4210      5F636C6F 
 4210      736500
 4211              	.LASF92:
 4212 074a 636F6E74 		.ascii	"context\000"
 4212      65787400 
 4213              	.LASF47:
 4214 0752 705F6D73 		.ascii	"p_msg\000"
 4214      6700
 4215              	.LASF151:
 4216 0758 62696E64 		.ascii	"bind_ip\000"
 4216      5F697000 
 4217              	.LASF22:
 4218 0760 7274636E 		.ascii	"rtcnt_t\000"
 4218      745F7400 
 4219              	.LASF158:
 4220 0768 6E65745F 		.ascii	"net_set_block\000"
 4220      7365745F 
 4220      626C6F63 
ARM GAS  C:\Users\jo\AppData\Local\Temp\ccbcFezZ.s 			page 81


 4220      6B00
 4221              	.LASF73:
 4222 0776 76745F70 		.ascii	"vt_par\000"
 4222      617200
 4223              	.LASF129:
 4224 077d 7531365F 		.ascii	"u16_t\000"
 4224      7400
 4225              	.LASF56:
 4226 0783 74687265 		.ascii	"threads_queue_t\000"
 4226      6164735F 
 4226      71756575 
 4226      655F7400 
 4227              	.LASF44:
 4228 0793 705F7265 		.ascii	"p_refs\000"
 4228      667300
 4229              	.LASF80:
 4230 079a 6973725F 		.ascii	"isr_cnt\000"
 4230      636E7400 
 4231              	.LASF186:
 4232 07a2 6C776970 		.ascii	"lwip_shutdown\000"
 4232      5F736875 
 4232      74646F77 
 4232      6E00
 4233              	.LASF139:
 4234 07b0 736F636B 		.ascii	"sockaddr\000"
 4234      61646472 
 4234      00
 4235              	.LASF182:
 4236 07b9 6E65745F 		.ascii	"net_is_blocking\000"
 4236      69735F62 
 4236      6C6F636B 
 4236      696E6700 
 4237              	.LASF133:
 4238 07c9 736F636B 		.ascii	"sockaddr_in\000"
 4238      61646472 
 4238      5F696E00 
 4239              	.LASF155:
 4240 07d5 636C6965 		.ascii	"client_fd\000"
 4240      6E745F66 
 4240      6400
 4241              	.LASF17:
 4242 07df 75696E74 		.ascii	"uint8_t\000"
 4242      385F7400 
 4243              	.LASF163:
 4244 07e7 6E65745F 		.ascii	"net_usleep\000"
 4244      75736C65 
 4244      657000
 4245              	.LASF120:
 4246 07f2 77746F62 		.ascii	"wtobjp\000"
 4246      6A7000
 4247              	.LASF40:
 4248 07f9 705F6E61 		.ascii	"p_name\000"
 4248      6D6500
 4249              	.LASF142:
 4250 0800 73615F64 		.ascii	"sa_data\000"
 4250      61746100 
 4251              	.LASF53:
ARM GAS  C:\Users\jo\AppData\Local\Temp\ccbcFezZ.s 			page 82


 4252 0808 74687265 		.ascii	"threads_list_t\000"
 4252      6164735F 
 4252      6C697374 
 4252      5F7400
 4253              	.LASF82:
 4254 0817 74726163 		.ascii	"trace_buffer\000"
 4254      655F6275 
 4254      66666572 
 4254      00
 4255              	.LASF178:
 4256 0824 6C776970 		.ascii	"lwip_write\000"
 4256      5F777269 
 4256      746500
 4257              	.LASF78:
 4258 082f 63685F73 		.ascii	"ch_system_debug\000"
 4258      79737465 
 4258      6D5F6465 
 4258      62756700 
 4259              	.LASF166:
 4260 083f 69706164 		.ascii	"ipaddr_addr\000"
 4260      64725F61 
 4260      64647200 
 4261              	.LASF115:
 4262 084b 6D5F6372 		.ascii	"m_crit_thd\000"
 4262      69745F74 
 4262      686400
 4263              	.LASF124:
 4264 0856 6D5F6F77 		.ascii	"m_owner\000"
 4264      6E657200 
 4265              	.LASF99:
 4266 085e 73655F77 		.ascii	"se_wtobjp\000"
 4266      746F626A 
 4266      7000
 4267              	.LASF37:
 4268 0868 705F6374 		.ascii	"p_ctx\000"
 4268      7800
 4269              	.LASF72:
 4270 086e 76745F66 		.ascii	"vt_func\000"
 4270      756E6300 
 4271              	.LASF149:
 4272 0876 6E65745F 		.ascii	"net_connect\000"
 4272      636F6E6E 
 4272      65637400 
 4273              	.LASF131:
 4274 0882 696E5F61 		.ascii	"in_addr\000"
 4274      64647200 
 4275              		.ident	"GCC: (GNU Tools for ARM Embedded Processors) 4.9.3 20141119 (release) [ARM/embedded-4_9-br
ARM GAS  C:\Users\jo\AppData\Local\Temp\ccbcFezZ.s 			page 83


DEFINED SYMBOLS
                            *ABS*:00000000 net.c
C:\Users\jo\AppData\Local\Temp\ccbcFezZ.s:19     .text.net_connect:00000000 $t
C:\Users\jo\AppData\Local\Temp\ccbcFezZ.s:25     .text.net_connect:00000000 net_connect
C:\Users\jo\AppData\Local\Temp\ccbcFezZ.s:127    .text.net_connect:00000070 $d
C:\Users\jo\AppData\Local\Temp\ccbcFezZ.s:132    .text.net_bind:00000000 $t
C:\Users\jo\AppData\Local\Temp\ccbcFezZ.s:138    .text.net_bind:00000000 net_bind
C:\Users\jo\AppData\Local\Temp\ccbcFezZ.s:308    .text.net_bind:000000dc $d
C:\Users\jo\AppData\Local\Temp\ccbcFezZ.s:313    .text.net_accept:00000000 $t
C:\Users\jo\AppData\Local\Temp\ccbcFezZ.s:319    .text.net_accept:00000000 net_accept
C:\Users\jo\AppData\Local\Temp\ccbcFezZ.s:404    .text.net_set_block:00000000 $t
C:\Users\jo\AppData\Local\Temp\ccbcFezZ.s:410    .text.net_set_block:00000000 net_set_block
C:\Users\jo\AppData\Local\Temp\ccbcFezZ.s:438    .text.net_set_block:00000018 $d
C:\Users\jo\AppData\Local\Temp\ccbcFezZ.s:443    .text.net_set_nonblock:00000000 $t
C:\Users\jo\AppData\Local\Temp\ccbcFezZ.s:449    .text.net_set_nonblock:00000000 net_set_nonblock
C:\Users\jo\AppData\Local\Temp\ccbcFezZ.s:477    .text.net_set_nonblock:00000018 $d
C:\Users\jo\AppData\Local\Temp\ccbcFezZ.s:482    .text.net_usleep:00000000 $t
C:\Users\jo\AppData\Local\Temp\ccbcFezZ.s:488    .text.net_usleep:00000000 net_usleep
C:\Users\jo\AppData\Local\Temp\ccbcFezZ.s:529    .text.net_recv:00000000 $t
C:\Users\jo\AppData\Local\Temp\ccbcFezZ.s:535    .text.net_recv:00000000 net_recv
C:\Users\jo\AppData\Local\Temp\ccbcFezZ.s:601    .text.net_send:00000000 $t
C:\Users\jo\AppData\Local\Temp\ccbcFezZ.s:607    .text.net_send:00000000 net_send
C:\Users\jo\AppData\Local\Temp\ccbcFezZ.s:673    .text.net_close:00000000 $t
C:\Users\jo\AppData\Local\Temp\ccbcFezZ.s:679    .text.net_close:00000000 net_close
C:\Users\jo\AppData\Local\Temp\ccbcFezZ.s:712    .rodata.str1.4:00000000 $d
                     .debug_frame:00000010 $d
C:\Users\jo\AppData\Local\Temp\ccbcFezZ.s:131    .text.net_connect:00000074 $t
C:\Users\jo\AppData\Local\Temp\ccbcFezZ.s:442    .text.net_set_block:0000001c $t
C:\Users\jo\AppData\Local\Temp\ccbcFezZ.s:481    .text.net_set_nonblock:0000001c $t

UNDEFINED SYMBOLS
puts
ipaddr_addr
lwip_socket
lwip_connect
lwip_close
lwip_setsockopt
sscanf
lwip_bind
lwip_listen
lwip_accept
__errno
lwip_ioctl
lwip_select
lwip_read
lwip_write
lwip_shutdown
