ARM GAS  C:\Users\jo\AppData\Local\Temp\ccbcFezZ.s 			page 1


   1              		.syntax unified
   2              		.cpu cortex-m4
   3              		.fpu softvfp
   4              		.eabi_attribute 20, 1
   5              		.eabi_attribute 21, 1
   6              		.eabi_attribute 23, 3
   7              		.eabi_attribute 24, 1
   8              		.eabi_attribute 25, 1
   9              		.eabi_attribute 26, 1
  10              		.eabi_attribute 30, 2
  11              		.eabi_attribute 34, 1
  12              		.eabi_attribute 18, 4
  13              		.thumb
  14              		.file	"net.c"
  15              		.text
  16              	.Ltext0:
  17              		.cfi_sections	.debug_frame
  18              		.section	.text.net_connect,"ax",%progbits
  19              		.align	2
  20              		.p2align 4,,15
  21              		.global	net_connect
  22              		.thumb
  23              		.thumb_func
  24              		.type	net_connect, %function
  25              	net_connect:
  26              	.LFB256:
  27              		.file 1 "../../../os/ext/PolarSSL/library/net.c"
  28              		.loc 1 123 0
  29              		.cfi_startproc
  30              		@ args = 0, pretend = 0, frame = 16
  31              		@ frame_needed = 0, uses_anonymous_args = 0
  32              	.LVL0:
  33 0000 2DE9F041 		push	{r4, r5, r6, r7, r8, lr}
  34              		.cfi_def_cfa_offset 24
  35              		.cfi_offset 4, -24
  36              		.cfi_offset 5, -20
  37              		.cfi_offset 6, -16
  38              		.cfi_offset 7, -12
  39              		.cfi_offset 8, -8
  40              		.cfi_offset 14, -4
  41 0004 8846     		mov	r8, r1
  42 0006 84B0     		sub	sp, sp, #16
  43              		.cfi_def_cfa_offset 40
  44              		.loc 1 123 0
  45 0008 0746     		mov	r7, r0
  46              		.loc 1 156 0
  47 000a 1948     		ldr	r0, .L8
  48              	.LVL1:
  49              		.loc 1 157 0
  50 000c 0024     		movs	r4, #0
  51              		.loc 1 123 0
  52 000e 1546     		mov	r5, r2
  53              		.loc 1 158 0
  54 0010 1026     		movs	r6, #16
  55              		.loc 1 156 0
  56 0012 FFF7FEFF 		bl	puts
  57              	.LVL2:
ARM GAS  C:\Users\jo\AppData\Local\Temp\ccbcFezZ.s 			page 2


  58              		.loc 1 159 0
  59 0016 4046     		mov	r0, r8
  60              		.loc 1 157 0
  61 0018 0094     		str	r4, [sp]
  62 001a 0194     		str	r4, [sp, #4]
  63 001c 0294     		str	r4, [sp, #8]
  64 001e 0394     		str	r4, [sp, #12]
  65              		.loc 1 158 0
  66 0020 8DF80060 		strb	r6, [sp]
  67              		.loc 1 159 0
  68 0024 FFF7FEFF 		bl	ipaddr_addr
  69              	.LVL3:
  70              		.loc 1 163 0
  71 0028 2246     		mov	r2, r4
  72              		.loc 1 159 0
  73 002a 0190     		str	r0, [sp, #4]
  74              		.loc 1 163 0
  75 002c 0121     		movs	r1, #1
  76 002e 0220     		movs	r0, #2
  77 0030 FFF7FEFF 		bl	lwip_socket
  78              	.LVL4:
  79 0034 A042     		cmp	r0, r4
  80 0036 3860     		str	r0, [r7]
  81 0038 10DB     		blt	.L3
  82              		.loc 1 166 0
  83 003a 0223     		movs	r3, #2
  84 003c 6DBA     		rev16	r5, r5
  85              	.LVL5:
  86              		.loc 1 169 0
  87 003e 6946     		mov	r1, sp
  88 0040 3246     		mov	r2, r6
  89              		.loc 1 167 0
  90 0042 ADF80250 		strh	r5, [sp, #2]	@ movhi
  91              		.loc 1 166 0
  92 0046 8DF80130 		strb	r3, [sp, #1]
  93              		.loc 1 169 0
  94 004a FFF7FEFF 		bl	lwip_connect
  95              	.LVL6:
  96 004e A042     		cmp	r0, r4
  97              		.loc 1 176 0
  98 0050 A8BF     		it	ge
  99 0052 2046     		movge	r0, r4
 100              		.loc 1 169 0
 101 0054 05DB     		blt	.L7
 102              	.L2:
 103              		.loc 1 177 0
 104 0056 04B0     		add	sp, sp, #16
 105              		.cfi_remember_state
 106              		.cfi_def_cfa_offset 24
 107              		@ sp needed
 108 0058 BDE8F081 		pop	{r4, r5, r6, r7, r8, pc}
 109              	.LVL7:
 110              	.L3:
 111              		.cfi_restore_state
 112              		.loc 1 164 0
 113 005c 6FF04100 		mvn	r0, #65
 114 0060 F9E7     		b	.L2
ARM GAS  C:\Users\jo\AppData\Local\Temp\ccbcFezZ.s 			page 3


 115              	.LVL8:
 116              	.L7:
 117              		.loc 1 172 0
 118 0062 3868     		ldr	r0, [r7]
 119 0064 FFF7FEFF 		bl	lwip_close
 120              	.LVL9:
 121              		.loc 1 173 0
 122 0068 6FF04300 		mvn	r0, #67
 123 006c F3E7     		b	.L2
 124              	.L9:
 125 006e 00BF     		.align	2
 126              	.L8:
 127 0070 00000000 		.word	.LC0
 128              		.cfi_endproc
 129              	.LFE256:
 130              		.size	net_connect, .-net_connect
 131 0074 AFF30080 		.section	.text.net_bind,"ax",%progbits
 131      AFF30080 
 131      AFF30080 
 132              		.align	2
 133              		.p2align 4,,15
 134              		.global	net_bind
 135              		.thumb
 136              		.thumb_func
 137              		.type	net_bind, %function
 138              	net_bind:
 139              	.LFB257:
 140              		.loc 1 183 0
 141              		.cfi_startproc
 142              		@ args = 0, pretend = 0, frame = 40
 143              		@ frame_needed = 0, uses_anonymous_args = 0
 144              	.LVL10:
 145 0000 2DE9F047 		push	{r4, r5, r6, r7, r8, r9, r10, lr}
 146              		.cfi_def_cfa_offset 32
 147              		.cfi_offset 4, -32
 148              		.cfi_offset 5, -28
 149              		.cfi_offset 6, -24
 150              		.cfi_offset 7, -20
 151              		.cfi_offset 8, -16
 152              		.cfi_offset 9, -12
 153              		.cfi_offset 10, -8
 154              		.cfi_offset 14, -4
 155 0004 0546     		mov	r5, r0
 156 0006 8CB0     		sub	sp, sp, #48
 157              		.cfi_def_cfa_offset 80
 158              		.loc 1 183 0
 159 0008 8946     		mov	r9, r1
 160 000a 1646     		mov	r6, r2
 161              		.loc 1 203 0
 162 000c 0220     		movs	r0, #2
 163              	.LVL11:
 164 000e 0121     		movs	r1, #1
 165              	.LVL12:
 166 0010 0622     		movs	r2, #6
 167              	.LVL13:
 168 0012 FFF7FEFF 		bl	lwip_socket
 169              	.LVL14:
ARM GAS  C:\Users\jo\AppData\Local\Temp\ccbcFezZ.s 			page 4


 170 0016 0028     		cmp	r0, #0
 171 0018 2860     		str	r0, [r5]
 172 001a 4ADB     		blt	.L19
 173              		.loc 1 206 0
 174 001c 0CAB     		add	r3, sp, #48
 175              		.loc 1 207 0
 176 001e 0427     		movs	r7, #4
 177              		.loc 1 206 0
 178 0020 4FF00108 		mov	r8, #1
 179 0024 43F8248D 		str	r8, [r3, #-36]!
 180              		.loc 1 207 0
 181 0028 3A46     		mov	r2, r7
 182 002a 0097     		str	r7, [sp]
 183 002c 40F6FF71 		movw	r1, #4095
 184              		.loc 1 210 0
 185 0030 0024     		movs	r4, #0
 186 0032 76BA     		rev16	r6, r6
 187              	.LVL15:
 188              		.loc 1 211 0
 189 0034 4FF0020A 		mov	r10, #2
 190              		.loc 1 207 0
 191 0038 FFF7FEFF 		bl	lwip_setsockopt
 192              	.LVL16:
 193              		.loc 1 212 0
 194 003c ADF82260 		strh	r6, [sp, #34]	@ movhi
 195              		.loc 1 210 0
 196 0040 0994     		str	r4, [sp, #36]
 197              		.loc 1 211 0
 198 0042 8DF821A0 		strb	r10, [sp, #33]
 199              		.loc 1 214 0
 200 0046 B9F1000F 		cmp	r9, #0
 201 004a 23D0     		beq	.L13
 202              		.loc 1 216 0
 203 004c 07AA     		add	r2, sp, #28
 204              		.loc 1 217 0
 205 004e 06AB     		add	r3, sp, #24
 206 0050 0192     		str	r2, [sp, #4]
 207 0052 0093     		str	r3, [sp]
 208 0054 2149     		ldr	r1, .L34
 209              		.loc 1 216 0
 210 0056 0494     		str	r4, [sp, #16]
 211              		.loc 1 217 0
 212 0058 4846     		mov	r0, r9
 213 005a 04AA     		add	r2, sp, #16
 214 005c 05AB     		add	r3, sp, #20
 215              		.loc 1 216 0
 216 005e 0594     		str	r4, [sp, #20]
 217 0060 0694     		str	r4, [sp, #24]
 218 0062 0794     		str	r4, [sp, #28]
 219              		.loc 1 217 0
 220 0064 FFF7FEFF 		bl	sscanf
 221              	.LVL17:
 222              		.loc 1 220 0
 223 0068 0499     		ldr	r1, [sp, #16]
 224              		.loc 1 219 0
 225 006a 0394     		str	r4, [sp, #12]
 226              		.loc 1 220 0
ARM GAS  C:\Users\jo\AppData\Local\Temp\ccbcFezZ.s 			page 5


 227 006c FF29     		cmp	r1, #255
 228 006e 11D8     		bhi	.L13
 229 0070 059A     		ldr	r2, [sp, #20]
 230 0072 FF2A     		cmp	r2, #255
 231 0074 20D8     		bhi	.L20
 232 0076 0698     		ldr	r0, [sp, #24]
 233 0078 FF28     		cmp	r0, #255
 234 007a 20D8     		bhi	.L21
 235 007c 079B     		ldr	r3, [sp, #28]
 236 007e FF2B     		cmp	r3, #255
 237 0080 1FD8     		bhi	.L31
 238              		.loc 1 224 0 discriminator 2
 239 0082 1204     		lsls	r2, r2, #16
 240 0084 42EA0162 		orr	r2, r2, r1, lsl #24
 241 0088 1343     		orrs	r3, r3, r2
 242 008a 43EA0023 		orr	r3, r3, r0, lsl #8
 243 008e 1BBA     		rev	r3, r3
 244 0090 0993     		str	r3, [sp, #36]
 245 0092 0397     		str	r7, [sp, #12]
 246              	.L13:
 247              		.loc 1 231 0
 248 0094 2868     		ldr	r0, [r5]
 249 0096 08A9     		add	r1, sp, #32
 250 0098 1022     		movs	r2, #16
 251 009a FFF7FEFF 		bl	lwip_bind
 252              	.LVL18:
 253 009e 0028     		cmp	r0, #0
 254              		.loc 1 234 0
 255 00a0 2868     		ldr	r0, [r5]
 256              		.loc 1 231 0
 257 00a2 16DB     		blt	.L32
 258              		.loc 1 238 0
 259 00a4 0A21     		movs	r1, #10
 260 00a6 FFF7FEFF 		bl	lwip_listen
 261              	.LVL19:
 262 00aa 60B9     		cbnz	r0, .L33
 263              	.L24:
 264              		.loc 1 245 0
 265 00ac 0CB0     		add	sp, sp, #48
 266              		.cfi_remember_state
 267              		.cfi_def_cfa_offset 32
 268              		@ sp needed
 269 00ae BDE8F087 		pop	{r4, r5, r6, r7, r8, r9, r10, pc}
 270              	.LVL20:
 271              	.L19:
 272              		.cfi_restore_state
 273              		.loc 1 204 0
 274 00b2 6FF04100 		mvn	r0, #65
 275 00b6 F9E7     		b	.L24
 276              	.LVL21:
 277              	.L20:
 278              		.loc 1 220 0
 279 00b8 4346     		mov	r3, r8
 280              	.L17:
 281 00ba 0393     		str	r3, [sp, #12]
 282 00bc EAE7     		b	.L13
 283              	.L21:
ARM GAS  C:\Users\jo\AppData\Local\Temp\ccbcFezZ.s 			page 6


 284              		.loc 1 219 0
 285 00be 5346     		mov	r3, r10
 286 00c0 FBE7     		b	.L17
 287              	.L31:
 288 00c2 0323     		movs	r3, #3
 289 00c4 F9E7     		b	.L17
 290              	.L33:
 291              		.loc 1 240 0
 292 00c6 2868     		ldr	r0, [r5]
 293 00c8 FFF7FEFF 		bl	lwip_close
 294              	.LVL22:
 295              		.loc 1 241 0
 296 00cc 6FF04700 		mvn	r0, #71
 297 00d0 ECE7     		b	.L24
 298              	.L32:
 299              		.loc 1 234 0
 300 00d2 FFF7FEFF 		bl	lwip_close
 301              	.LVL23:
 302              		.loc 1 235 0
 303 00d6 6FF04500 		mvn	r0, #69
 304 00da E7E7     		b	.L24
 305              	.L35:
 306              		.align	2
 307              	.L34:
 308 00dc 14000000 		.word	.LC1
 309              		.cfi_endproc
 310              	.LFE257:
 311              		.size	net_bind, .-net_bind
 312              		.section	.text.net_accept,"ax",%progbits
 313              		.align	2
 314              		.p2align 4,,15
 315              		.global	net_accept
 316              		.thumb
 317              		.thumb_func
 318              		.type	net_accept, %function
 319              	net_accept:
 320              	.LFB259:
 321              		.loc 1 273 0
 322              		.cfi_startproc
 323              		@ args = 0, pretend = 0, frame = 24
 324              		@ frame_needed = 0, uses_anonymous_args = 0
 325              	.LVL24:
 326 0000 30B5     		push	{r4, r5, lr}
 327              		.cfi_def_cfa_offset 12
 328              		.cfi_offset 4, -12
 329              		.cfi_offset 5, -8
 330              		.cfi_offset 14, -4
 331 0002 87B0     		sub	sp, sp, #28
 332              		.cfi_def_cfa_offset 40
 333              		.loc 1 273 0
 334 0004 0D46     		mov	r5, r1
 335              		.loc 1 280 0
 336 0006 1023     		movs	r3, #16
 337              		.loc 1 273 0
 338 0008 1446     		mov	r4, r2
 339              		.loc 1 283 0
 340 000a 02A9     		add	r1, sp, #8
ARM GAS  C:\Users\jo\AppData\Local\Temp\ccbcFezZ.s 			page 7


 341              	.LVL25:
 342 000c 01AA     		add	r2, sp, #4
 343              	.LVL26:
 344              		.loc 1 280 0
 345 000e 0193     		str	r3, [sp, #4]
 346              		.loc 1 283 0
 347 0010 FFF7FEFF 		bl	lwip_accept
 348              	.LVL27:
 349              		.loc 1 286 0
 350 0014 0028     		cmp	r0, #0
 351              		.loc 1 283 0
 352 0016 2860     		str	r0, [r5]
 353              		.loc 1 286 0
 354 0018 08DB     		blt	.L43
 355              		.loc 1 294 0
 356 001a 24B1     		cbz	r4, .L41
 357              		.loc 1 295 0
 358 001c 0398     		ldr	r0, [sp, #12]	@ unaligned
 359 001e 2060     		str	r0, [r4]	@ unaligned
 360              		.loc 1 298 0
 361 0020 0020     		movs	r0, #0
 362              		.loc 1 299 0
 363 0022 07B0     		add	sp, sp, #28
 364              		.cfi_remember_state
 365              		.cfi_def_cfa_offset 12
 366              		@ sp needed
 367 0024 30BD     		pop	{r4, r5, pc}
 368              	.LVL28:
 369              	.L41:
 370              		.cfi_restore_state
 371              		.loc 1 298 0
 372 0026 2046     		mov	r0, r4
 373              		.loc 1 299 0
 374 0028 07B0     		add	sp, sp, #28
 375              		.cfi_remember_state
 376              		.cfi_def_cfa_offset 12
 377              		@ sp needed
 378 002a 30BD     		pop	{r4, r5, pc}
 379              	.LVL29:
 380              	.L43:
 381              		.cfi_restore_state
 382              	.LBB8:
 383              	.LBB9:
 384              		.loc 1 255 0
 385 002c FFF7FEFF 		bl	__errno
 386              	.LVL30:
 387 0030 0368     		ldr	r3, [r0]
 388 0032 0B2B     		cmp	r3, #11
 389              	.LBE9:
 390              	.LBE8:
 391              		.loc 1 291 0
 392 0034 0CBF     		ite	eq
 393 0036 6FF05100 		mvneq	r0, #81
 394 003a 6FF04900 		mvnne	r0, #73
 395              		.loc 1 299 0
 396 003e 07B0     		add	sp, sp, #28
 397              		.cfi_def_cfa_offset 12
ARM GAS  C:\Users\jo\AppData\Local\Temp\ccbcFezZ.s 			page 8


 398              		@ sp needed
 399 0040 30BD     		pop	{r4, r5, pc}
 400              		.cfi_endproc
 401              	.LFE259:
 402              		.size	net_accept, .-net_accept
 403 0042 00BFAFF3 		.section	.text.net_set_block,"ax",%progbits
 403      0080AFF3 
 403      0080AFF3 
 403      0080
 404              		.align	2
 405              		.p2align 4,,15
 406              		.global	net_set_block
 407              		.thumb
 408              		.thumb_func
 409              		.type	net_set_block, %function
 410              	net_set_block:
 411              	.LFB260:
 412              		.loc 1 305 0
 413              		.cfi_startproc
 414              		@ args = 0, pretend = 0, frame = 8
 415              		@ frame_needed = 0, uses_anonymous_args = 0
 416              	.LVL31:
 417 0000 00B5     		push	{lr}
 418              		.cfi_def_cfa_offset 4
 419              		.cfi_offset 14, -4
 420 0002 83B0     		sub	sp, sp, #12
 421              		.cfi_def_cfa_offset 16
 422              		.loc 1 307 0
 423 0004 02AA     		add	r2, sp, #8
 424 0006 0023     		movs	r3, #0
 425 0008 42F8043D 		str	r3, [r2, #-4]!
 426              		.loc 1 308 0
 427 000c 0249     		ldr	r1, .L46
 428 000e FFF7FEFF 		bl	lwip_ioctl
 429              	.LVL32:
 430              		.loc 1 312 0
 431 0012 03B0     		add	sp, sp, #12
 432              		.cfi_def_cfa_offset 4
 433              		@ sp needed
 434 0014 5DF804FB 		ldr	pc, [sp], #4
 435              	.L47:
 436              		.align	2
 437              	.L46:
 438 0018 7E660480 		.word	-2147195266
 439              		.cfi_endproc
 440              	.LFE260:
 441              		.size	net_set_block, .-net_set_block
 442 001c AFF30080 		.section	.text.net_set_nonblock,"ax",%progbits
 443              		.align	2
 444              		.p2align 4,,15
 445              		.global	net_set_nonblock
 446              		.thumb
 447              		.thumb_func
 448              		.type	net_set_nonblock, %function
 449              	net_set_nonblock:
 450              	.LFB261:
 451              		.loc 1 315 0
ARM GAS  C:\Users\jo\AppData\Local\Temp\ccbcFezZ.s 			page 9


 452              		.cfi_startproc
 453              		@ args = 0, pretend = 0, frame = 8
 454              		@ frame_needed = 0, uses_anonymous_args = 0
 455              	.LVL33:
 456 0000 00B5     		push	{lr}
 457              		.cfi_def_cfa_offset 4
 458              		.cfi_offset 14, -4
 459 0002 83B0     		sub	sp, sp, #12
 460              		.cfi_def_cfa_offset 16
 461              		.loc 1 317 0
 462 0004 02AA     		add	r2, sp, #8
 463 0006 0123     		movs	r3, #1
 464 0008 42F8043D 		str	r3, [r2, #-4]!
 465              		.loc 1 318 0
 466 000c 0249     		ldr	r1, .L50
 467 000e FFF7FEFF 		bl	lwip_ioctl
 468              	.LVL34:
 469              		.loc 1 322 0
 470 0012 03B0     		add	sp, sp, #12
 471              		.cfi_def_cfa_offset 4
 472              		@ sp needed
 473 0014 5DF804FB 		ldr	pc, [sp], #4
 474              	.L51:
 475              		.align	2
 476              	.L50:
 477 0018 7E660480 		.word	-2147195266
 478              		.cfi_endproc
 479              	.LFE261:
 480              		.size	net_set_nonblock, .-net_set_nonblock
 481 001c AFF30080 		.section	.text.net_usleep,"ax",%progbits
 482              		.align	2
 483              		.p2align 4,,15
 484              		.global	net_usleep
 485              		.thumb
 486              		.thumb_func
 487              		.type	net_usleep, %function
 488              	net_usleep:
 489              	.LFB262:
 490              		.loc 1 328 0
 491              		.cfi_startproc
 492              		@ args = 0, pretend = 0, frame = 8
 493              		@ frame_needed = 0, uses_anonymous_args = 0
 494              	.LVL35:
 495 0000 30B5     		push	{r4, r5, lr}
 496              		.cfi_def_cfa_offset 12
 497              		.cfi_offset 4, -12
 498              		.cfi_offset 5, -8
 499              		.cfi_offset 14, -4
 500 0002 85B0     		sub	sp, sp, #20
 501              		.cfi_def_cfa_offset 32
 502              		.loc 1 330 0
 503 0004 0024     		movs	r4, #0
 504              		.loc 1 332 0
 505 0006 02AD     		add	r5, sp, #8
 506              		.loc 1 331 0
 507 0008 0390     		str	r0, [sp, #12]
 508              		.loc 1 332 0
ARM GAS  C:\Users\jo\AppData\Local\Temp\ccbcFezZ.s 			page 10


 509 000a 2146     		mov	r1, r4
 510 000c 2046     		mov	r0, r4
 511              	.LVL36:
 512 000e 2246     		mov	r2, r4
 513 0010 2346     		mov	r3, r4
 514 0012 0095     		str	r5, [sp]
 515              		.loc 1 330 0
 516 0014 0294     		str	r4, [sp, #8]
 517              		.loc 1 332 0
 518 0016 FFF7FEFF 		bl	lwip_select
 519              	.LVL37:
 520              		.loc 1 333 0
 521 001a 05B0     		add	sp, sp, #20
 522              		.cfi_def_cfa_offset 12
 523              		@ sp needed
 524 001c 30BD     		pop	{r4, r5, pc}
 525              		.cfi_endproc
 526              	.LFE262:
 527              		.size	net_usleep, .-net_usleep
 528 001e 00BF     		.section	.text.net_recv,"ax",%progbits
 529              		.align	2
 530              		.p2align 4,,15
 531              		.global	net_recv
 532              		.thumb
 533              		.thumb_func
 534              		.type	net_recv, %function
 535              	net_recv:
 536              	.LFB263:
 537              		.loc 1 339 0
 538              		.cfi_startproc
 539              		@ args = 0, pretend = 0, frame = 0
 540              		@ frame_needed = 0, uses_anonymous_args = 0
 541              	.LVL38:
 542 0000 08B5     		push	{r3, lr}
 543              		.cfi_def_cfa_offset 8
 544              		.cfi_offset 3, -8
 545              		.cfi_offset 14, -4
 546              		.loc 1 340 0
 547 0002 0068     		ldr	r0, [r0]
 548              	.LVL39:
 549 0004 FFF7FEFF 		bl	lwip_read
 550              	.LVL40:
 551              		.loc 1 342 0
 552 0008 0028     		cmp	r0, #0
 553 000a 00DB     		blt	.L71
 554              		.loc 1 362 0
 555 000c 08BD     		pop	{r3, pc}
 556              	.L71:
 557              	.LBB10:
 558              	.LBB11:
 559              		.loc 1 255 0
 560 000e FFF7FEFF 		bl	__errno
 561              	.LVL41:
 562 0012 0368     		ldr	r3, [r0]
 563 0014 0B2B     		cmp	r3, #11
 564 0016 02D1     		bne	.L72
 565              	.LBE11:
ARM GAS  C:\Users\jo\AppData\Local\Temp\ccbcFezZ.s 			page 11


 566              	.LBE10:
 567              		.loc 1 345 0
 568 0018 6FF05100 		mvn	r0, #81
 569 001c 08BD     		pop	{r3, pc}
 570              	.L72:
 571              		.loc 1 351 0
 572 001e FFF7FEFF 		bl	__errno
 573              	.LVL42:
 574 0022 0368     		ldr	r3, [r0]
 575 0024 202B     		cmp	r3, #32
 576 0026 0ED0     		beq	.L58
 577              		.loc 1 351 0 is_stmt 0 discriminator 1
 578 0028 FFF7FEFF 		bl	__errno
 579              	.LVL43:
 580 002c 0368     		ldr	r3, [r0]
 581 002e 682B     		cmp	r3, #104
 582 0030 09D0     		beq	.L58
 583              		.loc 1 354 0 is_stmt 1
 584 0032 FFF7FEFF 		bl	__errno
 585              	.LVL44:
 586 0036 0368     		ldr	r3, [r0]
 587              		.loc 1 358 0
 588 0038 042B     		cmp	r3, #4
 589 003a 0CBF     		ite	eq
 590 003c 6FF05100 		mvneq	r0, #81
 591 0040 6FF04B00 		mvnne	r0, #75
 592 0044 08BD     		pop	{r3, pc}
 593              	.L58:
 594              		.loc 1 352 0
 595 0046 6FF04F00 		mvn	r0, #79
 596 004a 08BD     		pop	{r3, pc}
 597              		.cfi_endproc
 598              	.LFE263:
 599              		.size	net_recv, .-net_recv
 600 004c AFF30080 		.section	.text.net_send,"ax",%progbits
 601              		.align	2
 602              		.p2align 4,,15
 603              		.global	net_send
 604              		.thumb
 605              		.thumb_func
 606              		.type	net_send, %function
 607              	net_send:
 608              	.LFB264:
 609              		.loc 1 368 0
 610              		.cfi_startproc
 611              		@ args = 0, pretend = 0, frame = 0
 612              		@ frame_needed = 0, uses_anonymous_args = 0
 613              	.LVL45:
 614 0000 08B5     		push	{r3, lr}
 615              		.cfi_def_cfa_offset 8
 616              		.cfi_offset 3, -8
 617              		.cfi_offset 14, -4
 618              		.loc 1 369 0
 619 0002 0068     		ldr	r0, [r0]
 620              	.LVL46:
 621 0004 FFF7FEFF 		bl	lwip_write
 622              	.LVL47:
ARM GAS  C:\Users\jo\AppData\Local\Temp\ccbcFezZ.s 			page 12


 623              		.loc 1 371 0
 624 0008 0028     		cmp	r0, #0
 625 000a 00DB     		blt	.L90
 626              		.loc 1 391 0
 627 000c 08BD     		pop	{r3, pc}
 628              	.L90:
 629              	.LBB12:
 630              	.LBB13:
 631              		.loc 1 255 0
 632 000e FFF7FEFF 		bl	__errno
 633              	.LVL48:
 634 0012 0368     		ldr	r3, [r0]
 635 0014 0B2B     		cmp	r3, #11
 636 0016 02D1     		bne	.L91
 637              	.LBE13:
 638              	.LBE12:
 639              		.loc 1 374 0
 640 0018 6FF05300 		mvn	r0, #83
 641 001c 08BD     		pop	{r3, pc}
 642              	.L91:
 643              		.loc 1 380 0
 644 001e FFF7FEFF 		bl	__errno
 645              	.LVL49:
 646 0022 0368     		ldr	r3, [r0]
 647 0024 202B     		cmp	r3, #32
 648 0026 0ED0     		beq	.L77
 649              		.loc 1 380 0 is_stmt 0 discriminator 1
 650 0028 FFF7FEFF 		bl	__errno
 651              	.LVL50:
 652 002c 0368     		ldr	r3, [r0]
 653 002e 682B     		cmp	r3, #104
 654 0030 09D0     		beq	.L77
 655              		.loc 1 383 0 is_stmt 1
 656 0032 FFF7FEFF 		bl	__errno
 657              	.LVL51:
 658 0036 0368     		ldr	r3, [r0]
 659              		.loc 1 387 0
 660 0038 042B     		cmp	r3, #4
 661 003a 0CBF     		ite	eq
 662 003c 6FF05300 		mvneq	r0, #83
 663 0040 6FF04D00 		mvnne	r0, #77
 664 0044 08BD     		pop	{r3, pc}
 665              	.L77:
 666              		.loc 1 381 0
 667 0046 6FF04F00 		mvn	r0, #79
 668 004a 08BD     		pop	{r3, pc}
 669              		.cfi_endproc
 670              	.LFE264:
 671              		.size	net_send, .-net_send
 672 004c AFF30080 		.section	.text.net_close,"ax",%progbits
 673              		.align	2
 674              		.p2align 4,,15
 675              		.global	net_close
 676              		.thumb
 677              		.thumb_func
 678              		.type	net_close, %function
 679              	net_close:
ARM GAS  C:\Users\jo\AppData\Local\Temp\ccbcFezZ.s 			page 13


 680              	.LFB265:
 681              		.loc 1 397 0
 682              		.cfi_startproc
 683              		@ args = 0, pretend = 0, frame = 0
 684              		@ frame_needed = 0, uses_anonymous_args = 0
 685              	.LVL52:
 686 0000 10B5     		push	{r4, lr}
 687              		.cfi_def_cfa_offset 8
 688              		.cfi_offset 4, -8
 689              		.cfi_offset 14, -4
 690              		.loc 1 398 0
 691 0002 0221     		movs	r1, #2
 692              		.loc 1 397 0
 693 0004 0446     		mov	r4, r0
 694              		.loc 1 398 0
 695 0006 FFF7FEFF 		bl	lwip_shutdown
 696              	.LVL53:
 697              		.loc 1 399 0
 698 000a 2046     		mov	r0, r4
 699              		.loc 1 400 0
 700 000c BDE81040 		pop	{r4, lr}
 701              		.cfi_restore 14
 702              		.cfi_restore 4
 703              		.cfi_def_cfa_offset 0
 704              	.LVL54:
 705              		.loc 1 399 0
 706 0010 FFF7FEBF 		b	lwip_close
 707              	.LVL55:
 708              		.cfi_endproc
 709              	.LFE265:
 710              		.size	net_close, .-net_close
 711 0014 AFF30080 		.section	.rodata.str1.4,"aMS",%progbits,1
 711      AFF30080 
 711      AFF30080 
 712              		.align	2
 713              	.LC0:
 714 0000 53534C3A 		.ascii	"SSL: no DNS mode\000"
 714      206E6F20 
 714      444E5320 
 714      6D6F6465 
 714      00
 715 0011 000000   		.space	3
 716              	.LC1:
 717 0014 25642E25 		.ascii	"%d.%d.%d.%d\000"
 717      642E2564 
 717      2E256400 
 718              		.text
 719              	.Letext0:
 720              		.file 2 "c:\\program files\\gnu tools arm embedded\\4.9 2014q4\\lib\\gcc\\arm-none-eabi\\4.9.3\\in
 721              		.file 3 "c:\\program files\\gnu tools arm embedded\\4.9 2014q4\\arm-none-eabi\\include\\machine\\_
 722              		.file 4 "c:\\program files\\gnu tools arm embedded\\4.9 2014q4\\arm-none-eabi\\include\\stdint.h"
 723              		.file 5 "../../../os/rt/ports/ARMCMx/compilers/GCC/chtypes.h"
 724              		.file 6 "../../../os/rt/include/chsystypes.h"
 725              		.file 7 "../../../os/rt/include/chschd.h"
 726              		.file 8 "../../../os/rt/ports/ARMCMx/chcore.h"
 727              		.file 9 "../../../os/rt/ports/ARMCMx/chcore_v7m.h"
 728              		.file 10 "c:\\program files\\gnu tools arm embedded\\4.9 2014q4\\arm-none-eabi\\include\\sys\\type
ARM GAS  C:\Users\jo\AppData\Local\Temp\ccbcFezZ.s 			page 14


 729              		.file 11 "../../../os/rt/include/chdebug.h"
 730              		.file 12 "../../../os/rt/include/chtm.h"
 731              		.file 13 "../../../os/rt/include/chstats.h"
 732              		.file 14 "../../../os/rt/include/chmtx.h"
 733              		.file 15 "../../../os/various/lwip_bindings/arch/cc.h"
 734              		.file 16 "../../../os/ext/lwip-1.4.1/src/include/ipv4/lwip/inet.h"
 735              		.file 17 "../../../os/ext/lwip-1.4.1/src/include/lwip/sockets.h"
 736              		.file 18 "../../../os/ext/lwip-1.4.1/src/include/ipv4/lwip/ip_addr.h"
 737              		.file 19 "c:\\program files\\gnu tools arm embedded\\4.9 2014q4\\arm-none-eabi\\include\\stdio.h"
 738              		.file 20 "../../../os/ext/CMSIS/include/core_cm4.h"
 739              		.file 21 "<built-in>"
 740              		.file 22 "c:\\program files\\gnu tools arm embedded\\4.9 2014q4\\arm-none-eabi\\include\\sys\\errn