ARM GAS  C:\Users\jo\AppData\Local\Temp\ccoMBxzN.s 			page 1


   1              		.syntax unified
   2              		.cpu cortex-m4
   3              		.fpu softvfp
   4              		.eabi_attribute 20, 1
   5              		.eabi_attribute 21, 1
   6              		.eabi_attribute 23, 3
   7              		.eabi_attribute 24, 1
   8              		.eabi_attribute 25, 1
   9              		.eabi_attribute 26, 1
  10              		.eabi_attribute 30, 2
  11              		.eabi_attribute 34, 1
  12              		.eabi_attribute 18, 4
  13              		.thumb
  14              		.file	"netbuf.c"
  15              		.text
  16              	.Ltext0:
  17              		.cfi_sections	.debug_frame
  18              		.section	.text.chprintf.constprop.0,"ax",%progbits
  19              		.align	2
  20              		.p2align 4,,15
  21              		.thumb
  22              		.thumb_func
  23              		.type	chprintf.constprop.0, %function
  24              	chprintf.constprop.0:
  25              	.LFB265:
  26              		.file 1 "../../../os/hal/lib/streams/chprintf.h"
  27              		.loc 1 69 0
  28              		.cfi_startproc
  29              		@ args = 4, pretend = 12, frame = 8
  30              		@ frame_needed = 0, uses_anonymous_args = 1
  31              	.LVL0:
  32 0000 0EB4     		push	{r1, r2, r3}
  33              		.cfi_def_cfa_offset 12
  34              		.cfi_offset 1, -12
  35              		.cfi_offset 2, -8
  36              		.cfi_offset 3, -4
  37 0002 00B5     		push	{lr}
  38              		.cfi_def_cfa_offset 16
  39              		.cfi_offset 14, -16
  40 0004 82B0     		sub	sp, sp, #8
  41              		.cfi_def_cfa_offset 24
  42              		.loc 1 73 0
  43 0006 04AB     		add	r3, sp, #16
  44              		.loc 1 74 0
  45 0008 1A46     		mov	r2, r3
  46 000a 0549     		ldr	r1, .L3
  47 000c 0548     		ldr	r0, .L3+4
  48              	.LVL1:
  49              		.loc 1 73 0
  50 000e 0193     		str	r3, [sp, #4]
  51              		.loc 1 74 0
  52 0010 FFF7FEFF 		bl	chvprintf
  53              	.LVL2:
  54              		.loc 1 78 0
  55 0014 02B0     		add	sp, sp, #8
  56              		.cfi_def_cfa_offset 16
  57              		@ sp needed
ARM GAS  C:\Users\jo\AppData\Local\Temp\ccoMBxzN.s 			page 2


  58 0016 5DF804EB 		ldr	lr, [sp], #4
  59              		.cfi_restore 14
  60              		.cfi_def_cfa_offset 12
  61 001a 03B0     		add	sp, sp, #12
  62              		.cfi_restore 3
  63              		.cfi_restore 2
  64              		.cfi_restore 1
  65              		.cfi_def_cfa_offset 0
  66 001c 7047     		bx	lr
  67              	.L4:
  68 001e 00BF     		.align	2
  69              	.L3:
  70 0020 00000000 		.word	.LC0
  71 0024 00000000 		.word	itm_port
  72              		.cfi_endproc
  73              	.LFE265:
  74              		.size	chprintf.constprop.0, .-chprintf.constprop.0
  75 0028 AFF30080 		.section	.text.netbuf_new,"ax",%progbits
  75      AFF30080 
  76              		.align	2
  77              		.p2align 4,,15
  78              		.global	netbuf_new
  79              		.thumb
  80              		.thumb_func
  81              		.type	netbuf_new, %function
  82              	netbuf_new:
  83              	.LFB256:
  84              		.file 2 "../../../os/ext/lwip-1.4.1/src/api/netbuf.c"
  85              		.loc 2 57 0
  86              		.cfi_startproc
  87              		@ args = 0, pretend = 0, frame = 0
  88              		@ frame_needed = 0, uses_anonymous_args = 0
  89 0000 08B5     		push	{r3, lr}
  90              		.cfi_def_cfa_offset 8
  91              		.cfi_offset 3, -8
  92              		.cfi_offset 14, -4
  93              		.loc 2 60 0
  94 0002 054B     		ldr	r3, .L12
  95 0004 9889     		ldrh	r0, [r3, #12]
  96 0006 FFF7FEFF 		bl	malloc
  97              	.LVL3:
  98              		.loc 2 61 0
  99 000a 20B1     		cbz	r0, .L6
 100              		.loc 2 62 0
 101 000c 0023     		movs	r3, #0
 102 000e 0360     		str	r3, [r0]
 103              		.loc 2 63 0
 104 0010 4360     		str	r3, [r0, #4]
 105              		.loc 2 64 0
 106 0012 8360     		str	r3, [r0, #8]
 107              		.loc 2 65 0
 108 0014 8381     		strh	r3, [r0, #12]	@ movhi
 109              	.L6:
 110              		.loc 2 79 0
 111 0016 08BD     		pop	{r3, pc}
 112              	.L13:
 113              		.align	2
ARM GAS  C:\Users\jo\AppData\Local\Temp\ccoMBxzN.s 			page 3


 114              	.L12:
 115 0018 00000000 		.word	memp_sizes
 116              		.cfi_endproc
 117              	.LFE256:
 118              		.size	netbuf_new, .-netbuf_new
 119              		.section	.text.netbuf_delete,"ax",%progbits
 120              		.align	2
 121              		.p2align 4,,15
 122              		.global	netbuf_delete
 123              		.thumb
 124              		.thumb_func
 125              		.type	netbuf_delete, %function
 126              	netbuf_delete:
 127              	.LFB257:
 128              		.loc 2 88 0
 129              		.cfi_startproc
 130              		@ args = 0, pretend = 0, frame = 0
 131              		@ frame_needed = 0, uses_anonymous_args = 0
 132              	.LVL4:
 133              		.loc 2 89 0
 134 0000 50B1     		cbz	r0, .L21
 135              		.loc 2 88 0
 136 0002 10B5     		push	{r4, lr}
 137              		.cfi_def_cfa_offset 8
 138              		.cfi_offset 4, -8
 139              		.cfi_offset 14, -4
 140 0004 0446     		mov	r4, r0
 141              		.loc 2 90 0
 142 0006 0068     		ldr	r0, [r0]
 143              	.LVL5:
 144 0008 08B1     		cbz	r0, .L16
 145              		.loc 2 91 0
 146 000a FFF7FEFF 		bl	pbuf_free
 147              	.LVL6:
 148              	.L16:
 149              		.loc 2 94 0
 150 000e 2046     		mov	r0, r4
 151              		.loc 2 96 0
 152 0010 BDE81040 		pop	{r4, lr}
 153              		.cfi_restore 14
 154              		.cfi_restore 4
 155              		.cfi_def_cfa_offset 0
 156              	.LVL7:
 157              		.loc 2 94 0
 158 0014 FFF7FEBF 		b	free
 159              	.LVL8:
 160              	.L21:
 161 0018 7047     		bx	lr
 162              		.cfi_endproc
 163              	.LFE257:
 164              		.size	netbuf_delete, .-netbuf_delete
 165 001a 00BFAFF3 		.section	.text.netbuf_alloc,"ax",%progbits
 165      0080
 166              		.align	2
 167              		.p2align 4,,15
 168              		.global	netbuf_alloc
 169              		.thumb
ARM GAS  C:\Users\jo\AppData\Local\Temp\ccoMBxzN.s 			page 4


 170              		.thumb_func
 171              		.type	netbuf_alloc, %function
 172              	netbuf_alloc:
 173              	.LFB258:
 174              		.loc 2 108 0
 175              		.cfi_startproc
 176              		@ args = 0, pretend = 0, frame = 0
 177              		@ frame_needed = 0, uses_anonymous_args = 0
 178              	.LVL9:
 179 0000 30B5     		push	{r4, r5, lr}
 180              		.cfi_def_cfa_offset 12
 181              		.cfi_offset 4, -12
 182              		.cfi_offset 5, -8
 183              		.cfi_offset 14, -4
 184              		.loc 2 109 0
 185 0002 0446     		mov	r4, r0
 186              		.loc 2 108 0
 187 0004 83B0     		sub	sp, sp, #12
 188              		.cfi_def_cfa_offset 24
 189              		.loc 2 109 0
 190 0006 F8B1     		cbz	r0, .L32
 191              		.loc 2 112 0
 192 0008 0068     		ldr	r0, [r0]
 193              	.LVL10:
 194 000a 0D46     		mov	r5, r1
 195 000c 08B1     		cbz	r0, .L25
 196              		.loc 2 113 0
 197 000e FFF7FEFF 		bl	pbuf_free
 198              	.LVL11:
 199              	.L25:
 200              		.loc 2 115 0
 201 0012 0020     		movs	r0, #0
 202 0014 0246     		mov	r2, r0
 203 0016 2946     		mov	r1, r5
 204 0018 FFF7FEFF 		bl	pbuf_alloc
 205              	.LVL12:
 206 001c 2060     		str	r0, [r4]
 207              		.loc 2 116 0
 208 001e 20B1     		cbz	r0, .L24
 209              		.loc 2 119 0
 210 0020 4389     		ldrh	r3, [r0, #10]
 211 0022 AB42     		cmp	r3, r5
 212 0024 03D3     		bcc	.L33
 213              	.L26:
 214              		.loc 2 121 0
 215 0026 6060     		str	r0, [r4, #4]
 216              		.loc 2 122 0
 217 0028 4068     		ldr	r0, [r0, #4]
 218              	.L24:
 219              		.loc 2 123 0
 220 002a 03B0     		add	sp, sp, #12
 221              		.cfi_remember_state
 222              		.cfi_def_cfa_offset 12
 223              		@ sp needed
 224 002c 30BD     		pop	{r4, r5, pc}
 225              	.LVL13:
 226              	.L33:
ARM GAS  C:\Users\jo\AppData\Local\Temp\ccoMBxzN.s 			page 5


 227              		.cfi_restore_state
 228              		.loc 2 119 0 discriminator 1
 229 002e 0D4B     		ldr	r3, .L34
 230 0030 0093     		str	r3, [sp]
 231 0032 0D49     		ldr	r1, .L34+4
 232 0034 0D4A     		ldr	r2, .L34+8
 233 0036 0E48     		ldr	r0, .L34+12
 234 0038 7823     		movs	r3, #120
 235 003a FFF7FEFF 		bl	chprintf.constprop.0
 236              	.LVL14:
 237              	.LBB24:
 238              	.LBB25:
 239              		.file 3 "../../../os/hal/osal/rt/osal.h"
 240              		.loc 3 414 0 discriminator 1
 241 003e 0B48     		ldr	r0, .L34+8
 242 0040 FFF7FEFF 		bl	chSysHalt
 243              	.LVL15:
 244 0044 2068     		ldr	r0, [r4]
 245 0046 EEE7     		b	.L26
 246              	.LVL16:
 247              	.L32:
 248              	.LBE25:
 249              	.LBE24:
 250              		.loc 2 109 0 discriminator 1
 251 0048 064B     		ldr	r3, .L34
 252 004a 0093     		str	r3, [sp]
 253 004c 0649     		ldr	r1, .L34+4
 254              	.LVL17:
 255 004e 094A     		ldr	r2, .L34+16
 256 0050 0748     		ldr	r0, .L34+12
 257              	.LVL18:
 258 0052 6D23     		movs	r3, #109
 259 0054 FFF7FEFF 		bl	chprintf.constprop.0
 260              	.LVL19:
 261              	.LBB26:
 262              	.LBB27:
 263              		.loc 3 414 0 discriminator 1
 264 0058 0648     		ldr	r0, .L34+16
 265 005a FFF7FEFF 		bl	chSysHalt
 266              	.LVL20:
 267              	.LBE27:
 268              	.LBE26:
 269              		.loc 2 109 0 discriminator 1
 270 005e 2046     		mov	r0, r4
 271 0060 E3E7     		b	.L24
 272              	.L35:
 273 0062 00BF     		.align	2
 274              	.L34:
 275 0064 44000000 		.word	.LC2
 276 0068 00000000 		.word	.LC0
 277 006c 70000000 		.word	.LC3
 278 0070 00000000 		.word	itm_port
 279 0074 28000000 		.word	.LC1
 280              		.cfi_endproc
 281              	.LFE258:
 282              		.size	netbuf_alloc, .-netbuf_alloc
 283 0078 AFF30080 		.section	.text.netbuf_free,"ax",%progbits
ARM GAS  C:\Users\jo\AppData\Local\Temp\ccoMBxzN.s 			page 6


 283      AFF30080 
 284              		.align	2
 285              		.p2align 4,,15
 286              		.global	netbuf_free
 287              		.thumb
 288              		.thumb_func
 289              		.type	netbuf_free, %function
 290              	netbuf_free:
 291              	.LFB259:
 292              		.loc 2 132 0
 293              		.cfi_startproc
 294              		@ args = 0, pretend = 0, frame = 0
 295              		@ frame_needed = 0, uses_anonymous_args = 0
 296              	.LVL21:
 297 0000 10B5     		push	{r4, lr}
 298              		.cfi_def_cfa_offset 8
 299              		.cfi_offset 4, -8
 300              		.cfi_offset 14, -4
 301              		.loc 2 133 0
 302 0002 0446     		mov	r4, r0
 303              		.loc 2 132 0
 304 0004 82B0     		sub	sp, sp, #8
 305              		.cfi_def_cfa_offset 16
 306              		.loc 2 133 0
 307 0006 40B1     		cbz	r0, .L43
 308              		.loc 2 134 0
 309 0008 0068     		ldr	r0, [r0]
 310              	.LVL22:
 311 000a 08B1     		cbz	r0, .L38
 312              		.loc 2 135 0
 313 000c FFF7FEFF 		bl	pbuf_free
 314              	.LVL23:
 315              	.L38:
 316              		.loc 2 137 0
 317 0010 0023     		movs	r3, #0
 318 0012 6360     		str	r3, [r4, #4]
 319 0014 2360     		str	r3, [r4]
 320              		.loc 2 138 0
 321 0016 02B0     		add	sp, sp, #8
 322              		.cfi_remember_state
 323              		.cfi_def_cfa_offset 8
 324              		@ sp needed
 325 0018 10BD     		pop	{r4, pc}
 326              	.LVL24:
 327              	.L43:
 328              		.cfi_restore_state
 329              		.loc 2 133 0 discriminator 1
 330 001a 074B     		ldr	r3, .L44
 331 001c 0093     		str	r3, [sp]
 332 001e 0749     		ldr	r1, .L44+4
 333 0020 074A     		ldr	r2, .L44+8
 334 0022 0848     		ldr	r0, .L44+12
 335              	.LVL25:
 336 0024 8523     		movs	r3, #133
 337 0026 FFF7FEFF 		bl	chprintf.constprop.0
 338              	.LVL26:
 339              	.LBB28:
ARM GAS  C:\Users\jo\AppData\Local\Temp\ccoMBxzN.s 			page 7


 340              	.LBB29:
 341              		.loc 3 414 0 discriminator 1
 342 002a 0548     		ldr	r0, .L44+8
 343              	.LBE29:
 344              	.LBE28:
 345              		.loc 2 138 0 discriminator 1
 346 002c 02B0     		add	sp, sp, #8
 347              		.cfi_def_cfa_offset 8
 348              		@ sp needed
 349 002e BDE81040 		pop	{r4, lr}
 350              		.cfi_restore 14
 351              		.cfi_restore 4
 352              		.cfi_def_cfa_offset 0
 353              	.LVL27:
 354              	.LBB31:
 355              	.LBB30:
 356              		.loc 3 414 0 discriminator 1
 357 0032 FFF7FEBF 		b	chSysHalt
 358              	.LVL28:
 359              	.L45:
 360 0036 00BF     		.align	2
 361              	.L44:
 362 0038 44000000 		.word	.LC2
 363 003c 00000000 		.word	.LC0
 364 0040 94000000 		.word	.LC4
 365 0044 00000000 		.word	itm_port
 366              	.LBE30:
 367              	.LBE31:
 368              		.cfi_endproc
 369              	.LFE259:
 370              		.size	netbuf_free, .-netbuf_free
 371 0048 AFF30080 		.section	.text.netbuf_ref,"ax",%progbits
 371      AFF30080 
 372              		.align	2
 373              		.p2align 4,,15
 374              		.global	netbuf_ref
 375              		.thumb
 376              		.thumb_func
 377              		.type	netbuf_ref, %function
 378              	netbuf_ref:
 379              	.LFB260:
 380              		.loc 2 151 0
 381              		.cfi_startproc
 382              		@ args = 0, pretend = 0, frame = 0
 383              		@ frame_needed = 0, uses_anonymous_args = 0
 384              	.LVL29:
 385 0000 70B5     		push	{r4, r5, r6, lr}
 386              		.cfi_def_cfa_offset 16
 387              		.cfi_offset 4, -16
 388              		.cfi_offset 5, -12
 389              		.cfi_offset 6, -8
 390              		.cfi_offset 14, -4
 391              		.loc 2 152 0
 392 0002 0446     		mov	r4, r0
 393              		.loc 2 151 0
 394 0004 82B0     		sub	sp, sp, #8
 395              		.cfi_def_cfa_offset 24
ARM GAS  C:\Users\jo\AppData\Local\Temp\ccoMBxzN.s 			page 8


 396              		.loc 2 152 0
 397 0006 B8B1     		cbz	r0, .L55
 398              		.loc 2 153 0
 399 0008 0068     		ldr	r0, [r0]
 400              	.LVL30:
 401 000a 0E46     		mov	r6, r1
 402 000c 1546     		mov	r5, r2
 403 000e 08B1     		cbz	r0, .L49
 404              		.loc 2 154 0
 405 0010 FFF7FEFF 		bl	pbuf_free
 406              	.LVL31:
 407              	.L49:
 408              		.loc 2 156 0
 409 0014 0020     		movs	r0, #0
 410 0016 0146     		mov	r1, r0
 411 0018 0222     		movs	r2, #2
 412 001a FFF7FEFF 		bl	pbuf_alloc
 413              	.LVL32:
 414 001e 2060     		str	r0, [r4]
 415              		.loc 2 157 0
 416 0020 38B1     		cbz	r0, .L56
 417              		.loc 2 161 0
 418 0022 4660     		str	r6, [r0, #4]
 419              		.loc 2 162 0
 420 0024 0581     		strh	r5, [r0, #8]	@ movhi
 421 0026 4581     		strh	r5, [r0, #10]	@ movhi
 422              		.loc 2 164 0
 423 0028 0023     		movs	r3, #0
 424              		.loc 2 163 0
 425 002a 6060     		str	r0, [r4, #4]
 426              	.LVL33:
 427              	.L48:
 428              		.loc 2 165 0
 429 002c 58B2     		sxtb	r0, r3
 430 002e 02B0     		add	sp, sp, #8
 431              		.cfi_remember_state
 432              		.cfi_def_cfa_offset 16
 433              		@ sp needed
 434 0030 70BD     		pop	{r4, r5, r6, pc}
 435              	.LVL34:
 436              	.L56:
 437              		.cfi_restore_state
 438              		.loc 2 158 0
 439 0032 6060     		str	r0, [r4, #4]
 440              		.loc 2 159 0
 441 0034 FF23     		movs	r3, #255
 442 0036 F9E7     		b	.L48
 443              	.LVL35:
 444              	.L55:
 445              		.loc 2 152 0 discriminator 1
 446 0038 064B     		ldr	r3, .L57
 447 003a 0093     		str	r3, [sp]
 448 003c 0649     		ldr	r1, .L57+4
 449              	.LVL36:
 450 003e 074A     		ldr	r2, .L57+8
 451              	.LVL37:
 452 0040 0748     		ldr	r0, .L57+12
ARM GAS  C:\Users\jo\AppData\Local\Temp\ccoMBxzN.s 			page 9


 453              	.LVL38:
 454 0042 9823     		movs	r3, #152
 455 0044 FFF7FEFF 		bl	chprintf.constprop.0
 456              	.LVL39:
 457              	.LBB32:
 458              	.LBB33:
 459              		.loc 3 414 0 discriminator 1
 460 0048 0448     		ldr	r0, .L57+8
 461 004a FFF7FEFF 		bl	chSysHalt
 462              	.LVL40:
 463              	.LBE33:
 464              	.LBE32:
 465              		.loc 2 152 0 discriminator 1
 466 004e F223     		movs	r3, #242
 467 0050 ECE7     		b	.L48
 468              	.L58:
 469 0052 00BF     		.align	2
 470              	.L57:
 471 0054 44000000 		.word	.LC2
 472 0058 00000000 		.word	.LC0
 473 005c B0000000 		.word	.LC5
 474 0060 00000000 		.word	itm_port
 475              		.cfi_endproc
 476              	.LFE260:
 477              		.size	netbuf_ref, .-netbuf_ref
 478 0064 AFF30080 		.section	.text.netbuf_chain,"ax",%progbits
 478      AFF30080 
 478      AFF30080 
 479              		.align	2
 480              		.p2align 4,,15
 481              		.global	netbuf_chain
 482              		.thumb
 483              		.thumb_func
 484              		.type	netbuf_chain, %function
 485              	netbuf_chain:
 486              	.LFB261:
 487              		.loc 2 175 0
 488              		.cfi_startproc
 489              		@ args = 0, pretend = 0, frame = 0
 490              		@ frame_needed = 0, uses_anonymous_args = 0
 491              	.LVL41:
 492 0000 30B5     		push	{r4, r5, lr}
 493              		.cfi_def_cfa_offset 12
 494              		.cfi_offset 4, -12
 495              		.cfi_offset 5, -8
 496              		.cfi_offset 14, -4
 497              		.loc 2 176 0
 498 0002 0446     		mov	r4, r0
 499              		.loc 2 175 0
 500 0004 83B0     		sub	sp, sp, #12
 501              		.cfi_def_cfa_offset 24
 502              		.loc 2 176 0
 503 0006 D8B1     		cbz	r0, .L64
 504 0008 0D46     		mov	r5, r1
 505              		.loc 2 177 0
 506 000a 59B1     		cbz	r1, .L65
 507              		.loc 2 178 0
ARM GAS  C:\Users\jo\AppData\Local\Temp\ccoMBxzN.s 			page 10


 508 000c 0068     		ldr	r0, [r0]
 509              	.LVL42:
 510 000e 0968     		ldr	r1, [r1]
 511              	.LVL43:
 512 0010 FFF7FEFF 		bl	pbuf_cat
 513              	.LVL44:
 514              		.loc 2 179 0
 515 0014 2368     		ldr	r3, [r4]
 516 0016 6360     		str	r3, [r4, #4]
 517              		.loc 2 180 0
 518 0018 2846     		mov	r0, r5
 519              		.loc 2 181 0
 520 001a 03B0     		add	sp, sp, #12
 521              		.cfi_remember_state
 522              		.cfi_def_cfa_offset 12
 523              		@ sp needed
 524 001c BDE83040 		pop	{r4, r5, lr}
 525              		.cfi_restore 14
 526              		.cfi_restore 5
 527              		.cfi_restore 4
 528              		.cfi_def_cfa_offset 0
 529              	.LVL45:
 530              		.loc 2 180 0
 531 0020 FFF7FEBF 		b	free
 532              	.LVL46:
 533              	.L65:
 534              		.cfi_restore_state
 535              		.loc 2 177 0 discriminator 1
 536 0024 0B4B     		ldr	r3, .L66
 537 0026 0093     		str	r3, [sp]
 538 0028 0B48     		ldr	r0, .L66+4
 539              	.LVL47:
 540 002a 0C49     		ldr	r1, .L66+8
 541              	.LVL48:
 542 002c 0C4A     		ldr	r2, .L66+12
 543 002e B123     		movs	r3, #177
 544 0030 FFF7FEFF 		bl	chprintf.constprop.0
 545              	.LVL49:
 546              	.LBB34:
 547              	.LBB35:
 548              		.loc 3 414 0 discriminator 1
 549 0034 0A48     		ldr	r0, .L66+12
 550              	.LVL50:
 551              	.L63:
 552              	.LBE35:
 553              	.LBE34:
 554              		.loc 2 181 0 discriminator 1
 555 0036 03B0     		add	sp, sp, #12
 556              		.cfi_remember_state
 557              		.cfi_def_cfa_offset 12
 558              		@ sp needed
 559 0038 BDE83040 		pop	{r4, r5, lr}
 560              		.cfi_restore 14
 561              		.cfi_restore 5
 562              		.cfi_restore 4
 563              		.cfi_def_cfa_offset 0
 564              	.LVL51:
ARM GAS  C:\Users\jo\AppData\Local\Temp\ccoMBxzN.s 			page 11


 565              	.LBB37:
 566              	.LBB36:
 567              		.loc 3 414 0 discriminator 1
 568 003c FFF7FEBF 		b	chSysHalt
 569              	.LVL52:
 570              	.L64:
 571              		.cfi_restore_state
 572              	.LBE36:
 573              	.LBE37:
 574              		.loc 2 176 0 discriminator 1
 575 0040 044B     		ldr	r3, .L66
 576 0042 0093     		str	r3, [sp]
 577 0044 0448     		ldr	r0, .L66+4
 578              	.LVL53:
 579 0046 0549     		ldr	r1, .L66+8
 580              	.LVL54:
 581 0048 064A     		ldr	r2, .L66+16
 582 004a B023     		movs	r3, #176
 583 004c FFF7FEFF 		bl	chprintf.constprop.0
 584              	.LVL55:
 585              	.LBB38:
 586              	.LBB39:
 587              		.loc 3 414 0 discriminator 1
 588 0050 0448     		ldr	r0, .L66+16
 589 0052 F0E7     		b	.L63
 590              	.L67:
 591              		.align	2
 592              	.L66:
 593 0054 44000000 		.word	.LC2
 594 0058 00000000 		.word	itm_port
 595 005c 00000000 		.word	.LC0
 596 0060 E4000000 		.word	.LC7
 597 0064 C8000000 		.word	.LC6
 598              	.LBE39:
 599              	.LBE38:
 600              		.cfi_endproc
 601              	.LFE261:
 602              		.size	netbuf_chain, .-netbuf_chain
 603 0068 AFF30080 		.section	.text.netbuf_data,"ax",%progbits
 603      AFF30080 
 604              		.align	2
 605              		.p2align 4,,15
 606              		.global	netbuf_data
 607              		.thumb
 608              		.thumb_func
 609              		.type	netbuf_data, %function
 610              	netbuf_data:
 611              	.LFB262:
 612              		.loc 2 194 0
 613              		.cfi_startproc
 614              		@ args = 0, pretend = 0, frame = 0
 615              		@ frame_needed = 0, uses_anonymous_args = 0
 616              	.LVL56:
 617 0000 00B5     		push	{lr}
 618              		.cfi_def_cfa_offset 4
 619              		.cfi_offset 14, -4
 620 0002 83B0     		sub	sp, sp, #12
ARM GAS  C:\Users\jo\AppData\Local\Temp\ccoMBxzN.s 			page 12


 621              		.cfi_def_cfa_offset 16
 622              		.loc 2 195 0
 623 0004 48B3     		cbz	r0, .L75
 624              		.loc 2 196 0
 625 0006 D9B1     		cbz	r1, .L76
 626              		.loc 2 197 0
 627 0008 6AB1     		cbz	r2, .L77
 628              		.loc 2 199 0
 629 000a 4368     		ldr	r3, [r0, #4]
 630 000c 4BB1     		cbz	r3, .L73
 631              		.loc 2 202 0
 632 000e 5B68     		ldr	r3, [r3, #4]
 633 0010 0B60     		str	r3, [r1]
 634              		.loc 2 203 0
 635 0012 4368     		ldr	r3, [r0, #4]
 636 0014 5B89     		ldrh	r3, [r3, #10]
 637 0016 1380     		strh	r3, [r2]	@ movhi
 638              		.loc 2 204 0
 639 0018 0020     		movs	r0, #0
 640              	.LVL57:
 641              	.L70:
 642              		.loc 2 205 0
 643 001a 40B2     		sxtb	r0, r0
 644 001c 03B0     		add	sp, sp, #12
 645              		.cfi_remember_state
 646              		.cfi_def_cfa_offset 4
 647              		@ sp needed
 648 001e 5DF804FB 		ldr	pc, [sp], #4
 649              	.LVL58:
 650              	.L73:
 651              		.cfi_restore_state
 652              		.loc 2 200 0
 653 0022 FE20     		movs	r0, #254
 654              	.LVL59:
 655 0024 F9E7     		b	.L70
 656              	.LVL60:
 657              	.L77:
 658              		.loc 2 197 0 discriminator 1
 659 0026 134B     		ldr	r3, .L78
 660 0028 0093     		str	r3, [sp]
 661 002a 1349     		ldr	r1, .L78+4
 662              	.LVL61:
 663 002c 134A     		ldr	r2, .L78+8
 664              	.LVL62:
 665 002e 1448     		ldr	r0, .L78+12
 666              	.LVL63:
 667 0030 C523     		movs	r3, #197
 668 0032 FFF7FEFF 		bl	chprintf.constprop.0
 669              	.LVL64:
 670              	.LBB40:
 671              	.LBB41:
 672              		.loc 3 414 0 discriminator 1
 673 0036 1148     		ldr	r0, .L78+8
 674 0038 FFF7FEFF 		bl	chSysHalt
 675              	.LVL65:
 676              	.LBE41:
 677              	.LBE40:
ARM GAS  C:\Users\jo\AppData\Local\Temp\ccoMBxzN.s 			page 13


 678              		.loc 2 197 0 discriminator 1
 679 003c F220     		movs	r0, #242
 680 003e ECE7     		b	.L70
 681              	.LVL66:
 682              	.L76:
 683              		.loc 2 196 0 discriminator 1
 684 0040 0C4B     		ldr	r3, .L78
 685 0042 0093     		str	r3, [sp]
 686 0044 0C49     		ldr	r1, .L78+4
 687              	.LVL67:
 688 0046 0F4A     		ldr	r2, .L78+16
 689              	.LVL68:
 690 0048 0D48     		ldr	r0, .L78+12
 691              	.LVL69:
 692 004a C423     		movs	r3, #196
 693 004c FFF7FEFF 		bl	chprintf.constprop.0
 694              	.LVL70:
 695              	.LBB42:
 696              	.LBB43:
 697              		.loc 3 414 0 discriminator 1
 698 0050 0C48     		ldr	r0, .L78+16
 699 0052 FFF7FEFF 		bl	chSysHalt
 700              	.LVL71:
 701              	.LBE43:
 702              	.LBE42:
 703              		.loc 2 196 0 discriminator 1
 704 0056 F220     		movs	r0, #242
 705 0058 DFE7     		b	.L70
 706              	.LVL72:
 707              	.L75:
 708              		.loc 2 195 0 discriminator 1
 709 005a 064B     		ldr	r3, .L78
 710 005c 0093     		str	r3, [sp]
 711 005e 0649     		ldr	r1, .L78+4
 712              	.LVL73:
 713 0060 094A     		ldr	r2, .L78+20
 714              	.LVL74:
 715 0062 0748     		ldr	r0, .L78+12
 716              	.LVL75:
 717 0064 C323     		movs	r3, #195
 718 0066 FFF7FEFF 		bl	chprintf.constprop.0
 719              	.LVL76:
 720              	.LBB44:
 721              	.LBB45:
 722              		.loc 3 414 0 discriminator 1
 723 006a 0748     		ldr	r0, .L78+20
 724 006c FFF7FEFF 		bl	chSysHalt
 725              	.LVL77:
 726              	.LBE45:
 727              	.LBE44:
 728              		.loc 2 195 0 discriminator 1
 729 0070 F220     		movs	r0, #242
 730 0072 D2E7     		b	.L70
 731              	.L79:
 732              		.align	2
 733              	.L78:
 734 0074 44000000 		.word	.LC2
ARM GAS  C:\Users\jo\AppData\Local\Temp\ccoMBxzN.s 			page 14


 735 0078 00000000 		.word	.LC0
 736 007c 3C010000 		.word	.LC10
 737 0080 00000000 		.word	itm_port
 738 0084 1C010000 		.word	.LC9
 739 0088 00010000 		.word	.LC8
 740              		.cfi_endproc
 741              	.LFE262:
 742              		.size	netbuf_data, .-netbuf_data
 743 008c AFF30080 		.section	.text.netbuf_next,"ax",%progbits
 744              		.align	2
 745              		.p2align 4,,15
 746              		.global	netbuf_next
 747              		.thumb
 748              		.thumb_func
 749              		.type	netbuf_next, %function
 750              	netbuf_next:
 751              	.LFB263:
 752              		.loc 2 219 0
 753              		.cfi_startproc
 754              		@ args = 0, pretend = 0, frame = 0
 755              		@ frame_needed = 0, uses_anonymous_args = 0
 756              	.LVL78:
 757              		.loc 2 220 0
 758 0000 58B1     		cbz	r0, .L86
 759              		.loc 2 221 0
 760 0002 4368     		ldr	r3, [r0, #4]
 761 0004 1B68     		ldr	r3, [r3]
 762 0006 33B1     		cbz	r3, .L83
 763              		.loc 2 224 0
 764 0008 4360     		str	r3, [r0, #4]
 765              		.loc 2 225 0
 766 000a 1868     		ldr	r0, [r3]
 767              	.LVL79:
 768              		.loc 2 220 0
 769 000c B0FA80F0 		clz	r0, r0
 770 0010 4009     		lsrs	r0, r0, #5
 771              	.L85:
 772              		.loc 2 229 0
 773 0012 40B2     		sxtb	r0, r0
 774 0014 7047     		bx	lr
 775              	.LVL80:
 776              	.L83:
 777              		.loc 2 222 0
 778 0016 FF20     		movs	r0, #255
 779              	.LVL81:
 780 0018 FBE7     		b	.L85
 781              	.LVL82:
 782              	.L86:
 783              		.loc 2 219 0 discriminator 1
 784 001a 00B5     		push	{lr}
 785              		.cfi_def_cfa_offset 4
 786              		.cfi_offset 14, -4
 787 001c 83B0     		sub	sp, sp, #12
 788              		.cfi_def_cfa_offset 16
 789              		.loc 2 220 0 discriminator 1
 790 001e 084B     		ldr	r3, .L87
 791 0020 0093     		str	r3, [sp]
ARM GAS  C:\Users\jo\AppData\Local\Temp\ccoMBxzN.s 			page 15


 792 0022 0849     		ldr	r1, .L87+4
 793 0024 084A     		ldr	r2, .L87+8
 794 0026 0948     		ldr	r0, .L87+12
 795              	.LVL83:
 796 0028 DC23     		movs	r3, #220
 797 002a FFF7FEFF 		bl	chprintf.constprop.0
 798              	.LVL84:
 799              	.LBB46:
 800              	.LBB47:
 801              		.loc 3 414 0 discriminator 1
 802 002e 0648     		ldr	r0, .L87+8
 803 0030 FFF7FEFF 		bl	chSysHalt
 804              	.LVL85:
 805              	.LBE47:
 806              	.LBE46:
 807              		.loc 2 220 0 discriminator 1
 808 0034 FF20     		movs	r0, #255
 809              		.loc 2 229 0 discriminator 1
 810 0036 40B2     		sxtb	r0, r0
 811 0038 03B0     		add	sp, sp, #12
 812              		.cfi_def_cfa_offset 4
 813              		@ sp needed
 814 003a 5DF804FB 		ldr	pc, [sp], #4
 815              	.L88:
 816 003e 00BF     		.align	2
 817              	.L87:
 818 0040 44000000 		.word	.LC2
 819 0044 00000000 		.word	.LC0
 820 0048 94000000 		.word	.LC4
 821 004c 00000000 		.word	itm_port
 822              		.cfi_endproc
 823              	.LFE263:
 824              		.size	netbuf_next, .-netbuf_next
 825              		.section	.text.netbuf_first,"ax",%progbits
 826              		.align	2
 827              		.p2align 4,,15
 828              		.global	netbuf_first
 829              		.thumb
 830              		.thumb_func
 831              		.type	netbuf_first, %function
 832              	netbuf_first:
 833              	.LFB264:
 834              		.loc 2 240 0
 835              		.cfi_startproc
 836              		@ args = 0, pretend = 0, frame = 0
 837              		@ frame_needed = 0, uses_anonymous_args = 0
 838              	.LVL86:
 839              		.loc 2 241 0
 840 0000 10B1     		cbz	r0, .L92
 841              		.loc 2 242 0
 842 0002 0368     		ldr	r3, [r0]
 843 0004 4360     		str	r3, [r0, #4]
 844 0006 7047     		bx	lr
 845              	.L92:
 846              		.loc 2 240 0 discriminator 1
 847 0008 00B5     		push	{lr}
 848              		.cfi_def_cfa_offset 4
ARM GAS  C:\Users\jo\AppData\Local\Temp\ccoMBxzN.s 			page 16


 849              		.cfi_offset 14, -4
 850 000a 83B0     		sub	sp, sp, #12
 851              		.cfi_def_cfa_offset 16
 852              		.loc 2 241 0 discriminator 1
 853 000c 064B     		ldr	r3, .L93
 854 000e 0093     		str	r3, [sp]
 855 0010 0649     		ldr	r1, .L93+4
 856 0012 074A     		ldr	r2, .L93+8
 857 0014 0748     		ldr	r0, .L93+12
 858              	.LVL87:
 859 0016 F123     		movs	r3, #241
 860 0018 FFF7FEFF 		bl	chprintf.constprop.0
 861              	.LVL88:
 862              	.LBB48:
 863              	.LBB49:
 864              		.loc 3 414 0 discriminator 1
 865 001c 0448     		ldr	r0, .L93+8
 866              	.LBE49:
 867              	.LBE48:
 868              		.loc 2 243 0 discriminator 1
 869 001e 03B0     		add	sp, sp, #12
 870              		.cfi_def_cfa_offset 4
 871              		@ sp needed
 872 0020 5DF804EB 		ldr	lr, [sp], #4
 873              		.cfi_restore 14
 874              		.cfi_def_cfa_offset 0
 875              	.LBB51:
 876              	.LBB50:
 877              		.loc 3 414 0 discriminator 1
 878 0024 FFF7FEBF 		b	chSysHalt
 879              	.LVL89:
 880              	.L94:
 881              		.align	2
 882              	.L93:
 883 0028 44000000 		.word	.LC2
 884 002c 00000000 		.word	.LC0
 885 0030 94000000 		.word	.LC4
 886 0034 00000000 		.word	itm_port
 887              	.LBE50:
 888              	.LBE51:
 889              		.cfi_endproc
 890              	.LFE264:
 891              		.size	netbuf_first, .-netbuf_first
 892 0038 AFF30080 		.section	.rodata.str1.4,"aMS",%progbits,1
 892      AFF30080 
 893              		.align	2
 894              	.LC0:
 895 0000 41737365 		.ascii	"Assertion \"%s\" failed at line %d in %s\012\000"
 895      7274696F 
 895      6E202225 
 895      73222066 
 895      61696C65 
 896              	.LC1:
 897 0028 6E657462 		.ascii	"netbuf_alloc: invalid buf\000"
 897      75665F61 
 897      6C6C6F63 
 897      3A20696E 
ARM GAS  C:\Users\jo\AppData\Local\Temp\ccoMBxzN.s 			page 17


 897      76616C69 
 898 0042 0000     		.space	2
 899              	.LC2:
 900 0044 2E2E2F2E 		.ascii	"../../../os/ext/lwip-1.4.1/src/api/netbuf.c\000"
 900      2E2F2E2E 
 900      2F6F732F 
 900      6578742F 
 900      6C776970 
 901              	.LC3:
 902 0070 63686563 		.ascii	"check that first pbuf can hold size\000"
 902      6B207468 
 902      61742066 
 902      69727374 
 902      20706275 
 903              	.LC4:
 904 0094 6E657462 		.ascii	"netbuf_free: invalid buf\000"
 904      75665F66 
 904      7265653A 
 904      20696E76 
 904      616C6964 
 905 00ad 000000   		.space	3
 906              	.LC5:
 907 00b0 6E657462 		.ascii	"netbuf_ref: invalid buf\000"
 907      75665F72 
 907      65663A20 
 907      696E7661 
 907      6C696420 
 908              	.LC6:
 909 00c8 6E657462 		.ascii	"netbuf_ref: invalid head\000"
 909      75665F72 
 909      65663A20 
 909      696E7661 
 909      6C696420 
 910 00e1 000000   		.space	3
 911              	.LC7:
 912 00e4 6E657462 		.ascii	"netbuf_chain: invalid tail\000"
 912      75665F63 
 912      6861696E 
 912      3A20696E 
 912      76616C69 
 913 00ff 00       		.space	1
 914              	.LC8:
 915 0100 6E657462 		.ascii	"netbuf_data: invalid buf\000"
 915      75665F64 
 915      6174613A 
 915      20696E76 
 915      616C6964 
 916 0119 000000   		.space	3
 917              	.LC9:
 918 011c 6E657462 		.ascii	"netbuf_data: invalid dataptr\000"
 918      75665F64 
 918      6174613A 
 918      20696E76 
 918      616C6964 
 919 0139 000000   		.space	3
 920              	.LC10:
 921 013c 6E657462 		.ascii	"netbuf_data: invalid len\000"
ARM GAS  C:\Users\jo\AppData\Local\Temp\ccoMBxzN.s 			page 18


 921      75665F64 
 921      6174613A 
 921      20696E76 
 921      616C6964 
 922 0155 000000   		.text
 923              	.Letext0:
 924              		.file 4 "c:\\program files\\gnu tools arm embedded\\4.9 2014q4\\lib\\gcc\\arm-none-eabi\\4.9.3\\in
 925              		.file 5 "c:\\program files\\gnu tools arm embedded\\4.9 2014q4\\arm-none-eabi\\include\\machine\\_
 926              		.file 6 "c:\\program files\\gnu tools arm embedded\\4.9 2014q4\\arm-none-eabi\\include\\stdint.h"
 927              		.file 7 "../../../os/rt/ports/ARMCMx/compilers/GCC/chtypes.h"
 928              		.file 8 "../../../os/rt/include/chsystypes.h"
 929              		.file 9 "../../../os/rt/include/chschd.h"
 930              		.file 10 "../../../os/rt/ports/ARMCMx/chcore.h"
 931              		.file 11 "../../../os/rt/ports/ARMCMx/chcore_v7m.h"
 932              		.file 12 "c:\\program files\\gnu tools arm embedded\\4.9 2014q4\\lib\\gcc\\arm-none-eabi\\4.9.3\\i
 933              		.file 13 "<built-in>"
 934              		.file 14 "../../../os/rt/include/chdebug.h"
 935              		.file 15 "../../../os/rt/include/chtm.h"
 936              		.file 16 "../../../os/rt/include/chstats.h"
 937              		.file 17 "../../../os/rt/include/chmtx.h"
 938              		.file 18 "../../../os/rt/include/chstreams.h"
 939              		.file 19 "./ITM_trace.h"
 940              		.file 20 "../../../os/various/lwip_bindings/arch/cc.h"
 941              		.file 21 "../../../os/ext/lwip-1.4.1/src/include/lwip/err.h"
 942              		.file 22 "../../../os/ext/lwip-1.4.1/src/include/lwip/pbuf.h"
 943              		.file 23 "../../../os/ext/lwip-1.4.1/src/include/ipv4/lwip/ip_addr.h"
 944              		.file 24 "../../../os/ext/lwip-1.4.1/src/include/lwip/netbuf.h"
 945              		.file 25 "../../../os/ext/lwip-1.4.1/src/include/lwip/memp.h"
 946              		.file 26 "../../../os/ext/CMSIS/include/core_cm4.h"
 947              		.file 27 "c:\\program files\\gnu tools arm embedded\\4.9 2014q4\\arm-none-eabi\\include\\stdlib.h"
 948              		.file 28 "../../../os/rt/include/chsys.h"
 949              		.section	.debug_info,"",%progbits
 950              	.Ldebug_info0:
 951 0000 B4120000 		.4byte	0x12b4
 952 0004 0400     		.2byte	0x4
 953 0006 00000000 		.4byte	.Ldebug_abbrev0
 954 000a 04       		.byte	0x4
 955 000b 01       		.uleb128 0x1
 956 000c 18040000 		.4byte	.LASF201
 957 0010 01       		.byte	0x1
 958 0011 8D060000 		.4byte	.LASF202
 959 0015 28010000 		.4byte	.LASF203
 960 0019 48000000 		.4byte	.Ldebug_ranges0+0x48
 961 001d 00000000 		.4byte	0
 962 0021 00000000 		.4byte	.Ldebug_line0
 963 0025 02       		.uleb128 0x2
 964 0026 04       		.byte	0x4
 965 0027 05       		.byte	0x5
 966 0028 696E7400 		.ascii	"int\000"
 967 002c 03       		.uleb128 0x3
 968 002d 15000000 		.4byte	.LASF1
 969 0031 04       		.byte	0x4
 970 0032 D4       		.byte	0xd4
 971 0033 37000000 		.4byte	0x37
 972 0037 04       		.uleb128 0x4
 973 0038 04       		.byte	0x4
 974 0039 07       		.byte	0x7
ARM GAS  C:\Users\jo\AppData\Local\Temp\ccoMBxzN.s 			page 19


 975 003a F2020000 		.4byte	.LASF0
 976 003e 03       		.uleb128 0x3
 977 003f FD000000 		.4byte	.LASF2
 978 0043 05       		.byte	0x5
 979 0044 1B       		.byte	0x1b
 980 0045 49000000 		.4byte	0x49
 981 0049 04       		.uleb128 0x4
 982 004a 01       		.byte	0x1
 983 004b 06       		.byte	0x6
 984 004c 84010000 		.4byte	.LASF3
 985 0050 03       		.uleb128 0x3
 986 0051 31000000 		.4byte	.LASF4
 987 0055 05       		.byte	0x5
 988 0056 1D       		.byte	0x1d
 989 0057 5B000000 		.4byte	0x5b
 990 005b 04       		.uleb128 0x4
 991 005c 01       		.byte	0x1
 992 005d 08       		.byte	0x8
 993 005e 77060000 		.4byte	.LASF5
 994 0062 04       		.uleb128 0x4
 995 0063 02       		.byte	0x2
 996 0064 05       		.byte	0x5
 997 0065 C3060000 		.4byte	.LASF6
 998 0069 03       		.uleb128 0x3
 999 006a DE070000 		.4byte	.LASF7
 1000 006e 05       		.byte	0x5
 1001 006f 2B       		.byte	0x2b
 1002 0070 74000000 		.4byte	0x74
 1003 0074 04       		.uleb128 0x4
 1004 0075 02       		.byte	0x2
 1005 0076 07       		.byte	0x7
 1006 0077 6D030000 		.4byte	.LASF8
 1007 007b 03       		.uleb128 0x3
 1008 007c 08040000 		.4byte	.LASF9
 1009 0080 05       		.byte	0x5
 1010 0081 3F       		.byte	0x3f
 1011 0082 86000000 		.4byte	0x86
 1012 0086 04       		.uleb128 0x4
 1013 0087 04       		.byte	0x4
 1014 0088 05       		.byte	0x5
 1015 0089 C8010000 		.4byte	.LASF10
 1016 008d 03       		.uleb128 0x3
 1017 008e 36080000 		.4byte	.LASF11
 1018 0092 05       		.byte	0x5
 1019 0093 41       		.byte	0x41
 1020 0094 98000000 		.4byte	0x98
 1021 0098 04       		.uleb128 0x4
 1022 0099 04       		.byte	0x4
 1023 009a 07       		.byte	0x7
 1024 009b 90010000 		.4byte	.LASF12
 1025 009f 04       		.uleb128 0x4
 1026 00a0 08       		.byte	0x8
 1027 00a1 05       		.byte	0x5
 1028 00a2 76010000 		.4byte	.LASF13
 1029 00a6 03       		.uleb128 0x3
 1030 00a7 FD050000 		.4byte	.LASF14
 1031 00ab 05       		.byte	0x5
ARM GAS  C:\Users\jo\AppData\Local\Temp\ccoMBxzN.s 			page 20


 1032 00ac 5B       		.byte	0x5b
 1033 00ad B1000000 		.4byte	0xb1
 1034 00b1 04       		.uleb128 0x4
 1035 00b2 08       		.byte	0x8
 1036 00b3 07       		.byte	0x7
 1037 00b4 7C000000 		.4byte	.LASF15
 1038 00b8 03       		.uleb128 0x3
 1039 00b9 7D080000 		.4byte	.LASF16
 1040 00bd 06       		.byte	0x6
 1041 00be 14       		.byte	0x14
 1042 00bf 3E000000 		.4byte	0x3e
 1043 00c3 03       		.uleb128 0x3
 1044 00c4 E6080000 		.4byte	.LASF17
 1045 00c8 06       		.byte	0x6
 1046 00c9 15       		.byte	0x15
 1047 00ca 50000000 		.4byte	0x50
 1048 00ce 03       		.uleb128 0x3
 1049 00cf 0C030000 		.4byte	.LASF18
 1050 00d3 06       		.byte	0x6
 1051 00d4 21       		.byte	0x21
 1052 00d5 69000000 		.4byte	0x69
 1053 00d9 03       		.uleb128 0x3
 1054 00da 6F060000 		.4byte	.LASF19
 1055 00de 06       		.byte	0x6
 1056 00df 2C       		.byte	0x2c
 1057 00e0 7B000000 		.4byte	0x7b
 1058 00e4 03       		.uleb128 0x3
 1059 00e5 45030000 		.4byte	.LASF20
 1060 00e9 06       		.byte	0x6
 1061 00ea 2D       		.byte	0x2d
 1062 00eb 8D000000 		.4byte	0x8d
 1063 00ef 03       		.uleb128 0x3
 1064 00f0 28000000 		.4byte	.LASF21
 1065 00f4 06       		.byte	0x6
 1066 00f5 39       		.byte	0x39
 1067 00f6 A6000000 		.4byte	0xa6
 1068 00fa 05       		.uleb128 0x5
 1069 00fb D9000000 		.4byte	0xd9
 1070 00ff 03       		.uleb128 0x3
 1071 0100 75080000 		.4byte	.LASF22
 1072 0104 07       		.byte	0x7
 1073 0105 45       		.byte	0x45
 1074 0106 E4000000 		.4byte	0xe4
 1075 010a 03       		.uleb128 0x3
 1076 010b 18010000 		.4byte	.LASF23
 1077 010f 07       		.byte	0x7
 1078 0110 46       		.byte	0x46
 1079 0111 EF000000 		.4byte	0xef
 1080 0115 03       		.uleb128 0x3
 1081 0116 DB030000 		.4byte	.LASF24
 1082 011a 07       		.byte	0x7
 1083 011b 48       		.byte	0x48
 1084 011c C3000000 		.4byte	0xc3
 1085 0120 03       		.uleb128 0x3
 1086 0121 E3010000 		.4byte	.LASF25
 1087 0125 07       		.byte	0x7
 1088 0126 49       		.byte	0x49
ARM GAS  C:\Users\jo\AppData\Local\Temp\ccoMBxzN.s 			page 21


 1089 0127 C3000000 		.4byte	0xc3
 1090 012b 03       		.uleb128 0x3
 1091 012c 00000000 		.4byte	.LASF26
 1092 0130 07       		.byte	0x7
 1093 0131 4A       		.byte	0x4a
 1094 0132 C3000000 		.4byte	0xc3
 1095 0136 03       		.uleb128 0x3
 1096 0137 4B060000 		.4byte	.LASF27
 1097 013b 07       		.byte	0x7
 1098 013c 4C       		.byte	0x4c
 1099 013d E4000000 		.4byte	0xe4
 1100 0141 03       		.uleb128 0x3
 1101 0142 AE030000 		.4byte	.LASF28
 1102 0146 07       		.byte	0x7
 1103 0147 4D       		.byte	0x4d
 1104 0148 D9000000 		.4byte	0xd9
 1105 014c 03       		.uleb128 0x3
 1106 014d FC030000 		.4byte	.LASF29
 1107 0151 07       		.byte	0x7
 1108 0152 4F       		.byte	0x4f
 1109 0153 E4000000 		.4byte	0xe4
 1110 0157 03       		.uleb128 0x3
 1111 0158 D2020000 		.4byte	.LASF30
 1112 015c 07       		.byte	0x7
 1113 015d 51       		.byte	0x51
 1114 015e D9000000 		.4byte	0xd9
 1115 0162 03       		.uleb128 0x3
 1116 0163 B9030000 		.4byte	.LASF31
 1117 0167 07       		.byte	0x7
 1118 0168 52       		.byte	0x52
 1119 0169 E4000000 		.4byte	0xe4
 1120 016d 03       		.uleb128 0x3
 1121 016e 18080000 		.4byte	.LASF32
 1122 0172 08       		.byte	0x8
 1123 0173 33       		.byte	0x33
 1124 0174 E4000000 		.4byte	0xe4
 1125 0178 03       		.uleb128 0x3
 1126 0179 03080000 		.4byte	.LASF33
 1127 017d 08       		.byte	0x8
 1128 017e 3F       		.byte	0x3f
 1129 017f 83010000 		.4byte	0x183
 1130 0183 06       		.uleb128 0x6
 1131 0184 8F030000 		.4byte	.LASF54
 1132 0188 60       		.byte	0x60
 1133 0189 09       		.byte	0x9
 1134 018a BE       		.byte	0xbe
 1135 018b 89020000 		.4byte	0x289
 1136 018f 07       		.uleb128 0x7
 1137 0190 F2060000 		.4byte	.LASF34
 1138 0194 09       		.byte	0x9
 1139 0195 BF       		.byte	0xbf
 1140 0196 F3050000 		.4byte	0x5f3
 1141 019a 00       		.byte	0
 1142 019b 07       		.uleb128 0x7
 1143 019c 44060000 		.4byte	.LASF35
 1144 01a0 09       		.byte	0x9
 1145 01a1 C1       		.byte	0xc1
ARM GAS  C:\Users\jo\AppData\Local\Temp\ccoMBxzN.s 			page 22


 1146 01a2 F3050000 		.4byte	0x5f3
 1147 01a6 04       		.byte	0x4
 1148 01a7 07       		.uleb128 0x7
 1149 01a8 21010000 		.4byte	.LASF36
 1150 01ac 09       		.byte	0x9
 1151 01ad C3       		.byte	0xc3
 1152 01ae 36010000 		.4byte	0x136
 1153 01b2 08       		.byte	0x8
 1154 01b3 07       		.uleb128 0x7
 1155 01b4 49090000 		.4byte	.LASF37
 1156 01b8 09       		.byte	0x9
 1157 01b9 C4       		.byte	0xc4
 1158 01ba EC040000 		.4byte	0x4ec
 1159 01be 0C       		.byte	0xc
 1160 01bf 07       		.uleb128 0x7
 1161 01c0 24020000 		.4byte	.LASF38
 1162 01c4 09       		.byte	0x9
 1163 01c5 C6       		.byte	0xc6
 1164 01c6 F3050000 		.4byte	0x5f3
 1165 01ca 10       		.byte	0x10
 1166 01cb 07       		.uleb128 0x7
 1167 01cc DC060000 		.4byte	.LASF39
 1168 01d0 09       		.byte	0x9
 1169 01d1 C7       		.byte	0xc7
 1170 01d2 F3050000 		.4byte	0x5f3
 1171 01d6 14       		.byte	0x14
 1172 01d7 07       		.uleb128 0x7
 1173 01d8 59060000 		.4byte	.LASF40
 1174 01dc 09       		.byte	0x9
 1175 01dd CE       		.byte	0xce
 1176 01de AF050000 		.4byte	0x5af
 1177 01e2 18       		.byte	0x18
 1178 01e3 07       		.uleb128 0x7
 1179 01e4 E7020000 		.4byte	.LASF41
 1180 01e8 09       		.byte	0x9
 1181 01e9 D4       		.byte	0xd4
 1182 01ea 3D070000 		.4byte	0x73d
 1183 01ee 1C       		.byte	0x1c
 1184 01ef 07       		.uleb128 0x7
 1185 01f0 CD060000 		.4byte	.LASF42
 1186 01f4 09       		.byte	0x9
 1187 01f5 D9       		.byte	0xd9
 1188 01f6 20010000 		.4byte	0x120
 1189 01fa 20       		.byte	0x20
 1190 01fb 07       		.uleb128 0x7
 1191 01fc 03070000 		.4byte	.LASF43
 1192 0200 09       		.byte	0x9
 1193 0201 DD       		.byte	0xdd
 1194 0202 15010000 		.4byte	0x115
 1195 0206 21       		.byte	0x21
 1196 0207 07       		.uleb128 0x7
 1197 0208 D1080000 		.4byte	.LASF44
 1198 020c 09       		.byte	0x9
 1199 020d E2       		.byte	0xe2
 1200 020e 2B010000 		.4byte	0x12b
 1201 0212 22       		.byte	0x22
 1202 0213 08       		.uleb128 0x8
ARM GAS  C:\Users\jo\AppData\Local\Temp\ccoMBxzN.s 			page 23


 1203 0214 705F7500 		.ascii	"p_u\000"
 1204 0218 09       		.byte	0x9
 1205 0219 1401     		.2byte	0x114
 1206 021b 05070000 		.4byte	0x705
 1207 021f 24       		.byte	0x24
 1208 0220 09       		.uleb128 0x9
 1209 0221 37050000 		.4byte	.LASF45
 1210 0225 09       		.byte	0x9
 1211 0226 1901     		.2byte	0x119
 1212 0228 89020000 		.4byte	0x289
 1213 022c 28       		.byte	0x28
 1214 022d 09       		.uleb128 0x9
 1215 022e 34030000 		.4byte	.LASF46
 1216 0232 09       		.byte	0x9
 1217 0233 1F01     		.2byte	0x11f
 1218 0235 AD020000 		.4byte	0x2ad
 1219 0239 2C       		.byte	0x2c
 1220 023a 09       		.uleb128 0x9
 1221 023b 26090000 		.4byte	.LASF47
 1222 023f 09       		.byte	0x9
 1223 0240 2301     		.2byte	0x123
 1224 0242 41010000 		.4byte	0x141
 1225 0246 34       		.byte	0x34
 1226 0247 09       		.uleb128 0x9
 1227 0248 58070000 		.4byte	.LASF48
 1228 024c 09       		.byte	0x9
 1229 024d 2901     		.2byte	0x129
 1230 024f 4C010000 		.4byte	0x14c
 1231 0253 38       		.byte	0x38
 1232 0254 09       		.uleb128 0x9
 1233 0255 B9060000 		.4byte	.LASF49
 1234 0259 09       		.byte	0x9
 1235 025a 3001     		.2byte	0x130
 1236 025c 74070000 		.4byte	0x774
 1237 0260 3C       		.byte	0x3c
 1238 0261 09       		.uleb128 0x9
 1239 0262 22080000 		.4byte	.LASF50
 1240 0266 09       		.byte	0x9
 1241 0267 3401     		.2byte	0x134
 1242 0269 36010000 		.4byte	0x136
 1243 026d 40       		.byte	0x40
 1244 026e 09       		.uleb128 0x9
 1245 026f A2010000 		.4byte	.LASF51
 1246 0273 09       		.byte	0x9
 1247 0274 3A01     		.2byte	0x13a
 1248 0276 60030000 		.4byte	0x360
 1249 027a 44       		.byte	0x44
 1250 027b 09       		.uleb128 0x9
 1251 027c 0B070000 		.4byte	.LASF52
 1252 0280 09       		.byte	0x9
 1253 0281 4001     		.2byte	0x140
 1254 0283 B6060000 		.4byte	0x6b6
 1255 0287 48       		.byte	0x48
 1256 0288 00       		.byte	0
 1257 0289 03       		.uleb128 0x3
 1258 028a 0A090000 		.4byte	.LASF53
 1259 028e 08       		.byte	0x8
ARM GAS  C:\Users\jo\AppData\Local\Temp\ccoMBxzN.s 			page 24


 1260 028f 44       		.byte	0x44
 1261 0290 94020000 		.4byte	0x294
 1262 0294 06       		.uleb128 0x6
 1263 0295 9D070000 		.4byte	.LASF55
 1264 0299 04       		.byte	0x4
 1265 029a 09       		.byte	0x9
 1266 029b AC       		.byte	0xac
 1267 029c AD020000 		.4byte	0x2ad
 1268 02a0 07       		.uleb128 0x7
 1269 02a1 F2060000 		.4byte	.LASF34
 1270 02a5 09       		.byte	0x9
 1271 02a6 AD       		.byte	0xad
 1272 02a7 F3050000 		.4byte	0x5f3
 1273 02ab 00       		.byte	0
 1274 02ac 00       		.byte	0
 1275 02ad 03       		.uleb128 0x3
 1276 02ae B3080000 		.4byte	.LASF56
 1277 02b2 08       		.byte	0x8
 1278 02b3 4B       		.byte	0x4b
 1279 02b4 B8020000 		.4byte	0x2b8
 1280 02b8 06       		.uleb128 0x6
 1281 02b9 57090000 		.4byte	.LASF57
 1282 02bd 08       		.byte	0x8
 1283 02be 09       		.byte	0x9
 1284 02bf B3       		.byte	0xb3
 1285 02c0 DD020000 		.4byte	0x2dd
 1286 02c4 07       		.uleb128 0x7
 1287 02c5 F2060000 		.4byte	.LASF34
 1288 02c9 09       		.byte	0x9
 1289 02ca B4       		.byte	0xb4
 1290 02cb F3050000 		.4byte	0x5f3
 1291 02cf 00       		.byte	0
 1292 02d0 07       		.uleb128 0x7
 1293 02d1 44060000 		.4byte	.LASF35
 1294 02d5 09       		.byte	0x9
 1295 02d6 B5       		.byte	0xb5
 1296 02d7 F3050000 		.4byte	0x5f3
 1297 02db 04       		.byte	0x4
 1298 02dc 00       		.byte	0
 1299 02dd 03       		.uleb128 0x3
 1300 02de 91080000 		.4byte	.LASF58
 1301 02e2 08       		.byte	0x8
 1302 02e3 52       		.byte	0x52
 1303 02e4 E8020000 		.4byte	0x2e8
 1304 02e8 0A       		.uleb128 0xa
 1305 02e9 EE030000 		.4byte	.LASF59
 1306 02ed 1C       		.byte	0x1c
 1307 02ee 09       		.byte	0x9
 1308 02ef 7201     		.2byte	0x172
 1309 02f1 44030000 		.4byte	0x344
 1310 02f5 09       		.uleb128 0x9
 1311 02f6 8C070000 		.4byte	.LASF60
 1312 02fa 09       		.byte	0x9
 1313 02fb 7301     		.2byte	0x173
 1314 02fd AD020000 		.4byte	0x2ad
 1315 0301 00       		.byte	0
 1316 0302 09       		.uleb128 0x9
ARM GAS  C:\Users\jo\AppData\Local\Temp\ccoMBxzN.s 			page 25


 1317 0303 E4060000 		.4byte	.LASF61
 1318 0307 09       		.byte	0x9
 1319 0308 7401     		.2byte	0x174
 1320 030a 36010000 		.4byte	0x136
 1321 030e 08       		.byte	0x8
 1322 030f 09       		.uleb128 0x9
 1323 0310 C2050000 		.4byte	.LASF62
 1324 0314 09       		.byte	0x9
 1325 0315 7601     		.2byte	0x176
 1326 0317 EC040000 		.4byte	0x4ec
 1327 031b 0C       		.byte	0xc
 1328 031c 09       		.uleb128 0x9
 1329 031d 4D020000 		.4byte	.LASF63
 1330 0321 09       		.byte	0x9
 1331 0322 7901     		.2byte	0x179
 1332 0324 F3050000 		.4byte	0x5f3
 1333 0328 10       		.byte	0x10
 1334 0329 09       		.uleb128 0x9
 1335 032a F5050000 		.4byte	.LASF64
 1336 032e 09       		.byte	0x9
 1337 032f 7A01     		.2byte	0x17a
 1338 0331 F3050000 		.4byte	0x5f3
 1339 0335 14       		.byte	0x14
 1340 0336 09       		.uleb128 0x9
 1341 0337 EB050000 		.4byte	.LASF65
 1342 033b 09       		.byte	0x9
 1343 033c 7D01     		.2byte	0x17d
 1344 033e F3050000 		.4byte	0x5f3
 1345 0342 18       		.byte	0x18
 1346 0343 00       		.byte	0
 1347 0344 03       		.uleb128 0x3
 1348 0345 2D080000 		.4byte	.LASF66
 1349 0349 08       		.byte	0x8
 1350 034a 57       		.byte	0x57
 1351 034b 4F030000 		.4byte	0x34f
 1352 034f 0B       		.uleb128 0xb
 1353 0350 04       		.byte	0x4
 1354 0351 55030000 		.4byte	0x355
 1355 0355 0C       		.uleb128 0xc
 1356 0356 60030000 		.4byte	0x360
 1357 035a 0D       		.uleb128 0xd
 1358 035b 60030000 		.4byte	0x360
 1359 035f 00       		.byte	0
 1360 0360 0E       		.uleb128 0xe
 1361 0361 04       		.byte	0x4
 1362 0362 03       		.uleb128 0x3
 1363 0363 34060000 		.4byte	.LASF67
 1364 0367 08       		.byte	0x8
 1365 0368 5C       		.byte	0x5c
 1366 0369 6D030000 		.4byte	0x36d
 1367 036d 0A       		.uleb128 0xa
 1368 036e 2A070000 		.4byte	.LASF68
 1369 0372 14       		.byte	0x14
 1370 0373 09       		.byte	0x9
 1371 0374 4D01     		.2byte	0x14d
 1372 0376 BC030000 		.4byte	0x3bc
 1373 037a 09       		.uleb128 0x9
ARM GAS  C:\Users\jo\AppData\Local\Temp\ccoMBxzN.s 			page 26


 1374 037b 04030000 		.4byte	.LASF69
 1375 037f 09       		.byte	0x9
 1376 0380 4E01     		.2byte	0x14e
 1377 0382 7A070000 		.4byte	0x77a
 1378 0386 00       		.byte	0
 1379 0387 09       		.uleb128 0x9
 1380 0388 72020000 		.4byte	.LASF70
 1381 038c 09       		.byte	0x9
 1382 038d 4F01     		.2byte	0x14f
 1383 038f 7A070000 		.4byte	0x77a
 1384 0393 04       		.byte	0x4
 1385 0394 09       		.uleb128 0x9
 1386 0395 94070000 		.4byte	.LASF71
 1387 0399 09       		.byte	0x9
 1388 039a 5001     		.2byte	0x150
 1389 039c 6D010000 		.4byte	0x16d
 1390 03a0 08       		.byte	0x8
 1391 03a1 09       		.uleb128 0x9
 1392 03a2 4F090000 		.4byte	.LASF72
 1393 03a6 09       		.byte	0x9
 1394 03a7 5101     		.2byte	0x151
 1395 03a9 44030000 		.4byte	0x344
 1396 03ad 0C       		.byte	0xc
 1397 03ae 09       		.uleb128 0x9
 1398 03af 84080000 		.4byte	.LASF73
 1399 03b3 09       		.byte	0x9
 1400 03b4 5301     		.2byte	0x153
 1401 03b6 60030000 		.4byte	0x360
 1402 03ba 10       		.byte	0x10
 1403 03bb 00       		.byte	0
 1404 03bc 03       		.uleb128 0x3
 1405 03bd E7000000 		.4byte	.LASF74
 1406 03c1 08       		.byte	0x8
 1407 03c2 61       		.byte	0x61
 1408 03c3 C7030000 		.4byte	0x3c7
 1409 03c7 0A       		.uleb128 0xa
 1410 03c8 4F050000 		.4byte	.LASF75
 1411 03cc 10       		.byte	0x10
 1412 03cd 09       		.byte	0x9
 1413 03ce 5D01     		.2byte	0x15d
 1414 03d0 09040000 		.4byte	0x409
 1415 03d4 09       		.uleb128 0x9
 1416 03d5 04030000 		.4byte	.LASF69
 1417 03d9 09       		.byte	0x9
 1418 03da 5E01     		.2byte	0x15e
 1419 03dc 7A070000 		.4byte	0x77a
 1420 03e0 00       		.byte	0
 1421 03e1 09       		.uleb128 0x9
 1422 03e2 72020000 		.4byte	.LASF70
 1423 03e6 09       		.byte	0x9
 1424 03e7 6001     		.2byte	0x160
 1425 03e9 7A070000 		.4byte	0x77a
 1426 03ed 04       		.byte	0x4
 1427 03ee 09       		.uleb128 0x9
 1428 03ef 94070000 		.4byte	.LASF71
 1429 03f3 09       		.byte	0x9
 1430 03f4 6201     		.2byte	0x162
ARM GAS  C:\Users\jo\AppData\Local\Temp\ccoMBxzN.s 			page 27


 1431 03f6 6D010000 		.4byte	0x16d
 1432 03fa 08       		.byte	0x8
 1433 03fb 09       		.uleb128 0x9
 1434 03fc 93050000 		.4byte	.LASF76
 1435 0400 09       		.byte	0x9
 1436 0401 6A01     		.2byte	0x16a
 1437 0403 6D010000 		.4byte	0x16d
 1438 0407 0C       		.byte	0xc
 1439 0408 00       		.byte	0
 1440 0409 03       		.uleb128 0x3
 1441 040a 4F000000 		.4byte	.LASF77
 1442 040e 08       		.byte	0x8
 1443 040f 66       		.byte	0x66
 1444 0410 14040000 		.4byte	0x414
 1445 0414 0F       		.uleb128 0xf
 1446 0415 84020000 		.4byte	.LASF78
 1447 0419 1404     		.2byte	0x414
 1448 041b 09       		.byte	0x9
 1449 041c 8401     		.2byte	0x184
 1450 041e 57040000 		.4byte	0x457
 1451 0422 09       		.uleb128 0x9
 1452 0423 4C080000 		.4byte	.LASF79
 1453 0427 09       		.byte	0x9
 1454 0428 8C01     		.2byte	0x18c
 1455 042a 80070000 		.4byte	0x780
 1456 042e 00       		.byte	0
 1457 042f 09       		.uleb128 0x9
 1458 0430 D8080000 		.4byte	.LASF80
 1459 0434 09       		.byte	0x9
 1460 0435 9101     		.2byte	0x191
 1461 0437 57010000 		.4byte	0x157
 1462 043b 04       		.byte	0x4
 1463 043c 09       		.uleb128 0x9
 1464 043d E2050000 		.4byte	.LASF81
 1465 0441 09       		.byte	0x9
 1466 0442 9501     		.2byte	0x195
 1467 0444 57010000 		.4byte	0x157
 1468 0448 08       		.byte	0x8
 1469 0449 09       		.uleb128 0x9
 1470 044a 19090000 		.4byte	.LASF82
 1471 044e 09       		.byte	0x9
 1472 044f 9B01     		.2byte	0x19b
 1473 0451 48060000 		.4byte	0x648
 1474 0455 0C       		.byte	0xc
 1475 0456 00       		.byte	0
 1476 0457 03       		.uleb128 0x3
 1477 0458 C0030000 		.4byte	.LASF83
 1478 045c 08       		.byte	0x8
 1479 045d 6B       		.byte	0x6b
 1480 045e 62040000 		.4byte	0x462
 1481 0462 0F       		.uleb128 0xf
 1482 0463 BE010000 		.4byte	.LASF84
 1483 0467 D805     		.2byte	0x5d8
 1484 0469 09       		.byte	0x9
 1485 046a A401     		.2byte	0x1a4
 1486 046c CF040000 		.4byte	0x4cf
 1487 0470 09       		.uleb128 0x9
ARM GAS  C:\Users\jo\AppData\Local\Temp\ccoMBxzN.s 			page 28


 1488 0471 E0080000 		.4byte	.LASF85
 1489 0475 09       		.byte	0x9
 1490 0476 A801     		.2byte	0x1a8
 1491 0478 DD020000 		.4byte	0x2dd
 1492 047c 00       		.byte	0
 1493 047d 09       		.uleb128 0x9
 1494 047e AF010000 		.4byte	.LASF86
 1495 0482 09       		.byte	0x9
 1496 0483 AC01     		.2byte	0x1ac
 1497 0485 BC030000 		.4byte	0x3bc
 1498 0489 1C       		.byte	0x1c
 1499 048a 08       		.uleb128 0x8
 1500 048b 64626700 		.ascii	"dbg\000"
 1501 048f 09       		.byte	0x9
 1502 0490 B001     		.2byte	0x1b0
 1503 0492 09040000 		.4byte	0x409
 1504 0496 2C       		.byte	0x2c
 1505 0497 10       		.uleb128 0x10
 1506 0498 CF000000 		.4byte	.LASF87
 1507 049c 09       		.byte	0x9
 1508 049d B401     		.2byte	0x1b4
 1509 049f 78010000 		.4byte	0x178
 1510 04a3 4004     		.2byte	0x440
 1511 04a5 11       		.uleb128 0x11
 1512 04a6 746D00   		.ascii	"tm\000"
 1513 04a9 09       		.byte	0x9
 1514 04aa B901     		.2byte	0x1b9
 1515 04ac 68060000 		.4byte	0x668
 1516 04b0 A004     		.2byte	0x4a0
 1517 04b2 10       		.uleb128 0x10
 1518 04b3 13060000 		.4byte	.LASF88
 1519 04b7 09       		.byte	0x9
 1520 04b8 BF01     		.2byte	0x1bf
 1521 04ba FA060000 		.4byte	0x6fa
 1522 04be A804     		.2byte	0x4a8
 1523 04c0 10       		.uleb128 0x10
 1524 04c1 C3020000 		.4byte	.LASF89
 1525 04c5 09       		.byte	0x9
 1526 04c6 C501     		.2byte	0x1c5
 1527 04c8 85070000 		.4byte	0x785
 1528 04cc E004     		.2byte	0x4e0
 1529 04ce 00       		.byte	0
 1530 04cf 04       		.uleb128 0x4
 1531 04d0 04       		.byte	0x4
 1532 04d1 07       		.byte	0x7
 1533 04d2 46050000 		.4byte	.LASF90
 1534 04d6 03       		.uleb128 0x3
 1535 04d7 69020000 		.4byte	.LASF91
 1536 04db 0A       		.byte	0xa
 1537 04dc 85       		.byte	0x85
 1538 04dd 60030000 		.4byte	0x360
 1539 04e1 03       		.uleb128 0x3
 1540 04e2 F2040000 		.4byte	.LASF92
 1541 04e6 0A       		.byte	0xa
 1542 04e7 8D       		.byte	0x8d
 1543 04e8 EF000000 		.4byte	0xef
 1544 04ec 06       		.uleb128 0x6
ARM GAS  C:\Users\jo\AppData\Local\Temp\ccoMBxzN.s 			page 29


 1545 04ed 6D080000 		.4byte	.LASF93
 1546 04f1 04       		.byte	0x4
 1547 04f2 0A       		.byte	0xa
 1548 04f3 A9       		.byte	0xa9
 1549 04f4 05050000 		.4byte	0x505
 1550 04f8 12       		.uleb128 0x12
 1551 04f9 72313300 		.ascii	"r13\000"
 1552 04fd 0A       		.byte	0xa
 1553 04fe AA       		.byte	0xaa
 1554 04ff 80050000 		.4byte	0x580
 1555 0503 00       		.byte	0
 1556 0504 00       		.byte	0
 1557 0505 06       		.uleb128 0x6
 1558 0506 3B000000 		.4byte	.LASF94
 1559 050a 24       		.byte	0x24
 1560 050b 0B       		.byte	0xb
 1561 050c F4       		.byte	0xf4
 1562 050d 80050000 		.4byte	0x580
 1563 0511 08       		.uleb128 0x8
 1564 0512 723400   		.ascii	"r4\000"
 1565 0515 0B       		.byte	0xb
 1566 0516 0701     		.2byte	0x107
 1567 0518 D6040000 		.4byte	0x4d6
 1568 051c 00       		.byte	0
 1569 051d 08       		.uleb128 0x8
 1570 051e 723500   		.ascii	"r5\000"
 1571 0521 0B       		.byte	0xb
 1572 0522 0801     		.2byte	0x108
 1573 0524 D6040000 		.4byte	0x4d6
 1574 0528 04       		.byte	0x4
 1575 0529 08       		.uleb128 0x8
 1576 052a 723600   		.ascii	"r6\000"
 1577 052d 0B       		.byte	0xb
 1578 052e 0901     		.2byte	0x109
 1579 0530 D6040000 		.4byte	0x4d6
 1580 0534 08       		.byte	0x8
 1581 0535 08       		.uleb128 0x8
 1582 0536 723700   		.ascii	"r7\000"
 1583 0539 0B       		.byte	0xb
 1584 053a 0A01     		.2byte	0x10a
 1585 053c D6040000 		.4byte	0x4d6
 1586 0540 0C       		.byte	0xc
 1587 0541 08       		.uleb128 0x8
 1588 0542 723800   		.ascii	"r8\000"
 1589 0545 0B       		.byte	0xb
 1590 0546 0B01     		.2byte	0x10b
 1591 0548 D6040000 		.4byte	0x4d6
 1592 054c 10       		.byte	0x10
 1593 054d 08       		.uleb128 0x8
 1594 054e 723900   		.ascii	"r9\000"
 1595 0551 0B       		.byte	0xb
 1596 0552 0C01     		.2byte	0x10c
 1597 0554 D6040000 		.4byte	0x4d6
 1598 0558 14       		.byte	0x14
 1599 0559 08       		.uleb128 0x8
 1600 055a 72313000 		.ascii	"r10\000"
 1601 055e 0B       		.byte	0xb
ARM GAS  C:\Users\jo\AppData\Local\Temp\ccoMBxzN.s 			page 30


 1602 055f 0D01     		.2byte	0x10d
 1603 0561 D6040000 		.4byte	0x4d6
 1604 0565 18       		.byte	0x18
 1605 0566 08       		.uleb128 0x8
 1606 0567 72313100 		.ascii	"r11\000"
 1607 056b 0B       		.byte	0xb
 1608 056c 0E01     		.2byte	0x10e
 1609 056e D6040000 		.4byte	0x4d6
 1610 0572 1C       		.byte	0x1c
 1611 0573 08       		.uleb128 0x8
 1612 0574 6C7200   		.ascii	"lr\000"
 1613 0577 0B       		.byte	0xb
 1614 0578 0F01     		.2byte	0x10f
 1615 057a D6040000 		.4byte	0x4d6
 1616 057e 20       		.byte	0x20
 1617 057f 00       		.byte	0
 1618 0580 0B       		.uleb128 0xb
 1619 0581 04       		.byte	0x4
 1620 0582 05050000 		.4byte	0x505
 1621 0586 03       		.uleb128 0x3
 1622 0587 6D050000 		.4byte	.LASF95
 1623 058b 0C       		.byte	0xc
 1624 058c 28       		.byte	0x28
 1625 058d 91050000 		.4byte	0x591
 1626 0591 06       		.uleb128 0x6
 1627 0592 0D020000 		.4byte	.LASF96
 1628 0596 04       		.byte	0x4
 1629 0597 0D       		.byte	0xd
 1630 0598 00       		.byte	0
 1631 0599 A8050000 		.4byte	0x5a8
 1632 059d 13       		.uleb128 0x13
 1633 059e 68080000 		.4byte	.LASF119
 1634 05a2 60030000 		.4byte	0x360
 1635 05a6 00       		.byte	0
 1636 05a7 00       		.byte	0
 1637 05a8 04       		.uleb128 0x4
 1638 05a9 01       		.byte	0x1
 1639 05aa 08       		.byte	0x8
 1640 05ab C5070000 		.4byte	.LASF97
 1641 05af 0B       		.uleb128 0xb
 1642 05b0 04       		.byte	0x4
 1643 05b1 B5050000 		.4byte	0x5b5
 1644 05b5 14       		.uleb128 0x14
 1645 05b6 A8050000 		.4byte	0x5a8
 1646 05ba 15       		.uleb128 0x15
 1647 05bb 10       		.byte	0x10
 1648 05bc 0E       		.byte	0xe
 1649 05bd 57       		.byte	0x57
 1650 05be F3050000 		.4byte	0x5f3
 1651 05c2 07       		.uleb128 0x7
 1652 05c3 0D000000 		.4byte	.LASF98
 1653 05c7 0E       		.byte	0xe
 1654 05c8 5B       		.byte	0x5b
 1655 05c9 6D010000 		.4byte	0x16d
 1656 05cd 00       		.byte	0
 1657 05ce 07       		.uleb128 0x7
 1658 05cf F5010000 		.4byte	.LASF99
ARM GAS  C:\Users\jo\AppData\Local\Temp\ccoMBxzN.s 			page 31


 1659 05d3 0E       		.byte	0xe
 1660 05d4 5F       		.byte	0x5f
 1661 05d5 F3050000 		.4byte	0x5f3
 1662 05d9 04       		.byte	0x4
 1663 05da 07       		.uleb128 0x7
 1664 05db 3F090000 		.4byte	.LASF100
 1665 05df 0E       		.byte	0xe
 1666 05e0 63       		.byte	0x63
 1667 05e1 60030000 		.4byte	0x360
 1668 05e5 08       		.byte	0x8
 1669 05e6 07       		.uleb128 0x7
 1670 05e7 AE000000 		.4byte	.LASF101
 1671 05eb 0E       		.byte	0xe
 1672 05ec 67       		.byte	0x67
 1673 05ed C3000000 		.4byte	0xc3
 1674 05f1 0C       		.byte	0xc
 1675 05f2 00       		.byte	0
 1676 05f3 0B       		.uleb128 0xb
 1677 05f4 04       		.byte	0x4
 1678 05f5 78010000 		.4byte	0x178
 1679 05f9 03       		.uleb128 0x3
 1680 05fa 84050000 		.4byte	.LASF102
 1681 05fe 0E       		.byte	0xe
 1682 05ff 68       		.byte	0x68
 1683 0600 BA050000 		.4byte	0x5ba
 1684 0604 16       		.uleb128 0x16
 1685 0605 0804     		.2byte	0x408
 1686 0607 0E       		.byte	0xe
 1687 0608 6D       		.byte	0x6d
 1688 0609 32060000 		.4byte	0x632
 1689 060d 07       		.uleb128 0x7
 1690 060e 45020000 		.4byte	.LASF103
 1691 0612 0E       		.byte	0xe
 1692 0613 71       		.byte	0x71
 1693 0614 37000000 		.4byte	0x37
 1694 0618 00       		.byte	0
 1695 0619 07       		.uleb128 0x7
 1696 061a 66050000 		.4byte	.LASF104
 1697 061e 0E       		.byte	0xe
 1698 061f 75       		.byte	0x75
 1699 0620 32060000 		.4byte	0x632
 1700 0624 04       		.byte	0x4
 1701 0625 07       		.uleb128 0x7
 1702 0626 2A060000 		.4byte	.LASF105
 1703 062a 0E       		.byte	0xe
 1704 062b 79       		.byte	0x79
 1705 062c 38060000 		.4byte	0x638
 1706 0630 08       		.byte	0x8
 1707 0631 00       		.byte	0
 1708 0632 0B       		.uleb128 0xb
 1709 0633 04       		.byte	0x4
 1710 0634 F9050000 		.4byte	0x5f9
 1711 0638 17       		.uleb128 0x17
 1712 0639 F9050000 		.4byte	0x5f9
 1713 063d 48060000 		.4byte	0x648
 1714 0641 18       		.uleb128 0x18
 1715 0642 CF040000 		.4byte	0x4cf
ARM GAS  C:\Users\jo\AppData\Local\Temp\ccoMBxzN.s 			page 32


 1716 0646 3F       		.byte	0x3f
 1717 0647 00       		.byte	0
 1718 0648 03       		.uleb128 0x3
 1719 0649 9F050000 		.4byte	.LASF106
 1720 064d 0E       		.byte	0xe
 1721 064e 7A       		.byte	0x7a
 1722 064f 04060000 		.4byte	0x604
 1723 0653 15       		.uleb128 0x15
 1724 0654 04       		.byte	0x4
 1725 0655 0F       		.byte	0xf
 1726 0656 38       		.byte	0x38
 1727 0657 68060000 		.4byte	0x668
 1728 065b 07       		.uleb128 0x7
 1729 065c 56080000 		.4byte	.LASF107
 1730 0660 0F       		.byte	0xf
 1731 0661 3C       		.byte	0x3c
 1732 0662 FF000000 		.4byte	0xff
 1733 0666 00       		.byte	0
 1734 0667 00       		.byte	0
 1735 0668 03       		.uleb128 0x3
 1736 0669 C8050000 		.4byte	.LASF108
 1737 066d 0F       		.byte	0xf
 1738 066e 3D       		.byte	0x3d
 1739 066f 53060000 		.4byte	0x653
 1740 0673 15       		.uleb128 0x15
 1741 0674 18       		.byte	0x18
 1742 0675 0F       		.byte	0xf
 1743 0676 48       		.byte	0x48
 1744 0677 B6060000 		.4byte	0x6b6
 1745 067b 07       		.uleb128 0x7
 1746 067c 0C080000 		.4byte	.LASF109
 1747 0680 0F       		.byte	0xf
 1748 0681 49       		.byte	0x49
 1749 0682 FF000000 		.4byte	0xff
 1750 0686 00       		.byte	0
 1751 0687 07       		.uleb128 0x7
 1752 0688 63000000 		.4byte	.LASF110
 1753 068c 0F       		.byte	0xf
 1754 068d 4A       		.byte	0x4a
 1755 068e FF000000 		.4byte	0xff
 1756 0692 04       		.byte	0x4
 1757 0693 07       		.uleb128 0x7
 1758 0694 B4030000 		.4byte	.LASF111
 1759 0698 0F       		.byte	0xf
 1760 0699 4B       		.byte	0x4b
 1761 069a FF000000 		.4byte	0xff
 1762 069e 08       		.byte	0x8
 1763 069f 12       		.uleb128 0x12
 1764 06a0 6E00     		.ascii	"n\000"
 1765 06a2 0F       		.byte	0xf
 1766 06a3 4C       		.byte	0x4c
 1767 06a4 62010000 		.4byte	0x162
 1768 06a8 0C       		.byte	0xc
 1769 06a9 07       		.uleb128 0x7
 1770 06aa 08060000 		.4byte	.LASF112
 1771 06ae 0F       		.byte	0xf
 1772 06af 4D       		.byte	0x4d
ARM GAS  C:\Users\jo\AppData\Local\Temp\ccoMBxzN.s 			page 33


 1773 06b0 0A010000 		.4byte	0x10a
 1774 06b4 10       		.byte	0x10
 1775 06b5 00       		.byte	0
 1776 06b6 03       		.uleb128 0x3
 1777 06b7 69000000 		.4byte	.LASF113
 1778 06bb 0F       		.byte	0xf
 1779 06bc 4E       		.byte	0x4e
 1780 06bd 73060000 		.4byte	0x673
 1781 06c1 15       		.uleb128 0x15
 1782 06c2 38       		.byte	0x38
 1783 06c3 10       		.byte	0x10
 1784 06c4 38       		.byte	0x38
 1785 06c5 FA060000 		.4byte	0x6fa
 1786 06c9 07       		.uleb128 0x7
 1787 06ca 5A030000 		.4byte	.LASF114
 1788 06ce 10       		.byte	0x10
 1789 06cf 39       		.byte	0x39
 1790 06d0 62010000 		.4byte	0x162
 1791 06d4 00       		.byte	0
 1792 06d5 07       		.uleb128 0x7
 1793 06d6 60060000 		.4byte	.LASF115
 1794 06da 10       		.byte	0x10
 1795 06db 3A       		.byte	0x3a
 1796 06dc 62010000 		.4byte	0x162
 1797 06e0 04       		.byte	0x4
 1798 06e1 07       		.uleb128 0x7
 1799 06e2 2C090000 		.4byte	.LASF116
 1800 06e6 10       		.byte	0x10
 1801 06e7 3B       		.byte	0x3b
 1802 06e8 B6060000 		.4byte	0x6b6
 1803 06ec 08       		.byte	0x8
 1804 06ed 07       		.uleb128 0x7
 1805 06ee E3030000 		.4byte	.LASF117
 1806 06f2 10       		.byte	0x10
 1807 06f3 3D       		.byte	0x3d
 1808 06f4 B6060000 		.4byte	0x6b6
 1809 06f8 20       		.byte	0x20
 1810 06f9 00       		.byte	0
 1811 06fa 03       		.uleb128 0x3
 1812 06fb 80030000 		.4byte	.LASF118
 1813 06ff 10       		.byte	0x10
 1814 0700 3F       		.byte	0x3f
 1815 0701 C1060000 		.4byte	0x6c1
 1816 0705 19       		.uleb128 0x19
 1817 0706 04       		.byte	0x4
 1818 0707 09       		.byte	0x9
 1819 0708 F6       		.byte	0xf6
 1820 0709 3D070000 		.4byte	0x73d
 1821 070d 1A       		.uleb128 0x1a
 1822 070e 21000000 		.4byte	.LASF120
 1823 0712 09       		.byte	0x9
 1824 0713 FD       		.byte	0xfd
 1825 0714 41010000 		.4byte	0x141
 1826 0718 1B       		.uleb128 0x1b
 1827 0719 B7000000 		.4byte	.LASF121
 1828 071d 09       		.byte	0x9
 1829 071e 0401     		.2byte	0x104
ARM GAS  C:\Users\jo\AppData\Local\Temp\ccoMBxzN.s 			page 34


 1830 0720 41010000 		.4byte	0x141
 1831 0724 1B       		.uleb128 0x1b
 1832 0725 FE080000 		.4byte	.LASF122
 1833 0729 09       		.byte	0x9
 1834 072a 0B01     		.2byte	0x10b
 1835 072c 60030000 		.4byte	0x360
 1836 0730 1B       		.uleb128 0x1b
 1837 0731 EB060000 		.4byte	.LASF123
 1838 0735 09       		.byte	0x9
 1839 0736 1201     		.2byte	0x112
 1840 0738 4C010000 		.4byte	0x14c
 1841 073c 00       		.byte	0
 1842 073d 0B       		.uleb128 0xb
 1843 073e 04       		.byte	0x4
 1844 073f E1040000 		.4byte	0x4e1
 1845 0743 06       		.uleb128 0x6
 1846 0744 53060000 		.4byte	.LASF124
 1847 0748 10       		.byte	0x10
 1848 0749 11       		.byte	0x11
 1849 074a 39       		.byte	0x39
 1850 074b 74070000 		.4byte	0x774
 1851 074f 07       		.uleb128 0x7
 1852 0750 85060000 		.4byte	.LASF125
 1853 0754 11       		.byte	0x11
 1854 0755 3A       		.byte	0x3a
 1855 0756 AD020000 		.4byte	0x2ad
 1856 075a 00       		.byte	0
 1857 075b 07       		.uleb128 0x7
 1858 075c 37090000 		.4byte	.LASF126
 1859 0760 11       		.byte	0x11
 1860 0761 3C       		.byte	0x3c
 1861 0762 F3050000 		.4byte	0x5f3
 1862 0766 08       		.byte	0x8
 1863 0767 07       		.uleb128 0x7
 1864 0768 11080000 		.4byte	.LASF127
 1865 076c 11       		.byte	0x11
 1866 076d 3E       		.byte	0x3e
 1867 076e B5070000 		.4byte	0x7b5
 1868 0772 0C       		.byte	0xc
 1869 0773 00       		.byte	0
 1870 0774 0B       		.uleb128 0xb
 1871 0775 04       		.byte	0x4
 1872 0776 43070000 		.4byte	0x743
 1873 077a 0B       		.uleb128 0xb
 1874 077b 04       		.byte	0x4
 1875 077c 62030000 		.4byte	0x362
 1876 0780 05       		.uleb128 0x5
 1877 0781 AF050000 		.4byte	0x5af
 1878 0785 17       		.uleb128 0x17
 1879 0786 E1040000 		.4byte	0x4e1
 1880 078a 95070000 		.4byte	0x795
 1881 078e 18       		.uleb128 0x18
 1882 078f CF040000 		.4byte	0x4cf
 1883 0793 1E       		.byte	0x1e
 1884 0794 00       		.byte	0
 1885 0795 0B       		.uleb128 0xb
 1886 0796 04       		.byte	0x4
ARM GAS  C:\Users\jo\AppData\Local\Temp\ccoMBxzN.s 			page 35


 1887 0797 9B070000 		.4byte	0x79b
 1888 079b 1C       		.uleb128 0x1c
 1889 079c 41010000 		.4byte	0x141
 1890 07a0 AA070000 		.4byte	0x7aa
 1891 07a4 0D       		.uleb128 0xd
 1892 07a5 60030000 		.4byte	0x360
 1893 07a9 00       		.byte	0
 1894 07aa 03       		.uleb128 0x3
 1895 07ab 99020000 		.4byte	.LASF128
 1896 07af 11       		.byte	0x11
 1897 07b0 34       		.byte	0x34
 1898 07b1 43070000 		.4byte	0x743
 1899 07b5 0B       		.uleb128 0xb
 1900 07b6 04       		.byte	0x4
 1901 07b7 AA070000 		.4byte	0x7aa
 1902 07bb 0B       		.uleb128 0xb
 1903 07bc 04       		.byte	0x4
 1904 07bd C3000000 		.4byte	0xc3
 1905 07c1 06       		.uleb128 0x6
 1906 07c2 74070000 		.4byte	.LASF129
 1907 07c6 10       		.byte	0x10
 1908 07c7 12       		.byte	0x12
 1909 07c8 40       		.byte	0x40
 1910 07c9 FE070000 		.4byte	0x7fe
 1911 07cd 07       		.uleb128 0x7
 1912 07ce 1E050000 		.4byte	.LASF130
 1913 07d2 12       		.byte	0x12
 1914 07d3 41       		.byte	0x41
 1915 07d4 22080000 		.4byte	0x822
 1916 07d8 00       		.byte	0
 1917 07d9 07       		.uleb128 0x7
 1918 07da C0070000 		.4byte	.LASF131
 1919 07de 12       		.byte	0x12
 1920 07df 41       		.byte	0x41
 1921 07e0 41080000 		.4byte	0x841
 1922 07e4 04       		.byte	0x4
 1923 07e5 12       		.uleb128 0x12
 1924 07e6 70757400 		.ascii	"put\000"
 1925 07ea 12       		.byte	0x12
 1926 07eb 41       		.byte	0x41
 1927 07ec 5B080000 		.4byte	0x85b
 1928 07f0 08       		.byte	0x8
 1929 07f1 12       		.uleb128 0x12
 1930 07f2 67657400 		.ascii	"get\000"
 1931 07f6 12       		.byte	0x12
 1932 07f7 41       		.byte	0x41
 1933 07f8 95070000 		.4byte	0x795
 1934 07fc 0C       		.byte	0xc
 1935 07fd 00       		.byte	0
 1936 07fe 1C       		.uleb128 0x1c
 1937 07ff 2C000000 		.4byte	0x2c
 1938 0803 17080000 		.4byte	0x817
 1939 0807 0D       		.uleb128 0xd
 1940 0808 60030000 		.4byte	0x360
 1941 080c 0D       		.uleb128 0xd
 1942 080d 17080000 		.4byte	0x817
 1943 0811 0D       		.uleb128 0xd
ARM GAS  C:\Users\jo\AppData\Local\Temp\ccoMBxzN.s 			page 36


 1944 0812 2C000000 		.4byte	0x2c
 1945 0816 00       		.byte	0
 1946 0817 0B       		.uleb128 0xb
 1947 0818 04       		.byte	0x4
 1948 0819 1D080000 		.4byte	0x81d
 1949 081d 14       		.uleb128 0x14
 1950 081e C3000000 		.4byte	0xc3
 1951 0822 0B       		.uleb128 0xb
 1952 0823 04       		.byte	0x4
 1953 0824 FE070000 		.4byte	0x7fe
 1954 0828 1C       		.uleb128 0x1c
 1955 0829 2C000000 		.4byte	0x2c
 1956 082d 41080000 		.4byte	0x841
 1957 0831 0D       		.uleb128 0xd
 1958 0832 60030000 		.4byte	0x360
 1959 0836 0D       		.uleb128 0xd
 1960 0837 BB070000 		.4byte	0x7bb
 1961 083b 0D       		.uleb128 0xd
 1962 083c 2C000000 		.4byte	0x2c
 1963 0840 00       		.byte	0
 1964 0841 0B       		.uleb128 0xb
 1965 0842 04       		.byte	0x4
 1966 0843 28080000 		.4byte	0x828
 1967 0847 1C       		.uleb128 0x1c
 1968 0848 41010000 		.4byte	0x141
 1969 084c 5B080000 		.4byte	0x85b
 1970 0850 0D       		.uleb128 0xd
 1971 0851 60030000 		.4byte	0x360
 1972 0855 0D       		.uleb128 0xd
 1973 0856 C3000000 		.4byte	0xc3
 1974 085a 00       		.byte	0
 1975 085b 0B       		.uleb128 0xb
 1976 085c 04       		.byte	0x4
 1977 085d 47080000 		.4byte	0x847
 1978 0861 15       		.uleb128 0x15
 1979 0862 04       		.byte	0x4
 1980 0863 12       		.byte	0x12
 1981 0864 49       		.byte	0x49
 1982 0865 76080000 		.4byte	0x876
 1983 0869 12       		.uleb128 0x12
 1984 086a 766D7400 		.ascii	"vmt\000"
 1985 086e 12       		.byte	0x12
 1986 086f 4B       		.byte	0x4b
 1987 0870 76080000 		.4byte	0x876
 1988 0874 00       		.byte	0
 1989 0875 00       		.byte	0
 1990 0876 0B       		.uleb128 0xb
 1991 0877 04       		.byte	0x4
 1992 0878 7C080000 		.4byte	0x87c
 1993 087c 14       		.uleb128 0x14
 1994 087d C1070000 		.4byte	0x7c1
 1995 0881 03       		.uleb128 0x3
 1996 0882 A1020000 		.4byte	.LASF132
 1997 0886 12       		.byte	0x12
 1998 0887 4D       		.byte	0x4d
 1999 0888 61080000 		.4byte	0x861
 2000 088c 04       		.uleb128 0x4
ARM GAS  C:\Users\jo\AppData\Local\Temp\ccoMBxzN.s 			page 37


 2001 088d 01       		.byte	0x1
 2002 088e 02       		.byte	0x2
 2003 088f 69060000 		.4byte	.LASF133
 2004 0893 06       		.uleb128 0x6
 2005 0894 E9070000 		.4byte	.LASF134
 2006 0898 10       		.byte	0x10
 2007 0899 13       		.byte	0x13
 2008 089a 2E       		.byte	0x2e
 2009 089b D0080000 		.4byte	0x8d0
 2010 089f 07       		.uleb128 0x7
 2011 08a0 1E050000 		.4byte	.LASF130
 2012 08a4 13       		.byte	0x13
 2013 08a5 2F       		.byte	0x2f
 2014 08a6 22080000 		.4byte	0x822
 2015 08aa 00       		.byte	0
 2016 08ab 07       		.uleb128 0x7
 2017 08ac C0070000 		.4byte	.LASF131
 2018 08b0 13       		.byte	0x13
 2019 08b1 2F       		.byte	0x2f
 2020 08b2 41080000 		.4byte	0x841
 2021 08b6 04       		.byte	0x4
 2022 08b7 12       		.uleb128 0x12
 2023 08b8 70757400 		.ascii	"put\000"
 2024 08bc 13       		.byte	0x13
 2025 08bd 2F       		.byte	0x2f
 2026 08be 5B080000 		.4byte	0x85b
 2027 08c2 08       		.byte	0x8
 2028 08c3 12       		.uleb128 0x12
 2029 08c4 67657400 		.ascii	"get\000"
 2030 08c8 13       		.byte	0x13
 2031 08c9 2F       		.byte	0x2f
 2032 08ca 95070000 		.4byte	0x795
 2033 08ce 0C       		.byte	0xc
 2034 08cf 00       		.byte	0
 2035 08d0 15       		.uleb128 0x15
 2036 08d1 04       		.byte	0x4
 2037 08d2 13       		.byte	0x13
 2038 08d3 39       		.byte	0x39
 2039 08d4 E5080000 		.4byte	0x8e5
 2040 08d8 12       		.uleb128 0x12
 2041 08d9 766D7400 		.ascii	"vmt\000"
 2042 08dd 13       		.byte	0x13
 2043 08de 3B       		.byte	0x3b
 2044 08df E5080000 		.4byte	0x8e5
 2045 08e3 00       		.byte	0
 2046 08e4 00       		.byte	0
 2047 08e5 0B       		.uleb128 0xb
 2048 08e6 04       		.byte	0x4
 2049 08e7 EB080000 		.4byte	0x8eb
 2050 08eb 14       		.uleb128 0x14
 2051 08ec 93080000 		.4byte	0x893
 2052 08f0 03       		.uleb128 0x3
 2053 08f1 20060000 		.4byte	.LASF135
 2054 08f5 13       		.byte	0x13
 2055 08f6 3D       		.byte	0x3d
 2056 08f7 D0080000 		.4byte	0x8d0
 2057 08fb 03       		.uleb128 0x3
ARM GAS  C:\Users\jo\AppData\Local\Temp\ccoMBxzN.s 			page 38


 2058 08fc 47000000 		.4byte	.LASF136
 2059 0900 0C       		.byte	0xc
 2060 0901 62       		.byte	0x62
 2061 0902 86050000 		.4byte	0x586
 2062 0906 03       		.uleb128 0x3
 2063 0907 FF020000 		.4byte	.LASF137
 2064 090b 14       		.byte	0x14
 2065 090c 3D       		.byte	0x3d
 2066 090d C3000000 		.4byte	0xc3
 2067 0911 03       		.uleb128 0x3
 2068 0912 4A070000 		.4byte	.LASF138
 2069 0916 14       		.byte	0x14
 2070 0917 3E       		.byte	0x3e
 2071 0918 B8000000 		.4byte	0xb8
 2072 091c 03       		.uleb128 0x3
 2073 091d 8B080000 		.4byte	.LASF139
 2074 0921 14       		.byte	0x14
 2075 0922 3F       		.byte	0x3f
 2076 0923 CE000000 		.4byte	0xce
 2077 0927 03       		.uleb128 0x3
 2078 0928 3F030000 		.4byte	.LASF140
 2079 092c 14       		.byte	0x14
 2080 092d 41       		.byte	0x41
 2081 092e E4000000 		.4byte	0xe4
 2082 0932 03       		.uleb128 0x3
 2083 0933 12040000 		.4byte	.LASF141
 2084 0937 15       		.byte	0x15
 2085 0938 2F       		.byte	0x2f
 2086 0939 11090000 		.4byte	0x911
 2087 093d 1D       		.uleb128 0x1d
 2088 093e 01       		.byte	0x1
 2089 093f 16       		.byte	0x16
 2090 0940 32       		.byte	0x32
 2091 0941 5E090000 		.4byte	0x95e
 2092 0945 1E       		.uleb128 0x1e
 2093 0946 CC030000 		.4byte	.LASF142
 2094 094a 00       		.sleb128 0
 2095 094b 1E       		.uleb128 0x1e
 2096 094c D1010000 		.4byte	.LASF143
 2097 0950 01       		.sleb128 1
 2098 0951 1E       		.uleb128 0x1e
 2099 0952 08050000 		.4byte	.LASF144
 2100 0956 02       		.sleb128 2
 2101 0957 1E       		.uleb128 0x1e
 2102 0958 4F070000 		.4byte	.LASF145
 2103 095c 03       		.sleb128 3
 2104 095d 00       		.byte	0
 2105 095e 03       		.uleb128 0x3
 2106 095f FD040000 		.4byte	.LASF146
 2107 0963 16       		.byte	0x16
 2108 0964 37       		.byte	0x37
 2109 0965 3D090000 		.4byte	0x93d
 2110 0969 1D       		.uleb128 0x1d
 2111 096a 01       		.byte	0x1
 2112 096b 16       		.byte	0x16
 2113 096c 39       		.byte	0x39
 2114 096d 8A090000 		.4byte	0x98a
ARM GAS  C:\Users\jo\AppData\Local\Temp\ccoMBxzN.s 			page 39


 2115 0971 1E       		.uleb128 0x1e
 2116 0972 1A070000 		.4byte	.LASF147
 2117 0976 00       		.sleb128 0
 2118 0977 1E       		.uleb128 0x1e
 2119 0978 B9050000 		.4byte	.LASF148
 2120 097c 01       		.sleb128 1
 2121 097d 1E       		.uleb128 0x1e
 2122 097e EC010000 		.4byte	.LASF149
 2123 0982 02       		.sleb128 2
 2124 0983 1E       		.uleb128 0x1e
 2125 0984 D9010000 		.4byte	.LASF150
 2126 0988 03       		.sleb128 3
 2127 0989 00       		.byte	0
 2128 098a 03       		.uleb128 0x3
 2129 098b 15030000 		.4byte	.LASF151
 2130 098f 16       		.byte	0x16
 2131 0990 3E       		.byte	0x3e
 2132 0991 69090000 		.4byte	0x969
 2133 0995 06       		.uleb128 0x6
 2134 0996 08000000 		.4byte	.LASF152
 2135 099a 10       		.byte	0x10
 2136 099b 16       		.byte	0x16
 2137 099c 4F       		.byte	0x4f
 2138 099d F6090000 		.4byte	0x9f6
 2139 09a1 07       		.uleb128 0x7
 2140 09a2 1C000000 		.4byte	.LASF153
 2141 09a6 16       		.byte	0x16
 2142 09a7 51       		.byte	0x51
 2143 09a8 F6090000 		.4byte	0x9f6
 2144 09ac 00       		.byte	0
 2145 09ad 07       		.uleb128 0x7
 2146 09ae 7C050000 		.4byte	.LASF154
 2147 09b2 16       		.byte	0x16
 2148 09b3 54       		.byte	0x54
 2149 09b4 60030000 		.4byte	0x360
 2150 09b8 04       		.byte	0x4
 2151 09b9 07       		.uleb128 0x7
 2152 09ba B6010000 		.4byte	.LASF155
 2153 09be 16       		.byte	0x16
 2154 09bf 5D       		.byte	0x5d
 2155 09c0 1C090000 		.4byte	0x91c
 2156 09c4 08       		.byte	0x8
 2157 09c5 12       		.uleb128 0x12
 2158 09c6 6C656E00 		.ascii	"len\000"
 2159 09ca 16       		.byte	0x16
 2160 09cb 60       		.byte	0x60
 2161 09cc 1C090000 		.4byte	0x91c
 2162 09d0 0A       		.byte	0xa
 2163 09d1 07       		.uleb128 0x7
 2164 09d2 5E000000 		.4byte	.LASF156
 2165 09d6 16       		.byte	0x16
 2166 09d7 63       		.byte	0x63
 2167 09d8 06090000 		.4byte	0x906
 2168 09dc 0C       		.byte	0xc
 2169 09dd 07       		.uleb128 0x7
 2170 09de F8080000 		.4byte	.LASF157
 2171 09e2 16       		.byte	0x16
ARM GAS  C:\Users\jo\AppData\Local\Temp\ccoMBxzN.s 			page 40


 2172 09e3 66       		.byte	0x66
 2173 09e4 06090000 		.4byte	0x906
 2174 09e8 0D       		.byte	0xd
 2175 09e9 12       		.uleb128 0x12
 2176 09ea 72656600 		.ascii	"ref\000"
 2177 09ee 16       		.byte	0x16
 2178 09ef 6D       		.byte	0x6d
 2179 09f0 1C090000 		.4byte	0x91c
 2180 09f4 0E       		.byte	0xe
 2181 09f5 00       		.byte	0
 2182 09f6 0B       		.uleb128 0xb
 2183 09f7 04       		.byte	0x4
 2184 09f8 95090000 		.4byte	0x995
 2185 09fc 06       		.uleb128 0x6
 2186 09fd B1050000 		.4byte	.LASF158
 2187 0a01 04       		.byte	0x4
 2188 0a02 17       		.byte	0x17
 2189 0a03 2C       		.byte	0x2c
 2190 0a04 150A0000 		.4byte	0xa15
 2191 0a08 07       		.uleb128 0x7
 2192 0a09 AA010000 		.4byte	.LASF159
 2193 0a0d 17       		.byte	0x17
 2194 0a0e 2D       		.byte	0x2d
 2195 0a0f 27090000 		.4byte	0x927
 2196 0a13 00       		.byte	0
 2197 0a14 00       		.byte	0
 2198 0a15 03       		.uleb128 0x3
 2199 0a16 2D050000 		.4byte	.LASF160
 2200 0a1a 17       		.byte	0x17
 2201 0a1b 40       		.byte	0x40
 2202 0a1c FC090000 		.4byte	0x9fc
 2203 0a20 06       		.uleb128 0x6
 2204 0a21 D5060000 		.4byte	.LASF161
 2205 0a25 10       		.byte	0x10
 2206 0a26 18       		.byte	0x18
 2207 0a27 30       		.byte	0x30
 2208 0a28 5B0A0000 		.4byte	0xa5b
 2209 0a2c 12       		.uleb128 0x12
 2210 0a2d 7000     		.ascii	"p\000"
 2211 0a2f 18       		.byte	0x18
 2212 0a30 31       		.byte	0x31
 2213 0a31 F6090000 		.4byte	0x9f6
 2214 0a35 00       		.byte	0
 2215 0a36 12       		.uleb128 0x12
 2216 0a37 70747200 		.ascii	"ptr\000"
 2217 0a3b 18       		.byte	0x18
 2218 0a3c 31       		.byte	0x31
 2219 0a3d F6090000 		.4byte	0x9f6
 2220 0a41 04       		.byte	0x4
 2221 0a42 07       		.uleb128 0x7
 2222 0a43 AA010000 		.4byte	.LASF159
 2223 0a47 18       		.byte	0x18
 2224 0a48 32       		.byte	0x32
 2225 0a49 150A0000 		.4byte	0xa15
 2226 0a4d 08       		.byte	0x8
 2227 0a4e 07       		.uleb128 0x7
 2228 0a4f 94020000 		.4byte	.LASF162
ARM GAS  C:\Users\jo\AppData\Local\Temp\ccoMBxzN.s 			page 41


 2229 0a53 18       		.byte	0x18
 2230 0a54 33       		.byte	0x33
 2231 0a55 1C090000 		.4byte	0x91c
 2232 0a59 0C       		.byte	0xc
 2233 0a5a 00       		.byte	0
 2234 0a5b 1D       		.uleb128 0x1d
 2235 0a5c 01       		.byte	0x1
 2236 0a5d 19       		.byte	0x19
 2237 0a5e 2B       		.byte	0x2b
 2238 0a5f B80A0000 		.4byte	0xab8
 2239 0a63 1E       		.uleb128 0x1e
 2240 0a64 17020000 		.4byte	.LASF163
 2241 0a68 00       		.sleb128 0
 2242 0a69 1E       		.uleb128 0x1e
 2243 0a6a 60030000 		.4byte	.LASF164
 2244 0a6e 01       		.sleb128 1
 2245 0a6f 1E       		.uleb128 0x1e
 2246 0a70 55020000 		.4byte	.LASF165
 2247 0a74 02       		.sleb128 2
 2248 0a75 1E       		.uleb128 0x1e
 2249 0a76 DA000000 		.4byte	.LASF166
 2250 0a7a 03       		.sleb128 3
 2251 0a7b 1E       		.uleb128 0x1e
 2252 0a7c D8020000 		.4byte	.LASF167
 2253 0a80 04       		.sleb128 4
 2254 0a81 1E       		.uleb128 0x1e
 2255 0a82 3B070000 		.4byte	.LASF168
 2256 0a86 05       		.sleb128 5
 2257 0a87 1E       		.uleb128 0x1e
 2258 0a88 D2070000 		.4byte	.LASF169
 2259 0a8c 06       		.sleb128 6
 2260 0a8d 1E       		.uleb128 0x1e
 2261 0a8e F6070000 		.4byte	.LASF170
 2262 0a92 07       		.sleb128 7
 2263 0a93 1E       		.uleb128 0x1e
 2264 0a94 AD070000 		.4byte	.LASF171
 2265 0a98 08       		.sleb128 8
 2266 0a99 1E       		.uleb128 0x1e
 2267 0a9a 99030000 		.4byte	.LASF172
 2268 0a9e 09       		.sleb128 9
 2269 0a9f 1E       		.uleb128 0x1e
 2270 0aa0 63070000 		.4byte	.LASF173
 2271 0aa4 0A       		.sleb128 10
 2272 0aa5 1E       		.uleb128 0x1e
 2273 0aa6 2A030000 		.4byte	.LASF174
 2274 0aaa 0B       		.sleb128 11
 2275 0aab 1E       		.uleb128 0x1e
 2276 0aac C0000000 		.4byte	.LASF175
 2277 0ab0 0C       		.sleb128 12
 2278 0ab1 1E       		.uleb128 0x1e
 2279 0ab2 24050000 		.4byte	.LASF176
 2280 0ab6 0D       		.sleb128 13
 2281 0ab7 00       		.byte	0
 2282 0ab8 0B       		.uleb128 0xb
 2283 0ab9 04       		.byte	0x4
 2284 0aba BE0A0000 		.4byte	0xabe
 2285 0abe 1F       		.uleb128 0x1f
ARM GAS  C:\Users\jo\AppData\Local\Temp\ccoMBxzN.s 			page 42


 2286 0abf 20       		.uleb128 0x20
 2287 0ac0 12050000 		.4byte	.LASF204
 2288 0ac4 03       		.byte	0x3
 2289 0ac5 9C01     		.2byte	0x19c
 2290 0ac7 03       		.byte	0x3
 2291 0ac8 D90A0000 		.4byte	0xad9
 2292 0acc 21       		.uleb128 0x21
 2293 0acd 23070000 		.4byte	.LASF177
 2294 0ad1 03       		.byte	0x3
 2295 0ad2 9C01     		.2byte	0x19c
 2296 0ad4 AF050000 		.4byte	0x5af
 2297 0ad8 00       		.byte	0
 2298 0ad9 22       		.uleb128 0x22
 2299 0ada 68090000 		.4byte	.LASF205
 2300 0ade 01       		.byte	0x1
 2301 0adf 45       		.byte	0x45
 2302 0ae0 25000000 		.4byte	0x25
 2303 0ae4 03       		.byte	0x3
 2304 0ae5 160B0000 		.4byte	0xb16
 2305 0ae9 23       		.uleb128 0x23
 2306 0aea 63687000 		.ascii	"chp\000"
 2307 0aee 01       		.byte	0x1
 2308 0aef 45       		.byte	0x45
 2309 0af0 160B0000 		.4byte	0xb16
 2310 0af4 23       		.uleb128 0x23
 2311 0af5 666D7400 		.ascii	"fmt\000"
 2312 0af9 01       		.byte	0x1
 2313 0afa 45       		.byte	0x45
 2314 0afb AF050000 		.4byte	0x5af
 2315 0aff 24       		.uleb128 0x24
 2316 0b00 25       		.uleb128 0x25
 2317 0b01 617000   		.ascii	"ap\000"
 2318 0b04 01       		.byte	0x1
 2319 0b05 46       		.byte	0x46
 2320 0b06 FB080000 		.4byte	0x8fb
 2321 0b0a 26       		.uleb128 0x26
 2322 0b0b 93000000 		.4byte	.LASF178
 2323 0b0f 01       		.byte	0x1
 2324 0b10 47       		.byte	0x47
 2325 0b11 25000000 		.4byte	0x25
 2326 0b15 00       		.byte	0
 2327 0b16 0B       		.uleb128 0xb
 2328 0b17 04       		.byte	0x4
 2329 0b18 81080000 		.4byte	0x881
 2330 0b1c 27       		.uleb128 0x27
 2331 0b1d D90A0000 		.4byte	0xad9
 2332 0b21 00000000 		.4byte	.LFB265
 2333 0b25 28000000 		.4byte	.LFE265-.LFB265
 2334 0b29 01       		.uleb128 0x1
 2335 0b2a 9C       		.byte	0x9c
 2336 0b2b 7B0B0000 		.4byte	0xb7b
 2337 0b2f 28       		.uleb128 0x28
 2338 0b30 E90A0000 		.4byte	0xae9
 2339 0b34 00000000 		.4byte	.LLST0
 2340 0b38 29       		.uleb128 0x29
 2341 0b39 F40A0000 		.4byte	0xaf4
 2342 0b3d 02       		.uleb128 0x2
ARM GAS  C:\Users\jo\AppData\Local\Temp\ccoMBxzN.s 			page 43


 2343 0b3e 91       		.byte	0x91
 2344 0b3f 74       		.sleb128 -12
 2345 0b40 24       		.uleb128 0x24
 2346 0b41 2A       		.uleb128 0x2a
 2347 0b42 000B0000 		.4byte	0xb00
 2348 0b46 02       		.uleb128 0x2
 2349 0b47 91       		.byte	0x91
 2350 0b48 6C       		.sleb128 -20
 2351 0b49 2A       		.uleb128 0x2a
 2352 0b4a 0A0B0000 		.4byte	0xb0a
 2353 0b4e 01       		.uleb128 0x1
 2354 0b4f 50       		.byte	0x50
 2355 0b50 29       		.uleb128 0x29
 2356 0b51 F40A0000 		.4byte	0xaf4
 2357 0b55 06       		.uleb128 0x6
 2358 0b56 03       		.byte	0x3
 2359 0b57 00000000 		.4byte	.LC0
 2360 0b5b 9F       		.byte	0x9f
 2361 0b5c 2B       		.uleb128 0x2b
 2362 0b5d E90A0000 		.4byte	0xae9
 2363 0b61 2C       		.uleb128 0x2c
 2364 0b62 14000000 		.4byte	.LVL2
 2365 0b66 1B120000 		.4byte	0x121b
 2366 0b6a 2D       		.uleb128 0x2d
 2367 0b6b 01       		.uleb128 0x1
 2368 0b6c 52       		.byte	0x52
 2369 0b6d 02       		.uleb128 0x2
 2370 0b6e 91       		.byte	0x91
 2371 0b6f 60       		.sleb128 -32
 2372 0b70 2D       		.uleb128 0x2d
 2373 0b71 01       		.uleb128 0x1
 2374 0b72 51       		.byte	0x51
 2375 0b73 05       		.uleb128 0x5
 2376 0b74 03       		.byte	0x3
 2377 0b75 00000000 		.4byte	.LC0
 2378 0b79 00       		.byte	0
 2379 0b7a 00       		.byte	0
 2380 0b7b 2E       		.uleb128 0x2e
 2381 0b7c A3000000 		.4byte	.LASF179
 2382 0b80 02       		.byte	0x2
 2383 0b81 38       		.byte	0x38
 2384 0b82 AB0B0000 		.4byte	0xbab
 2385 0b86 00000000 		.4byte	.LFB256
 2386 0b8a 1C000000 		.4byte	.LFE256-.LFB256
 2387 0b8e 01       		.uleb128 0x1
 2388 0b8f 9C       		.byte	0x9c
 2389 0b90 AB0B0000 		.4byte	0xbab
 2390 0b94 2F       		.uleb128 0x2f
 2391 0b95 62756600 		.ascii	"buf\000"
 2392 0b99 02       		.byte	0x2
 2393 0b9a 3A       		.byte	0x3a
 2394 0b9b AB0B0000 		.4byte	0xbab
 2395 0b9f 01       		.uleb128 0x1
 2396 0ba0 50       		.byte	0x50
 2397 0ba1 30       		.uleb128 0x30
 2398 0ba2 0A000000 		.4byte	.LVL3
 2399 0ba6 3A120000 		.4byte	0x123a
ARM GAS  C:\Users\jo\AppData\Local\Temp\ccoMBxzN.s 			page 44


 2400 0baa 00       		.byte	0
 2401 0bab 0B       		.uleb128 0xb
 2402 0bac 04       		.byte	0x4
 2403 0bad 200A0000 		.4byte	0xa20
 2404 0bb1 31       		.uleb128 0x31
 2405 0bb2 C3080000 		.4byte	.LASF182
 2406 0bb6 02       		.byte	0x2
 2407 0bb7 57       		.byte	0x57
 2408 0bb8 00000000 		.4byte	.LFB257
 2409 0bbc 1A000000 		.4byte	.LFE257-.LFB257
 2410 0bc0 01       		.uleb128 0x1
 2411 0bc1 9C       		.byte	0x9c
 2412 0bc2 F00B0000 		.4byte	0xbf0
 2413 0bc6 32       		.uleb128 0x32
 2414 0bc7 62756600 		.ascii	"buf\000"
 2415 0bcb 02       		.byte	0x2
 2416 0bcc 57       		.byte	0x57
 2417 0bcd AB0B0000 		.4byte	0xbab
 2418 0bd1 21000000 		.4byte	.LLST1
 2419 0bd5 30       		.uleb128 0x30
 2420 0bd6 0E000000 		.4byte	.LVL6
 2421 0bda 4F120000 		.4byte	0x124f
 2422 0bde 33       		.uleb128 0x33
 2423 0bdf 18000000 		.4byte	.LVL8
 2424 0be3 64120000 		.4byte	0x1264
 2425 0be7 2D       		.uleb128 0x2d
 2426 0be8 01       		.uleb128 0x1
 2427 0be9 50       		.byte	0x50
 2428 0bea 03       		.uleb128 0x3
 2429 0beb F3       		.byte	0xf3
 2430 0bec 01       		.uleb128 0x1
 2431 0bed 50       		.byte	0x50
 2432 0bee 00       		.byte	0
 2433 0bef 00       		.byte	0
 2434 0bf0 2E       		.uleb128 0x2e
 2435 0bf1 B6020000 		.4byte	.LASF180
 2436 0bf5 02       		.byte	0x2
 2437 0bf6 6B       		.byte	0x6b
 2438 0bf7 60030000 		.4byte	0x360
 2439 0bfb 00000000 		.4byte	.LFB258
 2440 0bff 78000000 		.4byte	.LFE258-.LFB258
 2441 0c03 01       		.uleb128 0x1
 2442 0c04 9C       		.byte	0x9c
 2443 0c05 0E0D0000 		.4byte	0xd0e
 2444 0c09 32       		.uleb128 0x32
 2445 0c0a 62756600 		.ascii	"buf\000"
 2446 0c0e 02       		.byte	0x2
 2447 0c0f 6B       		.byte	0x6b
 2448 0c10 AB0B0000 		.4byte	0xbab
 2449 0c14 63000000 		.4byte	.LLST2
 2450 0c18 34       		.uleb128 0x34
 2451 0c19 05090000 		.4byte	.LASF181
 2452 0c1d 02       		.byte	0x2
 2453 0c1e 6B       		.byte	0x6b
 2454 0c1f 1C090000 		.4byte	0x91c
 2455 0c23 97000000 		.4byte	.LLST3
 2456 0c27 35       		.uleb128 0x35
ARM GAS  C:\Users\jo\AppData\Local\Temp\ccoMBxzN.s 			page 45


 2457 0c28 BF0A0000 		.4byte	0xabf
 2458 0c2c 3E000000 		.4byte	.LBB24
 2459 0c30 0A000000 		.4byte	.LBE24-.LBB24
 2460 0c34 02       		.byte	0x2
 2461 0c35 77       		.byte	0x77
 2462 0c36 570C0000 		.4byte	0xc57
 2463 0c3a 28       		.uleb128 0x28
 2464 0c3b CC0A0000 		.4byte	0xacc
 2465 0c3f D1000000 		.4byte	.LLST4
 2466 0c43 2C       		.uleb128 0x2c
 2467 0c44 44000000 		.4byte	.LVL15
 2468 0c48 75120000 		.4byte	0x1275
 2469 0c4c 2D       		.uleb128 0x2d
 2470 0c4d 01       		.uleb128 0x1
 2471 0c4e 50       		.byte	0x50
 2472 0c4f 05       		.uleb128 0x5
 2473 0c50 03       		.byte	0x3
 2474 0c51 70000000 		.4byte	.LC3
 2475 0c55 00       		.byte	0
 2476 0c56 00       		.byte	0
 2477 0c57 35       		.uleb128 0x35
 2478 0c58 BF0A0000 		.4byte	0xabf
 2479 0c5c 58000000 		.4byte	.LBB26
 2480 0c60 06000000 		.4byte	.LBE26-.LBB26
 2481 0c64 02       		.byte	0x2
 2482 0c65 6D       		.byte	0x6d
 2483 0c66 8A0C0000 		.4byte	0xc8a
 2484 0c6a 29       		.uleb128 0x29
 2485 0c6b CC0A0000 		.4byte	0xacc
 2486 0c6f 06       		.uleb128 0x6
 2487 0c70 03       		.byte	0x3
 2488 0c71 28000000 		.4byte	.LC1
 2489 0c75 9F       		.byte	0x9f
 2490 0c76 2C       		.uleb128 0x2c
 2491 0c77 5E000000 		.4byte	.LVL20
 2492 0c7b 75120000 		.4byte	0x1275
 2493 0c7f 2D       		.uleb128 0x2d
 2494 0c80 01       		.uleb128 0x1
 2495 0c81 50       		.byte	0x50
 2496 0c82 05       		.uleb128 0x5
 2497 0c83 03       		.byte	0x3
 2498 0c84 28000000 		.4byte	.LC1
 2499 0c88 00       		.byte	0
 2500 0c89 00       		.byte	0
 2501 0c8a 30       		.uleb128 0x30
 2502 0c8b 12000000 		.4byte	.LVL11
 2503 0c8f 4F120000 		.4byte	0x124f
 2504 0c93 36       		.uleb128 0x36
 2505 0c94 1C000000 		.4byte	.LVL12
 2506 0c98 86120000 		.4byte	0x1286
 2507 0c9c B10C0000 		.4byte	0xcb1
 2508 0ca0 2D       		.uleb128 0x2d
 2509 0ca1 01       		.uleb128 0x1
 2510 0ca2 52       		.byte	0x52
 2511 0ca3 01       		.uleb128 0x1
 2512 0ca4 30       		.byte	0x30
 2513 0ca5 2D       		.uleb128 0x2d
ARM GAS  C:\Users\jo\AppData\Local\Temp\ccoMBxzN.s 			page 46


 2514 0ca6 01       		.uleb128 0x1
 2515 0ca7 51       		.byte	0x51
 2516 0ca8 02       		.uleb128 0x2
 2517 0ca9 75       		.byte	0x75
 2518 0caa 00       		.sleb128 0
 2519 0cab 2D       		.uleb128 0x2d
 2520 0cac 01       		.uleb128 0x1
 2521 0cad 50       		.byte	0x50
 2522 0cae 01       		.uleb128 0x1
 2523 0caf 30       		.byte	0x30
 2524 0cb0 00       		.byte	0
 2525 0cb1 36       		.uleb128 0x36
 2526 0cb2 3E000000 		.4byte	.LVL14
 2527 0cb6 1C0B0000 		.4byte	0xb1c
 2528 0cba E10C0000 		.4byte	0xce1
 2529 0cbe 2D       		.uleb128 0x2d
 2530 0cbf 01       		.uleb128 0x1
 2531 0cc0 53       		.byte	0x53
 2532 0cc1 02       		.uleb128 0x2
 2533 0cc2 08       		.byte	0x8
 2534 0cc3 78       		.byte	0x78
 2535 0cc4 2D       		.uleb128 0x2d
 2536 0cc5 01       		.uleb128 0x1
 2537 0cc6 52       		.byte	0x52
 2538 0cc7 05       		.uleb128 0x5
 2539 0cc8 03       		.byte	0x3
 2540 0cc9 70000000 		.4byte	.LC3
 2541 0ccd 2D       		.uleb128 0x2d
 2542 0cce 01       		.uleb128 0x1
 2543 0ccf 51       		.byte	0x51
 2544 0cd0 05       		.uleb128 0x5
 2545 0cd1 03       		.byte	0x3
 2546 0cd2 00000000 		.4byte	.LC0
 2547 0cd6 2D       		.uleb128 0x2d
 2548 0cd7 02       		.uleb128 0x2
 2549 0cd8 7D       		.byte	0x7d
 2550 0cd9 00       		.sleb128 0
 2551 0cda 05       		.uleb128 0x5
 2552 0cdb 03       		.byte	0x3
 2553 0cdc 44000000 		.4byte	.LC2
 2554 0ce0 00       		.byte	0
 2555 0ce1 2C       		.uleb128 0x2c
 2556 0ce2 58000000 		.4byte	.LVL19
 2557 0ce6 1C0B0000 		.4byte	0xb1c
 2558 0cea 2D       		.uleb128 0x2d
 2559 0ceb 01       		.uleb128 0x1
 2560 0cec 53       		.byte	0x53
 2561 0ced 02       		.uleb128 0x2
 2562 0cee 08       		.byte	0x8
 2563 0cef 6D       		.byte	0x6d
 2564 0cf0 2D       		.uleb128 0x2d
 2565 0cf1 01       		.uleb128 0x1
 2566 0cf2 52       		.byte	0x52
 2567 0cf3 05       		.uleb128 0x5
 2568 0cf4 03       		.byte	0x3
 2569 0cf5 28000000 		.4byte	.LC1
 2570 0cf9 2D       		.uleb128 0x2d
ARM GAS  C:\Users\jo\AppData\Local\Temp\ccoMBxzN.s 			page 47


 2571 0cfa 01       		.uleb128 0x1
 2572 0cfb 51       		.byte	0x51
 2573 0cfc 05       		.uleb128 0x5
 2574 0cfd 03       		.byte	0x3
 2575 0cfe 00000000 		.4byte	.LC0
 2576 0d02 2D       		.uleb128 0x2d
 2577 0d03 02       		.uleb128 0x2
 2578 0d04 7D       		.byte	0x7d
 2579 0d05 00       		.sleb128 0
 2580 0d06 05       		.uleb128 0x5
 2581 0d07 03       		.byte	0x3
 2582 0d08 44000000 		.4byte	.LC2
 2583 0d0c 00       		.byte	0
 2584 0d0d 00       		.byte	0
 2585 0d0e 31       		.uleb128 0x31
 2586 0d0f 39020000 		.4byte	.LASF183
 2587 0d13 02       		.byte	0x2
 2588 0d14 83       		.byte	0x83
 2589 0d15 00000000 		.4byte	.LFB259
 2590 0d19 48000000 		.4byte	.LFE259-.LFB259
 2591 0d1d 01       		.uleb128 0x1
 2592 0d1e 9C       		.byte	0x9c
 2593 0d1f 9B0D0000 		.4byte	0xd9b
 2594 0d23 32       		.uleb128 0x32
 2595 0d24 62756600 		.ascii	"buf\000"
 2596 0d28 02       		.byte	0x2
 2597 0d29 83       		.byte	0x83
 2598 0d2a AB0B0000 		.4byte	0xbab
 2599 0d2e E9000000 		.4byte	.LLST5
 2600 0d32 37       		.uleb128 0x37
 2601 0d33 BF0A0000 		.4byte	0xabf
 2602 0d37 2A000000 		.4byte	.LBB28
 2603 0d3b 00000000 		.4byte	.Ldebug_ranges0+0
 2604 0d3f 02       		.byte	0x2
 2605 0d40 85       		.byte	0x85
 2606 0d41 650D0000 		.4byte	0xd65
 2607 0d45 29       		.uleb128 0x29
 2608 0d46 CC0A0000 		.4byte	0xacc
 2609 0d4a 06       		.uleb128 0x6
 2610 0d4b 03       		.byte	0x3
 2611 0d4c 94000000 		.4byte	.LC4
 2612 0d50 9F       		.byte	0x9f
 2613 0d51 33       		.uleb128 0x33
 2614 0d52 36000000 		.4byte	.LVL28
 2615 0d56 75120000 		.4byte	0x1275
 2616 0d5a 2D       		.uleb128 0x2d
 2617 0d5b 01       		.uleb128 0x1
 2618 0d5c 50       		.byte	0x50
 2619 0d5d 05       		.uleb128 0x5
 2620 0d5e 03       		.byte	0x3
 2621 0d5f 94000000 		.4byte	.LC4
 2622 0d63 00       		.byte	0
 2623 0d64 00       		.byte	0
 2624 0d65 30       		.uleb128 0x30
 2625 0d66 10000000 		.4byte	.LVL23
 2626 0d6a 4F120000 		.4byte	0x124f
 2627 0d6e 2C       		.uleb128 0x2c
ARM GAS  C:\Users\jo\AppData\Local\Temp\ccoMBxzN.s 			page 48


 2628 0d6f 2A000000 		.4byte	.LVL26
 2629 0d73 1C0B0000 		.4byte	0xb1c
 2630 0d77 2D       		.uleb128 0x2d
 2631 0d78 01       		.uleb128 0x1
 2632 0d79 53       		.byte	0x53
 2633 0d7a 02       		.uleb128 0x2
 2634 0d7b 08       		.byte	0x8
 2635 0d7c 85       		.byte	0x85
 2636 0d7d 2D       		.uleb128 0x2d
 2637 0d7e 01       		.uleb128 0x1
 2638 0d7f 52       		.byte	0x52
 2639 0d80 05       		.uleb128 0x5
 2640 0d81 03       		.byte	0x3
 2641 0d82 94000000 		.4byte	.LC4
 2642 0d86 2D       		.uleb128 0x2d
 2643 0d87 01       		.uleb128 0x1
 2644 0d88 51       		.byte	0x51
 2645 0d89 05       		.uleb128 0x5
 2646 0d8a 03       		.byte	0x3
 2647 0d8b 00000000 		.4byte	.LC0
 2648 0d8f 2D       		.uleb128 0x2d
 2649 0d90 02       		.uleb128 0x2
 2650 0d91 7D       		.byte	0x7d
 2651 0d92 00       		.sleb128 0
 2652 0d93 05       		.uleb128 0x5
 2653 0d94 03       		.byte	0x3
 2654 0d95 44000000 		.4byte	.LC2
 2655 0d99 00       		.byte	0
 2656 0d9a 00       		.byte	0
 2657 0d9b 2E       		.uleb128 0x2e
 2658 0d9c 1F030000 		.4byte	.LASF184
 2659 0da0 02       		.byte	0x2
 2660 0da1 96       		.byte	0x96
 2661 0da2 32090000 		.4byte	0x932
 2662 0da6 00000000 		.4byte	.LFB260
 2663 0daa 64000000 		.4byte	.LFE260-.LFB260
 2664 0dae 01       		.uleb128 0x1
 2665 0daf 9C       		.byte	0x9c
 2666 0db0 670E0000 		.4byte	0xe67
 2667 0db4 32       		.uleb128 0x32
 2668 0db5 62756600 		.ascii	"buf\000"
 2669 0db9 02       		.byte	0x2
 2670 0dba 96       		.byte	0x96
 2671 0dbb AB0B0000 		.4byte	0xbab
 2672 0dbf 2B010000 		.4byte	.LLST6
 2673 0dc3 34       		.uleb128 0x34
 2674 0dc4 CA070000 		.4byte	.LASF185
 2675 0dc8 02       		.byte	0x2
 2676 0dc9 96       		.byte	0x96
 2677 0dca B80A0000 		.4byte	0xab8
 2678 0dce 5F010000 		.4byte	.LLST7
 2679 0dd2 34       		.uleb128 0x34
 2680 0dd3 05090000 		.4byte	.LASF181
 2681 0dd7 02       		.byte	0x2
 2682 0dd8 96       		.byte	0x96
 2683 0dd9 1C090000 		.4byte	0x91c
 2684 0ddd AF010000 		.4byte	.LLST8
ARM GAS  C:\Users\jo\AppData\Local\Temp\ccoMBxzN.s 			page 49


 2685 0de1 35       		.uleb128 0x35
 2686 0de2 BF0A0000 		.4byte	0xabf
 2687 0de6 48000000 		.4byte	.LBB32
 2688 0dea 06000000 		.4byte	.LBE32-.LBB32
 2689 0dee 02       		.byte	0x2
 2690 0def 98       		.byte	0x98
 2691 0df0 140E0000 		.4byte	0xe14
 2692 0df4 29       		.uleb128 0x29
 2693 0df5 CC0A0000 		.4byte	0xacc
 2694 0df9 06       		.uleb128 0x6
 2695 0dfa 03       		.byte	0x3
 2696 0dfb B0000000 		.4byte	.LC5
 2697 0dff 9F       		.byte	0x9f
 2698 0e00 2C       		.uleb128 0x2c
 2699 0e01 4E000000 		.4byte	.LVL40
 2700 0e05 75120000 		.4byte	0x1275
 2701 0e09 2D       		.uleb128 0x2d
 2702 0e0a 01       		.uleb128 0x1
 2703 0e0b 50       		.byte	0x50
 2704 0e0c 05       		.uleb128 0x5
 2705 0e0d 03       		.byte	0x3
 2706 0e0e B0000000 		.4byte	.LC5
 2707 0e12 00       		.byte	0
 2708 0e13 00       		.byte	0
 2709 0e14 30       		.uleb128 0x30
 2710 0e15 14000000 		.4byte	.LVL31
 2711 0e19 4F120000 		.4byte	0x124f
 2712 0e1d 36       		.uleb128 0x36
 2713 0e1e 1E000000 		.4byte	.LVL32
 2714 0e22 86120000 		.4byte	0x1286
 2715 0e26 3A0E0000 		.4byte	0xe3a
 2716 0e2a 2D       		.uleb128 0x2d
 2717 0e2b 01       		.uleb128 0x1
 2718 0e2c 52       		.byte	0x52
 2719 0e2d 01       		.uleb128 0x1
 2720 0e2e 32       		.byte	0x32
 2721 0e2f 2D       		.uleb128 0x2d
 2722 0e30 01       		.uleb128 0x1
 2723 0e31 51       		.byte	0x51
 2724 0e32 01       		.uleb128 0x1
 2725 0e33 30       		.byte	0x30
 2726 0e34 2D       		.uleb128 0x2d
 2727 0e35 01       		.uleb128 0x1
 2728 0e36 50       		.byte	0x50
 2729 0e37 01       		.uleb128 0x1
 2730 0e38 30       		.byte	0x30
 2731 0e39 00       		.byte	0
 2732 0e3a 2C       		.uleb128 0x2c
 2733 0e3b 48000000 		.4byte	.LVL39
 2734 0e3f 1C0B0000 		.4byte	0xb1c
 2735 0e43 2D       		.uleb128 0x2d
 2736 0e44 01       		.uleb128 0x1
 2737 0e45 53       		.byte	0x53
 2738 0e46 02       		.uleb128 0x2
 2739 0e47 08       		.byte	0x8
 2740 0e48 98       		.byte	0x98
 2741 0e49 2D       		.uleb128 0x2d
ARM GAS  C:\Users\jo\AppData\Local\Temp\ccoMBxzN.s 			page 50


 2742 0e4a 01       		.uleb128 0x1
 2743 0e4b 52       		.byte	0x52
 2744 0e4c 05       		.uleb128 0x5
 2745 0e4d 03       		.byte	0x3
 2746 0e4e B0000000 		.4byte	.LC5
 2747 0e52 2D       		.uleb128 0x2d
 2748 0e53 01       		.uleb128 0x1
 2749 0e54 51       		.byte	0x51
 2750 0e55 05       		.uleb128 0x5
 2751 0e56 03       		.byte	0x3
 2752 0e57 00000000 		.4byte	.LC0
 2753 0e5b 2D       		.uleb128 0x2d
 2754 0e5c 02       		.uleb128 0x2
 2755 0e5d 7D       		.byte	0x7d
 2756 0e5e 00       		.sleb128 0
 2757 0e5f 05       		.uleb128 0x5
 2758 0e60 03       		.byte	0x3
 2759 0e61 44000000 		.4byte	.LC2
 2760 0e65 00       		.byte	0
 2761 0e66 00       		.byte	0
 2762 0e67 31       		.uleb128 0x31
 2763 0e68 FB010000 		.4byte	.LASF186
 2764 0e6c 02       		.byte	0x2
 2765 0e6d AE       		.byte	0xae
 2766 0e6e 00000000 		.4byte	.LFB261
 2767 0e72 68000000 		.4byte	.LFE261-.LFB261
 2768 0e76 01       		.uleb128 0x1
 2769 0e77 9C       		.byte	0x9c
 2770 0e78 5B0F0000 		.4byte	0xf5b
 2771 0e7c 34       		.uleb128 0x34
 2772 0e7d 08020000 		.4byte	.LASF187
 2773 0e81 02       		.byte	0x2
 2774 0e82 AE       		.byte	0xae
 2775 0e83 AB0B0000 		.4byte	0xbab
 2776 0e87 E9010000 		.4byte	.LLST9
 2777 0e8b 34       		.uleb128 0x34
 2778 0e8c 41050000 		.4byte	.LASF188
 2779 0e90 02       		.byte	0x2
 2780 0e91 AE       		.byte	0xae
 2781 0e92 AB0B0000 		.4byte	0xbab
 2782 0e96 4F020000 		.4byte	.LLST10
 2783 0e9a 37       		.uleb128 0x37
 2784 0e9b BF0A0000 		.4byte	0xabf
 2785 0e9f 34000000 		.4byte	.LBB34
 2786 0ea3 18000000 		.4byte	.Ldebug_ranges0+0x18
 2787 0ea7 02       		.byte	0x2
 2788 0ea8 B1       		.byte	0xb1
 2789 0ea9 C00E0000 		.4byte	0xec0
 2790 0ead 28       		.uleb128 0x28
 2791 0eae CC0A0000 		.4byte	0xacc
 2792 0eb2 C3020000 		.4byte	.LLST11
 2793 0eb6 38       		.uleb128 0x38
 2794 0eb7 40000000 		.4byte	.LVL52
 2795 0ebb 75120000 		.4byte	0x1275
 2796 0ebf 00       		.byte	0
 2797 0ec0 35       		.uleb128 0x35
 2798 0ec1 BF0A0000 		.4byte	0xabf
ARM GAS  C:\Users\jo\AppData\Local\Temp\ccoMBxzN.s 			page 51


 2799 0ec5 50000000 		.4byte	.LBB38
 2800 0ec9 18000000 		.4byte	.LBE38-.LBB38
 2801 0ecd 02       		.byte	0x2
 2802 0ece B0       		.byte	0xb0
 2803 0ecf E00E0000 		.4byte	0xee0
 2804 0ed3 29       		.uleb128 0x29
 2805 0ed4 CC0A0000 		.4byte	0xacc
 2806 0ed8 06       		.uleb128 0x6
 2807 0ed9 03       		.byte	0x3
 2808 0eda C8000000 		.4byte	.LC6
 2809 0ede 9F       		.byte	0x9f
 2810 0edf 00       		.byte	0
 2811 0ee0 30       		.uleb128 0x30
 2812 0ee1 14000000 		.4byte	.LVL44
 2813 0ee5 A5120000 		.4byte	0x12a5
 2814 0ee9 39       		.uleb128 0x39
 2815 0eea 24000000 		.4byte	.LVL46
 2816 0eee 64120000 		.4byte	0x1264
 2817 0ef2 FE0E0000 		.4byte	0xefe
 2818 0ef6 2D       		.uleb128 0x2d
 2819 0ef7 01       		.uleb128 0x1
 2820 0ef8 50       		.byte	0x50
 2821 0ef9 03       		.uleb128 0x3
 2822 0efa F3       		.byte	0xf3
 2823 0efb 01       		.uleb128 0x1
 2824 0efc 51       		.byte	0x51
 2825 0efd 00       		.byte	0
 2826 0efe 36       		.uleb128 0x36
 2827 0eff 34000000 		.4byte	.LVL49
 2828 0f03 1C0B0000 		.4byte	0xb1c
 2829 0f07 2E0F0000 		.4byte	0xf2e
 2830 0f0b 2D       		.uleb128 0x2d
 2831 0f0c 01       		.uleb128 0x1
 2832 0f0d 53       		.byte	0x53
 2833 0f0e 02       		.uleb128 0x2
 2834 0f0f 08       		.byte	0x8
 2835 0f10 B1       		.byte	0xb1
 2836 0f11 2D       		.uleb128 0x2d
 2837 0f12 01       		.uleb128 0x1
 2838 0f13 52       		.byte	0x52
 2839 0f14 05       		.uleb128 0x5
 2840 0f15 03       		.byte	0x3
 2841 0f16 E4000000 		.4byte	.LC7
 2842 0f1a 2D       		.uleb128 0x2d
 2843 0f1b 01       		.uleb128 0x1
 2844 0f1c 51       		.byte	0x51
 2845 0f1d 05       		.uleb128 0x5
 2846 0f1e 03       		.byte	0x3
 2847 0f1f 00000000 		.4byte	.LC0
 2848 0f23 2D       		.uleb128 0x2d
 2849 0f24 02       		.uleb128 0x2
 2850 0f25 7D       		.byte	0x7d
 2851 0f26 00       		.sleb128 0
 2852 0f27 05       		.uleb128 0x5
 2853 0f28 03       		.byte	0x3
 2854 0f29 44000000 		.4byte	.LC2
 2855 0f2d 00       		.byte	0
ARM GAS  C:\Users\jo\AppData\Local\Temp\ccoMBxzN.s 			page 52


 2856 0f2e 2C       		.uleb128 0x2c
 2857 0f2f 50000000 		.4byte	.LVL55
 2858 0f33 1C0B0000 		.4byte	0xb1c
 2859 0f37 2D       		.uleb128 0x2d
 2860 0f38 01       		.uleb128 0x1
 2861 0f39 53       		.byte	0x53
 2862 0f3a 02       		.uleb128 0x2
 2863 0f3b 08       		.byte	0x8
 2864 0f3c B0       		.byte	0xb0
 2865 0f3d 2D       		.uleb128 0x2d
 2866 0f3e 01       		.uleb128 0x1
 2867 0f3f 52       		.byte	0x52
 2868 0f40 05       		.uleb128 0x5
 2869 0f41 03       		.byte	0x3
 2870 0f42 C8000000 		.4byte	.LC6
 2871 0f46 2D       		.uleb128 0x2d
 2872 0f47 01       		.uleb128 0x1
 2873 0f48 51       		.byte	0x51
 2874 0f49 05       		.uleb128 0x5
 2875 0f4a 03       		.byte	0x3
 2876 0f4b 00000000 		.4byte	.LC0
 2877 0f4f 2D       		.uleb128 0x2d
 2878 0f50 02       		.uleb128 0x2
 2879 0f51 7D       		.byte	0x7d
 2880 0f52 00       		.sleb128 0
 2881 0f53 05       		.uleb128 0x5
 2882 0f54 03       		.byte	0x3
 2883 0f55 44000000 		.4byte	.LC2
 2884 0f59 00       		.byte	0
 2885 0f5a 00       		.byte	0
 2886 0f5b 2E       		.uleb128 0x2e
 2887 0f5c A7080000 		.4byte	.LASF189
 2888 0f60 02       		.byte	0x2
 2889 0f61 C1       		.byte	0xc1
 2890 0f62 32090000 		.4byte	0x932
 2891 0f66 00000000 		.4byte	.LFB262
 2892 0f6a 8C000000 		.4byte	.LFE262-.LFB262
 2893 0f6e 01       		.uleb128 0x1
 2894 0f6f 9C       		.byte	0x9c
 2895 0f70 C1100000 		.4byte	0x10c1
 2896 0f74 32       		.uleb128 0x32
 2897 0f75 62756600 		.ascii	"buf\000"
 2898 0f79 02       		.byte	0x2
 2899 0f7a C1       		.byte	0xc1
 2900 0f7b AB0B0000 		.4byte	0xbab
 2901 0f7f DB020000 		.4byte	.LLST12
 2902 0f83 34       		.uleb128 0x34
 2903 0f84 CA070000 		.4byte	.LASF185
 2904 0f88 02       		.byte	0x2
 2905 0f89 C1       		.byte	0xc1
 2906 0f8a C1100000 		.4byte	0x10c1
 2907 0f8e 60030000 		.4byte	.LLST13
 2908 0f92 32       		.uleb128 0x32
 2909 0f93 6C656E00 		.ascii	"len\000"
 2910 0f97 02       		.byte	0x2
 2911 0f98 C1       		.byte	0xc1
 2912 0f99 C7100000 		.4byte	0x10c7
ARM GAS  C:\Users\jo\AppData\Local\Temp\ccoMBxzN.s 			page 53


 2913 0f9d CC030000 		.4byte	.LLST14
 2914 0fa1 35       		.uleb128 0x35
 2915 0fa2 BF0A0000 		.4byte	0xabf
 2916 0fa6 36000000 		.4byte	.LBB40
 2917 0faa 06000000 		.4byte	.LBE40-.LBB40
 2918 0fae 02       		.byte	0x2
 2919 0faf C5       		.byte	0xc5
 2920 0fb0 D10F0000 		.4byte	0xfd1
 2921 0fb4 28       		.uleb128 0x28
 2922 0fb5 CC0A0000 		.4byte	0xacc
 2923 0fb9 38040000 		.4byte	.LLST15
 2924 0fbd 2C       		.uleb128 0x2c
 2925 0fbe 3C000000 		.4byte	.LVL65
 2926 0fc2 75120000 		.4byte	0x1275
 2927 0fc6 2D       		.uleb128 0x2d
 2928 0fc7 01       		.uleb128 0x1
 2929 0fc8 50       		.byte	0x50
 2930 0fc9 05       		.uleb128 0x5
 2931 0fca 03       		.byte	0x3
 2932 0fcb 3C010000 		.4byte	.LC10
 2933 0fcf 00       		.byte	0
 2934 0fd0 00       		.byte	0
 2935 0fd1 35       		.uleb128 0x35
 2936 0fd2 BF0A0000 		.4byte	0xabf
 2937 0fd6 50000000 		.4byte	.LBB42
 2938 0fda 06000000 		.4byte	.LBE42-.LBB42
 2939 0fde 02       		.byte	0x2
 2940 0fdf C4       		.byte	0xc4
 2941 0fe0 01100000 		.4byte	0x1001
 2942 0fe4 28       		.uleb128 0x28
 2943 0fe5 CC0A0000 		.4byte	0xacc
 2944 0fe9 50040000 		.4byte	.LLST16
 2945 0fed 2C       		.uleb128 0x2c
 2946 0fee 56000000 		.4byte	.LVL71
 2947 0ff2 75120000 		.4byte	0x1275
 2948 0ff6 2D       		.uleb128 0x2d
 2949 0ff7 01       		.uleb128 0x1
 2950 0ff8 50       		.byte	0x50
 2951 0ff9 05       		.uleb128 0x5
 2952 0ffa 03       		.byte	0x3
 2953 0ffb 1C010000 		.4byte	.LC9
 2954 0fff 00       		.byte	0
 2955 1000 00       		.byte	0
 2956 1001 35       		.uleb128 0x35
 2957 1002 BF0A0000 		.4byte	0xabf
 2958 1006 6A000000 		.4byte	.LBB44
 2959 100a 06000000 		.4byte	.LBE44-.LBB44
 2960 100e 02       		.byte	0x2
 2961 100f C3       		.byte	0xc3
 2962 1010 34100000 		.4byte	0x1034
 2963 1014 29       		.uleb128 0x29
 2964 1015 CC0A0000 		.4byte	0xacc
 2965 1019 06       		.uleb128 0x6
 2966 101a 03       		.byte	0x3
 2967 101b 00010000 		.4byte	.LC8
 2968 101f 9F       		.byte	0x9f
 2969 1020 2C       		.uleb128 0x2c
ARM GAS  C:\Users\jo\AppData\Local\Temp\ccoMBxzN.s 			page 54


 2970 1021 70000000 		.4byte	.LVL77
 2971 1025 75120000 		.4byte	0x1275
 2972 1029 2D       		.uleb128 0x2d
 2973 102a 01       		.uleb128 0x1
 2974 102b 50       		.byte	0x50
 2975 102c 05       		.uleb128 0x5
 2976 102d 03       		.byte	0x3
 2977 102e 00010000 		.4byte	.LC8
 2978 1032 00       		.byte	0
 2979 1033 00       		.byte	0
 2980 1034 36       		.uleb128 0x36
 2981 1035 36000000 		.4byte	.LVL64
 2982 1039 1C0B0000 		.4byte	0xb1c
 2983 103d 64100000 		.4byte	0x1064
 2984 1041 2D       		.uleb128 0x2d
 2985 1042 01       		.uleb128 0x1
 2986 1043 53       		.byte	0x53
 2987 1044 02       		.uleb128 0x2
 2988 1045 08       		.byte	0x8
 2989 1046 C5       		.byte	0xc5
 2990 1047 2D       		.uleb128 0x2d
 2991 1048 01       		.uleb128 0x1
 2992 1049 52       		.byte	0x52
 2993 104a 05       		.uleb128 0x5
 2994 104b 03       		.byte	0x3
 2995 104c 3C010000 		.4byte	.LC10
 2996 1050 2D       		.uleb128 0x2d
 2997 1051 01       		.uleb128 0x1
 2998 1052 51       		.byte	0x51
 2999 1053 05       		.uleb128 0x5
 3000 1054 03       		.byte	0x3
 3001 1055 00000000 		.4byte	.LC0
 3002 1059 2D       		.uleb128 0x2d
 3003 105a 02       		.uleb128 0x2
 3004 105b 7D       		.byte	0x7d
 3005 105c 00       		.sleb128 0
 3006 105d 05       		.uleb128 0x5
 3007 105e 03       		.byte	0x3
 3008 105f 44000000 		.4byte	.LC2
 3009 1063 00       		.byte	0
 3010 1064 36       		.uleb128 0x36
 3011 1065 50000000 		.4byte	.LVL70
 3012 1069 1C0B0000 		.4byte	0xb1c
 3013 106d 94100000 		.4byte	0x1094
 3014 1071 2D       		.uleb128 0x2d
 3015 1072 01       		.uleb128 0x1
 3016 1073 53       		.byte	0x53
 3017 1074 02       		.uleb128 0x2
 3018 1075 08       		.byte	0x8
 3019 1076 C4       		.byte	0xc4
 3020 1077 2D       		.uleb128 0x2d
 3021 1078 01       		.uleb128 0x1
 3022 1079 52       		.byte	0x52
 3023 107a 05       		.uleb128 0x5
 3024 107b 03       		.byte	0x3
 3025 107c 1C010000 		.4byte	.LC9
 3026 1080 2D       		.uleb128 0x2d
ARM GAS  C:\Users\jo\AppData\Local\Temp\ccoMBxzN.s 			page 55


 3027 1081 01       		.uleb128 0x1
 3028 1082 51       		.byte	0x51
 3029 1083 05       		.uleb128 0x5
 3030 1084 03       		.byte	0x3
 3031 1085 00000000 		.4byte	.LC0
 3032 1089 2D       		.uleb128 0x2d
 3033 108a 02       		.uleb128 0x2
 3034 108b 7D       		.byte	0x7d
 3035 108c 00       		.sleb128 0
 3036 108d 05       		.uleb128 0x5
 3037 108e 03       		.byte	0x3
 3038 108f 44000000 		.4byte	.LC2
 3039 1093 00       		.byte	0
 3040 1094 2C       		.uleb128 0x2c
 3041 1095 6A000000 		.4byte	.LVL76
 3042 1099 1C0B0000 		.4byte	0xb1c
 3043 109d 2D       		.uleb128 0x2d
 3044 109e 01       		.uleb128 0x1
 3045 109f 53       		.byte	0x53
 3046 10a0 02       		.uleb128 0x2
 3047 10a1 08       		.byte	0x8
 3048 10a2 C3       		.byte	0xc3
 3049 10a3 2D       		.uleb128 0x2d
 3050 10a4 01       		.uleb128 0x1
 3051 10a5 52       		.byte	0x52
 3052 10a6 05       		.uleb128 0x5
 3053 10a7 03       		.byte	0x3
 3054 10a8 00010000 		.4byte	.LC8
 3055 10ac 2D       		.uleb128 0x2d
 3056 10ad 01       		.uleb128 0x1
 3057 10ae 51       		.byte	0x51
 3058 10af 05       		.uleb128 0x5
 3059 10b0 03       		.byte	0x3
 3060 10b1 00000000 		.4byte	.LC0
 3061 10b5 2D       		.uleb128 0x2d
 3062 10b6 02       		.uleb128 0x2
 3063 10b7 7D       		.byte	0x7d
 3064 10b8 00       		.sleb128 0
 3065 10b9 05       		.uleb128 0x5
 3066 10ba 03       		.byte	0x3
 3067 10bb 44000000 		.4byte	.LC2
 3068 10bf 00       		.byte	0
 3069 10c0 00       		.byte	0
 3070 10c1 0B       		.uleb128 0xb
 3071 10c2 04       		.byte	0x4
 3072 10c3 60030000 		.4byte	0x360
 3073 10c7 0B       		.uleb128 0xb
 3074 10c8 04       		.byte	0x4
 3075 10c9 1C090000 		.4byte	0x91c
 3076 10cd 2E       		.uleb128 0x2e
 3077 10ce 4E030000 		.4byte	.LASF190
 3078 10d2 02       		.byte	0x2
 3079 10d3 DA       		.byte	0xda
 3080 10d4 11090000 		.4byte	0x911
 3081 10d8 00000000 		.4byte	.LFB263
 3082 10dc 50000000 		.4byte	.LFE263-.LFB263
 3083 10e0 01       		.uleb128 0x1
ARM GAS  C:\Users\jo\AppData\Local\Temp\ccoMBxzN.s 			page 56


 3084 10e1 9C       		.byte	0x9c
 3085 10e2 55110000 		.4byte	0x1155
 3086 10e6 32       		.uleb128 0x32
 3087 10e7 62756600 		.ascii	"buf\000"
 3088 10eb 02       		.byte	0x2
 3089 10ec DA       		.byte	0xda
 3090 10ed AB0B0000 		.4byte	0xbab
 3091 10f1 68040000 		.4byte	.LLST17
 3092 10f5 35       		.uleb128 0x35
 3093 10f6 BF0A0000 		.4byte	0xabf
 3094 10fa 2E000000 		.4byte	.LBB46
 3095 10fe 06000000 		.4byte	.LBE46-.LBB46
 3096 1102 02       		.byte	0x2
 3097 1103 DC       		.byte	0xdc
 3098 1104 28110000 		.4byte	0x1128
 3099 1108 29       		.uleb128 0x29
 3100 1109 CC0A0000 		.4byte	0xacc
 3101 110d 06       		.uleb128 0x6
 3102 110e 03       		.byte	0x3
 3103 110f 94000000 		.4byte	.LC4
 3104 1113 9F       		.byte	0x9f
 3105 1114 2C       		.uleb128 0x2c
 3106 1115 34000000 		.4byte	.LVL85
 3107 1119 75120000 		.4byte	0x1275
 3108 111d 2D       		.uleb128 0x2d
 3109 111e 01       		.uleb128 0x1
 3110 111f 50       		.byte	0x50
 3111 1120 05       		.uleb128 0x5
 3112 1121 03       		.byte	0x3
 3113 1122 94000000 		.4byte	.LC4
 3114 1126 00       		.byte	0
 3115 1127 00       		.byte	0
 3116 1128 2C       		.uleb128 0x2c
 3117 1129 2E000000 		.4byte	.LVL84
 3118 112d 1C0B0000 		.4byte	0xb1c
 3119 1131 2D       		.uleb128 0x2d
 3120 1132 01       		.uleb128 0x1
 3121 1133 53       		.byte	0x53
 3122 1134 02       		.uleb128 0x2
 3123 1135 08       		.byte	0x8
 3124 1136 DC       		.byte	0xdc
 3125 1137 2D       		.uleb128 0x2d
 3126 1138 01       		.uleb128 0x1
 3127 1139 52       		.byte	0x52
 3128 113a 05       		.uleb128 0x5
 3129 113b 03       		.byte	0x3
 3130 113c 94000000 		.4byte	.LC4
 3131 1140 2D       		.uleb128 0x2d
 3132 1141 01       		.uleb128 0x1
 3133 1142 51       		.byte	0x51
 3134 1143 05       		.uleb128 0x5
 3135 1144 03       		.byte	0x3
 3136 1145 00000000 		.4byte	.LC0
 3137 1149 2D       		.uleb128 0x2d
 3138 114a 02       		.uleb128 0x2
 3139 114b 7D       		.byte	0x7d
 3140 114c 00       		.sleb128 0
ARM GAS  C:\Users\jo\AppData\Local\Temp\ccoMBxzN.s 			page 57


 3141 114d 05       		.uleb128 0x5
 3142 114e 03       		.byte	0x3
 3143 114f 44000000 		.4byte	.LC2
 3144 1153 00       		.byte	0
 3145 1154 00       		.byte	0
 3146 1155 31       		.uleb128 0x31
 3147 1156 2C020000 		.4byte	.LASF191
 3148 115a 02       		.byte	0x2
 3149 115b EF       		.byte	0xef
 3150 115c 00000000 		.4byte	.LFB264
 3151 1160 38000000 		.4byte	.LFE264-.LFB264
 3152 1164 01       		.uleb128 0x1
 3153 1165 9C       		.byte	0x9c
 3154 1166 D9110000 		.4byte	0x11d9
 3155 116a 32       		.uleb128 0x32
 3156 116b 62756600 		.ascii	"buf\000"
 3157 116f 02       		.byte	0x2
 3158 1170 EF       		.byte	0xef
 3159 1171 AB0B0000 		.4byte	0xbab
 3160 1175 BB040000 		.4byte	.LLST18
 3161 1179 37       		.uleb128 0x37
 3162 117a BF0A0000 		.4byte	0xabf
 3163 117e 1C000000 		.4byte	.LBB48
 3164 1182 30000000 		.4byte	.Ldebug_ranges0+0x30
 3165 1186 02       		.byte	0x2
 3166 1187 F1       		.byte	0xf1
 3167 1188 AC110000 		.4byte	0x11ac
 3168 118c 29       		.uleb128 0x29
 3169 118d CC0A0000 		.4byte	0xacc
 3170 1191 06       		.uleb128 0x6
 3171 1192 03       		.byte	0x3
 3172 1193 94000000 		.4byte	.LC4
 3173 1197 9F       		.byte	0x9f
 3174 1198 33       		.uleb128 0x33
 3175 1199 28000000 		.4byte	.LVL89
 3176 119d 75120000 		.4byte	0x1275
 3177 11a1 2D       		.uleb128 0x2d
 3178 11a2 01       		.uleb128 0x1
 3179 11a3 50       		.byte	0x50
 3180 11a4 05       		.uleb128 0x5
 3181 11a5 03       		.byte	0x3
 3182 11a6 94000000 		.4byte	.LC4
 3183 11aa 00       		.byte	0
 3184 11ab 00       		.byte	0
 3185 11ac 2C       		.uleb128 0x2c
 3186 11ad 1C000000 		.4byte	.LVL88
 3187 11b1 1C0B0000 		.4byte	0xb1c
 3188 11b5 2D       		.uleb128 0x2d
 3189 11b6 01       		.uleb128 0x1
 3190 11b7 53       		.byte	0x53
 3191 11b8 02       		.uleb128 0x2
 3192 11b9 08       		.byte	0x8
 3193 11ba F1       		.byte	0xf1
 3194 11bb 2D       		.uleb128 0x2d
 3195 11bc 01       		.uleb128 0x1
 3196 11bd 52       		.byte	0x52
 3197 11be 05       		.uleb128 0x5
ARM GAS  C:\Users\jo\AppData\Local\Temp\ccoMBxzN.s 			page 58


 3198 11bf 03       		.byte	0x3
 3199 11c0 94000000 		.4byte	.LC4
 3200 11c4 2D       		.uleb128 0x2d
 3201 11c5 01       		.uleb128 0x1
 3202 11c6 51       		.byte	0x51
 3203 11c7 05       		.uleb128 0x5
 3204 11c8 03       		.byte	0x3
 3205 11c9 00000000 		.4byte	.LC0
 3206 11cd 2D       		.uleb128 0x2d
 3207 11ce 02       		.uleb128 0x2
 3208 11cf 7D       		.byte	0x7d
 3209 11d0 00       		.sleb128 0
 3210 11d1 05       		.uleb128 0x5
 3211 11d2 03       		.byte	0x3
 3212 11d3 44000000 		.4byte	.LC2
 3213 11d7 00       		.byte	0
 3214 11d8 00       		.byte	0
 3215 11d9 3A       		.uleb128 0x3a
 3216 11da 06010000 		.4byte	.LASF192
 3217 11de 1A       		.byte	0x1a
 3218 11df A706     		.2byte	0x6a7
 3219 11e1 FA000000 		.4byte	0xfa
 3220 11e5 3B       		.uleb128 0x3b
 3221 11e6 636800   		.ascii	"ch\000"
 3222 11e9 09       		.byte	0x9
 3223 11ea EB01     		.2byte	0x1eb
 3224 11ec 57040000 		.4byte	0x457
 3225 11f0 3C       		.uleb128 0x3c
 3226 11f1 9E080000 		.4byte	.LASF193
 3227 11f5 14       		.byte	0x14
 3228 11f6 3B       		.byte	0x3b
 3229 11f7 F0080000 		.4byte	0x8f0
 3230 11fb 17       		.uleb128 0x17
 3231 11fc 1C090000 		.4byte	0x91c
 3232 1200 0B120000 		.4byte	0x120b
 3233 1204 18       		.uleb128 0x18
 3234 1205 CF040000 		.4byte	0x4cf
 3235 1209 0C       		.byte	0xc
 3236 120a 00       		.byte	0
 3237 120b 3C       		.uleb128 0x3c
 3238 120c 5D080000 		.4byte	.LASF194
 3239 1210 19       		.byte	0x19
 3240 1211 4F       		.byte	0x4f
 3241 1212 16120000 		.4byte	0x1216
 3242 1216 14       		.uleb128 0x14
 3243 1217 FB110000 		.4byte	0x11fb
 3244 121b 3D       		.uleb128 0x3d
 3245 121c EE080000 		.4byte	.LASF195
 3246 1220 01       		.byte	0x1
 3247 1221 28       		.byte	0x28
 3248 1222 25000000 		.4byte	0x25
 3249 1226 3A120000 		.4byte	0x123a
 3250 122a 0D       		.uleb128 0xd
 3251 122b 160B0000 		.4byte	0xb16
 3252 122f 0D       		.uleb128 0xd
 3253 1230 AF050000 		.4byte	0x5af
 3254 1234 0D       		.uleb128 0xd
ARM GAS  C:\Users\jo\AppData\Local\Temp\ccoMBxzN.s 			page 59


 3255 1235 FB080000 		.4byte	0x8fb
 3256 1239 00       		.byte	0
 3257 123a 3D       		.uleb128 0x3d
 3258 123b 13070000 		.4byte	.LASF196
 3259 123f 1B       		.byte	0x1b
 3260 1240 60       		.byte	0x60
 3261 1241 60030000 		.4byte	0x360
 3262 1245 4F120000 		.4byte	0x124f
 3263 1249 0D       		.uleb128 0xd
 3264 124a 2C000000 		.4byte	0x2c
 3265 124e 00       		.byte	0
 3266 124f 3D       		.uleb128 0x3d
 3267 1250 F9060000 		.4byte	.LASF197
 3268 1254 16       		.byte	0x16
 3269 1255 9B       		.byte	0x9b
 3270 1256 06090000 		.4byte	0x906
 3271 125a 64120000 		.4byte	0x1264
 3272 125e 0D       		.uleb128 0xd
 3273 125f F6090000 		.4byte	0x9f6
 3274 1263 00       		.byte	0
 3275 1264 3E       		.uleb128 0x3e
 3276 1265 13010000 		.4byte	.LASF198
 3277 1269 1B       		.byte	0x1b
 3278 126a 55       		.byte	0x55
 3279 126b 75120000 		.4byte	0x1275
 3280 126f 0D       		.uleb128 0xd
 3281 1270 60030000 		.4byte	0x360
 3282 1274 00       		.byte	0
 3283 1275 3E       		.uleb128 0x3e
 3284 1276 7A020000 		.4byte	.LASF199
 3285 127a 1C       		.byte	0x1c
 3286 127b E6       		.byte	0xe6
 3287 127c 86120000 		.4byte	0x1286
 3288 1280 0D       		.uleb128 0xd
 3289 1281 AF050000 		.4byte	0x5af
 3290 1285 00       		.byte	0
 3291 1286 3D       		.uleb128 0x3d
 3292 1287 41080000 		.4byte	.LASF200
 3293 128b 16       		.byte	0x16
 3294 128c 92       		.byte	0x92
 3295 128d F6090000 		.4byte	0x9f6
 3296 1291 A5120000 		.4byte	0x12a5
 3297 1295 0D       		.uleb128 0xd
 3298 1296 5E090000 		.4byte	0x95e
 3299 129a 0D       		.uleb128 0xd
 3300 129b 1C090000 		.4byte	0x91c
 3301 129f 0D       		.uleb128 0xd
 3302 12a0 8A090000 		.4byte	0x98a
 3303 12a4 00       		.byte	0
 3304 12a5 3F       		.uleb128 0x3f
 3305 12a6 D9050000 		.4byte	.LASF206
 3306 12aa 16       		.byte	0x16
 3307 12ab 9D       		.byte	0x9d
 3308 12ac 0D       		.uleb128 0xd
 3309 12ad F6090000 		.4byte	0x9f6
 3310 12b1 0D       		.uleb128 0xd
 3311 12b2 F6090000 		.4byte	0x9f6
ARM GAS  C:\Users\jo\AppData\Local\Temp\ccoMBxzN.s 			page 60


 3312 12b6 00       		.byte	0
 3313 12b7 00       		.byte	0
 3314              		.section	.debug_abbrev,"",%progbits
 3315              	.Ldebug_abbrev0:
 3316 0000 01       		.uleb128 0x1
 3317 0001 11       		.uleb128 0x11
 3318 0002 01       		.byte	0x1
 3319 0003 25       		.uleb128 0x25
 3320 0004 0E       		.uleb128 0xe
 3321 0005 13       		.uleb128 0x13
 3322 0006 0B       		.uleb128 0xb
 3323 0007 03       		.uleb128 0x3
 3324 0008 0E       		.uleb128 0xe
 3325 0009 1B       		.uleb128 0x1b
 3326 000a 0E       		.uleb128 0xe
 3327 000b 55       		.uleb128 0x55
 3328 000c 17       		.uleb128 0x17
 3329 000d 11       		.uleb128 0x11
 3330 000e 01       		.uleb128 0x1
 3331 000f 10       		.uleb128 0x10
 3332 0010 17       		.uleb128 0x17
 3333 0011 00       		.byte	0
 3334 0012 00       		.byte	0
 3335 0013 02       		.uleb128 0x2
 3336 0014 24       		.uleb128 0x24
 3337 0015 00       		.byte	0
 3338 0016 0B       		.uleb128 0xb
 3339 0017 0B       		.uleb128 0xb
 3340 0018 3E       		.uleb128 0x3e
 3341 0019 0B       		.uleb128 0xb
 3342 001a 03       		.uleb128 0x3
 3343 001b 08       		.uleb128 0x8
 3344 001c 00       		.byte	0
 3345 001d 00       		.byte	0
 3346 001e 03       		.uleb128 0x3
 3347 001f 16       		.uleb128 0x16
 3348 0020 00       		.byte	0
 3349 0021 03       		.uleb128 0x3
 3350 0022 0E       		.uleb128 0xe
 3351 0023 3A       		.uleb128 0x3a
 3352 0024 0B       		.uleb128 0xb
 3353 0025 3B       		.uleb128 0x3b
 3354 0026 0B       		.uleb128 0xb
 3355 0027 49       		.uleb128 0x49
 3356 0028 13       		.uleb128 0x13
 3357 0029 00       		.byte	0
 3358 002a 00       		.byte	0
 3359 002b 04       		.uleb128 0x4
 3360 002c 24       		.uleb128 0x24
 3361 002d 00       		.byte	0
 3362 002e 0B       		.uleb128 0xb
 3363 002f 0B       		.uleb128 0xb
 3364 0030 3E       		.uleb128 0x3e
 3365 0031 0B       		.uleb128 0xb
 3366 0032 03       		.uleb128 0x3
 3367 0033 0E       		.uleb128 0xe
 3368 0034 00       		.byte	0
ARM GAS  C:\Users\jo\AppData\Local\Temp\ccoMBxzN.s 			page 61


 3369 0035 00       		.byte	0
 3370 0036 05       		.uleb128 0x5
 3371 0037 35       		.uleb128 0x35
 3372 0038 00       		.byte	0
 3373 0039 49       		.uleb128 0x49
 3374 003a 13       		.uleb128 0x13
 3375 003b 00       		.byte	0
 3376 003c 00       		.byte	0
 3377 003d 06       		.uleb128 0x6
 3378 003e 13       		.uleb128 0x13
 3379 003f 01       		.byte	0x1
 3380 0040 03       		.uleb128 0x3
 3381 0041 0E       		.uleb128 0xe
 3382 0042 0B       		.uleb128 0xb
 3383 0043 0B       		.uleb128 0xb
 3384 0044 3A       		.uleb128 0x3a
 3385 0045 0B       		.uleb128 0xb
 3386 0046 3B       		.uleb128 0x3b
 3387 0047 0B       		.uleb128 0xb
 3388 0048 01       		.uleb128 0x1
 3389 0049 13       		.uleb128 0x13
 3390 004a 00       		.byte	0
 3391 004b 00       		.byte	0
 3392 004c 07       		.uleb128 0x7
 3393 004d 0D       		.uleb128 0xd
 3394 004e 00       		.byte	0
 3395 004f 03       		.uleb128 0x3
 3396 0050 0E       		.uleb128 0xe
 3397 0051 3A       		.uleb128 0x3a
 3398 0052 0B       		.uleb128 0xb
 3399 0053 3B       		.uleb128 0x3b
 3400 0054 0B       		.uleb128 0xb
 3401 0055 49       		.uleb128 0x49
 3402 0056 13       		.uleb128 0x13
 3403 0057 38       		.uleb128 0x38
 3404 0058 0B       		.uleb128 0xb
 3405 0059 00       		.byte	0
 3406 005a 00       		.byte	0
 3407 005b 08       		.uleb128 0x8
 3408 005c 0D       		.uleb128 0xd
 3409 005d 00       		.byte	0
 3410 005e 03       		.uleb128 0x3
 3411 005f 08       		.uleb128 0x8
 3412 0060 3A       		.uleb128 0x3a
 3413 0061 0B       		.uleb128 0xb
 3414 0062 3B       		.uleb128 0x3b
 3415 0063 05       		.uleb128 0x5
 3416 0064 49       		.uleb128 0x49
 3417 0065 13       		.uleb128 0x13
 3418 0066 38       		.uleb128 0x38
 3419 0067 0B       		.uleb128 0xb
 3420 0068 00       		.byte	0
 3421 0069 00       		.byte	0
 3422 006a 09       		.uleb128 0x9
 3423 006b 0D       		.uleb128 0xd
 3424 006c 00       		.byte	0
 3425 006d 03       		.uleb128 0x3
ARM GAS  C:\Users\jo\AppData\Local\Temp\ccoMBxzN.s 			page 62


 3426 006e 0E       		.uleb128 0xe
 3427 006f 3A       		.uleb128 0x3a
 3428 0070 0B       		.uleb128 0xb
 3429 0071 3B       		.uleb128 0x3b
 3430 0072 05       		.uleb128 0x5
 3431 0073 49       		.uleb128 0x49
 3432 0074 13       		.uleb128 0x13
 3433 0075 38       		.uleb128 0x38
 3434 0076 0B       		.uleb128 0xb
 3435 0077 00       		.byte	0
 3436 0078 00       		.byte	0
 3437 0079 0A       		.uleb128 0xa
 3438 007a 13       		.uleb128 0x13
 3439 007b 01       		.byte	0x1
 3440 007c 03       		.uleb128 0x3
 3441 007d 0E       		.uleb128 0xe
 3442 007e 0B       		.uleb128 0xb
 3443 007f 0B       		.uleb128 0xb
 3444 0080 3A       		.uleb128 0x3a
 3445 0081 0B       		.uleb128 0xb
 3446 0082 3B       		.uleb128 0x3b
 3447 0083 05       		.uleb128 0x5
 3448 0084 01       		.uleb128 0x1
 3449 0085 13       		.uleb128 0x13
 3450 0086 00       		.byte	0
 3451 0087 00       		.byte	0
 3452 0088 0B       		.uleb128 0xb
 3453 0089 0F       		.uleb128 0xf
 3454 008a 00       		.byte	0
 3455 008b 0B       		.uleb128 0xb
 3456 008c 0B       		.uleb128 0xb
 3457 008d 49       		.uleb128 0x49
 3458 008e 13       		.uleb128 0x13
 3459 008f 00       		.byte	0
 3460 0090 00       		.byte	0
 3461 0091 0C       		.uleb128 0xc
 3462 0092 15       		.uleb128 0x15
 3463 0093 01       		.byte	0x1
 3464 0094 27       		.uleb128 0x27
 3465 0095 19       		.uleb128 0x19
 3466 0096 01       		.uleb128 0x1
 3467 0097 13       		.uleb128 0x13
 3468 0098 00       		.byte	0
 3469 0099 00       		.byte	0
 3470 009a 0D       		.uleb128 0xd
 3471 009b 05       		.uleb128 0x5
 3472 009c 00       		.byte	0
 3473 009d 49       		.uleb128 0x49
 3474 009e 13       		.uleb128 0x13
 3475 009f 00       		.byte	0
 3476 00a0 00       		.byte	0
 3477 00a1 0E       		.uleb128 0xe
 3478 00a2 0F       		.uleb128 0xf
 3479 00a3 00       		.byte	0
 3480 00a4 0B       		.uleb128 0xb
 3481 00a5 0B       		.uleb128 0xb
 3482 00a6 00       		.byte	0
ARM GAS  C:\Users\jo\AppData\Local\Temp\ccoMBxzN.s 			page 63


 3483 00a7 00       		.byte	0
 3484 00a8 0F       		.uleb128 0xf
 3485 00a9 13       		.uleb128 0x13
 3486 00aa 01       		.byte	0x1
 3487 00ab 03       		.uleb128 0x3
 3488 00ac 0E       		.uleb128 0xe
 3489 00ad 0B       		.uleb128 0xb
 3490 00ae 05       		.uleb128 0x5
 3491 00af 3A       		.uleb128 0x3a
 3492 00b0 0B       		.uleb128 0xb
 3493 00b1 3B       		.uleb128 0x3b
 3494 00b2 05       		.uleb128 0x5
 3495 00b3 01       		.uleb128 0x1
 3496 00b4 13       		.uleb128 0x13
 3497 00b5 00       		.byte	0
 3498 00b6 00       		.byte	0
 3499 00b7 10       		.uleb128 0x10
 3500 00b8 0D       		.uleb128 0xd
 3501 00b9 00       		.byte	0
 3502 00ba 03       		.uleb128 0x3
 3503 00bb 0E       		.uleb128 0xe
 3504 00bc 3A       		.uleb128 0x3a
 3505 00bd 0B       		.uleb128 0xb
 3506 00be 3B       		.uleb128 0x3b
 3507 00bf 05       		.uleb128 0x5
 3508 00c0 49       		.uleb128 0x49
 3509 00c1 13       		.uleb128 0x13
 3510 00c2 38       		.uleb128 0x38
 3511 00c3 05       		.uleb128 0x5
 3512 00c4 00       		.byte	0
 3513 00c5 00       		.byte	0
 3514 00c6 11       		.uleb128 0x11
 3515 00c7 0D       		.uleb128 0xd
 3516 00c8 00       		.byte	0
 3517 00c9 03       		.uleb128 0x3
 3518 00ca 08       		.uleb128 0x8
 3519 00cb 3A       		.uleb128 0x3a
 3520 00cc 0B       		.uleb128 0xb
 3521 00cd 3B       		.uleb128 0x3b
 3522 00ce 05       		.uleb128 0x5
 3523 00cf 49       		.uleb128 0x49
 3524 00d0 13       		.uleb128 0x13
 3525 00d1 38       		.uleb128 0x38
 3526 00d2 05       		.uleb128 0x5
 3527 00d3 00       		.byte	0
 3528 00d4 00       		.byte	0
 3529 00d5 12       		.uleb128 0x12
 3530 00d6 0D       		.uleb128 0xd
 3531 00d7 00       		.byte	0
 3532 00d8 03       		.uleb128 0x3
 3533 00d9 08       		.uleb128 0x8
 3534 00da 3A       		.uleb128 0x3a
 3535 00db 0B       		.uleb128 0xb
 3536 00dc 3B       		.uleb128 0x3b
 3537 00dd 0B       		.uleb128 0xb
 3538 00de 49       		.uleb128 0x49
 3539 00df 13       		.uleb128 0x13
ARM GAS  C:\Users\jo\AppData\Local\Temp\ccoMBxzN.s 			page 64


 3540 00e0 38       		.uleb128 0x38
 3541 00e1 0B       		.uleb128 0xb
 3542 00e2 00       		.byte	0
 3543 00e3 00       		.byte	0
 3544 00e4 13       		.uleb128 0x13
 3545 00e5 0D       		.uleb128 0xd
 3546 00e6 00       		.byte	0
 3547 00e7 03       		.uleb128 0x3
 3548 00e8 0E       		.uleb128 0xe
 3549 00e9 49       		.uleb128 0x49
 3550 00ea 13       		.uleb128 0x13
 3551 00eb 38       		.uleb128 0x38
 3552 00ec 0B       		.uleb128 0xb
 3553 00ed 34       		.uleb128 0x34
 3554 00ee 19       		.uleb128 0x19
 3555 00ef 00       		.byte	0
 3556 00f0 00       		.byte	0
 3557 00f1 14       		.uleb128 0x14
 3558 00f2 26       		.uleb128 0x26
 3559 00f3 00       		.byte	0
 3560 00f4 49       		.uleb128 0x49
 3561 00f5 13       		.uleb128 0x13
 3562 00f6 00       		.byte	0
 3563 00f7 00       		.byte	0
 3564 00f8 15       		.uleb128 0x15
 3565 00f9 13       		.uleb128 0x13
 3566 00fa 01       		.byte	0x1
 3567 00fb 0B       		.uleb128 0xb
 3568 00fc 0B       		.uleb128 0xb
 3569 00fd 3A       		.uleb128 0x3a
 3570 00fe 0B       		.uleb128 0xb
 3571 00ff 3B       		.uleb128 0x3b
 3572 0100 0B       		.uleb128 0xb
 3573 0101 01       		.uleb128 0x1
 3574 0102 13       		.uleb128 0x13
 3575 0103 00       		.byte	0
 3576 0104 00       		.byte	0
 3577 0105 16       		.uleb128 0x16
 3578 0106 13       		.uleb128 0x13
 3579 0107 01       		.byte	0x1
 3580 0108 0B       		.uleb128 0xb
 3581 0109 05       		.uleb128 0x5
 3582 010a 3A       		.uleb128 0x3a
 3583 010b 0B       		.uleb128 0xb
 3584 010c 3B       		.uleb128 0x3b
 3585 010d 0B       		.uleb128 0xb
 3586 010e 01       		.uleb128 0x1
 3587 010f 13       		.uleb128 0x13
 3588 0110 00       		.byte	0
 3589 0111 00       		.byte	0
 3590 0112 17       		.uleb128 0x17
 3591 0113 01       		.uleb128 0x1
 3592 0114 01       		.byte	0x1
 3593 0115 49       		.uleb128 0x49
 3594 0116 13       		.uleb128 0x13
 3595 0117 01       		.uleb128 0x1
 3596 0118 13       		.uleb128 0x13
ARM GAS  C:\Users\jo\AppData\Local\Temp\ccoMBxzN.s 			page 65


 3597 0119 00       		.byte	0
 3598 011a 00       		.byte	0
 3599 011b 18       		.uleb128 0x18
 3600 011c 21       		.uleb128 0x21
 3601 011d 00       		.byte	0
 3602 011e 49       		.uleb128 0x49
 3603 011f 13       		.uleb128 0x13
 3604 0120 2F       		.uleb128 0x2f
 3605 0121 0B       		.uleb128 0xb
 3606 0122 00       		.byte	0
 3607 0123 00       		.byte	0
 3608 0124 19       		.uleb128 0x19
 3609 0125 17       		.uleb128 0x17
 3610 0126 01       		.byte	0x1
 3611 0127 0B       		.uleb128 0xb
 3612 0128 0B       		.uleb128 0xb
 3613 0129 3A       		.uleb128 0x3a
 3614 012a 0B       		.uleb128 0xb
 3615 012b 3B       		.uleb128 0x3b
 3616 012c 0B       		.uleb128 0xb
 3617 012d 01       		.uleb128 0x1
 3618 012e 13       		.uleb128 0x13
 3619 012f 00       		.byte	0
 3620 0130 00       		.byte	0
 3621 0131 1A       		.uleb128 0x1a
 3622 0132 0D       		.uleb128 0xd
 3623 0133 00       		.byte	0
 3624 0134 03       		.uleb128 0x3
 3625 0135 0E       		.uleb128 0xe
 3626 0136 3A       		.uleb128 0x3a
 3627 0137 0B       		.uleb128 0xb
 3628 0138 3B       		.uleb128 0x3b
 3629 0139 0B       		.uleb128 0xb
 3630 013a 49       		.uleb128 0x49
 3631 013b 13       		.uleb128 0x13
 3632 013c 00       		.byte	0
 3633 013d 00       		.byte	0
 3634 013e 1B       		.uleb128 0x1b
 3635 013f 0D       		.uleb128 0xd
 3636 0140 00       		.byte	0
 3637 0141 03       		.uleb128 0x3
 3638 0142 0E       		.uleb128 0xe
 3639 0143 3A       		.uleb128 0x3a
 3640 0144 0B       		.uleb128 0xb
 3641 0145 3B       		.uleb128 0x3b
 3642 0146 05       		.uleb128 0x5
 3643 0147 49       		.uleb128 0x49
 3644 0148 13       		.uleb128 0x13
 3645 0149 00       		.byte	0
 3646 014a 00       		.byte	0
 3647 014b 1C       		.uleb128 0x1c
 3648 014c 15       		.uleb128 0x15
 3649 014d 01       		.byte	0x1
 3650 014e 27       		.uleb128 0x27
 3651 014f 19       		.uleb128 0x19
 3652 0150 49       		.uleb128 0x49
 3653 0151 13       		.uleb128 0x13
ARM GAS  C:\Users\jo\AppData\Local\Temp\ccoMBxzN.s 			page 66


 3654 0152 01       		.uleb128 0x1
 3655 0153 13       		.uleb128 0x13
 3656 0154 00       		.byte	0
 3657 0155 00       		.byte	0
 3658 0156 1D       		.uleb128 0x1d
 3659 0157 04       		.uleb128 0x4
 3660 0158 01       		.byte	0x1
 3661 0159 0B       		.uleb128 0xb
 3662 015a 0B       		.uleb128 0xb
 3663 015b 3A       		.uleb128 0x3a
 3664 015c 0B       		.uleb128 0xb
 3665 015d 3B       		.uleb128 0x3b
 3666 015e 0B       		.uleb128 0xb
 3667 015f 01       		.uleb128 0x1
 3668 0160 13       		.uleb128 0x13
 3669 0161 00       		.byte	0
 3670 0162 00       		.byte	0
 3671 0163 1E       		.uleb128 0x1e
 3672 0164 28       		.uleb128 0x28
 3673 0165 00       		.byte	0
 3674 0166 03       		.uleb128 0x3
 3675 0167 0E       		.uleb128 0xe
 3676 0168 1C       		.uleb128 0x1c
 3677 0169 0D       		.uleb128 0xd
 3678 016a 00       		.byte	0
 3679 016b 00       		.byte	0
 3680 016c 1F       		.uleb128 0x1f
 3681 016d 26       		.uleb128 0x26
 3682 016e 00       		.byte	0
 3683 016f 00       		.byte	0
 3684 0170 00       		.byte	0
 3685 0171 20       		.uleb128 0x20
 3686 0172 2E       		.uleb128 0x2e
 3687 0173 01       		.byte	0x1
 3688 0174 03       		.uleb128 0x3
 3689 0175 0E       		.uleb128 0xe
 3690 0176 3A       		.uleb128 0x3a
 3691 0177 0B       		.uleb128 0xb
 3692 0178 3B       		.uleb128 0x3b
 3693 0179 05       		.uleb128 0x5
 3694 017a 27       		.uleb128 0x27
 3695 017b 19       		.uleb128 0x19
 3696 017c 20       		.uleb128 0x20
 3697 017d 0B       		.uleb128 0xb
 3698 017e 01       		.uleb128 0x1
 3699 017f 13       		.uleb128 0x13
 3700 0180 00       		.byte	0
 3701 0181 00       		.byte	0
 3702 0182 21       		.uleb128 0x21
 3703 0183 05       		.uleb128 0x5
 3704 0184 00       		.byte	0
 3705 0185 03       		.uleb128 0x3
 3706 0186 0E       		.uleb128 0xe
 3707 0187 3A       		.uleb128 0x3a
 3708 0188 0B       		.uleb128 0xb
 3709 0189 3B       		.uleb128 0x3b
 3710 018a 05       		.uleb128 0x5
ARM GAS  C:\Users\jo\AppData\Local\Temp\ccoMBxzN.s 			page 67


 3711 018b 49       		.uleb128 0x49
 3712 018c 13       		.uleb128 0x13
 3713 018d 00       		.byte	0
 3714 018e 00       		.byte	0
 3715 018f 22       		.uleb128 0x22
 3716 0190 2E       		.uleb128 0x2e
 3717 0191 01       		.byte	0x1
 3718 0192 03       		.uleb128 0x3
 3719 0193 0E       		.uleb128 0xe
 3720 0194 3A       		.uleb128 0x3a
 3721 0195 0B       		.uleb128 0xb
 3722 0196 3B       		.uleb128 0x3b
 3723 0197 0B       		.uleb128 0xb
 3724 0198 27       		.uleb128 0x27
 3725 0199 19       		.uleb128 0x19
 3726 019a 49       		.uleb128 0x49
 3727 019b 13       		.uleb128 0x13
 3728 019c 20       		.uleb128 0x20
 3729 019d 0B       		.uleb128 0xb
 3730 019e 01       		.uleb128 0x1
 3731 019f 13       		.uleb128 0x13
 3732 01a0 00       		.byte	0
 3733 01a1 00       		.byte	0
 3734 01a2 23       		.uleb128 0x23
 3735 01a3 05       		.uleb128 0x5
 3736 01a4 00       		.byte	0
 3737 01a5 03       		.uleb128 0x3
 3738 01a6 08       		.uleb128 0x8
 3739 01a7 3A       		.uleb128 0x3a
 3740 01a8 0B       		.uleb128 0xb
 3741 01a9 3B       		.uleb128 0x3b
 3742 01aa 0B       		.uleb128 0xb
 3743 01ab 49       		.uleb128 0x49
 3744 01ac 13       		.uleb128 0x13
 3745 01ad 00       		.byte	0
 3746 01ae 00       		.byte	0
 3747 01af 24       		.uleb128 0x24
 3748 01b0 18       		.uleb128 0x18
 3749 01b1 00       		.byte	0
 3750 01b2 00       		.byte	0
 3751 01b3 00       		.byte	0
 3752 01b4 25       		.uleb128 0x25
 3753 01b5 34       		.uleb128 0x34
 3754 01b6 00       		.byte	0
 3755 01b7 03       		.uleb128 0x3
 3756 01b8 08       		.uleb128 0x8
 3757 01b9 3A       		.uleb128 0x3a
 3758 01ba 0B       		.uleb128 0xb
 3759 01bb 3B       		.uleb128 0x3b
 3760 01bc 0B       		.uleb128 0xb
 3761 01bd 49       		.uleb128 0x49
 3762 01be 13       		.uleb128 0x13
 3763 01bf 00       		.byte	0
 3764 01c0 00       		.byte	0
 3765 01c1 26       		.uleb128 0x26
 3766 01c2 34       		.uleb128 0x34
 3767 01c3 00       		.byte	0
ARM GAS  C:\Users\jo\AppData\Local\Temp\ccoMBxzN.s 			page 68


 3768 01c4 03       		.uleb128 0x3
 3769 01c5 0E       		.uleb128 0xe
 3770 01c6 3A       		.uleb128 0x3a
 3771 01c7 0B       		.uleb128 0xb
 3772 01c8 3B       		.uleb128 0x3b
 3773 01c9 0B       		.uleb128 0xb
 3774 01ca 49       		.uleb128 0x49
 3775 01cb 13       		.uleb128 0x13
 3776 01cc 00       		.byte	0
 3777 01cd 00       		.byte	0
 3778 01ce 27       		.uleb128 0x27
 3779 01cf 2E       		.uleb128 0x2e
 3780 01d0 01       		.byte	0x1
 3781 01d1 31       		.uleb128 0x31
 3782 01d2 13       		.uleb128 0x13
 3783 01d3 11       		.uleb128 0x11
 3784 01d4 01       		.uleb128 0x1
 3785 01d5 12       		.uleb128 0x12
 3786 01d6 06       		.uleb128 0x6
 3787 01d7 40       		.uleb128 0x40
 3788 01d8 18       		.uleb128 0x18
 3789 01d9 9742     		.uleb128 0x2117
 3790 01db 19       		.uleb128 0x19
 3791 01dc 01       		.uleb128 0x1
 3792 01dd 13       		.uleb128 0x13
 3793 01de 00       		.byte	0
 3794 01df 00       		.byte	0
 3795 01e0 28       		.uleb128 0x28
 3796 01e1 05       		.uleb128 0x5
 3797 01e2 00       		.byte	0
 3798 01e3 31       		.uleb128 0x31
 3799 01e4 13       		.uleb128 0x13
 3800 01e5 02       		.uleb128 0x2
 3801 01e6 17       		.uleb128 0x17
 3802 01e7 00       		.byte	0
 3803 01e8 00       		.byte	0
 3804 01e9 29       		.uleb128 0x29
 3805 01ea 05       		.uleb128 0x5
 3806 01eb 00       		.byte	0
 3807 01ec 31       		.uleb128 0x31
 3808 01ed 13       		.uleb128 0x13
 3809 01ee 02       		.uleb128 0x2
 3810 01ef 18       		.uleb128 0x18
 3811 01f0 00       		.byte	0
 3812 01f1 00       		.byte	0
 3813 01f2 2A       		.uleb128 0x2a
 3814 01f3 34       		.uleb128 0x34
 3815 01f4 00       		.byte	0
 3816 01f5 31       		.uleb128 0x31
 3817 01f6 13       		.uleb128 0x13
 3818 01f7 02       		.uleb128 0x2
 3819 01f8 18       		.uleb128 0x18
 3820 01f9 00       		.byte	0
 3821 01fa 00       		.byte	0
 3822 01fb 2B       		.uleb128 0x2b
 3823 01fc 05       		.uleb128 0x5
 3824 01fd 00       		.byte	0
ARM GAS  C:\Users\jo\AppData\Local\Temp\ccoMBxzN.s 			page 69


 3825 01fe 31       		.uleb128 0x31
 3826 01ff 13       		.uleb128 0x13
 3827 0200 00       		.byte	0
 3828 0201 00       		.byte	0
 3829 0202 2C       		.uleb128 0x2c
 3830 0203 898201   		.uleb128 0x4109
 3831 0206 01       		.byte	0x1
 3832 0207 11       		.uleb128 0x11
 3833 0208 01       		.uleb128 0x1
 3834 0209 31       		.uleb128 0x31
 3835 020a 13       		.uleb128 0x13
 3836 020b 00       		.byte	0
 3837 020c 00       		.byte	0
 3838 020d 2D       		.uleb128 0x2d
 3839 020e 8A8201   		.uleb128 0x410a
 3840 0211 00       		.byte	0
 3841 0212 02       		.uleb128 0x2
 3842 0213 18       		.uleb128 0x18
 3843 0214 9142     		.uleb128 0x2111
 3844 0216 18       		.uleb128 0x18
 3845 0217 00       		.byte	0
 3846 0218 00       		.byte	0
 3847 0219 2E       		.uleb128 0x2e
 3848 021a 2E       		.uleb128 0x2e
 3849 021b 01       		.byte	0x1
 3850 021c 3F       		.uleb128 0x3f
 3851 021d 19       		.uleb128 0x19
 3852 021e 03       		.uleb128 0x3
 3853 021f 0E       		.uleb128 0xe
 3854 0220 3A       		.uleb128 0x3a
 3855 0221 0B       		.uleb128 0xb
 3856 0222 3B       		.uleb128 0x3b
 3857 0223 0B       		.uleb128 0xb
 3858 0224 27       		.uleb128 0x27
 3859 0225 19       		.uleb128 0x19
 3860 0226 49       		.uleb128 0x49
 3861 0227 13       		.uleb128 0x13
 3862 0228 11       		.uleb128 0x11
 3863 0229 01       		.uleb128 0x1
 3864 022a 12       		.uleb128 0x12
 3865 022b 06       		.uleb128 0x6
 3866 022c 40       		.uleb128 0x40
 3867 022d 18       		.uleb128 0x18
 3868 022e 9742     		.uleb128 0x2117
 3869 0230 19       		.uleb128 0x19
 3870 0231 01       		.uleb128 0x1
 3871 0232 13       		.uleb128 0x13
 3872 0233 00       		.byte	0
 3873 0234 00       		.byte	0
 3874 0235 2F       		.uleb128 0x2f
 3875 0236 34       		.uleb128 0x34
 3876 0237 00       		.byte	0
 3877 0238 03       		.uleb128 0x3
 3878 0239 08       		.uleb128 0x8
 3879 023a 3A       		.uleb128 0x3a
 3880 023b 0B       		.uleb128 0xb
 3881 023c 3B       		.uleb128 0x3b
ARM GAS  C:\Users\jo\AppData\Local\Temp\ccoMBxzN.s 			page 70


 3882 023d 0B       		.uleb128 0xb
 3883 023e 49       		.uleb128 0x49
 3884 023f 13       		.uleb128 0x13
 3885 0240 02       		.uleb128 0x2
 3886 0241 18       		.uleb128 0x18
 3887 0242 00       		.byte	0
 3888 0243 00       		.byte	0
 3889 0244 30       		.uleb128 0x30
 3890 0245 898201   		.uleb128 0x4109
 3891 0248 00       		.byte	0
 3892 0249 11       		.uleb128 0x11
 3893 024a 01       		.uleb128 0x1
 3894 024b 31       		.uleb128 0x31
 3895 024c 13       		.uleb128 0x13
 3896 024d 00       		.byte	0
 3897 024e 00       		.byte	0
 3898 024f 31       		.uleb128 0x31
 3899 0250 2E       		.uleb128 0x2e
 3900 0251 01       		.byte	0x1
 3901 0252 3F       		.uleb128 0x3f
 3902 0253 19       		.uleb128 0x19
 3903 0254 03       		.uleb128 0x3
 3904 0255 0E       		.uleb128 0xe
 3905 0256 3A       		.uleb128 0x3a
 3906 0257 0B       		.uleb128 0xb
 3907 0258 3B       		.uleb128 0x3b
 3908 0259 0B       		.uleb128 0xb
 3909 025a 27       		.uleb128 0x27
 3910 025b 19       		.uleb128 0x19
 3911 025c 11       		.uleb128 0x11
 3912 025d 01       		.uleb128 0x1
 3913 025e 12       		.uleb128 0x12
 3914 025f 06       		.uleb128 0x6
 3915 0260 40       		.uleb128 0x40
 3916 0261 18       		.uleb128 0x18
 3917 0262 9742     		.uleb128 0x2117
 3918 0264 19       		.uleb128 0x19
 3919 0265 01       		.uleb128 0x1
 3920 0266 13       		.uleb128 0x13
 3921 0267 00       		.byte	0
 3922 0268 00       		.byte	0
 3923 0269 32       		.uleb128 0x32
 3924 026a 05       		.uleb128 0x5
 3925 026b 00       		.byte	0
 3926 026c 03       		.uleb128 0x3
 3927 026d 08       		.uleb128 0x8
 3928 026e 3A       		.uleb128 0x3a
 3929 026f 0B       		.uleb128 0xb
 3930 0270 3B       		.uleb128 0x3b
 3931 0271 0B       		.uleb128 0xb
 3932 0272 49       		.uleb128 0x49
 3933 0273 13       		.uleb128 0x13
 3934 0274 02       		.uleb128 0x2
 3935 0275 17       		.uleb128 0x17
 3936 0276 00       		.byte	0
 3937 0277 00       		.byte	0
 3938 0278 33       		.uleb128 0x33
ARM GAS  C:\Users\jo\AppData\Local\Temp\ccoMBxzN.s 			page 71


 3939 0279 898201   		.uleb128 0x4109
 3940 027c 01       		.byte	0x1
 3941 027d 11       		.uleb128 0x11
 3942 027e 01       		.uleb128 0x1
 3943 027f 9542     		.uleb128 0x2115
 3944 0281 19       		.uleb128 0x19
 3945 0282 31       		.uleb128 0x31
 3946 0283 13       		.uleb128 0x13
 3947 0284 00       		.byte	0
 3948 0285 00       		.byte	0
 3949 0286 34       		.uleb128 0x34
 3950 0287 05       		.uleb128 0x5
 3951 0288 00       		.byte	0
 3952 0289 03       		.uleb128 0x3
 3953 028a 0E       		.uleb128 0xe
 3954 028b 3A       		.uleb128 0x3a
 3955 028c 0B       		.uleb128 0xb
 3956 028d 3B       		.uleb128 0x3b
 3957 028e 0B       		.uleb128 0xb
 3958 028f 49       		.uleb128 0x49
 3959 0290 13       		.uleb128 0x13
 3960 0291 02       		.uleb128 0x2
 3961 0292 17       		.uleb128 0x17
 3962 0293 00       		.byte	0
 3963 0294 00       		.byte	0
 3964 0295 35       		.uleb128 0x35
 3965 0296 1D       		.uleb128 0x1d
 3966 0297 01       		.byte	0x1
 3967 0298 31       		.uleb128 0x31
 3968 0299 13       		.uleb128 0x13
 3969 029a 11       		.uleb128 0x11
 3970 029b 01       		.uleb128 0x1
 3971 029c 12       		.uleb128 0x12
 3972 029d 06       		.uleb128 0x6
 3973 029e 58       		.uleb128 0x58
 3974 029f 0B       		.uleb128 0xb
 3975 02a0 59       		.uleb128 0x59
 3976 02a1 0B       		.uleb128 0xb
 3977 02a2 01       		.uleb128 0x1
 3978 02a3 13       		.uleb128 0x13
 3979 02a4 00       		.byte	0
 3980 02a5 00       		.byte	0
 3981 02a6 36       		.uleb128 0x36
 3982 02a7 898201   		.uleb128 0x4109
 3983 02aa 01       		.byte	0x1
 3984 02ab 11       		.uleb128 0x11
 3985 02ac 01       		.uleb128 0x1
 3986 02ad 31       		.uleb128 0x31
 3987 02ae 13       		.uleb128 0x13
 3988 02af 01       		.uleb128 0x1
 3989 02b0 13       		.uleb128 0x13
 3990 02b1 00       		.byte	0
 3991 02b2 00       		.byte	0
 3992 02b3 37       		.uleb128 0x37
 3993 02b4 1D       		.uleb128 0x1d
 3994 02b5 01       		.byte	0x1
 3995 02b6 31       		.uleb128 0x31
ARM GAS  C:\Users\jo\AppData\Local\Temp\ccoMBxzN.s 			page 72


 3996 02b7 13       		.uleb128 0x13
 3997 02b8 52       		.uleb128 0x52
 3998 02b9 01       		.uleb128 0x1
 3999 02ba 55       		.uleb128 0x55
 4000 02bb 17       		.uleb128 0x17
 4001 02bc 58       		.uleb128 0x58
 4002 02bd 0B       		.uleb128 0xb
 4003 02be 59       		.uleb128 0x59
 4004 02bf 0B       		.uleb128 0xb
 4005 02c0 01       		.uleb128 0x1
 4006 02c1 13       		.uleb128 0x13
 4007 02c2 00       		.byte	0
 4008 02c3 00       		.byte	0
 4009 02c4 38       		.uleb128 0x38
 4010 02c5 898201   		.uleb128 0x4109
 4011 02c8 00       		.byte	0
 4012 02c9 11       		.uleb128 0x11
 4013 02ca 01       		.uleb128 0x1
 4014 02cb 9542     		.uleb128 0x2115
 4015 02cd 19       		.uleb128 0x19
 4016 02ce 31       		.uleb128 0x31
 4017 02cf 13       		.uleb128 0x13
 4018 02d0 00       		.byte	0
 4019 02d1 00       		.byte	0
 4020 02d2 39       		.uleb128 0x39
 4021 02d3 898201   		.uleb128 0x4109
 4022 02d6 01       		.byte	0x1
 4023 02d7 11       		.uleb128 0x11
 4024 02d8 01       		.uleb128 0x1
 4025 02d9 9542     		.uleb128 0x2115
 4026 02db 19       		.uleb128 0x19
 4027 02dc 31       		.uleb128 0x31
 4028 02dd 13       		.uleb128 0x13
 4029 02de 01       		.uleb128 0x1
 4030 02df 13       		.uleb128 0x13
 4031 02e0 00       		.byte	0
 4032 02e1 00       		.byte	0
 4033 02e2 3A       		.uleb128 0x3a
 4034 02e3 34       		.uleb128 0x34
 4035 02e4 00       		.byte	0
 4036 02e5 03       		.uleb128 0x3
 4037 02e6 0E       		.uleb128 0xe
 4038 02e7 3A       		.uleb128 0x3a
 4039 02e8 0B       		.uleb128 0xb
 4040 02e9 3B       		.uleb128 0x3b
 4041 02ea 05       		.uleb128 0x5
 4042 02eb 49       		.uleb128 0x49
 4043 02ec 13       		.uleb128 0x13
 4044 02ed 3F       		.uleb128 0x3f
 4045 02ee 19       		.uleb128 0x19
 4046 02ef 3C       		.uleb128 0x3c
 4047 02f0 19       		.uleb128 0x19
 4048 02f1 00       		.byte	0
 4049 02f2 00       		.byte	0
 4050 02f3 3B       		.uleb128 0x3b
 4051 02f4 34       		.uleb128 0x34
 4052 02f5 00       		.byte	0
ARM GAS  C:\Users\jo\AppData\Local\Temp\ccoMBxzN.s 			page 73


 4053 02f6 03       		.uleb128 0x3
 4054 02f7 08       		.uleb128 0x8
 4055 02f8 3A       		.uleb128 0x3a
 4056 02f9 0B       		.uleb128 0xb
 4057 02fa 3B       		.uleb128 0x3b
 4058 02fb 05       		.uleb128 0x5
 4059 02fc 49       		.uleb128 0x49
 4060 02fd 13       		.uleb128 0x13
 4061 02fe 3F       		.uleb128 0x3f
 4062 02ff 19       		.uleb128 0x19
 4063 0300 3C       		.uleb128 0x3c
 4064 0301 19       		.uleb128 0x19
 4065 0302 00       		.byte	0
 4066 0303 00       		.byte	0
 4067 0304 3C       		.uleb128 0x3c
 4068 0305 34       		.uleb128 0x34
 4069 0306 00       		.byte	0
 4070 0307 03       		.uleb128 0x3
 4071 0308 0E       		.uleb128 0xe
 4072 0309 3A       		.uleb128 0x3a
 4073 030a 0B       		.uleb128 0xb
 4074 030b 3B       		.uleb128 0x3b
 4075 030c 0B       		.uleb128 0xb
 4076 030d 49       		.uleb128 0x49
 4077 030e 13       		.uleb128 0x13
 4078 030f 3F       		.uleb128 0x3f
 4079 0310 19       		.uleb128 0x19
 4080 0311 3C       		.uleb128 0x3c
 4081 0312 19       		.uleb128 0x19
 4082 0313 00       		.byte	0
 4083 0314 00       		.byte	0
 4084 0315 3D       		.uleb128 0x3d
 4085 0316 2E       		.uleb128 0x2e
 4086 0317 01       		.byte	0x1
 4087 0318 3F       		.uleb128 0x3f
 4088 0319 19       		.uleb128 0x19
 4089 031a 03       		.uleb128 0x3
 4090 031b 0E       		.uleb128 0xe
 4091 031c 3A       		.uleb128 0x3a
 4092 031d 0B       		.uleb128 0xb
 4093 031e 3B       		.uleb128 0x3b
 4094 031f 0B       		.uleb128 0xb
 4095 0320 27       		.uleb128 0x27
 4096 0321 19       		.uleb128 0x19
 4097 0322 49       		.uleb128 0x49
 4098 0323 13       		.uleb128 0x13
 4099 0324 3C       		.uleb128 0x3c
 4100 0325 19       		.uleb128 0x19
 4101 0326 01       		.uleb128 0x1
 4102 0327 13       		.uleb128 0x13
 4103 0328 00       		.byte	0
 4104 0329 00       		.byte	0
 4105 032a 3E       		.uleb128 0x3e
 4106 032b 2E       		.uleb128 0x2e
 4107 032c 01       		.byte	0x1
 4108 032d 3F       		.uleb128 0x3f
 4109 032e 19       		.uleb128 0x19
ARM GAS  C:\Users\jo\AppData\Local\Temp\ccoMBxzN.s 			page 74


 4110 032f 03       		.uleb128 0x3
 4111 0330 0E       		.uleb128 0xe
 4112 0331 3A       		.uleb128 0x3a
 4113 0332 0B       		.uleb128 0xb
 4114 0333 3B       		.uleb128 0x3b
 4115 0334 0B       		.uleb128 0xb
 4116 0335 27       		.uleb128 0x27
 4117 0336 19       		.uleb128 0x19
 4118 0337 3C       		.uleb128 0x3c
 4119 0338 19       		.uleb128 0x19
 4120 0339 01       		.uleb128 0x1
 4121 033a 13       		.uleb128 0x13
 4122 033b 00       		.byte	0
 4123 033c 00       		.byte	0
 4124 033d 3F       		.uleb128 0x3f
 4125 033e 2E       		.uleb128 0x2e
 4126 033f 01       		.byte	0x1
 4127 0340 3F       		.uleb128 0x3f
 4128 0341 19       		.uleb128 0x19
 4129 0342 03       		.uleb128 0x3
 4130 0343 0E       		.uleb128 0xe
 4131 0344 3A       		.uleb128 0x3a
 4132 0345 0B       		.uleb128 0xb
 4133 0346 3B       		.uleb128 0x3b
 4134 0347 0B       		.uleb128 0xb
 4135 0348 27       		.uleb128 0x27
 4136 0349 19       		.uleb128 0x19
 4137 034a 3C       		.uleb128 0x3c
 4138 034b 19       		.uleb128 0x19
 4139 034c 00       		.byte	0
 4140 034d 00       		.byte	0
 4141 034e 00       		.byte	0
 4142              		.section	.debug_loc,"",%progbits
 4143              	.Ldebug_loc0:
 4144              	.LLST0:
 4145 0000 00000000 		.4byte	.LVL0
 4146 0004 0E000000 		.4byte	.LVL1
 4147 0008 0100     		.2byte	0x1
 4148 000a 50       		.byte	0x50
 4149 000b 0E000000 		.4byte	.LVL1
 4150 000f 28000000 		.4byte	.LFE265
 4151 0013 0400     		.2byte	0x4
 4152 0015 F3       		.byte	0xf3
 4153 0016 01       		.uleb128 0x1
 4154 0017 50       		.byte	0x50
 4155 0018 9F       		.byte	0x9f
 4156 0019 00000000 		.4byte	0
 4157 001d 00000000 		.4byte	0
 4158              	.LLST1:
 4159 0021 00000000 		.4byte	.LVL4
 4160 0025 08000000 		.4byte	.LVL5
 4161 0029 0100     		.2byte	0x1
 4162 002b 50       		.byte	0x50
 4163 002c 08000000 		.4byte	.LVL5
 4164 0030 14000000 		.4byte	.LVL7
 4165 0034 0100     		.2byte	0x1
 4166 0036 54       		.byte	0x54
ARM GAS  C:\Users\jo\AppData\Local\Temp\ccoMBxzN.s 			page 75


 4167 0037 14000000 		.4byte	.LVL7
 4168 003b 17000000 		.4byte	.LVL8-1
 4169 003f 0100     		.2byte	0x1
 4170 0041 50       		.byte	0x50
 4171 0042 17000000 		.4byte	.LVL8-1
 4172 0046 18000000 		.4byte	.LVL8
 4173 004a 0400     		.2byte	0x4
 4174 004c F3       		.byte	0xf3
 4175 004d 01       		.uleb128 0x1
 4176 004e 50       		.byte	0x50
 4177 004f 9F       		.byte	0x9f
 4178 0050 18000000 		.4byte	.LVL8
 4179 0054 1A000000 		.4byte	.LFE257
 4180 0058 0100     		.2byte	0x1
 4181 005a 50       		.byte	0x50
 4182 005b 00000000 		.4byte	0
 4183 005f 00000000 		.4byte	0
 4184              	.LLST2:
 4185 0063 00000000 		.4byte	.LVL9
 4186 0067 0A000000 		.4byte	.LVL10
 4187 006b 0100     		.2byte	0x1
 4188 006d 50       		.byte	0x50
 4189 006e 0A000000 		.4byte	.LVL10
 4190 0072 48000000 		.4byte	.LVL16
 4191 0076 0100     		.2byte	0x1
 4192 0078 54       		.byte	0x54
 4193 0079 48000000 		.4byte	.LVL16
 4194 007d 52000000 		.4byte	.LVL18
 4195 0081 0100     		.2byte	0x1
 4196 0083 50       		.byte	0x50
 4197 0084 52000000 		.4byte	.LVL18
 4198 0088 78000000 		.4byte	.LFE258
 4199 008c 0100     		.2byte	0x1
 4200 008e 54       		.byte	0x54
 4201 008f 00000000 		.4byte	0
 4202 0093 00000000 		.4byte	0
 4203              	.LLST3:
 4204 0097 00000000 		.4byte	.LVL9
 4205 009b 11000000 		.4byte	.LVL11-1
 4206 009f 0100     		.2byte	0x1
 4207 00a1 51       		.byte	0x51
 4208 00a2 11000000 		.4byte	.LVL11-1
 4209 00a6 48000000 		.4byte	.LVL16
 4210 00aa 0400     		.2byte	0x4
 4211 00ac F3       		.byte	0xf3
 4212 00ad 01       		.uleb128 0x1
 4213 00ae 51       		.byte	0x51
 4214 00af 9F       		.byte	0x9f
 4215 00b0 48000000 		.4byte	.LVL16
 4216 00b4 4E000000 		.4byte	.LVL17
 4217 00b8 0100     		.2byte	0x1
 4218 00ba 51       		.byte	0x51
 4219 00bb 4E000000 		.4byte	.LVL17
 4220 00bf 78000000 		.4byte	.LFE258
 4221 00c3 0400     		.2byte	0x4
 4222 00c5 F3       		.byte	0xf3
 4223 00c6 01       		.uleb128 0x1
ARM GAS  C:\Users\jo\AppData\Local\Temp\ccoMBxzN.s 			page 76


 4224 00c7 51       		.byte	0x51
 4225 00c8 9F       		.byte	0x9f
 4226 00c9 00000000 		.4byte	0
 4227 00cd 00000000 		.4byte	0
 4228              	.LLST4:
 4229 00d1 3E000000 		.4byte	.LVL14
 4230 00d5 48000000 		.4byte	.LVL16
 4231 00d9 0600     		.2byte	0x6
 4232 00db 03       		.byte	0x3
 4233 00dc 70000000 		.4byte	.LC3
 4234 00e0 9F       		.byte	0x9f
 4235 00e1 00000000 		.4byte	0
 4236 00e5 00000000 		.4byte	0
 4237              	.LLST5:
 4238 00e9 00000000 		.4byte	.LVL21
 4239 00ed 0A000000 		.4byte	.LVL22
 4240 00f1 0100     		.2byte	0x1
 4241 00f3 50       		.byte	0x50
 4242 00f4 0A000000 		.4byte	.LVL22
 4243 00f8 1A000000 		.4byte	.LVL24
 4244 00fc 0100     		.2byte	0x1
 4245 00fe 54       		.byte	0x54
 4246 00ff 1A000000 		.4byte	.LVL24
 4247 0103 24000000 		.4byte	.LVL25
 4248 0107 0100     		.2byte	0x1
 4249 0109 50       		.byte	0x50
 4250 010a 24000000 		.4byte	.LVL25
 4251 010e 32000000 		.4byte	.LVL27
 4252 0112 0100     		.2byte	0x1
 4253 0114 54       		.byte	0x54
 4254 0115 32000000 		.4byte	.LVL27
 4255 0119 48000000 		.4byte	.LFE259
 4256 011d 0400     		.2byte	0x4
 4257 011f F3       		.byte	0xf3
 4258 0120 01       		.uleb128 0x1
 4259 0121 50       		.byte	0x50
 4260 0122 9F       		.byte	0x9f
 4261 0123 00000000 		.4byte	0
 4262 0127 00000000 		.4byte	0
 4263              	.LLST6:
 4264 012b 00000000 		.4byte	.LVL29
 4265 012f 0A000000 		.4byte	.LVL30
 4266 0133 0100     		.2byte	0x1
 4267 0135 50       		.byte	0x50
 4268 0136 0A000000 		.4byte	.LVL30
 4269 013a 38000000 		.4byte	.LVL35
 4270 013e 0100     		.2byte	0x1
 4271 0140 54       		.byte	0x54
 4272 0141 38000000 		.4byte	.LVL35
 4273 0145 42000000 		.4byte	.LVL38
 4274 0149 0100     		.2byte	0x1
 4275 014b 50       		.byte	0x50
 4276 014c 42000000 		.4byte	.LVL38
 4277 0150 64000000 		.4byte	.LFE260
 4278 0154 0100     		.2byte	0x1
 4279 0156 54       		.byte	0x54
 4280 0157 00000000 		.4byte	0
ARM GAS  C:\Users\jo\AppData\Local\Temp\ccoMBxzN.s 			page 77


 4281 015b 00000000 		.4byte	0
 4282              	.LLST7:
 4283 015f 00000000 		.4byte	.LVL29
 4284 0163 13000000 		.4byte	.LVL31-1
 4285 0167 0100     		.2byte	0x1
 4286 0169 51       		.byte	0x51
 4287 016a 13000000 		.4byte	.LVL31-1
 4288 016e 2C000000 		.4byte	.LVL33
 4289 0172 0100     		.2byte	0x1
 4290 0174 56       		.byte	0x56
 4291 0175 2C000000 		.4byte	.LVL33
 4292 0179 32000000 		.4byte	.LVL34
 4293 017d 0400     		.2byte	0x4
 4294 017f F3       		.byte	0xf3
 4295 0180 01       		.uleb128 0x1
 4296 0181 51       		.byte	0x51
 4297 0182 9F       		.byte	0x9f
 4298 0183 32000000 		.4byte	.LVL34
 4299 0187 38000000 		.4byte	.LVL35
 4300 018b 0100     		.2byte	0x1
 4301 018d 56       		.byte	0x56
 4302 018e 38000000 		.4byte	.LVL35
 4303 0192 3E000000 		.4byte	.LVL36
 4304 0196 0100     		.2byte	0x1
 4305 0198 51       		.byte	0x51
 4306 0199 3E000000 		.4byte	.LVL36
 4307 019d 64000000 		.4byte	.LFE260
 4308 01a1 0400     		.2byte	0x4
 4309 01a3 F3       		.byte	0xf3
 4310 01a4 01       		.uleb128 0x1
 4311 01a5 51       		.byte	0x51
 4312 01a6 9F       		.byte	0x9f
 4313 01a7 00000000 		.4byte	0
 4314 01ab 00000000 		.4byte	0
 4315              	.LLST8:
 4316 01af 00000000 		.4byte	.LVL29
 4317 01b3 13000000 		.4byte	.LVL31-1
 4318 01b7 0100     		.2byte	0x1
 4319 01b9 52       		.byte	0x52
 4320 01ba 13000000 		.4byte	.LVL31-1
 4321 01be 38000000 		.4byte	.LVL35
 4322 01c2 0400     		.2byte	0x4
 4323 01c4 F3       		.byte	0xf3
 4324 01c5 01       		.uleb128 0x1
 4325 01c6 52       		.byte	0x52
 4326 01c7 9F       		.byte	0x9f
 4327 01c8 38000000 		.4byte	.LVL35
 4328 01cc 40000000 		.4byte	.LVL37
 4329 01d0 0100     		.2byte	0x1
 4330 01d2 52       		.byte	0x52
 4331 01d3 40000000 		.4byte	.LVL37
 4332 01d7 64000000 		.4byte	.LFE260
 4333 01db 0400     		.2byte	0x4
 4334 01dd F3       		.byte	0xf3
 4335 01de 01       		.uleb128 0x1
 4336 01df 52       		.byte	0x52
 4337 01e0 9F       		.byte	0x9f
ARM GAS  C:\Users\jo\AppData\Local\Temp\ccoMBxzN.s 			page 78


 4338 01e1 00000000 		.4byte	0
 4339 01e5 00000000 		.4byte	0
 4340              	.LLST9:
 4341 01e9 00000000 		.4byte	.LVL41
 4342 01ed 0E000000 		.4byte	.LVL42
 4343 01f1 0100     		.2byte	0x1
 4344 01f3 50       		.byte	0x50
 4345 01f4 0E000000 		.4byte	.LVL42
 4346 01f8 20000000 		.4byte	.LVL45
 4347 01fc 0100     		.2byte	0x1
 4348 01fe 54       		.byte	0x54
 4349 01ff 20000000 		.4byte	.LVL45
 4350 0203 24000000 		.4byte	.LVL46
 4351 0207 0400     		.2byte	0x4
 4352 0209 F3       		.byte	0xf3
 4353 020a 01       		.uleb128 0x1
 4354 020b 50       		.byte	0x50
 4355 020c 9F       		.byte	0x9f
 4356 020d 24000000 		.4byte	.LVL46
 4357 0211 2A000000 		.4byte	.LVL47
 4358 0215 0100     		.2byte	0x1
 4359 0217 50       		.byte	0x50
 4360 0218 2A000000 		.4byte	.LVL47
 4361 021c 3C000000 		.4byte	.LVL51
 4362 0220 0100     		.2byte	0x1
 4363 0222 54       		.byte	0x54
 4364 0223 3C000000 		.4byte	.LVL51
 4365 0227 40000000 		.4byte	.LVL52
 4366 022b 0400     		.2byte	0x4
 4367 022d F3       		.byte	0xf3
 4368 022e 01       		.uleb128 0x1
 4369 022f 50       		.byte	0x50
 4370 0230 9F       		.byte	0x9f
 4371 0231 40000000 		.4byte	.LVL52
 4372 0235 46000000 		.4byte	.LVL53
 4373 0239 0100     		.2byte	0x1
 4374 023b 50       		.byte	0x50
 4375 023c 46000000 		.4byte	.LVL53
 4376 0240 68000000 		.4byte	.LFE261
 4377 0244 0100     		.2byte	0x1
 4378 0246 54       		.byte	0x54
 4379 0247 00000000 		.4byte	0
 4380 024b 00000000 		.4byte	0
 4381              	.LLST10:
 4382 024f 00000000 		.4byte	.LVL41
 4383 0253 10000000 		.4byte	.LVL43
 4384 0257 0100     		.2byte	0x1
 4385 0259 51       		.byte	0x51
 4386 025a 10000000 		.4byte	.LVL43
 4387 025e 20000000 		.4byte	.LVL45
 4388 0262 0100     		.2byte	0x1
 4389 0264 55       		.byte	0x55
 4390 0265 20000000 		.4byte	.LVL45
 4391 0269 23000000 		.4byte	.LVL46-1
 4392 026d 0100     		.2byte	0x1
 4393 026f 50       		.byte	0x50
 4394 0270 23000000 		.4byte	.LVL46-1
ARM GAS  C:\Users\jo\AppData\Local\Temp\ccoMBxzN.s 			page 79


 4395 0274 24000000 		.4byte	.LVL46
 4396 0278 0400     		.2byte	0x4
 4397 027a F3       		.byte	0xf3
 4398 027b 01       		.uleb128 0x1
 4399 027c 51       		.byte	0x51
 4400 027d 9F       		.byte	0x9f
 4401 027e 24000000 		.4byte	.LVL46
 4402 0282 2C000000 		.4byte	.LVL48
 4403 0286 0100     		.2byte	0x1
 4404 0288 51       		.byte	0x51
 4405 0289 2C000000 		.4byte	.LVL48
 4406 028d 36000000 		.4byte	.LVL50
 4407 0291 0100     		.2byte	0x1
 4408 0293 55       		.byte	0x55
 4409 0294 36000000 		.4byte	.LVL50
 4410 0298 40000000 		.4byte	.LVL52
 4411 029c 0400     		.2byte	0x4
 4412 029e F3       		.byte	0xf3
 4413 029f 01       		.uleb128 0x1
 4414 02a0 51       		.byte	0x51
 4415 02a1 9F       		.byte	0x9f
 4416 02a2 40000000 		.4byte	.LVL52
 4417 02a6 48000000 		.4byte	.LVL54
 4418 02aa 0100     		.2byte	0x1
 4419 02ac 51       		.byte	0x51
 4420 02ad 48000000 		.4byte	.LVL54
 4421 02b1 68000000 		.4byte	.LFE261
 4422 02b5 0400     		.2byte	0x4
 4423 02b7 F3       		.byte	0xf3
 4424 02b8 01       		.uleb128 0x1
 4425 02b9 51       		.byte	0x51
 4426 02ba 9F       		.byte	0x9f
 4427 02bb 00000000 		.4byte	0
 4428 02bf 00000000 		.4byte	0
 4429              	.LLST11:
 4430 02c3 34000000 		.4byte	.LVL49
 4431 02c7 36000000 		.4byte	.LVL50
 4432 02cb 0600     		.2byte	0x6
 4433 02cd 03       		.byte	0x3
 4434 02ce E4000000 		.4byte	.LC7
 4435 02d2 9F       		.byte	0x9f
 4436 02d3 00000000 		.4byte	0
 4437 02d7 00000000 		.4byte	0
 4438              	.LLST12:
 4439 02db 00000000 		.4byte	.LVL56
 4440 02df 1A000000 		.4byte	.LVL57
 4441 02e3 0100     		.2byte	0x1
 4442 02e5 50       		.byte	0x50
 4443 02e6 1A000000 		.4byte	.LVL57
 4444 02ea 22000000 		.4byte	.LVL58
 4445 02ee 0400     		.2byte	0x4
 4446 02f0 F3       		.byte	0xf3
 4447 02f1 01       		.uleb128 0x1
 4448 02f2 50       		.byte	0x50
 4449 02f3 9F       		.byte	0x9f
 4450 02f4 22000000 		.4byte	.LVL58
 4451 02f8 24000000 		.4byte	.LVL59
ARM GAS  C:\Users\jo\AppData\Local\Temp\ccoMBxzN.s 			page 80


 4452 02fc 0100     		.2byte	0x1
 4453 02fe 50       		.byte	0x50
 4454 02ff 24000000 		.4byte	.LVL59
 4455 0303 26000000 		.4byte	.LVL60
 4456 0307 0400     		.2byte	0x4
 4457 0309 F3       		.byte	0xf3
 4458 030a 01       		.uleb128 0x1
 4459 030b 50       		.byte	0x50
 4460 030c 9F       		.byte	0x9f
 4461 030d 26000000 		.4byte	.LVL60
 4462 0311 30000000 		.4byte	.LVL63
 4463 0315 0100     		.2byte	0x1
 4464 0317 50       		.byte	0x50
 4465 0318 30000000 		.4byte	.LVL63
 4466 031c 40000000 		.4byte	.LVL66
 4467 0320 0400     		.2byte	0x4
 4468 0322 F3       		.byte	0xf3
 4469 0323 01       		.uleb128 0x1
 4470 0324 50       		.byte	0x50
 4471 0325 9F       		.byte	0x9f
 4472 0326 40000000 		.4byte	.LVL66
 4473 032a 4A000000 		.4byte	.LVL69
 4474 032e 0100     		.2byte	0x1
 4475 0330 50       		.byte	0x50
 4476 0331 4A000000 		.4byte	.LVL69
 4477 0335 5A000000 		.4byte	.LVL72
 4478 0339 0400     		.2byte	0x4
 4479 033b F3       		.byte	0xf3
 4480 033c 01       		.uleb128 0x1
 4481 033d 50       		.byte	0x50
 4482 033e 9F       		.byte	0x9f
 4483 033f 5A000000 		.4byte	.LVL72
 4484 0343 64000000 		.4byte	.LVL75
 4485 0347 0100     		.2byte	0x1
 4486 0349 50       		.byte	0x50
 4487 034a 64000000 		.4byte	.LVL75
 4488 034e 8C000000 		.4byte	.LFE262
 4489 0352 0400     		.2byte	0x4
 4490 0354 F3       		.byte	0xf3
 4491 0355 01       		.uleb128 0x1
 4492 0356 50       		.byte	0x50
 4493 0357 9F       		.byte	0x9f
 4494 0358 00000000 		.4byte	0
 4495 035c 00000000 		.4byte	0
 4496              	.LLST13:
 4497 0360 00000000 		.4byte	.LVL56
 4498 0364 1A000000 		.4byte	.LVL57
 4499 0368 0100     		.2byte	0x1
 4500 036a 51       		.byte	0x51
 4501 036b 1A000000 		.4byte	.LVL57
 4502 036f 22000000 		.4byte	.LVL58
 4503 0373 0400     		.2byte	0x4
 4504 0375 F3       		.byte	0xf3
 4505 0376 01       		.uleb128 0x1
 4506 0377 51       		.byte	0x51
 4507 0378 9F       		.byte	0x9f
 4508 0379 22000000 		.4byte	.LVL58
ARM GAS  C:\Users\jo\AppData\Local\Temp\ccoMBxzN.s 			page 81


 4509 037d 2C000000 		.4byte	.LVL61
 4510 0381 0100     		.2byte	0x1
 4511 0383 51       		.byte	0x51
 4512 0384 2C000000 		.4byte	.LVL61
 4513 0388 40000000 		.4byte	.LVL66
 4514 038c 0400     		.2byte	0x4
 4515 038e F3       		.byte	0xf3
 4516 038f 01       		.uleb128 0x1
 4517 0390 51       		.byte	0x51
 4518 0391 9F       		.byte	0x9f
 4519 0392 40000000 		.4byte	.LVL66
 4520 0396 46000000 		.4byte	.LVL67
 4521 039a 0100     		.2byte	0x1
 4522 039c 51       		.byte	0x51
 4523 039d 46000000 		.4byte	.LVL67
 4524 03a1 5A000000 		.4byte	.LVL72
 4525 03a5 0400     		.2byte	0x4
 4526 03a7 F3       		.byte	0xf3
 4527 03a8 01       		.uleb128 0x1
 4528 03a9 51       		.byte	0x51
 4529 03aa 9F       		.byte	0x9f
 4530 03ab 5A000000 		.4byte	.LVL72
 4531 03af 60000000 		.4byte	.LVL73
 4532 03b3 0100     		.2byte	0x1
 4533 03b5 51       		.byte	0x51
 4534 03b6 60000000 		.4byte	.LVL73
 4535 03ba 8C000000 		.4byte	.LFE262
 4536 03be 0400     		.2byte	0x4
 4537 03c0 F3       		.byte	0xf3
 4538 03c1 01       		.uleb128 0x1
 4539 03c2 51       		.byte	0x51
 4540 03c3 9F       		.byte	0x9f
 4541 03c4 00000000 		.4byte	0
 4542 03c8 00000000 		.4byte	0
 4543              	.LLST14:
 4544 03cc 00000000 		.4byte	.LVL56
 4545 03d0 1A000000 		.4byte	.LVL57
 4546 03d4 0100     		.2byte	0x1
 4547 03d6 52       		.byte	0x52
 4548 03d7 1A000000 		.4byte	.LVL57
 4549 03db 22000000 		.4byte	.LVL58
 4550 03df 0400     		.2byte	0x4
 4551 03e1 F3       		.byte	0xf3
 4552 03e2 01       		.uleb128 0x1
 4553 03e3 52       		.byte	0x52
 4554 03e4 9F       		.byte	0x9f
 4555 03e5 22000000 		.4byte	.LVL58
 4556 03e9 2E000000 		.4byte	.LVL62
 4557 03ed 0100     		.2byte	0x1
 4558 03ef 52       		.byte	0x52
 4559 03f0 2E000000 		.4byte	.LVL62
 4560 03f4 40000000 		.4byte	.LVL66
 4561 03f8 0400     		.2byte	0x4
 4562 03fa F3       		.byte	0xf3
 4563 03fb 01       		.uleb128 0x1
 4564 03fc 52       		.byte	0x52
 4565 03fd 9F       		.byte	0x9f
ARM GAS  C:\Users\jo\AppData\Local\Temp\ccoMBxzN.s 			page 82


 4566 03fe 40000000 		.4byte	.LVL66
 4567 0402 48000000 		.4byte	.LVL68
 4568 0406 0100     		.2byte	0x1
 4569 0408 52       		.byte	0x52
 4570 0409 48000000 		.4byte	.LVL68
 4571 040d 5A000000 		.4byte	.LVL72
 4572 0411 0400     		.2byte	0x4
 4573 0413 F3       		.byte	0xf3
 4574 0414 01       		.uleb128 0x1
 4575 0415 52       		.byte	0x52
 4576 0416 9F       		.byte	0x9f
 4577 0417 5A000000 		.4byte	.LVL72
 4578 041b 62000000 		.4byte	.LVL74
 4579 041f 0100     		.2byte	0x1
 4580 0421 52       		.byte	0x52
 4581 0422 62000000 		.4byte	.LVL74
 4582 0426 8C000000 		.4byte	.LFE262
 4583 042a 0400     		.2byte	0x4
 4584 042c F3       		.byte	0xf3
 4585 042d 01       		.uleb128 0x1
 4586 042e 52       		.byte	0x52
 4587 042f 9F       		.byte	0x9f
 4588 0430 00000000 		.4byte	0
 4589 0434 00000000 		.4byte	0
 4590              	.LLST15:
 4591 0438 36000000 		.4byte	.LVL64
 4592 043c 40000000 		.4byte	.LVL66
 4593 0440 0600     		.2byte	0x6
 4594 0442 03       		.byte	0x3
 4595 0443 3C010000 		.4byte	.LC10
 4596 0447 9F       		.byte	0x9f
 4597 0448 00000000 		.4byte	0
 4598 044c 00000000 		.4byte	0
 4599              	.LLST16:
 4600 0450 50000000 		.4byte	.LVL70
 4601 0454 5A000000 		.4byte	.LVL72
 4602 0458 0600     		.2byte	0x6
 4603 045a 03       		.byte	0x3
 4604 045b 1C010000 		.4byte	.LC9
 4605 045f 9F       		.byte	0x9f
 4606 0460 00000000 		.4byte	0
 4607 0464 00000000 		.4byte	0
 4608              	.LLST17:
 4609 0468 00000000 		.4byte	.LVL78
 4610 046c 0C000000 		.4byte	.LVL79
 4611 0470 0100     		.2byte	0x1
 4612 0472 50       		.byte	0x50
 4613 0473 0C000000 		.4byte	.LVL79
 4614 0477 16000000 		.4byte	.LVL80
 4615 047b 0400     		.2byte	0x4
 4616 047d F3       		.byte	0xf3
 4617 047e 01       		.uleb128 0x1
 4618 047f 50       		.byte	0x50
 4619 0480 9F       		.byte	0x9f
 4620 0481 16000000 		.4byte	.LVL80
 4621 0485 18000000 		.4byte	.LVL81
 4622 0489 0100     		.2byte	0x1
ARM GAS  C:\Users\jo\AppData\Local\Temp\ccoMBxzN.s 			page 83


 4623 048b 50       		.byte	0x50
 4624 048c 18000000 		.4byte	.LVL81
 4625 0490 1A000000 		.4byte	.LVL82
 4626 0494 0400     		.2byte	0x4
 4627 0496 F3       		.byte	0xf3
 4628 0497 01       		.uleb128 0x1
 4629 0498 50       		.byte	0x50
 4630 0499 9F       		.byte	0x9f
 4631 049a 1A000000 		.4byte	.LVL82
 4632 049e 28000000 		.4byte	.LVL83
 4633 04a2 0100     		.2byte	0x1
 4634 04a4 50       		.byte	0x50
 4635 04a5 28000000 		.4byte	.LVL83
 4636 04a9 50000000 		.4byte	.LFE263
 4637 04ad 0400     		.2byte	0x4
 4638 04af F3       		.byte	0xf3
 4639 04b0 01       		.uleb128 0x1
 4640 04b1 50       		.byte	0x50
 4641 04b2 9F       		.byte	0x9f
 4642 04b3 00000000 		.4byte	0
 4643 04b7 00000000 		.4byte	0
 4644              	.LLST18:
 4645 04bb 00000000 		.4byte	.LVL86
 4646 04bf 16000000 		.4byte	.LVL87
 4647 04c3 0100     		.2byte	0x1
 4648 04c5 50       		.byte	0x50
 4649 04c6 16000000 		.4byte	.LVL87
 4650 04ca 38000000 		.4byte	.LFE264
 4651 04ce 0400     		.2byte	0x4
 4652 04d0 F3       		.byte	0xf3
 4653 04d1 01       		.uleb128 0x1
 4654 04d2 50       		.byte	0x50
 4655 04d3 9F       		.byte	0x9f
 4656 04d4 00000000 		.4byte	0
 4657 04d8 00000000 		.4byte	0
 4658              		.section	.debug_aranges,"",%progbits
 4659 0000 64000000 		.4byte	0x64
 4660 0004 0200     		.2byte	0x2
 4661 0006 00000000 		.4byte	.Ldebug_info0
 4662 000a 04       		.byte	0x4
 4663 000b 00       		.byte	0
 4664 000c 0000     		.2byte	0
 4665 000e 0000     		.2byte	0
 4666 0010 00000000 		.4byte	.LFB265
 4667 0014 28000000 		.4byte	.LFE265-.LFB265
 4668 0018 00000000 		.4byte	.LFB256
 4669 001c 1C000000 		.4byte	.LFE256-.LFB256
 4670 0020 00000000 		.4byte	.LFB257
 4671 0024 1A000000 		.4byte	.LFE257-.LFB257
 4672 0028 00000000 		.4byte	.LFB258
 4673 002c 78000000 		.4byte	.LFE258-.LFB258
 4674 0030 00000000 		.4byte	.LFB259
 4675 0034 48000000 		.4byte	.LFE259-.LFB259
 4676 0038 00000000 		.4byte	.LFB260
 4677 003c 64000000 		.4byte	.LFE260-.LFB260
 4678 0040 00000000 		.4byte	.LFB261
 4679 0044 68000000 		.4byte	.LFE261-.LFB261
ARM GAS  C:\Users\jo\AppData\Local\Temp\ccoMBxzN.s 			page 84


 4680 0048 00000000 		.4byte	.LFB262
 4681 004c 8C000000 		.4byte	.LFE262-.LFB262
 4682 0050 00000000 		.4byte	.LFB263
 4683 0054 50000000 		.4byte	.LFE263-.LFB263
 4684 0058 00000000 		.4byte	.LFB264
 4685 005c 38000000 		.4byte	.LFE264-.LFB264
 4686 0060 00000000 		.4byte	0
 4687 0064 00000000 		.4byte	0
 4688              		.section	.debug_ranges,"",%progbits
 4689              	.Ldebug_ranges0:
 4690 0000 2A000000 		.4byte	.LBB28
 4691 0004 2C000000 		.4byte	.LBE28
 4692 0008 32000000 		.4byte	.LBB31
 4693 000c 48000000 		.4byte	.LBE31
 4694 0010 00000000 		.4byte	0
 4695 0014 00000000 		.4byte	0
 4696 0018 34000000 		.4byte	.LBB34
 4697 001c 36000000 		.4byte	.LBE34
 4698 0020 3C000000 		.4byte	.LBB37
 4699 0024 40000000 		.4byte	.LBE37
 4700 0028 00000000 		.4byte	0
 4701 002c 00000000 		.4byte	0
 4702 0030 1C000000 		.4byte	.LBB48
 4703 0034 1E000000 		.4byte	.LBE48
 4704 0038 24000000 		.4byte	.LBB51
 4705 003c 38000000 		.4byte	.LBE51
 4706 0040 00000000 		.4byte	0
 4707 0044 00000000 		.4byte	0
 4708 0048 00000000 		.4byte	.LFB265
 4709 004c 28000000 		.4byte	.LFE265
 4710 0050 00000000 		.4byte	.LFB256
 4711 0054 1C000000 		.4byte	.LFE256
 4712 0058 00000000 		.4byte	.LFB257
 4713 005c 1A000000 		.4byte	.LFE257
 4714 0060 00000000 		.4byte	.LFB258
 4715 0064 78000000 		.4byte	.LFE258
 4716 0068 00000000 		.4byte	.LFB259
 4717 006c 48000000 		.4byte	.LFE259
 4718 0070 00000000 		.4byte	.LFB260
 4719 0074 64000000 		.4byte	.LFE260
 4720 0078 00000000 		.4byte	.LFB261
 4721 007c 68000000 		.4byte	.LFE261
 4722 0080 00000000 		.4byte	.LFB262
 4723 0084 8C000000 		.4byte	.LFE262
 4724 0088 00000000 		.4byte	.LFB263
 4725 008c 50000000 		.4byte	.LFE263
 4726 0090 00000000 		.4byte	.LFB264
 4727 0094 38000000 		.4byte	.LFE264
 4728 0098 00000000 		.4byte	0
 4729 009c 00000000 		.4byte	0
 4730              		.section	.debug_line,"",%progbits
 4731              	.Ldebug_line0:
 4732 0000 02060000 		.section	.debug_str,"MS",%progbits,1
 4732      0200BB03 
 4732      00000201 
 4732      FB0E0D00 
 4732      01010101 
ARM GAS  C:\Users\jo\AppData\Local\Temp\ccoMBxzN.s 			page 85


 4733              	.LASF26:
 4734 0000 74726566 		.ascii	"trefs_t\000"
 4734      735F7400 
 4735              	.LASF152:
 4736 0008 70627566 		.ascii	"pbuf\000"
 4736      00
 4737              	.LASF98:
 4738 000d 73655F74 		.ascii	"se_time\000"
 4738      696D6500 
 4739              	.LASF1:
 4740 0015 73697A65 		.ascii	"size_t\000"
 4740      5F7400
 4741              	.LASF153:
 4742 001c 6E657874 		.ascii	"next\000"
 4742      00
 4743              	.LASF120:
 4744 0021 7264796D 		.ascii	"rdymsg\000"
 4744      736700
 4745              	.LASF21:
 4746 0028 75696E74 		.ascii	"uint64_t\000"
 4746      36345F74 
 4746      00
 4747              	.LASF4:
 4748 0031 5F5F7569 		.ascii	"__uint8_t\000"
 4748      6E74385F 
 4748      7400
 4749              	.LASF94:
 4750 003b 706F7274 		.ascii	"port_intctx\000"
 4750      5F696E74 
 4750      63747800 
 4751              	.LASF136:
 4752 0047 76615F6C 		.ascii	"va_list\000"
 4752      69737400 
 4753              	.LASF77:
 4754 004f 73797374 		.ascii	"system_debug_t\000"
 4754      656D5F64 
 4754      65627567 
 4754      5F7400
 4755              	.LASF156:
 4756 005e 74797065 		.ascii	"type\000"
 4756      00
 4757              	.LASF110:
 4758 0063 776F7273 		.ascii	"worst\000"
 4758      7400
 4759              	.LASF113:
 4760 0069 74696D65 		.ascii	"time_measurement_t\000"
 4760      5F6D6561 
 4760      73757265 
 4760      6D656E74 
 4760      5F7400
 4761              	.LASF15:
 4762 007c 6C6F6E67 		.ascii	"long long unsigned int\000"
 4762      206C6F6E 
 4762      6720756E 
 4762      7369676E 
 4762      65642069 
 4763              	.LASF178:
ARM GAS  C:\Users\jo\AppData\Local\Temp\ccoMBxzN.s 			page 86


 4764 0093 666F726D 		.ascii	"formatted_bytes\000"
 4764      61747465 
 4764      645F6279 
 4764      74657300 
 4765              	.LASF179:
 4766 00a3 6E657462 		.ascii	"netbuf_new\000"
 4766      75665F6E 
 4766      657700
 4767              	.LASF101:
 4768 00ae 73655F73 		.ascii	"se_state\000"
 4768      74617465 
 4768      00
 4769              	.LASF121:
 4770 00b7 65786974 		.ascii	"exitcode\000"
 4770      636F6465 
 4770      00
 4771              	.LASF175:
 4772 00c0 4D454D50 		.ascii	"MEMP_PBUF_POOL\000"
 4772      5F504255 
 4772      465F504F 
 4772      4F4C00
 4773              	.LASF87:
 4774 00cf 6D61696E 		.ascii	"mainthread\000"
 4774      74687265 
 4774      616400
 4775              	.LASF166:
 4776 00da 4D454D50 		.ascii	"MEMP_TCP_SEG\000"
 4776      5F544350 
 4776      5F534547 
 4776      00
 4777              	.LASF74:
 4778 00e7 76697274 		.ascii	"virtual_timers_list_t\000"
 4778      75616C5F 
 4778      74696D65 
 4778      72735F6C 
 4778      6973745F 
 4779              	.LASF2:
 4780 00fd 5F5F696E 		.ascii	"__int8_t\000"
 4780      74385F74 
 4780      00
 4781              	.LASF192:
 4782 0106 49544D5F 		.ascii	"ITM_RxBuffer\000"
 4782      52784275 
 4782      66666572 
 4782      00
 4783              	.LASF198:
 4784 0113 66726565 		.ascii	"free\000"
 4784      00
 4785              	.LASF23:
 4786 0118 72747469 		.ascii	"rttime_t\000"
 4786      6D655F74 
 4786      00
 4787              	.LASF36:
 4788 0121 705F7072 		.ascii	"p_prio\000"
 4788      696F00
 4789              	.LASF203:
 4790 0128 433A5C55 		.ascii	"C:\\Users\\jo\\Documents\\GitHub\\ChibiOS\\demos\\S"
ARM GAS  C:\Users\jo\AppData\Local\Temp\ccoMBxzN.s 			page 87


 4790      73657273 
 4790      5C6A6F5C 
 4790      446F6375 
 4790      6D656E74 
 4791 0154 544D3332 		.ascii	"TM32\\RT-STM32F407-DISCOVERY-uHttp\000"
 4791      5C52542D 
 4791      53544D33 
 4791      32463430 
 4791      372D4449 
 4792              	.LASF13:
 4793 0176 6C6F6E67 		.ascii	"long long int\000"
 4793      206C6F6E 
 4793      6720696E 
 4793      7400
 4794              	.LASF3:
 4795 0184 7369676E 		.ascii	"signed char\000"
 4795      65642063 
 4795      68617200 
 4796              	.LASF12:
 4797 0190 6C6F6E67 		.ascii	"long unsigned int\000"
 4797      20756E73 
 4797      69676E65 
 4797      6420696E 
 4797      7400
 4798              	.LASF51:
 4799 01a2 705F6D70 		.ascii	"p_mpool\000"
 4799      6F6F6C00 
 4800              	.LASF159:
 4801 01aa 61646472 		.ascii	"addr\000"
 4801      00
 4802              	.LASF86:
 4803 01af 76746C69 		.ascii	"vtlist\000"
 4803      737400
 4804              	.LASF155:
 4805 01b6 746F745F 		.ascii	"tot_len\000"
 4805      6C656E00 
 4806              	.LASF84:
 4807 01be 63685F73 		.ascii	"ch_system\000"
 4807      79737465 
 4807      6D00
 4808              	.LASF10:
 4809 01c8 6C6F6E67 		.ascii	"long int\000"
 4809      20696E74 
 4809      00
 4810              	.LASF143:
 4811 01d1 50425546 		.ascii	"PBUF_IP\000"
 4811      5F495000 
 4812              	.LASF150:
 4813 01d9 50425546 		.ascii	"PBUF_POOL\000"
 4813      5F504F4F 
 4813      4C00
 4814              	.LASF25:
 4815 01e3 74737461 		.ascii	"tstate_t\000"
 4815      74655F74 
 4815      00
 4816              	.LASF149:
 4817 01ec 50425546 		.ascii	"PBUF_REF\000"
ARM GAS  C:\Users\jo\AppData\Local\Temp\ccoMBxzN.s 			page 88


 4817      5F524546 
 4817      00
 4818              	.LASF99:
 4819 01f5 73655F74 		.ascii	"se_tp\000"
 4819      7000
 4820              	.LASF186:
 4821 01fb 6E657462 		.ascii	"netbuf_chain\000"
 4821      75665F63 
 4821      6861696E 
 4821      00
 4822              	.LASF187:
 4823 0208 68656164 		.ascii	"head\000"
 4823      00
 4824              	.LASF96:
 4825 020d 5F5F7661 		.ascii	"__va_list\000"
 4825      5F6C6973 
 4825      7400
 4826              	.LASF163:
 4827 0217 4D454D50 		.ascii	"MEMP_UDP_PCB\000"
 4827      5F554450 
 4827      5F504342 
 4827      00
 4828              	.LASF38:
 4829 0224 705F6E65 		.ascii	"p_newer\000"
 4829      77657200 
 4830              	.LASF191:
 4831 022c 6E657462 		.ascii	"netbuf_first\000"
 4831      75665F66 
 4831      69727374 
 4831      00
 4832              	.LASF183:
 4833 0239 6E657462 		.ascii	"netbuf_free\000"
 4833      75665F66 
 4833      72656500 
 4834              	.LASF103:
 4835 0245 74625F73 		.ascii	"tb_size\000"
 4835      697A6500 
 4836              	.LASF63:
 4837 024d 725F6E65 		.ascii	"r_newer\000"
 4837      77657200 
 4838              	.LASF165:
 4839 0255 4D454D50 		.ascii	"MEMP_TCP_PCB_LISTEN\000"
 4839      5F544350 
 4839      5F504342 
 4839      5F4C4953 
 4839      54454E00 
 4840              	.LASF91:
 4841 0269 72656761 		.ascii	"regarm_t\000"
 4841      726D5F74 
 4841      00
 4842              	.LASF70:
 4843 0272 76745F70 		.ascii	"vt_prev\000"
 4843      72657600 
 4844              	.LASF199:
 4845 027a 63685379 		.ascii	"chSysHalt\000"
 4845      7348616C 
 4845      7400
ARM GAS  C:\Users\jo\AppData\Local\Temp\ccoMBxzN.s 			page 89


 4846              	.LASF78:
 4847 0284 63685F73 		.ascii	"ch_system_debug\000"
 4847      79737465 
 4847      6D5F6465 
 4847      62756700 
 4848              	.LASF162:
 4849 0294 706F7274 		.ascii	"port\000"
 4849      00
 4850              	.LASF128:
 4851 0299 6D757465 		.ascii	"mutex_t\000"
 4851      785F7400 
 4852              	.LASF132:
 4853 02a1 42617365 		.ascii	"BaseSequentialStream\000"
 4853      53657175 
 4853      656E7469 
 4853      616C5374 
 4853      7265616D 
 4854              	.LASF180:
 4855 02b6 6E657462 		.ascii	"netbuf_alloc\000"
 4855      75665F61 
 4855      6C6C6F63 
 4855      00
 4856              	.LASF89:
 4857 02c3 69646C65 		.ascii	"idle_thread_wa\000"
 4857      5F746872 
 4857      6561645F 
 4857      776100
 4858              	.LASF30:
 4859 02d2 636E745F 		.ascii	"cnt_t\000"
 4859      7400
 4860              	.LASF167:
 4861 02d8 4D454D50 		.ascii	"MEMP_REASSDATA\000"
 4861      5F524541 
 4861      53534441 
 4861      544100
 4862              	.LASF41:
 4863 02e7 705F7374 		.ascii	"p_stklimit\000"
 4863      6B6C696D 
 4863      697400
 4864              	.LASF0:
 4865 02f2 756E7369 		.ascii	"unsigned int\000"
 4865      676E6564 
 4865      20696E74 
 4865      00
 4866              	.LASF137:
 4867 02ff 75385F74 		.ascii	"u8_t\000"
 4867      00
 4868              	.LASF69:
 4869 0304 76745F6E 		.ascii	"vt_next\000"
 4869      65787400 
 4870              	.LASF18:
 4871 030c 75696E74 		.ascii	"uint16_t\000"
 4871      31365F74 
 4871      00
 4872              	.LASF151:
 4873 0315 70627566 		.ascii	"pbuf_type\000"
 4873      5F747970 
ARM GAS  C:\Users\jo\AppData\Local\Temp\ccoMBxzN.s 			page 90


 4873      6500
 4874              	.LASF184:
 4875 031f 6E657462 		.ascii	"netbuf_ref\000"
 4875      75665F72 
 4875      656600
 4876              	.LASF174:
 4877 032a 4D454D50 		.ascii	"MEMP_PBUF\000"
 4877      5F504255 
 4877      4600
 4878              	.LASF46:
 4879 0334 705F6D73 		.ascii	"p_msgqueue\000"
 4879      67717565 
 4879      756500
 4880              	.LASF140:
 4881 033f 7533325F 		.ascii	"u32_t\000"
 4881      7400
 4882              	.LASF20:
 4883 0345 75696E74 		.ascii	"uint32_t\000"
 4883      33325F74 
 4883      00
 4884              	.LASF190:
 4885 034e 6E657462 		.ascii	"netbuf_next\000"
 4885      75665F6E 
 4885      65787400 
 4886              	.LASF114:
 4887 035a 6E5F6972 		.ascii	"n_irq\000"
 4887      7100
 4888              	.LASF164:
 4889 0360 4D454D50 		.ascii	"MEMP_TCP_PCB\000"
 4889      5F544350 
 4889      5F504342 
 4889      00
 4890              	.LASF8:
 4891 036d 73686F72 		.ascii	"short unsigned int\000"
 4891      7420756E 
 4891      7369676E 
 4891      65642069 
 4891      6E7400
 4892              	.LASF118:
 4893 0380 6B65726E 		.ascii	"kernel_stats_t\000"
 4893      656C5F73 
 4893      74617473 
 4893      5F7400
 4894              	.LASF54:
 4895 038f 63685F74 		.ascii	"ch_thread\000"
 4895      68726561 
 4895      6400
 4896              	.LASF172:
 4897 0399 4D454D50 		.ascii	"MEMP_TCPIP_MSG_INPKT\000"
 4897      5F544350 
 4897      49505F4D 
 4897      53475F49 
 4897      4E504B54 
 4898              	.LASF28:
 4899 03ae 6D73675F 		.ascii	"msg_t\000"
 4899      7400
 4900              	.LASF111:
ARM GAS  C:\Users\jo\AppData\Local\Temp\ccoMBxzN.s 			page 91


 4901 03b4 6C617374 		.ascii	"last\000"
 4901      00
 4902              	.LASF31:
 4903 03b9 75636E74 		.ascii	"ucnt_t\000"
 4903      5F7400
 4904              	.LASF83:
 4905 03c0 63685F73 		.ascii	"ch_system_t\000"
 4905      79737465 
 4905      6D5F7400 
 4906              	.LASF142:
 4907 03cc 50425546 		.ascii	"PBUF_TRANSPORT\000"
 4907      5F545241 
 4907      4E53504F 
 4907      525400
 4908              	.LASF24:
 4909 03db 746D6F64 		.ascii	"tmode_t\000"
 4909      655F7400 
 4910              	.LASF117:
 4911 03e3 6D5F6372 		.ascii	"m_crit_isr\000"
 4911      69745F69 
 4911      737200
 4912              	.LASF59:
 4913 03ee 63685F72 		.ascii	"ch_ready_list\000"
 4913      65616479 
 4913      5F6C6973 
 4913      7400
 4914              	.LASF29:
 4915 03fc 6576656E 		.ascii	"eventmask_t\000"
 4915      746D6173 
 4915      6B5F7400 
 4916              	.LASF9:
 4917 0408 5F5F696E 		.ascii	"__int32_t\000"
 4917      7433325F 
 4917      7400
 4918              	.LASF141:
 4919 0412 6572725F 		.ascii	"err_t\000"
 4919      7400
 4920              	.LASF201:
 4921 0418 474E5520 		.ascii	"GNU C 4.9.3 20141119 (release) [ARM/embedded-4_9-br"
 4921      4320342E 
 4921      392E3320 
 4921      32303134 
 4921      31313139 
 4922 044b 616E6368 		.ascii	"anch revision 218278] -mcpu=cortex-m4 -mno-thumb-in"
 4922      20726576 
 4922      6973696F 
 4922      6E203231 
 4922      38323738 
 4923 047e 74657277 		.ascii	"terwork -mthumb -ggdb -O2 -fomit-frame-pointer -fal"
 4923      6F726B20 
 4923      2D6D7468 
 4923      756D6220 
 4923      2D676764 
 4924 04b1 69676E2D 		.ascii	"ign-functions=16 -ffunction-sections -fdata-section"
 4924      66756E63 
 4924      74696F6E 
 4924      733D3136 
ARM GAS  C:\Users\jo\AppData\Local\Temp\ccoMBxzN.s 			page 92


 4924      202D6666 
 4925 04e4 73202D66 		.ascii	"s -fno-common\000"
 4925      6E6F2D63 
 4925      6F6D6D6F 
 4925      6E00
 4926              	.LASF92:
 4927 04f2 73746B61 		.ascii	"stkalign_t\000"
 4927      6C69676E 
 4927      5F7400
 4928              	.LASF146:
 4929 04fd 70627566 		.ascii	"pbuf_layer\000"
 4929      5F6C6179 
 4929      657200
 4930              	.LASF144:
 4931 0508 50425546 		.ascii	"PBUF_LINK\000"
 4931      5F4C494E 
 4931      4B00
 4932              	.LASF204:
 4933 0512 6F73616C 		.ascii	"osalSysHalt\000"
 4933      53797348 
 4933      616C7400 
 4934              	.LASF130:
 4935 051e 77726974 		.ascii	"write\000"
 4935      6500
 4936              	.LASF176:
 4937 0524 4D454D50 		.ascii	"MEMP_MAX\000"
 4937      5F4D4158 
 4937      00
 4938              	.LASF160:
 4939 052d 69705F61 		.ascii	"ip_addr_t\000"
 4939      6464725F 
 4939      7400
 4940              	.LASF45:
 4941 0537 705F7761 		.ascii	"p_waiting\000"
 4941      6974696E 
 4941      6700
 4942              	.LASF188:
 4943 0541 7461696C 		.ascii	"tail\000"
 4943      00
 4944              	.LASF90:
 4945 0546 73697A65 		.ascii	"sizetype\000"
 4945      74797065 
 4945      00
 4946              	.LASF75:
 4947 054f 63685F76 		.ascii	"ch_virtual_timers_list\000"
 4947      69727475 
 4947      616C5F74 
 4947      696D6572 
 4947      735F6C69 
 4948              	.LASF104:
 4949 0566 74625F70 		.ascii	"tb_ptr\000"
 4949      747200
 4950              	.LASF95:
 4951 056d 5F5F676E 		.ascii	"__gnuc_va_list\000"
 4951      75635F76 
 4951      615F6C69 
 4951      737400
ARM GAS  C:\Users\jo\AppData\Local\Temp\ccoMBxzN.s 			page 93


 4952              	.LASF154:
 4953 057c 7061796C 		.ascii	"payload\000"
 4953      6F616400 
 4954              	.LASF102:
 4955 0584 63685F73 		.ascii	"ch_swc_event_t\000"
 4955      77635F65 
 4955      76656E74 
 4955      5F7400
 4956              	.LASF76:
 4957 0593 76745F6C 		.ascii	"vt_lasttime\000"
 4957      61737474 
 4957      696D6500 
 4958              	.LASF106:
 4959 059f 63685F74 		.ascii	"ch_trace_buffer_t\000"
 4959      72616365 
 4959      5F627566 
 4959      6665725F 
 4959      7400
 4960              	.LASF158:
 4961 05b1 69705F61 		.ascii	"ip_addr\000"
 4961      64647200 
 4962              	.LASF148:
 4963 05b9 50425546 		.ascii	"PBUF_ROM\000"
 4963      5F524F4D 
 4963      00
 4964              	.LASF62:
 4965 05c2 725F6374 		.ascii	"r_ctx\000"
 4965      7800
 4966              	.LASF108:
 4967 05c8 746D5F63 		.ascii	"tm_calibration_t\000"
 4967      616C6962 
 4967      72617469 
 4967      6F6E5F74 
 4967      00
 4968              	.LASF206:
 4969 05d9 70627566 		.ascii	"pbuf_cat\000"
 4969      5F636174 
 4969      00
 4970              	.LASF81:
 4971 05e2 6C6F636B 		.ascii	"lock_cnt\000"
 4971      5F636E74 
 4971      00
 4972              	.LASF65:
 4973 05eb 725F6375 		.ascii	"r_current\000"
 4973      7272656E 
 4973      7400
 4974              	.LASF64:
 4975 05f5 725F6F6C 		.ascii	"r_older\000"
 4975      64657200 
 4976              	.LASF14:
 4977 05fd 5F5F7569 		.ascii	"__uint64_t\000"
 4977      6E743634 
 4977      5F7400
 4978              	.LASF112:
 4979 0608 63756D75 		.ascii	"cumulative\000"
 4979      6C617469 
 4979      766500
ARM GAS  C:\Users\jo\AppData\Local\Temp\ccoMBxzN.s 			page 94


 4980              	.LASF88:
 4981 0613 6B65726E 		.ascii	"kernel_stats\000"
 4981      656C5F73 
 4981      74617473 
 4981      00
 4982              	.LASF135:
 4983 0620 49544D53 		.ascii	"ITMStream\000"
 4983      74726561 
 4983      6D00
 4984              	.LASF105:
 4985 062a 74625F62 		.ascii	"tb_buffer\000"
 4985      75666665 
 4985      7200
 4986              	.LASF67:
 4987 0634 76697274 		.ascii	"virtual_timer_t\000"
 4987      75616C5F 
 4987      74696D65 
 4987      725F7400 
 4988              	.LASF35:
 4989 0644 705F7072 		.ascii	"p_prev\000"
 4989      657600
 4990              	.LASF27:
 4991 064b 74707269 		.ascii	"tprio_t\000"
 4991      6F5F7400 
 4992              	.LASF124:
 4993 0653 6D757465 		.ascii	"mutex\000"
 4993      7800
 4994              	.LASF40:
 4995 0659 705F6E61 		.ascii	"p_name\000"
 4995      6D6500
 4996              	.LASF115:
 4997 0660 6E5F6374 		.ascii	"n_ctxswc\000"
 4997      78737763 
 4997      00
 4998              	.LASF133:
 4999 0669 5F426F6F 		.ascii	"_Bool\000"
 4999      6C00
 5000              	.LASF19:
 5001 066f 696E7433 		.ascii	"int32_t\000"
 5001      325F7400 
 5002              	.LASF5:
 5003 0677 756E7369 		.ascii	"unsigned char\000"
 5003      676E6564 
 5003      20636861 
 5003      7200
 5004              	.LASF125:
 5005 0685 6D5F7175 		.ascii	"m_queue\000"
 5005      65756500 
 5006              	.LASF202:
 5007 068d 2E2E2F2E 		.ascii	"../../../os/ext/lwip-1.4.1/src/api/netbuf.c\000"
 5007      2E2F2E2E 
 5007      2F6F732F 
 5007      6578742F 
 5007      6C776970 
 5008              	.LASF49:
 5009 06b9 705F6D74 		.ascii	"p_mtxlist\000"
 5009      786C6973 
ARM GAS  C:\Users\jo\AppData\Local\Temp\ccoMBxzN.s 			page 95


 5009      7400
 5010              	.LASF6:
 5011 06c3 73686F72 		.ascii	"short int\000"
 5011      7420696E 
 5011      7400
 5012              	.LASF42:
 5013 06cd 705F7374 		.ascii	"p_state\000"
 5013      61746500 
 5014              	.LASF161:
 5015 06d5 6E657462 		.ascii	"netbuf\000"
 5015      756600
 5016              	.LASF39:
 5017 06dc 705F6F6C 		.ascii	"p_older\000"
 5017      64657200 
 5018              	.LASF61:
 5019 06e4 725F7072 		.ascii	"r_prio\000"
 5019      696F00
 5020              	.LASF123:
 5021 06eb 65776D61 		.ascii	"ewmask\000"
 5021      736B00
 5022              	.LASF34:
 5023 06f2 705F6E65 		.ascii	"p_next\000"
 5023      787400
 5024              	.LASF197:
 5025 06f9 70627566 		.ascii	"pbuf_free\000"
 5025      5F667265 
 5025      6500
 5026              	.LASF43:
 5027 0703 705F666C 		.ascii	"p_flags\000"
 5027      61677300 
 5028              	.LASF52:
 5029 070b 705F7374 		.ascii	"p_stats\000"
 5029      61747300 
 5030              	.LASF196:
 5031 0713 6D616C6C 		.ascii	"malloc\000"
 5031      6F6300
 5032              	.LASF147:
 5033 071a 50425546 		.ascii	"PBUF_RAM\000"
 5033      5F52414D 
 5033      00
 5034              	.LASF177:
 5035 0723 72656173 		.ascii	"reason\000"
 5035      6F6E00
 5036              	.LASF68:
 5037 072a 63685F76 		.ascii	"ch_virtual_timer\000"
 5037      69727475 
 5037      616C5F74 
 5037      696D6572 
 5037      00
 5038              	.LASF168:
 5039 073b 4D454D50 		.ascii	"MEMP_FRAG_PBUF\000"
 5039      5F465241 
 5039      475F5042 
 5039      554600
 5040              	.LASF138:
 5041 074a 73385F74 		.ascii	"s8_t\000"
 5041      00
ARM GAS  C:\Users\jo\AppData\Local\Temp\ccoMBxzN.s 			page 96


 5042              	.LASF145:
 5043 074f 50425546 		.ascii	"PBUF_RAW\000"
 5043      5F524157 
 5043      00
 5044              	.LASF48:
 5045 0758 705F6570 		.ascii	"p_epending\000"
 5045      656E6469 
 5045      6E6700
 5046              	.LASF173:
 5047 0763 4D454D50 		.ascii	"MEMP_SYS_TIMEOUT\000"
 5047      5F535953 
 5047      5F54494D 
 5047      454F5554 
 5047      00
 5048              	.LASF129:
 5049 0774 42617365 		.ascii	"BaseSequentialStreamVMT\000"
 5049      53657175 
 5049      656E7469 
 5049      616C5374 
 5049      7265616D 
 5050              	.LASF60:
 5051 078c 725F7175 		.ascii	"r_queue\000"
 5051      65756500 
 5052              	.LASF71:
 5053 0794 76745F64 		.ascii	"vt_delta\000"
 5053      656C7461 
 5053      00
 5054              	.LASF55:
 5055 079d 63685F74 		.ascii	"ch_threads_list\000"
 5055      68726561 
 5055      64735F6C 
 5055      69737400 
 5056              	.LASF171:
 5057 07ad 4D454D50 		.ascii	"MEMP_TCPIP_MSG_API\000"
 5057      5F544350 
 5057      49505F4D 
 5057      53475F41 
 5057      504900
 5058              	.LASF131:
 5059 07c0 72656164 		.ascii	"read\000"
 5059      00
 5060              	.LASF97:
 5061 07c5 63686172 		.ascii	"char\000"
 5061      00
 5062              	.LASF185:
 5063 07ca 64617461 		.ascii	"dataptr\000"
 5063      70747200 
 5064              	.LASF169:
 5065 07d2 4D454D50 		.ascii	"MEMP_NETBUF\000"
 5065      5F4E4554 
 5065      42554600 
 5066              	.LASF7:
 5067 07de 5F5F7569 		.ascii	"__uint16_t\000"
 5067      6E743136 
 5067      5F7400
 5068              	.LASF134:
 5069 07e9 49544D53 		.ascii	"ITMStreamVMT\000"
ARM GAS  C:\Users\jo\AppData\Local\Temp\ccoMBxzN.s 			page 97


 5069      74726561 
 5069      6D564D54 
 5069      00
 5070              	.LASF170:
 5071 07f6 4D454D50 		.ascii	"MEMP_NETCONN\000"
 5071      5F4E4554 
 5071      434F4E4E 
 5071      00
 5072              	.LASF33:
 5073 0803 74687265 		.ascii	"thread_t\000"
 5073      61645F74 
 5073      00
 5074              	.LASF109:
 5075 080c 62657374 		.ascii	"best\000"
 5075      00
 5076              	.LASF127:
 5077 0811 6D5F6E65 		.ascii	"m_next\000"
 5077      787400
 5078              	.LASF32:
 5079 0818 73797374 		.ascii	"systime_t\000"
 5079      696D655F 
 5079      7400
 5080              	.LASF50:
 5081 0822 705F7265 		.ascii	"p_realprio\000"
 5081      616C7072 
 5081      696F00
 5082              	.LASF66:
 5083 082d 76746675 		.ascii	"vtfunc_t\000"
 5083      6E635F74 
 5083      00
 5084              	.LASF11:
 5085 0836 5F5F7569 		.ascii	"__uint32_t\000"
 5085      6E743332 
 5085      5F7400
 5086              	.LASF200:
 5087 0841 70627566 		.ascii	"pbuf_alloc\000"
 5087      5F616C6C 
 5087      6F6300
 5088              	.LASF79:
 5089 084c 70616E69 		.ascii	"panic_msg\000"
 5089      635F6D73 
 5089      6700
 5090              	.LASF107:
 5091 0856 6F666673 		.ascii	"offset\000"
 5091      657400
 5092              	.LASF194:
 5093 085d 6D656D70 		.ascii	"memp_sizes\000"
 5093      5F73697A 
 5093      657300
 5094              	.LASF119:
 5095 0868 5F5F6170 		.ascii	"__ap\000"
 5095      00
 5096              	.LASF93:
 5097 086d 636F6E74 		.ascii	"context\000"
 5097      65787400 
 5098              	.LASF22:
 5099 0875 7274636E 		.ascii	"rtcnt_t\000"
ARM GAS  C:\Users\jo\AppData\Local\Temp\ccoMBxzN.s 			page 98


 5099      745F7400 
 5100              	.LASF16:
 5101 087d 696E7438 		.ascii	"int8_t\000"
 5101      5F7400
 5102              	.LASF73:
 5103 0884 76745F70 		.ascii	"vt_par\000"
 5103      617200
 5104              	.LASF139:
 5105 088b 7531365F 		.ascii	"u16_t\000"
 5105      7400
 5106              	.LASF58:
 5107 0891 72656164 		.ascii	"ready_list_t\000"
 5107      795F6C69 
 5107      73745F74 
 5107      00
 5108              	.LASF193:
 5109 089e 69746D5F 		.ascii	"itm_port\000"
 5109      706F7274 
 5109      00
 5110              	.LASF189:
 5111 08a7 6E657462 		.ascii	"netbuf_data\000"
 5111      75665F64 
 5111      61746100 
 5112              	.LASF56:
 5113 08b3 74687265 		.ascii	"threads_queue_t\000"
 5113      6164735F 
 5113      71756575 
 5113      655F7400 
 5114              	.LASF182:
 5115 08c3 6E657462 		.ascii	"netbuf_delete\000"
 5115      75665F64 
 5115      656C6574 
 5115      6500
 5116              	.LASF44:
 5117 08d1 705F7265 		.ascii	"p_refs\000"
 5117      667300
 5118              	.LASF80:
 5119 08d8 6973725F 		.ascii	"isr_cnt\000"
 5119      636E7400 
 5120              	.LASF85:
 5121 08e0 726C6973 		.ascii	"rlist\000"
 5121      7400
 5122              	.LASF17:
 5123 08e6 75696E74 		.ascii	"uint8_t\000"
 5123      385F7400 
 5124              	.LASF195:
 5125 08ee 63687670 		.ascii	"chvprintf\000"
 5125      72696E74 
 5125      6600
 5126              	.LASF157:
 5127 08f8 666C6167 		.ascii	"flags\000"
 5127      7300
 5128              	.LASF122:
 5129 08fe 77746F62 		.ascii	"wtobjp\000"
 5129      6A7000
 5130              	.LASF181:
 5131 0905 73697A65 		.ascii	"size\000"
ARM GAS  C:\Users\jo\AppData\Local\Temp\ccoMBxzN.s 			page 99


 5131      00
 5132              	.LASF53:
 5133 090a 74687265 		.ascii	"threads_list_t\000"
 5133      6164735F 
 5133      6C697374 
 5133      5F7400
 5134              	.LASF82:
 5135 0919 74726163 		.ascii	"trace_buffer\000"
 5135      655F6275 
 5135      66666572 
 5135      00
 5136              	.LASF47:
 5137 0926 705F6D73 		.ascii	"p_msg\000"
 5137      6700
 5138              	.LASF116:
 5139 092c 6D5F6372 		.ascii	"m_crit_thd\000"
 5139      69745F74 
 5139      686400
 5140              	.LASF126:
 5141 0937 6D5F6F77 		.ascii	"m_owner\000"
 5141      6E657200 
 5142              	.LASF100:
 5143 093f 73655F77 		.ascii	"se_wtobjp\000"
 5143      746F626A 
 5143      7000
 5144              	.LASF37:
 5145 0949 705F6374 		.ascii	"p_ctx\000"
 5145      7800
 5146              	.LASF72:
 5147 094f 76745F66 		.ascii	"vt_func\000"
 5147      756E6300 
 5148              	.LASF57:
 5149 0957 63685F74 		.ascii	"ch_threads_queue\000"
 5149      68726561 
 5149      64735F71 
 5149      75657565 
 5149      00
 5150              	.LASF205:
 5151 0968 63687072 		.ascii	"chprintf\000"
 5151      696E7466 
 5151      00
 5152              		.ident	"GCC: (GNU Tools for ARM Embedded Processors) 4.9.3 20141119 (release) [ARM/embedded-4_9-br
ARM GAS  C:\Users\jo\AppData\Local\Temp\ccoMBxzN.s 			page 100


DEFINED SYMBOLS
                            *ABS*:00000000 netbuf.c
C:\Users\jo\AppData\Local\Temp\ccoMBxzN.s:19     .text.chprintf.constprop.0:00000000 $t
C:\Users\jo\AppData\Local\Temp\ccoMBxzN.s:24     .text.chprintf.constprop.0:00000000 chprintf.constprop.0
C:\Users\jo\AppData\Local\Temp\ccoMBxzN.s:70     .text.chprintf.constprop.0:00000020 $d
C:\Users\jo\AppData\Local\Temp\ccoMBxzN.s:76     .text.netbuf_new:00000000 $t
C:\Users\jo\AppData\Local\Temp\ccoMBxzN.s:82     .text.netbuf_new:00000000 netbuf_new
C:\Users\jo\AppData\Local\Temp\ccoMBxzN.s:115    .text.netbuf_new:00000018 $d
C:\Users\jo\AppData\Local\Temp\ccoMBxzN.s:120    .text.netbuf_delete:00000000 $t
C:\Users\jo\AppData\Local\Temp\ccoMBxzN.s:126    .text.netbuf_delete:00000000 netbuf_delete
C:\Users\jo\AppData\Local\Temp\ccoMBxzN.s:166    .text.netbuf_alloc:00000000 $t
C:\Users\jo\AppData\Local\Temp\ccoMBxzN.s:172    .text.netbuf_alloc:00000000 netbuf_alloc
C:\Users\jo\AppData\Local\Temp\ccoMBxzN.s:275    .text.netbuf_alloc:00000064 $d
C:\Users\jo\AppData\Local\Temp\ccoMBxzN.s:284    .text.netbuf_free:00000000 $t
C:\Users\jo\AppData\Local\Temp\ccoMBxzN.s:290    .text.netbuf_free:00000000 netbuf_free
C:\Users\jo\AppData\Local\Temp\ccoMBxzN.s:362    .text.netbuf_free:00000038 $d
C:\Users\jo\AppData\Local\Temp\ccoMBxzN.s:372    .text.netbuf_ref:00000000 $t
C:\Users\jo\AppData\Local\Temp\ccoMBxzN.s:378    .text.netbuf_ref:00000000 netbuf_ref
C:\Users\jo\AppData\Local\Temp\ccoMBxzN.s:471    .text.netbuf_ref:00000054 $d
C:\Users\jo\AppData\Local\Temp\ccoMBxzN.s:479    .text.netbuf_chain:00000000 $t
C:\Users\jo\AppData\Local\Temp\ccoMBxzN.s:485    .text.netbuf_chain:00000000 netbuf_chain
C:\Users\jo\AppData\Local\Temp\ccoMBxzN.s:593    .text.netbuf_chain:00000054 $d
C:\Users\jo\AppData\Local\Temp\ccoMBxzN.s:604    .text.netbuf_data:00000000 $t
C:\Users\jo\AppData\Local\Temp\ccoMBxzN.s:610    .text.netbuf_data:00000000 netbuf_data
C:\Users\jo\AppData\Local\Temp\ccoMBxzN.s:734    .text.netbuf_data:00000074 $d
C:\Users\jo\AppData\Local\Temp\ccoMBxzN.s:744    .text.netbuf_next:00000000 $t
C:\Users\jo\AppData\Local\Temp\ccoMBxzN.s:750    .text.netbuf_next:00000000 netbuf_next
C:\Users\jo\AppData\Local\Temp\ccoMBxzN.s:818    .text.netbuf_next:00000040 $d
C:\Users\jo\AppData\Local\Temp\ccoMBxzN.s:826    .text.netbuf_first:00000000 $t
C:\Users\jo\AppData\Local\Temp\ccoMBxzN.s:832    .text.netbuf_first:00000000 netbuf_first
C:\Users\jo\AppData\Local\Temp\ccoMBxzN.s:883    .text.netbuf_first:00000028 $d
C:\Users\jo\AppData\Local\Temp\ccoMBxzN.s:893    .rodata.str1.4:00000000 $d
                     .debug_frame:00000010 $d
C:\Users\jo\AppData\Local\Temp\ccoMBxzN.s:75     .text.chprintf.constprop.0:00000028 $t
C:\Users\jo\AppData\Local\Temp\ccoMBxzN.s:5152   .text.netbuf_new:0000001c $t
C:\Users\jo\AppData\Local\Temp\ccoMBxzN.s:283    .text.netbuf_alloc:00000078 $t
C:\Users\jo\AppData\Local\Temp\ccoMBxzN.s:371    .text.netbuf_free:00000048 $t
C:\Users\jo\AppData\Local\Temp\ccoMBxzN.s:478    .text.netbuf_ref:00000064 $t
C:\Users\jo\AppData\Local\Temp\ccoMBxzN.s:603    .text.netbuf_chain:00000068 $t
C:\Users\jo\AppData\Local\Temp\ccoMBxzN.s:743    .text.netbuf_data:0000008c $t
C:\Users\jo\AppData\Local\Temp\ccoMBxzN.s:892    .text.netbuf_first:00000038 $t

UNDEFINED SYMBOLS
chvprintf
itm_port
malloc
memp_sizes
pbuf_free
free
pbuf_alloc
chSysHalt
pbuf_cat
