ARM GAS  C:\Users\jo\AppData\Local\Temp\ccoMBxzN.s 			page 1


   1              		.syntax unified
   2              		.cpu cortex-m4
   3              		.fpu softvfp
   4              		.eabi_attribute 20, 1
   5              		.eabi_attribute 21, 1
   6              		.eabi_attribute 23, 3
   7              		.eabi_attribute 24, 1
   8              		.eabi_attribute 25, 1
   9              		.eabi_attribute 26, 1
  10              		.eabi_attribute 30, 2
  11              		.eabi_attribute 34, 1
  12              		.eabi_attribute 18, 4
  13              		.thumb
  14              		.file	"netbuf.c"
  15              		.text
  16              	.Ltext0:
  17              		.cfi_sections	.debug_frame
  18              		.section	.text.chprintf.constprop.0,"ax",%progbits
  19              		.align	2
  20              		.p2align 4,,15
  21              		.thumb
  22              		.thumb_func
  23              		.type	chprintf.constprop.0, %function
  24              	chprintf.constprop.0:
  25              	.LFB265:
  26              		.file 1 "../../../os/hal/lib/streams/chprintf.h"
  27              		.loc 1 69 0
  28              		.cfi_startproc
  29              		@ args = 4, pretend = 12, frame = 8
  30              		@ frame_needed = 0, uses_anonymous_args = 1
  31              	.LVL0:
  32 0000 0EB4     		push	{r1, r2, r3}
  33              		.cfi_def_cfa_offset 12
  34              		.cfi_offset 1, -12
  35              		.cfi_offset 2, -8
  36              		.cfi_offset 3, -4
  37 0002 00B5     		push	{lr}
  38              		.cfi_def_cfa_offset 16
  39              		.cfi_offset 14, -16
  40 0004 82B0     		sub	sp, sp, #8
  41              		.cfi_def_cfa_offset 24
  42              		.loc 1 73 0
  43 0006 04AB     		add	r3, sp, #16
  44              		.loc 1 74 0
  45 0008 1A46     		mov	r2, r3
  46 000a 0549     		ldr	r1, .L3
  47 000c 0548     		ldr	r0, .L3+4
  48              	.LVL1:
  49              		.loc 1 73 0
  50 000e 0193     		str	r3, [sp, #4]
  51              		.loc 1 74 0
  52 0010 FFF7FEFF 		bl	chvprintf
  53              	.LVL2:
  54              		.loc 1 78 0
  55 0014 02B0     		add	sp, sp, #8
  56              		.cfi_def_cfa_offset 16
  57              		@ sp needed
ARM GAS  C:\Users\jo\AppData\Local\Temp\ccoMBxzN.s 			page 2


  58 0016 5DF804EB 		ldr	lr, [sp], #4
  59              		.cfi_restore 14
  60              		.cfi_def_cfa_offset 12
  61 001a 03B0     		add	sp, sp, #12
  62              		.cfi_restore 3
  63              		.cfi_restore 2
  64              		.cfi_restore 1
  65              		.cfi_def_cfa_offset 0
  66 001c 7047     		bx	lr
  67              	.L4:
  68 001e 00BF     		.align	2
  69              	.L3:
  70 0020 00000000 		.word	.LC0
  71 0024 00000000 		.word	itm_port
  72              		.cfi_endproc
  73              	.LFE265:
  74              		.size	chprintf.constprop.0, .-chprintf.constprop.0
  75 0028 AFF30080 		.section	.text.netbuf_new,"ax",%progbits
  75      AFF30080 
  76              		.align	2
  77              		.p2align 4,,15
  78              		.global	netbuf_new
  79              		.thumb
  80              		.thumb_func
  81              		.type	netbuf_new, %function
  82              	netbuf_new:
  83              	.LFB256:
  84              		.file 2 "../../../os/ext/lwip-1.4.1/src/api/netbuf.c"
  85              		.loc 2 57 0
  86              		.cfi_startproc
  87              		@ args = 0, pretend = 0, frame = 0
  88              		@ frame_needed = 0, uses_anonymous_args = 0
  89 0000 08B5     		push	{r3, lr}
  90              		.cfi_def_cfa_offset 8
  91              		.cfi_offset 3, -8
  92              		.cfi_offset 14, -4
  93              		.loc 2 60 0
  94 0002 054B     		ldr	r3, .L12
  95 0004 9889     		ldrh	r0, [r3, #12]
  96 0006 FFF7FEFF 		bl	malloc
  97              	.LVL3:
  98              		.loc 2 61 0
  99 000a 20B1     		cbz	r0, .L6
 100              		.loc 2 62 0
 101 000c 0023     		movs	r3, #0
 102 000e 0360     		str	r3, [r0]
 103              		.loc 2 63 0
 104 0010 4360     		str	r3, [r0, #4]
 105              		.loc 2 64 0
 106 0012 8360     		str	r3, [r0, #8]
 107              		.loc 2 65 0
 108 0014 8381     		strh	r3, [r0, #12]	@ movhi
 109              	.L6:
 110              		.loc 2 79 0
 111 0016 08BD     		pop	{r3, pc}
 112              	.L13:
 113              		.align	2
ARM GAS  C:\Users\jo\AppData\Local\Temp\ccoMBxzN.s 			page 3


 114              	.L12:
 115 0018 00000000 		.word	memp_sizes
 116              		.cfi_endproc
 117              	.LFE256:
 118              		.size	netbuf_new, .-netbuf_new
 119              		.section	.text.netbuf_delete,"ax",%progbits
 120              		.align	2
 121              		.p2align 4,,15
 122              		.global	netbuf_delete
 123              		.thumb
 124              		.thumb_func
 125              		.type	netbuf_delete, %function
 126              	netbuf_delete:
 127              	.LFB257:
 128              		.loc 2 88 0
 129              		.cfi_startproc
 130              		@ args = 0, pretend = 0, frame = 0
 131              		@ frame_needed = 0, uses_anonymous_args = 0
 132              	.LVL4:
 133              		.loc 2 89 0
 134 0000 50B1     		cbz	r0, .L21
 135              		.loc 2 88 0
 136 0002 10B5     		push	{r4, lr}
 137              		.cfi_def_cfa_offset 8
 138              		.cfi_offset 4, -8
 139              		.cfi_offset 14, -4
 140 0004 0446     		mov	r4, r0
 141              		.loc 2 90 0
 142 0006 0068     		ldr	r0, [r0]
 143              	.LVL5:
 144 0008 08B1     		cbz	r0, .L16
 145              		.loc 2 91 0
 146 000a FFF7FEFF 		bl	pbuf_free
 147              	.LVL6:
 148              	.L16:
 149              		.loc 2 94 0
 150 000e 2046     		mov	r0, r4
 151              		.loc 2 96 0
 152 0010 BDE81040 		pop	{r4, lr}
 153              		.cfi_restore 14
 154              		.cfi_restore 4
 155              		.cfi_def_cfa_offset 0
 156              	.LVL7:
 157              		.loc 2 94 0
 158 0014 FFF7FEBF 		b	free
 159              	.LVL8:
 160              	.L21:
 161 0018 7047     		bx	lr
 162              		.cfi_endproc
 163              	.LFE257:
 164              		.size	netbuf_delete, .-netbuf_delete
 165 001a 00BFAFF3 		.section	.text.netbuf_alloc,"ax",%progbits
 165      0080
 166              		.align	2
 167              		.p2align 4,,15
 168              		.global	netbuf_alloc
 169              		.thumb
ARM GAS  C:\Users\jo\AppData\Local\Temp\ccoMBxzN.s 			page 4


 170              		.thumb_func
 171              		.type	netbuf_alloc, %function
 172              	netbuf_alloc:
 173              	.LFB258:
 174              		.loc 2 108 0
 175              		.cfi_startproc
 176              		@ args = 0, pretend = 0, frame = 0
 177              		@ frame_needed = 0, uses_anonymous_args = 0
 178              	.LVL9:
 179 0000 30B5     		push	{r4, r5, lr}
 180              		.cfi_def_cfa_offset 12
 181              		.cfi_offset 4, -12
 182              		.cfi_offset 5, -8
 183              		.cfi_offset 14, -4
 184              		.loc 2 109 0
 185 0002 0446     		mov	r4, r0
 186              		.loc 2 108 0
 187 0004 83B0     		sub	sp, sp, #12
 188              		.cfi_def_cfa_offset 24
 189              		.loc 2 109 0
 190 0006 F8B1     		cbz	r0, .L32
 191              		.loc 2 112 0
 192 0008 0068     		ldr	r0, [r0]
 193              	.LVL10:
 194 000a 0D46     		mov	r5, r1
 195 000c 08B1     		cbz	r0, .L25
 196              		.loc 2 113 0
 197 000e FFF7FEFF 		bl	pbuf_free
 198              	.LVL11:
 199              	.L25:
 200              		.loc 2 115 0
 201 0012 0020     		movs	r0, #0
 202 0014 0246     		mov	r2, r0
 203 0016 2946     		mov	r1, r5
 204 0018 FFF7FEFF 		bl	pbuf_alloc
 205              	.LVL12:
 206 001c 2060     		str	r0, [r4]
 207              		.loc 2 116 0
 208 001e 20B1     		cbz	r0, .L24
 209              		.loc 2 119 0
 210 0020 4389     		ldrh	r3, [r0, #10]
 211 0022 AB42     		cmp	r3, r5
 212 0024 03D3     		bcc	.L33
 213              	.L26:
 214              		.loc 2 121 0
 215 0026 6060     		str	r0, [r4, #4]
 216              		.loc 2 122 0
 217 0028 4068     		ldr	r0, [r0, #4]
 218              	.L24:
 219              		.loc 2 123 0
 220 002a 03B0     		add	sp, sp, #12
 221              		.cfi_remember_state
 222              		.cfi_def_cfa_offset 12
 223              		@ sp needed
 224 002c 30BD     		pop	{r4, r5, pc}
 225              	.LVL13:
 226              	.L33:
ARM GAS  C:\Users\jo\AppData\Local\Temp\ccoMBxzN.s 			page 5


 227              		.cfi_restore_state
 228              		.loc 2 119 0 discriminator 1
 229 002e 0D4B     		ldr	r3, .L34
 230 0030 0093     		str	r3, [sp]
 231 0032 0D49     		ldr	r1, .L34+4
 232 0034 0D4A     		ldr	r2, .L34+8
 233 0036 0E48     		ldr	r0, .L34+12
 234 0038 7823     		movs	r3, #120
 235 003a FFF7FEFF 		bl	chprintf.constprop.0
 236              	.LVL14:
 237              	.LBB24:
 238              	.LBB25:
 239              		.file 3 "../../../os/hal/osal/rt/osal.h"
 240              		.loc 3 414 0 discriminator 1
 241 003e 0B48     		ldr	r0, .L34+8
 242 0040 FFF7FEFF 		bl	chSysHalt
 243              	.LVL15:
 244 0044 2068     		ldr	r0, [r4]
 245 0046 EEE7     		b	.L26
 246              	.LVL16:
 247              	.L32:
 248              	.LBE25:
 249              	.LBE24:
 250              		.loc 2 109 0 discriminator 1
 251 0048 064B     		ldr	r3, .L34
 252 004a 0093     		str	r3, [sp]
 253 004c 0649     		ldr	r1, .L34+4
 254              	.LVL17:
 255 004e 094A     		ldr	r2, .L34+16
 256 0050 0748     		ldr	r0, .L34+12
 257              	.LVL18:
 258 0052 6D23     		movs	r3, #109
 259 0054 FFF7FEFF 		bl	chprintf.constprop.0
 260              	.LVL19:
 261              	.LBB26:
 262              	.LBB27:
 263              		.loc 3 414 0 discriminator 1
 264 0058 0648     		ldr	r0, .L34+16
 265 005a FFF7FEFF 		bl	chSysHalt
 266              	.LVL20:
 267              	.LBE27:
 268              	.LBE26:
 269              		.loc 2 109 0 discriminator 1
 270 005e 2046     		mov	r0, r4
 271 0060 E3E7     		b	.L24
 272              	.L35:
 273 0062 00BF     		.align	2
 274              	.L34:
 275 0064 44000000 		.word	.LC2
 276 0068 00000000 		.word	.LC0
 277 006c 70000000 		.word	.LC3
 278 0070 00000000 		.word	itm_port
 279 0074 28000000 		.word	.LC1
 280              		.cfi_endproc
 281              	.LFE258:
 282              		.size	netbuf_alloc, .-netbuf_alloc
 283 0078 AFF30080 		.section	.text.netbuf_free,"ax",%progbits
ARM GAS  C:\Users\jo\AppData\Local\Temp\ccoMBxzN.s 			page 6


 283      AFF30080 
 284              		.align	2
 285              		.p2align 4,,15
 286              		.global	netbuf_free
 287              		.thumb
 288              		.thumb_func
 289              		.type	netbuf_free, %function
 290              	netbuf_free:
 291              	.LFB259:
 292              		.loc 2 132 0
 293              		.cfi_startproc
 294              		@ args = 0, pretend = 0, frame = 0
 295              		@ frame_needed = 0, uses_anonymous_args = 0
 296              	.LVL21:
 297 0000 10B5     		push	{r4, lr}
 298              		.cfi_def_cfa_offset 8
 299              		.cfi_offset 4, -8
 300              		.cfi_offset 14, -4
 301              		.loc 2 133 0
 302 0002 0446     		mov	r4, r0
 303              		.loc 2 132 0
 304 0004 82B0     		sub	sp, sp, #8
 305              		.cfi_def_cfa_offset 16
 306              		.loc 2 133 0
 307 0006 40B1     		cbz	r0, .L43
 308              		.loc 2 134 0
 309 0008 0068     		ldr	r0, [r0]
 310              	.LVL22:
 311 000a 08B1     		cbz	r0, .L38
 312              		.loc 2 135 0
 313 000c FFF7FEFF 		bl	pbuf_free
 314              	.LVL23:
 315              	.L38:
 316              		.loc 2 137 0
 317 0010 0023     		movs	r3, #0
 318 0012 6360     		str	r3, [r4, #4]
 319 0014 2360     		str	r3, [r4]
 320              		.loc 2 138 0
 321 0016 02B0     		add	sp, sp, #8
 322              		.cfi_remember_state
 323              		.cfi_def_cfa_offset 8
 324              		@ sp needed
 325 0018 10BD     		pop	{r4, pc}
 326              	.LVL24:
 327              	.L43:
 328              		.cfi_restore_state
 329              		.loc 2 133 0 discriminator 1
 330 001a 074B     		ldr	r3, .L44
 331 001c 0093     		str	r3, [sp]
 332 001e 0749     		ldr	r1, .L44+4
 333 0020 074A     		ldr	r2, .L44+8
 334 0022 0848     		ldr	r0, .L44+12
 335              	.LVL25:
 336 0024 8523     		movs	r3, #133
 337 0026 FFF7FEFF 		bl	chprintf.constprop.0
 338              	.LVL26:
 339              	.LBB28:
ARM GAS  C:\Users\jo\AppData\Local\Temp\ccoMBxzN.s 			page 7


 340              	.LBB29:
 341              		.loc 3 414 0 discriminator 1
 342 002a 0548     		ldr	r0, .L44+8
 343              	.LBE29:
 344              	.LBE28:
 345              		.loc 2 138 0 discriminator 1
 346 002c 02B0     		add	sp, sp, #8
 347              		.cfi_def_cfa_offset 8
 348              		@ sp needed
 349 002e BDE81040 		pop	{r4, lr}
 350              		.cfi_restore 14
 351              		.cfi_restore 4
 352              		.cfi_def_cfa_offset 0
 353              	.LVL27:
 354              	.LBB31:
 355              	.LBB30:
 356              		.loc 3 414 0 discriminator 1
 357 0032 FFF7FEBF 		b	chSysHalt
 358              	.LVL28:
 359              	.L45:
 360 0036 00BF     		.align	2
 361              	.L44:
 362 0038 44000000 		.word	.LC2
 363 003c 00000000 		.word	.LC0
 364 0040 94000000 		.word	.LC4
 365 0044 00000000 		.word	itm_port
 366              	.LBE30:
 367              	.LBE31:
 368              		.cfi_endproc
 369              	.LFE259:
 370              		.size	netbuf_free, .-netbuf_free
 371 0048 AFF30080 		.section	.text.netbuf_ref,"ax",%progbits
 371      AFF30080 
 372              		.align	2
 373              		.p2align 4,,15
 374              		.global	netbuf_ref
 375              		.thumb
 376              		.thumb_func
 377              		.type	netbuf_ref, %function
 378              	netbuf_ref:
 379              	.LFB260:
 380              		.loc 2 151 0
 381              		.cfi_startproc
 382              		@ args = 0, pretend = 0, frame = 0
 383              		@ frame_needed = 0, uses_anonymous_args = 0
 384              	.LVL29:
 385 0000 70B5     		push	{r4, r5, r6, lr}
 386              		.cfi_def_cfa_offset 16
 387              		.cfi_offset 4, -16
 388              		.cfi_offset 5, -12
 389              		.cfi_offset 6, -8
 390              		.cfi_offset 14, -4
 391              		.loc 2 152 0
 392 0002 0446     		mov	r4, r0
 393              		.loc 2 151 0
 394 0004 82B0     		sub	sp, sp, #8
 395              		.cfi_def_cfa_offset 24
ARM GAS  C:\Users\jo\AppData\Local\Temp\ccoMBxzN.s 			page 8


 396              		.loc 2 152 0
 397 0006 B8B1     		cbz	r0, .L55
 398              		.loc 2 153 0
 399 0008 0068     		ldr	r0, [r0]
 400              	.LVL30:
 401 000a 0E46     		mov	r6, r1
 402 000c 1546     		mov	r5, r2
 403 000e 08B1     		cbz	r0, .L49
 404              		.loc 2 154 0
 405 0010 FFF7FEFF 		bl	pbuf_free
 406              	.LVL31:
 407              	.L49:
 408              		.loc 2 156 0
 409 0014 0020     		movs	r0, #0
 410 0016 0146     		mov	r1, r0
 411 0018 0222     		movs	r2, #2
 412 001a FFF7FEFF 		bl	pbuf_alloc
 413              	.LVL32:
 414 001e 2060     		str	r0, [r4]
 415              		.loc 2 157 0
 416 0020 38B1     		cbz	r0, .L56
 417              		.loc 2 161 0
 418 0022 4660     		str	r6, [r0, #4]
 419              		.loc 2 162 0
 420 0024 0581     		strh	r5, [r0, #8]	@ movhi
 421 0026 4581     		strh	r5, [r0, #10]	@ movhi
 422              		.loc 2 164 0
 423 0028 0023     		movs	r3, #0
 424              		.loc 2 163 0
 425 002a 6060     		str	r0, [r4, #4]
 426              	.LVL33:
 427              	.L48:
 428              		.loc 2 165 0
 429 002c 58B2     		sxtb	r0, r3
 430 002e 02B0     		add	sp, sp, #8
 431              		.cfi_remember_state
 432              		.cfi_def_cfa_offset 16
 433              		@ sp needed
 434 0030 70BD     		pop	{r4, r5, r6, pc}
 435              	.LVL34:
 436              	.L56:
 437              		.cfi_restore_state
 438              		.loc 2 158 0
 439 0032 6060     		str	r0, [r4, #4]
 440              		.loc 2 159 0
 441 0034 FF23     		movs	r3, #255
 442 0036 F9E7     		b	.L48
 443              	.LVL35:
 444              	.L55:
 445              		.loc 2 152 0 discriminator 1
 446 0038 064B     		ldr	r3, .L57
 447 003a 0093     		str	r3, [sp]
 448 003c 0649     		ldr	r1, .L57+4
 449              	.LVL36:
 450 003e 074A     		ldr	r2, .L57+8
 451              	.LVL37:
 452 0040 0748     		ldr	r0, .L57+12
ARM GAS  C:\Users\jo\AppData\Local\Temp\ccoMBxzN.s 			page 9


 453              	.LVL38:
 454 0042 9823     		movs	r3, #152
 455 0044 FFF7FEFF 		bl	chprintf.constprop.0
 456              	.LVL39:
 457              	.LBB32:
 458              	.LBB33:
 459              		.loc 3 414 0 discriminator 1
 460 0048 0448     		ldr	r0, .L57+8
 461 004a FFF7FEFF 		bl	chSysHalt
 462              	.LVL40:
 463              	.LBE33:
 464              	.LBE32:
 465              		.loc 2 152 0 discriminator 1
 466 004e F223     		movs	r3, #242
 467 0050 ECE7     		b	.L48
 468              	.L58:
 469 0052 00BF     		.align	2
 470              	.L57:
 471 0054 44000000 		.word	.LC2
 472 0058 00000000 		.word	.LC0
 473 005c B0000000 		.word	.LC5
 474 0060 00000000 		.word	itm_port
 475              		.cfi_endproc
 476              	.LFE260:
 477              		.size	netbuf_ref, .-netbuf_ref
 478 0064 AFF30080 		.section	.text.netbuf_chain,"ax",%progbits
 478      AFF30080 
 478      AFF30080 
 479              		.align	2
 480              		.p2align 4,,15
 481              		.global	netbuf_chain
 482              		.thumb
 483              		.thumb_func
 484              		.type	netbuf_chain, %function
 485              	netbuf_chain:
 486              	.LFB261:
 487              		.loc 2 175 0
 488              		.cfi_startproc
 489              		@ args = 0, pretend = 0, frame = 0
 490              		@ frame_needed = 0, uses_anonymous_args = 0
 491              	.LVL41:
 492 0000 30B5     		push	{r4, r5, lr}
 493              		.cfi_def_cfa_offset 12
 494              		.cfi_offset 4, -12
 495              		.cfi_offset 5, -8
 496              		.cfi_offset 14, -4
 497              		.loc 2 176 0
 498 0002 0446     		mov	r4, r0
 499              		.loc 2 175 0
 500 0004 83B0     		sub	sp, sp, #12
 501              		.cfi_def_cfa_offset 24
 502              		.loc 2 176 0
 503 0006 D8B1     		cbz	r0, .L64
 504 0008 0D46     		mov	r5, r1
 505              		.loc 2 177 0
 506 000a 59B1     		cbz	r1, .L65
 507              		.loc 2 178 0
ARM GAS  C:\Users\jo\AppData\Local\Temp\ccoMBxzN.s 			page 10


 508 000c 0068     		ldr	r0, [r0]
 509              	.LVL42:
 510 000e 0968     		ldr	r1, [r1]
 511              	.LVL43:
 512 0010 FFF7FEFF 		bl	pbuf_cat
 513              	.LVL44:
 514              		.loc 2 179 0
 515 0014 2368     		ldr	r3, [r4]
 516 0016 6360     		str	r3, [r4, #4]
 517              		.loc 2 180 0
 518 0018 2846     		mov	r0, r5
 519              		.loc 2 181 0
 520 001a 03B0     		add	sp, sp, #12
 521              		.cfi_remember_state
 522              		.cfi_def_cfa_offset 12
 523              		@ sp needed
 524 001c BDE83040 		pop	{r4, r5, lr}
 525              		.cfi_restore 14
 526              		.cfi_restore 5
 527              		.cfi_restore 4
 528              		.cfi_def_cfa_offset 0
 529              	.LVL45:
 530              		.loc 2 180 0
 531 0020 FFF7FEBF 		b	free
 532              	.LVL46:
 533              	.L65:
 534              		.cfi_restore_state
 535              		.loc 2 177 0 discriminator 1
 536 0024 0B4B     		ldr	r3, .L66
 537 0026 0093     		str	r3, [sp]
 538 0028 0B48     		ldr	r0, .L66+4
 539              	.LVL47:
 540 002a 0C49     		ldr	r1, .L66+8
 541              	.LVL48:
 542 002c 0C4A     		ldr	r2, .L66+12
 543 002e B123     		movs	r3, #177
 544 0030 FFF7FEFF 		bl	chprintf.constprop.0
 545              	.LVL49:
 546              	.LBB34:
 547              	.LBB35:
 548              		.loc 3 414 0 discriminator 1
 549 0034 0A48     		ldr	r0, .L66+12
 550              	.LVL50:
 551              	.L63:
 552              	.LBE35:
 553              	.LBE34:
 554              		.loc 2 181 0 discriminator 1
 555 0036 03B0     		add	sp, sp, #12
 556              		.cfi_remember_state
 557              		.cfi_def_cfa_offset 12
 558              		@ sp needed
 559 0038 BDE83040 		pop	{r4, r5, lr}
 560              		.cfi_restore 14
 561              		.cfi_restore 5
 562              		.cfi_restore 4
 563              		.cfi_def_cfa_offset 0
 564              	.LVL51:
ARM GAS  C:\Users\jo\AppData\Local\Temp\ccoMBxzN.s 			page 11


 565              	.LBB37:
 566              	.LBB36:
 567              		.loc 3 414 0 discriminator 1
 568 003c FFF7FEBF 		b	chSysHalt
 569              	.LVL52:
 570              	.L64:
 571              		.cfi_restore_state
 572              	.LBE36:
 573              	.LBE37:
 574              		.loc 2 176 0 discriminator 1
 575 0040 044B     		ldr	r3, .L66
 576 0042 0093     		str	r3, [sp]
 577 0044 0448     		ldr	r0, .L66+4
 578              	.LVL53:
 579 0046 0549     		ldr	r1, .L66+8
 580              	.LVL54:
 581 0048 064A     		ldr	r2, .L66+16
 582 004a B023     		movs	r3, #176
 583 004c FFF7FEFF 		bl	chprintf.constprop.0
 584              	.LVL55:
 585              	.LBB38:
 586              	.LBB39:
 587              		.loc 3 414 0 discriminator 1
 588 0050 0448     		ldr	r0, .L66+16
 589 0052 F0E7     		b	.L63
 590              	.L67:
 591              		.align	2
 592              	.L66:
 593 0054 44000000 		.word	.LC2
 594 0058 00000000 		.word	itm_port
 595 005c 00000000 		.word	.LC0
 596 0060 E4000000 		.word	.LC7
 597 0064 C8000000 		.word	.LC6
 598              	.LBE39:
 599              	.LBE38:
 600              		.cfi_endproc
 601              	.LFE261:
 602              		.size	netbuf_chain, .-netbuf_chain
 603 0068 AFF30080 		.section	.text.netbuf_data,"ax",%progbits
 603      AFF30080 
 604              		.align	2
 605              		.p2align 4,,15
 606              		.global	netbuf_data
 607              		.thumb
 608              		.thumb_func
 609              		.type	netbuf_data, %function
 610              	netbuf_data:
 611              	.LFB262:
 612              		.loc 2 194 0
 613              		.cfi_startproc
 614              		@ args = 0, pretend = 0, frame = 0
 615              		@ frame_needed = 0, uses_anonymous_args = 0
 616              	.LVL56:
 617 0000 00B5     		push	{lr}
 618              		.cfi_def_cfa_offset 4
 619              		.cfi_offset 14, -4
 620 0002 83B0     		sub	sp, sp, #12
ARM GAS  C:\Users\jo\AppData\Local\Temp\ccoMBxzN.s 			page 12


 621              		.cfi_def_cfa_offset 16
 622              		.loc 2 195 0
 623 0004 48B3     		cbz	r0, .L75
 624              		.loc 2 196 0
 625 0006 D9B1     		cbz	r1, .L76
 626              		.loc 2 197 0
 627 0008 6AB1     		cbz	r2, .L77
 628              		.loc 2 199 0
 629 000a 4368     		ldr	r3, [r0, #4]
 630 000c 4BB1     		cbz	r3, .L73
 631              		.loc 2 202 0
 632 000e 5B68     		ldr	r3, [r3, #4]
 633 0010 0B60     		str	r3, [r1]
 634              		.loc 2 203 0
 635 0012 4368     		ldr	r3, [r0, #4]
 636 0014 5B89     		ldrh	r3, [r3, #10]
 637 0016 1380     		strh	r3, [r2]	@ movhi
 638              		.loc 2 204 0
 639 0018 0020     		movs	r0, #0
 640              	.LVL57:
 641              	.L70:
 642              		.loc 2 205 0
 643 001a 40B2     		sxtb	r0, r0
 644 001c 03B0     		add	sp, sp, #12
 645              		.cfi_remember_state
 646              		.cfi_def_cfa_offset 4
 647              		@ sp needed
 648 001e 5DF804FB 		ldr	pc, [sp], #4
 649              	.LVL58:
 650              	.L73:
 651              		.cfi_restore_state
 652              		.loc 2 200 0
 653 0022 FE20     		movs	r0, #254
 654              	.LVL59:
 655 0024 F9E7     		b	.L70
 656              	.LVL60:
 657              	.L77:
 658              		.loc 2 197 0 discriminator 1
 659 0026 134B     		ldr	r3, .L78
 660 0028 0093     		str	r3, [sp]
 661 002a 1349     		ldr	r1, .L78+4
 662              	.LVL61:
 663 002c 134A     		ldr	r2, .L78+8
 664              	.LVL62:
 665 002e 1448     		ldr	r0, .L78+12
 666              	.LVL63:
 667 0030 C523     		movs	r3, #197
 668 0032 FFF7FEFF 		bl	chprintf.constprop.0
 669              	.LVL64:
 670              	.LBB40:
 671              	.LBB41:
 672              		.loc 3 414 0 discriminator 1
 673 0036 1148     		ldr	r0, .L78+8
 674 0038 FFF7FEFF 		bl	chSysHalt
 675              	.LVL65:
 676              	.LBE41:
 677              	.LBE40:
ARM GAS  C:\Users\jo\AppData\Local\Temp\ccoMBxzN.s 			page 13


 678              		.loc 2 197 0 discriminator 1
 679 003c F220     		movs	r0, #242
 680 003e ECE7     		b	.L70
 681              	.LVL66:
 682              	.L76:
 683              		.loc 2 196 0 discriminator 1
 684 0040 0C4B     		ldr	r3, .L78
 685 0042 0093     		str	r3, [sp]
 686 0044 0C49     		ldr	r1, .L78+4
 687              	.LVL67:
 688 0046 0F4A     		ldr	r2, .L78+16
 689              	.LVL68:
 690 0048 0D48     		ldr	r0, .L78+12
 691              	.LVL69:
 692 004a C423     		movs	r3, #196
 693 004c FFF7FEFF 		bl	chprintf.constprop.0
 694              	.LVL70:
 695              	.LBB42:
 696              	.LBB43:
 697              		.loc 3 414 0 discriminator 1
 698 0050 0C48     		ldr	r0, .L78+16
 699 0052 FFF7FEFF 		bl	chSysHalt
 700              	.LVL71:
 701              	.LBE43:
 702              	.LBE42:
 703              		.loc 2 196 0 discriminator 1
 704 0056 F220     		movs	r0, #242
 705 0058 DFE7     		b	.L70
 706              	.LVL72:
 707              	.L75:
 708              		.loc 2 195 0 discriminator 1
 709 005a 064B     		ldr	r3, .L78
 710 005c 0093     		str	r3, [sp]
 711 005e 0649     		ldr	r1, .L78+4
 712              	.LVL73:
 713 0060 094A     		ldr	r2, .L78+20
 714              	.LVL74:
 715 0062 0748     		ldr	r0, .L78+12
 716              	.LVL75:
 717 0064 C323     		movs	r3, #195
 718 0066 FFF7FEFF 		bl	chprintf.constprop.0
 719              	.LVL76:
 720              	.LBB44:
 721              	.LBB45:
 722              		.loc 3 414 0 discriminator 1
 723 006a 0748     		ldr	r0, .L78+20
 724 006c FFF7FEFF 		bl	chSysHalt
 725              	.LVL77:
 726              	.LBE45:
 727              	.LBE44:
 728              		.loc 2 195 0 discriminator 1
 729 0070 F220     		movs	r0, #242
 730 0072 D2E7     		b	.L70
 731              	.L79:
 732              		.align	2
 733              	.L78:
 734 0074 44000000 		.word	.LC2
ARM GAS  C:\Users\jo\AppData\Local\Temp\ccoMBxzN.s 			page 14


 735 0078 00000000 		.word	.LC0
 736 007c 3C010000 		.word	.LC10
 737 0080 00000000 		.word	itm_port
 738 0084 1C010000 		.word	.LC9
 739 0088 00010000 		.word	.LC8
 740              		.cfi_endproc
 741              	.LFE262:
 742              		.size	netbuf_data, .-netbuf_data
 743 008c AFF30080 		.section	.text.netbuf_next,"ax",%progbits
 744              		.align	2
 745              		.p2align 4,,15
 746              		.global	netbuf_next
 747              		.thumb
 748              		.thumb_func
 749              		.type	netbuf_next, %function
 750              	netbuf_next:
 751              	.LFB263:
 752              		.loc 2 219 0
 753              		.cfi_startproc
 754              		@ args = 0, pretend = 0, frame = 0
 755              		@ frame_needed = 0, uses_anonymous_args = 0
 756              	.LVL78:
 757              		.loc 2 220 0
 758 0000 58B1     		cbz	r0, .L86
 759              		.loc 2 221 0
 760 0002 4368     		ldr	r3, [r0, #4]
 761 0004 1B68     		ldr	r3, [r3]
 762 0006 33B1     		cbz	r3, .L83
 763              		.loc 2 224 0
 764 0008 4360     		str	r3, [r0, #4]
 765              		.loc 2 225 0
 766 000a 1868     		ldr	r0, [r3]
 767              	.LVL79:
 768              		.loc 2 220 0
 769 000c B0FA80F0 		clz	r0, r0
 770 0010 4009     		lsrs	r0, r0, #5
 771              	.L85:
 772              		.loc 2 229 0
 773 0012 40B2     		sxtb	r0, r0
 774 0014 7047     		bx	lr
 775              	.LVL80:
 776              	.L83:
 777              		.loc 2 222 0
 778 0016 FF20     		movs	r0, #255
 779              	.LVL81:
 780 0018 FBE7     		b	.L85
 781              	.LVL82:
 782              	.L86:
 783              		.loc 2 219 0 discriminator 1
 784 001a 00B5     		push	{lr}
 785              		.cfi_def_cfa_offset 4
 786              		.cfi_offset 14, -4
 787 001c 83B0     		sub	sp, sp, #12
 788              		.cfi_def_cfa_offset 16
 789              		.loc 2 220 0 discriminator 1
 790 001e 084B     		ldr	r3, .L87
 791 0020 0093     		str	r3, [sp]
ARM GAS  C:\Users\jo\AppData\Local\Temp\ccoMBxzN.s 			page 15


 792 0022 0849     		ldr	r1, .L87+4
 793 0024 084A     		ldr	r2, .L87+8
 794 0026 0948     		ldr	r0, .L87+12
 795              	.LVL83:
 796 0028 DC23     		movs	r3, #220
 797 002a FFF7FEFF 		bl	chprintf.constprop.0
 798              	.LVL84:
 799              	.LBB46:
 800              	.LBB47:
 801              		.loc 3 414 0 discriminator 1
 802 002e 0648     		ldr	r0, .L87+8
 803 0030 FFF7FEFF 		bl	chSysHalt
 804              	.LVL85:
 805              	.LBE47:
 806              	.LBE46:
 807              		.loc 2 220 0 discriminator 1
 808 0034 FF20     		movs	r0, #255
 809              		.loc 2 229 0 discriminator 1
 810 0036 40B2     		sxtb	r0, r0
 811 0038 03B0     		add	sp, sp, #12
 812              		.cfi_def_cfa_offset 4
 813              		@ sp needed
 814 003a 5DF804FB 		ldr	pc, [sp], #4
 815              	.L88:
 816 003e 00BF     		.align	2
 817              	.L87:
 818 0040 44000000 		.word	.LC2
 819 0044 00000000 		.word	.LC0
 820 0048 94000000 		.word	.LC4
 821 004c 00000000 		.word	itm_port
 822              		.cfi_endproc
 823              	.LFE263:
 824              		.size	netbuf_next, .-netbuf_next
 825              		.section	.text.netbuf_first,"ax",%progbits
 826              		.align	2
 827              		.p2align 4,,15
 828              		.global	netbuf_first
 829              		.thumb
 830              		.thumb_func
 831              		.type	netbuf_first, %function
 832              	netbuf_first:
 833              	.LFB264:
 834              		.loc 2 240 0
 835              		.cfi_startproc
 836              		@ args = 0, pretend = 0, frame = 0
 837              		@ frame_needed = 0, uses_anonymous_args = 0
 838              	.LVL86:
 839              		.loc 2 241 0
 840 0000 10B1     		cbz	r0, .L92
 841              		.loc 2 242 0
 842 0002 0368     		ldr	r3, [r0]
 843 0004 4360     		str	r3, [r0, #4]
 844 0006 7047     		bx	lr
 845              	.L92:
 846              		.loc 2 240 0 discriminator 1
 847 0008 00B5     		push	{lr}
 848              		.cfi_def_cfa_offset 4
ARM GAS  C:\Users\jo\AppData\Local\Temp\ccoMBxzN.s 			page 16


 849              		.cfi_offset 14, -4
 850 000a 83B0     		sub	sp, sp, #12
 851              		.cfi_def_cfa_offset 16
 852              		.loc 2 241 0 discriminator 1
 853 000c 064B     		ldr	r3, .L93
 854 000e 0093     		str	r3, [sp]
 855 0010 0649     		ldr	r1, .L93+4
 856 0012 074A     		ldr	r2, .L93+8
 857 0014 0748     		ldr	r0, .L93+12
 858              	.LVL87:
 859 0016 F123     		movs	r3, #241
 860 0018 FFF7FEFF 		bl	chprintf.constprop.0
 861              	.LVL88:
 862              	.LBB48:
 863              	.LBB49:
 864              		.loc 3 414 0 discriminator 1
 865 001c 0448     		ldr	r0, .L93+8
 866              	.LBE49:
 867              	.LBE48:
 868              		.loc 2 243 0 discriminator 1
 869 001e 03B0     		add	sp, sp, #12
 870              		.cfi_def_cfa_offset 4
 871              		@ sp needed
 872 0020 5DF804EB 		ldr	lr, [sp], #4
 873              		.cfi_restore 14
 874              		.cfi_def_cfa_offset 0
 875              	.LBB51:
 876              	.LBB50:
 877              		.loc 3 414 0 discriminator 1
 878 0024 FFF7FEBF 		b	chSysHalt
 879              	.LVL89:
 880              	.L94:
 881              		.align	2
 882              	.L93:
 883 0028 44000000 		.word	.LC2
 884 002c 00000000 		.word	.LC0
 885 0030 94000000 		.word	.LC4
 886 0034 00000000 		.word	itm_port
 887              	.LBE50:
 888              	.LBE51:
 889              		.cfi_endproc
 890              	.LFE264:
 891              		.size	netbuf_first, .-netbuf_first
 892 0038 AFF30080 		.section	.rodata.str1.4,"aMS",%progbits,1
 892      AFF30080 
 893              		.align	2
 894              	.LC0:
 895 0000 41737365 		.ascii	"Assertion \"%s\" failed at line %d in %s\012\000"
 895      7274696F 
 895      6E202225 
 895      73222066 
 895      61696C65 
 896              	.LC1:
 897 0028 6E657462 		.ascii	"netbuf_alloc: invalid buf\000"
 897      75665F61 
 897      6C6C6F63 
 897      3A20696E 
ARM GAS  C:\Users\jo\AppData\Local\Temp\ccoMBxzN.s 			page 17


 897      76616C69 
 898 0042 0000     		.space	2
 899              	.LC2:
 900 0044 2E2E2F2E 		.ascii	"../../../os/ext/lwip-1.4.1/src/api/netbuf.c\000"
 900      2E2F2E2E 
 900      2F6F732F 
 900      6578742F 
 900      6C776970 
 901              	.LC3:
 902 0070 63686563 		.ascii	"check that first pbuf can hold size\000"
 902      6B207468 
 902      61742066 
 902      69727374 
 902      20706275 
 903              	.LC4:
 904 0094 6E657462 		.ascii	"netbuf_free: invalid buf\000"
 904      75665F66 
 904      7265653A 
 904      20696E76 
 904      616C6964 
 905 00ad 000000   		.space	3
 906              	.LC5:
 907 00b0 6E657462 		.ascii	"netbuf_ref: invalid buf\000"
 907      75665F72 
 907      65663A20 
 907      696E7661 
 907      6C696420 
 908              	.LC6:
 909 00c8 6E657462 		.ascii	"netbuf_ref: invalid head\000"
 909      75665F72 
 909      65663A20 
 909      696E7661 
 909      6C696420 
 910 00e1 000000   		.space	3
 911              	.LC7:
 912 00e4 6E657462 		.ascii	"netbuf_chain: invalid tail\000"
 912      75665F63 
 912      6861696E 
 912      3A20696E 
 912      76616C69 
 913 00ff 00       		.space	1
 914              	.LC8:
 915 0100 6E657462 		.ascii	"netbuf_data: invalid buf\000"
 915      75665F64 
 915      6174613A 
 915      20696E76 
 915      616C6964 
 916 0119 000000   		.space	3
 917              	.LC9:
 918 011c 6E657462 		.ascii	"netbuf_data: invalid dataptr\000"
 918      75665F64 
 918      6174613A 
 918      20696E76 
 918      616C6964 
 919 0139 000000   		.space	3
 920              	.LC10:
 921 013c 6E657462 		.ascii	"netbuf_data: invalid len\000"
ARM GAS  C:\Users\jo\AppData\Local\Temp\ccoMBxzN.s 			page 18


 921      75665F64 
 921      6174613A 
 921      20696E76 
 921      616C6964 
 922 0155 000000   		.text
 923              	.Letext0:
 924              		.file 4 "c:\\program files\\gnu tools arm embedded\\4.9 2014q4\\lib\\gcc\\arm-none-eabi\\4.9.3\\in
 925              		.file 5 "c:\\program files\\gnu tools arm embedded\\4.9 2014q4\\arm-none-eabi\\include\\machine\\_
 926              		.file 6 "c:\\program files\\gnu tools arm embedded\\4.9 2014q4\\arm-none-eabi\\include\\stdint.h"
 927              		.file 7 "../../../os/rt/ports/ARMCMx/compilers/GCC/chtypes.h"
 928              		.file 8 "../../../os/rt/include/chsystypes.h"
 929              		.file 9 "../../../os/rt/include/chschd.h"
 930              		.file 10 "../../../os/rt/ports/ARMCMx/chcore.h"
 931              		.file 11 "../../../os/rt/ports/ARMCMx/chcore_v7m.h"
 932              		.file 12 "c:\\program files\\gnu tools arm embedded\\4.9 2014q4\\lib\\gcc\\arm-none-eabi\\4.9.3\\i
 933              		.file 13 "<built-in>"
 934              		.file 14 "../../../os/rt/include/chdebug.h"
 935              		.file 15 "../../../os/rt/include/chtm.h"
 936              		.file 16 "../../../os/rt/include/chstats.h"
 937              		.file 17 "../../../os/rt/include/chmtx.h"
 938              		.file 18 "../../../os/rt/include/chstreams.h"
 939              		.file 19 "./ITM_trace.h"
 940              		.file 20 "../../../os/various/lwip_bindings/arch/cc.h"
 941              		.file 21 "../../../os/ext/lwip-1.4.1/src/include/lwip/err.h"
 942              		.file 22 "../../../os/ext/lwip-1.4.1/src/include/lwip/pbuf.h"
 943              		.file 23 "../../../os/ext/lwip-1.4.1/src/include/ipv4/lwip/ip_addr.h"
 944              		.file 24 "../../../os/ext/lwip-1.4.1/src/include/lwip/netbuf.h"
 945              		.file 25 "../../../os/ext/lwip-1.4.1/src/include/lwip/memp.h"
 946              		.file 26 "../../../os/ext/CMSIS/include/core_cm4.h"
 947              		.file 27 "c:\\program files\\gnu tools arm embedded\\4.9 2014q4\\arm-none-eabi\\include\\stdlib.h"
 948              		.file 28 "../../../os/rt/include/chsys.h"