ARM GAS  C:\Users\jo\AppData\Local\Temp\cchB4JAg.s 			page 1


   1              		.syntax unified
   2              		.cpu cortex-m4
   3              		.fpu softvfp
   4              		.eabi_attribute 20, 1
   5              		.eabi_attribute 21, 1
   6              		.eabi_attribute 23, 3
   7              		.eabi_attribute 24, 1
   8              		.eabi_attribute 25, 1
   9              		.eabi_attribute 26, 1
  10              		.eabi_attribute 30, 2
  11              		.eabi_attribute 34, 1
  12              		.eabi_attribute 18, 4
  13              		.thumb
  14              		.file	"netif.c"
  15              		.text
  16              	.Ltext0:
  17              		.cfi_sections	.debug_frame
  18              		.section	.text.chprintf.constprop.0,"ax",%progbits
  19              		.align	2
  20              		.p2align 4,,15
  21              		.thumb
  22              		.thumb_func
  23              		.type	chprintf.constprop.0, %function
  24              	chprintf.constprop.0:
  25              	.LFB269:
  26              		.file 1 "../../../os/hal/lib/streams/chprintf.h"
  27              		.loc 1 69 0
  28              		.cfi_startproc
  29              		@ args = 4, pretend = 12, frame = 8
  30              		@ frame_needed = 0, uses_anonymous_args = 1
  31              	.LVL0:
  32 0000 0EB4     		push	{r1, r2, r3}
  33              		.cfi_def_cfa_offset 12
  34              		.cfi_offset 1, -12
  35              		.cfi_offset 2, -8
  36              		.cfi_offset 3, -4
  37 0002 00B5     		push	{lr}
  38              		.cfi_def_cfa_offset 16
  39              		.cfi_offset 14, -16
  40 0004 82B0     		sub	sp, sp, #8
  41              		.cfi_def_cfa_offset 24
  42              		.loc 1 73 0
  43 0006 04AB     		add	r3, sp, #16
  44              		.loc 1 74 0
  45 0008 1A46     		mov	r2, r3
  46 000a 0549     		ldr	r1, .L3
  47 000c 0548     		ldr	r0, .L3+4
  48              	.LVL1:
  49              		.loc 1 73 0
  50 000e 0193     		str	r3, [sp, #4]
  51              		.loc 1 74 0
  52 0010 FFF7FEFF 		bl	chvprintf
  53              	.LVL2:
  54              		.loc 1 78 0
  55 0014 02B0     		add	sp, sp, #8
  56              		.cfi_def_cfa_offset 16
  57              		@ sp needed
ARM GAS  C:\Users\jo\AppData\Local\Temp\cchB4JAg.s 			page 2


  58 0016 5DF804EB 		ldr	lr, [sp], #4
  59              		.cfi_restore 14
  60              		.cfi_def_cfa_offset 12
  61 001a 03B0     		add	sp, sp, #12
  62              		.cfi_restore 3
  63              		.cfi_restore 2
  64              		.cfi_restore 1
  65              		.cfi_def_cfa_offset 0
  66 001c 7047     		bx	lr
  67              	.L4:
  68 001e 00BF     		.align	2
  69              	.L3:
  70 0020 00000000 		.word	.LC0
  71 0024 00000000 		.word	itm_port
  72              		.cfi_endproc
  73              	.LFE269:
  74              		.size	chprintf.constprop.0, .-chprintf.constprop.0
  75 0028 AFF30080 		.section	.text.netif_init,"ax",%progbits
  75      AFF30080 
  76              		.align	2
  77              		.p2align 4,,15
  78              		.global	netif_init
  79              		.thumb
  80              		.thumb_func
  81              		.type	netif_init, %function
  82              	netif_init:
  83              	.LFB256:
  84              		.file 2 "../../../os/ext/lwip-1.4.1/src/core/netif.c"
  85              		.loc 2 107 0
  86              		.cfi_startproc
  87              		@ args = 0, pretend = 0, frame = 0
  88              		@ frame_needed = 0, uses_anonymous_args = 0
  89              		@ link register save eliminated.
  90 0000 7047     		bx	lr
  91              		.cfi_endproc
  92              	.LFE256:
  93              		.size	netif_init, .-netif_init
  94 0002 00BFAFF3 		.section	.text.netif_find,"ax",%progbits
  94      0080AFF3 
  94      0080AFF3 
  94      0080
  95              		.align	2
  96              		.p2align 4,,15
  97              		.global	netif_find
  98              		.thumb
  99              		.thumb_func
 100              		.type	netif_find, %function
 101              	netif_find:
 102              	.LFB260:
 103              		.loc 2 291 0
 104              		.cfi_startproc
 105              		@ args = 0, pretend = 0, frame = 0
 106              		@ frame_needed = 0, uses_anonymous_args = 0
 107              		@ link register save eliminated.
 108              		.loc 2 295 0
 109 0000 D0B1     		cbz	r0, .L16
 110              		.loc 2 301 0
ARM GAS  C:\Users\jo\AppData\Local\Temp\cchB4JAg.s 			page 3


 111 0002 0F4B     		ldr	r3, .L18
 112              		.loc 2 299 0
 113 0004 8178     		ldrb	r1, [r0, #2]	@ zero_extendqisi2
 114              		.loc 2 301 0
 115 0006 1B68     		ldr	r3, [r3]
 116              		.loc 2 299 0
 117 0008 3039     		subs	r1, r1, #48
 118 000a C9B2     		uxtb	r1, r1
 119              		.loc 2 301 0
 120 000c ABB1     		cbz	r3, .L11
 121              		.loc 2 291 0
 122 000e 10B4     		push	{r4}
 123              		.cfi_def_cfa_offset 4
 124              		.cfi_offset 4, -4
 125 0010 01E0     		b	.L9
 126              	.L8:
 127              		.loc 2 301 0 discriminator 2
 128 0012 1B68     		ldr	r3, [r3]
 129 0014 6BB1     		cbz	r3, .L12
 130              	.L9:
 131              		.loc 2 302 0
 132 0016 93F82C20 		ldrb	r2, [r3, #44]	@ zero_extendqisi2
 133 001a 8A42     		cmp	r2, r1
 134 001c F9D1     		bne	.L8
 135              		.loc 2 302 0 is_stmt 0 discriminator 1
 136 001e 0478     		ldrb	r4, [r0]	@ zero_extendqisi2
 137 0020 93F82A20 		ldrb	r2, [r3, #42]	@ zero_extendqisi2
 138 0024 9442     		cmp	r4, r2
 139 0026 F4D1     		bne	.L8
 140              		.loc 2 303 0 is_stmt 1
 141 0028 4478     		ldrb	r4, [r0, #1]	@ zero_extendqisi2
 142 002a 93F82B20 		ldrb	r2, [r3, #43]	@ zero_extendqisi2
 143 002e 9442     		cmp	r4, r2
 144 0030 EFD1     		bne	.L8
 145              	.L12:
 146              		.loc 2 311 0
 147 0032 5DF8044B 		ldr	r4, [sp], #4
 148              		.cfi_restore 4
 149              		.cfi_def_cfa_offset 0
 150 0036 1846     		mov	r0, r3
 151              	.L16:
 152 0038 7047     		bx	lr
 153              	.L11:
 154              		.loc 2 296 0
 155 003a 1846     		mov	r0, r3
 156              		.loc 2 311 0
 157 003c 7047     		bx	lr
 158              	.L19:
 159 003e 00BF     		.align	2
 160              	.L18:
 161 0040 00000000 		.word	.LANCHOR0
 162              		.cfi_endproc
 163              	.LFE260:
 164              		.size	netif_find, .-netif_find
 165 0044 AFF30080 		.section	.text.netif_set_ipaddr,"ax",%progbits
 165      AFF30080 
 165      AFF30080 
ARM GAS  C:\Users\jo\AppData\Local\Temp\cchB4JAg.s 			page 4


 166              		.align	2
 167              		.p2align 4,,15
 168              		.global	netif_set_ipaddr
 169              		.thumb
 170              		.thumb_func
 171              		.type	netif_set_ipaddr, %function
 172              	netif_set_ipaddr:
 173              	.LFB261:
 174              		.loc 2 324 0
 175              		.cfi_startproc
 176              		@ args = 0, pretend = 0, frame = 0
 177              		@ frame_needed = 0, uses_anonymous_args = 0
 178              	.LVL3:
 179 0000 70B5     		push	{r4, r5, r6, lr}
 180              		.cfi_def_cfa_offset 16
 181              		.cfi_offset 4, -16
 182              		.cfi_offset 5, -12
 183              		.cfi_offset 6, -8
 184              		.cfi_offset 14, -4
 185              		.loc 2 324 0
 186 0002 0446     		mov	r4, r0
 187              		.loc 2 332 0
 188 0004 0E46     		mov	r6, r1
 189 0006 29B3     		cbz	r1, .L30
 190              		.loc 2 332 0 is_stmt 0 discriminator 1
 191 0008 0B68     		ldr	r3, [r1]
 192 000a 4268     		ldr	r2, [r0, #4]
 193 000c 9342     		cmp	r3, r2
 194 000e 1FD0     		beq	.L21
 195              		.loc 2 335 0 is_stmt 1
 196 0010 1349     		ldr	r1, .L42
 197              	.LVL4:
 198 0012 0868     		ldr	r0, [r1]
 199              	.LVL5:
 200              		.loc 2 336 0
 201 0014 08B3     		cbz	r0, .L31
 202              		.loc 2 338 0
 203 0016 0368     		ldr	r3, [r0]
 204 0018 9342     		cmp	r3, r2
 205 001a 05D0     		beq	.L40
 206              	.L24:
 207              		.loc 2 350 0
 208 001c C068     		ldr	r0, [r0, #12]
 209              	.LVL6:
 210              		.loc 2 336 0
 211 001e 48B1     		cbz	r0, .L26
 212              	.L41:
 213 0020 6268     		ldr	r2, [r4, #4]
 214              		.loc 2 338 0
 215 0022 0368     		ldr	r3, [r0]
 216 0024 9342     		cmp	r3, r2
 217 0026 F9D1     		bne	.L24
 218              	.L40:
 219              	.LBB17:
 220              		.loc 2 345 0
 221 0028 C568     		ldr	r5, [r0, #12]
 222              	.LVL7:
ARM GAS  C:\Users\jo\AppData\Local\Temp\cchB4JAg.s 			page 5


 223              		.loc 2 347 0
 224 002a FFF7FEFF 		bl	tcp_abort
 225              	.LVL8:
 226              		.loc 2 348 0
 227 002e 2846     		mov	r0, r5
 228              	.LBE17:
 229              		.loc 2 336 0
 230 0030 0028     		cmp	r0, #0
 231 0032 F5D1     		bne	.L41
 232              	.LVL9:
 233              	.L26:
 234 0034 3268     		ldr	r2, [r6]
 235              	.L23:
 236              		.loc 2 353 0
 237 0036 0B4B     		ldr	r3, .L42+4
 238 0038 1B68     		ldr	r3, [r3]
 239              	.LVL10:
 240 003a 4BB1     		cbz	r3, .L21
 241              	.LVL11:
 242              	.L29:
 243              		.loc 2 355 0
 244 003c 1868     		ldr	r0, [r3]
 245 003e 20B1     		cbz	r0, .L28
 246              		.loc 2 355 0 is_stmt 0 discriminator 2
 247 0040 6568     		ldr	r5, [r4, #4]
 248 0042 A842     		cmp	r0, r5
 249              		.loc 2 359 0 is_stmt 1 discriminator 2
 250 0044 04BF     		itt	eq
 251 0046 1A60     		streq	r2, [r3]
 252 0048 3268     		ldreq	r2, [r6]
 253              	.L28:
 254              		.loc 2 353 0 discriminator 2
 255 004a DB68     		ldr	r3, [r3, #12]
 256              	.LVL12:
 257 004c 002B     		cmp	r3, #0
 258 004e F5D1     		bne	.L29
 259              	.LVL13:
 260              	.L21:
 261              		.loc 2 367 0 discriminator 4
 262 0050 6260     		str	r2, [r4, #4]
 263 0052 70BD     		pop	{r4, r5, r6, pc}
 264              	.LVL14:
 265              	.L30:
 266              		.loc 2 367 0 is_stmt 0
 267 0054 0A46     		mov	r2, r1
 268 0056 6260     		str	r2, [r4, #4]
 269 0058 70BD     		pop	{r4, r5, r6, pc}
 270              	.LVL15:
 271              	.L31:
 272              		.loc 2 336 0 is_stmt 1
 273 005a 1A46     		mov	r2, r3
 274 005c EBE7     		b	.L23
 275              	.L43:
 276 005e 00BF     		.align	2
 277              	.L42:
 278 0060 00000000 		.word	tcp_active_pcbs
 279 0064 00000000 		.word	tcp_listen_pcbs
ARM GAS  C:\Users\jo\AppData\Local\Temp\cchB4JAg.s 			page 6


 280              		.cfi_endproc
 281              	.LFE261:
 282              		.size	netif_set_ipaddr, .-netif_set_ipaddr
 283 0068 AFF30080 		.section	.text.netif_set_addr,"ax",%progbits
 283      AFF30080 
 284              		.align	2
 285              		.p2align 4,,15
 286              		.global	netif_set_addr
 287              		.thumb
 288              		.thumb_func
 289              		.type	netif_set_addr, %function
 290              	netif_set_addr:
 291              	.LFB258:
 292              		.loc 2 223 0
 293              		.cfi_startproc
 294              		@ args = 0, pretend = 0, frame = 0
 295              		@ frame_needed = 0, uses_anonymous_args = 0
 296              	.LVL16:
 297 0000 70B5     		push	{r4, r5, r6, lr}
 298              		.cfi_def_cfa_offset 16
 299              		.cfi_offset 4, -16
 300              		.cfi_offset 5, -12
 301              		.cfi_offset 6, -8
 302              		.cfi_offset 14, -4
 303              		.loc 2 223 0
 304 0002 1446     		mov	r4, r2
 305 0004 1D46     		mov	r5, r3
 306 0006 0646     		mov	r6, r0
 307              		.loc 2 224 0
 308 0008 FFF7FEFF 		bl	netif_set_ipaddr
 309              	.LVL17:
 310              	.LBB18:
 311              	.LBB19:
 312              		.loc 2 413 0
 313 000c 04B1     		cbz	r4, .L45
 314 000e 2468     		ldr	r4, [r4]
 315              	.LVL18:
 316              	.L45:
 317 0010 B460     		str	r4, [r6, #8]
 318              	.LVL19:
 319              	.LBE19:
 320              	.LBE18:
 321              	.LBB20:
 322              	.LBB21:
 323              		.loc 2 390 0
 324 0012 05B1     		cbz	r5, .L46
 325 0014 2D68     		ldr	r5, [r5]
 326              	.LVL20:
 327              	.L46:
 328 0016 F560     		str	r5, [r6, #12]
 329 0018 70BD     		pop	{r4, r5, r6, pc}
 330              	.LBE21:
 331              	.LBE20:
 332              		.cfi_endproc
 333              	.LFE258:
 334              		.size	netif_set_addr, .-netif_set_addr
 335 001a 00BFAFF3 		.section	.text.netif_add,"ax",%progbits
ARM GAS  C:\Users\jo\AppData\Local\Temp\cchB4JAg.s 			page 7


 335      0080
 336              		.align	2
 337              		.p2align 4,,15
 338              		.global	netif_add
 339              		.thumb
 340              		.thumb_func
 341              		.type	netif_add, %function
 342              	netif_add:
 343              	.LFB257:
 344              		.loc 2 141 0
 345              		.cfi_startproc
 346              		@ args = 12, pretend = 0, frame = 0
 347              		@ frame_needed = 0, uses_anonymous_args = 0
 348              	.LVL21:
 349 0000 2DE9F044 		push	{r4, r5, r6, r7, r10, lr}
 350              		.cfi_def_cfa_offset 24
 351              		.cfi_offset 4, -24
 352              		.cfi_offset 5, -20
 353              		.cfi_offset 6, -16
 354              		.cfi_offset 7, -12
 355              		.cfi_offset 10, -8
 356              		.cfi_offset 14, -4
 357 0004 82B0     		sub	sp, sp, #8
 358              		.cfi_def_cfa_offset 32
 359              		.loc 2 141 0
 360 0006 0446     		mov	r4, r0
 361 0008 099E     		ldr	r6, [sp, #36]
 362 000a 8A46     		mov	r10, r1
 363 000c 1746     		mov	r7, r2
 364 000e 1D46     		mov	r5, r3
 365              		.loc 2 143 0
 366 0010 6EB3     		cbz	r6, .L59
 367              	.LVL22:
 368              	.L51:
 369              		.loc 2 174 0
 370 0012 DFF888E0 		ldr	lr, .L60+20
 371              		.loc 2 173 0
 372 0016 089B     		ldr	r3, [sp, #32]
 373              		.loc 2 175 0
 374 0018 0A9A     		ldr	r2, [sp, #40]
 375              		.loc 2 173 0
 376 001a E361     		str	r3, [r4, #28]
 377              		.loc 2 174 0
 378 001c 9EF80030 		ldrb	r3, [lr]	@ zero_extendqisi2
 379              		.loc 2 175 0
 380 0020 2261     		str	r2, [r4, #16]
 381              	.LVL23:
 382              		.loc 2 146 0
 383 0022 0022     		movs	r2, #0
 384              		.loc 2 174 0
 385 0024 84F82C30 		strb	r3, [r4, #44]
 386              	.LBB22:
 387              	.LBB23:
 388              		.loc 2 224 0
 389 0028 5146     		mov	r1, r10
 390              	.LBE23:
 391              	.LBE22:
ARM GAS  C:\Users\jo\AppData\Local\Temp\cchB4JAg.s 			page 8


 392              		.loc 2 174 0
 393 002a 0133     		adds	r3, r3, #1
 394              		.loc 2 146 0
 395 002c 6260     		str	r2, [r4, #4]
 396              		.loc 2 147 0
 397 002e A260     		str	r2, [r4, #8]
 398              		.loc 2 148 0
 399 0030 E260     		str	r2, [r4, #12]
 400              		.loc 2 149 0
 401 0032 84F82920 		strb	r2, [r4, #41]
 402              	.LBB33:
 403              	.LBB30:
 404              		.loc 2 224 0
 405 0036 2046     		mov	r0, r4
 406              	.LBE30:
 407              	.LBE33:
 408              		.loc 2 174 0
 409 0038 8EF80030 		strb	r3, [lr]
 410              	.LBB34:
 411              	.LBB31:
 412              		.loc 2 224 0
 413 003c FFF7FEFF 		bl	netif_set_ipaddr
 414              	.LVL24:
 415              	.LBB24:
 416              	.LBB25:
 417              		.loc 2 413 0
 418 0040 7FB1     		cbz	r7, .L55
 419 0042 3B68     		ldr	r3, [r7]
 420              	.L52:
 421 0044 A360     		str	r3, [r4, #8]
 422              	.LVL25:
 423              	.LBE25:
 424              	.LBE24:
 425              	.LBB27:
 426              	.LBB28:
 427              		.loc 2 390 0
 428 0046 05B1     		cbz	r5, .L53
 429 0048 2D68     		ldr	r5, [r5]
 430              	.LVL26:
 431              	.L53:
 432 004a E560     		str	r5, [r4, #12]
 433              	.LBE28:
 434              	.LBE27:
 435              	.LBE31:
 436              	.LBE34:
 437              		.loc 2 184 0
 438 004c 2046     		mov	r0, r4
 439 004e B047     		blx	r6
 440              	.LVL27:
 441 0050 48B9     		cbnz	r0, .L57
 442              		.loc 2 189 0
 443 0052 0D4B     		ldr	r3, .L60
 444 0054 1A68     		ldr	r2, [r3]
 445 0056 2260     		str	r2, [r4]
 446              		.loc 2 208 0
 447 0058 2046     		mov	r0, r4
 448              		.loc 2 190 0
ARM GAS  C:\Users\jo\AppData\Local\Temp\cchB4JAg.s 			page 9


 449 005a 1C60     		str	r4, [r3]
 450              		.loc 2 209 0
 451 005c 02B0     		add	sp, sp, #8
 452              		.cfi_remember_state
 453              		.cfi_def_cfa_offset 24
 454              		@ sp needed
 455 005e BDE8F084 		pop	{r4, r5, r6, r7, r10, pc}
 456              	.LVL28:
 457              	.L55:
 458              		.cfi_restore_state
 459              	.LBB35:
 460              	.LBB32:
 461              	.LBB29:
 462              	.LBB26:
 463              		.loc 2 413 0
 464 0062 3B46     		mov	r3, r7
 465 0064 EEE7     		b	.L52
 466              	.LVL29:
 467              	.L57:
 468              	.LBE26:
 469              	.LBE29:
 470              	.LBE32:
 471              	.LBE35:
 472              		.loc 2 185 0
 473 0066 0020     		movs	r0, #0
 474              		.loc 2 209 0
 475 0068 02B0     		add	sp, sp, #8
 476              		.cfi_remember_state
 477              		.cfi_def_cfa_offset 24
 478              		@ sp needed
 479 006a BDE8F084 		pop	{r4, r5, r6, r7, r10, pc}
 480              	.LVL30:
 481              	.L59:
 482              		.cfi_restore_state
 483              		.loc 2 143 0 discriminator 1
 484 006e 074B     		ldr	r3, .L60+4
 485              	.LVL31:
 486 0070 0093     		str	r3, [sp]
 487 0072 0749     		ldr	r1, .L60+8
 488              	.LVL32:
 489 0074 074A     		ldr	r2, .L60+12
 490              	.LVL33:
 491 0076 0848     		ldr	r0, .L60+16
 492              	.LVL34:
 493 0078 8F23     		movs	r3, #143
 494 007a FFF7FEFF 		bl	chprintf.constprop.0
 495              	.LVL35:
 496              	.LBB36:
 497              	.LBB37:
 498              		.file 3 "../../../os/hal/osal/rt/osal.h"
 499              		.loc 3 414 0 discriminator 1
 500 007e 0548     		ldr	r0, .L60+12
 501 0080 FFF7FEFF 		bl	chSysHalt
 502              	.LVL36:
 503 0084 C5E7     		b	.L51
 504              	.L61:
 505 0086 00BF     		.align	2
ARM GAS  C:\Users\jo\AppData\Local\Temp\cchB4JAg.s 			page 10


 506              	.L60:
 507 0088 00000000 		.word	.LANCHOR0
 508 008c 40000000 		.word	.LC2
 509 0090 00000000 		.word	.LC0
 510 0094 28000000 		.word	.LC1
 511 0098 00000000 		.word	itm_port
 512 009c 00000000 		.word	.LANCHOR1
 513              	.LBE37:
 514              	.LBE36:
 515              		.cfi_endproc
 516              	.LFE257:
 517              		.size	netif_add, .-netif_add
 518              		.section	.text.netif_set_gw,"ax",%progbits
 519              		.align	2
 520              		.p2align 4,,15
 521              		.global	netif_set_gw
 522              		.thumb
 523              		.thumb_func
 524              		.type	netif_set_gw, %function
 525              	netif_set_gw:
 526              	.LFB262:
 527              		.loc 2 389 0
 528              		.cfi_startproc
 529              		@ args = 0, pretend = 0, frame = 0
 530              		@ frame_needed = 0, uses_anonymous_args = 0
 531              		@ link register save eliminated.
 532              	.LVL37:
 533              		.loc 2 390 0
 534 0000 01B1     		cbz	r1, .L63
 535              		.loc 2 390 0 is_stmt 0 discriminator 1
 536 0002 0968     		ldr	r1, [r1]
 537              	.LVL38:
 538              	.L63:
 539              		.loc 2 390 0 discriminator 4
 540 0004 C160     		str	r1, [r0, #12]
 541 0006 7047     		bx	lr
 542              		.cfi_endproc
 543              	.LFE262:
 544              		.size	netif_set_gw, .-netif_set_gw
 545 0008 AFF30080 		.section	.text.netif_set_netmask,"ax",%progbits
 545      AFF30080 
 546              		.align	2
 547              		.p2align 4,,15
 548              		.global	netif_set_netmask
 549              		.thumb
 550              		.thumb_func
 551              		.type	netif_set_netmask, %function
 552              	netif_set_netmask:
 553              	.LFB263:
 554              		.loc 2 410 0 is_stmt 1
 555              		.cfi_startproc
 556              		@ args = 0, pretend = 0, frame = 0
 557              		@ frame_needed = 0, uses_anonymous_args = 0
 558              		@ link register save eliminated.
 559              	.LVL39:
 560              		.loc 2 413 0
 561 0000 01B1     		cbz	r1, .L66
ARM GAS  C:\Users\jo\AppData\Local\Temp\cchB4JAg.s 			page 11


 562              		.loc 2 413 0 is_stmt 0 discriminator 1
 563 0002 0968     		ldr	r1, [r1]
 564              	.LVL40:
 565              	.L66:
 566              		.loc 2 413 0 discriminator 4
 567 0004 8160     		str	r1, [r0, #8]
 568 0006 7047     		bx	lr
 569              		.cfi_endproc
 570              	.LFE263:
 571              		.size	netif_set_netmask, .-netif_set_netmask
 572 0008 AFF30080 		.section	.text.netif_set_default,"ax",%progbits
 572      AFF30080 
 573              		.align	2
 574              		.p2align 4,,15
 575              		.global	netif_set_default
 576              		.thumb
 577              		.thumb_func
 578              		.type	netif_set_default, %function
 579              	netif_set_default:
 580              	.LFB264:
 581              		.loc 2 431 0 is_stmt 1
 582              		.cfi_startproc
 583              		@ args = 0, pretend = 0, frame = 0
 584              		@ frame_needed = 0, uses_anonymous_args = 0
 585              		@ link register save eliminated.
 586              	.LVL41:
 587              		.loc 2 439 0
 588 0000 014B     		ldr	r3, .L69
 589 0002 1860     		str	r0, [r3]
 590 0004 7047     		bx	lr
 591              	.L70:
 592 0006 00BF     		.align	2
 593              	.L69:
 594 0008 00000000 		.word	.LANCHOR2
 595              		.cfi_endproc
 596              	.LFE264:
 597              		.size	netif_set_default, .-netif_set_default
 598 000c AFF30080 		.section	.text.netif_set_up,"ax",%progbits
 599              		.align	2
 600              		.p2align 4,,15
 601              		.global	netif_set_up
 602              		.thumb
 603              		.thumb_func
 604              		.type	netif_set_up, %function
 605              	netif_set_up:
 606              	.LFB265:
 607              		.loc 2 454 0
 608              		.cfi_startproc
 609              		@ args = 0, pretend = 0, frame = 0
 610              		@ frame_needed = 0, uses_anonymous_args = 0
 611              		@ link register save eliminated.
 612              	.LVL42:
 613              		.loc 2 455 0
 614 0000 90F82930 		ldrb	r3, [r0, #41]	@ zero_extendqisi2
 615 0004 DA07     		lsls	r2, r3, #31
 616              		.loc 2 454 0
 617 0006 0146     		mov	r1, r0
ARM GAS  C:\Users\jo\AppData\Local\Temp\cchB4JAg.s 			page 12


 618              		.loc 2 455 0
 619 0008 07D4     		bmi	.L71
 620              		.loc 2 456 0
 621 000a 43F00102 		orr	r2, r3, #1
 622              		.loc 2 467 0
 623 000e 03F03003 		and	r3, r3, #48
 624 0012 302B     		cmp	r3, #48
 625              		.loc 2 456 0
 626 0014 80F82920 		strb	r2, [r0, #41]
 627              		.loc 2 467 0
 628 0018 00D0     		beq	.L75
 629              	.L71:
 630 001a 7047     		bx	lr
 631              	.L75:
 632              		.loc 2 468 0
 633 001c 0431     		adds	r1, r1, #4
 634 001e FFF7FEBF 		b	etharp_request
 635              	.LVL43:
 636              		.cfi_endproc
 637              	.LFE265:
 638              		.size	netif_set_up, .-netif_set_up
 639 0022 00BFAFF3 		.section	.text.netif_set_down,"ax",%progbits
 639      0080AFF3 
 639      0080AFF3 
 639      0080
 640              		.align	2
 641              		.p2align 4,,15
 642              		.global	netif_set_down
 643              		.thumb
 644              		.thumb_func
 645              		.type	netif_set_down, %function
 646              	netif_set_down:
 647              	.LFB266:
 648              		.loc 2 491 0
 649              		.cfi_startproc
 650              		@ args = 0, pretend = 0, frame = 0
 651              		@ frame_needed = 0, uses_anonymous_args = 0
 652              		@ link register save eliminated.
 653              	.LVL44:
 654              		.loc 2 492 0
 655 0000 90F82930 		ldrb	r3, [r0, #41]	@ zero_extendqisi2
 656 0004 D907     		lsls	r1, r3, #31
 657 0006 05D5     		bpl	.L76
 658              		.loc 2 493 0
 659 0008 23F00101 		bic	r1, r3, #1
 660              		.loc 2 499 0
 661 000c 9B06     		lsls	r3, r3, #26
 662              		.loc 2 493 0
 663 000e 80F82910 		strb	r1, [r0, #41]
 664              		.loc 2 499 0
 665 0012 00D4     		bmi	.L83
 666              	.L76:
 667 0014 7047     		bx	lr
 668              	.L83:
 669              		.loc 2 500 0
 670 0016 FFF7FEBF 		b	etharp_cleanup_netif
 671              	.LVL45:
ARM GAS  C:\Users\jo\AppData\Local\Temp\cchB4JAg.s 			page 13


 672              		.cfi_endproc
 673              	.LFE266:
 674              		.size	netif_set_down, .-netif_set_down
 675 001a 00BFAFF3 		.section	.text.netif_remove,"ax",%progbits
 675      0080
 676              		.align	2
 677              		.p2align 4,,15
 678              		.global	netif_remove
 679              		.thumb
 680              		.thumb_func
 681              		.type	netif_remove, %function
 682              	netif_remove:
 683              	.LFB259:
 684              		.loc 2 236 0
 685              		.cfi_startproc
 686              		@ args = 0, pretend = 0, frame = 0
 687              		@ frame_needed = 0, uses_anonymous_args = 0
 688              	.LVL46:
 689              		.loc 2 237 0
 690 0000 10B3     		cbz	r0, .L103
 691              		.loc 2 247 0
 692 0002 90F82930 		ldrb	r3, [r0, #41]	@ zero_extendqisi2
 693 0006 DB07     		lsls	r3, r3, #31
 694              		.loc 2 236 0
 695 0008 10B5     		push	{r4, lr}
 696              		.cfi_def_cfa_offset 8
 697              		.cfi_offset 4, -8
 698              		.cfi_offset 14, -4
 699 000a 0446     		mov	r4, r0
 700              		.loc 2 247 0
 701 000c 19D4     		bmi	.L105
 702              	.LVL47:
 703              	.L87:
 704              		.loc 2 255 0
 705 000e 0F4B     		ldr	r3, .L108
 706 0010 1A68     		ldr	r2, [r3]
 707 0012 A242     		cmp	r2, r4
 708 0014 0CD0     		beq	.L90
 709              	.LVL48:
 710              	.LBB38:
 711              		.loc 2 260 0 discriminator 1
 712 0016 9AB1     		cbz	r2, .L84
 713              		.loc 2 261 0
 714 0018 1368     		ldr	r3, [r2]
 715 001a A342     		cmp	r3, r4
 716 001c 07D0     		beq	.L106
 717              	.LVL49:
 718              		.loc 2 260 0
 719 001e 2BB1     		cbz	r3, .L107
 720              	.L92:
 721              		.loc 2 261 0
 722 0020 1A68     		ldr	r2, [r3]
 723 0022 A242     		cmp	r2, r4
 724 0024 04D0     		beq	.L90
 725 0026 1346     		mov	r3, r2
 726              	.LVL50:
 727              		.loc 2 260 0
ARM GAS  C:\Users\jo\AppData\Local\Temp\cchB4JAg.s 			page 14


 728 0028 002B     		cmp	r3, #0
 729 002a F9D1     		bne	.L92
 730              	.LVL51:
 731              	.L107:
 732 002c 10BD     		pop	{r4, pc}
 733              	.LVL52:
 734              	.L106:
 735              		.loc 2 261 0
 736 002e 1346     		mov	r3, r2
 737              	.LVL53:
 738              	.L90:
 739              		.loc 2 262 0
 740 0030 2268     		ldr	r2, [r4]
 741 0032 1A60     		str	r2, [r3]
 742              	.LBE38:
 743              		.loc 2 271 0
 744 0034 064B     		ldr	r3, .L108+4
 745 0036 1A68     		ldr	r2, [r3]
 746 0038 A242     		cmp	r2, r4
 747              	.LVL54:
 748              	.LBB39:
 749              	.LBB40:
 750              		.loc 2 439 0
 751 003a 04BF     		itt	eq
 752 003c 0022     		moveq	r2, #0
 753 003e 1A60     		streq	r2, [r3]
 754              	.LVL55:
 755              	.L84:
 756 0040 10BD     		pop	{r4, pc}
 757              	.LVL56:
 758              	.L105:
 759              	.LBE40:
 760              	.LBE39:
 761              		.loc 2 249 0
 762 0042 FFF7FEFF 		bl	netif_set_down
 763              	.LVL57:
 764 0046 E2E7     		b	.L87
 765              	.LVL58:
 766              	.L103:
 767              		.cfi_def_cfa_offset 0
 768              		.cfi_restore 4
 769              		.cfi_restore 14
 770 0048 7047     		bx	lr
 771              	.L109:
 772 004a 00BF     		.align	2
 773              	.L108:
 774 004c 00000000 		.word	.LANCHOR0
 775 0050 00000000 		.word	.LANCHOR2
 776              		.cfi_endproc
 777              	.LFE259:
 778              		.size	netif_remove, .-netif_remove
 779 0054 AFF30080 		.section	.text.netif_set_link_up,"ax",%progbits
 779      AFF30080 
 779      AFF30080 
 780              		.align	2
 781              		.p2align 4,,15
 782              		.global	netif_set_link_up
ARM GAS  C:\Users\jo\AppData\Local\Temp\cchB4JAg.s 			page 15


 783              		.thumb
 784              		.thumb_func
 785              		.type	netif_set_link_up, %function
 786              	netif_set_link_up:
 787              	.LFB267:
 788              		.loc 2 536 0
 789              		.cfi_startproc
 790              		@ args = 0, pretend = 0, frame = 0
 791              		@ frame_needed = 0, uses_anonymous_args = 0
 792              		@ link register save eliminated.
 793              	.LVL59:
 794              		.loc 2 537 0
 795 0000 90F82930 		ldrb	r3, [r0, #41]	@ zero_extendqisi2
 796 0004 DA06     		lsls	r2, r3, #27
 797              		.loc 2 536 0
 798 0006 0146     		mov	r1, r0
 799              		.loc 2 537 0
 800 0008 07D4     		bmi	.L110
 801              		.loc 2 538 0
 802 000a 43F01002 		orr	r2, r3, #16
 803              		.loc 2 555 0
 804 000e 03F02103 		and	r3, r3, #33
 805 0012 212B     		cmp	r3, #33
 806              		.loc 2 538 0
 807 0014 80F82920 		strb	r2, [r0, #41]
 808              		.loc 2 555 0
 809 0018 00D0     		beq	.L114
 810              	.L110:
 811 001a 7047     		bx	lr
 812              	.L114:
 813              		.loc 2 556 0
 814 001c 0431     		adds	r1, r1, #4
 815 001e FFF7FEBF 		b	etharp_request
 816              	.LVL60:
 817              		.cfi_endproc
 818              	.LFE267:
 819              		.size	netif_set_link_up, .-netif_set_link_up
 820 0022 00BFAFF3 		.section	.text.netif_set_link_down,"ax",%progbits
 820      0080AFF3 
 820      0080AFF3 
 820      0080
 821              		.align	2
 822              		.p2align 4,,15
 823              		.global	netif_set_link_down
 824              		.thumb
 825              		.thumb_func
 826              		.type	netif_set_link_down, %function
 827              	netif_set_link_down:
 828              	.LFB268:
 829              		.loc 2 575 0
 830              		.cfi_startproc
 831              		@ args = 0, pretend = 0, frame = 0
 832              		@ frame_needed = 0, uses_anonymous_args = 0
 833              		@ link register save eliminated.
 834              	.LVL61:
 835              		.loc 2 576 0
 836 0000 90F82930 		ldrb	r3, [r0, #41]	@ zero_extendqisi2
ARM GAS  C:\Users\jo\AppData\Local\Temp\cchB4JAg.s 			page 16


 837 0004 DA06     		lsls	r2, r3, #27
 838              		.loc 2 577 0
 839 0006 44BF     		itt	mi
 840 0008 23F01003 		bicmi	r3, r3, #16
 841 000c 80F82930 		strbmi	r3, [r0, #41]
 842 0010 7047     		bx	lr
 843              		.cfi_endproc
 844              	.LFE268:
 845              		.size	netif_set_link_down, .-netif_set_link_down
 846              		.global	netif_default
 847              		.global	netif_list
 848 0012 00BFAFF3 		.section	.bss.netif_list,"aw",%nobits
 848      0080AFF3 
 848      0080AFF3 
 848      0080
 849              		.align	2
 850              		.set	.LANCHOR0,. + 0
 851              		.type	netif_list, %object
 852              		.size	netif_list, 4
 853              	netif_list:
 854 0000 00000000 		.space	4
 855              		.section	.bss.netif_default,"aw",%nobits
 856              		.align	2
 857              		.set	.LANCHOR2,. + 0
 858              		.type	netif_default, %object
 859              		.size	netif_default, 4
 860              	netif_default:
 861 0000 00000000 		.space	4
 862              		.section	.bss.netif_num,"aw",%nobits
 863              		.set	.LANCHOR1,. + 0
 864              		.type	netif_num, %object
 865              		.size	netif_num, 1
 866              	netif_num:
 867 0000 00       		.space	1
 868              		.section	.rodata.str1.4,"aMS",%progbits,1
 869              		.align	2
 870              	.LC0:
 871 0000 41737365 		.ascii	"Assertion \"%s\" failed at line %d in %s\012\000"
 871      7274696F 
 871      6E202225 
 871      73222066 
 871      61696C65 
 872              	.LC1:
 873 0028 4E6F2069 		.ascii	"No init function given\000"
 873      6E697420 
 873      66756E63 
 873      74696F6E 
 873      20676976 
 874 003f 00       		.space	1
 875              	.LC2:
 876 0040 2E2E2F2E 		.ascii	"../../../os/ext/lwip-1.4.1/src/core/netif.c\000"
 876      2E2F2E2E 
 876      2F6F732F 
 876      6578742F 
 876      6C776970 
 877              		.text
 878              	.Letext0:
ARM GAS  C:\Users\jo\AppData\Local\Temp\cchB4JAg.s 			page 17


 879              		.file 4 "c:\\program files\\gnu tools arm embedded\\4.9 2014q4\\lib\\gcc\\arm-none-eabi\\4.9.3\\in
 880              		.file 5 "c:\\program files\\gnu tools arm embedded\\4.9 2014q4\\arm-none-eabi\\include\\machine\\_
 881              		.file 6 "c:\\program files\\gnu tools arm embedded\\4.9 2014q4\\arm-none-eabi\\include\\stdint.h"
 882              		.file 7 "../../../os/rt/ports/ARMCMx/compilers/GCC/chtypes.h"
 883              		.file 8 "../../../os/rt/include/chsystypes.h"
 884              		.file 9 "../../../os/rt/include/chschd.h"
 885              		.file 10 "../../../os/rt/ports/ARMCMx/chcore.h"
 886              		.file 11 "../../../os/rt/ports/ARMCMx/chcore_v7m.h"
 887              		.file 12 "c:\\program files\\gnu tools arm embedded\\4.9 2014q4\\lib\\gcc\\arm-none-eabi\\4.9.3\\i
 888              		.file 13 "<built-in>"
 889              		.file 14 "../../../os/rt/include/chdebug.h"
 890              		.file 15 "../../../os/rt/include/chtm.h"
 891              		.file 16 "../../../os/rt/include/chstats.h"
 892              		.file 17 "../../../os/rt/include/chmtx.h"
 893              		.file 18 "../../../os/rt/include/chstreams.h"
 894              		.file 19 "./ITM_trace.h"
 895              		.file 20 "../../../os/various/lwip_bindings/arch/cc.h"
 896              		.file 21 "../../../os/ext/lwip-1.4.1/src/include/ipv4/lwip/ip_addr.h"
 897              		.file 22 "../../../os/ext/lwip-1.4.1/src/include/lwip/err.h"
 898              		.file 23 "../../../os/ext/lwip-1.4.1/src/include/lwip/pbuf.h"
 899              		.file 24 "../../../os/ext/lwip-1.4.1/src/include/lwip/netif.h"
 900              		.file 25 "../../../os/ext/lwip-1.4.1/src/include/lwip/tcp.h"
 901              		.file 26 "../../../os/ext/lwip-1.4.1/src/include/lwip/tcp_impl.h"
 902              		.file 27 "../../../os/ext/CMSIS/include/core_cm4.h"
 903              		.file 28 "../../../os/rt/include/chsys.h"
 904              		.file 29 "../../../os/ext/lwip-1.4.1/src/include/netif/etharp.h"
 905              		.file 30 "../../../os/ext/lwip-1.4.1/src/include/lwip/memp.h"