ARM GAS  C:\Users\jo\AppData\Local\Temp\ccxiMIcq.s 			page 1


   1              		.syntax unified
   2              		.cpu cortex-m4
   3              		.fpu softvfp
   4              		.eabi_attribute 20, 1
   5              		.eabi_attribute 21, 1
   6              		.eabi_attribute 23, 3
   7              		.eabi_attribute 24, 1
   8              		.eabi_attribute 25, 1
   9              		.eabi_attribute 26, 1
  10              		.eabi_attribute 30, 2
  11              		.eabi_attribute 34, 1
  12              		.eabi_attribute 18, 4
  13              		.thumb
  14              		.file	"nvic.c"
  15              		.text
  16              	.Ltext0:
  17              		.cfi_sections	.debug_frame
  18              		.section	.text.nvicEnableVector,"ax",%progbits
  19              		.align	2
  20              		.p2align 4,,15
  21              		.global	nvicEnableVector
  22              		.thumb
  23              		.thumb_func
  24              		.type	nvicEnableVector, %function
  25              	nvicEnableVector:
  26              	.LFB255:
  27              		.file 1 "../../../os/hal/ports/common/ARMCMx/nvic.c"
  28              		.loc 1 57 0
  29              		.cfi_startproc
  30              		@ args = 0, pretend = 0, frame = 0
  31              		@ frame_needed = 0, uses_anonymous_args = 0
  32              		@ link register save eliminated.
  33              	.LVL0:
  34              		.loc 1 60 0
  35 0000 4309     		lsrs	r3, r0, #5
  36 0002 9B00     		lsls	r3, r3, #2
  37              		.loc 1 57 0
  38 0004 10B4     		push	{r4}
  39              		.cfi_def_cfa_offset 4
  40              		.cfi_offset 4, -4
  41 0006 03F16043 		add	r3, r3, #-536870912
  42              		.loc 1 59 0
  43 000a 00F16044 		add	r4, r0, #-536870912
  44 000e 04F56144 		add	r4, r4, #57600
  45 0012 03F56143 		add	r3, r3, #57600
  46 0016 0901     		lsls	r1, r1, #4
  47              	.LVL1:
  48              		.loc 1 60 0
  49 0018 00F01F00 		and	r0, r0, #31
  50              	.LVL2:
  51 001c 0122     		movs	r2, #1
  52 001e 8240     		lsls	r2, r2, r0
  53              		.loc 1 59 0
  54 0020 C9B2     		uxtb	r1, r1
  55 0022 84F80013 		strb	r1, [r4, #768]
  56              		.loc 1 60 0
  57 0026 C3F88021 		str	r2, [r3, #384]
ARM GAS  C:\Users\jo\AppData\Local\Temp\ccxiMIcq.s 			page 2


  58              		.loc 1 61 0
  59 002a 1A60     		str	r2, [r3]
  60              		.loc 1 62 0
  61 002c 5DF8044B 		ldr	r4, [sp], #4
  62              		.cfi_restore 4
  63              		.cfi_def_cfa_offset 0
  64              	.LVL3:
  65 0030 7047     		bx	lr
  66              		.cfi_endproc
  67              	.LFE255:
  68              		.size	nvicEnableVector, .-nvicEnableVector
  69 0032 00BFAFF3 		.section	.text.nvicDisableVector,"ax",%progbits
  69      0080AFF3 
  69      0080AFF3 
  69      0080
  70              		.align	2
  71              		.p2align 4,,15
  72              		.global	nvicDisableVector
  73              		.thumb
  74              		.thumb_func
  75              		.type	nvicDisableVector, %function
  76              	nvicDisableVector:
  77              	.LFB256:
  78              		.loc 1 69 0
  79              		.cfi_startproc
  80              		@ args = 0, pretend = 0, frame = 0
  81              		@ frame_needed = 0, uses_anonymous_args = 0
  82              		@ link register save eliminated.
  83              	.LVL4:
  84              		.loc 1 71 0
  85 0000 0849     		ldr	r1, .L5
  86 0002 4309     		lsrs	r3, r0, #5
  87              		.loc 1 69 0
  88 0004 10B4     		push	{r4}
  89              		.cfi_def_cfa_offset 4
  90              		.cfi_offset 4, -4
  91              		.loc 1 71 0
  92 0006 2033     		adds	r3, r3, #32
  93 0008 00F01F04 		and	r4, r0, #31
  94 000c 0122     		movs	r2, #1
  95              		.loc 1 72 0
  96 000e 0844     		add	r0, r0, r1
  97              	.LVL5:
  98              		.loc 1 71 0
  99 0010 A240     		lsls	r2, r2, r4
 100              		.loc 1 72 0
 101 0012 0024     		movs	r4, #0
 102              		.loc 1 71 0
 103 0014 41F82320 		str	r2, [r1, r3, lsl #2]
 104              		.loc 1 72 0
 105 0018 80F80043 		strb	r4, [r0, #768]
 106              		.loc 1 73 0
 107 001c 5DF8044B 		ldr	r4, [sp], #4
 108              		.cfi_restore 4
 109              		.cfi_def_cfa_offset 0
 110 0020 7047     		bx	lr
 111              	.L6:
ARM GAS  C:\Users\jo\AppData\Local\Temp\ccxiMIcq.s 			page 3


 112 0022 00BF     		.align	2
 113              	.L5:
 114 0024 00E100E0 		.word	-536813312
 115              		.cfi_endproc
 116              	.LFE256:
 117              		.size	nvicDisableVector, .-nvicDisableVector
 118 0028 AFF30080 		.section	.text.nvicSetSystemHandlerPriority,"ax",%progbits
 118      AFF30080 
 119              		.align	2
 120              		.p2align 4,,15
 121              		.global	nvicSetSystemHandlerPriority
 122              		.thumb
 123              		.thumb_func
 124              		.type	nvicSetSystemHandlerPriority, %function
 125              	nvicSetSystemHandlerPriority:
 126              	.LFB257:
 127              		.loc 1 81 0
 128              		.cfi_startproc
 129              		@ args = 0, pretend = 0, frame = 0
 130              		@ frame_needed = 0, uses_anonymous_args = 0
 131              	.LVL6:
 132              		.loc 1 83 0
 133 0000 0C28     		cmp	r0, #12
 134              		.loc 1 81 0
 135 0002 38B5     		push	{r3, r4, r5, lr}
 136              		.cfi_def_cfa_offset 16
 137              		.cfi_offset 3, -16
 138              		.cfi_offset 4, -12
 139              		.cfi_offset 5, -8
 140              		.cfi_offset 14, -4
 141              		.loc 1 81 0
 142 0004 0446     		mov	r4, r0
 143 0006 0D46     		mov	r5, r1
 144              		.loc 1 83 0
 145 0008 02D9     		bls	.L8
 146              		.loc 1 83 0 is_stmt 0 discriminator 1
 147 000a 0548     		ldr	r0, .L11
 148              	.LVL7:
 149 000c FFF7FEFF 		bl	chSysHalt
 150              	.LVL8:
 151              	.L8:
 152              		.loc 1 85 0 is_stmt 1
 153 0010 04F16040 		add	r0, r4, #-536870912
 154 0014 00F56D40 		add	r0, r0, #60672
 155 0018 2D01     		lsls	r5, r5, #4
 156              	.LVL9:
 157 001a EDB2     		uxtb	r5, r5
 158 001c 0576     		strb	r5, [r0, #24]
 159 001e 38BD     		pop	{r3, r4, r5, pc}
 160              	.LVL10:
 161              	.L12:
 162              		.align	2
 163              	.L11:
 164 0020 00000000 		.word	.LANCHOR0
 165              		.cfi_endproc
 166              	.LFE257:
 167              		.size	nvicSetSystemHandlerPriority, .-nvicSetSystemHandlerPriority
ARM GAS  C:\Users\jo\AppData\Local\Temp\ccxiMIcq.s 			page 4


 168 0024 AFF30080 		.section	.rodata.__func__.8194,"a",%progbits
 168      AFF30080 
 168      AFF30080 
 169              		.align	2
 170              		.set	.LANCHOR0,. + 0
 171              		.type	__func__.8194, %object
 172              		.size	__func__.8194, 29
 173              	__func__.8194:
 174 0000 6E766963 		.ascii	"nvicSetSystemHandlerPriority\000"
 174      53657453 
 174      79737465 
 174      6D48616E 
 174      646C6572 
 175 001d 000000   		.text
 176              	.Letext0:
 177              		.file 2 "c:\\program files\\gnu tools arm embedded\\4.9 2014q4\\arm-none-eabi\\include\\machine\\_
 178              		.file 3 "c:\\program files\\gnu tools arm embedded\\4.9 2014q4\\arm-none-eabi\\include\\stdint.h"
 179              		.file 4 "../../../os/rt/ports/ARMCMx/compilers/GCC/chtypes.h"
 180              		.file 5 "../../../os/rt/include/chsystypes.h"
 181              		.file 6 "../../../os/rt/include/chschd.h"
 182              		.file 7 "../../../os/ext/CMSIS/include/core_cm4.h"
 183              		.file 8 "../../../os/rt/ports/ARMCMx/chcore.h"
 184              		.file 9 "../../../os/rt/ports/ARMCMx/chcore_v7m.h"
 185              		.file 10 "../../../os/rt/include/chdebug.h"
 186              		.file 11 "../../../os/rt/include/chtm.h"
 187              		.file 12 "../../../os/rt/include/chstats.h"
 188              		.file 13 "../../../os/rt/include/chmtx.h"
 189              		.file 14 "../../../os/rt/include/chsys.h"
 190              		.section	.debug_info,"",%progbits
 191              	.Ldebug_info0:
 192 0000 000B0000 		.4byte	0xb00
 193 0004 0400     		.2byte	0x4
 194 0006 00000000 		.4byte	.Ldebug_abbrev0
 195 000a 04       		.byte	0x4
 196 000b 01       		.uleb128 0x1
 197 000c FE020000 		.4byte	.LASF156
 198 0010 01       		.byte	0x1
 199 0011 85060000 		.4byte	.LASF157
 200 0015 7C000000 		.4byte	.LASF158
 201 0019 00000000 		.4byte	.Ldebug_ranges0+0
 202 001d 00000000 		.4byte	0
 203 0021 00000000 		.4byte	.Ldebug_line0
 204 0025 02       		.uleb128 0x2
 205 0026 04       		.byte	0x4
 206 0027 05       		.byte	0x5
 207 0028 696E7400 		.ascii	"int\000"
 208 002c 03       		.uleb128 0x3
 209 002d 04       		.byte	0x4
 210 002e 07       		.byte	0x7
 211 002f 40020000 		.4byte	.LASF0
 212 0033 03       		.uleb128 0x3
 213 0034 01       		.byte	0x1
 214 0035 06       		.byte	0x6
 215 0036 7E010000 		.4byte	.LASF1
 216 003a 04       		.uleb128 0x4
 217 003b 46000000 		.4byte	.LASF5
 218 003f 02       		.byte	0x2
ARM GAS  C:\Users\jo\AppData\Local\Temp\ccxiMIcq.s 			page 5


 219 0040 1D       		.byte	0x1d
 220 0041 45000000 		.4byte	0x45
 221 0045 03       		.uleb128 0x3
 222 0046 01       		.byte	0x1
 223 0047 08       		.byte	0x8
 224 0048 FE040000 		.4byte	.LASF2
 225 004c 03       		.uleb128 0x3
 226 004d 02       		.byte	0x2
 227 004e 05       		.byte	0x5
 228 004f 31050000 		.4byte	.LASF3
 229 0053 03       		.uleb128 0x3
 230 0054 02       		.byte	0x2
 231 0055 07       		.byte	0x7
 232 0056 9D050000 		.4byte	.LASF4
 233 005a 04       		.uleb128 0x4
 234 005b F4020000 		.4byte	.LASF6
 235 005f 02       		.byte	0x2
 236 0060 3F       		.byte	0x3f
 237 0061 65000000 		.4byte	0x65
 238 0065 03       		.uleb128 0x3
 239 0066 04       		.byte	0x4
 240 0067 05       		.byte	0x5
 241 0068 AB010000 		.4byte	.LASF7
 242 006c 04       		.uleb128 0x4
 243 006d 54060000 		.4byte	.LASF8
 244 0071 02       		.byte	0x2
 245 0072 41       		.byte	0x41
 246 0073 77000000 		.4byte	0x77
 247 0077 03       		.uleb128 0x3
 248 0078 04       		.byte	0x4
 249 0079 07       		.byte	0x7
 250 007a 00060000 		.4byte	.LASF9
 251 007e 03       		.uleb128 0x3
 252 007f 08       		.byte	0x8
 253 0080 05       		.byte	0x5
 254 0081 70010000 		.4byte	.LASF10
 255 0085 04       		.uleb128 0x4
 256 0086 8C040000 		.4byte	.LASF11
 257 008a 02       		.byte	0x2
 258 008b 5B       		.byte	0x5b
 259 008c 90000000 		.4byte	0x90
 260 0090 03       		.uleb128 0x3
 261 0091 08       		.byte	0x8
 262 0092 07       		.byte	0x7
 263 0093 E3000000 		.4byte	.LASF12
 264 0097 04       		.uleb128 0x4
 265 0098 E1060000 		.4byte	.LASF13
 266 009c 03       		.byte	0x3
 267 009d 15       		.byte	0x15
 268 009e 3A000000 		.4byte	0x3a
 269 00a2 04       		.uleb128 0x4
 270 00a3 F6040000 		.4byte	.LASF14
 271 00a7 03       		.byte	0x3
 272 00a8 2C       		.byte	0x2c
 273 00a9 5A000000 		.4byte	0x5a
 274 00ad 04       		.uleb128 0x4
 275 00ae D6050000 		.4byte	.LASF15
ARM GAS  C:\Users\jo\AppData\Local\Temp\ccxiMIcq.s 			page 6


 276 00b2 03       		.byte	0x3
 277 00b3 2D       		.byte	0x2d
 278 00b4 6C000000 		.4byte	0x6c
 279 00b8 04       		.uleb128 0x4
 280 00b9 30000000 		.4byte	.LASF16
 281 00bd 03       		.byte	0x3
 282 00be 39       		.byte	0x39
 283 00bf 85000000 		.4byte	0x85
 284 00c3 05       		.uleb128 0x5
 285 00c4 A2000000 		.4byte	0xa2
 286 00c8 05       		.uleb128 0x5
 287 00c9 AD000000 		.4byte	0xad
 288 00cd 04       		.uleb128 0x4
 289 00ce 7D060000 		.4byte	.LASF17
 290 00d2 04       		.byte	0x4
 291 00d3 45       		.byte	0x45
 292 00d4 AD000000 		.4byte	0xad
 293 00d8 04       		.uleb128 0x4
 294 00d9 45010000 		.4byte	.LASF18
 295 00dd 04       		.byte	0x4
 296 00de 46       		.byte	0x46
 297 00df B8000000 		.4byte	0xb8
 298 00e3 04       		.uleb128 0x4
 299 00e4 7C050000 		.4byte	.LASF19
 300 00e8 04       		.byte	0x4
 301 00e9 48       		.byte	0x48
 302 00ea 97000000 		.4byte	0x97
 303 00ee 04       		.uleb128 0x4
 304 00ef B4010000 		.4byte	.LASF20
 305 00f3 04       		.byte	0x4
 306 00f4 49       		.byte	0x49
 307 00f5 97000000 		.4byte	0x97
 308 00f9 04       		.uleb128 0x4
 309 00fa A2040000 		.4byte	.LASF21
 310 00fe 04       		.byte	0x4
 311 00ff 4A       		.byte	0x4a
 312 0100 97000000 		.4byte	0x97
 313 0104 04       		.uleb128 0x4
 314 0105 D9040000 		.4byte	.LASF22
 315 0109 04       		.byte	0x4
 316 010a 4C       		.byte	0x4c
 317 010b AD000000 		.4byte	0xad
 318 010f 04       		.uleb128 0x4
 319 0110 9B020000 		.4byte	.LASF23
 320 0114 04       		.byte	0x4
 321 0115 4D       		.byte	0x4d
 322 0116 A2000000 		.4byte	0xa2
 323 011a 04       		.uleb128 0x4
 324 011b E8020000 		.4byte	.LASF24
 325 011f 04       		.byte	0x4
 326 0120 4F       		.byte	0x4f
 327 0121 AD000000 		.4byte	0xad
 328 0125 04       		.uleb128 0x4
 329 0126 2F020000 		.4byte	.LASF25
 330 012a 04       		.byte	0x4
 331 012b 51       		.byte	0x51
 332 012c A2000000 		.4byte	0xa2
ARM GAS  C:\Users\jo\AppData\Local\Temp\ccxiMIcq.s 			page 7


 333 0130 04       		.uleb128 0x4
 334 0131 AC020000 		.4byte	.LASF26
 335 0135 04       		.byte	0x4
 336 0136 52       		.byte	0x52
 337 0137 AD000000 		.4byte	0xad
 338 013b 04       		.uleb128 0x4
 339 013c 36060000 		.4byte	.LASF27
 340 0140 05       		.byte	0x5
 341 0141 33       		.byte	0x33
 342 0142 AD000000 		.4byte	0xad
 343 0146 04       		.uleb128 0x4
 344 0147 21060000 		.4byte	.LASF28
 345 014b 05       		.byte	0x5
 346 014c 3F       		.byte	0x3f
 347 014d 51010000 		.4byte	0x151
 348 0151 06       		.uleb128 0x6
 349 0152 8C020000 		.4byte	.LASF49
 350 0156 60       		.byte	0x60
 351 0157 06       		.byte	0x6
 352 0158 BE       		.byte	0xbe
 353 0159 57020000 		.4byte	0x257
 354 015d 07       		.uleb128 0x7
 355 015e 75050000 		.4byte	.LASF29
 356 0162 06       		.byte	0x6
 357 0163 BF       		.byte	0xbf
 358 0164 65080000 		.4byte	0x865
 359 0168 00       		.byte	0
 360 0169 07       		.uleb128 0x7
 361 016a D2040000 		.4byte	.LASF30
 362 016e 06       		.byte	0x6
 363 016f C1       		.byte	0xc1
 364 0170 65080000 		.4byte	0x865
 365 0174 04       		.byte	0x4
 366 0175 07       		.uleb128 0x7
 367 0176 53010000 		.4byte	.LASF31
 368 017a 06       		.byte	0x6
 369 017b C3       		.byte	0xc3
 370 017c 04010000 		.4byte	0x104
 371 0180 08       		.byte	0x8
 372 0181 07       		.uleb128 0x7
 373 0182 40070000 		.4byte	.LASF32
 374 0186 06       		.byte	0x6
 375 0187 C4       		.byte	0xc4
 376 0188 80070000 		.4byte	0x780
 377 018c 0C       		.byte	0xc
 378 018d 07       		.uleb128 0x7
 379 018e C3010000 		.4byte	.LASF33
 380 0192 06       		.byte	0x6
 381 0193 C6       		.byte	0xc6
 382 0194 65080000 		.4byte	0x865
 383 0198 10       		.byte	0x10
 384 0199 07       		.uleb128 0x7
 385 019a 5B040000 		.4byte	.LASF34
 386 019e 06       		.byte	0x6
 387 019f C7       		.byte	0xc7
 388 01a0 65080000 		.4byte	0x865
 389 01a4 14       		.byte	0x14
ARM GAS  C:\Users\jo\AppData\Local\Temp\ccxiMIcq.s 			page 8


 390 01a5 07       		.uleb128 0x7
 391 01a6 FE060000 		.4byte	.LASF35
 392 01aa 06       		.byte	0x6
 393 01ab CE       		.byte	0xce
 394 01ac 21080000 		.4byte	0x821
 395 01b0 18       		.byte	0x18
 396 01b1 07       		.uleb128 0x7
 397 01b2 35020000 		.4byte	.LASF36
 398 01b6 06       		.byte	0x6
 399 01b7 D4       		.byte	0xd4
 400 01b8 AF090000 		.4byte	0x9af
 401 01bc 1C       		.byte	0x1c
 402 01bd 07       		.uleb128 0x7
 403 01be 1F050000 		.4byte	.LASF37
 404 01c2 06       		.byte	0x6
 405 01c3 D9       		.byte	0xd9
 406 01c4 EE000000 		.4byte	0xee
 407 01c8 20       		.byte	0x20
 408 01c9 07       		.uleb128 0x7
 409 01ca 84050000 		.4byte	.LASF38
 410 01ce 06       		.byte	0x6
 411 01cf DD       		.byte	0xdd
 412 01d0 E3000000 		.4byte	0xe3
 413 01d4 21       		.byte	0x21
 414 01d5 07       		.uleb128 0x7
 415 01d6 C7060000 		.4byte	.LASF39
 416 01da 06       		.byte	0x6
 417 01db E2       		.byte	0xe2
 418 01dc F9000000 		.4byte	0xf9
 419 01e0 22       		.byte	0x22
 420 01e1 08       		.uleb128 0x8
 421 01e2 705F7500 		.ascii	"p_u\000"
 422 01e6 06       		.byte	0x6
 423 01e7 1401     		.2byte	0x114
 424 01e9 77090000 		.4byte	0x977
 425 01ed 24       		.byte	0x24
 426 01ee 09       		.uleb128 0x9
 427 01ef FB030000 		.4byte	.LASF40
 428 01f3 06       		.byte	0x6
 429 01f4 1901     		.2byte	0x119
 430 01f6 57020000 		.4byte	0x257
 431 01fa 28       		.byte	0x28
 432 01fb 09       		.uleb128 0x9
 433 01fc 67020000 		.4byte	.LASF41
 434 0200 06       		.byte	0x6
 435 0201 1F01     		.2byte	0x11f
 436 0203 7B020000 		.4byte	0x27b
 437 0207 2C       		.byte	0x2c
 438 0208 09       		.uleb128 0x9
 439 0209 12070000 		.4byte	.LASF42
 440 020d 06       		.byte	0x6
 441 020e 2301     		.2byte	0x123
 442 0210 0F010000 		.4byte	0x10f
 443 0214 34       		.byte	0x34
 444 0215 09       		.uleb128 0x9
 445 0216 C1050000 		.4byte	.LASF43
 446 021a 06       		.byte	0x6
ARM GAS  C:\Users\jo\AppData\Local\Temp\ccxiMIcq.s 			page 9


 447 021b 2901     		.2byte	0x129
 448 021d 1A010000 		.4byte	0x11a
 449 0221 38       		.byte	0x38
 450 0222 09       		.uleb128 0x9
 451 0223 27050000 		.4byte	.LASF44
 452 0227 06       		.byte	0x6
 453 0228 3001     		.2byte	0x130
 454 022a E6090000 		.4byte	0x9e6
 455 022e 3C       		.byte	0x3c
 456 022f 09       		.uleb128 0x9
 457 0230 40060000 		.4byte	.LASF45
 458 0234 06       		.byte	0x6
 459 0235 3401     		.2byte	0x134
 460 0237 04010000 		.4byte	0x104
 461 023b 40       		.byte	0x40
 462 023c 09       		.uleb128 0x9
 463 023d 8A010000 		.4byte	.LASF46
 464 0241 06       		.byte	0x6
 465 0242 3A01     		.2byte	0x13a
 466 0244 2E030000 		.4byte	0x32e
 467 0248 44       		.byte	0x44
 468 0249 09       		.uleb128 0x9
 469 024a 95050000 		.4byte	.LASF47
 470 024e 06       		.byte	0x6
 471 024f 4001     		.2byte	0x140
 472 0251 28090000 		.4byte	0x928
 473 0255 48       		.byte	0x48
 474 0256 00       		.byte	0
 475 0257 04       		.uleb128 0x4
 476 0258 00000000 		.4byte	.LASF48
 477 025c 05       		.byte	0x5
 478 025d 44       		.byte	0x44
 479 025e 62020000 		.4byte	0x262
 480 0262 06       		.uleb128 0x6
 481 0263 F0050000 		.4byte	.LASF50
 482 0267 04       		.byte	0x4
 483 0268 06       		.byte	0x6
 484 0269 AC       		.byte	0xac
 485 026a 7B020000 		.4byte	0x27b
 486 026e 07       		.uleb128 0x7
 487 026f 75050000 		.4byte	.LASF29
 488 0273 06       		.byte	0x6
 489 0274 AD       		.byte	0xad
 490 0275 65080000 		.4byte	0x865
 491 0279 00       		.byte	0
 492 027a 00       		.byte	0
 493 027b 04       		.uleb128 0x4
 494 027c B7060000 		.4byte	.LASF51
 495 0280 05       		.byte	0x5
 496 0281 4B       		.byte	0x4b
 497 0282 86020000 		.4byte	0x286
 498 0286 06       		.uleb128 0x6
 499 0287 5C000000 		.4byte	.LASF52
 500 028b 08       		.byte	0x8
 501 028c 06       		.byte	0x6
 502 028d B3       		.byte	0xb3
 503 028e AB020000 		.4byte	0x2ab
ARM GAS  C:\Users\jo\AppData\Local\Temp\ccxiMIcq.s 			page 10


 504 0292 07       		.uleb128 0x7
 505 0293 75050000 		.4byte	.LASF29
 506 0297 06       		.byte	0x6
 507 0298 B4       		.byte	0xb4
 508 0299 65080000 		.4byte	0x865
 509 029d 00       		.byte	0
 510 029e 07       		.uleb128 0x7
 511 029f D2040000 		.4byte	.LASF30
 512 02a3 06       		.byte	0x6
 513 02a4 B5       		.byte	0xb5
 514 02a5 65080000 		.4byte	0x865
 515 02a9 04       		.byte	0x4
 516 02aa 00       		.byte	0
 517 02ab 04       		.uleb128 0x4
 518 02ac 14000000 		.4byte	.LASF53
 519 02b0 05       		.byte	0x5
 520 02b1 52       		.byte	0x52
 521 02b2 B6020000 		.4byte	0x2b6
 522 02b6 0A       		.uleb128 0xa
 523 02b7 DA020000 		.4byte	.LASF54
 524 02bb 1C       		.byte	0x1c
 525 02bc 06       		.byte	0x6
 526 02bd 7201     		.2byte	0x172
 527 02bf 12030000 		.4byte	0x312
 528 02c3 09       		.uleb128 0x9
 529 02c4 DF050000 		.4byte	.LASF55
 530 02c8 06       		.byte	0x6
 531 02c9 7301     		.2byte	0x173
 532 02cb 7B020000 		.4byte	0x27b
 533 02cf 00       		.byte	0
 534 02d0 09       		.uleb128 0x9
 535 02d1 67050000 		.4byte	.LASF56
 536 02d5 06       		.byte	0x6
 537 02d6 7401     		.2byte	0x174
 538 02d8 04010000 		.4byte	0x104
 539 02dc 08       		.byte	0x8
 540 02dd 09       		.uleb128 0x9
 541 02de 63040000 		.4byte	.LASF57
 542 02e2 06       		.byte	0x6
 543 02e3 7601     		.2byte	0x176
 544 02e5 80070000 		.4byte	0x780
 545 02e9 0C       		.byte	0xc
 546 02ea 09       		.uleb128 0x9
 547 02eb DD010000 		.4byte	.LASF58
 548 02ef 06       		.byte	0x6
 549 02f0 7901     		.2byte	0x179
 550 02f2 65080000 		.4byte	0x865
 551 02f6 10       		.byte	0x10
 552 02f7 09       		.uleb128 0x9
 553 02f8 84040000 		.4byte	.LASF59
 554 02fc 06       		.byte	0x6
 555 02fd 7A01     		.2byte	0x17a
 556 02ff 65080000 		.4byte	0x865
 557 0303 14       		.byte	0x14
 558 0304 09       		.uleb128 0x9
 559 0305 12060000 		.4byte	.LASF60
 560 0309 06       		.byte	0x6
ARM GAS  C:\Users\jo\AppData\Local\Temp\ccxiMIcq.s 			page 11


 561 030a 7D01     		.2byte	0x17d
 562 030c 65080000 		.4byte	0x865
 563 0310 18       		.byte	0x18
 564 0311 00       		.byte	0
 565 0312 04       		.uleb128 0x4
 566 0313 4B060000 		.4byte	.LASF61
 567 0317 05       		.byte	0x5
 568 0318 57       		.byte	0x57
 569 0319 1D030000 		.4byte	0x31d
 570 031d 0B       		.uleb128 0xb
 571 031e 04       		.byte	0x4
 572 031f 23030000 		.4byte	0x323
 573 0323 0C       		.uleb128 0xc
 574 0324 2E030000 		.4byte	0x32e
 575 0328 0D       		.uleb128 0xd
 576 0329 2E030000 		.4byte	0x32e
 577 032d 00       		.byte	0
 578 032e 0E       		.uleb128 0xe
 579 032f 04       		.byte	0x4
 580 0330 04       		.uleb128 0x4
 581 0331 EB030000 		.4byte	.LASF62
 582 0335 05       		.byte	0x5
 583 0336 5C       		.byte	0x5c
 584 0337 3B030000 		.4byte	0x33b
 585 033b 0A       		.uleb128 0xa
 586 033c B0050000 		.4byte	.LASF63
 587 0340 14       		.byte	0x14
 588 0341 06       		.byte	0x6
 589 0342 4D01     		.2byte	0x14d
 590 0344 8A030000 		.4byte	0x38a
 591 0348 09       		.uleb128 0x9
 592 0349 4D020000 		.4byte	.LASF64
 593 034d 06       		.byte	0x6
 594 034e 4E01     		.2byte	0x14e
 595 0350 EC090000 		.4byte	0x9ec
 596 0354 00       		.byte	0
 597 0355 09       		.uleb128 0x9
 598 0356 EE010000 		.4byte	.LASF65
 599 035a 06       		.byte	0x6
 600 035b 4F01     		.2byte	0x14f
 601 035d EC090000 		.4byte	0x9ec
 602 0361 04       		.byte	0x4
 603 0362 09       		.uleb128 0x9
 604 0363 E7050000 		.4byte	.LASF66
 605 0367 06       		.byte	0x6
 606 0368 5001     		.2byte	0x150
 607 036a 3B010000 		.4byte	0x13b
 608 036e 08       		.byte	0x8
 609 036f 09       		.uleb128 0x9
 610 0370 46070000 		.4byte	.LASF67
 611 0374 06       		.byte	0x6
 612 0375 5101     		.2byte	0x151
 613 0377 12030000 		.4byte	0x312
 614 037b 0C       		.byte	0xc
 615 037c 09       		.uleb128 0x9
 616 037d B0060000 		.4byte	.LASF68
 617 0381 06       		.byte	0x6
ARM GAS  C:\Users\jo\AppData\Local\Temp\ccxiMIcq.s 			page 12


 618 0382 5301     		.2byte	0x153
 619 0384 2E030000 		.4byte	0x32e
 620 0388 10       		.byte	0x10
 621 0389 00       		.byte	0
 622 038a 04       		.uleb128 0x4
 623 038b 29010000 		.4byte	.LASF69
 624 038f 05       		.byte	0x5
 625 0390 61       		.byte	0x61
 626 0391 95030000 		.4byte	0x395
 627 0395 0A       		.uleb128 0xa
 628 0396 18040000 		.4byte	.LASF70
 629 039a 10       		.byte	0x10
 630 039b 06       		.byte	0x6
 631 039c 5D01     		.2byte	0x15d
 632 039e D7030000 		.4byte	0x3d7
 633 03a2 09       		.uleb128 0x9
 634 03a3 4D020000 		.4byte	.LASF64
 635 03a7 06       		.byte	0x6
 636 03a8 5E01     		.2byte	0x15e
 637 03aa EC090000 		.4byte	0x9ec
 638 03ae 00       		.byte	0
 639 03af 09       		.uleb128 0x9
 640 03b0 EE010000 		.4byte	.LASF65
 641 03b4 06       		.byte	0x6
 642 03b5 6001     		.2byte	0x160
 643 03b7 EC090000 		.4byte	0x9ec
 644 03bb 04       		.byte	0x4
 645 03bc 09       		.uleb128 0x9
 646 03bd E7050000 		.4byte	.LASF66
 647 03c1 06       		.byte	0x6
 648 03c2 6201     		.2byte	0x162
 649 03c4 3B010000 		.4byte	0x13b
 650 03c8 08       		.byte	0x8
 651 03c9 09       		.uleb128 0x9
 652 03ca 4F040000 		.4byte	.LASF71
 653 03ce 06       		.byte	0x6
 654 03cf 6A01     		.2byte	0x16a
 655 03d1 3B010000 		.4byte	0x13b
 656 03d5 0C       		.byte	0xc
 657 03d6 00       		.byte	0
 658 03d7 04       		.uleb128 0x4
 659 03d8 6D000000 		.4byte	.LASF72
 660 03dc 05       		.byte	0x5
 661 03dd 66       		.byte	0x66
 662 03de E2030000 		.4byte	0x3e2
 663 03e2 0F       		.uleb128 0xf
 664 03e3 FF010000 		.4byte	.LASF73
 665 03e7 1404     		.2byte	0x414
 666 03e9 06       		.byte	0x6
 667 03ea 8401     		.2byte	0x184
 668 03ec 25040000 		.4byte	0x425
 669 03f0 09       		.uleb128 0x9
 670 03f1 64060000 		.4byte	.LASF74
 671 03f5 06       		.byte	0x6
 672 03f6 8C01     		.2byte	0x18c
 673 03f8 F2090000 		.4byte	0x9f2
 674 03fc 00       		.byte	0
ARM GAS  C:\Users\jo\AppData\Local\Temp\ccxiMIcq.s 			page 13


 675 03fd 09       		.uleb128 0x9
 676 03fe CE060000 		.4byte	.LASF75
 677 0402 06       		.byte	0x6
 678 0403 9101     		.2byte	0x191
 679 0405 25010000 		.4byte	0x125
 680 0409 04       		.byte	0x4
 681 040a 09       		.uleb128 0x9
 682 040b 17020000 		.4byte	.LASF76
 683 040f 06       		.byte	0x6
 684 0410 9501     		.2byte	0x195
 685 0412 25010000 		.4byte	0x125
 686 0416 08       		.byte	0x8
 687 0417 09       		.uleb128 0x9
 688 0418 05070000 		.4byte	.LASF77
 689 041c 06       		.byte	0x6
 690 041d 9B01     		.2byte	0x19b
 691 041f BA080000 		.4byte	0x8ba
 692 0423 0C       		.byte	0xc
 693 0424 00       		.byte	0
 694 0425 04       		.uleb128 0x4
 695 0426 B9020000 		.4byte	.LASF78
 696 042a 05       		.byte	0x5
 697 042b 6B       		.byte	0x6b
 698 042c 30040000 		.4byte	0x430
 699 0430 0F       		.uleb128 0xf
 700 0431 A1010000 		.4byte	.LASF79
 701 0435 D805     		.2byte	0x5d8
 702 0437 06       		.byte	0x6
 703 0438 A401     		.2byte	0x1a4
 704 043a 9D040000 		.4byte	0x49d
 705 043e 09       		.uleb128 0x9
 706 043f DB060000 		.4byte	.LASF80
 707 0443 06       		.byte	0x6
 708 0444 A801     		.2byte	0x1a8
 709 0446 AB020000 		.4byte	0x2ab
 710 044a 00       		.byte	0
 711 044b 09       		.uleb128 0x9
 712 044c 9A010000 		.4byte	.LASF81
 713 0450 06       		.byte	0x6
 714 0451 AC01     		.2byte	0x1ac
 715 0453 8A030000 		.4byte	0x38a
 716 0457 1C       		.byte	0x1c
 717 0458 08       		.uleb128 0x8
 718 0459 64626700 		.ascii	"dbg\000"
 719 045d 06       		.byte	0x6
 720 045e B001     		.2byte	0x1b0
 721 0460 D7030000 		.4byte	0x3d7
 722 0464 2C       		.byte	0x2c
 723 0465 10       		.uleb128 0x10
 724 0466 1E010000 		.4byte	.LASF82
 725 046a 06       		.byte	0x6
 726 046b B401     		.2byte	0x1b4
 727 046d 46010000 		.4byte	0x146
 728 0471 4004     		.2byte	0x440
 729 0473 11       		.uleb128 0x11
 730 0474 746D00   		.ascii	"tm\000"
 731 0477 06       		.byte	0x6
ARM GAS  C:\Users\jo\AppData\Local\Temp\ccxiMIcq.s 			page 14


 732 0478 B901     		.2byte	0x1b9
 733 047a DA080000 		.4byte	0x8da
 734 047e A004     		.2byte	0x4a0
 735 0480 10       		.uleb128 0x10
 736 0481 39000000 		.4byte	.LASF83
 737 0485 06       		.byte	0x6
 738 0486 BF01     		.2byte	0x1bf
 739 0488 6C090000 		.4byte	0x96c
 740 048c A804     		.2byte	0x4a8
 741 048e 10       		.uleb128 0x10
 742 048f 20020000 		.4byte	.LASF84
 743 0493 06       		.byte	0x6
 744 0494 C501     		.2byte	0x1c5
 745 0496 F7090000 		.4byte	0x9f7
 746 049a E004     		.2byte	0x4e0
 747 049c 00       		.byte	0
 748 049d 12       		.uleb128 0x12
 749 049e 040E     		.2byte	0xe04
 750 04a0 07       		.byte	0x7
 751 04a1 5001     		.2byte	0x150
 752 04a3 59050000 		.4byte	0x559
 753 04a7 09       		.uleb128 0x9
 754 04a8 3B050000 		.4byte	.LASF85
 755 04ac 07       		.byte	0x7
 756 04ad 5201     		.2byte	0x152
 757 04af 70050000 		.4byte	0x570
 758 04b3 00       		.byte	0
 759 04b4 09       		.uleb128 0x9
 760 04b5 AA040000 		.4byte	.LASF86
 761 04b9 07       		.byte	0x7
 762 04ba 5301     		.2byte	0x153
 763 04bc 75050000 		.4byte	0x575
 764 04c0 20       		.byte	0x20
 765 04c1 09       		.uleb128 0x9
 766 04c2 7A040000 		.4byte	.LASF87
 767 04c6 07       		.byte	0x7
 768 04c7 5401     		.2byte	0x154
 769 04c9 85050000 		.4byte	0x585
 770 04cd 80       		.byte	0x80
 771 04ce 09       		.uleb128 0x9
 772 04cf E9060000 		.4byte	.LASF88
 773 04d3 07       		.byte	0x7
 774 04d4 5501     		.2byte	0x155
 775 04d6 75050000 		.4byte	0x575
 776 04da A0       		.byte	0xa0
 777 04db 10       		.uleb128 0x10
 778 04dc 4E010000 		.4byte	.LASF89
 779 04e0 07       		.byte	0x7
 780 04e1 5601     		.2byte	0x156
 781 04e3 8A050000 		.4byte	0x58a
 782 04e7 0001     		.2byte	0x100
 783 04e9 10       		.uleb128 0x10
 784 04ea B4040000 		.4byte	.LASF90
 785 04ee 07       		.byte	0x7
 786 04ef 5701     		.2byte	0x157
 787 04f1 75050000 		.4byte	0x575
 788 04f5 2001     		.2byte	0x120
ARM GAS  C:\Users\jo\AppData\Local\Temp\ccxiMIcq.s 			page 15


 789 04f7 10       		.uleb128 0x10
 790 04f8 0F000000 		.4byte	.LASF91
 791 04fc 07       		.byte	0x7
 792 04fd 5801     		.2byte	0x158
 793 04ff 8F050000 		.4byte	0x58f
 794 0503 8001     		.2byte	0x180
 795 0505 10       		.uleb128 0x10
 796 0506 BE040000 		.4byte	.LASF92
 797 050a 07       		.byte	0x7
 798 050b 5901     		.2byte	0x159
 799 050d 75050000 		.4byte	0x575
 800 0511 A001     		.2byte	0x1a0
 801 0513 10       		.uleb128 0x10
 802 0514 3B040000 		.4byte	.LASF93
 803 0518 07       		.byte	0x7
 804 0519 5A01     		.2byte	0x15a
 805 051b 94050000 		.4byte	0x594
 806 051f 0002     		.2byte	0x200
 807 0521 10       		.uleb128 0x10
 808 0522 C8040000 		.4byte	.LASF94
 809 0526 07       		.byte	0x7
 810 0527 5B01     		.2byte	0x15b
 811 0529 99050000 		.4byte	0x599
 812 052d 2002     		.2byte	0x220
 813 052f 11       		.uleb128 0x11
 814 0530 495000   		.ascii	"IP\000"
 815 0533 07       		.byte	0x7
 816 0534 5C01     		.2byte	0x15c
 817 0536 B9050000 		.4byte	0x5b9
 818 053a 0003     		.2byte	0x300
 819 053c 10       		.uleb128 0x10
 820 053d CC050000 		.4byte	.LASF95
 821 0541 07       		.byte	0x7
 822 0542 5D01     		.2byte	0x15d
 823 0544 BE050000 		.4byte	0x5be
 824 0548 F003     		.2byte	0x3f0
 825 054a 10       		.uleb128 0x10
 826 054b F2060000 		.4byte	.LASF96
 827 054f 07       		.byte	0x7
 828 0550 5E01     		.2byte	0x15e
 829 0552 C8000000 		.4byte	0xc8
 830 0556 000E     		.2byte	0xe00
 831 0558 00       		.byte	0
 832 0559 13       		.uleb128 0x13
 833 055a AD000000 		.4byte	0xad
 834 055e 69050000 		.4byte	0x569
 835 0562 14       		.uleb128 0x14
 836 0563 69050000 		.4byte	0x569
 837 0567 07       		.byte	0x7
 838 0568 00       		.byte	0
 839 0569 03       		.uleb128 0x3
 840 056a 04       		.byte	0x4
 841 056b 07       		.byte	0x7
 842 056c 0F040000 		.4byte	.LASF97
 843 0570 05       		.uleb128 0x5
 844 0571 59050000 		.4byte	0x559
 845 0575 13       		.uleb128 0x13
ARM GAS  C:\Users\jo\AppData\Local\Temp\ccxiMIcq.s 			page 16


 846 0576 AD000000 		.4byte	0xad
 847 057a 85050000 		.4byte	0x585
 848 057e 14       		.uleb128 0x14
 849 057f 69050000 		.4byte	0x569
 850 0583 17       		.byte	0x17
 851 0584 00       		.byte	0
 852 0585 05       		.uleb128 0x5
 853 0586 59050000 		.4byte	0x559
 854 058a 05       		.uleb128 0x5
 855 058b 59050000 		.4byte	0x559
 856 058f 05       		.uleb128 0x5
 857 0590 59050000 		.4byte	0x559
 858 0594 05       		.uleb128 0x5
 859 0595 59050000 		.4byte	0x559
 860 0599 13       		.uleb128 0x13
 861 059a AD000000 		.4byte	0xad
 862 059e A9050000 		.4byte	0x5a9
 863 05a2 14       		.uleb128 0x14
 864 05a3 69050000 		.4byte	0x569
 865 05a7 37       		.byte	0x37
 866 05a8 00       		.byte	0
 867 05a9 13       		.uleb128 0x13
 868 05aa 97000000 		.4byte	0x97
 869 05ae B9050000 		.4byte	0x5b9
 870 05b2 14       		.uleb128 0x14
 871 05b3 69050000 		.4byte	0x569
 872 05b7 EF       		.byte	0xef
 873 05b8 00       		.byte	0
 874 05b9 05       		.uleb128 0x5
 875 05ba A9050000 		.4byte	0x5a9
 876 05be 13       		.uleb128 0x13
 877 05bf AD000000 		.4byte	0xad
 878 05c3 CF050000 		.4byte	0x5cf
 879 05c7 15       		.uleb128 0x15
 880 05c8 69050000 		.4byte	0x569
 881 05cc 8302     		.2byte	0x283
 882 05ce 00       		.byte	0
 883 05cf 16       		.uleb128 0x16
 884 05d0 40050000 		.4byte	.LASF98
 885 05d4 07       		.byte	0x7
 886 05d5 5F01     		.2byte	0x15f
 887 05d7 9D040000 		.4byte	0x49d
 888 05db 17       		.uleb128 0x17
 889 05dc 8C       		.byte	0x8c
 890 05dd 07       		.byte	0x7
 891 05de 7001     		.2byte	0x170
 892 05e0 F6060000 		.4byte	0x6f6
 893 05e4 09       		.uleb128 0x9
 894 05e5 3F010000 		.4byte	.LASF99
 895 05e9 07       		.byte	0x7
 896 05ea 7201     		.2byte	0x172
 897 05ec F6060000 		.4byte	0x6f6
 898 05f0 00       		.byte	0
 899 05f1 09       		.uleb128 0x9
 900 05f2 96020000 		.4byte	.LASF100
 901 05f6 07       		.byte	0x7
 902 05f7 7301     		.2byte	0x173
ARM GAS  C:\Users\jo\AppData\Local\Temp\ccxiMIcq.s 			page 17


 903 05f9 C8000000 		.4byte	0xc8
 904 05fd 04       		.byte	0x4
 905 05fe 09       		.uleb128 0x9
 906 05ff 78020000 		.4byte	.LASF101
 907 0603 07       		.byte	0x7
 908 0604 7401     		.2byte	0x174
 909 0606 C8000000 		.4byte	0xc8
 910 060a 08       		.byte	0x8
 911 060b 09       		.uleb128 0x9
 912 060c A1020000 		.4byte	.LASF102
 913 0610 07       		.byte	0x7
 914 0611 7501     		.2byte	0x175
 915 0613 C8000000 		.4byte	0xc8
 916 0617 0C       		.byte	0xc
 917 0618 08       		.uleb128 0x8
 918 0619 53435200 		.ascii	"SCR\000"
 919 061d 07       		.byte	0x7
 920 061e 7601     		.2byte	0x176
 921 0620 C8000000 		.4byte	0xc8
 922 0624 10       		.byte	0x10
 923 0625 08       		.uleb128 0x8
 924 0626 43435200 		.ascii	"CCR\000"
 925 062a 07       		.byte	0x7
 926 062b 7701     		.2byte	0x177
 927 062d C8000000 		.4byte	0xc8
 928 0631 14       		.byte	0x14
 929 0632 08       		.uleb128 0x8
 930 0633 53485000 		.ascii	"SHP\000"
 931 0637 07       		.byte	0x7
 932 0638 7801     		.2byte	0x178
 933 063a 0B070000 		.4byte	0x70b
 934 063e 18       		.byte	0x18
 935 063f 09       		.uleb128 0x9
 936 0640 0C050000 		.4byte	.LASF103
 937 0644 07       		.byte	0x7
 938 0645 7901     		.2byte	0x179
 939 0647 C8000000 		.4byte	0xc8
 940 064b 24       		.byte	0x24
 941 064c 09       		.uleb128 0x9
 942 064d 2F040000 		.4byte	.LASF104
 943 0651 07       		.byte	0x7
 944 0652 7A01     		.2byte	0x17a
 945 0654 C8000000 		.4byte	0xc8
 946 0658 28       		.byte	0x28
 947 0659 09       		.uleb128 0x9
 948 065a 1E070000 		.4byte	.LASF105
 949 065e 07       		.byte	0x7
 950 065f 7B01     		.2byte	0x17b
 951 0661 C8000000 		.4byte	0xc8
 952 0665 2C       		.byte	0x2c
 953 0666 09       		.uleb128 0x9
 954 0667 A7020000 		.4byte	.LASF106
 955 066b 07       		.byte	0x7
 956 066c 7C01     		.2byte	0x17c
 957 066e C8000000 		.4byte	0xc8
 958 0672 30       		.byte	0x30
 959 0673 09       		.uleb128 0x9
ARM GAS  C:\Users\jo\AppData\Local\Temp\ccxiMIcq.s 			page 18


 960 0674 B3020000 		.4byte	.LASF107
 961 0678 07       		.byte	0x7
 962 0679 7D01     		.2byte	0x17d
 963 067b C8000000 		.4byte	0xc8
 964 067f 34       		.byte	0x34
 965 0680 09       		.uleb128 0x9
 966 0681 CB010000 		.4byte	.LASF108
 967 0685 07       		.byte	0x7
 968 0686 7E01     		.2byte	0x17e
 969 0688 C8000000 		.4byte	0xc8
 970 068c 38       		.byte	0x38
 971 068d 09       		.uleb128 0x9
 972 068e D8010000 		.4byte	.LASF109
 973 0692 07       		.byte	0x7
 974 0693 7F01     		.2byte	0x17f
 975 0695 C8000000 		.4byte	0xc8
 976 0699 3C       		.byte	0x3c
 977 069a 08       		.uleb128 0x8
 978 069b 50465200 		.ascii	"PFR\000"
 979 069f 07       		.byte	0x7
 980 06a0 8001     		.2byte	0x180
 981 06a2 20070000 		.4byte	0x720
 982 06a6 40       		.byte	0x40
 983 06a7 08       		.uleb128 0x8
 984 06a8 44465200 		.ascii	"DFR\000"
 985 06ac 07       		.byte	0x7
 986 06ad 8101     		.2byte	0x181
 987 06af F6060000 		.4byte	0x6f6
 988 06b3 48       		.byte	0x48
 989 06b4 08       		.uleb128 0x8
 990 06b5 41445200 		.ascii	"ADR\000"
 991 06b9 07       		.byte	0x7
 992 06ba 8201     		.2byte	0x182
 993 06bc F6060000 		.4byte	0x6f6
 994 06c0 4C       		.byte	0x4c
 995 06c1 09       		.uleb128 0x9
 996 06c2 D6060000 		.4byte	.LASF110
 997 06c6 07       		.byte	0x7
 998 06c7 8301     		.2byte	0x183
 999 06c9 3A070000 		.4byte	0x73a
 1000 06cd 50       		.byte	0x50
 1001 06ce 09       		.uleb128 0x9
 1002 06cf 6B010000 		.4byte	.LASF111
 1003 06d3 07       		.byte	0x7
 1004 06d4 8401     		.2byte	0x184
 1005 06d6 54070000 		.4byte	0x754
 1006 06da 60       		.byte	0x60
 1007 06db 09       		.uleb128 0x9
 1008 06dc AA040000 		.4byte	.LASF86
 1009 06e0 07       		.byte	0x7
 1010 06e1 8501     		.2byte	0x185
 1011 06e3 44070000 		.4byte	0x744
 1012 06e7 74       		.byte	0x74
 1013 06e8 09       		.uleb128 0x9
 1014 06e9 18070000 		.4byte	.LASF112
 1015 06ed 07       		.byte	0x7
 1016 06ee 8601     		.2byte	0x186
ARM GAS  C:\Users\jo\AppData\Local\Temp\ccxiMIcq.s 			page 19


 1017 06f0 C8000000 		.4byte	0xc8
 1018 06f4 88       		.byte	0x88
 1019 06f5 00       		.byte	0
 1020 06f6 18       		.uleb128 0x18
 1021 06f7 C8000000 		.4byte	0xc8
 1022 06fb 13       		.uleb128 0x13
 1023 06fc 97000000 		.4byte	0x97
 1024 0700 0B070000 		.4byte	0x70b
 1025 0704 14       		.uleb128 0x14
 1026 0705 69050000 		.4byte	0x569
 1027 0709 0B       		.byte	0xb
 1028 070a 00       		.byte	0
 1029 070b 05       		.uleb128 0x5
 1030 070c FB060000 		.4byte	0x6fb
 1031 0710 13       		.uleb128 0x13
 1032 0711 AD000000 		.4byte	0xad
 1033 0715 20070000 		.4byte	0x720
 1034 0719 14       		.uleb128 0x14
 1035 071a 69050000 		.4byte	0x569
 1036 071e 01       		.byte	0x1
 1037 071f 00       		.byte	0
 1038 0720 18       		.uleb128 0x18
 1039 0721 25070000 		.4byte	0x725
 1040 0725 05       		.uleb128 0x5
 1041 0726 10070000 		.4byte	0x710
 1042 072a 13       		.uleb128 0x13
 1043 072b AD000000 		.4byte	0xad
 1044 072f 3A070000 		.4byte	0x73a
 1045 0733 14       		.uleb128 0x14
 1046 0734 69050000 		.4byte	0x569
 1047 0738 03       		.byte	0x3
 1048 0739 00       		.byte	0
 1049 073a 18       		.uleb128 0x18
 1050 073b 3F070000 		.4byte	0x73f
 1051 073f 05       		.uleb128 0x5
 1052 0740 2A070000 		.4byte	0x72a
 1053 0744 13       		.uleb128 0x13
 1054 0745 AD000000 		.4byte	0xad
 1055 0749 54070000 		.4byte	0x754
 1056 074d 14       		.uleb128 0x14
 1057 074e 69050000 		.4byte	0x569
 1058 0752 04       		.byte	0x4
 1059 0753 00       		.byte	0
 1060 0754 18       		.uleb128 0x18
 1061 0755 59070000 		.4byte	0x759
 1062 0759 05       		.uleb128 0x5
 1063 075a 44070000 		.4byte	0x744
 1064 075e 16       		.uleb128 0x16
 1065 075f F6010000 		.4byte	.LASF113
 1066 0763 07       		.byte	0x7
 1067 0764 8701     		.2byte	0x187
 1068 0766 DB050000 		.4byte	0x5db
 1069 076a 04       		.uleb128 0x4
 1070 076b E5010000 		.4byte	.LASF114
 1071 076f 08       		.byte	0x8
 1072 0770 85       		.byte	0x85
 1073 0771 2E030000 		.4byte	0x32e
ARM GAS  C:\Users\jo\AppData\Local\Temp\ccxiMIcq.s 			page 20


 1074 0775 04       		.uleb128 0x4
 1075 0776 D8030000 		.4byte	.LASF115
 1076 077a 08       		.byte	0x8
 1077 077b 8D       		.byte	0x8d
 1078 077c B8000000 		.4byte	0xb8
 1079 0780 06       		.uleb128 0x6
 1080 0781 75060000 		.4byte	.LASF116
 1081 0785 04       		.byte	0x4
 1082 0786 08       		.byte	0x8
 1083 0787 A9       		.byte	0xa9
 1084 0788 99070000 		.4byte	0x799
 1085 078c 19       		.uleb128 0x19
 1086 078d 72313300 		.ascii	"r13\000"
 1087 0791 08       		.byte	0x8
 1088 0792 AA       		.byte	0xaa
 1089 0793 14080000 		.4byte	0x814
 1090 0797 00       		.byte	0
 1091 0798 00       		.byte	0
 1092 0799 06       		.uleb128 0x6
 1093 079a 50000000 		.4byte	.LASF117
 1094 079e 24       		.byte	0x24
 1095 079f 09       		.byte	0x9
 1096 07a0 F4       		.byte	0xf4
 1097 07a1 14080000 		.4byte	0x814
 1098 07a5 08       		.uleb128 0x8
 1099 07a6 723400   		.ascii	"r4\000"
 1100 07a9 09       		.byte	0x9
 1101 07aa 0701     		.2byte	0x107
 1102 07ac 6A070000 		.4byte	0x76a
 1103 07b0 00       		.byte	0
 1104 07b1 08       		.uleb128 0x8
 1105 07b2 723500   		.ascii	"r5\000"
 1106 07b5 09       		.byte	0x9
 1107 07b6 0801     		.2byte	0x108
 1108 07b8 6A070000 		.4byte	0x76a
 1109 07bc 04       		.byte	0x4
 1110 07bd 08       		.uleb128 0x8
 1111 07be 723600   		.ascii	"r6\000"
 1112 07c1 09       		.byte	0x9
 1113 07c2 0901     		.2byte	0x109
 1114 07c4 6A070000 		.4byte	0x76a
 1115 07c8 08       		.byte	0x8
 1116 07c9 08       		.uleb128 0x8
 1117 07ca 723700   		.ascii	"r7\000"
 1118 07cd 09       		.byte	0x9
 1119 07ce 0A01     		.2byte	0x10a
 1120 07d0 6A070000 		.4byte	0x76a
 1121 07d4 0C       		.byte	0xc
 1122 07d5 08       		.uleb128 0x8
 1123 07d6 723800   		.ascii	"r8\000"
 1124 07d9 09       		.byte	0x9
 1125 07da 0B01     		.2byte	0x10b
 1126 07dc 6A070000 		.4byte	0x76a
 1127 07e0 10       		.byte	0x10
 1128 07e1 08       		.uleb128 0x8
 1129 07e2 723900   		.ascii	"r9\000"
 1130 07e5 09       		.byte	0x9
ARM GAS  C:\Users\jo\AppData\Local\Temp\ccxiMIcq.s 			page 21


 1131 07e6 0C01     		.2byte	0x10c
 1132 07e8 6A070000 		.4byte	0x76a
 1133 07ec 14       		.byte	0x14
 1134 07ed 08       		.uleb128 0x8
 1135 07ee 72313000 		.ascii	"r10\000"
 1136 07f2 09       		.byte	0x9
 1137 07f3 0D01     		.2byte	0x10d
 1138 07f5 6A070000 		.4byte	0x76a
 1139 07f9 18       		.byte	0x18
 1140 07fa 08       		.uleb128 0x8
 1141 07fb 72313100 		.ascii	"r11\000"
 1142 07ff 09       		.byte	0x9
 1143 0800 0E01     		.2byte	0x10e
 1144 0802 6A070000 		.4byte	0x76a
 1145 0806 1C       		.byte	0x1c
 1146 0807 08       		.uleb128 0x8
 1147 0808 6C7200   		.ascii	"lr\000"
 1148 080b 09       		.byte	0x9
 1149 080c 0F01     		.2byte	0x10f
 1150 080e 6A070000 		.4byte	0x76a
 1151 0812 20       		.byte	0x20
 1152 0813 00       		.byte	0
 1153 0814 0B       		.uleb128 0xb
 1154 0815 04       		.byte	0x4
 1155 0816 99070000 		.4byte	0x799
 1156 081a 03       		.uleb128 0x3
 1157 081b 01       		.byte	0x1
 1158 081c 08       		.byte	0x8
 1159 081d 1C060000 		.4byte	.LASF118
 1160 0821 0B       		.uleb128 0xb
 1161 0822 04       		.byte	0x4
 1162 0823 27080000 		.4byte	0x827
 1163 0827 18       		.uleb128 0x18
 1164 0828 1A080000 		.4byte	0x81a
 1165 082c 1A       		.uleb128 0x1a
 1166 082d 10       		.byte	0x10
 1167 082e 0A       		.byte	0xa
 1168 082f 57       		.byte	0x57
 1169 0830 65080000 		.4byte	0x865
 1170 0834 07       		.uleb128 0x7
 1171 0835 21000000 		.4byte	.LASF119
 1172 0839 0A       		.byte	0xa
 1173 083a 5B       		.byte	0x5b
 1174 083b 3B010000 		.4byte	0x13b
 1175 083f 00       		.byte	0
 1176 0840 07       		.uleb128 0x7
 1177 0841 BD010000 		.4byte	.LASF120
 1178 0845 0A       		.byte	0xa
 1179 0846 5F       		.byte	0x5f
 1180 0847 65080000 		.4byte	0x865
 1181 084b 04       		.byte	0x4
 1182 084c 07       		.uleb128 0x7
 1183 084d 36070000 		.4byte	.LASF121
 1184 0851 0A       		.byte	0xa
 1185 0852 63       		.byte	0x63
 1186 0853 2E030000 		.4byte	0x32e
 1187 0857 08       		.byte	0x8
ARM GAS  C:\Users\jo\AppData\Local\Temp\ccxiMIcq.s 			page 22


 1188 0858 07       		.uleb128 0x7
 1189 0859 0C010000 		.4byte	.LASF122
 1190 085d 0A       		.byte	0xa
 1191 085e 67       		.byte	0x67
 1192 085f 97000000 		.4byte	0x97
 1193 0863 0C       		.byte	0xc
 1194 0864 00       		.byte	0
 1195 0865 0B       		.uleb128 0xb
 1196 0866 04       		.byte	0x4
 1197 0867 46010000 		.4byte	0x146
 1198 086b 04       		.uleb128 0x4
 1199 086c 40040000 		.4byte	.LASF123
 1200 0870 0A       		.byte	0xa
 1201 0871 68       		.byte	0x68
 1202 0872 2C080000 		.4byte	0x82c
 1203 0876 1B       		.uleb128 0x1b
 1204 0877 0804     		.2byte	0x408
 1205 0879 0A       		.byte	0xa
 1206 087a 6D       		.byte	0x6d
 1207 087b A4080000 		.4byte	0x8a4
 1208 087f 07       		.uleb128 0x7
 1209 0880 D0010000 		.4byte	.LASF124
 1210 0884 0A       		.byte	0xa
 1211 0885 71       		.byte	0x71
 1212 0886 2C000000 		.4byte	0x2c
 1213 088a 00       		.byte	0
 1214 088b 07       		.uleb128 0x7
 1215 088c 34040000 		.4byte	.LASF125
 1216 0890 0A       		.byte	0xa
 1217 0891 75       		.byte	0x75
 1218 0892 A4080000 		.4byte	0x8a4
 1219 0896 04       		.byte	0x4
 1220 0897 07       		.uleb128 0x7
 1221 0898 C5020000 		.4byte	.LASF126
 1222 089c 0A       		.byte	0xa
 1223 089d 79       		.byte	0x79
 1224 089e AA080000 		.4byte	0x8aa
 1225 08a2 08       		.byte	0x8
 1226 08a3 00       		.byte	0
 1227 08a4 0B       		.uleb128 0xb
 1228 08a5 04       		.byte	0x4
 1229 08a6 6B080000 		.4byte	0x86b
 1230 08aa 13       		.uleb128 0x13
 1231 08ab 6B080000 		.4byte	0x86b
 1232 08af BA080000 		.4byte	0x8ba
 1233 08b3 14       		.uleb128 0x14
 1234 08b4 69050000 		.4byte	0x569
 1235 08b8 3F       		.byte	0x3f
 1236 08b9 00       		.byte	0
 1237 08ba 04       		.uleb128 0x4
 1238 08bb FA000000 		.4byte	.LASF127
 1239 08bf 0A       		.byte	0xa
 1240 08c0 7A       		.byte	0x7a
 1241 08c1 76080000 		.4byte	0x876
 1242 08c5 1A       		.uleb128 0x1a
 1243 08c6 04       		.byte	0x4
 1244 08c7 0B       		.byte	0xb
ARM GAS  C:\Users\jo\AppData\Local\Temp\ccxiMIcq.s 			page 23


 1245 08c8 38       		.byte	0x38
 1246 08c9 DA080000 		.4byte	0x8da
 1247 08cd 07       		.uleb128 0x7
 1248 08ce 6E060000 		.4byte	.LASF128
 1249 08d2 0B       		.byte	0xb
 1250 08d3 3C       		.byte	0x3c
 1251 08d4 CD000000 		.4byte	0xcd
 1252 08d8 00       		.byte	0
 1253 08d9 00       		.byte	0
 1254 08da 04       		.uleb128 0x4
 1255 08db 69040000 		.4byte	.LASF129
 1256 08df 0B       		.byte	0xb
 1257 08e0 3D       		.byte	0x3d
 1258 08e1 C5080000 		.4byte	0x8c5
 1259 08e5 1A       		.uleb128 0x1a
 1260 08e6 18       		.byte	0x18
 1261 08e7 0B       		.byte	0xb
 1262 08e8 48       		.byte	0x48
 1263 08e9 28090000 		.4byte	0x928
 1264 08ed 07       		.uleb128 0x7
 1265 08ee 2A060000 		.4byte	.LASF130
 1266 08f2 0B       		.byte	0xb
 1267 08f3 49       		.byte	0x49
 1268 08f4 CD000000 		.4byte	0xcd
 1269 08f8 00       		.byte	0
 1270 08f9 07       		.uleb128 0x7
 1271 08fa CA000000 		.4byte	.LASF131
 1272 08fe 0B       		.byte	0xb
 1273 08ff 4A       		.byte	0x4a
 1274 0900 CD000000 		.4byte	0xcd
 1275 0904 04       		.byte	0x4
 1276 0905 07       		.uleb128 0x7
 1277 0906 5F060000 		.4byte	.LASF132
 1278 090a 0B       		.byte	0xb
 1279 090b 4B       		.byte	0x4b
 1280 090c CD000000 		.4byte	0xcd
 1281 0910 08       		.byte	0x8
 1282 0911 19       		.uleb128 0x19
 1283 0912 6E00     		.ascii	"n\000"
 1284 0914 0B       		.byte	0xb
 1285 0915 4C       		.byte	0x4c
 1286 0916 30010000 		.4byte	0x130
 1287 091a 0C       		.byte	0xc
 1288 091b 07       		.uleb128 0x7
 1289 091c 97040000 		.4byte	.LASF133
 1290 0920 0B       		.byte	0xb
 1291 0921 4D       		.byte	0x4d
 1292 0922 D8000000 		.4byte	0xd8
 1293 0926 10       		.byte	0x10
 1294 0927 00       		.byte	0
 1295 0928 04       		.uleb128 0x4
 1296 0929 D0000000 		.4byte	.LASF134
 1297 092d 0B       		.byte	0xb
 1298 092e 4E       		.byte	0x4e
 1299 092f E5080000 		.4byte	0x8e5
 1300 0933 1A       		.uleb128 0x1a
 1301 0934 38       		.byte	0x38
ARM GAS  C:\Users\jo\AppData\Local\Temp\ccxiMIcq.s 			page 24


 1302 0935 0C       		.byte	0xc
 1303 0936 38       		.byte	0x38
 1304 0937 6C090000 		.4byte	0x96c
 1305 093b 07       		.uleb128 0x7
 1306 093c 72020000 		.4byte	.LASF135
 1307 0940 0C       		.byte	0xc
 1308 0941 39       		.byte	0x39
 1309 0942 30010000 		.4byte	0x130
 1310 0946 00       		.byte	0
 1311 0947 07       		.uleb128 0x7
 1312 0948 E7040000 		.4byte	.LASF136
 1313 094c 0C       		.byte	0xc
 1314 094d 3A       		.byte	0x3a
 1315 094e 30010000 		.4byte	0x130
 1316 0952 04       		.byte	0x4
 1317 0953 07       		.uleb128 0x7
 1318 0954 23070000 		.4byte	.LASF137
 1319 0958 0C       		.byte	0xc
 1320 0959 3B       		.byte	0x3b
 1321 095a 28090000 		.4byte	0x928
 1322 095e 08       		.byte	0x8
 1323 095f 07       		.uleb128 0x7
 1324 0960 CF020000 		.4byte	.LASF138
 1325 0964 0C       		.byte	0xc
 1326 0965 3D       		.byte	0x3d
 1327 0966 28090000 		.4byte	0x928
 1328 096a 20       		.byte	0x20
 1329 096b 00       		.byte	0
 1330 096c 04       		.uleb128 0x4
 1331 096d 7D020000 		.4byte	.LASF139
 1332 0971 0C       		.byte	0xc
 1333 0972 3F       		.byte	0x3f
 1334 0973 33090000 		.4byte	0x933
 1335 0977 1C       		.uleb128 0x1c
 1336 0978 04       		.byte	0x4
 1337 0979 06       		.byte	0x6
 1338 097a F6       		.byte	0xf6
 1339 097b AF090000 		.4byte	0x9af
 1340 097f 1D       		.uleb128 0x1d
 1341 0980 29000000 		.4byte	.LASF140
 1342 0984 06       		.byte	0x6
 1343 0985 FD       		.byte	0xfd
 1344 0986 0F010000 		.4byte	0x10f
 1345 098a 1E       		.uleb128 0x1e
 1346 098b 15010000 		.4byte	.LASF141
 1347 098f 06       		.byte	0x6
 1348 0990 0401     		.2byte	0x104
 1349 0992 0F010000 		.4byte	0x10f
 1350 0996 1E       		.uleb128 0x1e
 1351 0997 F7060000 		.4byte	.LASF142
 1352 099b 06       		.byte	0x6
 1353 099c 0B01     		.2byte	0x10b
 1354 099e 2E030000 		.4byte	0x32e
 1355 09a2 1E       		.uleb128 0x1e
 1356 09a3 6E050000 		.4byte	.LASF143
 1357 09a7 06       		.byte	0x6
 1358 09a8 1201     		.2byte	0x112
ARM GAS  C:\Users\jo\AppData\Local\Temp\ccxiMIcq.s 			page 25


 1359 09aa 1A010000 		.4byte	0x11a
 1360 09ae 00       		.byte	0
 1361 09af 0B       		.uleb128 0xb
 1362 09b0 04       		.byte	0x4
 1363 09b1 75070000 		.4byte	0x775
 1364 09b5 06       		.uleb128 0x6
 1365 09b6 E1040000 		.4byte	.LASF144
 1366 09ba 10       		.byte	0x10
 1367 09bb 0D       		.byte	0xd
 1368 09bc 39       		.byte	0x39
 1369 09bd E6090000 		.4byte	0x9e6
 1370 09c1 07       		.uleb128 0x7
 1371 09c2 92010000 		.4byte	.LASF145
 1372 09c6 0D       		.byte	0xd
 1373 09c7 3A       		.byte	0x3a
 1374 09c8 7B020000 		.4byte	0x27b
 1375 09cc 00       		.byte	0
 1376 09cd 07       		.uleb128 0x7
 1377 09ce 2E070000 		.4byte	.LASF146
 1378 09d2 0D       		.byte	0xd
 1379 09d3 3C       		.byte	0x3c
 1380 09d4 65080000 		.4byte	0x865
 1381 09d8 08       		.byte	0x8
 1382 09d9 07       		.uleb128 0x7
 1383 09da 2F060000 		.4byte	.LASF147
 1384 09de 0D       		.byte	0xd
 1385 09df 3E       		.byte	0x3e
 1386 09e0 120A0000 		.4byte	0xa12
 1387 09e4 0C       		.byte	0xc
 1388 09e5 00       		.byte	0
 1389 09e6 0B       		.uleb128 0xb
 1390 09e7 04       		.byte	0x4
 1391 09e8 B5090000 		.4byte	0x9b5
 1392 09ec 0B       		.uleb128 0xb
 1393 09ed 04       		.byte	0x4
 1394 09ee 30030000 		.4byte	0x330
 1395 09f2 05       		.uleb128 0x5
 1396 09f3 21080000 		.4byte	0x821
 1397 09f7 13       		.uleb128 0x13
 1398 09f8 75070000 		.4byte	0x775
 1399 09fc 070A0000 		.4byte	0xa07
 1400 0a00 14       		.uleb128 0x14
 1401 0a01 69050000 		.4byte	0x569
 1402 0a05 1E       		.byte	0x1e
 1403 0a06 00       		.byte	0
 1404 0a07 04       		.uleb128 0x4
 1405 0a08 0F020000 		.4byte	.LASF148
 1406 0a0c 0D       		.byte	0xd
 1407 0a0d 34       		.byte	0x34
 1408 0a0e B5090000 		.4byte	0x9b5
 1409 0a12 0B       		.uleb128 0xb
 1410 0a13 04       		.byte	0x4
 1411 0a14 070A0000 		.4byte	0xa07
 1412 0a18 03       		.uleb128 0x3
 1413 0a19 01       		.byte	0x1
 1414 0a1a 02       		.byte	0x2
 1415 0a1b F0040000 		.4byte	.LASF149
ARM GAS  C:\Users\jo\AppData\Local\Temp\ccxiMIcq.s 			page 26


 1416 0a1f 1F       		.uleb128 0x1f
 1417 0a20 5A010000 		.4byte	.LASF151
 1418 0a24 01       		.byte	0x1
 1419 0a25 39       		.byte	0x39
 1420 0a26 00000000 		.4byte	.LFB255
 1421 0a2a 32000000 		.4byte	.LFE255-.LFB255
 1422 0a2e 01       		.uleb128 0x1
 1423 0a2f 9C       		.byte	0x9c
 1424 0a30 510A0000 		.4byte	0xa51
 1425 0a34 20       		.uleb128 0x20
 1426 0a35 6E00     		.ascii	"n\000"
 1427 0a37 01       		.byte	0x1
 1428 0a38 39       		.byte	0x39
 1429 0a39 AD000000 		.4byte	0xad
 1430 0a3d 00000000 		.4byte	.LLST0
 1431 0a41 21       		.uleb128 0x21
 1432 0a42 7F040000 		.4byte	.LASF150
 1433 0a46 01       		.byte	0x1
 1434 0a47 39       		.byte	0x39
 1435 0a48 AD000000 		.4byte	0xad
 1436 0a4c 32000000 		.4byte	.LLST1
 1437 0a50 00       		.byte	0
 1438 0a51 1F       		.uleb128 0x1f
 1439 0a52 55020000 		.4byte	.LASF152
 1440 0a56 01       		.byte	0x1
 1441 0a57 45       		.byte	0x45
 1442 0a58 00000000 		.4byte	.LFB256
 1443 0a5c 28000000 		.4byte	.LFE256-.LFB256
 1444 0a60 01       		.uleb128 0x1
 1445 0a61 9C       		.byte	0x9c
 1446 0a62 740A0000 		.4byte	0xa74
 1447 0a66 20       		.uleb128 0x20
 1448 0a67 6E00     		.ascii	"n\000"
 1449 0a69 01       		.byte	0x1
 1450 0a6a 45       		.byte	0x45
 1451 0a6b AD000000 		.4byte	0xad
 1452 0a6f 53000000 		.4byte	.LLST2
 1453 0a73 00       		.byte	0
 1454 0a74 1F       		.uleb128 0x1f
 1455 0a75 4A050000 		.4byte	.LASF153
 1456 0a79 01       		.byte	0x1
 1457 0a7a 51       		.byte	0x51
 1458 0a7b 00000000 		.4byte	.LFB257
 1459 0a7f 24000000 		.4byte	.LFE257-.LFB257
 1460 0a83 01       		.uleb128 0x1
 1461 0a84 9C       		.byte	0x9c
 1462 0a85 CA0A0000 		.4byte	0xaca
 1463 0a89 21       		.uleb128 0x21
 1464 0a8a E3030000 		.4byte	.LASF154
 1465 0a8e 01       		.byte	0x1
 1466 0a8f 51       		.byte	0x51
 1467 0a90 AD000000 		.4byte	0xad
 1468 0a94 77000000 		.4byte	.LLST3
 1469 0a98 21       		.uleb128 0x21
 1470 0a99 7F040000 		.4byte	.LASF150
 1471 0a9d 01       		.byte	0x1
 1472 0a9e 51       		.byte	0x51
ARM GAS  C:\Users\jo\AppData\Local\Temp\ccxiMIcq.s 			page 27


 1473 0a9f AD000000 		.4byte	0xad
 1474 0aa3 A6000000 		.4byte	.LLST4
 1475 0aa7 22       		.uleb128 0x22
 1476 0aa8 8C050000 		.4byte	.LASF159
 1477 0aac DA0A0000 		.4byte	0xada
 1478 0ab0 05       		.uleb128 0x5
 1479 0ab1 03       		.byte	0x3
 1480 0ab2 00000000 		.4byte	__func__.8194
 1481 0ab6 23       		.uleb128 0x23
 1482 0ab7 10000000 		.4byte	.LVL8
 1483 0abb F60A0000 		.4byte	0xaf6
 1484 0abf 24       		.uleb128 0x24
 1485 0ac0 01       		.uleb128 0x1
 1486 0ac1 50       		.byte	0x50
 1487 0ac2 05       		.uleb128 0x5
 1488 0ac3 03       		.byte	0x3
 1489 0ac4 00000000 		.4byte	.LANCHOR0
 1490 0ac8 00       		.byte	0
 1491 0ac9 00       		.byte	0
 1492 0aca 13       		.uleb128 0x13
 1493 0acb 1A080000 		.4byte	0x81a
 1494 0acf DA0A0000 		.4byte	0xada
 1495 0ad3 14       		.uleb128 0x14
 1496 0ad4 69050000 		.4byte	0x569
 1497 0ad8 1C       		.byte	0x1c
 1498 0ad9 00       		.byte	0
 1499 0ada 18       		.uleb128 0x18
 1500 0adb CA0A0000 		.4byte	0xaca
 1501 0adf 25       		.uleb128 0x25
 1502 0ae0 12050000 		.4byte	.LASF155
 1503 0ae4 07       		.byte	0x7
 1504 0ae5 A706     		.2byte	0x6a7
 1505 0ae7 C3000000 		.4byte	0xc3
 1506 0aeb 26       		.uleb128 0x26
 1507 0aec 636800   		.ascii	"ch\000"
 1508 0aef 06       		.byte	0x6
 1509 0af0 EB01     		.2byte	0x1eb
 1510 0af2 25040000 		.4byte	0x425
 1511 0af6 27       		.uleb128 0x27
 1512 0af7 05040000 		.4byte	.LASF160
 1513 0afb 0E       		.byte	0xe
 1514 0afc E6       		.byte	0xe6
 1515 0afd 0D       		.uleb128 0xd
 1516 0afe 21080000 		.4byte	0x821
 1517 0b02 00       		.byte	0
 1518 0b03 00       		.byte	0
 1519              		.section	.debug_abbrev,"",%progbits
 1520              	.Ldebug_abbrev0:
 1521 0000 01       		.uleb128 0x1
 1522 0001 11       		.uleb128 0x11
 1523 0002 01       		.byte	0x1
 1524 0003 25       		.uleb128 0x25
 1525 0004 0E       		.uleb128 0xe
 1526 0005 13       		.uleb128 0x13
 1527 0006 0B       		.uleb128 0xb
 1528 0007 03       		.uleb128 0x3
 1529 0008 0E       		.uleb128 0xe
ARM GAS  C:\Users\jo\AppData\Local\Temp\ccxiMIcq.s 			page 28


 1530 0009 1B       		.uleb128 0x1b
 1531 000a 0E       		.uleb128 0xe
 1532 000b 55       		.uleb128 0x55
 1533 000c 17       		.uleb128 0x17
 1534 000d 11       		.uleb128 0x11
 1535 000e 01       		.uleb128 0x1
 1536 000f 10       		.uleb128 0x10
 1537 0010 17       		.uleb128 0x17
 1538 0011 00       		.byte	0
 1539 0012 00       		.byte	0
 1540 0013 02       		.uleb128 0x2
 1541 0014 24       		.uleb128 0x24
 1542 0015 00       		.byte	0
 1543 0016 0B       		.uleb128 0xb
 1544 0017 0B       		.uleb128 0xb
 1545 0018 3E       		.uleb128 0x3e
 1546 0019 0B       		.uleb128 0xb
 1547 001a 03       		.uleb128 0x3
 1548 001b 08       		.uleb128 0x8
 1549 001c 00       		.byte	0
 1550 001d 00       		.byte	0
 1551 001e 03       		.uleb128 0x3
 1552 001f 24       		.uleb128 0x24
 1553 0020 00       		.byte	0
 1554 0021 0B       		.uleb128 0xb
 1555 0022 0B       		.uleb128 0xb
 1556 0023 3E       		.uleb128 0x3e
 1557 0024 0B       		.uleb128 0xb
 1558 0025 03       		.uleb128 0x3
 1559 0026 0E       		.uleb128 0xe
 1560 0027 00       		.byte	0
 1561 0028 00       		.byte	0
 1562 0029 04       		.uleb128 0x4
 1563 002a 16       		.uleb128 0x16
 1564 002b 00       		.byte	0
 1565 002c 03       		.uleb128 0x3
 1566 002d 0E       		.uleb128 0xe
 1567 002e 3A       		.uleb128 0x3a
 1568 002f 0B       		.uleb128 0xb
 1569 0030 3B       		.uleb128 0x3b
 1570 0031 0B       		.uleb128 0xb
 1571 0032 49       		.uleb128 0x49
 1572 0033 13       		.uleb128 0x13
 1573 0034 00       		.byte	0
 1574 0035 00       		.byte	0
 1575 0036 05       		.uleb128 0x5
 1576 0037 35       		.uleb128 0x35
 1577 0038 00       		.byte	0
 1578 0039 49       		.uleb128 0x49
 1579 003a 13       		.uleb128 0x13
 1580 003b 00       		.byte	0
 1581 003c 00       		.byte	0
 1582 003d 06       		.uleb128 0x6
 1583 003e 13       		.uleb128 0x13
 1584 003f 01       		.byte	0x1
 1585 0040 03       		.uleb128 0x3
 1586 0041 0E       		.uleb128 0xe
ARM GAS  C:\Users\jo\AppData\Local\Temp\ccxiMIcq.s 			page 29


 1587 0042 0B       		.uleb128 0xb
 1588 0043 0B       		.uleb128 0xb
 1589 0044 3A       		.uleb128 0x3a
 1590 0045 0B       		.uleb128 0xb
 1591 0046 3B       		.uleb128 0x3b
 1592 0047 0B       		.uleb128 0xb
 1593 0048 01       		.uleb128 0x1
 1594 0049 13       		.uleb128 0x13
 1595 004a 00       		.byte	0
 1596 004b 00       		.byte	0
 1597 004c 07       		.uleb128 0x7
 1598 004d 0D       		.uleb128 0xd
 1599 004e 00       		.byte	0
 1600 004f 03       		.uleb128 0x3
 1601 0050 0E       		.uleb128 0xe
 1602 0051 3A       		.uleb128 0x3a
 1603 0052 0B       		.uleb128 0xb
 1604 0053 3B       		.uleb128 0x3b
 1605 0054 0B       		.uleb128 0xb
 1606 0055 49       		.uleb128 0x49
 1607 0056 13       		.uleb128 0x13
 1608 0057 38       		.uleb128 0x38
 1609 0058 0B       		.uleb128 0xb
 1610 0059 00       		.byte	0
 1611 005a 00       		.byte	0
 1612 005b 08       		.uleb128 0x8
 1613 005c 0D       		.uleb128 0xd
 1614 005d 00       		.byte	0
 1615 005e 03       		.uleb128 0x3
 1616 005f 08       		.uleb128 0x8
 1617 0060 3A       		.uleb128 0x3a
 1618 0061 0B       		.uleb128 0xb
 1619 0062 3B       		.uleb128 0x3b
 1620 0063 05       		.uleb128 0x5
 1621 0064 49       		.uleb128 0x49
 1622 0065 13       		.uleb128 0x13
 1623 0066 38       		.uleb128 0x38
 1624 0067 0B       		.uleb128 0xb
 1625 0068 00       		.byte	0
 1626 0069 00       		.byte	0
 1627 006a 09       		.uleb128 0x9
 1628 006b 0D       		.uleb128 0xd
 1629 006c 00       		.byte	0
 1630 006d 03       		.uleb128 0x3
 1631 006e 0E       		.uleb128 0xe
 1632 006f 3A       		.uleb128 0x3a
 1633 0070 0B       		.uleb128 0xb
 1634 0071 3B       		.uleb128 0x3b
 1635 0072 05       		.uleb128 0x5
 1636 0073 49       		.uleb128 0x49
 1637 0074 13       		.uleb128 0x13
 1638 0075 38       		.uleb128 0x38
 1639 0076 0B       		.uleb128 0xb
 1640 0077 00       		.byte	0
 1641 0078 00       		.byte	0
 1642 0079 0A       		.uleb128 0xa
 1643 007a 13       		.uleb128 0x13
ARM GAS  C:\Users\jo\AppData\Local\Temp\ccxiMIcq.s 			page 30


 1644 007b 01       		.byte	0x1
 1645 007c 03       		.uleb128 0x3
 1646 007d 0E       		.uleb128 0xe
 1647 007e 0B       		.uleb128 0xb
 1648 007f 0B       		.uleb128 0xb
 1649 0080 3A       		.uleb128 0x3a
 1650 0081 0B       		.uleb128 0xb
 1651 0082 3B       		.uleb128 0x3b
 1652 0083 05       		.uleb128 0x5
 1653 0084 01       		.uleb128 0x1
 1654 0085 13       		.uleb128 0x13
 1655 0086 00       		.byte	0
 1656 0087 00       		.byte	0
 1657 0088 0B       		.uleb128 0xb
 1658 0089 0F       		.uleb128 0xf
 1659 008a 00       		.byte	0
 1660 008b 0B       		.uleb128 0xb
 1661 008c 0B       		.uleb128 0xb
 1662 008d 49       		.uleb128 0x49
 1663 008e 13       		.uleb128 0x13
 1664 008f 00       		.byte	0
 1665 0090 00       		.byte	0
 1666 0091 0C       		.uleb128 0xc
 1667 0092 15       		.uleb128 0x15
 1668 0093 01       		.byte	0x1
 1669 0094 27       		.uleb128 0x27
 1670 0095 19       		.uleb128 0x19
 1671 0096 01       		.uleb128 0x1
 1672 0097 13       		.uleb128 0x13
 1673 0098 00       		.byte	0
 1674 0099 00       		.byte	0
 1675 009a 0D       		.uleb128 0xd
 1676 009b 05       		.uleb128 0x5
 1677 009c 00       		.byte	0
 1678 009d 49       		.uleb128 0x49
 1679 009e 13       		.uleb128 0x13
 1680 009f 00       		.byte	0
 1681 00a0 00       		.byte	0
 1682 00a1 0E       		.uleb128 0xe
 1683 00a2 0F       		.uleb128 0xf
 1684 00a3 00       		.byte	0
 1685 00a4 0B       		.uleb128 0xb
 1686 00a5 0B       		.uleb128 0xb
 1687 00a6 00       		.byte	0
 1688 00a7 00       		.byte	0
 1689 00a8 0F       		.uleb128 0xf
 1690 00a9 13       		.uleb128 0x13
 1691 00aa 01       		.byte	0x1
 1692 00ab 03       		.uleb128 0x3
 1693 00ac 0E       		.uleb128 0xe
 1694 00ad 0B       		.uleb128 0xb
 1695 00ae 05       		.uleb128 0x5
 1696 00af 3A       		.uleb128 0x3a
 1697 00b0 0B       		.uleb128 0xb
 1698 00b1 3B       		.uleb128 0x3b
 1699 00b2 05       		.uleb128 0x5
 1700 00b3 01       		.uleb128 0x1
ARM GAS  C:\Users\jo\AppData\Local\Temp\ccxiMIcq.s 			page 31


 1701 00b4 13       		.uleb128 0x13
 1702 00b5 00       		.byte	0
 1703 00b6 00       		.byte	0
 1704 00b7 10       		.uleb128 0x10
 1705 00b8 0D       		.uleb128 0xd
 1706 00b9 00       		.byte	0
 1707 00ba 03       		.uleb128 0x3
 1708 00bb 0E       		.uleb128 0xe
 1709 00bc 3A       		.uleb128 0x3a
 1710 00bd 0B       		.uleb128 0xb
 1711 00be 3B       		.uleb128 0x3b
 1712 00bf 05       		.uleb128 0x5
 1713 00c0 49       		.uleb128 0x49
 1714 00c1 13       		.uleb128 0x13
 1715 00c2 38       		.uleb128 0x38
 1716 00c3 05       		.uleb128 0x5
 1717 00c4 00       		.byte	0
 1718 00c5 00       		.byte	0
 1719 00c6 11       		.uleb128 0x11
 1720 00c7 0D       		.uleb128 0xd
 1721 00c8 00       		.byte	0
 1722 00c9 03       		.uleb128 0x3
 1723 00ca 08       		.uleb128 0x8
 1724 00cb 3A       		.uleb128 0x3a
 1725 00cc 0B       		.uleb128 0xb
 1726 00cd 3B       		.uleb128 0x3b
 1727 00ce 05       		.uleb128 0x5
 1728 00cf 49       		.uleb128 0x49
 1729 00d0 13       		.uleb128 0x13
 1730 00d1 38       		.uleb128 0x38
 1731 00d2 05       		.uleb128 0x5
 1732 00d3 00       		.byte	0
 1733 00d4 00       		.byte	0
 1734 00d5 12       		.uleb128 0x12
 1735 00d6 13       		.uleb128 0x13
 1736 00d7 01       		.byte	0x1
 1737 00d8 0B       		.uleb128 0xb
 1738 00d9 05       		.uleb128 0x5
 1739 00da 3A       		.uleb128 0x3a
 1740 00db 0B       		.uleb128 0xb
 1741 00dc 3B       		.uleb128 0x3b
 1742 00dd 05       		.uleb128 0x5
 1743 00de 01       		.uleb128 0x1
 1744 00df 13       		.uleb128 0x13
 1745 00e0 00       		.byte	0
 1746 00e1 00       		.byte	0
 1747 00e2 13       		.uleb128 0x13
 1748 00e3 01       		.uleb128 0x1
 1749 00e4 01       		.byte	0x1
 1750 00e5 49       		.uleb128 0x49
 1751 00e6 13       		.uleb128 0x13
 1752 00e7 01       		.uleb128 0x1
 1753 00e8 13       		.uleb128 0x13
 1754 00e9 00       		.byte	0
 1755 00ea 00       		.byte	0
 1756 00eb 14       		.uleb128 0x14
 1757 00ec 21       		.uleb128 0x21
ARM GAS  C:\Users\jo\AppData\Local\Temp\ccxiMIcq.s 			page 32


 1758 00ed 00       		.byte	0
 1759 00ee 49       		.uleb128 0x49
 1760 00ef 13       		.uleb128 0x13
 1761 00f0 2F       		.uleb128 0x2f
 1762 00f1 0B       		.uleb128 0xb
 1763 00f2 00       		.byte	0
 1764 00f3 00       		.byte	0
 1765 00f4 15       		.uleb128 0x15
 1766 00f5 21       		.uleb128 0x21
 1767 00f6 00       		.byte	0
 1768 00f7 49       		.uleb128 0x49
 1769 00f8 13       		.uleb128 0x13
 1770 00f9 2F       		.uleb128 0x2f
 1771 00fa 05       		.uleb128 0x5
 1772 00fb 00       		.byte	0
 1773 00fc 00       		.byte	0
 1774 00fd 16       		.uleb128 0x16
 1775 00fe 16       		.uleb128 0x16
 1776 00ff 00       		.byte	0
 1777 0100 03       		.uleb128 0x3
 1778 0101 0E       		.uleb128 0xe
 1779 0102 3A       		.uleb128 0x3a
 1780 0103 0B       		.uleb128 0xb
 1781 0104 3B       		.uleb128 0x3b
 1782 0105 05       		.uleb128 0x5
 1783 0106 49       		.uleb128 0x49
 1784 0107 13       		.uleb128 0x13
 1785 0108 00       		.byte	0
 1786 0109 00       		.byte	0
 1787 010a 17       		.uleb128 0x17
 1788 010b 13       		.uleb128 0x13
 1789 010c 01       		.byte	0x1
 1790 010d 0B       		.uleb128 0xb
 1791 010e 0B       		.uleb128 0xb
 1792 010f 3A       		.uleb128 0x3a
 1793 0110 0B       		.uleb128 0xb
 1794 0111 3B       		.uleb128 0x3b
 1795 0112 05       		.uleb128 0x5
 1796 0113 01       		.uleb128 0x1
 1797 0114 13       		.uleb128 0x13
 1798 0115 00       		.byte	0
 1799 0116 00       		.byte	0
 1800 0117 18       		.uleb128 0x18
 1801 0118 26       		.uleb128 0x26
 1802 0119 00       		.byte	0
 1803 011a 49       		.uleb128 0x49
 1804 011b 13       		.uleb128 0x13
 1805 011c 00       		.byte	0
 1806 011d 00       		.byte	0
 1807 011e 19       		.uleb128 0x19
 1808 011f 0D       		.uleb128 0xd
 1809 0120 00       		.byte	0
 1810 0121 03       		.uleb128 0x3
 1811 0122 08       		.uleb128 0x8
 1812 0123 3A       		.uleb128 0x3a
 1813 0124 0B       		.uleb128 0xb
 1814 0125 3B       		.uleb128 0x3b
ARM GAS  C:\Users\jo\AppData\Local\Temp\ccxiMIcq.s 			page 33


 1815 0126 0B       		.uleb128 0xb
 1816 0127 49       		.uleb128 0x49
 1817 0128 13       		.uleb128 0x13
 1818 0129 38       		.uleb128 0x38
 1819 012a 0B       		.uleb128 0xb
 1820 012b 00       		.byte	0
 1821 012c 00       		.byte	0
 1822 012d 1A       		.uleb128 0x1a
 1823 012e 13       		.uleb128 0x13
 1824 012f 01       		.byte	0x1
 1825 0130 0B       		.uleb128 0xb
 1826 0131 0B       		.uleb128 0xb
 1827 0132 3A       		.uleb128 0x3a
 1828 0133 0B       		.uleb128 0xb
 1829 0134 3B       		.uleb128 0x3b
 1830 0135 0B       		.uleb128 0xb
 1831 0136 01       		.uleb128 0x1
 1832 0137 13       		.uleb128 0x13
 1833 0138 00       		.byte	0
 1834 0139 00       		.byte	0
 1835 013a 1B       		.uleb128 0x1b
 1836 013b 13       		.uleb128 0x13
 1837 013c 01       		.byte	0x1
 1838 013d 0B       		.uleb128 0xb
 1839 013e 05       		.uleb128 0x5
 1840 013f 3A       		.uleb128 0x3a
 1841 0140 0B       		.uleb128 0xb
 1842 0141 3B       		.uleb128 0x3b
 1843 0142 0B       		.uleb128 0xb
 1844 0143 01       		.uleb128 0x1
 1845 0144 13       		.uleb128 0x13
 1846 0145 00       		.byte	0
 1847 0146 00       		.byte	0
 1848 0147 1C       		.uleb128 0x1c
 1849 0148 17       		.uleb128 0x17
 1850 0149 01       		.byte	0x1
 1851 014a 0B       		.uleb128 0xb
 1852 014b 0B       		.uleb128 0xb
 1853 014c 3A       		.uleb128 0x3a
 1854 014d 0B       		.uleb128 0xb
 1855 014e 3B       		.uleb128 0x3b
 1856 014f 0B       		.uleb128 0xb
 1857 0150 01       		.uleb128 0x1
 1858 0151 13       		.uleb128 0x13
 1859 0152 00       		.byte	0
 1860 0153 00       		.byte	0
 1861 0154 1D       		.uleb128 0x1d
 1862 0155 0D       		.uleb128 0xd
 1863 0156 00       		.byte	0
 1864 0157 03       		.uleb128 0x3
 1865 0158 0E       		.uleb128 0xe
 1866 0159 3A       		.uleb128 0x3a
 1867 015a 0B       		.uleb128 0xb
 1868 015b 3B       		.uleb128 0x3b
 1869 015c 0B       		.uleb128 0xb
 1870 015d 49       		.uleb128 0x49
 1871 015e 13       		.uleb128 0x13
ARM GAS  C:\Users\jo\AppData\Local\Temp\ccxiMIcq.s 			page 34


 1872 015f 00       		.byte	0
 1873 0160 00       		.byte	0
 1874 0161 1E       		.uleb128 0x1e
 1875 0162 0D       		.uleb128 0xd
 1876 0163 00       		.byte	0
 1877 0164 03       		.uleb128 0x3
 1878 0165 0E       		.uleb128 0xe
 1879 0166 3A       		.uleb128 0x3a
 1880 0167 0B       		.uleb128 0xb
 1881 0168 3B       		.uleb128 0x3b
 1882 0169 05       		.uleb128 0x5
 1883 016a 49       		.uleb128 0x49
 1884 016b 13       		.uleb128 0x13
 1885 016c 00       		.byte	0
 1886 016d 00       		.byte	0
 1887 016e 1F       		.uleb128 0x1f
 1888 016f 2E       		.uleb128 0x2e
 1889 0170 01       		.byte	0x1
 1890 0171 3F       		.uleb128 0x3f
 1891 0172 19       		.uleb128 0x19
 1892 0173 03       		.uleb128 0x3
 1893 0174 0E       		.uleb128 0xe
 1894 0175 3A       		.uleb128 0x3a
 1895 0176 0B       		.uleb128 0xb
 1896 0177 3B       		.uleb128 0x3b
 1897 0178 0B       		.uleb128 0xb
 1898 0179 27       		.uleb128 0x27
 1899 017a 19       		.uleb128 0x19
 1900 017b 11       		.uleb128 0x11
 1901 017c 01       		.uleb128 0x1
 1902 017d 12       		.uleb128 0x12
 1903 017e 06       		.uleb128 0x6
 1904 017f 40       		.uleb128 0x40
 1905 0180 18       		.uleb128 0x18
 1906 0181 9742     		.uleb128 0x2117
 1907 0183 19       		.uleb128 0x19
 1908 0184 01       		.uleb128 0x1
 1909 0185 13       		.uleb128 0x13
 1910 0186 00       		.byte	0
 1911 0187 00       		.byte	0
 1912 0188 20       		.uleb128 0x20
 1913 0189 05       		.uleb128 0x5
 1914 018a 00       		.byte	0
 1915 018b 03       		.uleb128 0x3
 1916 018c 08       		.uleb128 0x8
 1917 018d 3A       		.uleb128 0x3a
 1918 018e 0B       		.uleb128 0xb
 1919 018f 3B       		.uleb128 0x3b
 1920 0190 0B       		.uleb128 0xb
 1921 0191 49       		.uleb128 0x49
 1922 0192 13       		.uleb128 0x13
 1923 0193 02       		.uleb128 0x2
 1924 0194 17       		.uleb128 0x17
 1925 0195 00       		.byte	0
 1926 0196 00       		.byte	0
 1927 0197 21       		.uleb128 0x21
 1928 0198 05       		.uleb128 0x5
ARM GAS  C:\Users\jo\AppData\Local\Temp\ccxiMIcq.s 			page 35


 1929 0199 00       		.byte	0
 1930 019a 03       		.uleb128 0x3
 1931 019b 0E       		.uleb128 0xe
 1932 019c 3A       		.uleb128 0x3a
 1933 019d 0B       		.uleb128 0xb
 1934 019e 3B       		.uleb128 0x3b
 1935 019f 0B       		.uleb128 0xb
 1936 01a0 49       		.uleb128 0x49
 1937 01a1 13       		.uleb128 0x13
 1938 01a2 02       		.uleb128 0x2
 1939 01a3 17       		.uleb128 0x17
 1940 01a4 00       		.byte	0
 1941 01a5 00       		.byte	0
 1942 01a6 22       		.uleb128 0x22
 1943 01a7 34       		.uleb128 0x34
 1944 01a8 00       		.byte	0
 1945 01a9 03       		.uleb128 0x3
 1946 01aa 0E       		.uleb128 0xe
 1947 01ab 49       		.uleb128 0x49
 1948 01ac 13       		.uleb128 0x13
 1949 01ad 34       		.uleb128 0x34
 1950 01ae 19       		.uleb128 0x19
 1951 01af 02       		.uleb128 0x2
 1952 01b0 18       		.uleb128 0x18
 1953 01b1 00       		.byte	0
 1954 01b2 00       		.byte	0
 1955 01b3 23       		.uleb128 0x23
 1956 01b4 898201   		.uleb128 0x4109
 1957 01b7 01       		.byte	0x1
 1958 01b8 11       		.uleb128 0x11
 1959 01b9 01       		.uleb128 0x1
 1960 01ba 31       		.uleb128 0x31
 1961 01bb 13       		.uleb128 0x13
 1962 01bc 00       		.byte	0
 1963 01bd 00       		.byte	0
 1964 01be 24       		.uleb128 0x24
 1965 01bf 8A8201   		.uleb128 0x410a
 1966 01c2 00       		.byte	0
 1967 01c3 02       		.uleb128 0x2
 1968 01c4 18       		.uleb128 0x18
 1969 01c5 9142     		.uleb128 0x2111
 1970 01c7 18       		.uleb128 0x18
 1971 01c8 00       		.byte	0
 1972 01c9 00       		.byte	0
 1973 01ca 25       		.uleb128 0x25
 1974 01cb 34       		.uleb128 0x34
 1975 01cc 00       		.byte	0
 1976 01cd 03       		.uleb128 0x3
 1977 01ce 0E       		.uleb128 0xe
 1978 01cf 3A       		.uleb128 0x3a
 1979 01d0 0B       		.uleb128 0xb
 1980 01d1 3B       		.uleb128 0x3b
 1981 01d2 05       		.uleb128 0x5
 1982 01d3 49       		.uleb128 0x49
 1983 01d4 13       		.uleb128 0x13
 1984 01d5 3F       		.uleb128 0x3f
 1985 01d6 19       		.uleb128 0x19
ARM GAS  C:\Users\jo\AppData\Local\Temp\ccxiMIcq.s 			page 36


 1986 01d7 3C       		.uleb128 0x3c
 1987 01d8 19       		.uleb128 0x19
 1988 01d9 00       		.byte	0
 1989 01da 00       		.byte	0
 1990 01db 26       		.uleb128 0x26
 1991 01dc 34       		.uleb128 0x34
 1992 01dd 00       		.byte	0
 1993 01de 03       		.uleb128 0x3
 1994 01df 08       		.uleb128 0x8
 1995 01e0 3A       		.uleb128 0x3a
 1996 01e1 0B       		.uleb128 0xb
 1997 01e2 3B       		.uleb128 0x3b
 1998 01e3 05       		.uleb128 0x5
 1999 01e4 49       		.uleb128 0x49
 2000 01e5 13       		.uleb128 0x13
 2001 01e6 3F       		.uleb128 0x3f
 2002 01e7 19       		.uleb128 0x19
 2003 01e8 3C       		.uleb128 0x3c
 2004 01e9 19       		.uleb128 0x19
 2005 01ea 00       		.byte	0
 2006 01eb 00       		.byte	0
 2007 01ec 27       		.uleb128 0x27
 2008 01ed 2E       		.uleb128 0x2e
 2009 01ee 01       		.byte	0x1
 2010 01ef 3F       		.uleb128 0x3f
 2011 01f0 19       		.uleb128 0x19
 2012 01f1 03       		.uleb128 0x3
 2013 01f2 0E       		.uleb128 0xe
 2014 01f3 3A       		.uleb128 0x3a
 2015 01f4 0B       		.uleb128 0xb
 2016 01f5 3B       		.uleb128 0x3b
 2017 01f6 0B       		.uleb128 0xb
 2018 01f7 27       		.uleb128 0x27
 2019 01f8 19       		.uleb128 0x19
 2020 01f9 3C       		.uleb128 0x3c
 2021 01fa 19       		.uleb128 0x19
 2022 01fb 00       		.byte	0
 2023 01fc 00       		.byte	0
 2024 01fd 00       		.byte	0
 2025              		.section	.debug_loc,"",%progbits
 2026              	.Ldebug_loc0:
 2027              	.LLST0:
 2028 0000 00000000 		.4byte	.LVL0
 2029 0004 1C000000 		.4byte	.LVL2
 2030 0008 0100     		.2byte	0x1
 2031 000a 50       		.byte	0x50
 2032 000b 1C000000 		.4byte	.LVL2
 2033 000f 30000000 		.4byte	.LVL3
 2034 0013 0700     		.2byte	0x7
 2035 0015 74       		.byte	0x74
 2036 0016 80BEFCFF 		.sleb128 536813312
 2036      01
 2037 001b 9F       		.byte	0x9f
 2038 001c 30000000 		.4byte	.LVL3
 2039 0020 32000000 		.4byte	.LFE255
 2040 0024 0400     		.2byte	0x4
 2041 0026 F3       		.byte	0xf3
ARM GAS  C:\Users\jo\AppData\Local\Temp\ccxiMIcq.s 			page 37


 2042 0027 01       		.uleb128 0x1
 2043 0028 50       		.byte	0x50
 2044 0029 9F       		.byte	0x9f
 2045 002a 00000000 		.4byte	0
 2046 002e 00000000 		.4byte	0
 2047              	.LLST1:
 2048 0032 00000000 		.4byte	.LVL0
 2049 0036 18000000 		.4byte	.LVL1
 2050 003a 0100     		.2byte	0x1
 2051 003c 51       		.byte	0x51
 2052 003d 18000000 		.4byte	.LVL1
 2053 0041 32000000 		.4byte	.LFE255
 2054 0045 0400     		.2byte	0x4
 2055 0047 F3       		.byte	0xf3
 2056 0048 01       		.uleb128 0x1
 2057 0049 51       		.byte	0x51
 2058 004a 9F       		.byte	0x9f
 2059 004b 00000000 		.4byte	0
 2060 004f 00000000 		.4byte	0
 2061              	.LLST2:
 2062 0053 00000000 		.4byte	.LVL4
 2063 0057 10000000 		.4byte	.LVL5
 2064 005b 0100     		.2byte	0x1
 2065 005d 50       		.byte	0x50
 2066 005e 10000000 		.4byte	.LVL5
 2067 0062 28000000 		.4byte	.LFE256
 2068 0066 0700     		.2byte	0x7
 2069 0068 70       		.byte	0x70
 2070 0069 80BEFCFF 		.sleb128 536813312
 2070      01
 2071 006e 9F       		.byte	0x9f
 2072 006f 00000000 		.4byte	0
 2073 0073 00000000 		.4byte	0
 2074              	.LLST3:
 2075 0077 00000000 		.4byte	.LVL6
 2076 007b 0C000000 		.4byte	.LVL7
 2077 007f 0100     		.2byte	0x1
 2078 0081 50       		.byte	0x50
 2079 0082 0C000000 		.4byte	.LVL7
 2080 0086 20000000 		.4byte	.LVL10
 2081 008a 0100     		.2byte	0x1
 2082 008c 54       		.byte	0x54
 2083 008d 20000000 		.4byte	.LVL10
 2084 0091 24000000 		.4byte	.LFE257
 2085 0095 0700     		.2byte	0x7
 2086 0097 70       		.byte	0x70
 2087 0098 80A6FCFF 		.sleb128 536810240
 2087      01
 2088 009d 9F       		.byte	0x9f
 2089 009e 00000000 		.4byte	0
 2090 00a2 00000000 		.4byte	0
 2091              	.LLST4:
 2092 00a6 00000000 		.4byte	.LVL6
 2093 00aa 0F000000 		.4byte	.LVL8-1
 2094 00ae 0100     		.2byte	0x1
 2095 00b0 51       		.byte	0x51
 2096 00b1 0F000000 		.4byte	.LVL8-1
ARM GAS  C:\Users\jo\AppData\Local\Temp\ccxiMIcq.s 			page 38


 2097 00b5 1A000000 		.4byte	.LVL9
 2098 00b9 0100     		.2byte	0x1
 2099 00bb 55       		.byte	0x55
 2100 00bc 1A000000 		.4byte	.LVL9
 2101 00c0 24000000 		.4byte	.LFE257
 2102 00c4 0400     		.2byte	0x4
 2103 00c6 F3       		.byte	0xf3
 2104 00c7 01       		.uleb128 0x1
 2105 00c8 51       		.byte	0x51
 2106 00c9 9F       		.byte	0x9f
 2107 00ca 00000000 		.4byte	0
 2108 00ce 00000000 		.4byte	0
 2109              		.section	.debug_aranges,"",%progbits
 2110 0000 2C000000 		.4byte	0x2c
 2111 0004 0200     		.2byte	0x2
 2112 0006 00000000 		.4byte	.Ldebug_info0
 2113 000a 04       		.byte	0x4
 2114 000b 00       		.byte	0
 2115 000c 0000     		.2byte	0
 2116 000e 0000     		.2byte	0
 2117 0010 00000000 		.4byte	.LFB255
 2118 0014 32000000 		.4byte	.LFE255-.LFB255
 2119 0018 00000000 		.4byte	.LFB256
 2120 001c 28000000 		.4byte	.LFE256-.LFB256
 2121 0020 00000000 		.4byte	.LFB257
 2122 0024 24000000 		.4byte	.LFE257-.LFB257
 2123 0028 00000000 		.4byte	0
 2124 002c 00000000 		.4byte	0
 2125              		.section	.debug_ranges,"",%progbits
 2126              	.Ldebug_ranges0:
 2127 0000 00000000 		.4byte	.LFB255
 2128 0004 32000000 		.4byte	.LFE255
 2129 0008 00000000 		.4byte	.LFB256
 2130 000c 28000000 		.4byte	.LFE256
 2131 0010 00000000 		.4byte	.LFB257
 2132 0014 24000000 		.4byte	.LFE257
 2133 0018 00000000 		.4byte	0
 2134 001c 00000000 		.4byte	0
 2135              		.section	.debug_line,"",%progbits
 2136              	.Ldebug_line0:
 2137 0000 55020000 		.section	.debug_str,"MS",%progbits,1
 2137      02000302 
 2137      00000201 
 2137      FB0E0D00 
 2137      01010101 
 2138              	.LASF48:
 2139 0000 74687265 		.ascii	"threads_list_t\000"
 2139      6164735F 
 2139      6C697374 
 2139      5F7400
 2140              	.LASF91:
 2141 000f 49435052 		.ascii	"ICPR\000"
 2141      00
 2142              	.LASF53:
 2143 0014 72656164 		.ascii	"ready_list_t\000"
 2143      795F6C69 
 2143      73745F74 
ARM GAS  C:\Users\jo\AppData\Local\Temp\ccxiMIcq.s 			page 39


 2143      00
 2144              	.LASF119:
 2145 0021 73655F74 		.ascii	"se_time\000"
 2145      696D6500 
 2146              	.LASF140:
 2147 0029 7264796D 		.ascii	"rdymsg\000"
 2147      736700
 2148              	.LASF16:
 2149 0030 75696E74 		.ascii	"uint64_t\000"
 2149      36345F74 
 2149      00
 2150              	.LASF83:
 2151 0039 6B65726E 		.ascii	"kernel_stats\000"
 2151      656C5F73 
 2151      74617473 
 2151      00
 2152              	.LASF5:
 2153 0046 5F5F7569 		.ascii	"__uint8_t\000"
 2153      6E74385F 
 2153      7400
 2154              	.LASF117:
 2155 0050 706F7274 		.ascii	"port_intctx\000"
 2155      5F696E74 
 2155      63747800 
 2156              	.LASF52:
 2157 005c 63685F74 		.ascii	"ch_threads_queue\000"
 2157      68726561 
 2157      64735F71 
 2157      75657565 
 2157      00
 2158              	.LASF72:
 2159 006d 73797374 		.ascii	"system_debug_t\000"
 2159      656D5F64 
 2159      65627567 
 2159      5F7400
 2160              	.LASF158:
 2161 007c 433A5C55 		.ascii	"C:\\Users\\jo\\Documents\\GitHub\\ChibiOS\\demos\\S"
 2161      73657273 
 2161      5C6A6F5C 
 2161      446F6375 
 2161      6D656E74 
 2162 00a8 544D3332 		.ascii	"TM32\\RT-STM32F407-DISCOVERY-uHttp\000"
 2162      5C52542D 
 2162      53544D33 
 2162      32463430 
 2162      372D4449 
 2163              	.LASF131:
 2164 00ca 776F7273 		.ascii	"worst\000"
 2164      7400
 2165              	.LASF134:
 2166 00d0 74696D65 		.ascii	"time_measurement_t\000"
 2166      5F6D6561 
 2166      73757265 
 2166      6D656E74 
 2166      5F7400
 2167              	.LASF12:
 2168 00e3 6C6F6E67 		.ascii	"long long unsigned int\000"
ARM GAS  C:\Users\jo\AppData\Local\Temp\ccxiMIcq.s 			page 40


 2168      206C6F6E 
 2168      6720756E 
 2168      7369676E 
 2168      65642069 
 2169              	.LASF127:
 2170 00fa 63685F74 		.ascii	"ch_trace_buffer_t\000"
 2170      72616365 
 2170      5F627566 
 2170      6665725F 
 2170      7400
 2171              	.LASF122:
 2172 010c 73655F73 		.ascii	"se_state\000"
 2172      74617465 
 2172      00
 2173              	.LASF141:
 2174 0115 65786974 		.ascii	"exitcode\000"
 2174      636F6465 
 2174      00
 2175              	.LASF82:
 2176 011e 6D61696E 		.ascii	"mainthread\000"
 2176      74687265 
 2176      616400
 2177              	.LASF69:
 2178 0129 76697274 		.ascii	"virtual_timers_list_t\000"
 2178      75616C5F 
 2178      74696D65 
 2178      72735F6C 
 2178      6973745F 
 2179              	.LASF99:
 2180 013f 43505549 		.ascii	"CPUID\000"
 2180      4400
 2181              	.LASF18:
 2182 0145 72747469 		.ascii	"rttime_t\000"
 2182      6D655F74 
 2182      00
 2183              	.LASF89:
 2184 014e 49535052 		.ascii	"ISPR\000"
 2184      00
 2185              	.LASF31:
 2186 0153 705F7072 		.ascii	"p_prio\000"
 2186      696F00
 2187              	.LASF151:
 2188 015a 6E766963 		.ascii	"nvicEnableVector\000"
 2188      456E6162 
 2188      6C655665 
 2188      63746F72 
 2188      00
 2189              	.LASF111:
 2190 016b 49534152 		.ascii	"ISAR\000"
 2190      00
 2191              	.LASF10:
 2192 0170 6C6F6E67 		.ascii	"long long int\000"
 2192      206C6F6E 
 2192      6720696E 
 2192      7400
 2193              	.LASF1:
 2194 017e 7369676E 		.ascii	"signed char\000"
ARM GAS  C:\Users\jo\AppData\Local\Temp\ccxiMIcq.s 			page 41


 2194      65642063 
 2194      68617200 
 2195              	.LASF46:
 2196 018a 705F6D70 		.ascii	"p_mpool\000"
 2196      6F6F6C00 
 2197              	.LASF145:
 2198 0192 6D5F7175 		.ascii	"m_queue\000"
 2198      65756500 
 2199              	.LASF81:
 2200 019a 76746C69 		.ascii	"vtlist\000"
 2200      737400
 2201              	.LASF79:
 2202 01a1 63685F73 		.ascii	"ch_system\000"
 2202      79737465 
 2202      6D00
 2203              	.LASF7:
 2204 01ab 6C6F6E67 		.ascii	"long int\000"
 2204      20696E74 
 2204      00
 2205              	.LASF20:
 2206 01b4 74737461 		.ascii	"tstate_t\000"
 2206      74655F74 
 2206      00
 2207              	.LASF120:
 2208 01bd 73655F74 		.ascii	"se_tp\000"
 2208      7000
 2209              	.LASF33:
 2210 01c3 705F6E65 		.ascii	"p_newer\000"
 2210      77657200 
 2211              	.LASF108:
 2212 01cb 42464152 		.ascii	"BFAR\000"
 2212      00
 2213              	.LASF124:
 2214 01d0 74625F73 		.ascii	"tb_size\000"
 2214      697A6500 
 2215              	.LASF109:
 2216 01d8 41465352 		.ascii	"AFSR\000"
 2216      00
 2217              	.LASF58:
 2218 01dd 725F6E65 		.ascii	"r_newer\000"
 2218      77657200 
 2219              	.LASF114:
 2220 01e5 72656761 		.ascii	"regarm_t\000"
 2220      726D5F74 
 2220      00
 2221              	.LASF65:
 2222 01ee 76745F70 		.ascii	"vt_prev\000"
 2222      72657600 
 2223              	.LASF113:
 2224 01f6 5343425F 		.ascii	"SCB_Type\000"
 2224      54797065 
 2224      00
 2225              	.LASF73:
 2226 01ff 63685F73 		.ascii	"ch_system_debug\000"
 2226      79737465 
 2226      6D5F6465 
 2226      62756700 
ARM GAS  C:\Users\jo\AppData\Local\Temp\ccxiMIcq.s 			page 42


 2227              	.LASF148:
 2228 020f 6D757465 		.ascii	"mutex_t\000"
 2228      785F7400 
 2229              	.LASF76:
 2230 0217 6C6F636B 		.ascii	"lock_cnt\000"
 2230      5F636E74 
 2230      00
 2231              	.LASF84:
 2232 0220 69646C65 		.ascii	"idle_thread_wa\000"
 2232      5F746872 
 2232      6561645F 
 2232      776100
 2233              	.LASF25:
 2234 022f 636E745F 		.ascii	"cnt_t\000"
 2234      7400
 2235              	.LASF36:
 2236 0235 705F7374 		.ascii	"p_stklimit\000"
 2236      6B6C696D 
 2236      697400
 2237              	.LASF0:
 2238 0240 756E7369 		.ascii	"unsigned int\000"
 2238      676E6564 
 2238      20696E74 
 2238      00
 2239              	.LASF64:
 2240 024d 76745F6E 		.ascii	"vt_next\000"
 2240      65787400 
 2241              	.LASF152:
 2242 0255 6E766963 		.ascii	"nvicDisableVector\000"
 2242      44697361 
 2242      626C6556 
 2242      6563746F 
 2242      7200
 2243              	.LASF41:
 2244 0267 705F6D73 		.ascii	"p_msgqueue\000"
 2244      67717565 
 2244      756500
 2245              	.LASF135:
 2246 0272 6E5F6972 		.ascii	"n_irq\000"
 2246      7100
 2247              	.LASF101:
 2248 0278 56544F52 		.ascii	"VTOR\000"
 2248      00
 2249              	.LASF139:
 2250 027d 6B65726E 		.ascii	"kernel_stats_t\000"
 2250      656C5F73 
 2250      74617473 
 2250      5F7400
 2251              	.LASF49:
 2252 028c 63685F74 		.ascii	"ch_thread\000"
 2252      68726561 
 2252      6400
 2253              	.LASF100:
 2254 0296 49435352 		.ascii	"ICSR\000"
 2254      00
 2255              	.LASF23:
 2256 029b 6D73675F 		.ascii	"msg_t\000"
ARM GAS  C:\Users\jo\AppData\Local\Temp\ccxiMIcq.s 			page 43


 2256      7400
 2257              	.LASF102:
 2258 02a1 41495243 		.ascii	"AIRCR\000"
 2258      5200
 2259              	.LASF106:
 2260 02a7 44465352 		.ascii	"DFSR\000"
 2260      00
 2261              	.LASF26:
 2262 02ac 75636E74 		.ascii	"ucnt_t\000"
 2262      5F7400
 2263              	.LASF107:
 2264 02b3 4D4D4641 		.ascii	"MMFAR\000"
 2264      5200
 2265              	.LASF78:
 2266 02b9 63685F73 		.ascii	"ch_system_t\000"
 2266      79737465 
 2266      6D5F7400 
 2267              	.LASF126:
 2268 02c5 74625F62 		.ascii	"tb_buffer\000"
 2268      75666665 
 2268      7200
 2269              	.LASF138:
 2270 02cf 6D5F6372 		.ascii	"m_crit_isr\000"
 2270      69745F69 
 2270      737200
 2271              	.LASF54:
 2272 02da 63685F72 		.ascii	"ch_ready_list\000"
 2272      65616479 
 2272      5F6C6973 
 2272      7400
 2273              	.LASF24:
 2274 02e8 6576656E 		.ascii	"eventmask_t\000"
 2274      746D6173 
 2274      6B5F7400 
 2275              	.LASF6:
 2276 02f4 5F5F696E 		.ascii	"__int32_t\000"
 2276      7433325F 
 2276      7400
 2277              	.LASF156:
 2278 02fe 474E5520 		.ascii	"GNU C 4.9.3 20141119 (release) [ARM/embedded-4_9-br"
 2278      4320342E 
 2278      392E3320 
 2278      32303134 
 2278      31313139 
 2279 0331 616E6368 		.ascii	"anch revision 218278] -mcpu=cortex-m4 -mno-thumb-in"
 2279      20726576 
 2279      6973696F 
 2279      6E203231 
 2279      38323738 
 2280 0364 74657277 		.ascii	"terwork -mthumb -ggdb -O2 -fomit-frame-pointer -fal"
 2280      6F726B20 
 2280      2D6D7468 
 2280      756D6220 
 2280      2D676764 
 2281 0397 69676E2D 		.ascii	"ign-functions=16 -ffunction-sections -fdata-section"
 2281      66756E63 
 2281      74696F6E 
ARM GAS  C:\Users\jo\AppData\Local\Temp\ccxiMIcq.s 			page 44


 2281      733D3136 
 2281      202D6666 
 2282 03ca 73202D66 		.ascii	"s -fno-common\000"
 2282      6E6F2D63 
 2282      6F6D6D6F 
 2282      6E00
 2283              	.LASF115:
 2284 03d8 73746B61 		.ascii	"stkalign_t\000"
 2284      6C69676E 
 2284      5F7400
 2285              	.LASF154:
 2286 03e3 68616E64 		.ascii	"handler\000"
 2286      6C657200 
 2287              	.LASF62:
 2288 03eb 76697274 		.ascii	"virtual_timer_t\000"
 2288      75616C5F 
 2288      74696D65 
 2288      725F7400 
 2289              	.LASF40:
 2290 03fb 705F7761 		.ascii	"p_waiting\000"
 2290      6974696E 
 2290      6700
 2291              	.LASF160:
 2292 0405 63685379 		.ascii	"chSysHalt\000"
 2292      7348616C 
 2292      7400
 2293              	.LASF97:
 2294 040f 73697A65 		.ascii	"sizetype\000"
 2294      74797065 
 2294      00
 2295              	.LASF70:
 2296 0418 63685F76 		.ascii	"ch_virtual_timers_list\000"
 2296      69727475 
 2296      616C5F74 
 2296      696D6572 
 2296      735F6C69 
 2297              	.LASF104:
 2298 042f 43465352 		.ascii	"CFSR\000"
 2298      00
 2299              	.LASF125:
 2300 0434 74625F70 		.ascii	"tb_ptr\000"
 2300      747200
 2301              	.LASF93:
 2302 043b 49414252 		.ascii	"IABR\000"
 2302      00
 2303              	.LASF123:
 2304 0440 63685F73 		.ascii	"ch_swc_event_t\000"
 2304      77635F65 
 2304      76656E74 
 2304      5F7400
 2305              	.LASF71:
 2306 044f 76745F6C 		.ascii	"vt_lasttime\000"
 2306      61737474 
 2306      696D6500 
 2307              	.LASF34:
 2308 045b 705F6F6C 		.ascii	"p_older\000"
 2308      64657200 
ARM GAS  C:\Users\jo\AppData\Local\Temp\ccxiMIcq.s 			page 45


 2309              	.LASF57:
 2310 0463 725F6374 		.ascii	"r_ctx\000"
 2310      7800
 2311              	.LASF129:
 2312 0469 746D5F63 		.ascii	"tm_calibration_t\000"
 2312      616C6962 
 2312      72617469 
 2312      6F6E5F74 
 2312      00
 2313              	.LASF87:
 2314 047a 49434552 		.ascii	"ICER\000"
 2314      00
 2315              	.LASF150:
 2316 047f 7072696F 		.ascii	"prio\000"
 2316      00
 2317              	.LASF59:
 2318 0484 725F6F6C 		.ascii	"r_older\000"
 2318      64657200 
 2319              	.LASF11:
 2320 048c 5F5F7569 		.ascii	"__uint64_t\000"
 2320      6E743634 
 2320      5F7400
 2321              	.LASF133:
 2322 0497 63756D75 		.ascii	"cumulative\000"
 2322      6C617469 
 2322      766500
 2323              	.LASF21:
 2324 04a2 74726566 		.ascii	"trefs_t\000"
 2324      735F7400 
 2325              	.LASF86:
 2326 04aa 52455345 		.ascii	"RESERVED0\000"
 2326      52564544 
 2326      3000
 2327              	.LASF90:
 2328 04b4 52455345 		.ascii	"RESERVED2\000"
 2328      52564544 
 2328      3200
 2329              	.LASF92:
 2330 04be 52455345 		.ascii	"RESERVED3\000"
 2330      52564544 
 2330      3300
 2331              	.LASF94:
 2332 04c8 52455345 		.ascii	"RESERVED4\000"
 2332      52564544 
 2332      3400
 2333              	.LASF30:
 2334 04d2 705F7072 		.ascii	"p_prev\000"
 2334      657600
 2335              	.LASF22:
 2336 04d9 74707269 		.ascii	"tprio_t\000"
 2336      6F5F7400 
 2337              	.LASF144:
 2338 04e1 6D757465 		.ascii	"mutex\000"
 2338      7800
 2339              	.LASF136:
 2340 04e7 6E5F6374 		.ascii	"n_ctxswc\000"
 2340      78737763 
ARM GAS  C:\Users\jo\AppData\Local\Temp\ccxiMIcq.s 			page 46


 2340      00
 2341              	.LASF149:
 2342 04f0 5F426F6F 		.ascii	"_Bool\000"
 2342      6C00
 2343              	.LASF14:
 2344 04f6 696E7433 		.ascii	"int32_t\000"
 2344      325F7400 
 2345              	.LASF2:
 2346 04fe 756E7369 		.ascii	"unsigned char\000"
 2346      676E6564 
 2346      20636861 
 2346      7200
 2347              	.LASF103:
 2348 050c 53484353 		.ascii	"SHCSR\000"
 2348      5200
 2349              	.LASF155:
 2350 0512 49544D5F 		.ascii	"ITM_RxBuffer\000"
 2350      52784275 
 2350      66666572 
 2350      00
 2351              	.LASF37:
 2352 051f 705F7374 		.ascii	"p_state\000"
 2352      61746500 
 2353              	.LASF44:
 2354 0527 705F6D74 		.ascii	"p_mtxlist\000"
 2354      786C6973 
 2354      7400
 2355              	.LASF3:
 2356 0531 73686F72 		.ascii	"short int\000"
 2356      7420696E 
 2356      7400
 2357              	.LASF85:
 2358 053b 49534552 		.ascii	"ISER\000"
 2358      00
 2359              	.LASF98:
 2360 0540 4E564943 		.ascii	"NVIC_Type\000"
 2360      5F547970 
 2360      6500
 2361              	.LASF153:
 2362 054a 6E766963 		.ascii	"nvicSetSystemHandlerPriority\000"
 2362      53657453 
 2362      79737465 
 2362      6D48616E 
 2362      646C6572 
 2363              	.LASF56:
 2364 0567 725F7072 		.ascii	"r_prio\000"
 2364      696F00
 2365              	.LASF143:
 2366 056e 65776D61 		.ascii	"ewmask\000"
 2366      736B00
 2367              	.LASF29:
 2368 0575 705F6E65 		.ascii	"p_next\000"
 2368      787400
 2369              	.LASF19:
 2370 057c 746D6F64 		.ascii	"tmode_t\000"
 2370      655F7400 
 2371              	.LASF38:
ARM GAS  C:\Users\jo\AppData\Local\Temp\ccxiMIcq.s 			page 47


 2372 0584 705F666C 		.ascii	"p_flags\000"
 2372      61677300 
 2373              	.LASF159:
 2374 058c 5F5F6675 		.ascii	"__func__\000"
 2374      6E635F5F 
 2374      00
 2375              	.LASF47:
 2376 0595 705F7374 		.ascii	"p_stats\000"
 2376      61747300 
 2377              	.LASF4:
 2378 059d 73686F72 		.ascii	"short unsigned int\000"
 2378      7420756E 
 2378      7369676E 
 2378      65642069 
 2378      6E7400
 2379              	.LASF63:
 2380 05b0 63685F76 		.ascii	"ch_virtual_timer\000"
 2380      69727475 
 2380      616C5F74 
 2380      696D6572 
 2380      00
 2381              	.LASF43:
 2382 05c1 705F6570 		.ascii	"p_epending\000"
 2382      656E6469 
 2382      6E6700
 2383              	.LASF95:
 2384 05cc 52455345 		.ascii	"RESERVED5\000"
 2384      52564544 
 2384      3500
 2385              	.LASF15:
 2386 05d6 75696E74 		.ascii	"uint32_t\000"
 2386      33325F74 
 2386      00
 2387              	.LASF55:
 2388 05df 725F7175 		.ascii	"r_queue\000"
 2388      65756500 
 2389              	.LASF66:
 2390 05e7 76745F64 		.ascii	"vt_delta\000"
 2390      656C7461 
 2390      00
 2391              	.LASF50:
 2392 05f0 63685F74 		.ascii	"ch_threads_list\000"
 2392      68726561 
 2392      64735F6C 
 2392      69737400 
 2393              	.LASF9:
 2394 0600 6C6F6E67 		.ascii	"long unsigned int\000"
 2394      20756E73 
 2394      69676E65 
 2394      6420696E 
 2394      7400
 2395              	.LASF60:
 2396 0612 725F6375 		.ascii	"r_current\000"
 2396      7272656E 
 2396      7400
 2397              	.LASF118:
 2398 061c 63686172 		.ascii	"char\000"
ARM GAS  C:\Users\jo\AppData\Local\Temp\ccxiMIcq.s 			page 48


 2398      00
 2399              	.LASF28:
 2400 0621 74687265 		.ascii	"thread_t\000"
 2400      61645F74 
 2400      00
 2401              	.LASF130:
 2402 062a 62657374 		.ascii	"best\000"
 2402      00
 2403              	.LASF147:
 2404 062f 6D5F6E65 		.ascii	"m_next\000"
 2404      787400
 2405              	.LASF27:
 2406 0636 73797374 		.ascii	"systime_t\000"
 2406      696D655F 
 2406      7400
 2407              	.LASF45:
 2408 0640 705F7265 		.ascii	"p_realprio\000"
 2408      616C7072 
 2408      696F00
 2409              	.LASF61:
 2410 064b 76746675 		.ascii	"vtfunc_t\000"
 2410      6E635F74 
 2410      00
 2411              	.LASF8:
 2412 0654 5F5F7569 		.ascii	"__uint32_t\000"
 2412      6E743332 
 2412      5F7400
 2413              	.LASF132:
 2414 065f 6C617374 		.ascii	"last\000"
 2414      00
 2415              	.LASF74:
 2416 0664 70616E69 		.ascii	"panic_msg\000"
 2416      635F6D73 
 2416      6700
 2417              	.LASF128:
 2418 066e 6F666673 		.ascii	"offset\000"
 2418      657400
 2419              	.LASF116:
 2420 0675 636F6E74 		.ascii	"context\000"
 2420      65787400 
 2421              	.LASF17:
 2422 067d 7274636E 		.ascii	"rtcnt_t\000"
 2422      745F7400 
 2423              	.LASF157:
 2424 0685 2E2E2F2E 		.ascii	"../../../os/hal/ports/common/ARMCMx/nvic.c\000"
 2424      2E2F2E2E 
 2424      2F6F732F 
 2424      68616C2F 
 2424      706F7274 
 2425              	.LASF68:
 2426 06b0 76745F70 		.ascii	"vt_par\000"
 2426      617200
 2427              	.LASF51:
 2428 06b7 74687265 		.ascii	"threads_queue_t\000"
 2428      6164735F 
 2428      71756575 
 2428      655F7400 
ARM GAS  C:\Users\jo\AppData\Local\Temp\ccxiMIcq.s 			page 49


 2429              	.LASF39:
 2430 06c7 705F7265 		.ascii	"p_refs\000"
 2430      667300
 2431              	.LASF75:
 2432 06ce 6973725F 		.ascii	"isr_cnt\000"
 2432      636E7400 
 2433              	.LASF110:
 2434 06d6 4D4D4652 		.ascii	"MMFR\000"
 2434      00
 2435              	.LASF80:
 2436 06db 726C6973 		.ascii	"rlist\000"
 2436      7400
 2437              	.LASF13:
 2438 06e1 75696E74 		.ascii	"uint8_t\000"
 2438      385F7400 
 2439              	.LASF88:
 2440 06e9 52534552 		.ascii	"RSERVED1\000"
 2440      56454431 
 2440      00
 2441              	.LASF96:
 2442 06f2 53544952 		.ascii	"STIR\000"
 2442      00
 2443              	.LASF142:
 2444 06f7 77746F62 		.ascii	"wtobjp\000"
 2444      6A7000
 2445              	.LASF35:
 2446 06fe 705F6E61 		.ascii	"p_name\000"
 2446      6D6500
 2447              	.LASF77:
 2448 0705 74726163 		.ascii	"trace_buffer\000"
 2448      655F6275 
 2448      66666572 
 2448      00
 2449              	.LASF42:
 2450 0712 705F6D73 		.ascii	"p_msg\000"
 2450      6700
 2451              	.LASF112:
 2452 0718 43504143 		.ascii	"CPACR\000"
 2452      5200
 2453              	.LASF105:
 2454 071e 48465352 		.ascii	"HFSR\000"
 2454      00
 2455              	.LASF137:
 2456 0723 6D5F6372 		.ascii	"m_crit_thd\000"
 2456      69745F74 
 2456      686400
 2457              	.LASF146:
 2458 072e 6D5F6F77 		.ascii	"m_owner\000"
 2458      6E657200 
 2459              	.LASF121:
 2460 0736 73655F77 		.ascii	"se_wtobjp\000"
 2460      746F626A 
 2460      7000
 2461              	.LASF32:
 2462 0740 705F6374 		.ascii	"p_ctx\000"
 2462      7800
 2463              	.LASF67:
ARM GAS  C:\Users\jo\AppData\Local\Temp\ccxiMIcq.s 			page 50


 2464 0746 76745F66 		.ascii	"vt_func\000"
 2464      756E6300 
 2465              		.ident	"GCC: (GNU Tools for ARM Embedded Processors) 4.9.3 20141119 (release) [ARM/embedded-4_9-br
ARM GAS  C:\Users\jo\AppData\Local\Temp\ccxiMIcq.s 			page 51


DEFINED SYMBOLS
                            *ABS*:00000000 nvic.c
C:\Users\jo\AppData\Local\Temp\ccxiMIcq.s:19     .text.nvicEnableVector:00000000 $t
C:\Users\jo\AppData\Local\Temp\ccxiMIcq.s:25     .text.nvicEnableVector:00000000 nvicEnableVector
C:\Users\jo\AppData\Local\Temp\ccxiMIcq.s:70     .text.nvicDisableVector:00000000 $t
C:\Users\jo\AppData\Local\Temp\ccxiMIcq.s:76     .text.nvicDisableVector:00000000 nvicDisableVector
C:\Users\jo\AppData\Local\Temp\ccxiMIcq.s:114    .text.nvicDisableVector:00000024 $d
C:\Users\jo\AppData\Local\Temp\ccxiMIcq.s:119    .text.nvicSetSystemHandlerPriority:00000000 $t
C:\Users\jo\AppData\Local\Temp\ccxiMIcq.s:125    .text.nvicSetSystemHandlerPriority:00000000 nvicSetSystemHandlerPriority
C:\Users\jo\AppData\Local\Temp\ccxiMIcq.s:164    .text.nvicSetSystemHandlerPriority:00000020 $d
C:\Users\jo\AppData\Local\Temp\ccxiMIcq.s:169    .rodata.__func__.8194:00000000 $d
C:\Users\jo\AppData\Local\Temp\ccxiMIcq.s:173    .rodata.__func__.8194:00000000 __func__.8194
                     .debug_frame:00000010 $d
C:\Users\jo\AppData\Local\Temp\ccxiMIcq.s:118    .text.nvicDisableVector:00000028 $t
C:\Users\jo\AppData\Local\Temp\ccxiMIcq.s:168    .text.nvicSetSystemHandlerPriority:00000024 $t

UNDEFINED SYMBOLS
chSysHalt
