ARM GAS  C:\Users\jo\AppData\Local\Temp\ccxiMIcq.s 			page 1


   1              		.syntax unified
   2              		.cpu cortex-m4
   3              		.fpu softvfp
   4              		.eabi_attribute 20, 1
   5              		.eabi_attribute 21, 1
   6              		.eabi_attribute 23, 3
   7              		.eabi_attribute 24, 1
   8              		.eabi_attribute 25, 1
   9              		.eabi_attribute 26, 1
  10              		.eabi_attribute 30, 2
  11              		.eabi_attribute 34, 1
  12              		.eabi_attribute 18, 4
  13              		.thumb
  14              		.file	"nvic.c"
  15              		.text
  16              	.Ltext0:
  17              		.cfi_sections	.debug_frame
  18              		.section	.text.nvicEnableVector,"ax",%progbits
  19              		.align	2
  20              		.p2align 4,,15
  21              		.global	nvicEnableVector
  22              		.thumb
  23              		.thumb_func
  24              		.type	nvicEnableVector, %function
  25              	nvicEnableVector:
  26              	.LFB255:
  27              		.file 1 "../../../os/hal/ports/common/ARMCMx/nvic.c"
  28              		.loc 1 57 0
  29              		.cfi_startproc
  30              		@ args = 0, pretend = 0, frame = 0
  31              		@ frame_needed = 0, uses_anonymous_args = 0
  32              		@ link register save eliminated.
  33              	.LVL0:
  34              		.loc 1 60 0
  35 0000 4309     		lsrs	r3, r0, #5
  36 0002 9B00     		lsls	r3, r3, #2
  37              		.loc 1 57 0
  38 0004 10B4     		push	{r4}
  39              		.cfi_def_cfa_offset 4
  40              		.cfi_offset 4, -4
  41 0006 03F16043 		add	r3, r3, #-536870912
  42              		.loc 1 59 0
  43 000a 00F16044 		add	r4, r0, #-536870912
  44 000e 04F56144 		add	r4, r4, #57600
  45 0012 03F56143 		add	r3, r3, #57600
  46 0016 0901     		lsls	r1, r1, #4
  47              	.LVL1:
  48              		.loc 1 60 0
  49 0018 00F01F00 		and	r0, r0, #31
  50              	.LVL2:
  51 001c 0122     		movs	r2, #1
  52 001e 8240     		lsls	r2, r2, r0
  53              		.loc 1 59 0
  54 0020 C9B2     		uxtb	r1, r1
  55 0022 84F80013 		strb	r1, [r4, #768]
  56              		.loc 1 60 0
  57 0026 C3F88021 		str	r2, [r3, #384]
ARM GAS  C:\Users\jo\AppData\Local\Temp\ccxiMIcq.s 			page 2


  58              		.loc 1 61 0
  59 002a 1A60     		str	r2, [r3]
  60              		.loc 1 62 0
  61 002c 5DF8044B 		ldr	r4, [sp], #4
  62              		.cfi_restore 4
  63              		.cfi_def_cfa_offset 0
  64              	.LVL3:
  65 0030 7047     		bx	lr
  66              		.cfi_endproc
  67              	.LFE255:
  68              		.size	nvicEnableVector, .-nvicEnableVector
  69 0032 00BFAFF3 		.section	.text.nvicDisableVector,"ax",%progbits
  69      0080AFF3 
  69      0080AFF3 
  69      0080
  70              		.align	2
  71              		.p2align 4,,15
  72              		.global	nvicDisableVector
  73              		.thumb
  74              		.thumb_func
  75              		.type	nvicDisableVector, %function
  76              	nvicDisableVector:
  77              	.LFB256:
  78              		.loc 1 69 0
  79              		.cfi_startproc
  80              		@ args = 0, pretend = 0, frame = 0
  81              		@ frame_needed = 0, uses_anonymous_args = 0
  82              		@ link register save eliminated.
  83              	.LVL4:
  84              		.loc 1 71 0
  85 0000 0849     		ldr	r1, .L5
  86 0002 4309     		lsrs	r3, r0, #5
  87              		.loc 1 69 0
  88 0004 10B4     		push	{r4}
  89              		.cfi_def_cfa_offset 4
  90              		.cfi_offset 4, -4
  91              		.loc 1 71 0
  92 0006 2033     		adds	r3, r3, #32
  93 0008 00F01F04 		and	r4, r0, #31
  94 000c 0122     		movs	r2, #1
  95              		.loc 1 72 0
  96 000e 0844     		add	r0, r0, r1
  97              	.LVL5:
  98              		.loc 1 71 0
  99 0010 A240     		lsls	r2, r2, r4
 100              		.loc 1 72 0
 101 0012 0024     		movs	r4, #0
 102              		.loc 1 71 0
 103 0014 41F82320 		str	r2, [r1, r3, lsl #2]
 104              		.loc 1 72 0
 105 0018 80F80043 		strb	r4, [r0, #768]
 106              		.loc 1 73 0
 107 001c 5DF8044B 		ldr	r4, [sp], #4
 108              		.cfi_restore 4
 109              		.cfi_def_cfa_offset 0
 110 0020 7047     		bx	lr
 111              	.L6:
ARM GAS  C:\Users\jo\AppData\Local\Temp\ccxiMIcq.s 			page 3


 112 0022 00BF     		.align	2
 113              	.L5:
 114 0024 00E100E0 		.word	-536813312
 115              		.cfi_endproc
 116              	.LFE256:
 117              		.size	nvicDisableVector, .-nvicDisableVector
 118 0028 AFF30080 		.section	.text.nvicSetSystemHandlerPriority,"ax",%progbits
 118      AFF30080 
 119              		.align	2
 120              		.p2align 4,,15
 121              		.global	nvicSetSystemHandlerPriority
 122              		.thumb
 123              		.thumb_func
 124              		.type	nvicSetSystemHandlerPriority, %function
 125              	nvicSetSystemHandlerPriority:
 126              	.LFB257:
 127              		.loc 1 81 0
 128              		.cfi_startproc
 129              		@ args = 0, pretend = 0, frame = 0
 130              		@ frame_needed = 0, uses_anonymous_args = 0
 131              	.LVL6:
 132              		.loc 1 83 0
 133 0000 0C28     		cmp	r0, #12
 134              		.loc 1 81 0
 135 0002 38B5     		push	{r3, r4, r5, lr}
 136              		.cfi_def_cfa_offset 16
 137              		.cfi_offset 3, -16
 138              		.cfi_offset 4, -12
 139              		.cfi_offset 5, -8
 140              		.cfi_offset 14, -4
 141              		.loc 1 81 0
 142 0004 0446     		mov	r4, r0
 143 0006 0D46     		mov	r5, r1
 144              		.loc 1 83 0
 145 0008 02D9     		bls	.L8
 146              		.loc 1 83 0 is_stmt 0 discriminator 1
 147 000a 0548     		ldr	r0, .L11
 148              	.LVL7:
 149 000c FFF7FEFF 		bl	chSysHalt
 150              	.LVL8:
 151              	.L8:
 152              		.loc 1 85 0 is_stmt 1
 153 0010 04F16040 		add	r0, r4, #-536870912
 154 0014 00F56D40 		add	r0, r0, #60672
 155 0018 2D01     		lsls	r5, r5, #4
 156              	.LVL9:
 157 001a EDB2     		uxtb	r5, r5
 158 001c 0576     		strb	r5, [r0, #24]
 159 001e 38BD     		pop	{r3, r4, r5, pc}
 160              	.LVL10:
 161              	.L12:
 162              		.align	2
 163              	.L11:
 164 0020 00000000 		.word	.LANCHOR0
 165              		.cfi_endproc
 166              	.LFE257:
 167              		.size	nvicSetSystemHandlerPriority, .-nvicSetSystemHandlerPriority
ARM GAS  C:\Users\jo\AppData\Local\Temp\ccxiMIcq.s 			page 4


 168 0024 AFF30080 		.section	.rodata.__func__.8194,"a",%progbits
 168      AFF30080 
 168      AFF30080 
 169              		.align	2
 170              		.set	.LANCHOR0,. + 0
 171              		.type	__func__.8194, %object
 172              		.size	__func__.8194, 29
 173              	__func__.8194:
 174 0000 6E766963 		.ascii	"nvicSetSystemHandlerPriority\000"
 174      53657453 
 174      79737465 
 174      6D48616E 
 174      646C6572 
 175 001d 000000   		.text
 176              	.Letext0:
 177              		.file 2 "c:\\program files\\gnu tools arm embedded\\4.9 2014q4\\arm-none-eabi\\include\\machine\\_
 178              		.file 3 "c:\\program files\\gnu tools arm embedded\\4.9 2014q4\\arm-none-eabi\\include\\stdint.h"
 179              		.file 4 "../../../os/rt/ports/ARMCMx/compilers/GCC/chtypes.h"
 180              		.file 5 "../../../os/rt/include/chsystypes.h"
 181              		.file 6 "../../../os/rt/include/chschd.h"
 182              		.file 7 "../../../os/ext/CMSIS/include/core_cm4.h"
 183              		.file 8 "../../../os/rt/ports/ARMCMx/chcore.h"
 184              		.file 9 "../../../os/rt/ports/ARMCMx/chcore_v7m.h"
 185              		.file 10 "../../../os/rt/include/chdebug.h"
 186              		.file 11 "../../../os/rt/include/chtm.h"
 187              		.file 12 "../../../os/rt/include/chstats.h"
 188              		.file 13 "../../../os/rt/include/chmtx.h"
 189              		.file 14 "../../../os/rt/include/chsys.h"