ARM GAS  C:\Users\jo\AppData\Local\Temp\cc05uoEL.s 			page 1


   1              		.syntax unified
   2              		.cpu cortex-m4
   3              		.fpu softvfp
   4              		.eabi_attribute 20, 1
   5              		.eabi_attribute 21, 1
   6              		.eabi_attribute 23, 3
   7              		.eabi_attribute 24, 1
   8              		.eabi_attribute 25, 1
   9              		.eabi_attribute 26, 1
  10              		.eabi_attribute 30, 2
  11              		.eabi_attribute 34, 1
  12              		.eabi_attribute 18, 4
  13              		.thumb
  14              		.file	"pal_lld.c"
  15              		.text
  16              	.Ltext0:
  17              		.cfi_sections	.debug_frame
  18              		.section	.text._pal_lld_init,"ax",%progbits
  19              		.align	2
  20              		.p2align 4,,15
  21              		.global	_pal_lld_init
  22              		.thumb
  23              		.thumb_func
  24              		.type	_pal_lld_init, %function
  25              	_pal_lld_init:
  26              	.LFB256:
  27              		.file 1 "../../../os/hal/ports/STM32/LLD/GPIOv2/pal_lld.c"
  28              		.loc 1 92 0
  29              		.cfi_startproc
  30              		@ args = 0, pretend = 0, frame = 0
  31              		@ frame_needed = 0, uses_anonymous_args = 0
  32              	.LVL0:
  33 0000 2DE9F04F 		push	{r4, r5, r6, r7, r8, r9, r10, fp, lr}
  34              		.cfi_def_cfa_offset 36
  35              		.cfi_offset 4, -36
  36              		.cfi_offset 5, -32
  37              		.cfi_offset 6, -28
  38              		.cfi_offset 7, -24
  39              		.cfi_offset 8, -20
  40              		.cfi_offset 9, -16
  41              		.cfi_offset 10, -12
  42              		.cfi_offset 11, -8
  43              		.cfi_offset 14, -4
  44              		.loc 1 105 0
  45 0004 DFF8B481 		ldr	r8, .L3+24
  46              	.LBB20:
  47              	.LBB21:
  48              		.loc 1 67 0
  49 0008 DFF8B4C1 		ldr	ip, .L3+28
  50              	.LBE21:
  51              	.LBE20:
  52              		.loc 1 105 0
  53 000c D8F830A0 		ldr	r10, [r8, #48]
  54              	.LBB23:
  55              	.LBB24:
  56              		.loc 1 67 0
  57 0010 DFF8B0E1 		ldr	lr, .L3+32
ARM GAS  C:\Users\jo\AppData\Local\Temp\cc05uoEL.s 			page 2


  58              	.LBE24:
  59              	.LBE23:
  60              	.LBB26:
  61              	.LBB27:
  62 0014 634F     		ldr	r7, .L3
  63              	.LBE27:
  64              	.LBE26:
  65              	.LBB29:
  66              	.LBB30:
  67 0016 644E     		ldr	r6, .L3+4
  68              	.LBE30:
  69              	.LBE29:
  70              	.LBB32:
  71              	.LBB33:
  72 0018 644D     		ldr	r5, .L3+8
  73              	.LBE33:
  74              	.LBE32:
  75              	.LBB35:
  76              	.LBB36:
  77 001a 654C     		ldr	r4, .L3+12
  78              	.LBE36:
  79              	.LBE35:
  80              	.LBB38:
  81              	.LBB39:
  82 001c 6549     		ldr	r1, .L3+16
  83              	.LBE39:
  84              	.LBE38:
  85              	.LBB41:
  86              	.LBB42:
  87 001e 664A     		ldr	r2, .L3+20
  88              	.LBE42:
  89              	.LBE41:
  90              	.LBB44:
  91              	.LBB45:
  92 0020 DFF8A4B1 		ldr	fp, .L3+36
  93              	.LBE45:
  94              	.LBE44:
  95              		.loc 1 105 0
  96 0024 40F2FF19 		movw	r9, #511
  97 0028 4AEA090A 		orr	r10, r10, r9
  98 002c C8F830A0 		str	r10, [r8, #48]
  99              		.loc 1 106 0
 100 0030 D8F850A0 		ldr	r10, [r8, #80]
 101 0034 4AEA0909 		orr	r9, r10, r9
 102 0038 C8F85090 		str	r9, [r8, #80]
 103              	.LVL1:
 104              	.LBB47:
 105              	.LBB22:
 106              		.loc 1 67 0
 107 003c 4368     		ldr	r3, [r0, #4]
 108 003e CCF80430 		str	r3, [ip, #4]
 109              		.loc 1 68 0
 110 0042 8368     		ldr	r3, [r0, #8]
 111 0044 CCF80830 		str	r3, [ip, #8]
 112              		.loc 1 69 0
 113 0048 C368     		ldr	r3, [r0, #12]
 114 004a CCF80C30 		str	r3, [ip, #12]
ARM GAS  C:\Users\jo\AppData\Local\Temp\cc05uoEL.s 			page 3


 115              		.loc 1 70 0
 116 004e 0369     		ldr	r3, [r0, #16]
 117 0050 CCF81430 		str	r3, [ip, #20]
 118              		.loc 1 71 0
 119 0054 4369     		ldr	r3, [r0, #20]
 120 0056 CCF82030 		str	r3, [ip, #32]
 121              		.loc 1 72 0
 122 005a 8369     		ldr	r3, [r0, #24]
 123 005c CCF82430 		str	r3, [ip, #36]
 124              		.loc 1 73 0
 125 0060 0368     		ldr	r3, [r0]
 126 0062 CCF80030 		str	r3, [ip]
 127              	.LVL2:
 128              	.LBE22:
 129              	.LBE47:
 130              	.LBB48:
 131              	.LBB25:
 132              		.loc 1 67 0
 133 0066 036A     		ldr	r3, [r0, #32]
 134 0068 CEF80430 		str	r3, [lr, #4]
 135              		.loc 1 68 0
 136 006c 436A     		ldr	r3, [r0, #36]
 137 006e CEF80830 		str	r3, [lr, #8]
 138              		.loc 1 69 0
 139 0072 836A     		ldr	r3, [r0, #40]
 140 0074 CEF80C30 		str	r3, [lr, #12]
 141              		.loc 1 70 0
 142 0078 C36A     		ldr	r3, [r0, #44]
 143 007a CEF81430 		str	r3, [lr, #20]
 144              		.loc 1 71 0
 145 007e 036B     		ldr	r3, [r0, #48]
 146 0080 CEF82030 		str	r3, [lr, #32]
 147              		.loc 1 72 0
 148 0084 436B     		ldr	r3, [r0, #52]
 149 0086 CEF82430 		str	r3, [lr, #36]
 150              		.loc 1 73 0
 151 008a C369     		ldr	r3, [r0, #28]
 152 008c CEF80030 		str	r3, [lr]
 153              	.LVL3:
 154              	.LBE25:
 155              	.LBE48:
 156              	.LBB49:
 157              	.LBB28:
 158              		.loc 1 67 0
 159 0090 C36B     		ldr	r3, [r0, #60]
 160 0092 7B60     		str	r3, [r7, #4]
 161              		.loc 1 68 0
 162 0094 036C     		ldr	r3, [r0, #64]
 163 0096 BB60     		str	r3, [r7, #8]
 164              		.loc 1 69 0
 165 0098 436C     		ldr	r3, [r0, #68]
 166 009a FB60     		str	r3, [r7, #12]
 167              		.loc 1 70 0
 168 009c 836C     		ldr	r3, [r0, #72]
 169 009e 7B61     		str	r3, [r7, #20]
 170              		.loc 1 71 0
 171 00a0 C36C     		ldr	r3, [r0, #76]
ARM GAS  C:\Users\jo\AppData\Local\Temp\cc05uoEL.s 			page 4


 172 00a2 3B62     		str	r3, [r7, #32]
 173              		.loc 1 72 0
 174 00a4 036D     		ldr	r3, [r0, #80]
 175 00a6 7B62     		str	r3, [r7, #36]
 176              		.loc 1 73 0
 177 00a8 836B     		ldr	r3, [r0, #56]
 178 00aa 3B60     		str	r3, [r7]
 179              	.LVL4:
 180              	.LBE28:
 181              	.LBE49:
 182              	.LBB50:
 183              	.LBB31:
 184              		.loc 1 67 0
 185 00ac 876D     		ldr	r7, [r0, #88]
 186 00ae 7760     		str	r7, [r6, #4]
 187              		.loc 1 68 0
 188 00b0 C76D     		ldr	r7, [r0, #92]
 189 00b2 B760     		str	r7, [r6, #8]
 190              		.loc 1 69 0
 191 00b4 076E     		ldr	r7, [r0, #96]
 192 00b6 F760     		str	r7, [r6, #12]
 193              		.loc 1 70 0
 194 00b8 476E     		ldr	r7, [r0, #100]
 195 00ba 7761     		str	r7, [r6, #20]
 196              		.loc 1 71 0
 197 00bc 876E     		ldr	r7, [r0, #104]
 198 00be 3762     		str	r7, [r6, #32]
 199              		.loc 1 72 0
 200 00c0 C76E     		ldr	r7, [r0, #108]
 201 00c2 7762     		str	r7, [r6, #36]
 202              		.loc 1 73 0
 203 00c4 476D     		ldr	r7, [r0, #84]
 204 00c6 3760     		str	r7, [r6]
 205              	.LVL5:
 206              	.LBE31:
 207              	.LBE50:
 208              	.LBB51:
 209              	.LBB34:
 210              		.loc 1 67 0
 211 00c8 466F     		ldr	r6, [r0, #116]
 212 00ca 6E60     		str	r6, [r5, #4]
 213              		.loc 1 68 0
 214 00cc 866F     		ldr	r6, [r0, #120]
 215 00ce AE60     		str	r6, [r5, #8]
 216              		.loc 1 69 0
 217 00d0 C66F     		ldr	r6, [r0, #124]
 218 00d2 EE60     		str	r6, [r5, #12]
 219              		.loc 1 70 0
 220 00d4 D0F88060 		ldr	r6, [r0, #128]
 221 00d8 6E61     		str	r6, [r5, #20]
 222              		.loc 1 71 0
 223 00da D0F88460 		ldr	r6, [r0, #132]
 224 00de 2E62     		str	r6, [r5, #32]
 225              		.loc 1 72 0
 226 00e0 D0F88860 		ldr	r6, [r0, #136]
 227 00e4 6E62     		str	r6, [r5, #36]
 228              		.loc 1 73 0
ARM GAS  C:\Users\jo\AppData\Local\Temp\cc05uoEL.s 			page 5


 229 00e6 066F     		ldr	r6, [r0, #112]
 230 00e8 2E60     		str	r6, [r5]
 231              	.LVL6:
 232              	.LBE34:
 233              	.LBE51:
 234              	.LBB52:
 235              	.LBB37:
 236              		.loc 1 67 0
 237 00ea D0F89050 		ldr	r5, [r0, #144]
 238 00ee 6560     		str	r5, [r4, #4]
 239              		.loc 1 68 0
 240 00f0 D0F89450 		ldr	r5, [r0, #148]
 241 00f4 A560     		str	r5, [r4, #8]
 242              		.loc 1 69 0
 243 00f6 D0F89850 		ldr	r5, [r0, #152]
 244 00fa E560     		str	r5, [r4, #12]
 245              		.loc 1 70 0
 246 00fc D0F89C50 		ldr	r5, [r0, #156]
 247 0100 6561     		str	r5, [r4, #20]
 248              		.loc 1 71 0
 249 0102 D0F8A050 		ldr	r5, [r0, #160]
 250 0106 2562     		str	r5, [r4, #32]
 251              		.loc 1 72 0
 252 0108 D0F8A450 		ldr	r5, [r0, #164]
 253 010c 6562     		str	r5, [r4, #36]
 254              		.loc 1 73 0
 255 010e D0F88C50 		ldr	r5, [r0, #140]
 256 0112 2560     		str	r5, [r4]
 257              	.LVL7:
 258              	.LBE37:
 259              	.LBE52:
 260              	.LBB53:
 261              	.LBB40:
 262              		.loc 1 67 0
 263 0114 D0F8AC40 		ldr	r4, [r0, #172]
 264 0118 4C60     		str	r4, [r1, #4]
 265              		.loc 1 68 0
 266 011a D0F8B040 		ldr	r4, [r0, #176]
 267 011e 8C60     		str	r4, [r1, #8]
 268              		.loc 1 69 0
 269 0120 D0F8B440 		ldr	r4, [r0, #180]
 270 0124 CC60     		str	r4, [r1, #12]
 271              		.loc 1 70 0
 272 0126 D0F8B840 		ldr	r4, [r0, #184]
 273 012a 4C61     		str	r4, [r1, #20]
 274              		.loc 1 71 0
 275 012c D0F8BC40 		ldr	r4, [r0, #188]
 276 0130 0C62     		str	r4, [r1, #32]
 277              		.loc 1 72 0
 278 0132 D0F8C040 		ldr	r4, [r0, #192]
 279 0136 4C62     		str	r4, [r1, #36]
 280              		.loc 1 73 0
 281 0138 D0F8A840 		ldr	r4, [r0, #168]
 282 013c 0C60     		str	r4, [r1]
 283              	.LVL8:
 284              	.LBE40:
 285              	.LBE53:
ARM GAS  C:\Users\jo\AppData\Local\Temp\cc05uoEL.s 			page 6


 286              	.LBB54:
 287              	.LBB43:
 288              		.loc 1 67 0
 289 013e D0F8C810 		ldr	r1, [r0, #200]
 290 0142 5160     		str	r1, [r2, #4]
 291              		.loc 1 68 0
 292 0144 D0F8CC10 		ldr	r1, [r0, #204]
 293 0148 9160     		str	r1, [r2, #8]
 294              		.loc 1 69 0
 295 014a D0F8D010 		ldr	r1, [r0, #208]
 296 014e D160     		str	r1, [r2, #12]
 297              		.loc 1 70 0
 298 0150 D0F8D410 		ldr	r1, [r0, #212]
 299 0154 5161     		str	r1, [r2, #20]
 300              		.loc 1 71 0
 301 0156 D0F8D810 		ldr	r1, [r0, #216]
 302 015a 1162     		str	r1, [r2, #32]
 303              		.loc 1 72 0
 304 015c D0F8DC10 		ldr	r1, [r0, #220]
 305 0160 5162     		str	r1, [r2, #36]
 306              		.loc 1 73 0
 307 0162 D0F8C410 		ldr	r1, [r0, #196]
 308 0166 1160     		str	r1, [r2]
 309              	.LVL9:
 310              	.LBE43:
 311              	.LBE54:
 312              	.LBB55:
 313              	.LBB46:
 314              		.loc 1 67 0
 315 0168 D0F8E420 		ldr	r2, [r0, #228]
 316 016c CBF80420 		str	r2, [fp, #4]
 317              		.loc 1 68 0
 318 0170 D0F8E820 		ldr	r2, [r0, #232]
 319 0174 CBF80820 		str	r2, [fp, #8]
 320              		.loc 1 69 0
 321 0178 D0F8EC20 		ldr	r2, [r0, #236]
 322 017c CBF80C20 		str	r2, [fp, #12]
 323              		.loc 1 70 0
 324 0180 D0F8F020 		ldr	r2, [r0, #240]
 325 0184 CBF81420 		str	r2, [fp, #20]
 326              		.loc 1 71 0
 327 0188 D0F8F420 		ldr	r2, [r0, #244]
 328 018c CBF82020 		str	r2, [fp, #32]
 329              		.loc 1 72 0
 330 0190 D0F8F820 		ldr	r2, [r0, #248]
 331 0194 CBF82420 		str	r2, [fp, #36]
 332              		.loc 1 73 0
 333 0198 D0F8E020 		ldr	r2, [r0, #224]
 334 019c CBF80020 		str	r2, [fp]
 335 01a0 BDE8F08F 		pop	{r4, r5, r6, r7, r8, r9, r10, fp, pc}
 336              	.L4:
 337              		.align	2
 338              	.L3:
 339 01a4 00080240 		.word	1073874944
 340 01a8 000C0240 		.word	1073875968
 341 01ac 00100240 		.word	1073876992
 342 01b0 00140240 		.word	1073878016
ARM GAS  C:\Users\jo\AppData\Local\Temp\cc05uoEL.s 			page 7


 343 01b4 00180240 		.word	1073879040
 344 01b8 001C0240 		.word	1073880064
 345 01bc 00380240 		.word	1073887232
 346 01c0 00000240 		.word	1073872896
 347 01c4 00040240 		.word	1073873920
 348 01c8 00200240 		.word	1073881088
 349              	.LBE46:
 350              	.LBE55:
 351              		.cfi_endproc
 352              	.LFE256:
 353              		.size	_pal_lld_init, .-_pal_lld_init
 354 01cc AFF30080 		.section	.text._pal_lld_setgroupmode,"ax",%progbits
 355              		.align	2
 356              		.p2align 4,,15
 357              		.global	_pal_lld_setgroupmode
 358              		.thumb
 359              		.thumb_func
 360              		.type	_pal_lld_setgroupmode, %function
 361              	_pal_lld_setgroupmode:
 362              	.LFB257:
 363              		.loc 1 157 0
 364              		.cfi_startproc
 365              		@ args = 0, pretend = 0, frame = 0
 366              		@ frame_needed = 0, uses_anonymous_args = 0
 367              	.LVL10:
 368 0000 2DE9F04F 		push	{r4, r5, r6, r7, r8, r9, r10, fp, lr}
 369              		.cfi_def_cfa_offset 36
 370              		.cfi_offset 4, -36
 371              		.cfi_offset 5, -32
 372              		.cfi_offset 6, -28
 373              		.cfi_offset 7, -24
 374              		.cfi_offset 8, -20
 375              		.cfi_offset 9, -16
 376              		.cfi_offset 10, -12
 377              		.cfi_offset 11, -8
 378              		.cfi_offset 14, -4
 379              	.LBB56:
 380              		.loc 1 170 0
 381 0004 4FF00F0C 		mov	ip, #15
 382              	.LBE56:
 383              		.loc 1 159 0
 384 0008 02F0030E 		and	lr, r2, #3
 385              	.LVL11:
 386              		.loc 1 160 0
 387 000c C2F38007 		ubfx	r7, r2, #2, #1
 388              	.LVL12:
 389              		.loc 1 161 0
 390 0010 C2F3C106 		ubfx	r6, r2, #3, #2
 391              	.LVL13:
 392              		.loc 1 162 0
 393 0014 C2F34115 		ubfx	r5, r2, #5, #2
 394              	.LVL14:
 395              		.loc 1 164 0
 396 0018 0024     		movs	r4, #0
 397              		.loc 1 163 0
 398 001a C2F3C312 		ubfx	r2, r2, #7, #4
 399              	.LVL15:
ARM GAS  C:\Users\jo\AppData\Local\Temp\cc05uoEL.s 			page 8


 400              	.LBB57:
 401              		.loc 1 175 0
 402 001e 4FF00109 		mov	r9, #1
 403              		.loc 1 177 0
 404 0022 4FF00308 		mov	r8, #3
 405 0026 2BE0     		b	.L10
 406              	.LVL16:
 407              	.L16:
 408              		.loc 1 172 0
 409 0028 D0F820B0 		ldr	fp, [r0, #32]
 410 002c 2BEA0303 		bic	r3, fp, r3
 411              	.LVL17:
 412 0030 43EA0A03 		orr	r3, r3, r10
 413 0034 0362     		str	r3, [r0, #32]
 414              	.L8:
 415              	.LVL18:
 416              		.loc 1 176 0
 417 0036 4368     		ldr	r3, [r0, #4]
 418              		.loc 1 175 0
 419 0038 09FA04FA 		lsl	r10, r9, r4
 420              	.LVL19:
 421              		.loc 1 176 0
 422 003c 23EA0A03 		bic	r3, r3, r10
 423 0040 3B43     		orrs	r3, r3, r7
 424 0042 4360     		str	r3, [r0, #4]
 425              	.LVL20:
 426 0044 4FEA440A 		lsl	r10, r4, #1
 427              		.loc 1 178 0
 428 0048 8368     		ldr	r3, [r0, #8]
 429              		.loc 1 177 0
 430 004a 08FA0AFA 		lsl	r10, r8, r10
 431              		.loc 1 178 0
 432 004e 6FEA0A0A 		mvn	r10, r10
 433 0052 0AEA0303 		and	r3, r10, r3
 434 0056 3343     		orrs	r3, r3, r6
 435 0058 8360     		str	r3, [r0, #8]
 436              		.loc 1 179 0
 437 005a C368     		ldr	r3, [r0, #12]
 438 005c 0AEA0303 		and	r3, r10, r3
 439 0060 2B43     		orrs	r3, r3, r5
 440 0062 C360     		str	r3, [r0, #12]
 441              		.loc 1 180 0
 442 0064 0368     		ldr	r3, [r0]
 443 0066 0AEA0303 		and	r3, r10, r3
 444 006a 43EA0E03 		orr	r3, r3, lr
 445 006e 0360     		str	r3, [r0]
 446              	.LVL21:
 447              	.L6:
 448              	.LBE57:
 449              		.loc 1 183 0
 450 0070 4908     		lsrs	r1, r1, #1
 451              	.LVL22:
 452 0072 19D0     		beq	.L5
 453              		.loc 1 185 0
 454 0074 7F00     		lsls	r7, r7, #1
 455              	.LVL23:
 456              		.loc 1 186 0
ARM GAS  C:\Users\jo\AppData\Local\Temp\cc05uoEL.s 			page 9


 457 0076 B600     		lsls	r6, r6, #2
 458              	.LVL24:
 459              		.loc 1 187 0
 460 0078 AD00     		lsls	r5, r5, #2
 461              	.LVL25:
 462              		.loc 1 188 0
 463 007a 4FEA8E0E 		lsl	lr, lr, #2
 464              	.LVL26:
 465              		.loc 1 189 0
 466 007e 0134     		adds	r4, r4, #1
 467              	.LVL27:
 468              	.L10:
 469              	.LBB58:
 470              		.loc 1 169 0
 471 0080 04F00703 		and	r3, r4, #7
 472 0084 9B00     		lsls	r3, r3, #2
 473              	.LBE58:
 474              		.loc 1 166 0
 475 0086 11F0010F 		tst	r1, #1
 476              	.LBB59:
 477              		.loc 1 169 0
 478 008a 02FA03FA 		lsl	r10, r2, r3
 479              	.LVL28:
 480              		.loc 1 170 0
 481 008e 0CFA03F3 		lsl	r3, ip, r3
 482              	.LVL29:
 483              	.LBE59:
 484              		.loc 1 166 0
 485 0092 EDD0     		beq	.L6
 486              	.LBB60:
 487              		.loc 1 171 0
 488 0094 072C     		cmp	r4, #7
 489 0096 C7D9     		bls	.L16
 490              		.loc 1 174 0
 491 0098 D0F824B0 		ldr	fp, [r0, #36]
 492 009c 2BEA0303 		bic	r3, fp, r3
 493              	.LVL30:
 494 00a0 43EA0A03 		orr	r3, r3, r10
 495 00a4 4362     		str	r3, [r0, #36]
 496 00a6 C6E7     		b	.L8
 497              	.LVL31:
 498              	.L5:
 499 00a8 BDE8F08F 		pop	{r4, r5, r6, r7, r8, r9, r10, fp, pc}
 500              	.LBE60:
 501              		.cfi_endproc
 502              	.LFE257:
 503              		.size	_pal_lld_setgroupmode, .-_pal_lld_setgroupmode
 504 00ac AFF30080 		.text
 505              	.Letext0:
 506              		.file 2 "c:\\program files\\gnu tools arm embedded\\4.9 2014q4\\arm-none-eabi\\include\\machine\\_
 507              		.file 3 "c:\\program files\\gnu tools arm embedded\\4.9 2014q4\\arm-none-eabi\\include\\stdint.h"
 508              		.file 4 "../../../os/rt/ports/ARMCMx/compilers/GCC/chtypes.h"
 509              		.file 5 "../../../os/rt/include/chsystypes.h"
 510              		.file 6 "../../../os/rt/include/chschd.h"
 511              		.file 7 "../../../os/ext/CMSIS/ST/stm32f407xx.h"
 512              		.file 8 "../../../os/rt/ports/ARMCMx/chcore.h"
 513              		.file 9 "../../../os/rt/ports/ARMCMx/chcore_v7m.h"
ARM GAS  C:\Users\jo\AppData\Local\Temp\cc05uoEL.s 			page 10


 514              		.file 10 "../../../os/rt/include/chdebug.h"
 515              		.file 11 "../../../os/rt/include/chtm.h"
 516              		.file 12 "../../../os/rt/include/chstats.h"
 517              		.file 13 "../../../os/rt/include/chmtx.h"
 518              		.file 14 "../../../os/hal/ports/STM32/LLD/GPIOv2/pal_lld.h"
 519              		.file 15 "../../../os/ext/CMSIS/include/core_cm4.h"
 520              		.section	.debug_info,"",%progbits
 521              	.Ldebug_info0:
 522 0000 9B0D0000 		.4byte	0xd9b
 523 0004 0400     		.2byte	0x4
 524 0006 00000000 		.4byte	.Ldebug_abbrev0
 525 000a 04       		.byte	0x4
 526 000b 01       		.uleb128 0x1
 527 000c 9A030000 		.4byte	.LASF192
 528 0010 01       		.byte	0x1
 529 0011 23080000 		.4byte	.LASF193
 530 0015 38010000 		.4byte	.LASF194
 531 0019 08010000 		.4byte	.Ldebug_ranges0+0x108
 532 001d 00000000 		.4byte	0
 533 0021 00000000 		.4byte	.Ldebug_line0
 534 0025 02       		.uleb128 0x2
 535 0026 04       		.byte	0x4
 536 0027 05       		.byte	0x5
 537 0028 696E7400 		.ascii	"int\000"
 538 002c 03       		.uleb128 0x3
 539 002d 04       		.byte	0x4
 540 002e 07       		.byte	0x7
 541 002f B4020000 		.4byte	.LASF0
 542 0033 03       		.uleb128 0x3
 543 0034 01       		.byte	0x1
 544 0035 06       		.byte	0x6
 545 0036 94010000 		.4byte	.LASF1
 546 003a 04       		.uleb128 0x4
 547 003b 3F000000 		.4byte	.LASF4
 548 003f 02       		.byte	0x2
 549 0040 1D       		.byte	0x1d
 550 0041 45000000 		.4byte	0x45
 551 0045 03       		.uleb128 0x3
 552 0046 01       		.byte	0x1
 553 0047 08       		.byte	0x8
 554 0048 D6050000 		.4byte	.LASF2
 555 004c 03       		.uleb128 0x3
 556 004d 02       		.byte	0x2
 557 004e 05       		.byte	0x5
 558 004f F3050000 		.4byte	.LASF3
 559 0053 04       		.uleb128 0x4
 560 0054 D0060000 		.4byte	.LASF5
 561 0058 02       		.byte	0x2
 562 0059 2B       		.byte	0x2b
 563 005a 5E000000 		.4byte	0x5e
 564 005e 03       		.uleb128 0x3
 565 005f 02       		.byte	0x2
 566 0060 07       		.byte	0x7
 567 0061 EE020000 		.4byte	.LASF6
 568 0065 04       		.uleb128 0x4
 569 0066 89030000 		.4byte	.LASF7
 570 006a 02       		.byte	0x2
ARM GAS  C:\Users\jo\AppData\Local\Temp\cc05uoEL.s 			page 11


 571 006b 3F       		.byte	0x3f
 572 006c 70000000 		.4byte	0x70
 573 0070 03       		.uleb128 0x3
 574 0071 04       		.byte	0x4
 575 0072 05       		.byte	0x5
 576 0073 DA010000 		.4byte	.LASF8
 577 0077 04       		.uleb128 0x4
 578 0078 17070000 		.4byte	.LASF9
 579 007c 02       		.byte	0x2
 580 007d 41       		.byte	0x41
 581 007e 82000000 		.4byte	0x82
 582 0082 03       		.uleb128 0x3
 583 0083 04       		.byte	0x4
 584 0084 07       		.byte	0x7
 585 0085 A8060000 		.4byte	.LASF10
 586 0089 03       		.uleb128 0x3
 587 008a 08       		.byte	0x8
 588 008b 05       		.byte	0x5
 589 008c 86010000 		.4byte	.LASF11
 590 0090 04       		.uleb128 0x4
 591 0091 39050000 		.4byte	.LASF12
 592 0095 02       		.byte	0x2
 593 0096 5B       		.byte	0x5b
 594 0097 9B000000 		.4byte	0x9b
 595 009b 03       		.uleb128 0x3
 596 009c 08       		.byte	0x8
 597 009d 07       		.byte	0x7
 598 009e AF000000 		.4byte	.LASF13
 599 00a2 04       		.uleb128 0x4
 600 00a3 D9070000 		.4byte	.LASF14
 601 00a7 03       		.byte	0x3
 602 00a8 15       		.byte	0x15
 603 00a9 3A000000 		.4byte	0x3a
 604 00ad 04       		.uleb128 0x4
 605 00ae 03020000 		.4byte	.LASF15
 606 00b2 03       		.byte	0x3
 607 00b3 21       		.byte	0x21
 608 00b4 53000000 		.4byte	0x53
 609 00b8 04       		.uleb128 0x4
 610 00b9 CE050000 		.4byte	.LASF16
 611 00bd 03       		.byte	0x3
 612 00be 2C       		.byte	0x2c
 613 00bf 65000000 		.4byte	0x65
 614 00c3 04       		.uleb128 0x4
 615 00c4 7E060000 		.4byte	.LASF17
 616 00c8 03       		.byte	0x3
 617 00c9 2D       		.byte	0x2d
 618 00ca 77000000 		.4byte	0x77
 619 00ce 04       		.uleb128 0x4
 620 00cf 36000000 		.4byte	.LASF18
 621 00d3 03       		.byte	0x3
 622 00d4 39       		.byte	0x39
 623 00d5 90000000 		.4byte	0x90
 624 00d9 05       		.uleb128 0x5
 625 00da B8000000 		.4byte	0xb8
 626 00de 05       		.uleb128 0x5
 627 00df C3000000 		.4byte	0xc3
ARM GAS  C:\Users\jo\AppData\Local\Temp\cc05uoEL.s 			page 12


 628 00e3 04       		.uleb128 0x4
 629 00e4 82070000 		.4byte	.LASF19
 630 00e8 04       		.byte	0x4
 631 00e9 45       		.byte	0x45
 632 00ea C3000000 		.4byte	0xc3
 633 00ee 04       		.uleb128 0x4
 634 00ef 1E010000 		.4byte	.LASF20
 635 00f3 04       		.byte	0x4
 636 00f4 46       		.byte	0x46
 637 00f5 CE000000 		.4byte	0xce
 638 00f9 04       		.uleb128 0x4
 639 00fa 2B060000 		.4byte	.LASF21
 640 00fe 04       		.byte	0x4
 641 00ff 48       		.byte	0x48
 642 0100 A2000000 		.4byte	0xa2
 643 0104 04       		.uleb128 0x4
 644 0105 F4010000 		.4byte	.LASF22
 645 0109 04       		.byte	0x4
 646 010a 49       		.byte	0x49
 647 010b A2000000 		.4byte	0xa2
 648 010f 04       		.uleb128 0x4
 649 0110 66050000 		.4byte	.LASF23
 650 0114 04       		.byte	0x4
 651 0115 4A       		.byte	0x4a
 652 0116 A2000000 		.4byte	0xa2
 653 011a 04       		.uleb128 0x4
 654 011b B1050000 		.4byte	.LASF24
 655 011f 04       		.byte	0x4
 656 0120 4C       		.byte	0x4c
 657 0121 C3000000 		.4byte	0xc3
 658 0125 04       		.uleb128 0x4
 659 0126 2E030000 		.4byte	.LASF25
 660 012a 04       		.byte	0x4
 661 012b 4D       		.byte	0x4d
 662 012c B8000000 		.4byte	0xb8
 663 0130 04       		.uleb128 0x4
 664 0131 7D030000 		.4byte	.LASF26
 665 0135 04       		.byte	0x4
 666 0136 4F       		.byte	0x4f
 667 0137 C3000000 		.4byte	0xc3
 668 013b 04       		.uleb128 0x4
 669 013c A3020000 		.4byte	.LASF27
 670 0140 04       		.byte	0x4
 671 0141 51       		.byte	0x51
 672 0142 B8000000 		.4byte	0xb8
 673 0146 04       		.uleb128 0x4
 674 0147 3D030000 		.4byte	.LASF28
 675 014b 04       		.byte	0x4
 676 014c 52       		.byte	0x52
 677 014d C3000000 		.4byte	0xc3
 678 0151 04       		.uleb128 0x4
 679 0152 F9060000 		.4byte	.LASF29
 680 0156 05       		.byte	0x5
 681 0157 33       		.byte	0x33
 682 0158 C3000000 		.4byte	0xc3
 683 015c 04       		.uleb128 0x4
 684 015d E4060000 		.4byte	.LASF30
ARM GAS  C:\Users\jo\AppData\Local\Temp\cc05uoEL.s 			page 13


 685 0161 05       		.byte	0x5
 686 0162 3F       		.byte	0x3f
 687 0163 67010000 		.4byte	0x167
 688 0167 06       		.uleb128 0x6
 689 0168 10030000 		.4byte	.LASF51
 690 016c 60       		.byte	0x60
 691 016d 06       		.byte	0x6
 692 016e BE       		.byte	0xbe
 693 016f 6D020000 		.4byte	0x26d
 694 0173 07       		.uleb128 0x7
 695 0174 24060000 		.4byte	.LASF31
 696 0178 06       		.byte	0x6
 697 0179 BF       		.byte	0xbf
 698 017a 60070000 		.4byte	0x760
 699 017e 00       		.byte	0
 700 017f 07       		.uleb128 0x7
 701 0180 A0050000 		.4byte	.LASF32
 702 0184 06       		.byte	0x6
 703 0185 C1       		.byte	0xc1
 704 0186 60070000 		.4byte	0x760
 705 018a 04       		.byte	0x4
 706 018b 07       		.uleb128 0x7
 707 018c 31010000 		.4byte	.LASF33
 708 0190 06       		.byte	0x6
 709 0191 C3       		.byte	0xc3
 710 0192 1A010000 		.4byte	0x11a
 711 0196 08       		.byte	0x8
 712 0197 07       		.uleb128 0x7
 713 0198 7A080000 		.4byte	.LASF34
 714 019c 06       		.byte	0x6
 715 019d C4       		.byte	0xc4
 716 019e 7B060000 		.4byte	0x67b
 717 01a2 0C       		.byte	0xc
 718 01a3 07       		.uleb128 0x7
 719 01a4 15020000 		.4byte	.LASF35
 720 01a8 06       		.byte	0x6
 721 01a9 C6       		.byte	0xc6
 722 01aa 60070000 		.4byte	0x760
 723 01ae 10       		.byte	0x10
 724 01af 07       		.uleb128 0x7
 725 01b0 F1040000 		.4byte	.LASF36
 726 01b4 06       		.byte	0x6
 727 01b5 C7       		.byte	0xc7
 728 01b6 60070000 		.4byte	0x760
 729 01ba 14       		.byte	0x14
 730 01bb 07       		.uleb128 0x7
 731 01bc EE070000 		.4byte	.LASF37
 732 01c0 06       		.byte	0x6
 733 01c1 CE       		.byte	0xce
 734 01c2 1C070000 		.4byte	0x71c
 735 01c6 18       		.byte	0x18
 736 01c7 07       		.uleb128 0x7
 737 01c8 A9020000 		.4byte	.LASF38
 738 01cc 06       		.byte	0x6
 739 01cd D4       		.byte	0xd4
 740 01ce AA080000 		.4byte	0x8aa
 741 01d2 1C       		.byte	0x1c
ARM GAS  C:\Users\jo\AppData\Local\Temp\cc05uoEL.s 			page 14


 742 01d3 07       		.uleb128 0x7
 743 01d4 FD050000 		.4byte	.LASF39
 744 01d8 06       		.byte	0x6
 745 01d9 D9       		.byte	0xd9
 746 01da 04010000 		.4byte	0x104
 747 01de 20       		.byte	0x20
 748 01df 07       		.uleb128 0x7
 749 01e0 33060000 		.4byte	.LASF40
 750 01e4 06       		.byte	0x6
 751 01e5 DD       		.byte	0xdd
 752 01e6 F9000000 		.4byte	0xf9
 753 01ea 21       		.byte	0x21
 754 01eb 07       		.uleb128 0x7
 755 01ec B1070000 		.4byte	.LASF41
 756 01f0 06       		.byte	0x6
 757 01f1 E2       		.byte	0xe2
 758 01f2 0F010000 		.4byte	0x10f
 759 01f6 22       		.byte	0x22
 760 01f7 08       		.uleb128 0x8
 761 01f8 705F7500 		.ascii	"p_u\000"
 762 01fc 06       		.byte	0x6
 763 01fd 1401     		.2byte	0x114
 764 01ff 72080000 		.4byte	0x872
 765 0203 24       		.byte	0x24
 766 0204 09       		.uleb128 0x9
 767 0205 9E040000 		.4byte	.LASF42
 768 0209 06       		.byte	0x6
 769 020a 1901     		.2byte	0x119
 770 020c 6D020000 		.4byte	0x26d
 771 0210 28       		.byte	0x28
 772 0211 09       		.uleb128 0x9
 773 0212 C9020000 		.4byte	.LASF43
 774 0216 06       		.byte	0x6
 775 0217 1F01     		.2byte	0x11f
 776 0219 91020000 		.4byte	0x291
 777 021d 2C       		.byte	0x2c
 778 021e 09       		.uleb128 0x9
 779 021f 16080000 		.4byte	.LASF44
 780 0223 06       		.byte	0x6
 781 0224 2301     		.2byte	0x123
 782 0226 25010000 		.4byte	0x125
 783 022a 34       		.byte	0x34
 784 022b 09       		.uleb128 0x9
 785 022c 69060000 		.4byte	.LASF45
 786 0230 06       		.byte	0x6
 787 0231 2901     		.2byte	0x129
 788 0233 30010000 		.4byte	0x130
 789 0237 38       		.byte	0x38
 790 0238 09       		.uleb128 0x9
 791 0239 E9050000 		.4byte	.LASF46
 792 023d 06       		.byte	0x6
 793 023e 3001     		.2byte	0x130
 794 0240 E1080000 		.4byte	0x8e1
 795 0244 3C       		.byte	0x3c
 796 0245 09       		.uleb128 0x9
 797 0246 03070000 		.4byte	.LASF47
 798 024a 06       		.byte	0x6
ARM GAS  C:\Users\jo\AppData\Local\Temp\cc05uoEL.s 			page 15


 799 024b 3401     		.2byte	0x134
 800 024d 1A010000 		.4byte	0x11a
 801 0251 40       		.byte	0x40
 802 0252 09       		.uleb128 0x9
 803 0253 AE010000 		.4byte	.LASF48
 804 0257 06       		.byte	0x6
 805 0258 3A01     		.2byte	0x13a
 806 025a 44030000 		.4byte	0x344
 807 025e 44       		.byte	0x44
 808 025f 09       		.uleb128 0x9
 809 0260 3B060000 		.4byte	.LASF49
 810 0264 06       		.byte	0x6
 811 0265 4001     		.2byte	0x140
 812 0267 23080000 		.4byte	0x823
 813 026b 48       		.byte	0x48
 814 026c 00       		.byte	0
 815 026d 04       		.uleb128 0x4
 816 026e 7F040000 		.4byte	.LASF50
 817 0272 05       		.byte	0x5
 818 0273 44       		.byte	0x44
 819 0274 78020000 		.4byte	0x278
 820 0278 06       		.uleb128 0x6
 821 0279 98060000 		.4byte	.LASF52
 822 027d 04       		.byte	0x4
 823 027e 06       		.byte	0x6
 824 027f AC       		.byte	0xac
 825 0280 91020000 		.4byte	0x291
 826 0284 07       		.uleb128 0x7
 827 0285 24060000 		.4byte	.LASF31
 828 0289 06       		.byte	0x6
 829 028a AD       		.byte	0xad
 830 028b 60070000 		.4byte	0x760
 831 028f 00       		.byte	0
 832 0290 00       		.byte	0
 833 0291 04       		.uleb128 0x4
 834 0292 A1070000 		.4byte	.LASF53
 835 0296 05       		.byte	0x5
 836 0297 4B       		.byte	0x4b
 837 0298 9C020000 		.4byte	0x29c
 838 029c 06       		.uleb128 0x6
 839 029d 5C000000 		.4byte	.LASF54
 840 02a1 08       		.byte	0x8
 841 02a2 06       		.byte	0x6
 842 02a3 B3       		.byte	0xb3
 843 02a4 C1020000 		.4byte	0x2c1
 844 02a8 07       		.uleb128 0x7
 845 02a9 24060000 		.4byte	.LASF31
 846 02ad 06       		.byte	0x6
 847 02ae B4       		.byte	0xb4
 848 02af 60070000 		.4byte	0x760
 849 02b3 00       		.byte	0
 850 02b4 07       		.uleb128 0x7
 851 02b5 A0050000 		.4byte	.LASF32
 852 02b9 06       		.byte	0x6
 853 02ba B5       		.byte	0xb5
 854 02bb 60070000 		.4byte	0x760
 855 02bf 04       		.byte	0x4
ARM GAS  C:\Users\jo\AppData\Local\Temp\cc05uoEL.s 			page 16


 856 02c0 00       		.byte	0
 857 02c1 04       		.uleb128 0x4
 858 02c2 1A000000 		.4byte	.LASF55
 859 02c6 05       		.byte	0x5
 860 02c7 52       		.byte	0x52
 861 02c8 CC020000 		.4byte	0x2cc
 862 02cc 0A       		.uleb128 0xa
 863 02cd 6F030000 		.4byte	.LASF56
 864 02d1 1C       		.byte	0x1c
 865 02d2 06       		.byte	0x6
 866 02d3 7201     		.2byte	0x172
 867 02d5 28030000 		.4byte	0x328
 868 02d9 09       		.uleb128 0x9
 869 02da 87060000 		.4byte	.LASF57
 870 02de 06       		.byte	0x6
 871 02df 7301     		.2byte	0x173
 872 02e1 91020000 		.4byte	0x291
 873 02e5 00       		.byte	0
 874 02e6 09       		.uleb128 0x9
 875 02e7 0F060000 		.4byte	.LASF58
 876 02eb 06       		.byte	0x6
 877 02ec 7401     		.2byte	0x174
 878 02ee 1A010000 		.4byte	0x11a
 879 02f2 08       		.byte	0x8
 880 02f3 09       		.uleb128 0x9
 881 02f4 F9040000 		.4byte	.LASF59
 882 02f8 06       		.byte	0x6
 883 02f9 7601     		.2byte	0x176
 884 02fb 7B060000 		.4byte	0x67b
 885 02ff 0C       		.byte	0xc
 886 0300 09       		.uleb128 0x9
 887 0301 35020000 		.4byte	.LASF60
 888 0305 06       		.byte	0x6
 889 0306 7901     		.2byte	0x179
 890 0308 60070000 		.4byte	0x760
 891 030c 10       		.byte	0x10
 892 030d 09       		.uleb128 0x9
 893 030e 64070000 		.4byte	.LASF61
 894 0312 06       		.byte	0x6
 895 0313 7A01     		.2byte	0x17a
 896 0315 60070000 		.4byte	0x760
 897 0319 14       		.byte	0x14
 898 031a 09       		.uleb128 0x9
 899 031b 26050000 		.4byte	.LASF62
 900 031f 06       		.byte	0x6
 901 0320 7D01     		.2byte	0x17d
 902 0322 60070000 		.4byte	0x760
 903 0326 18       		.byte	0x18
 904 0327 00       		.byte	0
 905 0328 04       		.uleb128 0x4
 906 0329 0E070000 		.4byte	.LASF63
 907 032d 05       		.byte	0x5
 908 032e 57       		.byte	0x57
 909 032f 33030000 		.4byte	0x333
 910 0333 0B       		.uleb128 0xb
 911 0334 04       		.byte	0x4
 912 0335 39030000 		.4byte	0x339
ARM GAS  C:\Users\jo\AppData\Local\Temp\cc05uoEL.s 			page 17


 913 0339 0C       		.uleb128 0xc
 914 033a 44030000 		.4byte	0x344
 915 033e 0D       		.uleb128 0xd
 916 033f 44030000 		.4byte	0x344
 917 0343 00       		.byte	0
 918 0344 0E       		.uleb128 0xe
 919 0345 04       		.byte	0x4
 920 0346 04       		.uleb128 0x4
 921 0347 8E040000 		.4byte	.LASF64
 922 034b 05       		.byte	0x5
 923 034c 5C       		.byte	0x5c
 924 034d 51030000 		.4byte	0x351
 925 0351 0A       		.uleb128 0xa
 926 0352 58060000 		.4byte	.LASF65
 927 0356 14       		.byte	0x14
 928 0357 06       		.byte	0x6
 929 0358 4D01     		.2byte	0x14d
 930 035a A0030000 		.4byte	0x3a0
 931 035e 09       		.uleb128 0x9
 932 035f C1020000 		.4byte	.LASF66
 933 0363 06       		.byte	0x6
 934 0364 4E01     		.2byte	0x14e
 935 0366 E7080000 		.4byte	0x8e7
 936 036a 00       		.byte	0
 937 036b 09       		.uleb128 0x9
 938 036c 4B020000 		.4byte	.LASF67
 939 0370 06       		.byte	0x6
 940 0371 4F01     		.2byte	0x14f
 941 0373 E7080000 		.4byte	0x8e7
 942 0377 04       		.byte	0x4
 943 0378 09       		.uleb128 0x9
 944 0379 8F060000 		.4byte	.LASF68
 945 037d 06       		.byte	0x6
 946 037e 5001     		.2byte	0x150
 947 0380 51010000 		.4byte	0x151
 948 0384 08       		.byte	0x8
 949 0385 09       		.uleb128 0x9
 950 0386 80080000 		.4byte	.LASF69
 951 038a 06       		.byte	0x6
 952 038b 5101     		.2byte	0x151
 953 038d 28030000 		.4byte	0x328
 954 0391 0C       		.byte	0xc
 955 0392 09       		.uleb128 0x9
 956 0393 8A070000 		.4byte	.LASF70
 957 0397 06       		.byte	0x6
 958 0398 5301     		.2byte	0x153
 959 039a 44030000 		.4byte	0x344
 960 039e 10       		.byte	0x10
 961 039f 00       		.byte	0
 962 03a0 04       		.uleb128 0x4
 963 03a1 FB000000 		.4byte	.LASF71
 964 03a5 05       		.byte	0x5
 965 03a6 61       		.byte	0x61
 966 03a7 AB030000 		.4byte	0x3ab
 967 03ab 0A       		.uleb128 0xa
 968 03ac B1040000 		.4byte	.LASF72
 969 03b0 10       		.byte	0x10
ARM GAS  C:\Users\jo\AppData\Local\Temp\cc05uoEL.s 			page 18


 970 03b1 06       		.byte	0x6
 971 03b2 5D01     		.2byte	0x15d
 972 03b4 ED030000 		.4byte	0x3ed
 973 03b8 09       		.uleb128 0x9
 974 03b9 C1020000 		.4byte	.LASF66
 975 03bd 06       		.byte	0x6
 976 03be 5E01     		.2byte	0x15e
 977 03c0 E7080000 		.4byte	0x8e7
 978 03c4 00       		.byte	0
 979 03c5 09       		.uleb128 0x9
 980 03c6 4B020000 		.4byte	.LASF67
 981 03ca 06       		.byte	0x6
 982 03cb 6001     		.2byte	0x160
 983 03cd E7080000 		.4byte	0x8e7
 984 03d1 04       		.byte	0x4
 985 03d2 09       		.uleb128 0x9
 986 03d3 8F060000 		.4byte	.LASF68
 987 03d7 06       		.byte	0x6
 988 03d8 6201     		.2byte	0x162
 989 03da 51010000 		.4byte	0x151
 990 03de 08       		.byte	0x8
 991 03df 09       		.uleb128 0x9
 992 03e0 E5040000 		.4byte	.LASF73
 993 03e4 06       		.byte	0x6
 994 03e5 6A01     		.2byte	0x16a
 995 03e7 51010000 		.4byte	0x151
 996 03eb 0C       		.byte	0xc
 997 03ec 00       		.byte	0
 998 03ed 04       		.uleb128 0x4
 999 03ee 6D000000 		.4byte	.LASF74
 1000 03f2 05       		.byte	0x5
 1001 03f3 66       		.byte	0x66
 1002 03f4 F8030000 		.4byte	0x3f8
 1003 03f8 0F       		.uleb128 0xf
 1004 03f9 5A020000 		.4byte	.LASF75
 1005 03fd 1404     		.2byte	0x414
 1006 03ff 06       		.byte	0x6
 1007 0400 8401     		.2byte	0x184
 1008 0402 3B040000 		.4byte	0x43b
 1009 0406 09       		.uleb128 0x9
 1010 0407 30070000 		.4byte	.LASF76
 1011 040b 06       		.byte	0x6
 1012 040c 8C01     		.2byte	0x18c
 1013 040e ED080000 		.4byte	0x8ed
 1014 0412 00       		.byte	0
 1015 0413 09       		.uleb128 0x9
 1016 0414 B8070000 		.4byte	.LASF77
 1017 0418 06       		.byte	0x6
 1018 0419 9101     		.2byte	0x191
 1019 041b 3B010000 		.4byte	0x13b
 1020 041f 04       		.byte	0x4
 1021 0420 09       		.uleb128 0x9
 1022 0421 8B020000 		.4byte	.LASF78
 1023 0425 06       		.byte	0x6
 1024 0426 9501     		.2byte	0x195
 1025 0428 3B010000 		.4byte	0x13b
 1026 042c 08       		.byte	0x8
ARM GAS  C:\Users\jo\AppData\Local\Temp\cc05uoEL.s 			page 19


 1027 042d 09       		.uleb128 0x9
 1028 042e 09080000 		.4byte	.LASF79
 1029 0432 06       		.byte	0x6
 1030 0433 9B01     		.2byte	0x19b
 1031 0435 B5070000 		.4byte	0x7b5
 1032 0439 0C       		.byte	0xc
 1033 043a 00       		.byte	0
 1034 043b 04       		.uleb128 0x4
 1035 043c 44030000 		.4byte	.LASF80
 1036 0440 05       		.byte	0x5
 1037 0441 6B       		.byte	0x6b
 1038 0442 46040000 		.4byte	0x446
 1039 0446 0F       		.uleb128 0xf
 1040 0447 D0010000 		.4byte	.LASF81
 1041 044b D805     		.2byte	0x5d8
 1042 044d 06       		.byte	0x6
 1043 044e A401     		.2byte	0x1a4
 1044 0450 B3040000 		.4byte	0x4b3
 1045 0454 09       		.uleb128 0x9
 1046 0455 D3070000 		.4byte	.LASF82
 1047 0459 06       		.byte	0x6
 1048 045a A801     		.2byte	0x1a8
 1049 045c C1020000 		.4byte	0x2c1
 1050 0460 00       		.byte	0
 1051 0461 09       		.uleb128 0x9
 1052 0462 53020000 		.4byte	.LASF83
 1053 0466 06       		.byte	0x6
 1054 0467 AC01     		.2byte	0x1ac
 1055 0469 A0030000 		.4byte	0x3a0
 1056 046d 1C       		.byte	0x1c
 1057 046e 08       		.uleb128 0x8
 1058 046f 64626700 		.ascii	"dbg\000"
 1059 0473 06       		.byte	0x6
 1060 0474 B001     		.2byte	0x1b0
 1061 0476 ED030000 		.4byte	0x3ed
 1062 047a 2C       		.byte	0x2c
 1063 047b 10       		.uleb128 0x10
 1064 047c F0000000 		.4byte	.LASF84
 1065 0480 06       		.byte	0x6
 1066 0481 B401     		.2byte	0x1b4
 1067 0483 5C010000 		.4byte	0x15c
 1068 0487 4004     		.2byte	0x440
 1069 0489 11       		.uleb128 0x11
 1070 048a 746D00   		.ascii	"tm\000"
 1071 048d 06       		.byte	0x6
 1072 048e B901     		.2byte	0x1b9
 1073 0490 D5070000 		.4byte	0x7d5
 1074 0494 A004     		.2byte	0x4a0
 1075 0496 10       		.uleb128 0x10
 1076 0497 59050000 		.4byte	.LASF85
 1077 049b 06       		.byte	0x6
 1078 049c BF01     		.2byte	0x1bf
 1079 049e 67080000 		.4byte	0x867
 1080 04a2 A804     		.2byte	0x4a8
 1081 04a4 10       		.uleb128 0x10
 1082 04a5 94020000 		.4byte	.LASF86
 1083 04a9 06       		.byte	0x6
ARM GAS  C:\Users\jo\AppData\Local\Temp\cc05uoEL.s 			page 20


 1084 04aa C501     		.2byte	0x1c5
 1085 04ac F2080000 		.4byte	0x8f2
 1086 04b0 E004     		.2byte	0x4e0
 1087 04b2 00       		.byte	0
 1088 04b3 03       		.uleb128 0x3
 1089 04b4 04       		.byte	0x4
 1090 04b5 07       		.byte	0x7
 1091 04b6 A8040000 		.4byte	.LASF87
 1092 04ba 12       		.uleb128 0x12
 1093 04bb C3000000 		.4byte	0xc3
 1094 04bf CA040000 		.4byte	0x4ca
 1095 04c3 13       		.uleb128 0x13
 1096 04c4 B3040000 		.4byte	0x4b3
 1097 04c8 01       		.byte	0x1
 1098 04c9 00       		.byte	0
 1099 04ca 14       		.uleb128 0x14
 1100 04cb 88       		.byte	0x88
 1101 04cc 07       		.byte	0x7
 1102 04cd 6702     		.2byte	0x267
 1103 04cf 59060000 		.4byte	0x659
 1104 04d3 08       		.uleb128 0x8
 1105 04d4 435200   		.ascii	"CR\000"
 1106 04d7 07       		.byte	0x7
 1107 04d8 6902     		.2byte	0x269
 1108 04da DE000000 		.4byte	0xde
 1109 04de 00       		.byte	0
 1110 04df 09       		.uleb128 0x9
 1111 04e0 1D020000 		.4byte	.LASF88
 1112 04e4 07       		.byte	0x7
 1113 04e5 6A02     		.2byte	0x26a
 1114 04e7 DE000000 		.4byte	0xde
 1115 04eb 04       		.byte	0x4
 1116 04ec 09       		.uleb128 0x9
 1117 04ed 04080000 		.4byte	.LASF89
 1118 04f1 07       		.byte	0x7
 1119 04f2 6B02     		.2byte	0x26b
 1120 04f4 DE000000 		.4byte	0xde
 1121 04f8 08       		.byte	0x8
 1122 04f9 08       		.uleb128 0x8
 1123 04fa 43495200 		.ascii	"CIR\000"
 1124 04fe 07       		.byte	0x7
 1125 04ff 6C02     		.2byte	0x26c
 1126 0501 DE000000 		.4byte	0xde
 1127 0505 0C       		.byte	0xc
 1128 0506 09       		.uleb128 0x9
 1129 0507 A5010000 		.4byte	.LASF90
 1130 050b 07       		.byte	0x7
 1131 050c 6D02     		.2byte	0x26d
 1132 050e DE000000 		.4byte	0xde
 1133 0512 10       		.byte	0x10
 1134 0513 09       		.uleb128 0x9
 1135 0514 DB060000 		.4byte	.LASF91
 1136 0518 07       		.byte	0x7
 1137 0519 6E02     		.2byte	0x26e
 1138 051b DE000000 		.4byte	0xde
 1139 051f 14       		.byte	0x14
 1140 0520 09       		.uleb128 0x9
ARM GAS  C:\Users\jo\AppData\Local\Temp\cc05uoEL.s 			page 21


 1141 0521 34030000 		.4byte	.LASF92
 1142 0525 07       		.byte	0x7
 1143 0526 6F02     		.2byte	0x26f
 1144 0528 DE000000 		.4byte	0xde
 1145 052c 18       		.byte	0x18
 1146 052d 09       		.uleb128 0x9
 1147 052e 6E050000 		.4byte	.LASF93
 1148 0532 07       		.byte	0x7
 1149 0533 7002     		.2byte	0x270
 1150 0535 C3000000 		.4byte	0xc3
 1151 0539 1C       		.byte	0x1c
 1152 053a 09       		.uleb128 0x9
 1153 053b 30050000 		.4byte	.LASF94
 1154 053f 07       		.byte	0x7
 1155 0540 7102     		.2byte	0x271
 1156 0542 DE000000 		.4byte	0xde
 1157 0546 20       		.byte	0x20
 1158 0547 09       		.uleb128 0x9
 1159 0548 25030000 		.4byte	.LASF95
 1160 054c 07       		.byte	0x7
 1161 054d 7202     		.2byte	0x272
 1162 054f DE000000 		.4byte	0xde
 1163 0553 24       		.byte	0x24
 1164 0554 09       		.uleb128 0x9
 1165 0555 78050000 		.4byte	.LASF96
 1166 0559 07       		.byte	0x7
 1167 055a 7302     		.2byte	0x273
 1168 055c BA040000 		.4byte	0x4ba
 1169 0560 28       		.byte	0x28
 1170 0561 09       		.uleb128 0x9
 1171 0562 F5070000 		.4byte	.LASF97
 1172 0566 07       		.byte	0x7
 1173 0567 7402     		.2byte	0x274
 1174 0569 DE000000 		.4byte	0xde
 1175 056d 30       		.byte	0x30
 1176 056e 09       		.uleb128 0x9
 1177 056f 54070000 		.4byte	.LASF98
 1178 0573 07       		.byte	0x7
 1179 0574 7502     		.2byte	0x275
 1180 0576 DE000000 		.4byte	0xde
 1181 057a 34       		.byte	0x34
 1182 057b 09       		.uleb128 0x9
 1183 057c DD040000 		.4byte	.LASF99
 1184 0580 07       		.byte	0x7
 1185 0581 7602     		.2byte	0x276
 1186 0583 DE000000 		.4byte	0xde
 1187 0587 38       		.byte	0x38
 1188 0588 09       		.uleb128 0x9
 1189 0589 82050000 		.4byte	.LASF100
 1190 058d 07       		.byte	0x7
 1191 058e 7702     		.2byte	0x277
 1192 0590 C3000000 		.4byte	0xc3
 1193 0594 3C       		.byte	0x3c
 1194 0595 09       		.uleb128 0x9
 1195 0596 41070000 		.4byte	.LASF101
 1196 059a 07       		.byte	0x7
 1197 059b 7802     		.2byte	0x278
ARM GAS  C:\Users\jo\AppData\Local\Temp\cc05uoEL.s 			page 22


 1198 059d DE000000 		.4byte	0xde
 1199 05a1 40       		.byte	0x40
 1200 05a2 09       		.uleb128 0x9
 1201 05a3 49060000 		.4byte	.LASF102
 1202 05a7 07       		.byte	0x7
 1203 05a8 7902     		.2byte	0x279
 1204 05aa DE000000 		.4byte	0xde
 1205 05ae 44       		.byte	0x44
 1206 05af 09       		.uleb128 0x9
 1207 05b0 8C050000 		.4byte	.LASF103
 1208 05b4 07       		.byte	0x7
 1209 05b5 7A02     		.2byte	0x27a
 1210 05b7 BA040000 		.4byte	0x4ba
 1211 05bb 48       		.byte	0x48
 1212 05bc 09       		.uleb128 0x9
 1213 05bd 27010000 		.4byte	.LASF104
 1214 05c1 07       		.byte	0x7
 1215 05c2 7B02     		.2byte	0x27b
 1216 05c4 DE000000 		.4byte	0xde
 1217 05c8 50       		.byte	0x50
 1218 05c9 09       		.uleb128 0x9
 1219 05ca FF040000 		.4byte	.LASF105
 1220 05ce 07       		.byte	0x7
 1221 05cf 7C02     		.2byte	0x27c
 1222 05d1 DE000000 		.4byte	0xde
 1223 05d5 54       		.byte	0x54
 1224 05d6 09       		.uleb128 0x9
 1225 05d7 05060000 		.4byte	.LASF106
 1226 05db 07       		.byte	0x7
 1227 05dc 7D02     		.2byte	0x27d
 1228 05de DE000000 		.4byte	0xde
 1229 05e2 58       		.byte	0x58
 1230 05e3 09       		.uleb128 0x9
 1231 05e4 96050000 		.4byte	.LASF107
 1232 05e8 07       		.byte	0x7
 1233 05e9 7E02     		.2byte	0x27e
 1234 05eb C3000000 		.4byte	0xc3
 1235 05ef 5C       		.byte	0x5c
 1236 05f0 09       		.uleb128 0x9
 1237 05f1 EA010000 		.4byte	.LASF108
 1238 05f5 07       		.byte	0x7
 1239 05f6 7F02     		.2byte	0x27f
 1240 05f8 DE000000 		.4byte	0xde
 1241 05fc 60       		.byte	0x60
 1242 05fd 09       		.uleb128 0x9
 1243 05fe 5A030000 		.4byte	.LASF109
 1244 0602 07       		.byte	0x7
 1245 0603 8002     		.2byte	0x280
 1246 0605 DE000000 		.4byte	0xde
 1247 0609 64       		.byte	0x64
 1248 060a 09       		.uleb128 0x9
 1249 060b 74060000 		.4byte	.LASF110
 1250 060f 07       		.byte	0x7
 1251 0610 8102     		.2byte	0x281
 1252 0612 BA040000 		.4byte	0x4ba
 1253 0616 68       		.byte	0x68
 1254 0617 09       		.uleb128 0x9
ARM GAS  C:\Users\jo\AppData\Local\Temp\cc05uoEL.s 			page 23


 1255 0618 CE070000 		.4byte	.LASF111
 1256 061c 07       		.byte	0x7
 1257 061d 8202     		.2byte	0x282
 1258 061f DE000000 		.4byte	0xde
 1259 0623 70       		.byte	0x70
 1260 0624 08       		.uleb128 0x8
 1261 0625 43535200 		.ascii	"CSR\000"
 1262 0629 07       		.byte	0x7
 1263 062a 8302     		.2byte	0x283
 1264 062c DE000000 		.4byte	0xde
 1265 0630 74       		.byte	0x74
 1266 0631 09       		.uleb128 0x9
 1267 0632 A7050000 		.4byte	.LASF112
 1268 0636 07       		.byte	0x7
 1269 0637 8402     		.2byte	0x284
 1270 0639 BA040000 		.4byte	0x4ba
 1271 063d 78       		.byte	0x78
 1272 063e 09       		.uleb128 0x9
 1273 063f 9B070000 		.4byte	.LASF113
 1274 0643 07       		.byte	0x7
 1275 0644 8502     		.2byte	0x285
 1276 0646 DE000000 		.4byte	0xde
 1277 064a 80       		.byte	0x80
 1278 064b 09       		.uleb128 0x9
 1279 064c 1A030000 		.4byte	.LASF114
 1280 0650 07       		.byte	0x7
 1281 0651 8602     		.2byte	0x286
 1282 0653 DE000000 		.4byte	0xde
 1283 0657 84       		.byte	0x84
 1284 0658 00       		.byte	0
 1285 0659 15       		.uleb128 0x15
 1286 065a C4010000 		.4byte	.LASF115
 1287 065e 07       		.byte	0x7
 1288 065f 8802     		.2byte	0x288
 1289 0661 CA040000 		.4byte	0x4ca
 1290 0665 04       		.uleb128 0x4
 1291 0666 42020000 		.4byte	.LASF116
 1292 066a 08       		.byte	0x8
 1293 066b 85       		.byte	0x85
 1294 066c 44030000 		.4byte	0x344
 1295 0670 04       		.uleb128 0x4
 1296 0671 74040000 		.4byte	.LASF117
 1297 0675 08       		.byte	0x8
 1298 0676 8D       		.byte	0x8d
 1299 0677 CE000000 		.4byte	0xce
 1300 067b 06       		.uleb128 0x6
 1301 067c 5C070000 		.4byte	.LASF118
 1302 0680 04       		.byte	0x4
 1303 0681 08       		.byte	0x8
 1304 0682 A9       		.byte	0xa9
 1305 0683 94060000 		.4byte	0x694
 1306 0687 16       		.uleb128 0x16
 1307 0688 72313300 		.ascii	"r13\000"
 1308 068c 08       		.byte	0x8
 1309 068d AA       		.byte	0xaa
 1310 068e 0F070000 		.4byte	0x70f
 1311 0692 00       		.byte	0
ARM GAS  C:\Users\jo\AppData\Local\Temp\cc05uoEL.s 			page 24


 1312 0693 00       		.byte	0
 1313 0694 06       		.uleb128 0x6
 1314 0695 50000000 		.4byte	.LASF119
 1315 0699 24       		.byte	0x24
 1316 069a 09       		.byte	0x9
 1317 069b F4       		.byte	0xf4
 1318 069c 0F070000 		.4byte	0x70f
 1319 06a0 08       		.uleb128 0x8
 1320 06a1 723400   		.ascii	"r4\000"
 1321 06a4 09       		.byte	0x9
 1322 06a5 0701     		.2byte	0x107
 1323 06a7 65060000 		.4byte	0x665
 1324 06ab 00       		.byte	0
 1325 06ac 08       		.uleb128 0x8
 1326 06ad 723500   		.ascii	"r5\000"
 1327 06b0 09       		.byte	0x9
 1328 06b1 0801     		.2byte	0x108
 1329 06b3 65060000 		.4byte	0x665
 1330 06b7 04       		.byte	0x4
 1331 06b8 08       		.uleb128 0x8
 1332 06b9 723600   		.ascii	"r6\000"
 1333 06bc 09       		.byte	0x9
 1334 06bd 0901     		.2byte	0x109
 1335 06bf 65060000 		.4byte	0x665
 1336 06c3 08       		.byte	0x8
 1337 06c4 08       		.uleb128 0x8
 1338 06c5 723700   		.ascii	"r7\000"
 1339 06c8 09       		.byte	0x9
 1340 06c9 0A01     		.2byte	0x10a
 1341 06cb 65060000 		.4byte	0x665
 1342 06cf 0C       		.byte	0xc
 1343 06d0 08       		.uleb128 0x8
 1344 06d1 723800   		.ascii	"r8\000"
 1345 06d4 09       		.byte	0x9
 1346 06d5 0B01     		.2byte	0x10b
 1347 06d7 65060000 		.4byte	0x665
 1348 06db 10       		.byte	0x10
 1349 06dc 08       		.uleb128 0x8
 1350 06dd 723900   		.ascii	"r9\000"
 1351 06e0 09       		.byte	0x9
 1352 06e1 0C01     		.2byte	0x10c
 1353 06e3 65060000 		.4byte	0x665
 1354 06e7 14       		.byte	0x14
 1355 06e8 08       		.uleb128 0x8
 1356 06e9 72313000 		.ascii	"r10\000"
 1357 06ed 09       		.byte	0x9
 1358 06ee 0D01     		.2byte	0x10d
 1359 06f0 65060000 		.4byte	0x665
 1360 06f4 18       		.byte	0x18
 1361 06f5 08       		.uleb128 0x8
 1362 06f6 72313100 		.ascii	"r11\000"
 1363 06fa 09       		.byte	0x9
 1364 06fb 0E01     		.2byte	0x10e
 1365 06fd 65060000 		.4byte	0x665
 1366 0701 1C       		.byte	0x1c
 1367 0702 08       		.uleb128 0x8
 1368 0703 6C7200   		.ascii	"lr\000"
ARM GAS  C:\Users\jo\AppData\Local\Temp\cc05uoEL.s 			page 25


 1369 0706 09       		.byte	0x9
 1370 0707 0F01     		.2byte	0x10f
 1371 0709 65060000 		.4byte	0x665
 1372 070d 20       		.byte	0x20
 1373 070e 00       		.byte	0
 1374 070f 0B       		.uleb128 0xb
 1375 0710 04       		.byte	0x4
 1376 0711 94060000 		.4byte	0x694
 1377 0715 03       		.uleb128 0x3
 1378 0716 01       		.byte	0x1
 1379 0717 08       		.byte	0x8
 1380 0718 BF060000 		.4byte	.LASF120
 1381 071c 0B       		.uleb128 0xb
 1382 071d 04       		.byte	0x4
 1383 071e 22070000 		.4byte	0x722
 1384 0722 17       		.uleb128 0x17
 1385 0723 15070000 		.4byte	0x715
 1386 0727 18       		.uleb128 0x18
 1387 0728 10       		.byte	0x10
 1388 0729 0A       		.byte	0xa
 1389 072a 57       		.byte	0x57
 1390 072b 60070000 		.4byte	0x760
 1391 072f 07       		.uleb128 0x7
 1392 0730 27000000 		.4byte	.LASF121
 1393 0734 0A       		.byte	0xa
 1394 0735 5B       		.byte	0x5b
 1395 0736 51010000 		.4byte	0x151
 1396 073a 00       		.byte	0
 1397 073b 07       		.uleb128 0x7
 1398 073c FD010000 		.4byte	.LASF122
 1399 0740 0A       		.byte	0xa
 1400 0741 5F       		.byte	0x5f
 1401 0742 60070000 		.4byte	0x760
 1402 0746 04       		.byte	0x4
 1403 0747 07       		.uleb128 0x7
 1404 0748 70080000 		.4byte	.LASF123
 1405 074c 0A       		.byte	0xa
 1406 074d 63       		.byte	0x63
 1407 074e 44030000 		.4byte	0x344
 1408 0752 08       		.byte	0x8
 1409 0753 07       		.uleb128 0x7
 1410 0754 D8000000 		.4byte	.LASF124
 1411 0758 0A       		.byte	0xa
 1412 0759 67       		.byte	0x67
 1413 075a A2000000 		.4byte	0xa2
 1414 075e 0C       		.byte	0xc
 1415 075f 00       		.byte	0
 1416 0760 0B       		.uleb128 0xb
 1417 0761 04       		.byte	0x4
 1418 0762 5C010000 		.4byte	0x15c
 1419 0766 04       		.uleb128 0x4
 1420 0767 CE040000 		.4byte	.LASF125
 1421 076b 0A       		.byte	0xa
 1422 076c 68       		.byte	0x68
 1423 076d 27070000 		.4byte	0x727
 1424 0771 19       		.uleb128 0x19
 1425 0772 0804     		.2byte	0x408
ARM GAS  C:\Users\jo\AppData\Local\Temp\cc05uoEL.s 			page 26


 1426 0774 0A       		.byte	0xa
 1427 0775 6D       		.byte	0x6d
 1428 0776 9F070000 		.4byte	0x79f
 1429 077a 07       		.uleb128 0x7
 1430 077b 25020000 		.4byte	.LASF126
 1431 077f 0A       		.byte	0xa
 1432 0780 71       		.byte	0x71
 1433 0781 2C000000 		.4byte	0x2c
 1434 0785 00       		.byte	0
 1435 0786 07       		.uleb128 0x7
 1436 0787 13000000 		.4byte	.LASF127
 1437 078b 0A       		.byte	0xa
 1438 078c 75       		.byte	0x75
 1439 078d 9F070000 		.4byte	0x79f
 1440 0791 04       		.byte	0x4
 1441 0792 07       		.uleb128 0x7
 1442 0793 50030000 		.4byte	.LASF128
 1443 0797 0A       		.byte	0xa
 1444 0798 79       		.byte	0x79
 1445 0799 A5070000 		.4byte	0x7a5
 1446 079d 08       		.byte	0x8
 1447 079e 00       		.byte	0
 1448 079f 0B       		.uleb128 0xb
 1449 07a0 04       		.byte	0x4
 1450 07a1 66070000 		.4byte	0x766
 1451 07a5 12       		.uleb128 0x12
 1452 07a6 66070000 		.4byte	0x766
 1453 07aa B5070000 		.4byte	0x7b5
 1454 07ae 13       		.uleb128 0x13
 1455 07af B3040000 		.4byte	0x4b3
 1456 07b3 3F       		.byte	0x3f
 1457 07b4 00       		.byte	0
 1458 07b5 04       		.uleb128 0x4
 1459 07b6 C6000000 		.4byte	.LASF129
 1460 07ba 0A       		.byte	0xa
 1461 07bb 7A       		.byte	0x7a
 1462 07bc 71070000 		.4byte	0x771
 1463 07c0 18       		.uleb128 0x18
 1464 07c1 04       		.byte	0x4
 1465 07c2 0B       		.byte	0xb
 1466 07c3 38       		.byte	0x38
 1467 07c4 D5070000 		.4byte	0x7d5
 1468 07c8 07       		.uleb128 0x7
 1469 07c9 3A070000 		.4byte	.LASF130
 1470 07cd 0B       		.byte	0xb
 1471 07ce 3C       		.byte	0x3c
 1472 07cf E3000000 		.4byte	0xe3
 1473 07d3 00       		.byte	0
 1474 07d4 00       		.byte	0
 1475 07d5 04       		.uleb128 0x4
 1476 07d6 09050000 		.4byte	.LASF131
 1477 07da 0B       		.byte	0xb
 1478 07db 3D       		.byte	0x3d
 1479 07dc C0070000 		.4byte	0x7c0
 1480 07e0 18       		.uleb128 0x18
 1481 07e1 18       		.byte	0x18
 1482 07e2 0B       		.byte	0xb
ARM GAS  C:\Users\jo\AppData\Local\Temp\cc05uoEL.s 			page 27


 1483 07e3 48       		.byte	0x48
 1484 07e4 23080000 		.4byte	0x823
 1485 07e8 07       		.uleb128 0x7
 1486 07e9 ED060000 		.4byte	.LASF132
 1487 07ed 0B       		.byte	0xb
 1488 07ee 49       		.byte	0x49
 1489 07ef E3000000 		.4byte	0xe3
 1490 07f3 00       		.byte	0
 1491 07f4 07       		.uleb128 0x7
 1492 07f5 89000000 		.4byte	.LASF133
 1493 07f9 0B       		.byte	0xb
 1494 07fa 4A       		.byte	0x4a
 1495 07fb E3000000 		.4byte	0xe3
 1496 07ff 04       		.byte	0x4
 1497 0800 07       		.uleb128 0x7
 1498 0801 22070000 		.4byte	.LASF134
 1499 0805 0B       		.byte	0xb
 1500 0806 4B       		.byte	0x4b
 1501 0807 E3000000 		.4byte	0xe3
 1502 080b 08       		.byte	0x8
 1503 080c 16       		.uleb128 0x16
 1504 080d 6E00     		.ascii	"n\000"
 1505 080f 0B       		.byte	0xb
 1506 0810 4C       		.byte	0x4c
 1507 0811 46010000 		.4byte	0x146
 1508 0815 0C       		.byte	0xc
 1509 0816 07       		.uleb128 0x7
 1510 0817 49050000 		.4byte	.LASF135
 1511 081b 0B       		.byte	0xb
 1512 081c 4D       		.byte	0x4d
 1513 081d EE000000 		.4byte	0xee
 1514 0821 10       		.byte	0x10
 1515 0822 00       		.byte	0
 1516 0823 04       		.uleb128 0x4
 1517 0824 96000000 		.4byte	.LASF136
 1518 0828 0B       		.byte	0xb
 1519 0829 4E       		.byte	0x4e
 1520 082a E0070000 		.4byte	0x7e0
 1521 082e 18       		.uleb128 0x18
 1522 082f 38       		.byte	0x38
 1523 0830 0C       		.byte	0xc
 1524 0831 38       		.byte	0x38
 1525 0832 67080000 		.4byte	0x867
 1526 0836 07       		.uleb128 0x7
 1527 0837 E1020000 		.4byte	.LASF137
 1528 083b 0C       		.byte	0xc
 1529 083c 39       		.byte	0x39
 1530 083d 46010000 		.4byte	0x146
 1531 0841 00       		.byte	0
 1532 0842 07       		.uleb128 0x7
 1533 0843 BF050000 		.4byte	.LASF138
 1534 0847 0C       		.byte	0xc
 1535 0848 3A       		.byte	0x3a
 1536 0849 46010000 		.4byte	0x146
 1537 084d 04       		.byte	0x4
 1538 084e 07       		.uleb128 0x7
 1539 084f 5D080000 		.4byte	.LASF139
ARM GAS  C:\Users\jo\AppData\Local\Temp\cc05uoEL.s 			page 28


 1540 0853 0C       		.byte	0xc
 1541 0854 3B       		.byte	0x3b
 1542 0855 23080000 		.4byte	0x823
 1543 0859 08       		.byte	0x8
 1544 085a 07       		.uleb128 0x7
 1545 085b 64030000 		.4byte	.LASF140
 1546 085f 0C       		.byte	0xc
 1547 0860 3D       		.byte	0x3d
 1548 0861 23080000 		.4byte	0x823
 1549 0865 20       		.byte	0x20
 1550 0866 00       		.byte	0
 1551 0867 04       		.uleb128 0x4
 1552 0868 01030000 		.4byte	.LASF141
 1553 086c 0C       		.byte	0xc
 1554 086d 3F       		.byte	0x3f
 1555 086e 2E080000 		.4byte	0x82e
 1556 0872 1A       		.uleb128 0x1a
 1557 0873 04       		.byte	0x4
 1558 0874 06       		.byte	0x6
 1559 0875 F6       		.byte	0xf6
 1560 0876 AA080000 		.4byte	0x8aa
 1561 087a 1B       		.uleb128 0x1b
 1562 087b 2F000000 		.4byte	.LASF142
 1563 087f 06       		.byte	0x6
 1564 0880 FD       		.byte	0xfd
 1565 0881 25010000 		.4byte	0x125
 1566 0885 1C       		.uleb128 0x1c
 1567 0886 E7000000 		.4byte	.LASF143
 1568 088a 06       		.byte	0x6
 1569 088b 0401     		.2byte	0x104
 1570 088d 25010000 		.4byte	0x125
 1571 0891 1C       		.uleb128 0x1c
 1572 0892 E7070000 		.4byte	.LASF144
 1573 0896 06       		.byte	0x6
 1574 0897 0B01     		.2byte	0x10b
 1575 0899 44030000 		.4byte	0x344
 1576 089d 1C       		.uleb128 0x1c
 1577 089e 1D060000 		.4byte	.LASF145
 1578 08a2 06       		.byte	0x6
 1579 08a3 1201     		.2byte	0x112
 1580 08a5 30010000 		.4byte	0x130
 1581 08a9 00       		.byte	0
 1582 08aa 0B       		.uleb128 0xb
 1583 08ab 04       		.byte	0x4
 1584 08ac 70060000 		.4byte	0x670
 1585 08b0 06       		.uleb128 0x6
 1586 08b1 B9050000 		.4byte	.LASF146
 1587 08b5 10       		.byte	0x10
 1588 08b6 0D       		.byte	0xd
 1589 08b7 39       		.byte	0x39
 1590 08b8 E1080000 		.4byte	0x8e1
 1591 08bc 07       		.uleb128 0x7
 1592 08bd B6010000 		.4byte	.LASF147
 1593 08c1 0D       		.byte	0xd
 1594 08c2 3A       		.byte	0x3a
 1595 08c3 91020000 		.4byte	0x291
 1596 08c7 00       		.byte	0
ARM GAS  C:\Users\jo\AppData\Local\Temp\cc05uoEL.s 			page 29


 1597 08c8 07       		.uleb128 0x7
 1598 08c9 68080000 		.4byte	.LASF148
 1599 08cd 0D       		.byte	0xd
 1600 08ce 3C       		.byte	0x3c
 1601 08cf 60070000 		.4byte	0x760
 1602 08d3 08       		.byte	0x8
 1603 08d4 07       		.uleb128 0x7
 1604 08d5 F2060000 		.4byte	.LASF149
 1605 08d9 0D       		.byte	0xd
 1606 08da 3E       		.byte	0x3e
 1607 08db 0D090000 		.4byte	0x90d
 1608 08df 0C       		.byte	0xc
 1609 08e0 00       		.byte	0
 1610 08e1 0B       		.uleb128 0xb
 1611 08e2 04       		.byte	0x4
 1612 08e3 B0080000 		.4byte	0x8b0
 1613 08e7 0B       		.uleb128 0xb
 1614 08e8 04       		.byte	0x4
 1615 08e9 46030000 		.4byte	0x346
 1616 08ed 05       		.uleb128 0x5
 1617 08ee 1C070000 		.4byte	0x71c
 1618 08f2 12       		.uleb128 0x12
 1619 08f3 70060000 		.4byte	0x670
 1620 08f7 02090000 		.4byte	0x902
 1621 08fb 13       		.uleb128 0x13
 1622 08fc B3040000 		.4byte	0x4b3
 1623 0900 1E       		.byte	0x1e
 1624 0901 00       		.byte	0
 1625 0902 04       		.uleb128 0x4
 1626 0903 7C020000 		.4byte	.LASF150
 1627 0907 0D       		.byte	0xd
 1628 0908 34       		.byte	0x34
 1629 0909 B0080000 		.4byte	0x8b0
 1630 090d 0B       		.uleb128 0xb
 1631 090e 04       		.byte	0x4
 1632 090f 02090000 		.4byte	0x902
 1633 0913 03       		.uleb128 0x3
 1634 0914 01       		.byte	0x1
 1635 0915 02       		.byte	0x2
 1636 0916 C8050000 		.4byte	.LASF151
 1637 091a 18       		.uleb128 0x18
 1638 091b 04       		.byte	0x4
 1639 091c 0E       		.byte	0xe
 1640 091d B3       		.byte	0xb3
 1641 091e 3B090000 		.4byte	0x93b
 1642 0922 16       		.uleb128 0x16
 1643 0923 73657400 		.ascii	"set\000"
 1644 0927 0E       		.byte	0xe
 1645 0928 B4       		.byte	0xb4
 1646 0929 AD000000 		.4byte	0xad
 1647 092d 00       		.byte	0
 1648 092e 07       		.uleb128 0x7
 1649 092f C8040000 		.4byte	.LASF152
 1650 0933 0E       		.byte	0xe
 1651 0934 B5       		.byte	0xb5
 1652 0935 AD000000 		.4byte	0xad
 1653 0939 02       		.byte	0x2
ARM GAS  C:\Users\jo\AppData\Local\Temp\cc05uoEL.s 			page 30


 1654 093a 00       		.byte	0
 1655 093b 1A       		.uleb128 0x1a
 1656 093c 04       		.byte	0x4
 1657 093d 0E       		.byte	0xe
 1658 093e B1       		.byte	0xb1
 1659 093f 56090000 		.4byte	0x956
 1660 0943 1D       		.uleb128 0x1d
 1661 0944 5700     		.ascii	"W\000"
 1662 0946 0E       		.byte	0xe
 1663 0947 B2       		.byte	0xb2
 1664 0948 C3000000 		.4byte	0xc3
 1665 094c 1D       		.uleb128 0x1d
 1666 094d 4800     		.ascii	"H\000"
 1667 094f 0E       		.byte	0xe
 1668 0950 B6       		.byte	0xb6
 1669 0951 1A090000 		.4byte	0x91a
 1670 0955 00       		.byte	0
 1671 0956 18       		.uleb128 0x18
 1672 0957 2C       		.byte	0x2c
 1673 0958 0E       		.byte	0xe
 1674 0959 A9       		.byte	0xa9
 1675 095a E3090000 		.4byte	0x9e3
 1676 095e 07       		.uleb128 0x7
 1677 095f A9000000 		.4byte	.LASF153
 1678 0963 0E       		.byte	0xe
 1679 0964 AB       		.byte	0xab
 1680 0965 DE000000 		.4byte	0xde
 1681 0969 00       		.byte	0
 1682 096a 07       		.uleb128 0x7
 1683 096b 49000000 		.4byte	.LASF154
 1684 096f 0E       		.byte	0xe
 1685 0970 AC       		.byte	0xac
 1686 0971 DE000000 		.4byte	0xde
 1687 0975 04       		.byte	0x4
 1688 0976 07       		.uleb128 0x7
 1689 0977 2D020000 		.4byte	.LASF155
 1690 097b 0E       		.byte	0xe
 1691 097c AD       		.byte	0xad
 1692 097d DE000000 		.4byte	0xde
 1693 0981 08       		.byte	0x8
 1694 0982 07       		.uleb128 0x7
 1695 0983 E1000000 		.4byte	.LASF156
 1696 0987 0E       		.byte	0xe
 1697 0988 AE       		.byte	0xae
 1698 0989 DE000000 		.4byte	0xde
 1699 098d 0C       		.byte	0xc
 1700 098e 16       		.uleb128 0x16
 1701 098f 49445200 		.ascii	"IDR\000"
 1702 0993 0E       		.byte	0xe
 1703 0994 AF       		.byte	0xaf
 1704 0995 DE000000 		.4byte	0xde
 1705 0999 10       		.byte	0x10
 1706 099a 16       		.uleb128 0x16
 1707 099b 4F445200 		.ascii	"ODR\000"
 1708 099f 0E       		.byte	0xe
 1709 09a0 B0       		.byte	0xb0
 1710 09a1 DE000000 		.4byte	0xde
ARM GAS  C:\Users\jo\AppData\Local\Temp\cc05uoEL.s 			page 31


 1711 09a5 14       		.byte	0x14
 1712 09a6 07       		.uleb128 0x7
 1713 09a7 A0010000 		.4byte	.LASF157
 1714 09ab 0E       		.byte	0xe
 1715 09ac B7       		.byte	0xb7
 1716 09ad E3090000 		.4byte	0x9e3
 1717 09b1 18       		.byte	0x18
 1718 09b2 07       		.uleb128 0x7
 1719 09b3 DC020000 		.4byte	.LASF158
 1720 09b7 0E       		.byte	0xe
 1721 09b8 B8       		.byte	0xb8
 1722 09b9 DE000000 		.4byte	0xde
 1723 09bd 1C       		.byte	0x1c
 1724 09be 07       		.uleb128 0x7
 1725 09bf 54050000 		.4byte	.LASF159
 1726 09c3 0E       		.byte	0xe
 1727 09c4 B9       		.byte	0xb9
 1728 09c5 DE000000 		.4byte	0xde
 1729 09c9 20       		.byte	0x20
 1730 09ca 07       		.uleb128 0x7
 1731 09cb 44050000 		.4byte	.LASF160
 1732 09cf 0E       		.byte	0xe
 1733 09d0 BA       		.byte	0xba
 1734 09d1 DE000000 		.4byte	0xde
 1735 09d5 24       		.byte	0x24
 1736 09d6 16       		.uleb128 0x16
 1737 09d7 42525200 		.ascii	"BRR\000"
 1738 09db 0E       		.byte	0xe
 1739 09dc BB       		.byte	0xbb
 1740 09dd DE000000 		.4byte	0xde
 1741 09e1 28       		.byte	0x28
 1742 09e2 00       		.byte	0
 1743 09e3 05       		.uleb128 0x5
 1744 09e4 3B090000 		.4byte	0x93b
 1745 09e8 04       		.uleb128 0x4
 1746 09e9 6A020000 		.4byte	.LASF161
 1747 09ed 0E       		.byte	0xe
 1748 09ee BC       		.byte	0xbc
 1749 09ef 56090000 		.4byte	0x956
 1750 09f3 18       		.uleb128 0x18
 1751 09f4 1C       		.byte	0x1c
 1752 09f5 0E       		.byte	0xe
 1753 09f6 C1       		.byte	0xc1
 1754 09f7 500A0000 		.4byte	0xa50
 1755 09fb 07       		.uleb128 0x7
 1756 09fc BE010000 		.4byte	.LASF162
 1757 0a00 0E       		.byte	0xe
 1758 0a01 C3       		.byte	0xc3
 1759 0a02 C3000000 		.4byte	0xc3
 1760 0a06 00       		.byte	0
 1761 0a07 07       		.uleb128 0x7
 1762 0a08 E7020000 		.4byte	.LASF163
 1763 0a0c 0E       		.byte	0xe
 1764 0a0d C5       		.byte	0xc5
 1765 0a0e C3000000 		.4byte	0xc3
 1766 0a12 04       		.byte	0x4
 1767 0a13 07       		.uleb128 0x7
ARM GAS  C:\Users\jo\AppData\Local\Temp\cc05uoEL.s 			page 32


 1768 0a14 D4020000 		.4byte	.LASF164
 1769 0a18 0E       		.byte	0xe
 1770 0a19 C7       		.byte	0xc7
 1771 0a1a C3000000 		.4byte	0xc3
 1772 0a1e 08       		.byte	0x8
 1773 0a1f 07       		.uleb128 0x7
 1774 0a20 E1070000 		.4byte	.LASF165
 1775 0a24 0E       		.byte	0xe
 1776 0a25 C9       		.byte	0xc9
 1777 0a26 C3000000 		.4byte	0xc3
 1778 0a2a 0C       		.byte	0xc
 1779 0a2b 16       		.uleb128 0x16
 1780 0a2c 6F647200 		.ascii	"odr\000"
 1781 0a30 0E       		.byte	0xe
 1782 0a31 CB       		.byte	0xcb
 1783 0a32 C3000000 		.4byte	0xc3
 1784 0a36 10       		.byte	0x10
 1785 0a37 07       		.uleb128 0x7
 1786 0a38 E4050000 		.4byte	.LASF166
 1787 0a3c 0E       		.byte	0xe
 1788 0a3d CD       		.byte	0xcd
 1789 0a3e C3000000 		.4byte	0xc3
 1790 0a42 14       		.byte	0x14
 1791 0a43 07       		.uleb128 0x7
 1792 0a44 1A050000 		.4byte	.LASF167
 1793 0a48 0E       		.byte	0xe
 1794 0a49 CF       		.byte	0xcf
 1795 0a4a C3000000 		.4byte	0xc3
 1796 0a4e 18       		.byte	0x18
 1797 0a4f 00       		.byte	0
 1798 0a50 04       		.uleb128 0x4
 1799 0a51 00000000 		.4byte	.LASF168
 1800 0a55 0E       		.byte	0xe
 1801 0a56 D0       		.byte	0xd0
 1802 0a57 F3090000 		.4byte	0x9f3
 1803 0a5b 18       		.uleb128 0x18
 1804 0a5c FC       		.byte	0xfc
 1805 0a5d 0E       		.byte	0xe
 1806 0a5e D9       		.byte	0xd9
 1807 0a5f D00A0000 		.4byte	0xad0
 1808 0a63 07       		.uleb128 0x7
 1809 0a64 16060000 		.4byte	.LASF169
 1810 0a68 0E       		.byte	0xe
 1811 0a69 DC       		.byte	0xdc
 1812 0a6a 500A0000 		.4byte	0xa50
 1813 0a6e 00       		.byte	0
 1814 0a6f 07       		.uleb128 0x7
 1815 0a70 84020000 		.4byte	.LASF170
 1816 0a74 0E       		.byte	0xe
 1817 0a75 E0       		.byte	0xe0
 1818 0a76 500A0000 		.4byte	0xa50
 1819 0a7a 1C       		.byte	0x1c
 1820 0a7b 07       		.uleb128 0x7
 1821 0a7c FD070000 		.4byte	.LASF171
 1822 0a80 0E       		.byte	0xe
 1823 0a81 E4       		.byte	0xe4
 1824 0a82 500A0000 		.4byte	0xa50
ARM GAS  C:\Users\jo\AppData\Local\Temp\cc05uoEL.s 			page 33


 1825 0a86 38       		.byte	0x38
 1826 0a87 07       		.uleb128 0x7
 1827 0a88 1F050000 		.4byte	.LASF172
 1828 0a8c 0E       		.byte	0xe
 1829 0a8d E8       		.byte	0xe8
 1830 0a8e 500A0000 		.4byte	0xa50
 1831 0a92 54       		.byte	0x54
 1832 0a93 07       		.uleb128 0x7
 1833 0a94 E3010000 		.4byte	.LASF173
 1834 0a98 0E       		.byte	0xe
 1835 0a99 EC       		.byte	0xec
 1836 0a9a 500A0000 		.4byte	0xa50
 1837 0a9e 70       		.byte	0x70
 1838 0a9f 07       		.uleb128 0x7
 1839 0aa0 1C080000 		.4byte	.LASF174
 1840 0aa4 0E       		.byte	0xe
 1841 0aa5 F0       		.byte	0xf0
 1842 0aa6 500A0000 		.4byte	0xa50
 1843 0aaa 8C       		.byte	0x8c
 1844 0aab 07       		.uleb128 0x7
 1845 0aac 93030000 		.4byte	.LASF175
 1846 0ab0 0E       		.byte	0xe
 1847 0ab1 F4       		.byte	0xf4
 1848 0ab2 500A0000 		.4byte	0xa50
 1849 0ab6 A8       		.byte	0xa8
 1850 0ab7 07       		.uleb128 0x7
 1851 0ab8 8F000000 		.4byte	.LASF176
 1852 0abc 0E       		.byte	0xe
 1853 0abd F8       		.byte	0xf8
 1854 0abe 500A0000 		.4byte	0xa50
 1855 0ac2 C4       		.byte	0xc4
 1856 0ac3 07       		.uleb128 0x7
 1857 0ac4 51060000 		.4byte	.LASF177
 1858 0ac8 0E       		.byte	0xe
 1859 0ac9 FC       		.byte	0xfc
 1860 0aca 500A0000 		.4byte	0xa50
 1861 0ace E0       		.byte	0xe0
 1862 0acf 00       		.byte	0
 1863 0ad0 04       		.uleb128 0x4
 1864 0ad1 91070000 		.4byte	.LASF178
 1865 0ad5 0E       		.byte	0xe
 1866 0ad6 FE       		.byte	0xfe
 1867 0ad7 5B0A0000 		.4byte	0xa5b
 1868 0adb 15       		.uleb128 0x15
 1869 0adc 7C000000 		.4byte	.LASF179
 1870 0ae0 0E       		.byte	0xe
 1871 0ae1 0E01     		.2byte	0x10e
 1872 0ae3 C3000000 		.4byte	0xc3
 1873 0ae7 15       		.uleb128 0x15
 1874 0ae8 54080000 		.4byte	.LASF180
 1875 0aec 0E       		.byte	0xe
 1876 0aed 1301     		.2byte	0x113
 1877 0aef C3000000 		.4byte	0xc3
 1878 0af3 15       		.uleb128 0x15
 1879 0af4 49070000 		.4byte	.LASF181
 1880 0af8 0E       		.byte	0xe
 1881 0af9 1B01     		.2byte	0x11b
ARM GAS  C:\Users\jo\AppData\Local\Temp\cc05uoEL.s 			page 34


 1882 0afb FF0A0000 		.4byte	0xaff
 1883 0aff 0B       		.uleb128 0xb
 1884 0b00 04       		.byte	0x4
 1885 0b01 E8090000 		.4byte	0x9e8
 1886 0b05 1E       		.uleb128 0x1e
 1887 0b06 27070000 		.4byte	.LASF195
 1888 0b0a 01       		.byte	0x1
 1889 0b0b 41       		.byte	0x41
 1890 0b0c 01       		.byte	0x1
 1891 0b0d 280B0000 		.4byte	0xb28
 1892 0b11 1F       		.uleb128 0x1f
 1893 0b12 43060000 		.4byte	.LASF182
 1894 0b16 01       		.byte	0x1
 1895 0b17 41       		.byte	0x41
 1896 0b18 FF0A0000 		.4byte	0xaff
 1897 0b1c 1F       		.uleb128 0x1f
 1898 0b1d C9060000 		.4byte	.LASF183
 1899 0b21 01       		.byte	0x1
 1900 0b22 41       		.byte	0x41
 1901 0b23 280B0000 		.4byte	0xb28
 1902 0b27 00       		.byte	0
 1903 0b28 0B       		.uleb128 0xb
 1904 0b29 04       		.byte	0x4
 1905 0b2a 2E0B0000 		.4byte	0xb2e
 1906 0b2e 17       		.uleb128 0x17
 1907 0b2f 500A0000 		.4byte	0xa50
 1908 0b33 20       		.uleb128 0x20
 1909 0b34 C0070000 		.4byte	.LASF184
 1910 0b38 01       		.byte	0x1
 1911 0b39 5C       		.byte	0x5c
 1912 0b3a 00000000 		.4byte	.LFB256
 1913 0b3e CC010000 		.4byte	.LFE256-.LFB256
 1914 0b42 01       		.uleb128 0x1
 1915 0b43 9C       		.byte	0x9c
 1916 0b44 AC0C0000 		.4byte	0xcac
 1917 0b48 21       		.uleb128 0x21
 1918 0b49 C9060000 		.4byte	.LASF183
 1919 0b4d 01       		.byte	0x1
 1920 0b4e 5C       		.byte	0x5c
 1921 0b4f AC0C0000 		.4byte	0xcac
 1922 0b53 01       		.uleb128 0x1
 1923 0b54 50       		.byte	0x50
 1924 0b55 22       		.uleb128 0x22
 1925 0b56 050B0000 		.4byte	0xb05
 1926 0b5a 08000000 		.4byte	.LBB20
 1927 0b5e 00000000 		.4byte	.Ldebug_ranges0+0
 1928 0b62 01       		.byte	0x1
 1929 0b63 71       		.byte	0x71
 1930 0b64 790B0000 		.4byte	0xb79
 1931 0b68 23       		.uleb128 0x23
 1932 0b69 1C0B0000 		.4byte	0xb1c
 1933 0b6d 01       		.uleb128 0x1
 1934 0b6e 50       		.byte	0x50
 1935 0b6f 24       		.uleb128 0x24
 1936 0b70 110B0000 		.4byte	0xb11
 1937 0b74 00000240 		.4byte	0x40020000
 1938 0b78 00       		.byte	0
ARM GAS  C:\Users\jo\AppData\Local\Temp\cc05uoEL.s 			page 35


 1939 0b79 22       		.uleb128 0x22
 1940 0b7a 050B0000 		.4byte	0xb05
 1941 0b7e 10000000 		.4byte	.LBB23
 1942 0b82 18000000 		.4byte	.Ldebug_ranges0+0x18
 1943 0b86 01       		.byte	0x1
 1944 0b87 74       		.byte	0x74
 1945 0b88 9F0B0000 		.4byte	0xb9f
 1946 0b8c 23       		.uleb128 0x23
 1947 0b8d 1C0B0000 		.4byte	0xb1c
 1948 0b91 03       		.uleb128 0x3
 1949 0b92 70       		.byte	0x70
 1950 0b93 1C       		.sleb128 28
 1951 0b94 9F       		.byte	0x9f
 1952 0b95 24       		.uleb128 0x24
 1953 0b96 110B0000 		.4byte	0xb11
 1954 0b9a 00040240 		.4byte	0x40020400
 1955 0b9e 00       		.byte	0
 1956 0b9f 22       		.uleb128 0x22
 1957 0ba0 050B0000 		.4byte	0xb05
 1958 0ba4 14000000 		.4byte	.LBB26
 1959 0ba8 30000000 		.4byte	.Ldebug_ranges0+0x30
 1960 0bac 01       		.byte	0x1
 1961 0bad 77       		.byte	0x77
 1962 0bae C50B0000 		.4byte	0xbc5
 1963 0bb2 23       		.uleb128 0x23
 1964 0bb3 1C0B0000 		.4byte	0xb1c
 1965 0bb7 03       		.uleb128 0x3
 1966 0bb8 70       		.byte	0x70
 1967 0bb9 38       		.sleb128 56
 1968 0bba 9F       		.byte	0x9f
 1969 0bbb 24       		.uleb128 0x24
 1970 0bbc 110B0000 		.4byte	0xb11
 1971 0bc0 00080240 		.4byte	0x40020800
 1972 0bc4 00       		.byte	0
 1973 0bc5 22       		.uleb128 0x22
 1974 0bc6 050B0000 		.4byte	0xb05
 1975 0bca 16000000 		.4byte	.LBB29
 1976 0bce 48000000 		.4byte	.Ldebug_ranges0+0x48
 1977 0bd2 01       		.byte	0x1
 1978 0bd3 7A       		.byte	0x7a
 1979 0bd4 EC0B0000 		.4byte	0xbec
 1980 0bd8 23       		.uleb128 0x23
 1981 0bd9 1C0B0000 		.4byte	0xb1c
 1982 0bdd 04       		.uleb128 0x4
 1983 0bde 70       		.byte	0x70
 1984 0bdf D400     		.sleb128 84
 1985 0be1 9F       		.byte	0x9f
 1986 0be2 24       		.uleb128 0x24
 1987 0be3 110B0000 		.4byte	0xb11
 1988 0be7 000C0240 		.4byte	0x40020c00
 1989 0beb 00       		.byte	0
 1990 0bec 22       		.uleb128 0x22
 1991 0bed 050B0000 		.4byte	0xb05
 1992 0bf1 18000000 		.4byte	.LBB32
 1993 0bf5 60000000 		.4byte	.Ldebug_ranges0+0x60
 1994 0bf9 01       		.byte	0x1
 1995 0bfa 7D       		.byte	0x7d
ARM GAS  C:\Users\jo\AppData\Local\Temp\cc05uoEL.s 			page 36


 1996 0bfb 130C0000 		.4byte	0xc13
 1997 0bff 23       		.uleb128 0x23
 1998 0c00 1C0B0000 		.4byte	0xb1c
 1999 0c04 04       		.uleb128 0x4
 2000 0c05 70       		.byte	0x70
 2001 0c06 F000     		.sleb128 112
 2002 0c08 9F       		.byte	0x9f
 2003 0c09 24       		.uleb128 0x24
 2004 0c0a 110B0000 		.4byte	0xb11
 2005 0c0e 00100240 		.4byte	0x40021000
 2006 0c12 00       		.byte	0
 2007 0c13 22       		.uleb128 0x22
 2008 0c14 050B0000 		.4byte	0xb05
 2009 0c18 1A000000 		.4byte	.LBB35
 2010 0c1c 78000000 		.4byte	.Ldebug_ranges0+0x78
 2011 0c20 01       		.byte	0x1
 2012 0c21 80       		.byte	0x80
 2013 0c22 3A0C0000 		.4byte	0xc3a
 2014 0c26 23       		.uleb128 0x23
 2015 0c27 1C0B0000 		.4byte	0xb1c
 2016 0c2b 04       		.uleb128 0x4
 2017 0c2c 70       		.byte	0x70
 2018 0c2d 8C01     		.sleb128 140
 2019 0c2f 9F       		.byte	0x9f
 2020 0c30 24       		.uleb128 0x24
 2021 0c31 110B0000 		.4byte	0xb11
 2022 0c35 00140240 		.4byte	0x40021400
 2023 0c39 00       		.byte	0
 2024 0c3a 22       		.uleb128 0x22
 2025 0c3b 050B0000 		.4byte	0xb05
 2026 0c3f 1C000000 		.4byte	.LBB38
 2027 0c43 90000000 		.4byte	.Ldebug_ranges0+0x90
 2028 0c47 01       		.byte	0x1
 2029 0c48 83       		.byte	0x83
 2030 0c49 610C0000 		.4byte	0xc61
 2031 0c4d 23       		.uleb128 0x23
 2032 0c4e 1C0B0000 		.4byte	0xb1c
 2033 0c52 04       		.uleb128 0x4
 2034 0c53 70       		.byte	0x70
 2035 0c54 A801     		.sleb128 168
 2036 0c56 9F       		.byte	0x9f
 2037 0c57 24       		.uleb128 0x24
 2038 0c58 110B0000 		.4byte	0xb11
 2039 0c5c 00180240 		.4byte	0x40021800
 2040 0c60 00       		.byte	0
 2041 0c61 22       		.uleb128 0x22
 2042 0c62 050B0000 		.4byte	0xb05
 2043 0c66 1E000000 		.4byte	.LBB41
 2044 0c6a A8000000 		.4byte	.Ldebug_ranges0+0xa8
 2045 0c6e 01       		.byte	0x1
 2046 0c6f 86       		.byte	0x86
 2047 0c70 880C0000 		.4byte	0xc88
 2048 0c74 23       		.uleb128 0x23
 2049 0c75 1C0B0000 		.4byte	0xb1c
 2050 0c79 04       		.uleb128 0x4
 2051 0c7a 70       		.byte	0x70
 2052 0c7b C401     		.sleb128 196
ARM GAS  C:\Users\jo\AppData\Local\Temp\cc05uoEL.s 			page 37


 2053 0c7d 9F       		.byte	0x9f
 2054 0c7e 24       		.uleb128 0x24
 2055 0c7f 110B0000 		.4byte	0xb11
 2056 0c83 001C0240 		.4byte	0x40021c00
 2057 0c87 00       		.byte	0
 2058 0c88 25       		.uleb128 0x25
 2059 0c89 050B0000 		.4byte	0xb05
 2060 0c8d 20000000 		.4byte	.LBB44
 2061 0c91 C0000000 		.4byte	.Ldebug_ranges0+0xc0
 2062 0c95 01       		.byte	0x1
 2063 0c96 89       		.byte	0x89
 2064 0c97 23       		.uleb128 0x23
 2065 0c98 1C0B0000 		.4byte	0xb1c
 2066 0c9c 04       		.uleb128 0x4
 2067 0c9d 70       		.byte	0x70
 2068 0c9e E001     		.sleb128 224
 2069 0ca0 9F       		.byte	0x9f
 2070 0ca1 24       		.uleb128 0x24
 2071 0ca2 110B0000 		.4byte	0xb11
 2072 0ca6 00200240 		.4byte	0x40022000
 2073 0caa 00       		.byte	0
 2074 0cab 00       		.byte	0
 2075 0cac 0B       		.uleb128 0xb
 2076 0cad 04       		.byte	0x4
 2077 0cae B20C0000 		.4byte	0xcb2
 2078 0cb2 17       		.uleb128 0x17
 2079 0cb3 D00A0000 		.4byte	0xad0
 2080 0cb7 20       		.uleb128 0x20
 2081 0cb8 6C070000 		.4byte	.LASF185
 2082 0cbc 01       		.byte	0x1
 2083 0cbd 9B       		.byte	0x9b
 2084 0cbe 00000000 		.4byte	.LFB257
 2085 0cc2 AC000000 		.4byte	.LFE257-.LFB257
 2086 0cc6 01       		.uleb128 0x1
 2087 0cc7 9C       		.byte	0x9c
 2088 0cc8 870D0000 		.4byte	0xd87
 2089 0ccc 21       		.uleb128 0x21
 2090 0ccd 77020000 		.4byte	.LASF186
 2091 0cd1 01       		.byte	0x1
 2092 0cd2 9B       		.byte	0x9b
 2093 0cd3 F30A0000 		.4byte	0xaf3
 2094 0cd7 01       		.uleb128 0x1
 2095 0cd8 50       		.byte	0x50
 2096 0cd9 26       		.uleb128 0x26
 2097 0cda 3D020000 		.4byte	.LASF187
 2098 0cde 01       		.byte	0x1
 2099 0cdf 9C       		.byte	0x9c
 2100 0ce0 DB0A0000 		.4byte	0xadb
 2101 0ce4 00000000 		.4byte	.LLST0
 2102 0ce8 26       		.uleb128 0x26
 2103 0ce9 C4060000 		.4byte	.LASF188
 2104 0ced 01       		.byte	0x1
 2105 0cee 9D       		.byte	0x9d
 2106 0cef E70A0000 		.4byte	0xae7
 2107 0cf3 2D000000 		.4byte	.LLST1
 2108 0cf7 27       		.uleb128 0x27
 2109 0cf8 BE010000 		.4byte	.LASF162
ARM GAS  C:\Users\jo\AppData\Local\Temp\cc05uoEL.s 			page 38


 2110 0cfc 01       		.byte	0x1
 2111 0cfd 9F       		.byte	0x9f
 2112 0cfe C3000000 		.4byte	0xc3
 2113 0d02 01       		.uleb128 0x1
 2114 0d03 5E       		.byte	0x5e
 2115 0d04 27       		.uleb128 0x27
 2116 0d05 E7020000 		.4byte	.LASF163
 2117 0d09 01       		.byte	0x1
 2118 0d0a A0       		.byte	0xa0
 2119 0d0b C3000000 		.4byte	0xc3
 2120 0d0f 01       		.uleb128 0x1
 2121 0d10 57       		.byte	0x57
 2122 0d11 27       		.uleb128 0x27
 2123 0d12 D4020000 		.4byte	.LASF164
 2124 0d16 01       		.byte	0x1
 2125 0d17 A1       		.byte	0xa1
 2126 0d18 C3000000 		.4byte	0xc3
 2127 0d1c 01       		.uleb128 0x1
 2128 0d1d 56       		.byte	0x56
 2129 0d1e 27       		.uleb128 0x27
 2130 0d1f E1070000 		.4byte	.LASF165
 2131 0d23 01       		.byte	0x1
 2132 0d24 A2       		.byte	0xa2
 2133 0d25 C3000000 		.4byte	0xc3
 2134 0d29 01       		.uleb128 0x1
 2135 0d2a 55       		.byte	0x55
 2136 0d2b 27       		.uleb128 0x27
 2137 0d2c BA060000 		.4byte	.LASF189
 2138 0d30 01       		.byte	0x1
 2139 0d31 A3       		.byte	0xa3
 2140 0d32 C3000000 		.4byte	0xc3
 2141 0d36 01       		.uleb128 0x1
 2142 0d37 52       		.byte	0x52
 2143 0d38 28       		.uleb128 0x28
 2144 0d39 62697400 		.ascii	"bit\000"
 2145 0d3d 01       		.byte	0x1
 2146 0d3e A4       		.byte	0xa4
 2147 0d3f C3000000 		.4byte	0xc3
 2148 0d43 4E000000 		.4byte	.LLST2
 2149 0d47 29       		.uleb128 0x29
 2150 0d48 D8000000 		.4byte	.Ldebug_ranges0+0xd8
 2151 0d4c 2A       		.uleb128 0x2a
 2152 0d4d 0C020000 		.4byte	.LASF190
 2153 0d51 01       		.byte	0x1
 2154 0d52 A7       		.byte	0xa7
 2155 0d53 C3000000 		.4byte	0xc3
 2156 0d57 6D000000 		.4byte	.LLST3
 2157 0d5b 28       		.uleb128 0x28
 2158 0d5c 6D3100   		.ascii	"m1\000"
 2159 0d5f 01       		.byte	0x1
 2160 0d60 A7       		.byte	0xa7
 2161 0d61 C3000000 		.4byte	0xc3
 2162 0d65 B3000000 		.4byte	.LLST4
 2163 0d69 28       		.uleb128 0x28
 2164 0d6a 6D3200   		.ascii	"m2\000"
 2165 0d6d 01       		.byte	0x1
 2166 0d6e A7       		.byte	0xa7
ARM GAS  C:\Users\jo\AppData\Local\Temp\cc05uoEL.s 			page 39


 2167 0d6f C3000000 		.4byte	0xc3
 2168 0d73 CA000000 		.4byte	.LLST5
 2169 0d77 28       		.uleb128 0x28
 2170 0d78 6D3400   		.ascii	"m4\000"
 2171 0d7b 01       		.byte	0x1
 2172 0d7c A7       		.byte	0xa7
 2173 0d7d C3000000 		.4byte	0xc3
 2174 0d81 E3000000 		.4byte	.LLST6
 2175 0d85 00       		.byte	0
 2176 0d86 00       		.byte	0
 2177 0d87 2B       		.uleb128 0x2b
 2178 0d88 11010000 		.4byte	.LASF191
 2179 0d8c 0F       		.byte	0xf
 2180 0d8d A706     		.2byte	0x6a7
 2181 0d8f D9000000 		.4byte	0xd9
 2182 0d93 2C       		.uleb128 0x2c
 2183 0d94 636800   		.ascii	"ch\000"
 2184 0d97 06       		.byte	0x6
 2185 0d98 EB01     		.2byte	0x1eb
 2186 0d9a 3B040000 		.4byte	0x43b
 2187 0d9e 00       		.byte	0
 2188              		.section	.debug_abbrev,"",%progbits
 2189              	.Ldebug_abbrev0:
 2190 0000 01       		.uleb128 0x1
 2191 0001 11       		.uleb128 0x11
 2192 0002 01       		.byte	0x1
 2193 0003 25       		.uleb128 0x25
 2194 0004 0E       		.uleb128 0xe
 2195 0005 13       		.uleb128 0x13
 2196 0006 0B       		.uleb128 0xb
 2197 0007 03       		.uleb128 0x3
 2198 0008 0E       		.uleb128 0xe
 2199 0009 1B       		.uleb128 0x1b
 2200 000a 0E       		.uleb128 0xe
 2201 000b 55       		.uleb128 0x55
 2202 000c 17       		.uleb128 0x17
 2203 000d 11       		.uleb128 0x11
 2204 000e 01       		.uleb128 0x1
 2205 000f 10       		.uleb128 0x10
 2206 0010 17       		.uleb128 0x17
 2207 0011 00       		.byte	0
 2208 0012 00       		.byte	0
 2209 0013 02       		.uleb128 0x2
 2210 0014 24       		.uleb128 0x24
 2211 0015 00       		.byte	0
 2212 0016 0B       		.uleb128 0xb
 2213 0017 0B       		.uleb128 0xb
 2214 0018 3E       		.uleb128 0x3e
 2215 0019 0B       		.uleb128 0xb
 2216 001a 03       		.uleb128 0x3
 2217 001b 08       		.uleb128 0x8
 2218 001c 00       		.byte	0
 2219 001d 00       		.byte	0
 2220 001e 03       		.uleb128 0x3
 2221 001f 24       		.uleb128 0x24
 2222 0020 00       		.byte	0
 2223 0021 0B       		.uleb128 0xb
ARM GAS  C:\Users\jo\AppData\Local\Temp\cc05uoEL.s 			page 40


 2224 0022 0B       		.uleb128 0xb
 2225 0023 3E       		.uleb128 0x3e
 2226 0024 0B       		.uleb128 0xb
 2227 0025 03       		.uleb128 0x3
 2228 0026 0E       		.uleb128 0xe
 2229 0027 00       		.byte	0
 2230 0028 00       		.byte	0
 2231 0029 04       		.uleb128 0x4
 2232 002a 16       		.uleb128 0x16
 2233 002b 00       		.byte	0
 2234 002c 03       		.uleb128 0x3
 2235 002d 0E       		.uleb128 0xe
 2236 002e 3A       		.uleb128 0x3a
 2237 002f 0B       		.uleb128 0xb
 2238 0030 3B       		.uleb128 0x3b
 2239 0031 0B       		.uleb128 0xb
 2240 0032 49       		.uleb128 0x49
 2241 0033 13       		.uleb128 0x13
 2242 0034 00       		.byte	0
 2243 0035 00       		.byte	0
 2244 0036 05       		.uleb128 0x5
 2245 0037 35       		.uleb128 0x35
 2246 0038 00       		.byte	0
 2247 0039 49       		.uleb128 0x49
 2248 003a 13       		.uleb128 0x13
 2249 003b 00       		.byte	0
 2250 003c 00       		.byte	0
 2251 003d 06       		.uleb128 0x6
 2252 003e 13       		.uleb128 0x13
 2253 003f 01       		.byte	0x1
 2254 0040 03       		.uleb128 0x3
 2255 0041 0E       		.uleb128 0xe
 2256 0042 0B       		.uleb128 0xb
 2257 0043 0B       		.uleb128 0xb
 2258 0044 3A       		.uleb128 0x3a
 2259 0045 0B       		.uleb128 0xb
 2260 0046 3B       		.uleb128 0x3b
 2261 0047 0B       		.uleb128 0xb
 2262 0048 01       		.uleb128 0x1
 2263 0049 13       		.uleb128 0x13
 2264 004a 00       		.byte	0
 2265 004b 00       		.byte	0
 2266 004c 07       		.uleb128 0x7
 2267 004d 0D       		.uleb128 0xd
 2268 004e 00       		.byte	0
 2269 004f 03       		.uleb128 0x3
 2270 0050 0E       		.uleb128 0xe
 2271 0051 3A       		.uleb128 0x3a
 2272 0052 0B       		.uleb128 0xb
 2273 0053 3B       		.uleb128 0x3b
 2274 0054 0B       		.uleb128 0xb
 2275 0055 49       		.uleb128 0x49
 2276 0056 13       		.uleb128 0x13
 2277 0057 38       		.uleb128 0x38
 2278 0058 0B       		.uleb128 0xb
 2279 0059 00       		.byte	0
 2280 005a 00       		.byte	0
ARM GAS  C:\Users\jo\AppData\Local\Temp\cc05uoEL.s 			page 41


 2281 005b 08       		.uleb128 0x8
 2282 005c 0D       		.uleb128 0xd
 2283 005d 00       		.byte	0
 2284 005e 03       		.uleb128 0x3
 2285 005f 08       		.uleb128 0x8
 2286 0060 3A       		.uleb128 0x3a
 2287 0061 0B       		.uleb128 0xb
 2288 0062 3B       		.uleb128 0x3b
 2289 0063 05       		.uleb128 0x5
 2290 0064 49       		.uleb128 0x49
 2291 0065 13       		.uleb128 0x13
 2292 0066 38       		.uleb128 0x38
 2293 0067 0B       		.uleb128 0xb
 2294 0068 00       		.byte	0
 2295 0069 00       		.byte	0
 2296 006a 09       		.uleb128 0x9
 2297 006b 0D       		.uleb128 0xd
 2298 006c 00       		.byte	0
 2299 006d 03       		.uleb128 0x3
 2300 006e 0E       		.uleb128 0xe
 2301 006f 3A       		.uleb128 0x3a
 2302 0070 0B       		.uleb128 0xb
 2303 0071 3B       		.uleb128 0x3b
 2304 0072 05       		.uleb128 0x5
 2305 0073 49       		.uleb128 0x49
 2306 0074 13       		.uleb128 0x13
 2307 0075 38       		.uleb128 0x38
 2308 0076 0B       		.uleb128 0xb
 2309 0077 00       		.byte	0
 2310 0078 00       		.byte	0
 2311 0079 0A       		.uleb128 0xa
 2312 007a 13       		.uleb128 0x13
 2313 007b 01       		.byte	0x1
 2314 007c 03       		.uleb128 0x3
 2315 007d 0E       		.uleb128 0xe
 2316 007e 0B       		.uleb128 0xb
 2317 007f 0B       		.uleb128 0xb
 2318 0080 3A       		.uleb128 0x3a
 2319 0081 0B       		.uleb128 0xb
 2320 0082 3B       		.uleb128 0x3b
 2321 0083 05       		.uleb128 0x5
 2322 0084 01       		.uleb128 0x1
 2323 0085 13       		.uleb128 0x13
 2324 0086 00       		.byte	0
 2325 0087 00       		.byte	0
 2326 0088 0B       		.uleb128 0xb
 2327 0089 0F       		.uleb128 0xf
 2328 008a 00       		.byte	0
 2329 008b 0B       		.uleb128 0xb
 2330 008c 0B       		.uleb128 0xb
 2331 008d 49       		.uleb128 0x49
 2332 008e 13       		.uleb128 0x13
 2333 008f 00       		.byte	0
 2334 0090 00       		.byte	0
 2335 0091 0C       		.uleb128 0xc
 2336 0092 15       		.uleb128 0x15
 2337 0093 01       		.byte	0x1
ARM GAS  C:\Users\jo\AppData\Local\Temp\cc05uoEL.s 			page 42


 2338 0094 27       		.uleb128 0x27
 2339 0095 19       		.uleb128 0x19
 2340 0096 01       		.uleb128 0x1
 2341 0097 13       		.uleb128 0x13
 2342 0098 00       		.byte	0
 2343 0099 00       		.byte	0
 2344 009a 0D       		.uleb128 0xd
 2345 009b 05       		.uleb128 0x5
 2346 009c 00       		.byte	0
 2347 009d 49       		.uleb128 0x49
 2348 009e 13       		.uleb128 0x13
 2349 009f 00       		.byte	0
 2350 00a0 00       		.byte	0
 2351 00a1 0E       		.uleb128 0xe
 2352 00a2 0F       		.uleb128 0xf
 2353 00a3 00       		.byte	0
 2354 00a4 0B       		.uleb128 0xb
 2355 00a5 0B       		.uleb128 0xb
 2356 00a6 00       		.byte	0
 2357 00a7 00       		.byte	0
 2358 00a8 0F       		.uleb128 0xf
 2359 00a9 13       		.uleb128 0x13
 2360 00aa 01       		.byte	0x1
 2361 00ab 03       		.uleb128 0x3
 2362 00ac 0E       		.uleb128 0xe
 2363 00ad 0B       		.uleb128 0xb
 2364 00ae 05       		.uleb128 0x5
 2365 00af 3A       		.uleb128 0x3a
 2366 00b0 0B       		.uleb128 0xb
 2367 00b1 3B       		.uleb128 0x3b
 2368 00b2 05       		.uleb128 0x5
 2369 00b3 01       		.uleb128 0x1
 2370 00b4 13       		.uleb128 0x13
 2371 00b5 00       		.byte	0
 2372 00b6 00       		.byte	0
 2373 00b7 10       		.uleb128 0x10
 2374 00b8 0D       		.uleb128 0xd
 2375 00b9 00       		.byte	0
 2376 00ba 03       		.uleb128 0x3
 2377 00bb 0E       		.uleb128 0xe
 2378 00bc 3A       		.uleb128 0x3a
 2379 00bd 0B       		.uleb128 0xb
 2380 00be 3B       		.uleb128 0x3b
 2381 00bf 05       		.uleb128 0x5
 2382 00c0 49       		.uleb128 0x49
 2383 00c1 13       		.uleb128 0x13
 2384 00c2 38       		.uleb128 0x38
 2385 00c3 05       		.uleb128 0x5
 2386 00c4 00       		.byte	0
 2387 00c5 00       		.byte	0
 2388 00c6 11       		.uleb128 0x11
 2389 00c7 0D       		.uleb128 0xd
 2390 00c8 00       		.byte	0
 2391 00c9 03       		.uleb128 0x3
 2392 00ca 08       		.uleb128 0x8
 2393 00cb 3A       		.uleb128 0x3a
 2394 00cc 0B       		.uleb128 0xb
ARM GAS  C:\Users\jo\AppData\Local\Temp\cc05uoEL.s 			page 43


 2395 00cd 3B       		.uleb128 0x3b
 2396 00ce 05       		.uleb128 0x5
 2397 00cf 49       		.uleb128 0x49
 2398 00d0 13       		.uleb128 0x13
 2399 00d1 38       		.uleb128 0x38
 2400 00d2 05       		.uleb128 0x5
 2401 00d3 00       		.byte	0
 2402 00d4 00       		.byte	0
 2403 00d5 12       		.uleb128 0x12
 2404 00d6 01       		.uleb128 0x1
 2405 00d7 01       		.byte	0x1
 2406 00d8 49       		.uleb128 0x49
 2407 00d9 13       		.uleb128 0x13
 2408 00da 01       		.uleb128 0x1
 2409 00db 13       		.uleb128 0x13
 2410 00dc 00       		.byte	0
 2411 00dd 00       		.byte	0
 2412 00de 13       		.uleb128 0x13
 2413 00df 21       		.uleb128 0x21
 2414 00e0 00       		.byte	0
 2415 00e1 49       		.uleb128 0x49
 2416 00e2 13       		.uleb128 0x13
 2417 00e3 2F       		.uleb128 0x2f
 2418 00e4 0B       		.uleb128 0xb
 2419 00e5 00       		.byte	0
 2420 00e6 00       		.byte	0
 2421 00e7 14       		.uleb128 0x14
 2422 00e8 13       		.uleb128 0x13
 2423 00e9 01       		.byte	0x1
 2424 00ea 0B       		.uleb128 0xb
 2425 00eb 0B       		.uleb128 0xb
 2426 00ec 3A       		.uleb128 0x3a
 2427 00ed 0B       		.uleb128 0xb
 2428 00ee 3B       		.uleb128 0x3b
 2429 00ef 05       		.uleb128 0x5
 2430 00f0 01       		.uleb128 0x1
 2431 00f1 13       		.uleb128 0x13
 2432 00f2 00       		.byte	0
 2433 00f3 00       		.byte	0
 2434 00f4 15       		.uleb128 0x15
 2435 00f5 16       		.uleb128 0x16
 2436 00f6 00       		.byte	0
 2437 00f7 03       		.uleb128 0x3
 2438 00f8 0E       		.uleb128 0xe
 2439 00f9 3A       		.uleb128 0x3a
 2440 00fa 0B       		.uleb128 0xb
 2441 00fb 3B       		.uleb128 0x3b
 2442 00fc 05       		.uleb128 0x5
 2443 00fd 49       		.uleb128 0x49
 2444 00fe 13       		.uleb128 0x13
 2445 00ff 00       		.byte	0
 2446 0100 00       		.byte	0
 2447 0101 16       		.uleb128 0x16
 2448 0102 0D       		.uleb128 0xd
 2449 0103 00       		.byte	0
 2450 0104 03       		.uleb128 0x3
 2451 0105 08       		.uleb128 0x8
ARM GAS  C:\Users\jo\AppData\Local\Temp\cc05uoEL.s 			page 44


 2452 0106 3A       		.uleb128 0x3a
 2453 0107 0B       		.uleb128 0xb
 2454 0108 3B       		.uleb128 0x3b
 2455 0109 0B       		.uleb128 0xb
 2456 010a 49       		.uleb128 0x49
 2457 010b 13       		.uleb128 0x13
 2458 010c 38       		.uleb128 0x38
 2459 010d 0B       		.uleb128 0xb
 2460 010e 00       		.byte	0
 2461 010f 00       		.byte	0
 2462 0110 17       		.uleb128 0x17
 2463 0111 26       		.uleb128 0x26
 2464 0112 00       		.byte	0
 2465 0113 49       		.uleb128 0x49
 2466 0114 13       		.uleb128 0x13
 2467 0115 00       		.byte	0
 2468 0116 00       		.byte	0
 2469 0117 18       		.uleb128 0x18
 2470 0118 13       		.uleb128 0x13
 2471 0119 01       		.byte	0x1
 2472 011a 0B       		.uleb128 0xb
 2473 011b 0B       		.uleb128 0xb
 2474 011c 3A       		.uleb128 0x3a
 2475 011d 0B       		.uleb128 0xb
 2476 011e 3B       		.uleb128 0x3b
 2477 011f 0B       		.uleb128 0xb
 2478 0120 01       		.uleb128 0x1
 2479 0121 13       		.uleb128 0x13
 2480 0122 00       		.byte	0
 2481 0123 00       		.byte	0
 2482 0124 19       		.uleb128 0x19
 2483 0125 13       		.uleb128 0x13
 2484 0126 01       		.byte	0x1
 2485 0127 0B       		.uleb128 0xb
 2486 0128 05       		.uleb128 0x5
 2487 0129 3A       		.uleb128 0x3a
 2488 012a 0B       		.uleb128 0xb
 2489 012b 3B       		.uleb128 0x3b
 2490 012c 0B       		.uleb128 0xb
 2491 012d 01       		.uleb128 0x1
 2492 012e 13       		.uleb128 0x13
 2493 012f 00       		.byte	0
 2494 0130 00       		.byte	0
 2495 0131 1A       		.uleb128 0x1a
 2496 0132 17       		.uleb128 0x17
 2497 0133 01       		.byte	0x1
 2498 0134 0B       		.uleb128 0xb
 2499 0135 0B       		.uleb128 0xb
 2500 0136 3A       		.uleb128 0x3a
 2501 0137 0B       		.uleb128 0xb
 2502 0138 3B       		.uleb128 0x3b
 2503 0139 0B       		.uleb128 0xb
 2504 013a 01       		.uleb128 0x1
 2505 013b 13       		.uleb128 0x13
 2506 013c 00       		.byte	0
 2507 013d 00       		.byte	0
 2508 013e 1B       		.uleb128 0x1b
ARM GAS  C:\Users\jo\AppData\Local\Temp\cc05uoEL.s 			page 45


 2509 013f 0D       		.uleb128 0xd
 2510 0140 00       		.byte	0
 2511 0141 03       		.uleb128 0x3
 2512 0142 0E       		.uleb128 0xe
 2513 0143 3A       		.uleb128 0x3a
 2514 0144 0B       		.uleb128 0xb
 2515 0145 3B       		.uleb128 0x3b
 2516 0146 0B       		.uleb128 0xb
 2517 0147 49       		.uleb128 0x49
 2518 0148 13       		.uleb128 0x13
 2519 0149 00       		.byte	0
 2520 014a 00       		.byte	0
 2521 014b 1C       		.uleb128 0x1c
 2522 014c 0D       		.uleb128 0xd
 2523 014d 00       		.byte	0
 2524 014e 03       		.uleb128 0x3
 2525 014f 0E       		.uleb128 0xe
 2526 0150 3A       		.uleb128 0x3a
 2527 0151 0B       		.uleb128 0xb
 2528 0152 3B       		.uleb128 0x3b
 2529 0153 05       		.uleb128 0x5
 2530 0154 49       		.uleb128 0x49
 2531 0155 13       		.uleb128 0x13
 2532 0156 00       		.byte	0
 2533 0157 00       		.byte	0
 2534 0158 1D       		.uleb128 0x1d
 2535 0159 0D       		.uleb128 0xd
 2536 015a 00       		.byte	0
 2537 015b 03       		.uleb128 0x3
 2538 015c 08       		.uleb128 0x8
 2539 015d 3A       		.uleb128 0x3a
 2540 015e 0B       		.uleb128 0xb
 2541 015f 3B       		.uleb128 0x3b
 2542 0160 0B       		.uleb128 0xb
 2543 0161 49       		.uleb128 0x49
 2544 0162 13       		.uleb128 0x13
 2545 0163 00       		.byte	0
 2546 0164 00       		.byte	0
 2547 0165 1E       		.uleb128 0x1e
 2548 0166 2E       		.uleb128 0x2e
 2549 0167 01       		.byte	0x1
 2550 0168 03       		.uleb128 0x3
 2551 0169 0E       		.uleb128 0xe
 2552 016a 3A       		.uleb128 0x3a
 2553 016b 0B       		.uleb128 0xb
 2554 016c 3B       		.uleb128 0x3b
 2555 016d 0B       		.uleb128 0xb
 2556 016e 27       		.uleb128 0x27
 2557 016f 19       		.uleb128 0x19
 2558 0170 20       		.uleb128 0x20
 2559 0171 0B       		.uleb128 0xb
 2560 0172 01       		.uleb128 0x1
 2561 0173 13       		.uleb128 0x13
 2562 0174 00       		.byte	0
 2563 0175 00       		.byte	0
 2564 0176 1F       		.uleb128 0x1f
 2565 0177 05       		.uleb128 0x5
ARM GAS  C:\Users\jo\AppData\Local\Temp\cc05uoEL.s 			page 46


 2566 0178 00       		.byte	0
 2567 0179 03       		.uleb128 0x3
 2568 017a 0E       		.uleb128 0xe
 2569 017b 3A       		.uleb128 0x3a
 2570 017c 0B       		.uleb128 0xb
 2571 017d 3B       		.uleb128 0x3b
 2572 017e 0B       		.uleb128 0xb
 2573 017f 49       		.uleb128 0x49
 2574 0180 13       		.uleb128 0x13
 2575 0181 00       		.byte	0
 2576 0182 00       		.byte	0
 2577 0183 20       		.uleb128 0x20
 2578 0184 2E       		.uleb128 0x2e
 2579 0185 01       		.byte	0x1
 2580 0186 3F       		.uleb128 0x3f
 2581 0187 19       		.uleb128 0x19
 2582 0188 03       		.uleb128 0x3
 2583 0189 0E       		.uleb128 0xe
 2584 018a 3A       		.uleb128 0x3a
 2585 018b 0B       		.uleb128 0xb
 2586 018c 3B       		.uleb128 0x3b
 2587 018d 0B       		.uleb128 0xb
 2588 018e 27       		.uleb128 0x27
 2589 018f 19       		.uleb128 0x19
 2590 0190 11       		.uleb128 0x11
 2591 0191 01       		.uleb128 0x1
 2592 0192 12       		.uleb128 0x12
 2593 0193 06       		.uleb128 0x6
 2594 0194 40       		.uleb128 0x40
 2595 0195 18       		.uleb128 0x18
 2596 0196 9742     		.uleb128 0x2117
 2597 0198 19       		.uleb128 0x19
 2598 0199 01       		.uleb128 0x1
 2599 019a 13       		.uleb128 0x13
 2600 019b 00       		.byte	0
 2601 019c 00       		.byte	0
 2602 019d 21       		.uleb128 0x21
 2603 019e 05       		.uleb128 0x5
 2604 019f 00       		.byte	0
 2605 01a0 03       		.uleb128 0x3
 2606 01a1 0E       		.uleb128 0xe
 2607 01a2 3A       		.uleb128 0x3a
 2608 01a3 0B       		.uleb128 0xb
 2609 01a4 3B       		.uleb128 0x3b
 2610 01a5 0B       		.uleb128 0xb
 2611 01a6 49       		.uleb128 0x49
 2612 01a7 13       		.uleb128 0x13
 2613 01a8 02       		.uleb128 0x2
 2614 01a9 18       		.uleb128 0x18
 2615 01aa 00       		.byte	0
 2616 01ab 00       		.byte	0
 2617 01ac 22       		.uleb128 0x22
 2618 01ad 1D       		.uleb128 0x1d
 2619 01ae 01       		.byte	0x1
 2620 01af 31       		.uleb128 0x31
 2621 01b0 13       		.uleb128 0x13
 2622 01b1 52       		.uleb128 0x52
ARM GAS  C:\Users\jo\AppData\Local\Temp\cc05uoEL.s 			page 47


 2623 01b2 01       		.uleb128 0x1
 2624 01b3 55       		.uleb128 0x55
 2625 01b4 17       		.uleb128 0x17
 2626 01b5 58       		.uleb128 0x58
 2627 01b6 0B       		.uleb128 0xb
 2628 01b7 59       		.uleb128 0x59
 2629 01b8 0B       		.uleb128 0xb
 2630 01b9 01       		.uleb128 0x1
 2631 01ba 13       		.uleb128 0x13
 2632 01bb 00       		.byte	0
 2633 01bc 00       		.byte	0
 2634 01bd 23       		.uleb128 0x23
 2635 01be 05       		.uleb128 0x5
 2636 01bf 00       		.byte	0
 2637 01c0 31       		.uleb128 0x31
 2638 01c1 13       		.uleb128 0x13
 2639 01c2 02       		.uleb128 0x2
 2640 01c3 18       		.uleb128 0x18
 2641 01c4 00       		.byte	0
 2642 01c5 00       		.byte	0
 2643 01c6 24       		.uleb128 0x24
 2644 01c7 05       		.uleb128 0x5
 2645 01c8 00       		.byte	0
 2646 01c9 31       		.uleb128 0x31
 2647 01ca 13       		.uleb128 0x13
 2648 01cb 1C       		.uleb128 0x1c
 2649 01cc 06       		.uleb128 0x6
 2650 01cd 00       		.byte	0
 2651 01ce 00       		.byte	0
 2652 01cf 25       		.uleb128 0x25
 2653 01d0 1D       		.uleb128 0x1d
 2654 01d1 01       		.byte	0x1
 2655 01d2 31       		.uleb128 0x31
 2656 01d3 13       		.uleb128 0x13
 2657 01d4 52       		.uleb128 0x52
 2658 01d5 01       		.uleb128 0x1
 2659 01d6 55       		.uleb128 0x55
 2660 01d7 17       		.uleb128 0x17
 2661 01d8 58       		.uleb128 0x58
 2662 01d9 0B       		.uleb128 0xb
 2663 01da 59       		.uleb128 0x59
 2664 01db 0B       		.uleb128 0xb
 2665 01dc 00       		.byte	0
 2666 01dd 00       		.byte	0
 2667 01de 26       		.uleb128 0x26
 2668 01df 05       		.uleb128 0x5
 2669 01e0 00       		.byte	0
 2670 01e1 03       		.uleb128 0x3
 2671 01e2 0E       		.uleb128 0xe
 2672 01e3 3A       		.uleb128 0x3a
 2673 01e4 0B       		.uleb128 0xb
 2674 01e5 3B       		.uleb128 0x3b
 2675 01e6 0B       		.uleb128 0xb
 2676 01e7 49       		.uleb128 0x49
 2677 01e8 13       		.uleb128 0x13
 2678 01e9 02       		.uleb128 0x2
 2679 01ea 17       		.uleb128 0x17
ARM GAS  C:\Users\jo\AppData\Local\Temp\cc05uoEL.s 			page 48


 2680 01eb 00       		.byte	0
 2681 01ec 00       		.byte	0
 2682 01ed 27       		.uleb128 0x27
 2683 01ee 34       		.uleb128 0x34
 2684 01ef 00       		.byte	0
 2685 01f0 03       		.uleb128 0x3
 2686 01f1 0E       		.uleb128 0xe
 2687 01f2 3A       		.uleb128 0x3a
 2688 01f3 0B       		.uleb128 0xb
 2689 01f4 3B       		.uleb128 0x3b
 2690 01f5 0B       		.uleb128 0xb
 2691 01f6 49       		.uleb128 0x49
 2692 01f7 13       		.uleb128 0x13
 2693 01f8 02       		.uleb128 0x2
 2694 01f9 18       		.uleb128 0x18
 2695 01fa 00       		.byte	0
 2696 01fb 00       		.byte	0
 2697 01fc 28       		.uleb128 0x28
 2698 01fd 34       		.uleb128 0x34
 2699 01fe 00       		.byte	0
 2700 01ff 03       		.uleb128 0x3
 2701 0200 08       		.uleb128 0x8
 2702 0201 3A       		.uleb128 0x3a
 2703 0202 0B       		.uleb128 0xb
 2704 0203 3B       		.uleb128 0x3b
 2705 0204 0B       		.uleb128 0xb
 2706 0205 49       		.uleb128 0x49
 2707 0206 13       		.uleb128 0x13
 2708 0207 02       		.uleb128 0x2
 2709 0208 17       		.uleb128 0x17
 2710 0209 00       		.byte	0
 2711 020a 00       		.byte	0
 2712 020b 29       		.uleb128 0x29
 2713 020c 0B       		.uleb128 0xb
 2714 020d 01       		.byte	0x1
 2715 020e 55       		.uleb128 0x55
 2716 020f 17       		.uleb128 0x17
 2717 0210 00       		.byte	0
 2718 0211 00       		.byte	0
 2719 0212 2A       		.uleb128 0x2a
 2720 0213 34       		.uleb128 0x34
 2721 0214 00       		.byte	0
 2722 0215 03       		.uleb128 0x3
 2723 0216 0E       		.uleb128 0xe
 2724 0217 3A       		.uleb128 0x3a
 2725 0218 0B       		.uleb128 0xb
 2726 0219 3B       		.uleb128 0x3b
 2727 021a 0B       		.uleb128 0xb
 2728 021b 49       		.uleb128 0x49
 2729 021c 13       		.uleb128 0x13
 2730 021d 02       		.uleb128 0x2
 2731 021e 17       		.uleb128 0x17
 2732 021f 00       		.byte	0
 2733 0220 00       		.byte	0
 2734 0221 2B       		.uleb128 0x2b
 2735 0222 34       		.uleb128 0x34
 2736 0223 00       		.byte	0
ARM GAS  C:\Users\jo\AppData\Local\Temp\cc05uoEL.s 			page 49


 2737 0224 03       		.uleb128 0x3
 2738 0225 0E       		.uleb128 0xe
 2739 0226 3A       		.uleb128 0x3a
 2740 0227 0B       		.uleb128 0xb
 2741 0228 3B       		.uleb128 0x3b
 2742 0229 05       		.uleb128 0x5
 2743 022a 49       		.uleb128 0x49
 2744 022b 13       		.uleb128 0x13
 2745 022c 3F       		.uleb128 0x3f
 2746 022d 19       		.uleb128 0x19
 2747 022e 3C       		.uleb128 0x3c
 2748 022f 19       		.uleb128 0x19
 2749 0230 00       		.byte	0
 2750 0231 00       		.byte	0
 2751 0232 2C       		.uleb128 0x2c
 2752 0233 34       		.uleb128 0x34
 2753 0234 00       		.byte	0
 2754 0235 03       		.uleb128 0x3
 2755 0236 08       		.uleb128 0x8
 2756 0237 3A       		.uleb128 0x3a
 2757 0238 0B       		.uleb128 0xb
 2758 0239 3B       		.uleb128 0x3b
 2759 023a 05       		.uleb128 0x5
 2760 023b 49       		.uleb128 0x49
 2761 023c 13       		.uleb128 0x13
 2762 023d 3F       		.uleb128 0x3f
 2763 023e 19       		.uleb128 0x19
 2764 023f 3C       		.uleb128 0x3c
 2765 0240 19       		.uleb128 0x19
 2766 0241 00       		.byte	0
 2767 0242 00       		.byte	0
 2768 0243 00       		.byte	0
 2769              		.section	.debug_loc,"",%progbits
 2770              	.Ldebug_loc0:
 2771              	.LLST0:
 2772 0000 00000000 		.4byte	.LVL10
 2773 0004 70000000 		.4byte	.LVL21
 2774 0008 0100     		.2byte	0x1
 2775 000a 51       		.byte	0x51
 2776 000b 70000000 		.4byte	.LVL21
 2777 000f 72000000 		.4byte	.LVL22
 2778 0013 0500     		.2byte	0x5
 2779 0015 71       		.byte	0x71
 2780 0016 00       		.sleb128 0
 2781 0017 31       		.byte	0x31
 2782 0018 25       		.byte	0x25
 2783 0019 9F       		.byte	0x9f
 2784 001a 72000000 		.4byte	.LVL22
 2785 001e AC000000 		.4byte	.LFE257
 2786 0022 0100     		.2byte	0x1
 2787 0024 51       		.byte	0x51
 2788 0025 00000000 		.4byte	0
 2789 0029 00000000 		.4byte	0
 2790              	.LLST1:
 2791 002d 00000000 		.4byte	.LVL10
 2792 0031 1E000000 		.4byte	.LVL15
 2793 0035 0100     		.2byte	0x1
ARM GAS  C:\Users\jo\AppData\Local\Temp\cc05uoEL.s 			page 50


 2794 0037 52       		.byte	0x52
 2795 0038 1E000000 		.4byte	.LVL15
 2796 003c AC000000 		.4byte	.LFE257
 2797 0040 0400     		.2byte	0x4
 2798 0042 F3       		.byte	0xf3
 2799 0043 01       		.uleb128 0x1
 2800 0044 52       		.byte	0x52
 2801 0045 9F       		.byte	0x9f
 2802 0046 00000000 		.4byte	0
 2803 004a 00000000 		.4byte	0
 2804              	.LLST2:
 2805 004e 1E000000 		.4byte	.LVL15
 2806 0052 28000000 		.4byte	.LVL16
 2807 0056 0200     		.2byte	0x2
 2808 0058 30       		.byte	0x30
 2809 0059 9F       		.byte	0x9f
 2810 005a 28000000 		.4byte	.LVL16
 2811 005e AC000000 		.4byte	.LFE257
 2812 0062 0100     		.2byte	0x1
 2813 0064 54       		.byte	0x54
 2814 0065 00000000 		.4byte	0
 2815 0069 00000000 		.4byte	0
 2816              	.LLST3:
 2817 006d 28000000 		.4byte	.LVL16
 2818 0071 3C000000 		.4byte	.LVL19
 2819 0075 0100     		.2byte	0x1
 2820 0077 5A       		.byte	0x5a
 2821 0078 3C000000 		.4byte	.LVL19
 2822 007c 80000000 		.4byte	.LVL27
 2823 0080 0A00     		.2byte	0xa
 2824 0082 72       		.byte	0x72
 2825 0083 00       		.sleb128 0
 2826 0084 74       		.byte	0x74
 2827 0085 00       		.sleb128 0
 2828 0086 37       		.byte	0x37
 2829 0087 1A       		.byte	0x1a
 2830 0088 32       		.byte	0x32
 2831 0089 24       		.byte	0x24
 2832 008a 24       		.byte	0x24
 2833 008b 9F       		.byte	0x9f
 2834 008c 8E000000 		.4byte	.LVL28
 2835 0090 A8000000 		.4byte	.LVL31
 2836 0094 0100     		.2byte	0x1
 2837 0096 5A       		.byte	0x5a
 2838 0097 A8000000 		.4byte	.LVL31
 2839 009b AC000000 		.4byte	.LFE257
 2840 009f 0A00     		.2byte	0xa
 2841 00a1 72       		.byte	0x72
 2842 00a2 00       		.sleb128 0
 2843 00a3 74       		.byte	0x74
 2844 00a4 00       		.sleb128 0
 2845 00a5 37       		.byte	0x37
 2846 00a6 1A       		.byte	0x1a
 2847 00a7 32       		.byte	0x32
 2848 00a8 24       		.byte	0x24
 2849 00a9 24       		.byte	0x24
 2850 00aa 9F       		.byte	0x9f
ARM GAS  C:\Users\jo\AppData\Local\Temp\cc05uoEL.s 			page 51


 2851 00ab 00000000 		.4byte	0
 2852 00af 00000000 		.4byte	0
 2853              	.LLST4:
 2854 00b3 36000000 		.4byte	.LVL18
 2855 00b7 70000000 		.4byte	.LVL21
 2856 00bb 0500     		.2byte	0x5
 2857 00bd 31       		.byte	0x31
 2858 00be 74       		.byte	0x74
 2859 00bf 00       		.sleb128 0
 2860 00c0 24       		.byte	0x24
 2861 00c1 9F       		.byte	0x9f
 2862 00c2 00000000 		.4byte	0
 2863 00c6 00000000 		.4byte	0
 2864              	.LLST5:
 2865 00ca 44000000 		.4byte	.LVL20
 2866 00ce 70000000 		.4byte	.LVL21
 2867 00d2 0700     		.2byte	0x7
 2868 00d4 33       		.byte	0x33
 2869 00d5 74       		.byte	0x74
 2870 00d6 00       		.sleb128 0
 2871 00d7 31       		.byte	0x31
 2872 00d8 24       		.byte	0x24
 2873 00d9 24       		.byte	0x24
 2874 00da 9F       		.byte	0x9f
 2875 00db 00000000 		.4byte	0
 2876 00df 00000000 		.4byte	0
 2877              	.LLST6:
 2878 00e3 28000000 		.4byte	.LVL16
 2879 00e7 30000000 		.4byte	.LVL17
 2880 00eb 0100     		.2byte	0x1
 2881 00ed 53       		.byte	0x53
 2882 00ee 30000000 		.4byte	.LVL17
 2883 00f2 80000000 		.4byte	.LVL27
 2884 00f6 0A00     		.2byte	0xa
 2885 00f8 7C       		.byte	0x7c
 2886 00f9 00       		.sleb128 0
 2887 00fa 74       		.byte	0x74
 2888 00fb 00       		.sleb128 0
 2889 00fc 37       		.byte	0x37
 2890 00fd 1A       		.byte	0x1a
 2891 00fe 32       		.byte	0x32
 2892 00ff 24       		.byte	0x24
 2893 0100 24       		.byte	0x24
 2894 0101 9F       		.byte	0x9f
 2895 0102 92000000 		.4byte	.LVL29
 2896 0106 A0000000 		.4byte	.LVL30
 2897 010a 0100     		.2byte	0x1
 2898 010c 53       		.byte	0x53
 2899 010d A0000000 		.4byte	.LVL30
 2900 0111 AC000000 		.4byte	.LFE257
 2901 0115 0A00     		.2byte	0xa
 2902 0117 7C       		.byte	0x7c
 2903 0118 00       		.sleb128 0
 2904 0119 74       		.byte	0x74
 2905 011a 00       		.sleb128 0
 2906 011b 37       		.byte	0x37
 2907 011c 1A       		.byte	0x1a
ARM GAS  C:\Users\jo\AppData\Local\Temp\cc05uoEL.s 			page 52


 2908 011d 32       		.byte	0x32
 2909 011e 24       		.byte	0x24
 2910 011f 24       		.byte	0x24
 2911 0120 9F       		.byte	0x9f
 2912 0121 00000000 		.4byte	0
 2913 0125 00000000 		.4byte	0
 2914              		.section	.debug_aranges,"",%progbits
 2915 0000 24000000 		.4byte	0x24
 2916 0004 0200     		.2byte	0x2
 2917 0006 00000000 		.4byte	.Ldebug_info0
 2918 000a 04       		.byte	0x4
 2919 000b 00       		.byte	0
 2920 000c 0000     		.2byte	0
 2921 000e 0000     		.2byte	0
 2922 0010 00000000 		.4byte	.LFB256
 2923 0014 CC010000 		.4byte	.LFE256-.LFB256
 2924 0018 00000000 		.4byte	.LFB257
 2925 001c AC000000 		.4byte	.LFE257-.LFB257
 2926 0020 00000000 		.4byte	0
 2927 0024 00000000 		.4byte	0
 2928              		.section	.debug_ranges,"",%progbits
 2929              	.Ldebug_ranges0:
 2930 0000 08000000 		.4byte	.LBB20
 2931 0004 0C000000 		.4byte	.LBE20
 2932 0008 3C000000 		.4byte	.LBB47
 2933 000c 66000000 		.4byte	.LBE47
 2934 0010 00000000 		.4byte	0
 2935 0014 00000000 		.4byte	0
 2936 0018 10000000 		.4byte	.LBB23
 2937 001c 14000000 		.4byte	.LBE23
 2938 0020 66000000 		.4byte	.LBB48
 2939 0024 90000000 		.4byte	.LBE48
 2940 0028 00000000 		.4byte	0
 2941 002c 00000000 		.4byte	0
 2942 0030 14000000 		.4byte	.LBB26
 2943 0034 16000000 		.4byte	.LBE26
 2944 0038 90000000 		.4byte	.LBB49
 2945 003c AC000000 		.4byte	.LBE49
 2946 0040 00000000 		.4byte	0
 2947 0044 00000000 		.4byte	0
 2948 0048 16000000 		.4byte	.LBB29
 2949 004c 18000000 		.4byte	.LBE29
 2950 0050 AC000000 		.4byte	.LBB50
 2951 0054 C8000000 		.4byte	.LBE50
 2952 0058 00000000 		.4byte	0
 2953 005c 00000000 		.4byte	0
 2954 0060 18000000 		.4byte	.LBB32
 2955 0064 1A000000 		.4byte	.LBE32
 2956 0068 C8000000 		.4byte	.LBB51
 2957 006c EA000000 		.4byte	.LBE51
 2958 0070 00000000 		.4byte	0
 2959 0074 00000000 		.4byte	0
 2960 0078 1A000000 		.4byte	.LBB35
 2961 007c 1C000000 		.4byte	.LBE35
 2962 0080 EA000000 		.4byte	.LBB52
 2963 0084 14010000 		.4byte	.LBE52
 2964 0088 00000000 		.4byte	0
ARM GAS  C:\Users\jo\AppData\Local\Temp\cc05uoEL.s 			page 53


 2965 008c 00000000 		.4byte	0
 2966 0090 1C000000 		.4byte	.LBB38
 2967 0094 1E000000 		.4byte	.LBE38
 2968 0098 14010000 		.4byte	.LBB53
 2969 009c 3E010000 		.4byte	.LBE53
 2970 00a0 00000000 		.4byte	0
 2971 00a4 00000000 		.4byte	0
 2972 00a8 1E000000 		.4byte	.LBB41
 2973 00ac 20000000 		.4byte	.LBE41
 2974 00b0 3E010000 		.4byte	.LBB54
 2975 00b4 68010000 		.4byte	.LBE54
 2976 00b8 00000000 		.4byte	0
 2977 00bc 00000000 		.4byte	0
 2978 00c0 20000000 		.4byte	.LBB44
 2979 00c4 24000000 		.4byte	.LBE44
 2980 00c8 68010000 		.4byte	.LBB55
 2981 00cc CC010000 		.4byte	.LBE55
 2982 00d0 00000000 		.4byte	0
 2983 00d4 00000000 		.4byte	0
 2984 00d8 04000000 		.4byte	.LBB56
 2985 00dc 08000000 		.4byte	.LBE56
 2986 00e0 1E000000 		.4byte	.LBB57
 2987 00e4 70000000 		.4byte	.LBE57
 2988 00e8 80000000 		.4byte	.LBB58
 2989 00ec 86000000 		.4byte	.LBE58
 2990 00f0 8A000000 		.4byte	.LBB59
 2991 00f4 92000000 		.4byte	.LBE59
 2992 00f8 94000000 		.4byte	.LBB60
 2993 00fc AC000000 		.4byte	.LBE60
 2994 0100 00000000 		.4byte	0
 2995 0104 00000000 		.4byte	0
 2996 0108 00000000 		.4byte	.LFB256
 2997 010c CC010000 		.4byte	.LFE256
 2998 0110 00000000 		.4byte	.LFB257
 2999 0114 AC000000 		.4byte	.LFE257
 3000 0118 00000000 		.4byte	0
 3001 011c 00000000 		.4byte	0
 3002              		.section	.debug_line,"",%progbits
 3003              	.Ldebug_line0:
 3004 0000 E3020000 		.section	.debug_str,"MS",%progbits,1
 3004      02003502 
 3004      00000201 
 3004      FB0E0D00 
 3004      01010101 
 3005              	.LASF168:
 3006 0000 73746D33 		.ascii	"stm32_gpio_setup_t\000"
 3006      325F6770 
 3006      696F5F73 
 3006      65747570 
 3006      5F7400
 3007              	.LASF127:
 3008 0013 74625F70 		.ascii	"tb_ptr\000"
 3008      747200
 3009              	.LASF55:
 3010 001a 72656164 		.ascii	"ready_list_t\000"
 3010      795F6C69 
 3010      73745F74 
ARM GAS  C:\Users\jo\AppData\Local\Temp\cc05uoEL.s 			page 54


 3010      00
 3011              	.LASF121:
 3012 0027 73655F74 		.ascii	"se_time\000"
 3012      696D6500 
 3013              	.LASF142:
 3014 002f 7264796D 		.ascii	"rdymsg\000"
 3014      736700
 3015              	.LASF18:
 3016 0036 75696E74 		.ascii	"uint64_t\000"
 3016      36345F74 
 3016      00
 3017              	.LASF4:
 3018 003f 5F5F7569 		.ascii	"__uint8_t\000"
 3018      6E74385F 
 3018      7400
 3019              	.LASF154:
 3020 0049 4F545950 		.ascii	"OTYPER\000"
 3020      455200
 3021              	.LASF119:
 3022 0050 706F7274 		.ascii	"port_intctx\000"
 3022      5F696E74 
 3022      63747800 
 3023              	.LASF54:
 3024 005c 63685F74 		.ascii	"ch_threads_queue\000"
 3024      68726561 
 3024      64735F71 
 3024      75657565 
 3024      00
 3025              	.LASF74:
 3026 006d 73797374 		.ascii	"system_debug_t\000"
 3026      656D5F64 
 3026      65627567 
 3026      5F7400
 3027              	.LASF179:
 3028 007c 696F706F 		.ascii	"ioportmask_t\000"
 3028      72746D61 
 3028      736B5F74 
 3028      00
 3029              	.LASF133:
 3030 0089 776F7273 		.ascii	"worst\000"
 3030      7400
 3031              	.LASF176:
 3032 008f 50484461 		.ascii	"PHData\000"
 3032      746100
 3033              	.LASF136:
 3034 0096 74696D65 		.ascii	"time_measurement_t\000"
 3034      5F6D6561 
 3034      73757265 
 3034      6D656E74 
 3034      5F7400
 3035              	.LASF153:
 3036 00a9 4D4F4445 		.ascii	"MODER\000"
 3036      5200
 3037              	.LASF13:
 3038 00af 6C6F6E67 		.ascii	"long long unsigned int\000"
 3038      206C6F6E 
 3038      6720756E 
ARM GAS  C:\Users\jo\AppData\Local\Temp\cc05uoEL.s 			page 55


 3038      7369676E 
 3038      65642069 
 3039              	.LASF129:
 3040 00c6 63685F74 		.ascii	"ch_trace_buffer_t\000"
 3040      72616365 
 3040      5F627566 
 3040      6665725F 
 3040      7400
 3041              	.LASF124:
 3042 00d8 73655F73 		.ascii	"se_state\000"
 3042      74617465 
 3042      00
 3043              	.LASF156:
 3044 00e1 50555044 		.ascii	"PUPDR\000"
 3044      5200
 3045              	.LASF143:
 3046 00e7 65786974 		.ascii	"exitcode\000"
 3046      636F6465 
 3046      00
 3047              	.LASF84:
 3048 00f0 6D61696E 		.ascii	"mainthread\000"
 3048      74687265 
 3048      616400
 3049              	.LASF71:
 3050 00fb 76697274 		.ascii	"virtual_timers_list_t\000"
 3050      75616C5F 
 3050      74696D65 
 3050      72735F6C 
 3050      6973745F 
 3051              	.LASF191:
 3052 0111 49544D5F 		.ascii	"ITM_RxBuffer\000"
 3052      52784275 
 3052      66666572 
 3052      00
 3053              	.LASF20:
 3054 011e 72747469 		.ascii	"rttime_t\000"
 3054      6D655F74 
 3054      00
 3055              	.LASF104:
 3056 0127 41484231 		.ascii	"AHB1LPENR\000"
 3056      4C50454E 
 3056      5200
 3057              	.LASF33:
 3058 0131 705F7072 		.ascii	"p_prio\000"
 3058      696F00
 3059              	.LASF194:
 3060 0138 433A5C55 		.ascii	"C:\\Users\\jo\\Documents\\GitHub\\ChibiOS\\demos\\S"
 3060      73657273 
 3060      5C6A6F5C 
 3060      446F6375 
 3060      6D656E74 
 3061 0164 544D3332 		.ascii	"TM32\\RT-STM32F407-DISCOVERY-uHttp\000"
 3061      5C52542D 
 3061      53544D33 
 3061      32463430 
 3061      372D4449 
 3062              	.LASF11:
ARM GAS  C:\Users\jo\AppData\Local\Temp\cc05uoEL.s 			page 56


 3063 0186 6C6F6E67 		.ascii	"long long int\000"
 3063      206C6F6E 
 3063      6720696E 
 3063      7400
 3064              	.LASF1:
 3065 0194 7369676E 		.ascii	"signed char\000"
 3065      65642063 
 3065      68617200 
 3066              	.LASF157:
 3067 01a0 42535252 		.ascii	"BSRR\000"
 3067      00
 3068              	.LASF90:
 3069 01a5 41484231 		.ascii	"AHB1RSTR\000"
 3069      52535452 
 3069      00
 3070              	.LASF48:
 3071 01ae 705F6D70 		.ascii	"p_mpool\000"
 3071      6F6F6C00 
 3072              	.LASF147:
 3073 01b6 6D5F7175 		.ascii	"m_queue\000"
 3073      65756500 
 3074              	.LASF162:
 3075 01be 6D6F6465 		.ascii	"moder\000"
 3075      7200
 3076              	.LASF115:
 3077 01c4 5243435F 		.ascii	"RCC_TypeDef\000"
 3077      54797065 
 3077      44656600 
 3078              	.LASF81:
 3079 01d0 63685F73 		.ascii	"ch_system\000"
 3079      79737465 
 3079      6D00
 3080              	.LASF8:
 3081 01da 6C6F6E67 		.ascii	"long int\000"
 3081      20696E74 
 3081      00
 3082              	.LASF173:
 3083 01e3 50454461 		.ascii	"PEData\000"
 3083      746100
 3084              	.LASF108:
 3085 01ea 41504231 		.ascii	"APB1LPENR\000"
 3085      4C50454E 
 3085      5200
 3086              	.LASF22:
 3087 01f4 74737461 		.ascii	"tstate_t\000"
 3087      74655F74 
 3087      00
 3088              	.LASF122:
 3089 01fd 73655F74 		.ascii	"se_tp\000"
 3089      7000
 3090              	.LASF15:
 3091 0203 75696E74 		.ascii	"uint16_t\000"
 3091      31365F74 
 3091      00
 3092              	.LASF190:
 3093 020c 616C7472 		.ascii	"altrmask\000"
 3093      6D61736B 
ARM GAS  C:\Users\jo\AppData\Local\Temp\cc05uoEL.s 			page 57


 3093      00
 3094              	.LASF35:
 3095 0215 705F6E65 		.ascii	"p_newer\000"
 3095      77657200 
 3096              	.LASF88:
 3097 021d 504C4C43 		.ascii	"PLLCFGR\000"
 3097      46475200 
 3098              	.LASF126:
 3099 0225 74625F73 		.ascii	"tb_size\000"
 3099      697A6500 
 3100              	.LASF155:
 3101 022d 4F535045 		.ascii	"OSPEEDR\000"
 3101      45445200 
 3102              	.LASF60:
 3103 0235 725F6E65 		.ascii	"r_newer\000"
 3103      77657200 
 3104              	.LASF187:
 3105 023d 6D61736B 		.ascii	"mask\000"
 3105      00
 3106              	.LASF116:
 3107 0242 72656761 		.ascii	"regarm_t\000"
 3107      726D5F74 
 3107      00
 3108              	.LASF67:
 3109 024b 76745F70 		.ascii	"vt_prev\000"
 3109      72657600 
 3110              	.LASF83:
 3111 0253 76746C69 		.ascii	"vtlist\000"
 3111      737400
 3112              	.LASF75:
 3113 025a 63685F73 		.ascii	"ch_system_debug\000"
 3113      79737465 
 3113      6D5F6465 
 3113      62756700 
 3114              	.LASF161:
 3115 026a 73746D33 		.ascii	"stm32_gpio_t\000"
 3115      325F6770 
 3115      696F5F74 
 3115      00
 3116              	.LASF186:
 3117 0277 706F7274 		.ascii	"port\000"
 3117      00
 3118              	.LASF150:
 3119 027c 6D757465 		.ascii	"mutex_t\000"
 3119      785F7400 
 3120              	.LASF170:
 3121 0284 50424461 		.ascii	"PBData\000"
 3121      746100
 3122              	.LASF78:
 3123 028b 6C6F636B 		.ascii	"lock_cnt\000"
 3123      5F636E74 
 3123      00
 3124              	.LASF86:
 3125 0294 69646C65 		.ascii	"idle_thread_wa\000"
 3125      5F746872 
 3125      6561645F 
 3125      776100
ARM GAS  C:\Users\jo\AppData\Local\Temp\cc05uoEL.s 			page 58


 3126              	.LASF27:
 3127 02a3 636E745F 		.ascii	"cnt_t\000"
 3127      7400
 3128              	.LASF38:
 3129 02a9 705F7374 		.ascii	"p_stklimit\000"
 3129      6B6C696D 
 3129      697400
 3130              	.LASF0:
 3131 02b4 756E7369 		.ascii	"unsigned int\000"
 3131      676E6564 
 3131      20696E74 
 3131      00
 3132              	.LASF66:
 3133 02c1 76745F6E 		.ascii	"vt_next\000"
 3133      65787400 
 3134              	.LASF43:
 3135 02c9 705F6D73 		.ascii	"p_msgqueue\000"
 3135      67717565 
 3135      756500
 3136              	.LASF164:
 3137 02d4 6F737065 		.ascii	"ospeedr\000"
 3137      65647200 
 3138              	.LASF158:
 3139 02dc 4C434B52 		.ascii	"LCKR\000"
 3139      00
 3140              	.LASF137:
 3141 02e1 6E5F6972 		.ascii	"n_irq\000"
 3141      7100
 3142              	.LASF163:
 3143 02e7 6F747970 		.ascii	"otyper\000"
 3143      657200
 3144              	.LASF6:
 3145 02ee 73686F72 		.ascii	"short unsigned int\000"
 3145      7420756E 
 3145      7369676E 
 3145      65642069 
 3145      6E7400
 3146              	.LASF141:
 3147 0301 6B65726E 		.ascii	"kernel_stats_t\000"
 3147      656C5F73 
 3147      74617473 
 3147      5F7400
 3148              	.LASF51:
 3149 0310 63685F74 		.ascii	"ch_thread\000"
 3149      68726561 
 3149      6400
 3150              	.LASF114:
 3151 031a 504C4C49 		.ascii	"PLLI2SCFGR\000"
 3151      32534346 
 3151      475200
 3152              	.LASF95:
 3153 0325 41504232 		.ascii	"APB2RSTR\000"
 3153      52535452 
 3153      00
 3154              	.LASF25:
 3155 032e 6D73675F 		.ascii	"msg_t\000"
 3155      7400
ARM GAS  C:\Users\jo\AppData\Local\Temp\cc05uoEL.s 			page 59


 3156              	.LASF92:
 3157 0334 41484233 		.ascii	"AHB3RSTR\000"
 3157      52535452 
 3157      00
 3158              	.LASF28:
 3159 033d 75636E74 		.ascii	"ucnt_t\000"
 3159      5F7400
 3160              	.LASF80:
 3161 0344 63685F73 		.ascii	"ch_system_t\000"
 3161      79737465 
 3161      6D5F7400 
 3162              	.LASF128:
 3163 0350 74625F62 		.ascii	"tb_buffer\000"
 3163      75666665 
 3163      7200
 3164              	.LASF109:
 3165 035a 41504232 		.ascii	"APB2LPENR\000"
 3165      4C50454E 
 3165      5200
 3166              	.LASF140:
 3167 0364 6D5F6372 		.ascii	"m_crit_isr\000"
 3167      69745F69 
 3167      737200
 3168              	.LASF56:
 3169 036f 63685F72 		.ascii	"ch_ready_list\000"
 3169      65616479 
 3169      5F6C6973 
 3169      7400
 3170              	.LASF26:
 3171 037d 6576656E 		.ascii	"eventmask_t\000"
 3171      746D6173 
 3171      6B5F7400 
 3172              	.LASF7:
 3173 0389 5F5F696E 		.ascii	"__int32_t\000"
 3173      7433325F 
 3173      7400
 3174              	.LASF175:
 3175 0393 50474461 		.ascii	"PGData\000"
 3175      746100
 3176              	.LASF192:
 3177 039a 474E5520 		.ascii	"GNU C 4.9.3 20141119 (release) [ARM/embedded-4_9-br"
 3177      4320342E 
 3177      392E3320 
 3177      32303134 
 3177      31313139 
 3178 03cd 616E6368 		.ascii	"anch revision 218278] -mcpu=cortex-m4 -mno-thumb-in"
 3178      20726576 
 3178      6973696F 
 3178      6E203231 
 3178      38323738 
 3179 0400 74657277 		.ascii	"terwork -mthumb -ggdb -O2 -fomit-frame-pointer -fal"
 3179      6F726B20 
 3179      2D6D7468 
 3179      756D6220 
 3179      2D676764 
 3180 0433 69676E2D 		.ascii	"ign-functions=16 -ffunction-sections -fdata-section"
 3180      66756E63 
ARM GAS  C:\Users\jo\AppData\Local\Temp\cc05uoEL.s 			page 60


 3180      74696F6E 
 3180      733D3136 
 3180      202D6666 
 3181 0466 73202D66 		.ascii	"s -fno-common\000"
 3181      6E6F2D63 
 3181      6F6D6D6F 
 3181      6E00
 3182              	.LASF117:
 3183 0474 73746B61 		.ascii	"stkalign_t\000"
 3183      6C69676E 
 3183      5F7400
 3184              	.LASF50:
 3185 047f 74687265 		.ascii	"threads_list_t\000"
 3185      6164735F 
 3185      6C697374 
 3185      5F7400
 3186              	.LASF64:
 3187 048e 76697274 		.ascii	"virtual_timer_t\000"
 3187      75616C5F 
 3187      74696D65 
 3187      725F7400 
 3188              	.LASF42:
 3189 049e 705F7761 		.ascii	"p_waiting\000"
 3189      6974696E 
 3189      6700
 3190              	.LASF87:
 3191 04a8 73697A65 		.ascii	"sizetype\000"
 3191      74797065 
 3191      00
 3192              	.LASF72:
 3193 04b1 63685F76 		.ascii	"ch_virtual_timers_list\000"
 3193      69727475 
 3193      616C5F74 
 3193      696D6572 
 3193      735F6C69 
 3194              	.LASF152:
 3195 04c8 636C6561 		.ascii	"clear\000"
 3195      7200
 3196              	.LASF125:
 3197 04ce 63685F73 		.ascii	"ch_swc_event_t\000"
 3197      77635F65 
 3197      76656E74 
 3197      5F7400
 3198              	.LASF99:
 3199 04dd 41484233 		.ascii	"AHB3ENR\000"
 3199      454E5200 
 3200              	.LASF73:
 3201 04e5 76745F6C 		.ascii	"vt_lasttime\000"
 3201      61737474 
 3201      696D6500 
 3202              	.LASF36:
 3203 04f1 705F6F6C 		.ascii	"p_older\000"
 3203      64657200 
 3204              	.LASF59:
 3205 04f9 725F6374 		.ascii	"r_ctx\000"
 3205      7800
 3206              	.LASF105:
ARM GAS  C:\Users\jo\AppData\Local\Temp\cc05uoEL.s 			page 61


 3207 04ff 41484232 		.ascii	"AHB2LPENR\000"
 3207      4C50454E 
 3207      5200
 3208              	.LASF131:
 3209 0509 746D5F63 		.ascii	"tm_calibration_t\000"
 3209      616C6962 
 3209      72617469 
 3209      6F6E5F74 
 3209      00
 3210              	.LASF167:
 3211 051a 61667268 		.ascii	"afrh\000"
 3211      00
 3212              	.LASF172:
 3213 051f 50444461 		.ascii	"PDData\000"
 3213      746100
 3214              	.LASF62:
 3215 0526 725F6375 		.ascii	"r_current\000"
 3215      7272656E 
 3215      7400
 3216              	.LASF94:
 3217 0530 41504231 		.ascii	"APB1RSTR\000"
 3217      52535452 
 3217      00
 3218              	.LASF12:
 3219 0539 5F5F7569 		.ascii	"__uint64_t\000"
 3219      6E743634 
 3219      5F7400
 3220              	.LASF160:
 3221 0544 41465248 		.ascii	"AFRH\000"
 3221      00
 3222              	.LASF135:
 3223 0549 63756D75 		.ascii	"cumulative\000"
 3223      6C617469 
 3223      766500
 3224              	.LASF159:
 3225 0554 4146524C 		.ascii	"AFRL\000"
 3225      00
 3226              	.LASF85:
 3227 0559 6B65726E 		.ascii	"kernel_stats\000"
 3227      656C5F73 
 3227      74617473 
 3227      00
 3228              	.LASF23:
 3229 0566 74726566 		.ascii	"trefs_t\000"
 3229      735F7400 
 3230              	.LASF93:
 3231 056e 52455345 		.ascii	"RESERVED0\000"
 3231      52564544 
 3231      3000
 3232              	.LASF96:
 3233 0578 52455345 		.ascii	"RESERVED1\000"
 3233      52564544 
 3233      3100
 3234              	.LASF100:
 3235 0582 52455345 		.ascii	"RESERVED2\000"
 3235      52564544 
 3235      3200
ARM GAS  C:\Users\jo\AppData\Local\Temp\cc05uoEL.s 			page 62


 3236              	.LASF103:
 3237 058c 52455345 		.ascii	"RESERVED3\000"
 3237      52564544 
 3237      3300
 3238              	.LASF107:
 3239 0596 52455345 		.ascii	"RESERVED4\000"
 3239      52564544 
 3239      3400
 3240              	.LASF32:
 3241 05a0 705F7072 		.ascii	"p_prev\000"
 3241      657600
 3242              	.LASF112:
 3243 05a7 52455345 		.ascii	"RESERVED6\000"
 3243      52564544 
 3243      3600
 3244              	.LASF24:
 3245 05b1 74707269 		.ascii	"tprio_t\000"
 3245      6F5F7400 
 3246              	.LASF146:
 3247 05b9 6D757465 		.ascii	"mutex\000"
 3247      7800
 3248              	.LASF138:
 3249 05bf 6E5F6374 		.ascii	"n_ctxswc\000"
 3249      78737763 
 3249      00
 3250              	.LASF151:
 3251 05c8 5F426F6F 		.ascii	"_Bool\000"
 3251      6C00
 3252              	.LASF16:
 3253 05ce 696E7433 		.ascii	"int32_t\000"
 3253      325F7400 
 3254              	.LASF2:
 3255 05d6 756E7369 		.ascii	"unsigned char\000"
 3255      676E6564 
 3255      20636861 
 3255      7200
 3256              	.LASF166:
 3257 05e4 6166726C 		.ascii	"afrl\000"
 3257      00
 3258              	.LASF46:
 3259 05e9 705F6D74 		.ascii	"p_mtxlist\000"
 3259      786C6973 
 3259      7400
 3260              	.LASF3:
 3261 05f3 73686F72 		.ascii	"short int\000"
 3261      7420696E 
 3261      7400
 3262              	.LASF39:
 3263 05fd 705F7374 		.ascii	"p_state\000"
 3263      61746500 
 3264              	.LASF106:
 3265 0605 41484233 		.ascii	"AHB3LPENR\000"
 3265      4C50454E 
 3265      5200
 3266              	.LASF58:
 3267 060f 725F7072 		.ascii	"r_prio\000"
 3267      696F00
ARM GAS  C:\Users\jo\AppData\Local\Temp\cc05uoEL.s 			page 63


 3268              	.LASF169:
 3269 0616 50414461 		.ascii	"PAData\000"
 3269      746100
 3270              	.LASF145:
 3271 061d 65776D61 		.ascii	"ewmask\000"
 3271      736B00
 3272              	.LASF31:
 3273 0624 705F6E65 		.ascii	"p_next\000"
 3273      787400
 3274              	.LASF21:
 3275 062b 746D6F64 		.ascii	"tmode_t\000"
 3275      655F7400 
 3276              	.LASF40:
 3277 0633 705F666C 		.ascii	"p_flags\000"
 3277      61677300 
 3278              	.LASF49:
 3279 063b 705F7374 		.ascii	"p_stats\000"
 3279      61747300 
 3280              	.LASF182:
 3281 0643 6770696F 		.ascii	"gpiop\000"
 3281      7000
 3282              	.LASF102:
 3283 0649 41504232 		.ascii	"APB2ENR\000"
 3283      454E5200 
 3284              	.LASF177:
 3285 0651 50494461 		.ascii	"PIData\000"
 3285      746100
 3286              	.LASF65:
 3287 0658 63685F76 		.ascii	"ch_virtual_timer\000"
 3287      69727475 
 3287      616C5F74 
 3287      696D6572 
 3287      00
 3288              	.LASF45:
 3289 0669 705F6570 		.ascii	"p_epending\000"
 3289      656E6469 
 3289      6E6700
 3290              	.LASF110:
 3291 0674 52455345 		.ascii	"RESERVED5\000"
 3291      52564544 
 3291      3500
 3292              	.LASF17:
 3293 067e 75696E74 		.ascii	"uint32_t\000"
 3293      33325F74 
 3293      00
 3294              	.LASF57:
 3295 0687 725F7175 		.ascii	"r_queue\000"
 3295      65756500 
 3296              	.LASF68:
 3297 068f 76745F64 		.ascii	"vt_delta\000"
 3297      656C7461 
 3297      00
 3298              	.LASF52:
 3299 0698 63685F74 		.ascii	"ch_threads_list\000"
 3299      68726561 
 3299      64735F6C 
 3299      69737400 
ARM GAS  C:\Users\jo\AppData\Local\Temp\cc05uoEL.s 			page 64


 3300              	.LASF10:
 3301 06a8 6C6F6E67 		.ascii	"long unsigned int\000"
 3301      20756E73 
 3301      69676E65 
 3301      6420696E 
 3301      7400
 3302              	.LASF189:
 3303 06ba 616C7472 		.ascii	"altr\000"
 3303      00
 3304              	.LASF120:
 3305 06bf 63686172 		.ascii	"char\000"
 3305      00
 3306              	.LASF188:
 3307 06c4 6D6F6465 		.ascii	"mode\000"
 3307      00
 3308              	.LASF183:
 3309 06c9 636F6E66 		.ascii	"config\000"
 3309      696700
 3310              	.LASF5:
 3311 06d0 5F5F7569 		.ascii	"__uint16_t\000"
 3311      6E743136 
 3311      5F7400
 3312              	.LASF91:
 3313 06db 41484232 		.ascii	"AHB2RSTR\000"
 3313      52535452 
 3313      00
 3314              	.LASF30:
 3315 06e4 74687265 		.ascii	"thread_t\000"
 3315      61645F74 
 3315      00
 3316              	.LASF132:
 3317 06ed 62657374 		.ascii	"best\000"
 3317      00
 3318              	.LASF149:
 3319 06f2 6D5F6E65 		.ascii	"m_next\000"
 3319      787400
 3320              	.LASF29:
 3321 06f9 73797374 		.ascii	"systime_t\000"
 3321      696D655F 
 3321      7400
 3322              	.LASF47:
 3323 0703 705F7265 		.ascii	"p_realprio\000"
 3323      616C7072 
 3323      696F00
 3324              	.LASF63:
 3325 070e 76746675 		.ascii	"vtfunc_t\000"
 3325      6E635F74 
 3325      00
 3326              	.LASF9:
 3327 0717 5F5F7569 		.ascii	"__uint32_t\000"
 3327      6E743332 
 3327      5F7400
 3328              	.LASF134:
 3329 0722 6C617374 		.ascii	"last\000"
 3329      00
 3330              	.LASF195:
 3331 0727 696E6974 		.ascii	"initgpio\000"
ARM GAS  C:\Users\jo\AppData\Local\Temp\cc05uoEL.s 			page 65


 3331      6770696F 
 3331      00
 3332              	.LASF76:
 3333 0730 70616E69 		.ascii	"panic_msg\000"
 3333      635F6D73 
 3333      6700
 3334              	.LASF130:
 3335 073a 6F666673 		.ascii	"offset\000"
 3335      657400
 3336              	.LASF101:
 3337 0741 41504231 		.ascii	"APB1ENR\000"
 3337      454E5200 
 3338              	.LASF181:
 3339 0749 696F706F 		.ascii	"ioportid_t\000"
 3339      72746964 
 3339      5F7400
 3340              	.LASF98:
 3341 0754 41484232 		.ascii	"AHB2ENR\000"
 3341      454E5200 
 3342              	.LASF118:
 3343 075c 636F6E74 		.ascii	"context\000"
 3343      65787400 
 3344              	.LASF61:
 3345 0764 725F6F6C 		.ascii	"r_older\000"
 3345      64657200 
 3346              	.LASF185:
 3347 076c 5F70616C 		.ascii	"_pal_lld_setgroupmode\000"
 3347      5F6C6C64 
 3347      5F736574 
 3347      67726F75 
 3347      706D6F64 
 3348              	.LASF19:
 3349 0782 7274636E 		.ascii	"rtcnt_t\000"
 3349      745F7400 
 3350              	.LASF70:
 3351 078a 76745F70 		.ascii	"vt_par\000"
 3351      617200
 3352              	.LASF178:
 3353 0791 50414C43 		.ascii	"PALConfig\000"
 3353      6F6E6669 
 3353      6700
 3354              	.LASF113:
 3355 079b 53534347 		.ascii	"SSCGR\000"
 3355      5200
 3356              	.LASF53:
 3357 07a1 74687265 		.ascii	"threads_queue_t\000"
 3357      6164735F 
 3357      71756575 
 3357      655F7400 
 3358              	.LASF41:
 3359 07b1 705F7265 		.ascii	"p_refs\000"
 3359      667300
 3360              	.LASF77:
 3361 07b8 6973725F 		.ascii	"isr_cnt\000"
 3361      636E7400 
 3362              	.LASF184:
 3363 07c0 5F70616C 		.ascii	"_pal_lld_init\000"
ARM GAS  C:\Users\jo\AppData\Local\Temp\cc05uoEL.s 			page 66


 3363      5F6C6C64 
 3363      5F696E69 
 3363      7400
 3364              	.LASF111:
 3365 07ce 42444352 		.ascii	"BDCR\000"
 3365      00
 3366              	.LASF82:
 3367 07d3 726C6973 		.ascii	"rlist\000"
 3367      7400
 3368              	.LASF14:
 3369 07d9 75696E74 		.ascii	"uint8_t\000"
 3369      385F7400 
 3370              	.LASF165:
 3371 07e1 70757064 		.ascii	"pupdr\000"
 3371      7200
 3372              	.LASF144:
 3373 07e7 77746F62 		.ascii	"wtobjp\000"
 3373      6A7000
 3374              	.LASF37:
 3375 07ee 705F6E61 		.ascii	"p_name\000"
 3375      6D6500
 3376              	.LASF97:
 3377 07f5 41484231 		.ascii	"AHB1ENR\000"
 3377      454E5200 
 3378              	.LASF171:
 3379 07fd 50434461 		.ascii	"PCData\000"
 3379      746100
 3380              	.LASF89:
 3381 0804 43464752 		.ascii	"CFGR\000"
 3381      00
 3382              	.LASF79:
 3383 0809 74726163 		.ascii	"trace_buffer\000"
 3383      655F6275 
 3383      66666572 
 3383      00
 3384              	.LASF44:
 3385 0816 705F6D73 		.ascii	"p_msg\000"
 3385      6700
 3386              	.LASF174:
 3387 081c 50464461 		.ascii	"PFData\000"
 3387      746100
 3388              	.LASF193:
 3389 0823 2E2E2F2E 		.ascii	"../../../os/hal/ports/STM32/LLD/GPIOv2/pal_lld.c\000"
 3389      2E2F2E2E 
 3389      2F6F732F 
 3389      68616C2F 
 3389      706F7274 
 3390              	.LASF180:
 3391 0854 696F6D6F 		.ascii	"iomode_t\000"
 3391      64655F74 
 3391      00
 3392              	.LASF139:
 3393 085d 6D5F6372 		.ascii	"m_crit_thd\000"
 3393      69745F74 
 3393      686400
 3394              	.LASF148:
 3395 0868 6D5F6F77 		.ascii	"m_owner\000"
ARM GAS  C:\Users\jo\AppData\Local\Temp\cc05uoEL.s 			page 67


 3395      6E657200 
 3396              	.LASF123:
 3397 0870 73655F77 		.ascii	"se_wtobjp\000"
 3397      746F626A 
 3397      7000
 3398              	.LASF34:
 3399 087a 705F6374 		.ascii	"p_ctx\000"
 3399      7800
 3400              	.LASF69:
 3401 0880 76745F66 		.ascii	"vt_func\000"
 3401      756E6300 
 3402              		.ident	"GCC: (GNU Tools for ARM Embedded Processors) 4.9.3 20141119 (release) [ARM/embedded-4_9-br
ARM GAS  C:\Users\jo\AppData\Local\Temp\cc05uoEL.s 			page 68


DEFINED SYMBOLS
                            *ABS*:00000000 pal_lld.c
C:\Users\jo\AppData\Local\Temp\cc05uoEL.s:19     .text._pal_lld_init:00000000 $t
C:\Users\jo\AppData\Local\Temp\cc05uoEL.s:25     .text._pal_lld_init:00000000 _pal_lld_init
C:\Users\jo\AppData\Local\Temp\cc05uoEL.s:339    .text._pal_lld_init:000001a4 $d
C:\Users\jo\AppData\Local\Temp\cc05uoEL.s:355    .text._pal_lld_setgroupmode:00000000 $t
C:\Users\jo\AppData\Local\Temp\cc05uoEL.s:361    .text._pal_lld_setgroupmode:00000000 _pal_lld_setgroupmode
                     .debug_frame:00000010 $d
C:\Users\jo\AppData\Local\Temp\cc05uoEL.s:354    .text._pal_lld_init:000001cc $t

NO UNDEFINED SYMBOLS
